; ModuleID = 'simulator/nedelements.cc'
source_filename = "simulator/nedelements.cc"
target datalayout = "e-m:e-p270:32:32-p271:32:32-p272:64:64-i64:64-f80:128-n8:16:32:64-S128"
target triple = "x86_64-pc-linux-gnu"

%class.NedFileElement = type { %class.NEDElement, %"class.std::__cxx11::basic_string", %"class.std::__cxx11::basic_string" }
%class.NEDElement = type { ptr, i64, %"class.std::__cxx11::basic_string", %struct.NEDSourceRegion, ptr, ptr, ptr, ptr, ptr, ptr }
%struct.NEDSourceRegion = type { i32, i32, i32, i32 }
%"class.std::__cxx11::basic_string" = type { %"struct.std::__cxx11::basic_string<char>::_Alloc_hider", i64, %union.anon }
%"struct.std::__cxx11::basic_string<char>::_Alloc_hider" = type { ptr }
%union.anon = type { i64, [8 x i8] }
%class.CommentElement = type { %class.NEDElement, %"class.std::__cxx11::basic_string", %"class.std::__cxx11::basic_string" }
%class.PackageElement = type { %class.NEDElement, %"class.std::__cxx11::basic_string" }
%class.ImportElement = type { %class.NEDElement, %"class.std::__cxx11::basic_string" }
%class.PropertyDeclElement = type <{ %class.NEDElement, %"class.std::__cxx11::basic_string", i8, [7 x i8] }>
%class.ExtendsElement = type { %class.NEDElement, %"class.std::__cxx11::basic_string" }
%class.InterfaceNameElement = type { %class.NEDElement, %"class.std::__cxx11::basic_string" }
%class.SimpleModuleElement = type { %class.NEDElement, %"class.std::__cxx11::basic_string" }
%class.ModuleInterfaceElement = type { %class.NEDElement, %"class.std::__cxx11::basic_string" }
%class.CompoundModuleElement = type { %class.NEDElement, %"class.std::__cxx11::basic_string" }
%class.ChannelInterfaceElement = type { %class.NEDElement, %"class.std::__cxx11::basic_string" }
%class.ChannelElement = type { %class.NEDElement, %"class.std::__cxx11::basic_string" }
%class.ParametersElement = type <{ %class.NEDElement, i8, [7 x i8] }>
%class.ParamElement = type <{ %class.NEDElement, i32, i8, [3 x i8], %"class.std::__cxx11::basic_string", %"class.std::__cxx11::basic_string", i8, [7 x i8] }>
%class.PatternElement = type <{ %class.NEDElement, %"class.std::__cxx11::basic_string", %"class.std::__cxx11::basic_string", i8, [7 x i8] }>
%class.PropertyElement = type { %class.NEDElement, i8, %"class.std::__cxx11::basic_string", %"class.std::__cxx11::basic_string" }
%class.PropertyKeyElement = type { %class.NEDElement, %"class.std::__cxx11::basic_string" }
%class.GateElement = type { %class.NEDElement, %"class.std::__cxx11::basic_string", i32, i8, %"class.std::__cxx11::basic_string" }
%class.SubmoduleElement = type { %class.NEDElement, %"class.std::__cxx11::basic_string", %"class.std::__cxx11::basic_string", %"class.std::__cxx11::basic_string", %"class.std::__cxx11::basic_string", %"class.std::__cxx11::basic_string" }
%class.ConnectionsElement = type <{ %class.NEDElement, i8, [7 x i8] }>
%class.ConnectionElement = type { %class.NEDElement, %"class.std::__cxx11::basic_string", %"class.std::__cxx11::basic_string", %"class.std::__cxx11::basic_string", i8, %"class.std::__cxx11::basic_string", i32, %"class.std::__cxx11::basic_string", %"class.std::__cxx11::basic_string", %"class.std::__cxx11::basic_string", i8, %"class.std::__cxx11::basic_string", i32, i32 }
%class.ChannelSpecElement = type { %class.NEDElement, %"class.std::__cxx11::basic_string", %"class.std::__cxx11::basic_string", %"class.std::__cxx11::basic_string" }
%class.LoopElement = type { %class.NEDElement, %"class.std::__cxx11::basic_string", %"class.std::__cxx11::basic_string", %"class.std::__cxx11::basic_string" }
%class.ConditionElement = type { %class.NEDElement, %"class.std::__cxx11::basic_string" }
%class.ExpressionElement = type { %class.NEDElement, %"class.std::__cxx11::basic_string" }
%class.OperatorElement = type { %class.NEDElement, %"class.std::__cxx11::basic_string" }
%class.FunctionElement = type { %class.NEDElement, %"class.std::__cxx11::basic_string" }
%class.IdentElement = type { %class.NEDElement, %"class.std::__cxx11::basic_string", %"class.std::__cxx11::basic_string" }
%class.LiteralElement = type { %class.NEDElement, i32, %"class.std::__cxx11::basic_string", %"class.std::__cxx11::basic_string", %"class.std::__cxx11::basic_string" }
%class.MsgFileElement = type { %class.NEDElement, %"class.std::__cxx11::basic_string", %"class.std::__cxx11::basic_string" }
%class.NamespaceElement = type { %class.NEDElement, %"class.std::__cxx11::basic_string" }
%class.CplusplusElement = type { %class.NEDElement, %"class.std::__cxx11::basic_string" }
%class.StructDeclElement = type { %class.NEDElement, %"class.std::__cxx11::basic_string" }
%class.ClassDeclElement = type { %class.NEDElement, %"class.std::__cxx11::basic_string", i8, %"class.std::__cxx11::basic_string" }
%class.MessageDeclElement = type { %class.NEDElement, %"class.std::__cxx11::basic_string" }
%class.PacketDeclElement = type { %class.NEDElement, %"class.std::__cxx11::basic_string" }
%class.EnumDeclElement = type { %class.NEDElement, %"class.std::__cxx11::basic_string" }
%class.EnumElement = type { %class.NEDElement, %"class.std::__cxx11::basic_string", %"class.std::__cxx11::basic_string", %"class.std::__cxx11::basic_string" }
%class.EnumFieldElement = type { %class.NEDElement, %"class.std::__cxx11::basic_string", %"class.std::__cxx11::basic_string" }
%class.MessageElement = type { %class.NEDElement, %"class.std::__cxx11::basic_string", %"class.std::__cxx11::basic_string", %"class.std::__cxx11::basic_string" }
%class.PacketElement = type { %class.NEDElement, %"class.std::__cxx11::basic_string", %"class.std::__cxx11::basic_string", %"class.std::__cxx11::basic_string" }
%class.ClassElement = type { %class.NEDElement, %"class.std::__cxx11::basic_string", %"class.std::__cxx11::basic_string", %"class.std::__cxx11::basic_string" }
%class.StructElement = type { %class.NEDElement, %"class.std::__cxx11::basic_string", %"class.std::__cxx11::basic_string", %"class.std::__cxx11::basic_string" }
%class.FieldElement = type { %class.NEDElement, %"class.std::__cxx11::basic_string", %"class.std::__cxx11::basic_string", i8, i8, i8, %"class.std::__cxx11::basic_string", %"class.std::__cxx11::basic_string", %"class.std::__cxx11::basic_string" }
%class.UnknownElement = type { %class.NEDElement, %"class.std::__cxx11::basic_string" }
%class.NEDException = type { %"class.std::runtime_error", %"class.std::__cxx11::basic_string" }
%"class.std::runtime_error" = type { %"class.std::exception", %"struct.std::__cow_string" }
%"class.std::exception" = type { ptr }
%"struct.std::__cow_string" = type { %union.anon.0 }
%union.anon.0 = type { ptr }

$__clang_call_terminate = comdat any

$_ZN12NEDExceptionD2Ev = comdat any

$_ZN12FilesElementD0Ev = comdat any

$_ZNK12FilesElement10getTagNameEv = comdat any

$_ZNK12FilesElement10getTagCodeEv = comdat any

$_ZNK12FilesElement12getAttributeEPKc = comdat any

$_ZN12FilesElement12setAttributeEPKcS1_ = comdat any

$_ZN14NedFileElementD2Ev = comdat any

$_ZN14NedFileElementD0Ev = comdat any

$_ZNK14NedFileElement10getTagNameEv = comdat any

$_ZNK14NedFileElement10getTagCodeEv = comdat any

$_ZNK14NedFileElement12getAttributeEPKc = comdat any

$_ZN14NedFileElement12setAttributeEPKcS1_ = comdat any

$_ZN14CommentElementD2Ev = comdat any

$_ZN14CommentElementD0Ev = comdat any

$_ZNK14CommentElement10getTagNameEv = comdat any

$_ZNK14CommentElement10getTagCodeEv = comdat any

$_ZNK14CommentElement12getAttributeEPKc = comdat any

$_ZN14CommentElement12setAttributeEPKcS1_ = comdat any

$_ZN14PackageElementD2Ev = comdat any

$_ZN14PackageElementD0Ev = comdat any

$_ZNK14PackageElement10getTagNameEv = comdat any

$_ZNK14PackageElement10getTagCodeEv = comdat any

$_ZNK14PackageElement12getAttributeEPKc = comdat any

$_ZN14PackageElement12setAttributeEPKcS1_ = comdat any

$_ZN13ImportElementD2Ev = comdat any

$_ZN13ImportElementD0Ev = comdat any

$_ZNK13ImportElement10getTagNameEv = comdat any

$_ZNK13ImportElement10getTagCodeEv = comdat any

$_ZNK13ImportElement12getAttributeEPKc = comdat any

$_ZN13ImportElement12setAttributeEPKcS1_ = comdat any

$_ZN19PropertyDeclElementD2Ev = comdat any

$_ZN19PropertyDeclElementD0Ev = comdat any

$_ZNK19PropertyDeclElement10getTagNameEv = comdat any

$_ZNK19PropertyDeclElement10getTagCodeEv = comdat any

$_ZNK19PropertyDeclElement12getAttributeEPKc = comdat any

$_ZN19PropertyDeclElement12setAttributeEPKcS1_ = comdat any

$_ZN14ExtendsElementD2Ev = comdat any

$_ZN14ExtendsElementD0Ev = comdat any

$_ZNK14ExtendsElement10getTagNameEv = comdat any

$_ZNK14ExtendsElement10getTagCodeEv = comdat any

$_ZNK14ExtendsElement12getAttributeEPKc = comdat any

$_ZN14ExtendsElement12setAttributeEPKcS1_ = comdat any

$_ZN20InterfaceNameElementD2Ev = comdat any

$_ZN20InterfaceNameElementD0Ev = comdat any

$_ZNK20InterfaceNameElement10getTagNameEv = comdat any

$_ZNK20InterfaceNameElement10getTagCodeEv = comdat any

$_ZNK20InterfaceNameElement12getAttributeEPKc = comdat any

$_ZN20InterfaceNameElement12setAttributeEPKcS1_ = comdat any

$_ZN19SimpleModuleElementD2Ev = comdat any

$_ZN19SimpleModuleElementD0Ev = comdat any

$_ZNK19SimpleModuleElement10getTagNameEv = comdat any

$_ZNK19SimpleModuleElement10getTagCodeEv = comdat any

$_ZNK19SimpleModuleElement12getAttributeEPKc = comdat any

$_ZN19SimpleModuleElement12setAttributeEPKcS1_ = comdat any

$_ZN22ModuleInterfaceElementD2Ev = comdat any

$_ZN22ModuleInterfaceElementD0Ev = comdat any

$_ZNK22ModuleInterfaceElement10getTagNameEv = comdat any

$_ZNK22ModuleInterfaceElement10getTagCodeEv = comdat any

$_ZNK22ModuleInterfaceElement12getAttributeEPKc = comdat any

$_ZN22ModuleInterfaceElement12setAttributeEPKcS1_ = comdat any

$_ZN21CompoundModuleElementD2Ev = comdat any

$_ZN21CompoundModuleElementD0Ev = comdat any

$_ZNK21CompoundModuleElement10getTagNameEv = comdat any

$_ZNK21CompoundModuleElement10getTagCodeEv = comdat any

$_ZNK21CompoundModuleElement12getAttributeEPKc = comdat any

$_ZN21CompoundModuleElement12setAttributeEPKcS1_ = comdat any

$_ZN23ChannelInterfaceElementD2Ev = comdat any

$_ZN23ChannelInterfaceElementD0Ev = comdat any

$_ZNK23ChannelInterfaceElement10getTagNameEv = comdat any

$_ZNK23ChannelInterfaceElement10getTagCodeEv = comdat any

$_ZNK23ChannelInterfaceElement12getAttributeEPKc = comdat any

$_ZN23ChannelInterfaceElement12setAttributeEPKcS1_ = comdat any

$_ZN14ChannelElementD2Ev = comdat any

$_ZN14ChannelElementD0Ev = comdat any

$_ZNK14ChannelElement10getTagNameEv = comdat any

$_ZNK14ChannelElement10getTagCodeEv = comdat any

$_ZNK14ChannelElement12getAttributeEPKc = comdat any

$_ZN14ChannelElement12setAttributeEPKcS1_ = comdat any

$_ZN17ParametersElementD0Ev = comdat any

$_ZNK17ParametersElement10getTagNameEv = comdat any

$_ZNK17ParametersElement10getTagCodeEv = comdat any

$_ZNK17ParametersElement12getAttributeEPKc = comdat any

$_ZN17ParametersElement12setAttributeEPKcS1_ = comdat any

$_ZN12ParamElementD2Ev = comdat any

$_ZN12ParamElementD0Ev = comdat any

$_ZNK12ParamElement10getTagNameEv = comdat any

$_ZNK12ParamElement10getTagCodeEv = comdat any

$_ZNK12ParamElement12getAttributeEPKc = comdat any

$_ZN12ParamElement12setAttributeEPKcS1_ = comdat any

$_ZN14PatternElementD2Ev = comdat any

$_ZN14PatternElementD0Ev = comdat any

$_ZNK14PatternElement10getTagNameEv = comdat any

$_ZNK14PatternElement10getTagCodeEv = comdat any

$_ZNK14PatternElement12getAttributeEPKc = comdat any

$_ZN14PatternElement12setAttributeEPKcS1_ = comdat any

$_ZN15PropertyElementD2Ev = comdat any

$_ZN15PropertyElementD0Ev = comdat any

$_ZNK15PropertyElement10getTagNameEv = comdat any

$_ZNK15PropertyElement10getTagCodeEv = comdat any

$_ZNK15PropertyElement12getAttributeEPKc = comdat any

$_ZN15PropertyElement12setAttributeEPKcS1_ = comdat any

$_ZN18PropertyKeyElementD2Ev = comdat any

$_ZN18PropertyKeyElementD0Ev = comdat any

$_ZNK18PropertyKeyElement10getTagNameEv = comdat any

$_ZNK18PropertyKeyElement10getTagCodeEv = comdat any

$_ZNK18PropertyKeyElement12getAttributeEPKc = comdat any

$_ZN18PropertyKeyElement12setAttributeEPKcS1_ = comdat any

$_ZN12GatesElementD0Ev = comdat any

$_ZNK12GatesElement10getTagNameEv = comdat any

$_ZNK12GatesElement10getTagCodeEv = comdat any

$_ZNK12GatesElement12getAttributeEPKc = comdat any

$_ZN12GatesElement12setAttributeEPKcS1_ = comdat any

$_ZN11GateElementD2Ev = comdat any

$_ZN11GateElementD0Ev = comdat any

$_ZNK11GateElement10getTagNameEv = comdat any

$_ZNK11GateElement10getTagCodeEv = comdat any

$_ZNK11GateElement12getAttributeEPKc = comdat any

$_ZN11GateElement12setAttributeEPKcS1_ = comdat any

$_ZN12TypesElementD0Ev = comdat any

$_ZNK12TypesElement10getTagNameEv = comdat any

$_ZNK12TypesElement10getTagCodeEv = comdat any

$_ZNK12TypesElement12getAttributeEPKc = comdat any

$_ZN12TypesElement12setAttributeEPKcS1_ = comdat any

$_ZN17SubmodulesElementD0Ev = comdat any

$_ZNK17SubmodulesElement10getTagNameEv = comdat any

$_ZNK17SubmodulesElement10getTagCodeEv = comdat any

$_ZNK17SubmodulesElement12getAttributeEPKc = comdat any

$_ZN17SubmodulesElement12setAttributeEPKcS1_ = comdat any

$_ZN16SubmoduleElementD2Ev = comdat any

$_ZN16SubmoduleElementD0Ev = comdat any

$_ZNK16SubmoduleElement10getTagNameEv = comdat any

$_ZNK16SubmoduleElement10getTagCodeEv = comdat any

$_ZNK16SubmoduleElement12getAttributeEPKc = comdat any

$_ZN16SubmoduleElement12setAttributeEPKcS1_ = comdat any

$_ZN18ConnectionsElementD0Ev = comdat any

$_ZNK18ConnectionsElement10getTagNameEv = comdat any

$_ZNK18ConnectionsElement10getTagCodeEv = comdat any

$_ZNK18ConnectionsElement12getAttributeEPKc = comdat any

$_ZN18ConnectionsElement12setAttributeEPKcS1_ = comdat any

$_ZN17ConnectionElementD2Ev = comdat any

$_ZN17ConnectionElementD0Ev = comdat any

$_ZNK17ConnectionElement10getTagNameEv = comdat any

$_ZNK17ConnectionElement10getTagCodeEv = comdat any

$_ZNK17ConnectionElement12getAttributeEPKc = comdat any

$_ZN17ConnectionElement12setAttributeEPKcS1_ = comdat any

$_ZN18ChannelSpecElementD2Ev = comdat any

$_ZN18ChannelSpecElementD0Ev = comdat any

$_ZNK18ChannelSpecElement10getTagNameEv = comdat any

$_ZNK18ChannelSpecElement10getTagCodeEv = comdat any

$_ZNK18ChannelSpecElement12getAttributeEPKc = comdat any

$_ZN18ChannelSpecElement12setAttributeEPKcS1_ = comdat any

$_ZN22ConnectionGroupElementD0Ev = comdat any

$_ZNK22ConnectionGroupElement10getTagNameEv = comdat any

$_ZNK22ConnectionGroupElement10getTagCodeEv = comdat any

$_ZNK22ConnectionGroupElement12getAttributeEPKc = comdat any

$_ZN22ConnectionGroupElement12setAttributeEPKcS1_ = comdat any

$_ZN11LoopElementD2Ev = comdat any

$_ZN11LoopElementD0Ev = comdat any

$_ZNK11LoopElement10getTagNameEv = comdat any

$_ZNK11LoopElement10getTagCodeEv = comdat any

$_ZNK11LoopElement12getAttributeEPKc = comdat any

$_ZN11LoopElement12setAttributeEPKcS1_ = comdat any

$_ZN16ConditionElementD2Ev = comdat any

$_ZN16ConditionElementD0Ev = comdat any

$_ZNK16ConditionElement10getTagNameEv = comdat any

$_ZNK16ConditionElement10getTagCodeEv = comdat any

$_ZNK16ConditionElement12getAttributeEPKc = comdat any

$_ZN16ConditionElement12setAttributeEPKcS1_ = comdat any

$_ZN17ExpressionElementD2Ev = comdat any

$_ZN17ExpressionElementD0Ev = comdat any

$_ZNK17ExpressionElement10getTagNameEv = comdat any

$_ZNK17ExpressionElement10getTagCodeEv = comdat any

$_ZNK17ExpressionElement12getAttributeEPKc = comdat any

$_ZN17ExpressionElement12setAttributeEPKcS1_ = comdat any

$_ZN15OperatorElementD2Ev = comdat any

$_ZN15OperatorElementD0Ev = comdat any

$_ZNK15OperatorElement10getTagNameEv = comdat any

$_ZNK15OperatorElement10getTagCodeEv = comdat any

$_ZNK15OperatorElement12getAttributeEPKc = comdat any

$_ZN15OperatorElement12setAttributeEPKcS1_ = comdat any

$_ZN15FunctionElementD2Ev = comdat any

$_ZN15FunctionElementD0Ev = comdat any

$_ZNK15FunctionElement10getTagNameEv = comdat any

$_ZNK15FunctionElement10getTagCodeEv = comdat any

$_ZNK15FunctionElement12getAttributeEPKc = comdat any

$_ZN15FunctionElement12setAttributeEPKcS1_ = comdat any

$_ZN12IdentElementD2Ev = comdat any

$_ZN12IdentElementD0Ev = comdat any

$_ZNK12IdentElement10getTagNameEv = comdat any

$_ZNK12IdentElement10getTagCodeEv = comdat any

$_ZNK12IdentElement12getAttributeEPKc = comdat any

$_ZN12IdentElement12setAttributeEPKcS1_ = comdat any

$_ZN14LiteralElementD2Ev = comdat any

$_ZN14LiteralElementD0Ev = comdat any

$_ZNK14LiteralElement10getTagNameEv = comdat any

$_ZNK14LiteralElement10getTagCodeEv = comdat any

$_ZNK14LiteralElement12getAttributeEPKc = comdat any

$_ZN14LiteralElement12setAttributeEPKcS1_ = comdat any

$_ZN14MsgFileElementD2Ev = comdat any

$_ZN14MsgFileElementD0Ev = comdat any

$_ZNK14MsgFileElement10getTagNameEv = comdat any

$_ZNK14MsgFileElement10getTagCodeEv = comdat any

$_ZNK14MsgFileElement12getAttributeEPKc = comdat any

$_ZN14MsgFileElement12setAttributeEPKcS1_ = comdat any

$_ZN16NamespaceElementD2Ev = comdat any

$_ZN16NamespaceElementD0Ev = comdat any

$_ZNK16NamespaceElement10getTagNameEv = comdat any

$_ZNK16NamespaceElement10getTagCodeEv = comdat any

$_ZNK16NamespaceElement12getAttributeEPKc = comdat any

$_ZN16NamespaceElement12setAttributeEPKcS1_ = comdat any

$_ZN16CplusplusElementD2Ev = comdat any

$_ZN16CplusplusElementD0Ev = comdat any

$_ZNK16CplusplusElement10getTagNameEv = comdat any

$_ZNK16CplusplusElement10getTagCodeEv = comdat any

$_ZNK16CplusplusElement12getAttributeEPKc = comdat any

$_ZN16CplusplusElement12setAttributeEPKcS1_ = comdat any

$_ZN17StructDeclElementD2Ev = comdat any

$_ZN17StructDeclElementD0Ev = comdat any

$_ZNK17StructDeclElement10getTagNameEv = comdat any

$_ZNK17StructDeclElement10getTagCodeEv = comdat any

$_ZNK17StructDeclElement12getAttributeEPKc = comdat any

$_ZN17StructDeclElement12setAttributeEPKcS1_ = comdat any

$_ZN16ClassDeclElementD2Ev = comdat any

$_ZN16ClassDeclElementD0Ev = comdat any

$_ZNK16ClassDeclElement10getTagNameEv = comdat any

$_ZNK16ClassDeclElement10getTagCodeEv = comdat any

$_ZNK16ClassDeclElement12getAttributeEPKc = comdat any

$_ZN16ClassDeclElement12setAttributeEPKcS1_ = comdat any

$_ZN18MessageDeclElementD2Ev = comdat any

$_ZN18MessageDeclElementD0Ev = comdat any

$_ZNK18MessageDeclElement10getTagNameEv = comdat any

$_ZNK18MessageDeclElement10getTagCodeEv = comdat any

$_ZNK18MessageDeclElement12getAttributeEPKc = comdat any

$_ZN18MessageDeclElement12setAttributeEPKcS1_ = comdat any

$_ZN17PacketDeclElementD2Ev = comdat any

$_ZN17PacketDeclElementD0Ev = comdat any

$_ZNK17PacketDeclElement10getTagNameEv = comdat any

$_ZNK17PacketDeclElement10getTagCodeEv = comdat any

$_ZNK17PacketDeclElement12getAttributeEPKc = comdat any

$_ZN17PacketDeclElement12setAttributeEPKcS1_ = comdat any

$_ZN15EnumDeclElementD2Ev = comdat any

$_ZN15EnumDeclElementD0Ev = comdat any

$_ZNK15EnumDeclElement10getTagNameEv = comdat any

$_ZNK15EnumDeclElement10getTagCodeEv = comdat any

$_ZNK15EnumDeclElement12getAttributeEPKc = comdat any

$_ZN15EnumDeclElement12setAttributeEPKcS1_ = comdat any

$_ZN11EnumElementD2Ev = comdat any

$_ZN11EnumElementD0Ev = comdat any

$_ZNK11EnumElement10getTagNameEv = comdat any

$_ZNK11EnumElement10getTagCodeEv = comdat any

$_ZNK11EnumElement12getAttributeEPKc = comdat any

$_ZN11EnumElement12setAttributeEPKcS1_ = comdat any

$_ZN17EnumFieldsElementD0Ev = comdat any

$_ZNK17EnumFieldsElement10getTagNameEv = comdat any

$_ZNK17EnumFieldsElement10getTagCodeEv = comdat any

$_ZNK17EnumFieldsElement12getAttributeEPKc = comdat any

$_ZN17EnumFieldsElement12setAttributeEPKcS1_ = comdat any

$_ZN16EnumFieldElementD2Ev = comdat any

$_ZN16EnumFieldElementD0Ev = comdat any

$_ZNK16EnumFieldElement10getTagNameEv = comdat any

$_ZNK16EnumFieldElement10getTagCodeEv = comdat any

$_ZNK16EnumFieldElement12getAttributeEPKc = comdat any

$_ZN16EnumFieldElement12setAttributeEPKcS1_ = comdat any

$_ZN14MessageElementD2Ev = comdat any

$_ZN14MessageElementD0Ev = comdat any

$_ZNK14MessageElement10getTagNameEv = comdat any

$_ZNK14MessageElement10getTagCodeEv = comdat any

$_ZNK14MessageElement12getAttributeEPKc = comdat any

$_ZN14MessageElement12setAttributeEPKcS1_ = comdat any

$_ZN13PacketElementD2Ev = comdat any

$_ZN13PacketElementD0Ev = comdat any

$_ZNK13PacketElement10getTagNameEv = comdat any

$_ZNK13PacketElement10getTagCodeEv = comdat any

$_ZNK13PacketElement12getAttributeEPKc = comdat any

$_ZN13PacketElement12setAttributeEPKcS1_ = comdat any

$_ZN12ClassElementD2Ev = comdat any

$_ZN12ClassElementD0Ev = comdat any

$_ZNK12ClassElement10getTagNameEv = comdat any

$_ZNK12ClassElement10getTagCodeEv = comdat any

$_ZNK12ClassElement12getAttributeEPKc = comdat any

$_ZN12ClassElement12setAttributeEPKcS1_ = comdat any

$_ZN13StructElementD2Ev = comdat any

$_ZN13StructElementD0Ev = comdat any

$_ZNK13StructElement10getTagNameEv = comdat any

$_ZNK13StructElement10getTagCodeEv = comdat any

$_ZNK13StructElement12getAttributeEPKc = comdat any

$_ZN13StructElement12setAttributeEPKcS1_ = comdat any

$_ZN12FieldElementD2Ev = comdat any

$_ZN12FieldElementD0Ev = comdat any

$_ZNK12FieldElement10getTagNameEv = comdat any

$_ZNK12FieldElement10getTagCodeEv = comdat any

$_ZNK12FieldElement12getAttributeEPKc = comdat any

$_ZN12FieldElement12setAttributeEPKcS1_ = comdat any

$_ZN14UnknownElementD2Ev = comdat any

$_ZN14UnknownElementD0Ev = comdat any

$_ZNK14UnknownElement10getTagNameEv = comdat any

$_ZNK14UnknownElement10getTagCodeEv = comdat any

$_ZNK14UnknownElement12getAttributeEPKc = comdat any

$_ZN14UnknownElement12setAttributeEPKcS1_ = comdat any

$_ZN17NEDElementFactoryD2Ev = comdat any

$_ZN17NEDElementFactoryD0Ev = comdat any

$_ZN12NEDExceptionD0Ev = comdat any

$_ZNK12NEDException4whatEv = comdat any

$_ZTS12NEDException = comdat any

$_ZTI12NEDException = comdat any

$_ZTV12NEDException = comdat any

@_ZTV12FilesElement = dso_local unnamed_addr constant { [41 x ptr] } { [41 x ptr] [ptr null, ptr @_ZTI12FilesElement, ptr @_ZN10NEDElementD2Ev, ptr @_ZN12FilesElementD0Ev, ptr @_ZNK12FilesElement3dupEv, ptr @_ZNK10NEDElement7dupTreeEv, ptr @_ZNK12FilesElement10getTagNameEv, ptr @_ZNK12FilesElement10getTagCodeEv, ptr @_ZNK10NEDElement5getIdEv, ptr @_ZN10NEDElement5setIdEl, ptr @_ZNK10NEDElement17getSourceLocationEv, ptr @_ZN10NEDElement17setSourceLocationEPKc, ptr @_ZNK10NEDElement15getSourceRegionEv, ptr @_ZN10NEDElement15setSourceRegionERK15NEDSourceRegion, ptr @_ZN10NEDElement13applyDefaultsEv, ptr @_ZNK12FilesElement16getNumAttributesEv, ptr @_ZNK12FilesElement16getAttributeNameEi, ptr @_ZNK10NEDElement15lookupAttributeEPKc, ptr @_ZNK12FilesElement12getAttributeEi, ptr @_ZNK12FilesElement12getAttributeEPKc, ptr @_ZN12FilesElement12setAttributeEiPKc, ptr @_ZN12FilesElement12setAttributeEPKcS1_, ptr @_ZNK12FilesElement19getAttributeDefaultEi, ptr @_ZNK10NEDElement19getAttributeDefaultEPKc, ptr @_ZNK10NEDElement9getParentEv, ptr @_ZNK10NEDElement13getFirstChildEv, ptr @_ZNK10NEDElement12getLastChildEv, ptr @_ZNK10NEDElement14getNextSiblingEv, ptr @_ZNK10NEDElement14getPrevSiblingEv, ptr @_ZN10NEDElement11appendChildEPS_, ptr @_ZN10NEDElement17insertChildBeforeEPS_S0_, ptr @_ZN10NEDElement11removeChildEPS_, ptr @_ZNK10NEDElement20getFirstChildWithTagEi, ptr @_ZNK10NEDElement21getNextSiblingWithTagEi, ptr @_ZNK10NEDElement14getNumChildrenEv, ptr @_ZNK10NEDElement21getNumChildrenWithTagEi, ptr @_ZN10NEDElement11setUserDataEP18NEDElementUserData, ptr @_ZNK10NEDElement11getUserDataEv, ptr @_ZNK12FilesElement19getNextFilesSiblingEv, ptr @_ZNK12FilesElement20getFirstNedFileChildEv, ptr @_ZNK12FilesElement20getFirstMsgFileChildEv] }, align 8
@_ZTV14NedFileElement = dso_local unnamed_addr constant { [49 x ptr] } { [49 x ptr] [ptr null, ptr @_ZTI14NedFileElement, ptr @_ZN14NedFileElementD2Ev, ptr @_ZN14NedFileElementD0Ev, ptr @_ZNK14NedFileElement3dupEv, ptr @_ZNK10NEDElement7dupTreeEv, ptr @_ZNK14NedFileElement10getTagNameEv, ptr @_ZNK14NedFileElement10getTagCodeEv, ptr @_ZNK10NEDElement5getIdEv, ptr @_ZN10NEDElement5setIdEl, ptr @_ZNK10NEDElement17getSourceLocationEv, ptr @_ZN10NEDElement17setSourceLocationEPKc, ptr @_ZNK10NEDElement15getSourceRegionEv, ptr @_ZN10NEDElement15setSourceRegionERK15NEDSourceRegion, ptr @_ZN10NEDElement13applyDefaultsEv, ptr @_ZNK14NedFileElement16getNumAttributesEv, ptr @_ZNK14NedFileElement16getAttributeNameEi, ptr @_ZNK10NEDElement15lookupAttributeEPKc, ptr @_ZNK14NedFileElement12getAttributeEi, ptr @_ZNK14NedFileElement12getAttributeEPKc, ptr @_ZN14NedFileElement12setAttributeEiPKc, ptr @_ZN14NedFileElement12setAttributeEPKcS1_, ptr @_ZNK14NedFileElement19getAttributeDefaultEi, ptr @_ZNK10NEDElement19getAttributeDefaultEPKc, ptr @_ZNK10NEDElement9getParentEv, ptr @_ZNK10NEDElement13getFirstChildEv, ptr @_ZNK10NEDElement12getLastChildEv, ptr @_ZNK10NEDElement14getNextSiblingEv, ptr @_ZNK10NEDElement14getPrevSiblingEv, ptr @_ZN10NEDElement11appendChildEPS_, ptr @_ZN10NEDElement17insertChildBeforeEPS_S0_, ptr @_ZN10NEDElement11removeChildEPS_, ptr @_ZNK10NEDElement20getFirstChildWithTagEi, ptr @_ZNK10NEDElement21getNextSiblingWithTagEi, ptr @_ZNK10NEDElement14getNumChildrenEv, ptr @_ZNK10NEDElement21getNumChildrenWithTagEi, ptr @_ZN10NEDElement11setUserDataEP18NEDElementUserData, ptr @_ZNK10NEDElement11getUserDataEv, ptr @_ZNK14NedFileElement21getNextNedFileSiblingEv, ptr @_ZNK14NedFileElement20getFirstCommentChildEv, ptr @_ZNK14NedFileElement20getFirstPackageChildEv, ptr @_ZNK14NedFileElement19getFirstImportChildEv, ptr @_ZNK14NedFileElement25getFirstPropertyDeclChildEv, ptr @_ZNK14NedFileElement21getFirstPropertyChildEv, ptr @_ZNK14NedFileElement25getFirstSimpleModuleChildEv, ptr @_ZNK14NedFileElement27getFirstCompoundModuleChildEv, ptr @_ZNK14NedFileElement28getFirstModuleInterfaceChildEv, ptr @_ZNK14NedFileElement20getFirstChannelChildEv, ptr @_ZNK14NedFileElement29getFirstChannelInterfaceChildEv] }, align 8
@.str = private unnamed_addr constant [9 x i8] c"filename\00", align 1
@.str.1 = private unnamed_addr constant [8 x i8] c"version\00", align 1
@.str.2 = private unnamed_addr constant [2 x i8] c"2\00", align 1
@_ZTV14CommentElement = dso_local unnamed_addr constant { [39 x ptr] } { [39 x ptr] [ptr null, ptr @_ZTI14CommentElement, ptr @_ZN14CommentElementD2Ev, ptr @_ZN14CommentElementD0Ev, ptr @_ZNK14CommentElement3dupEv, ptr @_ZNK10NEDElement7dupTreeEv, ptr @_ZNK14CommentElement10getTagNameEv, ptr @_ZNK14CommentElement10getTagCodeEv, ptr @_ZNK10NEDElement5getIdEv, ptr @_ZN10NEDElement5setIdEl, ptr @_ZNK10NEDElement17getSourceLocationEv, ptr @_ZN10NEDElement17setSourceLocationEPKc, ptr @_ZNK10NEDElement15getSourceRegionEv, ptr @_ZN10NEDElement15setSourceRegionERK15NEDSourceRegion, ptr @_ZN10NEDElement13applyDefaultsEv, ptr @_ZNK14CommentElement16getNumAttributesEv, ptr @_ZNK14CommentElement16getAttributeNameEi, ptr @_ZNK10NEDElement15lookupAttributeEPKc, ptr @_ZNK14CommentElement12getAttributeEi, ptr @_ZNK14CommentElement12getAttributeEPKc, ptr @_ZN14CommentElement12setAttributeEiPKc, ptr @_ZN14CommentElement12setAttributeEPKcS1_, ptr @_ZNK14CommentElement19getAttributeDefaultEi, ptr @_ZNK10NEDElement19getAttributeDefaultEPKc, ptr @_ZNK10NEDElement9getParentEv, ptr @_ZNK10NEDElement13getFirstChildEv, ptr @_ZNK10NEDElement12getLastChildEv, ptr @_ZNK10NEDElement14getNextSiblingEv, ptr @_ZNK10NEDElement14getPrevSiblingEv, ptr @_ZN10NEDElement11appendChildEPS_, ptr @_ZN10NEDElement17insertChildBeforeEPS_S0_, ptr @_ZN10NEDElement11removeChildEPS_, ptr @_ZNK10NEDElement20getFirstChildWithTagEi, ptr @_ZNK10NEDElement21getNextSiblingWithTagEi, ptr @_ZNK10NEDElement14getNumChildrenEv, ptr @_ZNK10NEDElement21getNumChildrenWithTagEi, ptr @_ZN10NEDElement11setUserDataEP18NEDElementUserData, ptr @_ZNK10NEDElement11getUserDataEv, ptr @_ZNK14CommentElement21getNextCommentSiblingEv] }, align 8
@.str.3 = private unnamed_addr constant [6 x i8] c"locid\00", align 1
@.str.4 = private unnamed_addr constant [8 x i8] c"content\00", align 1
@.str.5 = private unnamed_addr constant [1 x i8] zeroinitializer, align 1
@_ZTV14PackageElement = dso_local unnamed_addr constant { [40 x ptr] } { [40 x ptr] [ptr null, ptr @_ZTI14PackageElement, ptr @_ZN14PackageElementD2Ev, ptr @_ZN14PackageElementD0Ev, ptr @_ZNK14PackageElement3dupEv, ptr @_ZNK10NEDElement7dupTreeEv, ptr @_ZNK14PackageElement10getTagNameEv, ptr @_ZNK14PackageElement10getTagCodeEv, ptr @_ZNK10NEDElement5getIdEv, ptr @_ZN10NEDElement5setIdEl, ptr @_ZNK10NEDElement17getSourceLocationEv, ptr @_ZN10NEDElement17setSourceLocationEPKc, ptr @_ZNK10NEDElement15getSourceRegionEv, ptr @_ZN10NEDElement15setSourceRegionERK15NEDSourceRegion, ptr @_ZN10NEDElement13applyDefaultsEv, ptr @_ZNK14PackageElement16getNumAttributesEv, ptr @_ZNK14PackageElement16getAttributeNameEi, ptr @_ZNK10NEDElement15lookupAttributeEPKc, ptr @_ZNK14PackageElement12getAttributeEi, ptr @_ZNK14PackageElement12getAttributeEPKc, ptr @_ZN14PackageElement12setAttributeEiPKc, ptr @_ZN14PackageElement12setAttributeEPKcS1_, ptr @_ZNK14PackageElement19getAttributeDefaultEi, ptr @_ZNK10NEDElement19getAttributeDefaultEPKc, ptr @_ZNK10NEDElement9getParentEv, ptr @_ZNK10NEDElement13getFirstChildEv, ptr @_ZNK10NEDElement12getLastChildEv, ptr @_ZNK10NEDElement14getNextSiblingEv, ptr @_ZNK10NEDElement14getPrevSiblingEv, ptr @_ZN10NEDElement11appendChildEPS_, ptr @_ZN10NEDElement17insertChildBeforeEPS_S0_, ptr @_ZN10NEDElement11removeChildEPS_, ptr @_ZNK10NEDElement20getFirstChildWithTagEi, ptr @_ZNK10NEDElement21getNextSiblingWithTagEi, ptr @_ZNK10NEDElement14getNumChildrenEv, ptr @_ZNK10NEDElement21getNumChildrenWithTagEi, ptr @_ZN10NEDElement11setUserDataEP18NEDElementUserData, ptr @_ZNK10NEDElement11getUserDataEv, ptr @_ZNK14PackageElement21getNextPackageSiblingEv, ptr @_ZNK14PackageElement20getFirstCommentChildEv] }, align 8
@.str.6 = private unnamed_addr constant [5 x i8] c"name\00", align 1
@_ZTV13ImportElement = dso_local unnamed_addr constant { [40 x ptr] } { [40 x ptr] [ptr null, ptr @_ZTI13ImportElement, ptr @_ZN13ImportElementD2Ev, ptr @_ZN13ImportElementD0Ev, ptr @_ZNK13ImportElement3dupEv, ptr @_ZNK10NEDElement7dupTreeEv, ptr @_ZNK13ImportElement10getTagNameEv, ptr @_ZNK13ImportElement10getTagCodeEv, ptr @_ZNK10NEDElement5getIdEv, ptr @_ZN10NEDElement5setIdEl, ptr @_ZNK10NEDElement17getSourceLocationEv, ptr @_ZN10NEDElement17setSourceLocationEPKc, ptr @_ZNK10NEDElement15getSourceRegionEv, ptr @_ZN10NEDElement15setSourceRegionERK15NEDSourceRegion, ptr @_ZN10NEDElement13applyDefaultsEv, ptr @_ZNK13ImportElement16getNumAttributesEv, ptr @_ZNK13ImportElement16getAttributeNameEi, ptr @_ZNK10NEDElement15lookupAttributeEPKc, ptr @_ZNK13ImportElement12getAttributeEi, ptr @_ZNK13ImportElement12getAttributeEPKc, ptr @_ZN13ImportElement12setAttributeEiPKc, ptr @_ZN13ImportElement12setAttributeEPKcS1_, ptr @_ZNK13ImportElement19getAttributeDefaultEi, ptr @_ZNK10NEDElement19getAttributeDefaultEPKc, ptr @_ZNK10NEDElement9getParentEv, ptr @_ZNK10NEDElement13getFirstChildEv, ptr @_ZNK10NEDElement12getLastChildEv, ptr @_ZNK10NEDElement14getNextSiblingEv, ptr @_ZNK10NEDElement14getPrevSiblingEv, ptr @_ZN10NEDElement11appendChildEPS_, ptr @_ZN10NEDElement17insertChildBeforeEPS_S0_, ptr @_ZN10NEDElement11removeChildEPS_, ptr @_ZNK10NEDElement20getFirstChildWithTagEi, ptr @_ZNK10NEDElement21getNextSiblingWithTagEi, ptr @_ZNK10NEDElement14getNumChildrenEv, ptr @_ZNK10NEDElement21getNumChildrenWithTagEi, ptr @_ZN10NEDElement11setUserDataEP18NEDElementUserData, ptr @_ZNK10NEDElement11getUserDataEv, ptr @_ZNK13ImportElement20getNextImportSiblingEv, ptr @_ZNK13ImportElement20getFirstCommentChildEv] }, align 8
@.str.7 = private unnamed_addr constant [12 x i8] c"import-spec\00", align 1
@_ZTV19PropertyDeclElement = dso_local unnamed_addr constant { [42 x ptr] } { [42 x ptr] [ptr null, ptr @_ZTI19PropertyDeclElement, ptr @_ZN19PropertyDeclElementD2Ev, ptr @_ZN19PropertyDeclElementD0Ev, ptr @_ZNK19PropertyDeclElement3dupEv, ptr @_ZNK10NEDElement7dupTreeEv, ptr @_ZNK19PropertyDeclElement10getTagNameEv, ptr @_ZNK19PropertyDeclElement10getTagCodeEv, ptr @_ZNK10NEDElement5getIdEv, ptr @_ZN10NEDElement5setIdEl, ptr @_ZNK10NEDElement17getSourceLocationEv, ptr @_ZN10NEDElement17setSourceLocationEPKc, ptr @_ZNK10NEDElement15getSourceRegionEv, ptr @_ZN10NEDElement15setSourceRegionERK15NEDSourceRegion, ptr @_ZN10NEDElement13applyDefaultsEv, ptr @_ZNK19PropertyDeclElement16getNumAttributesEv, ptr @_ZNK19PropertyDeclElement16getAttributeNameEi, ptr @_ZNK10NEDElement15lookupAttributeEPKc, ptr @_ZNK19PropertyDeclElement12getAttributeEi, ptr @_ZNK19PropertyDeclElement12getAttributeEPKc, ptr @_ZN19PropertyDeclElement12setAttributeEiPKc, ptr @_ZN19PropertyDeclElement12setAttributeEPKcS1_, ptr @_ZNK19PropertyDeclElement19getAttributeDefaultEi, ptr @_ZNK10NEDElement19getAttributeDefaultEPKc, ptr @_ZNK10NEDElement9getParentEv, ptr @_ZNK10NEDElement13getFirstChildEv, ptr @_ZNK10NEDElement12getLastChildEv, ptr @_ZNK10NEDElement14getNextSiblingEv, ptr @_ZNK10NEDElement14getPrevSiblingEv, ptr @_ZN10NEDElement11appendChildEPS_, ptr @_ZN10NEDElement17insertChildBeforeEPS_S0_, ptr @_ZN10NEDElement11removeChildEPS_, ptr @_ZNK10NEDElement20getFirstChildWithTagEi, ptr @_ZNK10NEDElement21getNextSiblingWithTagEi, ptr @_ZNK10NEDElement14getNumChildrenEv, ptr @_ZNK10NEDElement21getNumChildrenWithTagEi, ptr @_ZN10NEDElement11setUserDataEP18NEDElementUserData, ptr @_ZNK10NEDElement11getUserDataEv, ptr @_ZNK19PropertyDeclElement26getNextPropertyDeclSiblingEv, ptr @_ZNK19PropertyDeclElement20getFirstCommentChildEv, ptr @_ZNK19PropertyDeclElement24getFirstPropertyKeyChildEv, ptr @_ZNK19PropertyDeclElement21getFirstPropertyChildEv] }, align 8
@.str.8 = private unnamed_addr constant [9 x i8] c"is-array\00", align 1
@.str.9 = private unnamed_addr constant [6 x i8] c"false\00", align 1
@_ZTV14ExtendsElement = dso_local unnamed_addr constant { [40 x ptr] } { [40 x ptr] [ptr null, ptr @_ZTI14ExtendsElement, ptr @_ZN14ExtendsElementD2Ev, ptr @_ZN14ExtendsElementD0Ev, ptr @_ZNK14ExtendsElement3dupEv, ptr @_ZNK10NEDElement7dupTreeEv, ptr @_ZNK14ExtendsElement10getTagNameEv, ptr @_ZNK14ExtendsElement10getTagCodeEv, ptr @_ZNK10NEDElement5getIdEv, ptr @_ZN10NEDElement5setIdEl, ptr @_ZNK10NEDElement17getSourceLocationEv, ptr @_ZN10NEDElement17setSourceLocationEPKc, ptr @_ZNK10NEDElement15getSourceRegionEv, ptr @_ZN10NEDElement15setSourceRegionERK15NEDSourceRegion, ptr @_ZN10NEDElement13applyDefaultsEv, ptr @_ZNK14ExtendsElement16getNumAttributesEv, ptr @_ZNK14ExtendsElement16getAttributeNameEi, ptr @_ZNK10NEDElement15lookupAttributeEPKc, ptr @_ZNK14ExtendsElement12getAttributeEi, ptr @_ZNK14ExtendsElement12getAttributeEPKc, ptr @_ZN14ExtendsElement12setAttributeEiPKc, ptr @_ZN14ExtendsElement12setAttributeEPKcS1_, ptr @_ZNK14ExtendsElement19getAttributeDefaultEi, ptr @_ZNK10NEDElement19getAttributeDefaultEPKc, ptr @_ZNK10NEDElement9getParentEv, ptr @_ZNK10NEDElement13getFirstChildEv, ptr @_ZNK10NEDElement12getLastChildEv, ptr @_ZNK10NEDElement14getNextSiblingEv, ptr @_ZNK10NEDElement14getPrevSiblingEv, ptr @_ZN10NEDElement11appendChildEPS_, ptr @_ZN10NEDElement17insertChildBeforeEPS_S0_, ptr @_ZN10NEDElement11removeChildEPS_, ptr @_ZNK10NEDElement20getFirstChildWithTagEi, ptr @_ZNK10NEDElement21getNextSiblingWithTagEi, ptr @_ZNK10NEDElement14getNumChildrenEv, ptr @_ZNK10NEDElement21getNumChildrenWithTagEi, ptr @_ZN10NEDElement11setUserDataEP18NEDElementUserData, ptr @_ZNK10NEDElement11getUserDataEv, ptr @_ZNK14ExtendsElement21getNextExtendsSiblingEv, ptr @_ZNK14ExtendsElement20getFirstCommentChildEv] }, align 8
@_ZTV20InterfaceNameElement = dso_local unnamed_addr constant { [40 x ptr] } { [40 x ptr] [ptr null, ptr @_ZTI20InterfaceNameElement, ptr @_ZN20InterfaceNameElementD2Ev, ptr @_ZN20InterfaceNameElementD0Ev, ptr @_ZNK20InterfaceNameElement3dupEv, ptr @_ZNK10NEDElement7dupTreeEv, ptr @_ZNK20InterfaceNameElement10getTagNameEv, ptr @_ZNK20InterfaceNameElement10getTagCodeEv, ptr @_ZNK10NEDElement5getIdEv, ptr @_ZN10NEDElement5setIdEl, ptr @_ZNK10NEDElement17getSourceLocationEv, ptr @_ZN10NEDElement17setSourceLocationEPKc, ptr @_ZNK10NEDElement15getSourceRegionEv, ptr @_ZN10NEDElement15setSourceRegionERK15NEDSourceRegion, ptr @_ZN10NEDElement13applyDefaultsEv, ptr @_ZNK20InterfaceNameElement16getNumAttributesEv, ptr @_ZNK20InterfaceNameElement16getAttributeNameEi, ptr @_ZNK10NEDElement15lookupAttributeEPKc, ptr @_ZNK20InterfaceNameElement12getAttributeEi, ptr @_ZNK20InterfaceNameElement12getAttributeEPKc, ptr @_ZN20InterfaceNameElement12setAttributeEiPKc, ptr @_ZN20InterfaceNameElement12setAttributeEPKcS1_, ptr @_ZNK20InterfaceNameElement19getAttributeDefaultEi, ptr @_ZNK10NEDElement19getAttributeDefaultEPKc, ptr @_ZNK10NEDElement9getParentEv, ptr @_ZNK10NEDElement13getFirstChildEv, ptr @_ZNK10NEDElement12getLastChildEv, ptr @_ZNK10NEDElement14getNextSiblingEv, ptr @_ZNK10NEDElement14getPrevSiblingEv, ptr @_ZN10NEDElement11appendChildEPS_, ptr @_ZN10NEDElement17insertChildBeforeEPS_S0_, ptr @_ZN10NEDElement11removeChildEPS_, ptr @_ZNK10NEDElement20getFirstChildWithTagEi, ptr @_ZNK10NEDElement21getNextSiblingWithTagEi, ptr @_ZNK10NEDElement14getNumChildrenEv, ptr @_ZNK10NEDElement21getNumChildrenWithTagEi, ptr @_ZN10NEDElement11setUserDataEP18NEDElementUserData, ptr @_ZNK10NEDElement11getUserDataEv, ptr @_ZNK20InterfaceNameElement27getNextInterfaceNameSiblingEv, ptr @_ZNK20InterfaceNameElement20getFirstCommentChildEv] }, align 8
@_ZTV19SimpleModuleElement = dso_local unnamed_addr constant { [44 x ptr] } { [44 x ptr] [ptr null, ptr @_ZTI19SimpleModuleElement, ptr @_ZN19SimpleModuleElementD2Ev, ptr @_ZN19SimpleModuleElementD0Ev, ptr @_ZNK19SimpleModuleElement3dupEv, ptr @_ZNK10NEDElement7dupTreeEv, ptr @_ZNK19SimpleModuleElement10getTagNameEv, ptr @_ZNK19SimpleModuleElement10getTagCodeEv, ptr @_ZNK10NEDElement5getIdEv, ptr @_ZN10NEDElement5setIdEl, ptr @_ZNK10NEDElement17getSourceLocationEv, ptr @_ZN10NEDElement17setSourceLocationEPKc, ptr @_ZNK10NEDElement15getSourceRegionEv, ptr @_ZN10NEDElement15setSourceRegionERK15NEDSourceRegion, ptr @_ZN10NEDElement13applyDefaultsEv, ptr @_ZNK19SimpleModuleElement16getNumAttributesEv, ptr @_ZNK19SimpleModuleElement16getAttributeNameEi, ptr @_ZNK10NEDElement15lookupAttributeEPKc, ptr @_ZNK19SimpleModuleElement12getAttributeEi, ptr @_ZNK19SimpleModuleElement12getAttributeEPKc, ptr @_ZN19SimpleModuleElement12setAttributeEiPKc, ptr @_ZN19SimpleModuleElement12setAttributeEPKcS1_, ptr @_ZNK19SimpleModuleElement19getAttributeDefaultEi, ptr @_ZNK10NEDElement19getAttributeDefaultEPKc, ptr @_ZNK10NEDElement9getParentEv, ptr @_ZNK10NEDElement13getFirstChildEv, ptr @_ZNK10NEDElement12getLastChildEv, ptr @_ZNK10NEDElement14getNextSiblingEv, ptr @_ZNK10NEDElement14getPrevSiblingEv, ptr @_ZN10NEDElement11appendChildEPS_, ptr @_ZN10NEDElement17insertChildBeforeEPS_S0_, ptr @_ZN10NEDElement11removeChildEPS_, ptr @_ZNK10NEDElement20getFirstChildWithTagEi, ptr @_ZNK10NEDElement21getNextSiblingWithTagEi, ptr @_ZNK10NEDElement14getNumChildrenEv, ptr @_ZNK10NEDElement21getNumChildrenWithTagEi, ptr @_ZN10NEDElement11setUserDataEP18NEDElementUserData, ptr @_ZNK10NEDElement11getUserDataEv, ptr @_ZNK19SimpleModuleElement26getNextSimpleModuleSiblingEv, ptr @_ZNK19SimpleModuleElement20getFirstCommentChildEv, ptr @_ZNK19SimpleModuleElement20getFirstExtendsChildEv, ptr @_ZNK19SimpleModuleElement26getFirstInterfaceNameChildEv, ptr @_ZNK19SimpleModuleElement23getFirstParametersChildEv, ptr @_ZNK19SimpleModuleElement18getFirstGatesChildEv] }, align 8
@_ZTV22ModuleInterfaceElement = dso_local unnamed_addr constant { [43 x ptr] } { [43 x ptr] [ptr null, ptr @_ZTI22ModuleInterfaceElement, ptr @_ZN22ModuleInterfaceElementD2Ev, ptr @_ZN22ModuleInterfaceElementD0Ev, ptr @_ZNK22ModuleInterfaceElement3dupEv, ptr @_ZNK10NEDElement7dupTreeEv, ptr @_ZNK22ModuleInterfaceElement10getTagNameEv, ptr @_ZNK22ModuleInterfaceElement10getTagCodeEv, ptr @_ZNK10NEDElement5getIdEv, ptr @_ZN10NEDElement5setIdEl, ptr @_ZNK10NEDElement17getSourceLocationEv, ptr @_ZN10NEDElement17setSourceLocationEPKc, ptr @_ZNK10NEDElement15getSourceRegionEv, ptr @_ZN10NEDElement15setSourceRegionERK15NEDSourceRegion, ptr @_ZN10NEDElement13applyDefaultsEv, ptr @_ZNK22ModuleInterfaceElement16getNumAttributesEv, ptr @_ZNK22ModuleInterfaceElement16getAttributeNameEi, ptr @_ZNK10NEDElement15lookupAttributeEPKc, ptr @_ZNK22ModuleInterfaceElement12getAttributeEi, ptr @_ZNK22ModuleInterfaceElement12getAttributeEPKc, ptr @_ZN22ModuleInterfaceElement12setAttributeEiPKc, ptr @_ZN22ModuleInterfaceElement12setAttributeEPKcS1_, ptr @_ZNK22ModuleInterfaceElement19getAttributeDefaultEi, ptr @_ZNK10NEDElement19getAttributeDefaultEPKc, ptr @_ZNK10NEDElement9getParentEv, ptr @_ZNK10NEDElement13getFirstChildEv, ptr @_ZNK10NEDElement12getLastChildEv, ptr @_ZNK10NEDElement14getNextSiblingEv, ptr @_ZNK10NEDElement14getPrevSiblingEv, ptr @_ZN10NEDElement11appendChildEPS_, ptr @_ZN10NEDElement17insertChildBeforeEPS_S0_, ptr @_ZN10NEDElement11removeChildEPS_, ptr @_ZNK10NEDElement20getFirstChildWithTagEi, ptr @_ZNK10NEDElement21getNextSiblingWithTagEi, ptr @_ZNK10NEDElement14getNumChildrenEv, ptr @_ZNK10NEDElement21getNumChildrenWithTagEi, ptr @_ZN10NEDElement11setUserDataEP18NEDElementUserData, ptr @_ZNK10NEDElement11getUserDataEv, ptr @_ZNK22ModuleInterfaceElement29getNextModuleInterfaceSiblingEv, ptr @_ZNK22ModuleInterfaceElement20getFirstCommentChildEv, ptr @_ZNK22ModuleInterfaceElement20getFirstExtendsChildEv, ptr @_ZNK22ModuleInterfaceElement23getFirstParametersChildEv, ptr @_ZNK22ModuleInterfaceElement18getFirstGatesChildEv] }, align 8
@_ZTV21CompoundModuleElement = dso_local unnamed_addr constant { [47 x ptr] } { [47 x ptr] [ptr null, ptr @_ZTI21CompoundModuleElement, ptr @_ZN21CompoundModuleElementD2Ev, ptr @_ZN21CompoundModuleElementD0Ev, ptr @_ZNK21CompoundModuleElement3dupEv, ptr @_ZNK10NEDElement7dupTreeEv, ptr @_ZNK21CompoundModuleElement10getTagNameEv, ptr @_ZNK21CompoundModuleElement10getTagCodeEv, ptr @_ZNK10NEDElement5getIdEv, ptr @_ZN10NEDElement5setIdEl, ptr @_ZNK10NEDElement17getSourceLocationEv, ptr @_ZN10NEDElement17setSourceLocationEPKc, ptr @_ZNK10NEDElement15getSourceRegionEv, ptr @_ZN10NEDElement15setSourceRegionERK15NEDSourceRegion, ptr @_ZN10NEDElement13applyDefaultsEv, ptr @_ZNK21CompoundModuleElement16getNumAttributesEv, ptr @_ZNK21CompoundModuleElement16getAttributeNameEi, ptr @_ZNK10NEDElement15lookupAttributeEPKc, ptr @_ZNK21CompoundModuleElement12getAttributeEi, ptr @_ZNK21CompoundModuleElement12getAttributeEPKc, ptr @_ZN21CompoundModuleElement12setAttributeEiPKc, ptr @_ZN21CompoundModuleElement12setAttributeEPKcS1_, ptr @_ZNK21CompoundModuleElement19getAttributeDefaultEi, ptr @_ZNK10NEDElement19getAttributeDefaultEPKc, ptr @_ZNK10NEDElement9getParentEv, ptr @_ZNK10NEDElement13getFirstChildEv, ptr @_ZNK10NEDElement12getLastChildEv, ptr @_ZNK10NEDElement14getNextSiblingEv, ptr @_ZNK10NEDElement14getPrevSiblingEv, ptr @_ZN10NEDElement11appendChildEPS_, ptr @_ZN10NEDElement17insertChildBeforeEPS_S0_, ptr @_ZN10NEDElement11removeChildEPS_, ptr @_ZNK10NEDElement20getFirstChildWithTagEi, ptr @_ZNK10NEDElement21getNextSiblingWithTagEi, ptr @_ZNK10NEDElement14getNumChildrenEv, ptr @_ZNK10NEDElement21getNumChildrenWithTagEi, ptr @_ZN10NEDElement11setUserDataEP18NEDElementUserData, ptr @_ZNK10NEDElement11getUserDataEv, ptr @_ZNK21CompoundModuleElement28getNextCompoundModuleSiblingEv, ptr @_ZNK21CompoundModuleElement20getFirstCommentChildEv, ptr @_ZNK21CompoundModuleElement20getFirstExtendsChildEv, ptr @_ZNK21CompoundModuleElement26getFirstInterfaceNameChildEv, ptr @_ZNK21CompoundModuleElement23getFirstParametersChildEv, ptr @_ZNK21CompoundModuleElement18getFirstGatesChildEv, ptr @_ZNK21CompoundModuleElement18getFirstTypesChildEv, ptr @_ZNK21CompoundModuleElement23getFirstSubmodulesChildEv, ptr @_ZNK21CompoundModuleElement24getFirstConnectionsChildEv] }, align 8
@_ZTV23ChannelInterfaceElement = dso_local unnamed_addr constant { [42 x ptr] } { [42 x ptr] [ptr null, ptr @_ZTI23ChannelInterfaceElement, ptr @_ZN23ChannelInterfaceElementD2Ev, ptr @_ZN23ChannelInterfaceElementD0Ev, ptr @_ZNK23ChannelInterfaceElement3dupEv, ptr @_ZNK10NEDElement7dupTreeEv, ptr @_ZNK23ChannelInterfaceElement10getTagNameEv, ptr @_ZNK23ChannelInterfaceElement10getTagCodeEv, ptr @_ZNK10NEDElement5getIdEv, ptr @_ZN10NEDElement5setIdEl, ptr @_ZNK10NEDElement17getSourceLocationEv, ptr @_ZN10NEDElement17setSourceLocationEPKc, ptr @_ZNK10NEDElement15getSourceRegionEv, ptr @_ZN10NEDElement15setSourceRegionERK15NEDSourceRegion, ptr @_ZN10NEDElement13applyDefaultsEv, ptr @_ZNK23ChannelInterfaceElement16getNumAttributesEv, ptr @_ZNK23ChannelInterfaceElement16getAttributeNameEi, ptr @_ZNK10NEDElement15lookupAttributeEPKc, ptr @_ZNK23ChannelInterfaceElement12getAttributeEi, ptr @_ZNK23ChannelInterfaceElement12getAttributeEPKc, ptr @_ZN23ChannelInterfaceElement12setAttributeEiPKc, ptr @_ZN23ChannelInterfaceElement12setAttributeEPKcS1_, ptr @_ZNK23ChannelInterfaceElement19getAttributeDefaultEi, ptr @_ZNK10NEDElement19getAttributeDefaultEPKc, ptr @_ZNK10NEDElement9getParentEv, ptr @_ZNK10NEDElement13getFirstChildEv, ptr @_ZNK10NEDElement12getLastChildEv, ptr @_ZNK10NEDElement14getNextSiblingEv, ptr @_ZNK10NEDElement14getPrevSiblingEv, ptr @_ZN10NEDElement11appendChildEPS_, ptr @_ZN10NEDElement17insertChildBeforeEPS_S0_, ptr @_ZN10NEDElement11removeChildEPS_, ptr @_ZNK10NEDElement20getFirstChildWithTagEi, ptr @_ZNK10NEDElement21getNextSiblingWithTagEi, ptr @_ZNK10NEDElement14getNumChildrenEv, ptr @_ZNK10NEDElement21getNumChildrenWithTagEi, ptr @_ZN10NEDElement11setUserDataEP18NEDElementUserData, ptr @_ZNK10NEDElement11getUserDataEv, ptr @_ZNK23ChannelInterfaceElement30getNextChannelInterfaceSiblingEv, ptr @_ZNK23ChannelInterfaceElement20getFirstCommentChildEv, ptr @_ZNK23ChannelInterfaceElement20getFirstExtendsChildEv, ptr @_ZNK23ChannelInterfaceElement23getFirstParametersChildEv] }, align 8
@_ZTV14ChannelElement = dso_local unnamed_addr constant { [43 x ptr] } { [43 x ptr] [ptr null, ptr @_ZTI14ChannelElement, ptr @_ZN14ChannelElementD2Ev, ptr @_ZN14ChannelElementD0Ev, ptr @_ZNK14ChannelElement3dupEv, ptr @_ZNK10NEDElement7dupTreeEv, ptr @_ZNK14ChannelElement10getTagNameEv, ptr @_ZNK14ChannelElement10getTagCodeEv, ptr @_ZNK10NEDElement5getIdEv, ptr @_ZN10NEDElement5setIdEl, ptr @_ZNK10NEDElement17getSourceLocationEv, ptr @_ZN10NEDElement17setSourceLocationEPKc, ptr @_ZNK10NEDElement15getSourceRegionEv, ptr @_ZN10NEDElement15setSourceRegionERK15NEDSourceRegion, ptr @_ZN10NEDElement13applyDefaultsEv, ptr @_ZNK14ChannelElement16getNumAttributesEv, ptr @_ZNK14ChannelElement16getAttributeNameEi, ptr @_ZNK10NEDElement15lookupAttributeEPKc, ptr @_ZNK14ChannelElement12getAttributeEi, ptr @_ZNK14ChannelElement12getAttributeEPKc, ptr @_ZN14ChannelElement12setAttributeEiPKc, ptr @_ZN14ChannelElement12setAttributeEPKcS1_, ptr @_ZNK14ChannelElement19getAttributeDefaultEi, ptr @_ZNK10NEDElement19getAttributeDefaultEPKc, ptr @_ZNK10NEDElement9getParentEv, ptr @_ZNK10NEDElement13getFirstChildEv, ptr @_ZNK10NEDElement12getLastChildEv, ptr @_ZNK10NEDElement14getNextSiblingEv, ptr @_ZNK10NEDElement14getPrevSiblingEv, ptr @_ZN10NEDElement11appendChildEPS_, ptr @_ZN10NEDElement17insertChildBeforeEPS_S0_, ptr @_ZN10NEDElement11removeChildEPS_, ptr @_ZNK10NEDElement20getFirstChildWithTagEi, ptr @_ZNK10NEDElement21getNextSiblingWithTagEi, ptr @_ZNK10NEDElement14getNumChildrenEv, ptr @_ZNK10NEDElement21getNumChildrenWithTagEi, ptr @_ZN10NEDElement11setUserDataEP18NEDElementUserData, ptr @_ZNK10NEDElement11getUserDataEv, ptr @_ZNK14ChannelElement21getNextChannelSiblingEv, ptr @_ZNK14ChannelElement20getFirstCommentChildEv, ptr @_ZNK14ChannelElement20getFirstExtendsChildEv, ptr @_ZNK14ChannelElement26getFirstInterfaceNameChildEv, ptr @_ZNK14ChannelElement23getFirstParametersChildEv] }, align 8
@_ZTV17ParametersElement = dso_local unnamed_addr constant { [43 x ptr] } { [43 x ptr] [ptr null, ptr @_ZTI17ParametersElement, ptr @_ZN10NEDElementD2Ev, ptr @_ZN17ParametersElementD0Ev, ptr @_ZNK17ParametersElement3dupEv, ptr @_ZNK10NEDElement7dupTreeEv, ptr @_ZNK17ParametersElement10getTagNameEv, ptr @_ZNK17ParametersElement10getTagCodeEv, ptr @_ZNK10NEDElement5getIdEv, ptr @_ZN10NEDElement5setIdEl, ptr @_ZNK10NEDElement17getSourceLocationEv, ptr @_ZN10NEDElement17setSourceLocationEPKc, ptr @_ZNK10NEDElement15getSourceRegionEv, ptr @_ZN10NEDElement15setSourceRegionERK15NEDSourceRegion, ptr @_ZN10NEDElement13applyDefaultsEv, ptr @_ZNK17ParametersElement16getNumAttributesEv, ptr @_ZNK17ParametersElement16getAttributeNameEi, ptr @_ZNK10NEDElement15lookupAttributeEPKc, ptr @_ZNK17ParametersElement12getAttributeEi, ptr @_ZNK17ParametersElement12getAttributeEPKc, ptr @_ZN17ParametersElement12setAttributeEiPKc, ptr @_ZN17ParametersElement12setAttributeEPKcS1_, ptr @_ZNK17ParametersElement19getAttributeDefaultEi, ptr @_ZNK10NEDElement19getAttributeDefaultEPKc, ptr @_ZNK10NEDElement9getParentEv, ptr @_ZNK10NEDElement13getFirstChildEv, ptr @_ZNK10NEDElement12getLastChildEv, ptr @_ZNK10NEDElement14getNextSiblingEv, ptr @_ZNK10NEDElement14getPrevSiblingEv, ptr @_ZN10NEDElement11appendChildEPS_, ptr @_ZN10NEDElement17insertChildBeforeEPS_S0_, ptr @_ZN10NEDElement11removeChildEPS_, ptr @_ZNK10NEDElement20getFirstChildWithTagEi, ptr @_ZNK10NEDElement21getNextSiblingWithTagEi, ptr @_ZNK10NEDElement14getNumChildrenEv, ptr @_ZNK10NEDElement21getNumChildrenWithTagEi, ptr @_ZN10NEDElement11setUserDataEP18NEDElementUserData, ptr @_ZNK10NEDElement11getUserDataEv, ptr @_ZNK17ParametersElement24getNextParametersSiblingEv, ptr @_ZNK17ParametersElement20getFirstCommentChildEv, ptr @_ZNK17ParametersElement21getFirstPropertyChildEv, ptr @_ZNK17ParametersElement18getFirstParamChildEv, ptr @_ZNK17ParametersElement20getFirstPatternChildEv] }, align 8
@.str.10 = private unnamed_addr constant [12 x i8] c"is-implicit\00", align 1
@_ZL12partype_vals = internal global [6 x ptr] [ptr @.str.5, ptr @.str.104, ptr @.str.105, ptr @.str.106, ptr @.str.107, ptr @.str.108], align 16
@_ZL12partype_nums = internal global [6 x i32] [i32 0, i32 1, i32 2, i32 3, i32 4, i32 5], align 16
@_ZTV12ParamElement = dso_local unnamed_addr constant { [42 x ptr] } { [42 x ptr] [ptr null, ptr @_ZTI12ParamElement, ptr @_ZN12ParamElementD2Ev, ptr @_ZN12ParamElementD0Ev, ptr @_ZNK12ParamElement3dupEv, ptr @_ZNK10NEDElement7dupTreeEv, ptr @_ZNK12ParamElement10getTagNameEv, ptr @_ZNK12ParamElement10getTagCodeEv, ptr @_ZNK10NEDElement5getIdEv, ptr @_ZN10NEDElement5setIdEl, ptr @_ZNK10NEDElement17getSourceLocationEv, ptr @_ZN10NEDElement17setSourceLocationEPKc, ptr @_ZNK10NEDElement15getSourceRegionEv, ptr @_ZN10NEDElement15setSourceRegionERK15NEDSourceRegion, ptr @_ZN10NEDElement13applyDefaultsEv, ptr @_ZNK12ParamElement16getNumAttributesEv, ptr @_ZNK12ParamElement16getAttributeNameEi, ptr @_ZNK10NEDElement15lookupAttributeEPKc, ptr @_ZNK12ParamElement12getAttributeEi, ptr @_ZNK12ParamElement12getAttributeEPKc, ptr @_ZN12ParamElement12setAttributeEiPKc, ptr @_ZN12ParamElement12setAttributeEPKcS1_, ptr @_ZNK12ParamElement19getAttributeDefaultEi, ptr @_ZNK10NEDElement19getAttributeDefaultEPKc, ptr @_ZNK10NEDElement9getParentEv, ptr @_ZNK10NEDElement13getFirstChildEv, ptr @_ZNK10NEDElement12getLastChildEv, ptr @_ZNK10NEDElement14getNextSiblingEv, ptr @_ZNK10NEDElement14getPrevSiblingEv, ptr @_ZN10NEDElement11appendChildEPS_, ptr @_ZN10NEDElement17insertChildBeforeEPS_S0_, ptr @_ZN10NEDElement11removeChildEPS_, ptr @_ZNK10NEDElement20getFirstChildWithTagEi, ptr @_ZNK10NEDElement21getNextSiblingWithTagEi, ptr @_ZNK10NEDElement14getNumChildrenEv, ptr @_ZNK10NEDElement21getNumChildrenWithTagEi, ptr @_ZN10NEDElement11setUserDataEP18NEDElementUserData, ptr @_ZNK10NEDElement11getUserDataEv, ptr @_ZNK12ParamElement19getNextParamSiblingEv, ptr @_ZNK12ParamElement20getFirstCommentChildEv, ptr @_ZNK12ParamElement23getFirstExpressionChildEv, ptr @_ZNK12ParamElement21getFirstPropertyChildEv] }, align 8
@.str.11 = private unnamed_addr constant [5 x i8] c"type\00", align 1
@.str.12 = private unnamed_addr constant [12 x i8] c"is-volatile\00", align 1
@.str.13 = private unnamed_addr constant [6 x i8] c"value\00", align 1
@.str.14 = private unnamed_addr constant [11 x i8] c"is-default\00", align 1
@_ZTV14PatternElement = dso_local unnamed_addr constant { [42 x ptr] } { [42 x ptr] [ptr null, ptr @_ZTI14PatternElement, ptr @_ZN14PatternElementD2Ev, ptr @_ZN14PatternElementD0Ev, ptr @_ZNK14PatternElement3dupEv, ptr @_ZNK10NEDElement7dupTreeEv, ptr @_ZNK14PatternElement10getTagNameEv, ptr @_ZNK14PatternElement10getTagCodeEv, ptr @_ZNK10NEDElement5getIdEv, ptr @_ZN10NEDElement5setIdEl, ptr @_ZNK10NEDElement17getSourceLocationEv, ptr @_ZN10NEDElement17setSourceLocationEPKc, ptr @_ZNK10NEDElement15getSourceRegionEv, ptr @_ZN10NEDElement15setSourceRegionERK15NEDSourceRegion, ptr @_ZN10NEDElement13applyDefaultsEv, ptr @_ZNK14PatternElement16getNumAttributesEv, ptr @_ZNK14PatternElement16getAttributeNameEi, ptr @_ZNK10NEDElement15lookupAttributeEPKc, ptr @_ZNK14PatternElement12getAttributeEi, ptr @_ZNK14PatternElement12getAttributeEPKc, ptr @_ZN14PatternElement12setAttributeEiPKc, ptr @_ZN14PatternElement12setAttributeEPKcS1_, ptr @_ZNK14PatternElement19getAttributeDefaultEi, ptr @_ZNK10NEDElement19getAttributeDefaultEPKc, ptr @_ZNK10NEDElement9getParentEv, ptr @_ZNK10NEDElement13getFirstChildEv, ptr @_ZNK10NEDElement12getLastChildEv, ptr @_ZNK10NEDElement14getNextSiblingEv, ptr @_ZNK10NEDElement14getPrevSiblingEv, ptr @_ZN10NEDElement11appendChildEPS_, ptr @_ZN10NEDElement17insertChildBeforeEPS_S0_, ptr @_ZN10NEDElement11removeChildEPS_, ptr @_ZNK10NEDElement20getFirstChildWithTagEi, ptr @_ZNK10NEDElement21getNextSiblingWithTagEi, ptr @_ZNK10NEDElement14getNumChildrenEv, ptr @_ZNK10NEDElement21getNumChildrenWithTagEi, ptr @_ZN10NEDElement11setUserDataEP18NEDElementUserData, ptr @_ZNK10NEDElement11getUserDataEv, ptr @_ZNK14PatternElement21getNextPatternSiblingEv, ptr @_ZNK14PatternElement20getFirstCommentChildEv, ptr @_ZNK14PatternElement23getFirstExpressionChildEv, ptr @_ZNK14PatternElement21getFirstPropertyChildEv] }, align 8
@.str.15 = private unnamed_addr constant [8 x i8] c"pattern\00", align 1
@_ZTV15PropertyElement = dso_local unnamed_addr constant { [41 x ptr] } { [41 x ptr] [ptr null, ptr @_ZTI15PropertyElement, ptr @_ZN15PropertyElementD2Ev, ptr @_ZN15PropertyElementD0Ev, ptr @_ZNK15PropertyElement3dupEv, ptr @_ZNK10NEDElement7dupTreeEv, ptr @_ZNK15PropertyElement10getTagNameEv, ptr @_ZNK15PropertyElement10getTagCodeEv, ptr @_ZNK10NEDElement5getIdEv, ptr @_ZN10NEDElement5setIdEl, ptr @_ZNK10NEDElement17getSourceLocationEv, ptr @_ZN10NEDElement17setSourceLocationEPKc, ptr @_ZNK10NEDElement15getSourceRegionEv, ptr @_ZN10NEDElement15setSourceRegionERK15NEDSourceRegion, ptr @_ZN10NEDElement13applyDefaultsEv, ptr @_ZNK15PropertyElement16getNumAttributesEv, ptr @_ZNK15PropertyElement16getAttributeNameEi, ptr @_ZNK10NEDElement15lookupAttributeEPKc, ptr @_ZNK15PropertyElement12getAttributeEi, ptr @_ZNK15PropertyElement12getAttributeEPKc, ptr @_ZN15PropertyElement12setAttributeEiPKc, ptr @_ZN15PropertyElement12setAttributeEPKcS1_, ptr @_ZNK15PropertyElement19getAttributeDefaultEi, ptr @_ZNK10NEDElement19getAttributeDefaultEPKc, ptr @_ZNK10NEDElement9getParentEv, ptr @_ZNK10NEDElement13getFirstChildEv, ptr @_ZNK10NEDElement12getLastChildEv, ptr @_ZNK10NEDElement14getNextSiblingEv, ptr @_ZNK10NEDElement14getPrevSiblingEv, ptr @_ZN10NEDElement11appendChildEPS_, ptr @_ZN10NEDElement17insertChildBeforeEPS_S0_, ptr @_ZN10NEDElement11removeChildEPS_, ptr @_ZNK10NEDElement20getFirstChildWithTagEi, ptr @_ZNK10NEDElement21getNextSiblingWithTagEi, ptr @_ZNK10NEDElement14getNumChildrenEv, ptr @_ZNK10NEDElement21getNumChildrenWithTagEi, ptr @_ZN10NEDElement11setUserDataEP18NEDElementUserData, ptr @_ZNK10NEDElement11getUserDataEv, ptr @_ZNK15PropertyElement22getNextPropertySiblingEv, ptr @_ZNK15PropertyElement20getFirstCommentChildEv, ptr @_ZNK15PropertyElement24getFirstPropertyKeyChildEv] }, align 8
@.str.16 = private unnamed_addr constant [6 x i8] c"index\00", align 1
@_ZTV18PropertyKeyElement = dso_local unnamed_addr constant { [41 x ptr] } { [41 x ptr] [ptr null, ptr @_ZTI18PropertyKeyElement, ptr @_ZN18PropertyKeyElementD2Ev, ptr @_ZN18PropertyKeyElementD0Ev, ptr @_ZNK18PropertyKeyElement3dupEv, ptr @_ZNK10NEDElement7dupTreeEv, ptr @_ZNK18PropertyKeyElement10getTagNameEv, ptr @_ZNK18PropertyKeyElement10getTagCodeEv, ptr @_ZNK10NEDElement5getIdEv, ptr @_ZN10NEDElement5setIdEl, ptr @_ZNK10NEDElement17getSourceLocationEv, ptr @_ZN10NEDElement17setSourceLocationEPKc, ptr @_ZNK10NEDElement15getSourceRegionEv, ptr @_ZN10NEDElement15setSourceRegionERK15NEDSourceRegion, ptr @_ZN10NEDElement13applyDefaultsEv, ptr @_ZNK18PropertyKeyElement16getNumAttributesEv, ptr @_ZNK18PropertyKeyElement16getAttributeNameEi, ptr @_ZNK10NEDElement15lookupAttributeEPKc, ptr @_ZNK18PropertyKeyElement12getAttributeEi, ptr @_ZNK18PropertyKeyElement12getAttributeEPKc, ptr @_ZN18PropertyKeyElement12setAttributeEiPKc, ptr @_ZN18PropertyKeyElement12setAttributeEPKcS1_, ptr @_ZNK18PropertyKeyElement19getAttributeDefaultEi, ptr @_ZNK10NEDElement19getAttributeDefaultEPKc, ptr @_ZNK10NEDElement9getParentEv, ptr @_ZNK10NEDElement13getFirstChildEv, ptr @_ZNK10NEDElement12getLastChildEv, ptr @_ZNK10NEDElement14getNextSiblingEv, ptr @_ZNK10NEDElement14getPrevSiblingEv, ptr @_ZN10NEDElement11appendChildEPS_, ptr @_ZN10NEDElement17insertChildBeforeEPS_S0_, ptr @_ZN10NEDElement11removeChildEPS_, ptr @_ZNK10NEDElement20getFirstChildWithTagEi, ptr @_ZNK10NEDElement21getNextSiblingWithTagEi, ptr @_ZNK10NEDElement14getNumChildrenEv, ptr @_ZNK10NEDElement21getNumChildrenWithTagEi, ptr @_ZN10NEDElement11setUserDataEP18NEDElementUserData, ptr @_ZNK10NEDElement11getUserDataEv, ptr @_ZNK18PropertyKeyElement25getNextPropertyKeySiblingEv, ptr @_ZNK18PropertyKeyElement20getFirstCommentChildEv, ptr @_ZNK18PropertyKeyElement20getFirstLiteralChildEv] }, align 8
@_ZTV12GatesElement = dso_local unnamed_addr constant { [41 x ptr] } { [41 x ptr] [ptr null, ptr @_ZTI12GatesElement, ptr @_ZN10NEDElementD2Ev, ptr @_ZN12GatesElementD0Ev, ptr @_ZNK12GatesElement3dupEv, ptr @_ZNK10NEDElement7dupTreeEv, ptr @_ZNK12GatesElement10getTagNameEv, ptr @_ZNK12GatesElement10getTagCodeEv, ptr @_ZNK10NEDElement5getIdEv, ptr @_ZN10NEDElement5setIdEl, ptr @_ZNK10NEDElement17getSourceLocationEv, ptr @_ZN10NEDElement17setSourceLocationEPKc, ptr @_ZNK10NEDElement15getSourceRegionEv, ptr @_ZN10NEDElement15setSourceRegionERK15NEDSourceRegion, ptr @_ZN10NEDElement13applyDefaultsEv, ptr @_ZNK12GatesElement16getNumAttributesEv, ptr @_ZNK12GatesElement16getAttributeNameEi, ptr @_ZNK10NEDElement15lookupAttributeEPKc, ptr @_ZNK12GatesElement12getAttributeEi, ptr @_ZNK12GatesElement12getAttributeEPKc, ptr @_ZN12GatesElement12setAttributeEiPKc, ptr @_ZN12GatesElement12setAttributeEPKcS1_, ptr @_ZNK12GatesElement19getAttributeDefaultEi, ptr @_ZNK10NEDElement19getAttributeDefaultEPKc, ptr @_ZNK10NEDElement9getParentEv, ptr @_ZNK10NEDElement13getFirstChildEv, ptr @_ZNK10NEDElement12getLastChildEv, ptr @_ZNK10NEDElement14getNextSiblingEv, ptr @_ZNK10NEDElement14getPrevSiblingEv, ptr @_ZN10NEDElement11appendChildEPS_, ptr @_ZN10NEDElement17insertChildBeforeEPS_S0_, ptr @_ZN10NEDElement11removeChildEPS_, ptr @_ZNK10NEDElement20getFirstChildWithTagEi, ptr @_ZNK10NEDElement21getNextSiblingWithTagEi, ptr @_ZNK10NEDElement14getNumChildrenEv, ptr @_ZNK10NEDElement21getNumChildrenWithTagEi, ptr @_ZN10NEDElement11setUserDataEP18NEDElementUserData, ptr @_ZNK10NEDElement11getUserDataEv, ptr @_ZNK12GatesElement19getNextGatesSiblingEv, ptr @_ZNK12GatesElement20getFirstCommentChildEv, ptr @_ZNK12GatesElement17getFirstGateChildEv] }, align 8
@_ZL13gatetype_vals = internal global [4 x ptr] [ptr @.str.5, ptr @.str.109, ptr @.str.110, ptr @.str.111], align 16
@_ZL13gatetype_nums = internal global [4 x i32] [i32 0, i32 1, i32 2, i32 3], align 16
@_ZTV11GateElement = dso_local unnamed_addr constant { [42 x ptr] } { [42 x ptr] [ptr null, ptr @_ZTI11GateElement, ptr @_ZN11GateElementD2Ev, ptr @_ZN11GateElementD0Ev, ptr @_ZNK11GateElement3dupEv, ptr @_ZNK10NEDElement7dupTreeEv, ptr @_ZNK11GateElement10getTagNameEv, ptr @_ZNK11GateElement10getTagCodeEv, ptr @_ZNK10NEDElement5getIdEv, ptr @_ZN10NEDElement5setIdEl, ptr @_ZNK10NEDElement17getSourceLocationEv, ptr @_ZN10NEDElement17setSourceLocationEPKc, ptr @_ZNK10NEDElement15getSourceRegionEv, ptr @_ZN10NEDElement15setSourceRegionERK15NEDSourceRegion, ptr @_ZN10NEDElement13applyDefaultsEv, ptr @_ZNK11GateElement16getNumAttributesEv, ptr @_ZNK11GateElement16getAttributeNameEi, ptr @_ZNK10NEDElement15lookupAttributeEPKc, ptr @_ZNK11GateElement12getAttributeEi, ptr @_ZNK11GateElement12getAttributeEPKc, ptr @_ZN11GateElement12setAttributeEiPKc, ptr @_ZN11GateElement12setAttributeEPKcS1_, ptr @_ZNK11GateElement19getAttributeDefaultEi, ptr @_ZNK10NEDElement19getAttributeDefaultEPKc, ptr @_ZNK10NEDElement9getParentEv, ptr @_ZNK10NEDElement13getFirstChildEv, ptr @_ZNK10NEDElement12getLastChildEv, ptr @_ZNK10NEDElement14getNextSiblingEv, ptr @_ZNK10NEDElement14getPrevSiblingEv, ptr @_ZN10NEDElement11appendChildEPS_, ptr @_ZN10NEDElement17insertChildBeforeEPS_S0_, ptr @_ZN10NEDElement11removeChildEPS_, ptr @_ZNK10NEDElement20getFirstChildWithTagEi, ptr @_ZNK10NEDElement21getNextSiblingWithTagEi, ptr @_ZNK10NEDElement14getNumChildrenEv, ptr @_ZNK10NEDElement21getNumChildrenWithTagEi, ptr @_ZN10NEDElement11setUserDataEP18NEDElementUserData, ptr @_ZNK10NEDElement11getUserDataEv, ptr @_ZNK11GateElement18getNextGateSiblingEv, ptr @_ZNK11GateElement20getFirstCommentChildEv, ptr @_ZNK11GateElement23getFirstExpressionChildEv, ptr @_ZNK11GateElement21getFirstPropertyChildEv] }, align 8
@.str.17 = private unnamed_addr constant [10 x i8] c"is-vector\00", align 1
@.str.18 = private unnamed_addr constant [12 x i8] c"vector-size\00", align 1
@_ZTV12TypesElement = dso_local unnamed_addr constant { [45 x ptr] } { [45 x ptr] [ptr null, ptr @_ZTI12TypesElement, ptr @_ZN10NEDElementD2Ev, ptr @_ZN12TypesElementD0Ev, ptr @_ZNK12TypesElement3dupEv, ptr @_ZNK10NEDElement7dupTreeEv, ptr @_ZNK12TypesElement10getTagNameEv, ptr @_ZNK12TypesElement10getTagCodeEv, ptr @_ZNK10NEDElement5getIdEv, ptr @_ZN10NEDElement5setIdEl, ptr @_ZNK10NEDElement17getSourceLocationEv, ptr @_ZN10NEDElement17setSourceLocationEPKc, ptr @_ZNK10NEDElement15getSourceRegionEv, ptr @_ZN10NEDElement15setSourceRegionERK15NEDSourceRegion, ptr @_ZN10NEDElement13applyDefaultsEv, ptr @_ZNK12TypesElement16getNumAttributesEv, ptr @_ZNK12TypesElement16getAttributeNameEi, ptr @_ZNK10NEDElement15lookupAttributeEPKc, ptr @_ZNK12TypesElement12getAttributeEi, ptr @_ZNK12TypesElement12getAttributeEPKc, ptr @_ZN12TypesElement12setAttributeEiPKc, ptr @_ZN12TypesElement12setAttributeEPKcS1_, ptr @_ZNK12TypesElement19getAttributeDefaultEi, ptr @_ZNK10NEDElement19getAttributeDefaultEPKc, ptr @_ZNK10NEDElement9getParentEv, ptr @_ZNK10NEDElement13getFirstChildEv, ptr @_ZNK10NEDElement12getLastChildEv, ptr @_ZNK10NEDElement14getNextSiblingEv, ptr @_ZNK10NEDElement14getPrevSiblingEv, ptr @_ZN10NEDElement11appendChildEPS_, ptr @_ZN10NEDElement17insertChildBeforeEPS_S0_, ptr @_ZN10NEDElement11removeChildEPS_, ptr @_ZNK10NEDElement20getFirstChildWithTagEi, ptr @_ZNK10NEDElement21getNextSiblingWithTagEi, ptr @_ZNK10NEDElement14getNumChildrenEv, ptr @_ZNK10NEDElement21getNumChildrenWithTagEi, ptr @_ZN10NEDElement11setUserDataEP18NEDElementUserData, ptr @_ZNK10NEDElement11getUserDataEv, ptr @_ZNK12TypesElement19getNextTypesSiblingEv, ptr @_ZNK12TypesElement20getFirstCommentChildEv, ptr @_ZNK12TypesElement20getFirstChannelChildEv, ptr @_ZNK12TypesElement29getFirstChannelInterfaceChildEv, ptr @_ZNK12TypesElement25getFirstSimpleModuleChildEv, ptr @_ZNK12TypesElement27getFirstCompoundModuleChildEv, ptr @_ZNK12TypesElement28getFirstModuleInterfaceChildEv] }, align 8
@_ZTV17SubmodulesElement = dso_local unnamed_addr constant { [41 x ptr] } { [41 x ptr] [ptr null, ptr @_ZTI17SubmodulesElement, ptr @_ZN10NEDElementD2Ev, ptr @_ZN17SubmodulesElementD0Ev, ptr @_ZNK17SubmodulesElement3dupEv, ptr @_ZNK10NEDElement7dupTreeEv, ptr @_ZNK17SubmodulesElement10getTagNameEv, ptr @_ZNK17SubmodulesElement10getTagCodeEv, ptr @_ZNK10NEDElement5getIdEv, ptr @_ZN10NEDElement5setIdEl, ptr @_ZNK10NEDElement17getSourceLocationEv, ptr @_ZN10NEDElement17setSourceLocationEPKc, ptr @_ZNK10NEDElement15getSourceRegionEv, ptr @_ZN10NEDElement15setSourceRegionERK15NEDSourceRegion, ptr @_ZN10NEDElement13applyDefaultsEv, ptr @_ZNK17SubmodulesElement16getNumAttributesEv, ptr @_ZNK17SubmodulesElement16getAttributeNameEi, ptr @_ZNK10NEDElement15lookupAttributeEPKc, ptr @_ZNK17SubmodulesElement12getAttributeEi, ptr @_ZNK17SubmodulesElement12getAttributeEPKc, ptr @_ZN17SubmodulesElement12setAttributeEiPKc, ptr @_ZN17SubmodulesElement12setAttributeEPKcS1_, ptr @_ZNK17SubmodulesElement19getAttributeDefaultEi, ptr @_ZNK10NEDElement19getAttributeDefaultEPKc, ptr @_ZNK10NEDElement9getParentEv, ptr @_ZNK10NEDElement13getFirstChildEv, ptr @_ZNK10NEDElement12getLastChildEv, ptr @_ZNK10NEDElement14getNextSiblingEv, ptr @_ZNK10NEDElement14getPrevSiblingEv, ptr @_ZN10NEDElement11appendChildEPS_, ptr @_ZN10NEDElement17insertChildBeforeEPS_S0_, ptr @_ZN10NEDElement11removeChildEPS_, ptr @_ZNK10NEDElement20getFirstChildWithTagEi, ptr @_ZNK10NEDElement21getNextSiblingWithTagEi, ptr @_ZNK10NEDElement14getNumChildrenEv, ptr @_ZNK10NEDElement21getNumChildrenWithTagEi, ptr @_ZN10NEDElement11setUserDataEP18NEDElementUserData, ptr @_ZNK10NEDElement11getUserDataEv, ptr @_ZNK17SubmodulesElement24getNextSubmodulesSiblingEv, ptr @_ZNK17SubmodulesElement20getFirstCommentChildEv, ptr @_ZNK17SubmodulesElement22getFirstSubmoduleChildEv] }, align 8
@_ZTV16SubmoduleElement = dso_local unnamed_addr constant { [43 x ptr] } { [43 x ptr] [ptr null, ptr @_ZTI16SubmoduleElement, ptr @_ZN16SubmoduleElementD2Ev, ptr @_ZN16SubmoduleElementD0Ev, ptr @_ZNK16SubmoduleElement3dupEv, ptr @_ZNK10NEDElement7dupTreeEv, ptr @_ZNK16SubmoduleElement10getTagNameEv, ptr @_ZNK16SubmoduleElement10getTagCodeEv, ptr @_ZNK10NEDElement5getIdEv, ptr @_ZN10NEDElement5setIdEl, ptr @_ZNK10NEDElement17getSourceLocationEv, ptr @_ZN10NEDElement17setSourceLocationEPKc, ptr @_ZNK10NEDElement15getSourceRegionEv, ptr @_ZN10NEDElement15setSourceRegionERK15NEDSourceRegion, ptr @_ZN10NEDElement13applyDefaultsEv, ptr @_ZNK16SubmoduleElement16getNumAttributesEv, ptr @_ZNK16SubmoduleElement16getAttributeNameEi, ptr @_ZNK10NEDElement15lookupAttributeEPKc, ptr @_ZNK16SubmoduleElement12getAttributeEi, ptr @_ZNK16SubmoduleElement12getAttributeEPKc, ptr @_ZN16SubmoduleElement12setAttributeEiPKc, ptr @_ZN16SubmoduleElement12setAttributeEPKcS1_, ptr @_ZNK16SubmoduleElement19getAttributeDefaultEi, ptr @_ZNK10NEDElement19getAttributeDefaultEPKc, ptr @_ZNK10NEDElement9getParentEv, ptr @_ZNK10NEDElement13getFirstChildEv, ptr @_ZNK10NEDElement12getLastChildEv, ptr @_ZNK10NEDElement14getNextSiblingEv, ptr @_ZNK10NEDElement14getPrevSiblingEv, ptr @_ZN10NEDElement11appendChildEPS_, ptr @_ZN10NEDElement17insertChildBeforeEPS_S0_, ptr @_ZN10NEDElement11removeChildEPS_, ptr @_ZNK10NEDElement20getFirstChildWithTagEi, ptr @_ZNK10NEDElement21getNextSiblingWithTagEi, ptr @_ZNK10NEDElement14getNumChildrenEv, ptr @_ZNK10NEDElement21getNumChildrenWithTagEi, ptr @_ZN10NEDElement11setUserDataEP18NEDElementUserData, ptr @_ZNK10NEDElement11getUserDataEv, ptr @_ZNK16SubmoduleElement23getNextSubmoduleSiblingEv, ptr @_ZNK16SubmoduleElement20getFirstCommentChildEv, ptr @_ZNK16SubmoduleElement23getFirstExpressionChildEv, ptr @_ZNK16SubmoduleElement23getFirstParametersChildEv, ptr @_ZNK16SubmoduleElement18getFirstGatesChildEv] }, align 8
@.str.19 = private unnamed_addr constant [10 x i8] c"like-type\00", align 1
@.str.20 = private unnamed_addr constant [11 x i8] c"like-param\00", align 1
@_ZTV18ConnectionsElement = dso_local unnamed_addr constant { [42 x ptr] } { [42 x ptr] [ptr null, ptr @_ZTI18ConnectionsElement, ptr @_ZN10NEDElementD2Ev, ptr @_ZN18ConnectionsElementD0Ev, ptr @_ZNK18ConnectionsElement3dupEv, ptr @_ZNK10NEDElement7dupTreeEv, ptr @_ZNK18ConnectionsElement10getTagNameEv, ptr @_ZNK18ConnectionsElement10getTagCodeEv, ptr @_ZNK10NEDElement5getIdEv, ptr @_ZN10NEDElement5setIdEl, ptr @_ZNK10NEDElement17getSourceLocationEv, ptr @_ZN10NEDElement17setSourceLocationEPKc, ptr @_ZNK10NEDElement15getSourceRegionEv, ptr @_ZN10NEDElement15setSourceRegionERK15NEDSourceRegion, ptr @_ZN10NEDElement13applyDefaultsEv, ptr @_ZNK18ConnectionsElement16getNumAttributesEv, ptr @_ZNK18ConnectionsElement16getAttributeNameEi, ptr @_ZNK10NEDElement15lookupAttributeEPKc, ptr @_ZNK18ConnectionsElement12getAttributeEi, ptr @_ZNK18ConnectionsElement12getAttributeEPKc, ptr @_ZN18ConnectionsElement12setAttributeEiPKc, ptr @_ZN18ConnectionsElement12setAttributeEPKcS1_, ptr @_ZNK18ConnectionsElement19getAttributeDefaultEi, ptr @_ZNK10NEDElement19getAttributeDefaultEPKc, ptr @_ZNK10NEDElement9getParentEv, ptr @_ZNK10NEDElement13getFirstChildEv, ptr @_ZNK10NEDElement12getLastChildEv, ptr @_ZNK10NEDElement14getNextSiblingEv, ptr @_ZNK10NEDElement14getPrevSiblingEv, ptr @_ZN10NEDElement11appendChildEPS_, ptr @_ZN10NEDElement17insertChildBeforeEPS_S0_, ptr @_ZN10NEDElement11removeChildEPS_, ptr @_ZNK10NEDElement20getFirstChildWithTagEi, ptr @_ZNK10NEDElement21getNextSiblingWithTagEi, ptr @_ZNK10NEDElement14getNumChildrenEv, ptr @_ZNK10NEDElement21getNumChildrenWithTagEi, ptr @_ZN10NEDElement11setUserDataEP18NEDElementUserData, ptr @_ZNK10NEDElement11getUserDataEv, ptr @_ZNK18ConnectionsElement25getNextConnectionsSiblingEv, ptr @_ZNK18ConnectionsElement20getFirstCommentChildEv, ptr @_ZNK18ConnectionsElement23getFirstConnectionChildEv, ptr @_ZNK18ConnectionsElement28getFirstConnectionGroupChildEv] }, align 8
@.str.21 = private unnamed_addr constant [18 x i8] c"allow-unconnected\00", align 1
@_ZL12subgate_vals = internal global [3 x ptr] [ptr @.str.5, ptr @.str.112, ptr @.str.113], align 16
@_ZL12subgate_nums = internal global [3 x i32] [i32 0, i32 1, i32 2], align 4
@_ZL13arrowdir_vals = internal global [3 x ptr] [ptr @.str.114, ptr @.str.115, ptr @.str.116], align 16
@_ZL13arrowdir_nums = internal global [3 x i32] [i32 1, i32 0, i32 2], align 4
@_ZTV17ConnectionElement = dso_local unnamed_addr constant { [44 x ptr] } { [44 x ptr] [ptr null, ptr @_ZTI17ConnectionElement, ptr @_ZN17ConnectionElementD2Ev, ptr @_ZN17ConnectionElementD0Ev, ptr @_ZNK17ConnectionElement3dupEv, ptr @_ZNK10NEDElement7dupTreeEv, ptr @_ZNK17ConnectionElement10getTagNameEv, ptr @_ZNK17ConnectionElement10getTagCodeEv, ptr @_ZNK10NEDElement5getIdEv, ptr @_ZN10NEDElement5setIdEl, ptr @_ZNK10NEDElement17getSourceLocationEv, ptr @_ZN10NEDElement17setSourceLocationEPKc, ptr @_ZNK10NEDElement15getSourceRegionEv, ptr @_ZN10NEDElement15setSourceRegionERK15NEDSourceRegion, ptr @_ZN10NEDElement13applyDefaultsEv, ptr @_ZNK17ConnectionElement16getNumAttributesEv, ptr @_ZNK17ConnectionElement16getAttributeNameEi, ptr @_ZNK10NEDElement15lookupAttributeEPKc, ptr @_ZNK17ConnectionElement12getAttributeEi, ptr @_ZNK17ConnectionElement12getAttributeEPKc, ptr @_ZN17ConnectionElement12setAttributeEiPKc, ptr @_ZN17ConnectionElement12setAttributeEPKcS1_, ptr @_ZNK17ConnectionElement19getAttributeDefaultEi, ptr @_ZNK10NEDElement19getAttributeDefaultEPKc, ptr @_ZNK10NEDElement9getParentEv, ptr @_ZNK10NEDElement13getFirstChildEv, ptr @_ZNK10NEDElement12getLastChildEv, ptr @_ZNK10NEDElement14getNextSiblingEv, ptr @_ZNK10NEDElement14getPrevSiblingEv, ptr @_ZN10NEDElement11appendChildEPS_, ptr @_ZN10NEDElement17insertChildBeforeEPS_S0_, ptr @_ZN10NEDElement11removeChildEPS_, ptr @_ZNK10NEDElement20getFirstChildWithTagEi, ptr @_ZNK10NEDElement21getNextSiblingWithTagEi, ptr @_ZNK10NEDElement14getNumChildrenEv, ptr @_ZNK10NEDElement21getNumChildrenWithTagEi, ptr @_ZN10NEDElement11setUserDataEP18NEDElementUserData, ptr @_ZNK10NEDElement11getUserDataEv, ptr @_ZNK17ConnectionElement24getNextConnectionSiblingEv, ptr @_ZNK17ConnectionElement20getFirstCommentChildEv, ptr @_ZNK17ConnectionElement23getFirstExpressionChildEv, ptr @_ZNK17ConnectionElement24getFirstChannelSpecChildEv, ptr @_ZNK17ConnectionElement17getFirstLoopChildEv, ptr @_ZNK17ConnectionElement22getFirstConditionChildEv] }, align 8
@.str.22 = private unnamed_addr constant [11 x i8] c"src-module\00", align 1
@.str.23 = private unnamed_addr constant [17 x i8] c"src-module-index\00", align 1
@.str.24 = private unnamed_addr constant [9 x i8] c"src-gate\00", align 1
@.str.25 = private unnamed_addr constant [18 x i8] c"src-gate-plusplus\00", align 1
@.str.26 = private unnamed_addr constant [15 x i8] c"src-gate-index\00", align 1
@.str.27 = private unnamed_addr constant [14 x i8] c"src-gate-subg\00", align 1
@.str.28 = private unnamed_addr constant [12 x i8] c"dest-module\00", align 1
@.str.29 = private unnamed_addr constant [18 x i8] c"dest-module-index\00", align 1
@.str.30 = private unnamed_addr constant [10 x i8] c"dest-gate\00", align 1
@.str.31 = private unnamed_addr constant [19 x i8] c"dest-gate-plusplus\00", align 1
@.str.32 = private unnamed_addr constant [16 x i8] c"dest-gate-index\00", align 1
@.str.33 = private unnamed_addr constant [15 x i8] c"dest-gate-subg\00", align 1
@.str.34 = private unnamed_addr constant [16 x i8] c"arrow-direction\00", align 1
@_ZTV18ChannelSpecElement = dso_local unnamed_addr constant { [42 x ptr] } { [42 x ptr] [ptr null, ptr @_ZTI18ChannelSpecElement, ptr @_ZN18ChannelSpecElementD2Ev, ptr @_ZN18ChannelSpecElementD0Ev, ptr @_ZNK18ChannelSpecElement3dupEv, ptr @_ZNK10NEDElement7dupTreeEv, ptr @_ZNK18ChannelSpecElement10getTagNameEv, ptr @_ZNK18ChannelSpecElement10getTagCodeEv, ptr @_ZNK10NEDElement5getIdEv, ptr @_ZN10NEDElement5setIdEl, ptr @_ZNK10NEDElement17getSourceLocationEv, ptr @_ZN10NEDElement17setSourceLocationEPKc, ptr @_ZNK10NEDElement15getSourceRegionEv, ptr @_ZN10NEDElement15setSourceRegionERK15NEDSourceRegion, ptr @_ZN10NEDElement13applyDefaultsEv, ptr @_ZNK18ChannelSpecElement16getNumAttributesEv, ptr @_ZNK18ChannelSpecElement16getAttributeNameEi, ptr @_ZNK10NEDElement15lookupAttributeEPKc, ptr @_ZNK18ChannelSpecElement12getAttributeEi, ptr @_ZNK18ChannelSpecElement12getAttributeEPKc, ptr @_ZN18ChannelSpecElement12setAttributeEiPKc, ptr @_ZN18ChannelSpecElement12setAttributeEPKcS1_, ptr @_ZNK18ChannelSpecElement19getAttributeDefaultEi, ptr @_ZNK10NEDElement19getAttributeDefaultEPKc, ptr @_ZNK10NEDElement9getParentEv, ptr @_ZNK10NEDElement13getFirstChildEv, ptr @_ZNK10NEDElement12getLastChildEv, ptr @_ZNK10NEDElement14getNextSiblingEv, ptr @_ZNK10NEDElement14getPrevSiblingEv, ptr @_ZN10NEDElement11appendChildEPS_, ptr @_ZN10NEDElement17insertChildBeforeEPS_S0_, ptr @_ZN10NEDElement11removeChildEPS_, ptr @_ZNK10NEDElement20getFirstChildWithTagEi, ptr @_ZNK10NEDElement21getNextSiblingWithTagEi, ptr @_ZNK10NEDElement14getNumChildrenEv, ptr @_ZNK10NEDElement21getNumChildrenWithTagEi, ptr @_ZN10NEDElement11setUserDataEP18NEDElementUserData, ptr @_ZNK10NEDElement11getUserDataEv, ptr @_ZNK18ChannelSpecElement25getNextChannelSpecSiblingEv, ptr @_ZNK18ChannelSpecElement20getFirstCommentChildEv, ptr @_ZNK18ChannelSpecElement23getFirstExpressionChildEv, ptr @_ZNK18ChannelSpecElement23getFirstParametersChildEv] }, align 8
@_ZTV22ConnectionGroupElement = dso_local unnamed_addr constant { [43 x ptr] } { [43 x ptr] [ptr null, ptr @_ZTI22ConnectionGroupElement, ptr @_ZN10NEDElementD2Ev, ptr @_ZN22ConnectionGroupElementD0Ev, ptr @_ZNK22ConnectionGroupElement3dupEv, ptr @_ZNK10NEDElement7dupTreeEv, ptr @_ZNK22ConnectionGroupElement10getTagNameEv, ptr @_ZNK22ConnectionGroupElement10getTagCodeEv, ptr @_ZNK10NEDElement5getIdEv, ptr @_ZN10NEDElement5setIdEl, ptr @_ZNK10NEDElement17getSourceLocationEv, ptr @_ZN10NEDElement17setSourceLocationEPKc, ptr @_ZNK10NEDElement15getSourceRegionEv, ptr @_ZN10NEDElement15setSourceRegionERK15NEDSourceRegion, ptr @_ZN10NEDElement13applyDefaultsEv, ptr @_ZNK22ConnectionGroupElement16getNumAttributesEv, ptr @_ZNK22ConnectionGroupElement16getAttributeNameEi, ptr @_ZNK10NEDElement15lookupAttributeEPKc, ptr @_ZNK22ConnectionGroupElement12getAttributeEi, ptr @_ZNK22ConnectionGroupElement12getAttributeEPKc, ptr @_ZN22ConnectionGroupElement12setAttributeEiPKc, ptr @_ZN22ConnectionGroupElement12setAttributeEPKcS1_, ptr @_ZNK22ConnectionGroupElement19getAttributeDefaultEi, ptr @_ZNK10NEDElement19getAttributeDefaultEPKc, ptr @_ZNK10NEDElement9getParentEv, ptr @_ZNK10NEDElement13getFirstChildEv, ptr @_ZNK10NEDElement12getLastChildEv, ptr @_ZNK10NEDElement14getNextSiblingEv, ptr @_ZNK10NEDElement14getPrevSiblingEv, ptr @_ZN10NEDElement11appendChildEPS_, ptr @_ZN10NEDElement17insertChildBeforeEPS_S0_, ptr @_ZN10NEDElement11removeChildEPS_, ptr @_ZNK10NEDElement20getFirstChildWithTagEi, ptr @_ZNK10NEDElement21getNextSiblingWithTagEi, ptr @_ZNK10NEDElement14getNumChildrenEv, ptr @_ZNK10NEDElement21getNumChildrenWithTagEi, ptr @_ZN10NEDElement11setUserDataEP18NEDElementUserData, ptr @_ZNK10NEDElement11getUserDataEv, ptr @_ZNK22ConnectionGroupElement29getNextConnectionGroupSiblingEv, ptr @_ZNK22ConnectionGroupElement20getFirstCommentChildEv, ptr @_ZNK22ConnectionGroupElement17getFirstLoopChildEv, ptr @_ZNK22ConnectionGroupElement22getFirstConditionChildEv, ptr @_ZNK22ConnectionGroupElement23getFirstConnectionChildEv] }, align 8
@_ZTV11LoopElement = dso_local unnamed_addr constant { [41 x ptr] } { [41 x ptr] [ptr null, ptr @_ZTI11LoopElement, ptr @_ZN11LoopElementD2Ev, ptr @_ZN11LoopElementD0Ev, ptr @_ZNK11LoopElement3dupEv, ptr @_ZNK10NEDElement7dupTreeEv, ptr @_ZNK11LoopElement10getTagNameEv, ptr @_ZNK11LoopElement10getTagCodeEv, ptr @_ZNK10NEDElement5getIdEv, ptr @_ZN10NEDElement5setIdEl, ptr @_ZNK10NEDElement17getSourceLocationEv, ptr @_ZN10NEDElement17setSourceLocationEPKc, ptr @_ZNK10NEDElement15getSourceRegionEv, ptr @_ZN10NEDElement15setSourceRegionERK15NEDSourceRegion, ptr @_ZN10NEDElement13applyDefaultsEv, ptr @_ZNK11LoopElement16getNumAttributesEv, ptr @_ZNK11LoopElement16getAttributeNameEi, ptr @_ZNK10NEDElement15lookupAttributeEPKc, ptr @_ZNK11LoopElement12getAttributeEi, ptr @_ZNK11LoopElement12getAttributeEPKc, ptr @_ZN11LoopElement12setAttributeEiPKc, ptr @_ZN11LoopElement12setAttributeEPKcS1_, ptr @_ZNK11LoopElement19getAttributeDefaultEi, ptr @_ZNK10NEDElement19getAttributeDefaultEPKc, ptr @_ZNK10NEDElement9getParentEv, ptr @_ZNK10NEDElement13getFirstChildEv, ptr @_ZNK10NEDElement12getLastChildEv, ptr @_ZNK10NEDElement14getNextSiblingEv, ptr @_ZNK10NEDElement14getPrevSiblingEv, ptr @_ZN10NEDElement11appendChildEPS_, ptr @_ZN10NEDElement17insertChildBeforeEPS_S0_, ptr @_ZN10NEDElement11removeChildEPS_, ptr @_ZNK10NEDElement20getFirstChildWithTagEi, ptr @_ZNK10NEDElement21getNextSiblingWithTagEi, ptr @_ZNK10NEDElement14getNumChildrenEv, ptr @_ZNK10NEDElement21getNumChildrenWithTagEi, ptr @_ZN10NEDElement11setUserDataEP18NEDElementUserData, ptr @_ZNK10NEDElement11getUserDataEv, ptr @_ZNK11LoopElement18getNextLoopSiblingEv, ptr @_ZNK11LoopElement20getFirstCommentChildEv, ptr @_ZNK11LoopElement23getFirstExpressionChildEv] }, align 8
@.str.35 = private unnamed_addr constant [11 x i8] c"param-name\00", align 1
@.str.36 = private unnamed_addr constant [11 x i8] c"from-value\00", align 1
@.str.37 = private unnamed_addr constant [9 x i8] c"to-value\00", align 1
@_ZTV16ConditionElement = dso_local unnamed_addr constant { [41 x ptr] } { [41 x ptr] [ptr null, ptr @_ZTI16ConditionElement, ptr @_ZN16ConditionElementD2Ev, ptr @_ZN16ConditionElementD0Ev, ptr @_ZNK16ConditionElement3dupEv, ptr @_ZNK10NEDElement7dupTreeEv, ptr @_ZNK16ConditionElement10getTagNameEv, ptr @_ZNK16ConditionElement10getTagCodeEv, ptr @_ZNK10NEDElement5getIdEv, ptr @_ZN10NEDElement5setIdEl, ptr @_ZNK10NEDElement17getSourceLocationEv, ptr @_ZN10NEDElement17setSourceLocationEPKc, ptr @_ZNK10NEDElement15getSourceRegionEv, ptr @_ZN10NEDElement15setSourceRegionERK15NEDSourceRegion, ptr @_ZN10NEDElement13applyDefaultsEv, ptr @_ZNK16ConditionElement16getNumAttributesEv, ptr @_ZNK16ConditionElement16getAttributeNameEi, ptr @_ZNK10NEDElement15lookupAttributeEPKc, ptr @_ZNK16ConditionElement12getAttributeEi, ptr @_ZNK16ConditionElement12getAttributeEPKc, ptr @_ZN16ConditionElement12setAttributeEiPKc, ptr @_ZN16ConditionElement12setAttributeEPKcS1_, ptr @_ZNK16ConditionElement19getAttributeDefaultEi, ptr @_ZNK10NEDElement19getAttributeDefaultEPKc, ptr @_ZNK10NEDElement9getParentEv, ptr @_ZNK10NEDElement13getFirstChildEv, ptr @_ZNK10NEDElement12getLastChildEv, ptr @_ZNK10NEDElement14getNextSiblingEv, ptr @_ZNK10NEDElement14getPrevSiblingEv, ptr @_ZN10NEDElement11appendChildEPS_, ptr @_ZN10NEDElement17insertChildBeforeEPS_S0_, ptr @_ZN10NEDElement11removeChildEPS_, ptr @_ZNK10NEDElement20getFirstChildWithTagEi, ptr @_ZNK10NEDElement21getNextSiblingWithTagEi, ptr @_ZNK10NEDElement14getNumChildrenEv, ptr @_ZNK10NEDElement21getNumChildrenWithTagEi, ptr @_ZN10NEDElement11setUserDataEP18NEDElementUserData, ptr @_ZNK10NEDElement11getUserDataEv, ptr @_ZNK16ConditionElement23getNextConditionSiblingEv, ptr @_ZNK16ConditionElement20getFirstCommentChildEv, ptr @_ZNK16ConditionElement23getFirstExpressionChildEv] }, align 8
@.str.38 = private unnamed_addr constant [10 x i8] c"condition\00", align 1
@_ZTV17ExpressionElement = dso_local unnamed_addr constant { [44 x ptr] } { [44 x ptr] [ptr null, ptr @_ZTI17ExpressionElement, ptr @_ZN17ExpressionElementD2Ev, ptr @_ZN17ExpressionElementD0Ev, ptr @_ZNK17ExpressionElement3dupEv, ptr @_ZNK10NEDElement7dupTreeEv, ptr @_ZNK17ExpressionElement10getTagNameEv, ptr @_ZNK17ExpressionElement10getTagCodeEv, ptr @_ZNK10NEDElement5getIdEv, ptr @_ZN10NEDElement5setIdEl, ptr @_ZNK10NEDElement17getSourceLocationEv, ptr @_ZN10NEDElement17setSourceLocationEPKc, ptr @_ZNK10NEDElement15getSourceRegionEv, ptr @_ZN10NEDElement15setSourceRegionERK15NEDSourceRegion, ptr @_ZN10NEDElement13applyDefaultsEv, ptr @_ZNK17ExpressionElement16getNumAttributesEv, ptr @_ZNK17ExpressionElement16getAttributeNameEi, ptr @_ZNK10NEDElement15lookupAttributeEPKc, ptr @_ZNK17ExpressionElement12getAttributeEi, ptr @_ZNK17ExpressionElement12getAttributeEPKc, ptr @_ZN17ExpressionElement12setAttributeEiPKc, ptr @_ZN17ExpressionElement12setAttributeEPKcS1_, ptr @_ZNK17ExpressionElement19getAttributeDefaultEi, ptr @_ZNK10NEDElement19getAttributeDefaultEPKc, ptr @_ZNK10NEDElement9getParentEv, ptr @_ZNK10NEDElement13getFirstChildEv, ptr @_ZNK10NEDElement12getLastChildEv, ptr @_ZNK10NEDElement14getNextSiblingEv, ptr @_ZNK10NEDElement14getPrevSiblingEv, ptr @_ZN10NEDElement11appendChildEPS_, ptr @_ZN10NEDElement17insertChildBeforeEPS_S0_, ptr @_ZN10NEDElement11removeChildEPS_, ptr @_ZNK10NEDElement20getFirstChildWithTagEi, ptr @_ZNK10NEDElement21getNextSiblingWithTagEi, ptr @_ZNK10NEDElement14getNumChildrenEv, ptr @_ZNK10NEDElement21getNumChildrenWithTagEi, ptr @_ZN10NEDElement11setUserDataEP18NEDElementUserData, ptr @_ZNK10NEDElement11getUserDataEv, ptr @_ZNK17ExpressionElement24getNextExpressionSiblingEv, ptr @_ZNK17ExpressionElement20getFirstCommentChildEv, ptr @_ZNK17ExpressionElement21getFirstOperatorChildEv, ptr @_ZNK17ExpressionElement21getFirstFunctionChildEv, ptr @_ZNK17ExpressionElement18getFirstIdentChildEv, ptr @_ZNK17ExpressionElement20getFirstLiteralChildEv] }, align 8
@.str.39 = private unnamed_addr constant [7 x i8] c"target\00", align 1
@_ZTV15OperatorElement = dso_local unnamed_addr constant { [44 x ptr] } { [44 x ptr] [ptr null, ptr @_ZTI15OperatorElement, ptr @_ZN15OperatorElementD2Ev, ptr @_ZN15OperatorElementD0Ev, ptr @_ZNK15OperatorElement3dupEv, ptr @_ZNK10NEDElement7dupTreeEv, ptr @_ZNK15OperatorElement10getTagNameEv, ptr @_ZNK15OperatorElement10getTagCodeEv, ptr @_ZNK10NEDElement5getIdEv, ptr @_ZN10NEDElement5setIdEl, ptr @_ZNK10NEDElement17getSourceLocationEv, ptr @_ZN10NEDElement17setSourceLocationEPKc, ptr @_ZNK10NEDElement15getSourceRegionEv, ptr @_ZN10NEDElement15setSourceRegionERK15NEDSourceRegion, ptr @_ZN10NEDElement13applyDefaultsEv, ptr @_ZNK15OperatorElement16getNumAttributesEv, ptr @_ZNK15OperatorElement16getAttributeNameEi, ptr @_ZNK10NEDElement15lookupAttributeEPKc, ptr @_ZNK15OperatorElement12getAttributeEi, ptr @_ZNK15OperatorElement12getAttributeEPKc, ptr @_ZN15OperatorElement12setAttributeEiPKc, ptr @_ZN15OperatorElement12setAttributeEPKcS1_, ptr @_ZNK15OperatorElement19getAttributeDefaultEi, ptr @_ZNK10NEDElement19getAttributeDefaultEPKc, ptr @_ZNK10NEDElement9getParentEv, ptr @_ZNK10NEDElement13getFirstChildEv, ptr @_ZNK10NEDElement12getLastChildEv, ptr @_ZNK10NEDElement14getNextSiblingEv, ptr @_ZNK10NEDElement14getPrevSiblingEv, ptr @_ZN10NEDElement11appendChildEPS_, ptr @_ZN10NEDElement17insertChildBeforeEPS_S0_, ptr @_ZN10NEDElement11removeChildEPS_, ptr @_ZNK10NEDElement20getFirstChildWithTagEi, ptr @_ZNK10NEDElement21getNextSiblingWithTagEi, ptr @_ZNK10NEDElement14getNumChildrenEv, ptr @_ZNK10NEDElement21getNumChildrenWithTagEi, ptr @_ZN10NEDElement11setUserDataEP18NEDElementUserData, ptr @_ZNK10NEDElement11getUserDataEv, ptr @_ZNK15OperatorElement22getNextOperatorSiblingEv, ptr @_ZNK15OperatorElement20getFirstCommentChildEv, ptr @_ZNK15OperatorElement21getFirstOperatorChildEv, ptr @_ZNK15OperatorElement21getFirstFunctionChildEv, ptr @_ZNK15OperatorElement18getFirstIdentChildEv, ptr @_ZNK15OperatorElement20getFirstLiteralChildEv] }, align 8
@_ZTV15FunctionElement = dso_local unnamed_addr constant { [44 x ptr] } { [44 x ptr] [ptr null, ptr @_ZTI15FunctionElement, ptr @_ZN15FunctionElementD2Ev, ptr @_ZN15FunctionElementD0Ev, ptr @_ZNK15FunctionElement3dupEv, ptr @_ZNK10NEDElement7dupTreeEv, ptr @_ZNK15FunctionElement10getTagNameEv, ptr @_ZNK15FunctionElement10getTagCodeEv, ptr @_ZNK10NEDElement5getIdEv, ptr @_ZN10NEDElement5setIdEl, ptr @_ZNK10NEDElement17getSourceLocationEv, ptr @_ZN10NEDElement17setSourceLocationEPKc, ptr @_ZNK10NEDElement15getSourceRegionEv, ptr @_ZN10NEDElement15setSourceRegionERK15NEDSourceRegion, ptr @_ZN10NEDElement13applyDefaultsEv, ptr @_ZNK15FunctionElement16getNumAttributesEv, ptr @_ZNK15FunctionElement16getAttributeNameEi, ptr @_ZNK10NEDElement15lookupAttributeEPKc, ptr @_ZNK15FunctionElement12getAttributeEi, ptr @_ZNK15FunctionElement12getAttributeEPKc, ptr @_ZN15FunctionElement12setAttributeEiPKc, ptr @_ZN15FunctionElement12setAttributeEPKcS1_, ptr @_ZNK15FunctionElement19getAttributeDefaultEi, ptr @_ZNK10NEDElement19getAttributeDefaultEPKc, ptr @_ZNK10NEDElement9getParentEv, ptr @_ZNK10NEDElement13getFirstChildEv, ptr @_ZNK10NEDElement12getLastChildEv, ptr @_ZNK10NEDElement14getNextSiblingEv, ptr @_ZNK10NEDElement14getPrevSiblingEv, ptr @_ZN10NEDElement11appendChildEPS_, ptr @_ZN10NEDElement17insertChildBeforeEPS_S0_, ptr @_ZN10NEDElement11removeChildEPS_, ptr @_ZNK10NEDElement20getFirstChildWithTagEi, ptr @_ZNK10NEDElement21getNextSiblingWithTagEi, ptr @_ZNK10NEDElement14getNumChildrenEv, ptr @_ZNK10NEDElement21getNumChildrenWithTagEi, ptr @_ZN10NEDElement11setUserDataEP18NEDElementUserData, ptr @_ZNK10NEDElement11getUserDataEv, ptr @_ZNK15FunctionElement22getNextFunctionSiblingEv, ptr @_ZNK15FunctionElement20getFirstCommentChildEv, ptr @_ZNK15FunctionElement21getFirstOperatorChildEv, ptr @_ZNK15FunctionElement21getFirstFunctionChildEv, ptr @_ZNK15FunctionElement18getFirstIdentChildEv, ptr @_ZNK15FunctionElement20getFirstLiteralChildEv] }, align 8
@_ZTV12IdentElement = dso_local unnamed_addr constant { [44 x ptr] } { [44 x ptr] [ptr null, ptr @_ZTI12IdentElement, ptr @_ZN12IdentElementD2Ev, ptr @_ZN12IdentElementD0Ev, ptr @_ZNK12IdentElement3dupEv, ptr @_ZNK10NEDElement7dupTreeEv, ptr @_ZNK12IdentElement10getTagNameEv, ptr @_ZNK12IdentElement10getTagCodeEv, ptr @_ZNK10NEDElement5getIdEv, ptr @_ZN10NEDElement5setIdEl, ptr @_ZNK10NEDElement17getSourceLocationEv, ptr @_ZN10NEDElement17setSourceLocationEPKc, ptr @_ZNK10NEDElement15getSourceRegionEv, ptr @_ZN10NEDElement15setSourceRegionERK15NEDSourceRegion, ptr @_ZN10NEDElement13applyDefaultsEv, ptr @_ZNK12IdentElement16getNumAttributesEv, ptr @_ZNK12IdentElement16getAttributeNameEi, ptr @_ZNK10NEDElement15lookupAttributeEPKc, ptr @_ZNK12IdentElement12getAttributeEi, ptr @_ZNK12IdentElement12getAttributeEPKc, ptr @_ZN12IdentElement12setAttributeEiPKc, ptr @_ZN12IdentElement12setAttributeEPKcS1_, ptr @_ZNK12IdentElement19getAttributeDefaultEi, ptr @_ZNK10NEDElement19getAttributeDefaultEPKc, ptr @_ZNK10NEDElement9getParentEv, ptr @_ZNK10NEDElement13getFirstChildEv, ptr @_ZNK10NEDElement12getLastChildEv, ptr @_ZNK10NEDElement14getNextSiblingEv, ptr @_ZNK10NEDElement14getPrevSiblingEv, ptr @_ZN10NEDElement11appendChildEPS_, ptr @_ZN10NEDElement17insertChildBeforeEPS_S0_, ptr @_ZN10NEDElement11removeChildEPS_, ptr @_ZNK10NEDElement20getFirstChildWithTagEi, ptr @_ZNK10NEDElement21getNextSiblingWithTagEi, ptr @_ZNK10NEDElement14getNumChildrenEv, ptr @_ZNK10NEDElement21getNumChildrenWithTagEi, ptr @_ZN10NEDElement11setUserDataEP18NEDElementUserData, ptr @_ZNK10NEDElement11getUserDataEv, ptr @_ZNK12IdentElement19getNextIdentSiblingEv, ptr @_ZNK12IdentElement20getFirstCommentChildEv, ptr @_ZNK12IdentElement21getFirstOperatorChildEv, ptr @_ZNK12IdentElement21getFirstFunctionChildEv, ptr @_ZNK12IdentElement18getFirstIdentChildEv, ptr @_ZNK12IdentElement20getFirstLiteralChildEv] }, align 8
@.str.40 = private unnamed_addr constant [7 x i8] c"module\00", align 1
@_ZL12littype_vals = internal global [5 x ptr] [ptr @.str.104, ptr @.str.105, ptr @.str.106, ptr @.str.107, ptr @.str.117], align 16
@_ZL12littype_nums = internal global [5 x i32] [i32 0, i32 1, i32 2, i32 3, i32 4], align 16
@_ZTV14LiteralElement = dso_local unnamed_addr constant { [40 x ptr] } { [40 x ptr] [ptr null, ptr @_ZTI14LiteralElement, ptr @_ZN14LiteralElementD2Ev, ptr @_ZN14LiteralElementD0Ev, ptr @_ZNK14LiteralElement3dupEv, ptr @_ZNK10NEDElement7dupTreeEv, ptr @_ZNK14LiteralElement10getTagNameEv, ptr @_ZNK14LiteralElement10getTagCodeEv, ptr @_ZNK10NEDElement5getIdEv, ptr @_ZN10NEDElement5setIdEl, ptr @_ZNK10NEDElement17getSourceLocationEv, ptr @_ZN10NEDElement17setSourceLocationEPKc, ptr @_ZNK10NEDElement15getSourceRegionEv, ptr @_ZN10NEDElement15setSourceRegionERK15NEDSourceRegion, ptr @_ZN10NEDElement13applyDefaultsEv, ptr @_ZNK14LiteralElement16getNumAttributesEv, ptr @_ZNK14LiteralElement16getAttributeNameEi, ptr @_ZNK10NEDElement15lookupAttributeEPKc, ptr @_ZNK14LiteralElement12getAttributeEi, ptr @_ZNK14LiteralElement12getAttributeEPKc, ptr @_ZN14LiteralElement12setAttributeEiPKc, ptr @_ZN14LiteralElement12setAttributeEPKcS1_, ptr @_ZNK14LiteralElement19getAttributeDefaultEi, ptr @_ZNK10NEDElement19getAttributeDefaultEPKc, ptr @_ZNK10NEDElement9getParentEv, ptr @_ZNK10NEDElement13getFirstChildEv, ptr @_ZNK10NEDElement12getLastChildEv, ptr @_ZNK10NEDElement14getNextSiblingEv, ptr @_ZNK10NEDElement14getPrevSiblingEv, ptr @_ZN10NEDElement11appendChildEPS_, ptr @_ZN10NEDElement17insertChildBeforeEPS_S0_, ptr @_ZN10NEDElement11removeChildEPS_, ptr @_ZNK10NEDElement20getFirstChildWithTagEi, ptr @_ZNK10NEDElement21getNextSiblingWithTagEi, ptr @_ZNK10NEDElement14getNumChildrenEv, ptr @_ZNK10NEDElement21getNumChildrenWithTagEi, ptr @_ZN10NEDElement11setUserDataEP18NEDElementUserData, ptr @_ZNK10NEDElement11getUserDataEv, ptr @_ZNK14LiteralElement21getNextLiteralSiblingEv, ptr @_ZNK14LiteralElement20getFirstCommentChildEv] }, align 8
@.str.41 = private unnamed_addr constant [5 x i8] c"unit\00", align 1
@.str.42 = private unnamed_addr constant [5 x i8] c"text\00", align 1
@_ZTV14MsgFileElement = dso_local unnamed_addr constant { [54 x ptr] } { [54 x ptr] [ptr null, ptr @_ZTI14MsgFileElement, ptr @_ZN14MsgFileElementD2Ev, ptr @_ZN14MsgFileElementD0Ev, ptr @_ZNK14MsgFileElement3dupEv, ptr @_ZNK10NEDElement7dupTreeEv, ptr @_ZNK14MsgFileElement10getTagNameEv, ptr @_ZNK14MsgFileElement10getTagCodeEv, ptr @_ZNK10NEDElement5getIdEv, ptr @_ZN10NEDElement5setIdEl, ptr @_ZNK10NEDElement17getSourceLocationEv, ptr @_ZN10NEDElement17setSourceLocationEPKc, ptr @_ZNK10NEDElement15getSourceRegionEv, ptr @_ZN10NEDElement15setSourceRegionERK15NEDSourceRegion, ptr @_ZN10NEDElement13applyDefaultsEv, ptr @_ZNK14MsgFileElement16getNumAttributesEv, ptr @_ZNK14MsgFileElement16getAttributeNameEi, ptr @_ZNK10NEDElement15lookupAttributeEPKc, ptr @_ZNK14MsgFileElement12getAttributeEi, ptr @_ZNK14MsgFileElement12getAttributeEPKc, ptr @_ZN14MsgFileElement12setAttributeEiPKc, ptr @_ZN14MsgFileElement12setAttributeEPKcS1_, ptr @_ZNK14MsgFileElement19getAttributeDefaultEi, ptr @_ZNK10NEDElement19getAttributeDefaultEPKc, ptr @_ZNK10NEDElement9getParentEv, ptr @_ZNK10NEDElement13getFirstChildEv, ptr @_ZNK10NEDElement12getLastChildEv, ptr @_ZNK10NEDElement14getNextSiblingEv, ptr @_ZNK10NEDElement14getPrevSiblingEv, ptr @_ZN10NEDElement11appendChildEPS_, ptr @_ZN10NEDElement17insertChildBeforeEPS_S0_, ptr @_ZN10NEDElement11removeChildEPS_, ptr @_ZNK10NEDElement20getFirstChildWithTagEi, ptr @_ZNK10NEDElement21getNextSiblingWithTagEi, ptr @_ZNK10NEDElement14getNumChildrenEv, ptr @_ZNK10NEDElement21getNumChildrenWithTagEi, ptr @_ZN10NEDElement11setUserDataEP18NEDElementUserData, ptr @_ZNK10NEDElement11getUserDataEv, ptr @_ZNK14MsgFileElement21getNextMsgFileSiblingEv, ptr @_ZNK14MsgFileElement20getFirstCommentChildEv, ptr @_ZNK14MsgFileElement22getFirstNamespaceChildEv, ptr @_ZNK14MsgFileElement25getFirstPropertyDeclChildEv, ptr @_ZNK14MsgFileElement21getFirstPropertyChildEv, ptr @_ZNK14MsgFileElement22getFirstCplusplusChildEv, ptr @_ZNK14MsgFileElement23getFirstStructDeclChildEv, ptr @_ZNK14MsgFileElement22getFirstClassDeclChildEv, ptr @_ZNK14MsgFileElement24getFirstMessageDeclChildEv, ptr @_ZNK14MsgFileElement23getFirstPacketDeclChildEv, ptr @_ZNK14MsgFileElement21getFirstEnumDeclChildEv, ptr @_ZNK14MsgFileElement19getFirstStructChildEv, ptr @_ZNK14MsgFileElement18getFirstClassChildEv, ptr @_ZNK14MsgFileElement20getFirstMessageChildEv, ptr @_ZNK14MsgFileElement19getFirstPacketChildEv, ptr @_ZNK14MsgFileElement17getFirstEnumChildEv] }, align 8
@_ZTV16NamespaceElement = dso_local unnamed_addr constant { [40 x ptr] } { [40 x ptr] [ptr null, ptr @_ZTI16NamespaceElement, ptr @_ZN16NamespaceElementD2Ev, ptr @_ZN16NamespaceElementD0Ev, ptr @_ZNK16NamespaceElement3dupEv, ptr @_ZNK10NEDElement7dupTreeEv, ptr @_ZNK16NamespaceElement10getTagNameEv, ptr @_ZNK16NamespaceElement10getTagCodeEv, ptr @_ZNK10NEDElement5getIdEv, ptr @_ZN10NEDElement5setIdEl, ptr @_ZNK10NEDElement17getSourceLocationEv, ptr @_ZN10NEDElement17setSourceLocationEPKc, ptr @_ZNK10NEDElement15getSourceRegionEv, ptr @_ZN10NEDElement15setSourceRegionERK15NEDSourceRegion, ptr @_ZN10NEDElement13applyDefaultsEv, ptr @_ZNK16NamespaceElement16getNumAttributesEv, ptr @_ZNK16NamespaceElement16getAttributeNameEi, ptr @_ZNK10NEDElement15lookupAttributeEPKc, ptr @_ZNK16NamespaceElement12getAttributeEi, ptr @_ZNK16NamespaceElement12getAttributeEPKc, ptr @_ZN16NamespaceElement12setAttributeEiPKc, ptr @_ZN16NamespaceElement12setAttributeEPKcS1_, ptr @_ZNK16NamespaceElement19getAttributeDefaultEi, ptr @_ZNK10NEDElement19getAttributeDefaultEPKc, ptr @_ZNK10NEDElement9getParentEv, ptr @_ZNK10NEDElement13getFirstChildEv, ptr @_ZNK10NEDElement12getLastChildEv, ptr @_ZNK10NEDElement14getNextSiblingEv, ptr @_ZNK10NEDElement14getPrevSiblingEv, ptr @_ZN10NEDElement11appendChildEPS_, ptr @_ZN10NEDElement17insertChildBeforeEPS_S0_, ptr @_ZN10NEDElement11removeChildEPS_, ptr @_ZNK10NEDElement20getFirstChildWithTagEi, ptr @_ZNK10NEDElement21getNextSiblingWithTagEi, ptr @_ZNK10NEDElement14getNumChildrenEv, ptr @_ZNK10NEDElement21getNumChildrenWithTagEi, ptr @_ZN10NEDElement11setUserDataEP18NEDElementUserData, ptr @_ZNK10NEDElement11getUserDataEv, ptr @_ZNK16NamespaceElement23getNextNamespaceSiblingEv, ptr @_ZNK16NamespaceElement20getFirstCommentChildEv] }, align 8
@_ZTV16CplusplusElement = dso_local unnamed_addr constant { [40 x ptr] } { [40 x ptr] [ptr null, ptr @_ZTI16CplusplusElement, ptr @_ZN16CplusplusElementD2Ev, ptr @_ZN16CplusplusElementD0Ev, ptr @_ZNK16CplusplusElement3dupEv, ptr @_ZNK10NEDElement7dupTreeEv, ptr @_ZNK16CplusplusElement10getTagNameEv, ptr @_ZNK16CplusplusElement10getTagCodeEv, ptr @_ZNK10NEDElement5getIdEv, ptr @_ZN10NEDElement5setIdEl, ptr @_ZNK10NEDElement17getSourceLocationEv, ptr @_ZN10NEDElement17setSourceLocationEPKc, ptr @_ZNK10NEDElement15getSourceRegionEv, ptr @_ZN10NEDElement15setSourceRegionERK15NEDSourceRegion, ptr @_ZN10NEDElement13applyDefaultsEv, ptr @_ZNK16CplusplusElement16getNumAttributesEv, ptr @_ZNK16CplusplusElement16getAttributeNameEi, ptr @_ZNK10NEDElement15lookupAttributeEPKc, ptr @_ZNK16CplusplusElement12getAttributeEi, ptr @_ZNK16CplusplusElement12getAttributeEPKc, ptr @_ZN16CplusplusElement12setAttributeEiPKc, ptr @_ZN16CplusplusElement12setAttributeEPKcS1_, ptr @_ZNK16CplusplusElement19getAttributeDefaultEi, ptr @_ZNK10NEDElement19getAttributeDefaultEPKc, ptr @_ZNK10NEDElement9getParentEv, ptr @_ZNK10NEDElement13getFirstChildEv, ptr @_ZNK10NEDElement12getLastChildEv, ptr @_ZNK10NEDElement14getNextSiblingEv, ptr @_ZNK10NEDElement14getPrevSiblingEv, ptr @_ZN10NEDElement11appendChildEPS_, ptr @_ZN10NEDElement17insertChildBeforeEPS_S0_, ptr @_ZN10NEDElement11removeChildEPS_, ptr @_ZNK10NEDElement20getFirstChildWithTagEi, ptr @_ZNK10NEDElement21getNextSiblingWithTagEi, ptr @_ZNK10NEDElement14getNumChildrenEv, ptr @_ZNK10NEDElement21getNumChildrenWithTagEi, ptr @_ZN10NEDElement11setUserDataEP18NEDElementUserData, ptr @_ZNK10NEDElement11getUserDataEv, ptr @_ZNK16CplusplusElement23getNextCplusplusSiblingEv, ptr @_ZNK16CplusplusElement20getFirstCommentChildEv] }, align 8
@.str.43 = private unnamed_addr constant [5 x i8] c"body\00", align 1
@_ZTV17StructDeclElement = dso_local unnamed_addr constant { [40 x ptr] } { [40 x ptr] [ptr null, ptr @_ZTI17StructDeclElement, ptr @_ZN17StructDeclElementD2Ev, ptr @_ZN17StructDeclElementD0Ev, ptr @_ZNK17StructDeclElement3dupEv, ptr @_ZNK10NEDElement7dupTreeEv, ptr @_ZNK17StructDeclElement10getTagNameEv, ptr @_ZNK17StructDeclElement10getTagCodeEv, ptr @_ZNK10NEDElement5getIdEv, ptr @_ZN10NEDElement5setIdEl, ptr @_ZNK10NEDElement17getSourceLocationEv, ptr @_ZN10NEDElement17setSourceLocationEPKc, ptr @_ZNK10NEDElement15getSourceRegionEv, ptr @_ZN10NEDElement15setSourceRegionERK15NEDSourceRegion, ptr @_ZN10NEDElement13applyDefaultsEv, ptr @_ZNK17StructDeclElement16getNumAttributesEv, ptr @_ZNK17StructDeclElement16getAttributeNameEi, ptr @_ZNK10NEDElement15lookupAttributeEPKc, ptr @_ZNK17StructDeclElement12getAttributeEi, ptr @_ZNK17StructDeclElement12getAttributeEPKc, ptr @_ZN17StructDeclElement12setAttributeEiPKc, ptr @_ZN17StructDeclElement12setAttributeEPKcS1_, ptr @_ZNK17StructDeclElement19getAttributeDefaultEi, ptr @_ZNK10NEDElement19getAttributeDefaultEPKc, ptr @_ZNK10NEDElement9getParentEv, ptr @_ZNK10NEDElement13getFirstChildEv, ptr @_ZNK10NEDElement12getLastChildEv, ptr @_ZNK10NEDElement14getNextSiblingEv, ptr @_ZNK10NEDElement14getPrevSiblingEv, ptr @_ZN10NEDElement11appendChildEPS_, ptr @_ZN10NEDElement17insertChildBeforeEPS_S0_, ptr @_ZN10NEDElement11removeChildEPS_, ptr @_ZNK10NEDElement20getFirstChildWithTagEi, ptr @_ZNK10NEDElement21getNextSiblingWithTagEi, ptr @_ZNK10NEDElement14getNumChildrenEv, ptr @_ZNK10NEDElement21getNumChildrenWithTagEi, ptr @_ZN10NEDElement11setUserDataEP18NEDElementUserData, ptr @_ZNK10NEDElement11getUserDataEv, ptr @_ZNK17StructDeclElement24getNextStructDeclSiblingEv, ptr @_ZNK17StructDeclElement20getFirstCommentChildEv] }, align 8
@_ZTV16ClassDeclElement = dso_local unnamed_addr constant { [40 x ptr] } { [40 x ptr] [ptr null, ptr @_ZTI16ClassDeclElement, ptr @_ZN16ClassDeclElementD2Ev, ptr @_ZN16ClassDeclElementD0Ev, ptr @_ZNK16ClassDeclElement3dupEv, ptr @_ZNK10NEDElement7dupTreeEv, ptr @_ZNK16ClassDeclElement10getTagNameEv, ptr @_ZNK16ClassDeclElement10getTagCodeEv, ptr @_ZNK10NEDElement5getIdEv, ptr @_ZN10NEDElement5setIdEl, ptr @_ZNK10NEDElement17getSourceLocationEv, ptr @_ZN10NEDElement17setSourceLocationEPKc, ptr @_ZNK10NEDElement15getSourceRegionEv, ptr @_ZN10NEDElement15setSourceRegionERK15NEDSourceRegion, ptr @_ZN10NEDElement13applyDefaultsEv, ptr @_ZNK16ClassDeclElement16getNumAttributesEv, ptr @_ZNK16ClassDeclElement16getAttributeNameEi, ptr @_ZNK10NEDElement15lookupAttributeEPKc, ptr @_ZNK16ClassDeclElement12getAttributeEi, ptr @_ZNK16ClassDeclElement12getAttributeEPKc, ptr @_ZN16ClassDeclElement12setAttributeEiPKc, ptr @_ZN16ClassDeclElement12setAttributeEPKcS1_, ptr @_ZNK16ClassDeclElement19getAttributeDefaultEi, ptr @_ZNK10NEDElement19getAttributeDefaultEPKc, ptr @_ZNK10NEDElement9getParentEv, ptr @_ZNK10NEDElement13getFirstChildEv, ptr @_ZNK10NEDElement12getLastChildEv, ptr @_ZNK10NEDElement14getNextSiblingEv, ptr @_ZNK10NEDElement14getPrevSiblingEv, ptr @_ZN10NEDElement11appendChildEPS_, ptr @_ZN10NEDElement17insertChildBeforeEPS_S0_, ptr @_ZN10NEDElement11removeChildEPS_, ptr @_ZNK10NEDElement20getFirstChildWithTagEi, ptr @_ZNK10NEDElement21getNextSiblingWithTagEi, ptr @_ZNK10NEDElement14getNumChildrenEv, ptr @_ZNK10NEDElement21getNumChildrenWithTagEi, ptr @_ZN10NEDElement11setUserDataEP18NEDElementUserData, ptr @_ZNK10NEDElement11getUserDataEv, ptr @_ZNK16ClassDeclElement23getNextClassDeclSiblingEv, ptr @_ZNK16ClassDeclElement20getFirstCommentChildEv] }, align 8
@.str.44 = private unnamed_addr constant [11 x i8] c"is-cobject\00", align 1
@.str.45 = private unnamed_addr constant [13 x i8] c"extends-name\00", align 1
@_ZTV18MessageDeclElement = dso_local unnamed_addr constant { [40 x ptr] } { [40 x ptr] [ptr null, ptr @_ZTI18MessageDeclElement, ptr @_ZN18MessageDeclElementD2Ev, ptr @_ZN18MessageDeclElementD0Ev, ptr @_ZNK18MessageDeclElement3dupEv, ptr @_ZNK10NEDElement7dupTreeEv, ptr @_ZNK18MessageDeclElement10getTagNameEv, ptr @_ZNK18MessageDeclElement10getTagCodeEv, ptr @_ZNK10NEDElement5getIdEv, ptr @_ZN10NEDElement5setIdEl, ptr @_ZNK10NEDElement17getSourceLocationEv, ptr @_ZN10NEDElement17setSourceLocationEPKc, ptr @_ZNK10NEDElement15getSourceRegionEv, ptr @_ZN10NEDElement15setSourceRegionERK15NEDSourceRegion, ptr @_ZN10NEDElement13applyDefaultsEv, ptr @_ZNK18MessageDeclElement16getNumAttributesEv, ptr @_ZNK18MessageDeclElement16getAttributeNameEi, ptr @_ZNK10NEDElement15lookupAttributeEPKc, ptr @_ZNK18MessageDeclElement12getAttributeEi, ptr @_ZNK18MessageDeclElement12getAttributeEPKc, ptr @_ZN18MessageDeclElement12setAttributeEiPKc, ptr @_ZN18MessageDeclElement12setAttributeEPKcS1_, ptr @_ZNK18MessageDeclElement19getAttributeDefaultEi, ptr @_ZNK10NEDElement19getAttributeDefaultEPKc, ptr @_ZNK10NEDElement9getParentEv, ptr @_ZNK10NEDElement13getFirstChildEv, ptr @_ZNK10NEDElement12getLastChildEv, ptr @_ZNK10NEDElement14getNextSiblingEv, ptr @_ZNK10NEDElement14getPrevSiblingEv, ptr @_ZN10NEDElement11appendChildEPS_, ptr @_ZN10NEDElement17insertChildBeforeEPS_S0_, ptr @_ZN10NEDElement11removeChildEPS_, ptr @_ZNK10NEDElement20getFirstChildWithTagEi, ptr @_ZNK10NEDElement21getNextSiblingWithTagEi, ptr @_ZNK10NEDElement14getNumChildrenEv, ptr @_ZNK10NEDElement21getNumChildrenWithTagEi, ptr @_ZN10NEDElement11setUserDataEP18NEDElementUserData, ptr @_ZNK10NEDElement11getUserDataEv, ptr @_ZNK18MessageDeclElement25getNextMessageDeclSiblingEv, ptr @_ZNK18MessageDeclElement20getFirstCommentChildEv] }, align 8
@_ZTV17PacketDeclElement = dso_local unnamed_addr constant { [40 x ptr] } { [40 x ptr] [ptr null, ptr @_ZTI17PacketDeclElement, ptr @_ZN17PacketDeclElementD2Ev, ptr @_ZN17PacketDeclElementD0Ev, ptr @_ZNK17PacketDeclElement3dupEv, ptr @_ZNK10NEDElement7dupTreeEv, ptr @_ZNK17PacketDeclElement10getTagNameEv, ptr @_ZNK17PacketDeclElement10getTagCodeEv, ptr @_ZNK10NEDElement5getIdEv, ptr @_ZN10NEDElement5setIdEl, ptr @_ZNK10NEDElement17getSourceLocationEv, ptr @_ZN10NEDElement17setSourceLocationEPKc, ptr @_ZNK10NEDElement15getSourceRegionEv, ptr @_ZN10NEDElement15setSourceRegionERK15NEDSourceRegion, ptr @_ZN10NEDElement13applyDefaultsEv, ptr @_ZNK17PacketDeclElement16getNumAttributesEv, ptr @_ZNK17PacketDeclElement16getAttributeNameEi, ptr @_ZNK10NEDElement15lookupAttributeEPKc, ptr @_ZNK17PacketDeclElement12getAttributeEi, ptr @_ZNK17PacketDeclElement12getAttributeEPKc, ptr @_ZN17PacketDeclElement12setAttributeEiPKc, ptr @_ZN17PacketDeclElement12setAttributeEPKcS1_, ptr @_ZNK17PacketDeclElement19getAttributeDefaultEi, ptr @_ZNK10NEDElement19getAttributeDefaultEPKc, ptr @_ZNK10NEDElement9getParentEv, ptr @_ZNK10NEDElement13getFirstChildEv, ptr @_ZNK10NEDElement12getLastChildEv, ptr @_ZNK10NEDElement14getNextSiblingEv, ptr @_ZNK10NEDElement14getPrevSiblingEv, ptr @_ZN10NEDElement11appendChildEPS_, ptr @_ZN10NEDElement17insertChildBeforeEPS_S0_, ptr @_ZN10NEDElement11removeChildEPS_, ptr @_ZNK10NEDElement20getFirstChildWithTagEi, ptr @_ZNK10NEDElement21getNextSiblingWithTagEi, ptr @_ZNK10NEDElement14getNumChildrenEv, ptr @_ZNK10NEDElement21getNumChildrenWithTagEi, ptr @_ZN10NEDElement11setUserDataEP18NEDElementUserData, ptr @_ZNK10NEDElement11getUserDataEv, ptr @_ZNK17PacketDeclElement24getNextPacketDeclSiblingEv, ptr @_ZNK17PacketDeclElement20getFirstCommentChildEv] }, align 8
@_ZTV15EnumDeclElement = dso_local unnamed_addr constant { [40 x ptr] } { [40 x ptr] [ptr null, ptr @_ZTI15EnumDeclElement, ptr @_ZN15EnumDeclElementD2Ev, ptr @_ZN15EnumDeclElementD0Ev, ptr @_ZNK15EnumDeclElement3dupEv, ptr @_ZNK10NEDElement7dupTreeEv, ptr @_ZNK15EnumDeclElement10getTagNameEv, ptr @_ZNK15EnumDeclElement10getTagCodeEv, ptr @_ZNK10NEDElement5getIdEv, ptr @_ZN10NEDElement5setIdEl, ptr @_ZNK10NEDElement17getSourceLocationEv, ptr @_ZN10NEDElement17setSourceLocationEPKc, ptr @_ZNK10NEDElement15getSourceRegionEv, ptr @_ZN10NEDElement15setSourceRegionERK15NEDSourceRegion, ptr @_ZN10NEDElement13applyDefaultsEv, ptr @_ZNK15EnumDeclElement16getNumAttributesEv, ptr @_ZNK15EnumDeclElement16getAttributeNameEi, ptr @_ZNK10NEDElement15lookupAttributeEPKc, ptr @_ZNK15EnumDeclElement12getAttributeEi, ptr @_ZNK15EnumDeclElement12getAttributeEPKc, ptr @_ZN15EnumDeclElement12setAttributeEiPKc, ptr @_ZN15EnumDeclElement12setAttributeEPKcS1_, ptr @_ZNK15EnumDeclElement19getAttributeDefaultEi, ptr @_ZNK10NEDElement19getAttributeDefaultEPKc, ptr @_ZNK10NEDElement9getParentEv, ptr @_ZNK10NEDElement13getFirstChildEv, ptr @_ZNK10NEDElement12getLastChildEv, ptr @_ZNK10NEDElement14getNextSiblingEv, ptr @_ZNK10NEDElement14getPrevSiblingEv, ptr @_ZN10NEDElement11appendChildEPS_, ptr @_ZN10NEDElement17insertChildBeforeEPS_S0_, ptr @_ZN10NEDElement11removeChildEPS_, ptr @_ZNK10NEDElement20getFirstChildWithTagEi, ptr @_ZNK10NEDElement21getNextSiblingWithTagEi, ptr @_ZNK10NEDElement14getNumChildrenEv, ptr @_ZNK10NEDElement21getNumChildrenWithTagEi, ptr @_ZN10NEDElement11setUserDataEP18NEDElementUserData, ptr @_ZNK10NEDElement11getUserDataEv, ptr @_ZNK15EnumDeclElement22getNextEnumDeclSiblingEv, ptr @_ZNK15EnumDeclElement20getFirstCommentChildEv] }, align 8
@_ZTV11EnumElement = dso_local unnamed_addr constant { [41 x ptr] } { [41 x ptr] [ptr null, ptr @_ZTI11EnumElement, ptr @_ZN11EnumElementD2Ev, ptr @_ZN11EnumElementD0Ev, ptr @_ZNK11EnumElement3dupEv, ptr @_ZNK10NEDElement7dupTreeEv, ptr @_ZNK11EnumElement10getTagNameEv, ptr @_ZNK11EnumElement10getTagCodeEv, ptr @_ZNK10NEDElement5getIdEv, ptr @_ZN10NEDElement5setIdEl, ptr @_ZNK10NEDElement17getSourceLocationEv, ptr @_ZN10NEDElement17setSourceLocationEPKc, ptr @_ZNK10NEDElement15getSourceRegionEv, ptr @_ZN10NEDElement15setSourceRegionERK15NEDSourceRegion, ptr @_ZN10NEDElement13applyDefaultsEv, ptr @_ZNK11EnumElement16getNumAttributesEv, ptr @_ZNK11EnumElement16getAttributeNameEi, ptr @_ZNK10NEDElement15lookupAttributeEPKc, ptr @_ZNK11EnumElement12getAttributeEi, ptr @_ZNK11EnumElement12getAttributeEPKc, ptr @_ZN11EnumElement12setAttributeEiPKc, ptr @_ZN11EnumElement12setAttributeEPKcS1_, ptr @_ZNK11EnumElement19getAttributeDefaultEi, ptr @_ZNK10NEDElement19getAttributeDefaultEPKc, ptr @_ZNK10NEDElement9getParentEv, ptr @_ZNK10NEDElement13getFirstChildEv, ptr @_ZNK10NEDElement12getLastChildEv, ptr @_ZNK10NEDElement14getNextSiblingEv, ptr @_ZNK10NEDElement14getPrevSiblingEv, ptr @_ZN10NEDElement11appendChildEPS_, ptr @_ZN10NEDElement17insertChildBeforeEPS_S0_, ptr @_ZN10NEDElement11removeChildEPS_, ptr @_ZNK10NEDElement20getFirstChildWithTagEi, ptr @_ZNK10NEDElement21getNextSiblingWithTagEi, ptr @_ZNK10NEDElement14getNumChildrenEv, ptr @_ZNK10NEDElement21getNumChildrenWithTagEi, ptr @_ZN10NEDElement11setUserDataEP18NEDElementUserData, ptr @_ZNK10NEDElement11getUserDataEv, ptr @_ZNK11EnumElement18getNextEnumSiblingEv, ptr @_ZNK11EnumElement20getFirstCommentChildEv, ptr @_ZNK11EnumElement23getFirstEnumFieldsChildEv] }, align 8
@.str.46 = private unnamed_addr constant [12 x i8] c"source-code\00", align 1
@_ZTV17EnumFieldsElement = dso_local unnamed_addr constant { [41 x ptr] } { [41 x ptr] [ptr null, ptr @_ZTI17EnumFieldsElement, ptr @_ZN10NEDElementD2Ev, ptr @_ZN17EnumFieldsElementD0Ev, ptr @_ZNK17EnumFieldsElement3dupEv, ptr @_ZNK10NEDElement7dupTreeEv, ptr @_ZNK17EnumFieldsElement10getTagNameEv, ptr @_ZNK17EnumFieldsElement10getTagCodeEv, ptr @_ZNK10NEDElement5getIdEv, ptr @_ZN10NEDElement5setIdEl, ptr @_ZNK10NEDElement17getSourceLocationEv, ptr @_ZN10NEDElement17setSourceLocationEPKc, ptr @_ZNK10NEDElement15getSourceRegionEv, ptr @_ZN10NEDElement15setSourceRegionERK15NEDSourceRegion, ptr @_ZN10NEDElement13applyDefaultsEv, ptr @_ZNK17EnumFieldsElement16getNumAttributesEv, ptr @_ZNK17EnumFieldsElement16getAttributeNameEi, ptr @_ZNK10NEDElement15lookupAttributeEPKc, ptr @_ZNK17EnumFieldsElement12getAttributeEi, ptr @_ZNK17EnumFieldsElement12getAttributeEPKc, ptr @_ZN17EnumFieldsElement12setAttributeEiPKc, ptr @_ZN17EnumFieldsElement12setAttributeEPKcS1_, ptr @_ZNK17EnumFieldsElement19getAttributeDefaultEi, ptr @_ZNK10NEDElement19getAttributeDefaultEPKc, ptr @_ZNK10NEDElement9getParentEv, ptr @_ZNK10NEDElement13getFirstChildEv, ptr @_ZNK10NEDElement12getLastChildEv, ptr @_ZNK10NEDElement14getNextSiblingEv, ptr @_ZNK10NEDElement14getPrevSiblingEv, ptr @_ZN10NEDElement11appendChildEPS_, ptr @_ZN10NEDElement17insertChildBeforeEPS_S0_, ptr @_ZN10NEDElement11removeChildEPS_, ptr @_ZNK10NEDElement20getFirstChildWithTagEi, ptr @_ZNK10NEDElement21getNextSiblingWithTagEi, ptr @_ZNK10NEDElement14getNumChildrenEv, ptr @_ZNK10NEDElement21getNumChildrenWithTagEi, ptr @_ZN10NEDElement11setUserDataEP18NEDElementUserData, ptr @_ZNK10NEDElement11getUserDataEv, ptr @_ZNK17EnumFieldsElement24getNextEnumFieldsSiblingEv, ptr @_ZNK17EnumFieldsElement20getFirstCommentChildEv, ptr @_ZNK17EnumFieldsElement22getFirstEnumFieldChildEv] }, align 8
@_ZTV16EnumFieldElement = dso_local unnamed_addr constant { [40 x ptr] } { [40 x ptr] [ptr null, ptr @_ZTI16EnumFieldElement, ptr @_ZN16EnumFieldElementD2Ev, ptr @_ZN16EnumFieldElementD0Ev, ptr @_ZNK16EnumFieldElement3dupEv, ptr @_ZNK10NEDElement7dupTreeEv, ptr @_ZNK16EnumFieldElement10getTagNameEv, ptr @_ZNK16EnumFieldElement10getTagCodeEv, ptr @_ZNK10NEDElement5getIdEv, ptr @_ZN10NEDElement5setIdEl, ptr @_ZNK10NEDElement17getSourceLocationEv, ptr @_ZN10NEDElement17setSourceLocationEPKc, ptr @_ZNK10NEDElement15getSourceRegionEv, ptr @_ZN10NEDElement15setSourceRegionERK15NEDSourceRegion, ptr @_ZN10NEDElement13applyDefaultsEv, ptr @_ZNK16EnumFieldElement16getNumAttributesEv, ptr @_ZNK16EnumFieldElement16getAttributeNameEi, ptr @_ZNK10NEDElement15lookupAttributeEPKc, ptr @_ZNK16EnumFieldElement12getAttributeEi, ptr @_ZNK16EnumFieldElement12getAttributeEPKc, ptr @_ZN16EnumFieldElement12setAttributeEiPKc, ptr @_ZN16EnumFieldElement12setAttributeEPKcS1_, ptr @_ZNK16EnumFieldElement19getAttributeDefaultEi, ptr @_ZNK10NEDElement19getAttributeDefaultEPKc, ptr @_ZNK10NEDElement9getParentEv, ptr @_ZNK10NEDElement13getFirstChildEv, ptr @_ZNK10NEDElement12getLastChildEv, ptr @_ZNK10NEDElement14getNextSiblingEv, ptr @_ZNK10NEDElement14getPrevSiblingEv, ptr @_ZN10NEDElement11appendChildEPS_, ptr @_ZN10NEDElement17insertChildBeforeEPS_S0_, ptr @_ZN10NEDElement11removeChildEPS_, ptr @_ZNK10NEDElement20getFirstChildWithTagEi, ptr @_ZNK10NEDElement21getNextSiblingWithTagEi, ptr @_ZNK10NEDElement14getNumChildrenEv, ptr @_ZNK10NEDElement21getNumChildrenWithTagEi, ptr @_ZN10NEDElement11setUserDataEP18NEDElementUserData, ptr @_ZNK10NEDElement11getUserDataEv, ptr @_ZNK16EnumFieldElement23getNextEnumFieldSiblingEv, ptr @_ZNK16EnumFieldElement20getFirstCommentChildEv] }, align 8
@_ZTV14MessageElement = dso_local unnamed_addr constant { [42 x ptr] } { [42 x ptr] [ptr null, ptr @_ZTI14MessageElement, ptr @_ZN14MessageElementD2Ev, ptr @_ZN14MessageElementD0Ev, ptr @_ZNK14MessageElement3dupEv, ptr @_ZNK10NEDElement7dupTreeEv, ptr @_ZNK14MessageElement10getTagNameEv, ptr @_ZNK14MessageElement10getTagCodeEv, ptr @_ZNK10NEDElement5getIdEv, ptr @_ZN10NEDElement5setIdEl, ptr @_ZNK10NEDElement17getSourceLocationEv, ptr @_ZN10NEDElement17setSourceLocationEPKc, ptr @_ZNK10NEDElement15getSourceRegionEv, ptr @_ZN10NEDElement15setSourceRegionERK15NEDSourceRegion, ptr @_ZN10NEDElement13applyDefaultsEv, ptr @_ZNK14MessageElement16getNumAttributesEv, ptr @_ZNK14MessageElement16getAttributeNameEi, ptr @_ZNK10NEDElement15lookupAttributeEPKc, ptr @_ZNK14MessageElement12getAttributeEi, ptr @_ZNK14MessageElement12getAttributeEPKc, ptr @_ZN14MessageElement12setAttributeEiPKc, ptr @_ZN14MessageElement12setAttributeEPKcS1_, ptr @_ZNK14MessageElement19getAttributeDefaultEi, ptr @_ZNK10NEDElement19getAttributeDefaultEPKc, ptr @_ZNK10NEDElement9getParentEv, ptr @_ZNK10NEDElement13getFirstChildEv, ptr @_ZNK10NEDElement12getLastChildEv, ptr @_ZNK10NEDElement14getNextSiblingEv, ptr @_ZNK10NEDElement14getPrevSiblingEv, ptr @_ZN10NEDElement11appendChildEPS_, ptr @_ZN10NEDElement17insertChildBeforeEPS_S0_, ptr @_ZN10NEDElement11removeChildEPS_, ptr @_ZNK10NEDElement20getFirstChildWithTagEi, ptr @_ZNK10NEDElement21getNextSiblingWithTagEi, ptr @_ZNK10NEDElement14getNumChildrenEv, ptr @_ZNK10NEDElement21getNumChildrenWithTagEi, ptr @_ZN10NEDElement11setUserDataEP18NEDElementUserData, ptr @_ZNK10NEDElement11getUserDataEv, ptr @_ZNK14MessageElement21getNextMessageSiblingEv, ptr @_ZNK14MessageElement20getFirstCommentChildEv, ptr @_ZNK14MessageElement21getFirstPropertyChildEv, ptr @_ZNK14MessageElement18getFirstFieldChildEv] }, align 8
@_ZTV13PacketElement = dso_local unnamed_addr constant { [42 x ptr] } { [42 x ptr] [ptr null, ptr @_ZTI13PacketElement, ptr @_ZN13PacketElementD2Ev, ptr @_ZN13PacketElementD0Ev, ptr @_ZNK13PacketElement3dupEv, ptr @_ZNK10NEDElement7dupTreeEv, ptr @_ZNK13PacketElement10getTagNameEv, ptr @_ZNK13PacketElement10getTagCodeEv, ptr @_ZNK10NEDElement5getIdEv, ptr @_ZN10NEDElement5setIdEl, ptr @_ZNK10NEDElement17getSourceLocationEv, ptr @_ZN10NEDElement17setSourceLocationEPKc, ptr @_ZNK10NEDElement15getSourceRegionEv, ptr @_ZN10NEDElement15setSourceRegionERK15NEDSourceRegion, ptr @_ZN10NEDElement13applyDefaultsEv, ptr @_ZNK13PacketElement16getNumAttributesEv, ptr @_ZNK13PacketElement16getAttributeNameEi, ptr @_ZNK10NEDElement15lookupAttributeEPKc, ptr @_ZNK13PacketElement12getAttributeEi, ptr @_ZNK13PacketElement12getAttributeEPKc, ptr @_ZN13PacketElement12setAttributeEiPKc, ptr @_ZN13PacketElement12setAttributeEPKcS1_, ptr @_ZNK13PacketElement19getAttributeDefaultEi, ptr @_ZNK10NEDElement19getAttributeDefaultEPKc, ptr @_ZNK10NEDElement9getParentEv, ptr @_ZNK10NEDElement13getFirstChildEv, ptr @_ZNK10NEDElement12getLastChildEv, ptr @_ZNK10NEDElement14getNextSiblingEv, ptr @_ZNK10NEDElement14getPrevSiblingEv, ptr @_ZN10NEDElement11appendChildEPS_, ptr @_ZN10NEDElement17insertChildBeforeEPS_S0_, ptr @_ZN10NEDElement11removeChildEPS_, ptr @_ZNK10NEDElement20getFirstChildWithTagEi, ptr @_ZNK10NEDElement21getNextSiblingWithTagEi, ptr @_ZNK10NEDElement14getNumChildrenEv, ptr @_ZNK10NEDElement21getNumChildrenWithTagEi, ptr @_ZN10NEDElement11setUserDataEP18NEDElementUserData, ptr @_ZNK10NEDElement11getUserDataEv, ptr @_ZNK13PacketElement20getNextPacketSiblingEv, ptr @_ZNK13PacketElement20getFirstCommentChildEv, ptr @_ZNK13PacketElement21getFirstPropertyChildEv, ptr @_ZNK13PacketElement18getFirstFieldChildEv] }, align 8
@_ZTV12ClassElement = dso_local unnamed_addr constant { [42 x ptr] } { [42 x ptr] [ptr null, ptr @_ZTI12ClassElement, ptr @_ZN12ClassElementD2Ev, ptr @_ZN12ClassElementD0Ev, ptr @_ZNK12ClassElement3dupEv, ptr @_ZNK10NEDElement7dupTreeEv, ptr @_ZNK12ClassElement10getTagNameEv, ptr @_ZNK12ClassElement10getTagCodeEv, ptr @_ZNK10NEDElement5getIdEv, ptr @_ZN10NEDElement5setIdEl, ptr @_ZNK10NEDElement17getSourceLocationEv, ptr @_ZN10NEDElement17setSourceLocationEPKc, ptr @_ZNK10NEDElement15getSourceRegionEv, ptr @_ZN10NEDElement15setSourceRegionERK15NEDSourceRegion, ptr @_ZN10NEDElement13applyDefaultsEv, ptr @_ZNK12ClassElement16getNumAttributesEv, ptr @_ZNK12ClassElement16getAttributeNameEi, ptr @_ZNK10NEDElement15lookupAttributeEPKc, ptr @_ZNK12ClassElement12getAttributeEi, ptr @_ZNK12ClassElement12getAttributeEPKc, ptr @_ZN12ClassElement12setAttributeEiPKc, ptr @_ZN12ClassElement12setAttributeEPKcS1_, ptr @_ZNK12ClassElement19getAttributeDefaultEi, ptr @_ZNK10NEDElement19getAttributeDefaultEPKc, ptr @_ZNK10NEDElement9getParentEv, ptr @_ZNK10NEDElement13getFirstChildEv, ptr @_ZNK10NEDElement12getLastChildEv, ptr @_ZNK10NEDElement14getNextSiblingEv, ptr @_ZNK10NEDElement14getPrevSiblingEv, ptr @_ZN10NEDElement11appendChildEPS_, ptr @_ZN10NEDElement17insertChildBeforeEPS_S0_, ptr @_ZN10NEDElement11removeChildEPS_, ptr @_ZNK10NEDElement20getFirstChildWithTagEi, ptr @_ZNK10NEDElement21getNextSiblingWithTagEi, ptr @_ZNK10NEDElement14getNumChildrenEv, ptr @_ZNK10NEDElement21getNumChildrenWithTagEi, ptr @_ZN10NEDElement11setUserDataEP18NEDElementUserData, ptr @_ZNK10NEDElement11getUserDataEv, ptr @_ZNK12ClassElement19getNextClassSiblingEv, ptr @_ZNK12ClassElement20getFirstCommentChildEv, ptr @_ZNK12ClassElement21getFirstPropertyChildEv, ptr @_ZNK12ClassElement18getFirstFieldChildEv] }, align 8
@_ZTV13StructElement = dso_local unnamed_addr constant { [42 x ptr] } { [42 x ptr] [ptr null, ptr @_ZTI13StructElement, ptr @_ZN13StructElementD2Ev, ptr @_ZN13StructElementD0Ev, ptr @_ZNK13StructElement3dupEv, ptr @_ZNK10NEDElement7dupTreeEv, ptr @_ZNK13StructElement10getTagNameEv, ptr @_ZNK13StructElement10getTagCodeEv, ptr @_ZNK10NEDElement5getIdEv, ptr @_ZN10NEDElement5setIdEl, ptr @_ZNK10NEDElement17getSourceLocationEv, ptr @_ZN10NEDElement17setSourceLocationEPKc, ptr @_ZNK10NEDElement15getSourceRegionEv, ptr @_ZN10NEDElement15setSourceRegionERK15NEDSourceRegion, ptr @_ZN10NEDElement13applyDefaultsEv, ptr @_ZNK13StructElement16getNumAttributesEv, ptr @_ZNK13StructElement16getAttributeNameEi, ptr @_ZNK10NEDElement15lookupAttributeEPKc, ptr @_ZNK13StructElement12getAttributeEi, ptr @_ZNK13StructElement12getAttributeEPKc, ptr @_ZN13StructElement12setAttributeEiPKc, ptr @_ZN13StructElement12setAttributeEPKcS1_, ptr @_ZNK13StructElement19getAttributeDefaultEi, ptr @_ZNK10NEDElement19getAttributeDefaultEPKc, ptr @_ZNK10NEDElement9getParentEv, ptr @_ZNK10NEDElement13getFirstChildEv, ptr @_ZNK10NEDElement12getLastChildEv, ptr @_ZNK10NEDElement14getNextSiblingEv, ptr @_ZNK10NEDElement14getPrevSiblingEv, ptr @_ZN10NEDElement11appendChildEPS_, ptr @_ZN10NEDElement17insertChildBeforeEPS_S0_, ptr @_ZN10NEDElement11removeChildEPS_, ptr @_ZNK10NEDElement20getFirstChildWithTagEi, ptr @_ZNK10NEDElement21getNextSiblingWithTagEi, ptr @_ZNK10NEDElement14getNumChildrenEv, ptr @_ZNK10NEDElement21getNumChildrenWithTagEi, ptr @_ZN10NEDElement11setUserDataEP18NEDElementUserData, ptr @_ZNK10NEDElement11getUserDataEv, ptr @_ZNK13StructElement20getNextStructSiblingEv, ptr @_ZNK13StructElement20getFirstCommentChildEv, ptr @_ZNK13StructElement21getFirstPropertyChildEv, ptr @_ZNK13StructElement18getFirstFieldChildEv] }, align 8
@_ZTV12FieldElement = dso_local unnamed_addr constant { [40 x ptr] } { [40 x ptr] [ptr null, ptr @_ZTI12FieldElement, ptr @_ZN12FieldElementD2Ev, ptr @_ZN12FieldElementD0Ev, ptr @_ZNK12FieldElement3dupEv, ptr @_ZNK10NEDElement7dupTreeEv, ptr @_ZNK12FieldElement10getTagNameEv, ptr @_ZNK12FieldElement10getTagCodeEv, ptr @_ZNK10NEDElement5getIdEv, ptr @_ZN10NEDElement5setIdEl, ptr @_ZNK10NEDElement17getSourceLocationEv, ptr @_ZN10NEDElement17setSourceLocationEPKc, ptr @_ZNK10NEDElement15getSourceRegionEv, ptr @_ZN10NEDElement15setSourceRegionERK15NEDSourceRegion, ptr @_ZN10NEDElement13applyDefaultsEv, ptr @_ZNK12FieldElement16getNumAttributesEv, ptr @_ZNK12FieldElement16getAttributeNameEi, ptr @_ZNK10NEDElement15lookupAttributeEPKc, ptr @_ZNK12FieldElement12getAttributeEi, ptr @_ZNK12FieldElement12getAttributeEPKc, ptr @_ZN12FieldElement12setAttributeEiPKc, ptr @_ZN12FieldElement12setAttributeEPKcS1_, ptr @_ZNK12FieldElement19getAttributeDefaultEi, ptr @_ZNK10NEDElement19getAttributeDefaultEPKc, ptr @_ZNK10NEDElement9getParentEv, ptr @_ZNK10NEDElement13getFirstChildEv, ptr @_ZNK10NEDElement12getLastChildEv, ptr @_ZNK10NEDElement14getNextSiblingEv, ptr @_ZNK10NEDElement14getPrevSiblingEv, ptr @_ZN10NEDElement11appendChildEPS_, ptr @_ZN10NEDElement17insertChildBeforeEPS_S0_, ptr @_ZN10NEDElement11removeChildEPS_, ptr @_ZNK10NEDElement20getFirstChildWithTagEi, ptr @_ZNK10NEDElement21getNextSiblingWithTagEi, ptr @_ZNK10NEDElement14getNumChildrenEv, ptr @_ZNK10NEDElement21getNumChildrenWithTagEi, ptr @_ZN10NEDElement11setUserDataEP18NEDElementUserData, ptr @_ZNK10NEDElement11getUserDataEv, ptr @_ZNK12FieldElement19getNextFieldSiblingEv, ptr @_ZNK12FieldElement20getFirstCommentChildEv] }, align 8
@.str.47 = private unnamed_addr constant [10 x i8] c"data-type\00", align 1
@.str.48 = private unnamed_addr constant [12 x i8] c"is-abstract\00", align 1
@.str.49 = private unnamed_addr constant [12 x i8] c"is-readonly\00", align 1
@.str.50 = private unnamed_addr constant [10 x i8] c"enum-name\00", align 1
@.str.51 = private unnamed_addr constant [14 x i8] c"default-value\00", align 1
@_ZTV14UnknownElement = dso_local unnamed_addr constant { [39 x ptr] } { [39 x ptr] [ptr null, ptr @_ZTI14UnknownElement, ptr @_ZN14UnknownElementD2Ev, ptr @_ZN14UnknownElementD0Ev, ptr @_ZNK14UnknownElement3dupEv, ptr @_ZNK10NEDElement7dupTreeEv, ptr @_ZNK14UnknownElement10getTagNameEv, ptr @_ZNK14UnknownElement10getTagCodeEv, ptr @_ZNK10NEDElement5getIdEv, ptr @_ZN10NEDElement5setIdEl, ptr @_ZNK10NEDElement17getSourceLocationEv, ptr @_ZN10NEDElement17setSourceLocationEPKc, ptr @_ZNK10NEDElement15getSourceRegionEv, ptr @_ZN10NEDElement15setSourceRegionERK15NEDSourceRegion, ptr @_ZN10NEDElement13applyDefaultsEv, ptr @_ZNK14UnknownElement16getNumAttributesEv, ptr @_ZNK14UnknownElement16getAttributeNameEi, ptr @_ZNK10NEDElement15lookupAttributeEPKc, ptr @_ZNK14UnknownElement12getAttributeEi, ptr @_ZNK14UnknownElement12getAttributeEPKc, ptr @_ZN14UnknownElement12setAttributeEiPKc, ptr @_ZN14UnknownElement12setAttributeEPKcS1_, ptr @_ZNK14UnknownElement19getAttributeDefaultEi, ptr @_ZNK10NEDElement19getAttributeDefaultEPKc, ptr @_ZNK10NEDElement9getParentEv, ptr @_ZNK10NEDElement13getFirstChildEv, ptr @_ZNK10NEDElement12getLastChildEv, ptr @_ZNK10NEDElement14getNextSiblingEv, ptr @_ZNK10NEDElement14getPrevSiblingEv, ptr @_ZN10NEDElement11appendChildEPS_, ptr @_ZN10NEDElement17insertChildBeforeEPS_S0_, ptr @_ZN10NEDElement11removeChildEPS_, ptr @_ZNK10NEDElement20getFirstChildWithTagEi, ptr @_ZNK10NEDElement21getNextSiblingWithTagEi, ptr @_ZNK10NEDElement14getNumChildrenEv, ptr @_ZNK10NEDElement21getNumChildrenWithTagEi, ptr @_ZN10NEDElement11setUserDataEP18NEDElementUserData, ptr @_ZNK10NEDElement11getUserDataEv, ptr @_ZNK14UnknownElement21getNextUnknownSiblingEv] }, align 8
@.str.52 = private unnamed_addr constant [8 x i8] c"element\00", align 1
@_ZN17NEDElementFactory1fE = dso_local local_unnamed_addr global ptr null, align 8
@.str.53 = private unnamed_addr constant [6 x i8] c"files\00", align 1
@.str.54 = private unnamed_addr constant [9 x i8] c"ned-file\00", align 1
@.str.55 = private unnamed_addr constant [8 x i8] c"comment\00", align 1
@.str.56 = private unnamed_addr constant [8 x i8] c"package\00", align 1
@.str.57 = private unnamed_addr constant [7 x i8] c"import\00", align 1
@.str.58 = private unnamed_addr constant [14 x i8] c"property-decl\00", align 1
@.str.59 = private unnamed_addr constant [8 x i8] c"extends\00", align 1
@.str.60 = private unnamed_addr constant [15 x i8] c"interface-name\00", align 1
@.str.61 = private unnamed_addr constant [14 x i8] c"simple-module\00", align 1
@.str.62 = private unnamed_addr constant [17 x i8] c"module-interface\00", align 1
@.str.63 = private unnamed_addr constant [16 x i8] c"compound-module\00", align 1
@.str.64 = private unnamed_addr constant [18 x i8] c"channel-interface\00", align 1
@.str.65 = private unnamed_addr constant [8 x i8] c"channel\00", align 1
@.str.66 = private unnamed_addr constant [11 x i8] c"parameters\00", align 1
@.str.67 = private unnamed_addr constant [6 x i8] c"param\00", align 1
@.str.68 = private unnamed_addr constant [9 x i8] c"property\00", align 1
@.str.69 = private unnamed_addr constant [13 x i8] c"property-key\00", align 1
@.str.70 = private unnamed_addr constant [6 x i8] c"gates\00", align 1
@.str.71 = private unnamed_addr constant [5 x i8] c"gate\00", align 1
@.str.72 = private unnamed_addr constant [6 x i8] c"types\00", align 1
@.str.73 = private unnamed_addr constant [11 x i8] c"submodules\00", align 1
@.str.74 = private unnamed_addr constant [10 x i8] c"submodule\00", align 1
@.str.75 = private unnamed_addr constant [12 x i8] c"connections\00", align 1
@.str.76 = private unnamed_addr constant [11 x i8] c"connection\00", align 1
@.str.77 = private unnamed_addr constant [13 x i8] c"channel-spec\00", align 1
@.str.78 = private unnamed_addr constant [17 x i8] c"connection-group\00", align 1
@.str.79 = private unnamed_addr constant [5 x i8] c"loop\00", align 1
@.str.80 = private unnamed_addr constant [11 x i8] c"expression\00", align 1
@.str.81 = private unnamed_addr constant [9 x i8] c"operator\00", align 1
@.str.82 = private unnamed_addr constant [9 x i8] c"function\00", align 1
@.str.83 = private unnamed_addr constant [6 x i8] c"ident\00", align 1
@.str.84 = private unnamed_addr constant [8 x i8] c"literal\00", align 1
@.str.85 = private unnamed_addr constant [9 x i8] c"msg-file\00", align 1
@.str.86 = private unnamed_addr constant [10 x i8] c"namespace\00", align 1
@.str.87 = private unnamed_addr constant [10 x i8] c"cplusplus\00", align 1
@.str.88 = private unnamed_addr constant [12 x i8] c"struct-decl\00", align 1
@.str.89 = private unnamed_addr constant [11 x i8] c"class-decl\00", align 1
@.str.90 = private unnamed_addr constant [13 x i8] c"message-decl\00", align 1
@.str.91 = private unnamed_addr constant [12 x i8] c"packet-decl\00", align 1
@.str.92 = private unnamed_addr constant [10 x i8] c"enum-decl\00", align 1
@.str.93 = private unnamed_addr constant [5 x i8] c"enum\00", align 1
@.str.94 = private unnamed_addr constant [12 x i8] c"enum-fields\00", align 1
@.str.95 = private unnamed_addr constant [11 x i8] c"enum-field\00", align 1
@.str.96 = private unnamed_addr constant [8 x i8] c"message\00", align 1
@.str.97 = private unnamed_addr constant [7 x i8] c"packet\00", align 1
@.str.98 = private unnamed_addr constant [6 x i8] c"class\00", align 1
@.str.99 = private unnamed_addr constant [7 x i8] c"struct\00", align 1
@.str.100 = private unnamed_addr constant [6 x i8] c"field\00", align 1
@.str.101 = private unnamed_addr constant [8 x i8] c"unknown\00", align 1
@.str.102 = private unnamed_addr constant [55 x i8] c"unknown tag '%s', cannot create object to represent it\00", align 1
@_ZTVN10__cxxabiv120__si_class_type_infoE = external global ptr
@_ZTS12NEDException = linkonce_odr dso_local constant [15 x i8] c"12NEDException\00", comdat, align 1
@_ZTISt13runtime_error = external constant ptr
@_ZTI12NEDException = linkonce_odr dso_local constant { ptr, ptr, ptr } { ptr getelementptr inbounds (ptr, ptr @_ZTVN10__cxxabiv120__si_class_type_infoE, i64 2), ptr @_ZTS12NEDException, ptr @_ZTISt13runtime_error }, comdat, align 8
@.str.103 = private unnamed_addr constant [58 x i8] c"unknown tag code %d, cannot create object to represent it\00", align 1
@_ZTS12FilesElement = dso_local constant [15 x i8] c"12FilesElement\00", align 1
@_ZTI10NEDElement = external constant ptr
@_ZTI12FilesElement = dso_local constant { ptr, ptr, ptr } { ptr getelementptr inbounds (ptr, ptr @_ZTVN10__cxxabiv120__si_class_type_infoE, i64 2), ptr @_ZTS12FilesElement, ptr @_ZTI10NEDElement }, align 8
@_ZTS14NedFileElement = dso_local constant [17 x i8] c"14NedFileElement\00", align 1
@_ZTI14NedFileElement = dso_local constant { ptr, ptr, ptr } { ptr getelementptr inbounds (ptr, ptr @_ZTVN10__cxxabiv120__si_class_type_infoE, i64 2), ptr @_ZTS14NedFileElement, ptr @_ZTI10NEDElement }, align 8
@_ZTS14CommentElement = dso_local constant [17 x i8] c"14CommentElement\00", align 1
@_ZTI14CommentElement = dso_local constant { ptr, ptr, ptr } { ptr getelementptr inbounds (ptr, ptr @_ZTVN10__cxxabiv120__si_class_type_infoE, i64 2), ptr @_ZTS14CommentElement, ptr @_ZTI10NEDElement }, align 8
@_ZTS14PackageElement = dso_local constant [17 x i8] c"14PackageElement\00", align 1
@_ZTI14PackageElement = dso_local constant { ptr, ptr, ptr } { ptr getelementptr inbounds (ptr, ptr @_ZTVN10__cxxabiv120__si_class_type_infoE, i64 2), ptr @_ZTS14PackageElement, ptr @_ZTI10NEDElement }, align 8
@_ZTS13ImportElement = dso_local constant [16 x i8] c"13ImportElement\00", align 1
@_ZTI13ImportElement = dso_local constant { ptr, ptr, ptr } { ptr getelementptr inbounds (ptr, ptr @_ZTVN10__cxxabiv120__si_class_type_infoE, i64 2), ptr @_ZTS13ImportElement, ptr @_ZTI10NEDElement }, align 8
@_ZTS19PropertyDeclElement = dso_local constant [22 x i8] c"19PropertyDeclElement\00", align 1
@_ZTI19PropertyDeclElement = dso_local constant { ptr, ptr, ptr } { ptr getelementptr inbounds (ptr, ptr @_ZTVN10__cxxabiv120__si_class_type_infoE, i64 2), ptr @_ZTS19PropertyDeclElement, ptr @_ZTI10NEDElement }, align 8
@_ZTS14ExtendsElement = dso_local constant [17 x i8] c"14ExtendsElement\00", align 1
@_ZTI14ExtendsElement = dso_local constant { ptr, ptr, ptr } { ptr getelementptr inbounds (ptr, ptr @_ZTVN10__cxxabiv120__si_class_type_infoE, i64 2), ptr @_ZTS14ExtendsElement, ptr @_ZTI10NEDElement }, align 8
@_ZTS20InterfaceNameElement = dso_local constant [23 x i8] c"20InterfaceNameElement\00", align 1
@_ZTI20InterfaceNameElement = dso_local constant { ptr, ptr, ptr } { ptr getelementptr inbounds (ptr, ptr @_ZTVN10__cxxabiv120__si_class_type_infoE, i64 2), ptr @_ZTS20InterfaceNameElement, ptr @_ZTI10NEDElement }, align 8
@_ZTS19SimpleModuleElement = dso_local constant [22 x i8] c"19SimpleModuleElement\00", align 1
@_ZTI19SimpleModuleElement = dso_local constant { ptr, ptr, ptr } { ptr getelementptr inbounds (ptr, ptr @_ZTVN10__cxxabiv120__si_class_type_infoE, i64 2), ptr @_ZTS19SimpleModuleElement, ptr @_ZTI10NEDElement }, align 8
@_ZTS22ModuleInterfaceElement = dso_local constant [25 x i8] c"22ModuleInterfaceElement\00", align 1
@_ZTI22ModuleInterfaceElement = dso_local constant { ptr, ptr, ptr } { ptr getelementptr inbounds (ptr, ptr @_ZTVN10__cxxabiv120__si_class_type_infoE, i64 2), ptr @_ZTS22ModuleInterfaceElement, ptr @_ZTI10NEDElement }, align 8
@_ZTS21CompoundModuleElement = dso_local constant [24 x i8] c"21CompoundModuleElement\00", align 1
@_ZTI21CompoundModuleElement = dso_local constant { ptr, ptr, ptr } { ptr getelementptr inbounds (ptr, ptr @_ZTVN10__cxxabiv120__si_class_type_infoE, i64 2), ptr @_ZTS21CompoundModuleElement, ptr @_ZTI10NEDElement }, align 8
@_ZTS23ChannelInterfaceElement = dso_local constant [26 x i8] c"23ChannelInterfaceElement\00", align 1
@_ZTI23ChannelInterfaceElement = dso_local constant { ptr, ptr, ptr } { ptr getelementptr inbounds (ptr, ptr @_ZTVN10__cxxabiv120__si_class_type_infoE, i64 2), ptr @_ZTS23ChannelInterfaceElement, ptr @_ZTI10NEDElement }, align 8
@_ZTS14ChannelElement = dso_local constant [17 x i8] c"14ChannelElement\00", align 1
@_ZTI14ChannelElement = dso_local constant { ptr, ptr, ptr } { ptr getelementptr inbounds (ptr, ptr @_ZTVN10__cxxabiv120__si_class_type_infoE, i64 2), ptr @_ZTS14ChannelElement, ptr @_ZTI10NEDElement }, align 8
@_ZTS17ParametersElement = dso_local constant [20 x i8] c"17ParametersElement\00", align 1
@_ZTI17ParametersElement = dso_local constant { ptr, ptr, ptr } { ptr getelementptr inbounds (ptr, ptr @_ZTVN10__cxxabiv120__si_class_type_infoE, i64 2), ptr @_ZTS17ParametersElement, ptr @_ZTI10NEDElement }, align 8
@_ZTS12ParamElement = dso_local constant [15 x i8] c"12ParamElement\00", align 1
@_ZTI12ParamElement = dso_local constant { ptr, ptr, ptr } { ptr getelementptr inbounds (ptr, ptr @_ZTVN10__cxxabiv120__si_class_type_infoE, i64 2), ptr @_ZTS12ParamElement, ptr @_ZTI10NEDElement }, align 8
@_ZTS14PatternElement = dso_local constant [17 x i8] c"14PatternElement\00", align 1
@_ZTI14PatternElement = dso_local constant { ptr, ptr, ptr } { ptr getelementptr inbounds (ptr, ptr @_ZTVN10__cxxabiv120__si_class_type_infoE, i64 2), ptr @_ZTS14PatternElement, ptr @_ZTI10NEDElement }, align 8
@_ZTS15PropertyElement = dso_local constant [18 x i8] c"15PropertyElement\00", align 1
@_ZTI15PropertyElement = dso_local constant { ptr, ptr, ptr } { ptr getelementptr inbounds (ptr, ptr @_ZTVN10__cxxabiv120__si_class_type_infoE, i64 2), ptr @_ZTS15PropertyElement, ptr @_ZTI10NEDElement }, align 8
@_ZTS18PropertyKeyElement = dso_local constant [21 x i8] c"18PropertyKeyElement\00", align 1
@_ZTI18PropertyKeyElement = dso_local constant { ptr, ptr, ptr } { ptr getelementptr inbounds (ptr, ptr @_ZTVN10__cxxabiv120__si_class_type_infoE, i64 2), ptr @_ZTS18PropertyKeyElement, ptr @_ZTI10NEDElement }, align 8
@_ZTS12GatesElement = dso_local constant [15 x i8] c"12GatesElement\00", align 1
@_ZTI12GatesElement = dso_local constant { ptr, ptr, ptr } { ptr getelementptr inbounds (ptr, ptr @_ZTVN10__cxxabiv120__si_class_type_infoE, i64 2), ptr @_ZTS12GatesElement, ptr @_ZTI10NEDElement }, align 8
@_ZTS11GateElement = dso_local constant [14 x i8] c"11GateElement\00", align 1
@_ZTI11GateElement = dso_local constant { ptr, ptr, ptr } { ptr getelementptr inbounds (ptr, ptr @_ZTVN10__cxxabiv120__si_class_type_infoE, i64 2), ptr @_ZTS11GateElement, ptr @_ZTI10NEDElement }, align 8
@_ZTS12TypesElement = dso_local constant [15 x i8] c"12TypesElement\00", align 1
@_ZTI12TypesElement = dso_local constant { ptr, ptr, ptr } { ptr getelementptr inbounds (ptr, ptr @_ZTVN10__cxxabiv120__si_class_type_infoE, i64 2), ptr @_ZTS12TypesElement, ptr @_ZTI10NEDElement }, align 8
@_ZTS17SubmodulesElement = dso_local constant [20 x i8] c"17SubmodulesElement\00", align 1
@_ZTI17SubmodulesElement = dso_local constant { ptr, ptr, ptr } { ptr getelementptr inbounds (ptr, ptr @_ZTVN10__cxxabiv120__si_class_type_infoE, i64 2), ptr @_ZTS17SubmodulesElement, ptr @_ZTI10NEDElement }, align 8
@_ZTS16SubmoduleElement = dso_local constant [19 x i8] c"16SubmoduleElement\00", align 1
@_ZTI16SubmoduleElement = dso_local constant { ptr, ptr, ptr } { ptr getelementptr inbounds (ptr, ptr @_ZTVN10__cxxabiv120__si_class_type_infoE, i64 2), ptr @_ZTS16SubmoduleElement, ptr @_ZTI10NEDElement }, align 8
@_ZTS18ConnectionsElement = dso_local constant [21 x i8] c"18ConnectionsElement\00", align 1
@_ZTI18ConnectionsElement = dso_local constant { ptr, ptr, ptr } { ptr getelementptr inbounds (ptr, ptr @_ZTVN10__cxxabiv120__si_class_type_infoE, i64 2), ptr @_ZTS18ConnectionsElement, ptr @_ZTI10NEDElement }, align 8
@_ZTS17ConnectionElement = dso_local constant [20 x i8] c"17ConnectionElement\00", align 1
@_ZTI17ConnectionElement = dso_local constant { ptr, ptr, ptr } { ptr getelementptr inbounds (ptr, ptr @_ZTVN10__cxxabiv120__si_class_type_infoE, i64 2), ptr @_ZTS17ConnectionElement, ptr @_ZTI10NEDElement }, align 8
@_ZTS18ChannelSpecElement = dso_local constant [21 x i8] c"18ChannelSpecElement\00", align 1
@_ZTI18ChannelSpecElement = dso_local constant { ptr, ptr, ptr } { ptr getelementptr inbounds (ptr, ptr @_ZTVN10__cxxabiv120__si_class_type_infoE, i64 2), ptr @_ZTS18ChannelSpecElement, ptr @_ZTI10NEDElement }, align 8
@_ZTS22ConnectionGroupElement = dso_local constant [25 x i8] c"22ConnectionGroupElement\00", align 1
@_ZTI22ConnectionGroupElement = dso_local constant { ptr, ptr, ptr } { ptr getelementptr inbounds (ptr, ptr @_ZTVN10__cxxabiv120__si_class_type_infoE, i64 2), ptr @_ZTS22ConnectionGroupElement, ptr @_ZTI10NEDElement }, align 8
@_ZTS11LoopElement = dso_local constant [14 x i8] c"11LoopElement\00", align 1
@_ZTI11LoopElement = dso_local constant { ptr, ptr, ptr } { ptr getelementptr inbounds (ptr, ptr @_ZTVN10__cxxabiv120__si_class_type_infoE, i64 2), ptr @_ZTS11LoopElement, ptr @_ZTI10NEDElement }, align 8
@_ZTS16ConditionElement = dso_local constant [19 x i8] c"16ConditionElement\00", align 1
@_ZTI16ConditionElement = dso_local constant { ptr, ptr, ptr } { ptr getelementptr inbounds (ptr, ptr @_ZTVN10__cxxabiv120__si_class_type_infoE, i64 2), ptr @_ZTS16ConditionElement, ptr @_ZTI10NEDElement }, align 8
@_ZTS17ExpressionElement = dso_local constant [20 x i8] c"17ExpressionElement\00", align 1
@_ZTI17ExpressionElement = dso_local constant { ptr, ptr, ptr } { ptr getelementptr inbounds (ptr, ptr @_ZTVN10__cxxabiv120__si_class_type_infoE, i64 2), ptr @_ZTS17ExpressionElement, ptr @_ZTI10NEDElement }, align 8
@_ZTS15OperatorElement = dso_local constant [18 x i8] c"15OperatorElement\00", align 1
@_ZTI15OperatorElement = dso_local constant { ptr, ptr, ptr } { ptr getelementptr inbounds (ptr, ptr @_ZTVN10__cxxabiv120__si_class_type_infoE, i64 2), ptr @_ZTS15OperatorElement, ptr @_ZTI10NEDElement }, align 8
@_ZTS15FunctionElement = dso_local constant [18 x i8] c"15FunctionElement\00", align 1
@_ZTI15FunctionElement = dso_local constant { ptr, ptr, ptr } { ptr getelementptr inbounds (ptr, ptr @_ZTVN10__cxxabiv120__si_class_type_infoE, i64 2), ptr @_ZTS15FunctionElement, ptr @_ZTI10NEDElement }, align 8
@_ZTS12IdentElement = dso_local constant [15 x i8] c"12IdentElement\00", align 1
@_ZTI12IdentElement = dso_local constant { ptr, ptr, ptr } { ptr getelementptr inbounds (ptr, ptr @_ZTVN10__cxxabiv120__si_class_type_infoE, i64 2), ptr @_ZTS12IdentElement, ptr @_ZTI10NEDElement }, align 8
@_ZTS14LiteralElement = dso_local constant [17 x i8] c"14LiteralElement\00", align 1
@_ZTI14LiteralElement = dso_local constant { ptr, ptr, ptr } { ptr getelementptr inbounds (ptr, ptr @_ZTVN10__cxxabiv120__si_class_type_infoE, i64 2), ptr @_ZTS14LiteralElement, ptr @_ZTI10NEDElement }, align 8
@_ZTS14MsgFileElement = dso_local constant [17 x i8] c"14MsgFileElement\00", align 1
@_ZTI14MsgFileElement = dso_local constant { ptr, ptr, ptr } { ptr getelementptr inbounds (ptr, ptr @_ZTVN10__cxxabiv120__si_class_type_infoE, i64 2), ptr @_ZTS14MsgFileElement, ptr @_ZTI10NEDElement }, align 8
@_ZTS16NamespaceElement = dso_local constant [19 x i8] c"16NamespaceElement\00", align 1
@_ZTI16NamespaceElement = dso_local constant { ptr, ptr, ptr } { ptr getelementptr inbounds (ptr, ptr @_ZTVN10__cxxabiv120__si_class_type_infoE, i64 2), ptr @_ZTS16NamespaceElement, ptr @_ZTI10NEDElement }, align 8
@_ZTS16CplusplusElement = dso_local constant [19 x i8] c"16CplusplusElement\00", align 1
@_ZTI16CplusplusElement = dso_local constant { ptr, ptr, ptr } { ptr getelementptr inbounds (ptr, ptr @_ZTVN10__cxxabiv120__si_class_type_infoE, i64 2), ptr @_ZTS16CplusplusElement, ptr @_ZTI10NEDElement }, align 8
@_ZTS17StructDeclElement = dso_local constant [20 x i8] c"17StructDeclElement\00", align 1
@_ZTI17StructDeclElement = dso_local constant { ptr, ptr, ptr } { ptr getelementptr inbounds (ptr, ptr @_ZTVN10__cxxabiv120__si_class_type_infoE, i64 2), ptr @_ZTS17StructDeclElement, ptr @_ZTI10NEDElement }, align 8
@_ZTS16ClassDeclElement = dso_local constant [19 x i8] c"16ClassDeclElement\00", align 1
@_ZTI16ClassDeclElement = dso_local constant { ptr, ptr, ptr } { ptr getelementptr inbounds (ptr, ptr @_ZTVN10__cxxabiv120__si_class_type_infoE, i64 2), ptr @_ZTS16ClassDeclElement, ptr @_ZTI10NEDElement }, align 8
@_ZTS18MessageDeclElement = dso_local constant [21 x i8] c"18MessageDeclElement\00", align 1
@_ZTI18MessageDeclElement = dso_local constant { ptr, ptr, ptr } { ptr getelementptr inbounds (ptr, ptr @_ZTVN10__cxxabiv120__si_class_type_infoE, i64 2), ptr @_ZTS18MessageDeclElement, ptr @_ZTI10NEDElement }, align 8
@_ZTS17PacketDeclElement = dso_local constant [20 x i8] c"17PacketDeclElement\00", align 1
@_ZTI17PacketDeclElement = dso_local constant { ptr, ptr, ptr } { ptr getelementptr inbounds (ptr, ptr @_ZTVN10__cxxabiv120__si_class_type_infoE, i64 2), ptr @_ZTS17PacketDeclElement, ptr @_ZTI10NEDElement }, align 8
@_ZTS15EnumDeclElement = dso_local constant [18 x i8] c"15EnumDeclElement\00", align 1
@_ZTI15EnumDeclElement = dso_local constant { ptr, ptr, ptr } { ptr getelementptr inbounds (ptr, ptr @_ZTVN10__cxxabiv120__si_class_type_infoE, i64 2), ptr @_ZTS15EnumDeclElement, ptr @_ZTI10NEDElement }, align 8
@_ZTS11EnumElement = dso_local constant [14 x i8] c"11EnumElement\00", align 1
@_ZTI11EnumElement = dso_local constant { ptr, ptr, ptr } { ptr getelementptr inbounds (ptr, ptr @_ZTVN10__cxxabiv120__si_class_type_infoE, i64 2), ptr @_ZTS11EnumElement, ptr @_ZTI10NEDElement }, align 8
@_ZTS17EnumFieldsElement = dso_local constant [20 x i8] c"17EnumFieldsElement\00", align 1
@_ZTI17EnumFieldsElement = dso_local constant { ptr, ptr, ptr } { ptr getelementptr inbounds (ptr, ptr @_ZTVN10__cxxabiv120__si_class_type_infoE, i64 2), ptr @_ZTS17EnumFieldsElement, ptr @_ZTI10NEDElement }, align 8
@_ZTS16EnumFieldElement = dso_local constant [19 x i8] c"16EnumFieldElement\00", align 1
@_ZTI16EnumFieldElement = dso_local constant { ptr, ptr, ptr } { ptr getelementptr inbounds (ptr, ptr @_ZTVN10__cxxabiv120__si_class_type_infoE, i64 2), ptr @_ZTS16EnumFieldElement, ptr @_ZTI10NEDElement }, align 8
@_ZTS14MessageElement = dso_local constant [17 x i8] c"14MessageElement\00", align 1
@_ZTI14MessageElement = dso_local constant { ptr, ptr, ptr } { ptr getelementptr inbounds (ptr, ptr @_ZTVN10__cxxabiv120__si_class_type_infoE, i64 2), ptr @_ZTS14MessageElement, ptr @_ZTI10NEDElement }, align 8
@_ZTS13PacketElement = dso_local constant [16 x i8] c"13PacketElement\00", align 1
@_ZTI13PacketElement = dso_local constant { ptr, ptr, ptr } { ptr getelementptr inbounds (ptr, ptr @_ZTVN10__cxxabiv120__si_class_type_infoE, i64 2), ptr @_ZTS13PacketElement, ptr @_ZTI10NEDElement }, align 8
@_ZTS12ClassElement = dso_local constant [15 x i8] c"12ClassElement\00", align 1
@_ZTI12ClassElement = dso_local constant { ptr, ptr, ptr } { ptr getelementptr inbounds (ptr, ptr @_ZTVN10__cxxabiv120__si_class_type_infoE, i64 2), ptr @_ZTS12ClassElement, ptr @_ZTI10NEDElement }, align 8
@_ZTS13StructElement = dso_local constant [16 x i8] c"13StructElement\00", align 1
@_ZTI13StructElement = dso_local constant { ptr, ptr, ptr } { ptr getelementptr inbounds (ptr, ptr @_ZTVN10__cxxabiv120__si_class_type_infoE, i64 2), ptr @_ZTS13StructElement, ptr @_ZTI10NEDElement }, align 8
@_ZTS12FieldElement = dso_local constant [15 x i8] c"12FieldElement\00", align 1
@_ZTI12FieldElement = dso_local constant { ptr, ptr, ptr } { ptr getelementptr inbounds (ptr, ptr @_ZTVN10__cxxabiv120__si_class_type_infoE, i64 2), ptr @_ZTS12FieldElement, ptr @_ZTI10NEDElement }, align 8
@_ZTS14UnknownElement = dso_local constant [17 x i8] c"14UnknownElement\00", align 1
@_ZTI14UnknownElement = dso_local constant { ptr, ptr, ptr } { ptr getelementptr inbounds (ptr, ptr @_ZTVN10__cxxabiv120__si_class_type_infoE, i64 2), ptr @_ZTS14UnknownElement, ptr @_ZTI10NEDElement }, align 8
@_ZTV17NEDElementFactory = dso_local unnamed_addr constant { [6 x ptr] } { [6 x ptr] [ptr null, ptr @_ZTI17NEDElementFactory, ptr @_ZN17NEDElementFactoryD2Ev, ptr @_ZN17NEDElementFactoryD0Ev, ptr @_ZN17NEDElementFactory20createElementWithTagEPKc, ptr @_ZN17NEDElementFactory20createElementWithTagEi] }, align 8
@_ZTVN10__cxxabiv117__class_type_infoE = external global ptr
@_ZTS17NEDElementFactory = dso_local constant [20 x i8] c"17NEDElementFactory\00", align 1
@_ZTI17NEDElementFactory = dso_local constant { ptr, ptr } { ptr getelementptr inbounds (ptr, ptr @_ZTVN10__cxxabiv117__class_type_infoE, i64 2), ptr @_ZTS17NEDElementFactory }, align 8
@.str.104 = private unnamed_addr constant [7 x i8] c"double\00", align 1
@.str.105 = private unnamed_addr constant [4 x i8] c"int\00", align 1
@.str.106 = private unnamed_addr constant [7 x i8] c"string\00", align 1
@.str.107 = private unnamed_addr constant [5 x i8] c"bool\00", align 1
@.str.108 = private unnamed_addr constant [4 x i8] c"xml\00", align 1
@.str.109 = private unnamed_addr constant [6 x i8] c"input\00", align 1
@.str.110 = private unnamed_addr constant [7 x i8] c"output\00", align 1
@.str.111 = private unnamed_addr constant [6 x i8] c"inout\00", align 1
@.str.112 = private unnamed_addr constant [2 x i8] c"i\00", align 1
@.str.113 = private unnamed_addr constant [2 x i8] c"o\00", align 1
@.str.114 = private unnamed_addr constant [4 x i8] c"l2r\00", align 1
@.str.115 = private unnamed_addr constant [4 x i8] c"r2l\00", align 1
@.str.116 = private unnamed_addr constant [6 x i8] c"bidir\00", align 1
@.str.117 = private unnamed_addr constant [5 x i8] c"spec\00", align 1
@_ZTV12NEDException = linkonce_odr dso_local unnamed_addr constant { [5 x ptr] } { [5 x ptr] [ptr null, ptr @_ZTI12NEDException, ptr @_ZN12NEDExceptionD2Ev, ptr @_ZN12NEDExceptionD0Ev, ptr @_ZNK12NEDException4whatEv] }, comdat, align 8
@reltable._ZNK12ParamElement16getAttributeNameEi = private unnamed_addr constant [5 x i32] [i32 trunc (i64 sub (i64 ptrtoint (ptr @.str.11 to i64), i64 ptrtoint (ptr @reltable._ZNK12ParamElement16getAttributeNameEi to i64)) to i32), i32 trunc (i64 sub (i64 ptrtoint (ptr @.str.12 to i64), i64 ptrtoint (ptr @reltable._ZNK12ParamElement16getAttributeNameEi to i64)) to i32), i32 trunc (i64 sub (i64 ptrtoint (ptr @.str.6 to i64), i64 ptrtoint (ptr @reltable._ZNK12ParamElement16getAttributeNameEi to i64)) to i32), i32 trunc (i64 sub (i64 ptrtoint (ptr @.str.13 to i64), i64 ptrtoint (ptr @reltable._ZNK12ParamElement16getAttributeNameEi to i64)) to i32), i32 trunc (i64 sub (i64 ptrtoint (ptr @.str.14 to i64), i64 ptrtoint (ptr @reltable._ZNK12ParamElement16getAttributeNameEi to i64)) to i32)], align 4
@switch.table._ZNK12ParamElement19getAttributeDefaultEi = private unnamed_addr constant [5 x ptr] [ptr @.str.5, ptr @.str.9, ptr null, ptr @.str.5, ptr @.str.9], align 8
@reltable._ZNK14PatternElement16getAttributeNameEi = private unnamed_addr constant [3 x i32] [i32 trunc (i64 sub (i64 ptrtoint (ptr @.str.15 to i64), i64 ptrtoint (ptr @reltable._ZNK14PatternElement16getAttributeNameEi to i64)) to i32), i32 trunc (i64 sub (i64 ptrtoint (ptr @.str.13 to i64), i64 ptrtoint (ptr @reltable._ZNK14PatternElement16getAttributeNameEi to i64)) to i32), i32 trunc (i64 sub (i64 ptrtoint (ptr @.str.14 to i64), i64 ptrtoint (ptr @reltable._ZNK14PatternElement16getAttributeNameEi to i64)) to i32)], align 4
@reltable._ZNK15PropertyElement16getAttributeNameEi = private unnamed_addr constant [3 x i32] [i32 trunc (i64 sub (i64 ptrtoint (ptr @.str.10 to i64), i64 ptrtoint (ptr @reltable._ZNK15PropertyElement16getAttributeNameEi to i64)) to i32), i32 trunc (i64 sub (i64 ptrtoint (ptr @.str.6 to i64), i64 ptrtoint (ptr @reltable._ZNK15PropertyElement16getAttributeNameEi to i64)) to i32), i32 trunc (i64 sub (i64 ptrtoint (ptr @.str.16 to i64), i64 ptrtoint (ptr @reltable._ZNK15PropertyElement16getAttributeNameEi to i64)) to i32)], align 4
@switch.table._ZNK15PropertyElement19getAttributeDefaultEi = private unnamed_addr constant [3 x ptr] [ptr @.str.9, ptr null, ptr @.str.5], align 8
@reltable._ZNK11GateElement16getAttributeNameEi = private unnamed_addr constant [4 x i32] [i32 trunc (i64 sub (i64 ptrtoint (ptr @.str.6 to i64), i64 ptrtoint (ptr @reltable._ZNK11GateElement16getAttributeNameEi to i64)) to i32), i32 trunc (i64 sub (i64 ptrtoint (ptr @.str.11 to i64), i64 ptrtoint (ptr @reltable._ZNK11GateElement16getAttributeNameEi to i64)) to i32), i32 trunc (i64 sub (i64 ptrtoint (ptr @.str.17 to i64), i64 ptrtoint (ptr @reltable._ZNK11GateElement16getAttributeNameEi to i64)) to i32), i32 trunc (i64 sub (i64 ptrtoint (ptr @.str.18 to i64), i64 ptrtoint (ptr @reltable._ZNK11GateElement16getAttributeNameEi to i64)) to i32)], align 4
@reltable._ZNK11GateElement19getAttributeDefaultEi = private unnamed_addr constant [3 x i32] [i32 trunc (i64 sub (i64 ptrtoint (ptr @.str.5 to i64), i64 ptrtoint (ptr @reltable._ZNK11GateElement19getAttributeDefaultEi to i64)) to i32), i32 trunc (i64 sub (i64 ptrtoint (ptr @.str.9 to i64), i64 ptrtoint (ptr @reltable._ZNK11GateElement19getAttributeDefaultEi to i64)) to i32), i32 trunc (i64 sub (i64 ptrtoint (ptr @.str.5 to i64), i64 ptrtoint (ptr @reltable._ZNK11GateElement19getAttributeDefaultEi to i64)) to i32)], align 4
@reltable._ZNK16SubmoduleElement16getAttributeNameEi = private unnamed_addr constant [5 x i32] [i32 trunc (i64 sub (i64 ptrtoint (ptr @.str.6 to i64), i64 ptrtoint (ptr @reltable._ZNK16SubmoduleElement16getAttributeNameEi to i64)) to i32), i32 trunc (i64 sub (i64 ptrtoint (ptr @.str.11 to i64), i64 ptrtoint (ptr @reltable._ZNK16SubmoduleElement16getAttributeNameEi to i64)) to i32), i32 trunc (i64 sub (i64 ptrtoint (ptr @.str.19 to i64), i64 ptrtoint (ptr @reltable._ZNK16SubmoduleElement16getAttributeNameEi to i64)) to i32), i32 trunc (i64 sub (i64 ptrtoint (ptr @.str.20 to i64), i64 ptrtoint (ptr @reltable._ZNK16SubmoduleElement16getAttributeNameEi to i64)) to i32), i32 trunc (i64 sub (i64 ptrtoint (ptr @.str.18 to i64), i64 ptrtoint (ptr @reltable._ZNK16SubmoduleElement16getAttributeNameEi to i64)) to i32)], align 4
@reltable._ZNK17ConnectionElement16getAttributeNameEi = private unnamed_addr constant [13 x i32] [i32 trunc (i64 sub (i64 ptrtoint (ptr @.str.22 to i64), i64 ptrtoint (ptr @reltable._ZNK17ConnectionElement16getAttributeNameEi to i64)) to i32), i32 trunc (i64 sub (i64 ptrtoint (ptr @.str.23 to i64), i64 ptrtoint (ptr @reltable._ZNK17ConnectionElement16getAttributeNameEi to i64)) to i32), i32 trunc (i64 sub (i64 ptrtoint (ptr @.str.24 to i64), i64 ptrtoint (ptr @reltable._ZNK17ConnectionElement16getAttributeNameEi to i64)) to i32), i32 trunc (i64 sub (i64 ptrtoint (ptr @.str.25 to i64), i64 ptrtoint (ptr @reltable._ZNK17ConnectionElement16getAttributeNameEi to i64)) to i32), i32 trunc (i64 sub (i64 ptrtoint (ptr @.str.26 to i64), i64 ptrtoint (ptr @reltable._ZNK17ConnectionElement16getAttributeNameEi to i64)) to i32), i32 trunc (i64 sub (i64 ptrtoint (ptr @.str.27 to i64), i64 ptrtoint (ptr @reltable._ZNK17ConnectionElement16getAttributeNameEi to i64)) to i32), i32 trunc (i64 sub (i64 ptrtoint (ptr @.str.28 to i64), i64 ptrtoint (ptr @reltable._ZNK17ConnectionElement16getAttributeNameEi to i64)) to i32), i32 trunc (i64 sub (i64 ptrtoint (ptr @.str.29 to i64), i64 ptrtoint (ptr @reltable._ZNK17ConnectionElement16getAttributeNameEi to i64)) to i32), i32 trunc (i64 sub (i64 ptrtoint (ptr @.str.30 to i64), i64 ptrtoint (ptr @reltable._ZNK17ConnectionElement16getAttributeNameEi to i64)) to i32), i32 trunc (i64 sub (i64 ptrtoint (ptr @.str.31 to i64), i64 ptrtoint (ptr @reltable._ZNK17ConnectionElement16getAttributeNameEi to i64)) to i32), i32 trunc (i64 sub (i64 ptrtoint (ptr @.str.32 to i64), i64 ptrtoint (ptr @reltable._ZNK17ConnectionElement16getAttributeNameEi to i64)) to i32), i32 trunc (i64 sub (i64 ptrtoint (ptr @.str.33 to i64), i64 ptrtoint (ptr @reltable._ZNK17ConnectionElement16getAttributeNameEi to i64)) to i32), i32 trunc (i64 sub (i64 ptrtoint (ptr @.str.34 to i64), i64 ptrtoint (ptr @reltable._ZNK17ConnectionElement16getAttributeNameEi to i64)) to i32)], align 4
@switch.table._ZNK17ConnectionElement19getAttributeDefaultEi = private unnamed_addr constant [13 x ptr] [ptr @.str.5, ptr @.str.5, ptr null, ptr @.str.9, ptr @.str.5, ptr @.str.5, ptr @.str.5, ptr @.str.5, ptr null, ptr @.str.9, ptr @.str.5, ptr @.str.5, ptr null], align 8
@reltable._ZNK18ChannelSpecElement16getAttributeNameEi = private unnamed_addr constant [3 x i32] [i32 trunc (i64 sub (i64 ptrtoint (ptr @.str.11 to i64), i64 ptrtoint (ptr @reltable._ZNK18ChannelSpecElement16getAttributeNameEi to i64)) to i32), i32 trunc (i64 sub (i64 ptrtoint (ptr @.str.19 to i64), i64 ptrtoint (ptr @reltable._ZNK18ChannelSpecElement16getAttributeNameEi to i64)) to i32), i32 trunc (i64 sub (i64 ptrtoint (ptr @.str.20 to i64), i64 ptrtoint (ptr @reltable._ZNK18ChannelSpecElement16getAttributeNameEi to i64)) to i32)], align 4
@reltable._ZNK11LoopElement16getAttributeNameEi = private unnamed_addr constant [3 x i32] [i32 trunc (i64 sub (i64 ptrtoint (ptr @.str.35 to i64), i64 ptrtoint (ptr @reltable._ZNK11LoopElement16getAttributeNameEi to i64)) to i32), i32 trunc (i64 sub (i64 ptrtoint (ptr @.str.36 to i64), i64 ptrtoint (ptr @reltable._ZNK11LoopElement16getAttributeNameEi to i64)) to i32), i32 trunc (i64 sub (i64 ptrtoint (ptr @.str.37 to i64), i64 ptrtoint (ptr @reltable._ZNK11LoopElement16getAttributeNameEi to i64)) to i32)], align 4
@reltable._ZNK14LiteralElement16getAttributeNameEi = private unnamed_addr constant [4 x i32] [i32 trunc (i64 sub (i64 ptrtoint (ptr @.str.11 to i64), i64 ptrtoint (ptr @reltable._ZNK14LiteralElement16getAttributeNameEi to i64)) to i32), i32 trunc (i64 sub (i64 ptrtoint (ptr @.str.41 to i64), i64 ptrtoint (ptr @reltable._ZNK14LiteralElement16getAttributeNameEi to i64)) to i32), i32 trunc (i64 sub (i64 ptrtoint (ptr @.str.42 to i64), i64 ptrtoint (ptr @reltable._ZNK14LiteralElement16getAttributeNameEi to i64)) to i32), i32 trunc (i64 sub (i64 ptrtoint (ptr @.str.13 to i64), i64 ptrtoint (ptr @reltable._ZNK14LiteralElement16getAttributeNameEi to i64)) to i32)], align 4
@reltable._ZNK16ClassDeclElement16getAttributeNameEi = private unnamed_addr constant [3 x i32] [i32 trunc (i64 sub (i64 ptrtoint (ptr @.str.6 to i64), i64 ptrtoint (ptr @reltable._ZNK16ClassDeclElement16getAttributeNameEi to i64)) to i32), i32 trunc (i64 sub (i64 ptrtoint (ptr @.str.44 to i64), i64 ptrtoint (ptr @reltable._ZNK16ClassDeclElement16getAttributeNameEi to i64)) to i32), i32 trunc (i64 sub (i64 ptrtoint (ptr @.str.45 to i64), i64 ptrtoint (ptr @reltable._ZNK16ClassDeclElement16getAttributeNameEi to i64)) to i32)], align 4
@switch.table._ZNK13StructElement16getAttributeNameEi = private unnamed_addr constant [3 x ptr] [ptr @.str.6, ptr @.str.45, ptr @.str.46], align 8
@reltable._ZNK12FieldElement16getAttributeNameEi = private unnamed_addr constant [8 x i32] [i32 trunc (i64 sub (i64 ptrtoint (ptr @.str.6 to i64), i64 ptrtoint (ptr @reltable._ZNK12FieldElement16getAttributeNameEi to i64)) to i32), i32 trunc (i64 sub (i64 ptrtoint (ptr @.str.47 to i64), i64 ptrtoint (ptr @reltable._ZNK12FieldElement16getAttributeNameEi to i64)) to i32), i32 trunc (i64 sub (i64 ptrtoint (ptr @.str.48 to i64), i64 ptrtoint (ptr @reltable._ZNK12FieldElement16getAttributeNameEi to i64)) to i32), i32 trunc (i64 sub (i64 ptrtoint (ptr @.str.49 to i64), i64 ptrtoint (ptr @reltable._ZNK12FieldElement16getAttributeNameEi to i64)) to i32), i32 trunc (i64 sub (i64 ptrtoint (ptr @.str.17 to i64), i64 ptrtoint (ptr @reltable._ZNK12FieldElement16getAttributeNameEi to i64)) to i32), i32 trunc (i64 sub (i64 ptrtoint (ptr @.str.18 to i64), i64 ptrtoint (ptr @reltable._ZNK12FieldElement16getAttributeNameEi to i64)) to i32), i32 trunc (i64 sub (i64 ptrtoint (ptr @.str.50 to i64), i64 ptrtoint (ptr @reltable._ZNK12FieldElement16getAttributeNameEi to i64)) to i32), i32 trunc (i64 sub (i64 ptrtoint (ptr @.str.51 to i64), i64 ptrtoint (ptr @reltable._ZNK12FieldElement16getAttributeNameEi to i64)) to i32)], align 4
@reltable._ZNK12FieldElement19getAttributeDefaultEi = private unnamed_addr constant [7 x i32] [i32 trunc (i64 sub (i64 ptrtoint (ptr @.str.5 to i64), i64 ptrtoint (ptr @reltable._ZNK12FieldElement19getAttributeDefaultEi to i64)) to i32), i32 trunc (i64 sub (i64 ptrtoint (ptr @.str.9 to i64), i64 ptrtoint (ptr @reltable._ZNK12FieldElement19getAttributeDefaultEi to i64)) to i32), i32 trunc (i64 sub (i64 ptrtoint (ptr @.str.9 to i64), i64 ptrtoint (ptr @reltable._ZNK12FieldElement19getAttributeDefaultEi to i64)) to i32), i32 trunc (i64 sub (i64 ptrtoint (ptr @.str.9 to i64), i64 ptrtoint (ptr @reltable._ZNK12FieldElement19getAttributeDefaultEi to i64)) to i32), i32 trunc (i64 sub (i64 ptrtoint (ptr @.str.5 to i64), i64 ptrtoint (ptr @reltable._ZNK12FieldElement19getAttributeDefaultEi to i64)) to i32), i32 trunc (i64 sub (i64 ptrtoint (ptr @.str.5 to i64), i64 ptrtoint (ptr @reltable._ZNK12FieldElement19getAttributeDefaultEi to i64)) to i32), i32 trunc (i64 sub (i64 ptrtoint (ptr @.str.5 to i64), i64 ptrtoint (ptr @reltable._ZNK12FieldElement19getAttributeDefaultEi to i64)) to i32)], align 4

@_ZN12FilesElementC1Ev = dso_local unnamed_addr alias void (ptr), ptr @_ZN12FilesElementC2Ev
@_ZN12FilesElementC1EP10NEDElement = dso_local unnamed_addr alias void (ptr, ptr), ptr @_ZN12FilesElementC2EP10NEDElement
@_ZN14NedFileElementC1Ev = dso_local unnamed_addr alias void (ptr), ptr @_ZN14NedFileElementC2Ev
@_ZN14NedFileElementC1EP10NEDElement = dso_local unnamed_addr alias void (ptr, ptr), ptr @_ZN14NedFileElementC2EP10NEDElement
@_ZN14CommentElementC1Ev = dso_local unnamed_addr alias void (ptr), ptr @_ZN14CommentElementC2Ev
@_ZN14CommentElementC1EP10NEDElement = dso_local unnamed_addr alias void (ptr, ptr), ptr @_ZN14CommentElementC2EP10NEDElement
@_ZN14PackageElementC1Ev = dso_local unnamed_addr alias void (ptr), ptr @_ZN14PackageElementC2Ev
@_ZN14PackageElementC1EP10NEDElement = dso_local unnamed_addr alias void (ptr, ptr), ptr @_ZN14PackageElementC2EP10NEDElement
@_ZN13ImportElementC1Ev = dso_local unnamed_addr alias void (ptr), ptr @_ZN13ImportElementC2Ev
@_ZN13ImportElementC1EP10NEDElement = dso_local unnamed_addr alias void (ptr, ptr), ptr @_ZN13ImportElementC2EP10NEDElement
@_ZN19PropertyDeclElementC1Ev = dso_local unnamed_addr alias void (ptr), ptr @_ZN19PropertyDeclElementC2Ev
@_ZN19PropertyDeclElementC1EP10NEDElement = dso_local unnamed_addr alias void (ptr, ptr), ptr @_ZN19PropertyDeclElementC2EP10NEDElement
@_ZN14ExtendsElementC1Ev = dso_local unnamed_addr alias void (ptr), ptr @_ZN14ExtendsElementC2Ev
@_ZN14ExtendsElementC1EP10NEDElement = dso_local unnamed_addr alias void (ptr, ptr), ptr @_ZN14ExtendsElementC2EP10NEDElement
@_ZN20InterfaceNameElementC1Ev = dso_local unnamed_addr alias void (ptr), ptr @_ZN20InterfaceNameElementC2Ev
@_ZN20InterfaceNameElementC1EP10NEDElement = dso_local unnamed_addr alias void (ptr, ptr), ptr @_ZN20InterfaceNameElementC2EP10NEDElement
@_ZN19SimpleModuleElementC1Ev = dso_local unnamed_addr alias void (ptr), ptr @_ZN19SimpleModuleElementC2Ev
@_ZN19SimpleModuleElementC1EP10NEDElement = dso_local unnamed_addr alias void (ptr, ptr), ptr @_ZN19SimpleModuleElementC2EP10NEDElement
@_ZN22ModuleInterfaceElementC1Ev = dso_local unnamed_addr alias void (ptr), ptr @_ZN22ModuleInterfaceElementC2Ev
@_ZN22ModuleInterfaceElementC1EP10NEDElement = dso_local unnamed_addr alias void (ptr, ptr), ptr @_ZN22ModuleInterfaceElementC2EP10NEDElement
@_ZN21CompoundModuleElementC1Ev = dso_local unnamed_addr alias void (ptr), ptr @_ZN21CompoundModuleElementC2Ev
@_ZN21CompoundModuleElementC1EP10NEDElement = dso_local unnamed_addr alias void (ptr, ptr), ptr @_ZN21CompoundModuleElementC2EP10NEDElement
@_ZN23ChannelInterfaceElementC1Ev = dso_local unnamed_addr alias void (ptr), ptr @_ZN23ChannelInterfaceElementC2Ev
@_ZN23ChannelInterfaceElementC1EP10NEDElement = dso_local unnamed_addr alias void (ptr, ptr), ptr @_ZN23ChannelInterfaceElementC2EP10NEDElement
@_ZN14ChannelElementC1Ev = dso_local unnamed_addr alias void (ptr), ptr @_ZN14ChannelElementC2Ev
@_ZN14ChannelElementC1EP10NEDElement = dso_local unnamed_addr alias void (ptr, ptr), ptr @_ZN14ChannelElementC2EP10NEDElement
@_ZN17ParametersElementC1Ev = dso_local unnamed_addr alias void (ptr), ptr @_ZN17ParametersElementC2Ev
@_ZN17ParametersElementC1EP10NEDElement = dso_local unnamed_addr alias void (ptr, ptr), ptr @_ZN17ParametersElementC2EP10NEDElement
@_ZN12ParamElementC1Ev = dso_local unnamed_addr alias void (ptr), ptr @_ZN12ParamElementC2Ev
@_ZN12ParamElementC1EP10NEDElement = dso_local unnamed_addr alias void (ptr, ptr), ptr @_ZN12ParamElementC2EP10NEDElement
@_ZN14PatternElementC1Ev = dso_local unnamed_addr alias void (ptr), ptr @_ZN14PatternElementC2Ev
@_ZN14PatternElementC1EP10NEDElement = dso_local unnamed_addr alias void (ptr, ptr), ptr @_ZN14PatternElementC2EP10NEDElement
@_ZN15PropertyElementC1Ev = dso_local unnamed_addr alias void (ptr), ptr @_ZN15PropertyElementC2Ev
@_ZN15PropertyElementC1EP10NEDElement = dso_local unnamed_addr alias void (ptr, ptr), ptr @_ZN15PropertyElementC2EP10NEDElement
@_ZN18PropertyKeyElementC1Ev = dso_local unnamed_addr alias void (ptr), ptr @_ZN18PropertyKeyElementC2Ev
@_ZN18PropertyKeyElementC1EP10NEDElement = dso_local unnamed_addr alias void (ptr, ptr), ptr @_ZN18PropertyKeyElementC2EP10NEDElement
@_ZN12GatesElementC1Ev = dso_local unnamed_addr alias void (ptr), ptr @_ZN12GatesElementC2Ev
@_ZN12GatesElementC1EP10NEDElement = dso_local unnamed_addr alias void (ptr, ptr), ptr @_ZN12GatesElementC2EP10NEDElement
@_ZN11GateElementC1Ev = dso_local unnamed_addr alias void (ptr), ptr @_ZN11GateElementC2Ev
@_ZN11GateElementC1EP10NEDElement = dso_local unnamed_addr alias void (ptr, ptr), ptr @_ZN11GateElementC2EP10NEDElement
@_ZN12TypesElementC1Ev = dso_local unnamed_addr alias void (ptr), ptr @_ZN12TypesElementC2Ev
@_ZN12TypesElementC1EP10NEDElement = dso_local unnamed_addr alias void (ptr, ptr), ptr @_ZN12TypesElementC2EP10NEDElement
@_ZN17SubmodulesElementC1Ev = dso_local unnamed_addr alias void (ptr), ptr @_ZN17SubmodulesElementC2Ev
@_ZN17SubmodulesElementC1EP10NEDElement = dso_local unnamed_addr alias void (ptr, ptr), ptr @_ZN17SubmodulesElementC2EP10NEDElement
@_ZN16SubmoduleElementC1Ev = dso_local unnamed_addr alias void (ptr), ptr @_ZN16SubmoduleElementC2Ev
@_ZN16SubmoduleElementC1EP10NEDElement = dso_local unnamed_addr alias void (ptr, ptr), ptr @_ZN16SubmoduleElementC2EP10NEDElement
@_ZN18ConnectionsElementC1Ev = dso_local unnamed_addr alias void (ptr), ptr @_ZN18ConnectionsElementC2Ev
@_ZN18ConnectionsElementC1EP10NEDElement = dso_local unnamed_addr alias void (ptr, ptr), ptr @_ZN18ConnectionsElementC2EP10NEDElement
@_ZN17ConnectionElementC1Ev = dso_local unnamed_addr alias void (ptr), ptr @_ZN17ConnectionElementC2Ev
@_ZN17ConnectionElementC1EP10NEDElement = dso_local unnamed_addr alias void (ptr, ptr), ptr @_ZN17ConnectionElementC2EP10NEDElement
@_ZN18ChannelSpecElementC1Ev = dso_local unnamed_addr alias void (ptr), ptr @_ZN18ChannelSpecElementC2Ev
@_ZN18ChannelSpecElementC1EP10NEDElement = dso_local unnamed_addr alias void (ptr, ptr), ptr @_ZN18ChannelSpecElementC2EP10NEDElement
@_ZN22ConnectionGroupElementC1Ev = dso_local unnamed_addr alias void (ptr), ptr @_ZN22ConnectionGroupElementC2Ev
@_ZN22ConnectionGroupElementC1EP10NEDElement = dso_local unnamed_addr alias void (ptr, ptr), ptr @_ZN22ConnectionGroupElementC2EP10NEDElement
@_ZN11LoopElementC1Ev = dso_local unnamed_addr alias void (ptr), ptr @_ZN11LoopElementC2Ev
@_ZN11LoopElementC1EP10NEDElement = dso_local unnamed_addr alias void (ptr, ptr), ptr @_ZN11LoopElementC2EP10NEDElement
@_ZN16ConditionElementC1Ev = dso_local unnamed_addr alias void (ptr), ptr @_ZN16ConditionElementC2Ev
@_ZN16ConditionElementC1EP10NEDElement = dso_local unnamed_addr alias void (ptr, ptr), ptr @_ZN16ConditionElementC2EP10NEDElement
@_ZN17ExpressionElementC1Ev = dso_local unnamed_addr alias void (ptr), ptr @_ZN17ExpressionElementC2Ev
@_ZN17ExpressionElementC1EP10NEDElement = dso_local unnamed_addr alias void (ptr, ptr), ptr @_ZN17ExpressionElementC2EP10NEDElement
@_ZN15OperatorElementC1Ev = dso_local unnamed_addr alias void (ptr), ptr @_ZN15OperatorElementC2Ev
@_ZN15OperatorElementC1EP10NEDElement = dso_local unnamed_addr alias void (ptr, ptr), ptr @_ZN15OperatorElementC2EP10NEDElement
@_ZN15FunctionElementC1Ev = dso_local unnamed_addr alias void (ptr), ptr @_ZN15FunctionElementC2Ev
@_ZN15FunctionElementC1EP10NEDElement = dso_local unnamed_addr alias void (ptr, ptr), ptr @_ZN15FunctionElementC2EP10NEDElement
@_ZN12IdentElementC1Ev = dso_local unnamed_addr alias void (ptr), ptr @_ZN12IdentElementC2Ev
@_ZN12IdentElementC1EP10NEDElement = dso_local unnamed_addr alias void (ptr, ptr), ptr @_ZN12IdentElementC2EP10NEDElement
@_ZN14LiteralElementC1Ev = dso_local unnamed_addr alias void (ptr), ptr @_ZN14LiteralElementC2Ev
@_ZN14LiteralElementC1EP10NEDElement = dso_local unnamed_addr alias void (ptr, ptr), ptr @_ZN14LiteralElementC2EP10NEDElement
@_ZN14MsgFileElementC1Ev = dso_local unnamed_addr alias void (ptr), ptr @_ZN14MsgFileElementC2Ev
@_ZN14MsgFileElementC1EP10NEDElement = dso_local unnamed_addr alias void (ptr, ptr), ptr @_ZN14MsgFileElementC2EP10NEDElement
@_ZN16NamespaceElementC1Ev = dso_local unnamed_addr alias void (ptr), ptr @_ZN16NamespaceElementC2Ev
@_ZN16NamespaceElementC1EP10NEDElement = dso_local unnamed_addr alias void (ptr, ptr), ptr @_ZN16NamespaceElementC2EP10NEDElement
@_ZN16CplusplusElementC1Ev = dso_local unnamed_addr alias void (ptr), ptr @_ZN16CplusplusElementC2Ev
@_ZN16CplusplusElementC1EP10NEDElement = dso_local unnamed_addr alias void (ptr, ptr), ptr @_ZN16CplusplusElementC2EP10NEDElement
@_ZN17StructDeclElementC1Ev = dso_local unnamed_addr alias void (ptr), ptr @_ZN17StructDeclElementC2Ev
@_ZN17StructDeclElementC1EP10NEDElement = dso_local unnamed_addr alias void (ptr, ptr), ptr @_ZN17StructDeclElementC2EP10NEDElement
@_ZN16ClassDeclElementC1Ev = dso_local unnamed_addr alias void (ptr), ptr @_ZN16ClassDeclElementC2Ev
@_ZN16ClassDeclElementC1EP10NEDElement = dso_local unnamed_addr alias void (ptr, ptr), ptr @_ZN16ClassDeclElementC2EP10NEDElement
@_ZN18MessageDeclElementC1Ev = dso_local unnamed_addr alias void (ptr), ptr @_ZN18MessageDeclElementC2Ev
@_ZN18MessageDeclElementC1EP10NEDElement = dso_local unnamed_addr alias void (ptr, ptr), ptr @_ZN18MessageDeclElementC2EP10NEDElement
@_ZN17PacketDeclElementC1Ev = dso_local unnamed_addr alias void (ptr), ptr @_ZN17PacketDeclElementC2Ev
@_ZN17PacketDeclElementC1EP10NEDElement = dso_local unnamed_addr alias void (ptr, ptr), ptr @_ZN17PacketDeclElementC2EP10NEDElement
@_ZN15EnumDeclElementC1Ev = dso_local unnamed_addr alias void (ptr), ptr @_ZN15EnumDeclElementC2Ev
@_ZN15EnumDeclElementC1EP10NEDElement = dso_local unnamed_addr alias void (ptr, ptr), ptr @_ZN15EnumDeclElementC2EP10NEDElement
@_ZN11EnumElementC1Ev = dso_local unnamed_addr alias void (ptr), ptr @_ZN11EnumElementC2Ev
@_ZN11EnumElementC1EP10NEDElement = dso_local unnamed_addr alias void (ptr, ptr), ptr @_ZN11EnumElementC2EP10NEDElement
@_ZN17EnumFieldsElementC1Ev = dso_local unnamed_addr alias void (ptr), ptr @_ZN17EnumFieldsElementC2Ev
@_ZN17EnumFieldsElementC1EP10NEDElement = dso_local unnamed_addr alias void (ptr, ptr), ptr @_ZN17EnumFieldsElementC2EP10NEDElement
@_ZN16EnumFieldElementC1Ev = dso_local unnamed_addr alias void (ptr), ptr @_ZN16EnumFieldElementC2Ev
@_ZN16EnumFieldElementC1EP10NEDElement = dso_local unnamed_addr alias void (ptr, ptr), ptr @_ZN16EnumFieldElementC2EP10NEDElement
@_ZN14MessageElementC1Ev = dso_local unnamed_addr alias void (ptr), ptr @_ZN14MessageElementC2Ev
@_ZN14MessageElementC1EP10NEDElement = dso_local unnamed_addr alias void (ptr, ptr), ptr @_ZN14MessageElementC2EP10NEDElement
@_ZN13PacketElementC1Ev = dso_local unnamed_addr alias void (ptr), ptr @_ZN13PacketElementC2Ev
@_ZN13PacketElementC1EP10NEDElement = dso_local unnamed_addr alias void (ptr, ptr), ptr @_ZN13PacketElementC2EP10NEDElement
@_ZN12ClassElementC1Ev = dso_local unnamed_addr alias void (ptr), ptr @_ZN12ClassElementC2Ev
@_ZN12ClassElementC1EP10NEDElement = dso_local unnamed_addr alias void (ptr, ptr), ptr @_ZN12ClassElementC2EP10NEDElement
@_ZN13StructElementC1Ev = dso_local unnamed_addr alias void (ptr), ptr @_ZN13StructElementC2Ev
@_ZN13StructElementC1EP10NEDElement = dso_local unnamed_addr alias void (ptr, ptr), ptr @_ZN13StructElementC2EP10NEDElement
@_ZN12FieldElementC1Ev = dso_local unnamed_addr alias void (ptr), ptr @_ZN12FieldElementC2Ev
@_ZN12FieldElementC1EP10NEDElement = dso_local unnamed_addr alias void (ptr, ptr), ptr @_ZN12FieldElementC2EP10NEDElement
@_ZN14UnknownElementC1Ev = dso_local unnamed_addr alias void (ptr), ptr @_ZN14UnknownElementC2Ev
@_ZN14UnknownElementC1EP10NEDElement = dso_local unnamed_addr alias void (ptr, ptr), ptr @_ZN14UnknownElementC2EP10NEDElement

; Function Attrs: sspstrong uwtable
define dso_local void @_ZN12FilesElementC2Ev(ptr noundef nonnull align 8 dereferenceable(112) %0) unnamed_addr #0 align 2 personality ptr @__gxx_personality_v0 {
  tail call void @_ZN10NEDElementC2Ev(ptr noundef nonnull align 8 dereferenceable(112) %0)
  store ptr getelementptr inbounds ({ [41 x ptr] }, ptr @_ZTV12FilesElement, i64 0, inrange i32 0, i64 2), ptr %0, align 8, !tbaa !5
  invoke void @_ZN10NEDElement13applyDefaultsEv(ptr noundef nonnull align 8 dereferenceable(112) %0)
          to label %2 unwind label %3

2:                                                ; preds = %1
  ret void

3:                                                ; preds = %1
  %4 = landingpad { ptr, i32 }
          cleanup
  invoke void @_ZN10NEDElementD2Ev(ptr noundef nonnull align 8 dereferenceable(112) %0)
          to label %5 unwind label %6

5:                                                ; preds = %3
  resume { ptr, i32 } %4

6:                                                ; preds = %3
  %7 = landingpad { ptr, i32 }
          catch ptr null
  %8 = extractvalue { ptr, i32 } %7, 0
  tail call void @__clang_call_terminate(ptr %8) #12
  unreachable
}

declare void @_ZN10NEDElementC2Ev(ptr noundef nonnull align 8 dereferenceable(112)) unnamed_addr #1

declare i32 @__gxx_personality_v0(...)

; Function Attrs: noinline noreturn nounwind sspstrong uwtable
define linkonce_odr hidden void @__clang_call_terminate(ptr noundef %0) local_unnamed_addr #2 comdat {
  %2 = tail call ptr @__cxa_begin_catch(ptr %0) #13
  tail call void @_ZSt9terminatev() #12
  unreachable
}

declare ptr @__cxa_begin_catch(ptr) local_unnamed_addr

declare void @_ZSt9terminatev() local_unnamed_addr

; Function Attrs: sspstrong uwtable
define dso_local void @_ZN12FilesElementC2EP10NEDElement(ptr noundef nonnull align 8 dereferenceable(112) %0, ptr noundef %1) unnamed_addr #0 align 2 personality ptr @__gxx_personality_v0 {
  tail call void @_ZN10NEDElementC2EPS_(ptr noundef nonnull align 8 dereferenceable(112) %0, ptr noundef %1)
  store ptr getelementptr inbounds ({ [41 x ptr] }, ptr @_ZTV12FilesElement, i64 0, inrange i32 0, i64 2), ptr %0, align 8, !tbaa !5
  invoke void @_ZN10NEDElement13applyDefaultsEv(ptr noundef nonnull align 8 dereferenceable(112) %0)
          to label %3 unwind label %4

3:                                                ; preds = %2
  ret void

4:                                                ; preds = %2
  %5 = landingpad { ptr, i32 }
          cleanup
  invoke void @_ZN10NEDElementD2Ev(ptr noundef nonnull align 8 dereferenceable(112) %0)
          to label %6 unwind label %7

6:                                                ; preds = %4
  resume { ptr, i32 } %5

7:                                                ; preds = %4
  %8 = landingpad { ptr, i32 }
          catch ptr null
  %9 = extractvalue { ptr, i32 } %8, 0
  tail call void @__clang_call_terminate(ptr %9) #12
  unreachable
}

declare void @_ZN10NEDElementC2EPS_(ptr noundef nonnull align 8 dereferenceable(112), ptr noundef) unnamed_addr #1

; Function Attrs: mustprogress nofree norecurse nosync nounwind sspstrong willreturn memory(none) uwtable
define dso_local noundef i32 @_ZNK12FilesElement16getNumAttributesEv(ptr nocapture nonnull readnone align 8 %0) unnamed_addr #3 align 2 {
  ret i32 0
}

; Function Attrs: mustprogress nofree norecurse nosync nounwind sspstrong willreturn memory(none) uwtable
define dso_local noalias noundef ptr @_ZNK12FilesElement16getAttributeNameEi(ptr nocapture nonnull readnone align 8 %0, i32 %1) unnamed_addr #3 align 2 {
  ret ptr null
}

; Function Attrs: mustprogress nofree norecurse nosync nounwind sspstrong willreturn memory(none) uwtable
define dso_local noalias noundef ptr @_ZNK12FilesElement12getAttributeEi(ptr nocapture nonnull readnone align 8 %0, i32 %1) unnamed_addr #3 align 2 {
  ret ptr null
}

; Function Attrs: mustprogress nofree norecurse nosync nounwind sspstrong willreturn memory(none) uwtable
define dso_local void @_ZN12FilesElement12setAttributeEiPKc(ptr nocapture nonnull align 8 %0, i32 %1, ptr nocapture %2) unnamed_addr #3 align 2 {
  ret void
}

; Function Attrs: mustprogress nofree norecurse nosync nounwind sspstrong willreturn memory(none) uwtable
define dso_local noalias noundef ptr @_ZNK12FilesElement19getAttributeDefaultEi(ptr nocapture nonnull readnone align 8 %0, i32 %1) unnamed_addr #3 align 2 {
  ret ptr null
}

; Function Attrs: sspstrong uwtable
define dso_local noundef nonnull ptr @_ZNK12FilesElement3dupEv(ptr nocapture nonnull readnone align 8 %0) unnamed_addr #0 align 2 personality ptr @__gxx_personality_v0 {
  %2 = tail call noalias noundef nonnull dereferenceable(112) ptr @_Znwm(i64 noundef 112) #14
  invoke void @_ZN10NEDElementC2Ev(ptr noundef nonnull align 8 dereferenceable(112) %2)
          to label %3 unwind label %10

3:                                                ; preds = %1
  store ptr getelementptr inbounds ({ [41 x ptr] }, ptr @_ZTV12FilesElement, i64 0, inrange i32 0, i64 2), ptr %2, align 8, !tbaa !5
  invoke void @_ZN10NEDElement13applyDefaultsEv(ptr noundef nonnull align 8 dereferenceable(112) %2)
          to label %9 unwind label %4

4:                                                ; preds = %3
  %5 = landingpad { ptr, i32 }
          cleanup
  invoke void @_ZN10NEDElementD2Ev(ptr noundef nonnull align 8 dereferenceable(112) %2)
          to label %12 unwind label %6

6:                                                ; preds = %4
  %7 = landingpad { ptr, i32 }
          catch ptr null
  %8 = extractvalue { ptr, i32 } %7, 0
  tail call void @__clang_call_terminate(ptr %8) #12
  unreachable

9:                                                ; preds = %3
  ret ptr %2

10:                                               ; preds = %1
  %11 = landingpad { ptr, i32 }
          cleanup
  br label %12

12:                                               ; preds = %4, %10
  %13 = phi { ptr, i32 } [ %11, %10 ], [ %5, %4 ]
  tail call void @_ZdlPv(ptr noundef nonnull %2) #15
  resume { ptr, i32 } %13
}

; Function Attrs: nobuiltin allocsize(0)
declare noundef nonnull ptr @_Znwm(i64 noundef) local_unnamed_addr #4

; Function Attrs: nobuiltin nounwind
declare void @_ZdlPv(ptr noundef) local_unnamed_addr #5

; Function Attrs: sspstrong uwtable
define dso_local noundef ptr @_ZNK12FilesElement19getNextFilesSiblingEv(ptr noundef nonnull align 8 dereferenceable(112) %0) unnamed_addr #0 align 2 {
  %2 = load ptr, ptr %0, align 8, !tbaa !5
  %3 = getelementptr inbounds ptr, ptr %2, i64 31
  %4 = load ptr, ptr %3, align 8
  %5 = tail call noundef ptr %4(ptr noundef nonnull align 8 dereferenceable(112) %0, i32 noundef 1)
  ret ptr %5
}

; Function Attrs: sspstrong uwtable
define dso_local noundef ptr @_ZNK12FilesElement20getFirstNedFileChildEv(ptr noundef nonnull align 8 dereferenceable(112) %0) unnamed_addr #0 align 2 {
  %2 = load ptr, ptr %0, align 8, !tbaa !5
  %3 = getelementptr inbounds ptr, ptr %2, i64 30
  %4 = load ptr, ptr %3, align 8
  %5 = tail call noundef ptr %4(ptr noundef nonnull align 8 dereferenceable(112) %0, i32 noundef 2)
  ret ptr %5
}

; Function Attrs: sspstrong uwtable
define dso_local noundef ptr @_ZNK12FilesElement20getFirstMsgFileChildEv(ptr noundef nonnull align 8 dereferenceable(112) %0) unnamed_addr #0 align 2 {
  %2 = load ptr, ptr %0, align 8, !tbaa !5
  %3 = getelementptr inbounds ptr, ptr %2, i64 30
  %4 = load ptr, ptr %3, align 8
  %5 = tail call noundef ptr %4(ptr noundef nonnull align 8 dereferenceable(112) %0, i32 noundef 35)
  ret ptr %5
}

; Function Attrs: sspstrong uwtable
define dso_local void @_ZN14NedFileElementC2Ev(ptr noundef nonnull align 8 dereferenceable(176) %0) unnamed_addr #0 align 2 personality ptr @__gxx_personality_v0 {
  tail call void @_ZN10NEDElementC2Ev(ptr noundef nonnull align 8 dereferenceable(112) %0)
  store ptr getelementptr inbounds ({ [49 x ptr] }, ptr @_ZTV14NedFileElement, i64 0, inrange i32 0, i64 2), ptr %0, align 8, !tbaa !5
  %2 = getelementptr inbounds %class.NedFileElement, ptr %0, i64 0, i32 1
  %3 = getelementptr inbounds %class.NedFileElement, ptr %0, i64 0, i32 1, i32 2
  store ptr %3, ptr %2, align 8, !tbaa !8
  %4 = getelementptr inbounds %class.NedFileElement, ptr %0, i64 0, i32 1, i32 1
  store i64 0, ptr %4, align 8, !tbaa !12
  store i8 0, ptr %3, align 8, !tbaa !15
  %5 = getelementptr inbounds %class.NedFileElement, ptr %0, i64 0, i32 2
  %6 = getelementptr inbounds %class.NedFileElement, ptr %0, i64 0, i32 2, i32 2
  store ptr %6, ptr %5, align 8, !tbaa !8
  %7 = getelementptr inbounds %class.NedFileElement, ptr %0, i64 0, i32 2, i32 1
  store i64 0, ptr %7, align 8, !tbaa !12
  store i8 0, ptr %6, align 8, !tbaa !15
  invoke void @_ZN10NEDElement13applyDefaultsEv(ptr noundef nonnull align 8 dereferenceable(112) %0)
          to label %8 unwind label %9

8:                                                ; preds = %1
  ret void

9:                                                ; preds = %1
  %10 = landingpad { ptr, i32 }
          cleanup
  %11 = load ptr, ptr %5, align 8, !tbaa !16
  %12 = icmp eq ptr %11, %6
  br i1 %12, label %13, label %16

13:                                               ; preds = %9
  %14 = load i64, ptr %7, align 8, !tbaa !12
  %15 = icmp ult i64 %14, 16
  tail call void @llvm.assume(i1 %15)
  br label %17

16:                                               ; preds = %9
  tail call void @_ZdlPv(ptr noundef %11) #15
  br label %17

17:                                               ; preds = %16, %13
  %18 = load ptr, ptr %2, align 8, !tbaa !16
  %19 = icmp eq ptr %18, %3
  br i1 %19, label %20, label %23

20:                                               ; preds = %17
  %21 = load i64, ptr %4, align 8, !tbaa !12
  %22 = icmp ult i64 %21, 16
  tail call void @llvm.assume(i1 %22)
  br label %24

23:                                               ; preds = %17
  tail call void @_ZdlPv(ptr noundef %18) #15
  br label %24

24:                                               ; preds = %23, %20
  invoke void @_ZN10NEDElementD2Ev(ptr noundef nonnull align 8 dereferenceable(112) %0)
          to label %25 unwind label %26

25:                                               ; preds = %24
  resume { ptr, i32 } %10

26:                                               ; preds = %24
  %27 = landingpad { ptr, i32 }
          catch ptr null
  %28 = extractvalue { ptr, i32 } %27, 0
  tail call void @__clang_call_terminate(ptr %28) #12
  unreachable
}

; Function Attrs: sspstrong uwtable
define dso_local void @_ZN14NedFileElementC2EP10NEDElement(ptr noundef nonnull align 8 dereferenceable(176) %0, ptr noundef %1) unnamed_addr #0 align 2 personality ptr @__gxx_personality_v0 {
  tail call void @_ZN10NEDElementC2EPS_(ptr noundef nonnull align 8 dereferenceable(112) %0, ptr noundef %1)
  store ptr getelementptr inbounds ({ [49 x ptr] }, ptr @_ZTV14NedFileElement, i64 0, inrange i32 0, i64 2), ptr %0, align 8, !tbaa !5
  %3 = getelementptr inbounds %class.NedFileElement, ptr %0, i64 0, i32 1
  %4 = getelementptr inbounds %class.NedFileElement, ptr %0, i64 0, i32 1, i32 2
  store ptr %4, ptr %3, align 8, !tbaa !8
  %5 = getelementptr inbounds %class.NedFileElement, ptr %0, i64 0, i32 1, i32 1
  store i64 0, ptr %5, align 8, !tbaa !12
  store i8 0, ptr %4, align 8, !tbaa !15
  %6 = getelementptr inbounds %class.NedFileElement, ptr %0, i64 0, i32 2
  %7 = getelementptr inbounds %class.NedFileElement, ptr %0, i64 0, i32 2, i32 2
  store ptr %7, ptr %6, align 8, !tbaa !8
  %8 = getelementptr inbounds %class.NedFileElement, ptr %0, i64 0, i32 2, i32 1
  store i64 0, ptr %8, align 8, !tbaa !12
  store i8 0, ptr %7, align 8, !tbaa !15
  invoke void @_ZN10NEDElement13applyDefaultsEv(ptr noundef nonnull align 8 dereferenceable(112) %0)
          to label %9 unwind label %10

9:                                                ; preds = %2
  ret void

10:                                               ; preds = %2
  %11 = landingpad { ptr, i32 }
          cleanup
  %12 = load ptr, ptr %6, align 8, !tbaa !16
  %13 = icmp eq ptr %12, %7
  br i1 %13, label %14, label %17

14:                                               ; preds = %10
  %15 = load i64, ptr %8, align 8, !tbaa !12
  %16 = icmp ult i64 %15, 16
  tail call void @llvm.assume(i1 %16)
  br label %18

17:                                               ; preds = %10
  tail call void @_ZdlPv(ptr noundef %12) #15
  br label %18

18:                                               ; preds = %17, %14
  %19 = load ptr, ptr %3, align 8, !tbaa !16
  %20 = icmp eq ptr %19, %4
  br i1 %20, label %21, label %24

21:                                               ; preds = %18
  %22 = load i64, ptr %5, align 8, !tbaa !12
  %23 = icmp ult i64 %22, 16
  tail call void @llvm.assume(i1 %23)
  br label %25

24:                                               ; preds = %18
  tail call void @_ZdlPv(ptr noundef %19) #15
  br label %25

25:                                               ; preds = %24, %21
  invoke void @_ZN10NEDElementD2Ev(ptr noundef nonnull align 8 dereferenceable(112) %0)
          to label %26 unwind label %27

26:                                               ; preds = %25
  resume { ptr, i32 } %11

27:                                               ; preds = %25
  %28 = landingpad { ptr, i32 }
          catch ptr null
  %29 = extractvalue { ptr, i32 } %28, 0
  tail call void @__clang_call_terminate(ptr %29) #12
  unreachable
}

; Function Attrs: mustprogress nofree norecurse nosync nounwind sspstrong willreturn memory(none) uwtable
define dso_local noundef i32 @_ZNK14NedFileElement16getNumAttributesEv(ptr nocapture nonnull readnone align 8 %0) unnamed_addr #3 align 2 {
  ret i32 2
}

; Function Attrs: mustprogress nofree norecurse nosync nounwind sspstrong willreturn memory(none) uwtable
define dso_local noundef ptr @_ZNK14NedFileElement16getAttributeNameEi(ptr nocapture nonnull readnone align 8 %0, i32 noundef %1) unnamed_addr #3 align 2 {
  %3 = icmp eq i32 %1, 1
  %4 = select i1 %3, ptr @.str.1, ptr null
  %5 = icmp eq i32 %1, 0
  %6 = select i1 %5, ptr @.str, ptr %4
  ret ptr %6
}

; Function Attrs: mustprogress nofree norecurse nosync nounwind sspstrong willreturn memory(argmem: read) uwtable
define dso_local noundef ptr @_ZNK14NedFileElement12getAttributeEi(ptr nocapture noundef nonnull readonly align 8 dereferenceable(176) %0, i32 noundef %1) unnamed_addr #6 align 2 {
  switch i32 %1, label %9 [
    i32 0, label %3
    i32 1, label %6
  ]

3:                                                ; preds = %2
  %4 = getelementptr inbounds %class.NedFileElement, ptr %0, i64 0, i32 1
  %5 = load ptr, ptr %4, align 8, !tbaa !16
  br label %9

6:                                                ; preds = %2
  %7 = getelementptr inbounds %class.NedFileElement, ptr %0, i64 0, i32 2
  %8 = load ptr, ptr %7, align 8, !tbaa !16
  br label %9

9:                                                ; preds = %2, %6, %3
  %10 = phi ptr [ %8, %6 ], [ %5, %3 ], [ null, %2 ]
  ret ptr %10
}

; Function Attrs: sspstrong uwtable
define dso_local void @_ZN14NedFileElement12setAttributeEiPKc(ptr noundef nonnull align 8 dereferenceable(176) %0, i32 noundef %1, ptr noundef %2) unnamed_addr #0 align 2 {
  switch i32 %1, label %16 [
    i32 0, label %4
    i32 1, label %7
  ]

4:                                                ; preds = %3
  %5 = getelementptr inbounds %class.NedFileElement, ptr %0, i64 0, i32 1
  %6 = getelementptr inbounds %class.NedFileElement, ptr %0, i64 0, i32 1, i32 1
  br label %10

7:                                                ; preds = %3
  %8 = getelementptr inbounds %class.NedFileElement, ptr %0, i64 0, i32 2
  %9 = getelementptr inbounds %class.NedFileElement, ptr %0, i64 0, i32 2, i32 1
  br label %10

10:                                               ; preds = %4, %7
  %11 = phi ptr [ %9, %7 ], [ %6, %4 ]
  %12 = phi ptr [ %8, %7 ], [ %5, %4 ]
  %13 = load i64, ptr %11, align 8, !tbaa !12
  %14 = tail call i64 @strlen(ptr noundef nonnull dereferenceable(1) %2) #13
  %15 = tail call noundef nonnull align 8 dereferenceable(32) ptr @_ZNSt7__cxx1112basic_stringIcSt11char_traitsIcESaIcEE10_M_replaceEmmPKcm(ptr noundef nonnull align 8 dereferenceable(32) %12, i64 noundef 0, i64 noundef %13, ptr noundef %2, i64 noundef %14)
  br label %16

16:                                               ; preds = %10, %3
  ret void
}

; Function Attrs: mustprogress nofree norecurse nosync nounwind sspstrong willreturn memory(none) uwtable
define dso_local noundef ptr @_ZNK14NedFileElement19getAttributeDefaultEi(ptr nocapture nonnull readnone align 8 %0, i32 noundef %1) unnamed_addr #3 align 2 {
  %3 = icmp eq i32 %1, 1
  %4 = select i1 %3, ptr @.str.2, ptr null
  ret ptr %4
}

; Function Attrs: sspstrong uwtable
define dso_local noundef nonnull ptr @_ZNK14NedFileElement3dupEv(ptr noundef nonnull align 8 dereferenceable(176) %0) unnamed_addr #0 align 2 personality ptr @__gxx_personality_v0 {
  %2 = tail call noalias noundef nonnull dereferenceable(176) ptr @_Znwm(i64 noundef 176) #14
  invoke void @_ZN14NedFileElementC2Ev(ptr noundef nonnull align 8 dereferenceable(176) %2)
          to label %3 unwind label %8

3:                                                ; preds = %1
  %4 = getelementptr inbounds %class.NedFileElement, ptr %0, i64 0, i32 1
  %5 = getelementptr inbounds %class.NedFileElement, ptr %2, i64 0, i32 1
  tail call void @_ZNSt7__cxx1112basic_stringIcSt11char_traitsIcESaIcEE9_M_assignERKS4_(ptr noundef nonnull align 8 dereferenceable(32) %5, ptr noundef nonnull align 8 dereferenceable(32) %4)
  %6 = getelementptr inbounds %class.NedFileElement, ptr %0, i64 0, i32 2
  %7 = getelementptr inbounds %class.NedFileElement, ptr %2, i64 0, i32 2
  tail call void @_ZNSt7__cxx1112basic_stringIcSt11char_traitsIcESaIcEE9_M_assignERKS4_(ptr noundef nonnull align 8 dereferenceable(32) %7, ptr noundef nonnull align 8 dereferenceable(32) %6)
  ret ptr %2

8:                                                ; preds = %1
  %9 = landingpad { ptr, i32 }
          cleanup
  tail call void @_ZdlPv(ptr noundef nonnull %2) #15
  resume { ptr, i32 } %9
}

; Function Attrs: sspstrong uwtable
define dso_local noundef ptr @_ZNK14NedFileElement21getNextNedFileSiblingEv(ptr noundef nonnull align 8 dereferenceable(176) %0) unnamed_addr #0 align 2 {
  %2 = load ptr, ptr %0, align 8, !tbaa !5
  %3 = getelementptr inbounds ptr, ptr %2, i64 31
  %4 = load ptr, ptr %3, align 8
  %5 = tail call noundef ptr %4(ptr noundef nonnull align 8 dereferenceable(112) %0, i32 noundef 2)
  ret ptr %5
}

; Function Attrs: sspstrong uwtable
define dso_local noundef ptr @_ZNK14NedFileElement20getFirstCommentChildEv(ptr noundef nonnull align 8 dereferenceable(176) %0) unnamed_addr #0 align 2 {
  %2 = load ptr, ptr %0, align 8, !tbaa !5
  %3 = getelementptr inbounds ptr, ptr %2, i64 30
  %4 = load ptr, ptr %3, align 8
  %5 = tail call noundef ptr %4(ptr noundef nonnull align 8 dereferenceable(112) %0, i32 noundef 3)
  ret ptr %5
}

; Function Attrs: sspstrong uwtable
define dso_local noundef ptr @_ZNK14NedFileElement20getFirstPackageChildEv(ptr noundef nonnull align 8 dereferenceable(176) %0) unnamed_addr #0 align 2 {
  %2 = load ptr, ptr %0, align 8, !tbaa !5
  %3 = getelementptr inbounds ptr, ptr %2, i64 30
  %4 = load ptr, ptr %3, align 8
  %5 = tail call noundef ptr %4(ptr noundef nonnull align 8 dereferenceable(112) %0, i32 noundef 4)
  ret ptr %5
}

; Function Attrs: sspstrong uwtable
define dso_local noundef ptr @_ZNK14NedFileElement19getFirstImportChildEv(ptr noundef nonnull align 8 dereferenceable(176) %0) unnamed_addr #0 align 2 {
  %2 = load ptr, ptr %0, align 8, !tbaa !5
  %3 = getelementptr inbounds ptr, ptr %2, i64 30
  %4 = load ptr, ptr %3, align 8
  %5 = tail call noundef ptr %4(ptr noundef nonnull align 8 dereferenceable(112) %0, i32 noundef 5)
  ret ptr %5
}

; Function Attrs: sspstrong uwtable
define dso_local noundef ptr @_ZNK14NedFileElement25getFirstPropertyDeclChildEv(ptr noundef nonnull align 8 dereferenceable(176) %0) unnamed_addr #0 align 2 {
  %2 = load ptr, ptr %0, align 8, !tbaa !5
  %3 = getelementptr inbounds ptr, ptr %2, i64 30
  %4 = load ptr, ptr %3, align 8
  %5 = tail call noundef ptr %4(ptr noundef nonnull align 8 dereferenceable(112) %0, i32 noundef 6)
  ret ptr %5
}

; Function Attrs: sspstrong uwtable
define dso_local noundef ptr @_ZNK14NedFileElement21getFirstPropertyChildEv(ptr noundef nonnull align 8 dereferenceable(176) %0) unnamed_addr #0 align 2 {
  %2 = load ptr, ptr %0, align 8, !tbaa !5
  %3 = getelementptr inbounds ptr, ptr %2, i64 30
  %4 = load ptr, ptr %3, align 8
  %5 = tail call noundef ptr %4(ptr noundef nonnull align 8 dereferenceable(112) %0, i32 noundef 17)
  ret ptr %5
}

; Function Attrs: sspstrong uwtable
define dso_local noundef ptr @_ZNK14NedFileElement25getFirstSimpleModuleChildEv(ptr noundef nonnull align 8 dereferenceable(176) %0) unnamed_addr #0 align 2 {
  %2 = load ptr, ptr %0, align 8, !tbaa !5
  %3 = getelementptr inbounds ptr, ptr %2, i64 30
  %4 = load ptr, ptr %3, align 8
  %5 = tail call noundef ptr %4(ptr noundef nonnull align 8 dereferenceable(112) %0, i32 noundef 9)
  ret ptr %5
}

; Function Attrs: sspstrong uwtable
define dso_local noundef ptr @_ZNK14NedFileElement27getFirstCompoundModuleChildEv(ptr noundef nonnull align 8 dereferenceable(176) %0) unnamed_addr #0 align 2 {
  %2 = load ptr, ptr %0, align 8, !tbaa !5
  %3 = getelementptr inbounds ptr, ptr %2, i64 30
  %4 = load ptr, ptr %3, align 8
  %5 = tail call noundef ptr %4(ptr noundef nonnull align 8 dereferenceable(112) %0, i32 noundef 11)
  ret ptr %5
}

; Function Attrs: sspstrong uwtable
define dso_local noundef ptr @_ZNK14NedFileElement28getFirstModuleInterfaceChildEv(ptr noundef nonnull align 8 dereferenceable(176) %0) unnamed_addr #0 align 2 {
  %2 = load ptr, ptr %0, align 8, !tbaa !5
  %3 = getelementptr inbounds ptr, ptr %2, i64 30
  %4 = load ptr, ptr %3, align 8
  %5 = tail call noundef ptr %4(ptr noundef nonnull align 8 dereferenceable(112) %0, i32 noundef 10)
  ret ptr %5
}

; Function Attrs: sspstrong uwtable
define dso_local noundef ptr @_ZNK14NedFileElement20getFirstChannelChildEv(ptr noundef nonnull align 8 dereferenceable(176) %0) unnamed_addr #0 align 2 {
  %2 = load ptr, ptr %0, align 8, !tbaa !5
  %3 = getelementptr inbounds ptr, ptr %2, i64 30
  %4 = load ptr, ptr %3, align 8
  %5 = tail call noundef ptr %4(ptr noundef nonnull align 8 dereferenceable(112) %0, i32 noundef 13)
  ret ptr %5
}

; Function Attrs: sspstrong uwtable
define dso_local noundef ptr @_ZNK14NedFileElement29getFirstChannelInterfaceChildEv(ptr noundef nonnull align 8 dereferenceable(176) %0) unnamed_addr #0 align 2 {
  %2 = load ptr, ptr %0, align 8, !tbaa !5
  %3 = getelementptr inbounds ptr, ptr %2, i64 30
  %4 = load ptr, ptr %3, align 8
  %5 = tail call noundef ptr %4(ptr noundef nonnull align 8 dereferenceable(112) %0, i32 noundef 12)
  ret ptr %5
}

; Function Attrs: sspstrong uwtable
define dso_local void @_ZN14CommentElementC2Ev(ptr noundef nonnull align 8 dereferenceable(176) %0) unnamed_addr #0 align 2 personality ptr @__gxx_personality_v0 {
  tail call void @_ZN10NEDElementC2Ev(ptr noundef nonnull align 8 dereferenceable(112) %0)
  store ptr getelementptr inbounds ({ [39 x ptr] }, ptr @_ZTV14CommentElement, i64 0, inrange i32 0, i64 2), ptr %0, align 8, !tbaa !5
  %2 = getelementptr inbounds %class.CommentElement, ptr %0, i64 0, i32 1
  %3 = getelementptr inbounds %class.CommentElement, ptr %0, i64 0, i32 1, i32 2
  store ptr %3, ptr %2, align 8, !tbaa !8
  %4 = getelementptr inbounds %class.CommentElement, ptr %0, i64 0, i32 1, i32 1
  store i64 0, ptr %4, align 8, !tbaa !12
  store i8 0, ptr %3, align 8, !tbaa !15
  %5 = getelementptr inbounds %class.CommentElement, ptr %0, i64 0, i32 2
  %6 = getelementptr inbounds %class.CommentElement, ptr %0, i64 0, i32 2, i32 2
  store ptr %6, ptr %5, align 8, !tbaa !8
  %7 = getelementptr inbounds %class.CommentElement, ptr %0, i64 0, i32 2, i32 1
  store i64 0, ptr %7, align 8, !tbaa !12
  store i8 0, ptr %6, align 8, !tbaa !15
  invoke void @_ZN10NEDElement13applyDefaultsEv(ptr noundef nonnull align 8 dereferenceable(112) %0)
          to label %8 unwind label %9

8:                                                ; preds = %1
  ret void

9:                                                ; preds = %1
  %10 = landingpad { ptr, i32 }
          cleanup
  %11 = load ptr, ptr %5, align 8, !tbaa !16
  %12 = icmp eq ptr %11, %6
  br i1 %12, label %13, label %16

13:                                               ; preds = %9
  %14 = load i64, ptr %7, align 8, !tbaa !12
  %15 = icmp ult i64 %14, 16
  tail call void @llvm.assume(i1 %15)
  br label %17

16:                                               ; preds = %9
  tail call void @_ZdlPv(ptr noundef %11) #15
  br label %17

17:                                               ; preds = %16, %13
  %18 = load ptr, ptr %2, align 8, !tbaa !16
  %19 = icmp eq ptr %18, %3
  br i1 %19, label %20, label %23

20:                                               ; preds = %17
  %21 = load i64, ptr %4, align 8, !tbaa !12
  %22 = icmp ult i64 %21, 16
  tail call void @llvm.assume(i1 %22)
  br label %24

23:                                               ; preds = %17
  tail call void @_ZdlPv(ptr noundef %18) #15
  br label %24

24:                                               ; preds = %23, %20
  invoke void @_ZN10NEDElementD2Ev(ptr noundef nonnull align 8 dereferenceable(112) %0)
          to label %25 unwind label %26

25:                                               ; preds = %24
  resume { ptr, i32 } %10

26:                                               ; preds = %24
  %27 = landingpad { ptr, i32 }
          catch ptr null
  %28 = extractvalue { ptr, i32 } %27, 0
  tail call void @__clang_call_terminate(ptr %28) #12
  unreachable
}

; Function Attrs: sspstrong uwtable
define dso_local void @_ZN14CommentElementC2EP10NEDElement(ptr noundef nonnull align 8 dereferenceable(176) %0, ptr noundef %1) unnamed_addr #0 align 2 personality ptr @__gxx_personality_v0 {
  tail call void @_ZN10NEDElementC2EPS_(ptr noundef nonnull align 8 dereferenceable(112) %0, ptr noundef %1)
  store ptr getelementptr inbounds ({ [39 x ptr] }, ptr @_ZTV14CommentElement, i64 0, inrange i32 0, i64 2), ptr %0, align 8, !tbaa !5
  %3 = getelementptr inbounds %class.CommentElement, ptr %0, i64 0, i32 1
  %4 = getelementptr inbounds %class.CommentElement, ptr %0, i64 0, i32 1, i32 2
  store ptr %4, ptr %3, align 8, !tbaa !8
  %5 = getelementptr inbounds %class.CommentElement, ptr %0, i64 0, i32 1, i32 1
  store i64 0, ptr %5, align 8, !tbaa !12
  store i8 0, ptr %4, align 8, !tbaa !15
  %6 = getelementptr inbounds %class.CommentElement, ptr %0, i64 0, i32 2
  %7 = getelementptr inbounds %class.CommentElement, ptr %0, i64 0, i32 2, i32 2
  store ptr %7, ptr %6, align 8, !tbaa !8
  %8 = getelementptr inbounds %class.CommentElement, ptr %0, i64 0, i32 2, i32 1
  store i64 0, ptr %8, align 8, !tbaa !12
  store i8 0, ptr %7, align 8, !tbaa !15
  invoke void @_ZN10NEDElement13applyDefaultsEv(ptr noundef nonnull align 8 dereferenceable(112) %0)
          to label %9 unwind label %10

9:                                                ; preds = %2
  ret void

10:                                               ; preds = %2
  %11 = landingpad { ptr, i32 }
          cleanup
  %12 = load ptr, ptr %6, align 8, !tbaa !16
  %13 = icmp eq ptr %12, %7
  br i1 %13, label %14, label %17

14:                                               ; preds = %10
  %15 = load i64, ptr %8, align 8, !tbaa !12
  %16 = icmp ult i64 %15, 16
  tail call void @llvm.assume(i1 %16)
  br label %18

17:                                               ; preds = %10
  tail call void @_ZdlPv(ptr noundef %12) #15
  br label %18

18:                                               ; preds = %17, %14
  %19 = load ptr, ptr %3, align 8, !tbaa !16
  %20 = icmp eq ptr %19, %4
  br i1 %20, label %21, label %24

21:                                               ; preds = %18
  %22 = load i64, ptr %5, align 8, !tbaa !12
  %23 = icmp ult i64 %22, 16
  tail call void @llvm.assume(i1 %23)
  br label %25

24:                                               ; preds = %18
  tail call void @_ZdlPv(ptr noundef %19) #15
  br label %25

25:                                               ; preds = %24, %21
  invoke void @_ZN10NEDElementD2Ev(ptr noundef nonnull align 8 dereferenceable(112) %0)
          to label %26 unwind label %27

26:                                               ; preds = %25
  resume { ptr, i32 } %11

27:                                               ; preds = %25
  %28 = landingpad { ptr, i32 }
          catch ptr null
  %29 = extractvalue { ptr, i32 } %28, 0
  tail call void @__clang_call_terminate(ptr %29) #12
  unreachable
}

; Function Attrs: mustprogress nofree norecurse nosync nounwind sspstrong willreturn memory(none) uwtable
define dso_local noundef i32 @_ZNK14CommentElement16getNumAttributesEv(ptr nocapture nonnull readnone align 8 %0) unnamed_addr #3 align 2 {
  ret i32 2
}

; Function Attrs: mustprogress nofree norecurse nosync nounwind sspstrong willreturn memory(none) uwtable
define dso_local noundef ptr @_ZNK14CommentElement16getAttributeNameEi(ptr nocapture nonnull readnone align 8 %0, i32 noundef %1) unnamed_addr #3 align 2 {
  %3 = icmp eq i32 %1, 1
  %4 = select i1 %3, ptr @.str.4, ptr null
  %5 = icmp eq i32 %1, 0
  %6 = select i1 %5, ptr @.str.3, ptr %4
  ret ptr %6
}

; Function Attrs: mustprogress nofree norecurse nosync nounwind sspstrong willreturn memory(argmem: read) uwtable
define dso_local noundef ptr @_ZNK14CommentElement12getAttributeEi(ptr nocapture noundef nonnull readonly align 8 dereferenceable(176) %0, i32 noundef %1) unnamed_addr #6 align 2 {
  switch i32 %1, label %9 [
    i32 0, label %3
    i32 1, label %6
  ]

3:                                                ; preds = %2
  %4 = getelementptr inbounds %class.CommentElement, ptr %0, i64 0, i32 1
  %5 = load ptr, ptr %4, align 8, !tbaa !16
  br label %9

6:                                                ; preds = %2
  %7 = getelementptr inbounds %class.CommentElement, ptr %0, i64 0, i32 2
  %8 = load ptr, ptr %7, align 8, !tbaa !16
  br label %9

9:                                                ; preds = %2, %6, %3
  %10 = phi ptr [ %8, %6 ], [ %5, %3 ], [ null, %2 ]
  ret ptr %10
}

; Function Attrs: sspstrong uwtable
define dso_local void @_ZN14CommentElement12setAttributeEiPKc(ptr noundef nonnull align 8 dereferenceable(176) %0, i32 noundef %1, ptr noundef %2) unnamed_addr #0 align 2 {
  switch i32 %1, label %16 [
    i32 0, label %4
    i32 1, label %7
  ]

4:                                                ; preds = %3
  %5 = getelementptr inbounds %class.CommentElement, ptr %0, i64 0, i32 1
  %6 = getelementptr inbounds %class.CommentElement, ptr %0, i64 0, i32 1, i32 1
  br label %10

7:                                                ; preds = %3
  %8 = getelementptr inbounds %class.CommentElement, ptr %0, i64 0, i32 2
  %9 = getelementptr inbounds %class.CommentElement, ptr %0, i64 0, i32 2, i32 1
  br label %10

10:                                               ; preds = %4, %7
  %11 = phi ptr [ %9, %7 ], [ %6, %4 ]
  %12 = phi ptr [ %8, %7 ], [ %5, %4 ]
  %13 = load i64, ptr %11, align 8, !tbaa !12
  %14 = tail call i64 @strlen(ptr noundef nonnull dereferenceable(1) %2) #13
  %15 = tail call noundef nonnull align 8 dereferenceable(32) ptr @_ZNSt7__cxx1112basic_stringIcSt11char_traitsIcESaIcEE10_M_replaceEmmPKcm(ptr noundef nonnull align 8 dereferenceable(32) %12, i64 noundef 0, i64 noundef %13, ptr noundef %2, i64 noundef %14)
  br label %16

16:                                               ; preds = %10, %3
  ret void
}

; Function Attrs: mustprogress nofree norecurse nosync nounwind sspstrong willreturn memory(none) uwtable
define dso_local noundef ptr @_ZNK14CommentElement19getAttributeDefaultEi(ptr nocapture nonnull readnone align 8 %0, i32 noundef %1) unnamed_addr #3 align 2 {
  %3 = icmp eq i32 %1, 1
  %4 = select i1 %3, ptr @.str.5, ptr null
  ret ptr %4
}

; Function Attrs: sspstrong uwtable
define dso_local noundef nonnull ptr @_ZNK14CommentElement3dupEv(ptr noundef nonnull align 8 dereferenceable(176) %0) unnamed_addr #0 align 2 personality ptr @__gxx_personality_v0 {
  %2 = tail call noalias noundef nonnull dereferenceable(176) ptr @_Znwm(i64 noundef 176) #14
  invoke void @_ZN14CommentElementC2Ev(ptr noundef nonnull align 8 dereferenceable(176) %2)
          to label %3 unwind label %8

3:                                                ; preds = %1
  %4 = getelementptr inbounds %class.CommentElement, ptr %0, i64 0, i32 1
  %5 = getelementptr inbounds %class.CommentElement, ptr %2, i64 0, i32 1
  tail call void @_ZNSt7__cxx1112basic_stringIcSt11char_traitsIcESaIcEE9_M_assignERKS4_(ptr noundef nonnull align 8 dereferenceable(32) %5, ptr noundef nonnull align 8 dereferenceable(32) %4)
  %6 = getelementptr inbounds %class.CommentElement, ptr %0, i64 0, i32 2
  %7 = getelementptr inbounds %class.CommentElement, ptr %2, i64 0, i32 2
  tail call void @_ZNSt7__cxx1112basic_stringIcSt11char_traitsIcESaIcEE9_M_assignERKS4_(ptr noundef nonnull align 8 dereferenceable(32) %7, ptr noundef nonnull align 8 dereferenceable(32) %6)
  ret ptr %2

8:                                                ; preds = %1
  %9 = landingpad { ptr, i32 }
          cleanup
  tail call void @_ZdlPv(ptr noundef nonnull %2) #15
  resume { ptr, i32 } %9
}

; Function Attrs: sspstrong uwtable
define dso_local noundef ptr @_ZNK14CommentElement21getNextCommentSiblingEv(ptr noundef nonnull align 8 dereferenceable(176) %0) unnamed_addr #0 align 2 {
  %2 = load ptr, ptr %0, align 8, !tbaa !5
  %3 = getelementptr inbounds ptr, ptr %2, i64 31
  %4 = load ptr, ptr %3, align 8
  %5 = tail call noundef ptr %4(ptr noundef nonnull align 8 dereferenceable(112) %0, i32 noundef 3)
  ret ptr %5
}

; Function Attrs: sspstrong uwtable
define dso_local void @_ZN14PackageElementC2Ev(ptr noundef nonnull align 8 dereferenceable(144) %0) unnamed_addr #0 align 2 personality ptr @__gxx_personality_v0 {
  tail call void @_ZN10NEDElementC2Ev(ptr noundef nonnull align 8 dereferenceable(112) %0)
  store ptr getelementptr inbounds ({ [40 x ptr] }, ptr @_ZTV14PackageElement, i64 0, inrange i32 0, i64 2), ptr %0, align 8, !tbaa !5
  %2 = getelementptr inbounds %class.PackageElement, ptr %0, i64 0, i32 1
  %3 = getelementptr inbounds %class.PackageElement, ptr %0, i64 0, i32 1, i32 2
  store ptr %3, ptr %2, align 8, !tbaa !8
  %4 = getelementptr inbounds %class.PackageElement, ptr %0, i64 0, i32 1, i32 1
  store i64 0, ptr %4, align 8, !tbaa !12
  store i8 0, ptr %3, align 8, !tbaa !15
  invoke void @_ZN10NEDElement13applyDefaultsEv(ptr noundef nonnull align 8 dereferenceable(112) %0)
          to label %5 unwind label %6

5:                                                ; preds = %1
  ret void

6:                                                ; preds = %1
  %7 = landingpad { ptr, i32 }
          cleanup
  %8 = load ptr, ptr %2, align 8, !tbaa !16
  %9 = icmp eq ptr %8, %3
  br i1 %9, label %10, label %13

10:                                               ; preds = %6
  %11 = load i64, ptr %4, align 8, !tbaa !12
  %12 = icmp ult i64 %11, 16
  tail call void @llvm.assume(i1 %12)
  br label %14

13:                                               ; preds = %6
  tail call void @_ZdlPv(ptr noundef %8) #15
  br label %14

14:                                               ; preds = %13, %10
  invoke void @_ZN10NEDElementD2Ev(ptr noundef nonnull align 8 dereferenceable(112) %0)
          to label %15 unwind label %16

15:                                               ; preds = %14
  resume { ptr, i32 } %7

16:                                               ; preds = %14
  %17 = landingpad { ptr, i32 }
          catch ptr null
  %18 = extractvalue { ptr, i32 } %17, 0
  tail call void @__clang_call_terminate(ptr %18) #12
  unreachable
}

; Function Attrs: sspstrong uwtable
define dso_local void @_ZN14PackageElementC2EP10NEDElement(ptr noundef nonnull align 8 dereferenceable(144) %0, ptr noundef %1) unnamed_addr #0 align 2 personality ptr @__gxx_personality_v0 {
  tail call void @_ZN10NEDElementC2EPS_(ptr noundef nonnull align 8 dereferenceable(112) %0, ptr noundef %1)
  store ptr getelementptr inbounds ({ [40 x ptr] }, ptr @_ZTV14PackageElement, i64 0, inrange i32 0, i64 2), ptr %0, align 8, !tbaa !5
  %3 = getelementptr inbounds %class.PackageElement, ptr %0, i64 0, i32 1
  %4 = getelementptr inbounds %class.PackageElement, ptr %0, i64 0, i32 1, i32 2
  store ptr %4, ptr %3, align 8, !tbaa !8
  %5 = getelementptr inbounds %class.PackageElement, ptr %0, i64 0, i32 1, i32 1
  store i64 0, ptr %5, align 8, !tbaa !12
  store i8 0, ptr %4, align 8, !tbaa !15
  invoke void @_ZN10NEDElement13applyDefaultsEv(ptr noundef nonnull align 8 dereferenceable(112) %0)
          to label %6 unwind label %7

6:                                                ; preds = %2
  ret void

7:                                                ; preds = %2
  %8 = landingpad { ptr, i32 }
          cleanup
  %9 = load ptr, ptr %3, align 8, !tbaa !16
  %10 = icmp eq ptr %9, %4
  br i1 %10, label %11, label %14

11:                                               ; preds = %7
  %12 = load i64, ptr %5, align 8, !tbaa !12
  %13 = icmp ult i64 %12, 16
  tail call void @llvm.assume(i1 %13)
  br label %15

14:                                               ; preds = %7
  tail call void @_ZdlPv(ptr noundef %9) #15
  br label %15

15:                                               ; preds = %14, %11
  invoke void @_ZN10NEDElementD2Ev(ptr noundef nonnull align 8 dereferenceable(112) %0)
          to label %16 unwind label %17

16:                                               ; preds = %15
  resume { ptr, i32 } %8

17:                                               ; preds = %15
  %18 = landingpad { ptr, i32 }
          catch ptr null
  %19 = extractvalue { ptr, i32 } %18, 0
  tail call void @__clang_call_terminate(ptr %19) #12
  unreachable
}

; Function Attrs: mustprogress nofree norecurse nosync nounwind sspstrong willreturn memory(none) uwtable
define dso_local noundef i32 @_ZNK14PackageElement16getNumAttributesEv(ptr nocapture nonnull readnone align 8 %0) unnamed_addr #3 align 2 {
  ret i32 1
}

; Function Attrs: mustprogress nofree norecurse nosync nounwind sspstrong willreturn memory(none) uwtable
define dso_local noundef ptr @_ZNK14PackageElement16getAttributeNameEi(ptr nocapture nonnull readnone align 8 %0, i32 noundef %1) unnamed_addr #3 align 2 {
  %3 = icmp eq i32 %1, 0
  %4 = select i1 %3, ptr @.str.6, ptr null
  ret ptr %4
}

; Function Attrs: mustprogress nofree norecurse nosync nounwind sspstrong willreturn memory(argmem: read) uwtable
define dso_local noundef ptr @_ZNK14PackageElement12getAttributeEi(ptr nocapture noundef nonnull readonly align 8 dereferenceable(144) %0, i32 noundef %1) unnamed_addr #6 align 2 {
  %3 = icmp eq i32 %1, 0
  %4 = getelementptr inbounds %class.PackageElement, ptr %0, i64 0, i32 1
  %5 = load ptr, ptr %4, align 8
  %6 = select i1 %3, ptr %5, ptr null
  ret ptr %6
}

; Function Attrs: sspstrong uwtable
define dso_local void @_ZN14PackageElement12setAttributeEiPKc(ptr noundef nonnull align 8 dereferenceable(144) %0, i32 noundef %1, ptr noundef %2) unnamed_addr #0 align 2 {
  %4 = icmp eq i32 %1, 0
  br i1 %4, label %5, label %11

5:                                                ; preds = %3
  %6 = getelementptr inbounds %class.PackageElement, ptr %0, i64 0, i32 1
  %7 = getelementptr inbounds %class.PackageElement, ptr %0, i64 0, i32 1, i32 1
  %8 = load i64, ptr %7, align 8, !tbaa !12
  %9 = tail call i64 @strlen(ptr noundef nonnull dereferenceable(1) %2) #13
  %10 = tail call noundef nonnull align 8 dereferenceable(32) ptr @_ZNSt7__cxx1112basic_stringIcSt11char_traitsIcESaIcEE10_M_replaceEmmPKcm(ptr noundef nonnull align 8 dereferenceable(32) %6, i64 noundef 0, i64 noundef %8, ptr noundef %2, i64 noundef %9)
  br label %11

11:                                               ; preds = %3, %5
  ret void
}

; Function Attrs: mustprogress nofree norecurse nosync nounwind sspstrong willreturn memory(none) uwtable
define dso_local noalias noundef ptr @_ZNK14PackageElement19getAttributeDefaultEi(ptr nocapture nonnull readnone align 8 %0, i32 %1) unnamed_addr #3 align 2 {
  ret ptr null
}

; Function Attrs: sspstrong uwtable
define dso_local noundef nonnull ptr @_ZNK14PackageElement3dupEv(ptr noundef nonnull align 8 dereferenceable(144) %0) unnamed_addr #0 align 2 personality ptr @__gxx_personality_v0 {
  %2 = tail call noalias noundef nonnull dereferenceable(144) ptr @_Znwm(i64 noundef 144) #14
  invoke void @_ZN10NEDElementC2Ev(ptr noundef nonnull align 8 dereferenceable(112) %2)
          to label %3 unwind label %21

3:                                                ; preds = %1
  store ptr getelementptr inbounds ({ [40 x ptr] }, ptr @_ZTV14PackageElement, i64 0, inrange i32 0, i64 2), ptr %2, align 8, !tbaa !5
  %4 = getelementptr inbounds %class.PackageElement, ptr %2, i64 0, i32 1
  %5 = getelementptr inbounds %class.PackageElement, ptr %2, i64 0, i32 1, i32 2
  store ptr %5, ptr %4, align 8, !tbaa !8
  %6 = getelementptr inbounds %class.PackageElement, ptr %2, i64 0, i32 1, i32 1
  store i64 0, ptr %6, align 8, !tbaa !12
  store i8 0, ptr %5, align 8, !tbaa !15
  invoke void @_ZN10NEDElement13applyDefaultsEv(ptr noundef nonnull align 8 dereferenceable(112) %2)
          to label %19 unwind label %7

7:                                                ; preds = %3
  %8 = landingpad { ptr, i32 }
          cleanup
  %9 = load ptr, ptr %4, align 8, !tbaa !16
  %10 = icmp eq ptr %9, %5
  br i1 %10, label %11, label %14

11:                                               ; preds = %7
  %12 = load i64, ptr %6, align 8, !tbaa !12
  %13 = icmp ult i64 %12, 16
  tail call void @llvm.assume(i1 %13)
  br label %15

14:                                               ; preds = %7
  tail call void @_ZdlPv(ptr noundef %9) #15
  br label %15

15:                                               ; preds = %14, %11
  invoke void @_ZN10NEDElementD2Ev(ptr noundef nonnull align 8 dereferenceable(112) %2)
          to label %23 unwind label %16

16:                                               ; preds = %15
  %17 = landingpad { ptr, i32 }
          catch ptr null
  %18 = extractvalue { ptr, i32 } %17, 0
  tail call void @__clang_call_terminate(ptr %18) #12
  unreachable

19:                                               ; preds = %3
  %20 = getelementptr inbounds %class.PackageElement, ptr %0, i64 0, i32 1
  tail call void @_ZNSt7__cxx1112basic_stringIcSt11char_traitsIcESaIcEE9_M_assignERKS4_(ptr noundef nonnull align 8 dereferenceable(32) %4, ptr noundef nonnull align 8 dereferenceable(32) %20)
  ret ptr %2

21:                                               ; preds = %1
  %22 = landingpad { ptr, i32 }
          cleanup
  br label %23

23:                                               ; preds = %15, %21
  %24 = phi { ptr, i32 } [ %22, %21 ], [ %8, %15 ]
  tail call void @_ZdlPv(ptr noundef nonnull %2) #15
  resume { ptr, i32 } %24
}

; Function Attrs: sspstrong uwtable
define dso_local noundef ptr @_ZNK14PackageElement21getNextPackageSiblingEv(ptr noundef nonnull align 8 dereferenceable(144) %0) unnamed_addr #0 align 2 {
  %2 = load ptr, ptr %0, align 8, !tbaa !5
  %3 = getelementptr inbounds ptr, ptr %2, i64 31
  %4 = load ptr, ptr %3, align 8
  %5 = tail call noundef ptr %4(ptr noundef nonnull align 8 dereferenceable(112) %0, i32 noundef 4)
  ret ptr %5
}

; Function Attrs: sspstrong uwtable
define dso_local noundef ptr @_ZNK14PackageElement20getFirstCommentChildEv(ptr noundef nonnull align 8 dereferenceable(144) %0) unnamed_addr #0 align 2 {
  %2 = load ptr, ptr %0, align 8, !tbaa !5
  %3 = getelementptr inbounds ptr, ptr %2, i64 30
  %4 = load ptr, ptr %3, align 8
  %5 = tail call noundef ptr %4(ptr noundef nonnull align 8 dereferenceable(112) %0, i32 noundef 3)
  ret ptr %5
}

; Function Attrs: sspstrong uwtable
define dso_local void @_ZN13ImportElementC2Ev(ptr noundef nonnull align 8 dereferenceable(144) %0) unnamed_addr #0 align 2 personality ptr @__gxx_personality_v0 {
  tail call void @_ZN10NEDElementC2Ev(ptr noundef nonnull align 8 dereferenceable(112) %0)
  store ptr getelementptr inbounds ({ [40 x ptr] }, ptr @_ZTV13ImportElement, i64 0, inrange i32 0, i64 2), ptr %0, align 8, !tbaa !5
  %2 = getelementptr inbounds %class.ImportElement, ptr %0, i64 0, i32 1
  %3 = getelementptr inbounds %class.ImportElement, ptr %0, i64 0, i32 1, i32 2
  store ptr %3, ptr %2, align 8, !tbaa !8
  %4 = getelementptr inbounds %class.ImportElement, ptr %0, i64 0, i32 1, i32 1
  store i64 0, ptr %4, align 8, !tbaa !12
  store i8 0, ptr %3, align 8, !tbaa !15
  invoke void @_ZN10NEDElement13applyDefaultsEv(ptr noundef nonnull align 8 dereferenceable(112) %0)
          to label %5 unwind label %6

5:                                                ; preds = %1
  ret void

6:                                                ; preds = %1
  %7 = landingpad { ptr, i32 }
          cleanup
  %8 = load ptr, ptr %2, align 8, !tbaa !16
  %9 = icmp eq ptr %8, %3
  br i1 %9, label %10, label %13

10:                                               ; preds = %6
  %11 = load i64, ptr %4, align 8, !tbaa !12
  %12 = icmp ult i64 %11, 16
  tail call void @llvm.assume(i1 %12)
  br label %14

13:                                               ; preds = %6
  tail call void @_ZdlPv(ptr noundef %8) #15
  br label %14

14:                                               ; preds = %13, %10
  invoke void @_ZN10NEDElementD2Ev(ptr noundef nonnull align 8 dereferenceable(112) %0)
          to label %15 unwind label %16

15:                                               ; preds = %14
  resume { ptr, i32 } %7

16:                                               ; preds = %14
  %17 = landingpad { ptr, i32 }
          catch ptr null
  %18 = extractvalue { ptr, i32 } %17, 0
  tail call void @__clang_call_terminate(ptr %18) #12
  unreachable
}

; Function Attrs: sspstrong uwtable
define dso_local void @_ZN13ImportElementC2EP10NEDElement(ptr noundef nonnull align 8 dereferenceable(144) %0, ptr noundef %1) unnamed_addr #0 align 2 personality ptr @__gxx_personality_v0 {
  tail call void @_ZN10NEDElementC2EPS_(ptr noundef nonnull align 8 dereferenceable(112) %0, ptr noundef %1)
  store ptr getelementptr inbounds ({ [40 x ptr] }, ptr @_ZTV13ImportElement, i64 0, inrange i32 0, i64 2), ptr %0, align 8, !tbaa !5
  %3 = getelementptr inbounds %class.ImportElement, ptr %0, i64 0, i32 1
  %4 = getelementptr inbounds %class.ImportElement, ptr %0, i64 0, i32 1, i32 2
  store ptr %4, ptr %3, align 8, !tbaa !8
  %5 = getelementptr inbounds %class.ImportElement, ptr %0, i64 0, i32 1, i32 1
  store i64 0, ptr %5, align 8, !tbaa !12
  store i8 0, ptr %4, align 8, !tbaa !15
  invoke void @_ZN10NEDElement13applyDefaultsEv(ptr noundef nonnull align 8 dereferenceable(112) %0)
          to label %6 unwind label %7

6:                                                ; preds = %2
  ret void

7:                                                ; preds = %2
  %8 = landingpad { ptr, i32 }
          cleanup
  %9 = load ptr, ptr %3, align 8, !tbaa !16
  %10 = icmp eq ptr %9, %4
  br i1 %10, label %11, label %14

11:                                               ; preds = %7
  %12 = load i64, ptr %5, align 8, !tbaa !12
  %13 = icmp ult i64 %12, 16
  tail call void @llvm.assume(i1 %13)
  br label %15

14:                                               ; preds = %7
  tail call void @_ZdlPv(ptr noundef %9) #15
  br label %15

15:                                               ; preds = %14, %11
  invoke void @_ZN10NEDElementD2Ev(ptr noundef nonnull align 8 dereferenceable(112) %0)
          to label %16 unwind label %17

16:                                               ; preds = %15
  resume { ptr, i32 } %8

17:                                               ; preds = %15
  %18 = landingpad { ptr, i32 }
          catch ptr null
  %19 = extractvalue { ptr, i32 } %18, 0
  tail call void @__clang_call_terminate(ptr %19) #12
  unreachable
}

; Function Attrs: mustprogress nofree norecurse nosync nounwind sspstrong willreturn memory(none) uwtable
define dso_local noundef i32 @_ZNK13ImportElement16getNumAttributesEv(ptr nocapture nonnull readnone align 8 %0) unnamed_addr #3 align 2 {
  ret i32 1
}

; Function Attrs: mustprogress nofree norecurse nosync nounwind sspstrong willreturn memory(none) uwtable
define dso_local noundef ptr @_ZNK13ImportElement16getAttributeNameEi(ptr nocapture nonnull readnone align 8 %0, i32 noundef %1) unnamed_addr #3 align 2 {
  %3 = icmp eq i32 %1, 0
  %4 = select i1 %3, ptr @.str.7, ptr null
  ret ptr %4
}

; Function Attrs: mustprogress nofree norecurse nosync nounwind sspstrong willreturn memory(argmem: read) uwtable
define dso_local noundef ptr @_ZNK13ImportElement12getAttributeEi(ptr nocapture noundef nonnull readonly align 8 dereferenceable(144) %0, i32 noundef %1) unnamed_addr #6 align 2 {
  %3 = icmp eq i32 %1, 0
  %4 = getelementptr inbounds %class.ImportElement, ptr %0, i64 0, i32 1
  %5 = load ptr, ptr %4, align 8
  %6 = select i1 %3, ptr %5, ptr null
  ret ptr %6
}

; Function Attrs: sspstrong uwtable
define dso_local void @_ZN13ImportElement12setAttributeEiPKc(ptr noundef nonnull align 8 dereferenceable(144) %0, i32 noundef %1, ptr noundef %2) unnamed_addr #0 align 2 {
  %4 = icmp eq i32 %1, 0
  br i1 %4, label %5, label %11

5:                                                ; preds = %3
  %6 = getelementptr inbounds %class.ImportElement, ptr %0, i64 0, i32 1
  %7 = getelementptr inbounds %class.ImportElement, ptr %0, i64 0, i32 1, i32 1
  %8 = load i64, ptr %7, align 8, !tbaa !12
  %9 = tail call i64 @strlen(ptr noundef nonnull dereferenceable(1) %2) #13
  %10 = tail call noundef nonnull align 8 dereferenceable(32) ptr @_ZNSt7__cxx1112basic_stringIcSt11char_traitsIcESaIcEE10_M_replaceEmmPKcm(ptr noundef nonnull align 8 dereferenceable(32) %6, i64 noundef 0, i64 noundef %8, ptr noundef %2, i64 noundef %9)
  br label %11

11:                                               ; preds = %3, %5
  ret void
}

; Function Attrs: mustprogress nofree norecurse nosync nounwind sspstrong willreturn memory(none) uwtable
define dso_local noalias noundef ptr @_ZNK13ImportElement19getAttributeDefaultEi(ptr nocapture nonnull readnone align 8 %0, i32 %1) unnamed_addr #3 align 2 {
  ret ptr null
}

; Function Attrs: sspstrong uwtable
define dso_local noundef nonnull ptr @_ZNK13ImportElement3dupEv(ptr noundef nonnull align 8 dereferenceable(144) %0) unnamed_addr #0 align 2 personality ptr @__gxx_personality_v0 {
  %2 = tail call noalias noundef nonnull dereferenceable(144) ptr @_Znwm(i64 noundef 144) #14
  invoke void @_ZN10NEDElementC2Ev(ptr noundef nonnull align 8 dereferenceable(112) %2)
          to label %3 unwind label %21

3:                                                ; preds = %1
  store ptr getelementptr inbounds ({ [40 x ptr] }, ptr @_ZTV13ImportElement, i64 0, inrange i32 0, i64 2), ptr %2, align 8, !tbaa !5
  %4 = getelementptr inbounds %class.ImportElement, ptr %2, i64 0, i32 1
  %5 = getelementptr inbounds %class.ImportElement, ptr %2, i64 0, i32 1, i32 2
  store ptr %5, ptr %4, align 8, !tbaa !8
  %6 = getelementptr inbounds %class.ImportElement, ptr %2, i64 0, i32 1, i32 1
  store i64 0, ptr %6, align 8, !tbaa !12
  store i8 0, ptr %5, align 8, !tbaa !15
  invoke void @_ZN10NEDElement13applyDefaultsEv(ptr noundef nonnull align 8 dereferenceable(112) %2)
          to label %19 unwind label %7

7:                                                ; preds = %3
  %8 = landingpad { ptr, i32 }
          cleanup
  %9 = load ptr, ptr %4, align 8, !tbaa !16
  %10 = icmp eq ptr %9, %5
  br i1 %10, label %11, label %14

11:                                               ; preds = %7
  %12 = load i64, ptr %6, align 8, !tbaa !12
  %13 = icmp ult i64 %12, 16
  tail call void @llvm.assume(i1 %13)
  br label %15

14:                                               ; preds = %7
  tail call void @_ZdlPv(ptr noundef %9) #15
  br label %15

15:                                               ; preds = %14, %11
  invoke void @_ZN10NEDElementD2Ev(ptr noundef nonnull align 8 dereferenceable(112) %2)
          to label %23 unwind label %16

16:                                               ; preds = %15
  %17 = landingpad { ptr, i32 }
          catch ptr null
  %18 = extractvalue { ptr, i32 } %17, 0
  tail call void @__clang_call_terminate(ptr %18) #12
  unreachable

19:                                               ; preds = %3
  %20 = getelementptr inbounds %class.ImportElement, ptr %0, i64 0, i32 1
  tail call void @_ZNSt7__cxx1112basic_stringIcSt11char_traitsIcESaIcEE9_M_assignERKS4_(ptr noundef nonnull align 8 dereferenceable(32) %4, ptr noundef nonnull align 8 dereferenceable(32) %20)
  ret ptr %2

21:                                               ; preds = %1
  %22 = landingpad { ptr, i32 }
          cleanup
  br label %23

23:                                               ; preds = %15, %21
  %24 = phi { ptr, i32 } [ %22, %21 ], [ %8, %15 ]
  tail call void @_ZdlPv(ptr noundef nonnull %2) #15
  resume { ptr, i32 } %24
}

; Function Attrs: sspstrong uwtable
define dso_local noundef ptr @_ZNK13ImportElement20getNextImportSiblingEv(ptr noundef nonnull align 8 dereferenceable(144) %0) unnamed_addr #0 align 2 {
  %2 = load ptr, ptr %0, align 8, !tbaa !5
  %3 = getelementptr inbounds ptr, ptr %2, i64 31
  %4 = load ptr, ptr %3, align 8
  %5 = tail call noundef ptr %4(ptr noundef nonnull align 8 dereferenceable(112) %0, i32 noundef 5)
  ret ptr %5
}

; Function Attrs: sspstrong uwtable
define dso_local noundef ptr @_ZNK13ImportElement20getFirstCommentChildEv(ptr noundef nonnull align 8 dereferenceable(144) %0) unnamed_addr #0 align 2 {
  %2 = load ptr, ptr %0, align 8, !tbaa !5
  %3 = getelementptr inbounds ptr, ptr %2, i64 30
  %4 = load ptr, ptr %3, align 8
  %5 = tail call noundef ptr %4(ptr noundef nonnull align 8 dereferenceable(112) %0, i32 noundef 3)
  ret ptr %5
}

; Function Attrs: sspstrong uwtable
define dso_local void @_ZN19PropertyDeclElementC2Ev(ptr noundef nonnull align 8 dereferenceable(145) %0) unnamed_addr #0 align 2 personality ptr @__gxx_personality_v0 {
  tail call void @_ZN10NEDElementC2Ev(ptr noundef nonnull align 8 dereferenceable(112) %0)
  store ptr getelementptr inbounds ({ [42 x ptr] }, ptr @_ZTV19PropertyDeclElement, i64 0, inrange i32 0, i64 2), ptr %0, align 8, !tbaa !5
  %2 = getelementptr inbounds %class.PropertyDeclElement, ptr %0, i64 0, i32 1
  %3 = getelementptr inbounds %class.PropertyDeclElement, ptr %0, i64 0, i32 1, i32 2
  store ptr %3, ptr %2, align 8, !tbaa !8
  %4 = getelementptr inbounds %class.PropertyDeclElement, ptr %0, i64 0, i32 1, i32 1
  store i64 0, ptr %4, align 8, !tbaa !12
  store i8 0, ptr %3, align 8, !tbaa !15
  %5 = getelementptr inbounds %class.PropertyDeclElement, ptr %0, i64 0, i32 2
  store i8 0, ptr %5, align 8, !tbaa !17
  invoke void @_ZN10NEDElement13applyDefaultsEv(ptr noundef nonnull align 8 dereferenceable(112) %0)
          to label %6 unwind label %7

6:                                                ; preds = %1
  ret void

7:                                                ; preds = %1
  %8 = landingpad { ptr, i32 }
          cleanup
  %9 = load ptr, ptr %2, align 8, !tbaa !16
  %10 = icmp eq ptr %9, %3
  br i1 %10, label %11, label %14

11:                                               ; preds = %7
  %12 = load i64, ptr %4, align 8, !tbaa !12
  %13 = icmp ult i64 %12, 16
  tail call void @llvm.assume(i1 %13)
  br label %15

14:                                               ; preds = %7
  tail call void @_ZdlPv(ptr noundef %9) #15
  br label %15

15:                                               ; preds = %14, %11
  invoke void @_ZN10NEDElementD2Ev(ptr noundef nonnull align 8 dereferenceable(112) %0)
          to label %16 unwind label %17

16:                                               ; preds = %15
  resume { ptr, i32 } %8

17:                                               ; preds = %15
  %18 = landingpad { ptr, i32 }
          catch ptr null
  %19 = extractvalue { ptr, i32 } %18, 0
  tail call void @__clang_call_terminate(ptr %19) #12
  unreachable
}

; Function Attrs: sspstrong uwtable
define dso_local void @_ZN19PropertyDeclElementC2EP10NEDElement(ptr noundef nonnull align 8 dereferenceable(145) %0, ptr noundef %1) unnamed_addr #0 align 2 personality ptr @__gxx_personality_v0 {
  tail call void @_ZN10NEDElementC2EPS_(ptr noundef nonnull align 8 dereferenceable(112) %0, ptr noundef %1)
  store ptr getelementptr inbounds ({ [42 x ptr] }, ptr @_ZTV19PropertyDeclElement, i64 0, inrange i32 0, i64 2), ptr %0, align 8, !tbaa !5
  %3 = getelementptr inbounds %class.PropertyDeclElement, ptr %0, i64 0, i32 1
  %4 = getelementptr inbounds %class.PropertyDeclElement, ptr %0, i64 0, i32 1, i32 2
  store ptr %4, ptr %3, align 8, !tbaa !8
  %5 = getelementptr inbounds %class.PropertyDeclElement, ptr %0, i64 0, i32 1, i32 1
  store i64 0, ptr %5, align 8, !tbaa !12
  store i8 0, ptr %4, align 8, !tbaa !15
  %6 = getelementptr inbounds %class.PropertyDeclElement, ptr %0, i64 0, i32 2
  store i8 0, ptr %6, align 8, !tbaa !17
  invoke void @_ZN10NEDElement13applyDefaultsEv(ptr noundef nonnull align 8 dereferenceable(112) %0)
          to label %7 unwind label %8

7:                                                ; preds = %2
  ret void

8:                                                ; preds = %2
  %9 = landingpad { ptr, i32 }
          cleanup
  %10 = load ptr, ptr %3, align 8, !tbaa !16
  %11 = icmp eq ptr %10, %4
  br i1 %11, label %12, label %15

12:                                               ; preds = %8
  %13 = load i64, ptr %5, align 8, !tbaa !12
  %14 = icmp ult i64 %13, 16
  tail call void @llvm.assume(i1 %14)
  br label %16

15:                                               ; preds = %8
  tail call void @_ZdlPv(ptr noundef %10) #15
  br label %16

16:                                               ; preds = %15, %12
  invoke void @_ZN10NEDElementD2Ev(ptr noundef nonnull align 8 dereferenceable(112) %0)
          to label %17 unwind label %18

17:                                               ; preds = %16
  resume { ptr, i32 } %9

18:                                               ; preds = %16
  %19 = landingpad { ptr, i32 }
          catch ptr null
  %20 = extractvalue { ptr, i32 } %19, 0
  tail call void @__clang_call_terminate(ptr %20) #12
  unreachable
}

; Function Attrs: mustprogress nofree norecurse nosync nounwind sspstrong willreturn memory(none) uwtable
define dso_local noundef i32 @_ZNK19PropertyDeclElement16getNumAttributesEv(ptr nocapture nonnull readnone align 8 %0) unnamed_addr #3 align 2 {
  ret i32 2
}

; Function Attrs: mustprogress nofree norecurse nosync nounwind sspstrong willreturn memory(none) uwtable
define dso_local noundef ptr @_ZNK19PropertyDeclElement16getAttributeNameEi(ptr nocapture nonnull readnone align 8 %0, i32 noundef %1) unnamed_addr #3 align 2 {
  %3 = icmp eq i32 %1, 1
  %4 = select i1 %3, ptr @.str.8, ptr null
  %5 = icmp eq i32 %1, 0
  %6 = select i1 %5, ptr @.str.6, ptr %4
  ret ptr %6
}

; Function Attrs: sspstrong uwtable
define dso_local noundef ptr @_ZNK19PropertyDeclElement12getAttributeEi(ptr nocapture noundef nonnull readonly align 8 dereferenceable(145) %0, i32 noundef %1) unnamed_addr #0 align 2 {
  switch i32 %1, label %11 [
    i32 0, label %3
    i32 1, label %6
  ]

3:                                                ; preds = %2
  %4 = getelementptr inbounds %class.PropertyDeclElement, ptr %0, i64 0, i32 1
  %5 = load ptr, ptr %4, align 8, !tbaa !16
  br label %11

6:                                                ; preds = %2
  %7 = getelementptr inbounds %class.PropertyDeclElement, ptr %0, i64 0, i32 2
  %8 = load i8, ptr %7, align 8, !tbaa !17, !range !23, !noundef !24
  %9 = icmp ne i8 %8, 0
  %10 = tail call noundef ptr @_ZN10NEDElement12boolToStringEb(i1 noundef zeroext %9)
  br label %11

11:                                               ; preds = %2, %6, %3
  %12 = phi ptr [ %10, %6 ], [ %5, %3 ], [ null, %2 ]
  ret ptr %12
}

declare noundef ptr @_ZN10NEDElement12boolToStringEb(i1 noundef zeroext) local_unnamed_addr #1

; Function Attrs: sspstrong uwtable
define dso_local void @_ZN19PropertyDeclElement12setAttributeEiPKc(ptr noundef nonnull align 8 dereferenceable(145) %0, i32 noundef %1, ptr noundef %2) unnamed_addr #0 align 2 {
  switch i32 %1, label %14 [
    i32 0, label %4
    i32 1, label %10
  ]

4:                                                ; preds = %3
  %5 = getelementptr inbounds %class.PropertyDeclElement, ptr %0, i64 0, i32 1
  %6 = getelementptr inbounds %class.PropertyDeclElement, ptr %0, i64 0, i32 1, i32 1
  %7 = load i64, ptr %6, align 8, !tbaa !12
  %8 = tail call i64 @strlen(ptr noundef nonnull dereferenceable(1) %2) #13
  %9 = tail call noundef nonnull align 8 dereferenceable(32) ptr @_ZNSt7__cxx1112basic_stringIcSt11char_traitsIcESaIcEE10_M_replaceEmmPKcm(ptr noundef nonnull align 8 dereferenceable(32) %5, i64 noundef 0, i64 noundef %7, ptr noundef %2, i64 noundef %8)
  br label %14

10:                                               ; preds = %3
  %11 = tail call noundef zeroext i1 @_ZN10NEDElement12stringToBoolEPKc(ptr noundef %2)
  %12 = getelementptr inbounds %class.PropertyDeclElement, ptr %0, i64 0, i32 2
  %13 = zext i1 %11 to i8
  store i8 %13, ptr %12, align 8, !tbaa !17
  br label %14

14:                                               ; preds = %3, %10, %4
  ret void
}

declare noundef zeroext i1 @_ZN10NEDElement12stringToBoolEPKc(ptr noundef) local_unnamed_addr #1

; Function Attrs: mustprogress nofree norecurse nosync nounwind sspstrong willreturn memory(none) uwtable
define dso_local noundef ptr @_ZNK19PropertyDeclElement19getAttributeDefaultEi(ptr nocapture nonnull readnone align 8 %0, i32 noundef %1) unnamed_addr #3 align 2 {
  %3 = icmp eq i32 %1, 1
  %4 = select i1 %3, ptr @.str.9, ptr null
  ret ptr %4
}

; Function Attrs: sspstrong uwtable
define dso_local noundef nonnull ptr @_ZNK19PropertyDeclElement3dupEv(ptr noundef nonnull align 8 dereferenceable(145) %0) unnamed_addr #0 align 2 personality ptr @__gxx_personality_v0 {
  %2 = tail call noalias noundef nonnull dereferenceable(152) ptr @_Znwm(i64 noundef 152) #14
  invoke void @_ZN10NEDElementC2Ev(ptr noundef nonnull align 8 dereferenceable(112) %2)
          to label %3 unwind label %24

3:                                                ; preds = %1
  store ptr getelementptr inbounds ({ [42 x ptr] }, ptr @_ZTV19PropertyDeclElement, i64 0, inrange i32 0, i64 2), ptr %2, align 8, !tbaa !5
  %4 = getelementptr inbounds %class.PropertyDeclElement, ptr %2, i64 0, i32 1
  %5 = getelementptr inbounds %class.PropertyDeclElement, ptr %2, i64 0, i32 1, i32 2
  store ptr %5, ptr %4, align 8, !tbaa !8
  %6 = getelementptr inbounds %class.PropertyDeclElement, ptr %2, i64 0, i32 1, i32 1
  store i64 0, ptr %6, align 8, !tbaa !12
  store i8 0, ptr %5, align 8, !tbaa !15
  %7 = getelementptr inbounds %class.PropertyDeclElement, ptr %2, i64 0, i32 2
  store i8 0, ptr %7, align 8, !tbaa !17
  invoke void @_ZN10NEDElement13applyDefaultsEv(ptr noundef nonnull align 8 dereferenceable(112) %2)
          to label %20 unwind label %8

8:                                                ; preds = %3
  %9 = landingpad { ptr, i32 }
          cleanup
  %10 = load ptr, ptr %4, align 8, !tbaa !16
  %11 = icmp eq ptr %10, %5
  br i1 %11, label %12, label %15

12:                                               ; preds = %8
  %13 = load i64, ptr %6, align 8, !tbaa !12
  %14 = icmp ult i64 %13, 16
  tail call void @llvm.assume(i1 %14)
  br label %16

15:                                               ; preds = %8
  tail call void @_ZdlPv(ptr noundef %10) #15
  br label %16

16:                                               ; preds = %15, %12
  invoke void @_ZN10NEDElementD2Ev(ptr noundef nonnull align 8 dereferenceable(112) %2)
          to label %26 unwind label %17

17:                                               ; preds = %16
  %18 = landingpad { ptr, i32 }
          catch ptr null
  %19 = extractvalue { ptr, i32 } %18, 0
  tail call void @__clang_call_terminate(ptr %19) #12
  unreachable

20:                                               ; preds = %3
  %21 = getelementptr inbounds %class.PropertyDeclElement, ptr %0, i64 0, i32 1
  tail call void @_ZNSt7__cxx1112basic_stringIcSt11char_traitsIcESaIcEE9_M_assignERKS4_(ptr noundef nonnull align 8 dereferenceable(32) %4, ptr noundef nonnull align 8 dereferenceable(32) %21)
  %22 = getelementptr inbounds %class.PropertyDeclElement, ptr %0, i64 0, i32 2
  %23 = load i8, ptr %22, align 8, !tbaa !17, !range !23, !noundef !24
  store i8 %23, ptr %7, align 8, !tbaa !17
  ret ptr %2

24:                                               ; preds = %1
  %25 = landingpad { ptr, i32 }
          cleanup
  br label %26

26:                                               ; preds = %16, %24
  %27 = phi { ptr, i32 } [ %25, %24 ], [ %9, %16 ]
  tail call void @_ZdlPv(ptr noundef nonnull %2) #15
  resume { ptr, i32 } %27
}

; Function Attrs: sspstrong uwtable
define dso_local noundef ptr @_ZNK19PropertyDeclElement26getNextPropertyDeclSiblingEv(ptr noundef nonnull align 8 dereferenceable(145) %0) unnamed_addr #0 align 2 {
  %2 = load ptr, ptr %0, align 8, !tbaa !5
  %3 = getelementptr inbounds ptr, ptr %2, i64 31
  %4 = load ptr, ptr %3, align 8
  %5 = tail call noundef ptr %4(ptr noundef nonnull align 8 dereferenceable(112) %0, i32 noundef 6)
  ret ptr %5
}

; Function Attrs: sspstrong uwtable
define dso_local noundef ptr @_ZNK19PropertyDeclElement20getFirstCommentChildEv(ptr noundef nonnull align 8 dereferenceable(145) %0) unnamed_addr #0 align 2 {
  %2 = load ptr, ptr %0, align 8, !tbaa !5
  %3 = getelementptr inbounds ptr, ptr %2, i64 30
  %4 = load ptr, ptr %3, align 8
  %5 = tail call noundef ptr %4(ptr noundef nonnull align 8 dereferenceable(112) %0, i32 noundef 3)
  ret ptr %5
}

; Function Attrs: sspstrong uwtable
define dso_local noundef ptr @_ZNK19PropertyDeclElement24getFirstPropertyKeyChildEv(ptr noundef nonnull align 8 dereferenceable(145) %0) unnamed_addr #0 align 2 {
  %2 = load ptr, ptr %0, align 8, !tbaa !5
  %3 = getelementptr inbounds ptr, ptr %2, i64 30
  %4 = load ptr, ptr %3, align 8
  %5 = tail call noundef ptr %4(ptr noundef nonnull align 8 dereferenceable(112) %0, i32 noundef 18)
  ret ptr %5
}

; Function Attrs: sspstrong uwtable
define dso_local noundef ptr @_ZNK19PropertyDeclElement21getFirstPropertyChildEv(ptr noundef nonnull align 8 dereferenceable(145) %0) unnamed_addr #0 align 2 {
  %2 = load ptr, ptr %0, align 8, !tbaa !5
  %3 = getelementptr inbounds ptr, ptr %2, i64 30
  %4 = load ptr, ptr %3, align 8
  %5 = tail call noundef ptr %4(ptr noundef nonnull align 8 dereferenceable(112) %0, i32 noundef 17)
  ret ptr %5
}

; Function Attrs: sspstrong uwtable
define dso_local void @_ZN14ExtendsElementC2Ev(ptr noundef nonnull align 8 dereferenceable(144) %0) unnamed_addr #0 align 2 personality ptr @__gxx_personality_v0 {
  tail call void @_ZN10NEDElementC2Ev(ptr noundef nonnull align 8 dereferenceable(112) %0)
  store ptr getelementptr inbounds ({ [40 x ptr] }, ptr @_ZTV14ExtendsElement, i64 0, inrange i32 0, i64 2), ptr %0, align 8, !tbaa !5
  %2 = getelementptr inbounds %class.ExtendsElement, ptr %0, i64 0, i32 1
  %3 = getelementptr inbounds %class.ExtendsElement, ptr %0, i64 0, i32 1, i32 2
  store ptr %3, ptr %2, align 8, !tbaa !8
  %4 = getelementptr inbounds %class.ExtendsElement, ptr %0, i64 0, i32 1, i32 1
  store i64 0, ptr %4, align 8, !tbaa !12
  store i8 0, ptr %3, align 8, !tbaa !15
  invoke void @_ZN10NEDElement13applyDefaultsEv(ptr noundef nonnull align 8 dereferenceable(112) %0)
          to label %5 unwind label %6

5:                                                ; preds = %1
  ret void

6:                                                ; preds = %1
  %7 = landingpad { ptr, i32 }
          cleanup
  %8 = load ptr, ptr %2, align 8, !tbaa !16
  %9 = icmp eq ptr %8, %3
  br i1 %9, label %10, label %13

10:                                               ; preds = %6
  %11 = load i64, ptr %4, align 8, !tbaa !12
  %12 = icmp ult i64 %11, 16
  tail call void @llvm.assume(i1 %12)
  br label %14

13:                                               ; preds = %6
  tail call void @_ZdlPv(ptr noundef %8) #15
  br label %14

14:                                               ; preds = %13, %10
  invoke void @_ZN10NEDElementD2Ev(ptr noundef nonnull align 8 dereferenceable(112) %0)
          to label %15 unwind label %16

15:                                               ; preds = %14
  resume { ptr, i32 } %7

16:                                               ; preds = %14
  %17 = landingpad { ptr, i32 }
          catch ptr null
  %18 = extractvalue { ptr, i32 } %17, 0
  tail call void @__clang_call_terminate(ptr %18) #12
  unreachable
}

; Function Attrs: sspstrong uwtable
define dso_local void @_ZN14ExtendsElementC2EP10NEDElement(ptr noundef nonnull align 8 dereferenceable(144) %0, ptr noundef %1) unnamed_addr #0 align 2 personality ptr @__gxx_personality_v0 {
  tail call void @_ZN10NEDElementC2EPS_(ptr noundef nonnull align 8 dereferenceable(112) %0, ptr noundef %1)
  store ptr getelementptr inbounds ({ [40 x ptr] }, ptr @_ZTV14ExtendsElement, i64 0, inrange i32 0, i64 2), ptr %0, align 8, !tbaa !5
  %3 = getelementptr inbounds %class.ExtendsElement, ptr %0, i64 0, i32 1
  %4 = getelementptr inbounds %class.ExtendsElement, ptr %0, i64 0, i32 1, i32 2
  store ptr %4, ptr %3, align 8, !tbaa !8
  %5 = getelementptr inbounds %class.ExtendsElement, ptr %0, i64 0, i32 1, i32 1
  store i64 0, ptr %5, align 8, !tbaa !12
  store i8 0, ptr %4, align 8, !tbaa !15
  invoke void @_ZN10NEDElement13applyDefaultsEv(ptr noundef nonnull align 8 dereferenceable(112) %0)
          to label %6 unwind label %7

6:                                                ; preds = %2
  ret void

7:                                                ; preds = %2
  %8 = landingpad { ptr, i32 }
          cleanup
  %9 = load ptr, ptr %3, align 8, !tbaa !16
  %10 = icmp eq ptr %9, %4
  br i1 %10, label %11, label %14

11:                                               ; preds = %7
  %12 = load i64, ptr %5, align 8, !tbaa !12
  %13 = icmp ult i64 %12, 16
  tail call void @llvm.assume(i1 %13)
  br label %15

14:                                               ; preds = %7
  tail call void @_ZdlPv(ptr noundef %9) #15
  br label %15

15:                                               ; preds = %14, %11
  invoke void @_ZN10NEDElementD2Ev(ptr noundef nonnull align 8 dereferenceable(112) %0)
          to label %16 unwind label %17

16:                                               ; preds = %15
  resume { ptr, i32 } %8

17:                                               ; preds = %15
  %18 = landingpad { ptr, i32 }
          catch ptr null
  %19 = extractvalue { ptr, i32 } %18, 0
  tail call void @__clang_call_terminate(ptr %19) #12
  unreachable
}

; Function Attrs: mustprogress nofree norecurse nosync nounwind sspstrong willreturn memory(none) uwtable
define dso_local noundef i32 @_ZNK14ExtendsElement16getNumAttributesEv(ptr nocapture nonnull readnone align 8 %0) unnamed_addr #3 align 2 {
  ret i32 1
}

; Function Attrs: mustprogress nofree norecurse nosync nounwind sspstrong willreturn memory(none) uwtable
define dso_local noundef ptr @_ZNK14ExtendsElement16getAttributeNameEi(ptr nocapture nonnull readnone align 8 %0, i32 noundef %1) unnamed_addr #3 align 2 {
  %3 = icmp eq i32 %1, 0
  %4 = select i1 %3, ptr @.str.6, ptr null
  ret ptr %4
}

; Function Attrs: mustprogress nofree norecurse nosync nounwind sspstrong willreturn memory(argmem: read) uwtable
define dso_local noundef ptr @_ZNK14ExtendsElement12getAttributeEi(ptr nocapture noundef nonnull readonly align 8 dereferenceable(144) %0, i32 noundef %1) unnamed_addr #6 align 2 {
  %3 = icmp eq i32 %1, 0
  %4 = getelementptr inbounds %class.ExtendsElement, ptr %0, i64 0, i32 1
  %5 = load ptr, ptr %4, align 8
  %6 = select i1 %3, ptr %5, ptr null
  ret ptr %6
}

; Function Attrs: sspstrong uwtable
define dso_local void @_ZN14ExtendsElement12setAttributeEiPKc(ptr noundef nonnull align 8 dereferenceable(144) %0, i32 noundef %1, ptr noundef %2) unnamed_addr #0 align 2 {
  %4 = icmp eq i32 %1, 0
  br i1 %4, label %5, label %11

5:                                                ; preds = %3
  %6 = getelementptr inbounds %class.ExtendsElement, ptr %0, i64 0, i32 1
  %7 = getelementptr inbounds %class.ExtendsElement, ptr %0, i64 0, i32 1, i32 1
  %8 = load i64, ptr %7, align 8, !tbaa !12
  %9 = tail call i64 @strlen(ptr noundef nonnull dereferenceable(1) %2) #13
  %10 = tail call noundef nonnull align 8 dereferenceable(32) ptr @_ZNSt7__cxx1112basic_stringIcSt11char_traitsIcESaIcEE10_M_replaceEmmPKcm(ptr noundef nonnull align 8 dereferenceable(32) %6, i64 noundef 0, i64 noundef %8, ptr noundef %2, i64 noundef %9)
  br label %11

11:                                               ; preds = %3, %5
  ret void
}

; Function Attrs: mustprogress nofree norecurse nosync nounwind sspstrong willreturn memory(none) uwtable
define dso_local noalias noundef ptr @_ZNK14ExtendsElement19getAttributeDefaultEi(ptr nocapture nonnull readnone align 8 %0, i32 %1) unnamed_addr #3 align 2 {
  ret ptr null
}

; Function Attrs: sspstrong uwtable
define dso_local noundef nonnull ptr @_ZNK14ExtendsElement3dupEv(ptr noundef nonnull align 8 dereferenceable(144) %0) unnamed_addr #0 align 2 personality ptr @__gxx_personality_v0 {
  %2 = tail call noalias noundef nonnull dereferenceable(144) ptr @_Znwm(i64 noundef 144) #14
  invoke void @_ZN10NEDElementC2Ev(ptr noundef nonnull align 8 dereferenceable(112) %2)
          to label %3 unwind label %21

3:                                                ; preds = %1
  store ptr getelementptr inbounds ({ [40 x ptr] }, ptr @_ZTV14ExtendsElement, i64 0, inrange i32 0, i64 2), ptr %2, align 8, !tbaa !5
  %4 = getelementptr inbounds %class.ExtendsElement, ptr %2, i64 0, i32 1
  %5 = getelementptr inbounds %class.ExtendsElement, ptr %2, i64 0, i32 1, i32 2
  store ptr %5, ptr %4, align 8, !tbaa !8
  %6 = getelementptr inbounds %class.ExtendsElement, ptr %2, i64 0, i32 1, i32 1
  store i64 0, ptr %6, align 8, !tbaa !12
  store i8 0, ptr %5, align 8, !tbaa !15
  invoke void @_ZN10NEDElement13applyDefaultsEv(ptr noundef nonnull align 8 dereferenceable(112) %2)
          to label %19 unwind label %7

7:                                                ; preds = %3
  %8 = landingpad { ptr, i32 }
          cleanup
  %9 = load ptr, ptr %4, align 8, !tbaa !16
  %10 = icmp eq ptr %9, %5
  br i1 %10, label %11, label %14

11:                                               ; preds = %7
  %12 = load i64, ptr %6, align 8, !tbaa !12
  %13 = icmp ult i64 %12, 16
  tail call void @llvm.assume(i1 %13)
  br label %15

14:                                               ; preds = %7
  tail call void @_ZdlPv(ptr noundef %9) #15
  br label %15

15:                                               ; preds = %14, %11
  invoke void @_ZN10NEDElementD2Ev(ptr noundef nonnull align 8 dereferenceable(112) %2)
          to label %23 unwind label %16

16:                                               ; preds = %15
  %17 = landingpad { ptr, i32 }
          catch ptr null
  %18 = extractvalue { ptr, i32 } %17, 0
  tail call void @__clang_call_terminate(ptr %18) #12
  unreachable

19:                                               ; preds = %3
  %20 = getelementptr inbounds %class.ExtendsElement, ptr %0, i64 0, i32 1
  tail call void @_ZNSt7__cxx1112basic_stringIcSt11char_traitsIcESaIcEE9_M_assignERKS4_(ptr noundef nonnull align 8 dereferenceable(32) %4, ptr noundef nonnull align 8 dereferenceable(32) %20)
  ret ptr %2

21:                                               ; preds = %1
  %22 = landingpad { ptr, i32 }
          cleanup
  br label %23

23:                                               ; preds = %15, %21
  %24 = phi { ptr, i32 } [ %22, %21 ], [ %8, %15 ]
  tail call void @_ZdlPv(ptr noundef nonnull %2) #15
  resume { ptr, i32 } %24
}

; Function Attrs: sspstrong uwtable
define dso_local noundef ptr @_ZNK14ExtendsElement21getNextExtendsSiblingEv(ptr noundef nonnull align 8 dereferenceable(144) %0) unnamed_addr #0 align 2 {
  %2 = load ptr, ptr %0, align 8, !tbaa !5
  %3 = getelementptr inbounds ptr, ptr %2, i64 31
  %4 = load ptr, ptr %3, align 8
  %5 = tail call noundef ptr %4(ptr noundef nonnull align 8 dereferenceable(112) %0, i32 noundef 7)
  ret ptr %5
}

; Function Attrs: sspstrong uwtable
define dso_local noundef ptr @_ZNK14ExtendsElement20getFirstCommentChildEv(ptr noundef nonnull align 8 dereferenceable(144) %0) unnamed_addr #0 align 2 {
  %2 = load ptr, ptr %0, align 8, !tbaa !5
  %3 = getelementptr inbounds ptr, ptr %2, i64 30
  %4 = load ptr, ptr %3, align 8
  %5 = tail call noundef ptr %4(ptr noundef nonnull align 8 dereferenceable(112) %0, i32 noundef 3)
  ret ptr %5
}

; Function Attrs: sspstrong uwtable
define dso_local void @_ZN20InterfaceNameElementC2Ev(ptr noundef nonnull align 8 dereferenceable(144) %0) unnamed_addr #0 align 2 personality ptr @__gxx_personality_v0 {
  tail call void @_ZN10NEDElementC2Ev(ptr noundef nonnull align 8 dereferenceable(112) %0)
  store ptr getelementptr inbounds ({ [40 x ptr] }, ptr @_ZTV20InterfaceNameElement, i64 0, inrange i32 0, i64 2), ptr %0, align 8, !tbaa !5
  %2 = getelementptr inbounds %class.InterfaceNameElement, ptr %0, i64 0, i32 1
  %3 = getelementptr inbounds %class.InterfaceNameElement, ptr %0, i64 0, i32 1, i32 2
  store ptr %3, ptr %2, align 8, !tbaa !8
  %4 = getelementptr inbounds %class.InterfaceNameElement, ptr %0, i64 0, i32 1, i32 1
  store i64 0, ptr %4, align 8, !tbaa !12
  store i8 0, ptr %3, align 8, !tbaa !15
  invoke void @_ZN10NEDElement13applyDefaultsEv(ptr noundef nonnull align 8 dereferenceable(112) %0)
          to label %5 unwind label %6

5:                                                ; preds = %1
  ret void

6:                                                ; preds = %1
  %7 = landingpad { ptr, i32 }
          cleanup
  %8 = load ptr, ptr %2, align 8, !tbaa !16
  %9 = icmp eq ptr %8, %3
  br i1 %9, label %10, label %13

10:                                               ; preds = %6
  %11 = load i64, ptr %4, align 8, !tbaa !12
  %12 = icmp ult i64 %11, 16
  tail call void @llvm.assume(i1 %12)
  br label %14

13:                                               ; preds = %6
  tail call void @_ZdlPv(ptr noundef %8) #15
  br label %14

14:                                               ; preds = %13, %10
  invoke void @_ZN10NEDElementD2Ev(ptr noundef nonnull align 8 dereferenceable(112) %0)
          to label %15 unwind label %16

15:                                               ; preds = %14
  resume { ptr, i32 } %7

16:                                               ; preds = %14
  %17 = landingpad { ptr, i32 }
          catch ptr null
  %18 = extractvalue { ptr, i32 } %17, 0
  tail call void @__clang_call_terminate(ptr %18) #12
  unreachable
}

; Function Attrs: sspstrong uwtable
define dso_local void @_ZN20InterfaceNameElementC2EP10NEDElement(ptr noundef nonnull align 8 dereferenceable(144) %0, ptr noundef %1) unnamed_addr #0 align 2 personality ptr @__gxx_personality_v0 {
  tail call void @_ZN10NEDElementC2EPS_(ptr noundef nonnull align 8 dereferenceable(112) %0, ptr noundef %1)
  store ptr getelementptr inbounds ({ [40 x ptr] }, ptr @_ZTV20InterfaceNameElement, i64 0, inrange i32 0, i64 2), ptr %0, align 8, !tbaa !5
  %3 = getelementptr inbounds %class.InterfaceNameElement, ptr %0, i64 0, i32 1
  %4 = getelementptr inbounds %class.InterfaceNameElement, ptr %0, i64 0, i32 1, i32 2
  store ptr %4, ptr %3, align 8, !tbaa !8
  %5 = getelementptr inbounds %class.InterfaceNameElement, ptr %0, i64 0, i32 1, i32 1
  store i64 0, ptr %5, align 8, !tbaa !12
  store i8 0, ptr %4, align 8, !tbaa !15
  invoke void @_ZN10NEDElement13applyDefaultsEv(ptr noundef nonnull align 8 dereferenceable(112) %0)
          to label %6 unwind label %7

6:                                                ; preds = %2
  ret void

7:                                                ; preds = %2
  %8 = landingpad { ptr, i32 }
          cleanup
  %9 = load ptr, ptr %3, align 8, !tbaa !16
  %10 = icmp eq ptr %9, %4
  br i1 %10, label %11, label %14

11:                                               ; preds = %7
  %12 = load i64, ptr %5, align 8, !tbaa !12
  %13 = icmp ult i64 %12, 16
  tail call void @llvm.assume(i1 %13)
  br label %15

14:                                               ; preds = %7
  tail call void @_ZdlPv(ptr noundef %9) #15
  br label %15

15:                                               ; preds = %14, %11
  invoke void @_ZN10NEDElementD2Ev(ptr noundef nonnull align 8 dereferenceable(112) %0)
          to label %16 unwind label %17

16:                                               ; preds = %15
  resume { ptr, i32 } %8

17:                                               ; preds = %15
  %18 = landingpad { ptr, i32 }
          catch ptr null
  %19 = extractvalue { ptr, i32 } %18, 0
  tail call void @__clang_call_terminate(ptr %19) #12
  unreachable
}

; Function Attrs: mustprogress nofree norecurse nosync nounwind sspstrong willreturn memory(none) uwtable
define dso_local noundef i32 @_ZNK20InterfaceNameElement16getNumAttributesEv(ptr nocapture nonnull readnone align 8 %0) unnamed_addr #3 align 2 {
  ret i32 1
}

; Function Attrs: mustprogress nofree norecurse nosync nounwind sspstrong willreturn memory(none) uwtable
define dso_local noundef ptr @_ZNK20InterfaceNameElement16getAttributeNameEi(ptr nocapture nonnull readnone align 8 %0, i32 noundef %1) unnamed_addr #3 align 2 {
  %3 = icmp eq i32 %1, 0
  %4 = select i1 %3, ptr @.str.6, ptr null
  ret ptr %4
}

; Function Attrs: mustprogress nofree norecurse nosync nounwind sspstrong willreturn memory(argmem: read) uwtable
define dso_local noundef ptr @_ZNK20InterfaceNameElement12getAttributeEi(ptr nocapture noundef nonnull readonly align 8 dereferenceable(144) %0, i32 noundef %1) unnamed_addr #6 align 2 {
  %3 = icmp eq i32 %1, 0
  %4 = getelementptr inbounds %class.InterfaceNameElement, ptr %0, i64 0, i32 1
  %5 = load ptr, ptr %4, align 8
  %6 = select i1 %3, ptr %5, ptr null
  ret ptr %6
}

; Function Attrs: sspstrong uwtable
define dso_local void @_ZN20InterfaceNameElement12setAttributeEiPKc(ptr noundef nonnull align 8 dereferenceable(144) %0, i32 noundef %1, ptr noundef %2) unnamed_addr #0 align 2 {
  %4 = icmp eq i32 %1, 0
  br i1 %4, label %5, label %11

5:                                                ; preds = %3
  %6 = getelementptr inbounds %class.InterfaceNameElement, ptr %0, i64 0, i32 1
  %7 = getelementptr inbounds %class.InterfaceNameElement, ptr %0, i64 0, i32 1, i32 1
  %8 = load i64, ptr %7, align 8, !tbaa !12
  %9 = tail call i64 @strlen(ptr noundef nonnull dereferenceable(1) %2) #13
  %10 = tail call noundef nonnull align 8 dereferenceable(32) ptr @_ZNSt7__cxx1112basic_stringIcSt11char_traitsIcESaIcEE10_M_replaceEmmPKcm(ptr noundef nonnull align 8 dereferenceable(32) %6, i64 noundef 0, i64 noundef %8, ptr noundef %2, i64 noundef %9)
  br label %11

11:                                               ; preds = %3, %5
  ret void
}

; Function Attrs: mustprogress nofree norecurse nosync nounwind sspstrong willreturn memory(none) uwtable
define dso_local noalias noundef ptr @_ZNK20InterfaceNameElement19getAttributeDefaultEi(ptr nocapture nonnull readnone align 8 %0, i32 %1) unnamed_addr #3 align 2 {
  ret ptr null
}

; Function Attrs: sspstrong uwtable
define dso_local noundef nonnull ptr @_ZNK20InterfaceNameElement3dupEv(ptr noundef nonnull align 8 dereferenceable(144) %0) unnamed_addr #0 align 2 personality ptr @__gxx_personality_v0 {
  %2 = tail call noalias noundef nonnull dereferenceable(144) ptr @_Znwm(i64 noundef 144) #14
  invoke void @_ZN10NEDElementC2Ev(ptr noundef nonnull align 8 dereferenceable(112) %2)
          to label %3 unwind label %21

3:                                                ; preds = %1
  store ptr getelementptr inbounds ({ [40 x ptr] }, ptr @_ZTV20InterfaceNameElement, i64 0, inrange i32 0, i64 2), ptr %2, align 8, !tbaa !5
  %4 = getelementptr inbounds %class.InterfaceNameElement, ptr %2, i64 0, i32 1
  %5 = getelementptr inbounds %class.InterfaceNameElement, ptr %2, i64 0, i32 1, i32 2
  store ptr %5, ptr %4, align 8, !tbaa !8
  %6 = getelementptr inbounds %class.InterfaceNameElement, ptr %2, i64 0, i32 1, i32 1
  store i64 0, ptr %6, align 8, !tbaa !12
  store i8 0, ptr %5, align 8, !tbaa !15
  invoke void @_ZN10NEDElement13applyDefaultsEv(ptr noundef nonnull align 8 dereferenceable(112) %2)
          to label %19 unwind label %7

7:                                                ; preds = %3
  %8 = landingpad { ptr, i32 }
          cleanup
  %9 = load ptr, ptr %4, align 8, !tbaa !16
  %10 = icmp eq ptr %9, %5
  br i1 %10, label %11, label %14

11:                                               ; preds = %7
  %12 = load i64, ptr %6, align 8, !tbaa !12
  %13 = icmp ult i64 %12, 16
  tail call void @llvm.assume(i1 %13)
  br label %15

14:                                               ; preds = %7
  tail call void @_ZdlPv(ptr noundef %9) #15
  br label %15

15:                                               ; preds = %14, %11
  invoke void @_ZN10NEDElementD2Ev(ptr noundef nonnull align 8 dereferenceable(112) %2)
          to label %23 unwind label %16

16:                                               ; preds = %15
  %17 = landingpad { ptr, i32 }
          catch ptr null
  %18 = extractvalue { ptr, i32 } %17, 0
  tail call void @__clang_call_terminate(ptr %18) #12
  unreachable

19:                                               ; preds = %3
  %20 = getelementptr inbounds %class.InterfaceNameElement, ptr %0, i64 0, i32 1
  tail call void @_ZNSt7__cxx1112basic_stringIcSt11char_traitsIcESaIcEE9_M_assignERKS4_(ptr noundef nonnull align 8 dereferenceable(32) %4, ptr noundef nonnull align 8 dereferenceable(32) %20)
  ret ptr %2

21:                                               ; preds = %1
  %22 = landingpad { ptr, i32 }
          cleanup
  br label %23

23:                                               ; preds = %15, %21
  %24 = phi { ptr, i32 } [ %22, %21 ], [ %8, %15 ]
  tail call void @_ZdlPv(ptr noundef nonnull %2) #15
  resume { ptr, i32 } %24
}

; Function Attrs: sspstrong uwtable
define dso_local noundef ptr @_ZNK20InterfaceNameElement27getNextInterfaceNameSiblingEv(ptr noundef nonnull align 8 dereferenceable(144) %0) unnamed_addr #0 align 2 {
  %2 = load ptr, ptr %0, align 8, !tbaa !5
  %3 = getelementptr inbounds ptr, ptr %2, i64 31
  %4 = load ptr, ptr %3, align 8
  %5 = tail call noundef ptr %4(ptr noundef nonnull align 8 dereferenceable(112) %0, i32 noundef 8)
  ret ptr %5
}

; Function Attrs: sspstrong uwtable
define dso_local noundef ptr @_ZNK20InterfaceNameElement20getFirstCommentChildEv(ptr noundef nonnull align 8 dereferenceable(144) %0) unnamed_addr #0 align 2 {
  %2 = load ptr, ptr %0, align 8, !tbaa !5
  %3 = getelementptr inbounds ptr, ptr %2, i64 30
  %4 = load ptr, ptr %3, align 8
  %5 = tail call noundef ptr %4(ptr noundef nonnull align 8 dereferenceable(112) %0, i32 noundef 3)
  ret ptr %5
}

; Function Attrs: sspstrong uwtable
define dso_local void @_ZN19SimpleModuleElementC2Ev(ptr noundef nonnull align 8 dereferenceable(144) %0) unnamed_addr #0 align 2 personality ptr @__gxx_personality_v0 {
  tail call void @_ZN10NEDElementC2Ev(ptr noundef nonnull align 8 dereferenceable(112) %0)
  store ptr getelementptr inbounds ({ [44 x ptr] }, ptr @_ZTV19SimpleModuleElement, i64 0, inrange i32 0, i64 2), ptr %0, align 8, !tbaa !5
  %2 = getelementptr inbounds %class.SimpleModuleElement, ptr %0, i64 0, i32 1
  %3 = getelementptr inbounds %class.SimpleModuleElement, ptr %0, i64 0, i32 1, i32 2
  store ptr %3, ptr %2, align 8, !tbaa !8
  %4 = getelementptr inbounds %class.SimpleModuleElement, ptr %0, i64 0, i32 1, i32 1
  store i64 0, ptr %4, align 8, !tbaa !12
  store i8 0, ptr %3, align 8, !tbaa !15
  invoke void @_ZN10NEDElement13applyDefaultsEv(ptr noundef nonnull align 8 dereferenceable(112) %0)
          to label %5 unwind label %6

5:                                                ; preds = %1
  ret void

6:                                                ; preds = %1
  %7 = landingpad { ptr, i32 }
          cleanup
  %8 = load ptr, ptr %2, align 8, !tbaa !16
  %9 = icmp eq ptr %8, %3
  br i1 %9, label %10, label %13

10:                                               ; preds = %6
  %11 = load i64, ptr %4, align 8, !tbaa !12
  %12 = icmp ult i64 %11, 16
  tail call void @llvm.assume(i1 %12)
  br label %14

13:                                               ; preds = %6
  tail call void @_ZdlPv(ptr noundef %8) #15
  br label %14

14:                                               ; preds = %13, %10
  invoke void @_ZN10NEDElementD2Ev(ptr noundef nonnull align 8 dereferenceable(112) %0)
          to label %15 unwind label %16

15:                                               ; preds = %14
  resume { ptr, i32 } %7

16:                                               ; preds = %14
  %17 = landingpad { ptr, i32 }
          catch ptr null
  %18 = extractvalue { ptr, i32 } %17, 0
  tail call void @__clang_call_terminate(ptr %18) #12
  unreachable
}

; Function Attrs: sspstrong uwtable
define dso_local void @_ZN19SimpleModuleElementC2EP10NEDElement(ptr noundef nonnull align 8 dereferenceable(144) %0, ptr noundef %1) unnamed_addr #0 align 2 personality ptr @__gxx_personality_v0 {
  tail call void @_ZN10NEDElementC2EPS_(ptr noundef nonnull align 8 dereferenceable(112) %0, ptr noundef %1)
  store ptr getelementptr inbounds ({ [44 x ptr] }, ptr @_ZTV19SimpleModuleElement, i64 0, inrange i32 0, i64 2), ptr %0, align 8, !tbaa !5
  %3 = getelementptr inbounds %class.SimpleModuleElement, ptr %0, i64 0, i32 1
  %4 = getelementptr inbounds %class.SimpleModuleElement, ptr %0, i64 0, i32 1, i32 2
  store ptr %4, ptr %3, align 8, !tbaa !8
  %5 = getelementptr inbounds %class.SimpleModuleElement, ptr %0, i64 0, i32 1, i32 1
  store i64 0, ptr %5, align 8, !tbaa !12
  store i8 0, ptr %4, align 8, !tbaa !15
  invoke void @_ZN10NEDElement13applyDefaultsEv(ptr noundef nonnull align 8 dereferenceable(112) %0)
          to label %6 unwind label %7

6:                                                ; preds = %2
  ret void

7:                                                ; preds = %2
  %8 = landingpad { ptr, i32 }
          cleanup
  %9 = load ptr, ptr %3, align 8, !tbaa !16
  %10 = icmp eq ptr %9, %4
  br i1 %10, label %11, label %14

11:                                               ; preds = %7
  %12 = load i64, ptr %5, align 8, !tbaa !12
  %13 = icmp ult i64 %12, 16
  tail call void @llvm.assume(i1 %13)
  br label %15

14:                                               ; preds = %7
  tail call void @_ZdlPv(ptr noundef %9) #15
  br label %15

15:                                               ; preds = %14, %11
  invoke void @_ZN10NEDElementD2Ev(ptr noundef nonnull align 8 dereferenceable(112) %0)
          to label %16 unwind label %17

16:                                               ; preds = %15
  resume { ptr, i32 } %8

17:                                               ; preds = %15
  %18 = landingpad { ptr, i32 }
          catch ptr null
  %19 = extractvalue { ptr, i32 } %18, 0
  tail call void @__clang_call_terminate(ptr %19) #12
  unreachable
}

; Function Attrs: mustprogress nofree norecurse nosync nounwind sspstrong willreturn memory(none) uwtable
define dso_local noundef i32 @_ZNK19SimpleModuleElement16getNumAttributesEv(ptr nocapture nonnull readnone align 8 %0) unnamed_addr #3 align 2 {
  ret i32 1
}

; Function Attrs: mustprogress nofree norecurse nosync nounwind sspstrong willreturn memory(none) uwtable
define dso_local noundef ptr @_ZNK19SimpleModuleElement16getAttributeNameEi(ptr nocapture nonnull readnone align 8 %0, i32 noundef %1) unnamed_addr #3 align 2 {
  %3 = icmp eq i32 %1, 0
  %4 = select i1 %3, ptr @.str.6, ptr null
  ret ptr %4
}

; Function Attrs: mustprogress nofree norecurse nosync nounwind sspstrong willreturn memory(argmem: read) uwtable
define dso_local noundef ptr @_ZNK19SimpleModuleElement12getAttributeEi(ptr nocapture noundef nonnull readonly align 8 dereferenceable(144) %0, i32 noundef %1) unnamed_addr #6 align 2 {
  %3 = icmp eq i32 %1, 0
  %4 = getelementptr inbounds %class.SimpleModuleElement, ptr %0, i64 0, i32 1
  %5 = load ptr, ptr %4, align 8
  %6 = select i1 %3, ptr %5, ptr null
  ret ptr %6
}

; Function Attrs: sspstrong uwtable
define dso_local void @_ZN19SimpleModuleElement12setAttributeEiPKc(ptr noundef nonnull align 8 dereferenceable(144) %0, i32 noundef %1, ptr noundef %2) unnamed_addr #0 align 2 {
  %4 = icmp eq i32 %1, 0
  br i1 %4, label %5, label %11

5:                                                ; preds = %3
  %6 = getelementptr inbounds %class.SimpleModuleElement, ptr %0, i64 0, i32 1
  %7 = getelementptr inbounds %class.SimpleModuleElement, ptr %0, i64 0, i32 1, i32 1
  %8 = load i64, ptr %7, align 8, !tbaa !12
  %9 = tail call i64 @strlen(ptr noundef nonnull dereferenceable(1) %2) #13
  %10 = tail call noundef nonnull align 8 dereferenceable(32) ptr @_ZNSt7__cxx1112basic_stringIcSt11char_traitsIcESaIcEE10_M_replaceEmmPKcm(ptr noundef nonnull align 8 dereferenceable(32) %6, i64 noundef 0, i64 noundef %8, ptr noundef %2, i64 noundef %9)
  br label %11

11:                                               ; preds = %3, %5
  ret void
}

; Function Attrs: mustprogress nofree norecurse nosync nounwind sspstrong willreturn memory(none) uwtable
define dso_local noalias noundef ptr @_ZNK19SimpleModuleElement19getAttributeDefaultEi(ptr nocapture nonnull readnone align 8 %0, i32 %1) unnamed_addr #3 align 2 {
  ret ptr null
}

; Function Attrs: sspstrong uwtable
define dso_local noundef nonnull ptr @_ZNK19SimpleModuleElement3dupEv(ptr noundef nonnull align 8 dereferenceable(144) %0) unnamed_addr #0 align 2 personality ptr @__gxx_personality_v0 {
  %2 = tail call noalias noundef nonnull dereferenceable(144) ptr @_Znwm(i64 noundef 144) #14
  invoke void @_ZN10NEDElementC2Ev(ptr noundef nonnull align 8 dereferenceable(112) %2)
          to label %3 unwind label %21

3:                                                ; preds = %1
  store ptr getelementptr inbounds ({ [44 x ptr] }, ptr @_ZTV19SimpleModuleElement, i64 0, inrange i32 0, i64 2), ptr %2, align 8, !tbaa !5
  %4 = getelementptr inbounds %class.SimpleModuleElement, ptr %2, i64 0, i32 1
  %5 = getelementptr inbounds %class.SimpleModuleElement, ptr %2, i64 0, i32 1, i32 2
  store ptr %5, ptr %4, align 8, !tbaa !8
  %6 = getelementptr inbounds %class.SimpleModuleElement, ptr %2, i64 0, i32 1, i32 1
  store i64 0, ptr %6, align 8, !tbaa !12
  store i8 0, ptr %5, align 8, !tbaa !15
  invoke void @_ZN10NEDElement13applyDefaultsEv(ptr noundef nonnull align 8 dereferenceable(112) %2)
          to label %19 unwind label %7

7:                                                ; preds = %3
  %8 = landingpad { ptr, i32 }
          cleanup
  %9 = load ptr, ptr %4, align 8, !tbaa !16
  %10 = icmp eq ptr %9, %5
  br i1 %10, label %11, label %14

11:                                               ; preds = %7
  %12 = load i64, ptr %6, align 8, !tbaa !12
  %13 = icmp ult i64 %12, 16
  tail call void @llvm.assume(i1 %13)
  br label %15

14:                                               ; preds = %7
  tail call void @_ZdlPv(ptr noundef %9) #15
  br label %15

15:                                               ; preds = %14, %11
  invoke void @_ZN10NEDElementD2Ev(ptr noundef nonnull align 8 dereferenceable(112) %2)
          to label %23 unwind label %16

16:                                               ; preds = %15
  %17 = landingpad { ptr, i32 }
          catch ptr null
  %18 = extractvalue { ptr, i32 } %17, 0
  tail call void @__clang_call_terminate(ptr %18) #12
  unreachable

19:                                               ; preds = %3
  %20 = getelementptr inbounds %class.SimpleModuleElement, ptr %0, i64 0, i32 1
  tail call void @_ZNSt7__cxx1112basic_stringIcSt11char_traitsIcESaIcEE9_M_assignERKS4_(ptr noundef nonnull align 8 dereferenceable(32) %4, ptr noundef nonnull align 8 dereferenceable(32) %20)
  ret ptr %2

21:                                               ; preds = %1
  %22 = landingpad { ptr, i32 }
          cleanup
  br label %23

23:                                               ; preds = %15, %21
  %24 = phi { ptr, i32 } [ %22, %21 ], [ %8, %15 ]
  tail call void @_ZdlPv(ptr noundef nonnull %2) #15
  resume { ptr, i32 } %24
}

; Function Attrs: sspstrong uwtable
define dso_local noundef ptr @_ZNK19SimpleModuleElement26getNextSimpleModuleSiblingEv(ptr noundef nonnull align 8 dereferenceable(144) %0) unnamed_addr #0 align 2 {
  %2 = load ptr, ptr %0, align 8, !tbaa !5
  %3 = getelementptr inbounds ptr, ptr %2, i64 31
  %4 = load ptr, ptr %3, align 8
  %5 = tail call noundef ptr %4(ptr noundef nonnull align 8 dereferenceable(112) %0, i32 noundef 9)
  ret ptr %5
}

; Function Attrs: sspstrong uwtable
define dso_local noundef ptr @_ZNK19SimpleModuleElement20getFirstCommentChildEv(ptr noundef nonnull align 8 dereferenceable(144) %0) unnamed_addr #0 align 2 {
  %2 = load ptr, ptr %0, align 8, !tbaa !5
  %3 = getelementptr inbounds ptr, ptr %2, i64 30
  %4 = load ptr, ptr %3, align 8
  %5 = tail call noundef ptr %4(ptr noundef nonnull align 8 dereferenceable(112) %0, i32 noundef 3)
  ret ptr %5
}

; Function Attrs: sspstrong uwtable
define dso_local noundef ptr @_ZNK19SimpleModuleElement20getFirstExtendsChildEv(ptr noundef nonnull align 8 dereferenceable(144) %0) unnamed_addr #0 align 2 {
  %2 = load ptr, ptr %0, align 8, !tbaa !5
  %3 = getelementptr inbounds ptr, ptr %2, i64 30
  %4 = load ptr, ptr %3, align 8
  %5 = tail call noundef ptr %4(ptr noundef nonnull align 8 dereferenceable(112) %0, i32 noundef 7)
  ret ptr %5
}

; Function Attrs: sspstrong uwtable
define dso_local noundef ptr @_ZNK19SimpleModuleElement26getFirstInterfaceNameChildEv(ptr noundef nonnull align 8 dereferenceable(144) %0) unnamed_addr #0 align 2 {
  %2 = load ptr, ptr %0, align 8, !tbaa !5
  %3 = getelementptr inbounds ptr, ptr %2, i64 30
  %4 = load ptr, ptr %3, align 8
  %5 = tail call noundef ptr %4(ptr noundef nonnull align 8 dereferenceable(112) %0, i32 noundef 8)
  ret ptr %5
}

; Function Attrs: sspstrong uwtable
define dso_local noundef ptr @_ZNK19SimpleModuleElement23getFirstParametersChildEv(ptr noundef nonnull align 8 dereferenceable(144) %0) unnamed_addr #0 align 2 {
  %2 = load ptr, ptr %0, align 8, !tbaa !5
  %3 = getelementptr inbounds ptr, ptr %2, i64 30
  %4 = load ptr, ptr %3, align 8
  %5 = tail call noundef ptr %4(ptr noundef nonnull align 8 dereferenceable(112) %0, i32 noundef 14)
  ret ptr %5
}

; Function Attrs: sspstrong uwtable
define dso_local noundef ptr @_ZNK19SimpleModuleElement18getFirstGatesChildEv(ptr noundef nonnull align 8 dereferenceable(144) %0) unnamed_addr #0 align 2 {
  %2 = load ptr, ptr %0, align 8, !tbaa !5
  %3 = getelementptr inbounds ptr, ptr %2, i64 30
  %4 = load ptr, ptr %3, align 8
  %5 = tail call noundef ptr %4(ptr noundef nonnull align 8 dereferenceable(112) %0, i32 noundef 19)
  ret ptr %5
}

; Function Attrs: sspstrong uwtable
define dso_local void @_ZN22ModuleInterfaceElementC2Ev(ptr noundef nonnull align 8 dereferenceable(144) %0) unnamed_addr #0 align 2 personality ptr @__gxx_personality_v0 {
  tail call void @_ZN10NEDElementC2Ev(ptr noundef nonnull align 8 dereferenceable(112) %0)
  store ptr getelementptr inbounds ({ [43 x ptr] }, ptr @_ZTV22ModuleInterfaceElement, i64 0, inrange i32 0, i64 2), ptr %0, align 8, !tbaa !5
  %2 = getelementptr inbounds %class.ModuleInterfaceElement, ptr %0, i64 0, i32 1
  %3 = getelementptr inbounds %class.ModuleInterfaceElement, ptr %0, i64 0, i32 1, i32 2
  store ptr %3, ptr %2, align 8, !tbaa !8
  %4 = getelementptr inbounds %class.ModuleInterfaceElement, ptr %0, i64 0, i32 1, i32 1
  store i64 0, ptr %4, align 8, !tbaa !12
  store i8 0, ptr %3, align 8, !tbaa !15
  invoke void @_ZN10NEDElement13applyDefaultsEv(ptr noundef nonnull align 8 dereferenceable(112) %0)
          to label %5 unwind label %6

5:                                                ; preds = %1
  ret void

6:                                                ; preds = %1
  %7 = landingpad { ptr, i32 }
          cleanup
  %8 = load ptr, ptr %2, align 8, !tbaa !16
  %9 = icmp eq ptr %8, %3
  br i1 %9, label %10, label %13

10:                                               ; preds = %6
  %11 = load i64, ptr %4, align 8, !tbaa !12
  %12 = icmp ult i64 %11, 16
  tail call void @llvm.assume(i1 %12)
  br label %14

13:                                               ; preds = %6
  tail call void @_ZdlPv(ptr noundef %8) #15
  br label %14

14:                                               ; preds = %13, %10
  invoke void @_ZN10NEDElementD2Ev(ptr noundef nonnull align 8 dereferenceable(112) %0)
          to label %15 unwind label %16

15:                                               ; preds = %14
  resume { ptr, i32 } %7

16:                                               ; preds = %14
  %17 = landingpad { ptr, i32 }
          catch ptr null
  %18 = extractvalue { ptr, i32 } %17, 0
  tail call void @__clang_call_terminate(ptr %18) #12
  unreachable
}

; Function Attrs: sspstrong uwtable
define dso_local void @_ZN22ModuleInterfaceElementC2EP10NEDElement(ptr noundef nonnull align 8 dereferenceable(144) %0, ptr noundef %1) unnamed_addr #0 align 2 personality ptr @__gxx_personality_v0 {
  tail call void @_ZN10NEDElementC2EPS_(ptr noundef nonnull align 8 dereferenceable(112) %0, ptr noundef %1)
  store ptr getelementptr inbounds ({ [43 x ptr] }, ptr @_ZTV22ModuleInterfaceElement, i64 0, inrange i32 0, i64 2), ptr %0, align 8, !tbaa !5
  %3 = getelementptr inbounds %class.ModuleInterfaceElement, ptr %0, i64 0, i32 1
  %4 = getelementptr inbounds %class.ModuleInterfaceElement, ptr %0, i64 0, i32 1, i32 2
  store ptr %4, ptr %3, align 8, !tbaa !8
  %5 = getelementptr inbounds %class.ModuleInterfaceElement, ptr %0, i64 0, i32 1, i32 1
  store i64 0, ptr %5, align 8, !tbaa !12
  store i8 0, ptr %4, align 8, !tbaa !15
  invoke void @_ZN10NEDElement13applyDefaultsEv(ptr noundef nonnull align 8 dereferenceable(112) %0)
          to label %6 unwind label %7

6:                                                ; preds = %2
  ret void

7:                                                ; preds = %2
  %8 = landingpad { ptr, i32 }
          cleanup
  %9 = load ptr, ptr %3, align 8, !tbaa !16
  %10 = icmp eq ptr %9, %4
  br i1 %10, label %11, label %14

11:                                               ; preds = %7
  %12 = load i64, ptr %5, align 8, !tbaa !12
  %13 = icmp ult i64 %12, 16
  tail call void @llvm.assume(i1 %13)
  br label %15

14:                                               ; preds = %7
  tail call void @_ZdlPv(ptr noundef %9) #15
  br label %15

15:                                               ; preds = %14, %11
  invoke void @_ZN10NEDElementD2Ev(ptr noundef nonnull align 8 dereferenceable(112) %0)
          to label %16 unwind label %17

16:                                               ; preds = %15
  resume { ptr, i32 } %8

17:                                               ; preds = %15
  %18 = landingpad { ptr, i32 }
          catch ptr null
  %19 = extractvalue { ptr, i32 } %18, 0
  tail call void @__clang_call_terminate(ptr %19) #12
  unreachable
}

; Function Attrs: mustprogress nofree norecurse nosync nounwind sspstrong willreturn memory(none) uwtable
define dso_local noundef i32 @_ZNK22ModuleInterfaceElement16getNumAttributesEv(ptr nocapture nonnull readnone align 8 %0) unnamed_addr #3 align 2 {
  ret i32 1
}

; Function Attrs: mustprogress nofree norecurse nosync nounwind sspstrong willreturn memory(none) uwtable
define dso_local noundef ptr @_ZNK22ModuleInterfaceElement16getAttributeNameEi(ptr nocapture nonnull readnone align 8 %0, i32 noundef %1) unnamed_addr #3 align 2 {
  %3 = icmp eq i32 %1, 0
  %4 = select i1 %3, ptr @.str.6, ptr null
  ret ptr %4
}

; Function Attrs: mustprogress nofree norecurse nosync nounwind sspstrong willreturn memory(argmem: read) uwtable
define dso_local noundef ptr @_ZNK22ModuleInterfaceElement12getAttributeEi(ptr nocapture noundef nonnull readonly align 8 dereferenceable(144) %0, i32 noundef %1) unnamed_addr #6 align 2 {
  %3 = icmp eq i32 %1, 0
  %4 = getelementptr inbounds %class.ModuleInterfaceElement, ptr %0, i64 0, i32 1
  %5 = load ptr, ptr %4, align 8
  %6 = select i1 %3, ptr %5, ptr null
  ret ptr %6
}

; Function Attrs: sspstrong uwtable
define dso_local void @_ZN22ModuleInterfaceElement12setAttributeEiPKc(ptr noundef nonnull align 8 dereferenceable(144) %0, i32 noundef %1, ptr noundef %2) unnamed_addr #0 align 2 {
  %4 = icmp eq i32 %1, 0
  br i1 %4, label %5, label %11

5:                                                ; preds = %3
  %6 = getelementptr inbounds %class.ModuleInterfaceElement, ptr %0, i64 0, i32 1
  %7 = getelementptr inbounds %class.ModuleInterfaceElement, ptr %0, i64 0, i32 1, i32 1
  %8 = load i64, ptr %7, align 8, !tbaa !12
  %9 = tail call i64 @strlen(ptr noundef nonnull dereferenceable(1) %2) #13
  %10 = tail call noundef nonnull align 8 dereferenceable(32) ptr @_ZNSt7__cxx1112basic_stringIcSt11char_traitsIcESaIcEE10_M_replaceEmmPKcm(ptr noundef nonnull align 8 dereferenceable(32) %6, i64 noundef 0, i64 noundef %8, ptr noundef %2, i64 noundef %9)
  br label %11

11:                                               ; preds = %3, %5
  ret void
}

; Function Attrs: mustprogress nofree norecurse nosync nounwind sspstrong willreturn memory(none) uwtable
define dso_local noalias noundef ptr @_ZNK22ModuleInterfaceElement19getAttributeDefaultEi(ptr nocapture nonnull readnone align 8 %0, i32 %1) unnamed_addr #3 align 2 {
  ret ptr null
}

; Function Attrs: sspstrong uwtable
define dso_local noundef nonnull ptr @_ZNK22ModuleInterfaceElement3dupEv(ptr noundef nonnull align 8 dereferenceable(144) %0) unnamed_addr #0 align 2 personality ptr @__gxx_personality_v0 {
  %2 = tail call noalias noundef nonnull dereferenceable(144) ptr @_Znwm(i64 noundef 144) #14
  invoke void @_ZN10NEDElementC2Ev(ptr noundef nonnull align 8 dereferenceable(112) %2)
          to label %3 unwind label %21

3:                                                ; preds = %1
  store ptr getelementptr inbounds ({ [43 x ptr] }, ptr @_ZTV22ModuleInterfaceElement, i64 0, inrange i32 0, i64 2), ptr %2, align 8, !tbaa !5
  %4 = getelementptr inbounds %class.ModuleInterfaceElement, ptr %2, i64 0, i32 1
  %5 = getelementptr inbounds %class.ModuleInterfaceElement, ptr %2, i64 0, i32 1, i32 2
  store ptr %5, ptr %4, align 8, !tbaa !8
  %6 = getelementptr inbounds %class.ModuleInterfaceElement, ptr %2, i64 0, i32 1, i32 1
  store i64 0, ptr %6, align 8, !tbaa !12
  store i8 0, ptr %5, align 8, !tbaa !15
  invoke void @_ZN10NEDElement13applyDefaultsEv(ptr noundef nonnull align 8 dereferenceable(112) %2)
          to label %19 unwind label %7

7:                                                ; preds = %3
  %8 = landingpad { ptr, i32 }
          cleanup
  %9 = load ptr, ptr %4, align 8, !tbaa !16
  %10 = icmp eq ptr %9, %5
  br i1 %10, label %11, label %14

11:                                               ; preds = %7
  %12 = load i64, ptr %6, align 8, !tbaa !12
  %13 = icmp ult i64 %12, 16
  tail call void @llvm.assume(i1 %13)
  br label %15

14:                                               ; preds = %7
  tail call void @_ZdlPv(ptr noundef %9) #15
  br label %15

15:                                               ; preds = %14, %11
  invoke void @_ZN10NEDElementD2Ev(ptr noundef nonnull align 8 dereferenceable(112) %2)
          to label %23 unwind label %16

16:                                               ; preds = %15
  %17 = landingpad { ptr, i32 }
          catch ptr null
  %18 = extractvalue { ptr, i32 } %17, 0
  tail call void @__clang_call_terminate(ptr %18) #12
  unreachable

19:                                               ; preds = %3
  %20 = getelementptr inbounds %class.ModuleInterfaceElement, ptr %0, i64 0, i32 1
  tail call void @_ZNSt7__cxx1112basic_stringIcSt11char_traitsIcESaIcEE9_M_assignERKS4_(ptr noundef nonnull align 8 dereferenceable(32) %4, ptr noundef nonnull align 8 dereferenceable(32) %20)
  ret ptr %2

21:                                               ; preds = %1
  %22 = landingpad { ptr, i32 }
          cleanup
  br label %23

23:                                               ; preds = %15, %21
  %24 = phi { ptr, i32 } [ %22, %21 ], [ %8, %15 ]
  tail call void @_ZdlPv(ptr noundef nonnull %2) #15
  resume { ptr, i32 } %24
}

; Function Attrs: sspstrong uwtable
define dso_local noundef ptr @_ZNK22ModuleInterfaceElement29getNextModuleInterfaceSiblingEv(ptr noundef nonnull align 8 dereferenceable(144) %0) unnamed_addr #0 align 2 {
  %2 = load ptr, ptr %0, align 8, !tbaa !5
  %3 = getelementptr inbounds ptr, ptr %2, i64 31
  %4 = load ptr, ptr %3, align 8
  %5 = tail call noundef ptr %4(ptr noundef nonnull align 8 dereferenceable(112) %0, i32 noundef 10)
  ret ptr %5
}

; Function Attrs: sspstrong uwtable
define dso_local noundef ptr @_ZNK22ModuleInterfaceElement20getFirstCommentChildEv(ptr noundef nonnull align 8 dereferenceable(144) %0) unnamed_addr #0 align 2 {
  %2 = load ptr, ptr %0, align 8, !tbaa !5
  %3 = getelementptr inbounds ptr, ptr %2, i64 30
  %4 = load ptr, ptr %3, align 8
  %5 = tail call noundef ptr %4(ptr noundef nonnull align 8 dereferenceable(112) %0, i32 noundef 3)
  ret ptr %5
}

; Function Attrs: sspstrong uwtable
define dso_local noundef ptr @_ZNK22ModuleInterfaceElement20getFirstExtendsChildEv(ptr noundef nonnull align 8 dereferenceable(144) %0) unnamed_addr #0 align 2 {
  %2 = load ptr, ptr %0, align 8, !tbaa !5
  %3 = getelementptr inbounds ptr, ptr %2, i64 30
  %4 = load ptr, ptr %3, align 8
  %5 = tail call noundef ptr %4(ptr noundef nonnull align 8 dereferenceable(112) %0, i32 noundef 7)
  ret ptr %5
}

; Function Attrs: sspstrong uwtable
define dso_local noundef ptr @_ZNK22ModuleInterfaceElement23getFirstParametersChildEv(ptr noundef nonnull align 8 dereferenceable(144) %0) unnamed_addr #0 align 2 {
  %2 = load ptr, ptr %0, align 8, !tbaa !5
  %3 = getelementptr inbounds ptr, ptr %2, i64 30
  %4 = load ptr, ptr %3, align 8
  %5 = tail call noundef ptr %4(ptr noundef nonnull align 8 dereferenceable(112) %0, i32 noundef 14)
  ret ptr %5
}

; Function Attrs: sspstrong uwtable
define dso_local noundef ptr @_ZNK22ModuleInterfaceElement18getFirstGatesChildEv(ptr noundef nonnull align 8 dereferenceable(144) %0) unnamed_addr #0 align 2 {
  %2 = load ptr, ptr %0, align 8, !tbaa !5
  %3 = getelementptr inbounds ptr, ptr %2, i64 30
  %4 = load ptr, ptr %3, align 8
  %5 = tail call noundef ptr %4(ptr noundef nonnull align 8 dereferenceable(112) %0, i32 noundef 19)
  ret ptr %5
}

; Function Attrs: sspstrong uwtable
define dso_local void @_ZN21CompoundModuleElementC2Ev(ptr noundef nonnull align 8 dereferenceable(144) %0) unnamed_addr #0 align 2 personality ptr @__gxx_personality_v0 {
  tail call void @_ZN10NEDElementC2Ev(ptr noundef nonnull align 8 dereferenceable(112) %0)
  store ptr getelementptr inbounds ({ [47 x ptr] }, ptr @_ZTV21CompoundModuleElement, i64 0, inrange i32 0, i64 2), ptr %0, align 8, !tbaa !5
  %2 = getelementptr inbounds %class.CompoundModuleElement, ptr %0, i64 0, i32 1
  %3 = getelementptr inbounds %class.CompoundModuleElement, ptr %0, i64 0, i32 1, i32 2
  store ptr %3, ptr %2, align 8, !tbaa !8
  %4 = getelementptr inbounds %class.CompoundModuleElement, ptr %0, i64 0, i32 1, i32 1
  store i64 0, ptr %4, align 8, !tbaa !12
  store i8 0, ptr %3, align 8, !tbaa !15
  invoke void @_ZN10NEDElement13applyDefaultsEv(ptr noundef nonnull align 8 dereferenceable(112) %0)
          to label %5 unwind label %6

5:                                                ; preds = %1
  ret void

6:                                                ; preds = %1
  %7 = landingpad { ptr, i32 }
          cleanup
  %8 = load ptr, ptr %2, align 8, !tbaa !16
  %9 = icmp eq ptr %8, %3
  br i1 %9, label %10, label %13

10:                                               ; preds = %6
  %11 = load i64, ptr %4, align 8, !tbaa !12
  %12 = icmp ult i64 %11, 16
  tail call void @llvm.assume(i1 %12)
  br label %14

13:                                               ; preds = %6
  tail call void @_ZdlPv(ptr noundef %8) #15
  br label %14

14:                                               ; preds = %13, %10
  invoke void @_ZN10NEDElementD2Ev(ptr noundef nonnull align 8 dereferenceable(112) %0)
          to label %15 unwind label %16

15:                                               ; preds = %14
  resume { ptr, i32 } %7

16:                                               ; preds = %14
  %17 = landingpad { ptr, i32 }
          catch ptr null
  %18 = extractvalue { ptr, i32 } %17, 0
  tail call void @__clang_call_terminate(ptr %18) #12
  unreachable
}

; Function Attrs: sspstrong uwtable
define dso_local void @_ZN21CompoundModuleElementC2EP10NEDElement(ptr noundef nonnull align 8 dereferenceable(144) %0, ptr noundef %1) unnamed_addr #0 align 2 personality ptr @__gxx_personality_v0 {
  tail call void @_ZN10NEDElementC2EPS_(ptr noundef nonnull align 8 dereferenceable(112) %0, ptr noundef %1)
  store ptr getelementptr inbounds ({ [47 x ptr] }, ptr @_ZTV21CompoundModuleElement, i64 0, inrange i32 0, i64 2), ptr %0, align 8, !tbaa !5
  %3 = getelementptr inbounds %class.CompoundModuleElement, ptr %0, i64 0, i32 1
  %4 = getelementptr inbounds %class.CompoundModuleElement, ptr %0, i64 0, i32 1, i32 2
  store ptr %4, ptr %3, align 8, !tbaa !8
  %5 = getelementptr inbounds %class.CompoundModuleElement, ptr %0, i64 0, i32 1, i32 1
  store i64 0, ptr %5, align 8, !tbaa !12
  store i8 0, ptr %4, align 8, !tbaa !15
  invoke void @_ZN10NEDElement13applyDefaultsEv(ptr noundef nonnull align 8 dereferenceable(112) %0)
          to label %6 unwind label %7

6:                                                ; preds = %2
  ret void

7:                                                ; preds = %2
  %8 = landingpad { ptr, i32 }
          cleanup
  %9 = load ptr, ptr %3, align 8, !tbaa !16
  %10 = icmp eq ptr %9, %4
  br i1 %10, label %11, label %14

11:                                               ; preds = %7
  %12 = load i64, ptr %5, align 8, !tbaa !12
  %13 = icmp ult i64 %12, 16
  tail call void @llvm.assume(i1 %13)
  br label %15

14:                                               ; preds = %7
  tail call void @_ZdlPv(ptr noundef %9) #15
  br label %15

15:                                               ; preds = %14, %11
  invoke void @_ZN10NEDElementD2Ev(ptr noundef nonnull align 8 dereferenceable(112) %0)
          to label %16 unwind label %17

16:                                               ; preds = %15
  resume { ptr, i32 } %8

17:                                               ; preds = %15
  %18 = landingpad { ptr, i32 }
          catch ptr null
  %19 = extractvalue { ptr, i32 } %18, 0
  tail call void @__clang_call_terminate(ptr %19) #12
  unreachable
}

; Function Attrs: mustprogress nofree norecurse nosync nounwind sspstrong willreturn memory(none) uwtable
define dso_local noundef i32 @_ZNK21CompoundModuleElement16getNumAttributesEv(ptr nocapture nonnull readnone align 8 %0) unnamed_addr #3 align 2 {
  ret i32 1
}

; Function Attrs: mustprogress nofree norecurse nosync nounwind sspstrong willreturn memory(none) uwtable
define dso_local noundef ptr @_ZNK21CompoundModuleElement16getAttributeNameEi(ptr nocapture nonnull readnone align 8 %0, i32 noundef %1) unnamed_addr #3 align 2 {
  %3 = icmp eq i32 %1, 0
  %4 = select i1 %3, ptr @.str.6, ptr null
  ret ptr %4
}

; Function Attrs: mustprogress nofree norecurse nosync nounwind sspstrong willreturn memory(argmem: read) uwtable
define dso_local noundef ptr @_ZNK21CompoundModuleElement12getAttributeEi(ptr nocapture noundef nonnull readonly align 8 dereferenceable(144) %0, i32 noundef %1) unnamed_addr #6 align 2 {
  %3 = icmp eq i32 %1, 0
  %4 = getelementptr inbounds %class.CompoundModuleElement, ptr %0, i64 0, i32 1
  %5 = load ptr, ptr %4, align 8
  %6 = select i1 %3, ptr %5, ptr null
  ret ptr %6
}

; Function Attrs: sspstrong uwtable
define dso_local void @_ZN21CompoundModuleElement12setAttributeEiPKc(ptr noundef nonnull align 8 dereferenceable(144) %0, i32 noundef %1, ptr noundef %2) unnamed_addr #0 align 2 {
  %4 = icmp eq i32 %1, 0
  br i1 %4, label %5, label %11

5:                                                ; preds = %3
  %6 = getelementptr inbounds %class.CompoundModuleElement, ptr %0, i64 0, i32 1
  %7 = getelementptr inbounds %class.CompoundModuleElement, ptr %0, i64 0, i32 1, i32 1
  %8 = load i64, ptr %7, align 8, !tbaa !12
  %9 = tail call i64 @strlen(ptr noundef nonnull dereferenceable(1) %2) #13
  %10 = tail call noundef nonnull align 8 dereferenceable(32) ptr @_ZNSt7__cxx1112basic_stringIcSt11char_traitsIcESaIcEE10_M_replaceEmmPKcm(ptr noundef nonnull align 8 dereferenceable(32) %6, i64 noundef 0, i64 noundef %8, ptr noundef %2, i64 noundef %9)
  br label %11

11:                                               ; preds = %3, %5
  ret void
}

; Function Attrs: mustprogress nofree norecurse nosync nounwind sspstrong willreturn memory(none) uwtable
define dso_local noalias noundef ptr @_ZNK21CompoundModuleElement19getAttributeDefaultEi(ptr nocapture nonnull readnone align 8 %0, i32 %1) unnamed_addr #3 align 2 {
  ret ptr null
}

; Function Attrs: sspstrong uwtable
define dso_local noundef nonnull ptr @_ZNK21CompoundModuleElement3dupEv(ptr noundef nonnull align 8 dereferenceable(144) %0) unnamed_addr #0 align 2 personality ptr @__gxx_personality_v0 {
  %2 = tail call noalias noundef nonnull dereferenceable(144) ptr @_Znwm(i64 noundef 144) #14
  invoke void @_ZN10NEDElementC2Ev(ptr noundef nonnull align 8 dereferenceable(112) %2)
          to label %3 unwind label %21

3:                                                ; preds = %1
  store ptr getelementptr inbounds ({ [47 x ptr] }, ptr @_ZTV21CompoundModuleElement, i64 0, inrange i32 0, i64 2), ptr %2, align 8, !tbaa !5
  %4 = getelementptr inbounds %class.CompoundModuleElement, ptr %2, i64 0, i32 1
  %5 = getelementptr inbounds %class.CompoundModuleElement, ptr %2, i64 0, i32 1, i32 2
  store ptr %5, ptr %4, align 8, !tbaa !8
  %6 = getelementptr inbounds %class.CompoundModuleElement, ptr %2, i64 0, i32 1, i32 1
  store i64 0, ptr %6, align 8, !tbaa !12
  store i8 0, ptr %5, align 8, !tbaa !15
  invoke void @_ZN10NEDElement13applyDefaultsEv(ptr noundef nonnull align 8 dereferenceable(112) %2)
          to label %19 unwind label %7

7:                                                ; preds = %3
  %8 = landingpad { ptr, i32 }
          cleanup
  %9 = load ptr, ptr %4, align 8, !tbaa !16
  %10 = icmp eq ptr %9, %5
  br i1 %10, label %11, label %14

11:                                               ; preds = %7
  %12 = load i64, ptr %6, align 8, !tbaa !12
  %13 = icmp ult i64 %12, 16
  tail call void @llvm.assume(i1 %13)
  br label %15

14:                                               ; preds = %7
  tail call void @_ZdlPv(ptr noundef %9) #15
  br label %15

15:                                               ; preds = %14, %11
  invoke void @_ZN10NEDElementD2Ev(ptr noundef nonnull align 8 dereferenceable(112) %2)
          to label %23 unwind label %16

16:                                               ; preds = %15
  %17 = landingpad { ptr, i32 }
          catch ptr null
  %18 = extractvalue { ptr, i32 } %17, 0
  tail call void @__clang_call_terminate(ptr %18) #12
  unreachable

19:                                               ; preds = %3
  %20 = getelementptr inbounds %class.CompoundModuleElement, ptr %0, i64 0, i32 1
  tail call void @_ZNSt7__cxx1112basic_stringIcSt11char_traitsIcESaIcEE9_M_assignERKS4_(ptr noundef nonnull align 8 dereferenceable(32) %4, ptr noundef nonnull align 8 dereferenceable(32) %20)
  ret ptr %2

21:                                               ; preds = %1
  %22 = landingpad { ptr, i32 }
          cleanup
  br label %23

23:                                               ; preds = %15, %21
  %24 = phi { ptr, i32 } [ %22, %21 ], [ %8, %15 ]
  tail call void @_ZdlPv(ptr noundef nonnull %2) #15
  resume { ptr, i32 } %24
}

; Function Attrs: sspstrong uwtable
define dso_local noundef ptr @_ZNK21CompoundModuleElement28getNextCompoundModuleSiblingEv(ptr noundef nonnull align 8 dereferenceable(144) %0) unnamed_addr #0 align 2 {
  %2 = load ptr, ptr %0, align 8, !tbaa !5
  %3 = getelementptr inbounds ptr, ptr %2, i64 31
  %4 = load ptr, ptr %3, align 8
  %5 = tail call noundef ptr %4(ptr noundef nonnull align 8 dereferenceable(112) %0, i32 noundef 11)
  ret ptr %5
}

; Function Attrs: sspstrong uwtable
define dso_local noundef ptr @_ZNK21CompoundModuleElement20getFirstCommentChildEv(ptr noundef nonnull align 8 dereferenceable(144) %0) unnamed_addr #0 align 2 {
  %2 = load ptr, ptr %0, align 8, !tbaa !5
  %3 = getelementptr inbounds ptr, ptr %2, i64 30
  %4 = load ptr, ptr %3, align 8
  %5 = tail call noundef ptr %4(ptr noundef nonnull align 8 dereferenceable(112) %0, i32 noundef 3)
  ret ptr %5
}

; Function Attrs: sspstrong uwtable
define dso_local noundef ptr @_ZNK21CompoundModuleElement20getFirstExtendsChildEv(ptr noundef nonnull align 8 dereferenceable(144) %0) unnamed_addr #0 align 2 {
  %2 = load ptr, ptr %0, align 8, !tbaa !5
  %3 = getelementptr inbounds ptr, ptr %2, i64 30
  %4 = load ptr, ptr %3, align 8
  %5 = tail call noundef ptr %4(ptr noundef nonnull align 8 dereferenceable(112) %0, i32 noundef 7)
  ret ptr %5
}

; Function Attrs: sspstrong uwtable
define dso_local noundef ptr @_ZNK21CompoundModuleElement26getFirstInterfaceNameChildEv(ptr noundef nonnull align 8 dereferenceable(144) %0) unnamed_addr #0 align 2 {
  %2 = load ptr, ptr %0, align 8, !tbaa !5
  %3 = getelementptr inbounds ptr, ptr %2, i64 30
  %4 = load ptr, ptr %3, align 8
  %5 = tail call noundef ptr %4(ptr noundef nonnull align 8 dereferenceable(112) %0, i32 noundef 8)
  ret ptr %5
}

; Function Attrs: sspstrong uwtable
define dso_local noundef ptr @_ZNK21CompoundModuleElement23getFirstParametersChildEv(ptr noundef nonnull align 8 dereferenceable(144) %0) unnamed_addr #0 align 2 {
  %2 = load ptr, ptr %0, align 8, !tbaa !5
  %3 = getelementptr inbounds ptr, ptr %2, i64 30
  %4 = load ptr, ptr %3, align 8
  %5 = tail call noundef ptr %4(ptr noundef nonnull align 8 dereferenceable(112) %0, i32 noundef 14)
  ret ptr %5
}

; Function Attrs: sspstrong uwtable
define dso_local noundef ptr @_ZNK21CompoundModuleElement18getFirstGatesChildEv(ptr noundef nonnull align 8 dereferenceable(144) %0) unnamed_addr #0 align 2 {
  %2 = load ptr, ptr %0, align 8, !tbaa !5
  %3 = getelementptr inbounds ptr, ptr %2, i64 30
  %4 = load ptr, ptr %3, align 8
  %5 = tail call noundef ptr %4(ptr noundef nonnull align 8 dereferenceable(112) %0, i32 noundef 19)
  ret ptr %5
}

; Function Attrs: sspstrong uwtable
define dso_local noundef ptr @_ZNK21CompoundModuleElement18getFirstTypesChildEv(ptr noundef nonnull align 8 dereferenceable(144) %0) unnamed_addr #0 align 2 {
  %2 = load ptr, ptr %0, align 8, !tbaa !5
  %3 = getelementptr inbounds ptr, ptr %2, i64 30
  %4 = load ptr, ptr %3, align 8
  %5 = tail call noundef ptr %4(ptr noundef nonnull align 8 dereferenceable(112) %0, i32 noundef 21)
  ret ptr %5
}

; Function Attrs: sspstrong uwtable
define dso_local noundef ptr @_ZNK21CompoundModuleElement23getFirstSubmodulesChildEv(ptr noundef nonnull align 8 dereferenceable(144) %0) unnamed_addr #0 align 2 {
  %2 = load ptr, ptr %0, align 8, !tbaa !5
  %3 = getelementptr inbounds ptr, ptr %2, i64 30
  %4 = load ptr, ptr %3, align 8
  %5 = tail call noundef ptr %4(ptr noundef nonnull align 8 dereferenceable(112) %0, i32 noundef 22)
  ret ptr %5
}

; Function Attrs: sspstrong uwtable
define dso_local noundef ptr @_ZNK21CompoundModuleElement24getFirstConnectionsChildEv(ptr noundef nonnull align 8 dereferenceable(144) %0) unnamed_addr #0 align 2 {
  %2 = load ptr, ptr %0, align 8, !tbaa !5
  %3 = getelementptr inbounds ptr, ptr %2, i64 30
  %4 = load ptr, ptr %3, align 8
  %5 = tail call noundef ptr %4(ptr noundef nonnull align 8 dereferenceable(112) %0, i32 noundef 24)
  ret ptr %5
}

; Function Attrs: sspstrong uwtable
define dso_local void @_ZN23ChannelInterfaceElementC2Ev(ptr noundef nonnull align 8 dereferenceable(144) %0) unnamed_addr #0 align 2 personality ptr @__gxx_personality_v0 {
  tail call void @_ZN10NEDElementC2Ev(ptr noundef nonnull align 8 dereferenceable(112) %0)
  store ptr getelementptr inbounds ({ [42 x ptr] }, ptr @_ZTV23ChannelInterfaceElement, i64 0, inrange i32 0, i64 2), ptr %0, align 8, !tbaa !5
  %2 = getelementptr inbounds %class.ChannelInterfaceElement, ptr %0, i64 0, i32 1
  %3 = getelementptr inbounds %class.ChannelInterfaceElement, ptr %0, i64 0, i32 1, i32 2
  store ptr %3, ptr %2, align 8, !tbaa !8
  %4 = getelementptr inbounds %class.ChannelInterfaceElement, ptr %0, i64 0, i32 1, i32 1
  store i64 0, ptr %4, align 8, !tbaa !12
  store i8 0, ptr %3, align 8, !tbaa !15
  invoke void @_ZN10NEDElement13applyDefaultsEv(ptr noundef nonnull align 8 dereferenceable(112) %0)
          to label %5 unwind label %6

5:                                                ; preds = %1
  ret void

6:                                                ; preds = %1
  %7 = landingpad { ptr, i32 }
          cleanup
  %8 = load ptr, ptr %2, align 8, !tbaa !16
  %9 = icmp eq ptr %8, %3
  br i1 %9, label %10, label %13

10:                                               ; preds = %6
  %11 = load i64, ptr %4, align 8, !tbaa !12
  %12 = icmp ult i64 %11, 16
  tail call void @llvm.assume(i1 %12)
  br label %14

13:                                               ; preds = %6
  tail call void @_ZdlPv(ptr noundef %8) #15
  br label %14

14:                                               ; preds = %13, %10
  invoke void @_ZN10NEDElementD2Ev(ptr noundef nonnull align 8 dereferenceable(112) %0)
          to label %15 unwind label %16

15:                                               ; preds = %14
  resume { ptr, i32 } %7

16:                                               ; preds = %14
  %17 = landingpad { ptr, i32 }
          catch ptr null
  %18 = extractvalue { ptr, i32 } %17, 0
  tail call void @__clang_call_terminate(ptr %18) #12
  unreachable
}

; Function Attrs: sspstrong uwtable
define dso_local void @_ZN23ChannelInterfaceElementC2EP10NEDElement(ptr noundef nonnull align 8 dereferenceable(144) %0, ptr noundef %1) unnamed_addr #0 align 2 personality ptr @__gxx_personality_v0 {
  tail call void @_ZN10NEDElementC2EPS_(ptr noundef nonnull align 8 dereferenceable(112) %0, ptr noundef %1)
  store ptr getelementptr inbounds ({ [42 x ptr] }, ptr @_ZTV23ChannelInterfaceElement, i64 0, inrange i32 0, i64 2), ptr %0, align 8, !tbaa !5
  %3 = getelementptr inbounds %class.ChannelInterfaceElement, ptr %0, i64 0, i32 1
  %4 = getelementptr inbounds %class.ChannelInterfaceElement, ptr %0, i64 0, i32 1, i32 2
  store ptr %4, ptr %3, align 8, !tbaa !8
  %5 = getelementptr inbounds %class.ChannelInterfaceElement, ptr %0, i64 0, i32 1, i32 1
  store i64 0, ptr %5, align 8, !tbaa !12
  store i8 0, ptr %4, align 8, !tbaa !15
  invoke void @_ZN10NEDElement13applyDefaultsEv(ptr noundef nonnull align 8 dereferenceable(112) %0)
          to label %6 unwind label %7

6:                                                ; preds = %2
  ret void

7:                                                ; preds = %2
  %8 = landingpad { ptr, i32 }
          cleanup
  %9 = load ptr, ptr %3, align 8, !tbaa !16
  %10 = icmp eq ptr %9, %4
  br i1 %10, label %11, label %14

11:                                               ; preds = %7
  %12 = load i64, ptr %5, align 8, !tbaa !12
  %13 = icmp ult i64 %12, 16
  tail call void @llvm.assume(i1 %13)
  br label %15

14:                                               ; preds = %7
  tail call void @_ZdlPv(ptr noundef %9) #15
  br label %15

15:                                               ; preds = %14, %11
  invoke void @_ZN10NEDElementD2Ev(ptr noundef nonnull align 8 dereferenceable(112) %0)
          to label %16 unwind label %17

16:                                               ; preds = %15
  resume { ptr, i32 } %8

17:                                               ; preds = %15
  %18 = landingpad { ptr, i32 }
          catch ptr null
  %19 = extractvalue { ptr, i32 } %18, 0
  tail call void @__clang_call_terminate(ptr %19) #12
  unreachable
}

; Function Attrs: mustprogress nofree norecurse nosync nounwind sspstrong willreturn memory(none) uwtable
define dso_local noundef i32 @_ZNK23ChannelInterfaceElement16getNumAttributesEv(ptr nocapture nonnull readnone align 8 %0) unnamed_addr #3 align 2 {
  ret i32 1
}

; Function Attrs: mustprogress nofree norecurse nosync nounwind sspstrong willreturn memory(none) uwtable
define dso_local noundef ptr @_ZNK23ChannelInterfaceElement16getAttributeNameEi(ptr nocapture nonnull readnone align 8 %0, i32 noundef %1) unnamed_addr #3 align 2 {
  %3 = icmp eq i32 %1, 0
  %4 = select i1 %3, ptr @.str.6, ptr null
  ret ptr %4
}

; Function Attrs: mustprogress nofree norecurse nosync nounwind sspstrong willreturn memory(argmem: read) uwtable
define dso_local noundef ptr @_ZNK23ChannelInterfaceElement12getAttributeEi(ptr nocapture noundef nonnull readonly align 8 dereferenceable(144) %0, i32 noundef %1) unnamed_addr #6 align 2 {
  %3 = icmp eq i32 %1, 0
  %4 = getelementptr inbounds %class.ChannelInterfaceElement, ptr %0, i64 0, i32 1
  %5 = load ptr, ptr %4, align 8
  %6 = select i1 %3, ptr %5, ptr null
  ret ptr %6
}

; Function Attrs: sspstrong uwtable
define dso_local void @_ZN23ChannelInterfaceElement12setAttributeEiPKc(ptr noundef nonnull align 8 dereferenceable(144) %0, i32 noundef %1, ptr noundef %2) unnamed_addr #0 align 2 {
  %4 = icmp eq i32 %1, 0
  br i1 %4, label %5, label %11

5:                                                ; preds = %3
  %6 = getelementptr inbounds %class.ChannelInterfaceElement, ptr %0, i64 0, i32 1
  %7 = getelementptr inbounds %class.ChannelInterfaceElement, ptr %0, i64 0, i32 1, i32 1
  %8 = load i64, ptr %7, align 8, !tbaa !12
  %9 = tail call i64 @strlen(ptr noundef nonnull dereferenceable(1) %2) #13
  %10 = tail call noundef nonnull align 8 dereferenceable(32) ptr @_ZNSt7__cxx1112basic_stringIcSt11char_traitsIcESaIcEE10_M_replaceEmmPKcm(ptr noundef nonnull align 8 dereferenceable(32) %6, i64 noundef 0, i64 noundef %8, ptr noundef %2, i64 noundef %9)
  br label %11

11:                                               ; preds = %3, %5
  ret void
}

; Function Attrs: mustprogress nofree norecurse nosync nounwind sspstrong willreturn memory(none) uwtable
define dso_local noalias noundef ptr @_ZNK23ChannelInterfaceElement19getAttributeDefaultEi(ptr nocapture nonnull readnone align 8 %0, i32 %1) unnamed_addr #3 align 2 {
  ret ptr null
}

; Function Attrs: sspstrong uwtable
define dso_local noundef nonnull ptr @_ZNK23ChannelInterfaceElement3dupEv(ptr noundef nonnull align 8 dereferenceable(144) %0) unnamed_addr #0 align 2 personality ptr @__gxx_personality_v0 {
  %2 = tail call noalias noundef nonnull dereferenceable(144) ptr @_Znwm(i64 noundef 144) #14
  invoke void @_ZN10NEDElementC2Ev(ptr noundef nonnull align 8 dereferenceable(112) %2)
          to label %3 unwind label %21

3:                                                ; preds = %1
  store ptr getelementptr inbounds ({ [42 x ptr] }, ptr @_ZTV23ChannelInterfaceElement, i64 0, inrange i32 0, i64 2), ptr %2, align 8, !tbaa !5
  %4 = getelementptr inbounds %class.ChannelInterfaceElement, ptr %2, i64 0, i32 1
  %5 = getelementptr inbounds %class.ChannelInterfaceElement, ptr %2, i64 0, i32 1, i32 2
  store ptr %5, ptr %4, align 8, !tbaa !8
  %6 = getelementptr inbounds %class.ChannelInterfaceElement, ptr %2, i64 0, i32 1, i32 1
  store i64 0, ptr %6, align 8, !tbaa !12
  store i8 0, ptr %5, align 8, !tbaa !15
  invoke void @_ZN10NEDElement13applyDefaultsEv(ptr noundef nonnull align 8 dereferenceable(112) %2)
          to label %19 unwind label %7

7:                                                ; preds = %3
  %8 = landingpad { ptr, i32 }
          cleanup
  %9 = load ptr, ptr %4, align 8, !tbaa !16
  %10 = icmp eq ptr %9, %5
  br i1 %10, label %11, label %14

11:                                               ; preds = %7
  %12 = load i64, ptr %6, align 8, !tbaa !12
  %13 = icmp ult i64 %12, 16
  tail call void @llvm.assume(i1 %13)
  br label %15

14:                                               ; preds = %7
  tail call void @_ZdlPv(ptr noundef %9) #15
  br label %15

15:                                               ; preds = %14, %11
  invoke void @_ZN10NEDElementD2Ev(ptr noundef nonnull align 8 dereferenceable(112) %2)
          to label %23 unwind label %16

16:                                               ; preds = %15
  %17 = landingpad { ptr, i32 }
          catch ptr null
  %18 = extractvalue { ptr, i32 } %17, 0
  tail call void @__clang_call_terminate(ptr %18) #12
  unreachable

19:                                               ; preds = %3
  %20 = getelementptr inbounds %class.ChannelInterfaceElement, ptr %0, i64 0, i32 1
  tail call void @_ZNSt7__cxx1112basic_stringIcSt11char_traitsIcESaIcEE9_M_assignERKS4_(ptr noundef nonnull align 8 dereferenceable(32) %4, ptr noundef nonnull align 8 dereferenceable(32) %20)
  ret ptr %2

21:                                               ; preds = %1
  %22 = landingpad { ptr, i32 }
          cleanup
  br label %23

23:                                               ; preds = %15, %21
  %24 = phi { ptr, i32 } [ %22, %21 ], [ %8, %15 ]
  tail call void @_ZdlPv(ptr noundef nonnull %2) #15
  resume { ptr, i32 } %24
}

; Function Attrs: sspstrong uwtable
define dso_local noundef ptr @_ZNK23ChannelInterfaceElement30getNextChannelInterfaceSiblingEv(ptr noundef nonnull align 8 dereferenceable(144) %0) unnamed_addr #0 align 2 {
  %2 = load ptr, ptr %0, align 8, !tbaa !5
  %3 = getelementptr inbounds ptr, ptr %2, i64 31
  %4 = load ptr, ptr %3, align 8
  %5 = tail call noundef ptr %4(ptr noundef nonnull align 8 dereferenceable(112) %0, i32 noundef 12)
  ret ptr %5
}

; Function Attrs: sspstrong uwtable
define dso_local noundef ptr @_ZNK23ChannelInterfaceElement20getFirstCommentChildEv(ptr noundef nonnull align 8 dereferenceable(144) %0) unnamed_addr #0 align 2 {
  %2 = load ptr, ptr %0, align 8, !tbaa !5
  %3 = getelementptr inbounds ptr, ptr %2, i64 30
  %4 = load ptr, ptr %3, align 8
  %5 = tail call noundef ptr %4(ptr noundef nonnull align 8 dereferenceable(112) %0, i32 noundef 3)
  ret ptr %5
}

; Function Attrs: sspstrong uwtable
define dso_local noundef ptr @_ZNK23ChannelInterfaceElement20getFirstExtendsChildEv(ptr noundef nonnull align 8 dereferenceable(144) %0) unnamed_addr #0 align 2 {
  %2 = load ptr, ptr %0, align 8, !tbaa !5
  %3 = getelementptr inbounds ptr, ptr %2, i64 30
  %4 = load ptr, ptr %3, align 8
  %5 = tail call noundef ptr %4(ptr noundef nonnull align 8 dereferenceable(112) %0, i32 noundef 7)
  ret ptr %5
}

; Function Attrs: sspstrong uwtable
define dso_local noundef ptr @_ZNK23ChannelInterfaceElement23getFirstParametersChildEv(ptr noundef nonnull align 8 dereferenceable(144) %0) unnamed_addr #0 align 2 {
  %2 = load ptr, ptr %0, align 8, !tbaa !5
  %3 = getelementptr inbounds ptr, ptr %2, i64 30
  %4 = load ptr, ptr %3, align 8
  %5 = tail call noundef ptr %4(ptr noundef nonnull align 8 dereferenceable(112) %0, i32 noundef 14)
  ret ptr %5
}

; Function Attrs: sspstrong uwtable
define dso_local void @_ZN14ChannelElementC2Ev(ptr noundef nonnull align 8 dereferenceable(144) %0) unnamed_addr #0 align 2 personality ptr @__gxx_personality_v0 {
  tail call void @_ZN10NEDElementC2Ev(ptr noundef nonnull align 8 dereferenceable(112) %0)
  store ptr getelementptr inbounds ({ [43 x ptr] }, ptr @_ZTV14ChannelElement, i64 0, inrange i32 0, i64 2), ptr %0, align 8, !tbaa !5
  %2 = getelementptr inbounds %class.ChannelElement, ptr %0, i64 0, i32 1
  %3 = getelementptr inbounds %class.ChannelElement, ptr %0, i64 0, i32 1, i32 2
  store ptr %3, ptr %2, align 8, !tbaa !8
  %4 = getelementptr inbounds %class.ChannelElement, ptr %0, i64 0, i32 1, i32 1
  store i64 0, ptr %4, align 8, !tbaa !12
  store i8 0, ptr %3, align 8, !tbaa !15
  invoke void @_ZN10NEDElement13applyDefaultsEv(ptr noundef nonnull align 8 dereferenceable(112) %0)
          to label %5 unwind label %6

5:                                                ; preds = %1
  ret void

6:                                                ; preds = %1
  %7 = landingpad { ptr, i32 }
          cleanup
  %8 = load ptr, ptr %2, align 8, !tbaa !16
  %9 = icmp eq ptr %8, %3
  br i1 %9, label %10, label %13

10:                                               ; preds = %6
  %11 = load i64, ptr %4, align 8, !tbaa !12
  %12 = icmp ult i64 %11, 16
  tail call void @llvm.assume(i1 %12)
  br label %14

13:                                               ; preds = %6
  tail call void @_ZdlPv(ptr noundef %8) #15
  br label %14

14:                                               ; preds = %13, %10
  invoke void @_ZN10NEDElementD2Ev(ptr noundef nonnull align 8 dereferenceable(112) %0)
          to label %15 unwind label %16

15:                                               ; preds = %14
  resume { ptr, i32 } %7

16:                                               ; preds = %14
  %17 = landingpad { ptr, i32 }
          catch ptr null
  %18 = extractvalue { ptr, i32 } %17, 0
  tail call void @__clang_call_terminate(ptr %18) #12
  unreachable
}

; Function Attrs: sspstrong uwtable
define dso_local void @_ZN14ChannelElementC2EP10NEDElement(ptr noundef nonnull align 8 dereferenceable(144) %0, ptr noundef %1) unnamed_addr #0 align 2 personality ptr @__gxx_personality_v0 {
  tail call void @_ZN10NEDElementC2EPS_(ptr noundef nonnull align 8 dereferenceable(112) %0, ptr noundef %1)
  store ptr getelementptr inbounds ({ [43 x ptr] }, ptr @_ZTV14ChannelElement, i64 0, inrange i32 0, i64 2), ptr %0, align 8, !tbaa !5
  %3 = getelementptr inbounds %class.ChannelElement, ptr %0, i64 0, i32 1
  %4 = getelementptr inbounds %class.ChannelElement, ptr %0, i64 0, i32 1, i32 2
  store ptr %4, ptr %3, align 8, !tbaa !8
  %5 = getelementptr inbounds %class.ChannelElement, ptr %0, i64 0, i32 1, i32 1
  store i64 0, ptr %5, align 8, !tbaa !12
  store i8 0, ptr %4, align 8, !tbaa !15
  invoke void @_ZN10NEDElement13applyDefaultsEv(ptr noundef nonnull align 8 dereferenceable(112) %0)
          to label %6 unwind label %7

6:                                                ; preds = %2
  ret void

7:                                                ; preds = %2
  %8 = landingpad { ptr, i32 }
          cleanup
  %9 = load ptr, ptr %3, align 8, !tbaa !16
  %10 = icmp eq ptr %9, %4
  br i1 %10, label %11, label %14

11:                                               ; preds = %7
  %12 = load i64, ptr %5, align 8, !tbaa !12
  %13 = icmp ult i64 %12, 16
  tail call void @llvm.assume(i1 %13)
  br label %15

14:                                               ; preds = %7
  tail call void @_ZdlPv(ptr noundef %9) #15
  br label %15

15:                                               ; preds = %14, %11
  invoke void @_ZN10NEDElementD2Ev(ptr noundef nonnull align 8 dereferenceable(112) %0)
          to label %16 unwind label %17

16:                                               ; preds = %15
  resume { ptr, i32 } %8

17:                                               ; preds = %15
  %18 = landingpad { ptr, i32 }
          catch ptr null
  %19 = extractvalue { ptr, i32 } %18, 0
  tail call void @__clang_call_terminate(ptr %19) #12
  unreachable
}

; Function Attrs: mustprogress nofree norecurse nosync nounwind sspstrong willreturn memory(none) uwtable
define dso_local noundef i32 @_ZNK14ChannelElement16getNumAttributesEv(ptr nocapture nonnull readnone align 8 %0) unnamed_addr #3 align 2 {
  ret i32 1
}

; Function Attrs: mustprogress nofree norecurse nosync nounwind sspstrong willreturn memory(none) uwtable
define dso_local noundef ptr @_ZNK14ChannelElement16getAttributeNameEi(ptr nocapture nonnull readnone align 8 %0, i32 noundef %1) unnamed_addr #3 align 2 {
  %3 = icmp eq i32 %1, 0
  %4 = select i1 %3, ptr @.str.6, ptr null
  ret ptr %4
}

; Function Attrs: mustprogress nofree norecurse nosync nounwind sspstrong willreturn memory(argmem: read) uwtable
define dso_local noundef ptr @_ZNK14ChannelElement12getAttributeEi(ptr nocapture noundef nonnull readonly align 8 dereferenceable(144) %0, i32 noundef %1) unnamed_addr #6 align 2 {
  %3 = icmp eq i32 %1, 0
  %4 = getelementptr inbounds %class.ChannelElement, ptr %0, i64 0, i32 1
  %5 = load ptr, ptr %4, align 8
  %6 = select i1 %3, ptr %5, ptr null
  ret ptr %6
}

; Function Attrs: sspstrong uwtable
define dso_local void @_ZN14ChannelElement12setAttributeEiPKc(ptr noundef nonnull align 8 dereferenceable(144) %0, i32 noundef %1, ptr noundef %2) unnamed_addr #0 align 2 {
  %4 = icmp eq i32 %1, 0
  br i1 %4, label %5, label %11

5:                                                ; preds = %3
  %6 = getelementptr inbounds %class.ChannelElement, ptr %0, i64 0, i32 1
  %7 = getelementptr inbounds %class.ChannelElement, ptr %0, i64 0, i32 1, i32 1
  %8 = load i64, ptr %7, align 8, !tbaa !12
  %9 = tail call i64 @strlen(ptr noundef nonnull dereferenceable(1) %2) #13
  %10 = tail call noundef nonnull align 8 dereferenceable(32) ptr @_ZNSt7__cxx1112basic_stringIcSt11char_traitsIcESaIcEE10_M_replaceEmmPKcm(ptr noundef nonnull align 8 dereferenceable(32) %6, i64 noundef 0, i64 noundef %8, ptr noundef %2, i64 noundef %9)
  br label %11

11:                                               ; preds = %3, %5
  ret void
}

; Function Attrs: mustprogress nofree norecurse nosync nounwind sspstrong willreturn memory(none) uwtable
define dso_local noalias noundef ptr @_ZNK14ChannelElement19getAttributeDefaultEi(ptr nocapture nonnull readnone align 8 %0, i32 %1) unnamed_addr #3 align 2 {
  ret ptr null
}

; Function Attrs: sspstrong uwtable
define dso_local noundef nonnull ptr @_ZNK14ChannelElement3dupEv(ptr noundef nonnull align 8 dereferenceable(144) %0) unnamed_addr #0 align 2 personality ptr @__gxx_personality_v0 {
  %2 = tail call noalias noundef nonnull dereferenceable(144) ptr @_Znwm(i64 noundef 144) #14
  invoke void @_ZN10NEDElementC2Ev(ptr noundef nonnull align 8 dereferenceable(112) %2)
          to label %3 unwind label %21

3:                                                ; preds = %1
  store ptr getelementptr inbounds ({ [43 x ptr] }, ptr @_ZTV14ChannelElement, i64 0, inrange i32 0, i64 2), ptr %2, align 8, !tbaa !5
  %4 = getelementptr inbounds %class.ChannelElement, ptr %2, i64 0, i32 1
  %5 = getelementptr inbounds %class.ChannelElement, ptr %2, i64 0, i32 1, i32 2
  store ptr %5, ptr %4, align 8, !tbaa !8
  %6 = getelementptr inbounds %class.ChannelElement, ptr %2, i64 0, i32 1, i32 1
  store i64 0, ptr %6, align 8, !tbaa !12
  store i8 0, ptr %5, align 8, !tbaa !15
  invoke void @_ZN10NEDElement13applyDefaultsEv(ptr noundef nonnull align 8 dereferenceable(112) %2)
          to label %19 unwind label %7

7:                                                ; preds = %3
  %8 = landingpad { ptr, i32 }
          cleanup
  %9 = load ptr, ptr %4, align 8, !tbaa !16
  %10 = icmp eq ptr %9, %5
  br i1 %10, label %11, label %14

11:                                               ; preds = %7
  %12 = load i64, ptr %6, align 8, !tbaa !12
  %13 = icmp ult i64 %12, 16
  tail call void @llvm.assume(i1 %13)
  br label %15

14:                                               ; preds = %7
  tail call void @_ZdlPv(ptr noundef %9) #15
  br label %15

15:                                               ; preds = %14, %11
  invoke void @_ZN10NEDElementD2Ev(ptr noundef nonnull align 8 dereferenceable(112) %2)
          to label %23 unwind label %16

16:                                               ; preds = %15
  %17 = landingpad { ptr, i32 }
          catch ptr null
  %18 = extractvalue { ptr, i32 } %17, 0
  tail call void @__clang_call_terminate(ptr %18) #12
  unreachable

19:                                               ; preds = %3
  %20 = getelementptr inbounds %class.ChannelElement, ptr %0, i64 0, i32 1
  tail call void @_ZNSt7__cxx1112basic_stringIcSt11char_traitsIcESaIcEE9_M_assignERKS4_(ptr noundef nonnull align 8 dereferenceable(32) %4, ptr noundef nonnull align 8 dereferenceable(32) %20)
  ret ptr %2

21:                                               ; preds = %1
  %22 = landingpad { ptr, i32 }
          cleanup
  br label %23

23:                                               ; preds = %15, %21
  %24 = phi { ptr, i32 } [ %22, %21 ], [ %8, %15 ]
  tail call void @_ZdlPv(ptr noundef nonnull %2) #15
  resume { ptr, i32 } %24
}

; Function Attrs: sspstrong uwtable
define dso_local noundef ptr @_ZNK14ChannelElement21getNextChannelSiblingEv(ptr noundef nonnull align 8 dereferenceable(144) %0) unnamed_addr #0 align 2 {
  %2 = load ptr, ptr %0, align 8, !tbaa !5
  %3 = getelementptr inbounds ptr, ptr %2, i64 31
  %4 = load ptr, ptr %3, align 8
  %5 = tail call noundef ptr %4(ptr noundef nonnull align 8 dereferenceable(112) %0, i32 noundef 13)
  ret ptr %5
}

; Function Attrs: sspstrong uwtable
define dso_local noundef ptr @_ZNK14ChannelElement20getFirstCommentChildEv(ptr noundef nonnull align 8 dereferenceable(144) %0) unnamed_addr #0 align 2 {
  %2 = load ptr, ptr %0, align 8, !tbaa !5
  %3 = getelementptr inbounds ptr, ptr %2, i64 30
  %4 = load ptr, ptr %3, align 8
  %5 = tail call noundef ptr %4(ptr noundef nonnull align 8 dereferenceable(112) %0, i32 noundef 3)
  ret ptr %5
}

; Function Attrs: sspstrong uwtable
define dso_local noundef ptr @_ZNK14ChannelElement20getFirstExtendsChildEv(ptr noundef nonnull align 8 dereferenceable(144) %0) unnamed_addr #0 align 2 {
  %2 = load ptr, ptr %0, align 8, !tbaa !5
  %3 = getelementptr inbounds ptr, ptr %2, i64 30
  %4 = load ptr, ptr %3, align 8
  %5 = tail call noundef ptr %4(ptr noundef nonnull align 8 dereferenceable(112) %0, i32 noundef 7)
  ret ptr %5
}

; Function Attrs: sspstrong uwtable
define dso_local noundef ptr @_ZNK14ChannelElement26getFirstInterfaceNameChildEv(ptr noundef nonnull align 8 dereferenceable(144) %0) unnamed_addr #0 align 2 {
  %2 = load ptr, ptr %0, align 8, !tbaa !5
  %3 = getelementptr inbounds ptr, ptr %2, i64 30
  %4 = load ptr, ptr %3, align 8
  %5 = tail call noundef ptr %4(ptr noundef nonnull align 8 dereferenceable(112) %0, i32 noundef 8)
  ret ptr %5
}

; Function Attrs: sspstrong uwtable
define dso_local noundef ptr @_ZNK14ChannelElement23getFirstParametersChildEv(ptr noundef nonnull align 8 dereferenceable(144) %0) unnamed_addr #0 align 2 {
  %2 = load ptr, ptr %0, align 8, !tbaa !5
  %3 = getelementptr inbounds ptr, ptr %2, i64 30
  %4 = load ptr, ptr %3, align 8
  %5 = tail call noundef ptr %4(ptr noundef nonnull align 8 dereferenceable(112) %0, i32 noundef 14)
  ret ptr %5
}

; Function Attrs: sspstrong uwtable
define dso_local void @_ZN17ParametersElementC2Ev(ptr noundef nonnull align 8 dereferenceable(113) %0) unnamed_addr #0 align 2 personality ptr @__gxx_personality_v0 {
  tail call void @_ZN10NEDElementC2Ev(ptr noundef nonnull align 8 dereferenceable(112) %0)
  store ptr getelementptr inbounds ({ [43 x ptr] }, ptr @_ZTV17ParametersElement, i64 0, inrange i32 0, i64 2), ptr %0, align 8, !tbaa !5
  %2 = getelementptr inbounds %class.ParametersElement, ptr %0, i64 0, i32 1
  store i8 0, ptr %2, align 8, !tbaa !25
  invoke void @_ZN10NEDElement13applyDefaultsEv(ptr noundef nonnull align 8 dereferenceable(112) %0)
          to label %3 unwind label %4

3:                                                ; preds = %1
  ret void

4:                                                ; preds = %1
  %5 = landingpad { ptr, i32 }
          cleanup
  invoke void @_ZN10NEDElementD2Ev(ptr noundef nonnull align 8 dereferenceable(112) %0)
          to label %6 unwind label %7

6:                                                ; preds = %4
  resume { ptr, i32 } %5

7:                                                ; preds = %4
  %8 = landingpad { ptr, i32 }
          catch ptr null
  %9 = extractvalue { ptr, i32 } %8, 0
  tail call void @__clang_call_terminate(ptr %9) #12
  unreachable
}

; Function Attrs: sspstrong uwtable
define dso_local void @_ZN17ParametersElementC2EP10NEDElement(ptr noundef nonnull align 8 dereferenceable(113) %0, ptr noundef %1) unnamed_addr #0 align 2 personality ptr @__gxx_personality_v0 {
  tail call void @_ZN10NEDElementC2EPS_(ptr noundef nonnull align 8 dereferenceable(112) %0, ptr noundef %1)
  store ptr getelementptr inbounds ({ [43 x ptr] }, ptr @_ZTV17ParametersElement, i64 0, inrange i32 0, i64 2), ptr %0, align 8, !tbaa !5
  %3 = getelementptr inbounds %class.ParametersElement, ptr %0, i64 0, i32 1
  store i8 0, ptr %3, align 8, !tbaa !25
  invoke void @_ZN10NEDElement13applyDefaultsEv(ptr noundef nonnull align 8 dereferenceable(112) %0)
          to label %4 unwind label %5

4:                                                ; preds = %2
  ret void

5:                                                ; preds = %2
  %6 = landingpad { ptr, i32 }
          cleanup
  invoke void @_ZN10NEDElementD2Ev(ptr noundef nonnull align 8 dereferenceable(112) %0)
          to label %7 unwind label %8

7:                                                ; preds = %5
  resume { ptr, i32 } %6

8:                                                ; preds = %5
  %9 = landingpad { ptr, i32 }
          catch ptr null
  %10 = extractvalue { ptr, i32 } %9, 0
  tail call void @__clang_call_terminate(ptr %10) #12
  unreachable
}

; Function Attrs: mustprogress nofree norecurse nosync nounwind sspstrong willreturn memory(none) uwtable
define dso_local noundef i32 @_ZNK17ParametersElement16getNumAttributesEv(ptr nocapture nonnull readnone align 8 %0) unnamed_addr #3 align 2 {
  ret i32 1
}

; Function Attrs: mustprogress nofree norecurse nosync nounwind sspstrong willreturn memory(none) uwtable
define dso_local noundef ptr @_ZNK17ParametersElement16getAttributeNameEi(ptr nocapture nonnull readnone align 8 %0, i32 noundef %1) unnamed_addr #3 align 2 {
  %3 = icmp eq i32 %1, 0
  %4 = select i1 %3, ptr @.str.10, ptr null
  ret ptr %4
}

; Function Attrs: sspstrong uwtable
define dso_local noundef ptr @_ZNK17ParametersElement12getAttributeEi(ptr nocapture noundef nonnull readonly align 8 dereferenceable(113) %0, i32 noundef %1) unnamed_addr #0 align 2 {
  %3 = icmp eq i32 %1, 0
  br i1 %3, label %4, label %9

4:                                                ; preds = %2
  %5 = getelementptr inbounds %class.ParametersElement, ptr %0, i64 0, i32 1
  %6 = load i8, ptr %5, align 8, !tbaa !25, !range !23, !noundef !24
  %7 = icmp ne i8 %6, 0
  %8 = tail call noundef ptr @_ZN10NEDElement12boolToStringEb(i1 noundef zeroext %7)
  br label %9

9:                                                ; preds = %2, %4
  %10 = phi ptr [ %8, %4 ], [ null, %2 ]
  ret ptr %10
}

; Function Attrs: sspstrong uwtable
define dso_local void @_ZN17ParametersElement12setAttributeEiPKc(ptr nocapture noundef nonnull writeonly align 8 dereferenceable(113) %0, i32 noundef %1, ptr noundef %2) unnamed_addr #0 align 2 {
  %4 = icmp eq i32 %1, 0
  br i1 %4, label %5, label %9

5:                                                ; preds = %3
  %6 = tail call noundef zeroext i1 @_ZN10NEDElement12stringToBoolEPKc(ptr noundef %2)
  %7 = getelementptr inbounds %class.ParametersElement, ptr %0, i64 0, i32 1
  %8 = zext i1 %6 to i8
  store i8 %8, ptr %7, align 8, !tbaa !25
  br label %9

9:                                                ; preds = %3, %5
  ret void
}

; Function Attrs: mustprogress nofree norecurse nosync nounwind sspstrong willreturn memory(none) uwtable
define dso_local noundef ptr @_ZNK17ParametersElement19getAttributeDefaultEi(ptr nocapture nonnull readnone align 8 %0, i32 noundef %1) unnamed_addr #3 align 2 {
  %3 = icmp eq i32 %1, 0
  %4 = select i1 %3, ptr @.str.9, ptr null
  ret ptr %4
}

; Function Attrs: sspstrong uwtable
define dso_local noundef nonnull ptr @_ZNK17ParametersElement3dupEv(ptr nocapture noundef nonnull readonly align 8 dereferenceable(113) %0) unnamed_addr #0 align 2 personality ptr @__gxx_personality_v0 {
  %2 = tail call noalias noundef nonnull dereferenceable(120) ptr @_Znwm(i64 noundef 120) #14
  invoke void @_ZN10NEDElementC2Ev(ptr noundef nonnull align 8 dereferenceable(112) %2)
          to label %3 unwind label %13

3:                                                ; preds = %1
  store ptr getelementptr inbounds ({ [43 x ptr] }, ptr @_ZTV17ParametersElement, i64 0, inrange i32 0, i64 2), ptr %2, align 8, !tbaa !5
  %4 = getelementptr inbounds %class.ParametersElement, ptr %2, i64 0, i32 1
  store i8 0, ptr %4, align 8, !tbaa !25
  invoke void @_ZN10NEDElement13applyDefaultsEv(ptr noundef nonnull align 8 dereferenceable(112) %2)
          to label %10 unwind label %5

5:                                                ; preds = %3
  %6 = landingpad { ptr, i32 }
          cleanup
  invoke void @_ZN10NEDElementD2Ev(ptr noundef nonnull align 8 dereferenceable(112) %2)
          to label %15 unwind label %7

7:                                                ; preds = %5
  %8 = landingpad { ptr, i32 }
          catch ptr null
  %9 = extractvalue { ptr, i32 } %8, 0
  tail call void @__clang_call_terminate(ptr %9) #12
  unreachable

10:                                               ; preds = %3
  %11 = getelementptr inbounds %class.ParametersElement, ptr %0, i64 0, i32 1
  %12 = load i8, ptr %11, align 8, !tbaa !25, !range !23, !noundef !24
  store i8 %12, ptr %4, align 8, !tbaa !25
  ret ptr %2

13:                                               ; preds = %1
  %14 = landingpad { ptr, i32 }
          cleanup
  br label %15

15:                                               ; preds = %5, %13
  %16 = phi { ptr, i32 } [ %14, %13 ], [ %6, %5 ]
  tail call void @_ZdlPv(ptr noundef nonnull %2) #15
  resume { ptr, i32 } %16
}

; Function Attrs: sspstrong uwtable
define dso_local noundef ptr @_ZNK17ParametersElement24getNextParametersSiblingEv(ptr noundef nonnull align 8 dereferenceable(113) %0) unnamed_addr #0 align 2 {
  %2 = load ptr, ptr %0, align 8, !tbaa !5
  %3 = getelementptr inbounds ptr, ptr %2, i64 31
  %4 = load ptr, ptr %3, align 8
  %5 = tail call noundef ptr %4(ptr noundef nonnull align 8 dereferenceable(112) %0, i32 noundef 14)
  ret ptr %5
}

; Function Attrs: sspstrong uwtable
define dso_local noundef ptr @_ZNK17ParametersElement20getFirstCommentChildEv(ptr noundef nonnull align 8 dereferenceable(113) %0) unnamed_addr #0 align 2 {
  %2 = load ptr, ptr %0, align 8, !tbaa !5
  %3 = getelementptr inbounds ptr, ptr %2, i64 30
  %4 = load ptr, ptr %3, align 8
  %5 = tail call noundef ptr %4(ptr noundef nonnull align 8 dereferenceable(112) %0, i32 noundef 3)
  ret ptr %5
}

; Function Attrs: sspstrong uwtable
define dso_local noundef ptr @_ZNK17ParametersElement21getFirstPropertyChildEv(ptr noundef nonnull align 8 dereferenceable(113) %0) unnamed_addr #0 align 2 {
  %2 = load ptr, ptr %0, align 8, !tbaa !5
  %3 = getelementptr inbounds ptr, ptr %2, i64 30
  %4 = load ptr, ptr %3, align 8
  %5 = tail call noundef ptr %4(ptr noundef nonnull align 8 dereferenceable(112) %0, i32 noundef 17)
  ret ptr %5
}

; Function Attrs: sspstrong uwtable
define dso_local noundef ptr @_ZNK17ParametersElement18getFirstParamChildEv(ptr noundef nonnull align 8 dereferenceable(113) %0) unnamed_addr #0 align 2 {
  %2 = load ptr, ptr %0, align 8, !tbaa !5
  %3 = getelementptr inbounds ptr, ptr %2, i64 30
  %4 = load ptr, ptr %3, align 8
  %5 = tail call noundef ptr %4(ptr noundef nonnull align 8 dereferenceable(112) %0, i32 noundef 15)
  ret ptr %5
}

; Function Attrs: sspstrong uwtable
define dso_local noundef ptr @_ZNK17ParametersElement20getFirstPatternChildEv(ptr noundef nonnull align 8 dereferenceable(113) %0) unnamed_addr #0 align 2 {
  %2 = load ptr, ptr %0, align 8, !tbaa !5
  %3 = getelementptr inbounds ptr, ptr %2, i64 30
  %4 = load ptr, ptr %3, align 8
  %5 = tail call noundef ptr %4(ptr noundef nonnull align 8 dereferenceable(112) %0, i32 noundef 16)
  ret ptr %5
}

; Function Attrs: sspstrong uwtable
define dso_local void @_ZN12ParamElement7setTypeEi(ptr nocapture noundef nonnull writeonly align 8 dereferenceable(185) %0, i32 noundef %1) local_unnamed_addr #0 align 2 {
  tail call void @_ZN10NEDElement12validateEnumEiPPKcPii(i32 noundef %1, ptr noundef nonnull @_ZL12partype_vals, ptr noundef nonnull @_ZL12partype_nums, i32 noundef 6)
  %3 = getelementptr inbounds %class.ParamElement, ptr %0, i64 0, i32 1
  store i32 %1, ptr %3, align 8, !tbaa !27
  ret void
}

declare void @_ZN10NEDElement12validateEnumEiPPKcPii(i32 noundef, ptr noundef, ptr noundef, i32 noundef) local_unnamed_addr #1

; Function Attrs: sspstrong uwtable
define dso_local void @_ZN12ParamElementC2Ev(ptr noundef nonnull align 8 dereferenceable(185) %0) unnamed_addr #0 align 2 personality ptr @__gxx_personality_v0 {
  tail call void @_ZN10NEDElementC2Ev(ptr noundef nonnull align 8 dereferenceable(112) %0)
  store ptr getelementptr inbounds ({ [42 x ptr] }, ptr @_ZTV12ParamElement, i64 0, inrange i32 0, i64 2), ptr %0, align 8, !tbaa !5
  %2 = getelementptr inbounds %class.ParamElement, ptr %0, i64 0, i32 4
  %3 = getelementptr inbounds %class.ParamElement, ptr %0, i64 0, i32 4, i32 2
  store ptr %3, ptr %2, align 8, !tbaa !8
  %4 = getelementptr inbounds %class.ParamElement, ptr %0, i64 0, i32 4, i32 1
  store i64 0, ptr %4, align 8, !tbaa !12
  store i8 0, ptr %3, align 8, !tbaa !15
  %5 = getelementptr inbounds %class.ParamElement, ptr %0, i64 0, i32 5
  %6 = getelementptr inbounds %class.ParamElement, ptr %0, i64 0, i32 5, i32 2
  store ptr %6, ptr %5, align 8, !tbaa !8
  %7 = getelementptr inbounds %class.ParamElement, ptr %0, i64 0, i32 5, i32 1
  store i64 0, ptr %7, align 8, !tbaa !12
  store i8 0, ptr %6, align 8, !tbaa !15
  %8 = getelementptr inbounds %class.ParamElement, ptr %0, i64 0, i32 1
  store i32 0, ptr %8, align 8, !tbaa !27
  %9 = getelementptr inbounds %class.ParamElement, ptr %0, i64 0, i32 2
  store i8 0, ptr %9, align 4, !tbaa !29
  %10 = getelementptr inbounds %class.ParamElement, ptr %0, i64 0, i32 6
  store i8 0, ptr %10, align 8, !tbaa !30
  invoke void @_ZN10NEDElement13applyDefaultsEv(ptr noundef nonnull align 8 dereferenceable(112) %0)
          to label %11 unwind label %12

11:                                               ; preds = %1
  ret void

12:                                               ; preds = %1
  %13 = landingpad { ptr, i32 }
          cleanup
  %14 = load ptr, ptr %5, align 8, !tbaa !16
  %15 = icmp eq ptr %14, %6
  br i1 %15, label %16, label %19

16:                                               ; preds = %12
  %17 = load i64, ptr %7, align 8, !tbaa !12
  %18 = icmp ult i64 %17, 16
  tail call void @llvm.assume(i1 %18)
  br label %20

19:                                               ; preds = %12
  tail call void @_ZdlPv(ptr noundef %14) #15
  br label %20

20:                                               ; preds = %19, %16
  %21 = load ptr, ptr %2, align 8, !tbaa !16
  %22 = icmp eq ptr %21, %3
  br i1 %22, label %23, label %26

23:                                               ; preds = %20
  %24 = load i64, ptr %4, align 8, !tbaa !12
  %25 = icmp ult i64 %24, 16
  tail call void @llvm.assume(i1 %25)
  br label %27

26:                                               ; preds = %20
  tail call void @_ZdlPv(ptr noundef %21) #15
  br label %27

27:                                               ; preds = %26, %23
  invoke void @_ZN10NEDElementD2Ev(ptr noundef nonnull align 8 dereferenceable(112) %0)
          to label %28 unwind label %29

28:                                               ; preds = %27
  resume { ptr, i32 } %13

29:                                               ; preds = %27
  %30 = landingpad { ptr, i32 }
          catch ptr null
  %31 = extractvalue { ptr, i32 } %30, 0
  tail call void @__clang_call_terminate(ptr %31) #12
  unreachable
}

; Function Attrs: sspstrong uwtable
define dso_local void @_ZN12ParamElementC2EP10NEDElement(ptr noundef nonnull align 8 dereferenceable(185) %0, ptr noundef %1) unnamed_addr #0 align 2 personality ptr @__gxx_personality_v0 {
  tail call void @_ZN10NEDElementC2EPS_(ptr noundef nonnull align 8 dereferenceable(112) %0, ptr noundef %1)
  store ptr getelementptr inbounds ({ [42 x ptr] }, ptr @_ZTV12ParamElement, i64 0, inrange i32 0, i64 2), ptr %0, align 8, !tbaa !5
  %3 = getelementptr inbounds %class.ParamElement, ptr %0, i64 0, i32 4
  %4 = getelementptr inbounds %class.ParamElement, ptr %0, i64 0, i32 4, i32 2
  store ptr %4, ptr %3, align 8, !tbaa !8
  %5 = getelementptr inbounds %class.ParamElement, ptr %0, i64 0, i32 4, i32 1
  store i64 0, ptr %5, align 8, !tbaa !12
  store i8 0, ptr %4, align 8, !tbaa !15
  %6 = getelementptr inbounds %class.ParamElement, ptr %0, i64 0, i32 5
  %7 = getelementptr inbounds %class.ParamElement, ptr %0, i64 0, i32 5, i32 2
  store ptr %7, ptr %6, align 8, !tbaa !8
  %8 = getelementptr inbounds %class.ParamElement, ptr %0, i64 0, i32 5, i32 1
  store i64 0, ptr %8, align 8, !tbaa !12
  store i8 0, ptr %7, align 8, !tbaa !15
  %9 = getelementptr inbounds %class.ParamElement, ptr %0, i64 0, i32 1
  store i32 0, ptr %9, align 8, !tbaa !27
  %10 = getelementptr inbounds %class.ParamElement, ptr %0, i64 0, i32 2
  store i8 0, ptr %10, align 4, !tbaa !29
  %11 = getelementptr inbounds %class.ParamElement, ptr %0, i64 0, i32 6
  store i8 0, ptr %11, align 8, !tbaa !30
  invoke void @_ZN10NEDElement13applyDefaultsEv(ptr noundef nonnull align 8 dereferenceable(112) %0)
          to label %12 unwind label %13

12:                                               ; preds = %2
  ret void

13:                                               ; preds = %2
  %14 = landingpad { ptr, i32 }
          cleanup
  %15 = load ptr, ptr %6, align 8, !tbaa !16
  %16 = icmp eq ptr %15, %7
  br i1 %16, label %17, label %20

17:                                               ; preds = %13
  %18 = load i64, ptr %8, align 8, !tbaa !12
  %19 = icmp ult i64 %18, 16
  tail call void @llvm.assume(i1 %19)
  br label %21

20:                                               ; preds = %13
  tail call void @_ZdlPv(ptr noundef %15) #15
  br label %21

21:                                               ; preds = %20, %17
  %22 = load ptr, ptr %3, align 8, !tbaa !16
  %23 = icmp eq ptr %22, %4
  br i1 %23, label %24, label %27

24:                                               ; preds = %21
  %25 = load i64, ptr %5, align 8, !tbaa !12
  %26 = icmp ult i64 %25, 16
  tail call void @llvm.assume(i1 %26)
  br label %28

27:                                               ; preds = %21
  tail call void @_ZdlPv(ptr noundef %22) #15
  br label %28

28:                                               ; preds = %27, %24
  invoke void @_ZN10NEDElementD2Ev(ptr noundef nonnull align 8 dereferenceable(112) %0)
          to label %29 unwind label %30

29:                                               ; preds = %28
  resume { ptr, i32 } %14

30:                                               ; preds = %28
  %31 = landingpad { ptr, i32 }
          catch ptr null
  %32 = extractvalue { ptr, i32 } %31, 0
  tail call void @__clang_call_terminate(ptr %32) #12
  unreachable
}

; Function Attrs: mustprogress nofree norecurse nosync nounwind sspstrong willreturn memory(none) uwtable
define dso_local noundef i32 @_ZNK12ParamElement16getNumAttributesEv(ptr nocapture nonnull readnone align 8 %0) unnamed_addr #3 align 2 {
  ret i32 5
}

; Function Attrs: mustprogress nofree norecurse nosync nounwind sspstrong willreturn memory(none) uwtable
define dso_local noundef ptr @_ZNK12ParamElement16getAttributeNameEi(ptr nocapture nonnull readnone align 8 %0, i32 noundef %1) unnamed_addr #3 align 2 {
  %3 = icmp ult i32 %1, 5
  br i1 %3, label %4, label %8

4:                                                ; preds = %2
  %5 = sext i32 %1 to i64
  %6 = shl i64 %5, 2
  %7 = call ptr @llvm.load.relative.i64(ptr @reltable._ZNK12ParamElement16getAttributeNameEi, i64 %6)
  br label %8

8:                                                ; preds = %2, %4
  %9 = phi ptr [ %7, %4 ], [ null, %2 ]
  ret ptr %9
}

; Function Attrs: sspstrong uwtable
define dso_local noundef ptr @_ZNK12ParamElement12getAttributeEi(ptr nocapture noundef nonnull readonly align 8 dereferenceable(185) %0, i32 noundef %1) unnamed_addr #0 align 2 {
  switch i32 %1, label %23 [
    i32 0, label %3
    i32 1, label %7
    i32 2, label %12
    i32 3, label %15
    i32 4, label %18
  ]

3:                                                ; preds = %2
  %4 = getelementptr inbounds %class.ParamElement, ptr %0, i64 0, i32 1
  %5 = load i32, ptr %4, align 8, !tbaa !27
  %6 = tail call noundef ptr @_ZN10NEDElement12enumToStringEiPPKcPii(i32 noundef %5, ptr noundef nonnull @_ZL12partype_vals, ptr noundef nonnull @_ZL12partype_nums, i32 noundef 6)
  br label %23

7:                                                ; preds = %2
  %8 = getelementptr inbounds %class.ParamElement, ptr %0, i64 0, i32 2
  %9 = load i8, ptr %8, align 4, !tbaa !29, !range !23, !noundef !24
  %10 = icmp ne i8 %9, 0
  %11 = tail call noundef ptr @_ZN10NEDElement12boolToStringEb(i1 noundef zeroext %10)
  br label %23

12:                                               ; preds = %2
  %13 = getelementptr inbounds %class.ParamElement, ptr %0, i64 0, i32 4
  %14 = load ptr, ptr %13, align 8, !tbaa !16
  br label %23

15:                                               ; preds = %2
  %16 = getelementptr inbounds %class.ParamElement, ptr %0, i64 0, i32 5
  %17 = load ptr, ptr %16, align 8, !tbaa !16
  br label %23

18:                                               ; preds = %2
  %19 = getelementptr inbounds %class.ParamElement, ptr %0, i64 0, i32 6
  %20 = load i8, ptr %19, align 8, !tbaa !30, !range !23, !noundef !24
  %21 = icmp ne i8 %20, 0
  %22 = tail call noundef ptr @_ZN10NEDElement12boolToStringEb(i1 noundef zeroext %21)
  br label %23

23:                                               ; preds = %2, %18, %15, %12, %7, %3
  %24 = phi ptr [ %22, %18 ], [ %17, %15 ], [ %14, %12 ], [ %11, %7 ], [ %6, %3 ], [ null, %2 ]
  ret ptr %24
}

declare noundef ptr @_ZN10NEDElement12enumToStringEiPPKcPii(i32 noundef, ptr noundef, ptr noundef, i32 noundef) local_unnamed_addr #1

; Function Attrs: sspstrong uwtable
define dso_local void @_ZN12ParamElement12setAttributeEiPKc(ptr noundef nonnull align 8 dereferenceable(185) %0, i32 noundef %1, ptr noundef %2) unnamed_addr #0 align 2 {
  switch i32 %1, label %27 [
    i32 0, label %4
    i32 1, label %7
    i32 2, label %11
    i32 3, label %17
    i32 4, label %23
  ]

4:                                                ; preds = %3
  %5 = tail call noundef i32 @_ZN10NEDElement12stringToEnumEPKcPS1_Pii(ptr noundef %2, ptr noundef nonnull @_ZL12partype_vals, ptr noundef nonnull @_ZL12partype_nums, i32 noundef 6)
  %6 = getelementptr inbounds %class.ParamElement, ptr %0, i64 0, i32 1
  store i32 %5, ptr %6, align 8, !tbaa !27
  br label %27

7:                                                ; preds = %3
  %8 = tail call noundef zeroext i1 @_ZN10NEDElement12stringToBoolEPKc(ptr noundef %2)
  %9 = getelementptr inbounds %class.ParamElement, ptr %0, i64 0, i32 2
  %10 = zext i1 %8 to i8
  store i8 %10, ptr %9, align 4, !tbaa !29
  br label %27

11:                                               ; preds = %3
  %12 = getelementptr inbounds %class.ParamElement, ptr %0, i64 0, i32 4
  %13 = getelementptr inbounds %class.ParamElement, ptr %0, i64 0, i32 4, i32 1
  %14 = load i64, ptr %13, align 8, !tbaa !12
  %15 = tail call i64 @strlen(ptr noundef nonnull dereferenceable(1) %2) #13
  %16 = tail call noundef nonnull align 8 dereferenceable(32) ptr @_ZNSt7__cxx1112basic_stringIcSt11char_traitsIcESaIcEE10_M_replaceEmmPKcm(ptr noundef nonnull align 8 dereferenceable(32) %12, i64 noundef 0, i64 noundef %14, ptr noundef %2, i64 noundef %15)
  br label %27

17:                                               ; preds = %3
  %18 = getelementptr inbounds %class.ParamElement, ptr %0, i64 0, i32 5
  %19 = getelementptr inbounds %class.ParamElement, ptr %0, i64 0, i32 5, i32 1
  %20 = load i64, ptr %19, align 8, !tbaa !12
  %21 = tail call i64 @strlen(ptr noundef nonnull dereferenceable(1) %2) #13
  %22 = tail call noundef nonnull align 8 dereferenceable(32) ptr @_ZNSt7__cxx1112basic_stringIcSt11char_traitsIcESaIcEE10_M_replaceEmmPKcm(ptr noundef nonnull align 8 dereferenceable(32) %18, i64 noundef 0, i64 noundef %20, ptr noundef %2, i64 noundef %21)
  br label %27

23:                                               ; preds = %3
  %24 = tail call noundef zeroext i1 @_ZN10NEDElement12stringToBoolEPKc(ptr noundef %2)
  %25 = getelementptr inbounds %class.ParamElement, ptr %0, i64 0, i32 6
  %26 = zext i1 %24 to i8
  store i8 %26, ptr %25, align 8, !tbaa !30
  br label %27

27:                                               ; preds = %3, %23, %17, %11, %7, %4
  ret void
}

declare noundef i32 @_ZN10NEDElement12stringToEnumEPKcPS1_Pii(ptr noundef, ptr noundef, ptr noundef, i32 noundef) local_unnamed_addr #1

; Function Attrs: mustprogress nofree norecurse nosync nounwind sspstrong willreturn memory(none) uwtable
define dso_local noundef ptr @_ZNK12ParamElement19getAttributeDefaultEi(ptr nocapture nonnull readnone align 8 %0, i32 noundef %1) unnamed_addr #3 align 2 {
  %3 = icmp ult i32 %1, 5
  br i1 %3, label %4, label %8

4:                                                ; preds = %2
  %5 = sext i32 %1 to i64
  %6 = getelementptr inbounds [5 x ptr], ptr @switch.table._ZNK12ParamElement19getAttributeDefaultEi, i64 0, i64 %5
  %7 = load ptr, ptr %6, align 8
  br label %8

8:                                                ; preds = %2, %4
  %9 = phi ptr [ %7, %4 ], [ null, %2 ]
  ret ptr %9
}

; Function Attrs: sspstrong uwtable
define dso_local noundef nonnull ptr @_ZNK12ParamElement3dupEv(ptr noundef nonnull align 8 dereferenceable(185) %0) unnamed_addr #0 align 2 personality ptr @__gxx_personality_v0 {
  %2 = tail call noalias noundef nonnull dereferenceable(192) ptr @_Znwm(i64 noundef 192) #14
  invoke void @_ZN12ParamElementC2Ev(ptr noundef nonnull align 8 dereferenceable(185) %2)
          to label %3 unwind label %17

3:                                                ; preds = %1
  %4 = getelementptr inbounds %class.ParamElement, ptr %0, i64 0, i32 1
  %5 = load i32, ptr %4, align 8, !tbaa !27
  %6 = getelementptr inbounds %class.ParamElement, ptr %2, i64 0, i32 1
  store i32 %5, ptr %6, align 8, !tbaa !27
  %7 = getelementptr inbounds %class.ParamElement, ptr %0, i64 0, i32 2
  %8 = load i8, ptr %7, align 4, !tbaa !29, !range !23, !noundef !24
  %9 = getelementptr inbounds %class.ParamElement, ptr %2, i64 0, i32 2
  store i8 %8, ptr %9, align 4, !tbaa !29
  %10 = getelementptr inbounds %class.ParamElement, ptr %0, i64 0, i32 4
  %11 = getelementptr inbounds %class.ParamElement, ptr %2, i64 0, i32 4
  tail call void @_ZNSt7__cxx1112basic_stringIcSt11char_traitsIcESaIcEE9_M_assignERKS4_(ptr noundef nonnull align 8 dereferenceable(32) %11, ptr noundef nonnull align 8 dereferenceable(32) %10)
  %12 = getelementptr inbounds %class.ParamElement, ptr %0, i64 0, i32 5
  %13 = getelementptr inbounds %class.ParamElement, ptr %2, i64 0, i32 5
  tail call void @_ZNSt7__cxx1112basic_stringIcSt11char_traitsIcESaIcEE9_M_assignERKS4_(ptr noundef nonnull align 8 dereferenceable(32) %13, ptr noundef nonnull align 8 dereferenceable(32) %12)
  %14 = getelementptr inbounds %class.ParamElement, ptr %0, i64 0, i32 6
  %15 = load i8, ptr %14, align 8, !tbaa !30, !range !23, !noundef !24
  %16 = getelementptr inbounds %class.ParamElement, ptr %2, i64 0, i32 6
  store i8 %15, ptr %16, align 8, !tbaa !30
  ret ptr %2

17:                                               ; preds = %1
  %18 = landingpad { ptr, i32 }
          cleanup
  tail call void @_ZdlPv(ptr noundef nonnull %2) #15
  resume { ptr, i32 } %18
}

; Function Attrs: sspstrong uwtable
define dso_local noundef ptr @_ZNK12ParamElement19getNextParamSiblingEv(ptr noundef nonnull align 8 dereferenceable(185) %0) unnamed_addr #0 align 2 {
  %2 = load ptr, ptr %0, align 8, !tbaa !5
  %3 = getelementptr inbounds ptr, ptr %2, i64 31
  %4 = load ptr, ptr %3, align 8
  %5 = tail call noundef ptr %4(ptr noundef nonnull align 8 dereferenceable(112) %0, i32 noundef 15)
  ret ptr %5
}

; Function Attrs: sspstrong uwtable
define dso_local noundef ptr @_ZNK12ParamElement20getFirstCommentChildEv(ptr noundef nonnull align 8 dereferenceable(185) %0) unnamed_addr #0 align 2 {
  %2 = load ptr, ptr %0, align 8, !tbaa !5
  %3 = getelementptr inbounds ptr, ptr %2, i64 30
  %4 = load ptr, ptr %3, align 8
  %5 = tail call noundef ptr %4(ptr noundef nonnull align 8 dereferenceable(112) %0, i32 noundef 3)
  ret ptr %5
}

; Function Attrs: sspstrong uwtable
define dso_local noundef ptr @_ZNK12ParamElement23getFirstExpressionChildEv(ptr noundef nonnull align 8 dereferenceable(185) %0) unnamed_addr #0 align 2 {
  %2 = load ptr, ptr %0, align 8, !tbaa !5
  %3 = getelementptr inbounds ptr, ptr %2, i64 30
  %4 = load ptr, ptr %3, align 8
  %5 = tail call noundef ptr %4(ptr noundef nonnull align 8 dereferenceable(112) %0, i32 noundef 30)
  ret ptr %5
}

; Function Attrs: sspstrong uwtable
define dso_local noundef ptr @_ZNK12ParamElement21getFirstPropertyChildEv(ptr noundef nonnull align 8 dereferenceable(185) %0) unnamed_addr #0 align 2 {
  %2 = load ptr, ptr %0, align 8, !tbaa !5
  %3 = getelementptr inbounds ptr, ptr %2, i64 30
  %4 = load ptr, ptr %3, align 8
  %5 = tail call noundef ptr %4(ptr noundef nonnull align 8 dereferenceable(112) %0, i32 noundef 17)
  ret ptr %5
}

; Function Attrs: sspstrong uwtable
define dso_local void @_ZN14PatternElementC2Ev(ptr noundef nonnull align 8 dereferenceable(177) %0) unnamed_addr #0 align 2 personality ptr @__gxx_personality_v0 {
  tail call void @_ZN10NEDElementC2Ev(ptr noundef nonnull align 8 dereferenceable(112) %0)
  store ptr getelementptr inbounds ({ [42 x ptr] }, ptr @_ZTV14PatternElement, i64 0, inrange i32 0, i64 2), ptr %0, align 8, !tbaa !5
  %2 = getelementptr inbounds %class.PatternElement, ptr %0, i64 0, i32 1
  %3 = getelementptr inbounds %class.PatternElement, ptr %0, i64 0, i32 1, i32 2
  store ptr %3, ptr %2, align 8, !tbaa !8
  %4 = getelementptr inbounds %class.PatternElement, ptr %0, i64 0, i32 1, i32 1
  store i64 0, ptr %4, align 8, !tbaa !12
  store i8 0, ptr %3, align 8, !tbaa !15
  %5 = getelementptr inbounds %class.PatternElement, ptr %0, i64 0, i32 2
  %6 = getelementptr inbounds %class.PatternElement, ptr %0, i64 0, i32 2, i32 2
  store ptr %6, ptr %5, align 8, !tbaa !8
  %7 = getelementptr inbounds %class.PatternElement, ptr %0, i64 0, i32 2, i32 1
  store i64 0, ptr %7, align 8, !tbaa !12
  store i8 0, ptr %6, align 8, !tbaa !15
  %8 = getelementptr inbounds %class.PatternElement, ptr %0, i64 0, i32 3
  store i8 0, ptr %8, align 8, !tbaa !31
  invoke void @_ZN10NEDElement13applyDefaultsEv(ptr noundef nonnull align 8 dereferenceable(112) %0)
          to label %9 unwind label %10

9:                                                ; preds = %1
  ret void

10:                                               ; preds = %1
  %11 = landingpad { ptr, i32 }
          cleanup
  %12 = load ptr, ptr %5, align 8, !tbaa !16
  %13 = icmp eq ptr %12, %6
  br i1 %13, label %14, label %17

14:                                               ; preds = %10
  %15 = load i64, ptr %7, align 8, !tbaa !12
  %16 = icmp ult i64 %15, 16
  tail call void @llvm.assume(i1 %16)
  br label %18

17:                                               ; preds = %10
  tail call void @_ZdlPv(ptr noundef %12) #15
  br label %18

18:                                               ; preds = %17, %14
  %19 = load ptr, ptr %2, align 8, !tbaa !16
  %20 = icmp eq ptr %19, %3
  br i1 %20, label %21, label %24

21:                                               ; preds = %18
  %22 = load i64, ptr %4, align 8, !tbaa !12
  %23 = icmp ult i64 %22, 16
  tail call void @llvm.assume(i1 %23)
  br label %25

24:                                               ; preds = %18
  tail call void @_ZdlPv(ptr noundef %19) #15
  br label %25

25:                                               ; preds = %24, %21
  invoke void @_ZN10NEDElementD2Ev(ptr noundef nonnull align 8 dereferenceable(112) %0)
          to label %26 unwind label %27

26:                                               ; preds = %25
  resume { ptr, i32 } %11

27:                                               ; preds = %25
  %28 = landingpad { ptr, i32 }
          catch ptr null
  %29 = extractvalue { ptr, i32 } %28, 0
  tail call void @__clang_call_terminate(ptr %29) #12
  unreachable
}

; Function Attrs: sspstrong uwtable
define dso_local void @_ZN14PatternElementC2EP10NEDElement(ptr noundef nonnull align 8 dereferenceable(177) %0, ptr noundef %1) unnamed_addr #0 align 2 personality ptr @__gxx_personality_v0 {
  tail call void @_ZN10NEDElementC2EPS_(ptr noundef nonnull align 8 dereferenceable(112) %0, ptr noundef %1)
  store ptr getelementptr inbounds ({ [42 x ptr] }, ptr @_ZTV14PatternElement, i64 0, inrange i32 0, i64 2), ptr %0, align 8, !tbaa !5
  %3 = getelementptr inbounds %class.PatternElement, ptr %0, i64 0, i32 1
  %4 = getelementptr inbounds %class.PatternElement, ptr %0, i64 0, i32 1, i32 2
  store ptr %4, ptr %3, align 8, !tbaa !8
  %5 = getelementptr inbounds %class.PatternElement, ptr %0, i64 0, i32 1, i32 1
  store i64 0, ptr %5, align 8, !tbaa !12
  store i8 0, ptr %4, align 8, !tbaa !15
  %6 = getelementptr inbounds %class.PatternElement, ptr %0, i64 0, i32 2
  %7 = getelementptr inbounds %class.PatternElement, ptr %0, i64 0, i32 2, i32 2
  store ptr %7, ptr %6, align 8, !tbaa !8
  %8 = getelementptr inbounds %class.PatternElement, ptr %0, i64 0, i32 2, i32 1
  store i64 0, ptr %8, align 8, !tbaa !12
  store i8 0, ptr %7, align 8, !tbaa !15
  %9 = getelementptr inbounds %class.PatternElement, ptr %0, i64 0, i32 3
  store i8 0, ptr %9, align 8, !tbaa !31
  invoke void @_ZN10NEDElement13applyDefaultsEv(ptr noundef nonnull align 8 dereferenceable(112) %0)
          to label %10 unwind label %11

10:                                               ; preds = %2
  ret void

11:                                               ; preds = %2
  %12 = landingpad { ptr, i32 }
          cleanup
  %13 = load ptr, ptr %6, align 8, !tbaa !16
  %14 = icmp eq ptr %13, %7
  br i1 %14, label %15, label %18

15:                                               ; preds = %11
  %16 = load i64, ptr %8, align 8, !tbaa !12
  %17 = icmp ult i64 %16, 16
  tail call void @llvm.assume(i1 %17)
  br label %19

18:                                               ; preds = %11
  tail call void @_ZdlPv(ptr noundef %13) #15
  br label %19

19:                                               ; preds = %18, %15
  %20 = load ptr, ptr %3, align 8, !tbaa !16
  %21 = icmp eq ptr %20, %4
  br i1 %21, label %22, label %25

22:                                               ; preds = %19
  %23 = load i64, ptr %5, align 8, !tbaa !12
  %24 = icmp ult i64 %23, 16
  tail call void @llvm.assume(i1 %24)
  br label %26

25:                                               ; preds = %19
  tail call void @_ZdlPv(ptr noundef %20) #15
  br label %26

26:                                               ; preds = %25, %22
  invoke void @_ZN10NEDElementD2Ev(ptr noundef nonnull align 8 dereferenceable(112) %0)
          to label %27 unwind label %28

27:                                               ; preds = %26
  resume { ptr, i32 } %12

28:                                               ; preds = %26
  %29 = landingpad { ptr, i32 }
          catch ptr null
  %30 = extractvalue { ptr, i32 } %29, 0
  tail call void @__clang_call_terminate(ptr %30) #12
  unreachable
}

; Function Attrs: mustprogress nofree norecurse nosync nounwind sspstrong willreturn memory(none) uwtable
define dso_local noundef i32 @_ZNK14PatternElement16getNumAttributesEv(ptr nocapture nonnull readnone align 8 %0) unnamed_addr #3 align 2 {
  ret i32 3
}

; Function Attrs: mustprogress nofree norecurse nosync nounwind sspstrong willreturn memory(none) uwtable
define dso_local noundef ptr @_ZNK14PatternElement16getAttributeNameEi(ptr nocapture nonnull readnone align 8 %0, i32 noundef %1) unnamed_addr #3 align 2 {
  %3 = icmp ult i32 %1, 3
  br i1 %3, label %4, label %8

4:                                                ; preds = %2
  %5 = sext i32 %1 to i64
  %6 = shl i64 %5, 2
  %7 = call ptr @llvm.load.relative.i64(ptr @reltable._ZNK14PatternElement16getAttributeNameEi, i64 %6)
  br label %8

8:                                                ; preds = %2, %4
  %9 = phi ptr [ %7, %4 ], [ null, %2 ]
  ret ptr %9
}

; Function Attrs: sspstrong uwtable
define dso_local noundef ptr @_ZNK14PatternElement12getAttributeEi(ptr nocapture noundef nonnull readonly align 8 dereferenceable(177) %0, i32 noundef %1) unnamed_addr #0 align 2 {
  switch i32 %1, label %14 [
    i32 0, label %3
    i32 1, label %6
    i32 2, label %9
  ]

3:                                                ; preds = %2
  %4 = getelementptr inbounds %class.PatternElement, ptr %0, i64 0, i32 1
  %5 = load ptr, ptr %4, align 8, !tbaa !16
  br label %14

6:                                                ; preds = %2
  %7 = getelementptr inbounds %class.PatternElement, ptr %0, i64 0, i32 2
  %8 = load ptr, ptr %7, align 8, !tbaa !16
  br label %14

9:                                                ; preds = %2
  %10 = getelementptr inbounds %class.PatternElement, ptr %0, i64 0, i32 3
  %11 = load i8, ptr %10, align 8, !tbaa !31, !range !23, !noundef !24
  %12 = icmp ne i8 %11, 0
  %13 = tail call noundef ptr @_ZN10NEDElement12boolToStringEb(i1 noundef zeroext %12)
  br label %14

14:                                               ; preds = %2, %9, %6, %3
  %15 = phi ptr [ %13, %9 ], [ %8, %6 ], [ %5, %3 ], [ null, %2 ]
  ret ptr %15
}

; Function Attrs: sspstrong uwtable
define dso_local void @_ZN14PatternElement12setAttributeEiPKc(ptr noundef nonnull align 8 dereferenceable(177) %0, i32 noundef %1, ptr noundef %2) unnamed_addr #0 align 2 {
  switch i32 %1, label %20 [
    i32 0, label %4
    i32 1, label %10
    i32 2, label %16
  ]

4:                                                ; preds = %3
  %5 = getelementptr inbounds %class.PatternElement, ptr %0, i64 0, i32 1
  %6 = getelementptr inbounds %class.PatternElement, ptr %0, i64 0, i32 1, i32 1
  %7 = load i64, ptr %6, align 8, !tbaa !12
  %8 = tail call i64 @strlen(ptr noundef nonnull dereferenceable(1) %2) #13
  %9 = tail call noundef nonnull align 8 dereferenceable(32) ptr @_ZNSt7__cxx1112basic_stringIcSt11char_traitsIcESaIcEE10_M_replaceEmmPKcm(ptr noundef nonnull align 8 dereferenceable(32) %5, i64 noundef 0, i64 noundef %7, ptr noundef %2, i64 noundef %8)
  br label %20

10:                                               ; preds = %3
  %11 = getelementptr inbounds %class.PatternElement, ptr %0, i64 0, i32 2
  %12 = getelementptr inbounds %class.PatternElement, ptr %0, i64 0, i32 2, i32 1
  %13 = load i64, ptr %12, align 8, !tbaa !12
  %14 = tail call i64 @strlen(ptr noundef nonnull dereferenceable(1) %2) #13
  %15 = tail call noundef nonnull align 8 dereferenceable(32) ptr @_ZNSt7__cxx1112basic_stringIcSt11char_traitsIcESaIcEE10_M_replaceEmmPKcm(ptr noundef nonnull align 8 dereferenceable(32) %11, i64 noundef 0, i64 noundef %13, ptr noundef %2, i64 noundef %14)
  br label %20

16:                                               ; preds = %3
  %17 = tail call noundef zeroext i1 @_ZN10NEDElement12stringToBoolEPKc(ptr noundef %2)
  %18 = getelementptr inbounds %class.PatternElement, ptr %0, i64 0, i32 3
  %19 = zext i1 %17 to i8
  store i8 %19, ptr %18, align 8, !tbaa !31
  br label %20

20:                                               ; preds = %3, %16, %10, %4
  ret void
}

; Function Attrs: mustprogress nofree norecurse nosync nounwind sspstrong willreturn memory(none) uwtable
define dso_local noundef ptr @_ZNK14PatternElement19getAttributeDefaultEi(ptr nocapture nonnull readnone align 8 %0, i32 noundef %1) unnamed_addr #3 align 2 {
  %3 = icmp eq i32 %1, 1
  %4 = select i1 %3, ptr @.str.5, ptr null
  %5 = icmp eq i32 %1, 2
  %6 = select i1 %5, ptr @.str.9, ptr %4
  ret ptr %6
}

; Function Attrs: sspstrong uwtable
define dso_local noundef nonnull ptr @_ZNK14PatternElement3dupEv(ptr noundef nonnull align 8 dereferenceable(177) %0) unnamed_addr #0 align 2 personality ptr @__gxx_personality_v0 {
  %2 = tail call noalias noundef nonnull dereferenceable(184) ptr @_Znwm(i64 noundef 184) #14
  invoke void @_ZN14PatternElementC2Ev(ptr noundef nonnull align 8 dereferenceable(177) %2)
          to label %3 unwind label %11

3:                                                ; preds = %1
  %4 = getelementptr inbounds %class.PatternElement, ptr %0, i64 0, i32 1
  %5 = getelementptr inbounds %class.PatternElement, ptr %2, i64 0, i32 1
  tail call void @_ZNSt7__cxx1112basic_stringIcSt11char_traitsIcESaIcEE9_M_assignERKS4_(ptr noundef nonnull align 8 dereferenceable(32) %5, ptr noundef nonnull align 8 dereferenceable(32) %4)
  %6 = getelementptr inbounds %class.PatternElement, ptr %0, i64 0, i32 2
  %7 = getelementptr inbounds %class.PatternElement, ptr %2, i64 0, i32 2
  tail call void @_ZNSt7__cxx1112basic_stringIcSt11char_traitsIcESaIcEE9_M_assignERKS4_(ptr noundef nonnull align 8 dereferenceable(32) %7, ptr noundef nonnull align 8 dereferenceable(32) %6)
  %8 = getelementptr inbounds %class.PatternElement, ptr %0, i64 0, i32 3
  %9 = load i8, ptr %8, align 8, !tbaa !31, !range !23, !noundef !24
  %10 = getelementptr inbounds %class.PatternElement, ptr %2, i64 0, i32 3
  store i8 %9, ptr %10, align 8, !tbaa !31
  ret ptr %2

11:                                               ; preds = %1
  %12 = landingpad { ptr, i32 }
          cleanup
  tail call void @_ZdlPv(ptr noundef nonnull %2) #15
  resume { ptr, i32 } %12
}

; Function Attrs: sspstrong uwtable
define dso_local noundef ptr @_ZNK14PatternElement21getNextPatternSiblingEv(ptr noundef nonnull align 8 dereferenceable(177) %0) unnamed_addr #0 align 2 {
  %2 = load ptr, ptr %0, align 8, !tbaa !5
  %3 = getelementptr inbounds ptr, ptr %2, i64 31
  %4 = load ptr, ptr %3, align 8
  %5 = tail call noundef ptr %4(ptr noundef nonnull align 8 dereferenceable(112) %0, i32 noundef 16)
  ret ptr %5
}

; Function Attrs: sspstrong uwtable
define dso_local noundef ptr @_ZNK14PatternElement20getFirstCommentChildEv(ptr noundef nonnull align 8 dereferenceable(177) %0) unnamed_addr #0 align 2 {
  %2 = load ptr, ptr %0, align 8, !tbaa !5
  %3 = getelementptr inbounds ptr, ptr %2, i64 30
  %4 = load ptr, ptr %3, align 8
  %5 = tail call noundef ptr %4(ptr noundef nonnull align 8 dereferenceable(112) %0, i32 noundef 3)
  ret ptr %5
}

; Function Attrs: sspstrong uwtable
define dso_local noundef ptr @_ZNK14PatternElement23getFirstExpressionChildEv(ptr noundef nonnull align 8 dereferenceable(177) %0) unnamed_addr #0 align 2 {
  %2 = load ptr, ptr %0, align 8, !tbaa !5
  %3 = getelementptr inbounds ptr, ptr %2, i64 30
  %4 = load ptr, ptr %3, align 8
  %5 = tail call noundef ptr %4(ptr noundef nonnull align 8 dereferenceable(112) %0, i32 noundef 30)
  ret ptr %5
}

; Function Attrs: sspstrong uwtable
define dso_local noundef ptr @_ZNK14PatternElement21getFirstPropertyChildEv(ptr noundef nonnull align 8 dereferenceable(177) %0) unnamed_addr #0 align 2 {
  %2 = load ptr, ptr %0, align 8, !tbaa !5
  %3 = getelementptr inbounds ptr, ptr %2, i64 30
  %4 = load ptr, ptr %3, align 8
  %5 = tail call noundef ptr %4(ptr noundef nonnull align 8 dereferenceable(112) %0, i32 noundef 17)
  ret ptr %5
}

; Function Attrs: sspstrong uwtable
define dso_local void @_ZN15PropertyElementC2Ev(ptr noundef nonnull align 8 dereferenceable(184) %0) unnamed_addr #0 align 2 personality ptr @__gxx_personality_v0 {
  tail call void @_ZN10NEDElementC2Ev(ptr noundef nonnull align 8 dereferenceable(112) %0)
  store ptr getelementptr inbounds ({ [41 x ptr] }, ptr @_ZTV15PropertyElement, i64 0, inrange i32 0, i64 2), ptr %0, align 8, !tbaa !5
  %2 = getelementptr inbounds %class.PropertyElement, ptr %0, i64 0, i32 2
  %3 = getelementptr inbounds %class.PropertyElement, ptr %0, i64 0, i32 2, i32 2
  store ptr %3, ptr %2, align 8, !tbaa !8
  %4 = getelementptr inbounds %class.PropertyElement, ptr %0, i64 0, i32 2, i32 1
  store i64 0, ptr %4, align 8, !tbaa !12
  store i8 0, ptr %3, align 8, !tbaa !15
  %5 = getelementptr inbounds %class.PropertyElement, ptr %0, i64 0, i32 3
  %6 = getelementptr inbounds %class.PropertyElement, ptr %0, i64 0, i32 3, i32 2
  store ptr %6, ptr %5, align 8, !tbaa !8
  %7 = getelementptr inbounds %class.PropertyElement, ptr %0, i64 0, i32 3, i32 1
  store i64 0, ptr %7, align 8, !tbaa !12
  store i8 0, ptr %6, align 8, !tbaa !15
  %8 = getelementptr inbounds %class.PropertyElement, ptr %0, i64 0, i32 1
  store i8 0, ptr %8, align 8, !tbaa !33
  invoke void @_ZN10NEDElement13applyDefaultsEv(ptr noundef nonnull align 8 dereferenceable(112) %0)
          to label %9 unwind label %10

9:                                                ; preds = %1
  ret void

10:                                               ; preds = %1
  %11 = landingpad { ptr, i32 }
          cleanup
  %12 = load ptr, ptr %5, align 8, !tbaa !16
  %13 = icmp eq ptr %12, %6
  br i1 %13, label %14, label %17

14:                                               ; preds = %10
  %15 = load i64, ptr %7, align 8, !tbaa !12
  %16 = icmp ult i64 %15, 16
  tail call void @llvm.assume(i1 %16)
  br label %18

17:                                               ; preds = %10
  tail call void @_ZdlPv(ptr noundef %12) #15
  br label %18

18:                                               ; preds = %17, %14
  %19 = load ptr, ptr %2, align 8, !tbaa !16
  %20 = icmp eq ptr %19, %3
  br i1 %20, label %21, label %24

21:                                               ; preds = %18
  %22 = load i64, ptr %4, align 8, !tbaa !12
  %23 = icmp ult i64 %22, 16
  tail call void @llvm.assume(i1 %23)
  br label %25

24:                                               ; preds = %18
  tail call void @_ZdlPv(ptr noundef %19) #15
  br label %25

25:                                               ; preds = %24, %21
  invoke void @_ZN10NEDElementD2Ev(ptr noundef nonnull align 8 dereferenceable(112) %0)
          to label %26 unwind label %27

26:                                               ; preds = %25
  resume { ptr, i32 } %11

27:                                               ; preds = %25
  %28 = landingpad { ptr, i32 }
          catch ptr null
  %29 = extractvalue { ptr, i32 } %28, 0
  tail call void @__clang_call_terminate(ptr %29) #12
  unreachable
}

; Function Attrs: sspstrong uwtable
define dso_local void @_ZN15PropertyElementC2EP10NEDElement(ptr noundef nonnull align 8 dereferenceable(184) %0, ptr noundef %1) unnamed_addr #0 align 2 personality ptr @__gxx_personality_v0 {
  tail call void @_ZN10NEDElementC2EPS_(ptr noundef nonnull align 8 dereferenceable(112) %0, ptr noundef %1)
  store ptr getelementptr inbounds ({ [41 x ptr] }, ptr @_ZTV15PropertyElement, i64 0, inrange i32 0, i64 2), ptr %0, align 8, !tbaa !5
  %3 = getelementptr inbounds %class.PropertyElement, ptr %0, i64 0, i32 2
  %4 = getelementptr inbounds %class.PropertyElement, ptr %0, i64 0, i32 2, i32 2
  store ptr %4, ptr %3, align 8, !tbaa !8
  %5 = getelementptr inbounds %class.PropertyElement, ptr %0, i64 0, i32 2, i32 1
  store i64 0, ptr %5, align 8, !tbaa !12
  store i8 0, ptr %4, align 8, !tbaa !15
  %6 = getelementptr inbounds %class.PropertyElement, ptr %0, i64 0, i32 3
  %7 = getelementptr inbounds %class.PropertyElement, ptr %0, i64 0, i32 3, i32 2
  store ptr %7, ptr %6, align 8, !tbaa !8
  %8 = getelementptr inbounds %class.PropertyElement, ptr %0, i64 0, i32 3, i32 1
  store i64 0, ptr %8, align 8, !tbaa !12
  store i8 0, ptr %7, align 8, !tbaa !15
  %9 = getelementptr inbounds %class.PropertyElement, ptr %0, i64 0, i32 1
  store i8 0, ptr %9, align 8, !tbaa !33
  invoke void @_ZN10NEDElement13applyDefaultsEv(ptr noundef nonnull align 8 dereferenceable(112) %0)
          to label %10 unwind label %11

10:                                               ; preds = %2
  ret void

11:                                               ; preds = %2
  %12 = landingpad { ptr, i32 }
          cleanup
  %13 = load ptr, ptr %6, align 8, !tbaa !16
  %14 = icmp eq ptr %13, %7
  br i1 %14, label %15, label %18

15:                                               ; preds = %11
  %16 = load i64, ptr %8, align 8, !tbaa !12
  %17 = icmp ult i64 %16, 16
  tail call void @llvm.assume(i1 %17)
  br label %19

18:                                               ; preds = %11
  tail call void @_ZdlPv(ptr noundef %13) #15
  br label %19

19:                                               ; preds = %18, %15
  %20 = load ptr, ptr %3, align 8, !tbaa !16
  %21 = icmp eq ptr %20, %4
  br i1 %21, label %22, label %25

22:                                               ; preds = %19
  %23 = load i64, ptr %5, align 8, !tbaa !12
  %24 = icmp ult i64 %23, 16
  tail call void @llvm.assume(i1 %24)
  br label %26

25:                                               ; preds = %19
  tail call void @_ZdlPv(ptr noundef %20) #15
  br label %26

26:                                               ; preds = %25, %22
  invoke void @_ZN10NEDElementD2Ev(ptr noundef nonnull align 8 dereferenceable(112) %0)
          to label %27 unwind label %28

27:                                               ; preds = %26
  resume { ptr, i32 } %12

28:                                               ; preds = %26
  %29 = landingpad { ptr, i32 }
          catch ptr null
  %30 = extractvalue { ptr, i32 } %29, 0
  tail call void @__clang_call_terminate(ptr %30) #12
  unreachable
}

; Function Attrs: mustprogress nofree norecurse nosync nounwind sspstrong willreturn memory(none) uwtable
define dso_local noundef i32 @_ZNK15PropertyElement16getNumAttributesEv(ptr nocapture nonnull readnone align 8 %0) unnamed_addr #3 align 2 {
  ret i32 3
}

; Function Attrs: mustprogress nofree norecurse nosync nounwind sspstrong willreturn memory(none) uwtable
define dso_local noundef ptr @_ZNK15PropertyElement16getAttributeNameEi(ptr nocapture nonnull readnone align 8 %0, i32 noundef %1) unnamed_addr #3 align 2 {
  %3 = icmp ult i32 %1, 3
  br i1 %3, label %4, label %8

4:                                                ; preds = %2
  %5 = sext i32 %1 to i64
  %6 = shl i64 %5, 2
  %7 = call ptr @llvm.load.relative.i64(ptr @reltable._ZNK15PropertyElement16getAttributeNameEi, i64 %6)
  br label %8

8:                                                ; preds = %2, %4
  %9 = phi ptr [ %7, %4 ], [ null, %2 ]
  ret ptr %9
}

; Function Attrs: sspstrong uwtable
define dso_local noundef ptr @_ZNK15PropertyElement12getAttributeEi(ptr nocapture noundef nonnull readonly align 8 dereferenceable(184) %0, i32 noundef %1) unnamed_addr #0 align 2 {
  switch i32 %1, label %14 [
    i32 0, label %3
    i32 1, label %8
    i32 2, label %11
  ]

3:                                                ; preds = %2
  %4 = getelementptr inbounds %class.PropertyElement, ptr %0, i64 0, i32 1
  %5 = load i8, ptr %4, align 8, !tbaa !33, !range !23, !noundef !24
  %6 = icmp ne i8 %5, 0
  %7 = tail call noundef ptr @_ZN10NEDElement12boolToStringEb(i1 noundef zeroext %6)
  br label %14

8:                                                ; preds = %2
  %9 = getelementptr inbounds %class.PropertyElement, ptr %0, i64 0, i32 2
  %10 = load ptr, ptr %9, align 8, !tbaa !16
  br label %14

11:                                               ; preds = %2
  %12 = getelementptr inbounds %class.PropertyElement, ptr %0, i64 0, i32 3
  %13 = load ptr, ptr %12, align 8, !tbaa !16
  br label %14

14:                                               ; preds = %2, %11, %8, %3
  %15 = phi ptr [ %13, %11 ], [ %10, %8 ], [ %7, %3 ], [ null, %2 ]
  ret ptr %15
}

; Function Attrs: sspstrong uwtable
define dso_local void @_ZN15PropertyElement12setAttributeEiPKc(ptr noundef nonnull align 8 dereferenceable(184) %0, i32 noundef %1, ptr noundef %2) unnamed_addr #0 align 2 {
  switch i32 %1, label %20 [
    i32 0, label %4
    i32 1, label %8
    i32 2, label %14
  ]

4:                                                ; preds = %3
  %5 = tail call noundef zeroext i1 @_ZN10NEDElement12stringToBoolEPKc(ptr noundef %2)
  %6 = getelementptr inbounds %class.PropertyElement, ptr %0, i64 0, i32 1
  %7 = zext i1 %5 to i8
  store i8 %7, ptr %6, align 8, !tbaa !33
  br label %20

8:                                                ; preds = %3
  %9 = getelementptr inbounds %class.PropertyElement, ptr %0, i64 0, i32 2
  %10 = getelementptr inbounds %class.PropertyElement, ptr %0, i64 0, i32 2, i32 1
  %11 = load i64, ptr %10, align 8, !tbaa !12
  %12 = tail call i64 @strlen(ptr noundef nonnull dereferenceable(1) %2) #13
  %13 = tail call noundef nonnull align 8 dereferenceable(32) ptr @_ZNSt7__cxx1112basic_stringIcSt11char_traitsIcESaIcEE10_M_replaceEmmPKcm(ptr noundef nonnull align 8 dereferenceable(32) %9, i64 noundef 0, i64 noundef %11, ptr noundef %2, i64 noundef %12)
  br label %20

14:                                               ; preds = %3
  %15 = getelementptr inbounds %class.PropertyElement, ptr %0, i64 0, i32 3
  %16 = getelementptr inbounds %class.PropertyElement, ptr %0, i64 0, i32 3, i32 1
  %17 = load i64, ptr %16, align 8, !tbaa !12
  %18 = tail call i64 @strlen(ptr noundef nonnull dereferenceable(1) %2) #13
  %19 = tail call noundef nonnull align 8 dereferenceable(32) ptr @_ZNSt7__cxx1112basic_stringIcSt11char_traitsIcESaIcEE10_M_replaceEmmPKcm(ptr noundef nonnull align 8 dereferenceable(32) %15, i64 noundef 0, i64 noundef %17, ptr noundef %2, i64 noundef %18)
  br label %20

20:                                               ; preds = %3, %14, %8, %4
  ret void
}

; Function Attrs: mustprogress nofree norecurse nosync nounwind sspstrong willreturn memory(none) uwtable
define dso_local noundef ptr @_ZNK15PropertyElement19getAttributeDefaultEi(ptr nocapture nonnull readnone align 8 %0, i32 noundef %1) unnamed_addr #3 align 2 {
  %3 = icmp ult i32 %1, 3
  br i1 %3, label %4, label %8

4:                                                ; preds = %2
  %5 = sext i32 %1 to i64
  %6 = getelementptr inbounds [3 x ptr], ptr @switch.table._ZNK15PropertyElement19getAttributeDefaultEi, i64 0, i64 %5
  %7 = load ptr, ptr %6, align 8
  br label %8

8:                                                ; preds = %2, %4
  %9 = phi ptr [ %7, %4 ], [ null, %2 ]
  ret ptr %9
}

; Function Attrs: sspstrong uwtable
define dso_local noundef nonnull ptr @_ZNK15PropertyElement3dupEv(ptr noundef nonnull align 8 dereferenceable(184) %0) unnamed_addr #0 align 2 personality ptr @__gxx_personality_v0 {
  %2 = tail call noalias noundef nonnull dereferenceable(184) ptr @_Znwm(i64 noundef 184) #14
  invoke void @_ZN15PropertyElementC2Ev(ptr noundef nonnull align 8 dereferenceable(184) %2)
          to label %3 unwind label %11

3:                                                ; preds = %1
  %4 = getelementptr inbounds %class.PropertyElement, ptr %0, i64 0, i32 1
  %5 = load i8, ptr %4, align 8, !tbaa !33, !range !23, !noundef !24
  %6 = getelementptr inbounds %class.PropertyElement, ptr %2, i64 0, i32 1
  store i8 %5, ptr %6, align 8, !tbaa !33
  %7 = getelementptr inbounds %class.PropertyElement, ptr %0, i64 0, i32 2
  %8 = getelementptr inbounds %class.PropertyElement, ptr %2, i64 0, i32 2
  tail call void @_ZNSt7__cxx1112basic_stringIcSt11char_traitsIcESaIcEE9_M_assignERKS4_(ptr noundef nonnull align 8 dereferenceable(32) %8, ptr noundef nonnull align 8 dereferenceable(32) %7)
  %9 = getelementptr inbounds %class.PropertyElement, ptr %0, i64 0, i32 3
  %10 = getelementptr inbounds %class.PropertyElement, ptr %2, i64 0, i32 3
  tail call void @_ZNSt7__cxx1112basic_stringIcSt11char_traitsIcESaIcEE9_M_assignERKS4_(ptr noundef nonnull align 8 dereferenceable(32) %10, ptr noundef nonnull align 8 dereferenceable(32) %9)
  ret ptr %2

11:                                               ; preds = %1
  %12 = landingpad { ptr, i32 }
          cleanup
  tail call void @_ZdlPv(ptr noundef nonnull %2) #15
  resume { ptr, i32 } %12
}

; Function Attrs: sspstrong uwtable
define dso_local noundef ptr @_ZNK15PropertyElement22getNextPropertySiblingEv(ptr noundef nonnull align 8 dereferenceable(184) %0) unnamed_addr #0 align 2 {
  %2 = load ptr, ptr %0, align 8, !tbaa !5
  %3 = getelementptr inbounds ptr, ptr %2, i64 31
  %4 = load ptr, ptr %3, align 8
  %5 = tail call noundef ptr %4(ptr noundef nonnull align 8 dereferenceable(112) %0, i32 noundef 17)
  ret ptr %5
}

; Function Attrs: sspstrong uwtable
define dso_local noundef ptr @_ZNK15PropertyElement20getFirstCommentChildEv(ptr noundef nonnull align 8 dereferenceable(184) %0) unnamed_addr #0 align 2 {
  %2 = load ptr, ptr %0, align 8, !tbaa !5
  %3 = getelementptr inbounds ptr, ptr %2, i64 30
  %4 = load ptr, ptr %3, align 8
  %5 = tail call noundef ptr %4(ptr noundef nonnull align 8 dereferenceable(112) %0, i32 noundef 3)
  ret ptr %5
}

; Function Attrs: sspstrong uwtable
define dso_local noundef ptr @_ZNK15PropertyElement24getFirstPropertyKeyChildEv(ptr noundef nonnull align 8 dereferenceable(184) %0) unnamed_addr #0 align 2 {
  %2 = load ptr, ptr %0, align 8, !tbaa !5
  %3 = getelementptr inbounds ptr, ptr %2, i64 30
  %4 = load ptr, ptr %3, align 8
  %5 = tail call noundef ptr %4(ptr noundef nonnull align 8 dereferenceable(112) %0, i32 noundef 18)
  ret ptr %5
}

; Function Attrs: sspstrong uwtable
define dso_local void @_ZN18PropertyKeyElementC2Ev(ptr noundef nonnull align 8 dereferenceable(144) %0) unnamed_addr #0 align 2 personality ptr @__gxx_personality_v0 {
  tail call void @_ZN10NEDElementC2Ev(ptr noundef nonnull align 8 dereferenceable(112) %0)
  store ptr getelementptr inbounds ({ [41 x ptr] }, ptr @_ZTV18PropertyKeyElement, i64 0, inrange i32 0, i64 2), ptr %0, align 8, !tbaa !5
  %2 = getelementptr inbounds %class.PropertyKeyElement, ptr %0, i64 0, i32 1
  %3 = getelementptr inbounds %class.PropertyKeyElement, ptr %0, i64 0, i32 1, i32 2
  store ptr %3, ptr %2, align 8, !tbaa !8
  %4 = getelementptr inbounds %class.PropertyKeyElement, ptr %0, i64 0, i32 1, i32 1
  store i64 0, ptr %4, align 8, !tbaa !12
  store i8 0, ptr %3, align 8, !tbaa !15
  invoke void @_ZN10NEDElement13applyDefaultsEv(ptr noundef nonnull align 8 dereferenceable(112) %0)
          to label %5 unwind label %6

5:                                                ; preds = %1
  ret void

6:                                                ; preds = %1
  %7 = landingpad { ptr, i32 }
          cleanup
  %8 = load ptr, ptr %2, align 8, !tbaa !16
  %9 = icmp eq ptr %8, %3
  br i1 %9, label %10, label %13

10:                                               ; preds = %6
  %11 = load i64, ptr %4, align 8, !tbaa !12
  %12 = icmp ult i64 %11, 16
  tail call void @llvm.assume(i1 %12)
  br label %14

13:                                               ; preds = %6
  tail call void @_ZdlPv(ptr noundef %8) #15
  br label %14

14:                                               ; preds = %13, %10
  invoke void @_ZN10NEDElementD2Ev(ptr noundef nonnull align 8 dereferenceable(112) %0)
          to label %15 unwind label %16

15:                                               ; preds = %14
  resume { ptr, i32 } %7

16:                                               ; preds = %14
  %17 = landingpad { ptr, i32 }
          catch ptr null
  %18 = extractvalue { ptr, i32 } %17, 0
  tail call void @__clang_call_terminate(ptr %18) #12
  unreachable
}

; Function Attrs: sspstrong uwtable
define dso_local void @_ZN18PropertyKeyElementC2EP10NEDElement(ptr noundef nonnull align 8 dereferenceable(144) %0, ptr noundef %1) unnamed_addr #0 align 2 personality ptr @__gxx_personality_v0 {
  tail call void @_ZN10NEDElementC2EPS_(ptr noundef nonnull align 8 dereferenceable(112) %0, ptr noundef %1)
  store ptr getelementptr inbounds ({ [41 x ptr] }, ptr @_ZTV18PropertyKeyElement, i64 0, inrange i32 0, i64 2), ptr %0, align 8, !tbaa !5
  %3 = getelementptr inbounds %class.PropertyKeyElement, ptr %0, i64 0, i32 1
  %4 = getelementptr inbounds %class.PropertyKeyElement, ptr %0, i64 0, i32 1, i32 2
  store ptr %4, ptr %3, align 8, !tbaa !8
  %5 = getelementptr inbounds %class.PropertyKeyElement, ptr %0, i64 0, i32 1, i32 1
  store i64 0, ptr %5, align 8, !tbaa !12
  store i8 0, ptr %4, align 8, !tbaa !15
  invoke void @_ZN10NEDElement13applyDefaultsEv(ptr noundef nonnull align 8 dereferenceable(112) %0)
          to label %6 unwind label %7

6:                                                ; preds = %2
  ret void

7:                                                ; preds = %2
  %8 = landingpad { ptr, i32 }
          cleanup
  %9 = load ptr, ptr %3, align 8, !tbaa !16
  %10 = icmp eq ptr %9, %4
  br i1 %10, label %11, label %14

11:                                               ; preds = %7
  %12 = load i64, ptr %5, align 8, !tbaa !12
  %13 = icmp ult i64 %12, 16
  tail call void @llvm.assume(i1 %13)
  br label %15

14:                                               ; preds = %7
  tail call void @_ZdlPv(ptr noundef %9) #15
  br label %15

15:                                               ; preds = %14, %11
  invoke void @_ZN10NEDElementD2Ev(ptr noundef nonnull align 8 dereferenceable(112) %0)
          to label %16 unwind label %17

16:                                               ; preds = %15
  resume { ptr, i32 } %8

17:                                               ; preds = %15
  %18 = landingpad { ptr, i32 }
          catch ptr null
  %19 = extractvalue { ptr, i32 } %18, 0
  tail call void @__clang_call_terminate(ptr %19) #12
  unreachable
}

; Function Attrs: mustprogress nofree norecurse nosync nounwind sspstrong willreturn memory(none) uwtable
define dso_local noundef i32 @_ZNK18PropertyKeyElement16getNumAttributesEv(ptr nocapture nonnull readnone align 8 %0) unnamed_addr #3 align 2 {
  ret i32 1
}

; Function Attrs: mustprogress nofree norecurse nosync nounwind sspstrong willreturn memory(none) uwtable
define dso_local noundef ptr @_ZNK18PropertyKeyElement16getAttributeNameEi(ptr nocapture nonnull readnone align 8 %0, i32 noundef %1) unnamed_addr #3 align 2 {
  %3 = icmp eq i32 %1, 0
  %4 = select i1 %3, ptr @.str.6, ptr null
  ret ptr %4
}

; Function Attrs: mustprogress nofree norecurse nosync nounwind sspstrong willreturn memory(argmem: read) uwtable
define dso_local noundef ptr @_ZNK18PropertyKeyElement12getAttributeEi(ptr nocapture noundef nonnull readonly align 8 dereferenceable(144) %0, i32 noundef %1) unnamed_addr #6 align 2 {
  %3 = icmp eq i32 %1, 0
  %4 = getelementptr inbounds %class.PropertyKeyElement, ptr %0, i64 0, i32 1
  %5 = load ptr, ptr %4, align 8
  %6 = select i1 %3, ptr %5, ptr null
  ret ptr %6
}

; Function Attrs: sspstrong uwtable
define dso_local void @_ZN18PropertyKeyElement12setAttributeEiPKc(ptr noundef nonnull align 8 dereferenceable(144) %0, i32 noundef %1, ptr noundef %2) unnamed_addr #0 align 2 {
  %4 = icmp eq i32 %1, 0
  br i1 %4, label %5, label %11

5:                                                ; preds = %3
  %6 = getelementptr inbounds %class.PropertyKeyElement, ptr %0, i64 0, i32 1
  %7 = getelementptr inbounds %class.PropertyKeyElement, ptr %0, i64 0, i32 1, i32 1
  %8 = load i64, ptr %7, align 8, !tbaa !12
  %9 = tail call i64 @strlen(ptr noundef nonnull dereferenceable(1) %2) #13
  %10 = tail call noundef nonnull align 8 dereferenceable(32) ptr @_ZNSt7__cxx1112basic_stringIcSt11char_traitsIcESaIcEE10_M_replaceEmmPKcm(ptr noundef nonnull align 8 dereferenceable(32) %6, i64 noundef 0, i64 noundef %8, ptr noundef %2, i64 noundef %9)
  br label %11

11:                                               ; preds = %3, %5
  ret void
}

; Function Attrs: mustprogress nofree norecurse nosync nounwind sspstrong willreturn memory(none) uwtable
define dso_local noundef ptr @_ZNK18PropertyKeyElement19getAttributeDefaultEi(ptr nocapture nonnull readnone align 8 %0, i32 noundef %1) unnamed_addr #3 align 2 {
  %3 = icmp eq i32 %1, 0
  %4 = select i1 %3, ptr @.str.5, ptr null
  ret ptr %4
}

; Function Attrs: sspstrong uwtable
define dso_local noundef nonnull ptr @_ZNK18PropertyKeyElement3dupEv(ptr noundef nonnull align 8 dereferenceable(144) %0) unnamed_addr #0 align 2 personality ptr @__gxx_personality_v0 {
  %2 = tail call noalias noundef nonnull dereferenceable(144) ptr @_Znwm(i64 noundef 144) #14
  invoke void @_ZN10NEDElementC2Ev(ptr noundef nonnull align 8 dereferenceable(112) %2)
          to label %3 unwind label %21

3:                                                ; preds = %1
  store ptr getelementptr inbounds ({ [41 x ptr] }, ptr @_ZTV18PropertyKeyElement, i64 0, inrange i32 0, i64 2), ptr %2, align 8, !tbaa !5
  %4 = getelementptr inbounds %class.PropertyKeyElement, ptr %2, i64 0, i32 1
  %5 = getelementptr inbounds %class.PropertyKeyElement, ptr %2, i64 0, i32 1, i32 2
  store ptr %5, ptr %4, align 8, !tbaa !8
  %6 = getelementptr inbounds %class.PropertyKeyElement, ptr %2, i64 0, i32 1, i32 1
  store i64 0, ptr %6, align 8, !tbaa !12
  store i8 0, ptr %5, align 8, !tbaa !15
  invoke void @_ZN10NEDElement13applyDefaultsEv(ptr noundef nonnull align 8 dereferenceable(112) %2)
          to label %19 unwind label %7

7:                                                ; preds = %3
  %8 = landingpad { ptr, i32 }
          cleanup
  %9 = load ptr, ptr %4, align 8, !tbaa !16
  %10 = icmp eq ptr %9, %5
  br i1 %10, label %11, label %14

11:                                               ; preds = %7
  %12 = load i64, ptr %6, align 8, !tbaa !12
  %13 = icmp ult i64 %12, 16
  tail call void @llvm.assume(i1 %13)
  br label %15

14:                                               ; preds = %7
  tail call void @_ZdlPv(ptr noundef %9) #15
  br label %15

15:                                               ; preds = %14, %11
  invoke void @_ZN10NEDElementD2Ev(ptr noundef nonnull align 8 dereferenceable(112) %2)
          to label %23 unwind label %16

16:                                               ; preds = %15
  %17 = landingpad { ptr, i32 }
          catch ptr null
  %18 = extractvalue { ptr, i32 } %17, 0
  tail call void @__clang_call_terminate(ptr %18) #12
  unreachable

19:                                               ; preds = %3
  %20 = getelementptr inbounds %class.PropertyKeyElement, ptr %0, i64 0, i32 1
  tail call void @_ZNSt7__cxx1112basic_stringIcSt11char_traitsIcESaIcEE9_M_assignERKS4_(ptr noundef nonnull align 8 dereferenceable(32) %4, ptr noundef nonnull align 8 dereferenceable(32) %20)
  ret ptr %2

21:                                               ; preds = %1
  %22 = landingpad { ptr, i32 }
          cleanup
  br label %23

23:                                               ; preds = %15, %21
  %24 = phi { ptr, i32 } [ %22, %21 ], [ %8, %15 ]
  tail call void @_ZdlPv(ptr noundef nonnull %2) #15
  resume { ptr, i32 } %24
}

; Function Attrs: sspstrong uwtable
define dso_local noundef ptr @_ZNK18PropertyKeyElement25getNextPropertyKeySiblingEv(ptr noundef nonnull align 8 dereferenceable(144) %0) unnamed_addr #0 align 2 {
  %2 = load ptr, ptr %0, align 8, !tbaa !5
  %3 = getelementptr inbounds ptr, ptr %2, i64 31
  %4 = load ptr, ptr %3, align 8
  %5 = tail call noundef ptr %4(ptr noundef nonnull align 8 dereferenceable(112) %0, i32 noundef 18)
  ret ptr %5
}

; Function Attrs: sspstrong uwtable
define dso_local noundef ptr @_ZNK18PropertyKeyElement20getFirstCommentChildEv(ptr noundef nonnull align 8 dereferenceable(144) %0) unnamed_addr #0 align 2 {
  %2 = load ptr, ptr %0, align 8, !tbaa !5
  %3 = getelementptr inbounds ptr, ptr %2, i64 30
  %4 = load ptr, ptr %3, align 8
  %5 = tail call noundef ptr %4(ptr noundef nonnull align 8 dereferenceable(112) %0, i32 noundef 3)
  ret ptr %5
}

; Function Attrs: sspstrong uwtable
define dso_local noundef ptr @_ZNK18PropertyKeyElement20getFirstLiteralChildEv(ptr noundef nonnull align 8 dereferenceable(144) %0) unnamed_addr #0 align 2 {
  %2 = load ptr, ptr %0, align 8, !tbaa !5
  %3 = getelementptr inbounds ptr, ptr %2, i64 30
  %4 = load ptr, ptr %3, align 8
  %5 = tail call noundef ptr %4(ptr noundef nonnull align 8 dereferenceable(112) %0, i32 noundef 34)
  ret ptr %5
}

; Function Attrs: sspstrong uwtable
define dso_local void @_ZN12GatesElementC2Ev(ptr noundef nonnull align 8 dereferenceable(112) %0) unnamed_addr #0 align 2 personality ptr @__gxx_personality_v0 {
  tail call void @_ZN10NEDElementC2Ev(ptr noundef nonnull align 8 dereferenceable(112) %0)
  store ptr getelementptr inbounds ({ [41 x ptr] }, ptr @_ZTV12GatesElement, i64 0, inrange i32 0, i64 2), ptr %0, align 8, !tbaa !5
  invoke void @_ZN10NEDElement13applyDefaultsEv(ptr noundef nonnull align 8 dereferenceable(112) %0)
          to label %2 unwind label %3

2:                                                ; preds = %1
  ret void

3:                                                ; preds = %1
  %4 = landingpad { ptr, i32 }
          cleanup
  invoke void @_ZN10NEDElementD2Ev(ptr noundef nonnull align 8 dereferenceable(112) %0)
          to label %5 unwind label %6

5:                                                ; preds = %3
  resume { ptr, i32 } %4

6:                                                ; preds = %3
  %7 = landingpad { ptr, i32 }
          catch ptr null
  %8 = extractvalue { ptr, i32 } %7, 0
  tail call void @__clang_call_terminate(ptr %8) #12
  unreachable
}

; Function Attrs: sspstrong uwtable
define dso_local void @_ZN12GatesElementC2EP10NEDElement(ptr noundef nonnull align 8 dereferenceable(112) %0, ptr noundef %1) unnamed_addr #0 align 2 personality ptr @__gxx_personality_v0 {
  tail call void @_ZN10NEDElementC2EPS_(ptr noundef nonnull align 8 dereferenceable(112) %0, ptr noundef %1)
  store ptr getelementptr inbounds ({ [41 x ptr] }, ptr @_ZTV12GatesElement, i64 0, inrange i32 0, i64 2), ptr %0, align 8, !tbaa !5
  invoke void @_ZN10NEDElement13applyDefaultsEv(ptr noundef nonnull align 8 dereferenceable(112) %0)
          to label %3 unwind label %4

3:                                                ; preds = %2
  ret void

4:                                                ; preds = %2
  %5 = landingpad { ptr, i32 }
          cleanup
  invoke void @_ZN10NEDElementD2Ev(ptr noundef nonnull align 8 dereferenceable(112) %0)
          to label %6 unwind label %7

6:                                                ; preds = %4
  resume { ptr, i32 } %5

7:                                                ; preds = %4
  %8 = landingpad { ptr, i32 }
          catch ptr null
  %9 = extractvalue { ptr, i32 } %8, 0
  tail call void @__clang_call_terminate(ptr %9) #12
  unreachable
}

; Function Attrs: mustprogress nofree norecurse nosync nounwind sspstrong willreturn memory(none) uwtable
define dso_local noundef i32 @_ZNK12GatesElement16getNumAttributesEv(ptr nocapture nonnull readnone align 8 %0) unnamed_addr #3 align 2 {
  ret i32 0
}

; Function Attrs: mustprogress nofree norecurse nosync nounwind sspstrong willreturn memory(none) uwtable
define dso_local noalias noundef ptr @_ZNK12GatesElement16getAttributeNameEi(ptr nocapture nonnull readnone align 8 %0, i32 %1) unnamed_addr #3 align 2 {
  ret ptr null
}

; Function Attrs: mustprogress nofree norecurse nosync nounwind sspstrong willreturn memory(none) uwtable
define dso_local noalias noundef ptr @_ZNK12GatesElement12getAttributeEi(ptr nocapture nonnull readnone align 8 %0, i32 %1) unnamed_addr #3 align 2 {
  ret ptr null
}

; Function Attrs: mustprogress nofree norecurse nosync nounwind sspstrong willreturn memory(none) uwtable
define dso_local void @_ZN12GatesElement12setAttributeEiPKc(ptr nocapture nonnull align 8 %0, i32 %1, ptr nocapture %2) unnamed_addr #3 align 2 {
  ret void
}

; Function Attrs: mustprogress nofree norecurse nosync nounwind sspstrong willreturn memory(none) uwtable
define dso_local noalias noundef ptr @_ZNK12GatesElement19getAttributeDefaultEi(ptr nocapture nonnull readnone align 8 %0, i32 %1) unnamed_addr #3 align 2 {
  ret ptr null
}

; Function Attrs: sspstrong uwtable
define dso_local noundef nonnull ptr @_ZNK12GatesElement3dupEv(ptr nocapture nonnull readnone align 8 %0) unnamed_addr #0 align 2 personality ptr @__gxx_personality_v0 {
  %2 = tail call noalias noundef nonnull dereferenceable(112) ptr @_Znwm(i64 noundef 112) #14
  invoke void @_ZN10NEDElementC2Ev(ptr noundef nonnull align 8 dereferenceable(112) %2)
          to label %3 unwind label %10

3:                                                ; preds = %1
  store ptr getelementptr inbounds ({ [41 x ptr] }, ptr @_ZTV12GatesElement, i64 0, inrange i32 0, i64 2), ptr %2, align 8, !tbaa !5
  invoke void @_ZN10NEDElement13applyDefaultsEv(ptr noundef nonnull align 8 dereferenceable(112) %2)
          to label %9 unwind label %4

4:                                                ; preds = %3
  %5 = landingpad { ptr, i32 }
          cleanup
  invoke void @_ZN10NEDElementD2Ev(ptr noundef nonnull align 8 dereferenceable(112) %2)
          to label %12 unwind label %6

6:                                                ; preds = %4
  %7 = landingpad { ptr, i32 }
          catch ptr null
  %8 = extractvalue { ptr, i32 } %7, 0
  tail call void @__clang_call_terminate(ptr %8) #12
  unreachable

9:                                                ; preds = %3
  ret ptr %2

10:                                               ; preds = %1
  %11 = landingpad { ptr, i32 }
          cleanup
  br label %12

12:                                               ; preds = %4, %10
  %13 = phi { ptr, i32 } [ %11, %10 ], [ %5, %4 ]
  tail call void @_ZdlPv(ptr noundef nonnull %2) #15
  resume { ptr, i32 } %13
}

; Function Attrs: sspstrong uwtable
define dso_local noundef ptr @_ZNK12GatesElement19getNextGatesSiblingEv(ptr noundef nonnull align 8 dereferenceable(112) %0) unnamed_addr #0 align 2 {
  %2 = load ptr, ptr %0, align 8, !tbaa !5
  %3 = getelementptr inbounds ptr, ptr %2, i64 31
  %4 = load ptr, ptr %3, align 8
  %5 = tail call noundef ptr %4(ptr noundef nonnull align 8 dereferenceable(112) %0, i32 noundef 19)
  ret ptr %5
}

; Function Attrs: sspstrong uwtable
define dso_local noundef ptr @_ZNK12GatesElement20getFirstCommentChildEv(ptr noundef nonnull align 8 dereferenceable(112) %0) unnamed_addr #0 align 2 {
  %2 = load ptr, ptr %0, align 8, !tbaa !5
  %3 = getelementptr inbounds ptr, ptr %2, i64 30
  %4 = load ptr, ptr %3, align 8
  %5 = tail call noundef ptr %4(ptr noundef nonnull align 8 dereferenceable(112) %0, i32 noundef 3)
  ret ptr %5
}

; Function Attrs: sspstrong uwtable
define dso_local noundef ptr @_ZNK12GatesElement17getFirstGateChildEv(ptr noundef nonnull align 8 dereferenceable(112) %0) unnamed_addr #0 align 2 {
  %2 = load ptr, ptr %0, align 8, !tbaa !5
  %3 = getelementptr inbounds ptr, ptr %2, i64 30
  %4 = load ptr, ptr %3, align 8
  %5 = tail call noundef ptr %4(ptr noundef nonnull align 8 dereferenceable(112) %0, i32 noundef 20)
  ret ptr %5
}

; Function Attrs: sspstrong uwtable
define dso_local void @_ZN11GateElement7setTypeEi(ptr nocapture noundef nonnull writeonly align 8 dereferenceable(184) %0, i32 noundef %1) local_unnamed_addr #0 align 2 {
  tail call void @_ZN10NEDElement12validateEnumEiPPKcPii(i32 noundef %1, ptr noundef nonnull @_ZL13gatetype_vals, ptr noundef nonnull @_ZL13gatetype_nums, i32 noundef 4)
  %3 = getelementptr inbounds %class.GateElement, ptr %0, i64 0, i32 2
  store i32 %1, ptr %3, align 8, !tbaa !35
  ret void
}

; Function Attrs: sspstrong uwtable
define dso_local void @_ZN11GateElementC2Ev(ptr noundef nonnull align 8 dereferenceable(184) %0) unnamed_addr #0 align 2 personality ptr @__gxx_personality_v0 {
  tail call void @_ZN10NEDElementC2Ev(ptr noundef nonnull align 8 dereferenceable(112) %0)
  store ptr getelementptr inbounds ({ [42 x ptr] }, ptr @_ZTV11GateElement, i64 0, inrange i32 0, i64 2), ptr %0, align 8, !tbaa !5
  %2 = getelementptr inbounds %class.GateElement, ptr %0, i64 0, i32 1
  %3 = getelementptr inbounds %class.GateElement, ptr %0, i64 0, i32 1, i32 2
  store ptr %3, ptr %2, align 8, !tbaa !8
  %4 = getelementptr inbounds %class.GateElement, ptr %0, i64 0, i32 1, i32 1
  store i64 0, ptr %4, align 8, !tbaa !12
  store i8 0, ptr %3, align 8, !tbaa !15
  %5 = getelementptr inbounds %class.GateElement, ptr %0, i64 0, i32 4
  %6 = getelementptr inbounds %class.GateElement, ptr %0, i64 0, i32 4, i32 2
  store ptr %6, ptr %5, align 8, !tbaa !8
  %7 = getelementptr inbounds %class.GateElement, ptr %0, i64 0, i32 4, i32 1
  store i64 0, ptr %7, align 8, !tbaa !12
  store i8 0, ptr %6, align 8, !tbaa !15
  %8 = getelementptr inbounds %class.GateElement, ptr %0, i64 0, i32 2
  store i32 0, ptr %8, align 8, !tbaa !35
  %9 = getelementptr inbounds %class.GateElement, ptr %0, i64 0, i32 3
  store i8 0, ptr %9, align 4, !tbaa !37
  invoke void @_ZN10NEDElement13applyDefaultsEv(ptr noundef nonnull align 8 dereferenceable(112) %0)
          to label %10 unwind label %11

10:                                               ; preds = %1
  ret void

11:                                               ; preds = %1
  %12 = landingpad { ptr, i32 }
          cleanup
  %13 = load ptr, ptr %5, align 8, !tbaa !16
  %14 = icmp eq ptr %13, %6
  br i1 %14, label %15, label %18

15:                                               ; preds = %11
  %16 = load i64, ptr %7, align 8, !tbaa !12
  %17 = icmp ult i64 %16, 16
  tail call void @llvm.assume(i1 %17)
  br label %19

18:                                               ; preds = %11
  tail call void @_ZdlPv(ptr noundef %13) #15
  br label %19

19:                                               ; preds = %18, %15
  %20 = load ptr, ptr %2, align 8, !tbaa !16
  %21 = icmp eq ptr %20, %3
  br i1 %21, label %22, label %25

22:                                               ; preds = %19
  %23 = load i64, ptr %4, align 8, !tbaa !12
  %24 = icmp ult i64 %23, 16
  tail call void @llvm.assume(i1 %24)
  br label %26

25:                                               ; preds = %19
  tail call void @_ZdlPv(ptr noundef %20) #15
  br label %26

26:                                               ; preds = %25, %22
  invoke void @_ZN10NEDElementD2Ev(ptr noundef nonnull align 8 dereferenceable(112) %0)
          to label %27 unwind label %28

27:                                               ; preds = %26
  resume { ptr, i32 } %12

28:                                               ; preds = %26
  %29 = landingpad { ptr, i32 }
          catch ptr null
  %30 = extractvalue { ptr, i32 } %29, 0
  tail call void @__clang_call_terminate(ptr %30) #12
  unreachable
}

; Function Attrs: sspstrong uwtable
define dso_local void @_ZN11GateElementC2EP10NEDElement(ptr noundef nonnull align 8 dereferenceable(184) %0, ptr noundef %1) unnamed_addr #0 align 2 personality ptr @__gxx_personality_v0 {
  tail call void @_ZN10NEDElementC2EPS_(ptr noundef nonnull align 8 dereferenceable(112) %0, ptr noundef %1)
  store ptr getelementptr inbounds ({ [42 x ptr] }, ptr @_ZTV11GateElement, i64 0, inrange i32 0, i64 2), ptr %0, align 8, !tbaa !5
  %3 = getelementptr inbounds %class.GateElement, ptr %0, i64 0, i32 1
  %4 = getelementptr inbounds %class.GateElement, ptr %0, i64 0, i32 1, i32 2
  store ptr %4, ptr %3, align 8, !tbaa !8
  %5 = getelementptr inbounds %class.GateElement, ptr %0, i64 0, i32 1, i32 1
  store i64 0, ptr %5, align 8, !tbaa !12
  store i8 0, ptr %4, align 8, !tbaa !15
  %6 = getelementptr inbounds %class.GateElement, ptr %0, i64 0, i32 4
  %7 = getelementptr inbounds %class.GateElement, ptr %0, i64 0, i32 4, i32 2
  store ptr %7, ptr %6, align 8, !tbaa !8
  %8 = getelementptr inbounds %class.GateElement, ptr %0, i64 0, i32 4, i32 1
  store i64 0, ptr %8, align 8, !tbaa !12
  store i8 0, ptr %7, align 8, !tbaa !15
  %9 = getelementptr inbounds %class.GateElement, ptr %0, i64 0, i32 2
  store i32 0, ptr %9, align 8, !tbaa !35
  %10 = getelementptr inbounds %class.GateElement, ptr %0, i64 0, i32 3
  store i8 0, ptr %10, align 4, !tbaa !37
  invoke void @_ZN10NEDElement13applyDefaultsEv(ptr noundef nonnull align 8 dereferenceable(112) %0)
          to label %11 unwind label %12

11:                                               ; preds = %2
  ret void

12:                                               ; preds = %2
  %13 = landingpad { ptr, i32 }
          cleanup
  %14 = load ptr, ptr %6, align 8, !tbaa !16
  %15 = icmp eq ptr %14, %7
  br i1 %15, label %16, label %19

16:                                               ; preds = %12
  %17 = load i64, ptr %8, align 8, !tbaa !12
  %18 = icmp ult i64 %17, 16
  tail call void @llvm.assume(i1 %18)
  br label %20

19:                                               ; preds = %12
  tail call void @_ZdlPv(ptr noundef %14) #15
  br label %20

20:                                               ; preds = %19, %16
  %21 = load ptr, ptr %3, align 8, !tbaa !16
  %22 = icmp eq ptr %21, %4
  br i1 %22, label %23, label %26

23:                                               ; preds = %20
  %24 = load i64, ptr %5, align 8, !tbaa !12
  %25 = icmp ult i64 %24, 16
  tail call void @llvm.assume(i1 %25)
  br label %27

26:                                               ; preds = %20
  tail call void @_ZdlPv(ptr noundef %21) #15
  br label %27

27:                                               ; preds = %26, %23
  invoke void @_ZN10NEDElementD2Ev(ptr noundef nonnull align 8 dereferenceable(112) %0)
          to label %28 unwind label %29

28:                                               ; preds = %27
  resume { ptr, i32 } %13

29:                                               ; preds = %27
  %30 = landingpad { ptr, i32 }
          catch ptr null
  %31 = extractvalue { ptr, i32 } %30, 0
  tail call void @__clang_call_terminate(ptr %31) #12
  unreachable
}

; Function Attrs: mustprogress nofree norecurse nosync nounwind sspstrong willreturn memory(none) uwtable
define dso_local noundef i32 @_ZNK11GateElement16getNumAttributesEv(ptr nocapture nonnull readnone align 8 %0) unnamed_addr #3 align 2 {
  ret i32 4
}

; Function Attrs: mustprogress nofree norecurse nosync nounwind sspstrong willreturn memory(none) uwtable
define dso_local noundef ptr @_ZNK11GateElement16getAttributeNameEi(ptr nocapture nonnull readnone align 8 %0, i32 noundef %1) unnamed_addr #3 align 2 {
  %3 = icmp ult i32 %1, 4
  br i1 %3, label %4, label %8

4:                                                ; preds = %2
  %5 = sext i32 %1 to i64
  %6 = shl i64 %5, 2
  %7 = call ptr @llvm.load.relative.i64(ptr @reltable._ZNK11GateElement16getAttributeNameEi, i64 %6)
  br label %8

8:                                                ; preds = %2, %4
  %9 = phi ptr [ %7, %4 ], [ null, %2 ]
  ret ptr %9
}

; Function Attrs: sspstrong uwtable
define dso_local noundef ptr @_ZNK11GateElement12getAttributeEi(ptr nocapture noundef nonnull readonly align 8 dereferenceable(184) %0, i32 noundef %1) unnamed_addr #0 align 2 {
  switch i32 %1, label %18 [
    i32 0, label %3
    i32 1, label %6
    i32 2, label %10
    i32 3, label %15
  ]

3:                                                ; preds = %2
  %4 = getelementptr inbounds %class.GateElement, ptr %0, i64 0, i32 1
  %5 = load ptr, ptr %4, align 8, !tbaa !16
  br label %18

6:                                                ; preds = %2
  %7 = getelementptr inbounds %class.GateElement, ptr %0, i64 0, i32 2
  %8 = load i32, ptr %7, align 8, !tbaa !35
  %9 = tail call noundef ptr @_ZN10NEDElement12enumToStringEiPPKcPii(i32 noundef %8, ptr noundef nonnull @_ZL13gatetype_vals, ptr noundef nonnull @_ZL13gatetype_nums, i32 noundef 4)
  br label %18

10:                                               ; preds = %2
  %11 = getelementptr inbounds %class.GateElement, ptr %0, i64 0, i32 3
  %12 = load i8, ptr %11, align 4, !tbaa !37, !range !23, !noundef !24
  %13 = icmp ne i8 %12, 0
  %14 = tail call noundef ptr @_ZN10NEDElement12boolToStringEb(i1 noundef zeroext %13)
  br label %18

15:                                               ; preds = %2
  %16 = getelementptr inbounds %class.GateElement, ptr %0, i64 0, i32 4
  %17 = load ptr, ptr %16, align 8, !tbaa !16
  br label %18

18:                                               ; preds = %2, %15, %10, %6, %3
  %19 = phi ptr [ %17, %15 ], [ %14, %10 ], [ %9, %6 ], [ %5, %3 ], [ null, %2 ]
  ret ptr %19
}

; Function Attrs: sspstrong uwtable
define dso_local void @_ZN11GateElement12setAttributeEiPKc(ptr noundef nonnull align 8 dereferenceable(184) %0, i32 noundef %1, ptr noundef %2) unnamed_addr #0 align 2 {
  switch i32 %1, label %23 [
    i32 0, label %4
    i32 1, label %10
    i32 2, label %13
    i32 3, label %17
  ]

4:                                                ; preds = %3
  %5 = getelementptr inbounds %class.GateElement, ptr %0, i64 0, i32 1
  %6 = getelementptr inbounds %class.GateElement, ptr %0, i64 0, i32 1, i32 1
  %7 = load i64, ptr %6, align 8, !tbaa !12
  %8 = tail call i64 @strlen(ptr noundef nonnull dereferenceable(1) %2) #13
  %9 = tail call noundef nonnull align 8 dereferenceable(32) ptr @_ZNSt7__cxx1112basic_stringIcSt11char_traitsIcESaIcEE10_M_replaceEmmPKcm(ptr noundef nonnull align 8 dereferenceable(32) %5, i64 noundef 0, i64 noundef %7, ptr noundef %2, i64 noundef %8)
  br label %23

10:                                               ; preds = %3
  %11 = tail call noundef i32 @_ZN10NEDElement12stringToEnumEPKcPS1_Pii(ptr noundef %2, ptr noundef nonnull @_ZL13gatetype_vals, ptr noundef nonnull @_ZL13gatetype_nums, i32 noundef 4)
  %12 = getelementptr inbounds %class.GateElement, ptr %0, i64 0, i32 2
  store i32 %11, ptr %12, align 8, !tbaa !35
  br label %23

13:                                               ; preds = %3
  %14 = tail call noundef zeroext i1 @_ZN10NEDElement12stringToBoolEPKc(ptr noundef %2)
  %15 = getelementptr inbounds %class.GateElement, ptr %0, i64 0, i32 3
  %16 = zext i1 %14 to i8
  store i8 %16, ptr %15, align 4, !tbaa !37
  br label %23

17:                                               ; preds = %3
  %18 = getelementptr inbounds %class.GateElement, ptr %0, i64 0, i32 4
  %19 = getelementptr inbounds %class.GateElement, ptr %0, i64 0, i32 4, i32 1
  %20 = load i64, ptr %19, align 8, !tbaa !12
  %21 = tail call i64 @strlen(ptr noundef nonnull dereferenceable(1) %2) #13
  %22 = tail call noundef nonnull align 8 dereferenceable(32) ptr @_ZNSt7__cxx1112basic_stringIcSt11char_traitsIcESaIcEE10_M_replaceEmmPKcm(ptr noundef nonnull align 8 dereferenceable(32) %18, i64 noundef 0, i64 noundef %20, ptr noundef %2, i64 noundef %21)
  br label %23

23:                                               ; preds = %3, %17, %13, %10, %4
  ret void
}

; Function Attrs: mustprogress nofree norecurse nosync nounwind sspstrong willreturn memory(none) uwtable
define dso_local noundef ptr @_ZNK11GateElement19getAttributeDefaultEi(ptr nocapture nonnull readnone align 8 %0, i32 noundef %1) unnamed_addr #3 align 2 {
  %3 = add i32 %1, -1
  %4 = icmp ult i32 %3, 3
  br i1 %4, label %5, label %9

5:                                                ; preds = %2
  %6 = sext i32 %3 to i64
  %7 = shl i64 %6, 2
  %8 = call ptr @llvm.load.relative.i64(ptr @reltable._ZNK11GateElement19getAttributeDefaultEi, i64 %7)
  br label %9

9:                                                ; preds = %5, %2
  %10 = phi ptr [ null, %2 ], [ %8, %5 ]
  ret ptr %10
}

; Function Attrs: sspstrong uwtable
define dso_local noundef nonnull ptr @_ZNK11GateElement3dupEv(ptr noundef nonnull align 8 dereferenceable(184) %0) unnamed_addr #0 align 2 personality ptr @__gxx_personality_v0 {
  %2 = tail call noalias noundef nonnull dereferenceable(184) ptr @_Znwm(i64 noundef 184) #14
  invoke void @_ZN11GateElementC2Ev(ptr noundef nonnull align 8 dereferenceable(184) %2)
          to label %3 unwind label %14

3:                                                ; preds = %1
  %4 = getelementptr inbounds %class.GateElement, ptr %0, i64 0, i32 1
  %5 = getelementptr inbounds %class.GateElement, ptr %2, i64 0, i32 1
  tail call void @_ZNSt7__cxx1112basic_stringIcSt11char_traitsIcESaIcEE9_M_assignERKS4_(ptr noundef nonnull align 8 dereferenceable(32) %5, ptr noundef nonnull align 8 dereferenceable(32) %4)
  %6 = getelementptr inbounds %class.GateElement, ptr %0, i64 0, i32 2
  %7 = load i32, ptr %6, align 8, !tbaa !35
  %8 = getelementptr inbounds %class.GateElement, ptr %2, i64 0, i32 2
  store i32 %7, ptr %8, align 8, !tbaa !35
  %9 = getelementptr inbounds %class.GateElement, ptr %0, i64 0, i32 3
  %10 = load i8, ptr %9, align 4, !tbaa !37, !range !23, !noundef !24
  %11 = getelementptr inbounds %class.GateElement, ptr %2, i64 0, i32 3
  store i8 %10, ptr %11, align 4, !tbaa !37
  %12 = getelementptr inbounds %class.GateElement, ptr %0, i64 0, i32 4
  %13 = getelementptr inbounds %class.GateElement, ptr %2, i64 0, i32 4
  tail call void @_ZNSt7__cxx1112basic_stringIcSt11char_traitsIcESaIcEE9_M_assignERKS4_(ptr noundef nonnull align 8 dereferenceable(32) %13, ptr noundef nonnull align 8 dereferenceable(32) %12)
  ret ptr %2

14:                                               ; preds = %1
  %15 = landingpad { ptr, i32 }
          cleanup
  tail call void @_ZdlPv(ptr noundef nonnull %2) #15
  resume { ptr, i32 } %15
}

; Function Attrs: sspstrong uwtable
define dso_local noundef ptr @_ZNK11GateElement18getNextGateSiblingEv(ptr noundef nonnull align 8 dereferenceable(184) %0) unnamed_addr #0 align 2 {
  %2 = load ptr, ptr %0, align 8, !tbaa !5
  %3 = getelementptr inbounds ptr, ptr %2, i64 31
  %4 = load ptr, ptr %3, align 8
  %5 = tail call noundef ptr %4(ptr noundef nonnull align 8 dereferenceable(112) %0, i32 noundef 20)
  ret ptr %5
}

; Function Attrs: sspstrong uwtable
define dso_local noundef ptr @_ZNK11GateElement20getFirstCommentChildEv(ptr noundef nonnull align 8 dereferenceable(184) %0) unnamed_addr #0 align 2 {
  %2 = load ptr, ptr %0, align 8, !tbaa !5
  %3 = getelementptr inbounds ptr, ptr %2, i64 30
  %4 = load ptr, ptr %3, align 8
  %5 = tail call noundef ptr %4(ptr noundef nonnull align 8 dereferenceable(112) %0, i32 noundef 3)
  ret ptr %5
}

; Function Attrs: sspstrong uwtable
define dso_local noundef ptr @_ZNK11GateElement23getFirstExpressionChildEv(ptr noundef nonnull align 8 dereferenceable(184) %0) unnamed_addr #0 align 2 {
  %2 = load ptr, ptr %0, align 8, !tbaa !5
  %3 = getelementptr inbounds ptr, ptr %2, i64 30
  %4 = load ptr, ptr %3, align 8
  %5 = tail call noundef ptr %4(ptr noundef nonnull align 8 dereferenceable(112) %0, i32 noundef 30)
  ret ptr %5
}

; Function Attrs: sspstrong uwtable
define dso_local noundef ptr @_ZNK11GateElement21getFirstPropertyChildEv(ptr noundef nonnull align 8 dereferenceable(184) %0) unnamed_addr #0 align 2 {
  %2 = load ptr, ptr %0, align 8, !tbaa !5
  %3 = getelementptr inbounds ptr, ptr %2, i64 30
  %4 = load ptr, ptr %3, align 8
  %5 = tail call noundef ptr %4(ptr noundef nonnull align 8 dereferenceable(112) %0, i32 noundef 17)
  ret ptr %5
}

; Function Attrs: sspstrong uwtable
define dso_local void @_ZN12TypesElementC2Ev(ptr noundef nonnull align 8 dereferenceable(112) %0) unnamed_addr #0 align 2 personality ptr @__gxx_personality_v0 {
  tail call void @_ZN10NEDElementC2Ev(ptr noundef nonnull align 8 dereferenceable(112) %0)
  store ptr getelementptr inbounds ({ [45 x ptr] }, ptr @_ZTV12TypesElement, i64 0, inrange i32 0, i64 2), ptr %0, align 8, !tbaa !5
  invoke void @_ZN10NEDElement13applyDefaultsEv(ptr noundef nonnull align 8 dereferenceable(112) %0)
          to label %2 unwind label %3

2:                                                ; preds = %1
  ret void

3:                                                ; preds = %1
  %4 = landingpad { ptr, i32 }
          cleanup
  invoke void @_ZN10NEDElementD2Ev(ptr noundef nonnull align 8 dereferenceable(112) %0)
          to label %5 unwind label %6

5:                                                ; preds = %3
  resume { ptr, i32 } %4

6:                                                ; preds = %3
  %7 = landingpad { ptr, i32 }
          catch ptr null
  %8 = extractvalue { ptr, i32 } %7, 0
  tail call void @__clang_call_terminate(ptr %8) #12
  unreachable
}

; Function Attrs: sspstrong uwtable
define dso_local void @_ZN12TypesElementC2EP10NEDElement(ptr noundef nonnull align 8 dereferenceable(112) %0, ptr noundef %1) unnamed_addr #0 align 2 personality ptr @__gxx_personality_v0 {
  tail call void @_ZN10NEDElementC2EPS_(ptr noundef nonnull align 8 dereferenceable(112) %0, ptr noundef %1)
  store ptr getelementptr inbounds ({ [45 x ptr] }, ptr @_ZTV12TypesElement, i64 0, inrange i32 0, i64 2), ptr %0, align 8, !tbaa !5
  invoke void @_ZN10NEDElement13applyDefaultsEv(ptr noundef nonnull align 8 dereferenceable(112) %0)
          to label %3 unwind label %4

3:                                                ; preds = %2
  ret void

4:                                                ; preds = %2
  %5 = landingpad { ptr, i32 }
          cleanup
  invoke void @_ZN10NEDElementD2Ev(ptr noundef nonnull align 8 dereferenceable(112) %0)
          to label %6 unwind label %7

6:                                                ; preds = %4
  resume { ptr, i32 } %5

7:                                                ; preds = %4
  %8 = landingpad { ptr, i32 }
          catch ptr null
  %9 = extractvalue { ptr, i32 } %8, 0
  tail call void @__clang_call_terminate(ptr %9) #12
  unreachable
}

; Function Attrs: mustprogress nofree norecurse nosync nounwind sspstrong willreturn memory(none) uwtable
define dso_local noundef i32 @_ZNK12TypesElement16getNumAttributesEv(ptr nocapture nonnull readnone align 8 %0) unnamed_addr #3 align 2 {
  ret i32 0
}

; Function Attrs: mustprogress nofree norecurse nosync nounwind sspstrong willreturn memory(none) uwtable
define dso_local noalias noundef ptr @_ZNK12TypesElement16getAttributeNameEi(ptr nocapture nonnull readnone align 8 %0, i32 %1) unnamed_addr #3 align 2 {
  ret ptr null
}

; Function Attrs: mustprogress nofree norecurse nosync nounwind sspstrong willreturn memory(none) uwtable
define dso_local noalias noundef ptr @_ZNK12TypesElement12getAttributeEi(ptr nocapture nonnull readnone align 8 %0, i32 %1) unnamed_addr #3 align 2 {
  ret ptr null
}

; Function Attrs: mustprogress nofree norecurse nosync nounwind sspstrong willreturn memory(none) uwtable
define dso_local void @_ZN12TypesElement12setAttributeEiPKc(ptr nocapture nonnull align 8 %0, i32 %1, ptr nocapture %2) unnamed_addr #3 align 2 {
  ret void
}

; Function Attrs: mustprogress nofree norecurse nosync nounwind sspstrong willreturn memory(none) uwtable
define dso_local noalias noundef ptr @_ZNK12TypesElement19getAttributeDefaultEi(ptr nocapture nonnull readnone align 8 %0, i32 %1) unnamed_addr #3 align 2 {
  ret ptr null
}

; Function Attrs: sspstrong uwtable
define dso_local noundef nonnull ptr @_ZNK12TypesElement3dupEv(ptr nocapture nonnull readnone align 8 %0) unnamed_addr #0 align 2 personality ptr @__gxx_personality_v0 {
  %2 = tail call noalias noundef nonnull dereferenceable(112) ptr @_Znwm(i64 noundef 112) #14
  invoke void @_ZN10NEDElementC2Ev(ptr noundef nonnull align 8 dereferenceable(112) %2)
          to label %3 unwind label %10

3:                                                ; preds = %1
  store ptr getelementptr inbounds ({ [45 x ptr] }, ptr @_ZTV12TypesElement, i64 0, inrange i32 0, i64 2), ptr %2, align 8, !tbaa !5
  invoke void @_ZN10NEDElement13applyDefaultsEv(ptr noundef nonnull align 8 dereferenceable(112) %2)
          to label %9 unwind label %4

4:                                                ; preds = %3
  %5 = landingpad { ptr, i32 }
          cleanup
  invoke void @_ZN10NEDElementD2Ev(ptr noundef nonnull align 8 dereferenceable(112) %2)
          to label %12 unwind label %6

6:                                                ; preds = %4
  %7 = landingpad { ptr, i32 }
          catch ptr null
  %8 = extractvalue { ptr, i32 } %7, 0
  tail call void @__clang_call_terminate(ptr %8) #12
  unreachable

9:                                                ; preds = %3
  ret ptr %2

10:                                               ; preds = %1
  %11 = landingpad { ptr, i32 }
          cleanup
  br label %12

12:                                               ; preds = %4, %10
  %13 = phi { ptr, i32 } [ %11, %10 ], [ %5, %4 ]
  tail call void @_ZdlPv(ptr noundef nonnull %2) #15
  resume { ptr, i32 } %13
}

; Function Attrs: sspstrong uwtable
define dso_local noundef ptr @_ZNK12TypesElement19getNextTypesSiblingEv(ptr noundef nonnull align 8 dereferenceable(112) %0) unnamed_addr #0 align 2 {
  %2 = load ptr, ptr %0, align 8, !tbaa !5
  %3 = getelementptr inbounds ptr, ptr %2, i64 31
  %4 = load ptr, ptr %3, align 8
  %5 = tail call noundef ptr %4(ptr noundef nonnull align 8 dereferenceable(112) %0, i32 noundef 21)
  ret ptr %5
}

; Function Attrs: sspstrong uwtable
define dso_local noundef ptr @_ZNK12TypesElement20getFirstCommentChildEv(ptr noundef nonnull align 8 dereferenceable(112) %0) unnamed_addr #0 align 2 {
  %2 = load ptr, ptr %0, align 8, !tbaa !5
  %3 = getelementptr inbounds ptr, ptr %2, i64 30
  %4 = load ptr, ptr %3, align 8
  %5 = tail call noundef ptr %4(ptr noundef nonnull align 8 dereferenceable(112) %0, i32 noundef 3)
  ret ptr %5
}

; Function Attrs: sspstrong uwtable
define dso_local noundef ptr @_ZNK12TypesElement20getFirstChannelChildEv(ptr noundef nonnull align 8 dereferenceable(112) %0) unnamed_addr #0 align 2 {
  %2 = load ptr, ptr %0, align 8, !tbaa !5
  %3 = getelementptr inbounds ptr, ptr %2, i64 30
  %4 = load ptr, ptr %3, align 8
  %5 = tail call noundef ptr %4(ptr noundef nonnull align 8 dereferenceable(112) %0, i32 noundef 13)
  ret ptr %5
}

; Function Attrs: sspstrong uwtable
define dso_local noundef ptr @_ZNK12TypesElement29getFirstChannelInterfaceChildEv(ptr noundef nonnull align 8 dereferenceable(112) %0) unnamed_addr #0 align 2 {
  %2 = load ptr, ptr %0, align 8, !tbaa !5
  %3 = getelementptr inbounds ptr, ptr %2, i64 30
  %4 = load ptr, ptr %3, align 8
  %5 = tail call noundef ptr %4(ptr noundef nonnull align 8 dereferenceable(112) %0, i32 noundef 12)
  ret ptr %5
}

; Function Attrs: sspstrong uwtable
define dso_local noundef ptr @_ZNK12TypesElement25getFirstSimpleModuleChildEv(ptr noundef nonnull align 8 dereferenceable(112) %0) unnamed_addr #0 align 2 {
  %2 = load ptr, ptr %0, align 8, !tbaa !5
  %3 = getelementptr inbounds ptr, ptr %2, i64 30
  %4 = load ptr, ptr %3, align 8
  %5 = tail call noundef ptr %4(ptr noundef nonnull align 8 dereferenceable(112) %0, i32 noundef 9)
  ret ptr %5
}

; Function Attrs: sspstrong uwtable
define dso_local noundef ptr @_ZNK12TypesElement27getFirstCompoundModuleChildEv(ptr noundef nonnull align 8 dereferenceable(112) %0) unnamed_addr #0 align 2 {
  %2 = load ptr, ptr %0, align 8, !tbaa !5
  %3 = getelementptr inbounds ptr, ptr %2, i64 30
  %4 = load ptr, ptr %3, align 8
  %5 = tail call noundef ptr %4(ptr noundef nonnull align 8 dereferenceable(112) %0, i32 noundef 11)
  ret ptr %5
}

; Function Attrs: sspstrong uwtable
define dso_local noundef ptr @_ZNK12TypesElement28getFirstModuleInterfaceChildEv(ptr noundef nonnull align 8 dereferenceable(112) %0) unnamed_addr #0 align 2 {
  %2 = load ptr, ptr %0, align 8, !tbaa !5
  %3 = getelementptr inbounds ptr, ptr %2, i64 30
  %4 = load ptr, ptr %3, align 8
  %5 = tail call noundef ptr %4(ptr noundef nonnull align 8 dereferenceable(112) %0, i32 noundef 10)
  ret ptr %5
}

; Function Attrs: sspstrong uwtable
define dso_local void @_ZN17SubmodulesElementC2Ev(ptr noundef nonnull align 8 dereferenceable(112) %0) unnamed_addr #0 align 2 personality ptr @__gxx_personality_v0 {
  tail call void @_ZN10NEDElementC2Ev(ptr noundef nonnull align 8 dereferenceable(112) %0)
  store ptr getelementptr inbounds ({ [41 x ptr] }, ptr @_ZTV17SubmodulesElement, i64 0, inrange i32 0, i64 2), ptr %0, align 8, !tbaa !5
  invoke void @_ZN10NEDElement13applyDefaultsEv(ptr noundef nonnull align 8 dereferenceable(112) %0)
          to label %2 unwind label %3

2:                                                ; preds = %1
  ret void

3:                                                ; preds = %1
  %4 = landingpad { ptr, i32 }
          cleanup
  invoke void @_ZN10NEDElementD2Ev(ptr noundef nonnull align 8 dereferenceable(112) %0)
          to label %5 unwind label %6

5:                                                ; preds = %3
  resume { ptr, i32 } %4

6:                                                ; preds = %3
  %7 = landingpad { ptr, i32 }
          catch ptr null
  %8 = extractvalue { ptr, i32 } %7, 0
  tail call void @__clang_call_terminate(ptr %8) #12
  unreachable
}

; Function Attrs: sspstrong uwtable
define dso_local void @_ZN17SubmodulesElementC2EP10NEDElement(ptr noundef nonnull align 8 dereferenceable(112) %0, ptr noundef %1) unnamed_addr #0 align 2 personality ptr @__gxx_personality_v0 {
  tail call void @_ZN10NEDElementC2EPS_(ptr noundef nonnull align 8 dereferenceable(112) %0, ptr noundef %1)
  store ptr getelementptr inbounds ({ [41 x ptr] }, ptr @_ZTV17SubmodulesElement, i64 0, inrange i32 0, i64 2), ptr %0, align 8, !tbaa !5
  invoke void @_ZN10NEDElement13applyDefaultsEv(ptr noundef nonnull align 8 dereferenceable(112) %0)
          to label %3 unwind label %4

3:                                                ; preds = %2
  ret void

4:                                                ; preds = %2
  %5 = landingpad { ptr, i32 }
          cleanup
  invoke void @_ZN10NEDElementD2Ev(ptr noundef nonnull align 8 dereferenceable(112) %0)
          to label %6 unwind label %7

6:                                                ; preds = %4
  resume { ptr, i32 } %5

7:                                                ; preds = %4
  %8 = landingpad { ptr, i32 }
          catch ptr null
  %9 = extractvalue { ptr, i32 } %8, 0
  tail call void @__clang_call_terminate(ptr %9) #12
  unreachable
}

; Function Attrs: mustprogress nofree norecurse nosync nounwind sspstrong willreturn memory(none) uwtable
define dso_local noundef i32 @_ZNK17SubmodulesElement16getNumAttributesEv(ptr nocapture nonnull readnone align 8 %0) unnamed_addr #3 align 2 {
  ret i32 0
}

; Function Attrs: mustprogress nofree norecurse nosync nounwind sspstrong willreturn memory(none) uwtable
define dso_local noalias noundef ptr @_ZNK17SubmodulesElement16getAttributeNameEi(ptr nocapture nonnull readnone align 8 %0, i32 %1) unnamed_addr #3 align 2 {
  ret ptr null
}

; Function Attrs: mustprogress nofree norecurse nosync nounwind sspstrong willreturn memory(none) uwtable
define dso_local noalias noundef ptr @_ZNK17SubmodulesElement12getAttributeEi(ptr nocapture nonnull readnone align 8 %0, i32 %1) unnamed_addr #3 align 2 {
  ret ptr null
}

; Function Attrs: mustprogress nofree norecurse nosync nounwind sspstrong willreturn memory(none) uwtable
define dso_local void @_ZN17SubmodulesElement12setAttributeEiPKc(ptr nocapture nonnull align 8 %0, i32 %1, ptr nocapture %2) unnamed_addr #3 align 2 {
  ret void
}

; Function Attrs: mustprogress nofree norecurse nosync nounwind sspstrong willreturn memory(none) uwtable
define dso_local noalias noundef ptr @_ZNK17SubmodulesElement19getAttributeDefaultEi(ptr nocapture nonnull readnone align 8 %0, i32 %1) unnamed_addr #3 align 2 {
  ret ptr null
}

; Function Attrs: sspstrong uwtable
define dso_local noundef nonnull ptr @_ZNK17SubmodulesElement3dupEv(ptr nocapture nonnull readnone align 8 %0) unnamed_addr #0 align 2 personality ptr @__gxx_personality_v0 {
  %2 = tail call noalias noundef nonnull dereferenceable(112) ptr @_Znwm(i64 noundef 112) #14
  invoke void @_ZN10NEDElementC2Ev(ptr noundef nonnull align 8 dereferenceable(112) %2)
          to label %3 unwind label %10

3:                                                ; preds = %1
  store ptr getelementptr inbounds ({ [41 x ptr] }, ptr @_ZTV17SubmodulesElement, i64 0, inrange i32 0, i64 2), ptr %2, align 8, !tbaa !5
  invoke void @_ZN10NEDElement13applyDefaultsEv(ptr noundef nonnull align 8 dereferenceable(112) %2)
          to label %9 unwind label %4

4:                                                ; preds = %3
  %5 = landingpad { ptr, i32 }
          cleanup
  invoke void @_ZN10NEDElementD2Ev(ptr noundef nonnull align 8 dereferenceable(112) %2)
          to label %12 unwind label %6

6:                                                ; preds = %4
  %7 = landingpad { ptr, i32 }
          catch ptr null
  %8 = extractvalue { ptr, i32 } %7, 0
  tail call void @__clang_call_terminate(ptr %8) #12
  unreachable

9:                                                ; preds = %3
  ret ptr %2

10:                                               ; preds = %1
  %11 = landingpad { ptr, i32 }
          cleanup
  br label %12

12:                                               ; preds = %4, %10
  %13 = phi { ptr, i32 } [ %11, %10 ], [ %5, %4 ]
  tail call void @_ZdlPv(ptr noundef nonnull %2) #15
  resume { ptr, i32 } %13
}

; Function Attrs: sspstrong uwtable
define dso_local noundef ptr @_ZNK17SubmodulesElement24getNextSubmodulesSiblingEv(ptr noundef nonnull align 8 dereferenceable(112) %0) unnamed_addr #0 align 2 {
  %2 = load ptr, ptr %0, align 8, !tbaa !5
  %3 = getelementptr inbounds ptr, ptr %2, i64 31
  %4 = load ptr, ptr %3, align 8
  %5 = tail call noundef ptr %4(ptr noundef nonnull align 8 dereferenceable(112) %0, i32 noundef 22)
  ret ptr %5
}

; Function Attrs: sspstrong uwtable
define dso_local noundef ptr @_ZNK17SubmodulesElement20getFirstCommentChildEv(ptr noundef nonnull align 8 dereferenceable(112) %0) unnamed_addr #0 align 2 {
  %2 = load ptr, ptr %0, align 8, !tbaa !5
  %3 = getelementptr inbounds ptr, ptr %2, i64 30
  %4 = load ptr, ptr %3, align 8
  %5 = tail call noundef ptr %4(ptr noundef nonnull align 8 dereferenceable(112) %0, i32 noundef 3)
  ret ptr %5
}

; Function Attrs: sspstrong uwtable
define dso_local noundef ptr @_ZNK17SubmodulesElement22getFirstSubmoduleChildEv(ptr noundef nonnull align 8 dereferenceable(112) %0) unnamed_addr #0 align 2 {
  %2 = load ptr, ptr %0, align 8, !tbaa !5
  %3 = getelementptr inbounds ptr, ptr %2, i64 30
  %4 = load ptr, ptr %3, align 8
  %5 = tail call noundef ptr %4(ptr noundef nonnull align 8 dereferenceable(112) %0, i32 noundef 23)
  ret ptr %5
}

; Function Attrs: sspstrong uwtable
define dso_local void @_ZN16SubmoduleElementC2Ev(ptr noundef nonnull align 8 dereferenceable(272) %0) unnamed_addr #0 align 2 personality ptr @__gxx_personality_v0 {
  tail call void @_ZN10NEDElementC2Ev(ptr noundef nonnull align 8 dereferenceable(112) %0)
  store ptr getelementptr inbounds ({ [43 x ptr] }, ptr @_ZTV16SubmoduleElement, i64 0, inrange i32 0, i64 2), ptr %0, align 8, !tbaa !5
  %2 = getelementptr inbounds %class.SubmoduleElement, ptr %0, i64 0, i32 1
  %3 = getelementptr inbounds %class.SubmoduleElement, ptr %0, i64 0, i32 1, i32 2
  store ptr %3, ptr %2, align 8, !tbaa !8
  %4 = getelementptr inbounds %class.SubmoduleElement, ptr %0, i64 0, i32 1, i32 1
  store i64 0, ptr %4, align 8, !tbaa !12
  store i8 0, ptr %3, align 8, !tbaa !15
  %5 = getelementptr inbounds %class.SubmoduleElement, ptr %0, i64 0, i32 2
  %6 = getelementptr inbounds %class.SubmoduleElement, ptr %0, i64 0, i32 2, i32 2
  store ptr %6, ptr %5, align 8, !tbaa !8
  %7 = getelementptr inbounds %class.SubmoduleElement, ptr %0, i64 0, i32 2, i32 1
  store i64 0, ptr %7, align 8, !tbaa !12
  store i8 0, ptr %6, align 8, !tbaa !15
  %8 = getelementptr inbounds %class.SubmoduleElement, ptr %0, i64 0, i32 3
  %9 = getelementptr inbounds %class.SubmoduleElement, ptr %0, i64 0, i32 3, i32 2
  store ptr %9, ptr %8, align 8, !tbaa !8
  %10 = getelementptr inbounds %class.SubmoduleElement, ptr %0, i64 0, i32 3, i32 1
  store i64 0, ptr %10, align 8, !tbaa !12
  store i8 0, ptr %9, align 8, !tbaa !15
  %11 = getelementptr inbounds %class.SubmoduleElement, ptr %0, i64 0, i32 4
  %12 = getelementptr inbounds %class.SubmoduleElement, ptr %0, i64 0, i32 4, i32 2
  store ptr %12, ptr %11, align 8, !tbaa !8
  %13 = getelementptr inbounds %class.SubmoduleElement, ptr %0, i64 0, i32 4, i32 1
  store i64 0, ptr %13, align 8, !tbaa !12
  store i8 0, ptr %12, align 8, !tbaa !15
  %14 = getelementptr inbounds %class.SubmoduleElement, ptr %0, i64 0, i32 5
  %15 = getelementptr inbounds %class.SubmoduleElement, ptr %0, i64 0, i32 5, i32 2
  store ptr %15, ptr %14, align 8, !tbaa !8
  %16 = getelementptr inbounds %class.SubmoduleElement, ptr %0, i64 0, i32 5, i32 1
  store i64 0, ptr %16, align 8, !tbaa !12
  store i8 0, ptr %15, align 8, !tbaa !15
  invoke void @_ZN10NEDElement13applyDefaultsEv(ptr noundef nonnull align 8 dereferenceable(112) %0)
          to label %17 unwind label %18

17:                                               ; preds = %1
  ret void

18:                                               ; preds = %1
  %19 = landingpad { ptr, i32 }
          cleanup
  %20 = load ptr, ptr %14, align 8, !tbaa !16
  %21 = icmp eq ptr %20, %15
  br i1 %21, label %22, label %25

22:                                               ; preds = %18
  %23 = load i64, ptr %16, align 8, !tbaa !12
  %24 = icmp ult i64 %23, 16
  tail call void @llvm.assume(i1 %24)
  br label %26

25:                                               ; preds = %18
  tail call void @_ZdlPv(ptr noundef %20) #15
  br label %26

26:                                               ; preds = %25, %22
  %27 = load ptr, ptr %11, align 8, !tbaa !16
  %28 = icmp eq ptr %27, %12
  br i1 %28, label %29, label %32

29:                                               ; preds = %26
  %30 = load i64, ptr %13, align 8, !tbaa !12
  %31 = icmp ult i64 %30, 16
  tail call void @llvm.assume(i1 %31)
  br label %33

32:                                               ; preds = %26
  tail call void @_ZdlPv(ptr noundef %27) #15
  br label %33

33:                                               ; preds = %32, %29
  %34 = load ptr, ptr %8, align 8, !tbaa !16
  %35 = icmp eq ptr %34, %9
  br i1 %35, label %36, label %39

36:                                               ; preds = %33
  %37 = load i64, ptr %10, align 8, !tbaa !12
  %38 = icmp ult i64 %37, 16
  tail call void @llvm.assume(i1 %38)
  br label %40

39:                                               ; preds = %33
  tail call void @_ZdlPv(ptr noundef %34) #15
  br label %40

40:                                               ; preds = %39, %36
  %41 = load ptr, ptr %5, align 8, !tbaa !16
  %42 = icmp eq ptr %41, %6
  br i1 %42, label %43, label %46

43:                                               ; preds = %40
  %44 = load i64, ptr %7, align 8, !tbaa !12
  %45 = icmp ult i64 %44, 16
  tail call void @llvm.assume(i1 %45)
  br label %47

46:                                               ; preds = %40
  tail call void @_ZdlPv(ptr noundef %41) #15
  br label %47

47:                                               ; preds = %46, %43
  %48 = load ptr, ptr %2, align 8, !tbaa !16
  %49 = icmp eq ptr %48, %3
  br i1 %49, label %50, label %53

50:                                               ; preds = %47
  %51 = load i64, ptr %4, align 8, !tbaa !12
  %52 = icmp ult i64 %51, 16
  tail call void @llvm.assume(i1 %52)
  br label %54

53:                                               ; preds = %47
  tail call void @_ZdlPv(ptr noundef %48) #15
  br label %54

54:                                               ; preds = %53, %50
  invoke void @_ZN10NEDElementD2Ev(ptr noundef nonnull align 8 dereferenceable(112) %0)
          to label %55 unwind label %56

55:                                               ; preds = %54
  resume { ptr, i32 } %19

56:                                               ; preds = %54
  %57 = landingpad { ptr, i32 }
          catch ptr null
  %58 = extractvalue { ptr, i32 } %57, 0
  tail call void @__clang_call_terminate(ptr %58) #12
  unreachable
}

; Function Attrs: sspstrong uwtable
define dso_local void @_ZN16SubmoduleElementC2EP10NEDElement(ptr noundef nonnull align 8 dereferenceable(272) %0, ptr noundef %1) unnamed_addr #0 align 2 personality ptr @__gxx_personality_v0 {
  tail call void @_ZN10NEDElementC2EPS_(ptr noundef nonnull align 8 dereferenceable(112) %0, ptr noundef %1)
  store ptr getelementptr inbounds ({ [43 x ptr] }, ptr @_ZTV16SubmoduleElement, i64 0, inrange i32 0, i64 2), ptr %0, align 8, !tbaa !5
  %3 = getelementptr inbounds %class.SubmoduleElement, ptr %0, i64 0, i32 1
  %4 = getelementptr inbounds %class.SubmoduleElement, ptr %0, i64 0, i32 1, i32 2
  store ptr %4, ptr %3, align 8, !tbaa !8
  %5 = getelementptr inbounds %class.SubmoduleElement, ptr %0, i64 0, i32 1, i32 1
  store i64 0, ptr %5, align 8, !tbaa !12
  store i8 0, ptr %4, align 8, !tbaa !15
  %6 = getelementptr inbounds %class.SubmoduleElement, ptr %0, i64 0, i32 2
  %7 = getelementptr inbounds %class.SubmoduleElement, ptr %0, i64 0, i32 2, i32 2
  store ptr %7, ptr %6, align 8, !tbaa !8
  %8 = getelementptr inbounds %class.SubmoduleElement, ptr %0, i64 0, i32 2, i32 1
  store i64 0, ptr %8, align 8, !tbaa !12
  store i8 0, ptr %7, align 8, !tbaa !15
  %9 = getelementptr inbounds %class.SubmoduleElement, ptr %0, i64 0, i32 3
  %10 = getelementptr inbounds %class.SubmoduleElement, ptr %0, i64 0, i32 3, i32 2
  store ptr %10, ptr %9, align 8, !tbaa !8
  %11 = getelementptr inbounds %class.SubmoduleElement, ptr %0, i64 0, i32 3, i32 1
  store i64 0, ptr %11, align 8, !tbaa !12
  store i8 0, ptr %10, align 8, !tbaa !15
  %12 = getelementptr inbounds %class.SubmoduleElement, ptr %0, i64 0, i32 4
  %13 = getelementptr inbounds %class.SubmoduleElement, ptr %0, i64 0, i32 4, i32 2
  store ptr %13, ptr %12, align 8, !tbaa !8
  %14 = getelementptr inbounds %class.SubmoduleElement, ptr %0, i64 0, i32 4, i32 1
  store i64 0, ptr %14, align 8, !tbaa !12
  store i8 0, ptr %13, align 8, !tbaa !15
  %15 = getelementptr inbounds %class.SubmoduleElement, ptr %0, i64 0, i32 5
  %16 = getelementptr inbounds %class.SubmoduleElement, ptr %0, i64 0, i32 5, i32 2
  store ptr %16, ptr %15, align 8, !tbaa !8
  %17 = getelementptr inbounds %class.SubmoduleElement, ptr %0, i64 0, i32 5, i32 1
  store i64 0, ptr %17, align 8, !tbaa !12
  store i8 0, ptr %16, align 8, !tbaa !15
  invoke void @_ZN10NEDElement13applyDefaultsEv(ptr noundef nonnull align 8 dereferenceable(112) %0)
          to label %18 unwind label %19

18:                                               ; preds = %2
  ret void

19:                                               ; preds = %2
  %20 = landingpad { ptr, i32 }
          cleanup
  %21 = load ptr, ptr %15, align 8, !tbaa !16
  %22 = icmp eq ptr %21, %16
  br i1 %22, label %23, label %26

23:                                               ; preds = %19
  %24 = load i64, ptr %17, align 8, !tbaa !12
  %25 = icmp ult i64 %24, 16
  tail call void @llvm.assume(i1 %25)
  br label %27

26:                                               ; preds = %19
  tail call void @_ZdlPv(ptr noundef %21) #15
  br label %27

27:                                               ; preds = %26, %23
  %28 = load ptr, ptr %12, align 8, !tbaa !16
  %29 = icmp eq ptr %28, %13
  br i1 %29, label %30, label %33

30:                                               ; preds = %27
  %31 = load i64, ptr %14, align 8, !tbaa !12
  %32 = icmp ult i64 %31, 16
  tail call void @llvm.assume(i1 %32)
  br label %34

33:                                               ; preds = %27
  tail call void @_ZdlPv(ptr noundef %28) #15
  br label %34

34:                                               ; preds = %33, %30
  %35 = load ptr, ptr %9, align 8, !tbaa !16
  %36 = icmp eq ptr %35, %10
  br i1 %36, label %37, label %40

37:                                               ; preds = %34
  %38 = load i64, ptr %11, align 8, !tbaa !12
  %39 = icmp ult i64 %38, 16
  tail call void @llvm.assume(i1 %39)
  br label %41

40:                                               ; preds = %34
  tail call void @_ZdlPv(ptr noundef %35) #15
  br label %41

41:                                               ; preds = %40, %37
  %42 = load ptr, ptr %6, align 8, !tbaa !16
  %43 = icmp eq ptr %42, %7
  br i1 %43, label %44, label %47

44:                                               ; preds = %41
  %45 = load i64, ptr %8, align 8, !tbaa !12
  %46 = icmp ult i64 %45, 16
  tail call void @llvm.assume(i1 %46)
  br label %48

47:                                               ; preds = %41
  tail call void @_ZdlPv(ptr noundef %42) #15
  br label %48

48:                                               ; preds = %47, %44
  %49 = load ptr, ptr %3, align 8, !tbaa !16
  %50 = icmp eq ptr %49, %4
  br i1 %50, label %51, label %54

51:                                               ; preds = %48
  %52 = load i64, ptr %5, align 8, !tbaa !12
  %53 = icmp ult i64 %52, 16
  tail call void @llvm.assume(i1 %53)
  br label %55

54:                                               ; preds = %48
  tail call void @_ZdlPv(ptr noundef %49) #15
  br label %55

55:                                               ; preds = %54, %51
  invoke void @_ZN10NEDElementD2Ev(ptr noundef nonnull align 8 dereferenceable(112) %0)
          to label %56 unwind label %57

56:                                               ; preds = %55
  resume { ptr, i32 } %20

57:                                               ; preds = %55
  %58 = landingpad { ptr, i32 }
          catch ptr null
  %59 = extractvalue { ptr, i32 } %58, 0
  tail call void @__clang_call_terminate(ptr %59) #12
  unreachable
}

; Function Attrs: mustprogress nofree norecurse nosync nounwind sspstrong willreturn memory(none) uwtable
define dso_local noundef i32 @_ZNK16SubmoduleElement16getNumAttributesEv(ptr nocapture nonnull readnone align 8 %0) unnamed_addr #3 align 2 {
  ret i32 5
}

; Function Attrs: mustprogress nofree norecurse nosync nounwind sspstrong willreturn memory(none) uwtable
define dso_local noundef ptr @_ZNK16SubmoduleElement16getAttributeNameEi(ptr nocapture nonnull readnone align 8 %0, i32 noundef %1) unnamed_addr #3 align 2 {
  %3 = icmp ult i32 %1, 5
  br i1 %3, label %4, label %8

4:                                                ; preds = %2
  %5 = sext i32 %1 to i64
  %6 = shl i64 %5, 2
  %7 = call ptr @llvm.load.relative.i64(ptr @reltable._ZNK16SubmoduleElement16getAttributeNameEi, i64 %6)
  br label %8

8:                                                ; preds = %2, %4
  %9 = phi ptr [ %7, %4 ], [ null, %2 ]
  ret ptr %9
}

; Function Attrs: mustprogress nofree norecurse nosync nounwind sspstrong willreturn memory(argmem: read) uwtable
define dso_local noundef ptr @_ZNK16SubmoduleElement12getAttributeEi(ptr nocapture noundef nonnull readonly align 8 dereferenceable(272) %0, i32 noundef %1) unnamed_addr #6 align 2 {
  switch i32 %1, label %18 [
    i32 0, label %3
    i32 1, label %6
    i32 2, label %9
    i32 3, label %12
    i32 4, label %15
  ]

3:                                                ; preds = %2
  %4 = getelementptr inbounds %class.SubmoduleElement, ptr %0, i64 0, i32 1
  %5 = load ptr, ptr %4, align 8, !tbaa !16
  br label %18

6:                                                ; preds = %2
  %7 = getelementptr inbounds %class.SubmoduleElement, ptr %0, i64 0, i32 2
  %8 = load ptr, ptr %7, align 8, !tbaa !16
  br label %18

9:                                                ; preds = %2
  %10 = getelementptr inbounds %class.SubmoduleElement, ptr %0, i64 0, i32 3
  %11 = load ptr, ptr %10, align 8, !tbaa !16
  br label %18

12:                                               ; preds = %2
  %13 = getelementptr inbounds %class.SubmoduleElement, ptr %0, i64 0, i32 4
  %14 = load ptr, ptr %13, align 8, !tbaa !16
  br label %18

15:                                               ; preds = %2
  %16 = getelementptr inbounds %class.SubmoduleElement, ptr %0, i64 0, i32 5
  %17 = load ptr, ptr %16, align 8, !tbaa !16
  br label %18

18:                                               ; preds = %2, %15, %12, %9, %6, %3
  %19 = phi ptr [ %17, %15 ], [ %14, %12 ], [ %11, %9 ], [ %8, %6 ], [ %5, %3 ], [ null, %2 ]
  ret ptr %19
}

; Function Attrs: sspstrong uwtable
define dso_local void @_ZN16SubmoduleElement12setAttributeEiPKc(ptr noundef nonnull align 8 dereferenceable(272) %0, i32 noundef %1, ptr noundef %2) unnamed_addr #0 align 2 {
  switch i32 %1, label %25 [
    i32 0, label %4
    i32 1, label %7
    i32 2, label %10
    i32 3, label %13
    i32 4, label %16
  ]

4:                                                ; preds = %3
  %5 = getelementptr inbounds %class.SubmoduleElement, ptr %0, i64 0, i32 1
  %6 = getelementptr inbounds %class.SubmoduleElement, ptr %0, i64 0, i32 1, i32 1
  br label %19

7:                                                ; preds = %3
  %8 = getelementptr inbounds %class.SubmoduleElement, ptr %0, i64 0, i32 2
  %9 = getelementptr inbounds %class.SubmoduleElement, ptr %0, i64 0, i32 2, i32 1
  br label %19

10:                                               ; preds = %3
  %11 = getelementptr inbounds %class.SubmoduleElement, ptr %0, i64 0, i32 3
  %12 = getelementptr inbounds %class.SubmoduleElement, ptr %0, i64 0, i32 3, i32 1
  br label %19

13:                                               ; preds = %3
  %14 = getelementptr inbounds %class.SubmoduleElement, ptr %0, i64 0, i32 4
  %15 = getelementptr inbounds %class.SubmoduleElement, ptr %0, i64 0, i32 4, i32 1
  br label %19

16:                                               ; preds = %3
  %17 = getelementptr inbounds %class.SubmoduleElement, ptr %0, i64 0, i32 5
  %18 = getelementptr inbounds %class.SubmoduleElement, ptr %0, i64 0, i32 5, i32 1
  br label %19

19:                                               ; preds = %4, %7, %10, %13, %16
  %20 = phi ptr [ %18, %16 ], [ %15, %13 ], [ %12, %10 ], [ %9, %7 ], [ %6, %4 ]
  %21 = phi ptr [ %17, %16 ], [ %14, %13 ], [ %11, %10 ], [ %8, %7 ], [ %5, %4 ]
  %22 = load i64, ptr %20, align 8, !tbaa !12
  %23 = tail call i64 @strlen(ptr noundef nonnull dereferenceable(1) %2) #13
  %24 = tail call noundef nonnull align 8 dereferenceable(32) ptr @_ZNSt7__cxx1112basic_stringIcSt11char_traitsIcESaIcEE10_M_replaceEmmPKcm(ptr noundef nonnull align 8 dereferenceable(32) %21, i64 noundef 0, i64 noundef %22, ptr noundef %2, i64 noundef %23)
  br label %25

25:                                               ; preds = %19, %3
  ret void
}

; Function Attrs: mustprogress nofree norecurse nosync nounwind sspstrong willreturn memory(none) uwtable
define dso_local noundef ptr @_ZNK16SubmoduleElement19getAttributeDefaultEi(ptr nocapture nonnull readnone align 8 %0, i32 noundef %1) unnamed_addr #3 align 2 {
  %3 = add i32 %1, -1
  %4 = icmp ult i32 %3, 4
  %5 = select i1 %4, ptr @.str.5, ptr null
  ret ptr %5
}

; Function Attrs: sspstrong uwtable
define dso_local noundef nonnull ptr @_ZNK16SubmoduleElement3dupEv(ptr noundef nonnull align 8 dereferenceable(272) %0) unnamed_addr #0 align 2 personality ptr @__gxx_personality_v0 {
  %2 = tail call noalias noundef nonnull dereferenceable(272) ptr @_Znwm(i64 noundef 272) #14
  invoke void @_ZN16SubmoduleElementC2Ev(ptr noundef nonnull align 8 dereferenceable(272) %2)
          to label %3 unwind label %14

3:                                                ; preds = %1
  %4 = getelementptr inbounds %class.SubmoduleElement, ptr %0, i64 0, i32 1
  %5 = getelementptr inbounds %class.SubmoduleElement, ptr %2, i64 0, i32 1
  tail call void @_ZNSt7__cxx1112basic_stringIcSt11char_traitsIcESaIcEE9_M_assignERKS4_(ptr noundef nonnull align 8 dereferenceable(32) %5, ptr noundef nonnull align 8 dereferenceable(32) %4)
  %6 = getelementptr inbounds %class.SubmoduleElement, ptr %0, i64 0, i32 2
  %7 = getelementptr inbounds %class.SubmoduleElement, ptr %2, i64 0, i32 2
  tail call void @_ZNSt7__cxx1112basic_stringIcSt11char_traitsIcESaIcEE9_M_assignERKS4_(ptr noundef nonnull align 8 dereferenceable(32) %7, ptr noundef nonnull align 8 dereferenceable(32) %6)
  %8 = getelementptr inbounds %class.SubmoduleElement, ptr %0, i64 0, i32 3
  %9 = getelementptr inbounds %class.SubmoduleElement, ptr %2, i64 0, i32 3
  tail call void @_ZNSt7__cxx1112basic_stringIcSt11char_traitsIcESaIcEE9_M_assignERKS4_(ptr noundef nonnull align 8 dereferenceable(32) %9, ptr noundef nonnull align 8 dereferenceable(32) %8)
  %10 = getelementptr inbounds %class.SubmoduleElement, ptr %0, i64 0, i32 4
  %11 = getelementptr inbounds %class.SubmoduleElement, ptr %2, i64 0, i32 4
  tail call void @_ZNSt7__cxx1112basic_stringIcSt11char_traitsIcESaIcEE9_M_assignERKS4_(ptr noundef nonnull align 8 dereferenceable(32) %11, ptr noundef nonnull align 8 dereferenceable(32) %10)
  %12 = getelementptr inbounds %class.SubmoduleElement, ptr %0, i64 0, i32 5
  %13 = getelementptr inbounds %class.SubmoduleElement, ptr %2, i64 0, i32 5
  tail call void @_ZNSt7__cxx1112basic_stringIcSt11char_traitsIcESaIcEE9_M_assignERKS4_(ptr noundef nonnull align 8 dereferenceable(32) %13, ptr noundef nonnull align 8 dereferenceable(32) %12)
  ret ptr %2

14:                                               ; preds = %1
  %15 = landingpad { ptr, i32 }
          cleanup
  tail call void @_ZdlPv(ptr noundef nonnull %2) #15
  resume { ptr, i32 } %15
}

; Function Attrs: sspstrong uwtable
define dso_local noundef ptr @_ZNK16SubmoduleElement23getNextSubmoduleSiblingEv(ptr noundef nonnull align 8 dereferenceable(272) %0) unnamed_addr #0 align 2 {
  %2 = load ptr, ptr %0, align 8, !tbaa !5
  %3 = getelementptr inbounds ptr, ptr %2, i64 31
  %4 = load ptr, ptr %3, align 8
  %5 = tail call noundef ptr %4(ptr noundef nonnull align 8 dereferenceable(112) %0, i32 noundef 23)
  ret ptr %5
}

; Function Attrs: sspstrong uwtable
define dso_local noundef ptr @_ZNK16SubmoduleElement20getFirstCommentChildEv(ptr noundef nonnull align 8 dereferenceable(272) %0) unnamed_addr #0 align 2 {
  %2 = load ptr, ptr %0, align 8, !tbaa !5
  %3 = getelementptr inbounds ptr, ptr %2, i64 30
  %4 = load ptr, ptr %3, align 8
  %5 = tail call noundef ptr %4(ptr noundef nonnull align 8 dereferenceable(112) %0, i32 noundef 3)
  ret ptr %5
}

; Function Attrs: sspstrong uwtable
define dso_local noundef ptr @_ZNK16SubmoduleElement23getFirstExpressionChildEv(ptr noundef nonnull align 8 dereferenceable(272) %0) unnamed_addr #0 align 2 {
  %2 = load ptr, ptr %0, align 8, !tbaa !5
  %3 = getelementptr inbounds ptr, ptr %2, i64 30
  %4 = load ptr, ptr %3, align 8
  %5 = tail call noundef ptr %4(ptr noundef nonnull align 8 dereferenceable(112) %0, i32 noundef 30)
  ret ptr %5
}

; Function Attrs: sspstrong uwtable
define dso_local noundef ptr @_ZNK16SubmoduleElement23getFirstParametersChildEv(ptr noundef nonnull align 8 dereferenceable(272) %0) unnamed_addr #0 align 2 {
  %2 = load ptr, ptr %0, align 8, !tbaa !5
  %3 = getelementptr inbounds ptr, ptr %2, i64 30
  %4 = load ptr, ptr %3, align 8
  %5 = tail call noundef ptr %4(ptr noundef nonnull align 8 dereferenceable(112) %0, i32 noundef 14)
  ret ptr %5
}

; Function Attrs: sspstrong uwtable
define dso_local noundef ptr @_ZNK16SubmoduleElement18getFirstGatesChildEv(ptr noundef nonnull align 8 dereferenceable(272) %0) unnamed_addr #0 align 2 {
  %2 = load ptr, ptr %0, align 8, !tbaa !5
  %3 = getelementptr inbounds ptr, ptr %2, i64 30
  %4 = load ptr, ptr %3, align 8
  %5 = tail call noundef ptr %4(ptr noundef nonnull align 8 dereferenceable(112) %0, i32 noundef 19)
  ret ptr %5
}

; Function Attrs: sspstrong uwtable
define dso_local void @_ZN18ConnectionsElementC2Ev(ptr noundef nonnull align 8 dereferenceable(113) %0) unnamed_addr #0 align 2 personality ptr @__gxx_personality_v0 {
  tail call void @_ZN10NEDElementC2Ev(ptr noundef nonnull align 8 dereferenceable(112) %0)
  store ptr getelementptr inbounds ({ [42 x ptr] }, ptr @_ZTV18ConnectionsElement, i64 0, inrange i32 0, i64 2), ptr %0, align 8, !tbaa !5
  %2 = getelementptr inbounds %class.ConnectionsElement, ptr %0, i64 0, i32 1
  store i8 0, ptr %2, align 8, !tbaa !38
  invoke void @_ZN10NEDElement13applyDefaultsEv(ptr noundef nonnull align 8 dereferenceable(112) %0)
          to label %3 unwind label %4

3:                                                ; preds = %1
  ret void

4:                                                ; preds = %1
  %5 = landingpad { ptr, i32 }
          cleanup
  invoke void @_ZN10NEDElementD2Ev(ptr noundef nonnull align 8 dereferenceable(112) %0)
          to label %6 unwind label %7

6:                                                ; preds = %4
  resume { ptr, i32 } %5

7:                                                ; preds = %4
  %8 = landingpad { ptr, i32 }
          catch ptr null
  %9 = extractvalue { ptr, i32 } %8, 0
  tail call void @__clang_call_terminate(ptr %9) #12
  unreachable
}

; Function Attrs: sspstrong uwtable
define dso_local void @_ZN18ConnectionsElementC2EP10NEDElement(ptr noundef nonnull align 8 dereferenceable(113) %0, ptr noundef %1) unnamed_addr #0 align 2 personality ptr @__gxx_personality_v0 {
  tail call void @_ZN10NEDElementC2EPS_(ptr noundef nonnull align 8 dereferenceable(112) %0, ptr noundef %1)
  store ptr getelementptr inbounds ({ [42 x ptr] }, ptr @_ZTV18ConnectionsElement, i64 0, inrange i32 0, i64 2), ptr %0, align 8, !tbaa !5
  %3 = getelementptr inbounds %class.ConnectionsElement, ptr %0, i64 0, i32 1
  store i8 0, ptr %3, align 8, !tbaa !38
  invoke void @_ZN10NEDElement13applyDefaultsEv(ptr noundef nonnull align 8 dereferenceable(112) %0)
          to label %4 unwind label %5

4:                                                ; preds = %2
  ret void

5:                                                ; preds = %2
  %6 = landingpad { ptr, i32 }
          cleanup
  invoke void @_ZN10NEDElementD2Ev(ptr noundef nonnull align 8 dereferenceable(112) %0)
          to label %7 unwind label %8

7:                                                ; preds = %5
  resume { ptr, i32 } %6

8:                                                ; preds = %5
  %9 = landingpad { ptr, i32 }
          catch ptr null
  %10 = extractvalue { ptr, i32 } %9, 0
  tail call void @__clang_call_terminate(ptr %10) #12
  unreachable
}

; Function Attrs: mustprogress nofree norecurse nosync nounwind sspstrong willreturn memory(none) uwtable
define dso_local noundef i32 @_ZNK18ConnectionsElement16getNumAttributesEv(ptr nocapture nonnull readnone align 8 %0) unnamed_addr #3 align 2 {
  ret i32 1
}

; Function Attrs: mustprogress nofree norecurse nosync nounwind sspstrong willreturn memory(none) uwtable
define dso_local noundef ptr @_ZNK18ConnectionsElement16getAttributeNameEi(ptr nocapture nonnull readnone align 8 %0, i32 noundef %1) unnamed_addr #3 align 2 {
  %3 = icmp eq i32 %1, 0
  %4 = select i1 %3, ptr @.str.21, ptr null
  ret ptr %4
}

; Function Attrs: sspstrong uwtable
define dso_local noundef ptr @_ZNK18ConnectionsElement12getAttributeEi(ptr nocapture noundef nonnull readonly align 8 dereferenceable(113) %0, i32 noundef %1) unnamed_addr #0 align 2 {
  %3 = icmp eq i32 %1, 0
  br i1 %3, label %4, label %9

4:                                                ; preds = %2
  %5 = getelementptr inbounds %class.ConnectionsElement, ptr %0, i64 0, i32 1
  %6 = load i8, ptr %5, align 8, !tbaa !38, !range !23, !noundef !24
  %7 = icmp ne i8 %6, 0
  %8 = tail call noundef ptr @_ZN10NEDElement12boolToStringEb(i1 noundef zeroext %7)
  br label %9

9:                                                ; preds = %2, %4
  %10 = phi ptr [ %8, %4 ], [ null, %2 ]
  ret ptr %10
}

; Function Attrs: sspstrong uwtable
define dso_local void @_ZN18ConnectionsElement12setAttributeEiPKc(ptr nocapture noundef nonnull writeonly align 8 dereferenceable(113) %0, i32 noundef %1, ptr noundef %2) unnamed_addr #0 align 2 {
  %4 = icmp eq i32 %1, 0
  br i1 %4, label %5, label %9

5:                                                ; preds = %3
  %6 = tail call noundef zeroext i1 @_ZN10NEDElement12stringToBoolEPKc(ptr noundef %2)
  %7 = getelementptr inbounds %class.ConnectionsElement, ptr %0, i64 0, i32 1
  %8 = zext i1 %6 to i8
  store i8 %8, ptr %7, align 8, !tbaa !38
  br label %9

9:                                                ; preds = %3, %5
  ret void
}

; Function Attrs: mustprogress nofree norecurse nosync nounwind sspstrong willreturn memory(none) uwtable
define dso_local noundef ptr @_ZNK18ConnectionsElement19getAttributeDefaultEi(ptr nocapture nonnull readnone align 8 %0, i32 noundef %1) unnamed_addr #3 align 2 {
  %3 = icmp eq i32 %1, 0
  %4 = select i1 %3, ptr @.str.9, ptr null
  ret ptr %4
}

; Function Attrs: sspstrong uwtable
define dso_local noundef nonnull ptr @_ZNK18ConnectionsElement3dupEv(ptr nocapture noundef nonnull readonly align 8 dereferenceable(113) %0) unnamed_addr #0 align 2 personality ptr @__gxx_personality_v0 {
  %2 = tail call noalias noundef nonnull dereferenceable(120) ptr @_Znwm(i64 noundef 120) #14
  invoke void @_ZN10NEDElementC2Ev(ptr noundef nonnull align 8 dereferenceable(112) %2)
          to label %3 unwind label %13

3:                                                ; preds = %1
  store ptr getelementptr inbounds ({ [42 x ptr] }, ptr @_ZTV18ConnectionsElement, i64 0, inrange i32 0, i64 2), ptr %2, align 8, !tbaa !5
  %4 = getelementptr inbounds %class.ConnectionsElement, ptr %2, i64 0, i32 1
  store i8 0, ptr %4, align 8, !tbaa !38
  invoke void @_ZN10NEDElement13applyDefaultsEv(ptr noundef nonnull align 8 dereferenceable(112) %2)
          to label %10 unwind label %5

5:                                                ; preds = %3
  %6 = landingpad { ptr, i32 }
          cleanup
  invoke void @_ZN10NEDElementD2Ev(ptr noundef nonnull align 8 dereferenceable(112) %2)
          to label %15 unwind label %7

7:                                                ; preds = %5
  %8 = landingpad { ptr, i32 }
          catch ptr null
  %9 = extractvalue { ptr, i32 } %8, 0
  tail call void @__clang_call_terminate(ptr %9) #12
  unreachable

10:                                               ; preds = %3
  %11 = getelementptr inbounds %class.ConnectionsElement, ptr %0, i64 0, i32 1
  %12 = load i8, ptr %11, align 8, !tbaa !38, !range !23, !noundef !24
  store i8 %12, ptr %4, align 8, !tbaa !38
  ret ptr %2

13:                                               ; preds = %1
  %14 = landingpad { ptr, i32 }
          cleanup
  br label %15

15:                                               ; preds = %5, %13
  %16 = phi { ptr, i32 } [ %14, %13 ], [ %6, %5 ]
  tail call void @_ZdlPv(ptr noundef nonnull %2) #15
  resume { ptr, i32 } %16
}

; Function Attrs: sspstrong uwtable
define dso_local noundef ptr @_ZNK18ConnectionsElement25getNextConnectionsSiblingEv(ptr noundef nonnull align 8 dereferenceable(113) %0) unnamed_addr #0 align 2 {
  %2 = load ptr, ptr %0, align 8, !tbaa !5
  %3 = getelementptr inbounds ptr, ptr %2, i64 31
  %4 = load ptr, ptr %3, align 8
  %5 = tail call noundef ptr %4(ptr noundef nonnull align 8 dereferenceable(112) %0, i32 noundef 24)
  ret ptr %5
}

; Function Attrs: sspstrong uwtable
define dso_local noundef ptr @_ZNK18ConnectionsElement20getFirstCommentChildEv(ptr noundef nonnull align 8 dereferenceable(113) %0) unnamed_addr #0 align 2 {
  %2 = load ptr, ptr %0, align 8, !tbaa !5
  %3 = getelementptr inbounds ptr, ptr %2, i64 30
  %4 = load ptr, ptr %3, align 8
  %5 = tail call noundef ptr %4(ptr noundef nonnull align 8 dereferenceable(112) %0, i32 noundef 3)
  ret ptr %5
}

; Function Attrs: sspstrong uwtable
define dso_local noundef ptr @_ZNK18ConnectionsElement23getFirstConnectionChildEv(ptr noundef nonnull align 8 dereferenceable(113) %0) unnamed_addr #0 align 2 {
  %2 = load ptr, ptr %0, align 8, !tbaa !5
  %3 = getelementptr inbounds ptr, ptr %2, i64 30
  %4 = load ptr, ptr %3, align 8
  %5 = tail call noundef ptr %4(ptr noundef nonnull align 8 dereferenceable(112) %0, i32 noundef 25)
  ret ptr %5
}

; Function Attrs: sspstrong uwtable
define dso_local noundef ptr @_ZNK18ConnectionsElement28getFirstConnectionGroupChildEv(ptr noundef nonnull align 8 dereferenceable(113) %0) unnamed_addr #0 align 2 {
  %2 = load ptr, ptr %0, align 8, !tbaa !5
  %3 = getelementptr inbounds ptr, ptr %2, i64 30
  %4 = load ptr, ptr %3, align 8
  %5 = tail call noundef ptr %4(ptr noundef nonnull align 8 dereferenceable(112) %0, i32 noundef 27)
  ret ptr %5
}

; Function Attrs: sspstrong uwtable
define dso_local void @_ZN17ConnectionElement14setSrcGateSubgEi(ptr nocapture noundef nonnull writeonly align 8 dereferenceable(400) %0, i32 noundef %1) local_unnamed_addr #0 align 2 {
  tail call void @_ZN10NEDElement12validateEnumEiPPKcPii(i32 noundef %1, ptr noundef nonnull @_ZL12subgate_vals, ptr noundef nonnull @_ZL12subgate_nums, i32 noundef 3)
  %3 = getelementptr inbounds %class.ConnectionElement, ptr %0, i64 0, i32 6
  store i32 %1, ptr %3, align 8, !tbaa !40
  ret void
}

; Function Attrs: sspstrong uwtable
define dso_local void @_ZN17ConnectionElement15setDestGateSubgEi(ptr nocapture noundef nonnull writeonly align 8 dereferenceable(400) %0, i32 noundef %1) local_unnamed_addr #0 align 2 {
  tail call void @_ZN10NEDElement12validateEnumEiPPKcPii(i32 noundef %1, ptr noundef nonnull @_ZL12subgate_vals, ptr noundef nonnull @_ZL12subgate_nums, i32 noundef 3)
  %3 = getelementptr inbounds %class.ConnectionElement, ptr %0, i64 0, i32 12
  store i32 %1, ptr %3, align 8, !tbaa !42
  ret void
}

; Function Attrs: sspstrong uwtable
define dso_local void @_ZN17ConnectionElement17setArrowDirectionEi(ptr nocapture noundef nonnull writeonly align 8 dereferenceable(400) %0, i32 noundef %1) local_unnamed_addr #0 align 2 {
  tail call void @_ZN10NEDElement12validateEnumEiPPKcPii(i32 noundef %1, ptr noundef nonnull @_ZL13arrowdir_vals, ptr noundef nonnull @_ZL13arrowdir_nums, i32 noundef 3)
  %3 = getelementptr inbounds %class.ConnectionElement, ptr %0, i64 0, i32 13
  store i32 %1, ptr %3, align 4, !tbaa !43
  ret void
}

; Function Attrs: sspstrong uwtable
define dso_local void @_ZN17ConnectionElementC2Ev(ptr noundef nonnull align 8 dereferenceable(400) %0) unnamed_addr #0 align 2 personality ptr @__gxx_personality_v0 {
  tail call void @_ZN10NEDElementC2Ev(ptr noundef nonnull align 8 dereferenceable(112) %0)
  store ptr getelementptr inbounds ({ [44 x ptr] }, ptr @_ZTV17ConnectionElement, i64 0, inrange i32 0, i64 2), ptr %0, align 8, !tbaa !5
  %2 = getelementptr inbounds %class.ConnectionElement, ptr %0, i64 0, i32 1
  %3 = getelementptr inbounds %class.ConnectionElement, ptr %0, i64 0, i32 1, i32 2
  store ptr %3, ptr %2, align 8, !tbaa !8
  %4 = getelementptr inbounds %class.ConnectionElement, ptr %0, i64 0, i32 1, i32 1
  store i64 0, ptr %4, align 8, !tbaa !12
  store i8 0, ptr %3, align 8, !tbaa !15
  %5 = getelementptr inbounds %class.ConnectionElement, ptr %0, i64 0, i32 2
  %6 = getelementptr inbounds %class.ConnectionElement, ptr %0, i64 0, i32 2, i32 2
  store ptr %6, ptr %5, align 8, !tbaa !8
  %7 = getelementptr inbounds %class.ConnectionElement, ptr %0, i64 0, i32 2, i32 1
  store i64 0, ptr %7, align 8, !tbaa !12
  store i8 0, ptr %6, align 8, !tbaa !15
  %8 = getelementptr inbounds %class.ConnectionElement, ptr %0, i64 0, i32 3
  %9 = getelementptr inbounds %class.ConnectionElement, ptr %0, i64 0, i32 3, i32 2
  store ptr %9, ptr %8, align 8, !tbaa !8
  %10 = getelementptr inbounds %class.ConnectionElement, ptr %0, i64 0, i32 3, i32 1
  store i64 0, ptr %10, align 8, !tbaa !12
  store i8 0, ptr %9, align 8, !tbaa !15
  %11 = getelementptr inbounds %class.ConnectionElement, ptr %0, i64 0, i32 5
  %12 = getelementptr inbounds %class.ConnectionElement, ptr %0, i64 0, i32 5, i32 2
  store ptr %12, ptr %11, align 8, !tbaa !8
  %13 = getelementptr inbounds %class.ConnectionElement, ptr %0, i64 0, i32 5, i32 1
  store i64 0, ptr %13, align 8, !tbaa !12
  store i8 0, ptr %12, align 8, !tbaa !15
  %14 = getelementptr inbounds %class.ConnectionElement, ptr %0, i64 0, i32 7
  %15 = getelementptr inbounds %class.ConnectionElement, ptr %0, i64 0, i32 7, i32 2
  store ptr %15, ptr %14, align 8, !tbaa !8
  %16 = getelementptr inbounds %class.ConnectionElement, ptr %0, i64 0, i32 7, i32 1
  store i64 0, ptr %16, align 8, !tbaa !12
  store i8 0, ptr %15, align 8, !tbaa !15
  %17 = getelementptr inbounds %class.ConnectionElement, ptr %0, i64 0, i32 8
  %18 = getelementptr inbounds %class.ConnectionElement, ptr %0, i64 0, i32 8, i32 2
  store ptr %18, ptr %17, align 8, !tbaa !8
  %19 = getelementptr inbounds %class.ConnectionElement, ptr %0, i64 0, i32 8, i32 1
  store i64 0, ptr %19, align 8, !tbaa !12
  store i8 0, ptr %18, align 8, !tbaa !15
  %20 = getelementptr inbounds %class.ConnectionElement, ptr %0, i64 0, i32 9
  %21 = getelementptr inbounds %class.ConnectionElement, ptr %0, i64 0, i32 9, i32 2
  store ptr %21, ptr %20, align 8, !tbaa !8
  %22 = getelementptr inbounds %class.ConnectionElement, ptr %0, i64 0, i32 9, i32 1
  store i64 0, ptr %22, align 8, !tbaa !12
  store i8 0, ptr %21, align 8, !tbaa !15
  %23 = getelementptr inbounds %class.ConnectionElement, ptr %0, i64 0, i32 11
  %24 = getelementptr inbounds %class.ConnectionElement, ptr %0, i64 0, i32 11, i32 2
  store ptr %24, ptr %23, align 8, !tbaa !8
  %25 = getelementptr inbounds %class.ConnectionElement, ptr %0, i64 0, i32 11, i32 1
  store i64 0, ptr %25, align 8, !tbaa !12
  store i8 0, ptr %24, align 8, !tbaa !15
  %26 = getelementptr inbounds %class.ConnectionElement, ptr %0, i64 0, i32 4
  store i8 0, ptr %26, align 8, !tbaa !44
  %27 = getelementptr inbounds %class.ConnectionElement, ptr %0, i64 0, i32 6
  store i32 0, ptr %27, align 8, !tbaa !40
  %28 = getelementptr inbounds %class.ConnectionElement, ptr %0, i64 0, i32 10
  store i8 0, ptr %28, align 8, !tbaa !45
  %29 = getelementptr inbounds %class.ConnectionElement, ptr %0, i64 0, i32 12
  store i32 0, ptr %29, align 8, !tbaa !42
  %30 = getelementptr inbounds %class.ConnectionElement, ptr %0, i64 0, i32 13
  store i32 0, ptr %30, align 4, !tbaa !43
  invoke void @_ZN10NEDElement13applyDefaultsEv(ptr noundef nonnull align 8 dereferenceable(112) %0)
          to label %31 unwind label %32

31:                                               ; preds = %1
  ret void

32:                                               ; preds = %1
  %33 = landingpad { ptr, i32 }
          cleanup
  %34 = load ptr, ptr %23, align 8, !tbaa !16
  %35 = icmp eq ptr %34, %24
  br i1 %35, label %36, label %39

36:                                               ; preds = %32
  %37 = load i64, ptr %25, align 8, !tbaa !12
  %38 = icmp ult i64 %37, 16
  tail call void @llvm.assume(i1 %38)
  br label %40

39:                                               ; preds = %32
  tail call void @_ZdlPv(ptr noundef %34) #15
  br label %40

40:                                               ; preds = %39, %36
  %41 = load ptr, ptr %20, align 8, !tbaa !16
  %42 = icmp eq ptr %41, %21
  br i1 %42, label %43, label %46

43:                                               ; preds = %40
  %44 = load i64, ptr %22, align 8, !tbaa !12
  %45 = icmp ult i64 %44, 16
  tail call void @llvm.assume(i1 %45)
  br label %47

46:                                               ; preds = %40
  tail call void @_ZdlPv(ptr noundef %41) #15
  br label %47

47:                                               ; preds = %46, %43
  %48 = load ptr, ptr %17, align 8, !tbaa !16
  %49 = icmp eq ptr %48, %18
  br i1 %49, label %50, label %53

50:                                               ; preds = %47
  %51 = load i64, ptr %19, align 8, !tbaa !12
  %52 = icmp ult i64 %51, 16
  tail call void @llvm.assume(i1 %52)
  br label %54

53:                                               ; preds = %47
  tail call void @_ZdlPv(ptr noundef %48) #15
  br label %54

54:                                               ; preds = %53, %50
  %55 = load ptr, ptr %14, align 8, !tbaa !16
  %56 = icmp eq ptr %55, %15
  br i1 %56, label %57, label %60

57:                                               ; preds = %54
  %58 = load i64, ptr %16, align 8, !tbaa !12
  %59 = icmp ult i64 %58, 16
  tail call void @llvm.assume(i1 %59)
  br label %61

60:                                               ; preds = %54
  tail call void @_ZdlPv(ptr noundef %55) #15
  br label %61

61:                                               ; preds = %60, %57
  %62 = load ptr, ptr %11, align 8, !tbaa !16
  %63 = icmp eq ptr %62, %12
  br i1 %63, label %64, label %67

64:                                               ; preds = %61
  %65 = load i64, ptr %13, align 8, !tbaa !12
  %66 = icmp ult i64 %65, 16
  tail call void @llvm.assume(i1 %66)
  br label %68

67:                                               ; preds = %61
  tail call void @_ZdlPv(ptr noundef %62) #15
  br label %68

68:                                               ; preds = %67, %64
  %69 = load ptr, ptr %8, align 8, !tbaa !16
  %70 = icmp eq ptr %69, %9
  br i1 %70, label %71, label %74

71:                                               ; preds = %68
  %72 = load i64, ptr %10, align 8, !tbaa !12
  %73 = icmp ult i64 %72, 16
  tail call void @llvm.assume(i1 %73)
  br label %75

74:                                               ; preds = %68
  tail call void @_ZdlPv(ptr noundef %69) #15
  br label %75

75:                                               ; preds = %74, %71
  %76 = load ptr, ptr %5, align 8, !tbaa !16
  %77 = icmp eq ptr %76, %6
  br i1 %77, label %78, label %81

78:                                               ; preds = %75
  %79 = load i64, ptr %7, align 8, !tbaa !12
  %80 = icmp ult i64 %79, 16
  tail call void @llvm.assume(i1 %80)
  br label %82

81:                                               ; preds = %75
  tail call void @_ZdlPv(ptr noundef %76) #15
  br label %82

82:                                               ; preds = %81, %78
  %83 = load ptr, ptr %2, align 8, !tbaa !16
  %84 = icmp eq ptr %83, %3
  br i1 %84, label %85, label %88

85:                                               ; preds = %82
  %86 = load i64, ptr %4, align 8, !tbaa !12
  %87 = icmp ult i64 %86, 16
  tail call void @llvm.assume(i1 %87)
  br label %89

88:                                               ; preds = %82
  tail call void @_ZdlPv(ptr noundef %83) #15
  br label %89

89:                                               ; preds = %88, %85
  invoke void @_ZN10NEDElementD2Ev(ptr noundef nonnull align 8 dereferenceable(112) %0)
          to label %90 unwind label %91

90:                                               ; preds = %89
  resume { ptr, i32 } %33

91:                                               ; preds = %89
  %92 = landingpad { ptr, i32 }
          catch ptr null
  %93 = extractvalue { ptr, i32 } %92, 0
  tail call void @__clang_call_terminate(ptr %93) #12
  unreachable
}

; Function Attrs: sspstrong uwtable
define dso_local void @_ZN17ConnectionElementC2EP10NEDElement(ptr noundef nonnull align 8 dereferenceable(400) %0, ptr noundef %1) unnamed_addr #0 align 2 personality ptr @__gxx_personality_v0 {
  tail call void @_ZN10NEDElementC2EPS_(ptr noundef nonnull align 8 dereferenceable(112) %0, ptr noundef %1)
  store ptr getelementptr inbounds ({ [44 x ptr] }, ptr @_ZTV17ConnectionElement, i64 0, inrange i32 0, i64 2), ptr %0, align 8, !tbaa !5
  %3 = getelementptr inbounds %class.ConnectionElement, ptr %0, i64 0, i32 1
  %4 = getelementptr inbounds %class.ConnectionElement, ptr %0, i64 0, i32 1, i32 2
  store ptr %4, ptr %3, align 8, !tbaa !8
  %5 = getelementptr inbounds %class.ConnectionElement, ptr %0, i64 0, i32 1, i32 1
  store i64 0, ptr %5, align 8, !tbaa !12
  store i8 0, ptr %4, align 8, !tbaa !15
  %6 = getelementptr inbounds %class.ConnectionElement, ptr %0, i64 0, i32 2
  %7 = getelementptr inbounds %class.ConnectionElement, ptr %0, i64 0, i32 2, i32 2
  store ptr %7, ptr %6, align 8, !tbaa !8
  %8 = getelementptr inbounds %class.ConnectionElement, ptr %0, i64 0, i32 2, i32 1
  store i64 0, ptr %8, align 8, !tbaa !12
  store i8 0, ptr %7, align 8, !tbaa !15
  %9 = getelementptr inbounds %class.ConnectionElement, ptr %0, i64 0, i32 3
  %10 = getelementptr inbounds %class.ConnectionElement, ptr %0, i64 0, i32 3, i32 2
  store ptr %10, ptr %9, align 8, !tbaa !8
  %11 = getelementptr inbounds %class.ConnectionElement, ptr %0, i64 0, i32 3, i32 1
  store i64 0, ptr %11, align 8, !tbaa !12
  store i8 0, ptr %10, align 8, !tbaa !15
  %12 = getelementptr inbounds %class.ConnectionElement, ptr %0, i64 0, i32 5
  %13 = getelementptr inbounds %class.ConnectionElement, ptr %0, i64 0, i32 5, i32 2
  store ptr %13, ptr %12, align 8, !tbaa !8
  %14 = getelementptr inbounds %class.ConnectionElement, ptr %0, i64 0, i32 5, i32 1
  store i64 0, ptr %14, align 8, !tbaa !12
  store i8 0, ptr %13, align 8, !tbaa !15
  %15 = getelementptr inbounds %class.ConnectionElement, ptr %0, i64 0, i32 7
  %16 = getelementptr inbounds %class.ConnectionElement, ptr %0, i64 0, i32 7, i32 2
  store ptr %16, ptr %15, align 8, !tbaa !8
  %17 = getelementptr inbounds %class.ConnectionElement, ptr %0, i64 0, i32 7, i32 1
  store i64 0, ptr %17, align 8, !tbaa !12
  store i8 0, ptr %16, align 8, !tbaa !15
  %18 = getelementptr inbounds %class.ConnectionElement, ptr %0, i64 0, i32 8
  %19 = getelementptr inbounds %class.ConnectionElement, ptr %0, i64 0, i32 8, i32 2
  store ptr %19, ptr %18, align 8, !tbaa !8
  %20 = getelementptr inbounds %class.ConnectionElement, ptr %0, i64 0, i32 8, i32 1
  store i64 0, ptr %20, align 8, !tbaa !12
  store i8 0, ptr %19, align 8, !tbaa !15
  %21 = getelementptr inbounds %class.ConnectionElement, ptr %0, i64 0, i32 9
  %22 = getelementptr inbounds %class.ConnectionElement, ptr %0, i64 0, i32 9, i32 2
  store ptr %22, ptr %21, align 8, !tbaa !8
  %23 = getelementptr inbounds %class.ConnectionElement, ptr %0, i64 0, i32 9, i32 1
  store i64 0, ptr %23, align 8, !tbaa !12
  store i8 0, ptr %22, align 8, !tbaa !15
  %24 = getelementptr inbounds %class.ConnectionElement, ptr %0, i64 0, i32 11
  %25 = getelementptr inbounds %class.ConnectionElement, ptr %0, i64 0, i32 11, i32 2
  store ptr %25, ptr %24, align 8, !tbaa !8
  %26 = getelementptr inbounds %class.ConnectionElement, ptr %0, i64 0, i32 11, i32 1
  store i64 0, ptr %26, align 8, !tbaa !12
  store i8 0, ptr %25, align 8, !tbaa !15
  %27 = getelementptr inbounds %class.ConnectionElement, ptr %0, i64 0, i32 4
  store i8 0, ptr %27, align 8, !tbaa !44
  %28 = getelementptr inbounds %class.ConnectionElement, ptr %0, i64 0, i32 6
  store i32 0, ptr %28, align 8, !tbaa !40
  %29 = getelementptr inbounds %class.ConnectionElement, ptr %0, i64 0, i32 10
  store i8 0, ptr %29, align 8, !tbaa !45
  %30 = getelementptr inbounds %class.ConnectionElement, ptr %0, i64 0, i32 12
  store i32 0, ptr %30, align 8, !tbaa !42
  %31 = getelementptr inbounds %class.ConnectionElement, ptr %0, i64 0, i32 13
  store i32 0, ptr %31, align 4, !tbaa !43
  invoke void @_ZN10NEDElement13applyDefaultsEv(ptr noundef nonnull align 8 dereferenceable(112) %0)
          to label %32 unwind label %33

32:                                               ; preds = %2
  ret void

33:                                               ; preds = %2
  %34 = landingpad { ptr, i32 }
          cleanup
  %35 = load ptr, ptr %24, align 8, !tbaa !16
  %36 = icmp eq ptr %35, %25
  br i1 %36, label %37, label %40

37:                                               ; preds = %33
  %38 = load i64, ptr %26, align 8, !tbaa !12
  %39 = icmp ult i64 %38, 16
  tail call void @llvm.assume(i1 %39)
  br label %41

40:                                               ; preds = %33
  tail call void @_ZdlPv(ptr noundef %35) #15
  br label %41

41:                                               ; preds = %40, %37
  %42 = load ptr, ptr %21, align 8, !tbaa !16
  %43 = icmp eq ptr %42, %22
  br i1 %43, label %44, label %47

44:                                               ; preds = %41
  %45 = load i64, ptr %23, align 8, !tbaa !12
  %46 = icmp ult i64 %45, 16
  tail call void @llvm.assume(i1 %46)
  br label %48

47:                                               ; preds = %41
  tail call void @_ZdlPv(ptr noundef %42) #15
  br label %48

48:                                               ; preds = %47, %44
  %49 = load ptr, ptr %18, align 8, !tbaa !16
  %50 = icmp eq ptr %49, %19
  br i1 %50, label %51, label %54

51:                                               ; preds = %48
  %52 = load i64, ptr %20, align 8, !tbaa !12
  %53 = icmp ult i64 %52, 16
  tail call void @llvm.assume(i1 %53)
  br label %55

54:                                               ; preds = %48
  tail call void @_ZdlPv(ptr noundef %49) #15
  br label %55

55:                                               ; preds = %54, %51
  %56 = load ptr, ptr %15, align 8, !tbaa !16
  %57 = icmp eq ptr %56, %16
  br i1 %57, label %58, label %61

58:                                               ; preds = %55
  %59 = load i64, ptr %17, align 8, !tbaa !12
  %60 = icmp ult i64 %59, 16
  tail call void @llvm.assume(i1 %60)
  br label %62

61:                                               ; preds = %55
  tail call void @_ZdlPv(ptr noundef %56) #15
  br label %62

62:                                               ; preds = %61, %58
  %63 = load ptr, ptr %12, align 8, !tbaa !16
  %64 = icmp eq ptr %63, %13
  br i1 %64, label %65, label %68

65:                                               ; preds = %62
  %66 = load i64, ptr %14, align 8, !tbaa !12
  %67 = icmp ult i64 %66, 16
  tail call void @llvm.assume(i1 %67)
  br label %69

68:                                               ; preds = %62
  tail call void @_ZdlPv(ptr noundef %63) #15
  br label %69

69:                                               ; preds = %68, %65
  %70 = load ptr, ptr %9, align 8, !tbaa !16
  %71 = icmp eq ptr %70, %10
  br i1 %71, label %72, label %75

72:                                               ; preds = %69
  %73 = load i64, ptr %11, align 8, !tbaa !12
  %74 = icmp ult i64 %73, 16
  tail call void @llvm.assume(i1 %74)
  br label %76

75:                                               ; preds = %69
  tail call void @_ZdlPv(ptr noundef %70) #15
  br label %76

76:                                               ; preds = %75, %72
  %77 = load ptr, ptr %6, align 8, !tbaa !16
  %78 = icmp eq ptr %77, %7
  br i1 %78, label %79, label %82

79:                                               ; preds = %76
  %80 = load i64, ptr %8, align 8, !tbaa !12
  %81 = icmp ult i64 %80, 16
  tail call void @llvm.assume(i1 %81)
  br label %83

82:                                               ; preds = %76
  tail call void @_ZdlPv(ptr noundef %77) #15
  br label %83

83:                                               ; preds = %82, %79
  %84 = load ptr, ptr %3, align 8, !tbaa !16
  %85 = icmp eq ptr %84, %4
  br i1 %85, label %86, label %89

86:                                               ; preds = %83
  %87 = load i64, ptr %5, align 8, !tbaa !12
  %88 = icmp ult i64 %87, 16
  tail call void @llvm.assume(i1 %88)
  br label %90

89:                                               ; preds = %83
  tail call void @_ZdlPv(ptr noundef %84) #15
  br label %90

90:                                               ; preds = %89, %86
  invoke void @_ZN10NEDElementD2Ev(ptr noundef nonnull align 8 dereferenceable(112) %0)
          to label %91 unwind label %92

91:                                               ; preds = %90
  resume { ptr, i32 } %34

92:                                               ; preds = %90
  %93 = landingpad { ptr, i32 }
          catch ptr null
  %94 = extractvalue { ptr, i32 } %93, 0
  tail call void @__clang_call_terminate(ptr %94) #12
  unreachable
}

; Function Attrs: mustprogress nofree norecurse nosync nounwind sspstrong willreturn memory(none) uwtable
define dso_local noundef i32 @_ZNK17ConnectionElement16getNumAttributesEv(ptr nocapture nonnull readnone align 8 %0) unnamed_addr #3 align 2 {
  ret i32 13
}

; Function Attrs: mustprogress nofree norecurse nosync nounwind sspstrong willreturn memory(none) uwtable
define dso_local noundef ptr @_ZNK17ConnectionElement16getAttributeNameEi(ptr nocapture nonnull readnone align 8 %0, i32 noundef %1) unnamed_addr #3 align 2 {
  %3 = icmp ult i32 %1, 13
  br i1 %3, label %4, label %8

4:                                                ; preds = %2
  %5 = sext i32 %1 to i64
  %6 = shl i64 %5, 2
  %7 = call ptr @llvm.load.relative.i64(ptr @reltable._ZNK17ConnectionElement16getAttributeNameEi, i64 %6)
  br label %8

8:                                                ; preds = %2, %4
  %9 = phi ptr [ %7, %4 ], [ null, %2 ]
  ret ptr %9
}

; Function Attrs: sspstrong uwtable
define dso_local noundef ptr @_ZNK17ConnectionElement12getAttributeEi(ptr nocapture noundef nonnull readonly align 8 dereferenceable(400) %0, i32 noundef %1) unnamed_addr #0 align 2 {
  switch i32 %1, label %49 [
    i32 0, label %3
    i32 1, label %6
    i32 2, label %9
    i32 3, label %12
    i32 4, label %17
    i32 5, label %20
    i32 6, label %24
    i32 7, label %27
    i32 8, label %30
    i32 9, label %33
    i32 10, label %38
    i32 11, label %41
    i32 12, label %45
  ]

3:                                                ; preds = %2
  %4 = getelementptr inbounds %class.ConnectionElement, ptr %0, i64 0, i32 1
  %5 = load ptr, ptr %4, align 8, !tbaa !16
  br label %49

6:                                                ; preds = %2
  %7 = getelementptr inbounds %class.ConnectionElement, ptr %0, i64 0, i32 2
  %8 = load ptr, ptr %7, align 8, !tbaa !16
  br label %49

9:                                                ; preds = %2
  %10 = getelementptr inbounds %class.ConnectionElement, ptr %0, i64 0, i32 3
  %11 = load ptr, ptr %10, align 8, !tbaa !16
  br label %49

12:                                               ; preds = %2
  %13 = getelementptr inbounds %class.ConnectionElement, ptr %0, i64 0, i32 4
  %14 = load i8, ptr %13, align 8, !tbaa !44, !range !23, !noundef !24
  %15 = icmp ne i8 %14, 0
  %16 = tail call noundef ptr @_ZN10NEDElement12boolToStringEb(i1 noundef zeroext %15)
  br label %49

17:                                               ; preds = %2
  %18 = getelementptr inbounds %class.ConnectionElement, ptr %0, i64 0, i32 5
  %19 = load ptr, ptr %18, align 8, !tbaa !16
  br label %49

20:                                               ; preds = %2
  %21 = getelementptr inbounds %class.ConnectionElement, ptr %0, i64 0, i32 6
  %22 = load i32, ptr %21, align 8, !tbaa !40
  %23 = tail call noundef ptr @_ZN10NEDElement12enumToStringEiPPKcPii(i32 noundef %22, ptr noundef nonnull @_ZL12subgate_vals, ptr noundef nonnull @_ZL12subgate_nums, i32 noundef 3)
  br label %49

24:                                               ; preds = %2
  %25 = getelementptr inbounds %class.ConnectionElement, ptr %0, i64 0, i32 7
  %26 = load ptr, ptr %25, align 8, !tbaa !16
  br label %49

27:                                               ; preds = %2
  %28 = getelementptr inbounds %class.ConnectionElement, ptr %0, i64 0, i32 8
  %29 = load ptr, ptr %28, align 8, !tbaa !16
  br label %49

30:                                               ; preds = %2
  %31 = getelementptr inbounds %class.ConnectionElement, ptr %0, i64 0, i32 9
  %32 = load ptr, ptr %31, align 8, !tbaa !16
  br label %49

33:                                               ; preds = %2
  %34 = getelementptr inbounds %class.ConnectionElement, ptr %0, i64 0, i32 10
  %35 = load i8, ptr %34, align 8, !tbaa !45, !range !23, !noundef !24
  %36 = icmp ne i8 %35, 0
  %37 = tail call noundef ptr @_ZN10NEDElement12boolToStringEb(i1 noundef zeroext %36)
  br label %49

38:                                               ; preds = %2
  %39 = getelementptr inbounds %class.ConnectionElement, ptr %0, i64 0, i32 11
  %40 = load ptr, ptr %39, align 8, !tbaa !16
  br label %49

41:                                               ; preds = %2
  %42 = getelementptr inbounds %class.ConnectionElement, ptr %0, i64 0, i32 12
  %43 = load i32, ptr %42, align 8, !tbaa !42
  %44 = tail call noundef ptr @_ZN10NEDElement12enumToStringEiPPKcPii(i32 noundef %43, ptr noundef nonnull @_ZL12subgate_vals, ptr noundef nonnull @_ZL12subgate_nums, i32 noundef 3)
  br label %49

45:                                               ; preds = %2
  %46 = getelementptr inbounds %class.ConnectionElement, ptr %0, i64 0, i32 13
  %47 = load i32, ptr %46, align 4, !tbaa !43
  %48 = tail call noundef ptr @_ZN10NEDElement12enumToStringEiPPKcPii(i32 noundef %47, ptr noundef nonnull @_ZL13arrowdir_vals, ptr noundef nonnull @_ZL13arrowdir_nums, i32 noundef 3)
  br label %49

49:                                               ; preds = %2, %45, %41, %38, %33, %30, %27, %24, %20, %17, %12, %9, %6, %3
  %50 = phi ptr [ %48, %45 ], [ %44, %41 ], [ %40, %38 ], [ %37, %33 ], [ %32, %30 ], [ %29, %27 ], [ %26, %24 ], [ %23, %20 ], [ %19, %17 ], [ %16, %12 ], [ %11, %9 ], [ %8, %6 ], [ %5, %3 ], [ null, %2 ]
  ret ptr %50
}

; Function Attrs: sspstrong uwtable
define dso_local void @_ZN17ConnectionElement12setAttributeEiPKc(ptr noundef nonnull align 8 dereferenceable(400) %0, i32 noundef %1, ptr noundef %2) unnamed_addr #0 align 2 {
  switch i32 %1, label %69 [
    i32 0, label %4
    i32 1, label %10
    i32 2, label %16
    i32 3, label %22
    i32 4, label %26
    i32 5, label %32
    i32 6, label %35
    i32 7, label %41
    i32 8, label %47
    i32 9, label %53
    i32 10, label %57
    i32 11, label %63
    i32 12, label %66
  ]

4:                                                ; preds = %3
  %5 = getelementptr inbounds %class.ConnectionElement, ptr %0, i64 0, i32 1
  %6 = getelementptr inbounds %class.ConnectionElement, ptr %0, i64 0, i32 1, i32 1
  %7 = load i64, ptr %6, align 8, !tbaa !12
  %8 = tail call i64 @strlen(ptr noundef nonnull dereferenceable(1) %2) #13
  %9 = tail call noundef nonnull align 8 dereferenceable(32) ptr @_ZNSt7__cxx1112basic_stringIcSt11char_traitsIcESaIcEE10_M_replaceEmmPKcm(ptr noundef nonnull align 8 dereferenceable(32) %5, i64 noundef 0, i64 noundef %7, ptr noundef %2, i64 noundef %8)
  br label %69

10:                                               ; preds = %3
  %11 = getelementptr inbounds %class.ConnectionElement, ptr %0, i64 0, i32 2
  %12 = getelementptr inbounds %class.ConnectionElement, ptr %0, i64 0, i32 2, i32 1
  %13 = load i64, ptr %12, align 8, !tbaa !12
  %14 = tail call i64 @strlen(ptr noundef nonnull dereferenceable(1) %2) #13
  %15 = tail call noundef nonnull align 8 dereferenceable(32) ptr @_ZNSt7__cxx1112basic_stringIcSt11char_traitsIcESaIcEE10_M_replaceEmmPKcm(ptr noundef nonnull align 8 dereferenceable(32) %11, i64 noundef 0, i64 noundef %13, ptr noundef %2, i64 noundef %14)
  br label %69

16:                                               ; preds = %3
  %17 = getelementptr inbounds %class.ConnectionElement, ptr %0, i64 0, i32 3
  %18 = getelementptr inbounds %class.ConnectionElement, ptr %0, i64 0, i32 3, i32 1
  %19 = load i64, ptr %18, align 8, !tbaa !12
  %20 = tail call i64 @strlen(ptr noundef nonnull dereferenceable(1) %2) #13
  %21 = tail call noundef nonnull align 8 dereferenceable(32) ptr @_ZNSt7__cxx1112basic_stringIcSt11char_traitsIcESaIcEE10_M_replaceEmmPKcm(ptr noundef nonnull align 8 dereferenceable(32) %17, i64 noundef 0, i64 noundef %19, ptr noundef %2, i64 noundef %20)
  br label %69

22:                                               ; preds = %3
  %23 = tail call noundef zeroext i1 @_ZN10NEDElement12stringToBoolEPKc(ptr noundef %2)
  %24 = getelementptr inbounds %class.ConnectionElement, ptr %0, i64 0, i32 4
  %25 = zext i1 %23 to i8
  store i8 %25, ptr %24, align 8, !tbaa !44
  br label %69

26:                                               ; preds = %3
  %27 = getelementptr inbounds %class.ConnectionElement, ptr %0, i64 0, i32 5
  %28 = getelementptr inbounds %class.ConnectionElement, ptr %0, i64 0, i32 5, i32 1
  %29 = load i64, ptr %28, align 8, !tbaa !12
  %30 = tail call i64 @strlen(ptr noundef nonnull dereferenceable(1) %2) #13
  %31 = tail call noundef nonnull align 8 dereferenceable(32) ptr @_ZNSt7__cxx1112basic_stringIcSt11char_traitsIcESaIcEE10_M_replaceEmmPKcm(ptr noundef nonnull align 8 dereferenceable(32) %27, i64 noundef 0, i64 noundef %29, ptr noundef %2, i64 noundef %30)
  br label %69

32:                                               ; preds = %3
  %33 = tail call noundef i32 @_ZN10NEDElement12stringToEnumEPKcPS1_Pii(ptr noundef %2, ptr noundef nonnull @_ZL12subgate_vals, ptr noundef nonnull @_ZL12subgate_nums, i32 noundef 3)
  %34 = getelementptr inbounds %class.ConnectionElement, ptr %0, i64 0, i32 6
  store i32 %33, ptr %34, align 8, !tbaa !40
  br label %69

35:                                               ; preds = %3
  %36 = getelementptr inbounds %class.ConnectionElement, ptr %0, i64 0, i32 7
  %37 = getelementptr inbounds %class.ConnectionElement, ptr %0, i64 0, i32 7, i32 1
  %38 = load i64, ptr %37, align 8, !tbaa !12
  %39 = tail call i64 @strlen(ptr noundef nonnull dereferenceable(1) %2) #13
  %40 = tail call noundef nonnull align 8 dereferenceable(32) ptr @_ZNSt7__cxx1112basic_stringIcSt11char_traitsIcESaIcEE10_M_replaceEmmPKcm(ptr noundef nonnull align 8 dereferenceable(32) %36, i64 noundef 0, i64 noundef %38, ptr noundef %2, i64 noundef %39)
  br label %69

41:                                               ; preds = %3
  %42 = getelementptr inbounds %class.ConnectionElement, ptr %0, i64 0, i32 8
  %43 = getelementptr inbounds %class.ConnectionElement, ptr %0, i64 0, i32 8, i32 1
  %44 = load i64, ptr %43, align 8, !tbaa !12
  %45 = tail call i64 @strlen(ptr noundef nonnull dereferenceable(1) %2) #13
  %46 = tail call noundef nonnull align 8 dereferenceable(32) ptr @_ZNSt7__cxx1112basic_stringIcSt11char_traitsIcESaIcEE10_M_replaceEmmPKcm(ptr noundef nonnull align 8 dereferenceable(32) %42, i64 noundef 0, i64 noundef %44, ptr noundef %2, i64 noundef %45)
  br label %69

47:                                               ; preds = %3
  %48 = getelementptr inbounds %class.ConnectionElement, ptr %0, i64 0, i32 9
  %49 = getelementptr inbounds %class.ConnectionElement, ptr %0, i64 0, i32 9, i32 1
  %50 = load i64, ptr %49, align 8, !tbaa !12
  %51 = tail call i64 @strlen(ptr noundef nonnull dereferenceable(1) %2) #13
  %52 = tail call noundef nonnull align 8 dereferenceable(32) ptr @_ZNSt7__cxx1112basic_stringIcSt11char_traitsIcESaIcEE10_M_replaceEmmPKcm(ptr noundef nonnull align 8 dereferenceable(32) %48, i64 noundef 0, i64 noundef %50, ptr noundef %2, i64 noundef %51)
  br label %69

53:                                               ; preds = %3
  %54 = tail call noundef zeroext i1 @_ZN10NEDElement12stringToBoolEPKc(ptr noundef %2)
  %55 = getelementptr inbounds %class.ConnectionElement, ptr %0, i64 0, i32 10
  %56 = zext i1 %54 to i8
  store i8 %56, ptr %55, align 8, !tbaa !45
  br label %69

57:                                               ; preds = %3
  %58 = getelementptr inbounds %class.ConnectionElement, ptr %0, i64 0, i32 11
  %59 = getelementptr inbounds %class.ConnectionElement, ptr %0, i64 0, i32 11, i32 1
  %60 = load i64, ptr %59, align 8, !tbaa !12
  %61 = tail call i64 @strlen(ptr noundef nonnull dereferenceable(1) %2) #13
  %62 = tail call noundef nonnull align 8 dereferenceable(32) ptr @_ZNSt7__cxx1112basic_stringIcSt11char_traitsIcESaIcEE10_M_replaceEmmPKcm(ptr noundef nonnull align 8 dereferenceable(32) %58, i64 noundef 0, i64 noundef %60, ptr noundef %2, i64 noundef %61)
  br label %69

63:                                               ; preds = %3
  %64 = tail call noundef i32 @_ZN10NEDElement12stringToEnumEPKcPS1_Pii(ptr noundef %2, ptr noundef nonnull @_ZL12subgate_vals, ptr noundef nonnull @_ZL12subgate_nums, i32 noundef 3)
  %65 = getelementptr inbounds %class.ConnectionElement, ptr %0, i64 0, i32 12
  store i32 %64, ptr %65, align 8, !tbaa !42
  br label %69

66:                                               ; preds = %3
  %67 = tail call noundef i32 @_ZN10NEDElement12stringToEnumEPKcPS1_Pii(ptr noundef %2, ptr noundef nonnull @_ZL13arrowdir_vals, ptr noundef nonnull @_ZL13arrowdir_nums, i32 noundef 3)
  %68 = getelementptr inbounds %class.ConnectionElement, ptr %0, i64 0, i32 13
  store i32 %67, ptr %68, align 4, !tbaa !43
  br label %69

69:                                               ; preds = %3, %66, %63, %57, %53, %47, %41, %35, %32, %26, %22, %16, %10, %4
  ret void
}

; Function Attrs: mustprogress nofree norecurse nosync nounwind sspstrong willreturn memory(none) uwtable
define dso_local noundef ptr @_ZNK17ConnectionElement19getAttributeDefaultEi(ptr nocapture nonnull readnone align 8 %0, i32 noundef %1) unnamed_addr #3 align 2 {
  %3 = icmp ult i32 %1, 13
  br i1 %3, label %4, label %8

4:                                                ; preds = %2
  %5 = sext i32 %1 to i64
  %6 = getelementptr inbounds [13 x ptr], ptr @switch.table._ZNK17ConnectionElement19getAttributeDefaultEi, i64 0, i64 %5
  %7 = load ptr, ptr %6, align 8
  br label %8

8:                                                ; preds = %2, %4
  %9 = phi ptr [ %7, %4 ], [ null, %2 ]
  ret ptr %9
}

; Function Attrs: sspstrong uwtable
define dso_local noundef nonnull ptr @_ZNK17ConnectionElement3dupEv(ptr noundef nonnull align 8 dereferenceable(400) %0) unnamed_addr #0 align 2 personality ptr @__gxx_personality_v0 {
  %2 = tail call noalias noundef nonnull dereferenceable(400) ptr @_Znwm(i64 noundef 400) #14
  invoke void @_ZN17ConnectionElementC2Ev(ptr noundef nonnull align 8 dereferenceable(400) %2)
          to label %3 unwind label %32

3:                                                ; preds = %1
  %4 = getelementptr inbounds %class.ConnectionElement, ptr %0, i64 0, i32 1
  %5 = getelementptr inbounds %class.ConnectionElement, ptr %2, i64 0, i32 1
  tail call void @_ZNSt7__cxx1112basic_stringIcSt11char_traitsIcESaIcEE9_M_assignERKS4_(ptr noundef nonnull align 8 dereferenceable(32) %5, ptr noundef nonnull align 8 dereferenceable(32) %4)
  %6 = getelementptr inbounds %class.ConnectionElement, ptr %0, i64 0, i32 2
  %7 = getelementptr inbounds %class.ConnectionElement, ptr %2, i64 0, i32 2
  tail call void @_ZNSt7__cxx1112basic_stringIcSt11char_traitsIcESaIcEE9_M_assignERKS4_(ptr noundef nonnull align 8 dereferenceable(32) %7, ptr noundef nonnull align 8 dereferenceable(32) %6)
  %8 = getelementptr inbounds %class.ConnectionElement, ptr %0, i64 0, i32 3
  %9 = getelementptr inbounds %class.ConnectionElement, ptr %2, i64 0, i32 3
  tail call void @_ZNSt7__cxx1112basic_stringIcSt11char_traitsIcESaIcEE9_M_assignERKS4_(ptr noundef nonnull align 8 dereferenceable(32) %9, ptr noundef nonnull align 8 dereferenceable(32) %8)
  %10 = getelementptr inbounds %class.ConnectionElement, ptr %0, i64 0, i32 4
  %11 = load i8, ptr %10, align 8, !tbaa !44, !range !23, !noundef !24
  %12 = getelementptr inbounds %class.ConnectionElement, ptr %2, i64 0, i32 4
  store i8 %11, ptr %12, align 8, !tbaa !44
  %13 = getelementptr inbounds %class.ConnectionElement, ptr %0, i64 0, i32 5
  %14 = getelementptr inbounds %class.ConnectionElement, ptr %2, i64 0, i32 5
  tail call void @_ZNSt7__cxx1112basic_stringIcSt11char_traitsIcESaIcEE9_M_assignERKS4_(ptr noundef nonnull align 8 dereferenceable(32) %14, ptr noundef nonnull align 8 dereferenceable(32) %13)
  %15 = getelementptr inbounds %class.ConnectionElement, ptr %0, i64 0, i32 6
  %16 = load i32, ptr %15, align 8, !tbaa !40
  %17 = getelementptr inbounds %class.ConnectionElement, ptr %2, i64 0, i32 6
  store i32 %16, ptr %17, align 8, !tbaa !40
  %18 = getelementptr inbounds %class.ConnectionElement, ptr %0, i64 0, i32 7
  %19 = getelementptr inbounds %class.ConnectionElement, ptr %2, i64 0, i32 7
  tail call void @_ZNSt7__cxx1112basic_stringIcSt11char_traitsIcESaIcEE9_M_assignERKS4_(ptr noundef nonnull align 8 dereferenceable(32) %19, ptr noundef nonnull align 8 dereferenceable(32) %18)
  %20 = getelementptr inbounds %class.ConnectionElement, ptr %0, i64 0, i32 8
  %21 = getelementptr inbounds %class.ConnectionElement, ptr %2, i64 0, i32 8
  tail call void @_ZNSt7__cxx1112basic_stringIcSt11char_traitsIcESaIcEE9_M_assignERKS4_(ptr noundef nonnull align 8 dereferenceable(32) %21, ptr noundef nonnull align 8 dereferenceable(32) %20)
  %22 = getelementptr inbounds %class.ConnectionElement, ptr %0, i64 0, i32 9
  %23 = getelementptr inbounds %class.ConnectionElement, ptr %2, i64 0, i32 9
  tail call void @_ZNSt7__cxx1112basic_stringIcSt11char_traitsIcESaIcEE9_M_assignERKS4_(ptr noundef nonnull align 8 dereferenceable(32) %23, ptr noundef nonnull align 8 dereferenceable(32) %22)
  %24 = getelementptr inbounds %class.ConnectionElement, ptr %0, i64 0, i32 10
  %25 = load i8, ptr %24, align 8, !tbaa !45, !range !23, !noundef !24
  %26 = getelementptr inbounds %class.ConnectionElement, ptr %2, i64 0, i32 10
  store i8 %25, ptr %26, align 8, !tbaa !45
  %27 = getelementptr inbounds %class.ConnectionElement, ptr %0, i64 0, i32 11
  %28 = getelementptr inbounds %class.ConnectionElement, ptr %2, i64 0, i32 11
  tail call void @_ZNSt7__cxx1112basic_stringIcSt11char_traitsIcESaIcEE9_M_assignERKS4_(ptr noundef nonnull align 8 dereferenceable(32) %28, ptr noundef nonnull align 8 dereferenceable(32) %27)
  %29 = getelementptr inbounds %class.ConnectionElement, ptr %0, i64 0, i32 12
  %30 = getelementptr inbounds %class.ConnectionElement, ptr %2, i64 0, i32 12
  %31 = load <2 x i32>, ptr %29, align 8, !tbaa !46
  store <2 x i32> %31, ptr %30, align 8, !tbaa !46
  ret ptr %2

32:                                               ; preds = %1
  %33 = landingpad { ptr, i32 }
          cleanup
  tail call void @_ZdlPv(ptr noundef nonnull %2) #15
  resume { ptr, i32 } %33
}

; Function Attrs: sspstrong uwtable
define dso_local noundef ptr @_ZNK17ConnectionElement24getNextConnectionSiblingEv(ptr noundef nonnull align 8 dereferenceable(400) %0) unnamed_addr #0 align 2 {
  %2 = load ptr, ptr %0, align 8, !tbaa !5
  %3 = getelementptr inbounds ptr, ptr %2, i64 31
  %4 = load ptr, ptr %3, align 8
  %5 = tail call noundef ptr %4(ptr noundef nonnull align 8 dereferenceable(112) %0, i32 noundef 25)
  ret ptr %5
}

; Function Attrs: sspstrong uwtable
define dso_local noundef ptr @_ZNK17ConnectionElement20getFirstCommentChildEv(ptr noundef nonnull align 8 dereferenceable(400) %0) unnamed_addr #0 align 2 {
  %2 = load ptr, ptr %0, align 8, !tbaa !5
  %3 = getelementptr inbounds ptr, ptr %2, i64 30
  %4 = load ptr, ptr %3, align 8
  %5 = tail call noundef ptr %4(ptr noundef nonnull align 8 dereferenceable(112) %0, i32 noundef 3)
  ret ptr %5
}

; Function Attrs: sspstrong uwtable
define dso_local noundef ptr @_ZNK17ConnectionElement23getFirstExpressionChildEv(ptr noundef nonnull align 8 dereferenceable(400) %0) unnamed_addr #0 align 2 {
  %2 = load ptr, ptr %0, align 8, !tbaa !5
  %3 = getelementptr inbounds ptr, ptr %2, i64 30
  %4 = load ptr, ptr %3, align 8
  %5 = tail call noundef ptr %4(ptr noundef nonnull align 8 dereferenceable(112) %0, i32 noundef 30)
  ret ptr %5
}

; Function Attrs: sspstrong uwtable
define dso_local noundef ptr @_ZNK17ConnectionElement24getFirstChannelSpecChildEv(ptr noundef nonnull align 8 dereferenceable(400) %0) unnamed_addr #0 align 2 {
  %2 = load ptr, ptr %0, align 8, !tbaa !5
  %3 = getelementptr inbounds ptr, ptr %2, i64 30
  %4 = load ptr, ptr %3, align 8
  %5 = tail call noundef ptr %4(ptr noundef nonnull align 8 dereferenceable(112) %0, i32 noundef 26)
  ret ptr %5
}

; Function Attrs: sspstrong uwtable
define dso_local noundef ptr @_ZNK17ConnectionElement17getFirstLoopChildEv(ptr noundef nonnull align 8 dereferenceable(400) %0) unnamed_addr #0 align 2 {
  %2 = load ptr, ptr %0, align 8, !tbaa !5
  %3 = getelementptr inbounds ptr, ptr %2, i64 30
  %4 = load ptr, ptr %3, align 8
  %5 = tail call noundef ptr %4(ptr noundef nonnull align 8 dereferenceable(112) %0, i32 noundef 28)
  ret ptr %5
}

; Function Attrs: sspstrong uwtable
define dso_local noundef ptr @_ZNK17ConnectionElement22getFirstConditionChildEv(ptr noundef nonnull align 8 dereferenceable(400) %0) unnamed_addr #0 align 2 {
  %2 = load ptr, ptr %0, align 8, !tbaa !5
  %3 = getelementptr inbounds ptr, ptr %2, i64 30
  %4 = load ptr, ptr %3, align 8
  %5 = tail call noundef ptr %4(ptr noundef nonnull align 8 dereferenceable(112) %0, i32 noundef 29)
  ret ptr %5
}

; Function Attrs: sspstrong uwtable
define dso_local void @_ZN18ChannelSpecElementC2Ev(ptr noundef nonnull align 8 dereferenceable(208) %0) unnamed_addr #0 align 2 personality ptr @__gxx_personality_v0 {
  tail call void @_ZN10NEDElementC2Ev(ptr noundef nonnull align 8 dereferenceable(112) %0)
  store ptr getelementptr inbounds ({ [42 x ptr] }, ptr @_ZTV18ChannelSpecElement, i64 0, inrange i32 0, i64 2), ptr %0, align 8, !tbaa !5
  %2 = getelementptr inbounds %class.ChannelSpecElement, ptr %0, i64 0, i32 1
  %3 = getelementptr inbounds %class.ChannelSpecElement, ptr %0, i64 0, i32 1, i32 2
  store ptr %3, ptr %2, align 8, !tbaa !8
  %4 = getelementptr inbounds %class.ChannelSpecElement, ptr %0, i64 0, i32 1, i32 1
  store i64 0, ptr %4, align 8, !tbaa !12
  store i8 0, ptr %3, align 8, !tbaa !15
  %5 = getelementptr inbounds %class.ChannelSpecElement, ptr %0, i64 0, i32 2
  %6 = getelementptr inbounds %class.ChannelSpecElement, ptr %0, i64 0, i32 2, i32 2
  store ptr %6, ptr %5, align 8, !tbaa !8
  %7 = getelementptr inbounds %class.ChannelSpecElement, ptr %0, i64 0, i32 2, i32 1
  store i64 0, ptr %7, align 8, !tbaa !12
  store i8 0, ptr %6, align 8, !tbaa !15
  %8 = getelementptr inbounds %class.ChannelSpecElement, ptr %0, i64 0, i32 3
  %9 = getelementptr inbounds %class.ChannelSpecElement, ptr %0, i64 0, i32 3, i32 2
  store ptr %9, ptr %8, align 8, !tbaa !8
  %10 = getelementptr inbounds %class.ChannelSpecElement, ptr %0, i64 0, i32 3, i32 1
  store i64 0, ptr %10, align 8, !tbaa !12
  store i8 0, ptr %9, align 8, !tbaa !15
  invoke void @_ZN10NEDElement13applyDefaultsEv(ptr noundef nonnull align 8 dereferenceable(112) %0)
          to label %11 unwind label %12

11:                                               ; preds = %1
  ret void

12:                                               ; preds = %1
  %13 = landingpad { ptr, i32 }
          cleanup
  %14 = load ptr, ptr %8, align 8, !tbaa !16
  %15 = icmp eq ptr %14, %9
  br i1 %15, label %16, label %19

16:                                               ; preds = %12
  %17 = load i64, ptr %10, align 8, !tbaa !12
  %18 = icmp ult i64 %17, 16
  tail call void @llvm.assume(i1 %18)
  br label %20

19:                                               ; preds = %12
  tail call void @_ZdlPv(ptr noundef %14) #15
  br label %20

20:                                               ; preds = %19, %16
  %21 = load ptr, ptr %5, align 8, !tbaa !16
  %22 = icmp eq ptr %21, %6
  br i1 %22, label %23, label %26

23:                                               ; preds = %20
  %24 = load i64, ptr %7, align 8, !tbaa !12
  %25 = icmp ult i64 %24, 16
  tail call void @llvm.assume(i1 %25)
  br label %27

26:                                               ; preds = %20
  tail call void @_ZdlPv(ptr noundef %21) #15
  br label %27

27:                                               ; preds = %26, %23
  %28 = load ptr, ptr %2, align 8, !tbaa !16
  %29 = icmp eq ptr %28, %3
  br i1 %29, label %30, label %33

30:                                               ; preds = %27
  %31 = load i64, ptr %4, align 8, !tbaa !12
  %32 = icmp ult i64 %31, 16
  tail call void @llvm.assume(i1 %32)
  br label %34

33:                                               ; preds = %27
  tail call void @_ZdlPv(ptr noundef %28) #15
  br label %34

34:                                               ; preds = %33, %30
  invoke void @_ZN10NEDElementD2Ev(ptr noundef nonnull align 8 dereferenceable(112) %0)
          to label %35 unwind label %36

35:                                               ; preds = %34
  resume { ptr, i32 } %13

36:                                               ; preds = %34
  %37 = landingpad { ptr, i32 }
          catch ptr null
  %38 = extractvalue { ptr, i32 } %37, 0
  tail call void @__clang_call_terminate(ptr %38) #12
  unreachable
}

; Function Attrs: sspstrong uwtable
define dso_local void @_ZN18ChannelSpecElementC2EP10NEDElement(ptr noundef nonnull align 8 dereferenceable(208) %0, ptr noundef %1) unnamed_addr #0 align 2 personality ptr @__gxx_personality_v0 {
  tail call void @_ZN10NEDElementC2EPS_(ptr noundef nonnull align 8 dereferenceable(112) %0, ptr noundef %1)
  store ptr getelementptr inbounds ({ [42 x ptr] }, ptr @_ZTV18ChannelSpecElement, i64 0, inrange i32 0, i64 2), ptr %0, align 8, !tbaa !5
  %3 = getelementptr inbounds %class.ChannelSpecElement, ptr %0, i64 0, i32 1
  %4 = getelementptr inbounds %class.ChannelSpecElement, ptr %0, i64 0, i32 1, i32 2
  store ptr %4, ptr %3, align 8, !tbaa !8
  %5 = getelementptr inbounds %class.ChannelSpecElement, ptr %0, i64 0, i32 1, i32 1
  store i64 0, ptr %5, align 8, !tbaa !12
  store i8 0, ptr %4, align 8, !tbaa !15
  %6 = getelementptr inbounds %class.ChannelSpecElement, ptr %0, i64 0, i32 2
  %7 = getelementptr inbounds %class.ChannelSpecElement, ptr %0, i64 0, i32 2, i32 2
  store ptr %7, ptr %6, align 8, !tbaa !8
  %8 = getelementptr inbounds %class.ChannelSpecElement, ptr %0, i64 0, i32 2, i32 1
  store i64 0, ptr %8, align 8, !tbaa !12
  store i8 0, ptr %7, align 8, !tbaa !15
  %9 = getelementptr inbounds %class.ChannelSpecElement, ptr %0, i64 0, i32 3
  %10 = getelementptr inbounds %class.ChannelSpecElement, ptr %0, i64 0, i32 3, i32 2
  store ptr %10, ptr %9, align 8, !tbaa !8
  %11 = getelementptr inbounds %class.ChannelSpecElement, ptr %0, i64 0, i32 3, i32 1
  store i64 0, ptr %11, align 8, !tbaa !12
  store i8 0, ptr %10, align 8, !tbaa !15
  invoke void @_ZN10NEDElement13applyDefaultsEv(ptr noundef nonnull align 8 dereferenceable(112) %0)
          to label %12 unwind label %13

12:                                               ; preds = %2
  ret void

13:                                               ; preds = %2
  %14 = landingpad { ptr, i32 }
          cleanup
  %15 = load ptr, ptr %9, align 8, !tbaa !16
  %16 = icmp eq ptr %15, %10
  br i1 %16, label %17, label %20

17:                                               ; preds = %13
  %18 = load i64, ptr %11, align 8, !tbaa !12
  %19 = icmp ult i64 %18, 16
  tail call void @llvm.assume(i1 %19)
  br label %21

20:                                               ; preds = %13
  tail call void @_ZdlPv(ptr noundef %15) #15
  br label %21

21:                                               ; preds = %20, %17
  %22 = load ptr, ptr %6, align 8, !tbaa !16
  %23 = icmp eq ptr %22, %7
  br i1 %23, label %24, label %27

24:                                               ; preds = %21
  %25 = load i64, ptr %8, align 8, !tbaa !12
  %26 = icmp ult i64 %25, 16
  tail call void @llvm.assume(i1 %26)
  br label %28

27:                                               ; preds = %21
  tail call void @_ZdlPv(ptr noundef %22) #15
  br label %28

28:                                               ; preds = %27, %24
  %29 = load ptr, ptr %3, align 8, !tbaa !16
  %30 = icmp eq ptr %29, %4
  br i1 %30, label %31, label %34

31:                                               ; preds = %28
  %32 = load i64, ptr %5, align 8, !tbaa !12
  %33 = icmp ult i64 %32, 16
  tail call void @llvm.assume(i1 %33)
  br label %35

34:                                               ; preds = %28
  tail call void @_ZdlPv(ptr noundef %29) #15
  br label %35

35:                                               ; preds = %34, %31
  invoke void @_ZN10NEDElementD2Ev(ptr noundef nonnull align 8 dereferenceable(112) %0)
          to label %36 unwind label %37

36:                                               ; preds = %35
  resume { ptr, i32 } %14

37:                                               ; preds = %35
  %38 = landingpad { ptr, i32 }
          catch ptr null
  %39 = extractvalue { ptr, i32 } %38, 0
  tail call void @__clang_call_terminate(ptr %39) #12
  unreachable
}

; Function Attrs: mustprogress nofree norecurse nosync nounwind sspstrong willreturn memory(none) uwtable
define dso_local noundef i32 @_ZNK18ChannelSpecElement16getNumAttributesEv(ptr nocapture nonnull readnone align 8 %0) unnamed_addr #3 align 2 {
  ret i32 3
}

; Function Attrs: mustprogress nofree norecurse nosync nounwind sspstrong willreturn memory(none) uwtable
define dso_local noundef ptr @_ZNK18ChannelSpecElement16getAttributeNameEi(ptr nocapture nonnull readnone align 8 %0, i32 noundef %1) unnamed_addr #3 align 2 {
  %3 = icmp ult i32 %1, 3
  br i1 %3, label %4, label %8

4:                                                ; preds = %2
  %5 = sext i32 %1 to i64
  %6 = shl i64 %5, 2
  %7 = call ptr @llvm.load.relative.i64(ptr @reltable._ZNK18ChannelSpecElement16getAttributeNameEi, i64 %6)
  br label %8

8:                                                ; preds = %2, %4
  %9 = phi ptr [ %7, %4 ], [ null, %2 ]
  ret ptr %9
}

; Function Attrs: mustprogress nofree norecurse nosync nounwind sspstrong willreturn memory(argmem: read) uwtable
define dso_local noundef ptr @_ZNK18ChannelSpecElement12getAttributeEi(ptr nocapture noundef nonnull readonly align 8 dereferenceable(208) %0, i32 noundef %1) unnamed_addr #6 align 2 {
  switch i32 %1, label %12 [
    i32 0, label %3
    i32 1, label %6
    i32 2, label %9
  ]

3:                                                ; preds = %2
  %4 = getelementptr inbounds %class.ChannelSpecElement, ptr %0, i64 0, i32 1
  %5 = load ptr, ptr %4, align 8, !tbaa !16
  br label %12

6:                                                ; preds = %2
  %7 = getelementptr inbounds %class.ChannelSpecElement, ptr %0, i64 0, i32 2
  %8 = load ptr, ptr %7, align 8, !tbaa !16
  br label %12

9:                                                ; preds = %2
  %10 = getelementptr inbounds %class.ChannelSpecElement, ptr %0, i64 0, i32 3
  %11 = load ptr, ptr %10, align 8, !tbaa !16
  br label %12

12:                                               ; preds = %2, %9, %6, %3
  %13 = phi ptr [ %11, %9 ], [ %8, %6 ], [ %5, %3 ], [ null, %2 ]
  ret ptr %13
}

; Function Attrs: sspstrong uwtable
define dso_local void @_ZN18ChannelSpecElement12setAttributeEiPKc(ptr noundef nonnull align 8 dereferenceable(208) %0, i32 noundef %1, ptr noundef %2) unnamed_addr #0 align 2 {
  switch i32 %1, label %19 [
    i32 0, label %4
    i32 1, label %7
    i32 2, label %10
  ]

4:                                                ; preds = %3
  %5 = getelementptr inbounds %class.ChannelSpecElement, ptr %0, i64 0, i32 1
  %6 = getelementptr inbounds %class.ChannelSpecElement, ptr %0, i64 0, i32 1, i32 1
  br label %13

7:                                                ; preds = %3
  %8 = getelementptr inbounds %class.ChannelSpecElement, ptr %0, i64 0, i32 2
  %9 = getelementptr inbounds %class.ChannelSpecElement, ptr %0, i64 0, i32 2, i32 1
  br label %13

10:                                               ; preds = %3
  %11 = getelementptr inbounds %class.ChannelSpecElement, ptr %0, i64 0, i32 3
  %12 = getelementptr inbounds %class.ChannelSpecElement, ptr %0, i64 0, i32 3, i32 1
  br label %13

13:                                               ; preds = %4, %7, %10
  %14 = phi ptr [ %12, %10 ], [ %9, %7 ], [ %6, %4 ]
  %15 = phi ptr [ %11, %10 ], [ %8, %7 ], [ %5, %4 ]
  %16 = load i64, ptr %14, align 8, !tbaa !12
  %17 = tail call i64 @strlen(ptr noundef nonnull dereferenceable(1) %2) #13
  %18 = tail call noundef nonnull align 8 dereferenceable(32) ptr @_ZNSt7__cxx1112basic_stringIcSt11char_traitsIcESaIcEE10_M_replaceEmmPKcm(ptr noundef nonnull align 8 dereferenceable(32) %15, i64 noundef 0, i64 noundef %16, ptr noundef %2, i64 noundef %17)
  br label %19

19:                                               ; preds = %13, %3
  ret void
}

; Function Attrs: mustprogress nofree norecurse nosync nounwind sspstrong willreturn memory(none) uwtable
define dso_local noundef ptr @_ZNK18ChannelSpecElement19getAttributeDefaultEi(ptr nocapture nonnull readnone align 8 %0, i32 noundef %1) unnamed_addr #3 align 2 {
  %3 = icmp ult i32 %1, 3
  %4 = select i1 %3, ptr @.str.5, ptr null
  ret ptr %4
}

; Function Attrs: sspstrong uwtable
define dso_local noundef nonnull ptr @_ZNK18ChannelSpecElement3dupEv(ptr noundef nonnull align 8 dereferenceable(208) %0) unnamed_addr #0 align 2 personality ptr @__gxx_personality_v0 {
  %2 = tail call noalias noundef nonnull dereferenceable(208) ptr @_Znwm(i64 noundef 208) #14
