; ModuleID = 'simulator/sectionbasedconfig.cc'
source_filename = "simulator/sectionbasedconfig.cc"
target datalayout = "e-m:e-p270:32:32-p271:32:32-p272:64:64-i64:64-f80:128-n8:16:32:64-S128"
target triple = "x86_64-pc-linux-gnu"

module asm ".globl _ZSt21ios_base_library_initv"

%class.ExecuteOnStartup = type { ptr, ptr }
%"class.std::__cxx11::basic_string" = type { %"struct.std::__cxx11::basic_string<char>::_Alloc_hider", i64, %union.anon }
%"struct.std::__cxx11::basic_string<char>::_Alloc_hider" = type { ptr }
%union.anon = type { i64, [8 x i8] }
%struct.ConfigVarDescription = type { ptr, ptr }
%class.cGlobalRegistrationList = type { ptr, ptr }
%class.SectionBasedConfiguration = type { %class.cConfigurationEx, ptr, %"class.std::vector", %"class.std::__cxx11::basic_string", i32, %"class.std::__cxx11::basic_string", %"class.std::set", %"class.std::map", %"class.std::map.10", %"struct.SectionBasedConfiguration::Group", %"class.SectionBasedConfiguration::NullKeyValue", %"class.std::map.20", %class.CommonStringPool }
%class.cConfigurationEx = type { %class.cConfiguration }
%class.cConfiguration = type { %class.cObject }
%class.cObject = type { ptr }
%"class.std::vector" = type { %"struct.std::_Vector_base" }
%"struct.std::_Vector_base" = type { %"struct.std::_Vector_base<SectionBasedConfiguration::KeyValue1, std::allocator<SectionBasedConfiguration::KeyValue1> >::_Vector_impl" }
%"struct.std::_Vector_base<SectionBasedConfiguration::KeyValue1, std::allocator<SectionBasedConfiguration::KeyValue1> >::_Vector_impl" = type { %"struct.std::_Vector_base<SectionBasedConfiguration::KeyValue1, std::allocator<SectionBasedConfiguration::KeyValue1> >::_Vector_impl_data" }
%"struct.std::_Vector_base<SectionBasedConfiguration::KeyValue1, std::allocator<SectionBasedConfiguration::KeyValue1> >::_Vector_impl_data" = type { ptr, ptr, ptr }
%"class.std::set" = type { %"class.std::_Rb_tree" }
%"class.std::_Rb_tree" = type { %"struct.std::_Rb_tree<std::__cxx11::basic_string<char>, std::__cxx11::basic_string<char>, std::_Identity<std::__cxx11::basic_string<char> >, std::less<std::__cxx11::basic_string<char> > >::_Rb_tree_impl" }
%"struct.std::_Rb_tree<std::__cxx11::basic_string<char>, std::__cxx11::basic_string<char>, std::_Identity<std::__cxx11::basic_string<char> >, std::less<std::__cxx11::basic_string<char> > >::_Rb_tree_impl" = type { %"struct.std::_Rb_tree_key_compare", %"struct.std::_Rb_tree_header" }
%"struct.std::_Rb_tree_key_compare" = type { %"struct.std::less" }
%"struct.std::less" = type { i8 }
%"struct.std::_Rb_tree_header" = type { %"struct.std::_Rb_tree_node_base", i64 }
%"struct.std::_Rb_tree_node_base" = type { i32, ptr, ptr, ptr }
%"class.std::map" = type { %"class.std::_Rb_tree.6" }
%"class.std::_Rb_tree.6" = type { %"struct.std::_Rb_tree<std::__cxx11::basic_string<char>, std::pair<const std::__cxx11::basic_string<char>, SectionBasedConfiguration::KeyValue1>, std::_Select1st<std::pair<const std::__cxx11::basic_string<char>, SectionBasedConfiguration::KeyValue1> >, std::less<std::__cxx11::basic_string<char> > >::_Rb_tree_impl" }
%"struct.std::_Rb_tree<std::__cxx11::basic_string<char>, std::pair<const std::__cxx11::basic_string<char>, SectionBasedConfiguration::KeyValue1>, std::_Select1st<std::pair<const std::__cxx11::basic_string<char>, SectionBasedConfiguration::KeyValue1> >, std::less<std::__cxx11::basic_string<char> > >::_Rb_tree_impl" = type { %"struct.std::_Rb_tree_key_compare", %"struct.std::_Rb_tree_header" }
%"class.std::map.10" = type { %"class.std::_Rb_tree.11" }
%"class.std::_Rb_tree.11" = type { %"struct.std::_Rb_tree<std::__cxx11::basic_string<char>, std::pair<const std::__cxx11::basic_string<char>, SectionBasedConfiguration::Group>, std::_Select1st<std::pair<const std::__cxx11::basic_string<char>, SectionBasedConfiguration::Group> >, std::less<std::__cxx11::basic_string<char> > >::_Rb_tree_impl" }
%"struct.std::_Rb_tree<std::__cxx11::basic_string<char>, std::pair<const std::__cxx11::basic_string<char>, SectionBasedConfiguration::Group>, std::_Select1st<std::pair<const std::__cxx11::basic_string<char>, SectionBasedConfiguration::Group> >, std::less<std::__cxx11::basic_string<char> > >::_Rb_tree_impl" = type { %"struct.std::_Rb_tree_key_compare", %"struct.std::_Rb_tree_header" }
%"struct.SectionBasedConfiguration::Group" = type { %"class.std::vector.15" }
%"class.std::vector.15" = type { %"struct.std::_Vector_base.16" }
%"struct.std::_Vector_base.16" = type { %"struct.std::_Vector_base<SectionBasedConfiguration::KeyValue2, std::allocator<SectionBasedConfiguration::KeyValue2> >::_Vector_impl" }
%"struct.std::_Vector_base<SectionBasedConfiguration::KeyValue2, std::allocator<SectionBasedConfiguration::KeyValue2> >::_Vector_impl" = type { %"struct.std::_Vector_base<SectionBasedConfiguration::KeyValue2, std::allocator<SectionBasedConfiguration::KeyValue2> >::_Vector_impl_data" }
%"struct.std::_Vector_base<SectionBasedConfiguration::KeyValue2, std::allocator<SectionBasedConfiguration::KeyValue2> >::_Vector_impl_data" = type { ptr, ptr, ptr }
%"class.SectionBasedConfiguration::NullKeyValue" = type { %"class.cConfiguration::KeyValue", %"class.std::__cxx11::basic_string" }
%"class.cConfiguration::KeyValue" = type { ptr }
%"class.std::map.20" = type { %"class.std::_Rb_tree.21" }
%"class.std::_Rb_tree.21" = type { %"struct.std::_Rb_tree<std::__cxx11::basic_string<char>, std::pair<const std::__cxx11::basic_string<char>, std::__cxx11::basic_string<char> >, std::_Select1st<std::pair<const std::__cxx11::basic_string<char>, std::__cxx11::basic_string<char> > >, std::less<std::__cxx11::basic_string<char> > >::_Rb_tree_impl" }
%"struct.std::_Rb_tree<std::__cxx11::basic_string<char>, std::pair<const std::__cxx11::basic_string<char>, std::__cxx11::basic_string<char> >, std::_Select1st<std::pair<const std::__cxx11::basic_string<char>, std::__cxx11::basic_string<char> > >, std::less<std::__cxx11::basic_string<char> > >::_Rb_tree_impl" = type { %"struct.std::_Rb_tree_key_compare", %"struct.std::_Rb_tree_header" }
%class.CommonStringPool = type { %"class.std::set.25" }
%"class.std::set.25" = type { %"class.std::_Rb_tree.26" }
%"class.std::_Rb_tree.26" = type { %"struct.std::_Rb_tree<char *, char *, std::_Identity<char *>, CommonStringPool::strless>::_Rb_tree_impl" }
%"struct.std::_Rb_tree<char *, char *, std::_Identity<char *>, CommonStringPool::strless>::_Rb_tree_impl" = type { %"struct.std::_Rb_tree_key_compare.30", %"struct.std::_Rb_tree_header" }
%"struct.std::_Rb_tree_key_compare.30" = type { %"struct.CommonStringPool::strless" }
%"struct.CommonStringPool::strless" = type { i8 }
%"class.SectionBasedConfiguration::KeyValue2" = type { %"class.SectionBasedConfiguration::KeyValue1", ptr, ptr, ptr }
%"class.SectionBasedConfiguration::KeyValue1" = type { %"class.cConfiguration::KeyValue", ptr, %"class.std::__cxx11::basic_string", %"class.std::__cxx11::basic_string" }
%"struct.std::_Rb_tree_node" = type { %"struct.std::_Rb_tree_node_base", %"struct.std::pair" }
%"struct.std::pair" = type { %"class.std::__cxx11::basic_string", %"class.std::__cxx11::basic_string" }
%class.cConfigOption = type { %class.cNoncopyableOwnedObject.base, i8, i8, i32, %"class.std::__cxx11::basic_string", %"class.std::__cxx11::basic_string", %"class.std::__cxx11::basic_string" }
%class.cNoncopyableOwnedObject.base = type { %class.cOwnedObject.base }
%class.cOwnedObject.base = type <{ %class.cNamedObject.base, [4 x i8], ptr, i32 }>
%class.cNamedObject.base = type <{ %class.cObject, ptr, i16, i16 }>
%class.PatternMatcher = type { %"class.std::vector.66", i8, %"class.std::__cxx11::basic_string" }
%"class.std::vector.66" = type { %"struct.std::_Vector_base.67" }
%"struct.std::_Vector_base.67" = type { %"struct.std::_Vector_base<PatternMatcher::Elem, std::allocator<PatternMatcher::Elem> >::_Vector_impl" }
%"struct.std::_Vector_base<PatternMatcher::Elem, std::allocator<PatternMatcher::Elem> >::_Vector_impl" = type { %"struct.std::_Vector_base<PatternMatcher::Elem, std::allocator<PatternMatcher::Elem> >::_Vector_impl_data" }
%"struct.std::_Vector_base<PatternMatcher::Elem, std::allocator<PatternMatcher::Elem> >::_Vector_impl_data" = type { ptr, ptr, ptr }
%"class.std::vector.31" = type { %"struct.std::_Vector_base.32" }
%"struct.std::_Vector_base.32" = type { %"struct.std::_Vector_base<std::__cxx11::basic_string<char>, std::allocator<std::__cxx11::basic_string<char> > >::_Vector_impl" }
%"struct.std::_Vector_base<std::__cxx11::basic_string<char>, std::allocator<std::__cxx11::basic_string<char> > >::_Vector_impl" = type { %"struct.std::_Vector_base<std::__cxx11::basic_string<char>, std::allocator<std::__cxx11::basic_string<char> > >::_Vector_impl_data" }
%"struct.std::_Vector_base<std::__cxx11::basic_string<char>, std::allocator<std::__cxx11::basic_string<char> > >::_Vector_impl_data" = type { ptr, ptr, ptr }
%"class.std::vector.36" = type { %"struct.std::_Vector_base.37" }
%"struct.std::_Vector_base.37" = type { %"struct.std::_Vector_base<int, std::allocator<int> >::_Vector_impl" }
%"struct.std::_Vector_base<int, std::allocator<int> >::_Vector_impl" = type { %"struct.std::_Vector_base<int, std::allocator<int> >::_Vector_impl_data" }
%"struct.std::_Vector_base<int, std::allocator<int> >::_Vector_impl_data" = type { ptr, ptr, ptr }
%"class.std::vector.41" = type { %"struct.std::_Vector_base.42" }
%"struct.std::_Vector_base.42" = type { %"struct.std::_Vector_base<SectionBasedConfiguration::IterationVariable, std::allocator<SectionBasedConfiguration::IterationVariable> >::_Vector_impl" }
%"struct.std::_Vector_base<SectionBasedConfiguration::IterationVariable, std::allocator<SectionBasedConfiguration::IterationVariable> >::_Vector_impl" = type { %"struct.std::_Vector_base<SectionBasedConfiguration::IterationVariable, std::allocator<SectionBasedConfiguration::IterationVariable> >::_Vector_impl_data" }
%"struct.std::_Vector_base<SectionBasedConfiguration::IterationVariable, std::allocator<SectionBasedConfiguration::IterationVariable> >::_Vector_impl_data" = type { ptr, ptr, ptr }
%class.Scenario = type { ptr, ptr, %"class.std::vector.46", %"class.std::map.51" }
%"class.std::vector.46" = type { %"struct.std::_Vector_base.47" }
%"struct.std::_Vector_base.47" = type { %"struct.std::_Vector_base<ValueIterator, std::allocator<ValueIterator> >::_Vector_impl" }
%"struct.std::_Vector_base<ValueIterator, std::allocator<ValueIterator> >::_Vector_impl" = type { %"struct.std::_Vector_base<ValueIterator, std::allocator<ValueIterator> >::_Vector_impl_data" }
%"struct.std::_Vector_base<ValueIterator, std::allocator<ValueIterator> >::_Vector_impl_data" = type { ptr, ptr, ptr }
%"class.std::map.51" = type { %"class.std::_Rb_tree.52" }
%"class.std::_Rb_tree.52" = type { %"struct.std::_Rb_tree<std::__cxx11::basic_string<char>, std::pair<const std::__cxx11::basic_string<char>, ValueIterator *>, std::_Select1st<std::pair<const std::__cxx11::basic_string<char>, ValueIterator *> >, std::less<std::__cxx11::basic_string<char> > >::_Rb_tree_impl" }
%"struct.std::_Rb_tree<std::__cxx11::basic_string<char>, std::pair<const std::__cxx11::basic_string<char>, ValueIterator *>, std::_Select1st<std::pair<const std::__cxx11::basic_string<char>, ValueIterator *> >, std::less<std::__cxx11::basic_string<char> > >::_Rb_tree_impl" = type { %"struct.std::_Rb_tree_key_compare", %"struct.std::_Rb_tree_header" }
%"struct.SectionBasedConfiguration::IterationVariable" = type { %"class.std::__cxx11::basic_string", %"class.std::__cxx11::basic_string", %"class.std::__cxx11::basic_string", %"class.std::__cxx11::basic_string" }
%"struct.std::_Rb_tree_node.98" = type { %"struct.std::_Rb_tree_node_base", %"struct.std::pair.88" }
%"struct.std::pair.88" = type { %"class.std::__cxx11::basic_string", %"class.SectionBasedConfiguration::KeyValue1" }
%"struct.std::_Rb_tree_node.94" = type { %"struct.std::_Rb_tree_node_base", %"struct.std::pair.72" }
%"struct.std::pair.72" = type { %"class.std::__cxx11::basic_string", %"struct.SectionBasedConfiguration::Group" }
%"struct.std::_Rb_tree_node.102" = type { %"struct.std::_Rb_tree_node_base", %"class.std::__cxx11::basic_string" }
%"struct.std::_Rb_tree<std::__cxx11::basic_string<char>, std::pair<const std::__cxx11::basic_string<char>, std::__cxx11::basic_string<char> >, std::_Select1st<std::pair<const std::__cxx11::basic_string<char>, std::__cxx11::basic_string<char> > >, std::less<std::__cxx11::basic_string<char> > >::_Alloc_node" = type { ptr }
%class.ValueIterator = type <{ %"class.std::vector.56", i32, i32, i32, [4 x i8] }>
%"class.std::vector.56" = type { %"struct.std::_Vector_base.57" }
%"struct.std::_Vector_base.57" = type { %"struct.std::_Vector_base<ValueIterator::Item, std::allocator<ValueIterator::Item> >::_Vector_impl" }
%"struct.std::_Vector_base<ValueIterator::Item, std::allocator<ValueIterator::Item> >::_Vector_impl" = type { %"struct.std::_Vector_base<ValueIterator::Item, std::allocator<ValueIterator::Item> >::_Vector_impl_data" }
%"struct.std::_Vector_base<ValueIterator::Item, std::allocator<ValueIterator::Item> >::_Vector_impl_data" = type { ptr, ptr, ptr }
%"class.std::vector.61" = type { %"struct.std::_Vector_base.62" }
%"struct.std::_Vector_base.62" = type { %"struct.std::_Vector_base<const char *, std::allocator<const char *> >::_Vector_impl" }
%"struct.std::_Vector_base<const char *, std::allocator<const char *> >::_Vector_impl" = type { %"struct.std::_Vector_base<const char *, std::allocator<const char *> >::_Vector_impl_data" }
%"struct.std::_Vector_base<const char *, std::allocator<const char *> >::_Vector_impl_data" = type { ptr, ptr, ptr }
%"struct.std::_Rb_tree<std::__cxx11::basic_string<char>, std::pair<const std::__cxx11::basic_string<char>, SectionBasedConfiguration::KeyValue1>, std::_Select1st<std::pair<const std::__cxx11::basic_string<char>, SectionBasedConfiguration::KeyValue1> >, std::less<std::__cxx11::basic_string<char> > >::_Alloc_node" = type { ptr }
%"struct.std::_Rb_tree<std::__cxx11::basic_string<char>, std::pair<const std::__cxx11::basic_string<char>, SectionBasedConfiguration::Group>, std::_Select1st<std::pair<const std::__cxx11::basic_string<char>, SectionBasedConfiguration::Group> >, std::less<std::__cxx11::basic_string<char> > >::_Alloc_node" = type { ptr }
%class.StringTokenizer = type { ptr, ptr, %"class.std::__cxx11::basic_string" }
%class.cException = type <{ %"class.std::exception", i32, [4 x i8], %"class.std::__cxx11::basic_string", i8, [7 x i8], %"class.std::__cxx11::basic_string", %"class.std::__cxx11::basic_string", i32, [4 x i8] }>
%"class.std::exception" = type { ptr }
%"struct.std::_Rb_tree<std::__cxx11::basic_string<char>, std::pair<const std::__cxx11::basic_string<char>, std::__cxx11::basic_string<char> >, std::_Select1st<std::pair<const std::__cxx11::basic_string<char>, std::__cxx11::basic_string<char> > >, std::less<std::__cxx11::basic_string<char> > >::_Reuse_or_alloc_node" = type { ptr, ptr, ptr }

$__clang_call_terminate = comdat any

$_ZN25SectionBasedConfiguration12NullKeyValueD2Ev = comdat any

$_ZN25SectionBasedConfiguration5GroupD2Ev = comdat any

$_ZNSt6vectorIN25SectionBasedConfiguration9KeyValue1ESaIS1_EED2Ev = comdat any

$_ZN25SectionBasedConfiguration9KeyValue1C2EPKNSt7__cxx1112basic_stringIcSt11char_traitsIcESaIcEEEPKcSA_ = comdat any

$_ZNSt6vectorINSt7__cxx1112basic_stringIcSt11char_traitsIcESaIcEEESaIS5_EED2Ev = comdat any

$_ZNSt6vectorIN25SectionBasedConfiguration17IterationVariableESaIS1_EED2Ev = comdat any

$_ZNSt3mapINSt7__cxx1112basic_stringIcSt11char_traitsIcESaIcEEES5_St4lessIS5_ESaISt4pairIKS5_S5_EEEixERS9_ = comdat any

$_ZN25SectionBasedConfiguration17IterationVariableD2Ev = comdat any

$_ZNSt3mapINSt7__cxx1112basic_stringIcSt11char_traitsIcESaIcEEEN25SectionBasedConfiguration9KeyValue1ESt4lessIS5_ESaISt4pairIKS5_S7_EEEixERSB_ = comdat any

$_ZNSt3mapINSt7__cxx1112basic_stringIcSt11char_traitsIcESaIcEEEN25SectionBasedConfiguration5GroupESt4lessIS5_ESaISt4pairIKS5_S7_EEEixERSB_ = comdat any

$_ZN25SectionBasedConfiguration9KeyValue1D2Ev = comdat any

$_ZNK7cObject7getNameEv = comdat any

$_ZNK7cObject11getFullNameEv = comdat any

$_ZNK7cObject8getOwnerEv = comdat any

$_ZNK7cObject13isOwnedObjectEv = comdat any

$_ZN25SectionBasedConfiguration12NullKeyValueD0Ev = comdat any

$_ZNK25SectionBasedConfiguration12NullKeyValue6getKeyEv = comdat any

$_ZNK25SectionBasedConfiguration12NullKeyValue8getValueEv = comdat any

$_ZNK25SectionBasedConfiguration12NullKeyValue16getBaseDirectoryEv = comdat any

$_ZNSt8_Rb_treeINSt7__cxx1112basic_stringIcSt11char_traitsIcESaIcEEESt4pairIKS5_S5_ESt10_Select1stIS8_ESt4lessIS5_ESaIS8_EE8_M_eraseEPSt13_Rb_tree_nodeIS8_E = comdat any

$_ZNSt4pairIKNSt7__cxx1112basic_stringIcSt11char_traitsIcESaIcEEES5_ED2Ev = comdat any

$_ZNSt8_Rb_treeINSt7__cxx1112basic_stringIcSt11char_traitsIcESaIcEEESt4pairIKS5_N25SectionBasedConfiguration5GroupEESt10_Select1stISA_ESt4lessIS5_ESaISA_EE8_M_eraseEPSt13_Rb_tree_nodeISA_E = comdat any

$_ZNSt8_Rb_treeINSt7__cxx1112basic_stringIcSt11char_traitsIcESaIcEEESt4pairIKS5_N25SectionBasedConfiguration5GroupEESt10_Select1stISA_ESt4lessIS5_ESaISA_EE12_M_drop_nodeEPSt13_Rb_tree_nodeISA_E = comdat any

$_ZNSt4pairIKNSt7__cxx1112basic_stringIcSt11char_traitsIcESaIcEEEN25SectionBasedConfiguration5GroupEED2Ev = comdat any

$_ZNSt8_Rb_treeINSt7__cxx1112basic_stringIcSt11char_traitsIcESaIcEEESt4pairIKS5_N25SectionBasedConfiguration9KeyValue1EESt10_Select1stISA_ESt4lessIS5_ESaISA_EE8_M_eraseEPSt13_Rb_tree_nodeISA_E = comdat any

$_ZNSt4pairIKNSt7__cxx1112basic_stringIcSt11char_traitsIcESaIcEEEN25SectionBasedConfiguration9KeyValue1EED2Ev = comdat any

$_ZNSt8_Rb_treeINSt7__cxx1112basic_stringIcSt11char_traitsIcESaIcEEES5_St9_IdentityIS5_ESt4lessIS5_ESaIS5_EE8_M_eraseEPSt13_Rb_tree_nodeIS5_E = comdat any

$_ZN10cExceptionD2Ev = comdat any

$_ZN10cExceptionD0Ev = comdat any

$_ZNK10cException4whatEv = comdat any

$_ZNK10cException3dupEv = comdat any

$_ZNK10cException12getErrorCodeEv = comdat any

$_ZN10cException10setMessageEPKc = comdat any

$_ZN10cException14prependMessageEPKc = comdat any

$_ZNK10cException10hasContextEv = comdat any

$_ZNK10cException19getContextClassNameEv = comdat any

$_ZNK10cException18getContextFullPathEv = comdat any

$_ZNK10cException11getModuleIDEv = comdat any

$_ZN25SectionBasedConfiguration9KeyValue1D0Ev = comdat any

$_ZNK25SectionBasedConfiguration9KeyValue16getKeyEv = comdat any

$_ZNK25SectionBasedConfiguration9KeyValue18getValueEv = comdat any

$_ZNK25SectionBasedConfiguration9KeyValue116getBaseDirectoryEv = comdat any

$_ZN25SectionBasedConfiguration9KeyValue2D0Ev = comdat any

$_ZNSt6vectorIN25SectionBasedConfiguration9KeyValue1ESaIS1_EE17_M_realloc_insertEN9__gnu_cxx17__normal_iteratorIPS1_S3_EERKS1_ = comdat any

$_ZN25SectionBasedConfiguration9KeyValue1C2ERKS0_ = comdat any

$_ZNSt6vectorINSt7__cxx1112basic_stringIcSt11char_traitsIcESaIcEEESaIS5_EE17_M_realloc_insertEN9__gnu_cxx17__normal_iteratorIPS5_S7_EERKS5_ = comdat any

$_ZSt16__do_uninit_copyIPNSt7__cxx1112basic_stringIcSt11char_traitsIcESaIcEEES6_ET0_T_S8_S7_ = comdat any

$_ZNSt4pairIKNSt7__cxx1112basic_stringIcSt11char_traitsIcESaIcEEES5_EC2ERS6_S8_ = comdat any

$_ZNSt8_Rb_treeINSt7__cxx1112basic_stringIcSt11char_traitsIcESaIcEEESt4pairIKS5_S5_ESt10_Select1stIS8_ESt4lessIS5_ESaIS8_EE29_M_get_insert_hint_unique_posESt23_Rb_tree_const_iteratorIS8_ERS7_ = comdat any

$_ZNSt8_Rb_treeINSt7__cxx1112basic_stringIcSt11char_traitsIcESaIcEEESt4pairIKS5_S5_ESt10_Select1stIS8_ESt4lessIS5_ESaIS8_EE10_M_insert_INSE_11_Alloc_nodeEEESt17_Rb_tree_iteratorIS8_EPSt18_Rb_tree_node_baseSK_RKS8_RT_ = comdat any

$_ZNSt8_Rb_treeINSt7__cxx1112basic_stringIcSt11char_traitsIcESaIcEEESt4pairIKS5_S5_ESt10_Select1stIS8_ESt4lessIS5_ESaIS8_EE24_M_get_insert_unique_posERS7_ = comdat any

$_ZNSt4pairIKNSt7__cxx1112basic_stringIcSt11char_traitsIcESaIcEEES5_EC2ERKS7_ = comdat any

$_ZNSt8_Rb_treeINSt7__cxx1112basic_stringIcSt11char_traitsIcESaIcEEESt4pairIKS5_S5_ESt10_Select1stIS8_ESt4lessIS5_ESaIS8_EE7_M_copyILb0ENSE_11_Alloc_nodeEEEPSt13_Rb_tree_nodeIS8_ESJ_PSt18_Rb_tree_node_baseRT0_ = comdat any

$_ZNSt8_Rb_treeINSt7__cxx1112basic_stringIcSt11char_traitsIcESaIcEEESt4pairIKS5_S5_ESt10_Select1stIS8_ESt4lessIS5_ESaIS8_EEaSERKSE_ = comdat any

$_ZNSt8_Rb_treeINSt7__cxx1112basic_stringIcSt11char_traitsIcESaIcEEESt4pairIKS5_S5_ESt10_Select1stIS8_ESt4lessIS5_ESaIS8_EE7_M_copyILb0ENSE_20_Reuse_or_alloc_nodeEEEPSt13_Rb_tree_nodeIS8_ESJ_PSt18_Rb_tree_node_baseRT0_ = comdat any

$_ZNSt8_Rb_treeINSt7__cxx1112basic_stringIcSt11char_traitsIcESaIcEEESt4pairIKS5_S5_ESt10_Select1stIS8_ESt4lessIS5_ESaIS8_EE20_Reuse_or_alloc_nodeclIS8_EEPSt13_Rb_tree_nodeIS8_ERKT_ = comdat any

$_ZNSt6vectorIN25SectionBasedConfiguration17IterationVariableESaIS1_EE17_M_realloc_insertEN9__gnu_cxx17__normal_iteratorIPS1_S3_EERKS1_ = comdat any

$_ZN25SectionBasedConfiguration17IterationVariableC2ERKS0_ = comdat any

$_ZNSt20__uninitialized_copyILb0EE13__uninit_copyIPN25SectionBasedConfiguration17IterationVariableES4_EET0_T_S6_S5_ = comdat any

$_ZNSt6vectorIPKcSaIS1_EE17_M_realloc_insertEN9__gnu_cxx17__normal_iteratorIPS1_S3_EERKS1_ = comdat any

$_ZNSt6vectorIiSaIiEE17_M_realloc_insertEN9__gnu_cxx17__normal_iteratorIPiS1_EERKi = comdat any

$_ZNSt8_Rb_treeINSt7__cxx1112basic_stringIcSt11char_traitsIcESaIcEEESt4pairIKS5_N25SectionBasedConfiguration9KeyValue1EESt10_Select1stISA_ESt4lessIS5_ESaISA_EE17_M_insert_unique_INSG_11_Alloc_nodeEEESt17_Rb_tree_iteratorISA_ESt23_Rb_tree_const_iteratorISA_ERKSA_RT_ = comdat any

$_ZNSt8_Rb_treeINSt7__cxx1112basic_stringIcSt11char_traitsIcESaIcEEESt4pairIKS5_N25SectionBasedConfiguration9KeyValue1EESt10_Select1stISA_ESt4lessIS5_ESaISA_EE29_M_get_insert_hint_unique_posESt23_Rb_tree_const_iteratorISA_ERS7_ = comdat any

$_ZNSt8_Rb_treeINSt7__cxx1112basic_stringIcSt11char_traitsIcESaIcEEESt4pairIKS5_N25SectionBasedConfiguration9KeyValue1EESt10_Select1stISA_ESt4lessIS5_ESaISA_EE24_M_get_insert_unique_posERS7_ = comdat any

$_ZNSt8_Rb_treeINSt7__cxx1112basic_stringIcSt11char_traitsIcESaIcEEESt4pairIKS5_N25SectionBasedConfiguration9KeyValue1EESt10_Select1stISA_ESt4lessIS5_ESaISA_EE17_M_construct_nodeEPSt13_Rb_tree_nodeISA_ERKSA_ = comdat any

$_ZNSt8_Rb_treeINSt7__cxx1112basic_stringIcSt11char_traitsIcESaIcEEESt4pairIKS5_N25SectionBasedConfiguration5GroupEESt10_Select1stISA_ESt4lessIS5_ESaISA_EE17_M_insert_unique_INSG_11_Alloc_nodeEEESt17_Rb_tree_iteratorISA_ESt23_Rb_tree_const_iteratorISA_ERKSA_RT_ = comdat any

$_ZNSt8_Rb_treeINSt7__cxx1112basic_stringIcSt11char_traitsIcESaIcEEESt4pairIKS5_N25SectionBasedConfiguration5GroupEESt10_Select1stISA_ESt4lessIS5_ESaISA_EE29_M_get_insert_hint_unique_posESt23_Rb_tree_const_iteratorISA_ERS7_ = comdat any

$_ZNSt8_Rb_treeINSt7__cxx1112basic_stringIcSt11char_traitsIcESaIcEEESt4pairIKS5_N25SectionBasedConfiguration5GroupEESt10_Select1stISA_ESt4lessIS5_ESaISA_EE24_M_get_insert_unique_posERS7_ = comdat any

$_ZNSt8_Rb_treeINSt7__cxx1112basic_stringIcSt11char_traitsIcESaIcEEESt4pairIKS5_N25SectionBasedConfiguration5GroupEESt10_Select1stISA_ESt4lessIS5_ESaISA_EE17_M_construct_nodeEPSt13_Rb_tree_nodeISA_ERKSA_ = comdat any

$_ZNSt6vectorIN25SectionBasedConfiguration9KeyValue2ESaIS1_EEC2ERKS3_ = comdat any

$_ZNSt6vectorIN25SectionBasedConfiguration9KeyValue2ESaIS1_EE17_M_realloc_insertEN9__gnu_cxx17__normal_iteratorIPS1_S3_EERKS1_ = comdat any

$_ZNSt8_Rb_treeINSt7__cxx1112basic_stringIcSt11char_traitsIcESaIcEEES5_St9_IdentityIS5_ESt4lessIS5_ESaIS5_EE16_M_insert_uniqueERKS5_ = comdat any

$_ZNSt8_Rb_treeINSt7__cxx1112basic_stringIcSt11char_traitsIcESaIcEEES5_St9_IdentityIS5_ESt4lessIS5_ESaIS5_EE24_M_get_insert_unique_posERKS5_ = comdat any

$_ZNSt8_Rb_treeINSt7__cxx1112basic_stringIcSt11char_traitsIcESaIcEEES5_St9_IdentityIS5_ESt4lessIS5_ESaIS5_EE17_M_construct_nodeEPSt13_Rb_tree_nodeIS5_ERKS5_ = comdat any

$_ZTS13cRuntimeError = comdat any

$_ZTS10cException = comdat any

$_ZTI10cException = comdat any

$_ZTI13cRuntimeError = comdat any

$_ZTS20cConfigurationReader = comdat any

$_ZTI20cConfigurationReader = comdat any

$_ZTS16cConfigurationEx = comdat any

$_ZTI16cConfigurationEx = comdat any

$_ZTVN25SectionBasedConfiguration12NullKeyValueE = comdat any

$_ZTSN25SectionBasedConfiguration12NullKeyValueE = comdat any

$_ZTSN14cConfiguration8KeyValueE = comdat any

$_ZTIN14cConfiguration8KeyValueE = comdat any

$_ZTIN25SectionBasedConfiguration12NullKeyValueE = comdat any

$_ZTV10cException = comdat any

$_ZTVN25SectionBasedConfiguration9KeyValue1E = comdat any

$_ZTSN25SectionBasedConfiguration9KeyValue1E = comdat any

$_ZTIN25SectionBasedConfiguration9KeyValue1E = comdat any

$_ZTVN25SectionBasedConfiguration9KeyValue2E = comdat any

$_ZTSN25SectionBasedConfiguration9KeyValue2E = comdat any

$_ZTIN25SectionBasedConfiguration9KeyValue2E = comdat any

@CFGID_SECTIONBASEDCONFIG_CONFIGREADER_CLASS = dso_local local_unnamed_addr global ptr null, align 8
@_ZN12_GLOBAL__N_118__onstartup_obj_41E = internal global %class.ExecuteOnStartup zeroinitializer, align 8
@__dso_handle = external hidden global i8
@CFGID_DESCRIPTION = dso_local local_unnamed_addr global ptr null, align 8
@_ZN12_GLOBAL__N_118__onstartup_obj_42E = internal global %class.ExecuteOnStartup zeroinitializer, align 8
@CFGID_EXTENDS = dso_local local_unnamed_addr global ptr null, align 8
@_ZN12_GLOBAL__N_118__onstartup_obj_43E = internal global %class.ExecuteOnStartup zeroinitializer, align 8
@CFGID_CONSTRAINT = dso_local local_unnamed_addr global ptr null, align 8
@_ZN12_GLOBAL__N_118__onstartup_obj_44E = internal global %class.ExecuteOnStartup zeroinitializer, align 8
@CFGID_REPEAT = dso_local local_unnamed_addr global ptr null, align 8
@_ZN12_GLOBAL__N_118__onstartup_obj_45E = internal global %class.ExecuteOnStartup zeroinitializer, align 8
@CFGID_EXPERIMENT_LABEL = dso_local local_unnamed_addr global ptr null, align 8
@_ZN12_GLOBAL__N_118__onstartup_obj_46E = internal global %class.ExecuteOnStartup zeroinitializer, align 8
@CFGID_MEASUREMENT_LABEL = dso_local local_unnamed_addr global ptr null, align 8
@_ZN12_GLOBAL__N_118__onstartup_obj_47E = internal global %class.ExecuteOnStartup zeroinitializer, align 8
@CFGID_REPLICATION_LABEL = dso_local local_unnamed_addr global ptr null, align 8
@_ZN12_GLOBAL__N_118__onstartup_obj_48E = internal global %class.ExecuteOnStartup zeroinitializer, align 8
@CFGID_RUNNUMBER_WIDTH = dso_local local_unnamed_addr global ptr null, align 8
@_ZN12_GLOBAL__N_118__onstartup_obj_49E = internal global %class.ExecuteOnStartup zeroinitializer, align 8
@_ZN12_GLOBAL__N_118__onstartup_obj_55E = internal global %class.ExecuteOnStartup zeroinitializer, align 8
@_ZN25SectionBasedConfiguration9KeyValue111nullbasedirB5cxx11E = dso_local global %"class.std::__cxx11::basic_string" zeroinitializer, align 8
@_ZTV25SectionBasedConfiguration = dso_local unnamed_addr constant { [66 x ptr] } { [66 x ptr] [ptr null, ptr @_ZTI25SectionBasedConfiguration, ptr @_ZN7cObject13getDescriptorEv, ptr @_ZN7cObject18ownedObjectDeletedEP12cOwnedObject, ptr @_ZN7cObject14yieldOwnershipEP12cOwnedObjectPS_, ptr @_ZN25SectionBasedConfigurationD2Ev, ptr @_ZN25SectionBasedConfigurationD0Ev, ptr @_ZNK7cObject12getClassNameEv, ptr @_ZNK7cObject7getNameEv, ptr @_ZNK7cObject11getFullNameEv, ptr @_ZNK7cObject11getFullPathB5cxx11Ev, ptr @_ZNK7cObject4infoB5cxx11Ev, ptr @_ZNK7cObject12detailedInfoB5cxx11Ev, ptr @_ZNK7cObject3dupEv, ptr @_ZN7cObject4takeEP12cOwnedObject, ptr @_ZN7cObject4dropEP12cOwnedObject, ptr @_ZN7cObject10parsimPackEP11cCommBuffer, ptr @_ZN7cObject12parsimUnpackEP11cCommBuffer, ptr @_ZNK7cObject8getOwnerEv, ptr @_ZNK7cObject13isOwnedObjectEv, ptr @_ZN7cObject12forEachChildEP8cVisitor, ptr @_ZN25SectionBasedConfiguration19substituteVariablesEPKc, ptr @_ZNK25SectionBasedConfiguration14getConfigValueEPKc, ptr @_ZNK25SectionBasedConfiguration14getConfigEntryEPKc, ptr @_ZNK25SectionBasedConfiguration23getPerObjectConfigValueEPKcS1_, ptr @_ZNK25SectionBasedConfiguration23getPerObjectConfigEntryEPKcS1_, ptr @_ZN14cConfiguration11getAsCustomEP13cConfigOptionPKc, ptr @_ZN14cConfiguration9getAsBoolEP13cConfigOptionb, ptr @_ZN14cConfiguration8getAsIntEP13cConfigOptionl, ptr @_ZN14cConfiguration11getAsDoubleEP13cConfigOptiond, ptr @_ZN14cConfiguration11getAsStringB5cxx11EP13cConfigOptionPKc, ptr @_ZN14cConfiguration13getAsFilenameB5cxx11EP13cConfigOption, ptr @_ZN14cConfiguration14getAsFilenamesB5cxx11EP13cConfigOption, ptr @_ZN14cConfiguration9getAsPathB5cxx11EP13cConfigOption, ptr @_ZN14cConfiguration11getAsCustomEPKcP13cConfigOptionS1_, ptr @_ZN14cConfiguration9getAsBoolEPKcP13cConfigOptionb, ptr @_ZN14cConfiguration8getAsIntEPKcP13cConfigOptionl, ptr @_ZN14cConfiguration11getAsDoubleEPKcP13cConfigOptiond, ptr @_ZN14cConfiguration11getAsStringB5cxx11EPKcP13cConfigOptionS1_, ptr @_ZN14cConfiguration13getAsFilenameB5cxx11EPKcP13cConfigOption, ptr @_ZN14cConfiguration14getAsFilenamesB5cxx11EPKcP13cConfigOption, ptr @_ZN14cConfiguration9getAsPathB5cxx11EPKcP13cConfigOption, ptr @_ZN25SectionBasedConfiguration14initializeFromEP14cConfiguration, ptr @_ZNK25SectionBasedConfiguration11getFileNameEv, ptr @_ZNK25SectionBasedConfiguration8validateEPKc, ptr @_ZN25SectionBasedConfiguration14getConfigNamesB5cxx11Ev, ptr @_ZN25SectionBasedConfiguration14activateConfigEPKci, ptr @_ZNK25SectionBasedConfiguration20getConfigDescriptionB5cxx11EPKc, ptr @_ZNK25SectionBasedConfiguration13getBaseConfigB5cxx11EPKc, ptr @_ZNK25SectionBasedConfiguration18getNumRunsInConfigEPKc, ptr @_ZNK25SectionBasedConfiguration12unrollConfigB5cxx11EPKcb, ptr @_ZNK25SectionBasedConfiguration19getActiveConfigNameEv, ptr @_ZNK25SectionBasedConfiguration18getActiveRunNumberEv, ptr @_ZNK25SectionBasedConfiguration11getVariableEPKc, ptr @_ZNK25SectionBasedConfiguration25getIterationVariableNamesEv, ptr @_ZNK25SectionBasedConfiguration26getPredefinedVariableNamesEv, ptr @_ZNK25SectionBasedConfiguration22getVariableDescriptionEPKc, ptr @_ZNK25SectionBasedConfiguration4dumpEv, ptr @_ZNK25SectionBasedConfiguration21getMatchingConfigKeysEPKc, ptr @_ZNK25SectionBasedConfiguration17getParameterValueEPKcS1_b, ptr @_ZNK25SectionBasedConfiguration17getParameterEntryEPKcS1_b, ptr @_ZNK25SectionBasedConfiguration25getParameterKeyValuePairsEv, ptr @_ZNK25SectionBasedConfiguration30getMatchingPerObjectConfigKeysEPKcS1_, ptr @_ZNK25SectionBasedConfiguration37getMatchingPerObjectConfigKeySuffixesEPKcS1_, ptr @_ZN25SectionBasedConfiguration22setConfigurationReaderEP20cConfigurationReader, ptr @_ZN25SectionBasedConfiguration27setCommandLineConfigOptionsERKSt3mapINSt7__cxx1112basic_stringIcSt11char_traitsIcESaIcEEES6_St4lessIS6_ESaISt4pairIKS6_S6_EEE] }, align 8
@.str = private unnamed_addr constant [47 x i8] c"Unknown command-line configuration option --%s\00", align 1
@_ZTVN10__cxxabiv120__si_class_type_infoE = external global ptr
@_ZTS13cRuntimeError = linkonce_odr dso_local constant [16 x i8] c"13cRuntimeError\00", comdat, align 1
@_ZTS10cException = linkonce_odr dso_local constant [13 x i8] c"10cException\00", comdat, align 1
@_ZTISt9exception = external constant ptr
@_ZTI10cException = linkonce_odr dso_local constant { ptr, ptr, ptr } { ptr getelementptr inbounds (ptr, ptr @_ZTVN10__cxxabiv120__si_class_type_infoE, i64 2), ptr @_ZTS10cException, ptr @_ZTISt9exception }, comdat, align 8
@_ZTI13cRuntimeError = linkonce_odr dso_local constant { ptr, ptr, ptr } { ptr getelementptr inbounds (ptr, ptr @_ZTVN10__cxxabiv120__si_class_type_infoE, i64 2), ptr @_ZTS13cRuntimeError, ptr @_ZTI10cException }, comdat, align 8
@.str.11 = private unnamed_addr constant [76 x i8] c"Wrong command-line configuration option --%s: %s is not a per-object option\00", align 1
@.str.12 = private unnamed_addr constant [4 x i8] c"**.\00", align 1
@.str.13 = private unnamed_addr constant [57 x i8] c"Missing value for command-line configuration option --%s\00", align 1
@.str.14 = private unnamed_addr constant [1 x i8] zeroinitializer, align 1
@.str.15 = private unnamed_addr constant [87 x i8] c"SectionBasedConfiguration: no configuration reader class specified (missing %s option)\00", align 1
@_ZTI7cObject = external constant ptr
@_ZTVN10__cxxabiv117__class_type_infoE = external global ptr
@_ZTS20cConfigurationReader = linkonce_odr dso_local constant [23 x i8] c"20cConfigurationReader\00", comdat, align 1
@_ZTI20cConfigurationReader = linkonce_odr dso_local constant { ptr, ptr } { ptr getelementptr inbounds (ptr, ptr @_ZTVN10__cxxabiv117__class_type_infoE, i64 2), ptr @_ZTS20cConfigurationReader }, comdat, align 8
@.str.16 = private unnamed_addr constant [55 x i8] c"Class \22%s\22 is not subclassed from cConfigurationReader\00", align 1
@.str.17 = private unnamed_addr constant [8 x i8] c"General\00", align 1
@.str.18 = private unnamed_addr constant [8 x i8] c"Config \00", align 1
@.str.19 = private unnamed_addr constant [19 x i8] c"No such config: %s\00", align 1
@.str.20 = private unnamed_addr constant [28 x i8] c"Empty config name specified\00", align 1
@.str.21 = private unnamed_addr constant [76 x i8] c"Run number %d is out of range for configuration `%s': it contains %d run(s)\00", align 1
@.str.22 = private unnamed_addr constant [23 x i8] c"Scenario generator: %s\00", align 1
@.str.23 = private unnamed_addr constant [8 x i8] c"inifile\00", align 1
@.str.24 = private unnamed_addr constant [11 x i8] c"configname\00", align 1
@.str.25 = private unnamed_addr constant [5 x i8] c"%0*d\00", align 1
@.str.26 = private unnamed_addr constant [10 x i8] c"runnumber\00", align 1
@CFGID_NETWORK = external local_unnamed_addr global ptr, align 8
@.str.27 = private unnamed_addr constant [8 x i8] c"network\00", align 1
@.str.28 = private unnamed_addr constant [12 x i8] c"speccpu-pid\00", align 1
@.str.29 = private unnamed_addr constant [10 x i8] c"processid\00", align 1
@.str.30 = private unnamed_addr constant [17 x i8] c"speccpu-datetime\00", align 1
@.str.31 = private unnamed_addr constant [9 x i8] c"datetime\00", align 1
@.str.32 = private unnamed_addr constant [14 x i8] c"speccpu-runid\00", align 1
@.str.33 = private unnamed_addr constant [6 x i8] c"runid\00", align 1
@CFGID_RESULT_DIR = external local_unnamed_addr global ptr, align 8
@.str.34 = private unnamed_addr constant [10 x i8] c"resultdir\00", align 1
@.str.35 = private unnamed_addr constant [3 x i8] c"%d\00", align 1
@.str.37 = private unnamed_addr constant [2 x i8] c"$\00", align 1
@.str.38 = private unnamed_addr constant [2 x i8] c"=\00", align 1
@.str.39 = private unnamed_addr constant [11 x i8] c"repetition\00", align 1
@.str.41 = private unnamed_addr constant [14 x i8] c"iterationvars\00", align 1
@.str.42 = private unnamed_addr constant [15 x i8] c"iterationvars2\00", align 1
@CFGID_SEED_SET = external local_unnamed_addr global ptr, align 8
@.str.43 = private unnamed_addr constant [8 x i8] c"seedset\00", align 1
@.str.44 = private unnamed_addr constant [11 x i8] c"experiment\00", align 1
@.str.45 = private unnamed_addr constant [12 x i8] c"measurement\00", align 1
@.str.46 = private unnamed_addr constant [12 x i8] c"replication\00", align 1
@.str.47 = private unnamed_addr constant [4 x i8] c"\09# \00", align 1
@.str.48 = private unnamed_addr constant [2 x i8] c"\0A\00", align 1
@.str.49 = private unnamed_addr constant [3 x i8] c"${\00", align 1
@.str.51 = private unnamed_addr constant [4 x i8] c" = \00", align 1
@.str.52 = private unnamed_addr constant [32 x i8] c"Scenario generator: %s at %s=%s\00", align 1
@.str.53 = private unnamed_addr constant [82 x i8] c"Scenario generator: redefinition of iteration variable ${%s} in the configuration\00", align 1
@.str.54 = private unnamed_addr constant [73 x i8] c"Scenario generator: ${%s} is a predefined variable and cannot be changed\00", align 1
@.str.55 = private unnamed_addr constant [9 x i8] c"%d-%d-%d\00", align 1
@.str.56 = private unnamed_addr constant [6 x i8] c"0..%d\00", align 1
@.str.57 = private unnamed_addr constant [21 x i8] c"missing '}' for '${'\00", align 1
@.str.58 = private unnamed_addr constant [30 x i8] c"missing '=' after '${varname'\00", align 1
@.str.59 = private unnamed_addr constant [63 x i8] c"the ${var=...} and ${...!var} syntaxes cannot be used together\00", align 1
@.str.60 = private unnamed_addr constant [24 x i8] c"no such variable: ${%s}\00", align 1
@.str.61 = private unnamed_addr constant [56 x i8] c"parallel iterator ${...!%s} does not have enough values\00", align 1
@_ZL21configVarDescriptions = internal global [16 x %struct.ConfigVarDescription] [%struct.ConfigVarDescription { ptr @.str.33, ptr @.str.150 }, %struct.ConfigVarDescription { ptr @.str.23, ptr @.str.151 }, %struct.ConfigVarDescription { ptr @.str.24, ptr @.str.152 }, %struct.ConfigVarDescription { ptr @.str.26, ptr @.str.153 }, %struct.ConfigVarDescription { ptr @.str.27, ptr @.str.154 }, %struct.ConfigVarDescription { ptr @.str.44, ptr @.str.155 }, %struct.ConfigVarDescription { ptr @.str.45, ptr @.str.156 }, %struct.ConfigVarDescription { ptr @.str.46, ptr @.str.157 }, %struct.ConfigVarDescription { ptr @.str.29, ptr @.str.158 }, %struct.ConfigVarDescription { ptr @.str.31, ptr @.str.159 }, %struct.ConfigVarDescription { ptr @.str.34, ptr @.str.160 }, %struct.ConfigVarDescription { ptr @.str.39, ptr @.str.161 }, %struct.ConfigVarDescription { ptr @.str.43, ptr @.str.162 }, %struct.ConfigVarDescription { ptr @.str.41, ptr @.str.163 }, %struct.ConfigVarDescription { ptr @.str.42, ptr @.str.164 }, %struct.ConfigVarDescription zeroinitializer], align 16
@.str.62 = private unnamed_addr constant [32 x i8] c"User-defined iteration variable\00", align 1
@.str.63 = private unnamed_addr constant [50 x i8] c"Cycle detected in section fallback chain at: [%s]\00", align 1
@.str.64 = private unnamed_addr constant [3 x i8] c"**\00", align 1
@.str.65 = private unnamed_addr constant [2 x i8] c"*\00", align 1
@.str.66 = private unnamed_addr constant [20 x i8] c"no such section: %s\00", align 1
@.str.67 = private unnamed_addr constant [11 x i8] c"Parameters\00", align 1
@.str.68 = private unnamed_addr constant [7 x i8] c"Cmdenv\00", align 1
@.str.69 = private unnamed_addr constant [6 x i8] c"Tkenv\00", align 1
@.str.70 = private unnamed_addr constant [11 x i8] c"OutVectors\00", align 1
@.str.71 = private unnamed_addr constant [13 x i8] c"Partitioning\00", align 1
@.str.72 = private unnamed_addr constant [15 x i8] c"DisplayStrings\00", align 1
@.str.73 = private unnamed_addr constant [10 x i8] c"autoflush\00", align 1
@.str.74 = private unnamed_addr constant [21 x i8] c"event-banner-details\00", align 1
@.str.75 = private unnamed_addr constant [14 x i8] c"event-banners\00", align 1
@.str.76 = private unnamed_addr constant [13 x i8] c"express-mode\00", align 1
@.str.77 = private unnamed_addr constant [14 x i8] c"message-trace\00", align 1
@.str.78 = private unnamed_addr constant [16 x i8] c"module-messages\00", align 1
@.str.79 = private unnamed_addr constant [12 x i8] c"output-file\00", align 1
@.str.80 = private unnamed_addr constant [20 x i8] c"performance-display\00", align 1
@.str.81 = private unnamed_addr constant [16 x i8] c"runs-to-execute\00", align 1
@.str.82 = private unnamed_addr constant [17 x i8] c"status-frequency\00", align 1
@.str.83 = private unnamed_addr constant [17 x i8] c"anim-methodcalls\00", align 1
@.str.84 = private unnamed_addr constant [18 x i8] c"animation-enabled\00", align 1
@.str.85 = private unnamed_addr constant [24 x i8] c"animation-msgclassnames\00", align 1
@.str.86 = private unnamed_addr constant [20 x i8] c"animation-msgcolors\00", align 1
@.str.87 = private unnamed_addr constant [19 x i8] c"animation-msgnames\00", align 1
@.str.88 = private unnamed_addr constant [16 x i8] c"animation-speed\00", align 1
@.str.89 = private unnamed_addr constant [12 x i8] c"default-run\00", align 1
@.str.90 = private unnamed_addr constant [23 x i8] c"expressmode-autoupdate\00", align 1
@.str.91 = private unnamed_addr constant [11 x i8] c"image-path\00", align 1
@.str.92 = private unnamed_addr constant [18 x i8] c"methodcalls-delay\00", align 1
@.str.93 = private unnamed_addr constant [19 x i8] c"next-event-markers\00", align 1
@.str.94 = private unnamed_addr constant [13 x i8] c"penguin-mode\00", align 1
@.str.95 = private unnamed_addr constant [12 x i8] c"plugin-path\00", align 1
@.str.96 = private unnamed_addr constant [14 x i8] c"print-banners\00", align 1
@.str.97 = private unnamed_addr constant [18 x i8] c"senddirect-arrows\00", align 1
@.str.98 = private unnamed_addr constant [13 x i8] c"show-bubbles\00", align 1
@.str.99 = private unnamed_addr constant [15 x i8] c"show-layouting\00", align 1
@.str.100 = private unnamed_addr constant [15 x i8] c"slowexec-delay\00", align 1
@.str.101 = private unnamed_addr constant [20 x i8] c"update-freq-express\00", align 1
@.str.102 = private unnamed_addr constant [17 x i8] c"update-freq-fast\00", align 1
@.str.103 = private unnamed_addr constant [15 x i8] c"use-mainwindow\00", align 1
@.str.104 = private unnamed_addr constant [17 x i8] c"use-new-layouter\00", align 1
@.str.105 = private unnamed_addr constant [76 x i8] c"Obsolete section name [%s] found, please convert the ini file to 4.x format\00", align 1
@.str.106 = private unnamed_addr constant [80 x i8] c"Obsolete configuration key %s= found, please convert the ini file to 4.x format\00", align 1
@.str.107 = private unnamed_addr constant [66 x i8] c"Invalid section name [%s], should be [General] or [Config <name>]\00", align 1
@.str.108 = private unnamed_addr constant [43 x i8] c"Invalid section name [%s]: too many spaces\00", align 1
@.str.109 = private unnamed_addr constant [78 x i8] c"Invalid section name [%s]: config name must begin with a letter or underscore\00", align 1
@.str.110 = private unnamed_addr constant [4 x i8] c"-_@\00", align 1
@.str.111 = private unnamed_addr constant [59 x i8] c"Invalid section name [%s], contains illegal character '%c'\00", align 1
@.str.112 = private unnamed_addr constant [35 x i8] c"Configuration name '%s' not unique\00", align 1
@.str.113 = private unnamed_addr constant [30 x i8] c"Unknown configuration key: %s\00", align 1
@.str.114 = private unnamed_addr constant [64 x i8] c"Configuration key %s should be specified per object, try **.%s=\00", align 1
@.str.115 = private unnamed_addr constant [61 x i8] c"Configuration key %s may only occur in the [General] section\00", align 1
@.str.116 = private unnamed_addr constant [51 x i8] c"The [General] section cannot extend other sections\00", align 1
@.str.117 = private unnamed_addr constant [48 x i8] c"Unknown per-object configuration key `%s' in %s\00", align 1
@configOptions = external global %class.cGlobalRegistrationList, align 8
@.str.118 = private unnamed_addr constant [2 x i8] c"%\00", align 1
@.str.119 = private unnamed_addr constant [5 x i8] c"{..}\00", align 1
@.str.120 = private unnamed_addr constant [8 x i8] c"default\00", align 1
@.str.121 = private unnamed_addr constant [2 x i8] c".\00", align 1
@.str.123 = private unnamed_addr constant [11 x i8] c"  %s = %s\0A\00", align 1
@.str.124 = private unnamed_addr constant [11 x i8] c"Group %s:\0A\00", align 1
@_ZTS25SectionBasedConfiguration = dso_local constant [28 x i8] c"25SectionBasedConfiguration\00", align 1
@_ZTS16cConfigurationEx = linkonce_odr dso_local constant [19 x i8] c"16cConfigurationEx\00", comdat, align 1
@_ZTI14cConfiguration = external constant ptr
@_ZTI16cConfigurationEx = linkonce_odr dso_local constant { ptr, ptr, ptr } { ptr getelementptr inbounds (ptr, ptr @_ZTVN10__cxxabiv120__si_class_type_infoE, i64 2), ptr @_ZTS16cConfigurationEx, ptr @_ZTI14cConfiguration }, comdat, align 8
@_ZTI25SectionBasedConfiguration = dso_local constant { ptr, ptr, ptr } { ptr getelementptr inbounds (ptr, ptr @_ZTVN10__cxxabiv120__si_class_type_infoE, i64 2), ptr @_ZTS25SectionBasedConfiguration, ptr @_ZTI16cConfigurationEx }, align 8
@.str.126 = private unnamed_addr constant [38 x i8] c"sectionbasedconfig-configreader-class\00", align 1
@.str.127 = private unnamed_addr constant [143 x i8] c"When configuration-class=SectionBasedConfiguration: selects the configuration reader C++ class, which must subclass from cConfigurationReader.\00", align 1
@.str.128 = private unnamed_addr constant [12 x i8] c"description\00", align 1
@.str.129 = private unnamed_addr constant [113 x i8] c"Descriptive name for the given simulation configuration. Descriptions get displayed in the run selection dialog.\00", align 1
@.str.130 = private unnamed_addr constant [8 x i8] c"extends\00", align 1
@.str.131 = private unnamed_addr constant [193 x i8] c"Name of the configuration this section is based on. Entries from that section will be inherited and can be overridden. In other words, configuration lookups will fall back to the base section.\00", align 1
@.str.132 = private unnamed_addr constant [11 x i8] c"constraint\00", align 1
@.str.133 = private unnamed_addr constant [137 x i8] c"For scenarios. Contains an expression that iteration variables (${} syntax) must satisfy for that simulation to run. Example: $i < $j+1.\00", align 1
@.str.134 = private unnamed_addr constant [7 x i8] c"repeat\00", align 1
@.str.135 = private unnamed_addr constant [2 x i8] c"1\00", align 1
@.str.136 = private unnamed_addr constant [268 x i8] c"For scenarios. Specifies how many replications should be done with the same parameters (iteration variables). This is typically used to perform multiple runs with different random number seeds. The loop variable is available as ${repetition}. See also: seed-set= key.\00", align 1
@.str.137 = private unnamed_addr constant [17 x i8] c"experiment-label\00", align 1
@.str.138 = private unnamed_addr constant [14 x i8] c"${configname}\00", align 1
@.str.139 = private unnamed_addr constant [193 x i8] c"Identifies the simulation experiment (which consists of several, potentially repeated measurements). This string gets recorded into result files, and may be referred to during result analysis.\00", align 1
@.str.140 = private unnamed_addr constant [18 x i8] c"measurement-label\00", align 1
@.str.141 = private unnamed_addr constant [17 x i8] c"${iterationvars}\00", align 1
@.str.142 = private unnamed_addr constant [142 x i8] c"Identifies the measurement within the experiment. This string gets recorded into result files, and may be referred to during result analysis.\00", align 1
@.str.143 = private unnamed_addr constant [18 x i8] c"replication-label\00", align 1
@.str.144 = private unnamed_addr constant [15 x i8] c"#${repetition}\00", align 1
@.str.145 = private unnamed_addr constant [182 x i8] c"Identifies one replication of a measurement (see repeat= and measurement-label= as well). This string gets recorded into result files, and may be referred to during result analysis.\00", align 1
@.str.146 = private unnamed_addr constant [16 x i8] c"runnumber-width\00", align 1
@.str.147 = private unnamed_addr constant [2 x i8] c"0\00", align 1
@.str.148 = private unnamed_addr constant [114 x i8] c"Setting a nonzero value will cause the $runnumber variable to get padded with leading zeroes to the given length.\00", align 1
@classes = external global %class.cGlobalRegistrationList, align 8
@_ZTVN25SectionBasedConfiguration12NullKeyValueE = linkonce_odr dso_local unnamed_addr constant { [7 x ptr] } { [7 x ptr] [ptr null, ptr @_ZTIN25SectionBasedConfiguration12NullKeyValueE, ptr @_ZN25SectionBasedConfiguration12NullKeyValueD2Ev, ptr @_ZN25SectionBasedConfiguration12NullKeyValueD0Ev, ptr @_ZNK25SectionBasedConfiguration12NullKeyValue6getKeyEv, ptr @_ZNK25SectionBasedConfiguration12NullKeyValue8getValueEv, ptr @_ZNK25SectionBasedConfiguration12NullKeyValue16getBaseDirectoryEv] }, comdat, align 8
@_ZTSN25SectionBasedConfiguration12NullKeyValueE = linkonce_odr dso_local constant [44 x i8] c"N25SectionBasedConfiguration12NullKeyValueE\00", comdat, align 1
@_ZTSN14cConfiguration8KeyValueE = linkonce_odr dso_local constant [28 x i8] c"N14cConfiguration8KeyValueE\00", comdat, align 1
@_ZTIN14cConfiguration8KeyValueE = linkonce_odr dso_local constant { ptr, ptr } { ptr getelementptr inbounds (ptr, ptr @_ZTVN10__cxxabiv117__class_type_infoE, i64 2), ptr @_ZTSN14cConfiguration8KeyValueE }, comdat, align 8
@_ZTIN25SectionBasedConfiguration12NullKeyValueE = linkonce_odr dso_local constant { ptr, ptr, ptr } { ptr getelementptr inbounds (ptr, ptr @_ZTVN10__cxxabiv120__si_class_type_infoE, i64 2), ptr @_ZTSN25SectionBasedConfiguration12NullKeyValueE, ptr @_ZTIN14cConfiguration8KeyValueE }, comdat, align 8
@_ZTV10cException = linkonce_odr dso_local unnamed_addr constant { [13 x ptr] } { [13 x ptr] [ptr null, ptr @_ZTI10cException, ptr @_ZN10cExceptionD2Ev, ptr @_ZN10cExceptionD0Ev, ptr @_ZNK10cException4whatEv, ptr @_ZNK10cException3dupEv, ptr @_ZNK10cException12getErrorCodeEv, ptr @_ZN10cException10setMessageEPKc, ptr @_ZN10cException14prependMessageEPKc, ptr @_ZNK10cException10hasContextEv, ptr @_ZNK10cException19getContextClassNameEv, ptr @_ZNK10cException18getContextFullPathEv, ptr @_ZNK10cException11getModuleIDEv] }, comdat, align 8
@.str.149 = private unnamed_addr constant [3 x i8] c": \00", align 1
@_ZTVN25SectionBasedConfiguration9KeyValue1E = linkonce_odr dso_local unnamed_addr constant { [7 x ptr] } { [7 x ptr] [ptr null, ptr @_ZTIN25SectionBasedConfiguration9KeyValue1E, ptr @_ZN25SectionBasedConfiguration9KeyValue1D2Ev, ptr @_ZN25SectionBasedConfiguration9KeyValue1D0Ev, ptr @_ZNK25SectionBasedConfiguration9KeyValue16getKeyEv, ptr @_ZNK25SectionBasedConfiguration9KeyValue18getValueEv, ptr @_ZNK25SectionBasedConfiguration9KeyValue116getBaseDirectoryEv] }, comdat, align 8
@_ZTSN25SectionBasedConfiguration9KeyValue1E = linkonce_odr dso_local constant [40 x i8] c"N25SectionBasedConfiguration9KeyValue1E\00", comdat, align 1
@_ZTIN25SectionBasedConfiguration9KeyValue1E = linkonce_odr dso_local constant { ptr, ptr, ptr } { ptr getelementptr inbounds (ptr, ptr @_ZTVN10__cxxabiv120__si_class_type_infoE, i64 2), ptr @_ZTSN25SectionBasedConfiguration9KeyValue1E, ptr @_ZTIN14cConfiguration8KeyValueE }, comdat, align 8
@.str.150 = private unnamed_addr constant [131 x i8] c"A reasonably globally unique identifier for the run, produced by concatenating the configuration name, run number, date/time, etc.\00", align 1
@.str.151 = private unnamed_addr constant [30 x i8] c"Name of the (primary) inifile\00", align 1
@.str.152 = private unnamed_addr constant [33 x i8] c"Name of the active configuration\00", align 1
@.str.153 = private unnamed_addr constant [79 x i8] c"Sequence number of the current run within all runs in the active configuration\00", align 1
@.str.154 = private unnamed_addr constant [44 x i8] c"Value of the \22network\22 configuration option\00", align 1
@.str.155 = private unnamed_addr constant [53 x i8] c"Value of the \22experiment-label\22 configuration option\00", align 1
@.str.156 = private unnamed_addr constant [54 x i8] c"Value of the \22measurement-label\22 configuration option\00", align 1
@.str.157 = private unnamed_addr constant [54 x i8] c"Value of the \22replication-label\22 configuration option\00", align 1
@.str.158 = private unnamed_addr constant [30 x i8] c"PID of the simulation process\00", align 1
@.str.159 = private unnamed_addr constant [45 x i8] c"Date and time the simulation run was started\00", align 1
@.str.160 = private unnamed_addr constant [47 x i8] c"Value of the \22result-dir\22 configuration option\00", align 1
@.str.161 = private unnamed_addr constant [90 x i8] c"The iteration number in 0..N-1, where N is the value of the \22repeat\22 configuration option\00", align 1
@.str.162 = private unnamed_addr constant [45 x i8] c"Value of the \22seed-set\22 configuration option\00", align 1
@.str.163 = private unnamed_addr constant [73 x i8] c"Concatenation of all user-defined iteration variables in name=value form\00", align 1
@.str.164 = private unnamed_addr constant [93 x i8] c"Concatenation of all user-defined iteration variables in name=value form, plus ${repetition}\00", align 1
@_ZTVN25SectionBasedConfiguration9KeyValue2E = linkonce_odr dso_local unnamed_addr constant { [7 x ptr] } { [7 x ptr] [ptr null, ptr @_ZTIN25SectionBasedConfiguration9KeyValue2E, ptr @_ZN25SectionBasedConfiguration9KeyValue1D2Ev, ptr @_ZN25SectionBasedConfiguration9KeyValue2D0Ev, ptr @_ZNK25SectionBasedConfiguration9KeyValue16getKeyEv, ptr @_ZNK25SectionBasedConfiguration9KeyValue18getValueEv, ptr @_ZNK25SectionBasedConfiguration9KeyValue116getBaseDirectoryEv] }, comdat, align 8
@_ZTSN25SectionBasedConfiguration9KeyValue2E = linkonce_odr dso_local constant [40 x i8] c"N25SectionBasedConfiguration9KeyValue2E\00", comdat, align 1
@_ZTIN25SectionBasedConfiguration9KeyValue2E = linkonce_odr dso_local constant { ptr, ptr, ptr } { ptr getelementptr inbounds (ptr, ptr @_ZTVN10__cxxabiv120__si_class_type_infoE, i64 2), ptr @_ZTSN25SectionBasedConfiguration9KeyValue2E, ptr @_ZTIN25SectionBasedConfiguration9KeyValue1E }, comdat, align 8
@.str.165 = private unnamed_addr constant [50 x i8] c"basic_string: construction from null is not valid\00", align 1
@.str.166 = private unnamed_addr constant [21 x i8] c"basic_string::append\00", align 1
@.str.167 = private unnamed_addr constant [26 x i8] c"vector::_M_realloc_insert\00", align 1
@.str.168 = private unnamed_addr constant [22 x i8] c"basic_string::replace\00", align 1
@.str.169 = private unnamed_addr constant [55 x i8] c"%s: __pos (which is %zu) > this->size() (which is %zu)\00", align 1
@llvm.global_ctors = appending global [1 x { i32, ptr, ptr }] [{ i32, ptr, ptr } { i32 65535, ptr @_GLOBAL__sub_I_sectionbasedconfig.cc, ptr null }]
@str = private unnamed_addr constant [8 x i8] c"Config:\00", align 1
@str.170 = private unnamed_addr constant [16 x i8] c"Wildcard Group:\00", align 1

@_ZN25SectionBasedConfigurationC1Ev = dso_local unnamed_addr alias void (ptr), ptr @_ZN25SectionBasedConfigurationC2Ev
@_ZN25SectionBasedConfigurationD1Ev = dso_local unnamed_addr alias void (ptr), ptr @_ZN25SectionBasedConfigurationD2Ev

; Function Attrs: sspstrong uwtable
define internal void @_ZN12_GLOBAL__N_119__onstartup_func_41Ev() #0 personality ptr @__gxx_personality_v0 {
  %1 = tail call noundef ptr @_ZN23cGlobalRegistrationList11getInstanceEv(ptr noundef nonnull align 8 dereferenceable(16) @configOptions)
  %2 = tail call noalias noundef nonnull dereferenceable(144) ptr @_Znwm(i64 noundef 144) #25
  invoke void @_ZN13cConfigOptionC1EPKcbbNS_4TypeES1_S1_S1_(ptr noundef nonnull align 8 dereferenceable(144) %2, ptr noundef nonnull @.str.126, i1 noundef zeroext false, i1 noundef zeroext true, i32 noundef 3, ptr noundef null, ptr noundef nonnull @.str.14, ptr noundef nonnull @.str.127)
          to label %3 unwind label %7

3:                                                ; preds = %0
  store ptr %2, ptr @CFGID_SECTIONBASEDCONFIG_CONFIGREADER_CLASS, align 8, !tbaa !5
  %4 = load ptr, ptr %1, align 8, !tbaa !9
  %5 = getelementptr inbounds ptr, ptr %4, i64 22
  %6 = load ptr, ptr %5, align 8
  tail call void %6(ptr noundef nonnull align 8 dereferenceable(144) %1, ptr noundef nonnull %2)
  ret void

7:                                                ; preds = %0
  %8 = landingpad { ptr, i32 }
          cleanup
  tail call void @_ZdlPv(ptr noundef nonnull %2) #26
  resume { ptr, i32 } %8
}

declare void @_ZN16ExecuteOnStartupC1EPFvvE(ptr noundef nonnull align 8 dereferenceable(16), ptr noundef) unnamed_addr #1

declare void @_ZN16ExecuteOnStartupD1Ev(ptr noundef nonnull align 8 dereferenceable(16)) unnamed_addr #1

; Function Attrs: nofree nounwind
declare i32 @__cxa_atexit(ptr, ptr, ptr) local_unnamed_addr #2

; Function Attrs: sspstrong uwtable
define internal void @_ZN12_GLOBAL__N_119__onstartup_func_42Ev() #0 personality ptr @__gxx_personality_v0 {
  %1 = tail call noundef ptr @_ZN23cGlobalRegistrationList11getInstanceEv(ptr noundef nonnull align 8 dereferenceable(16) @configOptions)
  %2 = tail call noalias noundef nonnull dereferenceable(144) ptr @_Znwm(i64 noundef 144) #25
  invoke void @_ZN13cConfigOptionC1EPKcbbNS_4TypeES1_S1_S1_(ptr noundef nonnull align 8 dereferenceable(144) %2, ptr noundef nonnull @.str.128, i1 noundef zeroext false, i1 noundef zeroext false, i32 noundef 3, ptr noundef null, ptr noundef null, ptr noundef nonnull @.str.129)
          to label %3 unwind label %7

3:                                                ; preds = %0
  store ptr %2, ptr @CFGID_DESCRIPTION, align 8, !tbaa !5
  %4 = load ptr, ptr %1, align 8, !tbaa !9
  %5 = getelementptr inbounds ptr, ptr %4, i64 22
  %6 = load ptr, ptr %5, align 8
  tail call void %6(ptr noundef nonnull align 8 dereferenceable(144) %1, ptr noundef nonnull %2)
  ret void

7:                                                ; preds = %0
  %8 = landingpad { ptr, i32 }
          cleanup
  tail call void @_ZdlPv(ptr noundef nonnull %2) #26
  resume { ptr, i32 } %8
}

; Function Attrs: sspstrong uwtable
define internal void @_ZN12_GLOBAL__N_119__onstartup_func_43Ev() #0 personality ptr @__gxx_personality_v0 {
  %1 = tail call noundef ptr @_ZN23cGlobalRegistrationList11getInstanceEv(ptr noundef nonnull align 8 dereferenceable(16) @configOptions)
  %2 = tail call noalias noundef nonnull dereferenceable(144) ptr @_Znwm(i64 noundef 144) #25
  invoke void @_ZN13cConfigOptionC1EPKcbbNS_4TypeES1_S1_S1_(ptr noundef nonnull align 8 dereferenceable(144) %2, ptr noundef nonnull @.str.130, i1 noundef zeroext false, i1 noundef zeroext false, i32 noundef 3, ptr noundef null, ptr noundef null, ptr noundef nonnull @.str.131)
          to label %3 unwind label %7

3:                                                ; preds = %0
  store ptr %2, ptr @CFGID_EXTENDS, align 8, !tbaa !5
  %4 = load ptr, ptr %1, align 8, !tbaa !9
  %5 = getelementptr inbounds ptr, ptr %4, i64 22
  %6 = load ptr, ptr %5, align 8
  tail call void %6(ptr noundef nonnull align 8 dereferenceable(144) %1, ptr noundef nonnull %2)
  ret void

7:                                                ; preds = %0
  %8 = landingpad { ptr, i32 }
          cleanup
  tail call void @_ZdlPv(ptr noundef nonnull %2) #26
  resume { ptr, i32 } %8
}

; Function Attrs: sspstrong uwtable
define internal void @_ZN12_GLOBAL__N_119__onstartup_func_44Ev() #0 personality ptr @__gxx_personality_v0 {
  %1 = tail call noundef ptr @_ZN23cGlobalRegistrationList11getInstanceEv(ptr noundef nonnull align 8 dereferenceable(16) @configOptions)
  %2 = tail call noalias noundef nonnull dereferenceable(144) ptr @_Znwm(i64 noundef 144) #25
  invoke void @_ZN13cConfigOptionC1EPKcbbNS_4TypeES1_S1_S1_(ptr noundef nonnull align 8 dereferenceable(144) %2, ptr noundef nonnull @.str.132, i1 noundef zeroext false, i1 noundef zeroext false, i32 noundef 3, ptr noundef null, ptr noundef null, ptr noundef nonnull @.str.133)
          to label %3 unwind label %7

3:                                                ; preds = %0
  store ptr %2, ptr @CFGID_CONSTRAINT, align 8, !tbaa !5
  %4 = load ptr, ptr %1, align 8, !tbaa !9
  %5 = getelementptr inbounds ptr, ptr %4, i64 22
  %6 = load ptr, ptr %5, align 8
  tail call void %6(ptr noundef nonnull align 8 dereferenceable(144) %1, ptr noundef nonnull %2)
  ret void

7:                                                ; preds = %0
  %8 = landingpad { ptr, i32 }
          cleanup
  tail call void @_ZdlPv(ptr noundef nonnull %2) #26
  resume { ptr, i32 } %8
}

; Function Attrs: sspstrong uwtable
define internal void @_ZN12_GLOBAL__N_119__onstartup_func_45Ev() #0 personality ptr @__gxx_personality_v0 {
  %1 = tail call noundef ptr @_ZN23cGlobalRegistrationList11getInstanceEv(ptr noundef nonnull align 8 dereferenceable(16) @configOptions)
  %2 = tail call noalias noundef nonnull dereferenceable(144) ptr @_Znwm(i64 noundef 144) #25
  invoke void @_ZN13cConfigOptionC1EPKcbbNS_4TypeES1_S1_S1_(ptr noundef nonnull align 8 dereferenceable(144) %2, ptr noundef nonnull @.str.134, i1 noundef zeroext false, i1 noundef zeroext false, i32 noundef 1, ptr noundef null, ptr noundef nonnull @.str.135, ptr noundef nonnull @.str.136)
          to label %3 unwind label %7

3:                                                ; preds = %0
  store ptr %2, ptr @CFGID_REPEAT, align 8, !tbaa !5
  %4 = load ptr, ptr %1, align 8, !tbaa !9
  %5 = getelementptr inbounds ptr, ptr %4, i64 22
  %6 = load ptr, ptr %5, align 8
  tail call void %6(ptr noundef nonnull align 8 dereferenceable(144) %1, ptr noundef nonnull %2)
  ret void

7:                                                ; preds = %0
  %8 = landingpad { ptr, i32 }
          cleanup
  tail call void @_ZdlPv(ptr noundef nonnull %2) #26
  resume { ptr, i32 } %8
}

; Function Attrs: sspstrong uwtable
define internal void @_ZN12_GLOBAL__N_119__onstartup_func_46Ev() #0 personality ptr @__gxx_personality_v0 {
  %1 = tail call noundef ptr @_ZN23cGlobalRegistrationList11getInstanceEv(ptr noundef nonnull align 8 dereferenceable(16) @configOptions)
  %2 = tail call noalias noundef nonnull dereferenceable(144) ptr @_Znwm(i64 noundef 144) #25
  invoke void @_ZN13cConfigOptionC1EPKcbbNS_4TypeES1_S1_S1_(ptr noundef nonnull align 8 dereferenceable(144) %2, ptr noundef nonnull @.str.137, i1 noundef zeroext false, i1 noundef zeroext false, i32 noundef 3, ptr noundef null, ptr noundef nonnull @.str.138, ptr noundef nonnull @.str.139)
          to label %3 unwind label %7

3:                                                ; preds = %0
  store ptr %2, ptr @CFGID_EXPERIMENT_LABEL, align 8, !tbaa !5
  %4 = load ptr, ptr %1, align 8, !tbaa !9
  %5 = getelementptr inbounds ptr, ptr %4, i64 22
  %6 = load ptr, ptr %5, align 8
  tail call void %6(ptr noundef nonnull align 8 dereferenceable(144) %1, ptr noundef nonnull %2)
  ret void

7:                                                ; preds = %0
  %8 = landingpad { ptr, i32 }
          cleanup
  tail call void @_ZdlPv(ptr noundef nonnull %2) #26
  resume { ptr, i32 } %8
}

; Function Attrs: sspstrong uwtable
define internal void @_ZN12_GLOBAL__N_119__onstartup_func_47Ev() #0 personality ptr @__gxx_personality_v0 {
  %1 = tail call noundef ptr @_ZN23cGlobalRegistrationList11getInstanceEv(ptr noundef nonnull align 8 dereferenceable(16) @configOptions)
  %2 = tail call noalias noundef nonnull dereferenceable(144) ptr @_Znwm(i64 noundef 144) #25
  invoke void @_ZN13cConfigOptionC1EPKcbbNS_4TypeES1_S1_S1_(ptr noundef nonnull align 8 dereferenceable(144) %2, ptr noundef nonnull @.str.140, i1 noundef zeroext false, i1 noundef zeroext false, i32 noundef 3, ptr noundef null, ptr noundef nonnull @.str.141, ptr noundef nonnull @.str.142)
          to label %3 unwind label %7

3:                                                ; preds = %0
  store ptr %2, ptr @CFGID_MEASUREMENT_LABEL, align 8, !tbaa !5
  %4 = load ptr, ptr %1, align 8, !tbaa !9
  %5 = getelementptr inbounds ptr, ptr %4, i64 22
  %6 = load ptr, ptr %5, align 8
  tail call void %6(ptr noundef nonnull align 8 dereferenceable(144) %1, ptr noundef nonnull %2)
  ret void

7:                                                ; preds = %0
  %8 = landingpad { ptr, i32 }
          cleanup
  tail call void @_ZdlPv(ptr noundef nonnull %2) #26
  resume { ptr, i32 } %8
}

; Function Attrs: sspstrong uwtable
define internal void @_ZN12_GLOBAL__N_119__onstartup_func_48Ev() #0 personality ptr @__gxx_personality_v0 {
  %1 = tail call noundef ptr @_ZN23cGlobalRegistrationList11getInstanceEv(ptr noundef nonnull align 8 dereferenceable(16) @configOptions)
  %2 = tail call noalias noundef nonnull dereferenceable(144) ptr @_Znwm(i64 noundef 144) #25
  invoke void @_ZN13cConfigOptionC1EPKcbbNS_4TypeES1_S1_S1_(ptr noundef nonnull align 8 dereferenceable(144) %2, ptr noundef nonnull @.str.143, i1 noundef zeroext false, i1 noundef zeroext false, i32 noundef 3, ptr noundef null, ptr noundef nonnull @.str.144, ptr noundef nonnull @.str.145)
          to label %3 unwind label %7

3:                                                ; preds = %0
  store ptr %2, ptr @CFGID_REPLICATION_LABEL, align 8, !tbaa !5
  %4 = load ptr, ptr %1, align 8, !tbaa !9
  %5 = getelementptr inbounds ptr, ptr %4, i64 22
  %6 = load ptr, ptr %5, align 8
  tail call void %6(ptr noundef nonnull align 8 dereferenceable(144) %1, ptr noundef nonnull %2)
  ret void

7:                                                ; preds = %0
  %8 = landingpad { ptr, i32 }
          cleanup
  tail call void @_ZdlPv(ptr noundef nonnull %2) #26
  resume { ptr, i32 } %8
}

; Function Attrs: sspstrong uwtable
define internal void @_ZN12_GLOBAL__N_119__onstartup_func_49Ev() #0 personality ptr @__gxx_personality_v0 {
  %1 = tail call noundef ptr @_ZN23cGlobalRegistrationList11getInstanceEv(ptr noundef nonnull align 8 dereferenceable(16) @configOptions)
  %2 = tail call noalias noundef nonnull dereferenceable(144) ptr @_Znwm(i64 noundef 144) #25
  invoke void @_ZN13cConfigOptionC1EPKcbbNS_4TypeES1_S1_S1_(ptr noundef nonnull align 8 dereferenceable(144) %2, ptr noundef nonnull @.str.146, i1 noundef zeroext false, i1 noundef zeroext false, i32 noundef 1, ptr noundef null, ptr noundef nonnull @.str.147, ptr noundef nonnull @.str.148)
          to label %3 unwind label %7

3:                                                ; preds = %0
  store ptr %2, ptr @CFGID_RUNNUMBER_WIDTH, align 8, !tbaa !5
  %4 = load ptr, ptr %1, align 8, !tbaa !9
  %5 = getelementptr inbounds ptr, ptr %4, i64 22
  %6 = load ptr, ptr %5, align 8
  tail call void %6(ptr noundef nonnull align 8 dereferenceable(144) %1, ptr noundef nonnull %2)
  ret void

7:                                                ; preds = %0
  %8 = landingpad { ptr, i32 }
          cleanup
  tail call void @_ZdlPv(ptr noundef nonnull %2) #26
  resume { ptr, i32 } %8
}

; Function Attrs: sspstrong uwtable
define internal void @_ZN12_GLOBAL__N_119__onstartup_func_55Ev() #0 personality ptr @__gxx_personality_v0 {
  %1 = tail call noundef ptr @_ZN23cGlobalRegistrationList11getInstanceEv(ptr noundef nonnull align 8 dereferenceable(16) @classes)
  %2 = tail call noalias noundef nonnull dereferenceable(80) ptr @_Znwm(i64 noundef 80) #25
  %3 = invoke noundef ptr @_Z12opp_typenameRKSt9type_info(ptr noundef nonnull align 8 dereferenceable(16) @_ZTI25SectionBasedConfiguration)
          to label %4 unwind label %9

4:                                                ; preds = %0
  invoke void @_ZN13cClassFactoryC1EPKcPFP7cObjectvES1_(ptr noundef nonnull align 8 dereferenceable(80) %2, ptr noundef %3, ptr noundef nonnull @_ZL15__uniquename_55v, ptr noundef null)
          to label %5 unwind label %9

5:                                                ; preds = %4
  %6 = load ptr, ptr %1, align 8, !tbaa !9
  %7 = getelementptr inbounds ptr, ptr %6, i64 22
  %8 = load ptr, ptr %7, align 8
  tail call void %8(ptr noundef nonnull align 8 dereferenceable(144) %1, ptr noundef nonnull %2)
  ret void

9:                                                ; preds = %4, %0
  %10 = landingpad { ptr, i32 }
          cleanup
  tail call void @_ZdlPv(ptr noundef nonnull %2) #26
  resume { ptr, i32 } %10
}

; Function Attrs: sspstrong uwtable
declare void @_ZNSt7__cxx1112basic_stringIcSt11char_traitsIcESaIcEED2Ev(ptr noundef nonnull align 8 dereferenceable(32)) unnamed_addr #0 align 2

; Function Attrs: sspstrong uwtable
define dso_local void @_ZN25SectionBasedConfigurationC2Ev(ptr noundef nonnull align 8 dereferenceable(416) %0) unnamed_addr #0 align 2 personality ptr @__gxx_personality_v0 {
  store ptr getelementptr inbounds ({ [66 x ptr] }, ptr @_ZTV25SectionBasedConfiguration, i64 0, inrange i32 0, i64 2), ptr %0, align 8, !tbaa !9
  %2 = getelementptr inbounds %class.SectionBasedConfiguration, ptr %0, i64 0, i32 2
  tail call void @llvm.memset.p0.i64(ptr noundef nonnull align 8 dereferenceable(24) %2, i8 0, i64 24, i1 false)
  %3 = getelementptr inbounds %class.SectionBasedConfiguration, ptr %0, i64 0, i32 3
  %4 = getelementptr inbounds %class.SectionBasedConfiguration, ptr %0, i64 0, i32 3, i32 2
  store ptr %4, ptr %3, align 8, !tbaa !11
  %5 = getelementptr inbounds %class.SectionBasedConfiguration, ptr %0, i64 0, i32 3, i32 1
  store i64 0, ptr %5, align 8, !tbaa !13
  store i8 0, ptr %4, align 8, !tbaa !16
  %6 = getelementptr inbounds %class.SectionBasedConfiguration, ptr %0, i64 0, i32 5
  %7 = getelementptr inbounds %class.SectionBasedConfiguration, ptr %0, i64 0, i32 5, i32 2
  store ptr %7, ptr %6, align 8, !tbaa !11
  %8 = getelementptr inbounds %class.SectionBasedConfiguration, ptr %0, i64 0, i32 5, i32 1
  store i64 0, ptr %8, align 8, !tbaa !13
  store i8 0, ptr %7, align 8, !tbaa !16
  %9 = getelementptr inbounds %class.SectionBasedConfiguration, ptr %0, i64 0, i32 6
  %10 = getelementptr inbounds %class.SectionBasedConfiguration, ptr %0, i64 0, i32 6, i32 0, i32 0, i32 1
  store i32 0, ptr %10, align 8, !tbaa !17
  %11 = getelementptr inbounds %class.SectionBasedConfiguration, ptr %0, i64 0, i32 6, i32 0, i32 0, i32 1, i32 0, i32 1
  store ptr null, ptr %11, align 8, !tbaa !21
  %12 = getelementptr inbounds %class.SectionBasedConfiguration, ptr %0, i64 0, i32 6, i32 0, i32 0, i32 1, i32 0, i32 2
  store ptr %10, ptr %12, align 8, !tbaa !22
  %13 = getelementptr inbounds %class.SectionBasedConfiguration, ptr %0, i64 0, i32 6, i32 0, i32 0, i32 1, i32 0, i32 3
  store ptr %10, ptr %13, align 8, !tbaa !23
  %14 = getelementptr inbounds %class.SectionBasedConfiguration, ptr %0, i64 0, i32 6, i32 0, i32 0, i32 1, i32 1
  store i64 0, ptr %14, align 8, !tbaa !24
  %15 = getelementptr inbounds %class.SectionBasedConfiguration, ptr %0, i64 0, i32 7
  %16 = getelementptr inbounds %class.SectionBasedConfiguration, ptr %0, i64 0, i32 7, i32 0, i32 0, i32 1
  store i32 0, ptr %16, align 8, !tbaa !17
  %17 = getelementptr inbounds %class.SectionBasedConfiguration, ptr %0, i64 0, i32 7, i32 0, i32 0, i32 1, i32 0, i32 1
  store ptr null, ptr %17, align 8, !tbaa !21
  %18 = getelementptr inbounds %class.SectionBasedConfiguration, ptr %0, i64 0, i32 7, i32 0, i32 0, i32 1, i32 0, i32 2
  store ptr %16, ptr %18, align 8, !tbaa !22
  %19 = getelementptr inbounds %class.SectionBasedConfiguration, ptr %0, i64 0, i32 7, i32 0, i32 0, i32 1, i32 0, i32 3
  store ptr %16, ptr %19, align 8, !tbaa !23
  %20 = getelementptr inbounds %class.SectionBasedConfiguration, ptr %0, i64 0, i32 7, i32 0, i32 0, i32 1, i32 1
  store i64 0, ptr %20, align 8, !tbaa !24
  %21 = getelementptr inbounds %class.SectionBasedConfiguration, ptr %0, i64 0, i32 8
  %22 = getelementptr inbounds %class.SectionBasedConfiguration, ptr %0, i64 0, i32 8, i32 0, i32 0, i32 1
  store i32 0, ptr %22, align 8, !tbaa !17
  %23 = getelementptr inbounds %class.SectionBasedConfiguration, ptr %0, i64 0, i32 8, i32 0, i32 0, i32 1, i32 0, i32 1
  store ptr null, ptr %23, align 8, !tbaa !21
  %24 = getelementptr inbounds %class.SectionBasedConfiguration, ptr %0, i64 0, i32 8, i32 0, i32 0, i32 1, i32 0, i32 2
  store ptr %22, ptr %24, align 8, !tbaa !22
  %25 = getelementptr inbounds %class.SectionBasedConfiguration, ptr %0, i64 0, i32 8, i32 0, i32 0, i32 1, i32 0, i32 3
  store ptr %22, ptr %25, align 8, !tbaa !23
  %26 = getelementptr inbounds %class.SectionBasedConfiguration, ptr %0, i64 0, i32 8, i32 0, i32 0, i32 1, i32 1
  %27 = getelementptr inbounds %class.SectionBasedConfiguration, ptr %0, i64 0, i32 9
  %28 = getelementptr inbounds %class.SectionBasedConfiguration, ptr %0, i64 0, i32 10
  tail call void @llvm.memset.p0.i64(ptr noundef nonnull align 8 dereferenceable(32) %26, i8 0, i64 32, i1 false)
  store ptr getelementptr inbounds ({ [7 x ptr] }, ptr @_ZTVN25SectionBasedConfiguration12NullKeyValueE, i64 0, inrange i32 0, i64 2), ptr %28, align 8, !tbaa !9
  %29 = getelementptr inbounds %class.SectionBasedConfiguration, ptr %0, i64 0, i32 10, i32 1
  %30 = getelementptr inbounds %class.SectionBasedConfiguration, ptr %0, i64 0, i32 10, i32 1, i32 2
  store ptr %30, ptr %29, align 8, !tbaa !11
  %31 = getelementptr inbounds %class.SectionBasedConfiguration, ptr %0, i64 0, i32 10, i32 1, i32 1
  store i64 0, ptr %31, align 8, !tbaa !13
  store i8 0, ptr %30, align 8, !tbaa !16
  %32 = getelementptr inbounds %class.SectionBasedConfiguration, ptr %0, i64 0, i32 11, i32 0, i32 0, i32 1
  store i32 0, ptr %32, align 8, !tbaa !17
  %33 = getelementptr inbounds %class.SectionBasedConfiguration, ptr %0, i64 0, i32 11, i32 0, i32 0, i32 1, i32 0, i32 1
  store ptr null, ptr %33, align 8, !tbaa !21
  %34 = getelementptr inbounds %class.SectionBasedConfiguration, ptr %0, i64 0, i32 11, i32 0, i32 0, i32 1, i32 0, i32 2
  store ptr %32, ptr %34, align 8, !tbaa !22
  %35 = getelementptr inbounds %class.SectionBasedConfiguration, ptr %0, i64 0, i32 11, i32 0, i32 0, i32 1, i32 0, i32 3
  store ptr %32, ptr %35, align 8, !tbaa !23
  %36 = getelementptr inbounds %class.SectionBasedConfiguration, ptr %0, i64 0, i32 11, i32 0, i32 0, i32 1, i32 1
  store i64 0, ptr %36, align 8, !tbaa !24
  %37 = getelementptr inbounds %class.SectionBasedConfiguration, ptr %0, i64 0, i32 12
  invoke void @_ZN16CommonStringPoolC1Ev(ptr noundef nonnull align 8 dereferenceable(48) %37)
          to label %38 unwind label %41

38:                                               ; preds = %1
  %39 = getelementptr inbounds %class.SectionBasedConfiguration, ptr %0, i64 0, i32 1
  store ptr null, ptr %39, align 8, !tbaa !25
  %40 = getelementptr inbounds %class.SectionBasedConfiguration, ptr %0, i64 0, i32 4
  store i32 0, ptr %40, align 8, !tbaa !62
  ret void

41:                                               ; preds = %1
  %42 = landingpad { ptr, i32 }
          cleanup
  %43 = getelementptr inbounds %class.SectionBasedConfiguration, ptr %0, i64 0, i32 11
  %44 = load ptr, ptr %33, align 8, !tbaa !21
  invoke void @_ZNSt8_Rb_treeINSt7__cxx1112basic_stringIcSt11char_traitsIcESaIcEEESt4pairIKS5_S5_ESt10_Select1stIS8_ESt4lessIS5_ESaIS8_EE8_M_eraseEPSt13_Rb_tree_nodeIS8_E(ptr noundef nonnull align 8 dereferenceable(48) %43, ptr noundef %44)
          to label %45 unwind label %76

45:                                               ; preds = %41
  store ptr getelementptr inbounds ({ [7 x ptr] }, ptr @_ZTVN25SectionBasedConfiguration12NullKeyValueE, i64 0, inrange i32 0, i64 2), ptr %28, align 8, !tbaa !9
  %46 = load ptr, ptr %29, align 8, !tbaa !63
  %47 = icmp eq ptr %46, %30
  br i1 %47, label %48, label %51

48:                                               ; preds = %45
  %49 = load i64, ptr %31, align 8, !tbaa !13
  %50 = icmp ult i64 %49, 16
  tail call void @llvm.assume(i1 %50)
  br label %52

51:                                               ; preds = %45
  tail call void @_ZdlPv(ptr noundef %46) #26
  br label %52

52:                                               ; preds = %51, %48
  invoke void @_ZN25SectionBasedConfiguration5GroupD2Ev(ptr noundef nonnull align 8 dereferenceable(24) %27)
          to label %53 unwind label %76

53:                                               ; preds = %52
  %54 = load ptr, ptr %23, align 8, !tbaa !21
  invoke void @_ZNSt8_Rb_treeINSt7__cxx1112basic_stringIcSt11char_traitsIcESaIcEEESt4pairIKS5_N25SectionBasedConfiguration5GroupEESt10_Select1stISA_ESt4lessIS5_ESaISA_EE8_M_eraseEPSt13_Rb_tree_nodeISA_E(ptr noundef nonnull align 8 dereferenceable(48) %21, ptr noundef %54)
          to label %55 unwind label %76

55:                                               ; preds = %53
  %56 = load ptr, ptr %17, align 8, !tbaa !21
  invoke void @_ZNSt8_Rb_treeINSt7__cxx1112basic_stringIcSt11char_traitsIcESaIcEEESt4pairIKS5_N25SectionBasedConfiguration9KeyValue1EESt10_Select1stISA_ESt4lessIS5_ESaISA_EE8_M_eraseEPSt13_Rb_tree_nodeISA_E(ptr noundef nonnull align 8 dereferenceable(48) %15, ptr noundef %56)
          to label %57 unwind label %76

57:                                               ; preds = %55
  %58 = load ptr, ptr %11, align 8, !tbaa !21
  invoke void @_ZNSt8_Rb_treeINSt7__cxx1112basic_stringIcSt11char_traitsIcESaIcEEES5_St9_IdentityIS5_ESt4lessIS5_ESaIS5_EE8_M_eraseEPSt13_Rb_tree_nodeIS5_E(ptr noundef nonnull align 8 dereferenceable(48) %9, ptr noundef %58)
          to label %59 unwind label %76

59:                                               ; preds = %57
  %60 = load ptr, ptr %6, align 8, !tbaa !63
  %61 = icmp eq ptr %60, %7
  br i1 %61, label %62, label %65

62:                                               ; preds = %59
  %63 = load i64, ptr %8, align 8, !tbaa !13
  %64 = icmp ult i64 %63, 16
  tail call void @llvm.assume(i1 %64)
  br label %66

65:                                               ; preds = %59
  tail call void @_ZdlPv(ptr noundef %60) #26
  br label %66

66:                                               ; preds = %65, %62
  %67 = load ptr, ptr %3, align 8, !tbaa !63
  %68 = icmp eq ptr %67, %4
  br i1 %68, label %69, label %72

69:                                               ; preds = %66
  %70 = load i64, ptr %5, align 8, !tbaa !13
  %71 = icmp ult i64 %70, 16
  tail call void @llvm.assume(i1 %71)
  br label %73

72:                                               ; preds = %66
  tail call void @_ZdlPv(ptr noundef %67) #26
  br label %73

73:                                               ; preds = %72, %69
  invoke void @_ZNSt6vectorIN25SectionBasedConfiguration9KeyValue1ESaIS1_EED2Ev(ptr noundef nonnull align 8 dereferenceable(24) %2)
          to label %74 unwind label %76

74:                                               ; preds = %73
  invoke void @_ZN7cObjectD2Ev(ptr noundef nonnull align 8 dereferenceable(8) %0)
          to label %75 unwind label %76

75:                                               ; preds = %74
  resume { ptr, i32 } %42

76:                                               ; preds = %57, %55, %53, %41, %74, %73, %52
  %77 = landingpad { ptr, i32 }
          catch ptr null
  %78 = extractvalue { ptr, i32 } %77, 0
  tail call void @__clang_call_terminate(ptr %78) #27
  unreachable
}

declare i32 @__gxx_personality_v0(...)

declare void @_ZN16CommonStringPoolC1Ev(ptr noundef nonnull align 8 dereferenceable(48)) unnamed_addr #1

; Function Attrs: noinline noreturn nounwind sspstrong uwtable
define linkonce_odr hidden void @__clang_call_terminate(ptr noundef %0) local_unnamed_addr #3 comdat {
  %2 = tail call ptr @__cxa_begin_catch(ptr %0) #28
  tail call void @_ZSt9terminatev() #27
  unreachable
}

declare ptr @__cxa_begin_catch(ptr) local_unnamed_addr

declare void @_ZSt9terminatev() local_unnamed_addr

; Function Attrs: inlinehint sspstrong uwtable
define linkonce_odr dso_local void @_ZN25SectionBasedConfiguration12NullKeyValueD2Ev(ptr noundef nonnull align 8 dereferenceable(40) %0) unnamed_addr #4 comdat align 2 personality ptr @__gxx_personality_v0 {
  store ptr getelementptr inbounds ({ [7 x ptr] }, ptr @_ZTVN25SectionBasedConfiguration12NullKeyValueE, i64 0, inrange i32 0, i64 2), ptr %0, align 8, !tbaa !9
  %2 = getelementptr inbounds %"class.SectionBasedConfiguration::NullKeyValue", ptr %0, i64 0, i32 1
  %3 = load ptr, ptr %2, align 8, !tbaa !63
  %4 = getelementptr inbounds %"class.SectionBasedConfiguration::NullKeyValue", ptr %0, i64 0, i32 1, i32 2
  %5 = icmp eq ptr %3, %4
  br i1 %5, label %6, label %10

6:                                                ; preds = %1
  %7 = getelementptr inbounds %"class.SectionBasedConfiguration::NullKeyValue", ptr %0, i64 0, i32 1, i32 1
  %8 = load i64, ptr %7, align 8, !tbaa !13
  %9 = icmp ult i64 %8, 16
  tail call void @llvm.assume(i1 %9)
  br label %11

10:                                               ; preds = %1
  tail call void @_ZdlPv(ptr noundef %3) #26
  br label %11

11:                                               ; preds = %10, %6
  ret void
}

; Function Attrs: inlinehint sspstrong uwtable
define linkonce_odr dso_local void @_ZN25SectionBasedConfiguration5GroupD2Ev(ptr noundef nonnull align 8 dereferenceable(24) %0) unnamed_addr #4 comdat align 2 personality ptr @__gxx_personality_v0 {
  %2 = load ptr, ptr %0, align 8, !tbaa !64
  %3 = getelementptr inbounds %"struct.std::_Vector_base<SectionBasedConfiguration::KeyValue2, std::allocator<SectionBasedConfiguration::KeyValue2> >::_Vector_impl_data", ptr %0, i64 0, i32 1
  %4 = load ptr, ptr %3, align 8, !tbaa !65
  %5 = icmp eq ptr %2, %4
  br i1 %5, label %15, label %6

6:                                                ; preds = %1, %10
  %7 = phi ptr [ %11, %10 ], [ %2, %1 ]
  %8 = load ptr, ptr %7, align 8, !tbaa !9
  %9 = load ptr, ptr %8, align 8
  invoke void %9(ptr noundef nonnull align 8 dereferenceable(104) %7)
          to label %10 unwind label %19

10:                                               ; preds = %6
  %11 = getelementptr inbounds %"class.SectionBasedConfiguration::KeyValue2", ptr %7, i64 1
  %12 = icmp eq ptr %11, %4
  br i1 %12, label %13, label %6

13:                                               ; preds = %10
  %14 = load ptr, ptr %0, align 8, !tbaa !64
  br label %15

15:                                               ; preds = %13, %1
  %16 = phi ptr [ %14, %13 ], [ %2, %1 ]
  %17 = icmp eq ptr %16, null
  br i1 %17, label %25, label %18

18:                                               ; preds = %15
  tail call void @_ZdlPv(ptr noundef nonnull %16) #26
  br label %25

19:                                               ; preds = %6
  %20 = landingpad { ptr, i32 }
          cleanup
  %21 = load ptr, ptr %0, align 8, !tbaa !64
  %22 = icmp eq ptr %21, null
  br i1 %22, label %24, label %23

23:                                               ; preds = %19
  tail call void @_ZdlPv(ptr noundef nonnull %21) #26
  br label %24

24:                                               ; preds = %23, %19
  resume { ptr, i32 } %20

25:                                               ; preds = %15, %18
  ret void
}

; Function Attrs: sspstrong uwtable
define linkonce_odr dso_local void @_ZNSt6vectorIN25SectionBasedConfiguration9KeyValue1ESaIS1_EED2Ev(ptr noundef nonnull align 8 dereferenceable(24) %0) unnamed_addr #0 comdat align 2 personality ptr @__gxx_personality_v0 {
  %2 = load ptr, ptr %0, align 8, !tbaa !66
  %3 = getelementptr inbounds %"struct.std::_Vector_base<SectionBasedConfiguration::KeyValue1, std::allocator<SectionBasedConfiguration::KeyValue1> >::_Vector_impl_data", ptr %0, i64 0, i32 1
  %4 = load ptr, ptr %3, align 8, !tbaa !67
  %5 = icmp eq ptr %2, %4
  br i1 %5, label %15, label %6

6:                                                ; preds = %1, %10
  %7 = phi ptr [ %11, %10 ], [ %2, %1 ]
  %8 = load ptr, ptr %7, align 8, !tbaa !9
  %9 = load ptr, ptr %8, align 8
  invoke void %9(ptr noundef nonnull align 8 dereferenceable(80) %7)
          to label %10 unwind label %20

10:                                               ; preds = %6
  %11 = getelementptr inbounds %"class.SectionBasedConfiguration::KeyValue1", ptr %7, i64 1
  %12 = icmp eq ptr %11, %4
  br i1 %12, label %13, label %6

13:                                               ; preds = %10
  %14 = load ptr, ptr %0, align 8, !tbaa !66
  br label %15

15:                                               ; preds = %13, %1
  %16 = phi ptr [ %14, %13 ], [ %2, %1 ]
  %17 = icmp eq ptr %16, null
  br i1 %17, label %19, label %18

18:                                               ; preds = %15
  tail call void @_ZdlPv(ptr noundef nonnull %16) #26
  br label %19

19:                                               ; preds = %15, %18
  ret void

20:                                               ; preds = %6
  %21 = landingpad { ptr, i32 }
          cleanup
  %22 = load ptr, ptr %0, align 8, !tbaa !66
  %23 = icmp eq ptr %22, null
  br i1 %23, label %25, label %24

24:                                               ; preds = %20
  tail call void @_ZdlPv(ptr noundef nonnull %22) #26
  br label %25

25:                                               ; preds = %24, %20
  resume { ptr, i32 } %21
}

; Function Attrs: sspstrong uwtable
define dso_local void @_ZN25SectionBasedConfigurationD2Ev(ptr noundef nonnull align 8 dereferenceable(416) %0) unnamed_addr #0 align 2 personality ptr @__gxx_personality_v0 {
  store ptr getelementptr inbounds ({ [66 x ptr] }, ptr @_ZTV25SectionBasedConfiguration, i64 0, inrange i32 0, i64 2), ptr %0, align 8, !tbaa !9
  invoke void @_ZN25SectionBasedConfiguration5clearEv(ptr noundef nonnull align 8 dereferenceable(416) %0)
          to label %2 unwind label %108

2:                                                ; preds = %1
  %3 = getelementptr inbounds %class.SectionBasedConfiguration, ptr %0, i64 0, i32 1
  %4 = load ptr, ptr %3, align 8, !tbaa !25
  %5 = icmp eq ptr %4, null
  br i1 %5, label %10, label %6

6:                                                ; preds = %2
  %7 = load ptr, ptr %4, align 8, !tbaa !9
  %8 = getelementptr inbounds ptr, ptr %7, i64 1
  %9 = load ptr, ptr %8, align 8
  invoke void %9(ptr noundef nonnull align 8 dereferenceable(8) %4)
          to label %10 unwind label %108

10:                                               ; preds = %6, %2
  %11 = getelementptr inbounds %class.SectionBasedConfiguration, ptr %0, i64 0, i32 12
  invoke void @_ZN16CommonStringPoolD1Ev(ptr noundef nonnull align 8 dereferenceable(48) %11)
          to label %12 unwind label %111

12:                                               ; preds = %10
  %13 = getelementptr inbounds %class.SectionBasedConfiguration, ptr %0, i64 0, i32 11
  %14 = getelementptr inbounds %class.SectionBasedConfiguration, ptr %0, i64 0, i32 11, i32 0, i32 0, i32 1, i32 0, i32 1
  %15 = load ptr, ptr %14, align 8, !tbaa !21
  invoke void @_ZNSt8_Rb_treeINSt7__cxx1112basic_stringIcSt11char_traitsIcESaIcEEESt4pairIKS5_S5_ESt10_Select1stIS8_ESt4lessIS5_ESaIS8_EE8_M_eraseEPSt13_Rb_tree_nodeIS8_E(ptr noundef nonnull align 8 dereferenceable(48) %13, ptr noundef %15)
          to label %16 unwind label %113

16:                                               ; preds = %12
  %17 = getelementptr inbounds %class.SectionBasedConfiguration, ptr %0, i64 0, i32 10
  store ptr getelementptr inbounds ({ [7 x ptr] }, ptr @_ZTVN25SectionBasedConfiguration12NullKeyValueE, i64 0, inrange i32 0, i64 2), ptr %17, align 8, !tbaa !9
  %18 = getelementptr inbounds %class.SectionBasedConfiguration, ptr %0, i64 0, i32 10, i32 1
  %19 = load ptr, ptr %18, align 8, !tbaa !63
  %20 = getelementptr inbounds %class.SectionBasedConfiguration, ptr %0, i64 0, i32 10, i32 1, i32 2
  %21 = icmp eq ptr %19, %20
  br i1 %21, label %22, label %26

22:                                               ; preds = %16
  %23 = getelementptr inbounds %class.SectionBasedConfiguration, ptr %0, i64 0, i32 10, i32 1, i32 1
  %24 = load i64, ptr %23, align 8, !tbaa !13
  %25 = icmp ult i64 %24, 16
  tail call void @llvm.assume(i1 %25)
  br label %27

26:                                               ; preds = %16
  tail call void @_ZdlPv(ptr noundef %19) #26
  br label %27

27:                                               ; preds = %26, %22
  %28 = getelementptr inbounds %class.SectionBasedConfiguration, ptr %0, i64 0, i32 9
  %29 = load ptr, ptr %28, align 8, !tbaa !64
  %30 = getelementptr inbounds %class.SectionBasedConfiguration, ptr %0, i64 0, i32 9, i32 0, i32 0, i32 0, i32 0, i32 1
  %31 = load ptr, ptr %30, align 8, !tbaa !65
  %32 = icmp eq ptr %29, %31
  br i1 %32, label %42, label %33

33:                                               ; preds = %27, %37
  %34 = phi ptr [ %38, %37 ], [ %29, %27 ]
  %35 = load ptr, ptr %34, align 8, !tbaa !9
  %36 = load ptr, ptr %35, align 8
  invoke void %36(ptr noundef nonnull align 8 dereferenceable(104) %34)
          to label %37 unwind label %46

37:                                               ; preds = %33
  %38 = getelementptr inbounds %"class.SectionBasedConfiguration::KeyValue2", ptr %34, i64 1
  %39 = icmp eq ptr %38, %31
  br i1 %39, label %40, label %33

40:                                               ; preds = %37
  %41 = load ptr, ptr %28, align 8, !tbaa !64
  br label %42

42:                                               ; preds = %40, %27
  %43 = phi ptr [ %41, %40 ], [ %29, %27 ]
  %44 = icmp eq ptr %43, null
  br i1 %44, label %51, label %45

45:                                               ; preds = %42
  tail call void @_ZdlPv(ptr noundef nonnull %43) #26
  br label %51

46:                                               ; preds = %33
  %47 = landingpad { ptr, i32 }
          cleanup
  %48 = load ptr, ptr %28, align 8, !tbaa !64
  %49 = icmp eq ptr %48, null
  br i1 %49, label %136, label %50

50:                                               ; preds = %46
  tail call void @_ZdlPv(ptr noundef nonnull %48) #26
  br label %136

51:                                               ; preds = %45, %42
  %52 = getelementptr inbounds %class.SectionBasedConfiguration, ptr %0, i64 0, i32 8
  %53 = getelementptr inbounds %class.SectionBasedConfiguration, ptr %0, i64 0, i32 8, i32 0, i32 0, i32 1, i32 0, i32 1
  %54 = load ptr, ptr %53, align 8, !tbaa !21
  invoke void @_ZNSt8_Rb_treeINSt7__cxx1112basic_stringIcSt11char_traitsIcESaIcEEESt4pairIKS5_N25SectionBasedConfiguration5GroupEESt10_Select1stISA_ESt4lessIS5_ESaISA_EE8_M_eraseEPSt13_Rb_tree_nodeISA_E(ptr noundef nonnull align 8 dereferenceable(48) %52, ptr noundef %54)
          to label %55 unwind label %134

55:                                               ; preds = %51
  %56 = getelementptr inbounds %class.SectionBasedConfiguration, ptr %0, i64 0, i32 7
  %57 = getelementptr inbounds %class.SectionBasedConfiguration, ptr %0, i64 0, i32 7, i32 0, i32 0, i32 1, i32 0, i32 1
  %58 = load ptr, ptr %57, align 8, !tbaa !21
  invoke void @_ZNSt8_Rb_treeINSt7__cxx1112basic_stringIcSt11char_traitsIcESaIcEEESt4pairIKS5_N25SectionBasedConfiguration9KeyValue1EESt10_Select1stISA_ESt4lessIS5_ESaISA_EE8_M_eraseEPSt13_Rb_tree_nodeISA_E(ptr noundef nonnull align 8 dereferenceable(48) %56, ptr noundef %58)
          to label %59 unwind label %141

59:                                               ; preds = %55
  %60 = getelementptr inbounds %class.SectionBasedConfiguration, ptr %0, i64 0, i32 6
  %61 = getelementptr inbounds %class.SectionBasedConfiguration, ptr %0, i64 0, i32 6, i32 0, i32 0, i32 1, i32 0, i32 1
  %62 = load ptr, ptr %61, align 8, !tbaa !21
  invoke void @_ZNSt8_Rb_treeINSt7__cxx1112basic_stringIcSt11char_traitsIcESaIcEEES5_St9_IdentityIS5_ESt4lessIS5_ESaIS5_EE8_M_eraseEPSt13_Rb_tree_nodeIS5_E(ptr noundef nonnull align 8 dereferenceable(48) %60, ptr noundef %62)
          to label %63 unwind label %148

63:                                               ; preds = %59
  %64 = getelementptr inbounds %class.SectionBasedConfiguration, ptr %0, i64 0, i32 5
  %65 = load ptr, ptr %64, align 8, !tbaa !63
  %66 = getelementptr inbounds %class.SectionBasedConfiguration, ptr %0, i64 0, i32 5, i32 2
  %67 = icmp eq ptr %65, %66
  br i1 %67, label %68, label %72

68:                                               ; preds = %63
  %69 = getelementptr inbounds %class.SectionBasedConfiguration, ptr %0, i64 0, i32 5, i32 1
  %70 = load i64, ptr %69, align 8, !tbaa !13
  %71 = icmp ult i64 %70, 16
  tail call void @llvm.assume(i1 %71)
  br label %73

72:                                               ; preds = %63
  tail call void @_ZdlPv(ptr noundef %65) #26
  br label %73

73:                                               ; preds = %72, %68
  %74 = getelementptr inbounds %class.SectionBasedConfiguration, ptr %0, i64 0, i32 3
  %75 = load ptr, ptr %74, align 8, !tbaa !63
  %76 = getelementptr inbounds %class.SectionBasedConfiguration, ptr %0, i64 0, i32 3, i32 2
  %77 = icmp eq ptr %75, %76
  br i1 %77, label %78, label %82

78:                                               ; preds = %73
  %79 = getelementptr inbounds %class.SectionBasedConfiguration, ptr %0, i64 0, i32 3, i32 1
  %80 = load i64, ptr %79, align 8, !tbaa !13
  %81 = icmp ult i64 %80, 16
  tail call void @llvm.assume(i1 %81)
  br label %83

82:                                               ; preds = %73
  tail call void @_ZdlPv(ptr noundef %75) #26
  br label %83

83:                                               ; preds = %82, %78
  %84 = getelementptr inbounds %class.SectionBasedConfiguration, ptr %0, i64 0, i32 2
  %85 = load ptr, ptr %84, align 8, !tbaa !66
  %86 = getelementptr inbounds %class.SectionBasedConfiguration, ptr %0, i64 0, i32 2, i32 0, i32 0, i32 0, i32 1
  %87 = load ptr, ptr %86, align 8, !tbaa !67
  %88 = icmp eq ptr %85, %87
  br i1 %88, label %98, label %89

89:                                               ; preds = %83, %93
  %90 = phi ptr [ %94, %93 ], [ %85, %83 ]
  %91 = load ptr, ptr %90, align 8, !tbaa !9
  %92 = load ptr, ptr %91, align 8
  invoke void %92(ptr noundef nonnull align 8 dereferenceable(80) %90)
          to label %93 unwind label %102

93:                                               ; preds = %89
  %94 = getelementptr inbounds %"class.SectionBasedConfiguration::KeyValue1", ptr %90, i64 1
  %95 = icmp eq ptr %94, %87
  br i1 %95, label %96, label %89

96:                                               ; preds = %93
  %97 = load ptr, ptr %84, align 8, !tbaa !66
  br label %98

98:                                               ; preds = %96, %83
  %99 = phi ptr [ %97, %96 ], [ %85, %83 ]
  %100 = icmp eq ptr %99, null
  br i1 %100, label %107, label %101

101:                                              ; preds = %98
  tail call void @_ZdlPv(ptr noundef nonnull %99) #26
  br label %107

102:                                              ; preds = %89
  %103 = landingpad { ptr, i32 }
          cleanup
  %104 = load ptr, ptr %84, align 8, !tbaa !66
  %105 = icmp eq ptr %104, null
  br i1 %105, label %178, label %106

106:                                              ; preds = %102
  tail call void @_ZdlPv(ptr noundef nonnull %104) #26
  br label %178

107:                                              ; preds = %101, %98
  tail call void @_ZN7cObjectD2Ev(ptr noundef nonnull align 8 dereferenceable(8) %0)
  ret void

108:                                              ; preds = %6, %1
  %109 = landingpad { ptr, i32 }
          cleanup
  %110 = getelementptr inbounds %class.SectionBasedConfiguration, ptr %0, i64 0, i32 12
  invoke void @_ZN16CommonStringPoolD1Ev(ptr noundef nonnull align 8 dereferenceable(48) %110)
          to label %115 unwind label %181

111:                                              ; preds = %10
  %112 = landingpad { ptr, i32 }
          cleanup
  br label %115

113:                                              ; preds = %12
  %114 = landingpad { ptr, i32 }
          cleanup
  br label %120

115:                                              ; preds = %108, %111
  %116 = phi { ptr, i32 } [ %112, %111 ], [ %109, %108 ]
  %117 = getelementptr inbounds %class.SectionBasedConfiguration, ptr %0, i64 0, i32 11
  %118 = getelementptr inbounds %class.SectionBasedConfiguration, ptr %0, i64 0, i32 11, i32 0, i32 0, i32 1, i32 0, i32 1
  %119 = load ptr, ptr %118, align 8, !tbaa !21
  invoke void @_ZNSt8_Rb_treeINSt7__cxx1112basic_stringIcSt11char_traitsIcESaIcEEESt4pairIKS5_S5_ESt10_Select1stIS8_ESt4lessIS5_ESaIS8_EE8_M_eraseEPSt13_Rb_tree_nodeIS8_E(ptr noundef nonnull align 8 dereferenceable(48) %117, ptr noundef %119)
          to label %120 unwind label %181

120:                                              ; preds = %115, %113
  %121 = phi { ptr, i32 } [ %114, %113 ], [ %116, %115 ]
  %122 = getelementptr inbounds %class.SectionBasedConfiguration, ptr %0, i64 0, i32 10
  store ptr getelementptr inbounds ({ [7 x ptr] }, ptr @_ZTVN25SectionBasedConfiguration12NullKeyValueE, i64 0, inrange i32 0, i64 2), ptr %122, align 8, !tbaa !9
  %123 = getelementptr inbounds %class.SectionBasedConfiguration, ptr %0, i64 0, i32 10, i32 1
  %124 = load ptr, ptr %123, align 8, !tbaa !63
  %125 = getelementptr inbounds %class.SectionBasedConfiguration, ptr %0, i64 0, i32 10, i32 1, i32 2
  %126 = icmp eq ptr %124, %125
  br i1 %126, label %127, label %131

127:                                              ; preds = %120
  %128 = getelementptr inbounds %class.SectionBasedConfiguration, ptr %0, i64 0, i32 10, i32 1, i32 1
  %129 = load i64, ptr %128, align 8, !tbaa !13
  %130 = icmp ult i64 %129, 16
  tail call void @llvm.assume(i1 %130)
  br label %132

131:                                              ; preds = %120
  tail call void @_ZdlPv(ptr noundef %124) #26
  br label %132

132:                                              ; preds = %131, %127
  %133 = getelementptr inbounds %class.SectionBasedConfiguration, ptr %0, i64 0, i32 9
  invoke void @_ZN25SectionBasedConfiguration5GroupD2Ev(ptr noundef nonnull align 8 dereferenceable(24) %133)
          to label %136 unwind label %181

134:                                              ; preds = %51
  %135 = landingpad { ptr, i32 }
          cleanup
  br label %143

136:                                              ; preds = %50, %46, %132
  %137 = phi { ptr, i32 } [ %121, %132 ], [ %47, %50 ], [ %47, %46 ]
  %138 = getelementptr inbounds %class.SectionBasedConfiguration, ptr %0, i64 0, i32 8
  %139 = getelementptr inbounds %class.SectionBasedConfiguration, ptr %0, i64 0, i32 8, i32 0, i32 0, i32 1, i32 0, i32 1
  %140 = load ptr, ptr %139, align 8, !tbaa !21
  invoke void @_ZNSt8_Rb_treeINSt7__cxx1112basic_stringIcSt11char_traitsIcESaIcEEESt4pairIKS5_N25SectionBasedConfiguration5GroupEESt10_Select1stISA_ESt4lessIS5_ESaISA_EE8_M_eraseEPSt13_Rb_tree_nodeISA_E(ptr noundef nonnull align 8 dereferenceable(48) %138, ptr noundef %140)
          to label %143 unwind label %181

141:                                              ; preds = %55
  %142 = landingpad { ptr, i32 }
          cleanup
  br label %150

143:                                              ; preds = %136, %134
  %144 = phi { ptr, i32 } [ %135, %134 ], [ %137, %136 ]
  %145 = getelementptr inbounds %class.SectionBasedConfiguration, ptr %0, i64 0, i32 7
  %146 = getelementptr inbounds %class.SectionBasedConfiguration, ptr %0, i64 0, i32 7, i32 0, i32 0, i32 1, i32 0, i32 1
  %147 = load ptr, ptr %146, align 8, !tbaa !21
  invoke void @_ZNSt8_Rb_treeINSt7__cxx1112basic_stringIcSt11char_traitsIcESaIcEEESt4pairIKS5_N25SectionBasedConfiguration9KeyValue1EESt10_Select1stISA_ESt4lessIS5_ESaISA_EE8_M_eraseEPSt13_Rb_tree_nodeISA_E(ptr noundef nonnull align 8 dereferenceable(48) %145, ptr noundef %147)
          to label %150 unwind label %181

148:                                              ; preds = %59
  %149 = landingpad { ptr, i32 }
          cleanup
  br label %155

150:                                              ; preds = %143, %141
  %151 = phi { ptr, i32 } [ %142, %141 ], [ %144, %143 ]
  %152 = getelementptr inbounds %class.SectionBasedConfiguration, ptr %0, i64 0, i32 6
  %153 = getelementptr inbounds %class.SectionBasedConfiguration, ptr %0, i64 0, i32 6, i32 0, i32 0, i32 1, i32 0, i32 1
  %154 = load ptr, ptr %153, align 8, !tbaa !21
  invoke void @_ZNSt8_Rb_treeINSt7__cxx1112basic_stringIcSt11char_traitsIcESaIcEEES5_St9_IdentityIS5_ESt4lessIS5_ESaIS5_EE8_M_eraseEPSt13_Rb_tree_nodeIS5_E(ptr noundef nonnull align 8 dereferenceable(48) %152, ptr noundef %154)
          to label %155 unwind label %181

155:                                              ; preds = %150, %148
  %156 = phi { ptr, i32 } [ %149, %148 ], [ %151, %150 ]
  %157 = getelementptr inbounds %class.SectionBasedConfiguration, ptr %0, i64 0, i32 5
  %158 = load ptr, ptr %157, align 8, !tbaa !63
  %159 = getelementptr inbounds %class.SectionBasedConfiguration, ptr %0, i64 0, i32 5, i32 2
  %160 = icmp eq ptr %158, %159
  br i1 %160, label %161, label %165

161:                                              ; preds = %155
  %162 = getelementptr inbounds %class.SectionBasedConfiguration, ptr %0, i64 0, i32 5, i32 1
  %163 = load i64, ptr %162, align 8, !tbaa !13
  %164 = icmp ult i64 %163, 16
  tail call void @llvm.assume(i1 %164)
  br label %166

165:                                              ; preds = %155
  tail call void @_ZdlPv(ptr noundef %158) #26
  br label %166

166:                                              ; preds = %165, %161
  %167 = getelementptr inbounds %class.SectionBasedConfiguration, ptr %0, i64 0, i32 3
  %168 = load ptr, ptr %167, align 8, !tbaa !63
  %169 = getelementptr inbounds %class.SectionBasedConfiguration, ptr %0, i64 0, i32 3, i32 2
  %170 = icmp eq ptr %168, %169
  br i1 %170, label %171, label %175

171:                                              ; preds = %166
  %172 = getelementptr inbounds %class.SectionBasedConfiguration, ptr %0, i64 0, i32 3, i32 1
  %173 = load i64, ptr %172, align 8, !tbaa !13
  %174 = icmp ult i64 %173, 16
  tail call void @llvm.assume(i1 %174)
  br label %176

175:                                              ; preds = %166
  tail call void @_ZdlPv(ptr noundef %168) #26
  br label %176

176:                                              ; preds = %175, %171
  %177 = getelementptr inbounds %class.SectionBasedConfiguration, ptr %0, i64 0, i32 2
  invoke void @_ZNSt6vectorIN25SectionBasedConfiguration9KeyValue1ESaIS1_EED2Ev(ptr noundef nonnull align 8 dereferenceable(24) %177)
          to label %178 unwind label %181

178:                                              ; preds = %106, %102, %176
  %179 = phi { ptr, i32 } [ %156, %176 ], [ %103, %106 ], [ %103, %102 ]
  invoke void @_ZN7cObjectD2Ev(ptr noundef nonnull align 8 dereferenceable(8) %0)
          to label %180 unwind label %181

180:                                              ; preds = %178
  resume { ptr, i32 } %179

181:                                              ; preds = %150, %143, %136, %115, %178, %176, %132, %108
  %182 = landingpad { ptr, i32 }
          catch ptr null
  %183 = extractvalue { ptr, i32 } %182, 0
  tail call void @__clang_call_terminate(ptr %183) #27
  unreachable
}

; Function Attrs: sspstrong uwtable
define dso_local void @_ZN25SectionBasedConfiguration5clearEv(ptr noundef nonnull align 8 dereferenceable(416) %0) local_unnamed_addr #0 align 2 {
  %2 = getelementptr inbounds %class.SectionBasedConfiguration, ptr %0, i64 0, i32 3
  %3 = getelementptr inbounds %class.SectionBasedConfiguration, ptr %0, i64 0, i32 3, i32 1
  %4 = load i64, ptr %3, align 8, !tbaa !13
  %5 = tail call noundef nonnull align 8 dereferenceable(32) ptr @_ZNSt7__cxx1112basic_stringIcSt11char_traitsIcESaIcEE10_M_replaceEmmPKcm(ptr noundef nonnull align 8 dereferenceable(32) %2, i64 noundef 0, i64 noundef %4, ptr noundef nonnull @.str.14, i64 noundef 0)
  %6 = getelementptr inbounds %class.SectionBasedConfiguration, ptr %0, i64 0, i32 4
  store i32 0, ptr %6, align 8, !tbaa !62
  %7 = getelementptr inbounds %class.SectionBasedConfiguration, ptr %0, i64 0, i32 7
  %8 = getelementptr inbounds %class.SectionBasedConfiguration, ptr %0, i64 0, i32 7, i32 0, i32 0, i32 1, i32 0, i32 1
  %9 = load ptr, ptr %8, align 8, !tbaa !21
  tail call void @_ZNSt8_Rb_treeINSt7__cxx1112basic_stringIcSt11char_traitsIcESaIcEEESt4pairIKS5_N25SectionBasedConfiguration9KeyValue1EESt10_Select1stISA_ESt4lessIS5_ESaISA_EE8_M_eraseEPSt13_Rb_tree_nodeISA_E(ptr noundef nonnull align 8 dereferenceable(48) %7, ptr noundef %9)
  %10 = getelementptr inbounds %class.SectionBasedConfiguration, ptr %0, i64 0, i32 7, i32 0, i32 0, i32 1
  store ptr null, ptr %8, align 8, !tbaa !21
  %11 = getelementptr inbounds %class.SectionBasedConfiguration, ptr %0, i64 0, i32 7, i32 0, i32 0, i32 1, i32 0, i32 2
  store ptr %10, ptr %11, align 8, !tbaa !22
  %12 = getelementptr inbounds %class.SectionBasedConfiguration, ptr %0, i64 0, i32 7, i32 0, i32 0, i32 1, i32 0, i32 3
  store ptr %10, ptr %12, align 8, !tbaa !23
  %13 = getelementptr inbounds %class.SectionBasedConfiguration, ptr %0, i64 0, i32 7, i32 0, i32 0, i32 1, i32 1
  store i64 0, ptr %13, align 8, !tbaa !24
  %14 = getelementptr inbounds %class.SectionBasedConfiguration, ptr %0, i64 0, i32 8
  %15 = getelementptr inbounds %class.SectionBasedConfiguration, ptr %0, i64 0, i32 8, i32 0, i32 0, i32 1, i32 0, i32 1
  %16 = load ptr, ptr %15, align 8, !tbaa !21
  tail call void @_ZNSt8_Rb_treeINSt7__cxx1112basic_stringIcSt11char_traitsIcESaIcEEESt4pairIKS5_N25SectionBasedConfiguration5GroupEESt10_Select1stISA_ESt4lessIS5_ESaISA_EE8_M_eraseEPSt13_Rb_tree_nodeISA_E(ptr noundef nonnull align 8 dereferenceable(48) %14, ptr noundef %16)
  %17 = getelementptr inbounds %class.SectionBasedConfiguration, ptr %0, i64 0, i32 8, i32 0, i32 0, i32 1
  store ptr null, ptr %15, align 8, !tbaa !21
  %18 = getelementptr inbounds %class.SectionBasedConfiguration, ptr %0, i64 0, i32 8, i32 0, i32 0, i32 1, i32 0, i32 2
  store ptr %17, ptr %18, align 8, !tbaa !22
  %19 = getelementptr inbounds %class.SectionBasedConfiguration, ptr %0, i64 0, i32 8, i32 0, i32 0, i32 1, i32 0, i32 3
  store ptr %17, ptr %19, align 8, !tbaa !23
  %20 = getelementptr inbounds %class.SectionBasedConfiguration, ptr %0, i64 0, i32 8, i32 0, i32 0, i32 1, i32 1
  store i64 0, ptr %20, align 8, !tbaa !24
  %21 = getelementptr inbounds %class.SectionBasedConfiguration, ptr %0, i64 0, i32 9
  %22 = load ptr, ptr %21, align 8, !tbaa !64
  %23 = getelementptr inbounds %class.SectionBasedConfiguration, ptr %0, i64 0, i32 9, i32 0, i32 0, i32 0, i32 0, i32 1
  %24 = load ptr, ptr %23, align 8, !tbaa !65
  %25 = icmp eq ptr %24, %22
  br i1 %25, label %33, label %26

26:                                               ; preds = %1, %26
  %27 = phi ptr [ %30, %26 ], [ %22, %1 ]
  %28 = load ptr, ptr %27, align 8, !tbaa !9
  %29 = load ptr, ptr %28, align 8
  tail call void %29(ptr noundef nonnull align 8 dereferenceable(104) %27)
  %30 = getelementptr inbounds %"class.SectionBasedConfiguration::KeyValue2", ptr %27, i64 1
  %31 = icmp eq ptr %30, %24
  br i1 %31, label %32, label %26

32:                                               ; preds = %26
  store ptr %22, ptr %23, align 8, !tbaa !65
  br label %33

33:                                               ; preds = %1, %32
  %34 = getelementptr inbounds %class.SectionBasedConfiguration, ptr %0, i64 0, i32 11
  %35 = getelementptr inbounds %class.SectionBasedConfiguration, ptr %0, i64 0, i32 11, i32 0, i32 0, i32 1, i32 0, i32 1
  %36 = load ptr, ptr %35, align 8, !tbaa !21
  tail call void @_ZNSt8_Rb_treeINSt7__cxx1112basic_stringIcSt11char_traitsIcESaIcEEESt4pairIKS5_S5_ESt10_Select1stIS8_ESt4lessIS5_ESaIS8_EE8_M_eraseEPSt13_Rb_tree_nodeIS8_E(ptr noundef nonnull align 8 dereferenceable(48) %34, ptr noundef %36)
  %37 = getelementptr inbounds %class.SectionBasedConfiguration, ptr %0, i64 0, i32 11, i32 0, i32 0, i32 1
  store ptr null, ptr %35, align 8, !tbaa !21
  %38 = getelementptr inbounds %class.SectionBasedConfiguration, ptr %0, i64 0, i32 11, i32 0, i32 0, i32 1, i32 0, i32 2
  store ptr %37, ptr %38, align 8, !tbaa !22
  %39 = getelementptr inbounds %class.SectionBasedConfiguration, ptr %0, i64 0, i32 11, i32 0, i32 0, i32 1, i32 0, i32 3
  store ptr %37, ptr %39, align 8, !tbaa !23
  %40 = getelementptr inbounds %class.SectionBasedConfiguration, ptr %0, i64 0, i32 11, i32 0, i32 0, i32 1, i32 1
  store i64 0, ptr %40, align 8, !tbaa !24
  ret void
}

declare void @_ZN16CommonStringPoolD1Ev(ptr noundef nonnull align 8 dereferenceable(48)) unnamed_addr #1

; Function Attrs: sspstrong uwtable
define dso_local void @_ZN25SectionBasedConfigurationD0Ev(ptr noundef nonnull align 8 dereferenceable(416) %0) unnamed_addr #0 align 2 personality ptr @__gxx_personality_v0 {
  invoke void @_ZN25SectionBasedConfigurationD2Ev(ptr noundef nonnull align 8 dereferenceable(416) %0)
          to label %2 unwind label %3

2:                                                ; preds = %1
  tail call void @_ZdlPv(ptr noundef nonnull %0) #26
  ret void

3:                                                ; preds = %1
  %4 = landingpad { ptr, i32 }
          cleanup
  tail call void @_ZdlPv(ptr noundef nonnull %0) #26
  resume { ptr, i32 } %4
}

; Function Attrs: nobuiltin nounwind
declare void @_ZdlPv(ptr noundef) local_unnamed_addr #5

; Function Attrs: sspstrong uwtable
define dso_local void @_ZN25SectionBasedConfiguration22setConfigurationReaderEP20cConfigurationReader(ptr noundef nonnull align 8 dereferenceable(416) %0, ptr noundef %1) unnamed_addr #0 align 2 {
  tail call void @_ZN25SectionBasedConfiguration5clearEv(ptr noundef nonnull align 8 dereferenceable(416) %0)
  %3 = getelementptr inbounds %class.SectionBasedConfiguration, ptr %0, i64 0, i32 1
  store ptr %1, ptr %3, align 8, !tbaa !25
  %4 = load ptr, ptr %1, align 8, !tbaa !9
  %5 = getelementptr inbounds ptr, ptr %4, i64 4
  %6 = load ptr, ptr %5, align 8
  %7 = tail call noundef ptr %6(ptr noundef nonnull align 8 dereferenceable(8) %1)
  %8 = getelementptr inbounds %class.SectionBasedConfiguration, ptr %0, i64 0, i32 10, i32 1
  %9 = getelementptr inbounds %class.SectionBasedConfiguration, ptr %0, i64 0, i32 10, i32 1, i32 1
  %10 = load i64, ptr %9, align 8, !tbaa !13
  %11 = tail call i64 @strlen(ptr noundef nonnull dereferenceable(1) %7) #28
  %12 = tail call noundef nonnull align 8 dereferenceable(32) ptr @_ZNSt7__cxx1112basic_stringIcSt11char_traitsIcESaIcEE10_M_replaceEmmPKcm(ptr noundef nonnull align 8 dereferenceable(32) %8, i64 noundef 0, i64 noundef %10, ptr noundef %7, i64 noundef %11)
  ret void
}

; Function Attrs: sspstrong uwtable
define dso_local void @_ZN25SectionBasedConfiguration27setCommandLineConfigOptionsERKSt3mapINSt7__cxx1112basic_stringIcSt11char_traitsIcESaIcEEES6_St4lessIS6_ESaISt4pairIKS6_S6_EEE(ptr noundef nonnull align 8 dereferenceable(416) %0, ptr noundef nonnull readonly align 8 dereferenceable(48) %1) unnamed_addr #0 align 2 personality ptr @__gxx_personality_v0 {
  %3 = alloca i64, align 8
  %4 = alloca i64, align 8
  %5 = alloca %"class.std::__cxx11::basic_string", align 8
  %6 = alloca %"class.std::__cxx11::basic_string", align 8
  %7 = alloca %"class.std::__cxx11::basic_string", align 8
  %8 = alloca %"class.SectionBasedConfiguration::KeyValue1", align 8
  %9 = getelementptr inbounds %class.SectionBasedConfiguration, ptr %0, i64 0, i32 2
  %10 = load ptr, ptr %9, align 8, !tbaa !66
  %11 = getelementptr inbounds %class.SectionBasedConfiguration, ptr %0, i64 0, i32 2, i32 0, i32 0, i32 0, i32 1
  %12 = load ptr, ptr %11, align 8, !tbaa !67
  %13 = icmp eq ptr %12, %10
  br i1 %13, label %21, label %14

14:                                               ; preds = %2, %14
  %15 = phi ptr [ %18, %14 ], [ %10, %2 ]
  %16 = load ptr, ptr %15, align 8, !tbaa !9
  %17 = load ptr, ptr %16, align 8
  tail call void %17(ptr noundef nonnull align 8 dereferenceable(80) %15)
  %18 = getelementptr inbounds %"class.SectionBasedConfiguration::KeyValue1", ptr %15, i64 1
  %19 = icmp eq ptr %18, %12
  br i1 %19, label %20, label %14

20:                                               ; preds = %14
  store ptr %10, ptr %11, align 8, !tbaa !67
  br label %21

21:                                               ; preds = %2, %20
  %22 = getelementptr inbounds i8, ptr %1, i64 24
  %23 = load ptr, ptr %22, align 8, !tbaa !22
  %24 = getelementptr inbounds i8, ptr %1, i64 8
  %25 = icmp eq ptr %23, %24
  br i1 %25, label %42, label %26

26:                                               ; preds = %21
  %27 = getelementptr inbounds %"class.std::__cxx11::basic_string", ptr %5, i64 0, i32 2
  %28 = getelementptr inbounds %"class.std::__cxx11::basic_string", ptr %5, i64 0, i32 1
  %29 = getelementptr inbounds %"class.std::__cxx11::basic_string", ptr %7, i64 0, i32 2
  %30 = getelementptr inbounds %"class.std::__cxx11::basic_string", ptr %7, i64 0, i32 1
  %31 = getelementptr inbounds %"class.std::__cxx11::basic_string", ptr %6, i64 0, i32 2
  %32 = getelementptr inbounds %"class.std::__cxx11::basic_string", ptr %6, i64 0, i32 1
  %33 = getelementptr inbounds %class.SectionBasedConfiguration, ptr %0, i64 0, i32 2, i32 0, i32 0, i32 0, i32 2
  %34 = getelementptr inbounds %"class.SectionBasedConfiguration::KeyValue1", ptr %8, i64 0, i32 1
  %35 = getelementptr inbounds %"class.SectionBasedConfiguration::KeyValue1", ptr %8, i64 0, i32 2
  %36 = getelementptr inbounds %"class.SectionBasedConfiguration::KeyValue1", ptr %8, i64 0, i32 2, i32 1
  %37 = getelementptr inbounds %"class.SectionBasedConfiguration::KeyValue1", ptr %8, i64 0, i32 3
  %38 = getelementptr inbounds %"class.SectionBasedConfiguration::KeyValue1", ptr %8, i64 0, i32 3, i32 1
  %39 = getelementptr inbounds %"class.SectionBasedConfiguration::KeyValue1", ptr %8, i64 0, i32 3, i32 2
  %40 = getelementptr inbounds %"class.SectionBasedConfiguration::KeyValue1", ptr %8, i64 0, i32 2, i32 2
  %41 = getelementptr inbounds i8, ptr %7, i64 19
  br label %43

42:                                               ; preds = %234, %21
  ret void

43:                                               ; preds = %26, %234
  %44 = phi ptr [ %23, %26 ], [ %235, %234 ]
  %45 = getelementptr inbounds %"struct.std::_Rb_tree_node", ptr %44, i64 0, i32 1
  %46 = load ptr, ptr %45, align 8, !tbaa !63
  %47 = getelementptr inbounds %"struct.std::_Rb_tree_node", ptr %44, i64 0, i32 1, i32 1
  %48 = load ptr, ptr %47, align 8, !tbaa !63
  %49 = call noundef ptr @strchr(ptr noundef nonnull dereferenceable(1) %46, i32 noundef 46) #29
  %50 = icmp eq ptr %49, null
  br i1 %50, label %54, label %51

51:                                               ; preds = %43
  %52 = call noundef ptr @strrchr(ptr noundef nonnull dereferenceable(1) %46, i32 noundef 46) #29
  %53 = getelementptr inbounds i8, ptr %52, i64 1
  br label %54

54:                                               ; preds = %43, %51
  %55 = phi ptr [ %53, %51 ], [ %46, %43 ]
  %56 = call noundef ptr @_ZN25SectionBasedConfiguration18lookupConfigOptionEPKc(ptr noundef %55)
  %57 = icmp eq ptr %56, null
  br i1 %57, label %58, label %63

58:                                               ; preds = %54
  %59 = call ptr @__cxa_allocate_exception(i64 128) #28
  invoke void (ptr, ptr, ...) @_ZN13cRuntimeErrorC1EPKcz(ptr noundef nonnull align 8 dereferenceable(124) %59, ptr noundef nonnull @.str, ptr noundef %46)
          to label %60 unwind label %61

60:                                               ; preds = %58
  call void @__cxa_throw(ptr nonnull %59, ptr nonnull @_ZTI13cRuntimeError, ptr nonnull @_ZN10cExceptionD2Ev) #30
  unreachable

61:                                               ; preds = %58
  %62 = landingpad { ptr, i32 }
          cleanup
  call void @__cxa_free_exception(ptr %59) #28
  br label %254

63:                                               ; preds = %54
  %64 = getelementptr inbounds %class.cConfigOption, ptr %56, i64 0, i32 1
  %65 = load i8, ptr %64, align 4, !tbaa !68, !range !76, !noundef !77
  %66 = icmp ne i8 %65, 0
  %67 = icmp eq ptr %46, %55
  %68 = or i1 %67, %66
  br i1 %68, label %79, label %69

69:                                               ; preds = %63
  %70 = call ptr @__cxa_allocate_exception(i64 128) #28
  %71 = load ptr, ptr %56, align 8, !tbaa !9
  %72 = getelementptr inbounds ptr, ptr %71, i64 6
  %73 = load ptr, ptr %72, align 8
  %74 = invoke noundef ptr %73(ptr noundef nonnull align 8 dereferenceable(20) %56)
          to label %75 unwind label %77

75:                                               ; preds = %69
  invoke void (ptr, ptr, ...) @_ZN13cRuntimeErrorC1EPKcz(ptr noundef nonnull align 8 dereferenceable(124) %70, ptr noundef nonnull @.str.11, ptr noundef %46, ptr noundef %74)
          to label %76 unwind label %77

76:                                               ; preds = %75
  call void @__cxa_throw(ptr nonnull %70, ptr nonnull @_ZTI13cRuntimeError, ptr nonnull @_ZN10cExceptionD2Ev) #30
  unreachable

77:                                               ; preds = %75, %69
  %78 = landingpad { ptr, i32 }
          cleanup
  call void @__cxa_free_exception(ptr %70) #28
  br label %254

79:                                               ; preds = %63
  call void @llvm.lifetime.start.p0(i64 32, ptr nonnull %5) #28
  store ptr %27, ptr %5, align 8, !tbaa !11
  store i64 0, ptr %28, align 8, !tbaa !13
  store i8 0, ptr %27, align 8, !tbaa !16
  %80 = and i1 %67, %66
  br i1 %80, label %81, label %146

81:                                               ; preds = %79
  call void @llvm.lifetime.start.p0(i64 32, ptr nonnull %6) #28
  call void @llvm.lifetime.start.p0(i64 32, ptr nonnull %7) #28
  store ptr %29, ptr %7, align 8, !tbaa !11
  call void @llvm.memcpy.p0.p0.i64(ptr noundef nonnull align 8 dereferenceable(3) %29, ptr noundef nonnull align 1 dereferenceable(3) @.str.12, i64 3, i1 false)
  store i64 3, ptr %30, align 8, !tbaa !13
  store i8 0, ptr %41, align 1, !tbaa !16
  call void @llvm.experimental.noalias.scope.decl(metadata !78)
  %82 = call i64 @strlen(ptr noundef nonnull dereferenceable(1) %46) #28, !noalias !78
  store ptr %31, ptr %6, align 8, !tbaa !11, !alias.scope !81
  store i64 0, ptr %32, align 8, !tbaa !13, !alias.scope !81
  store i8 0, ptr %31, align 8, !tbaa !16, !alias.scope !81
  %83 = add i64 %82, 3
  invoke void @_ZNSt7__cxx1112basic_stringIcSt11char_traitsIcESaIcEE7reserveEm(ptr noundef nonnull align 8 dereferenceable(32) %6, i64 noundef %83)
          to label %84 unwind label %98

84:                                               ; preds = %81
  %85 = load i64, ptr %32, align 8, !tbaa !13, !alias.scope !81
  %86 = add i64 %85, -4611686018427387901
  %87 = icmp ult i64 %86, 3
  br i1 %87, label %94, label %88

88:                                               ; preds = %84
  %89 = invoke noundef nonnull align 8 dereferenceable(32) ptr @_ZNSt7__cxx1112basic_stringIcSt11char_traitsIcESaIcEE9_M_appendEPKcm(ptr noundef nonnull align 8 dereferenceable(32) %6, ptr noundef nonnull %29, i64 noundef 3)
          to label %90 unwind label %98

90:                                               ; preds = %88
  %91 = load i64, ptr %32, align 8, !tbaa !13, !alias.scope !81
  %92 = sub i64 4611686018427387903, %91
  %93 = icmp ult i64 %92, %82
  br i1 %93, label %94, label %96

94:                                               ; preds = %90, %84
  invoke void @_ZSt20__throw_length_errorPKc(ptr noundef nonnull @.str.166) #30
          to label %95 unwind label %100

95:                                               ; preds = %94
  unreachable

96:                                               ; preds = %90
  %97 = invoke noundef nonnull align 8 dereferenceable(32) ptr @_ZNSt7__cxx1112basic_stringIcSt11char_traitsIcESaIcEE9_M_appendEPKcm(ptr noundef nonnull align 8 dereferenceable(32) %6, ptr noundef %46, i64 noundef %82)
          to label %110 unwind label %98

98:                                               ; preds = %81, %88, %96
  %99 = landingpad { ptr, i32 }
          cleanup
  br label %102

100:                                              ; preds = %94
  %101 = landingpad { ptr, i32 }
          cleanup
  br label %102

102:                                              ; preds = %100, %98
  %103 = phi { ptr, i32 } [ %99, %98 ], [ %101, %100 ]
  %104 = load ptr, ptr %6, align 8, !tbaa !63, !alias.scope !81
  %105 = icmp eq ptr %104, %31
  br i1 %105, label %106, label %109

106:                                              ; preds = %102
  %107 = load i64, ptr %32, align 8, !tbaa !13, !alias.scope !81
  %108 = icmp ult i64 %107, 16
  call void @llvm.assume(i1 %108)
  br label %137

109:                                              ; preds = %102
  call void @_ZdlPv(ptr noundef %104) #26
  br label %137

110:                                              ; preds = %96
  invoke void @_ZNSt7__cxx1112basic_stringIcSt11char_traitsIcESaIcEE9_M_assignERKS4_(ptr noundef nonnull align 8 dereferenceable(32) %5, ptr noundef nonnull align 8 dereferenceable(32) %6)
          to label %111 unwind label %129

111:                                              ; preds = %110
  %112 = load ptr, ptr %5, align 8, !tbaa !63
  %113 = load ptr, ptr %6, align 8, !tbaa !63
  %114 = icmp eq ptr %113, %31
  br i1 %114, label %115, label %118

115:                                              ; preds = %111
  %116 = load i64, ptr %32, align 8, !tbaa !13
  %117 = icmp ult i64 %116, 16
  call void @llvm.assume(i1 %117)
  br label %119

118:                                              ; preds = %111
  call void @_ZdlPv(ptr noundef %113) #26
  br label %119

119:                                              ; preds = %118, %115
  %120 = load ptr, ptr %7, align 8, !tbaa !63
  %121 = icmp eq ptr %120, %29
  br i1 %121, label %122, label %125

122:                                              ; preds = %119
  %123 = load i64, ptr %30, align 8, !tbaa !13
  %124 = icmp ult i64 %123, 16
  call void @llvm.assume(i1 %124)
  br label %126

125:                                              ; preds = %119
  call void @_ZdlPv(ptr noundef %120) #26
  br label %126

126:                                              ; preds = %125, %122
  call void @llvm.lifetime.end.p0(i64 32, ptr nonnull %7) #28
  call void @llvm.lifetime.end.p0(i64 32, ptr nonnull %6) #28
  br label %146

127:                                              ; preds = %152
  %128 = landingpad { ptr, i32 }
          cleanup
  br label %245

129:                                              ; preds = %110
  %130 = landingpad { ptr, i32 }
          cleanup
  %131 = load ptr, ptr %6, align 8, !tbaa !63
  %132 = icmp eq ptr %131, %31
  br i1 %132, label %133, label %136

133:                                              ; preds = %129
  %134 = load i64, ptr %32, align 8, !tbaa !13
  %135 = icmp ult i64 %134, 16
  call void @llvm.assume(i1 %135)
  br label %137

136:                                              ; preds = %129
  call void @_ZdlPv(ptr noundef %131) #26
  br label %137

137:                                              ; preds = %136, %133, %109, %106
  %138 = phi { ptr, i32 } [ %103, %109 ], [ %103, %106 ], [ %130, %133 ], [ %130, %136 ]
  %139 = load ptr, ptr %7, align 8, !tbaa !63
  %140 = icmp eq ptr %139, %29
  br i1 %140, label %141, label %144

141:                                              ; preds = %137
  %142 = load i64, ptr %30, align 8, !tbaa !13
  %143 = icmp ult i64 %142, 16
  call void @llvm.assume(i1 %143)
  br label %145

144:                                              ; preds = %137
  call void @_ZdlPv(ptr noundef %139) #26
  br label %145

145:                                              ; preds = %144, %141
  call void @llvm.lifetime.end.p0(i64 32, ptr nonnull %7) #28
  call void @llvm.lifetime.end.p0(i64 32, ptr nonnull %6) #28
  br label %245

146:                                              ; preds = %126, %79
  %147 = phi ptr [ %112, %126 ], [ %46, %79 ]
  %148 = load i8, ptr %48, align 1, !tbaa !16
  %149 = icmp eq i8 %148, 0
  br i1 %149, label %150, label %155

150:                                              ; preds = %146
  %151 = call ptr @__cxa_allocate_exception(i64 128) #28
  invoke void (ptr, ptr, ...) @_ZN13cRuntimeErrorC1EPKcz(ptr noundef nonnull align 8 dereferenceable(124) %151, ptr noundef nonnull @.str.13, ptr noundef %147)
          to label %152 unwind label %153

152:                                              ; preds = %150
  invoke void @__cxa_throw(ptr nonnull %151, ptr nonnull @_ZTI13cRuntimeError, ptr nonnull @_ZN10cExceptionD2Ev) #30
          to label %259 unwind label %127

153:                                              ; preds = %150
  %154 = landingpad { ptr, i32 }
          cleanup
  call void @__cxa_free_exception(ptr %151) #28
  br label %245

155:                                              ; preds = %146
  call void @llvm.lifetime.start.p0(i64 80, ptr nonnull %8) #28
  invoke void @_ZN25SectionBasedConfiguration9KeyValue1C2EPKNSt7__cxx1112basic_stringIcSt11char_traitsIcESaIcEEEPKcSA_(ptr noundef nonnull align 8 dereferenceable(80) %8, ptr noundef null, ptr noundef %147, ptr noundef nonnull %48)
          to label %156 unwind label %237

156:                                              ; preds = %155
  %157 = load ptr, ptr %11, align 8, !tbaa !5
  %158 = load ptr, ptr %33, align 8, !tbaa !84
  %159 = icmp eq ptr %157, %158
  br i1 %159, label %212, label %160

160:                                              ; preds = %156
  store ptr getelementptr inbounds ({ [7 x ptr] }, ptr @_ZTVN25SectionBasedConfiguration9KeyValue1E, i64 0, inrange i32 0, i64 2), ptr %157, align 8, !tbaa !9
  %161 = getelementptr inbounds %"class.SectionBasedConfiguration::KeyValue1", ptr %157, i64 0, i32 1
  %162 = load ptr, ptr %34, align 8, !tbaa !85
  store ptr %162, ptr %161, align 8, !tbaa !85
  %163 = getelementptr inbounds %"class.SectionBasedConfiguration::KeyValue1", ptr %157, i64 0, i32 2
  %164 = getelementptr inbounds %"class.SectionBasedConfiguration::KeyValue1", ptr %157, i64 0, i32 2, i32 2
  store ptr %164, ptr %163, align 8, !tbaa !11
  %165 = load ptr, ptr %35, align 8, !tbaa !63
  %166 = load i64, ptr %36, align 8, !tbaa !13
  call void @llvm.lifetime.start.p0(i64 8, ptr nonnull %4) #28
  store i64 %166, ptr %4, align 8, !tbaa !87
  %167 = icmp ugt i64 %166, 15
  br i1 %167, label %168, label %172

168:                                              ; preds = %160
  %169 = invoke noundef ptr @_ZNSt7__cxx1112basic_stringIcSt11char_traitsIcESaIcEE9_M_createERmm(ptr noundef nonnull align 8 dereferenceable(32) %163, ptr noundef nonnull align 8 dereferenceable(8) %4, i64 noundef 0)
          to label %170 unwind label %239

170:                                              ; preds = %168
  store ptr %169, ptr %163, align 8, !tbaa !63
  %171 = load i64, ptr %4, align 8, !tbaa !87
  store i64 %171, ptr %164, align 8, !tbaa !16
  br label %172

172:                                              ; preds = %170, %160
  %173 = phi ptr [ %169, %170 ], [ %164, %160 ]
  switch i64 %166, label %176 [
    i64 1, label %174
    i64 0, label %177
  ]

174:                                              ; preds = %172
  %175 = load i8, ptr %165, align 1, !tbaa !16
  store i8 %175, ptr %173, align 1, !tbaa !16
  br label %177

176:                                              ; preds = %172
  call void @llvm.memcpy.p0.p0.i64(ptr align 1 %173, ptr align 1 %165, i64 %166, i1 false)
  br label %177

177:                                              ; preds = %176, %174, %172
  %178 = load i64, ptr %4, align 8, !tbaa !87
  %179 = getelementptr inbounds %"class.SectionBasedConfiguration::KeyValue1", ptr %157, i64 0, i32 2, i32 1
  store i64 %178, ptr %179, align 8, !tbaa !13
  %180 = load ptr, ptr %163, align 8, !tbaa !63
  %181 = getelementptr inbounds i8, ptr %180, i64 %178
  store i8 0, ptr %181, align 1, !tbaa !16
  call void @llvm.lifetime.end.p0(i64 8, ptr nonnull %4) #28
  %182 = getelementptr inbounds %"class.SectionBasedConfiguration::KeyValue1", ptr %157, i64 0, i32 3
  %183 = getelementptr inbounds %"class.SectionBasedConfiguration::KeyValue1", ptr %157, i64 0, i32 3, i32 2
  store ptr %183, ptr %182, align 8, !tbaa !11
  %184 = load ptr, ptr %37, align 8, !tbaa !63
  %185 = load i64, ptr %38, align 8, !tbaa !13
  call void @llvm.lifetime.start.p0(i64 8, ptr nonnull %3) #28
  store i64 %185, ptr %3, align 8, !tbaa !87
  %186 = icmp ugt i64 %185, 15
  br i1 %186, label %187, label %191

187:                                              ; preds = %177
  %188 = invoke noundef ptr @_ZNSt7__cxx1112basic_stringIcSt11char_traitsIcESaIcEE9_M_createERmm(ptr noundef nonnull align 8 dereferenceable(32) %182, ptr noundef nonnull align 8 dereferenceable(8) %3, i64 noundef 0)
          to label %189 unwind label %196

189:                                              ; preds = %187
  store ptr %188, ptr %182, align 8, !tbaa !63
  %190 = load i64, ptr %3, align 8, !tbaa !87
  store i64 %190, ptr %183, align 8, !tbaa !16
  br label %191

191:                                              ; preds = %189, %177
  %192 = phi ptr [ %188, %189 ], [ %183, %177 ]
  switch i64 %185, label %195 [
    i64 1, label %193
    i64 0, label %205
  ]

193:                                              ; preds = %191
  %194 = load i8, ptr %184, align 1, !tbaa !16
  store i8 %194, ptr %192, align 1, !tbaa !16
  br label %205

195:                                              ; preds = %191
  call void @llvm.memcpy.p0.p0.i64(ptr align 1 %192, ptr align 1 %184, i64 %185, i1 false)
  br label %205

196:                                              ; preds = %187
  %197 = landingpad { ptr, i32 }
          cleanup
  %198 = load ptr, ptr %163, align 8, !tbaa !63
  %199 = icmp eq ptr %198, %164
  br i1 %199, label %200, label %204

200:                                              ; preds = %196
  %201 = getelementptr inbounds %"class.SectionBasedConfiguration::KeyValue1", ptr %157, i64 0, i32 2, i32 1
  %202 = load i64, ptr %201, align 8, !tbaa !13
  %203 = icmp ult i64 %202, 16
  call void @llvm.assume(i1 %203)
  br label %241

204:                                              ; preds = %196
  call void @_ZdlPv(ptr noundef %198) #26
  br label %241

205:                                              ; preds = %195, %193, %191
  %206 = load i64, ptr %3, align 8, !tbaa !87
  %207 = getelementptr inbounds %"class.SectionBasedConfiguration::KeyValue1", ptr %157, i64 0, i32 3, i32 1
  store i64 %206, ptr %207, align 8, !tbaa !13
  %208 = load ptr, ptr %182, align 8, !tbaa !63
  %209 = getelementptr inbounds i8, ptr %208, i64 %206
  store i8 0, ptr %209, align 1, !tbaa !16
  call void @llvm.lifetime.end.p0(i64 8, ptr nonnull %3) #28
  %210 = load ptr, ptr %11, align 8, !tbaa !67
  %211 = getelementptr inbounds %"class.SectionBasedConfiguration::KeyValue1", ptr %210, i64 1
  store ptr %211, ptr %11, align 8, !tbaa !67
  br label %213

212:                                              ; preds = %156
  invoke void @_ZNSt6vectorIN25SectionBasedConfiguration9KeyValue1ESaIS1_EE17_M_realloc_insertEN9__gnu_cxx17__normal_iteratorIPS1_S3_EERKS1_(ptr noundef nonnull align 8 dereferenceable(24) %9, ptr %157, ptr noundef nonnull align 8 dereferenceable(80) %8)
          to label %213 unwind label %239

213:                                              ; preds = %205, %212
  store ptr getelementptr inbounds ({ [7 x ptr] }, ptr @_ZTVN25SectionBasedConfiguration9KeyValue1E, i64 0, inrange i32 0, i64 2), ptr %8, align 8, !tbaa !9
  %214 = load ptr, ptr %37, align 8, !tbaa !63
  %215 = icmp eq ptr %214, %39
  br i1 %215, label %216, label %219

216:                                              ; preds = %213
  %217 = load i64, ptr %38, align 8, !tbaa !13
  %218 = icmp ult i64 %217, 16
  call void @llvm.assume(i1 %218)
  br label %220

219:                                              ; preds = %213
  call void @_ZdlPv(ptr noundef %214) #26
  br label %220

220:                                              ; preds = %219, %216
  %221 = load ptr, ptr %35, align 8, !tbaa !63
  %222 = icmp eq ptr %221, %40
  br i1 %222, label %223, label %226

223:                                              ; preds = %220
  %224 = load i64, ptr %36, align 8, !tbaa !13
  %225 = icmp ult i64 %224, 16
  call void @llvm.assume(i1 %225)
  br label %227

226:                                              ; preds = %220
  call void @_ZdlPv(ptr noundef %221) #26
  br label %227

227:                                              ; preds = %226, %223
  call void @llvm.lifetime.end.p0(i64 80, ptr nonnull %8) #28
  %228 = load ptr, ptr %5, align 8, !tbaa !63
  %229 = icmp eq ptr %228, %27
  br i1 %229, label %230, label %233

230:                                              ; preds = %227
  %231 = load i64, ptr %28, align 8, !tbaa !13
  %232 = icmp ult i64 %231, 16
  call void @llvm.assume(i1 %232)
  br label %234

233:                                              ; preds = %227
  call void @_ZdlPv(ptr noundef %228) #26
  br label %234

234:                                              ; preds = %230, %233
  call void @llvm.lifetime.end.p0(i64 32, ptr nonnull %5) #28
  %235 = call noundef ptr @_ZSt18_Rb_tree_incrementPKSt18_Rb_tree_node_base(ptr noundef nonnull %44) #29
  %236 = icmp eq ptr %235, %24
  br i1 %236, label %42, label %43

237:                                              ; preds = %155
  %238 = landingpad { ptr, i32 }
          cleanup
  br label %243

239:                                              ; preds = %168, %212
  %240 = landingpad { ptr, i32 }
          cleanup
  br label %241

241:                                              ; preds = %200, %204, %239
  %242 = phi { ptr, i32 } [ %240, %239 ], [ %197, %204 ], [ %197, %200 ]
  invoke void @_ZN25SectionBasedConfiguration9KeyValue1D2Ev(ptr noundef nonnull align 8 dereferenceable(80) %8)
          to label %243 unwind label %256

243:                                              ; preds = %241, %237
  %244 = phi { ptr, i32 } [ %238, %237 ], [ %242, %241 ]
  call void @llvm.lifetime.end.p0(i64 80, ptr nonnull %8) #28
  br label %245

245:                                              ; preds = %243, %153, %145, %127
  %246 = phi { ptr, i32 } [ %244, %243 ], [ %128, %127 ], [ %154, %153 ], [ %138, %145 ]
  %247 = load ptr, ptr %5, align 8, !tbaa !63
  %248 = icmp eq ptr %247, %27
  br i1 %248, label %249, label %252

249:                                              ; preds = %245
  %250 = load i64, ptr %28, align 8, !tbaa !13
  %251 = icmp ult i64 %250, 16
  call void @llvm.assume(i1 %251)
  br label %253

252:                                              ; preds = %245
  call void @_ZdlPv(ptr noundef %247) #26
  br label %253

253:                                              ; preds = %252, %249
  call void @llvm.lifetime.end.p0(i64 32, ptr nonnull %5) #28
  br label %254

254:                                              ; preds = %253, %77, %61
  %255 = phi { ptr, i32 } [ %246, %253 ], [ %78, %77 ], [ %62, %61 ]
  resume { ptr, i32 } %255

256:                                              ; preds = %241
  %257 = landingpad { ptr, i32 }
          catch ptr null
  %258 = extractvalue { ptr, i32 } %257, 0
  call void @__clang_call_terminate(ptr %258) #27
  unreachable

259:                                              ; preds = %152
  unreachable
}

; Function Attrs: mustprogress nocallback nofree nosync nounwind willreturn memory(argmem: readwrite)
declare void @llvm.lifetime.start.p0(i64 immarg, ptr nocapture) #6

; Function Attrs: mustprogress nocallback nofree nosync nounwind willreturn memory(argmem: readwrite)
declare void @llvm.lifetime.end.p0(i64 immarg, ptr nocapture) #6

; Function Attrs: mustprogress nofree nounwind willreturn memory(argmem: read)
declare noundef ptr @strchr(ptr noundef, i32 noundef) local_unnamed_addr #7

; Function Attrs: mustprogress nofree nounwind willreturn memory(argmem: read)
declare noundef ptr @strrchr(ptr noundef, i32 noundef) local_unnamed_addr #7

; Function Attrs: sspstrong uwtable
define dso_local noundef ptr @_ZN25SectionBasedConfiguration18lookupConfigOptionEPKc(ptr noundef %0) local_unnamed_addr #0 align 2 personality ptr @__gxx_personality_v0 {
  %2 = alloca %"class.std::__cxx11::basic_string", align 8
  %3 = alloca %class.PatternMatcher, align 8
  %4 = tail call noundef ptr @_ZN23cGlobalRegistrationList11getInstanceEv(ptr noundef nonnull align 8 dereferenceable(16) @configOptions)
  %5 = load ptr, ptr %4, align 8, !tbaa !9
  %6 = getelementptr inbounds ptr, ptr %5, i64 26
  %7 = load ptr, ptr %6, align 8
  %8 = tail call noundef ptr %7(ptr noundef nonnull align 8 dereferenceable(144) %4, ptr noundef %0)
  %9 = icmp eq ptr %8, null
  br i1 %9, label %10, label %72

10:                                               ; preds = %1
  %11 = tail call noundef ptr @_ZN23cGlobalRegistrationList11getInstanceEv(ptr noundef nonnull align 8 dereferenceable(16) @configOptions)
  %12 = load ptr, ptr %11, align 8, !tbaa !9
  %13 = getelementptr inbounds ptr, ptr %12, i64 23
  %14 = load ptr, ptr %13, align 8
  %15 = tail call noundef i32 %14(ptr noundef nonnull align 8 dereferenceable(144) %11)
  %16 = icmp sgt i32 %15, 0
  br i1 %16, label %17, label %72

17:                                               ; preds = %10
  %18 = getelementptr inbounds %"class.std::__cxx11::basic_string", ptr %2, i64 0, i32 2
  %19 = getelementptr inbounds %"class.std::__cxx11::basic_string", ptr %2, i64 0, i32 1
  br label %20

20:                                               ; preds = %17, %69
  %21 = phi i32 [ 0, %17 ], [ %70, %69 ]
  %22 = call noundef ptr @_ZN23cGlobalRegistrationList11getInstanceEv(ptr noundef nonnull align 8 dereferenceable(16) @configOptions)
  %23 = load ptr, ptr %22, align 8, !tbaa !9
  %24 = getelementptr inbounds ptr, ptr %23, i64 24
  %25 = load ptr, ptr %24, align 8
  %26 = call noundef ptr %25(ptr noundef nonnull align 8 dereferenceable(144) %22, i32 noundef %21)
  %27 = load ptr, ptr %26, align 8, !tbaa !9
  %28 = getelementptr inbounds ptr, ptr %27, i64 6
  %29 = load ptr, ptr %28, align 8
  %30 = call noundef ptr %29(ptr noundef nonnull align 8 dereferenceable(20) %26)
  %31 = call noundef zeroext i1 @_ZN14PatternMatcher17containsWildcardsEPKc(ptr noundef %30)
  br i1 %31, label %39, label %32

32:                                               ; preds = %20
  %33 = load ptr, ptr %26, align 8, !tbaa !9
  %34 = getelementptr inbounds ptr, ptr %33, i64 6
  %35 = load ptr, ptr %34, align 8
  %36 = call noundef ptr %35(ptr noundef nonnull align 8 dereferenceable(20) %26)
  %37 = call noundef ptr @strchr(ptr noundef nonnull dereferenceable(1) %36, i32 noundef 37) #29
  %38 = icmp eq ptr %37, null
  br i1 %38, label %69, label %39

39:                                               ; preds = %32, %20
  call void @llvm.lifetime.start.p0(i64 32, ptr nonnull %2) #28
  %40 = load ptr, ptr %26, align 8, !tbaa !9
  %41 = getelementptr inbounds ptr, ptr %40, i64 6
  %42 = load ptr, ptr %41, align 8
  %43 = call noundef ptr %42(ptr noundef nonnull align 8 dereferenceable(20) %26)
  call void @_Z20opp_replacesubstringB5cxx11PKcS0_S0_b(ptr nonnull sret(%"class.std::__cxx11::basic_string") align 8 %2, ptr noundef %43, ptr noundef nonnull @.str.118, ptr noundef nonnull @.str.119, i1 noundef zeroext true)
  call void @llvm.lifetime.start.p0(i64 64, ptr nonnull %3) #28
  %44 = load ptr, ptr %2, align 8, !tbaa !63
  invoke void @_ZN14PatternMatcherC1EPKcbbb(ptr noundef nonnull align 8 dereferenceable(64) %3, ptr noundef %44, i1 noundef zeroext false, i1 noundef zeroext true, i1 noundef zeroext true)
          to label %45 unwind label %56

45:                                               ; preds = %39
  %46 = invoke noundef zeroext i1 @_ZN14PatternMatcher7matchesEPKc(ptr noundef nonnull align 8 dereferenceable(64) %3, ptr noundef %0)
          to label %47 unwind label %58

47:                                               ; preds = %45
  invoke void @_ZN14PatternMatcherD1Ev(ptr noundef nonnull align 8 dereferenceable(64) %3)
          to label %48 unwind label %56

48:                                               ; preds = %47
  call void @llvm.lifetime.end.p0(i64 64, ptr nonnull %3) #28
  %49 = load ptr, ptr %2, align 8, !tbaa !63
  %50 = icmp eq ptr %49, %18
  br i1 %50, label %51, label %54

51:                                               ; preds = %48
  %52 = load i64, ptr %19, align 8, !tbaa !13
  %53 = icmp ult i64 %52, 16
  call void @llvm.assume(i1 %53)
  br label %55

54:                                               ; preds = %48
  call void @_ZdlPv(ptr noundef %49) #26
  br label %55

55:                                               ; preds = %51, %54
  call void @llvm.lifetime.end.p0(i64 32, ptr nonnull %2) #28
  br i1 %46, label %72, label %69

56:                                               ; preds = %47, %39
  %57 = landingpad { ptr, i32 }
          cleanup
  br label %60

58:                                               ; preds = %45
  %59 = landingpad { ptr, i32 }
          cleanup
  invoke void @_ZN14PatternMatcherD1Ev(ptr noundef nonnull align 8 dereferenceable(64) %3)
          to label %60 unwind label %74

60:                                               ; preds = %58, %56
  %61 = phi { ptr, i32 } [ %57, %56 ], [ %59, %58 ]
  call void @llvm.lifetime.end.p0(i64 64, ptr nonnull %3) #28
  %62 = load ptr, ptr %2, align 8, !tbaa !63
  %63 = icmp eq ptr %62, %18
  br i1 %63, label %64, label %67

64:                                               ; preds = %60
  %65 = load i64, ptr %19, align 8, !tbaa !13
  %66 = icmp ult i64 %65, 16
  call void @llvm.assume(i1 %66)
  br label %68

67:                                               ; preds = %60
  call void @_ZdlPv(ptr noundef %62) #26
  br label %68

68:                                               ; preds = %67, %64
  call void @llvm.lifetime.end.p0(i64 32, ptr nonnull %2) #28
  resume { ptr, i32 } %61

69:                                               ; preds = %32, %55
  %70 = add nuw nsw i32 %21, 1
  %71 = icmp eq i32 %70, %15
  br i1 %71, label %72, label %20

72:                                               ; preds = %55, %69, %10, %1
  %73 = phi ptr [ %8, %1 ], [ null, %10 ], [ %26, %55 ], [ null, %69 ]
  ret ptr %73

74:                                               ; preds = %58
  %75 = landingpad { ptr, i32 }
          catch ptr null
  %76 = extractvalue { ptr, i32 } %75, 0
  call void @__clang_call_terminate(ptr %76) #27
  unreachable
}

declare ptr @__cxa_allocate_exception(i64) local_unnamed_addr

declare void @_ZN13cRuntimeErrorC1EPKcz(ptr noundef nonnull align 8 dereferenceable(124), ptr noundef, ...) unnamed_addr #1

declare void @__cxa_free_exception(ptr) local_unnamed_addr

declare void @__cxa_throw(ptr, ptr, ptr) local_unnamed_addr

; Function Attrs: sspstrong uwtable
define linkonce_odr dso_local void @_ZN25SectionBasedConfiguration9KeyValue1C2EPKNSt7__cxx1112basic_stringIcSt11char_traitsIcESaIcEEEPKcSA_(ptr noundef nonnull align 8 dereferenceable(80) %0, ptr noundef %1, ptr noundef %2, ptr noundef %3) unnamed_addr #0 comdat align 2 personality ptr @__gxx_personality_v0 {
  store ptr getelementptr inbounds ({ [7 x ptr] }, ptr @_ZTVN25SectionBasedConfiguration9KeyValue1E, i64 0, inrange i32 0, i64 2), ptr %0, align 8, !tbaa !9
  %5 = getelementptr inbounds %"class.SectionBasedConfiguration::KeyValue1", ptr %0, i64 0, i32 2
  %6 = getelementptr inbounds %"class.SectionBasedConfiguration::KeyValue1", ptr %0, i64 0, i32 2, i32 2
  store ptr %6, ptr %5, align 8, !tbaa !11
  %7 = getelementptr inbounds %"class.SectionBasedConfiguration::KeyValue1", ptr %0, i64 0, i32 2, i32 1
  store i64 0, ptr %7, align 8, !tbaa !13
  store i8 0, ptr %6, align 8, !tbaa !16
  %8 = getelementptr inbounds %"class.SectionBasedConfiguration::KeyValue1", ptr %0, i64 0, i32 3
  %9 = getelementptr inbounds %"class.SectionBasedConfiguration::KeyValue1", ptr %0, i64 0, i32 3, i32 2
  store ptr %9, ptr %8, align 8, !tbaa !11
  %10 = getelementptr inbounds %"class.SectionBasedConfiguration::KeyValue1", ptr %0, i64 0, i32 3, i32 1
  store i64 0, ptr %10, align 8, !tbaa !13
  store i8 0, ptr %9, align 8, !tbaa !16
  %11 = icmp eq ptr %1, null
  %12 = select i1 %11, ptr @_ZN25SectionBasedConfiguration9KeyValue111nullbasedirB5cxx11E, ptr %1
  %13 = getelementptr inbounds %"class.SectionBasedConfiguration::KeyValue1", ptr %0, i64 0, i32 1
  store ptr %12, ptr %13, align 8, !tbaa !85
  %14 = tail call i64 @strlen(ptr noundef nonnull dereferenceable(1) %2) #28
  %15 = invoke noundef nonnull align 8 dereferenceable(32) ptr @_ZNSt7__cxx1112basic_stringIcSt11char_traitsIcESaIcEE10_M_replaceEmmPKcm(ptr noundef nonnull align 8 dereferenceable(32) %5, i64 noundef 0, i64 noundef 0, ptr noundef %2, i64 noundef %14)
          to label %16 unwind label %21

16:                                               ; preds = %4
  %17 = load i64, ptr %10, align 8, !tbaa !13
  %18 = tail call i64 @strlen(ptr noundef nonnull dereferenceable(1) %3) #28
  %19 = invoke noundef nonnull align 8 dereferenceable(32) ptr @_ZNSt7__cxx1112basic_stringIcSt11char_traitsIcESaIcEE10_M_replaceEmmPKcm(ptr noundef nonnull align 8 dereferenceable(32) %8, i64 noundef 0, i64 noundef %17, ptr noundef %3, i64 noundef %18)
          to label %20 unwind label %21

20:                                               ; preds = %16
  ret void

21:                                               ; preds = %16, %4
  %22 = landingpad { ptr, i32 }
          cleanup
  %23 = load ptr, ptr %8, align 8, !tbaa !63
  %24 = icmp eq ptr %23, %9
  br i1 %24, label %25, label %28

25:                                               ; preds = %21
  %26 = load i64, ptr %10, align 8, !tbaa !13
  %27 = icmp ult i64 %26, 16
  tail call void @llvm.assume(i1 %27)
  br label %29

28:                                               ; preds = %21
  tail call void @_ZdlPv(ptr noundef %23) #26
  br label %29

29:                                               ; preds = %28, %25
  %30 = load ptr, ptr %5, align 8, !tbaa !63
  %31 = icmp eq ptr %30, %6
  br i1 %31, label %32, label %35

32:                                               ; preds = %29
  %33 = load i64, ptr %7, align 8, !tbaa !13
  %34 = icmp ult i64 %33, 16
  tail call void @llvm.assume(i1 %34)
  br label %36

35:                                               ; preds = %29
  tail call void @_ZdlPv(ptr noundef %30) #26
  br label %36

36:                                               ; preds = %35, %32
  resume { ptr, i32 } %22
}

; Function Attrs: sspstrong uwtable
define dso_local void @_ZN25SectionBasedConfiguration14initializeFromEP14cConfiguration(ptr noundef nonnull align 8 dereferenceable(416) %0, ptr noundef %1) unnamed_addr #0 align 2 personality ptr @__gxx_personality_v0 {
  %3 = alloca %"class.std::__cxx11::basic_string", align 8
  call void @llvm.lifetime.start.p0(i64 32, ptr nonnull %3) #28
  %4 = load ptr, ptr @CFGID_SECTIONBASEDCONFIG_CONFIGREADER_CLASS, align 8, !tbaa !5
  %5 = load ptr, ptr %1, align 8, !tbaa !9
  %6 = getelementptr inbounds ptr, ptr %5, i64 28
  %7 = load ptr, ptr %6, align 8
  call void %7(ptr nonnull sret(%"class.std::__cxx11::basic_string") align 8 %3, ptr noundef nonnull align 8 dereferenceable(8) %1, ptr noundef %4, ptr noundef nonnull @.str.14)
  %8 = getelementptr inbounds %"class.std::__cxx11::basic_string", ptr %3, i64 0, i32 1
  %9 = load i64, ptr %8, align 8, !tbaa !13
  %10 = icmp eq i64 %9, 0
  br i1 %10, label %11, label %24

11:                                               ; preds = %2
  %12 = call ptr @__cxa_allocate_exception(i64 128) #28
  %13 = load ptr, ptr @CFGID_SECTIONBASEDCONFIG_CONFIGREADER_CLASS, align 8, !tbaa !5
  %14 = load ptr, ptr %13, align 8, !tbaa !9
  %15 = getelementptr inbounds ptr, ptr %14, i64 6
  %16 = load ptr, ptr %15, align 8
  %17 = invoke noundef ptr %16(ptr noundef nonnull align 8 dereferenceable(20) %13)
          to label %18 unwind label %22

18:                                               ; preds = %11
  invoke void (ptr, ptr, ...) @_ZN13cRuntimeErrorC1EPKcz(ptr noundef nonnull align 8 dereferenceable(124) %12, ptr noundef nonnull @.str.15, ptr noundef %17)
          to label %19 unwind label %22

19:                                               ; preds = %18
  invoke void @__cxa_throw(ptr nonnull %12, ptr nonnull @_ZTI13cRuntimeError, ptr nonnull @_ZN10cExceptionD2Ev) #30
          to label %67 unwind label %20

20:                                               ; preds = %19
  %21 = landingpad { ptr, i32 }
          cleanup
  br label %57

22:                                               ; preds = %18, %11
  %23 = landingpad { ptr, i32 }
          cleanup
  call void @__cxa_free_exception(ptr %12) #28
  br label %57

24:                                               ; preds = %2
  %25 = load ptr, ptr %3, align 8, !tbaa !63
  %26 = invoke noundef ptr @_ZN13cClassFactory9createOneEPKc(ptr noundef %25)
          to label %27 unwind label %29

27:                                               ; preds = %24
  %28 = icmp eq ptr %26, null
  br i1 %28, label %34, label %31

29:                                               ; preds = %24, %44, %40, %37
  %30 = landingpad { ptr, i32 }
          cleanup
  br label %57

31:                                               ; preds = %27
  %32 = call ptr @__dynamic_cast(ptr nonnull %26, ptr nonnull @_ZTI7cObject, ptr nonnull @_ZTI20cConfigurationReader, i64 -2) #28
  %33 = icmp eq ptr %32, null
  br i1 %33, label %34, label %40

34:                                               ; preds = %27, %31
  %35 = call ptr @__cxa_allocate_exception(i64 128) #28
  %36 = load ptr, ptr %3, align 8, !tbaa !63
  invoke void (ptr, ptr, ...) @_ZN13cRuntimeErrorC1EPKcz(ptr noundef nonnull align 8 dereferenceable(124) %35, ptr noundef nonnull @.str.16, ptr noundef %36)
          to label %37 unwind label %38

37:                                               ; preds = %34
  invoke void @__cxa_throw(ptr nonnull %35, ptr nonnull @_ZTI13cRuntimeError, ptr nonnull @_ZN10cExceptionD2Ev) #30
          to label %67 unwind label %29

38:                                               ; preds = %34
  %39 = landingpad { ptr, i32 }
          cleanup
  call void @__cxa_free_exception(ptr %35) #28
  br label %57

40:                                               ; preds = %31
  %41 = load ptr, ptr %32, align 8, !tbaa !9
  %42 = getelementptr inbounds ptr, ptr %41, i64 2
  %43 = load ptr, ptr %42, align 8
  invoke void %43(ptr noundef nonnull align 8 dereferenceable(8) %32, ptr noundef nonnull %1)
          to label %44 unwind label %29

44:                                               ; preds = %40
  %45 = load ptr, ptr %0, align 8, !tbaa !9
  %46 = getelementptr inbounds ptr, ptr %45, i64 62
  %47 = load ptr, ptr %46, align 8
  invoke void %47(ptr noundef nonnull align 8 dereferenceable(416) %0, ptr noundef nonnull %32)
          to label %48 unwind label %29

48:                                               ; preds = %44
  %49 = load ptr, ptr %3, align 8, !tbaa !63
  %50 = getelementptr inbounds %"class.std::__cxx11::basic_string", ptr %3, i64 0, i32 2
  %51 = icmp eq ptr %49, %50
  br i1 %51, label %52, label %55

52:                                               ; preds = %48
  %53 = load i64, ptr %8, align 8, !tbaa !13
  %54 = icmp ult i64 %53, 16
  call void @llvm.assume(i1 %54)
  br label %56

55:                                               ; preds = %48
  call void @_ZdlPv(ptr noundef %49) #26
  br label %56

56:                                               ; preds = %52, %55
  call void @llvm.lifetime.end.p0(i64 32, ptr nonnull %3) #28
  ret void

57:                                               ; preds = %29, %38, %22, %20
  %58 = phi { ptr, i32 } [ %21, %20 ], [ %23, %22 ], [ %30, %29 ], [ %39, %38 ]
  %59 = load ptr, ptr %3, align 8, !tbaa !63
  %60 = getelementptr inbounds %"class.std::__cxx11::basic_string", ptr %3, i64 0, i32 2
  %61 = icmp eq ptr %59, %60
  br i1 %61, label %62, label %65

62:                                               ; preds = %57
  %63 = load i64, ptr %8, align 8, !tbaa !13
  %64 = icmp ult i64 %63, 16
  call void @llvm.assume(i1 %64)
  br label %66

65:                                               ; preds = %57
  call void @_ZdlPv(ptr noundef %59) #26
  br label %66

66:                                               ; preds = %65, %62
  call void @llvm.lifetime.end.p0(i64 32, ptr nonnull %3) #28
  resume { ptr, i32 } %58

67:                                               ; preds = %37, %19
  unreachable
}

; Function Attrs: nofree nounwind memory(read)
declare ptr @__dynamic_cast(ptr, ptr, ptr, i64) local_unnamed_addr #8

; Function Attrs: sspstrong uwtable
define dso_local noundef ptr @_ZNK25SectionBasedConfiguration11getFileNameEv(ptr nocapture noundef nonnull readonly align 8 dereferenceable(416) %0) unnamed_addr #0 align 2 {
  %2 = getelementptr inbounds %class.SectionBasedConfiguration, ptr %0, i64 0, i32 1
  %3 = load ptr, ptr %2, align 8, !tbaa !25
  %4 = icmp eq ptr %3, null
  br i1 %4, label %10, label %5

5:                                                ; preds = %1
  %6 = load ptr, ptr %3, align 8, !tbaa !9
  %7 = getelementptr inbounds ptr, ptr %6, i64 3
  %8 = load ptr, ptr %7, align 8
  %9 = tail call noundef ptr %8(ptr noundef nonnull align 8 dereferenceable(8) %3)
  br label %10

10:                                               ; preds = %1, %5
  %11 = phi ptr [ %9, %5 ], [ null, %1 ]
  ret ptr %11
}

; Function Attrs: mustprogress nofree norecurse nosync nounwind sspstrong willreturn memory(argmem: read) uwtable
define dso_local noundef ptr @_ZNK25SectionBasedConfiguration19getActiveConfigNameEv(ptr nocapture noundef nonnull readonly align 8 dereferenceable(416) %0) unnamed_addr #9 align 2 {
  %2 = getelementptr inbounds %class.SectionBasedConfiguration, ptr %0, i64 0, i32 3
  %3 = load ptr, ptr %2, align 8, !tbaa !63
  ret ptr %3
}

; Function Attrs: mustprogress nofree norecurse nosync nounwind sspstrong willreturn memory(argmem: read) uwtable
define dso_local noundef i32 @_ZNK25SectionBasedConfiguration18getActiveRunNumberEv(ptr nocapture noundef nonnull readonly align 8 dereferenceable(416) %0) unnamed_addr #9 align 2 {
  %2 = getelementptr inbounds %class.SectionBasedConfiguration, ptr %0, i64 0, i32 4
  %3 = load i32, ptr %2, align 8, !tbaa !62
  ret i32 %3
}

; Function Attrs: sspstrong uwtable
define dso_local void @_ZN25SectionBasedConfiguration14getConfigNamesB5cxx11Ev(ptr noalias sret(%"class.std::vector.31") align 8 %0, ptr nocapture noundef nonnull readonly align 8 dereferenceable(416) %1) unnamed_addr #0 align 2 personality ptr @__gxx_personality_v0 {
  %3 = alloca i64, align 8
  %4 = alloca i64, align 8
  %5 = alloca i64, align 8
  %6 = alloca i64, align 8
  %7 = alloca %"class.std::__cxx11::basic_string", align 8
  %8 = alloca %"class.std::__cxx11::basic_string", align 8
  tail call void @llvm.memset.p0.i64(ptr noundef nonnull align 8 dereferenceable(24) %0, i8 0, i64 24, i1 false)
  %9 = getelementptr inbounds %class.SectionBasedConfiguration, ptr %1, i64 0, i32 1
  %10 = getelementptr inbounds %"class.std::__cxx11::basic_string", ptr %8, i64 0, i32 2
  %11 = getelementptr inbounds %"class.std::__cxx11::basic_string", ptr %8, i64 0, i32 1
  %12 = getelementptr inbounds %"struct.std::_Vector_base<std::__cxx11::basic_string<char>, std::allocator<std::__cxx11::basic_string<char> > >::_Vector_impl_data", ptr %0, i64 0, i32 1
  %13 = getelementptr inbounds %"struct.std::_Vector_base<std::__cxx11::basic_string<char>, std::allocator<std::__cxx11::basic_string<char> > >::_Vector_impl_data", ptr %0, i64 0, i32 2
  %14 = getelementptr inbounds %"class.std::__cxx11::basic_string", ptr %7, i64 0, i32 2
  %15 = getelementptr inbounds %"class.std::__cxx11::basic_string", ptr %7, i64 0, i32 1
  br label %16

16:                                               ; preds = %170, %2
  %17 = phi i32 [ 0, %2 ], [ %171, %170 ]
  %18 = load ptr, ptr %9, align 8, !tbaa !25
  %19 = load ptr, ptr %18, align 8, !tbaa !9
  %20 = getelementptr inbounds ptr, ptr %19, i64 5
  %21 = load ptr, ptr %20, align 8
  %22 = invoke noundef i32 %21(ptr noundef nonnull align 8 dereferenceable(8) %18)
          to label %23 unwind label %25

23:                                               ; preds = %16
  %24 = icmp slt i32 %17, %22
  br i1 %24, label %27, label %174

25:                                               ; preds = %16
  %26 = landingpad { ptr, i32 }
          cleanup
  br label %172

27:                                               ; preds = %23
  %28 = load ptr, ptr %9, align 8, !tbaa !25
  %29 = load ptr, ptr %28, align 8, !tbaa !9
  %30 = getelementptr inbounds ptr, ptr %29, i64 6
  %31 = load ptr, ptr %30, align 8
  %32 = invoke noundef ptr %31(ptr noundef nonnull align 8 dereferenceable(8) %28, i32 noundef %17)
          to label %33 unwind label %89

33:                                               ; preds = %27
  %34 = call i32 @strcmp(ptr noundef nonnull dereferenceable(1) %32, ptr noundef nonnull dereferenceable(8) @.str.17) #29
  %35 = icmp eq i32 %34, 0
  br i1 %35, label %36, label %105

36:                                               ; preds = %33
  call void @llvm.lifetime.start.p0(i64 32, ptr nonnull %7) #28
  store ptr %14, ptr %7, align 8, !tbaa !11
  %37 = icmp eq ptr %32, null
  br i1 %37, label %38, label %40

38:                                               ; preds = %36
  invoke void @_ZSt19__throw_logic_errorPKc(ptr noundef nonnull @.str.165) #30
          to label %39 unwind label %93

39:                                               ; preds = %38
  unreachable

40:                                               ; preds = %36
  %41 = call i64 @strlen(ptr noundef nonnull dereferenceable(1) %32) #28
  call void @llvm.lifetime.start.p0(i64 8, ptr nonnull %6) #28
  store i64 %41, ptr %6, align 8, !tbaa !87
  %42 = icmp ugt i64 %41, 15
  br i1 %42, label %43, label %47

43:                                               ; preds = %40
  %44 = invoke noundef ptr @_ZNSt7__cxx1112basic_stringIcSt11char_traitsIcESaIcEE9_M_createERmm(ptr noundef nonnull align 8 dereferenceable(32) %7, ptr noundef nonnull align 8 dereferenceable(8) %6, i64 noundef 0)
          to label %45 unwind label %91

45:                                               ; preds = %43
  store ptr %44, ptr %7, align 8, !tbaa !63
  %46 = load i64, ptr %6, align 8, !tbaa !87
  store i64 %46, ptr %14, align 8, !tbaa !16
  br label %47

47:                                               ; preds = %45, %40
  %48 = phi ptr [ %44, %45 ], [ %14, %40 ]
  switch i64 %41, label %51 [
    i64 1, label %49
    i64 0, label %52
  ]

49:                                               ; preds = %47
  %50 = load i8, ptr %32, align 1, !tbaa !16
  store i8 %50, ptr %48, align 1, !tbaa !16
  br label %52

51:                                               ; preds = %47
  call void @llvm.memcpy.p0.p0.i64(ptr align 1 %48, ptr nonnull align 1 %32, i64 %41, i1 false)
  br label %52

52:                                               ; preds = %51, %49, %47
  %53 = load i64, ptr %6, align 8, !tbaa !87
  store i64 %53, ptr %15, align 8, !tbaa !13
  %54 = load ptr, ptr %7, align 8, !tbaa !63
  %55 = getelementptr inbounds i8, ptr %54, i64 %53
  store i8 0, ptr %55, align 1, !tbaa !16
  call void @llvm.lifetime.end.p0(i64 8, ptr nonnull %6) #28
  %56 = load ptr, ptr %12, align 8, !tbaa !5
  %57 = load ptr, ptr %13, align 8, !tbaa !88
  %58 = icmp eq ptr %56, %57
  br i1 %58, label %80, label %59

59:                                               ; preds = %52
  %60 = getelementptr inbounds %"class.std::__cxx11::basic_string", ptr %56, i64 0, i32 2
  store ptr %60, ptr %56, align 8, !tbaa !11
  %61 = load ptr, ptr %7, align 8, !tbaa !63
  %62 = load i64, ptr %15, align 8, !tbaa !13
  call void @llvm.lifetime.start.p0(i64 8, ptr nonnull %5) #28
  store i64 %62, ptr %5, align 8, !tbaa !87
  %63 = icmp ugt i64 %62, 15
  br i1 %63, label %64, label %68

64:                                               ; preds = %59
  %65 = invoke noundef ptr @_ZNSt7__cxx1112basic_stringIcSt11char_traitsIcESaIcEE9_M_createERmm(ptr noundef nonnull align 8 dereferenceable(32) %56, ptr noundef nonnull align 8 dereferenceable(8) %5, i64 noundef 0)
          to label %66 unwind label %95

66:                                               ; preds = %64
  store ptr %65, ptr %56, align 8, !tbaa !63
  %67 = load i64, ptr %5, align 8, !tbaa !87
  store i64 %67, ptr %60, align 8, !tbaa !16
  br label %68

68:                                               ; preds = %66, %59
  %69 = phi ptr [ %65, %66 ], [ %60, %59 ]
  switch i64 %62, label %72 [
    i64 1, label %70
    i64 0, label %73
  ]

70:                                               ; preds = %68
  %71 = load i8, ptr %61, align 1, !tbaa !16
  store i8 %71, ptr %69, align 1, !tbaa !16
  br label %73

72:                                               ; preds = %68
  call void @llvm.memcpy.p0.p0.i64(ptr align 1 %69, ptr align 1 %61, i64 %62, i1 false)
  br label %73

73:                                               ; preds = %72, %70, %68
  %74 = load i64, ptr %5, align 8, !tbaa !87
  %75 = getelementptr inbounds %"class.std::__cxx11::basic_string", ptr %56, i64 0, i32 1
  store i64 %74, ptr %75, align 8, !tbaa !13
  %76 = load ptr, ptr %56, align 8, !tbaa !63
  %77 = getelementptr inbounds i8, ptr %76, i64 %74
  store i8 0, ptr %77, align 1, !tbaa !16
  call void @llvm.lifetime.end.p0(i64 8, ptr nonnull %5) #28
  %78 = load ptr, ptr %12, align 8, !tbaa !90
  %79 = getelementptr inbounds %"class.std::__cxx11::basic_string", ptr %78, i64 1
  store ptr %79, ptr %12, align 8, !tbaa !90
  br label %81

80:                                               ; preds = %52
  invoke void @_ZNSt6vectorINSt7__cxx1112basic_stringIcSt11char_traitsIcESaIcEEESaIS5_EE17_M_realloc_insertEN9__gnu_cxx17__normal_iteratorIPS5_S7_EERKS5_(ptr noundef nonnull align 8 dereferenceable(24) %0, ptr %56, ptr noundef nonnull align 8 dereferenceable(32) %7)
          to label %81 unwind label %95

81:                                               ; preds = %73, %80
  %82 = load ptr, ptr %7, align 8, !tbaa !63
  %83 = icmp eq ptr %82, %14
  br i1 %83, label %84, label %87

84:                                               ; preds = %81
  %85 = load i64, ptr %15, align 8, !tbaa !13
  %86 = icmp ult i64 %85, 16
  call void @llvm.assume(i1 %86)
  br label %88

87:                                               ; preds = %81
  call void @_ZdlPv(ptr noundef %82) #26
  br label %88

88:                                               ; preds = %87, %84
  call void @llvm.lifetime.end.p0(i64 32, ptr nonnull %7) #28
  br label %170

89:                                               ; preds = %27
  %90 = landingpad { ptr, i32 }
          cleanup
  br label %172

91:                                               ; preds = %43
  %92 = landingpad { ptr, i32 }
          cleanup
  br label %103

93:                                               ; preds = %38
  %94 = landingpad { ptr, i32 }
          cleanup
  br label %103

95:                                               ; preds = %80, %64
  %96 = landingpad { ptr, i32 }
          cleanup
  %97 = load ptr, ptr %7, align 8, !tbaa !63
  %98 = icmp eq ptr %97, %14
  br i1 %98, label %99, label %102

99:                                               ; preds = %95
  %100 = load i64, ptr %15, align 8, !tbaa !13
  %101 = icmp ult i64 %100, 16
  call void @llvm.assume(i1 %101)
  br label %103

102:                                              ; preds = %95
  call void @_ZdlPv(ptr noundef %97) #26
  br label %103

103:                                              ; preds = %91, %93, %102, %99
  %104 = phi { ptr, i32 } [ %96, %99 ], [ %96, %102 ], [ %92, %91 ], [ %94, %93 ]
  call void @llvm.lifetime.end.p0(i64 32, ptr nonnull %7) #28
  br label %172

105:                                              ; preds = %33
  %106 = call i32 @strncmp(ptr noundef nonnull dereferenceable(1) %32, ptr noundef nonnull dereferenceable(8) @.str.18, i64 noundef 7) #29
  %107 = icmp eq i32 %106, 0
  br i1 %107, label %108, label %170

108:                                              ; preds = %105
  call void @llvm.lifetime.start.p0(i64 32, ptr nonnull %8) #28
  %109 = getelementptr inbounds i8, ptr %32, i64 7
  store ptr %10, ptr %8, align 8, !tbaa !11
  %110 = call i64 @strlen(ptr noundef nonnull dereferenceable(1) %109) #28
  call void @llvm.lifetime.start.p0(i64 8, ptr nonnull %4) #28
  store i64 %110, ptr %4, align 8, !tbaa !87
  %111 = icmp ugt i64 %110, 15
  br i1 %111, label %112, label %116

112:                                              ; preds = %108
  %113 = invoke noundef ptr @_ZNSt7__cxx1112basic_stringIcSt11char_traitsIcESaIcEE9_M_createERmm(ptr noundef nonnull align 8 dereferenceable(32) %8, ptr noundef nonnull align 8 dereferenceable(8) %4, i64 noundef 0)
          to label %114 unwind label %158

114:                                              ; preds = %112
  store ptr %113, ptr %8, align 8, !tbaa !63
  %115 = load i64, ptr %4, align 8, !tbaa !87
  store i64 %115, ptr %10, align 8, !tbaa !16
  br label %116

116:                                              ; preds = %114, %108
  %117 = phi ptr [ %113, %114 ], [ %10, %108 ]
  switch i64 %110, label %120 [
    i64 1, label %118
    i64 0, label %121
  ]

118:                                              ; preds = %116
  %119 = load i8, ptr %109, align 1, !tbaa !16
  store i8 %119, ptr %117, align 1, !tbaa !16
  br label %121

120:                                              ; preds = %116
  call void @llvm.memcpy.p0.p0.i64(ptr align 1 %117, ptr nonnull align 1 %109, i64 %110, i1 false)
  br label %121

121:                                              ; preds = %120, %118, %116
  %122 = load i64, ptr %4, align 8, !tbaa !87
  store i64 %122, ptr %11, align 8, !tbaa !13
  %123 = load ptr, ptr %8, align 8, !tbaa !63
  %124 = getelementptr inbounds i8, ptr %123, i64 %122
  store i8 0, ptr %124, align 1, !tbaa !16
  call void @llvm.lifetime.end.p0(i64 8, ptr nonnull %4) #28
  %125 = load ptr, ptr %12, align 8, !tbaa !5
  %126 = load ptr, ptr %13, align 8, !tbaa !88
  %127 = icmp eq ptr %125, %126
  br i1 %127, label %149, label %128

128:                                              ; preds = %121
  %129 = getelementptr inbounds %"class.std::__cxx11::basic_string", ptr %125, i64 0, i32 2
  store ptr %129, ptr %125, align 8, !tbaa !11
  %130 = load ptr, ptr %8, align 8, !tbaa !63
  %131 = load i64, ptr %11, align 8, !tbaa !13
  call void @llvm.lifetime.start.p0(i64 8, ptr nonnull %3) #28
  store i64 %131, ptr %3, align 8, !tbaa !87
  %132 = icmp ugt i64 %131, 15
  br i1 %132, label %133, label %137

133:                                              ; preds = %128
  %134 = invoke noundef ptr @_ZNSt7__cxx1112basic_stringIcSt11char_traitsIcESaIcEE9_M_createERmm(ptr noundef nonnull align 8 dereferenceable(32) %125, ptr noundef nonnull align 8 dereferenceable(8) %3, i64 noundef 0)
          to label %135 unwind label %160

135:                                              ; preds = %133
  store ptr %134, ptr %125, align 8, !tbaa !63
  %136 = load i64, ptr %3, align 8, !tbaa !87
  store i64 %136, ptr %129, align 8, !tbaa !16
  br label %137

137:                                              ; preds = %135, %128
  %138 = phi ptr [ %134, %135 ], [ %129, %128 ]
  switch i64 %131, label %141 [
    i64 1, label %139
    i64 0, label %142
  ]

139:                                              ; preds = %137
  %140 = load i8, ptr %130, align 1, !tbaa !16
  store i8 %140, ptr %138, align 1, !tbaa !16
  br label %142

141:                                              ; preds = %137
  call void @llvm.memcpy.p0.p0.i64(ptr align 1 %138, ptr align 1 %130, i64 %131, i1 false)
  br label %142

142:                                              ; preds = %141, %139, %137
  %143 = load i64, ptr %3, align 8, !tbaa !87
  %144 = getelementptr inbounds %"class.std::__cxx11::basic_string", ptr %125, i64 0, i32 1
  store i64 %143, ptr %144, align 8, !tbaa !13
  %145 = load ptr, ptr %125, align 8, !tbaa !63
  %146 = getelementptr inbounds i8, ptr %145, i64 %143
  store i8 0, ptr %146, align 1, !tbaa !16
  call void @llvm.lifetime.end.p0(i64 8, ptr nonnull %3) #28
  %147 = load ptr, ptr %12, align 8, !tbaa !90
  %148 = getelementptr inbounds %"class.std::__cxx11::basic_string", ptr %147, i64 1
  store ptr %148, ptr %12, align 8, !tbaa !90
  br label %150

149:                                              ; preds = %121
  invoke void @_ZNSt6vectorINSt7__cxx1112basic_stringIcSt11char_traitsIcESaIcEEESaIS5_EE17_M_realloc_insertEN9__gnu_cxx17__normal_iteratorIPS5_S7_EERKS5_(ptr noundef nonnull align 8 dereferenceable(24) %0, ptr %125, ptr noundef nonnull align 8 dereferenceable(32) %8)
          to label %150 unwind label %160

150:                                              ; preds = %142, %149
  %151 = load ptr, ptr %8, align 8, !tbaa !63
  %152 = icmp eq ptr %151, %10
  br i1 %152, label %153, label %156

153:                                              ; preds = %150
  %154 = load i64, ptr %11, align 8, !tbaa !13
  %155 = icmp ult i64 %154, 16
  call void @llvm.assume(i1 %155)
  br label %157

156:                                              ; preds = %150
  call void @_ZdlPv(ptr noundef %151) #26
  br label %157

157:                                              ; preds = %156, %153
  call void @llvm.lifetime.end.p0(i64 32, ptr nonnull %8) #28
  br label %170

158:                                              ; preds = %112
  %159 = landingpad { ptr, i32 }
          cleanup
  br label %168

160:                                              ; preds = %149, %133
  %161 = landingpad { ptr, i32 }
          cleanup
  %162 = load ptr, ptr %8, align 8, !tbaa !63
  %163 = icmp eq ptr %162, %10
  br i1 %163, label %164, label %167

164:                                              ; preds = %160
  %165 = load i64, ptr %11, align 8, !tbaa !13
  %166 = icmp ult i64 %165, 16
  call void @llvm.assume(i1 %166)
  br label %168

167:                                              ; preds = %160
  call void @_ZdlPv(ptr noundef %162) #26
  br label %168

168:                                              ; preds = %167, %164, %158
  %169 = phi { ptr, i32 } [ %159, %158 ], [ %161, %164 ], [ %161, %167 ]
  call void @llvm.lifetime.end.p0(i64 32, ptr nonnull %8) #28
  br label %172

170:                                              ; preds = %157, %105, %88
  %171 = add nuw nsw i32 %17, 1
  br label %16

172:                                              ; preds = %89, %103, %168, %25
  %173 = phi { ptr, i32 } [ %26, %25 ], [ %104, %103 ], [ %169, %168 ], [ %90, %89 ]
  invoke void @_ZNSt6vectorINSt7__cxx1112basic_stringIcSt11char_traitsIcESaIcEEESaIS5_EED2Ev(ptr noundef nonnull align 8 dereferenceable(24) %0)
          to label %175 unwind label %176

174:                                              ; preds = %23
  ret void

175:                                              ; preds = %172
  resume { ptr, i32 } %173

176:                                              ; preds = %172
  %177 = landingpad { ptr, i32 }
          catch ptr null
  %178 = extractvalue { ptr, i32 } %177, 0
  call void @__clang_call_terminate(ptr %178) #27
  unreachable
}

; Function Attrs: mustprogress nofree nounwind willreturn memory(argmem: read)
declare i32 @strcmp(ptr nocapture noundef, ptr nocapture noundef) local_unnamed_addr #7

; Function Attrs: mustprogress nofree nounwind willreturn memory(argmem: read)
declare i32 @strncmp(ptr nocapture noundef, ptr nocapture noundef, i64 noundef) local_unnamed_addr #7

; Function Attrs: sspstrong uwtable
define linkonce_odr dso_local void @_ZNSt6vectorINSt7__cxx1112basic_stringIcSt11char_traitsIcESaIcEEESaIS5_EED2Ev(ptr noundef nonnull align 8 dereferenceable(24) %0) unnamed_addr #0 comdat align 2 personality ptr @__gxx_personality_v0 {
  %2 = load ptr, ptr %0, align 8, !tbaa !91
  %3 = getelementptr inbounds %"struct.std::_Vector_base<std::__cxx11::basic_string<char>, std::allocator<std::__cxx11::basic_string<char> > >::_Vector_impl_data", ptr %0, i64 0, i32 1
  %4 = load ptr, ptr %3, align 8, !tbaa !90
  %5 = icmp eq ptr %2, %4
  br i1 %5, label %21, label %6

6:                                                ; preds = %1, %16
  %7 = phi ptr [ %17, %16 ], [ %2, %1 ]
  %8 = load ptr, ptr %7, align 8, !tbaa !63
  %9 = getelementptr inbounds %"class.std::__cxx11::basic_string", ptr %7, i64 0, i32 2
  %10 = icmp eq ptr %8, %9
  br i1 %10, label %11, label %15

11:                                               ; preds = %6
  %12 = getelementptr inbounds %"class.std::__cxx11::basic_string", ptr %7, i64 0, i32 1
  %13 = load i64, ptr %12, align 8, !tbaa !13
  %14 = icmp ult i64 %13, 16
  tail call void @llvm.assume(i1 %14)
  br label %16

15:                                               ; preds = %6
  tail call void @_ZdlPv(ptr noundef %8) #26
  br label %16

16:                                               ; preds = %15, %11
  %17 = getelementptr inbounds %"class.std::__cxx11::basic_string", ptr %7, i64 1
  %18 = icmp eq ptr %17, %4
  br i1 %18, label %19, label %6

19:                                               ; preds = %16
  %20 = load ptr, ptr %0, align 8, !tbaa !91
  br label %21

21:                                               ; preds = %19, %1
  %22 = phi ptr [ %20, %19 ], [ %2, %1 ]
  %23 = icmp eq ptr %22, null
  br i1 %23, label %25, label %24

24:                                               ; preds = %21
  tail call void @_ZdlPv(ptr noundef nonnull %22) #26
  br label %25

25:                                               ; preds = %21, %24
  ret void
}

; Function Attrs: sspstrong uwtable
define dso_local void @_ZNK25SectionBasedConfiguration20getConfigDescriptionB5cxx11EPKc(ptr noalias sret(%"class.std::__cxx11::basic_string") align 8 %0, ptr nocapture noundef nonnull readonly align 8 dereferenceable(416) %1, ptr noundef %2) unnamed_addr #0 align 2 personality ptr @__gxx_personality_v0 {
  %4 = alloca i64, align 8
  %5 = alloca %"class.std::vector.36", align 8
  %6 = tail call noundef i32 @_ZNK25SectionBasedConfiguration17resolveConfigNameEPKc(ptr noundef nonnull align 8 dereferenceable(416) %1, ptr noundef %2)
  %7 = icmp eq i32 %6, -1
  br i1 %7, label %8, label %13

8:                                                ; preds = %3
  %9 = tail call ptr @__cxa_allocate_exception(i64 128) #28
  invoke void (ptr, ptr, ...) @_ZN13cRuntimeErrorC1EPKcz(ptr noundef nonnull align 8 dereferenceable(124) %9, ptr noundef nonnull @.str.19, ptr noundef %2)
          to label %10 unwind label %11

10:                                               ; preds = %8
  tail call void @__cxa_throw(ptr nonnull %9, ptr nonnull @_ZTI13cRuntimeError, ptr nonnull @_ZN10cExceptionD2Ev) #30
  unreachable

11:                                               ; preds = %8
  %12 = landingpad { ptr, i32 }
          cleanup
  tail call void @__cxa_free_exception(ptr %9) #28
  br label %61

13:                                               ; preds = %3
  call void @llvm.lifetime.start.p0(i64 24, ptr nonnull %5) #28
  %14 = getelementptr inbounds %class.SectionBasedConfiguration, ptr %1, i64 0, i32 1
  %15 = load ptr, ptr %14, align 8, !tbaa !25, !noalias !92
  %16 = load ptr, ptr %15, align 8, !tbaa !9, !noalias !92
  %17 = getelementptr inbounds ptr, ptr %16, i64 6
  %18 = load ptr, ptr %17, align 8, !noalias !92
  %19 = tail call noundef ptr %18(ptr noundef nonnull align 8 dereferenceable(8) %15, i32 noundef %6), !noalias !92
  call void @_ZNK25SectionBasedConfiguration19resolveSectionChainEPKc(ptr nonnull sret(%"class.std::vector.36") align 8 %5, ptr noundef nonnull align 8 dereferenceable(416) %1, ptr noundef %19)
  %20 = load ptr, ptr @CFGID_DESCRIPTION, align 8, !tbaa !5
  %21 = load ptr, ptr %20, align 8, !tbaa !9
  %22 = getelementptr inbounds ptr, ptr %21, i64 6
  %23 = load ptr, ptr %22, align 8
  %24 = invoke noundef ptr %23(ptr noundef nonnull align 8 dereferenceable(20) %20)
          to label %25 unwind label %51

25:                                               ; preds = %13
  %26 = invoke noundef ptr @_ZNK25SectionBasedConfiguration16internalGetValueERKSt6vectorIiSaIiEEPKcS6_(ptr noundef nonnull align 8 dereferenceable(416) %1, ptr noundef nonnull align 8 dereferenceable(24) %5, ptr noundef %24, ptr noundef null)
          to label %27 unwind label %51

27:                                               ; preds = %25
  %28 = icmp eq ptr %26, null
  %29 = select i1 %28, ptr @.str.14, ptr %26
  %30 = getelementptr inbounds %"class.std::__cxx11::basic_string", ptr %0, i64 0, i32 2
  store ptr %30, ptr %0, align 8, !tbaa !11
  %31 = call i64 @strlen(ptr noundef nonnull dereferenceable(1) %29) #28
  call void @llvm.lifetime.start.p0(i64 8, ptr nonnull %4) #28
  store i64 %31, ptr %4, align 8, !tbaa !87
  %32 = icmp ugt i64 %31, 15
  br i1 %32, label %33, label %37

33:                                               ; preds = %27
  %34 = invoke noundef ptr @_ZNSt7__cxx1112basic_stringIcSt11char_traitsIcESaIcEE9_M_createERmm(ptr noundef nonnull align 8 dereferenceable(32) %0, ptr noundef nonnull align 8 dereferenceable(8) %4, i64 noundef 0)
          to label %35 unwind label %53

35:                                               ; preds = %33
  store ptr %34, ptr %0, align 8, !tbaa !63
  %36 = load i64, ptr %4, align 8, !tbaa !87
  store i64 %36, ptr %30, align 8, !tbaa !16
  br label %37

37:                                               ; preds = %35, %27
  %38 = phi ptr [ %34, %35 ], [ %30, %27 ]
  switch i64 %31, label %41 [
    i64 1, label %39
    i64 0, label %42
  ]

39:                                               ; preds = %37
  %40 = load i8, ptr %29, align 1, !tbaa !16
  store i8 %40, ptr %38, align 1, !tbaa !16
  br label %42

41:                                               ; preds = %37
  call void @llvm.memcpy.p0.p0.i64(ptr align 1 %38, ptr nonnull align 1 %29, i64 %31, i1 false)
  br label %42

42:                                               ; preds = %41, %39, %37
  %43 = load i64, ptr %4, align 8, !tbaa !87
  %44 = getelementptr inbounds %"class.std::__cxx11::basic_string", ptr %0, i64 0, i32 1
  store i64 %43, ptr %44, align 8, !tbaa !13
  %45 = load ptr, ptr %0, align 8, !tbaa !63
  %46 = getelementptr inbounds i8, ptr %45, i64 %43
  store i8 0, ptr %46, align 1, !tbaa !16
  call void @llvm.lifetime.end.p0(i64 8, ptr nonnull %4) #28
  %47 = load ptr, ptr %5, align 8, !tbaa !95
  %48 = icmp eq ptr %47, null
  br i1 %48, label %50, label %49

49:                                               ; preds = %42
  call void @_ZdlPv(ptr noundef nonnull %47) #26
  br label %50

50:                                               ; preds = %42, %49
  call void @llvm.lifetime.end.p0(i64 24, ptr nonnull %5) #28
  ret void

51:                                               ; preds = %25, %13
  %52 = landingpad { ptr, i32 }
          cleanup
  br label %55

53:                                               ; preds = %33
  %54 = landingpad { ptr, i32 }
          cleanup
  br label %55

55:                                               ; preds = %53, %51
  %56 = phi { ptr, i32 } [ %54, %53 ], [ %52, %51 ]
  %57 = load ptr, ptr %5, align 8, !tbaa !95
  %58 = icmp eq ptr %57, null
  br i1 %58, label %60, label %59

59:                                               ; preds = %55
  call void @_ZdlPv(ptr noundef nonnull %57) #26
  br label %60

60:                                               ; preds = %59, %55
  call void @llvm.lifetime.end.p0(i64 24, ptr nonnull %5) #28
  br label %61

61:                                               ; preds = %60, %11
  %62 = phi { ptr, i32 } [ %12, %11 ], [ %56, %60 ]
  resume { ptr, i32 } %62
}

; Function Attrs: sspstrong uwtable
define dso_local noundef i32 @_ZNK25SectionBasedConfiguration17resolveConfigNameEPKc(ptr nocapture noundef nonnull readonly align 8 dereferenceable(416) %0, ptr noundef %1) local_unnamed_addr #0 align 2 personality ptr @__gxx_personality_v0 {
  %3 = alloca %"class.std::__cxx11::basic_string", align 8
  %4 = alloca %"class.std::__cxx11::basic_string", align 8
  %5 = icmp eq ptr %1, null
  br i1 %5, label %9, label %6

6:                                                ; preds = %2
  %7 = load i8, ptr %1, align 1, !tbaa !16
  %8 = icmp eq i8 %7, 0
  br i1 %8, label %9, label %14

9:                                                ; preds = %6, %2
  %10 = tail call ptr @__cxa_allocate_exception(i64 128) #28
  invoke void (ptr, ptr, ...) @_ZN13cRuntimeErrorC1EPKcz(ptr noundef nonnull align 8 dereferenceable(124) %10, ptr noundef nonnull @.str.20)
          to label %11 unwind label %12

11:                                               ; preds = %9
  tail call void @__cxa_throw(ptr nonnull %10, ptr nonnull @_ZTI13cRuntimeError, ptr nonnull @_ZN10cExceptionD2Ev) #30
  unreachable

12:                                               ; preds = %9
  %13 = landingpad { ptr, i32 }
          cleanup
  tail call void @__cxa_free_exception(ptr %10) #28
  br label %140

14:                                               ; preds = %6
  %15 = tail call i32 @strcmp(ptr noundef nonnull dereferenceable(1) %1, ptr noundef nonnull dereferenceable(8) @.str.17) #29
  %16 = icmp eq i32 %15, 0
  br i1 %16, label %17, label %42

17:                                               ; preds = %14
  %18 = getelementptr inbounds %class.SectionBasedConfiguration, ptr %0, i64 0, i32 1
  %19 = load ptr, ptr %18, align 8, !tbaa !25
  %20 = load ptr, ptr %19, align 8, !tbaa !9
  %21 = getelementptr inbounds ptr, ptr %20, i64 5
  %22 = load ptr, ptr %21, align 8
  %23 = tail call noundef i32 %22(ptr noundef nonnull align 8 dereferenceable(8) %19)
  %24 = icmp sgt i32 %23, 0
  br i1 %24, label %25, label %42

25:                                               ; preds = %17, %34
  %26 = phi i32 [ %35, %34 ], [ 0, %17 ]
  %27 = load ptr, ptr %18, align 8, !tbaa !25
  %28 = load ptr, ptr %27, align 8, !tbaa !9
  %29 = getelementptr inbounds ptr, ptr %28, i64 6
  %30 = load ptr, ptr %29, align 8
  %31 = tail call noundef ptr %30(ptr noundef nonnull align 8 dereferenceable(8) %27, i32 noundef %26)
  %32 = tail call i32 @strcmp(ptr noundef nonnull dereferenceable(8) @.str.17, ptr noundef nonnull dereferenceable(1) %31) #29
  %33 = icmp eq i32 %32, 0
  br i1 %33, label %138, label %34

34:                                               ; preds = %25
  %35 = add nuw nsw i32 %26, 1
  %36 = load ptr, ptr %18, align 8, !tbaa !25
  %37 = load ptr, ptr %36, align 8, !tbaa !9
  %38 = getelementptr inbounds ptr, ptr %37, i64 5
  %39 = load ptr, ptr %38, align 8
  %40 = tail call noundef i32 %39(ptr noundef nonnull align 8 dereferenceable(8) %36)
  %41 = icmp slt i32 %35, %40
  br i1 %41, label %25, label %42

42:                                               ; preds = %34, %14, %17
  call void @llvm.lifetime.start.p0(i64 32, ptr nonnull %3) #28
  call void @llvm.lifetime.start.p0(i64 32, ptr nonnull %4) #28
  %43 = getelementptr inbounds %"class.std::__cxx11::basic_string", ptr %4, i64 0, i32 2
  store ptr %43, ptr %4, align 8, !tbaa !11
  call void @llvm.memcpy.p0.p0.i64(ptr noundef nonnull align 8 dereferenceable(7) %43, ptr noundef nonnull align 1 dereferenceable(7) @.str.18, i64 7, i1 false)
  %44 = getelementptr inbounds %"class.std::__cxx11::basic_string", ptr %4, i64 0, i32 1
  store i64 7, ptr %44, align 8, !tbaa !13
  %45 = getelementptr inbounds i8, ptr %4, i64 23
  store i8 0, ptr %45, align 1, !tbaa !16
  call void @llvm.experimental.noalias.scope.decl(metadata !97)
  %46 = call i64 @strlen(ptr noundef nonnull dereferenceable(1) %1) #28, !noalias !97
  %47 = getelementptr inbounds %"class.std::__cxx11::basic_string", ptr %3, i64 0, i32 2
  store ptr %47, ptr %3, align 8, !tbaa !11, !alias.scope !100
  %48 = getelementptr inbounds %"class.std::__cxx11::basic_string", ptr %3, i64 0, i32 1
  store i64 0, ptr %48, align 8, !tbaa !13, !alias.scope !100
  store i8 0, ptr %47, align 8, !tbaa !16, !alias.scope !100
  %49 = add i64 %46, 7
  invoke void @_ZNSt7__cxx1112basic_stringIcSt11char_traitsIcESaIcEE7reserveEm(ptr noundef nonnull align 8 dereferenceable(32) %3, i64 noundef %49)
          to label %50 unwind label %64

50:                                               ; preds = %42
  %51 = load i64, ptr %48, align 8, !tbaa !13, !alias.scope !100
  %52 = add i64 %51, -4611686018427387897
  %53 = icmp ult i64 %52, 7
  br i1 %53, label %60, label %54

54:                                               ; preds = %50
  %55 = invoke noundef nonnull align 8 dereferenceable(32) ptr @_ZNSt7__cxx1112basic_stringIcSt11char_traitsIcESaIcEE9_M_appendEPKcm(ptr noundef nonnull align 8 dereferenceable(32) %3, ptr noundef nonnull %43, i64 noundef 7)
          to label %56 unwind label %64

56:                                               ; preds = %54
  %57 = load i64, ptr %48, align 8, !tbaa !13, !alias.scope !100
  %58 = sub i64 4611686018427387903, %57
  %59 = icmp ult i64 %58, %46
  br i1 %59, label %60, label %62

60:                                               ; preds = %56, %50
  invoke void @_ZSt20__throw_length_errorPKc(ptr noundef nonnull @.str.166) #30
          to label %61 unwind label %64

61:                                               ; preds = %60
  unreachable

62:                                               ; preds = %56
  %63 = invoke noundef nonnull align 8 dereferenceable(32) ptr @_ZNSt7__cxx1112basic_stringIcSt11char_traitsIcESaIcEE9_M_appendEPKcm(ptr noundef nonnull align 8 dereferenceable(32) %3, ptr noundef nonnull %1, i64 noundef %46)
          to label %72 unwind label %64

64:                                               ; preds = %62, %60, %54, %42
  %65 = landingpad { ptr, i32 }
          cleanup
  %66 = load ptr, ptr %3, align 8, !tbaa !63, !alias.scope !100
  %67 = icmp eq ptr %66, %47
  br i1 %67, label %68, label %71

68:                                               ; preds = %64
  %69 = load i64, ptr %48, align 8, !tbaa !13, !alias.scope !100
  %70 = icmp ult i64 %69, 16
  call void @llvm.assume(i1 %70)
  br label %129

71:                                               ; preds = %64
  call void @_ZdlPv(ptr noundef %66) #26
  br label %129

72:                                               ; preds = %62
  %73 = load ptr, ptr %3, align 8, !tbaa !63
  %74 = getelementptr inbounds %class.SectionBasedConfiguration, ptr %0, i64 0, i32 1
  %75 = load ptr, ptr %74, align 8, !tbaa !25
  %76 = load ptr, ptr %75, align 8, !tbaa !9
  %77 = getelementptr inbounds ptr, ptr %76, i64 5
  %78 = load ptr, ptr %77, align 8
  %79 = invoke noundef i32 %78(ptr noundef nonnull align 8 dereferenceable(8) %75)
          to label %80 unwind label %119

80:                                               ; preds = %72
  %81 = icmp sgt i32 %79, 0
  br i1 %81, label %82, label %101

82:                                               ; preds = %80, %98
  %83 = phi i32 [ %99, %98 ], [ 0, %80 ]
  %84 = load ptr, ptr %74, align 8, !tbaa !25
  %85 = load ptr, ptr %84, align 8, !tbaa !9
  %86 = getelementptr inbounds ptr, ptr %85, i64 6
  %87 = load ptr, ptr %86, align 8
  %88 = invoke noundef ptr %87(ptr noundef nonnull align 8 dereferenceable(8) %84, i32 noundef %83)
          to label %89 unwind label %117

89:                                               ; preds = %82
  %90 = call i32 @strcmp(ptr noundef nonnull dereferenceable(1) %73, ptr noundef nonnull dereferenceable(1) %88) #29
  %91 = icmp eq i32 %90, 0
  br i1 %91, label %101, label %92

92:                                               ; preds = %89
  %93 = load ptr, ptr %74, align 8, !tbaa !25
  %94 = load ptr, ptr %93, align 8, !tbaa !9
  %95 = getelementptr inbounds ptr, ptr %94, i64 5
  %96 = load ptr, ptr %95, align 8
  %97 = invoke noundef i32 %96(ptr noundef nonnull align 8 dereferenceable(8) %93)
          to label %98 unwind label %117

98:                                               ; preds = %92
  %99 = add nuw nsw i32 %83, 1
  %100 = icmp slt i32 %99, %97
  br i1 %100, label %82, label %101

101:                                              ; preds = %98, %89, %80
  %102 = phi i32 [ -1, %80 ], [ -1, %98 ], [ %83, %89 ]
  %103 = load ptr, ptr %3, align 8, !tbaa !63
  %104 = icmp eq ptr %103, %47
  br i1 %104, label %105, label %108

105:                                              ; preds = %101
  %106 = load i64, ptr %48, align 8, !tbaa !13
  %107 = icmp ult i64 %106, 16
  call void @llvm.assume(i1 %107)
  br label %109

108:                                              ; preds = %101
  call void @_ZdlPv(ptr noundef %103) #26
  br label %109

109:                                              ; preds = %108, %105
  %110 = load ptr, ptr %4, align 8, !tbaa !63
  %111 = icmp eq ptr %110, %43
  br i1 %111, label %112, label %115

112:                                              ; preds = %109
  %113 = load i64, ptr %44, align 8, !tbaa !13
  %114 = icmp ult i64 %113, 16
  call void @llvm.assume(i1 %114)
  br label %116

115:                                              ; preds = %109
  call void @_ZdlPv(ptr noundef %110) #26
  br label %116

116:                                              ; preds = %115, %112
  call void @llvm.lifetime.end.p0(i64 32, ptr nonnull %4) #28
  call void @llvm.lifetime.end.p0(i64 32, ptr nonnull %3) #28
  br label %138

117:                                              ; preds = %82, %92
  %118 = landingpad { ptr, i32 }
          cleanup
  br label %121

119:                                              ; preds = %72
  %120 = landingpad { ptr, i32 }
          cleanup
  br label %121

121:                                              ; preds = %119, %117
  %122 = phi { ptr, i32 } [ %118, %117 ], [ %120, %119 ]
  %123 = load ptr, ptr %3, align 8, !tbaa !63
  %124 = icmp eq ptr %123, %47
  br i1 %124, label %125, label %128

125:                                              ; preds = %121
  %126 = load i64, ptr %48, align 8, !tbaa !13
  %127 = icmp ult i64 %126, 16
  call void @llvm.assume(i1 %127)
  br label %129

128:                                              ; preds = %121
  call void @_ZdlPv(ptr noundef %123) #26
  br label %129

129:                                              ; preds = %128, %125, %71, %68
  %130 = phi { ptr, i32 } [ %65, %71 ], [ %65, %68 ], [ %122, %125 ], [ %122, %128 ]
  %131 = load ptr, ptr %4, align 8, !tbaa !63
  %132 = icmp eq ptr %131, %43
  br i1 %132, label %133, label %136

133:                                              ; preds = %129
  %134 = load i64, ptr %44, align 8, !tbaa !13
  %135 = icmp ult i64 %134, 16
  call void @llvm.assume(i1 %135)
  br label %137

136:                                              ; preds = %129
  call void @_ZdlPv(ptr noundef %131) #26
  br label %137

137:                                              ; preds = %136, %133
  call void @llvm.lifetime.end.p0(i64 32, ptr nonnull %4) #28
  call void @llvm.lifetime.end.p0(i64 32, ptr nonnull %3) #28
  br label %140

138:                                              ; preds = %25, %116
  %139 = phi i32 [ %102, %116 ], [ %26, %25 ]
  ret i32 %139

140:                                              ; preds = %137, %12
  %141 = phi { ptr, i32 } [ %130, %137 ], [ %13, %12 ]
  resume { ptr, i32 } %141
}

; Function Attrs: sspstrong uwtable
define dso_local void @_ZNK25SectionBasedConfiguration19resolveSectionChainEi(ptr noalias sret(%"class.std::vector.36") align 8 %0, ptr nocapture noundef nonnull readonly align 8 dereferenceable(416) %1, i32 noundef %2) local_unnamed_addr #0 align 2 {
  %4 = getelementptr inbounds %class.SectionBasedConfiguration, ptr %1, i64 0, i32 1
  %5 = load ptr, ptr %4, align 8, !tbaa !25
  %6 = load ptr, ptr %5, align 8, !tbaa !9
  %7 = getelementptr inbounds ptr, ptr %6, i64 6
  %8 = load ptr, ptr %7, align 8
  %9 = tail call noundef ptr %8(ptr noundef nonnull align 8 dereferenceable(8) %5, i32 noundef %2)
  tail call void @_ZNK25SectionBasedConfiguration19resolveSectionChainEPKc(ptr sret(%"class.std::vector.36") align 8 %0, ptr noundef nonnull align 8 dereferenceable(416) %1, ptr noundef %9)
  ret void
}

; Function Attrs: sspstrong uwtable
define dso_local noundef ptr @_ZNK25SectionBasedConfiguration16internalGetValueERKSt6vectorIiSaIiEEPKcS6_(ptr nocapture noundef nonnull readonly align 8 dereferenceable(416) %0, ptr nocapture noundef nonnull readonly align 8 dereferenceable(24) %1, ptr nocapture noundef readonly %2, ptr noundef readnone %3) local_unnamed_addr #0 align 2 {
  %5 = getelementptr inbounds %class.SectionBasedConfiguration, ptr %0, i64 0, i32 2
  %6 = getelementptr inbounds %class.SectionBasedConfiguration, ptr %0, i64 0, i32 2, i32 0, i32 0, i32 0, i32 1
  %7 = load ptr, ptr %6, align 8, !tbaa !67
  %8 = load ptr, ptr %5, align 8, !tbaa !66
  %9 = ptrtoint ptr %7 to i64
  %10 = ptrtoint ptr %8 to i64
  %11 = sub i64 %9, %10
  %12 = sdiv exact i64 %11, 80
  %13 = trunc i64 %12 to i32
  %14 = icmp sgt i32 %13, 0
  br i1 %14, label %38, label %26

15:                                               ; preds = %38
  %16 = add nuw nsw i64 %39, 1
  %17 = load ptr, ptr %6, align 8, !tbaa !67
  %18 = load ptr, ptr %5, align 8, !tbaa !66
  %19 = ptrtoint ptr %17 to i64
  %20 = ptrtoint ptr %18 to i64
  %21 = sub i64 %19, %20
  %22 = sdiv exact i64 %21, 80
  %23 = shl i64 %22, 32
  %24 = ashr exact i64 %23, 32
  %25 = icmp slt i64 %16, %24
  br i1 %25, label %38, label %26

26:                                               ; preds = %15, %4
  %27 = getelementptr inbounds %"struct.std::_Vector_base<int, std::allocator<int> >::_Vector_impl_data", ptr %1, i64 0, i32 1
  %28 = load ptr, ptr %27, align 8, !tbaa !103
  %29 = load ptr, ptr %1, align 8, !tbaa !95
  %30 = ptrtoint ptr %28 to i64
  %31 = ptrtoint ptr %29 to i64
  %32 = sub i64 %30, %31
  %33 = lshr exact i64 %32, 2
  %34 = trunc i64 %33 to i32
  %35 = icmp sgt i32 %34, 0
  br i1 %35, label %36, label %107

36:                                               ; preds = %26
  %37 = getelementptr inbounds %class.SectionBasedConfiguration, ptr %0, i64 0, i32 1
  br label %55

38:                                               ; preds = %4, %15
  %39 = phi i64 [ %16, %15 ], [ 0, %4 ]
  %40 = phi ptr [ %18, %15 ], [ %8, %4 ]
  %41 = getelementptr inbounds %"class.SectionBasedConfiguration::KeyValue1", ptr %40, i64 %39
  %42 = load ptr, ptr %41, align 8, !tbaa !9
  %43 = getelementptr inbounds ptr, ptr %42, i64 2
  %44 = load ptr, ptr %43, align 8
  %45 = tail call noundef ptr %44(ptr noundef nonnull align 8 dereferenceable(80) %41)
  %46 = tail call i32 @strcmp(ptr noundef nonnull dereferenceable(1) %2, ptr noundef nonnull dereferenceable(1) %45) #29
  %47 = icmp eq i32 %46, 0
  br i1 %47, label %48, label %15

48:                                               ; preds = %38
  %49 = load ptr, ptr %5, align 8, !tbaa !66
  %50 = getelementptr inbounds %"class.SectionBasedConfiguration::KeyValue1", ptr %49, i64 %39
  %51 = load ptr, ptr %50, align 8, !tbaa !9
  %52 = getelementptr inbounds ptr, ptr %51, i64 3
  %53 = load ptr, ptr %52, align 8
  %54 = tail call noundef ptr %53(ptr noundef nonnull align 8 dereferenceable(80) %50)
  br label %107

55:                                               ; preds = %36, %97
  %56 = phi i64 [ 0, %36 ], [ %98, %97 ]
  %57 = phi ptr [ %29, %36 ], [ %100, %97 ]
  %58 = getelementptr inbounds i32, ptr %57, i64 %56
  %59 = load i32, ptr %58, align 4, !tbaa !104
  %60 = load ptr, ptr %37, align 8, !tbaa !25
  %61 = load ptr, ptr %60, align 8, !tbaa !9
  %62 = getelementptr inbounds ptr, ptr %61, i64 7
  %63 = load ptr, ptr %62, align 8
  %64 = tail call noundef i32 %63(ptr noundef nonnull align 8 dereferenceable(8) %60, i32 noundef %59)
  %65 = icmp sgt i32 %64, 0
  br i1 %65, label %66, label %97

66:                                               ; preds = %55, %79
  %67 = phi i32 [ %80, %79 ], [ 0, %55 ]
  %68 = load ptr, ptr %37, align 8, !tbaa !25
  %69 = load ptr, ptr %68, align 8, !tbaa !9
  %70 = getelementptr inbounds ptr, ptr %69, i64 8
  %71 = load ptr, ptr %70, align 8
  %72 = tail call noundef nonnull align 8 dereferenceable(8) ptr %71(ptr noundef nonnull align 8 dereferenceable(8) %68, i32 noundef %59, i32 noundef %67)
  %73 = load ptr, ptr %72, align 8, !tbaa !9
  %74 = getelementptr inbounds ptr, ptr %73, i64 2
  %75 = load ptr, ptr %74, align 8
  %76 = tail call noundef ptr %75(ptr noundef nonnull align 8 dereferenceable(8) %72)
  %77 = tail call i32 @strcmp(ptr noundef nonnull dereferenceable(1) %2, ptr noundef nonnull dereferenceable(1) %76) #29
  %78 = icmp eq i32 %77, 0
  br i1 %78, label %87, label %79

79:                                               ; preds = %66
  %80 = add nuw nsw i32 %67, 1
  %81 = load ptr, ptr %37, align 8, !tbaa !25
  %82 = load ptr, ptr %81, align 8, !tbaa !9
  %83 = getelementptr inbounds ptr, ptr %82, i64 7
  %84 = load ptr, ptr %83, align 8
  %85 = tail call noundef i32 %84(ptr noundef nonnull align 8 dereferenceable(8) %81, i32 noundef %59)
  %86 = icmp slt i32 %80, %85
  br i1 %86, label %66, label %97

87:                                               ; preds = %66
  %88 = load ptr, ptr %37, align 8, !tbaa !25
  %89 = load ptr, ptr %88, align 8, !tbaa !9
  %90 = getelementptr inbounds ptr, ptr %89, i64 8
  %91 = load ptr, ptr %90, align 8
  %92 = tail call noundef nonnull align 8 dereferenceable(8) ptr %91(ptr noundef nonnull align 8 dereferenceable(8) %88, i32 noundef %59, i32 noundef %67)
  %93 = load ptr, ptr %92, align 8, !tbaa !9
  %94 = getelementptr inbounds ptr, ptr %93, i64 3
  %95 = load ptr, ptr %94, align 8
  %96 = tail call noundef ptr %95(ptr noundef nonnull align 8 dereferenceable(8) %92)
  br label %107

97:                                               ; preds = %79, %55
  %98 = add nuw nsw i64 %56, 1
  %99 = load ptr, ptr %27, align 8, !tbaa !103
  %100 = load ptr, ptr %1, align 8, !tbaa !95
  %101 = ptrtoint ptr %99 to i64
  %102 = ptrtoint ptr %100 to i64
  %103 = sub i64 %101, %102
  %104 = shl i64 %103, 30
  %105 = ashr i64 %104, 32
  %106 = icmp slt i64 %98, %105
  br i1 %106, label %55, label %107

107:                                              ; preds = %97, %26, %87, %48
  %108 = phi ptr [ %54, %48 ], [ %96, %87 ], [ %3, %26 ], [ %3, %97 ]
  ret ptr %108
}

; Function Attrs: sspstrong uwtable
define dso_local void @_ZNK25SectionBasedConfiguration13getBaseConfigB5cxx11EPKc(ptr noalias sret(%"class.std::__cxx11::basic_string") align 8 %0, ptr nocapture noundef nonnull readonly align 8 dereferenceable(416) %1, ptr noundef %2) unnamed_addr #0 align 2 personality ptr @__gxx_personality_v0 {
  %4 = alloca i64, align 8
  %5 = alloca i64, align 8
  %6 = alloca %"class.std::__cxx11::basic_string", align 8
  %7 = tail call noundef i32 @_ZNK25SectionBasedConfiguration17resolveConfigNameEPKc(ptr noundef nonnull align 8 dereferenceable(416) %1, ptr noundef %2)
  %8 = icmp eq i32 %7, -1
  br i1 %8, label %9, label %14

9:                                                ; preds = %3
  %10 = tail call ptr @__cxa_allocate_exception(i64 128) #28
  invoke void (ptr, ptr, ...) @_ZN13cRuntimeErrorC1EPKcz(ptr noundef nonnull align 8 dereferenceable(124) %10, ptr noundef nonnull @.str.19, ptr noundef %2)
          to label %11 unwind label %12

11:                                               ; preds = %9
  tail call void @__cxa_throw(ptr nonnull %10, ptr nonnull @_ZTI13cRuntimeError, ptr nonnull @_ZN10cExceptionD2Ev) #30
  unreachable

12:                                               ; preds = %9
  %13 = landingpad { ptr, i32 }
          cleanup
  tail call void @__cxa_free_exception(ptr %10) #28
  br label %139

14:                                               ; preds = %3
  %15 = load ptr, ptr @CFGID_EXTENDS, align 8, !tbaa !5
  %16 = load ptr, ptr %15, align 8, !tbaa !9
  %17 = getelementptr inbounds ptr, ptr %16, i64 6
  %18 = load ptr, ptr %17, align 8
  %19 = tail call noundef ptr %18(ptr noundef nonnull align 8 dereferenceable(20) %15)
  %20 = getelementptr inbounds %class.SectionBasedConfiguration, ptr %1, i64 0, i32 1
  %21 = load ptr, ptr %20, align 8, !tbaa !25
  %22 = load ptr, ptr %21, align 8, !tbaa !9
  %23 = getelementptr inbounds ptr, ptr %22, i64 7
  %24 = load ptr, ptr %23, align 8
  %25 = tail call noundef i32 %24(ptr noundef nonnull align 8 dereferenceable(8) %21, i32 noundef %7)
  %26 = icmp sgt i32 %25, 0
  br i1 %26, label %27, label %48

27:                                               ; preds = %14, %40
  %28 = phi i32 [ %41, %40 ], [ 0, %14 ]
  %29 = load ptr, ptr %20, align 8, !tbaa !25
  %30 = load ptr, ptr %29, align 8, !tbaa !9
  %31 = getelementptr inbounds ptr, ptr %30, i64 8
  %32 = load ptr, ptr %31, align 8
  %33 = tail call noundef nonnull align 8 dereferenceable(8) ptr %32(ptr noundef nonnull align 8 dereferenceable(8) %29, i32 noundef %7, i32 noundef %28)
  %34 = load ptr, ptr %33, align 8, !tbaa !9
  %35 = getelementptr inbounds ptr, ptr %34, i64 2
  %36 = load ptr, ptr %35, align 8
  %37 = tail call noundef ptr %36(ptr noundef nonnull align 8 dereferenceable(8) %33)
  %38 = tail call i32 @strcmp(ptr noundef nonnull dereferenceable(1) %19, ptr noundef nonnull dereferenceable(1) %37) #29
  %39 = icmp eq i32 %38, 0
  br i1 %39, label %50, label %40

40:                                               ; preds = %27
  %41 = add nuw nsw i32 %28, 1
  %42 = load ptr, ptr %20, align 8, !tbaa !25
  %43 = load ptr, ptr %42, align 8, !tbaa !9
  %44 = getelementptr inbounds ptr, ptr %43, i64 7
  %45 = load ptr, ptr %44, align 8
  %46 = tail call noundef i32 %45(ptr noundef nonnull align 8 dereferenceable(8) %42, i32 noundef %7)
  %47 = icmp slt i32 %41, %46
  br i1 %47, label %27, label %48

48:                                               ; preds = %40, %14
  call void @llvm.lifetime.start.p0(i64 32, ptr nonnull %6) #28
  %49 = getelementptr inbounds %"class.std::__cxx11::basic_string", ptr %6, i64 0, i32 2
  store ptr %49, ptr %6, align 8, !tbaa !11
  br label %64

50:                                               ; preds = %27
  call void @llvm.lifetime.start.p0(i64 32, ptr nonnull %6) #28
  %51 = load ptr, ptr %20, align 8, !tbaa !25
  %52 = load ptr, ptr %51, align 8, !tbaa !9
  %53 = getelementptr inbounds ptr, ptr %52, i64 8
  %54 = load ptr, ptr %53, align 8
  %55 = tail call noundef nonnull align 8 dereferenceable(8) ptr %54(ptr noundef nonnull align 8 dereferenceable(8) %51, i32 noundef %7, i32 noundef %28)
  %56 = load ptr, ptr %55, align 8, !tbaa !9
  %57 = getelementptr inbounds ptr, ptr %56, i64 3
  %58 = load ptr, ptr %57, align 8
  %59 = tail call noundef ptr %58(ptr noundef nonnull align 8 dereferenceable(8) %55)
  %60 = getelementptr inbounds %"class.std::__cxx11::basic_string", ptr %6, i64 0, i32 2
  store ptr %60, ptr %6, align 8, !tbaa !11
  %61 = icmp eq ptr %59, null
  br i1 %61, label %62, label %64

62:                                               ; preds = %50
  invoke void @_ZSt19__throw_logic_errorPKc(ptr noundef nonnull @.str.165) #30
          to label %63 unwind label %87

63:                                               ; preds = %62
  unreachable

64:                                               ; preds = %48, %50
  %65 = phi ptr [ %49, %48 ], [ %60, %50 ]
  %66 = phi ptr [ @.str.14, %48 ], [ %59, %50 ]
  %67 = call i64 @strlen(ptr noundef nonnull dereferenceable(1) %66) #28
  call void @llvm.lifetime.start.p0(i64 8, ptr nonnull %5) #28
  store i64 %67, ptr %5, align 8, !tbaa !87
  %68 = icmp ugt i64 %67, 15
  br i1 %68, label %69, label %73

69:                                               ; preds = %64
  %70 = invoke noundef ptr @_ZNSt7__cxx1112basic_stringIcSt11char_traitsIcESaIcEE9_M_createERmm(ptr noundef nonnull align 8 dereferenceable(32) %6, ptr noundef nonnull align 8 dereferenceable(8) %5, i64 noundef 0)
          to label %71 unwind label %87

71:                                               ; preds = %69
  store ptr %70, ptr %6, align 8, !tbaa !63
  %72 = load i64, ptr %5, align 8, !tbaa !87
  store i64 %72, ptr %65, align 8, !tbaa !16
  br label %73

73:                                               ; preds = %71, %64
  %74 = phi ptr [ %70, %71 ], [ %65, %64 ]
  switch i64 %67, label %77 [
    i64 1, label %75
    i64 0, label %78
  ]

75:                                               ; preds = %73
  %76 = load i8, ptr %66, align 1, !tbaa !16
  store i8 %76, ptr %74, align 1, !tbaa !16
  br label %78

77:                                               ; preds = %73
  call void @llvm.memcpy.p0.p0.i64(ptr align 1 %74, ptr nonnull align 1 %66, i64 %67, i1 false)
  br label %78

78:                                               ; preds = %77, %75, %73
  %79 = load i64, ptr %5, align 8, !tbaa !87
  %80 = getelementptr inbounds %"class.std::__cxx11::basic_string", ptr %6, i64 0, i32 1
  store i64 %79, ptr %80, align 8, !tbaa !13
  %81 = load ptr, ptr %6, align 8, !tbaa !63
  %82 = getelementptr inbounds i8, ptr %81, i64 %79
  store i8 0, ptr %82, align 1, !tbaa !16
  call void @llvm.lifetime.end.p0(i64 8, ptr nonnull %5) #28
  %83 = load i64, ptr %80, align 8, !tbaa !13
  %84 = icmp eq i64 %83, 0
  br i1 %84, label %85, label %91

85:                                               ; preds = %78
  %86 = invoke noundef nonnull align 8 dereferenceable(32) ptr @_ZNSt7__cxx1112basic_stringIcSt11char_traitsIcESaIcEE10_M_replaceEmmPKcm(ptr noundef nonnull align 8 dereferenceable(32) %6, i64 noundef 0, i64 noundef 0, ptr noundef nonnull @.str.17, i64 noundef 7)
          to label %91 unwind label %89

87:                                               ; preds = %69, %62
  %88 = landingpad { ptr, i32 }
          cleanup
  br label %137

89:                                               ; preds = %85
  %90 = landingpad { ptr, i32 }
          cleanup
  br label %129

91:                                               ; preds = %85, %78
  %92 = load ptr, ptr %6, align 8, !tbaa !63
  %93 = invoke noundef i32 @_ZNK25SectionBasedConfiguration17resolveConfigNameEPKc(ptr noundef nonnull align 8 dereferenceable(416) %1, ptr noundef %92)
          to label %94 unwind label %125

94:                                               ; preds = %91
  %95 = icmp eq i32 %93, -1
  %96 = getelementptr inbounds %"class.std::__cxx11::basic_string", ptr %0, i64 0, i32 2
  store ptr %96, ptr %0, align 8, !tbaa !11
  br i1 %95, label %97, label %99

97:                                               ; preds = %94
  %98 = getelementptr inbounds %"class.std::__cxx11::basic_string", ptr %0, i64 0, i32 1
  store i64 0, ptr %98, align 8, !tbaa !13
  store i8 0, ptr %96, align 8, !tbaa !16
  br label %117

99:                                               ; preds = %94
  %100 = load ptr, ptr %6, align 8, !tbaa !63
  %101 = load i64, ptr %80, align 8, !tbaa !13
  call void @llvm.lifetime.start.p0(i64 8, ptr nonnull %4) #28
  store i64 %101, ptr %4, align 8, !tbaa !87
  %102 = icmp ugt i64 %101, 15
  br i1 %102, label %103, label %107

103:                                              ; preds = %99
  %104 = invoke noundef ptr @_ZNSt7__cxx1112basic_stringIcSt11char_traitsIcESaIcEE9_M_createERmm(ptr noundef nonnull align 8 dereferenceable(32) %0, ptr noundef nonnull align 8 dereferenceable(8) %4, i64 noundef 0)
          to label %105 unwind label %127

105:                                              ; preds = %103
  store ptr %104, ptr %0, align 8, !tbaa !63
  %106 = load i64, ptr %4, align 8, !tbaa !87
  store i64 %106, ptr %96, align 8, !tbaa !16
  br label %107

107:                                              ; preds = %105, %99
  %108 = phi ptr [ %104, %105 ], [ %96, %99 ]
  switch i64 %101, label %111 [
    i64 1, label %109
    i64 0, label %112
  ]

109:                                              ; preds = %107
  %110 = load i8, ptr %100, align 1, !tbaa !16
  store i8 %110, ptr %108, align 1, !tbaa !16
  br label %112

111:                                              ; preds = %107
  call void @llvm.memcpy.p0.p0.i64(ptr align 1 %108, ptr align 1 %100, i64 %101, i1 false)
  br label %112

112:                                              ; preds = %111, %109, %107
  %113 = load i64, ptr %4, align 8, !tbaa !87
  %114 = getelementptr inbounds %"class.std::__cxx11::basic_string", ptr %0, i64 0, i32 1
  store i64 %113, ptr %114, align 8, !tbaa !13
  %115 = load ptr, ptr %0, align 8, !tbaa !63
  %116 = getelementptr inbounds i8, ptr %115, i64 %113
  store i8 0, ptr %116, align 1, !tbaa !16
  call void @llvm.lifetime.end.p0(i64 8, ptr nonnull %4) #28
  br label %117

117:                                              ; preds = %112, %97
  %118 = load ptr, ptr %6, align 8, !tbaa !63
  %119 = icmp eq ptr %118, %65
  br i1 %119, label %120, label %123

120:                                              ; preds = %117
  %121 = load i64, ptr %80, align 8, !tbaa !13
  %122 = icmp ult i64 %121, 16
  call void @llvm.assume(i1 %122)
  br label %124

123:                                              ; preds = %117
  call void @_ZdlPv(ptr noundef %118) #26
  br label %124

124:                                              ; preds = %120, %123
  call void @llvm.lifetime.end.p0(i64 32, ptr nonnull %6) #28
  ret void

125:                                              ; preds = %91
  %126 = landingpad { ptr, i32 }
          cleanup
  br label %129

127:                                              ; preds = %103
  %128 = landingpad { ptr, i32 }
          cleanup
  br label %129

129:                                              ; preds = %127, %125, %89
  %130 = phi { ptr, i32 } [ %90, %89 ], [ %126, %125 ], [ %128, %127 ]
  %131 = load ptr, ptr %6, align 8, !tbaa !63
  %132 = icmp eq ptr %131, %65
  br i1 %132, label %133, label %136

133:                                              ; preds = %129
  %134 = load i64, ptr %80, align 8, !tbaa !13
  %135 = icmp ult i64 %134, 16
  call void @llvm.assume(i1 %135)
  br label %137

136:                                              ; preds = %129
  call void @_ZdlPv(ptr noundef %131) #26
  br label %137

137:                                              ; preds = %136, %133, %87
  %138 = phi { ptr, i32 } [ %88, %87 ], [ %130, %133 ], [ %130, %136 ]
  call void @llvm.lifetime.end.p0(i64 32, ptr nonnull %6) #28
  br label %139

139:                                              ; preds = %137, %12
  %140 = phi { ptr, i32 } [ %13, %12 ], [ %138, %137 ]
  resume { ptr, i32 } %140
}

; Function Attrs: sspstrong uwtable
define dso_local noundef i32 @_ZNK25SectionBasedConfiguration17internalFindEntryEiPKc(ptr nocapture noundef nonnull readonly align 8 dereferenceable(416) %0, i32 noundef %1, ptr nocapture noundef readonly %2) local_unnamed_addr #0 align 2 {
  %4 = getelementptr inbounds %class.SectionBasedConfiguration, ptr %0, i64 0, i32 1
  %5 = load ptr, ptr %4, align 8, !tbaa !25
  %6 = load ptr, ptr %5, align 8, !tbaa !9
  %7 = getelementptr inbounds ptr, ptr %6, i64 7
  %8 = load ptr, ptr %7, align 8
  %9 = tail call noundef i32 %8(ptr noundef nonnull align 8 dereferenceable(8) %5, i32 noundef %1)
  %10 = icmp sgt i32 %9, 0
  br i1 %10, label %11, label %32

11:                                               ; preds = %3, %24
  %12 = phi i32 [ %25, %24 ], [ 0, %3 ]
  %13 = load ptr, ptr %4, align 8, !tbaa !25
  %14 = load ptr, ptr %13, align 8, !tbaa !9
  %15 = getelementptr inbounds ptr, ptr %14, i64 8
  %16 = load ptr, ptr %15, align 8
  %17 = tail call noundef nonnull align 8 dereferenceable(8) ptr %16(ptr noundef nonnull align 8 dereferenceable(8) %13, i32 noundef %1, i32 noundef %12)
  %18 = load ptr, ptr %17, align 8, !tbaa !9
  %19 = getelementptr inbounds ptr, ptr %18, i64 2
  %20 = load ptr, ptr %19, align 8
  %21 = tail call noundef ptr %20(ptr noundef nonnull align 8 dereferenceable(8) %17)
  %22 = tail call i32 @strcmp(ptr noundef nonnull dereferenceable(1) %2, ptr noundef nonnull dereferenceable(1) %21) #29
  %23 = icmp eq i32 %22, 0
  br i1 %23, label %32, label %24

24:                                               ; preds = %11
  %25 = add nuw nsw i32 %12, 1
  %26 = load ptr, ptr %4, align 8, !tbaa !25
  %27 = load ptr, ptr %26, align 8, !tbaa !9
  %28 = getelementptr inbounds ptr, ptr %27, i64 7
  %29 = load ptr, ptr %28, align 8
  %30 = tail call noundef i32 %29(ptr noundef nonnull align 8 dereferenceable(8) %26, i32 noundef %1)
  %31 = icmp slt i32 %25, %30
  br i1 %31, label %11, label %32

32:                                               ; preds = %24, %11, %3
  %33 = phi i32 [ -1, %3 ], [ %12, %11 ], [ -1, %24 ]
  ret i32 %33
}

; Function Attrs: sspstrong uwtable
define dso_local noundef i32 @_ZNK25SectionBasedConfiguration19internalFindSectionEPKc(ptr nocapture noundef nonnull readonly align 8 dereferenceable(416) %0, ptr nocapture noundef readonly %1) local_unnamed_addr #0 align 2 {
  %3 = getelementptr inbounds %class.SectionBasedConfiguration, ptr %0, i64 0, i32 1
  %4 = load ptr, ptr %3, align 8, !tbaa !25
  %5 = load ptr, ptr %4, align 8, !tbaa !9
  %6 = getelementptr inbounds ptr, ptr %5, i64 5
  %7 = load ptr, ptr %6, align 8
  %8 = tail call noundef i32 %7(ptr noundef nonnull align 8 dereferenceable(8) %4)
  %9 = icmp sgt i32 %8, 0
  br i1 %9, label %10, label %27

10:                                               ; preds = %2, %19
  %11 = phi i32 [ %20, %19 ], [ 0, %2 ]
  %12 = load ptr, ptr %3, align 8, !tbaa !25
  %13 = load ptr, ptr %12, align 8, !tbaa !9
  %14 = getelementptr inbounds ptr, ptr %13, i64 6
  %15 = load ptr, ptr %14, align 8
  %16 = tail call noundef ptr %15(ptr noundef nonnull align 8 dereferenceable(8) %12, i32 noundef %11)
  %17 = tail call i32 @strcmp(ptr noundef nonnull dereferenceable(1) %1, ptr noundef nonnull dereferenceable(1) %16) #29
  %18 = icmp eq i32 %17, 0
  br i1 %18, label %27, label %19

19:                                               ; preds = %10
  %20 = add nuw nsw i32 %11, 1
  %21 = load ptr, ptr %3, align 8, !tbaa !25
  %22 = load ptr, ptr %21, align 8, !tbaa !9
  %23 = getelementptr inbounds ptr, ptr %22, i64 5
  %24 = load ptr, ptr %23, align 8
  %25 = tail call noundef i32 %24(ptr noundef nonnull align 8 dereferenceable(8) %21)
  %26 = icmp slt i32 %20, %25
  br i1 %26, label %10, label %27

27:                                               ; preds = %19, %10, %2
  %28 = phi i32 [ -1, %2 ], [ %11, %10 ], [ -1, %19 ]
  ret i32 %28
}

; Function Attrs: sspstrong uwtable
define dso_local void @_ZN25SectionBasedConfiguration14activateConfigEPKci(ptr noundef nonnull align 8 dereferenceable(416) %0, ptr noundef %1, i32 noundef %2) unnamed_addr #0 align 2 personality ptr @__gxx_personality_v0 {
  %4 = alloca %"class.std::vector.36", align 8
  %5 = alloca %"class.std::vector.41", align 8
  %6 = alloca %class.Scenario, align 8
  %7 = alloca %"class.SectionBasedConfiguration::KeyValue1", align 8
  tail call void @_ZN25SectionBasedConfiguration5clearEv(ptr noundef nonnull align 8 dereferenceable(416) %0)
  %8 = icmp eq ptr %1, null
  %9 = select i1 %8, ptr @.str.14, ptr %1
  %10 = getelementptr inbounds %class.SectionBasedConfiguration, ptr %0, i64 0, i32 3
  %11 = getelementptr inbounds %class.SectionBasedConfiguration, ptr %0, i64 0, i32 3, i32 1
  %12 = load i64, ptr %11, align 8, !tbaa !13
  %13 = tail call i64 @strlen(ptr noundef nonnull dereferenceable(1) %9) #28
  %14 = tail call noundef nonnull align 8 dereferenceable(32) ptr @_ZNSt7__cxx1112basic_stringIcSt11char_traitsIcESaIcEE10_M_replaceEmmPKcm(ptr noundef nonnull align 8 dereferenceable(32) %10, i64 noundef 0, i64 noundef %12, ptr noundef nonnull %9, i64 noundef %13)
  %15 = getelementptr inbounds %class.SectionBasedConfiguration, ptr %0, i64 0, i32 4
  store i32 %2, ptr %15, align 8, !tbaa !62
  %16 = tail call noundef i32 @_ZNK25SectionBasedConfiguration17resolveConfigNameEPKc(ptr noundef nonnull align 8 dereferenceable(416) %0, ptr noundef %1)
  %17 = icmp eq i32 %16, -1
  br i1 %17, label %18, label %28

18:                                               ; preds = %3
  %19 = tail call i32 @strcmp(ptr noundef nonnull dereferenceable(1) %1, ptr noundef nonnull dereferenceable(8) @.str.17) #29
  %20 = icmp eq i32 %19, 0
  br i1 %20, label %265, label %21

21:                                               ; preds = %18
  %22 = tail call ptr @__cxa_allocate_exception(i64 128) #28
  invoke void (ptr, ptr, ...) @_ZN13cRuntimeErrorC1EPKcz(ptr noundef nonnull align 8 dereferenceable(124) %22, ptr noundef nonnull @.str.19, ptr noundef %1)
          to label %23 unwind label %24

23:                                               ; preds = %21
  tail call void @__cxa_throw(ptr nonnull %22, ptr nonnull @_ZTI13cRuntimeError, ptr nonnull @_ZN10cExceptionD2Ev) #30
  unreachable

24:                                               ; preds = %21
  %25 = landingpad { ptr, i32 }
          cleanup
  %26 = extractvalue { ptr, i32 } %25, 0
  %27 = extractvalue { ptr, i32 } %25, 1
  tail call void @__cxa_free_exception(ptr %22) #28
  br label %276

28:                                               ; preds = %3
  call void @llvm.lifetime.start.p0(i64 24, ptr nonnull %4) #28
  %29 = getelementptr inbounds %class.SectionBasedConfiguration, ptr %0, i64 0, i32 1
  %30 = load ptr, ptr %29, align 8, !tbaa !25, !noalias !105
  %31 = load ptr, ptr %30, align 8, !tbaa !9, !noalias !105
  %32 = getelementptr inbounds ptr, ptr %31, i64 6
  %33 = load ptr, ptr %32, align 8, !noalias !105
  %34 = tail call noundef ptr %33(ptr noundef nonnull align 8 dereferenceable(8) %30, i32 noundef %16), !noalias !105
  call void @_ZNK25SectionBasedConfiguration19resolveSectionChainEPKc(ptr nonnull sret(%"class.std::vector.36") align 8 %4, ptr noundef nonnull align 8 dereferenceable(416) %0, ptr noundef %34)
  call void @llvm.lifetime.start.p0(i64 24, ptr nonnull %5) #28
  invoke void @_ZNK25SectionBasedConfiguration25collectIterationVariablesERKSt6vectorIiSaIiEE(ptr nonnull sret(%"class.std::vector.41") align 8 %5, ptr noundef nonnull align 8 dereferenceable(416) %0, ptr noundef nonnull align 8 dereferenceable(24) %4)
          to label %35 unwind label %53

35:                                               ; preds = %28
  %36 = load ptr, ptr @CFGID_CONSTRAINT, align 8, !tbaa !5
  %37 = load ptr, ptr %36, align 8, !tbaa !9
  %38 = getelementptr inbounds ptr, ptr %37, i64 6
  %39 = load ptr, ptr %38, align 8
  %40 = invoke noundef ptr %39(ptr noundef nonnull align 8 dereferenceable(20) %36)
          to label %41 unwind label %57

41:                                               ; preds = %35
  %42 = invoke noundef ptr @_ZNK25SectionBasedConfiguration16internalGetValueERKSt6vectorIiSaIiEEPKcS6_(ptr noundef nonnull align 8 dereferenceable(416) %0, ptr noundef nonnull align 8 dereferenceable(24) %4, ptr noundef %40, ptr noundef null)
          to label %43 unwind label %57

43:                                               ; preds = %41
  call void @llvm.lifetime.start.p0(i64 88, ptr nonnull %6) #28
  invoke void @_ZN8ScenarioC1ERKSt6vectorIN25SectionBasedConfiguration17IterationVariableESaIS2_EEPKc(ptr noundef nonnull align 8 dereferenceable(88) %6, ptr noundef nonnull align 8 dereferenceable(24) %5, ptr noundef %42)
          to label %44 unwind label %61

44:                                               ; preds = %43
  %45 = invoke noundef i32 @_ZN8Scenario10getNumRunsEv(ptr noundef nonnull align 8 dereferenceable(88) %6)
          to label %46 unwind label %63

46:                                               ; preds = %44
  %47 = icmp sgt i32 %2, -1
  %48 = icmp sgt i32 %45, %2
  %49 = and i1 %47, %48
  br i1 %49, label %67, label %50

50:                                               ; preds = %46
  %51 = call ptr @__cxa_allocate_exception(i64 128) #28
  invoke void (ptr, ptr, ...) @_ZN13cRuntimeErrorC1EPKcz(ptr noundef nonnull align 8 dereferenceable(124) %51, ptr noundef nonnull @.str.21, i32 noundef %2, ptr noundef %1, i32 noundef %45)
          to label %52 unwind label %65

52:                                               ; preds = %50
  invoke void @__cxa_throw(ptr nonnull %51, ptr nonnull @_ZTI13cRuntimeError, ptr nonnull @_ZN10cExceptionD2Ev) #30
          to label %284 unwind label %63

53:                                               ; preds = %28
  %54 = landingpad { ptr, i32 }
          cleanup
  %55 = extractvalue { ptr, i32 } %54, 0
  %56 = extractvalue { ptr, i32 } %54, 1
  br label %269

57:                                               ; preds = %41, %35
  %58 = landingpad { ptr, i32 }
          cleanup
  %59 = extractvalue { ptr, i32 } %58, 0
  %60 = extractvalue { ptr, i32 } %58, 1
  br label %266

61:                                               ; preds = %79, %43
  %62 = landingpad { ptr, i32 }
          cleanup
          catch ptr @_ZTISt9exception
  br label %93

63:                                               ; preds = %78, %73, %68, %67, %52, %44
  %64 = landingpad { ptr, i32 }
          cleanup
          catch ptr @_ZTISt9exception
  br label %91

65:                                               ; preds = %50
  %66 = landingpad { ptr, i32 }
          cleanup
          catch ptr @_ZTISt9exception
  call void @__cxa_free_exception(ptr %51) #28
  br label %91

67:                                               ; preds = %46
  invoke void @_ZN8Scenario7gotoRunEi(ptr noundef nonnull align 8 dereferenceable(88) %6, i32 noundef %2)
          to label %68 unwind label %63

68:                                               ; preds = %67
  %69 = load ptr, ptr %0, align 8, !tbaa !9
  %70 = getelementptr inbounds ptr, ptr %69, i64 49
  %71 = load ptr, ptr %70, align 8
  %72 = invoke noundef ptr %71(ptr noundef nonnull align 8 dereferenceable(416) %0)
          to label %73 unwind label %63

73:                                               ; preds = %68
  %74 = load ptr, ptr %0, align 8, !tbaa !9
  %75 = getelementptr inbounds ptr, ptr %74, i64 50
  %76 = load ptr, ptr %75, align 8
  %77 = invoke noundef i32 %76(ptr noundef nonnull align 8 dereferenceable(416) %0)
          to label %78 unwind label %63

78:                                               ; preds = %73
  invoke void @_ZN25SectionBasedConfiguration14setupVariablesEPKciP8ScenarioRKSt6vectorIiSaIiEE(ptr noundef nonnull align 8 dereferenceable(416) %0, ptr noundef %72, i32 noundef %77, ptr noundef nonnull %6, ptr noundef nonnull align 8 dereferenceable(24) %4)
          to label %79 unwind label %63

79:                                               ; preds = %78
  invoke void @_ZN8ScenarioD1Ev(ptr noundef nonnull align 8 dereferenceable(88) %6)
          to label %80 unwind label %61

80:                                               ; preds = %79
  call void @llvm.lifetime.end.p0(i64 88, ptr nonnull %6) #28
  %81 = getelementptr inbounds %class.SectionBasedConfiguration, ptr %0, i64 0, i32 2
  %82 = getelementptr inbounds %class.SectionBasedConfiguration, ptr %0, i64 0, i32 2, i32 0, i32 0, i32 0, i32 1
  %83 = load ptr, ptr %82, align 8, !tbaa !67
  %84 = load ptr, ptr %81, align 8, !tbaa !66
  %85 = ptrtoint ptr %83 to i64
  %86 = ptrtoint ptr %84 to i64
  %87 = sub i64 %85, %86
  %88 = sdiv exact i64 %87, 80
  %89 = trunc i64 %88 to i32
  %90 = icmp sgt i32 %89, 0
  br i1 %90, label %137, label %116

91:                                               ; preds = %65, %63
  %92 = phi { ptr, i32 } [ %64, %63 ], [ %66, %65 ]
  invoke void @_ZN8ScenarioD1Ev(ptr noundef nonnull align 8 dereferenceable(88) %6)
          to label %93 unwind label %281

93:                                               ; preds = %91, %61
  %94 = phi { ptr, i32 } [ %92, %91 ], [ %62, %61 ]
  %95 = extractvalue { ptr, i32 } %94, 0
  %96 = extractvalue { ptr, i32 } %94, 1
  call void @llvm.lifetime.end.p0(i64 88, ptr nonnull %6) #28
  %97 = call i32 @llvm.eh.typeid.for(ptr nonnull @_ZTISt9exception) #28
  %98 = icmp eq i32 %96, %97
  br i1 %98, label %99, label %266

99:                                               ; preds = %93
  %100 = call ptr @__cxa_begin_catch(ptr %95) #28
  %101 = call ptr @__cxa_allocate_exception(i64 128) #28
  %102 = load ptr, ptr %100, align 8, !tbaa !9
  %103 = getelementptr inbounds ptr, ptr %102, i64 2
  %104 = load ptr, ptr %103, align 8
  %105 = call noundef ptr %104(ptr noundef nonnull align 8 dereferenceable(8) %100) #28
  invoke void (ptr, ptr, ...) @_ZN13cRuntimeErrorC1EPKcz(ptr noundef nonnull align 8 dereferenceable(124) %101, ptr noundef nonnull @.str.22, ptr noundef %105)
          to label %106 unwind label %107

106:                                              ; preds = %99
  invoke void @__cxa_throw(ptr nonnull %101, ptr nonnull @_ZTI13cRuntimeError, ptr nonnull @_ZN10cExceptionD2Ev) #30
          to label %284 unwind label %109

107:                                              ; preds = %99
  %108 = landingpad { ptr, i32 }
          cleanup
  call void @__cxa_free_exception(ptr %101) #28
  br label %111

109:                                              ; preds = %106
  %110 = landingpad { ptr, i32 }
          cleanup
  br label %111

111:                                              ; preds = %109, %107
  %112 = phi { ptr, i32 } [ %110, %109 ], [ %108, %107 ]
  invoke void @__cxa_end_catch()
          to label %113 unwind label %281

113:                                              ; preds = %111
  %114 = extractvalue { ptr, i32 } %112, 0
  %115 = extractvalue { ptr, i32 } %112, 1
  br label %266

116:                                              ; preds = %141, %80
  %117 = getelementptr inbounds %"struct.std::_Vector_base<int, std::allocator<int> >::_Vector_impl_data", ptr %4, i64 0, i32 1
  %118 = load ptr, ptr %117, align 8, !tbaa !103
  %119 = load ptr, ptr %4, align 8, !tbaa !95
  %120 = ptrtoint ptr %118 to i64
  %121 = ptrtoint ptr %119 to i64
  %122 = sub i64 %120, %121
  %123 = lshr exact i64 %122, 2
  %124 = trunc i64 %123 to i32
  %125 = icmp sgt i32 %124, 0
  br i1 %125, label %126, label %152

126:                                              ; preds = %116
  %127 = getelementptr inbounds %"class.SectionBasedConfiguration::KeyValue1", ptr %7, i64 0, i32 3
  %128 = getelementptr inbounds %"class.SectionBasedConfiguration::KeyValue1", ptr %7, i64 0, i32 3, i32 2
  %129 = getelementptr inbounds %"class.SectionBasedConfiguration::KeyValue1", ptr %7, i64 0, i32 3, i32 1
  %130 = getelementptr inbounds %"class.SectionBasedConfiguration::KeyValue1", ptr %7, i64 0, i32 2
  %131 = getelementptr inbounds %"class.SectionBasedConfiguration::KeyValue1", ptr %7, i64 0, i32 2, i32 2
  %132 = getelementptr inbounds %"class.SectionBasedConfiguration::KeyValue1", ptr %7, i64 0, i32 2, i32 1
  br label %206

133:                                              ; preds = %137
  %134 = landingpad { ptr, i32 }
          cleanup
  %135 = extractvalue { ptr, i32 } %134, 0
  %136 = extractvalue { ptr, i32 } %134, 1
  br label %266

137:                                              ; preds = %80, %141
  %138 = phi i64 [ %142, %141 ], [ 0, %80 ]
  %139 = phi ptr [ %144, %141 ], [ %84, %80 ]
  %140 = getelementptr inbounds %"class.SectionBasedConfiguration::KeyValue1", ptr %139, i64 %138
  invoke void @_ZN25SectionBasedConfiguration8addEntryERKNS_9KeyValue1E(ptr noundef nonnull align 8 dereferenceable(416) %0, ptr noundef nonnull align 8 dereferenceable(80) %140)
          to label %141 unwind label %133

141:                                              ; preds = %137
  %142 = add nuw nsw i64 %138, 1
  %143 = load ptr, ptr %82, align 8, !tbaa !67
  %144 = load ptr, ptr %81, align 8, !tbaa !66
  %145 = ptrtoint ptr %143 to i64
  %146 = ptrtoint ptr %144 to i64
  %147 = sub i64 %145, %146
  %148 = sdiv exact i64 %147, 80
  %149 = shl i64 %148, 32
  %150 = ashr exact i64 %149, 32
  %151 = icmp slt i64 %142, %150
  br i1 %151, label %137, label %116

152:                                              ; preds = %220, %116
  %153 = load ptr, ptr %5, align 8, !tbaa !108
  %154 = getelementptr inbounds %"struct.std::_Vector_base<SectionBasedConfiguration::IterationVariable, std::allocator<SectionBasedConfiguration::IterationVariable> >::_Vector_impl_data", ptr %5, i64 0, i32 1
  %155 = load ptr, ptr %154, align 8, !tbaa !110
  %156 = icmp eq ptr %153, %155
  br i1 %156, label %202, label %157

157:                                              ; preds = %152, %197
  %158 = phi ptr [ %198, %197 ], [ %153, %152 ]
  %159 = getelementptr inbounds %"struct.SectionBasedConfiguration::IterationVariable", ptr %158, i64 0, i32 3
  %160 = load ptr, ptr %159, align 8, !tbaa !63
  %161 = getelementptr inbounds %"struct.SectionBasedConfiguration::IterationVariable", ptr %158, i64 0, i32 3, i32 2
  %162 = icmp eq ptr %160, %161
  br i1 %162, label %163, label %167

163:                                              ; preds = %157
  %164 = getelementptr inbounds %"struct.SectionBasedConfiguration::IterationVariable", ptr %158, i64 0, i32 3, i32 1
  %165 = load i64, ptr %164, align 8, !tbaa !13
  %166 = icmp ult i64 %165, 16
  call void @llvm.assume(i1 %166)
  br label %168

167:                                              ; preds = %157
  call void @_ZdlPv(ptr noundef %160) #26
  br label %168

168:                                              ; preds = %167, %163
  %169 = getelementptr inbounds %"struct.SectionBasedConfiguration::IterationVariable", ptr %158, i64 0, i32 2
  %170 = load ptr, ptr %169, align 8, !tbaa !63
  %171 = getelementptr inbounds %"struct.SectionBasedConfiguration::IterationVariable", ptr %158, i64 0, i32 2, i32 2
  %172 = icmp eq ptr %170, %171
  br i1 %172, label %173, label %177

173:                                              ; preds = %168
  %174 = getelementptr inbounds %"struct.SectionBasedConfiguration::IterationVariable", ptr %158, i64 0, i32 2, i32 1
  %175 = load i64, ptr %174, align 8, !tbaa !13
  %176 = icmp ult i64 %175, 16
  call void @llvm.assume(i1 %176)
  br label %178

177:                                              ; preds = %168
  call void @_ZdlPv(ptr noundef %170) #26
  br label %178

178:                                              ; preds = %177, %173
  %179 = getelementptr inbounds %"struct.SectionBasedConfiguration::IterationVariable", ptr %158, i64 0, i32 1
  %180 = load ptr, ptr %179, align 8, !tbaa !63
  %181 = getelementptr inbounds %"struct.SectionBasedConfiguration::IterationVariable", ptr %158, i64 0, i32 1, i32 2
  %182 = icmp eq ptr %180, %181
  br i1 %182, label %183, label %187

183:                                              ; preds = %178
  %184 = getelementptr inbounds %"struct.SectionBasedConfiguration::IterationVariable", ptr %158, i64 0, i32 1, i32 1
  %185 = load i64, ptr %184, align 8, !tbaa !13
  %186 = icmp ult i64 %185, 16
  call void @llvm.assume(i1 %186)
  br label %188

187:                                              ; preds = %178
  call void @_ZdlPv(ptr noundef %180) #26
  br label %188

188:                                              ; preds = %187, %183
  %189 = load ptr, ptr %158, align 8, !tbaa !63
  %190 = getelementptr inbounds %"class.std::__cxx11::basic_string", ptr %158, i64 0, i32 2
  %191 = icmp eq ptr %189, %190
  br i1 %191, label %192, label %196

192:                                              ; preds = %188
  %193 = getelementptr inbounds %"class.std::__cxx11::basic_string", ptr %158, i64 0, i32 1
  %194 = load i64, ptr %193, align 8, !tbaa !13
  %195 = icmp ult i64 %194, 16
  call void @llvm.assume(i1 %195)
  br label %197

196:                                              ; preds = %188
  call void @_ZdlPv(ptr noundef %189) #26
  br label %197

197:                                              ; preds = %196, %192
  %198 = getelementptr inbounds %"struct.SectionBasedConfiguration::IterationVariable", ptr %158, i64 1
  %199 = icmp eq ptr %198, %155
  br i1 %199, label %200, label %157

200:                                              ; preds = %197
  %201 = load ptr, ptr %5, align 8, !tbaa !108
  br label %202

202:                                              ; preds = %200, %152
  %203 = phi ptr [ %201, %200 ], [ %153, %152 ]
  %204 = icmp eq ptr %203, null
  br i1 %204, label %260, label %205

205:                                              ; preds = %202
  call void @_ZdlPv(ptr noundef nonnull %203) #26
  br label %260

206:                                              ; preds = %126, %220
  %207 = phi i64 [ 0, %126 ], [ %221, %220 ]
  %208 = phi ptr [ %119, %126 ], [ %223, %220 ]
  %209 = getelementptr inbounds i32, ptr %208, i64 %207
  %210 = load i32, ptr %209, align 4, !tbaa !104
  br label %211

211:                                              ; preds = %248, %206
  %212 = phi i32 [ 0, %206 ], [ %249, %248 ]
  %213 = load ptr, ptr %29, align 8, !tbaa !25
  %214 = load ptr, ptr %213, align 8, !tbaa !9
  %215 = getelementptr inbounds ptr, ptr %214, i64 7
  %216 = load ptr, ptr %215, align 8
  %217 = invoke noundef i32 %216(ptr noundef nonnull align 8 dereferenceable(8) %213, i32 noundef %210)
          to label %218 unwind label %230

218:                                              ; preds = %211
  %219 = icmp slt i32 %212, %217
  br i1 %219, label %232, label %220

220:                                              ; preds = %218
  %221 = add nuw nsw i64 %207, 1
  %222 = load ptr, ptr %117, align 8, !tbaa !103
  %223 = load ptr, ptr %4, align 8, !tbaa !95
  %224 = ptrtoint ptr %222 to i64
  %225 = ptrtoint ptr %223 to i64
  %226 = sub i64 %224, %225
  %227 = shl i64 %226, 30
  %228 = ashr i64 %227, 32
  %229 = icmp slt i64 %221, %228
  br i1 %229, label %206, label %152

230:                                              ; preds = %211
  %231 = landingpad { ptr, i32 }
          cleanup
  br label %256

232:                                              ; preds = %218
  call void @llvm.lifetime.start.p0(i64 80, ptr nonnull %7) #28
  invoke void @_ZN25SectionBasedConfiguration7convertEii(ptr nonnull sret(%"class.SectionBasedConfiguration::KeyValue1") align 8 %7, ptr noundef nonnull align 8 dereferenceable(416) %0, i32 noundef %210, i32 noundef %212)
          to label %233 unwind label %250

233:                                              ; preds = %232
  invoke void @_ZN25SectionBasedConfiguration8addEntryERKNS_9KeyValue1E(ptr noundef nonnull align 8 dereferenceable(416) %0, ptr noundef nonnull align 8 dereferenceable(80) %7)
          to label %234 unwind label %252

234:                                              ; preds = %233
  store ptr getelementptr inbounds ({ [7 x ptr] }, ptr @_ZTVN25SectionBasedConfiguration9KeyValue1E, i64 0, inrange i32 0, i64 2), ptr %7, align 8, !tbaa !9
  %235 = load ptr, ptr %127, align 8, !tbaa !63
  %236 = icmp eq ptr %235, %128
  br i1 %236, label %237, label %240

237:                                              ; preds = %234
  %238 = load i64, ptr %129, align 8, !tbaa !13
  %239 = icmp ult i64 %238, 16
  call void @llvm.assume(i1 %239)
  br label %241

240:                                              ; preds = %234
  call void @_ZdlPv(ptr noundef %235) #26
  br label %241

241:                                              ; preds = %240, %237
  %242 = load ptr, ptr %130, align 8, !tbaa !63
  %243 = icmp eq ptr %242, %131
  br i1 %243, label %244, label %247

244:                                              ; preds = %241
  %245 = load i64, ptr %132, align 8, !tbaa !13
  %246 = icmp ult i64 %245, 16
  call void @llvm.assume(i1 %246)
  br label %248

247:                                              ; preds = %241
  call void @_ZdlPv(ptr noundef %242) #26
  br label %248

248:                                              ; preds = %247, %244
  call void @llvm.lifetime.end.p0(i64 80, ptr nonnull %7) #28
  %249 = add nuw nsw i32 %212, 1
  br label %211

250:                                              ; preds = %232
  %251 = landingpad { ptr, i32 }
          cleanup
  br label %254

252:                                              ; preds = %233
  %253 = landingpad { ptr, i32 }
          cleanup
  invoke void @_ZN25SectionBasedConfiguration9KeyValue1D2Ev(ptr noundef nonnull align 8 dereferenceable(80) %7)
          to label %254 unwind label %281

254:                                              ; preds = %252, %250
  %255 = phi { ptr, i32 } [ %251, %250 ], [ %253, %252 ]
  call void @llvm.lifetime.end.p0(i64 80, ptr nonnull %7) #28
  br label %256

256:                                              ; preds = %254, %230
  %257 = phi { ptr, i32 } [ %255, %254 ], [ %231, %230 ]
  %258 = extractvalue { ptr, i32 } %257, 0
  %259 = extractvalue { ptr, i32 } %257, 1
  br label %266

260:                                              ; preds = %205, %202
  call void @llvm.lifetime.end.p0(i64 24, ptr nonnull %5) #28
  %261 = load ptr, ptr %4, align 8, !tbaa !95
  %262 = icmp eq ptr %261, null
  br i1 %262, label %264, label %263

263:                                              ; preds = %260
  call void @_ZdlPv(ptr noundef nonnull %261) #26
  br label %264

264:                                              ; preds = %260, %263
  call void @llvm.lifetime.end.p0(i64 24, ptr nonnull %4) #28
  br label %265

265:                                              ; preds = %18, %264
  ret void

266:                                              ; preds = %256, %133, %113, %93, %57
  %267 = phi i32 [ %115, %113 ], [ %96, %93 ], [ %136, %133 ], [ %259, %256 ], [ %60, %57 ]
  %268 = phi ptr [ %114, %113 ], [ %95, %93 ], [ %135, %133 ], [ %258, %256 ], [ %59, %57 ]
  invoke void @_ZNSt6vectorIN25SectionBasedConfiguration17IterationVariableESaIS1_EED2Ev(ptr noundef nonnull align 8 dereferenceable(24) %5)
          to label %269 unwind label %281

269:                                              ; preds = %266, %53
  %270 = phi i32 [ %267, %266 ], [ %56, %53 ]
  %271 = phi ptr [ %268, %266 ], [ %55, %53 ]
  call void @llvm.lifetime.end.p0(i64 24, ptr nonnull %5) #28
  %272 = load ptr, ptr %4, align 8, !tbaa !95
  %273 = icmp eq ptr %272, null
  br i1 %273, label %275, label %274

274:                                              ; preds = %269
  call void @_ZdlPv(ptr noundef nonnull %272) #26
  br label %275

275:                                              ; preds = %274, %269
  call void @llvm.lifetime.end.p0(i64 24, ptr nonnull %4) #28
  br label %276

276:                                              ; preds = %275, %24
  %277 = phi i32 [ %27, %24 ], [ %270, %275 ]
  %278 = phi ptr [ %26, %24 ], [ %271, %275 ]
  %279 = insertvalue { ptr, i32 } poison, ptr %278, 0
  %280 = insertvalue { ptr, i32 } %279, i32 %277, 1
  resume { ptr, i32 } %280

281:                                              ; preds = %266, %252, %111, %91
  %282 = landingpad { ptr, i32 }
          catch ptr null
  %283 = extractvalue { ptr, i32 } %282, 0
  call void @__clang_call_terminate(ptr %283) #27
  unreachable

284:                                              ; preds = %106, %52
  unreachable
}

; Function Attrs: sspstrong uwtable
define dso_local void @_ZNK25SectionBasedConfiguration25collectIterationVariablesERKSt6vectorIiSaIiEE(ptr noalias sret(%"class.std::vector.41") align 8 %0, ptr nocapture noundef nonnull readonly align 8 dereferenceable(416) %1, ptr nocapture noundef nonnull readonly align 8 dereferenceable(24) %2) local_unnamed_addr #0 align 2 personality ptr @__gxx_personality_v0 {
  %4 = alloca ptr, align 8
  %5 = alloca %"struct.SectionBasedConfiguration::IterationVariable", align 8
  %6 = alloca %"class.std::__cxx11::basic_string", align 8
  %7 = alloca %"class.std::__cxx11::basic_string", align 8
  %8 = alloca %"struct.SectionBasedConfiguration::IterationVariable", align 8
  %9 = alloca %"class.std::__cxx11::basic_string", align 8
  tail call void @llvm.memset.p0.i64(ptr noundef nonnull align 8 dereferenceable(24) %0, i8 0, i64 24, i1 false)
  %10 = getelementptr inbounds %"struct.std::_Vector_base<int, std::allocator<int> >::_Vector_impl_data", ptr %2, i64 0, i32 1
  %11 = load ptr, ptr %10, align 8, !tbaa !103
  %12 = load ptr, ptr %2, align 8, !tbaa !95
  %13 = ptrtoint ptr %11 to i64
  %14 = ptrtoint ptr %12 to i64
  %15 = sub i64 %13, %14
  %16 = lshr exact i64 %15, 2
  %17 = trunc i64 %16 to i32
  %18 = icmp sgt i32 %17, 0
  br i1 %18, label %19, label %38

19:                                               ; preds = %3
  %20 = getelementptr inbounds %class.SectionBasedConfiguration, ptr %1, i64 0, i32 1
  %21 = getelementptr inbounds %"class.std::__cxx11::basic_string", ptr %5, i64 0, i32 2
  %22 = getelementptr inbounds %"class.std::__cxx11::basic_string", ptr %5, i64 0, i32 1
  %23 = getelementptr inbounds %"struct.SectionBasedConfiguration::IterationVariable", ptr %5, i64 0, i32 1
  %24 = getelementptr inbounds %"struct.SectionBasedConfiguration::IterationVariable", ptr %5, i64 0, i32 1, i32 2
  %25 = getelementptr inbounds %"struct.SectionBasedConfiguration::IterationVariable", ptr %5, i64 0, i32 1, i32 1
  %26 = getelementptr inbounds %"struct.SectionBasedConfiguration::IterationVariable", ptr %5, i64 0, i32 2
  %27 = getelementptr inbounds %"struct.SectionBasedConfiguration::IterationVariable", ptr %5, i64 0, i32 2, i32 2
  %28 = getelementptr inbounds %"struct.SectionBasedConfiguration::IterationVariable", ptr %5, i64 0, i32 2, i32 1
  %29 = getelementptr inbounds %"struct.SectionBasedConfiguration::IterationVariable", ptr %5, i64 0, i32 3
  %30 = getelementptr inbounds %"struct.SectionBasedConfiguration::IterationVariable", ptr %5, i64 0, i32 3, i32 2
  %31 = getelementptr inbounds %"struct.SectionBasedConfiguration::IterationVariable", ptr %5, i64 0, i32 3, i32 1
  %32 = getelementptr inbounds %"struct.std::_Vector_base<SectionBasedConfiguration::IterationVariable, std::allocator<SectionBasedConfiguration::IterationVariable> >::_Vector_impl_data", ptr %0, i64 0, i32 1
  %33 = getelementptr inbounds %"class.std::__cxx11::basic_string", ptr %6, i64 0, i32 2
  %34 = getelementptr inbounds %"class.std::__cxx11::basic_string", ptr %6, i64 0, i32 1
  %35 = getelementptr inbounds %"class.std::__cxx11::basic_string", ptr %7, i64 0, i32 2
  %36 = getelementptr inbounds %"class.std::__cxx11::basic_string", ptr %7, i64 0, i32 1
  %37 = getelementptr inbounds %"struct.std::_Vector_base<SectionBasedConfiguration::IterationVariable, std::allocator<SectionBasedConfiguration::IterationVariable> >::_Vector_impl_data", ptr %0, i64 0, i32 2
  br label %44

38:                                               ; preds = %60, %3
  %39 = load ptr, ptr @CFGID_REPEAT, align 8, !tbaa !5
  %40 = load ptr, ptr %39, align 8, !tbaa !9
  %41 = getelementptr inbounds ptr, ptr %40, i64 6
  %42 = load ptr, ptr %41, align 8
  %43 = invoke noundef ptr %42(ptr noundef nonnull align 8 dereferenceable(20) %39)
          to label %338 unwind label %408

44:                                               ; preds = %19, %60
  %45 = phi i64 [ 0, %19 ], [ %61, %60 ]
  %46 = phi ptr [ %12, %19 ], [ %63, %60 ]
  %47 = phi i32 [ 0, %19 ], [ %52, %60 ]
  %48 = getelementptr inbounds i32, ptr %46, i64 %45
  %49 = load i32, ptr %48, align 4, !tbaa !104
  br label %50

50:                                               ; preds = %332, %44
  %51 = phi i32 [ 0, %44 ], [ %334, %332 ]
  %52 = phi i32 [ %47, %44 ], [ %333, %332 ]
  %53 = load ptr, ptr %20, align 8, !tbaa !25
  %54 = load ptr, ptr %53, align 8, !tbaa !9
  %55 = getelementptr inbounds ptr, ptr %54, i64 7
  %56 = load ptr, ptr %55, align 8
  %57 = invoke noundef i32 %56(ptr noundef nonnull align 8 dereferenceable(8) %53, i32 noundef %49)
          to label %58 unwind label %70

58:                                               ; preds = %50
  %59 = icmp slt i32 %51, %57
  br i1 %59, label %74, label %60

60:                                               ; preds = %58
  %61 = add nuw nsw i64 %45, 1
  %62 = load ptr, ptr %10, align 8, !tbaa !103
  %63 = load ptr, ptr %2, align 8, !tbaa !95
  %64 = ptrtoint ptr %62 to i64
  %65 = ptrtoint ptr %63 to i64
  %66 = sub i64 %64, %65
  %67 = shl i64 %66, 30
  %68 = ashr i64 %67, 32
  %69 = icmp slt i64 %61, %68
  br i1 %69, label %44, label %38

70:                                               ; preds = %50
  %71 = landingpad { ptr, i32 }
          cleanup
  %72 = extractvalue { ptr, i32 } %71, 0
  %73 = extractvalue { ptr, i32 } %71, 1
  br label %436

74:                                               ; preds = %58
  %75 = load ptr, ptr %20, align 8, !tbaa !25
  %76 = load ptr, ptr %75, align 8, !tbaa !9
  %77 = getelementptr inbounds ptr, ptr %76, i64 8
  %78 = load ptr, ptr %77, align 8
  %79 = invoke noundef nonnull align 8 dereferenceable(8) ptr %78(ptr noundef nonnull align 8 dereferenceable(8) %75, i32 noundef %49, i32 noundef %51)
          to label %80 unwind label %92

80:                                               ; preds = %74
  call void @llvm.lifetime.start.p0(i64 8, ptr nonnull %4) #28
  %81 = load ptr, ptr %79, align 8, !tbaa !9
  %82 = getelementptr inbounds ptr, ptr %81, i64 3
  %83 = load ptr, ptr %82, align 8
  %84 = invoke noundef ptr %83(ptr noundef nonnull align 8 dereferenceable(8) %79)
          to label %85 unwind label %96

85:                                               ; preds = %80
  %86 = call noundef ptr @strstr(ptr noundef nonnull dereferenceable(1) %84, ptr noundef nonnull dereferenceable(1) @.str.49) #29
  store ptr %86, ptr %4, align 8, !tbaa !5
  %87 = icmp eq ptr %86, null
  br i1 %87, label %332, label %88

88:                                               ; preds = %85, %296
  %89 = phi ptr [ %299, %296 ], [ %86, %85 ]
  %90 = phi i32 [ %268, %296 ], [ %52, %85 ]
  %91 = phi i32 [ %297, %296 ], [ 0, %85 ]
  call void @llvm.lifetime.start.p0(i64 128, ptr nonnull %5) #28
  store ptr %21, ptr %5, align 8, !tbaa !11
  store i64 0, ptr %22, align 8, !tbaa !13
  store i8 0, ptr %21, align 8, !tbaa !16
  store ptr %24, ptr %23, align 8, !tbaa !11
  store i64 0, ptr %25, align 8, !tbaa !13
  store i8 0, ptr %24, align 8, !tbaa !16
  store ptr %27, ptr %26, align 8, !tbaa !11
  store i64 0, ptr %28, align 8, !tbaa !13
  store i8 0, ptr %27, align 8, !tbaa !16
  store ptr %30, ptr %29, align 8, !tbaa !11
  store i64 0, ptr %31, align 8, !tbaa !13
  store i8 0, ptr %30, align 8, !tbaa !16
  invoke void @_ZN25SectionBasedConfiguration13parseVariableEPKcRNSt7__cxx1112basic_stringIcSt11char_traitsIcESaIcEEES8_S8_RS1_(ptr noundef nonnull %89, ptr noundef nonnull align 8 dereferenceable(32) %23, ptr noundef nonnull align 8 dereferenceable(32) %26, ptr noundef nonnull align 8 dereferenceable(32) %29, ptr noundef nonnull align 8 dereferenceable(8) %4)
          to label %133 unwind label %100

92:                                               ; preds = %74
  %93 = landingpad { ptr, i32 }
          cleanup
  %94 = extractvalue { ptr, i32 } %93, 0
  %95 = extractvalue { ptr, i32 } %93, 1
  br label %436

96:                                               ; preds = %80
  %97 = landingpad { ptr, i32 }
          cleanup
  %98 = extractvalue { ptr, i32 } %97, 0
  %99 = extractvalue { ptr, i32 } %97, 1
  br label %335

100:                                              ; preds = %88
  %101 = landingpad { ptr, i32 }
          cleanup
          catch ptr @_ZTISt9exception
  %102 = extractvalue { ptr, i32 } %101, 0
  %103 = extractvalue { ptr, i32 } %101, 1
  %104 = call i32 @llvm.eh.typeid.for(ptr nonnull @_ZTISt9exception) #28
  %105 = icmp eq i32 %103, %104
  br i1 %105, label %106, label %301

106:                                              ; preds = %100
  %107 = call ptr @__cxa_begin_catch(ptr %102) #28
  %108 = call ptr @__cxa_allocate_exception(i64 128) #28
  %109 = load ptr, ptr %107, align 8, !tbaa !9
  %110 = getelementptr inbounds ptr, ptr %109, i64 2
  %111 = load ptr, ptr %110, align 8
  %112 = call noundef ptr %111(ptr noundef nonnull align 8 dereferenceable(8) %107) #28
  %113 = load ptr, ptr %79, align 8, !tbaa !9
  %114 = getelementptr inbounds ptr, ptr %113, i64 2
  %115 = load ptr, ptr %114, align 8
  %116 = invoke noundef ptr %115(ptr noundef nonnull align 8 dereferenceable(8) %79)
          to label %117 unwind label %124

117:                                              ; preds = %106
  %118 = load ptr, ptr %79, align 8, !tbaa !9
  %119 = getelementptr inbounds ptr, ptr %118, i64 3
  %120 = load ptr, ptr %119, align 8
  %121 = invoke noundef ptr %120(ptr noundef nonnull align 8 dereferenceable(8) %79)
          to label %122 unwind label %124

122:                                              ; preds = %117
  invoke void (ptr, ptr, ...) @_ZN13cRuntimeErrorC1EPKcz(ptr noundef nonnull align 8 dereferenceable(124) %108, ptr noundef nonnull @.str.52, ptr noundef %112, ptr noundef %116, ptr noundef %121)
          to label %123 unwind label %124

123:                                              ; preds = %122
  invoke void @__cxa_throw(ptr nonnull %108, ptr nonnull @_ZTI13cRuntimeError, ptr nonnull @_ZN10cExceptionD2Ev) #30
          to label %498 unwind label %126

124:                                              ; preds = %122, %117, %106
  %125 = landingpad { ptr, i32 }
          cleanup
  call void @__cxa_free_exception(ptr %108) #28
  br label %128

126:                                              ; preds = %123
  %127 = landingpad { ptr, i32 }
          cleanup
  br label %128

128:                                              ; preds = %126, %124
  %129 = phi { ptr, i32 } [ %127, %126 ], [ %125, %124 ]
  invoke void @__cxa_end_catch()
          to label %130 unwind label %495

130:                                              ; preds = %128
  %131 = extractvalue { ptr, i32 } %129, 0
  %132 = extractvalue { ptr, i32 } %129, 1
  br label %301

133:                                              ; preds = %88
  %134 = load i64, ptr %28, align 8, !tbaa !13
  %135 = icmp ne i64 %134, 0
  %136 = load i64, ptr %31, align 8
  %137 = icmp eq i64 %136, 0
  %138 = select i1 %135, i1 %137, i1 false
  br i1 %138, label %139, label %267

139:                                              ; preds = %133
  %140 = load i64, ptr %25, align 8, !tbaa !13
  %141 = icmp eq i64 %140, 0
  br i1 %141, label %209, label %142

142:                                              ; preds = %139
  %143 = load ptr, ptr %32, align 8, !tbaa !110
  %144 = load ptr, ptr %0, align 8, !tbaa !108
  %145 = ptrtoint ptr %143 to i64
  %146 = ptrtoint ptr %144 to i64
  %147 = sub i64 %145, %146
  %148 = lshr exact i64 %147, 7
  %149 = trunc i64 %148 to i32
  %150 = icmp sgt i32 %149, 0
  %151 = load ptr, ptr %23, align 8
  br i1 %150, label %152, label %154

152:                                              ; preds = %142
  %153 = and i64 %148, 4294967295
  br label %177

154:                                              ; preds = %193, %142
  %155 = load ptr, ptr @_ZL21configVarDescriptions, align 16, !tbaa !111
  %156 = icmp eq ptr %155, null
  br i1 %156, label %208, label %162

157:                                              ; preds = %162
  %158 = add nuw i64 %163, 1
  %159 = getelementptr inbounds [16 x %struct.ConfigVarDescription], ptr @_ZL21configVarDescriptions, i64 0, i64 %158
  %160 = load ptr, ptr %159, align 16, !tbaa !111
  %161 = icmp eq ptr %160, null
  br i1 %161, label %208, label %162

162:                                              ; preds = %154, %157
  %163 = phi i64 [ %158, %157 ], [ 0, %154 ]
  %164 = phi ptr [ %160, %157 ], [ %155, %154 ]
  %165 = call i32 @strcmp(ptr noundef nonnull dereferenceable(1) %151, ptr noundef nonnull dereferenceable(1) %164) #29
  %166 = icmp eq i32 %165, 0
  br i1 %166, label %200, label %157

167:                                              ; preds = %208, %262, %266
  %168 = landingpad { ptr, i32 }
          cleanup
  br label %171

169:                                              ; preds = %203
  %170 = landingpad { ptr, i32 }
          cleanup
  br label %171

171:                                              ; preds = %169, %167
  %172 = phi { ptr, i32 } [ %168, %167 ], [ %170, %169 ]
  %173 = extractvalue { ptr, i32 } %172, 0
  %174 = extractvalue { ptr, i32 } %172, 1
  br label %301

175:                                              ; preds = %190
  %176 = landingpad { ptr, i32 }
          cleanup
  br label %196

