; ModuleID = 'source/multigrid/mg_base.cc'
source_filename = "source/multigrid/mg_base.cc"
target datalayout = "e-m:e-p270:32:32-p271:32:32-p272:64:64-i64:64-f80:128-n8:16:32:64-S128"
target triple = "x86_64-pc-linux-gnu"

$_ZN6dealii14MGTransferBaseINS_6VectorIdEEED5Ev = comdat any

$_ZN6dealii14MGTransferBaseINS_6VectorIfEEED5Ev = comdat any

$_ZN6dealii14MGTransferBaseINS_11BlockVectorIdEEED5Ev = comdat any

$_ZN6dealii14MGTransferBaseINS_11BlockVectorIfEEED5Ev = comdat any

$_ZN6dealii12MGMatrixBaseINS_6VectorIdEEED5Ev = comdat any

$_ZN6dealii12MGMatrixBaseINS_6VectorIfEEED5Ev = comdat any

$_ZN6dealii12MGMatrixBaseINS_11BlockVectorIdEEED5Ev = comdat any

$_ZN6dealii12MGMatrixBaseINS_11BlockVectorIfEEED5Ev = comdat any

$_ZN6dealii14MGSmootherBaseINS_6VectorIfEEED5Ev = comdat any

$_ZN6dealii14MGSmootherBaseINS_6VectorIdEEED5Ev = comdat any

$_ZN6dealii14MGSmootherBaseINS_11BlockVectorIfEEED5Ev = comdat any

$_ZN6dealii14MGSmootherBaseINS_11BlockVectorIdEEED5Ev = comdat any

$_ZN6dealii16MGCoarseGridBaseINS_6VectorIdEEED5Ev = comdat any

$_ZN6dealii16MGCoarseGridBaseINS_6VectorIfEEED5Ev = comdat any

$_ZN6dealii16MGCoarseGridBaseINS_11BlockVectorIdEEED5Ev = comdat any

$_ZN6dealii16MGCoarseGridBaseINS_11BlockVectorIfEEED5Ev = comdat any

$_ZTVN6dealii14MGTransferBaseINS_6VectorIdEEEE = comdat any

$_ZTSN6dealii14MGTransferBaseINS_6VectorIdEEEE = comdat any

$_ZTIN6dealii14MGTransferBaseINS_6VectorIdEEEE = comdat any

$_ZTVN6dealii14MGTransferBaseINS_6VectorIfEEEE = comdat any

$_ZTSN6dealii14MGTransferBaseINS_6VectorIfEEEE = comdat any

$_ZTIN6dealii14MGTransferBaseINS_6VectorIfEEEE = comdat any

$_ZTVN6dealii14MGTransferBaseINS_11BlockVectorIdEEEE = comdat any

$_ZTSN6dealii14MGTransferBaseINS_11BlockVectorIdEEEE = comdat any

$_ZTIN6dealii14MGTransferBaseINS_11BlockVectorIdEEEE = comdat any

$_ZTVN6dealii14MGTransferBaseINS_11BlockVectorIfEEEE = comdat any

$_ZTSN6dealii14MGTransferBaseINS_11BlockVectorIfEEEE = comdat any

$_ZTIN6dealii14MGTransferBaseINS_11BlockVectorIfEEEE = comdat any

$_ZTVN6dealii12MGMatrixBaseINS_6VectorIdEEEE = comdat any

$_ZTSN6dealii12MGMatrixBaseINS_6VectorIdEEEE = comdat any

$_ZTIN6dealii12MGMatrixBaseINS_6VectorIdEEEE = comdat any

$_ZTVN6dealii12MGMatrixBaseINS_6VectorIfEEEE = comdat any

$_ZTSN6dealii12MGMatrixBaseINS_6VectorIfEEEE = comdat any

$_ZTIN6dealii12MGMatrixBaseINS_6VectorIfEEEE = comdat any

$_ZTVN6dealii12MGMatrixBaseINS_11BlockVectorIdEEEE = comdat any

$_ZTSN6dealii12MGMatrixBaseINS_11BlockVectorIdEEEE = comdat any

$_ZTIN6dealii12MGMatrixBaseINS_11BlockVectorIdEEEE = comdat any

$_ZTVN6dealii12MGMatrixBaseINS_11BlockVectorIfEEEE = comdat any

$_ZTSN6dealii12MGMatrixBaseINS_11BlockVectorIfEEEE = comdat any

$_ZTIN6dealii12MGMatrixBaseINS_11BlockVectorIfEEEE = comdat any

$_ZTVN6dealii14MGSmootherBaseINS_6VectorIfEEEE = comdat any

$_ZTSN6dealii14MGSmootherBaseINS_6VectorIfEEEE = comdat any

$_ZTIN6dealii14MGSmootherBaseINS_6VectorIfEEEE = comdat any

$_ZTVN6dealii14MGSmootherBaseINS_6VectorIdEEEE = comdat any

$_ZTSN6dealii14MGSmootherBaseINS_6VectorIdEEEE = comdat any

$_ZTIN6dealii14MGSmootherBaseINS_6VectorIdEEEE = comdat any

$_ZTVN6dealii14MGSmootherBaseINS_11BlockVectorIfEEEE = comdat any

$_ZTSN6dealii14MGSmootherBaseINS_11BlockVectorIfEEEE = comdat any

$_ZTIN6dealii14MGSmootherBaseINS_11BlockVectorIfEEEE = comdat any

$_ZTVN6dealii14MGSmootherBaseINS_11BlockVectorIdEEEE = comdat any

$_ZTSN6dealii14MGSmootherBaseINS_11BlockVectorIdEEEE = comdat any

$_ZTIN6dealii14MGSmootherBaseINS_11BlockVectorIdEEEE = comdat any

$_ZTVN6dealii16MGCoarseGridBaseINS_6VectorIdEEEE = comdat any

$_ZTSN6dealii16MGCoarseGridBaseINS_6VectorIdEEEE = comdat any

$_ZTIN6dealii16MGCoarseGridBaseINS_6VectorIdEEEE = comdat any

$_ZTVN6dealii16MGCoarseGridBaseINS_6VectorIfEEEE = comdat any

$_ZTSN6dealii16MGCoarseGridBaseINS_6VectorIfEEEE = comdat any

$_ZTIN6dealii16MGCoarseGridBaseINS_6VectorIfEEEE = comdat any

$_ZTVN6dealii16MGCoarseGridBaseINS_11BlockVectorIdEEEE = comdat any

$_ZTSN6dealii16MGCoarseGridBaseINS_11BlockVectorIdEEEE = comdat any

$_ZTIN6dealii16MGCoarseGridBaseINS_11BlockVectorIdEEEE = comdat any

$_ZTVN6dealii16MGCoarseGridBaseINS_11BlockVectorIfEEEE = comdat any

$_ZTSN6dealii16MGCoarseGridBaseINS_11BlockVectorIfEEEE = comdat any

$_ZTIN6dealii16MGCoarseGridBaseINS_11BlockVectorIfEEEE = comdat any

@_ZTVN6dealii14MGTransferBaseINS_6VectorIdEEEE = weak_odr dso_local unnamed_addr constant { [6 x ptr] } { [6 x ptr] [ptr null, ptr @_ZTIN6dealii14MGTransferBaseINS_6VectorIdEEEE, ptr @_ZN6dealii14MGTransferBaseINS_6VectorIdEEED2Ev, ptr @_ZN6dealii14MGTransferBaseINS_6VectorIdEEED0Ev, ptr @__cxa_pure_virtual, ptr @__cxa_pure_virtual] }, comdat, align 8
@_ZTVN10__cxxabiv120__si_class_type_infoE = external global ptr
@_ZTSN6dealii14MGTransferBaseINS_6VectorIdEEEE = weak_odr dso_local constant [42 x i8] c"N6dealii14MGTransferBaseINS_6VectorIdEEEE\00", comdat, align 1
@_ZTIN6dealii11SubscriptorE = external constant ptr
@_ZTIN6dealii14MGTransferBaseINS_6VectorIdEEEE = weak_odr dso_local constant { ptr, ptr, ptr } { ptr getelementptr inbounds (ptr, ptr @_ZTVN10__cxxabiv120__si_class_type_infoE, i64 2), ptr @_ZTSN6dealii14MGTransferBaseINS_6VectorIdEEEE, ptr @_ZTIN6dealii11SubscriptorE }, comdat, align 8
@_ZTVN6dealii14MGTransferBaseINS_6VectorIfEEEE = weak_odr dso_local unnamed_addr constant { [6 x ptr] } { [6 x ptr] [ptr null, ptr @_ZTIN6dealii14MGTransferBaseINS_6VectorIfEEEE, ptr @_ZN6dealii14MGTransferBaseINS_6VectorIfEEED2Ev, ptr @_ZN6dealii14MGTransferBaseINS_6VectorIfEEED0Ev, ptr @__cxa_pure_virtual, ptr @__cxa_pure_virtual] }, comdat, align 8
@_ZTSN6dealii14MGTransferBaseINS_6VectorIfEEEE = weak_odr dso_local constant [42 x i8] c"N6dealii14MGTransferBaseINS_6VectorIfEEEE\00", comdat, align 1
@_ZTIN6dealii14MGTransferBaseINS_6VectorIfEEEE = weak_odr dso_local constant { ptr, ptr, ptr } { ptr getelementptr inbounds (ptr, ptr @_ZTVN10__cxxabiv120__si_class_type_infoE, i64 2), ptr @_ZTSN6dealii14MGTransferBaseINS_6VectorIfEEEE, ptr @_ZTIN6dealii11SubscriptorE }, comdat, align 8
@_ZTVN6dealii14MGTransferBaseINS_11BlockVectorIdEEEE = weak_odr dso_local unnamed_addr constant { [6 x ptr] } { [6 x ptr] [ptr null, ptr @_ZTIN6dealii14MGTransferBaseINS_11BlockVectorIdEEEE, ptr @_ZN6dealii14MGTransferBaseINS_11BlockVectorIdEEED2Ev, ptr @_ZN6dealii14MGTransferBaseINS_11BlockVectorIdEEED0Ev, ptr @__cxa_pure_virtual, ptr @__cxa_pure_virtual] }, comdat, align 8
@_ZTSN6dealii14MGTransferBaseINS_11BlockVectorIdEEEE = weak_odr dso_local constant [48 x i8] c"N6dealii14MGTransferBaseINS_11BlockVectorIdEEEE\00", comdat, align 1
@_ZTIN6dealii14MGTransferBaseINS_11BlockVectorIdEEEE = weak_odr dso_local constant { ptr, ptr, ptr } { ptr getelementptr inbounds (ptr, ptr @_ZTVN10__cxxabiv120__si_class_type_infoE, i64 2), ptr @_ZTSN6dealii14MGTransferBaseINS_11BlockVectorIdEEEE, ptr @_ZTIN6dealii11SubscriptorE }, comdat, align 8
@_ZTVN6dealii14MGTransferBaseINS_11BlockVectorIfEEEE = weak_odr dso_local unnamed_addr constant { [6 x ptr] } { [6 x ptr] [ptr null, ptr @_ZTIN6dealii14MGTransferBaseINS_11BlockVectorIfEEEE, ptr @_ZN6dealii14MGTransferBaseINS_11BlockVectorIfEEED2Ev, ptr @_ZN6dealii14MGTransferBaseINS_11BlockVectorIfEEED0Ev, ptr @__cxa_pure_virtual, ptr @__cxa_pure_virtual] }, comdat, align 8
@_ZTSN6dealii14MGTransferBaseINS_11BlockVectorIfEEEE = weak_odr dso_local constant [48 x i8] c"N6dealii14MGTransferBaseINS_11BlockVectorIfEEEE\00", comdat, align 1
@_ZTIN6dealii14MGTransferBaseINS_11BlockVectorIfEEEE = weak_odr dso_local constant { ptr, ptr, ptr } { ptr getelementptr inbounds (ptr, ptr @_ZTVN10__cxxabiv120__si_class_type_infoE, i64 2), ptr @_ZTSN6dealii14MGTransferBaseINS_11BlockVectorIfEEEE, ptr @_ZTIN6dealii11SubscriptorE }, comdat, align 8
@_ZTVN6dealii12MGMatrixBaseINS_6VectorIdEEEE = weak_odr dso_local unnamed_addr constant { [8 x ptr] } { [8 x ptr] [ptr null, ptr @_ZTIN6dealii12MGMatrixBaseINS_6VectorIdEEEE, ptr @_ZN6dealii12MGMatrixBaseINS_6VectorIdEEED2Ev, ptr @_ZN6dealii12MGMatrixBaseINS_6VectorIdEEED0Ev, ptr @__cxa_pure_virtual, ptr @__cxa_pure_virtual, ptr @__cxa_pure_virtual, ptr @__cxa_pure_virtual] }, comdat, align 8
@_ZTSN6dealii12MGMatrixBaseINS_6VectorIdEEEE = weak_odr dso_local constant [40 x i8] c"N6dealii12MGMatrixBaseINS_6VectorIdEEEE\00", comdat, align 1
@_ZTIN6dealii12MGMatrixBaseINS_6VectorIdEEEE = weak_odr dso_local constant { ptr, ptr, ptr } { ptr getelementptr inbounds (ptr, ptr @_ZTVN10__cxxabiv120__si_class_type_infoE, i64 2), ptr @_ZTSN6dealii12MGMatrixBaseINS_6VectorIdEEEE, ptr @_ZTIN6dealii11SubscriptorE }, comdat, align 8
@_ZTVN6dealii12MGMatrixBaseINS_6VectorIfEEEE = weak_odr dso_local unnamed_addr constant { [8 x ptr] } { [8 x ptr] [ptr null, ptr @_ZTIN6dealii12MGMatrixBaseINS_6VectorIfEEEE, ptr @_ZN6dealii12MGMatrixBaseINS_6VectorIfEEED2Ev, ptr @_ZN6dealii12MGMatrixBaseINS_6VectorIfEEED0Ev, ptr @__cxa_pure_virtual, ptr @__cxa_pure_virtual, ptr @__cxa_pure_virtual, ptr @__cxa_pure_virtual] }, comdat, align 8
@_ZTSN6dealii12MGMatrixBaseINS_6VectorIfEEEE = weak_odr dso_local constant [40 x i8] c"N6dealii12MGMatrixBaseINS_6VectorIfEEEE\00", comdat, align 1
@_ZTIN6dealii12MGMatrixBaseINS_6VectorIfEEEE = weak_odr dso_local constant { ptr, ptr, ptr } { ptr getelementptr inbounds (ptr, ptr @_ZTVN10__cxxabiv120__si_class_type_infoE, i64 2), ptr @_ZTSN6dealii12MGMatrixBaseINS_6VectorIfEEEE, ptr @_ZTIN6dealii11SubscriptorE }, comdat, align 8
@_ZTVN6dealii12MGMatrixBaseINS_11BlockVectorIdEEEE = weak_odr dso_local unnamed_addr constant { [8 x ptr] } { [8 x ptr] [ptr null, ptr @_ZTIN6dealii12MGMatrixBaseINS_11BlockVectorIdEEEE, ptr @_ZN6dealii12MGMatrixBaseINS_11BlockVectorIdEEED2Ev, ptr @_ZN6dealii12MGMatrixBaseINS_11BlockVectorIdEEED0Ev, ptr @__cxa_pure_virtual, ptr @__cxa_pure_virtual, ptr @__cxa_pure_virtual, ptr @__cxa_pure_virtual] }, comdat, align 8
@_ZTSN6dealii12MGMatrixBaseINS_11BlockVectorIdEEEE = weak_odr dso_local constant [46 x i8] c"N6dealii12MGMatrixBaseINS_11BlockVectorIdEEEE\00", comdat, align 1
@_ZTIN6dealii12MGMatrixBaseINS_11BlockVectorIdEEEE = weak_odr dso_local constant { ptr, ptr, ptr } { ptr getelementptr inbounds (ptr, ptr @_ZTVN10__cxxabiv120__si_class_type_infoE, i64 2), ptr @_ZTSN6dealii12MGMatrixBaseINS_11BlockVectorIdEEEE, ptr @_ZTIN6dealii11SubscriptorE }, comdat, align 8
@_ZTVN6dealii12MGMatrixBaseINS_11BlockVectorIfEEEE = weak_odr dso_local unnamed_addr constant { [8 x ptr] } { [8 x ptr] [ptr null, ptr @_ZTIN6dealii12MGMatrixBaseINS_11BlockVectorIfEEEE, ptr @_ZN6dealii12MGMatrixBaseINS_11BlockVectorIfEEED2Ev, ptr @_ZN6dealii12MGMatrixBaseINS_11BlockVectorIfEEED0Ev, ptr @__cxa_pure_virtual, ptr @__cxa_pure_virtual, ptr @__cxa_pure_virtual, ptr @__cxa_pure_virtual] }, comdat, align 8
@_ZTSN6dealii12MGMatrixBaseINS_11BlockVectorIfEEEE = weak_odr dso_local constant [46 x i8] c"N6dealii12MGMatrixBaseINS_11BlockVectorIfEEEE\00", comdat, align 1
@_ZTIN6dealii12MGMatrixBaseINS_11BlockVectorIfEEEE = weak_odr dso_local constant { ptr, ptr, ptr } { ptr getelementptr inbounds (ptr, ptr @_ZTVN10__cxxabiv120__si_class_type_infoE, i64 2), ptr @_ZTSN6dealii12MGMatrixBaseINS_11BlockVectorIfEEEE, ptr @_ZTIN6dealii11SubscriptorE }, comdat, align 8
@_ZTVN6dealii14MGSmootherBaseINS_6VectorIfEEEE = weak_odr dso_local unnamed_addr constant { [6 x ptr] } { [6 x ptr] [ptr null, ptr @_ZTIN6dealii14MGSmootherBaseINS_6VectorIfEEEE, ptr @_ZN6dealii14MGSmootherBaseINS_6VectorIfEEED2Ev, ptr @_ZN6dealii14MGSmootherBaseINS_6VectorIfEEED0Ev, ptr @__cxa_pure_virtual, ptr @__cxa_pure_virtual] }, comdat, align 8
@_ZTSN6dealii14MGSmootherBaseINS_6VectorIfEEEE = weak_odr dso_local constant [42 x i8] c"N6dealii14MGSmootherBaseINS_6VectorIfEEEE\00", comdat, align 1
@_ZTIN6dealii14MGSmootherBaseINS_6VectorIfEEEE = weak_odr dso_local constant { ptr, ptr, ptr } { ptr getelementptr inbounds (ptr, ptr @_ZTVN10__cxxabiv120__si_class_type_infoE, i64 2), ptr @_ZTSN6dealii14MGSmootherBaseINS_6VectorIfEEEE, ptr @_ZTIN6dealii11SubscriptorE }, comdat, align 8
@_ZTVN6dealii14MGSmootherBaseINS_6VectorIdEEEE = weak_odr dso_local unnamed_addr constant { [6 x ptr] } { [6 x ptr] [ptr null, ptr @_ZTIN6dealii14MGSmootherBaseINS_6VectorIdEEEE, ptr @_ZN6dealii14MGSmootherBaseINS_6VectorIdEEED2Ev, ptr @_ZN6dealii14MGSmootherBaseINS_6VectorIdEEED0Ev, ptr @__cxa_pure_virtual, ptr @__cxa_pure_virtual] }, comdat, align 8
@_ZTSN6dealii14MGSmootherBaseINS_6VectorIdEEEE = weak_odr dso_local constant [42 x i8] c"N6dealii14MGSmootherBaseINS_6VectorIdEEEE\00", comdat, align 1
@_ZTIN6dealii14MGSmootherBaseINS_6VectorIdEEEE = weak_odr dso_local constant { ptr, ptr, ptr } { ptr getelementptr inbounds (ptr, ptr @_ZTVN10__cxxabiv120__si_class_type_infoE, i64 2), ptr @_ZTSN6dealii14MGSmootherBaseINS_6VectorIdEEEE, ptr @_ZTIN6dealii11SubscriptorE }, comdat, align 8
@_ZTVN6dealii14MGSmootherBaseINS_11BlockVectorIfEEEE = weak_odr dso_local unnamed_addr constant { [6 x ptr] } { [6 x ptr] [ptr null, ptr @_ZTIN6dealii14MGSmootherBaseINS_11BlockVectorIfEEEE, ptr @_ZN6dealii14MGSmootherBaseINS_11BlockVectorIfEEED2Ev, ptr @_ZN6dealii14MGSmootherBaseINS_11BlockVectorIfEEED0Ev, ptr @__cxa_pure_virtual, ptr @__cxa_pure_virtual] }, comdat, align 8
@_ZTSN6dealii14MGSmootherBaseINS_11BlockVectorIfEEEE = weak_odr dso_local constant [48 x i8] c"N6dealii14MGSmootherBaseINS_11BlockVectorIfEEEE\00", comdat, align 1
@_ZTIN6dealii14MGSmootherBaseINS_11BlockVectorIfEEEE = weak_odr dso_local constant { ptr, ptr, ptr } { ptr getelementptr inbounds (ptr, ptr @_ZTVN10__cxxabiv120__si_class_type_infoE, i64 2), ptr @_ZTSN6dealii14MGSmootherBaseINS_11BlockVectorIfEEEE, ptr @_ZTIN6dealii11SubscriptorE }, comdat, align 8
@_ZTVN6dealii14MGSmootherBaseINS_11BlockVectorIdEEEE = weak_odr dso_local unnamed_addr constant { [6 x ptr] } { [6 x ptr] [ptr null, ptr @_ZTIN6dealii14MGSmootherBaseINS_11BlockVectorIdEEEE, ptr @_ZN6dealii14MGSmootherBaseINS_11BlockVectorIdEEED2Ev, ptr @_ZN6dealii14MGSmootherBaseINS_11BlockVectorIdEEED0Ev, ptr @__cxa_pure_virtual, ptr @__cxa_pure_virtual] }, comdat, align 8
@_ZTSN6dealii14MGSmootherBaseINS_11BlockVectorIdEEEE = weak_odr dso_local constant [48 x i8] c"N6dealii14MGSmootherBaseINS_11BlockVectorIdEEEE\00", comdat, align 1
@_ZTIN6dealii14MGSmootherBaseINS_11BlockVectorIdEEEE = weak_odr dso_local constant { ptr, ptr, ptr } { ptr getelementptr inbounds (ptr, ptr @_ZTVN10__cxxabiv120__si_class_type_infoE, i64 2), ptr @_ZTSN6dealii14MGSmootherBaseINS_11BlockVectorIdEEEE, ptr @_ZTIN6dealii11SubscriptorE }, comdat, align 8
@_ZTVN6dealii16MGCoarseGridBaseINS_6VectorIdEEEE = weak_odr dso_local unnamed_addr constant { [5 x ptr] } { [5 x ptr] [ptr null, ptr @_ZTIN6dealii16MGCoarseGridBaseINS_6VectorIdEEEE, ptr @_ZN6dealii16MGCoarseGridBaseINS_6VectorIdEEED2Ev, ptr @_ZN6dealii16MGCoarseGridBaseINS_6VectorIdEEED0Ev, ptr @__cxa_pure_virtual] }, comdat, align 8
@_ZTSN6dealii16MGCoarseGridBaseINS_6VectorIdEEEE = weak_odr dso_local constant [44 x i8] c"N6dealii16MGCoarseGridBaseINS_6VectorIdEEEE\00", comdat, align 1
@_ZTIN6dealii16MGCoarseGridBaseINS_6VectorIdEEEE = weak_odr dso_local constant { ptr, ptr, ptr } { ptr getelementptr inbounds (ptr, ptr @_ZTVN10__cxxabiv120__si_class_type_infoE, i64 2), ptr @_ZTSN6dealii16MGCoarseGridBaseINS_6VectorIdEEEE, ptr @_ZTIN6dealii11SubscriptorE }, comdat, align 8
@_ZTVN6dealii16MGCoarseGridBaseINS_6VectorIfEEEE = weak_odr dso_local unnamed_addr constant { [5 x ptr] } { [5 x ptr] [ptr null, ptr @_ZTIN6dealii16MGCoarseGridBaseINS_6VectorIfEEEE, ptr @_ZN6dealii16MGCoarseGridBaseINS_6VectorIfEEED2Ev, ptr @_ZN6dealii16MGCoarseGridBaseINS_6VectorIfEEED0Ev, ptr @__cxa_pure_virtual] }, comdat, align 8
@_ZTSN6dealii16MGCoarseGridBaseINS_6VectorIfEEEE = weak_odr dso_local constant [44 x i8] c"N6dealii16MGCoarseGridBaseINS_6VectorIfEEEE\00", comdat, align 1
@_ZTIN6dealii16MGCoarseGridBaseINS_6VectorIfEEEE = weak_odr dso_local constant { ptr, ptr, ptr } { ptr getelementptr inbounds (ptr, ptr @_ZTVN10__cxxabiv120__si_class_type_infoE, i64 2), ptr @_ZTSN6dealii16MGCoarseGridBaseINS_6VectorIfEEEE, ptr @_ZTIN6dealii11SubscriptorE }, comdat, align 8
@_ZTVN6dealii16MGCoarseGridBaseINS_11BlockVectorIdEEEE = weak_odr dso_local unnamed_addr constant { [5 x ptr] } { [5 x ptr] [ptr null, ptr @_ZTIN6dealii16MGCoarseGridBaseINS_11BlockVectorIdEEEE, ptr @_ZN6dealii16MGCoarseGridBaseINS_11BlockVectorIdEEED2Ev, ptr @_ZN6dealii16MGCoarseGridBaseINS_11BlockVectorIdEEED0Ev, ptr @__cxa_pure_virtual] }, comdat, align 8
@_ZTSN6dealii16MGCoarseGridBaseINS_11BlockVectorIdEEEE = weak_odr dso_local constant [50 x i8] c"N6dealii16MGCoarseGridBaseINS_11BlockVectorIdEEEE\00", comdat, align 1
@_ZTIN6dealii16MGCoarseGridBaseINS_11BlockVectorIdEEEE = weak_odr dso_local constant { ptr, ptr, ptr } { ptr getelementptr inbounds (ptr, ptr @_ZTVN10__cxxabiv120__si_class_type_infoE, i64 2), ptr @_ZTSN6dealii16MGCoarseGridBaseINS_11BlockVectorIdEEEE, ptr @_ZTIN6dealii11SubscriptorE }, comdat, align 8
@_ZTVN6dealii16MGCoarseGridBaseINS_11BlockVectorIfEEEE = weak_odr dso_local unnamed_addr constant { [5 x ptr] } { [5 x ptr] [ptr null, ptr @_ZTIN6dealii16MGCoarseGridBaseINS_11BlockVectorIfEEEE, ptr @_ZN6dealii16MGCoarseGridBaseINS_11BlockVectorIfEEED2Ev, ptr @_ZN6dealii16MGCoarseGridBaseINS_11BlockVectorIfEEED0Ev, ptr @__cxa_pure_virtual] }, comdat, align 8
@_ZTSN6dealii16MGCoarseGridBaseINS_11BlockVectorIfEEEE = weak_odr dso_local constant [50 x i8] c"N6dealii16MGCoarseGridBaseINS_11BlockVectorIfEEEE\00", comdat, align 1
@_ZTIN6dealii16MGCoarseGridBaseINS_11BlockVectorIfEEEE = weak_odr dso_local constant { ptr, ptr, ptr } { ptr getelementptr inbounds (ptr, ptr @_ZTVN10__cxxabiv120__si_class_type_infoE, i64 2), ptr @_ZTSN6dealii16MGCoarseGridBaseINS_11BlockVectorIfEEEE, ptr @_ZTIN6dealii11SubscriptorE }, comdat, align 8

@_ZN6dealii14MGTransferBaseINS_6VectorIdEEED1Ev = weak_odr dso_local unnamed_addr alias void (ptr), ptr @_ZN6dealii14MGTransferBaseINS_6VectorIdEEED2Ev
@_ZN6dealii14MGTransferBaseINS_6VectorIfEEED1Ev = weak_odr dso_local unnamed_addr alias void (ptr), ptr @_ZN6dealii14MGTransferBaseINS_6VectorIfEEED2Ev
@_ZN6dealii14MGTransferBaseINS_11BlockVectorIdEEED1Ev = weak_odr dso_local unnamed_addr alias void (ptr), ptr @_ZN6dealii14MGTransferBaseINS_11BlockVectorIdEEED2Ev
@_ZN6dealii14MGTransferBaseINS_11BlockVectorIfEEED1Ev = weak_odr dso_local unnamed_addr alias void (ptr), ptr @_ZN6dealii14MGTransferBaseINS_11BlockVectorIfEEED2Ev
@_ZN6dealii12MGMatrixBaseINS_6VectorIdEEED1Ev = weak_odr dso_local unnamed_addr alias void (ptr), ptr @_ZN6dealii12MGMatrixBaseINS_6VectorIdEEED2Ev
@_ZN6dealii12MGMatrixBaseINS_6VectorIfEEED1Ev = weak_odr dso_local unnamed_addr alias void (ptr), ptr @_ZN6dealii12MGMatrixBaseINS_6VectorIfEEED2Ev
@_ZN6dealii12MGMatrixBaseINS_11BlockVectorIdEEED1Ev = weak_odr dso_local unnamed_addr alias void (ptr), ptr @_ZN6dealii12MGMatrixBaseINS_11BlockVectorIdEEED2Ev
@_ZN6dealii12MGMatrixBaseINS_11BlockVectorIfEEED1Ev = weak_odr dso_local unnamed_addr alias void (ptr), ptr @_ZN6dealii12MGMatrixBaseINS_11BlockVectorIfEEED2Ev
@_ZN6dealii14MGSmootherBaseINS_6VectorIfEEED1Ev = weak_odr dso_local unnamed_addr alias void (ptr), ptr @_ZN6dealii14MGSmootherBaseINS_6VectorIfEEED2Ev
@_ZN6dealii14MGSmootherBaseINS_6VectorIdEEED1Ev = weak_odr dso_local unnamed_addr alias void (ptr), ptr @_ZN6dealii14MGSmootherBaseINS_6VectorIdEEED2Ev
@_ZN6dealii14MGSmootherBaseINS_11BlockVectorIfEEED1Ev = weak_odr dso_local unnamed_addr alias void (ptr), ptr @_ZN6dealii14MGSmootherBaseINS_11BlockVectorIfEEED2Ev
@_ZN6dealii14MGSmootherBaseINS_11BlockVectorIdEEED1Ev = weak_odr dso_local unnamed_addr alias void (ptr), ptr @_ZN6dealii14MGSmootherBaseINS_11BlockVectorIdEEED2Ev
@_ZN6dealii16MGCoarseGridBaseINS_6VectorIdEEED1Ev = weak_odr dso_local unnamed_addr alias void (ptr), ptr @_ZN6dealii16MGCoarseGridBaseINS_6VectorIdEEED2Ev
@_ZN6dealii16MGCoarseGridBaseINS_6VectorIfEEED1Ev = weak_odr dso_local unnamed_addr alias void (ptr), ptr @_ZN6dealii16MGCoarseGridBaseINS_6VectorIfEEED2Ev
@_ZN6dealii16MGCoarseGridBaseINS_11BlockVectorIdEEED1Ev = weak_odr dso_local unnamed_addr alias void (ptr), ptr @_ZN6dealii16MGCoarseGridBaseINS_11BlockVectorIdEEED2Ev
@_ZN6dealii16MGCoarseGridBaseINS_11BlockVectorIfEEED1Ev = weak_odr dso_local unnamed_addr alias void (ptr), ptr @_ZN6dealii16MGCoarseGridBaseINS_11BlockVectorIfEEED2Ev

; Function Attrs: sspstrong uwtable
define weak_odr dso_local void @_ZN6dealii14MGTransferBaseINS_6VectorIdEEED2Ev(ptr noundef nonnull align 8 dereferenceable(72) %0) unnamed_addr #0 comdat($_ZN6dealii14MGTransferBaseINS_6VectorIdEEED5Ev) align 2 {
  tail call void @_ZN6dealii11SubscriptorD2Ev(ptr noundef nonnull align 8 dereferenceable(72) %0)
  ret void
}

declare void @_ZN6dealii11SubscriptorD2Ev(ptr noundef nonnull align 8 dereferenceable(72)) unnamed_addr #1

; Function Attrs: nounwind sspstrong uwtable
define weak_odr dso_local void @_ZN6dealii14MGTransferBaseINS_6VectorIdEEED0Ev(ptr noundef nonnull align 8 dereferenceable(72) %0) unnamed_addr #2 comdat($_ZN6dealii14MGTransferBaseINS_6VectorIdEEED5Ev) align 2 {
  tail call void @llvm.trap() #4
  unreachable
}

; Function Attrs: cold noreturn nounwind
declare void @llvm.trap() #3

; Function Attrs: sspstrong uwtable
define weak_odr dso_local void @_ZN6dealii14MGTransferBaseINS_6VectorIfEEED2Ev(ptr noundef nonnull align 8 dereferenceable(72) %0) unnamed_addr #0 comdat($_ZN6dealii14MGTransferBaseINS_6VectorIfEEED5Ev) align 2 {
  tail call void @_ZN6dealii11SubscriptorD2Ev(ptr noundef nonnull align 8 dereferenceable(72) %0)
  ret void
}

; Function Attrs: nounwind sspstrong uwtable
define weak_odr dso_local void @_ZN6dealii14MGTransferBaseINS_6VectorIfEEED0Ev(ptr noundef nonnull align 8 dereferenceable(72) %0) unnamed_addr #2 comdat($_ZN6dealii14MGTransferBaseINS_6VectorIfEEED5Ev) align 2 {
  tail call void @llvm.trap() #4
  unreachable
}

; Function Attrs: sspstrong uwtable
define weak_odr dso_local void @_ZN6dealii14MGTransferBaseINS_11BlockVectorIdEEED2Ev(ptr noundef nonnull align 8 dereferenceable(72) %0) unnamed_addr #0 comdat($_ZN6dealii14MGTransferBaseINS_11BlockVectorIdEEED5Ev) align 2 {
  tail call void @_ZN6dealii11SubscriptorD2Ev(ptr noundef nonnull align 8 dereferenceable(72) %0)
  ret void
}

; Function Attrs: nounwind sspstrong uwtable
define weak_odr dso_local void @_ZN6dealii14MGTransferBaseINS_11BlockVectorIdEEED0Ev(ptr noundef nonnull align 8 dereferenceable(72) %0) unnamed_addr #2 comdat($_ZN6dealii14MGTransferBaseINS_11BlockVectorIdEEED5Ev) align 2 {
  tail call void @llvm.trap() #4
  unreachable
}

; Function Attrs: sspstrong uwtable
define weak_odr dso_local void @_ZN6dealii14MGTransferBaseINS_11BlockVectorIfEEED2Ev(ptr noundef nonnull align 8 dereferenceable(72) %0) unnamed_addr #0 comdat($_ZN6dealii14MGTransferBaseINS_11BlockVectorIfEEED5Ev) align 2 {
  tail call void @_ZN6dealii11SubscriptorD2Ev(ptr noundef nonnull align 8 dereferenceable(72) %0)
  ret void
}

; Function Attrs: nounwind sspstrong uwtable
define weak_odr dso_local void @_ZN6dealii14MGTransferBaseINS_11BlockVectorIfEEED0Ev(ptr noundef nonnull align 8 dereferenceable(72) %0) unnamed_addr #2 comdat($_ZN6dealii14MGTransferBaseINS_11BlockVectorIfEEED5Ev) align 2 {
  tail call void @llvm.trap() #4
  unreachable
}

; Function Attrs: sspstrong uwtable
define weak_odr dso_local void @_ZN6dealii12MGMatrixBaseINS_6VectorIdEEED2Ev(ptr noundef nonnull align 8 dereferenceable(72) %0) unnamed_addr #0 comdat($_ZN6dealii12MGMatrixBaseINS_6VectorIdEEED5Ev) align 2 {
  tail call void @_ZN6dealii11SubscriptorD2Ev(ptr noundef nonnull align 8 dereferenceable(72) %0)
  ret void
}

; Function Attrs: nounwind sspstrong uwtable
define weak_odr dso_local void @_ZN6dealii12MGMatrixBaseINS_6VectorIdEEED0Ev(ptr noundef nonnull align 8 dereferenceable(72) %0) unnamed_addr #2 comdat($_ZN6dealii12MGMatrixBaseINS_6VectorIdEEED5Ev) align 2 {
  tail call void @llvm.trap() #4
  unreachable
}

; Function Attrs: sspstrong uwtable
define weak_odr dso_local void @_ZN6dealii12MGMatrixBaseINS_6VectorIfEEED2Ev(ptr noundef nonnull align 8 dereferenceable(72) %0) unnamed_addr #0 comdat($_ZN6dealii12MGMatrixBaseINS_6VectorIfEEED5Ev) align 2 {
  tail call void @_ZN6dealii11SubscriptorD2Ev(ptr noundef nonnull align 8 dereferenceable(72) %0)
  ret void
}

; Function Attrs: nounwind sspstrong uwtable
define weak_odr dso_local void @_ZN6dealii12MGMatrixBaseINS_6VectorIfEEED0Ev(ptr noundef nonnull align 8 dereferenceable(72) %0) unnamed_addr #2 comdat($_ZN6dealii12MGMatrixBaseINS_6VectorIfEEED5Ev) align 2 {
  tail call void @llvm.trap() #4
  unreachable
}

; Function Attrs: sspstrong uwtable
define weak_odr dso_local void @_ZN6dealii12MGMatrixBaseINS_11BlockVectorIdEEED2Ev(ptr noundef nonnull align 8 dereferenceable(72) %0) unnamed_addr #0 comdat($_ZN6dealii12MGMatrixBaseINS_11BlockVectorIdEEED5Ev) align 2 {
  tail call void @_ZN6dealii11SubscriptorD2Ev(ptr noundef nonnull align 8 dereferenceable(72) %0)
  ret void
}

; Function Attrs: nounwind sspstrong uwtable
define weak_odr dso_local void @_ZN6dealii12MGMatrixBaseINS_11BlockVectorIdEEED0Ev(ptr noundef nonnull align 8 dereferenceable(72) %0) unnamed_addr #2 comdat($_ZN6dealii12MGMatrixBaseINS_11BlockVectorIdEEED5Ev) align 2 {
  tail call void @llvm.trap() #4
  unreachable
}

; Function Attrs: sspstrong uwtable
define weak_odr dso_local void @_ZN6dealii12MGMatrixBaseINS_11BlockVectorIfEEED2Ev(ptr noundef nonnull align 8 dereferenceable(72) %0) unnamed_addr #0 comdat($_ZN6dealii12MGMatrixBaseINS_11BlockVectorIfEEED5Ev) align 2 {
  tail call void @_ZN6dealii11SubscriptorD2Ev(ptr noundef nonnull align 8 dereferenceable(72) %0)
  ret void
}

; Function Attrs: nounwind sspstrong uwtable
define weak_odr dso_local void @_ZN6dealii12MGMatrixBaseINS_11BlockVectorIfEEED0Ev(ptr noundef nonnull align 8 dereferenceable(72) %0) unnamed_addr #2 comdat($_ZN6dealii12MGMatrixBaseINS_11BlockVectorIfEEED5Ev) align 2 {
  tail call void @llvm.trap() #4
  unreachable
}

; Function Attrs: sspstrong uwtable
define weak_odr dso_local void @_ZN6dealii14MGSmootherBaseINS_6VectorIfEEED2Ev(ptr noundef nonnull align 8 dereferenceable(72) %0) unnamed_addr #0 comdat($_ZN6dealii14MGSmootherBaseINS_6VectorIfEEED5Ev) align 2 {
  tail call void @_ZN6dealii11SubscriptorD2Ev(ptr noundef nonnull align 8 dereferenceable(72) %0)
  ret void
}

; Function Attrs: nounwind sspstrong uwtable
define weak_odr dso_local void @_ZN6dealii14MGSmootherBaseINS_6VectorIfEEED0Ev(ptr noundef nonnull align 8 dereferenceable(72) %0) unnamed_addr #2 comdat($_ZN6dealii14MGSmootherBaseINS_6VectorIfEEED5Ev) align 2 {
  tail call void @llvm.trap() #4
  unreachable
}

; Function Attrs: sspstrong uwtable
define weak_odr dso_local void @_ZN6dealii14MGSmootherBaseINS_6VectorIdEEED2Ev(ptr noundef nonnull align 8 dereferenceable(72) %0) unnamed_addr #0 comdat($_ZN6dealii14MGSmootherBaseINS_6VectorIdEEED5Ev) align 2 {
  tail call void @_ZN6dealii11SubscriptorD2Ev(ptr noundef nonnull align 8 dereferenceable(72) %0)
  ret void
}

; Function Attrs: nounwind sspstrong uwtable
define weak_odr dso_local void @_ZN6dealii14MGSmootherBaseINS_6VectorIdEEED0Ev(ptr noundef nonnull align 8 dereferenceable(72) %0) unnamed_addr #2 comdat($_ZN6dealii14MGSmootherBaseINS_6VectorIdEEED5Ev) align 2 {
  tail call void @llvm.trap() #4
  unreachable
}

; Function Attrs: sspstrong uwtable
define weak_odr dso_local void @_ZN6dealii14MGSmootherBaseINS_11BlockVectorIfEEED2Ev(ptr noundef nonnull align 8 dereferenceable(72) %0) unnamed_addr #0 comdat($_ZN6dealii14MGSmootherBaseINS_11BlockVectorIfEEED5Ev) align 2 {
  tail call void @_ZN6dealii11SubscriptorD2Ev(ptr noundef nonnull align 8 dereferenceable(72) %0)
  ret void
}

; Function Attrs: nounwind sspstrong uwtable
define weak_odr dso_local void @_ZN6dealii14MGSmootherBaseINS_11BlockVectorIfEEED0Ev(ptr noundef nonnull align 8 dereferenceable(72) %0) unnamed_addr #2 comdat($_ZN6dealii14MGSmootherBaseINS_11BlockVectorIfEEED5Ev) align 2 {
  tail call void @llvm.trap() #4
  unreachable
}

; Function Attrs: sspstrong uwtable
define weak_odr dso_local void @_ZN6dealii14MGSmootherBaseINS_11BlockVectorIdEEED2Ev(ptr noundef nonnull align 8 dereferenceable(72) %0) unnamed_addr #0 comdat($_ZN6dealii14MGSmootherBaseINS_11BlockVectorIdEEED5Ev) align 2 {
  tail call void @_ZN6dealii11SubscriptorD2Ev(ptr noundef nonnull align 8 dereferenceable(72) %0)
  ret void
}

; Function Attrs: nounwind sspstrong uwtable
define weak_odr dso_local void @_ZN6dealii14MGSmootherBaseINS_11BlockVectorIdEEED0Ev(ptr noundef nonnull align 8 dereferenceable(72) %0) unnamed_addr #2 comdat($_ZN6dealii14MGSmootherBaseINS_11BlockVectorIdEEED5Ev) align 2 {
  tail call void @llvm.trap() #4
  unreachable
}

; Function Attrs: sspstrong uwtable
define weak_odr dso_local void @_ZN6dealii16MGCoarseGridBaseINS_6VectorIdEEED2Ev(ptr noundef nonnull align 8 dereferenceable(72) %0) unnamed_addr #0 comdat($_ZN6dealii16MGCoarseGridBaseINS_6VectorIdEEED5Ev) align 2 {
  tail call void @_ZN6dealii11SubscriptorD2Ev(ptr noundef nonnull align 8 dereferenceable(72) %0)
  ret void
}

; Function Attrs: nounwind sspstrong uwtable
define weak_odr dso_local void @_ZN6dealii16MGCoarseGridBaseINS_6VectorIdEEED0Ev(ptr noundef nonnull align 8 dereferenceable(72) %0) unnamed_addr #2 comdat($_ZN6dealii16MGCoarseGridBaseINS_6VectorIdEEED5Ev) align 2 {
  tail call void @llvm.trap() #4
  unreachable
}

; Function Attrs: sspstrong uwtable
define weak_odr dso_local void @_ZN6dealii16MGCoarseGridBaseINS_6VectorIfEEED2Ev(ptr noundef nonnull align 8 dereferenceable(72) %0) unnamed_addr #0 comdat($_ZN6dealii16MGCoarseGridBaseINS_6VectorIfEEED5Ev) align 2 {
  tail call void @_ZN6dealii11SubscriptorD2Ev(ptr noundef nonnull align 8 dereferenceable(72) %0)
  ret void
}

; Function Attrs: nounwind sspstrong uwtable
define weak_odr dso_local void @_ZN6dealii16MGCoarseGridBaseINS_6VectorIfEEED0Ev(ptr noundef nonnull align 8 dereferenceable(72) %0) unnamed_addr #2 comdat($_ZN6dealii16MGCoarseGridBaseINS_6VectorIfEEED5Ev) align 2 {
  tail call void @llvm.trap() #4
  unreachable
}

; Function Attrs: sspstrong uwtable
define weak_odr dso_local void @_ZN6dealii16MGCoarseGridBaseINS_11BlockVectorIdEEED2Ev(ptr noundef nonnull align 8 dereferenceable(72) %0) unnamed_addr #0 comdat($_ZN6dealii16MGCoarseGridBaseINS_11BlockVectorIdEEED5Ev) align 2 {
  tail call void @_ZN6dealii11SubscriptorD2Ev(ptr noundef nonnull align 8 dereferenceable(72) %0)
  ret void
}

; Function Attrs: nounwind sspstrong uwtable
define weak_odr dso_local void @_ZN6dealii16MGCoarseGridBaseINS_11BlockVectorIdEEED0Ev(ptr noundef nonnull align 8 dereferenceable(72) %0) unnamed_addr #2 comdat($_ZN6dealii16MGCoarseGridBaseINS_11BlockVectorIdEEED5Ev) align 2 {
  tail call void @llvm.trap() #4
  unreachable
}

; Function Attrs: sspstrong uwtable
define weak_odr dso_local void @_ZN6dealii16MGCoarseGridBaseINS_11BlockVectorIfEEED2Ev(ptr noundef nonnull align 8 dereferenceable(72) %0) unnamed_addr #0 comdat($_ZN6dealii16MGCoarseGridBaseINS_11BlockVectorIfEEED5Ev) align 2 {
  tail call void @_ZN6dealii11SubscriptorD2Ev(ptr noundef nonnull align 8 dereferenceable(72) %0)
  ret void
}

; Function Attrs: nounwind sspstrong uwtable
define weak_odr dso_local void @_ZN6dealii16MGCoarseGridBaseINS_11BlockVectorIfEEED0Ev(ptr noundef nonnull align 8 dereferenceable(72) %0) unnamed_addr #2 comdat($_ZN6dealii16MGCoarseGridBaseINS_11BlockVectorIfEEED5Ev) align 2 {
  tail call void @llvm.trap() #4
  unreachable
}

declare void @__cxa_pure_virtual() unnamed_addr

attributes #0 = { sspstrong uwtable "min-legal-vector-width"="0" "no-trapping-math"="true" "stack-protector-buffer-size"="8" "target-cpu"="x86-64" "target-features"="+avx,+cmov,+crc32,+cx8,+fxsr,+mmx,+popcnt,+sse,+sse2,+sse3,+sse4.1,+sse4.2,+ssse3,+x87,+xsave" "tune-cpu"="generic" }
attributes #1 = { "no-trapping-math"="true" "stack-protector-buffer-size"="8" "target-cpu"="x86-64" "target-features"="+avx,+cmov,+crc32,+cx8,+fxsr,+mmx,+popcnt,+sse,+sse2,+sse3,+sse4.1,+sse4.2,+ssse3,+x87,+xsave" "tune-cpu"="generic" }
attributes #2 = { nounwind sspstrong uwtable "min-legal-vector-width"="0" "no-trapping-math"="true" "stack-protector-buffer-size"="8" "target-cpu"="x86-64" "target-features"="+avx,+cmov,+crc32,+cx8,+fxsr,+mmx,+popcnt,+sse,+sse2,+sse3,+sse4.1,+sse4.2,+ssse3,+x87,+xsave" "tune-cpu"="generic" }
attributes #3 = { cold noreturn nounwind }
attributes #4 = { noreturn nounwind }

!llvm.module.flags = !{!0, !1, !2, !3}
!llvm.ident = !{!4}

!0 = !{i32 1, !"wchar_size", i32 4}
!1 = !{i32 8, !"PIC Level", i32 2}
!2 = !{i32 7, !"PIE Level", i32 2}
!3 = !{i32 7, !"uwtable", i32 2}
!4 = !{!"clang version 17.0.6"}
