; ModuleID = 'source/multigrid/mg_dof_accessor.cc'
source_filename = "source/multigrid/mg_dof_accessor.cc"
target datalayout = "e-m:e-p270:32:32-p271:32:32-p272:64:64-i64:64-f80:128-n8:16:32:64-S128"
target triple = "x86_64-pc-linux-gnu"

module asm ".globl _ZSt21ios_base_library_initv"

%"class.dealii::DoFAccessor" = type { %"class.dealii::TriaAccessor", ptr }
%"class.dealii::TriaAccessor" = type { %"class.dealii::TriaAccessorBase" }
%"class.dealii::TriaAccessorBase" = type { i32, ptr }
%"class.dealii::DoFHandler" = type { %"class.dealii::Subscriptor", %"class.dealii::SmartPointer", %"class.dealii::SmartPointer.25", %"class.std::vector", ptr, i32, %"class.std::vector.29" }
%"class.dealii::Subscriptor" = type { ptr, i32, %"class.std::map", ptr }
%"class.std::map" = type { %"class.std::_Rb_tree" }
%"class.std::_Rb_tree" = type { %"struct.std::_Rb_tree<const char *, std::pair<const char *const, unsigned int>, std::_Select1st<std::pair<const char *const, unsigned int> >, std::less<const char *> >::_Rb_tree_impl" }
%"struct.std::_Rb_tree<const char *, std::pair<const char *const, unsigned int>, std::_Select1st<std::pair<const char *const, unsigned int> >, std::less<const char *> >::_Rb_tree_impl" = type { %"struct.std::_Rb_tree_key_compare", %"struct.std::_Rb_tree_header" }
%"struct.std::_Rb_tree_key_compare" = type { %"struct.std::less" }
%"struct.std::less" = type { i8 }
%"struct.std::_Rb_tree_header" = type { %"struct.std::_Rb_tree_node_base", i64 }
%"struct.std::_Rb_tree_node_base" = type { i32, ptr, ptr, ptr }
%"class.dealii::SmartPointer" = type { ptr, ptr }
%"class.dealii::SmartPointer.25" = type { ptr, ptr }
%"class.std::vector" = type { %"struct.std::_Vector_base" }
%"struct.std::_Vector_base" = type { %"struct.std::_Vector_base<dealii::internal::DoFHandler::DoFLevel<3> *, std::allocator<dealii::internal::DoFHandler::DoFLevel<3> *> >::_Vector_impl" }
%"struct.std::_Vector_base<dealii::internal::DoFHandler::DoFLevel<3> *, std::allocator<dealii::internal::DoFHandler::DoFLevel<3> *> >::_Vector_impl" = type { %"struct.std::_Vector_base<dealii::internal::DoFHandler::DoFLevel<3> *, std::allocator<dealii::internal::DoFHandler::DoFLevel<3> *> >::_Vector_impl_data" }
%"struct.std::_Vector_base<dealii::internal::DoFHandler::DoFLevel<3> *, std::allocator<dealii::internal::DoFHandler::DoFLevel<3> *> >::_Vector_impl_data" = type { ptr, ptr, ptr }
%"class.std::vector.29" = type { %"struct.std::_Vector_base.30" }
%"struct.std::_Vector_base.30" = type { %"struct.std::_Vector_base<unsigned int, std::allocator<unsigned int> >::_Vector_impl" }
%"struct.std::_Vector_base<unsigned int, std::allocator<unsigned int> >::_Vector_impl" = type { %"struct.std::_Vector_base<unsigned int, std::allocator<unsigned int> >::_Vector_impl_data" }
%"struct.std::_Vector_base<unsigned int, std::allocator<unsigned int> >::_Vector_impl_data" = type { ptr, ptr, ptr }
%"class.dealii::Vector" = type { %"class.dealii::Subscriptor", i32, i32, ptr }
%"class.dealii::Triangulation" = type { %"class.dealii::Subscriptor", %"class.std::vector.117", ptr, %"class.std::vector.44", %"class.std::vector.73", [255 x %"class.dealii::SmartPointer.122"], [255 x %"class.dealii::SmartPointer.122"], i8, i32, %"struct.dealii::internal::Triangulation::NumberCache", %"class.std::__cxx11::list" }
%"class.std::vector.117" = type { %"struct.std::_Vector_base.118" }
%"struct.std::_Vector_base.118" = type { %"struct.std::_Vector_base<dealii::internal::Triangulation::TriaLevel<3> *, std::allocator<dealii::internal::Triangulation::TriaLevel<3> *> >::_Vector_impl" }
%"struct.std::_Vector_base<dealii::internal::Triangulation::TriaLevel<3> *, std::allocator<dealii::internal::Triangulation::TriaLevel<3> *> >::_Vector_impl" = type { %"struct.std::_Vector_base<dealii::internal::Triangulation::TriaLevel<3> *, std::allocator<dealii::internal::Triangulation::TriaLevel<3> *> >::_Vector_impl_data" }
%"struct.std::_Vector_base<dealii::internal::Triangulation::TriaLevel<3> *, std::allocator<dealii::internal::Triangulation::TriaLevel<3> *> >::_Vector_impl_data" = type { ptr, ptr, ptr }
%"class.std::vector.44" = type { %"struct.std::_Vector_base.45" }
%"struct.std::_Vector_base.45" = type { %"struct.std::_Vector_base<dealii::Point<3>, std::allocator<dealii::Point<3> > >::_Vector_impl" }
%"struct.std::_Vector_base<dealii::Point<3>, std::allocator<dealii::Point<3> > >::_Vector_impl" = type { %"struct.std::_Vector_base<dealii::Point<3>, std::allocator<dealii::Point<3> > >::_Vector_impl_data" }
%"struct.std::_Vector_base<dealii::Point<3>, std::allocator<dealii::Point<3> > >::_Vector_impl_data" = type { ptr, ptr, ptr }
%"class.std::vector.73" = type { %"struct.std::_Bvector_base" }
%"struct.std::_Bvector_base" = type { %"struct.std::_Bvector_base<std::allocator<bool> >::_Bvector_impl" }
%"struct.std::_Bvector_base<std::allocator<bool> >::_Bvector_impl" = type { %"struct.std::_Bvector_base<std::allocator<bool> >::_Bvector_impl_data" }
%"struct.std::_Bvector_base<std::allocator<bool> >::_Bvector_impl_data" = type { %"struct.std::_Bit_iterator", %"struct.std::_Bit_iterator", ptr }
%"struct.std::_Bit_iterator" = type { %"struct.std::_Bit_iterator_base.base", [4 x i8] }
%"struct.std::_Bit_iterator_base.base" = type <{ ptr, i32 }>
%"class.dealii::SmartPointer.122" = type { ptr, ptr }
%"struct.dealii::internal::Triangulation::NumberCache" = type { %"struct.dealii::internal::Triangulation::NumberCache.123", i32, %"class.std::vector.29", i32, %"class.std::vector.29" }
%"struct.dealii::internal::Triangulation::NumberCache.123" = type { %"struct.dealii::internal::Triangulation::NumberCache.124", i32, %"class.std::vector.29", i32, %"class.std::vector.29" }
%"struct.dealii::internal::Triangulation::NumberCache.124" = type { i32, %"class.std::vector.29", i32, %"class.std::vector.29" }
%"class.std::__cxx11::list" = type { %"class.std::__cxx11::_List_base" }
%"class.std::__cxx11::_List_base" = type { %"struct.std::__cxx11::_List_base<dealii::Triangulation<3, 3>::RefinementListener *, std::allocator<dealii::Triangulation<3, 3>::RefinementListener *> >::_List_impl" }
%"struct.std::__cxx11::_List_base<dealii::Triangulation<3, 3>::RefinementListener *, std::allocator<dealii::Triangulation<3, 3>::RefinementListener *> >::_List_impl" = type { %"struct.std::__detail::_List_node_header" }
%"struct.std::__detail::_List_node_header" = type { %"struct.std::__detail::_List_node_base", i64 }
%"struct.std::__detail::_List_node_base" = type { ptr, ptr }
%"class.dealii::MGDoFAccessor" = type { %"class.dealii::DoFAccessor", ptr }
%"class.dealii::MGDoFHandler" = type { %"class.dealii::DoFHandler", %"class.std::vector", ptr, %"class.std::vector.34", %"class.std::vector.29" }
%"class.std::vector.34" = type { %"struct.std::_Vector_base.35" }
%"struct.std::_Vector_base.35" = type { %"struct.std::_Vector_base<dealii::MGDoFHandler<3>::MGVertexDoFs, std::allocator<dealii::MGDoFHandler<3>::MGVertexDoFs> >::_Vector_impl" }
%"struct.std::_Vector_base<dealii::MGDoFHandler<3>::MGVertexDoFs, std::allocator<dealii::MGDoFHandler<3>::MGVertexDoFs> >::_Vector_impl" = type { %"struct.std::_Vector_base<dealii::MGDoFHandler<3>::MGVertexDoFs, std::allocator<dealii::MGDoFHandler<3>::MGVertexDoFs> >::_Vector_impl_data" }
%"struct.std::_Vector_base<dealii::MGDoFHandler<3>::MGVertexDoFs, std::allocator<dealii::MGDoFHandler<3>::MGVertexDoFs> >::_Vector_impl_data" = type { ptr, ptr, ptr }
%"class.dealii::internal::Triangulation::TriaFaces" = type { %"class.dealii::internal::Triangulation::TriaObjectsQuad3D", %"class.dealii::internal::Triangulation::TriaObjects.128" }
%"class.dealii::internal::Triangulation::TriaObjectsQuad3D" = type { %"class.dealii::internal::Triangulation::TriaObjects.base", %"class.std::vector.73" }
%"class.dealii::internal::Triangulation::TriaObjects.base" = type <{ %"class.std::vector.97", %"class.std::vector.58", %"class.std::vector.102", %"class.std::vector.73", %"class.std::vector.73", %"class.std::vector.107", i32, i32, i8, [7 x i8], %"class.std::vector.112", i32 }>
%"class.std::vector.97" = type { %"struct.std::_Vector_base.98" }
%"struct.std::_Vector_base.98" = type { %"struct.std::_Vector_base<dealii::internal::Triangulation::TriaObject<2>, std::allocator<dealii::internal::Triangulation::TriaObject<2> > >::_Vector_impl" }
%"struct.std::_Vector_base<dealii::internal::Triangulation::TriaObject<2>, std::allocator<dealii::internal::Triangulation::TriaObject<2> > >::_Vector_impl" = type { %"struct.std::_Vector_base<dealii::internal::Triangulation::TriaObject<2>, std::allocator<dealii::internal::Triangulation::TriaObject<2> > >::_Vector_impl_data" }
%"struct.std::_Vector_base<dealii::internal::Triangulation::TriaObject<2>, std::allocator<dealii::internal::Triangulation::TriaObject<2> > >::_Vector_impl_data" = type { ptr, ptr, ptr }
%"class.std::vector.58" = type { %"struct.std::_Vector_base.59" }
%"struct.std::_Vector_base.59" = type { %"struct.std::_Vector_base<int, std::allocator<int> >::_Vector_impl" }
%"struct.std::_Vector_base<int, std::allocator<int> >::_Vector_impl" = type { %"struct.std::_Vector_base<int, std::allocator<int> >::_Vector_impl_data" }
%"struct.std::_Vector_base<int, std::allocator<int> >::_Vector_impl_data" = type { ptr, ptr, ptr }
%"class.std::vector.102" = type { %"struct.std::_Vector_base.103" }
%"struct.std::_Vector_base.103" = type { %"struct.std::_Vector_base<dealii::RefinementCase<2>, std::allocator<dealii::RefinementCase<2> > >::_Vector_impl" }
%"struct.std::_Vector_base<dealii::RefinementCase<2>, std::allocator<dealii::RefinementCase<2> > >::_Vector_impl" = type { %"struct.std::_Vector_base<dealii::RefinementCase<2>, std::allocator<dealii::RefinementCase<2> > >::_Vector_impl_data" }
%"struct.std::_Vector_base<dealii::RefinementCase<2>, std::allocator<dealii::RefinementCase<2> > >::_Vector_impl_data" = type { ptr, ptr, ptr }
%"class.std::vector.107" = type { %"struct.std::_Vector_base.108" }
%"struct.std::_Vector_base.108" = type { %"struct.std::_Vector_base<unsigned char, std::allocator<unsigned char> >::_Vector_impl" }
%"struct.std::_Vector_base<unsigned char, std::allocator<unsigned char> >::_Vector_impl" = type { %"struct.std::_Vector_base<unsigned char, std::allocator<unsigned char> >::_Vector_impl_data" }
%"struct.std::_Vector_base<unsigned char, std::allocator<unsigned char> >::_Vector_impl_data" = type { ptr, ptr, ptr }
%"class.std::vector.112" = type { %"struct.std::_Vector_base.113" }
%"struct.std::_Vector_base.113" = type { %"struct.std::_Vector_base<dealii::internal::Triangulation::TriaObjects<dealii::internal::Triangulation::TriaObject<2> >::UserData, std::allocator<dealii::internal::Triangulation::TriaObjects<dealii::internal::Triangulation::TriaObject<2> >::UserData> >::_Vector_impl" }
%"struct.std::_Vector_base<dealii::internal::Triangulation::TriaObjects<dealii::internal::Triangulation::TriaObject<2> >::UserData, std::allocator<dealii::internal::Triangulation::TriaObjects<dealii::internal::Triangulation::TriaObject<2> >::UserData> >::_Vector_impl" = type { %"struct.std::_Vector_base<dealii::internal::Triangulation::TriaObjects<dealii::internal::Triangulation::TriaObject<2> >::UserData, std::allocator<dealii::internal::Triangulation::TriaObjects<dealii::internal::Triangulation::TriaObject<2> >::UserData> >::_Vector_impl_data" }
%"struct.std::_Vector_base<dealii::internal::Triangulation::TriaObjects<dealii::internal::Triangulation::TriaObject<2> >::UserData, std::allocator<dealii::internal::Triangulation::TriaObjects<dealii::internal::Triangulation::TriaObject<2> >::UserData> >::_Vector_impl_data" = type { ptr, ptr, ptr }
%"class.dealii::internal::Triangulation::TriaObjects.128" = type <{ %"class.std::vector.129", %"class.std::vector.58", %"class.std::vector.134", %"class.std::vector.73", %"class.std::vector.73", %"class.std::vector.107", i32, i32, i8, [7 x i8], %"class.std::vector.139", i32, [4 x i8] }>
%"class.std::vector.129" = type { %"struct.std::_Vector_base.130" }
%"struct.std::_Vector_base.130" = type { %"struct.std::_Vector_base<dealii::internal::Triangulation::TriaObject<1>, std::allocator<dealii::internal::Triangulation::TriaObject<1> > >::_Vector_impl" }
%"struct.std::_Vector_base<dealii::internal::Triangulation::TriaObject<1>, std::allocator<dealii::internal::Triangulation::TriaObject<1> > >::_Vector_impl" = type { %"struct.std::_Vector_base<dealii::internal::Triangulation::TriaObject<1>, std::allocator<dealii::internal::Triangulation::TriaObject<1> > >::_Vector_impl_data" }
%"struct.std::_Vector_base<dealii::internal::Triangulation::TriaObject<1>, std::allocator<dealii::internal::Triangulation::TriaObject<1> > >::_Vector_impl_data" = type { ptr, ptr, ptr }
%"class.std::vector.134" = type { %"struct.std::_Vector_base.135" }
%"struct.std::_Vector_base.135" = type { %"struct.std::_Vector_base<dealii::RefinementCase<1>, std::allocator<dealii::RefinementCase<1> > >::_Vector_impl" }
%"struct.std::_Vector_base<dealii::RefinementCase<1>, std::allocator<dealii::RefinementCase<1> > >::_Vector_impl" = type { %"struct.std::_Vector_base<dealii::RefinementCase<1>, std::allocator<dealii::RefinementCase<1> > >::_Vector_impl_data" }
%"struct.std::_Vector_base<dealii::RefinementCase<1>, std::allocator<dealii::RefinementCase<1> > >::_Vector_impl_data" = type { ptr, ptr, ptr }
%"class.std::vector.139" = type { %"struct.std::_Vector_base.140" }
%"struct.std::_Vector_base.140" = type { %"struct.std::_Vector_base<dealii::internal::Triangulation::TriaObjects<dealii::internal::Triangulation::TriaObject<1> >::UserData, std::allocator<dealii::internal::Triangulation::TriaObjects<dealii::internal::Triangulation::TriaObject<1> >::UserData> >::_Vector_impl" }
%"struct.std::_Vector_base<dealii::internal::Triangulation::TriaObjects<dealii::internal::Triangulation::TriaObject<1> >::UserData, std::allocator<dealii::internal::Triangulation::TriaObjects<dealii::internal::Triangulation::TriaObject<1> >::UserData> >::_Vector_impl" = type { %"struct.std::_Vector_base<dealii::internal::Triangulation::TriaObjects<dealii::internal::Triangulation::TriaObject<1> >::UserData, std::allocator<dealii::internal::Triangulation::TriaObjects<dealii::internal::Triangulation::TriaObject<1> >::UserData> >::_Vector_impl_data" }
%"struct.std::_Vector_base<dealii::internal::Triangulation::TriaObjects<dealii::internal::Triangulation::TriaObject<1> >::UserData, std::allocator<dealii::internal::Triangulation::TriaObjects<dealii::internal::Triangulation::TriaObject<1> >::UserData> >::_Vector_impl_data" = type { ptr, ptr, ptr }
%"class.dealii::internal::Triangulation::TriaObject" = type { [2 x i32] }
%"class.dealii::MGDoFHandler<3>::MGVertexDoFs" = type { i32, i32, ptr }
%"class.dealii::Vector.16" = type { %"class.dealii::Subscriptor", i32, i32, ptr }
%"class.dealii::DoFAccessor.18" = type { %"class.dealii::TriaAccessor.19", ptr }
%"class.dealii::TriaAccessor.19" = type { %"class.dealii::TriaAccessorBase.20" }
%"class.dealii::TriaAccessorBase.20" = type { i32, ptr }
%"class.dealii::MGDoFAccessor.17" = type { %"class.dealii::DoFAccessor.18", ptr }
%"class.dealii::internal::Triangulation::TriaObject.151" = type { [4 x i32] }
%"class.dealii::DoFAccessor.22" = type { %"class.dealii::CellAccessor", ptr }
%"class.dealii::CellAccessor" = type { %"class.dealii::TriaAccessor.23" }
%"class.dealii::TriaAccessor.23" = type { %"class.dealii::TriaAccessorBase.24" }
%"class.dealii::TriaAccessorBase.24" = type { i32, i32, ptr }
%"class.dealii::MGDoFAccessor.21" = type { %"class.dealii::DoFCellAccessor", ptr }
%"class.dealii::DoFCellAccessor" = type { %"class.dealii::DoFAccessor.22" }
%"class.dealii::internal::Triangulation::TriaLevel" = type { %"class.std::vector.107", %"class.std::vector.73", %"class.std::vector.155", %"class.std::vector.29", %"class.dealii::internal::Triangulation::TriaObjectsHex" }
%"class.std::vector.155" = type { %"struct.std::_Vector_base.156" }
%"struct.std::_Vector_base.156" = type { %"struct.std::_Vector_base<std::pair<int, int>, std::allocator<std::pair<int, int> > >::_Vector_impl" }
%"struct.std::_Vector_base<std::pair<int, int>, std::allocator<std::pair<int, int> > >::_Vector_impl" = type { %"struct.std::_Vector_base<std::pair<int, int>, std::allocator<std::pair<int, int> > >::_Vector_impl_data" }
%"struct.std::_Vector_base<std::pair<int, int>, std::allocator<std::pair<int, int> > >::_Vector_impl_data" = type { ptr, ptr, ptr }
%"class.dealii::internal::Triangulation::TriaObjectsHex" = type { %"class.dealii::internal::Triangulation::TriaObjects.base.176", %"class.std::vector.73", %"class.std::vector.73", %"class.std::vector.73" }
%"class.dealii::internal::Triangulation::TriaObjects.base.176" = type <{ %"class.std::vector.161", %"class.std::vector.58", %"class.std::vector.166", %"class.std::vector.73", %"class.std::vector.73", %"class.std::vector.107", i32, i32, i8, [7 x i8], %"class.std::vector.171", i32 }>
%"class.std::vector.161" = type { %"struct.std::_Vector_base.162" }
%"struct.std::_Vector_base.162" = type { %"struct.std::_Vector_base<dealii::internal::Triangulation::TriaObject<3>, std::allocator<dealii::internal::Triangulation::TriaObject<3> > >::_Vector_impl" }
%"struct.std::_Vector_base<dealii::internal::Triangulation::TriaObject<3>, std::allocator<dealii::internal::Triangulation::TriaObject<3> > >::_Vector_impl" = type { %"struct.std::_Vector_base<dealii::internal::Triangulation::TriaObject<3>, std::allocator<dealii::internal::Triangulation::TriaObject<3> > >::_Vector_impl_data" }
%"struct.std::_Vector_base<dealii::internal::Triangulation::TriaObject<3>, std::allocator<dealii::internal::Triangulation::TriaObject<3> > >::_Vector_impl_data" = type { ptr, ptr, ptr }
%"class.std::vector.166" = type { %"struct.std::_Vector_base.167" }
%"struct.std::_Vector_base.167" = type { %"struct.std::_Vector_base<dealii::RefinementCase<3>, std::allocator<dealii::RefinementCase<3> > >::_Vector_impl" }
%"struct.std::_Vector_base<dealii::RefinementCase<3>, std::allocator<dealii::RefinementCase<3> > >::_Vector_impl" = type { %"struct.std::_Vector_base<dealii::RefinementCase<3>, std::allocator<dealii::RefinementCase<3> > >::_Vector_impl_data" }
%"struct.std::_Vector_base<dealii::RefinementCase<3>, std::allocator<dealii::RefinementCase<3> > >::_Vector_impl_data" = type { ptr, ptr, ptr }
%"class.std::vector.171" = type { %"struct.std::_Vector_base.172" }
%"struct.std::_Vector_base.172" = type { %"struct.std::_Vector_base<dealii::internal::Triangulation::TriaObjects<dealii::internal::Triangulation::TriaObject<3> >::UserData, std::allocator<dealii::internal::Triangulation::TriaObjects<dealii::internal::Triangulation::TriaObject<3> >::UserData> >::_Vector_impl" }
%"struct.std::_Vector_base<dealii::internal::Triangulation::TriaObjects<dealii::internal::Triangulation::TriaObject<3> >::UserData, std::allocator<dealii::internal::Triangulation::TriaObjects<dealii::internal::Triangulation::TriaObject<3> >::UserData> >::_Vector_impl" = type { %"struct.std::_Vector_base<dealii::internal::Triangulation::TriaObjects<dealii::internal::Triangulation::TriaObject<3> >::UserData, std::allocator<dealii::internal::Triangulation::TriaObjects<dealii::internal::Triangulation::TriaObject<3> >::UserData> >::_Vector_impl_data" }
%"struct.std::_Vector_base<dealii::internal::Triangulation::TriaObjects<dealii::internal::Triangulation::TriaObject<3> >::UserData, std::allocator<dealii::internal::Triangulation::TriaObjects<dealii::internal::Triangulation::TriaObject<3> >::UserData> >::_Vector_impl_data" = type { ptr, ptr, ptr }
%"class.dealii::internal::Triangulation::TriaObject.177" = type { [6 x i32] }
%"class.dealii::internal::DoFHandler::DoFLevel" = type { %"class.dealii::internal::DoFHandler::DoFLevel.146", %"class.dealii::internal::DoFHandler::DoFObjects" }
%"class.dealii::internal::DoFHandler::DoFLevel.146" = type { %"class.std::vector.29" }
%"class.dealii::internal::DoFHandler::DoFObjects" = type { %"class.std::vector.29" }
%"class.dealii::TriaIterator" = type { %"class.dealii::TriaRawIterator" }
%"class.dealii::TriaRawIterator" = type { %"class.dealii::MGDoFAccessor" }
%"class.dealii::TriaIterator.83" = type { %"class.dealii::TriaRawIterator.84" }
%"class.dealii::TriaRawIterator.84" = type { %"class.dealii::MGDoFAccessor.17" }
%"class.dealii::internal::Triangulation::TriaObjects" = type <{ %"class.std::vector.97", %"class.std::vector.58", %"class.std::vector.102", %"class.std::vector.73", %"class.std::vector.73", %"class.std::vector.107", i32, i32, i8, [7 x i8], %"class.std::vector.112", i32, [4 x i8] }>
%"class.dealii::TriaIterator.86" = type { %"class.dealii::TriaRawIterator.87" }
%"class.dealii::TriaRawIterator.87" = type { %"class.dealii::MGDoFAccessor.21" }
%"class.dealii::TriaIterator.89" = type { %"class.dealii::TriaRawIterator.90" }
%"class.dealii::TriaRawIterator.90" = type { %"class.dealii::MGDoFCellAccessor" }
%"class.dealii::MGDoFCellAccessor" = type { %"class.dealii::MGDoFAccessor.21" }
%"struct.std::pair" = type { i32, i32 }
%"class.dealii::TriaIterator.92" = type { %"class.dealii::TriaRawIterator.93" }
%"class.dealii::TriaRawIterator.93" = type { %"class.dealii::CellAccessor" }
%"class.dealii::TriaRawIterator<dealii::MGDoFAccessor<1, 3> >::ExcDereferenceInvalidCell" = type { %"class.dealii::ExceptionBase.base", %"class.dealii::MGDoFAccessor" }
%"class.dealii::ExceptionBase.base" = type <{ %"class.std::exception", ptr, i32, [4 x i8], ptr, ptr, ptr, ptr, i32 }>
%"class.std::exception" = type { ptr }
%"class.std::basic_ios" = type { %"class.std::ios_base", ptr, i8, i8, ptr, ptr, ptr, ptr }
%"class.std::ios_base" = type { ptr, i64, i64, i32, i32, i32, ptr, %"struct.std::ios_base::_Words", [8 x %"struct.std::ios_base::_Words"], i32, ptr, %"class.std::locale" }
%"struct.std::ios_base::_Words" = type { ptr, i64 }
%"class.std::locale" = type { ptr }
%"class.std::ctype" = type <{ %"class.std::locale::facet.base", [4 x i8], ptr, i8, [7 x i8], ptr, ptr, ptr, i8, [256 x i8], [256 x i8], i8, [6 x i8] }>
%"class.std::locale::facet.base" = type <{ ptr, i32 }>
%"class.dealii::TriaRawIterator<dealii::MGDoFAccessor<1, 3> >::ExcDereferenceInvalidObject" = type { %"class.dealii::ExceptionBase.base", %"class.dealii::MGDoFAccessor" }
%"class.dealii::TriaActiveIterator" = type { %"class.dealii::TriaIterator" }
%"class.dealii::TriaRawIterator<dealii::MGDoFAccessor<2, 3> >::ExcDereferenceInvalidCell" = type { %"class.dealii::ExceptionBase.base", %"class.dealii::MGDoFAccessor.17" }
%"class.dealii::TriaRawIterator<dealii::MGDoFAccessor<2, 3> >::ExcDereferenceInvalidObject" = type { %"class.dealii::ExceptionBase.base", %"class.dealii::MGDoFAccessor.17" }
%"class.dealii::TriaActiveIterator.95" = type { %"class.dealii::TriaIterator.83" }
%"class.dealii::TriaRawIterator<dealii::MGDoFCellAccessor<3> >::ExcDereferenceInvalidCell" = type { %"class.dealii::ExceptionBase.base", %"class.dealii::MGDoFCellAccessor" }
%"class.dealii::TriaRawIterator<dealii::MGDoFCellAccessor<3> >::ExcDereferenceInvalidObject" = type { %"class.dealii::ExceptionBase.base", %"class.dealii::MGDoFCellAccessor" }
%"class.dealii::TriaActiveIterator.96" = type { %"class.dealii::TriaIterator.89" }

$_ZNK6dealii13MGDoFAccessorILi1ELi3ELi3EE17get_mg_dof_valuesIdEEviRKNS_6VectorIT_EERS5_ = comdat any

$_ZN6dealii8internal13MGDoFAccessor17get_mg_dof_valuesILi3ELi3EdEEvRKNS_13MGDoFAccessorILi1EXT_EXT0_EEEiRKNS_6VectorIT1_EERS9_ = comdat any

$_ZNK6dealii13MGDoFAccessorILi1ELi3ELi3EE17get_mg_dof_valuesIfEEviRKNS_6VectorIT_EERS5_ = comdat any

$_ZN6dealii8internal13MGDoFAccessor17get_mg_dof_valuesILi3ELi3EfEEvRKNS_13MGDoFAccessorILi1EXT_EXT0_EEEiRKNS_6VectorIT1_EERS9_ = comdat any

$_ZNK6dealii13MGDoFAccessorILi2ELi3ELi3EE17get_mg_dof_valuesIdEEviRKNS_6VectorIT_EERS5_ = comdat any

$_ZN6dealii8internal13MGDoFAccessor17get_mg_dof_valuesILi3ELi3EdEEvRKNS_13MGDoFAccessorILi2EXT_EXT0_EEEiRKNS_6VectorIT1_EERS9_ = comdat any

$_ZNK6dealii13MGDoFAccessorILi2ELi3ELi3EE17get_mg_dof_valuesIfEEviRKNS_6VectorIT_EERS5_ = comdat any

$_ZN6dealii8internal13MGDoFAccessor17get_mg_dof_valuesILi3ELi3EfEEvRKNS_13MGDoFAccessorILi2EXT_EXT0_EEEiRKNS_6VectorIT1_EERS9_ = comdat any

$_ZNK6dealii13MGDoFAccessorILi3ELi3ELi3EE17get_mg_dof_valuesIdEEviRKNS_6VectorIT_EERS5_ = comdat any

$_ZN6dealii8internal13MGDoFAccessor17get_mg_dof_valuesILi3ELi3EdEEvRKNS_13MGDoFAccessorILi3EXT_EXT0_EEEiRKNS_6VectorIT1_EERS9_ = comdat any

$_ZNK6dealii13MGDoFAccessorILi3ELi3ELi3EE17get_mg_dof_valuesIfEEviRKNS_6VectorIT_EERS5_ = comdat any

$_ZN6dealii8internal13MGDoFAccessor17get_mg_dof_valuesILi3ELi3EfEEvRKNS_13MGDoFAccessorILi3EXT_EXT0_EEEiRKNS_6VectorIT1_EERS9_ = comdat any

$_ZNK6dealii17MGDoFCellAccessorILi3ELi3EE17get_mg_dof_valuesIdEEvRKNS_6VectorIT_EERS5_ = comdat any

$_ZNK6dealii17MGDoFCellAccessorILi3ELi3EE17get_mg_dof_valuesIfEEvRKNS_6VectorIT_EERS5_ = comdat any

$_ZN6dealii13MGDoFAccessorILi1ELi3ELi3EEC5Ev = comdat any

$_ZN6dealii13MGDoFAccessorILi1ELi3ELi3EEC5EPKNS_13TriangulationILi3ELi3EEEiiPKNS_12MGDoFHandlerILi3ELi3EEE = comdat any

$_ZNK6dealii13MGDoFAccessorILi1ELi3ELi3EE18get_mg_dof_indicesEiRSt6vectorIjSaIjEE = comdat any

$_ZN6dealii8internal13MGDoFAccessor18get_mg_dof_indicesILi3ELi3EEEvRKNS_13MGDoFAccessorILi1EXT_EXT0_EEEiRSt6vectorIjSaIjEE = comdat any

$_ZNK6dealii13MGDoFAccessorILi1ELi3ELi3EE19mg_vertex_dof_indexEijj = comdat any

$_ZNK6dealii13MGDoFAccessorILi1ELi3ELi3EE12mg_dof_indexEij = comdat any

$_ZNK6dealii13MGDoFAccessorILi1ELi3ELi3EE5childEj = comdat any

$_ZNK6dealii13MGDoFAccessorILi1ELi3ELi3EE4lineEj = comdat any

$_ZNK6dealii13MGDoFAccessorILi1ELi3ELi3EE4quadEj = comdat any

$_ZN6dealii13MGDoFAccessorILi1ELi3ELi3EE9copy_fromERKS1_ = comdat any

$_ZN6dealii13MGDoFAccessorILi1ELi3ELi3EE18set_mg_dof_handlerEPNS_12MGDoFHandlerILi3ELi3EEE = comdat any

$_ZNK6dealii13MGDoFAccessorILi1ELi3ELi3EE23set_mg_vertex_dof_indexEijjj = comdat any

$_ZNK6dealii13MGDoFAccessorILi1ELi3ELi3EE16set_mg_dof_indexEijj = comdat any

$_ZN6dealii13MGDoFAccessorILi1ELi3ELi3EEaSERKS1_ = comdat any

$_ZN6dealii13MGDoFAccessorILi2ELi3ELi3EEC5Ev = comdat any

$_ZN6dealii13MGDoFAccessorILi2ELi3ELi3EEC5EPKNS_13TriangulationILi3ELi3EEEiiPKNS_12MGDoFHandlerILi3ELi3EEE = comdat any

$_ZNK6dealii13MGDoFAccessorILi2ELi3ELi3EE18get_mg_dof_indicesEiRSt6vectorIjSaIjEE = comdat any

$_ZN6dealii8internal13MGDoFAccessor18get_mg_dof_indicesILi3ELi3EEEvRKNS_13MGDoFAccessorILi2EXT_EXT0_EEEiRSt6vectorIjSaIjEE = comdat any

$_ZNK6dealii13MGDoFAccessorILi2ELi3ELi3EE19mg_vertex_dof_indexEijj = comdat any

$_ZNK6dealii13MGDoFAccessorILi2ELi3ELi3EE12mg_dof_indexEij = comdat any

$_ZNK6dealii13MGDoFAccessorILi2ELi3ELi3EE5childEj = comdat any

$_ZNK6dealii13MGDoFAccessorILi2ELi3ELi3EE4lineEj = comdat any

$_ZNK6dealii13MGDoFAccessorILi2ELi3ELi3EE4quadEj = comdat any

$_ZN6dealii13MGDoFAccessorILi2ELi3ELi3EE9copy_fromERKS1_ = comdat any

$_ZN6dealii13MGDoFAccessorILi2ELi3ELi3EE18set_mg_dof_handlerEPNS_12MGDoFHandlerILi3ELi3EEE = comdat any

$_ZNK6dealii13MGDoFAccessorILi2ELi3ELi3EE23set_mg_vertex_dof_indexEijjj = comdat any

$_ZNK6dealii13MGDoFAccessorILi2ELi3ELi3EE16set_mg_dof_indexEijj = comdat any

$_ZN6dealii13MGDoFAccessorILi2ELi3ELi3EEaSERKS1_ = comdat any

$_ZN6dealii13MGDoFAccessorILi3ELi3ELi3EEC5Ev = comdat any

$_ZN6dealii13MGDoFAccessorILi3ELi3ELi3EEC5EPKNS_13TriangulationILi3ELi3EEEiiPKNS_12MGDoFHandlerILi3ELi3EEE = comdat any

$_ZNK6dealii13MGDoFAccessorILi3ELi3ELi3EE18get_mg_dof_indicesEiRSt6vectorIjSaIjEE = comdat any

$_ZN6dealii8internal13MGDoFAccessor18get_mg_dof_indicesILi3ELi3EEEvRKNS_13MGDoFAccessorILi3EXT_EXT0_EEEiRSt6vectorIjSaIjEE = comdat any

$_ZNK6dealii13MGDoFAccessorILi3ELi3ELi3EE19mg_vertex_dof_indexEijj = comdat any

$_ZNK6dealii13MGDoFAccessorILi3ELi3ELi3EE12mg_dof_indexEij = comdat any

$_ZNK6dealii13MGDoFAccessorILi3ELi3ELi3EE5childEj = comdat any

$_ZNK6dealii13MGDoFAccessorILi3ELi3ELi3EE4lineEj = comdat any

$_ZNK6dealii13MGDoFAccessorILi3ELi3ELi3EE4quadEj = comdat any

$_ZN6dealii13MGDoFAccessorILi3ELi3ELi3EE9copy_fromERKS1_ = comdat any

$_ZN6dealii13MGDoFAccessorILi3ELi3ELi3EE18set_mg_dof_handlerEPNS_12MGDoFHandlerILi3ELi3EEE = comdat any

$_ZNK6dealii13MGDoFAccessorILi3ELi3ELi3EE23set_mg_vertex_dof_indexEijjj = comdat any

$_ZNK6dealii13MGDoFAccessorILi3ELi3ELi3EE16set_mg_dof_indexEijj = comdat any

$_ZN6dealii13MGDoFAccessorILi3ELi3ELi3EEaSERKS1_ = comdat any

$_ZN6dealii17MGDoFCellAccessorILi3ELi3EEC5EPKNS_13TriangulationILi3ELi3EEEiiPKNS_12MGDoFHandlerILi3ELi3EEE = comdat any

$_ZNK6dealii17MGDoFCellAccessorILi3ELi3EE18get_mg_dof_indicesERSt6vectorIjSaIjEE = comdat any

$_ZNK6dealii17MGDoFCellAccessorILi3ELi3EE8neighborEj = comdat any

$_ZNK6dealii17MGDoFCellAccessorILi3ELi3EE5childEj = comdat any

$_ZNK6dealii17MGDoFCellAccessorILi3ELi3EE4faceEj = comdat any

$_ZNK6dealii17MGDoFCellAccessorILi3ELi3EE25neighbor_child_on_subfaceEjj = comdat any

$_ZN6dealii15TriaRawIteratorINS_13MGDoFAccessorILi1ELi3ELi3EEEEC5Ev = comdat any

$_ZN6dealii15TriaRawIteratorINS_13MGDoFAccessorILi1ELi3ELi3EEEEC5ERKS3_ = comdat any

$_ZN6dealii15TriaRawIteratorINS_13MGDoFAccessorILi1ELi3ELi3EEEEC5ERKS2_ = comdat any

$_ZN6dealii15TriaRawIteratorINS_13MGDoFAccessorILi1ELi3ELi3EEEEC5EPKNS_13TriangulationILi3ELi3EEEiiPKNS_12MGDoFHandlerILi3ELi3EEE = comdat any

$_ZNK6dealii15TriaRawIteratorINS_13MGDoFAccessorILi1ELi3ELi3EEEEdeEv = comdat any

$_ZN6dealii15TriaRawIteratorINS_13MGDoFAccessorILi1ELi3ELi3EEEEdeEv = comdat any

$_ZNK6dealii15TriaRawIteratorINS_13MGDoFAccessorILi1ELi3ELi3EEEEptEv = comdat any

$_ZN6dealii15TriaRawIteratorINS_13MGDoFAccessorILi1ELi3ELi3EEEEptEv = comdat any

$_ZN6dealii15TriaRawIteratorINS_13MGDoFAccessorILi1ELi3ELi3EEEEaSERKS3_ = comdat any

$_ZNK6dealii15TriaRawIteratorINS_13MGDoFAccessorILi1ELi3ELi3EEEEeqERKS3_ = comdat any

$_ZNK6dealii15TriaRawIteratorINS_13MGDoFAccessorILi1ELi3ELi3EEEEneERKS3_ = comdat any

$_ZNK6dealii15TriaRawIteratorINS_13MGDoFAccessorILi1ELi3ELi3EEEEltERKS3_ = comdat any

$_ZNK6dealii15TriaRawIteratorINS_13MGDoFAccessorILi1ELi3ELi3EEEE5stateEv = comdat any

$_ZN6dealii15TriaRawIteratorINS_13MGDoFAccessorILi1ELi3ELi3EEEEppEv = comdat any

$_ZN6dealii15TriaRawIteratorINS_13MGDoFAccessorILi1ELi3ELi3EEEEppEi = comdat any

$_ZN6dealii15TriaRawIteratorINS_13MGDoFAccessorILi1ELi3ELi3EEEEmmEv = comdat any

$_ZN6dealii15TriaRawIteratorINS_13MGDoFAccessorILi1ELi3ELi3EEEEmmEi = comdat any

$_ZNK6dealii15TriaRawIteratorINS_13MGDoFAccessorILi1ELi3ELi3EEEE5printERSo = comdat any

$_ZNK6dealii15TriaRawIteratorINS_13MGDoFAccessorILi1ELi3ELi3EEEE18memory_consumptionEv = comdat any

$_ZN6dealii15TriaRawIteratorINS_13MGDoFAccessorILi1ELi3ELi3EEEE25ExcDereferenceInvalidCellC5ES2_ = comdat any

$_ZN6dealii15TriaRawIteratorINS_13MGDoFAccessorILi1ELi3ELi3EEEE25ExcDereferenceInvalidCellD5Ev = comdat any

$_ZNK6dealii15TriaRawIteratorINS_13MGDoFAccessorILi1ELi3ELi3EEEE25ExcDereferenceInvalidCell10print_infoERSo = comdat any

$_ZN6dealii15TriaRawIteratorINS_13MGDoFAccessorILi1ELi3ELi3EEEE27ExcDereferenceInvalidObjectC5ES2_ = comdat any

$_ZN6dealii15TriaRawIteratorINS_13MGDoFAccessorILi1ELi3ELi3EEEE27ExcDereferenceInvalidObjectD5Ev = comdat any

$_ZNK6dealii15TriaRawIteratorINS_13MGDoFAccessorILi1ELi3ELi3EEEE27ExcDereferenceInvalidObject10print_infoERSo = comdat any

$_ZN6dealii12TriaIteratorINS_13MGDoFAccessorILi1ELi3ELi3EEEEC5Ev = comdat any

$_ZN6dealii12TriaIteratorINS_13MGDoFAccessorILi1ELi3ELi3EEEEC5ERKS3_ = comdat any

$_ZN6dealii12TriaIteratorINS_13MGDoFAccessorILi1ELi3ELi3EEEEC5ERKNS_15TriaRawIteratorIS2_EE = comdat any

$_ZN6dealii12TriaIteratorINS_13MGDoFAccessorILi1ELi3ELi3EEEEC5EPKNS_13TriangulationILi3ELi3EEEiiPKNS_12MGDoFHandlerILi3ELi3EEE = comdat any

$_ZN6dealii12TriaIteratorINS_13MGDoFAccessorILi1ELi3ELi3EEEEaSERKS3_ = comdat any

$_ZN6dealii12TriaIteratorINS_13MGDoFAccessorILi1ELi3ELi3EEEEaSERKNS_15TriaRawIteratorIS2_EE = comdat any

$_ZN6dealii12TriaIteratorINS_13MGDoFAccessorILi1ELi3ELi3EEEEppEv = comdat any

$_ZN6dealii12TriaIteratorINS_13MGDoFAccessorILi1ELi3ELi3EEEEppEi = comdat any

$_ZN6dealii12TriaIteratorINS_13MGDoFAccessorILi1ELi3ELi3EEEEmmEv = comdat any

$_ZN6dealii12TriaIteratorINS_13MGDoFAccessorILi1ELi3ELi3EEEEmmEi = comdat any

$_ZN6dealii18TriaActiveIteratorINS_13MGDoFAccessorILi1ELi3ELi3EEEEC5Ev = comdat any

$_ZN6dealii18TriaActiveIteratorINS_13MGDoFAccessorILi1ELi3ELi3EEEEC5ERKS3_ = comdat any

$_ZN6dealii18TriaActiveIteratorINS_13MGDoFAccessorILi1ELi3ELi3EEEEC5ERKNS_15TriaRawIteratorIS2_EE = comdat any

$_ZN6dealii18TriaActiveIteratorINS_13MGDoFAccessorILi1ELi3ELi3EEEEC5ERKNS_12TriaIteratorIS2_EE = comdat any

$_ZN6dealii18TriaActiveIteratorINS_13MGDoFAccessorILi1ELi3ELi3EEEEC5EPKNS_13TriangulationILi3ELi3EEEiiPKNS_12MGDoFHandlerILi3ELi3EEE = comdat any

$_ZN6dealii18TriaActiveIteratorINS_13MGDoFAccessorILi1ELi3ELi3EEEEaSERKS3_ = comdat any

$_ZN6dealii18TriaActiveIteratorINS_13MGDoFAccessorILi1ELi3ELi3EEEEaSERKNS_15TriaRawIteratorIS2_EE = comdat any

$_ZN6dealii18TriaActiveIteratorINS_13MGDoFAccessorILi1ELi3ELi3EEEEaSERKNS_12TriaIteratorIS2_EE = comdat any

$_ZN6dealii18TriaActiveIteratorINS_13MGDoFAccessorILi1ELi3ELi3EEEEppEv = comdat any

$_ZN6dealii18TriaActiveIteratorINS_13MGDoFAccessorILi1ELi3ELi3EEEEppEi = comdat any

$_ZN6dealii18TriaActiveIteratorINS_13MGDoFAccessorILi1ELi3ELi3EEEEmmEv = comdat any

$_ZN6dealii18TriaActiveIteratorINS_13MGDoFAccessorILi1ELi3ELi3EEEEmmEi = comdat any

$_ZN6dealii15TriaRawIteratorINS_13MGDoFAccessorILi2ELi3ELi3EEEEC5Ev = comdat any

$_ZN6dealii15TriaRawIteratorINS_13MGDoFAccessorILi2ELi3ELi3EEEEC5ERKS3_ = comdat any

$_ZN6dealii15TriaRawIteratorINS_13MGDoFAccessorILi2ELi3ELi3EEEEC5ERKS2_ = comdat any

$_ZN6dealii15TriaRawIteratorINS_13MGDoFAccessorILi2ELi3ELi3EEEEC5EPKNS_13TriangulationILi3ELi3EEEiiPKNS_12MGDoFHandlerILi3ELi3EEE = comdat any

$_ZNK6dealii15TriaRawIteratorINS_13MGDoFAccessorILi2ELi3ELi3EEEEdeEv = comdat any

$_ZN6dealii15TriaRawIteratorINS_13MGDoFAccessorILi2ELi3ELi3EEEEdeEv = comdat any

$_ZNK6dealii15TriaRawIteratorINS_13MGDoFAccessorILi2ELi3ELi3EEEEptEv = comdat any

$_ZN6dealii15TriaRawIteratorINS_13MGDoFAccessorILi2ELi3ELi3EEEEptEv = comdat any

$_ZN6dealii15TriaRawIteratorINS_13MGDoFAccessorILi2ELi3ELi3EEEEaSERKS3_ = comdat any

$_ZNK6dealii15TriaRawIteratorINS_13MGDoFAccessorILi2ELi3ELi3EEEEeqERKS3_ = comdat any

$_ZNK6dealii15TriaRawIteratorINS_13MGDoFAccessorILi2ELi3ELi3EEEEneERKS3_ = comdat any

$_ZNK6dealii15TriaRawIteratorINS_13MGDoFAccessorILi2ELi3ELi3EEEEltERKS3_ = comdat any

$_ZNK6dealii15TriaRawIteratorINS_13MGDoFAccessorILi2ELi3ELi3EEEE5stateEv = comdat any

$_ZN6dealii15TriaRawIteratorINS_13MGDoFAccessorILi2ELi3ELi3EEEEppEv = comdat any

$_ZN6dealii15TriaRawIteratorINS_13MGDoFAccessorILi2ELi3ELi3EEEEppEi = comdat any

$_ZN6dealii15TriaRawIteratorINS_13MGDoFAccessorILi2ELi3ELi3EEEEmmEv = comdat any

$_ZN6dealii15TriaRawIteratorINS_13MGDoFAccessorILi2ELi3ELi3EEEEmmEi = comdat any

$_ZNK6dealii15TriaRawIteratorINS_13MGDoFAccessorILi2ELi3ELi3EEEE5printERSo = comdat any

$_ZNK6dealii15TriaRawIteratorINS_13MGDoFAccessorILi2ELi3ELi3EEEE18memory_consumptionEv = comdat any

$_ZN6dealii15TriaRawIteratorINS_13MGDoFAccessorILi2ELi3ELi3EEEE25ExcDereferenceInvalidCellC5ES2_ = comdat any

$_ZN6dealii15TriaRawIteratorINS_13MGDoFAccessorILi2ELi3ELi3EEEE25ExcDereferenceInvalidCellD5Ev = comdat any

$_ZNK6dealii15TriaRawIteratorINS_13MGDoFAccessorILi2ELi3ELi3EEEE25ExcDereferenceInvalidCell10print_infoERSo = comdat any

$_ZN6dealii15TriaRawIteratorINS_13MGDoFAccessorILi2ELi3ELi3EEEE27ExcDereferenceInvalidObjectC5ES2_ = comdat any

$_ZN6dealii15TriaRawIteratorINS_13MGDoFAccessorILi2ELi3ELi3EEEE27ExcDereferenceInvalidObjectD5Ev = comdat any

$_ZNK6dealii15TriaRawIteratorINS_13MGDoFAccessorILi2ELi3ELi3EEEE27ExcDereferenceInvalidObject10print_infoERSo = comdat any

$_ZN6dealii12TriaIteratorINS_13MGDoFAccessorILi2ELi3ELi3EEEEC5Ev = comdat any

$_ZN6dealii12TriaIteratorINS_13MGDoFAccessorILi2ELi3ELi3EEEEC5ERKS3_ = comdat any

$_ZN6dealii12TriaIteratorINS_13MGDoFAccessorILi2ELi3ELi3EEEEC5ERKNS_15TriaRawIteratorIS2_EE = comdat any

$_ZN6dealii12TriaIteratorINS_13MGDoFAccessorILi2ELi3ELi3EEEEC5EPKNS_13TriangulationILi3ELi3EEEiiPKNS_12MGDoFHandlerILi3ELi3EEE = comdat any

$_ZN6dealii12TriaIteratorINS_13MGDoFAccessorILi2ELi3ELi3EEEEaSERKS3_ = comdat any

$_ZN6dealii12TriaIteratorINS_13MGDoFAccessorILi2ELi3ELi3EEEEaSERKNS_15TriaRawIteratorIS2_EE = comdat any

$_ZN6dealii12TriaIteratorINS_13MGDoFAccessorILi2ELi3ELi3EEEEppEv = comdat any

$_ZN6dealii12TriaIteratorINS_13MGDoFAccessorILi2ELi3ELi3EEEEppEi = comdat any

$_ZN6dealii12TriaIteratorINS_13MGDoFAccessorILi2ELi3ELi3EEEEmmEv = comdat any

$_ZN6dealii12TriaIteratorINS_13MGDoFAccessorILi2ELi3ELi3EEEEmmEi = comdat any

$_ZN6dealii18TriaActiveIteratorINS_13MGDoFAccessorILi2ELi3ELi3EEEEC5Ev = comdat any

$_ZN6dealii18TriaActiveIteratorINS_13MGDoFAccessorILi2ELi3ELi3EEEEC5ERKS3_ = comdat any

$_ZN6dealii18TriaActiveIteratorINS_13MGDoFAccessorILi2ELi3ELi3EEEEC5ERKNS_15TriaRawIteratorIS2_EE = comdat any

$_ZN6dealii18TriaActiveIteratorINS_13MGDoFAccessorILi2ELi3ELi3EEEEC5ERKNS_12TriaIteratorIS2_EE = comdat any

$_ZN6dealii18TriaActiveIteratorINS_13MGDoFAccessorILi2ELi3ELi3EEEEC5EPKNS_13TriangulationILi3ELi3EEEiiPKNS_12MGDoFHandlerILi3ELi3EEE = comdat any

$_ZN6dealii18TriaActiveIteratorINS_13MGDoFAccessorILi2ELi3ELi3EEEEaSERKS3_ = comdat any

$_ZN6dealii18TriaActiveIteratorINS_13MGDoFAccessorILi2ELi3ELi3EEEEaSERKNS_15TriaRawIteratorIS2_EE = comdat any

$_ZN6dealii18TriaActiveIteratorINS_13MGDoFAccessorILi2ELi3ELi3EEEEaSERKNS_12TriaIteratorIS2_EE = comdat any

$_ZN6dealii18TriaActiveIteratorINS_13MGDoFAccessorILi2ELi3ELi3EEEEppEv = comdat any

$_ZN6dealii18TriaActiveIteratorINS_13MGDoFAccessorILi2ELi3ELi3EEEEppEi = comdat any

$_ZN6dealii18TriaActiveIteratorINS_13MGDoFAccessorILi2ELi3ELi3EEEEmmEv = comdat any

$_ZN6dealii18TriaActiveIteratorINS_13MGDoFAccessorILi2ELi3ELi3EEEEmmEi = comdat any

$_ZN6dealii15TriaRawIteratorINS_17MGDoFCellAccessorILi3ELi3EEEEC5Ev = comdat any

$_ZN6dealii15TriaRawIteratorINS_17MGDoFCellAccessorILi3ELi3EEEEC5ERKS3_ = comdat any

$_ZN6dealii15TriaRawIteratorINS_17MGDoFCellAccessorILi3ELi3EEEEC5ERKS2_ = comdat any

$_ZN6dealii15TriaRawIteratorINS_17MGDoFCellAccessorILi3ELi3EEEEC5EPKNS_13TriangulationILi3ELi3EEEiiPKNS_12MGDoFHandlerILi3ELi3EEE = comdat any

$_ZNK6dealii15TriaRawIteratorINS_17MGDoFCellAccessorILi3ELi3EEEEdeEv = comdat any

$_ZN6dealii15TriaRawIteratorINS_17MGDoFCellAccessorILi3ELi3EEEEdeEv = comdat any

$_ZNK6dealii15TriaRawIteratorINS_17MGDoFCellAccessorILi3ELi3EEEEptEv = comdat any

$_ZN6dealii15TriaRawIteratorINS_17MGDoFCellAccessorILi3ELi3EEEEptEv = comdat any

$_ZN6dealii15TriaRawIteratorINS_17MGDoFCellAccessorILi3ELi3EEEEaSERKS3_ = comdat any

$_ZNK6dealii15TriaRawIteratorINS_17MGDoFCellAccessorILi3ELi3EEEEeqERKS3_ = comdat any

$_ZNK6dealii15TriaRawIteratorINS_17MGDoFCellAccessorILi3ELi3EEEEneERKS3_ = comdat any

$_ZNK6dealii15TriaRawIteratorINS_17MGDoFCellAccessorILi3ELi3EEEEltERKS3_ = comdat any

$_ZNK6dealii15TriaRawIteratorINS_17MGDoFCellAccessorILi3ELi3EEEE5stateEv = comdat any

$_ZN6dealii15TriaRawIteratorINS_17MGDoFCellAccessorILi3ELi3EEEEppEv = comdat any

$_ZN6dealii15TriaRawIteratorINS_17MGDoFCellAccessorILi3ELi3EEEEppEi = comdat any

$_ZN6dealii15TriaRawIteratorINS_17MGDoFCellAccessorILi3ELi3EEEEmmEv = comdat any

$_ZN6dealii15TriaRawIteratorINS_17MGDoFCellAccessorILi3ELi3EEEEmmEi = comdat any

$_ZNK6dealii15TriaRawIteratorINS_17MGDoFCellAccessorILi3ELi3EEEE5printERSo = comdat any

$_ZNK6dealii15TriaRawIteratorINS_17MGDoFCellAccessorILi3ELi3EEEE18memory_consumptionEv = comdat any

$_ZN6dealii15TriaRawIteratorINS_17MGDoFCellAccessorILi3ELi3EEEE25ExcDereferenceInvalidCellC5ES2_ = comdat any

$_ZN6dealii15TriaRawIteratorINS_17MGDoFCellAccessorILi3ELi3EEEE25ExcDereferenceInvalidCellD5Ev = comdat any

$_ZNK6dealii15TriaRawIteratorINS_17MGDoFCellAccessorILi3ELi3EEEE25ExcDereferenceInvalidCell10print_infoERSo = comdat any

$_ZN6dealii15TriaRawIteratorINS_17MGDoFCellAccessorILi3ELi3EEEE27ExcDereferenceInvalidObjectC5ES2_ = comdat any

$_ZN6dealii15TriaRawIteratorINS_17MGDoFCellAccessorILi3ELi3EEEE27ExcDereferenceInvalidObjectD5Ev = comdat any

$_ZNK6dealii15TriaRawIteratorINS_17MGDoFCellAccessorILi3ELi3EEEE27ExcDereferenceInvalidObject10print_infoERSo = comdat any

$_ZN6dealii12TriaIteratorINS_17MGDoFCellAccessorILi3ELi3EEEEC5Ev = comdat any

$_ZN6dealii12TriaIteratorINS_17MGDoFCellAccessorILi3ELi3EEEEC5ERKS3_ = comdat any

$_ZN6dealii12TriaIteratorINS_17MGDoFCellAccessorILi3ELi3EEEEC5ERKNS_15TriaRawIteratorIS2_EE = comdat any

$_ZN6dealii12TriaIteratorINS_17MGDoFCellAccessorILi3ELi3EEEEC5EPKNS_13TriangulationILi3ELi3EEEiiPKNS_12MGDoFHandlerILi3ELi3EEE = comdat any

$_ZN6dealii12TriaIteratorINS_17MGDoFCellAccessorILi3ELi3EEEEaSERKS3_ = comdat any

$_ZN6dealii12TriaIteratorINS_17MGDoFCellAccessorILi3ELi3EEEEaSERKNS_15TriaRawIteratorIS2_EE = comdat any

$_ZN6dealii12TriaIteratorINS_17MGDoFCellAccessorILi3ELi3EEEEppEv = comdat any

$_ZN6dealii12TriaIteratorINS_17MGDoFCellAccessorILi3ELi3EEEEppEi = comdat any

$_ZN6dealii12TriaIteratorINS_17MGDoFCellAccessorILi3ELi3EEEEmmEv = comdat any

$_ZN6dealii12TriaIteratorINS_17MGDoFCellAccessorILi3ELi3EEEEmmEi = comdat any

$_ZN6dealii18TriaActiveIteratorINS_17MGDoFCellAccessorILi3ELi3EEEEC5Ev = comdat any

$_ZN6dealii18TriaActiveIteratorINS_17MGDoFCellAccessorILi3ELi3EEEEC5ERKS3_ = comdat any

$_ZN6dealii18TriaActiveIteratorINS_17MGDoFCellAccessorILi3ELi3EEEEC5ERKNS_15TriaRawIteratorIS2_EE = comdat any

$_ZN6dealii18TriaActiveIteratorINS_17MGDoFCellAccessorILi3ELi3EEEEC5ERKNS_12TriaIteratorIS2_EE = comdat any

$_ZN6dealii18TriaActiveIteratorINS_17MGDoFCellAccessorILi3ELi3EEEEC5EPKNS_13TriangulationILi3ELi3EEEiiPKNS_12MGDoFHandlerILi3ELi3EEE = comdat any

$_ZN6dealii18TriaActiveIteratorINS_17MGDoFCellAccessorILi3ELi3EEEEaSERKS3_ = comdat any

$_ZN6dealii18TriaActiveIteratorINS_17MGDoFCellAccessorILi3ELi3EEEEaSERKNS_15TriaRawIteratorIS2_EE = comdat any

$_ZN6dealii18TriaActiveIteratorINS_17MGDoFCellAccessorILi3ELi3EEEEaSERKNS_12TriaIteratorIS2_EE = comdat any

$_ZN6dealii18TriaActiveIteratorINS_17MGDoFCellAccessorILi3ELi3EEEEppEv = comdat any

$_ZN6dealii18TriaActiveIteratorINS_17MGDoFCellAccessorILi3ELi3EEEEppEi = comdat any

$_ZN6dealii18TriaActiveIteratorINS_17MGDoFCellAccessorILi3ELi3EEEEmmEv = comdat any

$_ZN6dealii18TriaActiveIteratorINS_17MGDoFCellAccessorILi3ELi3EEEEmmEi = comdat any

$_ZN6dealii13MGDoFAccessorILi1ELi3ELi3EE16ExcInvalidObjectD0Ev = comdat any

$_ZN6dealii13MGDoFAccessorILi2ELi3ELi3EE16ExcInvalidObjectD0Ev = comdat any

$_ZN6dealii13MGDoFAccessorILi3ELi3ELi3EE16ExcInvalidObjectD0Ev = comdat any

$_ZN6dealii15TriaRawIteratorINS_13MGDoFAccessorILi1ELi3ELi3EEEE23ExcAdvanceInvalidObjectD0Ev = comdat any

$_ZN6dealii15TriaRawIteratorINS_13MGDoFAccessorILi1ELi3ELi3EEEE20ExcInvalidComparisonD0Ev = comdat any

$_ZN6dealii12TriaIteratorINS_13MGDoFAccessorILi1ELi3ELi3EEEE27ExcAssignmentOfUnusedObjectD0Ev = comdat any

$_ZN6dealii18TriaActiveIteratorINS_13MGDoFAccessorILi1ELi3ELi3EEEE29ExcAssignmentOfInactiveObjectD0Ev = comdat any

$_ZN6dealii15TriaRawIteratorINS_13MGDoFAccessorILi2ELi3ELi3EEEE23ExcAdvanceInvalidObjectD0Ev = comdat any

$_ZN6dealii15TriaRawIteratorINS_13MGDoFAccessorILi2ELi3ELi3EEEE20ExcInvalidComparisonD0Ev = comdat any

$_ZN6dealii12TriaIteratorINS_13MGDoFAccessorILi2ELi3ELi3EEEE27ExcAssignmentOfUnusedObjectD0Ev = comdat any

$_ZN6dealii18TriaActiveIteratorINS_13MGDoFAccessorILi2ELi3ELi3EEEE29ExcAssignmentOfInactiveObjectD0Ev = comdat any

$_ZN6dealii15TriaRawIteratorINS_17MGDoFCellAccessorILi3ELi3EEEE23ExcAdvanceInvalidObjectD0Ev = comdat any

$_ZN6dealii15TriaRawIteratorINS_17MGDoFCellAccessorILi3ELi3EEEE20ExcInvalidComparisonD0Ev = comdat any

$_ZN6dealii12TriaIteratorINS_17MGDoFCellAccessorILi3ELi3EEEE27ExcAssignmentOfUnusedObjectD0Ev = comdat any

$_ZN6dealii18TriaActiveIteratorINS_17MGDoFCellAccessorILi3ELi3EEEE29ExcAssignmentOfInactiveObjectD0Ev = comdat any

$_ZTVN6dealii15TriaRawIteratorINS_13MGDoFAccessorILi1ELi3ELi3EEEE25ExcDereferenceInvalidCellE = comdat any

$_ZTVN6dealii15TriaRawIteratorINS_13MGDoFAccessorILi1ELi3ELi3EEEE27ExcDereferenceInvalidObjectE = comdat any

$_ZTVN6dealii15TriaRawIteratorINS_13MGDoFAccessorILi2ELi3ELi3EEEE25ExcDereferenceInvalidCellE = comdat any

$_ZTVN6dealii15TriaRawIteratorINS_13MGDoFAccessorILi2ELi3ELi3EEEE27ExcDereferenceInvalidObjectE = comdat any

$_ZTVN6dealii15TriaRawIteratorINS_17MGDoFCellAccessorILi3ELi3EEEE25ExcDereferenceInvalidCellE = comdat any

$_ZTVN6dealii15TriaRawIteratorINS_17MGDoFCellAccessorILi3ELi3EEEE27ExcDereferenceInvalidObjectE = comdat any

$_ZTVN6dealii13MGDoFAccessorILi1ELi3ELi3EE16ExcInvalidObjectE = comdat any

$_ZTSN6dealii13MGDoFAccessorILi1ELi3ELi3EE16ExcInvalidObjectE = comdat any

$_ZTIN6dealii13MGDoFAccessorILi1ELi3ELi3EE16ExcInvalidObjectE = comdat any

$_ZTVN6dealii13MGDoFAccessorILi2ELi3ELi3EE16ExcInvalidObjectE = comdat any

$_ZTSN6dealii13MGDoFAccessorILi2ELi3ELi3EE16ExcInvalidObjectE = comdat any

$_ZTIN6dealii13MGDoFAccessorILi2ELi3ELi3EE16ExcInvalidObjectE = comdat any

$_ZTVN6dealii13MGDoFAccessorILi3ELi3ELi3EE16ExcInvalidObjectE = comdat any

$_ZTSN6dealii13MGDoFAccessorILi3ELi3ELi3EE16ExcInvalidObjectE = comdat any

$_ZTIN6dealii13MGDoFAccessorILi3ELi3ELi3EE16ExcInvalidObjectE = comdat any

$_ZTSN6dealii15TriaRawIteratorINS_13MGDoFAccessorILi1ELi3ELi3EEEE25ExcDereferenceInvalidCellE = comdat any

$_ZTIN6dealii15TriaRawIteratorINS_13MGDoFAccessorILi1ELi3ELi3EEEE25ExcDereferenceInvalidCellE = comdat any

$_ZTSN6dealii15TriaRawIteratorINS_13MGDoFAccessorILi1ELi3ELi3EEEE27ExcDereferenceInvalidObjectE = comdat any

$_ZTIN6dealii15TriaRawIteratorINS_13MGDoFAccessorILi1ELi3ELi3EEEE27ExcDereferenceInvalidObjectE = comdat any

$_ZTVN6dealii15TriaRawIteratorINS_13MGDoFAccessorILi1ELi3ELi3EEEE23ExcAdvanceInvalidObjectE = comdat any

$_ZTSN6dealii15TriaRawIteratorINS_13MGDoFAccessorILi1ELi3ELi3EEEE23ExcAdvanceInvalidObjectE = comdat any

$_ZTIN6dealii15TriaRawIteratorINS_13MGDoFAccessorILi1ELi3ELi3EEEE23ExcAdvanceInvalidObjectE = comdat any

$_ZTVN6dealii15TriaRawIteratorINS_13MGDoFAccessorILi1ELi3ELi3EEEE20ExcInvalidComparisonE = comdat any

$_ZTSN6dealii15TriaRawIteratorINS_13MGDoFAccessorILi1ELi3ELi3EEEE20ExcInvalidComparisonE = comdat any

$_ZTIN6dealii15TriaRawIteratorINS_13MGDoFAccessorILi1ELi3ELi3EEEE20ExcInvalidComparisonE = comdat any

$_ZTVN6dealii12TriaIteratorINS_13MGDoFAccessorILi1ELi3ELi3EEEE27ExcAssignmentOfUnusedObjectE = comdat any

$_ZTSN6dealii12TriaIteratorINS_13MGDoFAccessorILi1ELi3ELi3EEEE27ExcAssignmentOfUnusedObjectE = comdat any

$_ZTIN6dealii12TriaIteratorINS_13MGDoFAccessorILi1ELi3ELi3EEEE27ExcAssignmentOfUnusedObjectE = comdat any

$_ZTVN6dealii18TriaActiveIteratorINS_13MGDoFAccessorILi1ELi3ELi3EEEE29ExcAssignmentOfInactiveObjectE = comdat any

$_ZTSN6dealii18TriaActiveIteratorINS_13MGDoFAccessorILi1ELi3ELi3EEEE29ExcAssignmentOfInactiveObjectE = comdat any

$_ZTIN6dealii18TriaActiveIteratorINS_13MGDoFAccessorILi1ELi3ELi3EEEE29ExcAssignmentOfInactiveObjectE = comdat any

$_ZTSN6dealii15TriaRawIteratorINS_13MGDoFAccessorILi2ELi3ELi3EEEE25ExcDereferenceInvalidCellE = comdat any

$_ZTIN6dealii15TriaRawIteratorINS_13MGDoFAccessorILi2ELi3ELi3EEEE25ExcDereferenceInvalidCellE = comdat any

$_ZTSN6dealii15TriaRawIteratorINS_13MGDoFAccessorILi2ELi3ELi3EEEE27ExcDereferenceInvalidObjectE = comdat any

$_ZTIN6dealii15TriaRawIteratorINS_13MGDoFAccessorILi2ELi3ELi3EEEE27ExcDereferenceInvalidObjectE = comdat any

$_ZTVN6dealii15TriaRawIteratorINS_13MGDoFAccessorILi2ELi3ELi3EEEE23ExcAdvanceInvalidObjectE = comdat any

$_ZTSN6dealii15TriaRawIteratorINS_13MGDoFAccessorILi2ELi3ELi3EEEE23ExcAdvanceInvalidObjectE = comdat any

$_ZTIN6dealii15TriaRawIteratorINS_13MGDoFAccessorILi2ELi3ELi3EEEE23ExcAdvanceInvalidObjectE = comdat any

$_ZTVN6dealii15TriaRawIteratorINS_13MGDoFAccessorILi2ELi3ELi3EEEE20ExcInvalidComparisonE = comdat any

$_ZTSN6dealii15TriaRawIteratorINS_13MGDoFAccessorILi2ELi3ELi3EEEE20ExcInvalidComparisonE = comdat any

$_ZTIN6dealii15TriaRawIteratorINS_13MGDoFAccessorILi2ELi3ELi3EEEE20ExcInvalidComparisonE = comdat any

$_ZTVN6dealii12TriaIteratorINS_13MGDoFAccessorILi2ELi3ELi3EEEE27ExcAssignmentOfUnusedObjectE = comdat any

$_ZTSN6dealii12TriaIteratorINS_13MGDoFAccessorILi2ELi3ELi3EEEE27ExcAssignmentOfUnusedObjectE = comdat any

$_ZTIN6dealii12TriaIteratorINS_13MGDoFAccessorILi2ELi3ELi3EEEE27ExcAssignmentOfUnusedObjectE = comdat any

$_ZTVN6dealii18TriaActiveIteratorINS_13MGDoFAccessorILi2ELi3ELi3EEEE29ExcAssignmentOfInactiveObjectE = comdat any

$_ZTSN6dealii18TriaActiveIteratorINS_13MGDoFAccessorILi2ELi3ELi3EEEE29ExcAssignmentOfInactiveObjectE = comdat any

$_ZTIN6dealii18TriaActiveIteratorINS_13MGDoFAccessorILi2ELi3ELi3EEEE29ExcAssignmentOfInactiveObjectE = comdat any

$_ZTSN6dealii15TriaRawIteratorINS_17MGDoFCellAccessorILi3ELi3EEEE25ExcDereferenceInvalidCellE = comdat any

$_ZTIN6dealii15TriaRawIteratorINS_17MGDoFCellAccessorILi3ELi3EEEE25ExcDereferenceInvalidCellE = comdat any

$_ZTSN6dealii15TriaRawIteratorINS_17MGDoFCellAccessorILi3ELi3EEEE27ExcDereferenceInvalidObjectE = comdat any

$_ZTIN6dealii15TriaRawIteratorINS_17MGDoFCellAccessorILi3ELi3EEEE27ExcDereferenceInvalidObjectE = comdat any

$_ZTVN6dealii15TriaRawIteratorINS_17MGDoFCellAccessorILi3ELi3EEEE23ExcAdvanceInvalidObjectE = comdat any

$_ZTSN6dealii15TriaRawIteratorINS_17MGDoFCellAccessorILi3ELi3EEEE23ExcAdvanceInvalidObjectE = comdat any

$_ZTIN6dealii15TriaRawIteratorINS_17MGDoFCellAccessorILi3ELi3EEEE23ExcAdvanceInvalidObjectE = comdat any

$_ZTVN6dealii15TriaRawIteratorINS_17MGDoFCellAccessorILi3ELi3EEEE20ExcInvalidComparisonE = comdat any

$_ZTSN6dealii15TriaRawIteratorINS_17MGDoFCellAccessorILi3ELi3EEEE20ExcInvalidComparisonE = comdat any

$_ZTIN6dealii15TriaRawIteratorINS_17MGDoFCellAccessorILi3ELi3EEEE20ExcInvalidComparisonE = comdat any

$_ZTVN6dealii12TriaIteratorINS_17MGDoFCellAccessorILi3ELi3EEEE27ExcAssignmentOfUnusedObjectE = comdat any

$_ZTSN6dealii12TriaIteratorINS_17MGDoFCellAccessorILi3ELi3EEEE27ExcAssignmentOfUnusedObjectE = comdat any

$_ZTIN6dealii12TriaIteratorINS_17MGDoFCellAccessorILi3ELi3EEEE27ExcAssignmentOfUnusedObjectE = comdat any

$_ZTVN6dealii18TriaActiveIteratorINS_17MGDoFCellAccessorILi3ELi3EEEE29ExcAssignmentOfInactiveObjectE = comdat any

$_ZTSN6dealii18TriaActiveIteratorINS_17MGDoFCellAccessorILi3ELi3EEEE29ExcAssignmentOfInactiveObjectE = comdat any

$_ZTIN6dealii18TriaActiveIteratorINS_17MGDoFCellAccessorILi3ELi3EEEE29ExcAssignmentOfInactiveObjectE = comdat any

$_ZZN6dealii8internal12TriaAccessor14Implementation12vertex_indexILi3ELi3EEEjRKNS_12TriaAccessorILi2EXT_EXT0_EEEjE12switch_table = comdat any

$_ZZN6dealii8internal12TriaAccessor14Implementation10line_indexILi3ELi3EEEjRKNS_12TriaAccessorILi3EXT_EXT0_EEEjE12lookup_table = comdat any

@_ZTVN6dealii15TriaRawIteratorINS_13MGDoFAccessorILi1ELi3ELi3EEEE25ExcDereferenceInvalidCellE = weak_odr dso_local unnamed_addr constant { [6 x ptr] } { [6 x ptr] [ptr null, ptr @_ZTIN6dealii15TriaRawIteratorINS_13MGDoFAccessorILi1ELi3ELi3EEEE25ExcDereferenceInvalidCellE, ptr @_ZN6dealii15TriaRawIteratorINS_13MGDoFAccessorILi1ELi3ELi3EEEE25ExcDereferenceInvalidCellD2Ev, ptr @_ZN6dealii15TriaRawIteratorINS_13MGDoFAccessorILi1ELi3ELi3EEEE25ExcDereferenceInvalidCellD0Ev, ptr @_ZNK6dealii13ExceptionBase4whatEv, ptr @_ZNK6dealii15TriaRawIteratorINS_13MGDoFAccessorILi1ELi3ELi3EEEE25ExcDereferenceInvalidCell10print_infoERSo] }, comdat, align 8
@.str = private unnamed_addr constant [57 x i8] c"You tried to dereference a cell iterator for which this \00", align 1
@.str.9 = private unnamed_addr constant [53 x i8] c"is not possible. More information on this iterator: \00", align 1
@.str.10 = private unnamed_addr constant [7 x i8] c"level=\00", align 1
@.str.11 = private unnamed_addr constant [9 x i8] c", index=\00", align 1
@.str.12 = private unnamed_addr constant [9 x i8] c", state=\00", align 1
@.str.13 = private unnamed_addr constant [6 x i8] c"valid\00", align 1
@.str.14 = private unnamed_addr constant [13 x i8] c"past_the_end\00", align 1
@.str.15 = private unnamed_addr constant [8 x i8] c"invalid\00", align 1
@_ZTVN6dealii15TriaRawIteratorINS_13MGDoFAccessorILi1ELi3ELi3EEEE27ExcDereferenceInvalidObjectE = weak_odr dso_local unnamed_addr constant { [6 x ptr] } { [6 x ptr] [ptr null, ptr @_ZTIN6dealii15TriaRawIteratorINS_13MGDoFAccessorILi1ELi3ELi3EEEE27ExcDereferenceInvalidObjectE, ptr @_ZN6dealii15TriaRawIteratorINS_13MGDoFAccessorILi1ELi3ELi3EEEE27ExcDereferenceInvalidObjectD2Ev, ptr @_ZN6dealii15TriaRawIteratorINS_13MGDoFAccessorILi1ELi3ELi3EEEE27ExcDereferenceInvalidObjectD0Ev, ptr @_ZNK6dealii13ExceptionBase4whatEv, ptr @_ZNK6dealii15TriaRawIteratorINS_13MGDoFAccessorILi1ELi3ELi3EEEE27ExcDereferenceInvalidObject10print_infoERSo] }, comdat, align 8
@.str.16 = private unnamed_addr constant [53 x i8] c"You tried to dereference an iterator for which this \00", align 1
@.str.17 = private unnamed_addr constant [7 x i8] c"index=\00", align 1
@_ZTVN6dealii15TriaRawIteratorINS_13MGDoFAccessorILi2ELi3ELi3EEEE25ExcDereferenceInvalidCellE = weak_odr dso_local unnamed_addr constant { [6 x ptr] } { [6 x ptr] [ptr null, ptr @_ZTIN6dealii15TriaRawIteratorINS_13MGDoFAccessorILi2ELi3ELi3EEEE25ExcDereferenceInvalidCellE, ptr @_ZN6dealii15TriaRawIteratorINS_13MGDoFAccessorILi2ELi3ELi3EEEE25ExcDereferenceInvalidCellD2Ev, ptr @_ZN6dealii15TriaRawIteratorINS_13MGDoFAccessorILi2ELi3ELi3EEEE25ExcDereferenceInvalidCellD0Ev, ptr @_ZNK6dealii13ExceptionBase4whatEv, ptr @_ZNK6dealii15TriaRawIteratorINS_13MGDoFAccessorILi2ELi3ELi3EEEE25ExcDereferenceInvalidCell10print_infoERSo] }, comdat, align 8
@_ZTVN6dealii15TriaRawIteratorINS_13MGDoFAccessorILi2ELi3ELi3EEEE27ExcDereferenceInvalidObjectE = weak_odr dso_local unnamed_addr constant { [6 x ptr] } { [6 x ptr] [ptr null, ptr @_ZTIN6dealii15TriaRawIteratorINS_13MGDoFAccessorILi2ELi3ELi3EEEE27ExcDereferenceInvalidObjectE, ptr @_ZN6dealii15TriaRawIteratorINS_13MGDoFAccessorILi2ELi3ELi3EEEE27ExcDereferenceInvalidObjectD2Ev, ptr @_ZN6dealii15TriaRawIteratorINS_13MGDoFAccessorILi2ELi3ELi3EEEE27ExcDereferenceInvalidObjectD0Ev, ptr @_ZNK6dealii13ExceptionBase4whatEv, ptr @_ZNK6dealii15TriaRawIteratorINS_13MGDoFAccessorILi2ELi3ELi3EEEE27ExcDereferenceInvalidObject10print_infoERSo] }, comdat, align 8
@.str.18 = private unnamed_addr constant [2 x i8] c".\00", align 1
@_ZTVN6dealii15TriaRawIteratorINS_17MGDoFCellAccessorILi3ELi3EEEE25ExcDereferenceInvalidCellE = weak_odr dso_local unnamed_addr constant { [6 x ptr] } { [6 x ptr] [ptr null, ptr @_ZTIN6dealii15TriaRawIteratorINS_17MGDoFCellAccessorILi3ELi3EEEE25ExcDereferenceInvalidCellE, ptr @_ZN6dealii15TriaRawIteratorINS_17MGDoFCellAccessorILi3ELi3EEEE25ExcDereferenceInvalidCellD2Ev, ptr @_ZN6dealii15TriaRawIteratorINS_17MGDoFCellAccessorILi3ELi3EEEE25ExcDereferenceInvalidCellD0Ev, ptr @_ZNK6dealii13ExceptionBase4whatEv, ptr @_ZNK6dealii15TriaRawIteratorINS_17MGDoFCellAccessorILi3ELi3EEEE25ExcDereferenceInvalidCell10print_infoERSo] }, comdat, align 8
@_ZTVN6dealii15TriaRawIteratorINS_17MGDoFCellAccessorILi3ELi3EEEE27ExcDereferenceInvalidObjectE = weak_odr dso_local unnamed_addr constant { [6 x ptr] } { [6 x ptr] [ptr null, ptr @_ZTIN6dealii15TriaRawIteratorINS_17MGDoFCellAccessorILi3ELi3EEEE27ExcDereferenceInvalidObjectE, ptr @_ZN6dealii15TriaRawIteratorINS_17MGDoFCellAccessorILi3ELi3EEEE27ExcDereferenceInvalidObjectD2Ev, ptr @_ZN6dealii15TriaRawIteratorINS_17MGDoFCellAccessorILi3ELi3EEEE27ExcDereferenceInvalidObjectD0Ev, ptr @_ZNK6dealii13ExceptionBase4whatEv, ptr @_ZNK6dealii15TriaRawIteratorINS_17MGDoFCellAccessorILi3ELi3EEEE27ExcDereferenceInvalidObject10print_infoERSo] }, comdat, align 8
@_ZTVN6dealii13MGDoFAccessorILi1ELi3ELi3EE16ExcInvalidObjectE = weak_odr dso_local unnamed_addr constant { [6 x ptr] } { [6 x ptr] [ptr null, ptr @_ZTIN6dealii13MGDoFAccessorILi1ELi3ELi3EE16ExcInvalidObjectE, ptr @_ZN6dealii13ExceptionBaseD2Ev, ptr @_ZN6dealii13MGDoFAccessorILi1ELi3ELi3EE16ExcInvalidObjectD0Ev, ptr @_ZNK6dealii13ExceptionBase4whatEv, ptr @_ZNK6dealii13ExceptionBase10print_infoERSo] }, comdat, align 8
@_ZTVN10__cxxabiv120__si_class_type_infoE = external global ptr
@_ZTSN6dealii13MGDoFAccessorILi1ELi3ELi3EE16ExcInvalidObjectE = weak_odr dso_local constant [57 x i8] c"N6dealii13MGDoFAccessorILi1ELi3ELi3EE16ExcInvalidObjectE\00", comdat, align 1
@_ZTIN6dealii13ExceptionBaseE = external constant ptr
@_ZTIN6dealii13MGDoFAccessorILi1ELi3ELi3EE16ExcInvalidObjectE = weak_odr dso_local constant { ptr, ptr, ptr } { ptr getelementptr inbounds (ptr, ptr @_ZTVN10__cxxabiv120__si_class_type_infoE, i64 2), ptr @_ZTSN6dealii13MGDoFAccessorILi1ELi3ELi3EE16ExcInvalidObjectE, ptr @_ZTIN6dealii13ExceptionBaseE }, comdat, align 8
@_ZTVN6dealii13MGDoFAccessorILi2ELi3ELi3EE16ExcInvalidObjectE = weak_odr dso_local unnamed_addr constant { [6 x ptr] } { [6 x ptr] [ptr null, ptr @_ZTIN6dealii13MGDoFAccessorILi2ELi3ELi3EE16ExcInvalidObjectE, ptr @_ZN6dealii13ExceptionBaseD2Ev, ptr @_ZN6dealii13MGDoFAccessorILi2ELi3ELi3EE16ExcInvalidObjectD0Ev, ptr @_ZNK6dealii13ExceptionBase4whatEv, ptr @_ZNK6dealii13ExceptionBase10print_infoERSo] }, comdat, align 8
@_ZTSN6dealii13MGDoFAccessorILi2ELi3ELi3EE16ExcInvalidObjectE = weak_odr dso_local constant [57 x i8] c"N6dealii13MGDoFAccessorILi2ELi3ELi3EE16ExcInvalidObjectE\00", comdat, align 1
@_ZTIN6dealii13MGDoFAccessorILi2ELi3ELi3EE16ExcInvalidObjectE = weak_odr dso_local constant { ptr, ptr, ptr } { ptr getelementptr inbounds (ptr, ptr @_ZTVN10__cxxabiv120__si_class_type_infoE, i64 2), ptr @_ZTSN6dealii13MGDoFAccessorILi2ELi3ELi3EE16ExcInvalidObjectE, ptr @_ZTIN6dealii13ExceptionBaseE }, comdat, align 8
@_ZTVN6dealii13MGDoFAccessorILi3ELi3ELi3EE16ExcInvalidObjectE = weak_odr dso_local unnamed_addr constant { [6 x ptr] } { [6 x ptr] [ptr null, ptr @_ZTIN6dealii13MGDoFAccessorILi3ELi3ELi3EE16ExcInvalidObjectE, ptr @_ZN6dealii13ExceptionBaseD2Ev, ptr @_ZN6dealii13MGDoFAccessorILi3ELi3ELi3EE16ExcInvalidObjectD0Ev, ptr @_ZNK6dealii13ExceptionBase4whatEv, ptr @_ZNK6dealii13ExceptionBase10print_infoERSo] }, comdat, align 8
@_ZTSN6dealii13MGDoFAccessorILi3ELi3ELi3EE16ExcInvalidObjectE = weak_odr dso_local constant [57 x i8] c"N6dealii13MGDoFAccessorILi3ELi3ELi3EE16ExcInvalidObjectE\00", comdat, align 1
@_ZTIN6dealii13MGDoFAccessorILi3ELi3ELi3EE16ExcInvalidObjectE = weak_odr dso_local constant { ptr, ptr, ptr } { ptr getelementptr inbounds (ptr, ptr @_ZTVN10__cxxabiv120__si_class_type_infoE, i64 2), ptr @_ZTSN6dealii13MGDoFAccessorILi3ELi3ELi3EE16ExcInvalidObjectE, ptr @_ZTIN6dealii13ExceptionBaseE }, comdat, align 8
@_ZTSN6dealii15TriaRawIteratorINS_13MGDoFAccessorILi1ELi3ELi3EEEE25ExcDereferenceInvalidCellE = weak_odr dso_local constant [89 x i8] c"N6dealii15TriaRawIteratorINS_13MGDoFAccessorILi1ELi3ELi3EEEE25ExcDereferenceInvalidCellE\00", comdat, align 1
@_ZTIN6dealii15TriaRawIteratorINS_13MGDoFAccessorILi1ELi3ELi3EEEE25ExcDereferenceInvalidCellE = weak_odr dso_local constant { ptr, ptr, ptr } { ptr getelementptr inbounds (ptr, ptr @_ZTVN10__cxxabiv120__si_class_type_infoE, i64 2), ptr @_ZTSN6dealii15TriaRawIteratorINS_13MGDoFAccessorILi1ELi3ELi3EEEE25ExcDereferenceInvalidCellE, ptr @_ZTIN6dealii13ExceptionBaseE }, comdat, align 8
@_ZTSN6dealii15TriaRawIteratorINS_13MGDoFAccessorILi1ELi3ELi3EEEE27ExcDereferenceInvalidObjectE = weak_odr dso_local constant [91 x i8] c"N6dealii15TriaRawIteratorINS_13MGDoFAccessorILi1ELi3ELi3EEEE27ExcDereferenceInvalidObjectE\00", comdat, align 1
@_ZTIN6dealii15TriaRawIteratorINS_13MGDoFAccessorILi1ELi3ELi3EEEE27ExcDereferenceInvalidObjectE = weak_odr dso_local constant { ptr, ptr, ptr } { ptr getelementptr inbounds (ptr, ptr @_ZTVN10__cxxabiv120__si_class_type_infoE, i64 2), ptr @_ZTSN6dealii15TriaRawIteratorINS_13MGDoFAccessorILi1ELi3ELi3EEEE27ExcDereferenceInvalidObjectE, ptr @_ZTIN6dealii13ExceptionBaseE }, comdat, align 8
@_ZTVN6dealii15TriaRawIteratorINS_13MGDoFAccessorILi1ELi3ELi3EEEE23ExcAdvanceInvalidObjectE = weak_odr dso_local unnamed_addr constant { [6 x ptr] } { [6 x ptr] [ptr null, ptr @_ZTIN6dealii15TriaRawIteratorINS_13MGDoFAccessorILi1ELi3ELi3EEEE23ExcAdvanceInvalidObjectE, ptr @_ZN6dealii13ExceptionBaseD2Ev, ptr @_ZN6dealii15TriaRawIteratorINS_13MGDoFAccessorILi1ELi3ELi3EEEE23ExcAdvanceInvalidObjectD0Ev, ptr @_ZNK6dealii13ExceptionBase4whatEv, ptr @_ZNK6dealii13ExceptionBase10print_infoERSo] }, comdat, align 8
@_ZTSN6dealii15TriaRawIteratorINS_13MGDoFAccessorILi1ELi3ELi3EEEE23ExcAdvanceInvalidObjectE = weak_odr dso_local constant [87 x i8] c"N6dealii15TriaRawIteratorINS_13MGDoFAccessorILi1ELi3ELi3EEEE23ExcAdvanceInvalidObjectE\00", comdat, align 1
@_ZTIN6dealii15TriaRawIteratorINS_13MGDoFAccessorILi1ELi3ELi3EEEE23ExcAdvanceInvalidObjectE = weak_odr dso_local constant { ptr, ptr, ptr } { ptr getelementptr inbounds (ptr, ptr @_ZTVN10__cxxabiv120__si_class_type_infoE, i64 2), ptr @_ZTSN6dealii15TriaRawIteratorINS_13MGDoFAccessorILi1ELi3ELi3EEEE23ExcAdvanceInvalidObjectE, ptr @_ZTIN6dealii13ExceptionBaseE }, comdat, align 8
@_ZTVN6dealii15TriaRawIteratorINS_13MGDoFAccessorILi1ELi3ELi3EEEE20ExcInvalidComparisonE = weak_odr dso_local unnamed_addr constant { [6 x ptr] } { [6 x ptr] [ptr null, ptr @_ZTIN6dealii15TriaRawIteratorINS_13MGDoFAccessorILi1ELi3ELi3EEEE20ExcInvalidComparisonE, ptr @_ZN6dealii13ExceptionBaseD2Ev, ptr @_ZN6dealii15TriaRawIteratorINS_13MGDoFAccessorILi1ELi3ELi3EEEE20ExcInvalidComparisonD0Ev, ptr @_ZNK6dealii13ExceptionBase4whatEv, ptr @_ZNK6dealii13ExceptionBase10print_infoERSo] }, comdat, align 8
@_ZTSN6dealii15TriaRawIteratorINS_13MGDoFAccessorILi1ELi3ELi3EEEE20ExcInvalidComparisonE = weak_odr dso_local constant [84 x i8] c"N6dealii15TriaRawIteratorINS_13MGDoFAccessorILi1ELi3ELi3EEEE20ExcInvalidComparisonE\00", comdat, align 1
@_ZTIN6dealii15TriaRawIteratorINS_13MGDoFAccessorILi1ELi3ELi3EEEE20ExcInvalidComparisonE = weak_odr dso_local constant { ptr, ptr, ptr } { ptr getelementptr inbounds (ptr, ptr @_ZTVN10__cxxabiv120__si_class_type_infoE, i64 2), ptr @_ZTSN6dealii15TriaRawIteratorINS_13MGDoFAccessorILi1ELi3ELi3EEEE20ExcInvalidComparisonE, ptr @_ZTIN6dealii13ExceptionBaseE }, comdat, align 8
@_ZTVN6dealii12TriaIteratorINS_13MGDoFAccessorILi1ELi3ELi3EEEE27ExcAssignmentOfUnusedObjectE = weak_odr dso_local unnamed_addr constant { [6 x ptr] } { [6 x ptr] [ptr null, ptr @_ZTIN6dealii12TriaIteratorINS_13MGDoFAccessorILi1ELi3ELi3EEEE27ExcAssignmentOfUnusedObjectE, ptr @_ZN6dealii13ExceptionBaseD2Ev, ptr @_ZN6dealii12TriaIteratorINS_13MGDoFAccessorILi1ELi3ELi3EEEE27ExcAssignmentOfUnusedObjectD0Ev, ptr @_ZNK6dealii13ExceptionBase4whatEv, ptr @_ZNK6dealii13ExceptionBase10print_infoERSo] }, comdat, align 8
@_ZTSN6dealii12TriaIteratorINS_13MGDoFAccessorILi1ELi3ELi3EEEE27ExcAssignmentOfUnusedObjectE = weak_odr dso_local constant [88 x i8] c"N6dealii12TriaIteratorINS_13MGDoFAccessorILi1ELi3ELi3EEEE27ExcAssignmentOfUnusedObjectE\00", comdat, align 1
@_ZTIN6dealii12TriaIteratorINS_13MGDoFAccessorILi1ELi3ELi3EEEE27ExcAssignmentOfUnusedObjectE = weak_odr dso_local constant { ptr, ptr, ptr } { ptr getelementptr inbounds (ptr, ptr @_ZTVN10__cxxabiv120__si_class_type_infoE, i64 2), ptr @_ZTSN6dealii12TriaIteratorINS_13MGDoFAccessorILi1ELi3ELi3EEEE27ExcAssignmentOfUnusedObjectE, ptr @_ZTIN6dealii13ExceptionBaseE }, comdat, align 8
@_ZTVN6dealii18TriaActiveIteratorINS_13MGDoFAccessorILi1ELi3ELi3EEEE29ExcAssignmentOfInactiveObjectE = weak_odr dso_local unnamed_addr constant { [6 x ptr] } { [6 x ptr] [ptr null, ptr @_ZTIN6dealii18TriaActiveIteratorINS_13MGDoFAccessorILi1ELi3ELi3EEEE29ExcAssignmentOfInactiveObjectE, ptr @_ZN6dealii13ExceptionBaseD2Ev, ptr @_ZN6dealii18TriaActiveIteratorINS_13MGDoFAccessorILi1ELi3ELi3EEEE29ExcAssignmentOfInactiveObjectD0Ev, ptr @_ZNK6dealii13ExceptionBase4whatEv, ptr @_ZNK6dealii13ExceptionBase10print_infoERSo] }, comdat, align 8
@_ZTSN6dealii18TriaActiveIteratorINS_13MGDoFAccessorILi1ELi3ELi3EEEE29ExcAssignmentOfInactiveObjectE = weak_odr dso_local constant [96 x i8] c"N6dealii18TriaActiveIteratorINS_13MGDoFAccessorILi1ELi3ELi3EEEE29ExcAssignmentOfInactiveObjectE\00", comdat, align 1
@_ZTIN6dealii18TriaActiveIteratorINS_13MGDoFAccessorILi1ELi3ELi3EEEE29ExcAssignmentOfInactiveObjectE = weak_odr dso_local constant { ptr, ptr, ptr } { ptr getelementptr inbounds (ptr, ptr @_ZTVN10__cxxabiv120__si_class_type_infoE, i64 2), ptr @_ZTSN6dealii18TriaActiveIteratorINS_13MGDoFAccessorILi1ELi3ELi3EEEE29ExcAssignmentOfInactiveObjectE, ptr @_ZTIN6dealii13ExceptionBaseE }, comdat, align 8
@_ZTSN6dealii15TriaRawIteratorINS_13MGDoFAccessorILi2ELi3ELi3EEEE25ExcDereferenceInvalidCellE = weak_odr dso_local constant [89 x i8] c"N6dealii15TriaRawIteratorINS_13MGDoFAccessorILi2ELi3ELi3EEEE25ExcDereferenceInvalidCellE\00", comdat, align 1
@_ZTIN6dealii15TriaRawIteratorINS_13MGDoFAccessorILi2ELi3ELi3EEEE25ExcDereferenceInvalidCellE = weak_odr dso_local constant { ptr, ptr, ptr } { ptr getelementptr inbounds (ptr, ptr @_ZTVN10__cxxabiv120__si_class_type_infoE, i64 2), ptr @_ZTSN6dealii15TriaRawIteratorINS_13MGDoFAccessorILi2ELi3ELi3EEEE25ExcDereferenceInvalidCellE, ptr @_ZTIN6dealii13ExceptionBaseE }, comdat, align 8
@_ZTSN6dealii15TriaRawIteratorINS_13MGDoFAccessorILi2ELi3ELi3EEEE27ExcDereferenceInvalidObjectE = weak_odr dso_local constant [91 x i8] c"N6dealii15TriaRawIteratorINS_13MGDoFAccessorILi2ELi3ELi3EEEE27ExcDereferenceInvalidObjectE\00", comdat, align 1
@_ZTIN6dealii15TriaRawIteratorINS_13MGDoFAccessorILi2ELi3ELi3EEEE27ExcDereferenceInvalidObjectE = weak_odr dso_local constant { ptr, ptr, ptr } { ptr getelementptr inbounds (ptr, ptr @_ZTVN10__cxxabiv120__si_class_type_infoE, i64 2), ptr @_ZTSN6dealii15TriaRawIteratorINS_13MGDoFAccessorILi2ELi3ELi3EEEE27ExcDereferenceInvalidObjectE, ptr @_ZTIN6dealii13ExceptionBaseE }, comdat, align 8
@_ZTVN6dealii15TriaRawIteratorINS_13MGDoFAccessorILi2ELi3ELi3EEEE23ExcAdvanceInvalidObjectE = weak_odr dso_local unnamed_addr constant { [6 x ptr] } { [6 x ptr] [ptr null, ptr @_ZTIN6dealii15TriaRawIteratorINS_13MGDoFAccessorILi2ELi3ELi3EEEE23ExcAdvanceInvalidObjectE, ptr @_ZN6dealii13ExceptionBaseD2Ev, ptr @_ZN6dealii15TriaRawIteratorINS_13MGDoFAccessorILi2ELi3ELi3EEEE23ExcAdvanceInvalidObjectD0Ev, ptr @_ZNK6dealii13ExceptionBase4whatEv, ptr @_ZNK6dealii13ExceptionBase10print_infoERSo] }, comdat, align 8
@_ZTSN6dealii15TriaRawIteratorINS_13MGDoFAccessorILi2ELi3ELi3EEEE23ExcAdvanceInvalidObjectE = weak_odr dso_local constant [87 x i8] c"N6dealii15TriaRawIteratorINS_13MGDoFAccessorILi2ELi3ELi3EEEE23ExcAdvanceInvalidObjectE\00", comdat, align 1
@_ZTIN6dealii15TriaRawIteratorINS_13MGDoFAccessorILi2ELi3ELi3EEEE23ExcAdvanceInvalidObjectE = weak_odr dso_local constant { ptr, ptr, ptr } { ptr getelementptr inbounds (ptr, ptr @_ZTVN10__cxxabiv120__si_class_type_infoE, i64 2), ptr @_ZTSN6dealii15TriaRawIteratorINS_13MGDoFAccessorILi2ELi3ELi3EEEE23ExcAdvanceInvalidObjectE, ptr @_ZTIN6dealii13ExceptionBaseE }, comdat, align 8
@_ZTVN6dealii15TriaRawIteratorINS_13MGDoFAccessorILi2ELi3ELi3EEEE20ExcInvalidComparisonE = weak_odr dso_local unnamed_addr constant { [6 x ptr] } { [6 x ptr] [ptr null, ptr @_ZTIN6dealii15TriaRawIteratorINS_13MGDoFAccessorILi2ELi3ELi3EEEE20ExcInvalidComparisonE, ptr @_ZN6dealii13ExceptionBaseD2Ev, ptr @_ZN6dealii15TriaRawIteratorINS_13MGDoFAccessorILi2ELi3ELi3EEEE20ExcInvalidComparisonD0Ev, ptr @_ZNK6dealii13ExceptionBase4whatEv, ptr @_ZNK6dealii13ExceptionBase10print_infoERSo] }, comdat, align 8
@_ZTSN6dealii15TriaRawIteratorINS_13MGDoFAccessorILi2ELi3ELi3EEEE20ExcInvalidComparisonE = weak_odr dso_local constant [84 x i8] c"N6dealii15TriaRawIteratorINS_13MGDoFAccessorILi2ELi3ELi3EEEE20ExcInvalidComparisonE\00", comdat, align 1
@_ZTIN6dealii15TriaRawIteratorINS_13MGDoFAccessorILi2ELi3ELi3EEEE20ExcInvalidComparisonE = weak_odr dso_local constant { ptr, ptr, ptr } { ptr getelementptr inbounds (ptr, ptr @_ZTVN10__cxxabiv120__si_class_type_infoE, i64 2), ptr @_ZTSN6dealii15TriaRawIteratorINS_13MGDoFAccessorILi2ELi3ELi3EEEE20ExcInvalidComparisonE, ptr @_ZTIN6dealii13ExceptionBaseE }, comdat, align 8
@_ZTVN6dealii12TriaIteratorINS_13MGDoFAccessorILi2ELi3ELi3EEEE27ExcAssignmentOfUnusedObjectE = weak_odr dso_local unnamed_addr constant { [6 x ptr] } { [6 x ptr] [ptr null, ptr @_ZTIN6dealii12TriaIteratorINS_13MGDoFAccessorILi2ELi3ELi3EEEE27ExcAssignmentOfUnusedObjectE, ptr @_ZN6dealii13ExceptionBaseD2Ev, ptr @_ZN6dealii12TriaIteratorINS_13MGDoFAccessorILi2ELi3ELi3EEEE27ExcAssignmentOfUnusedObjectD0Ev, ptr @_ZNK6dealii13ExceptionBase4whatEv, ptr @_ZNK6dealii13ExceptionBase10print_infoERSo] }, comdat, align 8
@_ZTSN6dealii12TriaIteratorINS_13MGDoFAccessorILi2ELi3ELi3EEEE27ExcAssignmentOfUnusedObjectE = weak_odr dso_local constant [88 x i8] c"N6dealii12TriaIteratorINS_13MGDoFAccessorILi2ELi3ELi3EEEE27ExcAssignmentOfUnusedObjectE\00", comdat, align 1
@_ZTIN6dealii12TriaIteratorINS_13MGDoFAccessorILi2ELi3ELi3EEEE27ExcAssignmentOfUnusedObjectE = weak_odr dso_local constant { ptr, ptr, ptr } { ptr getelementptr inbounds (ptr, ptr @_ZTVN10__cxxabiv120__si_class_type_infoE, i64 2), ptr @_ZTSN6dealii12TriaIteratorINS_13MGDoFAccessorILi2ELi3ELi3EEEE27ExcAssignmentOfUnusedObjectE, ptr @_ZTIN6dealii13ExceptionBaseE }, comdat, align 8
@_ZTVN6dealii18TriaActiveIteratorINS_13MGDoFAccessorILi2ELi3ELi3EEEE29ExcAssignmentOfInactiveObjectE = weak_odr dso_local unnamed_addr constant { [6 x ptr] } { [6 x ptr] [ptr null, ptr @_ZTIN6dealii18TriaActiveIteratorINS_13MGDoFAccessorILi2ELi3ELi3EEEE29ExcAssignmentOfInactiveObjectE, ptr @_ZN6dealii13ExceptionBaseD2Ev, ptr @_ZN6dealii18TriaActiveIteratorINS_13MGDoFAccessorILi2ELi3ELi3EEEE29ExcAssignmentOfInactiveObjectD0Ev, ptr @_ZNK6dealii13ExceptionBase4whatEv, ptr @_ZNK6dealii13ExceptionBase10print_infoERSo] }, comdat, align 8
@_ZTSN6dealii18TriaActiveIteratorINS_13MGDoFAccessorILi2ELi3ELi3EEEE29ExcAssignmentOfInactiveObjectE = weak_odr dso_local constant [96 x i8] c"N6dealii18TriaActiveIteratorINS_13MGDoFAccessorILi2ELi3ELi3EEEE29ExcAssignmentOfInactiveObjectE\00", comdat, align 1
@_ZTIN6dealii18TriaActiveIteratorINS_13MGDoFAccessorILi2ELi3ELi3EEEE29ExcAssignmentOfInactiveObjectE = weak_odr dso_local constant { ptr, ptr, ptr } { ptr getelementptr inbounds (ptr, ptr @_ZTVN10__cxxabiv120__si_class_type_infoE, i64 2), ptr @_ZTSN6dealii18TriaActiveIteratorINS_13MGDoFAccessorILi2ELi3ELi3EEEE29ExcAssignmentOfInactiveObjectE, ptr @_ZTIN6dealii13ExceptionBaseE }, comdat, align 8
@_ZTSN6dealii15TriaRawIteratorINS_17MGDoFCellAccessorILi3ELi3EEEE25ExcDereferenceInvalidCellE = weak_odr dso_local constant [89 x i8] c"N6dealii15TriaRawIteratorINS_17MGDoFCellAccessorILi3ELi3EEEE25ExcDereferenceInvalidCellE\00", comdat, align 1
@_ZTIN6dealii15TriaRawIteratorINS_17MGDoFCellAccessorILi3ELi3EEEE25ExcDereferenceInvalidCellE = weak_odr dso_local constant { ptr, ptr, ptr } { ptr getelementptr inbounds (ptr, ptr @_ZTVN10__cxxabiv120__si_class_type_infoE, i64 2), ptr @_ZTSN6dealii15TriaRawIteratorINS_17MGDoFCellAccessorILi3ELi3EEEE25ExcDereferenceInvalidCellE, ptr @_ZTIN6dealii13ExceptionBaseE }, comdat, align 8
@_ZTSN6dealii15TriaRawIteratorINS_17MGDoFCellAccessorILi3ELi3EEEE27ExcDereferenceInvalidObjectE = weak_odr dso_local constant [91 x i8] c"N6dealii15TriaRawIteratorINS_17MGDoFCellAccessorILi3ELi3EEEE27ExcDereferenceInvalidObjectE\00", comdat, align 1
@_ZTIN6dealii15TriaRawIteratorINS_17MGDoFCellAccessorILi3ELi3EEEE27ExcDereferenceInvalidObjectE = weak_odr dso_local constant { ptr, ptr, ptr } { ptr getelementptr inbounds (ptr, ptr @_ZTVN10__cxxabiv120__si_class_type_infoE, i64 2), ptr @_ZTSN6dealii15TriaRawIteratorINS_17MGDoFCellAccessorILi3ELi3EEEE27ExcDereferenceInvalidObjectE, ptr @_ZTIN6dealii13ExceptionBaseE }, comdat, align 8
@_ZTVN6dealii15TriaRawIteratorINS_17MGDoFCellAccessorILi3ELi3EEEE23ExcAdvanceInvalidObjectE = weak_odr dso_local unnamed_addr constant { [6 x ptr] } { [6 x ptr] [ptr null, ptr @_ZTIN6dealii15TriaRawIteratorINS_17MGDoFCellAccessorILi3ELi3EEEE23ExcAdvanceInvalidObjectE, ptr @_ZN6dealii13ExceptionBaseD2Ev, ptr @_ZN6dealii15TriaRawIteratorINS_17MGDoFCellAccessorILi3ELi3EEEE23ExcAdvanceInvalidObjectD0Ev, ptr @_ZNK6dealii13ExceptionBase4whatEv, ptr @_ZNK6dealii13ExceptionBase10print_infoERSo] }, comdat, align 8
@_ZTSN6dealii15TriaRawIteratorINS_17MGDoFCellAccessorILi3ELi3EEEE23ExcAdvanceInvalidObjectE = weak_odr dso_local constant [87 x i8] c"N6dealii15TriaRawIteratorINS_17MGDoFCellAccessorILi3ELi3EEEE23ExcAdvanceInvalidObjectE\00", comdat, align 1
@_ZTIN6dealii15TriaRawIteratorINS_17MGDoFCellAccessorILi3ELi3EEEE23ExcAdvanceInvalidObjectE = weak_odr dso_local constant { ptr, ptr, ptr } { ptr getelementptr inbounds (ptr, ptr @_ZTVN10__cxxabiv120__si_class_type_infoE, i64 2), ptr @_ZTSN6dealii15TriaRawIteratorINS_17MGDoFCellAccessorILi3ELi3EEEE23ExcAdvanceInvalidObjectE, ptr @_ZTIN6dealii13ExceptionBaseE }, comdat, align 8
@_ZTVN6dealii15TriaRawIteratorINS_17MGDoFCellAccessorILi3ELi3EEEE20ExcInvalidComparisonE = weak_odr dso_local unnamed_addr constant { [6 x ptr] } { [6 x ptr] [ptr null, ptr @_ZTIN6dealii15TriaRawIteratorINS_17MGDoFCellAccessorILi3ELi3EEEE20ExcInvalidComparisonE, ptr @_ZN6dealii13ExceptionBaseD2Ev, ptr @_ZN6dealii15TriaRawIteratorINS_17MGDoFCellAccessorILi3ELi3EEEE20ExcInvalidComparisonD0Ev, ptr @_ZNK6dealii13ExceptionBase4whatEv, ptr @_ZNK6dealii13ExceptionBase10print_infoERSo] }, comdat, align 8
@_ZTSN6dealii15TriaRawIteratorINS_17MGDoFCellAccessorILi3ELi3EEEE20ExcInvalidComparisonE = weak_odr dso_local constant [84 x i8] c"N6dealii15TriaRawIteratorINS_17MGDoFCellAccessorILi3ELi3EEEE20ExcInvalidComparisonE\00", comdat, align 1
@_ZTIN6dealii15TriaRawIteratorINS_17MGDoFCellAccessorILi3ELi3EEEE20ExcInvalidComparisonE = weak_odr dso_local constant { ptr, ptr, ptr } { ptr getelementptr inbounds (ptr, ptr @_ZTVN10__cxxabiv120__si_class_type_infoE, i64 2), ptr @_ZTSN6dealii15TriaRawIteratorINS_17MGDoFCellAccessorILi3ELi3EEEE20ExcInvalidComparisonE, ptr @_ZTIN6dealii13ExceptionBaseE }, comdat, align 8
@_ZTVN6dealii12TriaIteratorINS_17MGDoFCellAccessorILi3ELi3EEEE27ExcAssignmentOfUnusedObjectE = weak_odr dso_local unnamed_addr constant { [6 x ptr] } { [6 x ptr] [ptr null, ptr @_ZTIN6dealii12TriaIteratorINS_17MGDoFCellAccessorILi3ELi3EEEE27ExcAssignmentOfUnusedObjectE, ptr @_ZN6dealii13ExceptionBaseD2Ev, ptr @_ZN6dealii12TriaIteratorINS_17MGDoFCellAccessorILi3ELi3EEEE27ExcAssignmentOfUnusedObjectD0Ev, ptr @_ZNK6dealii13ExceptionBase4whatEv, ptr @_ZNK6dealii13ExceptionBase10print_infoERSo] }, comdat, align 8
@_ZTSN6dealii12TriaIteratorINS_17MGDoFCellAccessorILi3ELi3EEEE27ExcAssignmentOfUnusedObjectE = weak_odr dso_local constant [88 x i8] c"N6dealii12TriaIteratorINS_17MGDoFCellAccessorILi3ELi3EEEE27ExcAssignmentOfUnusedObjectE\00", comdat, align 1
@_ZTIN6dealii12TriaIteratorINS_17MGDoFCellAccessorILi3ELi3EEEE27ExcAssignmentOfUnusedObjectE = weak_odr dso_local constant { ptr, ptr, ptr } { ptr getelementptr inbounds (ptr, ptr @_ZTVN10__cxxabiv120__si_class_type_infoE, i64 2), ptr @_ZTSN6dealii12TriaIteratorINS_17MGDoFCellAccessorILi3ELi3EEEE27ExcAssignmentOfUnusedObjectE, ptr @_ZTIN6dealii13ExceptionBaseE }, comdat, align 8
@_ZTVN6dealii18TriaActiveIteratorINS_17MGDoFCellAccessorILi3ELi3EEEE29ExcAssignmentOfInactiveObjectE = weak_odr dso_local unnamed_addr constant { [6 x ptr] } { [6 x ptr] [ptr null, ptr @_ZTIN6dealii18TriaActiveIteratorINS_17MGDoFCellAccessorILi3ELi3EEEE29ExcAssignmentOfInactiveObjectE, ptr @_ZN6dealii13ExceptionBaseD2Ev, ptr @_ZN6dealii18TriaActiveIteratorINS_17MGDoFCellAccessorILi3ELi3EEEE29ExcAssignmentOfInactiveObjectD0Ev, ptr @_ZNK6dealii13ExceptionBase4whatEv, ptr @_ZNK6dealii13ExceptionBase10print_infoERSo] }, comdat, align 8
@_ZTSN6dealii18TriaActiveIteratorINS_17MGDoFCellAccessorILi3ELi3EEEE29ExcAssignmentOfInactiveObjectE = weak_odr dso_local constant [96 x i8] c"N6dealii18TriaActiveIteratorINS_17MGDoFCellAccessorILi3ELi3EEEE29ExcAssignmentOfInactiveObjectE\00", comdat, align 1
@_ZTIN6dealii18TriaActiveIteratorINS_17MGDoFCellAccessorILi3ELi3EEEE29ExcAssignmentOfInactiveObjectE = weak_odr dso_local constant { ptr, ptr, ptr } { ptr getelementptr inbounds (ptr, ptr @_ZTVN10__cxxabiv120__si_class_type_infoE, i64 2), ptr @_ZTSN6dealii18TriaActiveIteratorINS_17MGDoFCellAccessorILi3ELi3EEEE29ExcAssignmentOfInactiveObjectE, ptr @_ZTIN6dealii13ExceptionBaseE }, comdat, align 8
@_ZZN6dealii8internal12TriaAccessor14Implementation12vertex_indexILi3ELi3EEEjRKNS_12TriaAccessorILi2EXT_EXT0_EEEjE12switch_table = linkonce_odr dso_local local_unnamed_addr constant [2 x [2 x i32]] [[2 x i32] [i32 1, i32 0], [2 x i32] [i32 0, i32 1]], comdat, align 16
@_ZZN6dealii8internal12TriaAccessor14Implementation10line_indexILi3ELi3EEEjRKNS_12TriaAccessorILi3EXT_EXT0_EEEjE12lookup_table = linkonce_odr dso_local local_unnamed_addr constant [12 x [2 x i32]] [[2 x i32] [i32 4, i32 0], [2 x i32] [i32 4, i32 1], [2 x i32] [i32 4, i32 2], [2 x i32] [i32 4, i32 3], [2 x i32] [i32 5, i32 0], [2 x i32] [i32 5, i32 1], [2 x i32] [i32 5, i32 2], [2 x i32] [i32 5, i32 3], [2 x i32] zeroinitializer, [2 x i32] [i32 1, i32 0], [2 x i32] [i32 0, i32 1], [2 x i32] [i32 1, i32 1]], comdat, align 16
@llvm.global_ctors = appending global [0 x { i32, ptr, ptr }] zeroinitializer

@_ZN6dealii13MGDoFAccessorILi1ELi3ELi3EEC1Ev = weak_odr dso_local unnamed_addr alias void (ptr), ptr @_ZN6dealii13MGDoFAccessorILi1ELi3ELi3EEC2Ev
@_ZN6dealii13MGDoFAccessorILi1ELi3ELi3EEC1EPKNS_13TriangulationILi3ELi3EEEiiPKNS_12MGDoFHandlerILi3ELi3EEE = weak_odr dso_local unnamed_addr alias void (ptr, ptr, i32, i32, ptr), ptr @_ZN6dealii13MGDoFAccessorILi1ELi3ELi3EEC2EPKNS_13TriangulationILi3ELi3EEEiiPKNS_12MGDoFHandlerILi3ELi3EEE
@_ZN6dealii13MGDoFAccessorILi2ELi3ELi3EEC1Ev = weak_odr dso_local unnamed_addr alias void (ptr), ptr @_ZN6dealii13MGDoFAccessorILi2ELi3ELi3EEC2Ev
@_ZN6dealii13MGDoFAccessorILi2ELi3ELi3EEC1EPKNS_13TriangulationILi3ELi3EEEiiPKNS_12MGDoFHandlerILi3ELi3EEE = weak_odr dso_local unnamed_addr alias void (ptr, ptr, i32, i32, ptr), ptr @_ZN6dealii13MGDoFAccessorILi2ELi3ELi3EEC2EPKNS_13TriangulationILi3ELi3EEEiiPKNS_12MGDoFHandlerILi3ELi3EEE
@_ZN6dealii13MGDoFAccessorILi3ELi3ELi3EEC1Ev = weak_odr dso_local unnamed_addr alias void (ptr), ptr @_ZN6dealii13MGDoFAccessorILi3ELi3ELi3EEC2Ev
@_ZN6dealii13MGDoFAccessorILi3ELi3ELi3EEC1EPKNS_13TriangulationILi3ELi3EEEiiPKNS_12MGDoFHandlerILi3ELi3EEE = weak_odr dso_local unnamed_addr alias void (ptr, ptr, i32, i32, ptr), ptr @_ZN6dealii13MGDoFAccessorILi3ELi3ELi3EEC2EPKNS_13TriangulationILi3ELi3EEEiiPKNS_12MGDoFHandlerILi3ELi3EEE
@_ZN6dealii17MGDoFCellAccessorILi3ELi3EEC1EPKNS_13TriangulationILi3ELi3EEEiiPKNS_12MGDoFHandlerILi3ELi3EEE = weak_odr dso_local unnamed_addr alias void (ptr, ptr, i32, i32, ptr), ptr @_ZN6dealii17MGDoFCellAccessorILi3ELi3EEC2EPKNS_13TriangulationILi3ELi3EEEiiPKNS_12MGDoFHandlerILi3ELi3EEE
@_ZN6dealii15TriaRawIteratorINS_13MGDoFAccessorILi1ELi3ELi3EEEEC1Ev = weak_odr dso_local unnamed_addr alias void (ptr), ptr @_ZN6dealii15TriaRawIteratorINS_13MGDoFAccessorILi1ELi3ELi3EEEEC2Ev
@_ZN6dealii15TriaRawIteratorINS_13MGDoFAccessorILi1ELi3ELi3EEEEC1ERKS3_ = weak_odr dso_local unnamed_addr alias void (ptr, ptr), ptr @_ZN6dealii15TriaRawIteratorINS_13MGDoFAccessorILi1ELi3ELi3EEEEC2ERKS3_
@_ZN6dealii15TriaRawIteratorINS_13MGDoFAccessorILi1ELi3ELi3EEEEC1ERKS2_ = weak_odr dso_local unnamed_addr alias void (ptr, ptr), ptr @_ZN6dealii15TriaRawIteratorINS_13MGDoFAccessorILi1ELi3ELi3EEEEC2ERKS2_
@_ZN6dealii15TriaRawIteratorINS_13MGDoFAccessorILi1ELi3ELi3EEEEC1EPKNS_13TriangulationILi3ELi3EEEiiPKNS_12MGDoFHandlerILi3ELi3EEE = weak_odr dso_local unnamed_addr alias void (ptr, ptr, i32, i32, ptr), ptr @_ZN6dealii15TriaRawIteratorINS_13MGDoFAccessorILi1ELi3ELi3EEEEC2EPKNS_13TriangulationILi3ELi3EEEiiPKNS_12MGDoFHandlerILi3ELi3EEE
@_ZN6dealii15TriaRawIteratorINS_13MGDoFAccessorILi1ELi3ELi3EEEE25ExcDereferenceInvalidCellC1ES2_ = weak_odr dso_local unnamed_addr alias void (ptr, ptr), ptr @_ZN6dealii15TriaRawIteratorINS_13MGDoFAccessorILi1ELi3ELi3EEEE25ExcDereferenceInvalidCellC2ES2_
@_ZN6dealii15TriaRawIteratorINS_13MGDoFAccessorILi1ELi3ELi3EEEE25ExcDereferenceInvalidCellD1Ev = weak_odr dso_local unnamed_addr alias void (ptr), ptr @_ZN6dealii15TriaRawIteratorINS_13MGDoFAccessorILi1ELi3ELi3EEEE25ExcDereferenceInvalidCellD2Ev
@_ZN6dealii15TriaRawIteratorINS_13MGDoFAccessorILi1ELi3ELi3EEEE27ExcDereferenceInvalidObjectC1ES2_ = weak_odr dso_local unnamed_addr alias void (ptr, ptr), ptr @_ZN6dealii15TriaRawIteratorINS_13MGDoFAccessorILi1ELi3ELi3EEEE27ExcDereferenceInvalidObjectC2ES2_
@_ZN6dealii15TriaRawIteratorINS_13MGDoFAccessorILi1ELi3ELi3EEEE27ExcDereferenceInvalidObjectD1Ev = weak_odr dso_local unnamed_addr alias void (ptr), ptr @_ZN6dealii15TriaRawIteratorINS_13MGDoFAccessorILi1ELi3ELi3EEEE27ExcDereferenceInvalidObjectD2Ev
@_ZN6dealii12TriaIteratorINS_13MGDoFAccessorILi1ELi3ELi3EEEEC1Ev = weak_odr dso_local unnamed_addr alias void (ptr), ptr @_ZN6dealii12TriaIteratorINS_13MGDoFAccessorILi1ELi3ELi3EEEEC2Ev
@_ZN6dealii12TriaIteratorINS_13MGDoFAccessorILi1ELi3ELi3EEEEC1ERKS3_ = weak_odr dso_local unnamed_addr alias void (ptr, ptr), ptr @_ZN6dealii12TriaIteratorINS_13MGDoFAccessorILi1ELi3ELi3EEEEC2ERKS3_
@_ZN6dealii12TriaIteratorINS_13MGDoFAccessorILi1ELi3ELi3EEEEC1ERKNS_15TriaRawIteratorIS2_EE = weak_odr dso_local unnamed_addr alias void (ptr, ptr), ptr @_ZN6dealii12TriaIteratorINS_13MGDoFAccessorILi1ELi3ELi3EEEEC2ERKNS_15TriaRawIteratorIS2_EE
@_ZN6dealii12TriaIteratorINS_13MGDoFAccessorILi1ELi3ELi3EEEEC1EPKNS_13TriangulationILi3ELi3EEEiiPKNS_12MGDoFHandlerILi3ELi3EEE = weak_odr dso_local unnamed_addr alias void (ptr, ptr, i32, i32, ptr), ptr @_ZN6dealii12TriaIteratorINS_13MGDoFAccessorILi1ELi3ELi3EEEEC2EPKNS_13TriangulationILi3ELi3EEEiiPKNS_12MGDoFHandlerILi3ELi3EEE
@_ZN6dealii18TriaActiveIteratorINS_13MGDoFAccessorILi1ELi3ELi3EEEEC1Ev = weak_odr dso_local unnamed_addr alias void (ptr), ptr @_ZN6dealii18TriaActiveIteratorINS_13MGDoFAccessorILi1ELi3ELi3EEEEC2Ev
@_ZN6dealii18TriaActiveIteratorINS_13MGDoFAccessorILi1ELi3ELi3EEEEC1ERKS3_ = weak_odr dso_local unnamed_addr alias void (ptr, ptr), ptr @_ZN6dealii18TriaActiveIteratorINS_13MGDoFAccessorILi1ELi3ELi3EEEEC2ERKS3_
@_ZN6dealii18TriaActiveIteratorINS_13MGDoFAccessorILi1ELi3ELi3EEEEC1ERKNS_15TriaRawIteratorIS2_EE = weak_odr dso_local unnamed_addr alias void (ptr, ptr), ptr @_ZN6dealii18TriaActiveIteratorINS_13MGDoFAccessorILi1ELi3ELi3EEEEC2ERKNS_15TriaRawIteratorIS2_EE
@_ZN6dealii18TriaActiveIteratorINS_13MGDoFAccessorILi1ELi3ELi3EEEEC1ERKNS_12TriaIteratorIS2_EE = weak_odr dso_local unnamed_addr alias void (ptr, ptr), ptr @_ZN6dealii18TriaActiveIteratorINS_13MGDoFAccessorILi1ELi3ELi3EEEEC2ERKNS_12TriaIteratorIS2_EE
@_ZN6dealii18TriaActiveIteratorINS_13MGDoFAccessorILi1ELi3ELi3EEEEC1EPKNS_13TriangulationILi3ELi3EEEiiPKNS_12MGDoFHandlerILi3ELi3EEE = weak_odr dso_local unnamed_addr alias void (ptr, ptr, i32, i32, ptr), ptr @_ZN6dealii18TriaActiveIteratorINS_13MGDoFAccessorILi1ELi3ELi3EEEEC2EPKNS_13TriangulationILi3ELi3EEEiiPKNS_12MGDoFHandlerILi3ELi3EEE
@_ZN6dealii15TriaRawIteratorINS_13MGDoFAccessorILi2ELi3ELi3EEEEC1Ev = weak_odr dso_local unnamed_addr alias void (ptr), ptr @_ZN6dealii15TriaRawIteratorINS_13MGDoFAccessorILi2ELi3ELi3EEEEC2Ev
@_ZN6dealii15TriaRawIteratorINS_13MGDoFAccessorILi2ELi3ELi3EEEEC1ERKS3_ = weak_odr dso_local unnamed_addr alias void (ptr, ptr), ptr @_ZN6dealii15TriaRawIteratorINS_13MGDoFAccessorILi2ELi3ELi3EEEEC2ERKS3_
@_ZN6dealii15TriaRawIteratorINS_13MGDoFAccessorILi2ELi3ELi3EEEEC1ERKS2_ = weak_odr dso_local unnamed_addr alias void (ptr, ptr), ptr @_ZN6dealii15TriaRawIteratorINS_13MGDoFAccessorILi2ELi3ELi3EEEEC2ERKS2_
@_ZN6dealii15TriaRawIteratorINS_13MGDoFAccessorILi2ELi3ELi3EEEEC1EPKNS_13TriangulationILi3ELi3EEEiiPKNS_12MGDoFHandlerILi3ELi3EEE = weak_odr dso_local unnamed_addr alias void (ptr, ptr, i32, i32, ptr), ptr @_ZN6dealii15TriaRawIteratorINS_13MGDoFAccessorILi2ELi3ELi3EEEEC2EPKNS_13TriangulationILi3ELi3EEEiiPKNS_12MGDoFHandlerILi3ELi3EEE
@_ZN6dealii15TriaRawIteratorINS_13MGDoFAccessorILi2ELi3ELi3EEEE25ExcDereferenceInvalidCellC1ES2_ = weak_odr dso_local unnamed_addr alias void (ptr, ptr), ptr @_ZN6dealii15TriaRawIteratorINS_13MGDoFAccessorILi2ELi3ELi3EEEE25ExcDereferenceInvalidCellC2ES2_
@_ZN6dealii15TriaRawIteratorINS_13MGDoFAccessorILi2ELi3ELi3EEEE25ExcDereferenceInvalidCellD1Ev = weak_odr dso_local unnamed_addr alias void (ptr), ptr @_ZN6dealii15TriaRawIteratorINS_13MGDoFAccessorILi2ELi3ELi3EEEE25ExcDereferenceInvalidCellD2Ev
@_ZN6dealii15TriaRawIteratorINS_13MGDoFAccessorILi2ELi3ELi3EEEE27ExcDereferenceInvalidObjectC1ES2_ = weak_odr dso_local unnamed_addr alias void (ptr, ptr), ptr @_ZN6dealii15TriaRawIteratorINS_13MGDoFAccessorILi2ELi3ELi3EEEE27ExcDereferenceInvalidObjectC2ES2_
@_ZN6dealii15TriaRawIteratorINS_13MGDoFAccessorILi2ELi3ELi3EEEE27ExcDereferenceInvalidObjectD1Ev = weak_odr dso_local unnamed_addr alias void (ptr), ptr @_ZN6dealii15TriaRawIteratorINS_13MGDoFAccessorILi2ELi3ELi3EEEE27ExcDereferenceInvalidObjectD2Ev
@_ZN6dealii12TriaIteratorINS_13MGDoFAccessorILi2ELi3ELi3EEEEC1Ev = weak_odr dso_local unnamed_addr alias void (ptr), ptr @_ZN6dealii12TriaIteratorINS_13MGDoFAccessorILi2ELi3ELi3EEEEC2Ev
@_ZN6dealii12TriaIteratorINS_13MGDoFAccessorILi2ELi3ELi3EEEEC1ERKS3_ = weak_odr dso_local unnamed_addr alias void (ptr, ptr), ptr @_ZN6dealii12TriaIteratorINS_13MGDoFAccessorILi2ELi3ELi3EEEEC2ERKS3_
@_ZN6dealii12TriaIteratorINS_13MGDoFAccessorILi2ELi3ELi3EEEEC1ERKNS_15TriaRawIteratorIS2_EE = weak_odr dso_local unnamed_addr alias void (ptr, ptr), ptr @_ZN6dealii12TriaIteratorINS_13MGDoFAccessorILi2ELi3ELi3EEEEC2ERKNS_15TriaRawIteratorIS2_EE
@_ZN6dealii12TriaIteratorINS_13MGDoFAccessorILi2ELi3ELi3EEEEC1EPKNS_13TriangulationILi3ELi3EEEiiPKNS_12MGDoFHandlerILi3ELi3EEE = weak_odr dso_local unnamed_addr alias void (ptr, ptr, i32, i32, ptr), ptr @_ZN6dealii12TriaIteratorINS_13MGDoFAccessorILi2ELi3ELi3EEEEC2EPKNS_13TriangulationILi3ELi3EEEiiPKNS_12MGDoFHandlerILi3ELi3EEE
@_ZN6dealii18TriaActiveIteratorINS_13MGDoFAccessorILi2ELi3ELi3EEEEC1Ev = weak_odr dso_local unnamed_addr alias void (ptr), ptr @_ZN6dealii18TriaActiveIteratorINS_13MGDoFAccessorILi2ELi3ELi3EEEEC2Ev
@_ZN6dealii18TriaActiveIteratorINS_13MGDoFAccessorILi2ELi3ELi3EEEEC1ERKS3_ = weak_odr dso_local unnamed_addr alias void (ptr, ptr), ptr @_ZN6dealii18TriaActiveIteratorINS_13MGDoFAccessorILi2ELi3ELi3EEEEC2ERKS3_
@_ZN6dealii18TriaActiveIteratorINS_13MGDoFAccessorILi2ELi3ELi3EEEEC1ERKNS_15TriaRawIteratorIS2_EE = weak_odr dso_local unnamed_addr alias void (ptr, ptr), ptr @_ZN6dealii18TriaActiveIteratorINS_13MGDoFAccessorILi2ELi3ELi3EEEEC2ERKNS_15TriaRawIteratorIS2_EE
@_ZN6dealii18TriaActiveIteratorINS_13MGDoFAccessorILi2ELi3ELi3EEEEC1ERKNS_12TriaIteratorIS2_EE = weak_odr dso_local unnamed_addr alias void (ptr, ptr), ptr @_ZN6dealii18TriaActiveIteratorINS_13MGDoFAccessorILi2ELi3ELi3EEEEC2ERKNS_12TriaIteratorIS2_EE
@_ZN6dealii18TriaActiveIteratorINS_13MGDoFAccessorILi2ELi3ELi3EEEEC1EPKNS_13TriangulationILi3ELi3EEEiiPKNS_12MGDoFHandlerILi3ELi3EEE = weak_odr dso_local unnamed_addr alias void (ptr, ptr, i32, i32, ptr), ptr @_ZN6dealii18TriaActiveIteratorINS_13MGDoFAccessorILi2ELi3ELi3EEEEC2EPKNS_13TriangulationILi3ELi3EEEiiPKNS_12MGDoFHandlerILi3ELi3EEE
@_ZN6dealii15TriaRawIteratorINS_17MGDoFCellAccessorILi3ELi3EEEEC1Ev = weak_odr dso_local unnamed_addr alias void (ptr), ptr @_ZN6dealii15TriaRawIteratorINS_17MGDoFCellAccessorILi3ELi3EEEEC2Ev
@_ZN6dealii15TriaRawIteratorINS_17MGDoFCellAccessorILi3ELi3EEEEC1ERKS3_ = weak_odr dso_local unnamed_addr alias void (ptr, ptr), ptr @_ZN6dealii15TriaRawIteratorINS_17MGDoFCellAccessorILi3ELi3EEEEC2ERKS3_
@_ZN6dealii15TriaRawIteratorINS_17MGDoFCellAccessorILi3ELi3EEEEC1ERKS2_ = weak_odr dso_local unnamed_addr alias void (ptr, ptr), ptr @_ZN6dealii15TriaRawIteratorINS_17MGDoFCellAccessorILi3ELi3EEEEC2ERKS2_
@_ZN6dealii15TriaRawIteratorINS_17MGDoFCellAccessorILi3ELi3EEEEC1EPKNS_13TriangulationILi3ELi3EEEiiPKNS_12MGDoFHandlerILi3ELi3EEE = weak_odr dso_local unnamed_addr alias void (ptr, ptr, i32, i32, ptr), ptr @_ZN6dealii15TriaRawIteratorINS_17MGDoFCellAccessorILi3ELi3EEEEC2EPKNS_13TriangulationILi3ELi3EEEiiPKNS_12MGDoFHandlerILi3ELi3EEE
@_ZN6dealii15TriaRawIteratorINS_17MGDoFCellAccessorILi3ELi3EEEE25ExcDereferenceInvalidCellC1ES2_ = weak_odr dso_local unnamed_addr alias void (ptr, ptr), ptr @_ZN6dealii15TriaRawIteratorINS_17MGDoFCellAccessorILi3ELi3EEEE25ExcDereferenceInvalidCellC2ES2_
@_ZN6dealii15TriaRawIteratorINS_17MGDoFCellAccessorILi3ELi3EEEE25ExcDereferenceInvalidCellD1Ev = weak_odr dso_local unnamed_addr alias void (ptr), ptr @_ZN6dealii15TriaRawIteratorINS_17MGDoFCellAccessorILi3ELi3EEEE25ExcDereferenceInvalidCellD2Ev
@_ZN6dealii15TriaRawIteratorINS_17MGDoFCellAccessorILi3ELi3EEEE27ExcDereferenceInvalidObjectC1ES2_ = weak_odr dso_local unnamed_addr alias void (ptr, ptr), ptr @_ZN6dealii15TriaRawIteratorINS_17MGDoFCellAccessorILi3ELi3EEEE27ExcDereferenceInvalidObjectC2ES2_
@_ZN6dealii15TriaRawIteratorINS_17MGDoFCellAccessorILi3ELi3EEEE27ExcDereferenceInvalidObjectD1Ev = weak_odr dso_local unnamed_addr alias void (ptr), ptr @_ZN6dealii15TriaRawIteratorINS_17MGDoFCellAccessorILi3ELi3EEEE27ExcDereferenceInvalidObjectD2Ev
@_ZN6dealii12TriaIteratorINS_17MGDoFCellAccessorILi3ELi3EEEEC1Ev = weak_odr dso_local unnamed_addr alias void (ptr), ptr @_ZN6dealii12TriaIteratorINS_17MGDoFCellAccessorILi3ELi3EEEEC2Ev
@_ZN6dealii12TriaIteratorINS_17MGDoFCellAccessorILi3ELi3EEEEC1ERKS3_ = weak_odr dso_local unnamed_addr alias void (ptr, ptr), ptr @_ZN6dealii12TriaIteratorINS_17MGDoFCellAccessorILi3ELi3EEEEC2ERKS3_
@_ZN6dealii12TriaIteratorINS_17MGDoFCellAccessorILi3ELi3EEEEC1ERKNS_15TriaRawIteratorIS2_EE = weak_odr dso_local unnamed_addr alias void (ptr, ptr), ptr @_ZN6dealii12TriaIteratorINS_17MGDoFCellAccessorILi3ELi3EEEEC2ERKNS_15TriaRawIteratorIS2_EE
@_ZN6dealii12TriaIteratorINS_17MGDoFCellAccessorILi3ELi3EEEEC1EPKNS_13TriangulationILi3ELi3EEEiiPKNS_12MGDoFHandlerILi3ELi3EEE = weak_odr dso_local unnamed_addr alias void (ptr, ptr, i32, i32, ptr), ptr @_ZN6dealii12TriaIteratorINS_17MGDoFCellAccessorILi3ELi3EEEEC2EPKNS_13TriangulationILi3ELi3EEEiiPKNS_12MGDoFHandlerILi3ELi3EEE
@_ZN6dealii18TriaActiveIteratorINS_17MGDoFCellAccessorILi3ELi3EEEEC1Ev = weak_odr dso_local unnamed_addr alias void (ptr), ptr @_ZN6dealii18TriaActiveIteratorINS_17MGDoFCellAccessorILi3ELi3EEEEC2Ev
@_ZN6dealii18TriaActiveIteratorINS_17MGDoFCellAccessorILi3ELi3EEEEC1ERKS3_ = weak_odr dso_local unnamed_addr alias void (ptr, ptr), ptr @_ZN6dealii18TriaActiveIteratorINS_17MGDoFCellAccessorILi3ELi3EEEEC2ERKS3_
@_ZN6dealii18TriaActiveIteratorINS_17MGDoFCellAccessorILi3ELi3EEEEC1ERKNS_15TriaRawIteratorIS2_EE = weak_odr dso_local unnamed_addr alias void (ptr, ptr), ptr @_ZN6dealii18TriaActiveIteratorINS_17MGDoFCellAccessorILi3ELi3EEEEC2ERKNS_15TriaRawIteratorIS2_EE
@_ZN6dealii18TriaActiveIteratorINS_17MGDoFCellAccessorILi3ELi3EEEEC1ERKNS_12TriaIteratorIS2_EE = weak_odr dso_local unnamed_addr alias void (ptr, ptr), ptr @_ZN6dealii18TriaActiveIteratorINS_17MGDoFCellAccessorILi3ELi3EEEEC2ERKNS_12TriaIteratorIS2_EE
@_ZN6dealii18TriaActiveIteratorINS_17MGDoFCellAccessorILi3ELi3EEEEC1EPKNS_13TriangulationILi3ELi3EEEiiPKNS_12MGDoFHandlerILi3ELi3EEE = weak_odr dso_local unnamed_addr alias void (ptr, ptr, i32, i32, ptr), ptr @_ZN6dealii18TriaActiveIteratorINS_17MGDoFCellAccessorILi3ELi3EEEEC2EPKNS_13TriangulationILi3ELi3EEEiiPKNS_12MGDoFHandlerILi3ELi3EEE

; Function Attrs: sspstrong uwtable
define weak_odr dso_local void @_ZNK6dealii13MGDoFAccessorILi1ELi3ELi3EE17get_mg_dof_valuesIdEEviRKNS_6VectorIT_EERS5_(ptr noundef nonnull align 8 dereferenceable(32) %0, i32 noundef %1, ptr noundef nonnull align 1 %2, ptr noundef nonnull align 1 %3) local_unnamed_addr #0 comdat align 2 {
  tail call void @_ZN6dealii8internal13MGDoFAccessor17get_mg_dof_valuesILi3ELi3EdEEvRKNS_13MGDoFAccessorILi1EXT_EXT0_EEEiRKNS_6VectorIT1_EERS9_(ptr noundef nonnull align 8 dereferenceable(32) %0, i32 noundef %1, ptr noundef nonnull align 1 %2, ptr noundef nonnull align 1 %3)
  ret void
}

; Function Attrs: sspstrong uwtable
define linkonce_odr dso_local void @_ZN6dealii8internal13MGDoFAccessor17get_mg_dof_valuesILi3ELi3EdEEvRKNS_13MGDoFAccessorILi1EXT_EXT0_EEEiRKNS_6VectorIT1_EERS9_(ptr noundef nonnull align 8 dereferenceable(32) %0, i32 noundef %1, ptr noundef nonnull align 1 %2, ptr noundef nonnull align 1 %3) local_unnamed_addr #0 comdat {
  %5 = getelementptr inbounds %"class.dealii::DoFAccessor", ptr %0, i64 0, i32 1
  %6 = load ptr, ptr %5, align 8, !tbaa !5
  %7 = getelementptr inbounds %"class.dealii::DoFHandler", ptr %6, i64 0, i32 2
  %8 = load ptr, ptr %7, align 8, !tbaa !13
  %9 = getelementptr inbounds i8, ptr %8, i64 72
  %10 = load i32, ptr %9, align 8, !tbaa !15
  %11 = getelementptr inbounds i8, ptr %8, i64 76
  %12 = load i32, ptr %11, align 4, !tbaa !18
  %13 = getelementptr inbounds %"class.dealii::Vector", ptr %3, i64 0, i32 3
  %14 = load ptr, ptr %13, align 8, !tbaa !19
  %15 = icmp eq i32 %10, 0
  br i1 %15, label %194, label %16

16:                                               ; preds = %4
  %17 = getelementptr inbounds %"class.dealii::Vector", ptr %2, i64 0, i32 3
  %18 = load i32, ptr %0, align 8
  %19 = sext i32 %18 to i64
  %20 = getelementptr inbounds %"class.dealii::TriaAccessorBase", ptr %0, i64 0, i32 1
  %21 = load ptr, ptr %20, align 8
  %22 = getelementptr inbounds %"class.dealii::Triangulation", ptr %21, i64 0, i32 2
  %23 = getelementptr inbounds %"class.dealii::MGDoFAccessor", ptr %0, i64 0, i32 1
  %24 = load ptr, ptr %23, align 8
  %25 = getelementptr inbounds %"class.dealii::MGDoFHandler", ptr %24, i64 0, i32 3
  %26 = load ptr, ptr %22, align 8, !tbaa !31
  %27 = getelementptr inbounds %"class.dealii::internal::Triangulation::TriaFaces", ptr %26, i64 0, i32 1
  %28 = load ptr, ptr %27, align 8, !tbaa !61
  %29 = getelementptr inbounds %"class.dealii::internal::Triangulation::TriaObject", ptr %28, i64 %19
  %30 = load ptr, ptr %25, align 8, !tbaa !63
  %31 = load ptr, ptr %17, align 8, !tbaa !19
  %32 = load i32, ptr %29, align 4, !tbaa !65
  %33 = zext i32 %32 to i64
  %34 = getelementptr inbounds %"class.dealii::MGDoFHandler<3>::MGVertexDoFs", ptr %30, i64 %33
  %35 = getelementptr inbounds %"class.dealii::MGDoFHandler<3>::MGVertexDoFs", ptr %30, i64 %33, i32 2
  %36 = load ptr, ptr %35, align 8, !tbaa !66
  %37 = load i32, ptr %34, align 8, !tbaa !68
  %38 = sub i32 %1, %37
  %39 = mul i32 %38, %10
  %40 = zext i32 %10 to i64
  %41 = and i64 %40, 3
  %42 = icmp ult i32 %10, 4
  br i1 %42, label %91, label %43

43:                                               ; preds = %16
  %44 = and i64 %40, 4294967292
  br label %45

45:                                               ; preds = %45, %43
  %46 = phi i64 [ 0, %43 ], [ %88, %45 ]
  %47 = phi ptr [ %14, %43 ], [ %87, %45 ]
  %48 = phi i64 [ 0, %43 ], [ %89, %45 ]
  %49 = trunc i64 %46 to i32
  %50 = add i32 %39, %49
  %51 = zext i32 %50 to i64
  %52 = getelementptr inbounds i32, ptr %36, i64 %51
  %53 = load i32, ptr %52, align 4, !tbaa !65
  %54 = zext i32 %53 to i64
  %55 = getelementptr inbounds double, ptr %31, i64 %54
  %56 = load double, ptr %55, align 8, !tbaa !69
  %57 = getelementptr inbounds double, ptr %47, i64 1
  store double %56, ptr %47, align 8, !tbaa !69
  %58 = trunc i64 %46 to i32
  %59 = or i32 %58, 1
  %60 = add i32 %39, %59
  %61 = zext i32 %60 to i64
  %62 = getelementptr inbounds i32, ptr %36, i64 %61
  %63 = load i32, ptr %62, align 4, !tbaa !65
  %64 = zext i32 %63 to i64
  %65 = getelementptr inbounds double, ptr %31, i64 %64
  %66 = load double, ptr %65, align 8, !tbaa !69
  %67 = getelementptr inbounds double, ptr %47, i64 2
  store double %66, ptr %57, align 8, !tbaa !69
  %68 = trunc i64 %46 to i32
  %69 = or i32 %68, 2
  %70 = add i32 %39, %69
  %71 = zext i32 %70 to i64
  %72 = getelementptr inbounds i32, ptr %36, i64 %71
  %73 = load i32, ptr %72, align 4, !tbaa !65
  %74 = zext i32 %73 to i64
  %75 = getelementptr inbounds double, ptr %31, i64 %74
  %76 = load double, ptr %75, align 8, !tbaa !69
  %77 = getelementptr inbounds double, ptr %47, i64 3
  store double %76, ptr %67, align 8, !tbaa !69
  %78 = trunc i64 %46 to i32
  %79 = or i32 %78, 3
  %80 = add i32 %39, %79
  %81 = zext i32 %80 to i64
  %82 = getelementptr inbounds i32, ptr %36, i64 %81
  %83 = load i32, ptr %82, align 4, !tbaa !65
  %84 = zext i32 %83 to i64
  %85 = getelementptr inbounds double, ptr %31, i64 %84
  %86 = load double, ptr %85, align 8, !tbaa !69
  %87 = getelementptr inbounds double, ptr %47, i64 4
  store double %86, ptr %77, align 8, !tbaa !69
  %88 = add nuw nsw i64 %46, 4
  %89 = add i64 %48, 4
  %90 = icmp eq i64 %89, %44
  br i1 %90, label %91, label %45

91:                                               ; preds = %45, %16
  %92 = phi ptr [ undef, %16 ], [ %87, %45 ]
  %93 = phi i64 [ 0, %16 ], [ %88, %45 ]
  %94 = phi ptr [ %14, %16 ], [ %87, %45 ]
  %95 = icmp eq i64 %41, 0
  br i1 %95, label %112, label %96

96:                                               ; preds = %91, %96
  %97 = phi i64 [ %109, %96 ], [ %93, %91 ]
  %98 = phi ptr [ %108, %96 ], [ %94, %91 ]
  %99 = phi i64 [ %110, %96 ], [ 0, %91 ]
  %100 = trunc i64 %97 to i32
  %101 = add i32 %39, %100
  %102 = zext i32 %101 to i64
  %103 = getelementptr inbounds i32, ptr %36, i64 %102
  %104 = load i32, ptr %103, align 4, !tbaa !65
  %105 = zext i32 %104 to i64
  %106 = getelementptr inbounds double, ptr %31, i64 %105
  %107 = load double, ptr %106, align 8, !tbaa !69
  %108 = getelementptr inbounds double, ptr %98, i64 1
  store double %107, ptr %98, align 8, !tbaa !69
  %109 = add nuw nsw i64 %97, 1
  %110 = add i64 %99, 1
  %111 = icmp eq i64 %110, %41
  br i1 %111, label %112, label %96, !llvm.loop !71

112:                                              ; preds = %96, %91
  %113 = phi ptr [ %92, %91 ], [ %108, %96 ]
  %114 = getelementptr inbounds [2 x i32], ptr %29, i64 0, i64 1
  %115 = load i32, ptr %114, align 4, !tbaa !65
  %116 = zext i32 %115 to i64
  %117 = getelementptr inbounds %"class.dealii::MGDoFHandler<3>::MGVertexDoFs", ptr %30, i64 %116
  %118 = getelementptr inbounds %"class.dealii::MGDoFHandler<3>::MGVertexDoFs", ptr %30, i64 %116, i32 2
  %119 = load ptr, ptr %118, align 8, !tbaa !66
  %120 = load i32, ptr %117, align 8, !tbaa !68
  %121 = sub i32 %1, %120
  %122 = mul i32 %121, %10
  %123 = and i64 %40, 3
  %124 = icmp ult i32 %10, 4
  br i1 %124, label %173, label %125

125:                                              ; preds = %112
  %126 = and i64 %40, 4294967292
  br label %127

127:                                              ; preds = %127, %125
  %128 = phi i64 [ 0, %125 ], [ %170, %127 ]
  %129 = phi ptr [ %113, %125 ], [ %169, %127 ]
  %130 = phi i64 [ 0, %125 ], [ %171, %127 ]
  %131 = trunc i64 %128 to i32
  %132 = add i32 %122, %131
  %133 = zext i32 %132 to i64
  %134 = getelementptr inbounds i32, ptr %119, i64 %133
  %135 = load i32, ptr %134, align 4, !tbaa !65
  %136 = zext i32 %135 to i64
  %137 = getelementptr inbounds double, ptr %31, i64 %136
  %138 = load double, ptr %137, align 8, !tbaa !69
  %139 = getelementptr inbounds double, ptr %129, i64 1
  store double %138, ptr %129, align 8, !tbaa !69
  %140 = trunc i64 %128 to i32
  %141 = or i32 %140, 1
  %142 = add i32 %122, %141
  %143 = zext i32 %142 to i64
  %144 = getelementptr inbounds i32, ptr %119, i64 %143
  %145 = load i32, ptr %144, align 4, !tbaa !65
  %146 = zext i32 %145 to i64
  %147 = getelementptr inbounds double, ptr %31, i64 %146
  %148 = load double, ptr %147, align 8, !tbaa !69
  %149 = getelementptr inbounds double, ptr %129, i64 2
  store double %148, ptr %139, align 8, !tbaa !69
  %150 = trunc i64 %128 to i32
  %151 = or i32 %150, 2
  %152 = add i32 %122, %151
  %153 = zext i32 %152 to i64
  %154 = getelementptr inbounds i32, ptr %119, i64 %153
  %155 = load i32, ptr %154, align 4, !tbaa !65
  %156 = zext i32 %155 to i64
  %157 = getelementptr inbounds double, ptr %31, i64 %156
  %158 = load double, ptr %157, align 8, !tbaa !69
  %159 = getelementptr inbounds double, ptr %129, i64 3
  store double %158, ptr %149, align 8, !tbaa !69
  %160 = trunc i64 %128 to i32
  %161 = or i32 %160, 3
  %162 = add i32 %122, %161
  %163 = zext i32 %162 to i64
  %164 = getelementptr inbounds i32, ptr %119, i64 %163
  %165 = load i32, ptr %164, align 4, !tbaa !65
  %166 = zext i32 %165 to i64
  %167 = getelementptr inbounds double, ptr %31, i64 %166
  %168 = load double, ptr %167, align 8, !tbaa !69
  %169 = getelementptr inbounds double, ptr %129, i64 4
  store double %168, ptr %159, align 8, !tbaa !69
  %170 = add nuw nsw i64 %128, 4
  %171 = add i64 %130, 4
  %172 = icmp eq i64 %171, %126
  br i1 %172, label %173, label %127

173:                                              ; preds = %127, %112
  %174 = phi ptr [ undef, %112 ], [ %169, %127 ]
  %175 = phi i64 [ 0, %112 ], [ %170, %127 ]
  %176 = phi ptr [ %113, %112 ], [ %169, %127 ]
  %177 = icmp eq i64 %123, 0
  br i1 %177, label %194, label %178

178:                                              ; preds = %173, %178
  %179 = phi i64 [ %191, %178 ], [ %175, %173 ]
  %180 = phi ptr [ %190, %178 ], [ %176, %173 ]
  %181 = phi i64 [ %192, %178 ], [ 0, %173 ]
  %182 = trunc i64 %179 to i32
  %183 = add i32 %122, %182
  %184 = zext i32 %183 to i64
  %185 = getelementptr inbounds i32, ptr %119, i64 %184
  %186 = load i32, ptr %185, align 4, !tbaa !65
  %187 = zext i32 %186 to i64
  %188 = getelementptr inbounds double, ptr %31, i64 %187
  %189 = load double, ptr %188, align 8, !tbaa !69
  %190 = getelementptr inbounds double, ptr %180, i64 1
  store double %189, ptr %180, align 8, !tbaa !69
  %191 = add nuw nsw i64 %179, 1
  %192 = add i64 %181, 1
  %193 = icmp eq i64 %192, %123
  br i1 %193, label %194, label %178, !llvm.loop !73

194:                                              ; preds = %173, %178, %4
  %195 = phi ptr [ %14, %4 ], [ %174, %173 ], [ %190, %178 ]
  %196 = icmp eq i32 %12, 0
  br i1 %196, label %200, label %197

197:                                              ; preds = %194
  %198 = getelementptr inbounds %"class.dealii::MGDoFAccessor", ptr %0, i64 0, i32 1
  %199 = getelementptr inbounds %"class.dealii::Vector", ptr %2, i64 0, i32 3
  br label %201

200:                                              ; preds = %201, %194
  ret void

201:                                              ; preds = %197, %201
  %202 = phi i32 [ 0, %197 ], [ %212, %201 ]
  %203 = phi ptr [ %195, %197 ], [ %211, %201 ]
  %204 = load ptr, ptr %198, align 8, !tbaa !74
  %205 = load i32, ptr %0, align 8, !tbaa !76
  %206 = tail call noundef i32 @_ZNK6dealii12MGDoFHandlerILi3ELi3EE13get_dof_indexILi1EEEjjjjj(ptr noundef nonnull align 8 dereferenceable(248) %204, i32 noundef %1, i32 noundef %205, i32 noundef 0, i32 noundef %202)
  %207 = load ptr, ptr %199, align 8, !tbaa !19
  %208 = zext i32 %206 to i64
  %209 = getelementptr inbounds double, ptr %207, i64 %208
  %210 = load double, ptr %209, align 8, !tbaa !69
  %211 = getelementptr inbounds double, ptr %203, i64 1
  store double %210, ptr %203, align 8, !tbaa !69
  %212 = add nuw i32 %202, 1
  %213 = icmp eq i32 %212, %12
  br i1 %213, label %200, label %201
}

; Function Attrs: sspstrong uwtable
define weak_odr dso_local void @_ZNK6dealii13MGDoFAccessorILi1ELi3ELi3EE17get_mg_dof_valuesIfEEviRKNS_6VectorIT_EERS5_(ptr noundef nonnull align 8 dereferenceable(32) %0, i32 noundef %1, ptr noundef nonnull align 1 %2, ptr noundef nonnull align 1 %3) local_unnamed_addr #0 comdat align 2 {
  tail call void @_ZN6dealii8internal13MGDoFAccessor17get_mg_dof_valuesILi3ELi3EfEEvRKNS_13MGDoFAccessorILi1EXT_EXT0_EEEiRKNS_6VectorIT1_EERS9_(ptr noundef nonnull align 8 dereferenceable(32) %0, i32 noundef %1, ptr noundef nonnull align 1 %2, ptr noundef nonnull align 1 %3)
  ret void
}

; Function Attrs: sspstrong uwtable
define linkonce_odr dso_local void @_ZN6dealii8internal13MGDoFAccessor17get_mg_dof_valuesILi3ELi3EfEEvRKNS_13MGDoFAccessorILi1EXT_EXT0_EEEiRKNS_6VectorIT1_EERS9_(ptr noundef nonnull align 8 dereferenceable(32) %0, i32 noundef %1, ptr noundef nonnull align 1 %2, ptr noundef nonnull align 1 %3) local_unnamed_addr #0 comdat {
  %5 = getelementptr inbounds %"class.dealii::DoFAccessor", ptr %0, i64 0, i32 1
  %6 = load ptr, ptr %5, align 8, !tbaa !5
  %7 = getelementptr inbounds %"class.dealii::DoFHandler", ptr %6, i64 0, i32 2
  %8 = load ptr, ptr %7, align 8, !tbaa !13
  %9 = getelementptr inbounds i8, ptr %8, i64 72
  %10 = load i32, ptr %9, align 8, !tbaa !15
  %11 = getelementptr inbounds i8, ptr %8, i64 76
  %12 = load i32, ptr %11, align 4, !tbaa !18
  %13 = getelementptr inbounds %"class.dealii::Vector.16", ptr %3, i64 0, i32 3
  %14 = load ptr, ptr %13, align 8, !tbaa !77
  %15 = icmp eq i32 %10, 0
  br i1 %15, label %194, label %16

16:                                               ; preds = %4
  %17 = getelementptr inbounds %"class.dealii::Vector.16", ptr %2, i64 0, i32 3
  %18 = load i32, ptr %0, align 8
  %19 = sext i32 %18 to i64
  %20 = getelementptr inbounds %"class.dealii::TriaAccessorBase", ptr %0, i64 0, i32 1
  %21 = load ptr, ptr %20, align 8
  %22 = getelementptr inbounds %"class.dealii::Triangulation", ptr %21, i64 0, i32 2
  %23 = getelementptr inbounds %"class.dealii::MGDoFAccessor", ptr %0, i64 0, i32 1
  %24 = load ptr, ptr %23, align 8
  %25 = getelementptr inbounds %"class.dealii::MGDoFHandler", ptr %24, i64 0, i32 3
  %26 = load ptr, ptr %22, align 8, !tbaa !31
  %27 = getelementptr inbounds %"class.dealii::internal::Triangulation::TriaFaces", ptr %26, i64 0, i32 1
  %28 = load ptr, ptr %27, align 8, !tbaa !61
  %29 = getelementptr inbounds %"class.dealii::internal::Triangulation::TriaObject", ptr %28, i64 %19
  %30 = load ptr, ptr %25, align 8, !tbaa !63
  %31 = load ptr, ptr %17, align 8, !tbaa !77
  %32 = load i32, ptr %29, align 4, !tbaa !65
  %33 = zext i32 %32 to i64
  %34 = getelementptr inbounds %"class.dealii::MGDoFHandler<3>::MGVertexDoFs", ptr %30, i64 %33
  %35 = getelementptr inbounds %"class.dealii::MGDoFHandler<3>::MGVertexDoFs", ptr %30, i64 %33, i32 2
  %36 = load ptr, ptr %35, align 8, !tbaa !66
  %37 = load i32, ptr %34, align 8, !tbaa !68
  %38 = sub i32 %1, %37
  %39 = mul i32 %38, %10
  %40 = zext i32 %10 to i64
  %41 = and i64 %40, 3
  %42 = icmp ult i32 %10, 4
  br i1 %42, label %91, label %43

43:                                               ; preds = %16
  %44 = and i64 %40, 4294967292
  br label %45

45:                                               ; preds = %45, %43
  %46 = phi i64 [ 0, %43 ], [ %88, %45 ]
  %47 = phi ptr [ %14, %43 ], [ %87, %45 ]
  %48 = phi i64 [ 0, %43 ], [ %89, %45 ]
  %49 = trunc i64 %46 to i32
  %50 = add i32 %39, %49
  %51 = zext i32 %50 to i64
  %52 = getelementptr inbounds i32, ptr %36, i64 %51
  %53 = load i32, ptr %52, align 4, !tbaa !65
  %54 = zext i32 %53 to i64
  %55 = getelementptr inbounds float, ptr %31, i64 %54
  %56 = load float, ptr %55, align 4, !tbaa !79
  %57 = getelementptr inbounds float, ptr %47, i64 1
  store float %56, ptr %47, align 4, !tbaa !79
  %58 = trunc i64 %46 to i32
  %59 = or i32 %58, 1
  %60 = add i32 %39, %59
  %61 = zext i32 %60 to i64
  %62 = getelementptr inbounds i32, ptr %36, i64 %61
  %63 = load i32, ptr %62, align 4, !tbaa !65
  %64 = zext i32 %63 to i64
  %65 = getelementptr inbounds float, ptr %31, i64 %64
  %66 = load float, ptr %65, align 4, !tbaa !79
  %67 = getelementptr inbounds float, ptr %47, i64 2
  store float %66, ptr %57, align 4, !tbaa !79
  %68 = trunc i64 %46 to i32
  %69 = or i32 %68, 2
  %70 = add i32 %39, %69
  %71 = zext i32 %70 to i64
  %72 = getelementptr inbounds i32, ptr %36, i64 %71
  %73 = load i32, ptr %72, align 4, !tbaa !65
  %74 = zext i32 %73 to i64
  %75 = getelementptr inbounds float, ptr %31, i64 %74
  %76 = load float, ptr %75, align 4, !tbaa !79
  %77 = getelementptr inbounds float, ptr %47, i64 3
  store float %76, ptr %67, align 4, !tbaa !79
  %78 = trunc i64 %46 to i32
  %79 = or i32 %78, 3
  %80 = add i32 %39, %79
  %81 = zext i32 %80 to i64
  %82 = getelementptr inbounds i32, ptr %36, i64 %81
  %83 = load i32, ptr %82, align 4, !tbaa !65
  %84 = zext i32 %83 to i64
  %85 = getelementptr inbounds float, ptr %31, i64 %84
  %86 = load float, ptr %85, align 4, !tbaa !79
  %87 = getelementptr inbounds float, ptr %47, i64 4
  store float %86, ptr %77, align 4, !tbaa !79
  %88 = add nuw nsw i64 %46, 4
  %89 = add i64 %48, 4
  %90 = icmp eq i64 %89, %44
  br i1 %90, label %91, label %45

91:                                               ; preds = %45, %16
  %92 = phi ptr [ undef, %16 ], [ %87, %45 ]
  %93 = phi i64 [ 0, %16 ], [ %88, %45 ]
  %94 = phi ptr [ %14, %16 ], [ %87, %45 ]
  %95 = icmp eq i64 %41, 0
  br i1 %95, label %112, label %96

96:                                               ; preds = %91, %96
  %97 = phi i64 [ %109, %96 ], [ %93, %91 ]
  %98 = phi ptr [ %108, %96 ], [ %94, %91 ]
  %99 = phi i64 [ %110, %96 ], [ 0, %91 ]
  %100 = trunc i64 %97 to i32
  %101 = add i32 %39, %100
  %102 = zext i32 %101 to i64
  %103 = getelementptr inbounds i32, ptr %36, i64 %102
  %104 = load i32, ptr %103, align 4, !tbaa !65
  %105 = zext i32 %104 to i64
  %106 = getelementptr inbounds float, ptr %31, i64 %105
  %107 = load float, ptr %106, align 4, !tbaa !79
  %108 = getelementptr inbounds float, ptr %98, i64 1
  store float %107, ptr %98, align 4, !tbaa !79
  %109 = add nuw nsw i64 %97, 1
  %110 = add i64 %99, 1
  %111 = icmp eq i64 %110, %41
  br i1 %111, label %112, label %96, !llvm.loop !81

112:                                              ; preds = %96, %91
  %113 = phi ptr [ %92, %91 ], [ %108, %96 ]
  %114 = getelementptr inbounds [2 x i32], ptr %29, i64 0, i64 1
  %115 = load i32, ptr %114, align 4, !tbaa !65
  %116 = zext i32 %115 to i64
  %117 = getelementptr inbounds %"class.dealii::MGDoFHandler<3>::MGVertexDoFs", ptr %30, i64 %116
  %118 = getelementptr inbounds %"class.dealii::MGDoFHandler<3>::MGVertexDoFs", ptr %30, i64 %116, i32 2
  %119 = load ptr, ptr %118, align 8, !tbaa !66
  %120 = load i32, ptr %117, align 8, !tbaa !68
  %121 = sub i32 %1, %120
  %122 = mul i32 %121, %10
  %123 = and i64 %40, 3
  %124 = icmp ult i32 %10, 4
  br i1 %124, label %173, label %125

125:                                              ; preds = %112
  %126 = and i64 %40, 4294967292
  br label %127

127:                                              ; preds = %127, %125
  %128 = phi i64 [ 0, %125 ], [ %170, %127 ]
  %129 = phi ptr [ %113, %125 ], [ %169, %127 ]
  %130 = phi i64 [ 0, %125 ], [ %171, %127 ]
  %131 = trunc i64 %128 to i32
  %132 = add i32 %122, %131
  %133 = zext i32 %132 to i64
  %134 = getelementptr inbounds i32, ptr %119, i64 %133
  %135 = load i32, ptr %134, align 4, !tbaa !65
  %136 = zext i32 %135 to i64
  %137 = getelementptr inbounds float, ptr %31, i64 %136
  %138 = load float, ptr %137, align 4, !tbaa !79
  %139 = getelementptr inbounds float, ptr %129, i64 1
  store float %138, ptr %129, align 4, !tbaa !79
  %140 = trunc i64 %128 to i32
  %141 = or i32 %140, 1
  %142 = add i32 %122, %141
  %143 = zext i32 %142 to i64
  %144 = getelementptr inbounds i32, ptr %119, i64 %143
  %145 = load i32, ptr %144, align 4, !tbaa !65
  %146 = zext i32 %145 to i64
  %147 = getelementptr inbounds float, ptr %31, i64 %146
  %148 = load float, ptr %147, align 4, !tbaa !79
  %149 = getelementptr inbounds float, ptr %129, i64 2
  store float %148, ptr %139, align 4, !tbaa !79
  %150 = trunc i64 %128 to i32
  %151 = or i32 %150, 2
  %152 = add i32 %122, %151
  %153 = zext i32 %152 to i64
  %154 = getelementptr inbounds i32, ptr %119, i64 %153
  %155 = load i32, ptr %154, align 4, !tbaa !65
  %156 = zext i32 %155 to i64
  %157 = getelementptr inbounds float, ptr %31, i64 %156
  %158 = load float, ptr %157, align 4, !tbaa !79
  %159 = getelementptr inbounds float, ptr %129, i64 3
  store float %158, ptr %149, align 4, !tbaa !79
  %160 = trunc i64 %128 to i32
  %161 = or i32 %160, 3
  %162 = add i32 %122, %161
  %163 = zext i32 %162 to i64
  %164 = getelementptr inbounds i32, ptr %119, i64 %163
  %165 = load i32, ptr %164, align 4, !tbaa !65
  %166 = zext i32 %165 to i64
  %167 = getelementptr inbounds float, ptr %31, i64 %166
  %168 = load float, ptr %167, align 4, !tbaa !79
  %169 = getelementptr inbounds float, ptr %129, i64 4
  store float %168, ptr %159, align 4, !tbaa !79
  %170 = add nuw nsw i64 %128, 4
  %171 = add i64 %130, 4
  %172 = icmp eq i64 %171, %126
  br i1 %172, label %173, label %127

173:                                              ; preds = %127, %112
  %174 = phi ptr [ undef, %112 ], [ %169, %127 ]
  %175 = phi i64 [ 0, %112 ], [ %170, %127 ]
  %176 = phi ptr [ %113, %112 ], [ %169, %127 ]
  %177 = icmp eq i64 %123, 0
  br i1 %177, label %194, label %178

178:                                              ; preds = %173, %178
  %179 = phi i64 [ %191, %178 ], [ %175, %173 ]
  %180 = phi ptr [ %190, %178 ], [ %176, %173 ]
  %181 = phi i64 [ %192, %178 ], [ 0, %173 ]
  %182 = trunc i64 %179 to i32
  %183 = add i32 %122, %182
  %184 = zext i32 %183 to i64
  %185 = getelementptr inbounds i32, ptr %119, i64 %184
  %186 = load i32, ptr %185, align 4, !tbaa !65
  %187 = zext i32 %186 to i64
  %188 = getelementptr inbounds float, ptr %31, i64 %187
  %189 = load float, ptr %188, align 4, !tbaa !79
  %190 = getelementptr inbounds float, ptr %180, i64 1
  store float %189, ptr %180, align 4, !tbaa !79
  %191 = add nuw nsw i64 %179, 1
  %192 = add i64 %181, 1
  %193 = icmp eq i64 %192, %123
  br i1 %193, label %194, label %178, !llvm.loop !82

194:                                              ; preds = %173, %178, %4
  %195 = phi ptr [ %14, %4 ], [ %174, %173 ], [ %190, %178 ]
  %196 = icmp eq i32 %12, 0
  br i1 %196, label %200, label %197

197:                                              ; preds = %194
  %198 = getelementptr inbounds %"class.dealii::MGDoFAccessor", ptr %0, i64 0, i32 1
  %199 = getelementptr inbounds %"class.dealii::Vector.16", ptr %2, i64 0, i32 3
  br label %201

200:                                              ; preds = %201, %194
  ret void

201:                                              ; preds = %197, %201
  %202 = phi i32 [ 0, %197 ], [ %212, %201 ]
  %203 = phi ptr [ %195, %197 ], [ %211, %201 ]
  %204 = load ptr, ptr %198, align 8, !tbaa !74
  %205 = load i32, ptr %0, align 8, !tbaa !76
  %206 = tail call noundef i32 @_ZNK6dealii12MGDoFHandlerILi3ELi3EE13get_dof_indexILi1EEEjjjjj(ptr noundef nonnull align 8 dereferenceable(248) %204, i32 noundef %1, i32 noundef %205, i32 noundef 0, i32 noundef %202)
  %207 = load ptr, ptr %199, align 8, !tbaa !77
  %208 = zext i32 %206 to i64
  %209 = getelementptr inbounds float, ptr %207, i64 %208
  %210 = load float, ptr %209, align 4, !tbaa !79
  %211 = getelementptr inbounds float, ptr %203, i64 1
  store float %210, ptr %203, align 4, !tbaa !79
  %212 = add nuw i32 %202, 1
  %213 = icmp eq i32 %212, %12
  br i1 %213, label %200, label %201
}

; Function Attrs: sspstrong uwtable
define weak_odr dso_local void @_ZNK6dealii13MGDoFAccessorILi2ELi3ELi3EE17get_mg_dof_valuesIdEEviRKNS_6VectorIT_EERS5_(ptr noundef nonnull align 8 dereferenceable(32) %0, i32 noundef %1, ptr noundef nonnull align 1 %2, ptr noundef nonnull align 1 %3) local_unnamed_addr #0 comdat align 2 {
  tail call void @_ZN6dealii8internal13MGDoFAccessor17get_mg_dof_valuesILi3ELi3EdEEvRKNS_13MGDoFAccessorILi2EXT_EXT0_EEEiRKNS_6VectorIT1_EERS9_(ptr noundef nonnull align 8 dereferenceable(32) %0, i32 noundef %1, ptr noundef nonnull align 1 %2, ptr noundef nonnull align 1 %3)
  ret void
}

; Function Attrs: sspstrong uwtable
define linkonce_odr dso_local void @_ZN6dealii8internal13MGDoFAccessor17get_mg_dof_valuesILi3ELi3EdEEvRKNS_13MGDoFAccessorILi2EXT_EXT0_EEEiRKNS_6VectorIT1_EERS9_(ptr noundef nonnull align 8 dereferenceable(32) %0, i32 noundef %1, ptr noundef nonnull align 1 %2, ptr noundef nonnull align 1 %3) local_unnamed_addr #0 comdat {
  %5 = getelementptr inbounds %"class.dealii::DoFAccessor.18", ptr %0, i64 0, i32 1
  %6 = load ptr, ptr %5, align 8, !tbaa !83
  %7 = getelementptr inbounds %"class.dealii::DoFHandler", ptr %6, i64 0, i32 2
  %8 = load ptr, ptr %7, align 8, !tbaa !13
  %9 = getelementptr inbounds i8, ptr %8, i64 72
  %10 = load i32, ptr %9, align 8, !tbaa !15
  %11 = getelementptr inbounds i8, ptr %8, i64 76
  %12 = load i32, ptr %11, align 4, !tbaa !18
  %13 = getelementptr inbounds i8, ptr %8, i64 80
  %14 = load i32, ptr %13, align 8, !tbaa !87
  %15 = getelementptr inbounds %"class.dealii::Vector", ptr %3, i64 0, i32 3
  %16 = load ptr, ptr %15, align 8, !tbaa !19
  %17 = icmp eq i32 %10, 0
  %18 = load i32, ptr %0, align 8
  %19 = shl i32 %18, 2
  %20 = and i32 %19, 60
  br i1 %17, label %396, label %21

21:                                               ; preds = %4
  %22 = getelementptr inbounds %"class.dealii::Vector", ptr %2, i64 0, i32 3
  %23 = lshr i32 %19, 6
  %24 = zext i32 %23 to i64
  %25 = sext i32 %18 to i64
  %26 = getelementptr inbounds %"class.dealii::TriaAccessorBase.20", ptr %0, i64 0, i32 1
  %27 = load ptr, ptr %26, align 8
  %28 = getelementptr inbounds %"class.dealii::Triangulation", ptr %27, i64 0, i32 2
  %29 = getelementptr inbounds %"class.dealii::MGDoFAccessor.17", ptr %0, i64 0, i32 1
  %30 = load ptr, ptr %29, align 8
  %31 = getelementptr inbounds %"class.dealii::MGDoFHandler", ptr %30, i64 0, i32 3
  %32 = load ptr, ptr %28, align 8, !tbaa !31
  %33 = load ptr, ptr %32, align 8, !tbaa !88, !noalias !90
  %34 = getelementptr inbounds %"class.dealii::internal::Triangulation::TriaObject.151", ptr %33, i64 %25
  %35 = getelementptr inbounds %"class.dealii::internal::Triangulation::TriaObjectsQuad3D", ptr %32, i64 0, i32 1
  %36 = load ptr, ptr %35, align 8, !tbaa !93
  %37 = getelementptr inbounds i64, ptr %36, i64 %24
  %38 = load i64, ptr %37, align 8, !tbaa !94
  %39 = getelementptr inbounds %"class.dealii::internal::Triangulation::TriaFaces", ptr %32, i64 0, i32 1
  %40 = load ptr, ptr %39, align 8, !tbaa !61
  %41 = load ptr, ptr %31, align 8, !tbaa !63
  %42 = load ptr, ptr %22, align 8, !tbaa !19
  %43 = load i32, ptr %34, align 4, !tbaa !65, !noalias !90
  %44 = zext i32 %20 to i64
  %45 = lshr i64 %38, %44
  %46 = and i64 %45, 1
  %47 = getelementptr inbounds [2 x [2 x i32]], ptr @_ZZN6dealii8internal12TriaAccessor14Implementation12vertex_indexILi3ELi3EEEjRKNS_12TriaAccessorILi2EXT_EXT0_EEEjE12switch_table, i64 0, i64 %46, i64 0
  %48 = load i32, ptr %47, align 8, !tbaa !65
  %49 = sext i32 %43 to i64
  %50 = getelementptr inbounds %"class.dealii::internal::Triangulation::TriaObject", ptr %40, i64 %49
  %51 = zext i32 %48 to i64
  %52 = getelementptr inbounds [2 x i32], ptr %50, i64 0, i64 %51
  %53 = load i32, ptr %52, align 4, !tbaa !65
  %54 = zext i32 %53 to i64
  %55 = getelementptr inbounds %"class.dealii::MGDoFHandler<3>::MGVertexDoFs", ptr %41, i64 %54
  %56 = getelementptr inbounds %"class.dealii::MGDoFHandler<3>::MGVertexDoFs", ptr %41, i64 %54, i32 2
  %57 = load ptr, ptr %56, align 8, !tbaa !66
  %58 = load i32, ptr %55, align 8, !tbaa !68
  %59 = sub i32 %1, %58
  %60 = mul i32 %59, %10
  %61 = zext i32 %10 to i64
  %62 = and i64 %61, 3
  %63 = icmp ult i32 %10, 4
  br i1 %63, label %112, label %64

64:                                               ; preds = %21
  %65 = and i64 %61, 4294967292
  br label %66

66:                                               ; preds = %66, %64
  %67 = phi i64 [ 0, %64 ], [ %109, %66 ]
  %68 = phi ptr [ %16, %64 ], [ %108, %66 ]
  %69 = phi i64 [ 0, %64 ], [ %110, %66 ]
  %70 = trunc i64 %67 to i32
  %71 = add i32 %60, %70
  %72 = zext i32 %71 to i64
  %73 = getelementptr inbounds i32, ptr %57, i64 %72
  %74 = load i32, ptr %73, align 4, !tbaa !65
  %75 = zext i32 %74 to i64
  %76 = getelementptr inbounds double, ptr %42, i64 %75
  %77 = load double, ptr %76, align 8, !tbaa !69
  %78 = getelementptr inbounds double, ptr %68, i64 1
  store double %77, ptr %68, align 8, !tbaa !69
  %79 = trunc i64 %67 to i32
  %80 = or i32 %79, 1
  %81 = add i32 %60, %80
  %82 = zext i32 %81 to i64
  %83 = getelementptr inbounds i32, ptr %57, i64 %82
  %84 = load i32, ptr %83, align 4, !tbaa !65
  %85 = zext i32 %84 to i64
  %86 = getelementptr inbounds double, ptr %42, i64 %85
  %87 = load double, ptr %86, align 8, !tbaa !69
  %88 = getelementptr inbounds double, ptr %68, i64 2
  store double %87, ptr %78, align 8, !tbaa !69
  %89 = trunc i64 %67 to i32
  %90 = or i32 %89, 2
  %91 = add i32 %60, %90
  %92 = zext i32 %91 to i64
  %93 = getelementptr inbounds i32, ptr %57, i64 %92
  %94 = load i32, ptr %93, align 4, !tbaa !65
  %95 = zext i32 %94 to i64
  %96 = getelementptr inbounds double, ptr %42, i64 %95
  %97 = load double, ptr %96, align 8, !tbaa !69
  %98 = getelementptr inbounds double, ptr %68, i64 3
  store double %97, ptr %88, align 8, !tbaa !69
  %99 = trunc i64 %67 to i32
  %100 = or i32 %99, 3
  %101 = add i32 %60, %100
  %102 = zext i32 %101 to i64
  %103 = getelementptr inbounds i32, ptr %57, i64 %102
  %104 = load i32, ptr %103, align 4, !tbaa !65
  %105 = zext i32 %104 to i64
  %106 = getelementptr inbounds double, ptr %42, i64 %105
  %107 = load double, ptr %106, align 8, !tbaa !69
  %108 = getelementptr inbounds double, ptr %68, i64 4
  store double %107, ptr %98, align 8, !tbaa !69
  %109 = add nuw nsw i64 %67, 4
  %110 = add i64 %69, 4
  %111 = icmp eq i64 %110, %65
  br i1 %111, label %112, label %66

112:                                              ; preds = %66, %21
  %113 = phi ptr [ undef, %21 ], [ %108, %66 ]
  %114 = phi i64 [ 0, %21 ], [ %109, %66 ]
  %115 = phi ptr [ %16, %21 ], [ %108, %66 ]
  %116 = icmp eq i64 %62, 0
  br i1 %116, label %133, label %117

117:                                              ; preds = %112, %117
  %118 = phi i64 [ %130, %117 ], [ %114, %112 ]
  %119 = phi ptr [ %129, %117 ], [ %115, %112 ]
  %120 = phi i64 [ %131, %117 ], [ 0, %112 ]
  %121 = trunc i64 %118 to i32
  %122 = add i32 %60, %121
  %123 = zext i32 %122 to i64
  %124 = getelementptr inbounds i32, ptr %57, i64 %123
  %125 = load i32, ptr %124, align 4, !tbaa !65
  %126 = zext i32 %125 to i64
  %127 = getelementptr inbounds double, ptr %42, i64 %126
  %128 = load double, ptr %127, align 8, !tbaa !69
  %129 = getelementptr inbounds double, ptr %119, i64 1
  store double %128, ptr %119, align 8, !tbaa !69
  %130 = add nuw nsw i64 %118, 1
  %131 = add i64 %120, 1
  %132 = icmp eq i64 %131, %62
  br i1 %132, label %133, label %117, !llvm.loop !95

133:                                              ; preds = %117, %112
  %134 = phi ptr [ %113, %112 ], [ %129, %117 ]
  %135 = getelementptr inbounds [4 x i32], ptr %34, i64 0, i64 1
  %136 = load i32, ptr %135, align 4, !tbaa !65, !noalias !90
  %137 = or i32 %20, 1
  %138 = zext i32 %137 to i64
  %139 = lshr i64 %38, %138
  %140 = and i64 %139, 1
  %141 = getelementptr inbounds [2 x [2 x i32]], ptr @_ZZN6dealii8internal12TriaAccessor14Implementation12vertex_indexILi3ELi3EEEjRKNS_12TriaAccessorILi2EXT_EXT0_EEEjE12switch_table, i64 0, i64 %140, i64 0
  %142 = load i32, ptr %141, align 8, !tbaa !65
  %143 = sext i32 %136 to i64
  %144 = getelementptr inbounds %"class.dealii::internal::Triangulation::TriaObject", ptr %40, i64 %143
  %145 = zext i32 %142 to i64
  %146 = getelementptr inbounds [2 x i32], ptr %144, i64 0, i64 %145
  %147 = load i32, ptr %146, align 4, !tbaa !65
  %148 = zext i32 %147 to i64
  %149 = getelementptr inbounds %"class.dealii::MGDoFHandler<3>::MGVertexDoFs", ptr %41, i64 %148
  %150 = getelementptr inbounds %"class.dealii::MGDoFHandler<3>::MGVertexDoFs", ptr %41, i64 %148, i32 2
  %151 = load ptr, ptr %150, align 8, !tbaa !66
  %152 = load i32, ptr %149, align 8, !tbaa !68
  %153 = sub i32 %1, %152
  %154 = mul i32 %153, %10
  %155 = and i64 %61, 3
  %156 = icmp ult i32 %10, 4
  br i1 %156, label %205, label %157

157:                                              ; preds = %133
  %158 = and i64 %61, 4294967292
  br label %159

159:                                              ; preds = %159, %157
  %160 = phi i64 [ 0, %157 ], [ %202, %159 ]
  %161 = phi ptr [ %134, %157 ], [ %201, %159 ]
  %162 = phi i64 [ 0, %157 ], [ %203, %159 ]
  %163 = trunc i64 %160 to i32
  %164 = add i32 %154, %163
  %165 = zext i32 %164 to i64
  %166 = getelementptr inbounds i32, ptr %151, i64 %165
  %167 = load i32, ptr %166, align 4, !tbaa !65
  %168 = zext i32 %167 to i64
  %169 = getelementptr inbounds double, ptr %42, i64 %168
  %170 = load double, ptr %169, align 8, !tbaa !69
  %171 = getelementptr inbounds double, ptr %161, i64 1
  store double %170, ptr %161, align 8, !tbaa !69
  %172 = trunc i64 %160 to i32
  %173 = or i32 %172, 1
  %174 = add i32 %154, %173
  %175 = zext i32 %174 to i64
  %176 = getelementptr inbounds i32, ptr %151, i64 %175
  %177 = load i32, ptr %176, align 4, !tbaa !65
  %178 = zext i32 %177 to i64
  %179 = getelementptr inbounds double, ptr %42, i64 %178
  %180 = load double, ptr %179, align 8, !tbaa !69
  %181 = getelementptr inbounds double, ptr %161, i64 2
  store double %180, ptr %171, align 8, !tbaa !69
  %182 = trunc i64 %160 to i32
  %183 = or i32 %182, 2
  %184 = add i32 %154, %183
  %185 = zext i32 %184 to i64
  %186 = getelementptr inbounds i32, ptr %151, i64 %185
  %187 = load i32, ptr %186, align 4, !tbaa !65
  %188 = zext i32 %187 to i64
  %189 = getelementptr inbounds double, ptr %42, i64 %188
  %190 = load double, ptr %189, align 8, !tbaa !69
  %191 = getelementptr inbounds double, ptr %161, i64 3
  store double %190, ptr %181, align 8, !tbaa !69
  %192 = trunc i64 %160 to i32
  %193 = or i32 %192, 3
  %194 = add i32 %154, %193
  %195 = zext i32 %194 to i64
  %196 = getelementptr inbounds i32, ptr %151, i64 %195
  %197 = load i32, ptr %196, align 4, !tbaa !65
  %198 = zext i32 %197 to i64
  %199 = getelementptr inbounds double, ptr %42, i64 %198
  %200 = load double, ptr %199, align 8, !tbaa !69
  %201 = getelementptr inbounds double, ptr %161, i64 4
  store double %200, ptr %191, align 8, !tbaa !69
  %202 = add nuw nsw i64 %160, 4
  %203 = add i64 %162, 4
  %204 = icmp eq i64 %203, %158
  br i1 %204, label %205, label %159

205:                                              ; preds = %159, %133
  %206 = phi ptr [ undef, %133 ], [ %201, %159 ]
  %207 = phi i64 [ 0, %133 ], [ %202, %159 ]
  %208 = phi ptr [ %134, %133 ], [ %201, %159 ]
  %209 = icmp eq i64 %155, 0
  br i1 %209, label %226, label %210

210:                                              ; preds = %205, %210
  %211 = phi i64 [ %223, %210 ], [ %207, %205 ]
  %212 = phi ptr [ %222, %210 ], [ %208, %205 ]
  %213 = phi i64 [ %224, %210 ], [ 0, %205 ]
  %214 = trunc i64 %211 to i32
  %215 = add i32 %154, %214
  %216 = zext i32 %215 to i64
  %217 = getelementptr inbounds i32, ptr %151, i64 %216
  %218 = load i32, ptr %217, align 4, !tbaa !65
  %219 = zext i32 %218 to i64
  %220 = getelementptr inbounds double, ptr %42, i64 %219
  %221 = load double, ptr %220, align 8, !tbaa !69
  %222 = getelementptr inbounds double, ptr %212, i64 1
  store double %221, ptr %212, align 8, !tbaa !69
  %223 = add nuw nsw i64 %211, 1
  %224 = add i64 %213, 1
  %225 = icmp eq i64 %224, %155
  br i1 %225, label %226, label %210, !llvm.loop !96

226:                                              ; preds = %210, %205
  %227 = phi ptr [ %206, %205 ], [ %222, %210 ]
  %228 = getelementptr inbounds [2 x [2 x i32]], ptr @_ZZN6dealii8internal12TriaAccessor14Implementation12vertex_indexILi3ELi3EEEjRKNS_12TriaAccessorILi2EXT_EXT0_EEEjE12switch_table, i64 0, i64 %46, i64 1
  %229 = load i32, ptr %228, align 4, !tbaa !65
  %230 = zext i32 %229 to i64
  %231 = getelementptr inbounds [2 x i32], ptr %50, i64 0, i64 %230
  %232 = load i32, ptr %231, align 4, !tbaa !65
  %233 = zext i32 %232 to i64
  %234 = getelementptr inbounds %"class.dealii::MGDoFHandler<3>::MGVertexDoFs", ptr %41, i64 %233
  %235 = getelementptr inbounds %"class.dealii::MGDoFHandler<3>::MGVertexDoFs", ptr %41, i64 %233, i32 2
  %236 = load ptr, ptr %235, align 8, !tbaa !66
  %237 = load i32, ptr %234, align 8, !tbaa !68
  %238 = sub i32 %1, %237
  %239 = mul i32 %238, %10
  %240 = and i64 %61, 3
  %241 = icmp ult i32 %10, 4
  br i1 %241, label %290, label %242

242:                                              ; preds = %226
  %243 = and i64 %61, 4294967292
  br label %244

244:                                              ; preds = %244, %242
  %245 = phi i64 [ 0, %242 ], [ %287, %244 ]
  %246 = phi ptr [ %227, %242 ], [ %286, %244 ]
  %247 = phi i64 [ 0, %242 ], [ %288, %244 ]
  %248 = trunc i64 %245 to i32
  %249 = add i32 %239, %248
  %250 = zext i32 %249 to i64
  %251 = getelementptr inbounds i32, ptr %236, i64 %250
  %252 = load i32, ptr %251, align 4, !tbaa !65
  %253 = zext i32 %252 to i64
  %254 = getelementptr inbounds double, ptr %42, i64 %253
  %255 = load double, ptr %254, align 8, !tbaa !69
  %256 = getelementptr inbounds double, ptr %246, i64 1
  store double %255, ptr %246, align 8, !tbaa !69
  %257 = trunc i64 %245 to i32
  %258 = or i32 %257, 1
  %259 = add i32 %239, %258
  %260 = zext i32 %259 to i64
  %261 = getelementptr inbounds i32, ptr %236, i64 %260
  %262 = load i32, ptr %261, align 4, !tbaa !65
  %263 = zext i32 %262 to i64
  %264 = getelementptr inbounds double, ptr %42, i64 %263
  %265 = load double, ptr %264, align 8, !tbaa !69
  %266 = getelementptr inbounds double, ptr %246, i64 2
  store double %265, ptr %256, align 8, !tbaa !69
  %267 = trunc i64 %245 to i32
  %268 = or i32 %267, 2
  %269 = add i32 %239, %268
  %270 = zext i32 %269 to i64
  %271 = getelementptr inbounds i32, ptr %236, i64 %270
  %272 = load i32, ptr %271, align 4, !tbaa !65
  %273 = zext i32 %272 to i64
  %274 = getelementptr inbounds double, ptr %42, i64 %273
  %275 = load double, ptr %274, align 8, !tbaa !69
  %276 = getelementptr inbounds double, ptr %246, i64 3
  store double %275, ptr %266, align 8, !tbaa !69
  %277 = trunc i64 %245 to i32
  %278 = or i32 %277, 3
  %279 = add i32 %239, %278
  %280 = zext i32 %279 to i64
  %281 = getelementptr inbounds i32, ptr %236, i64 %280
  %282 = load i32, ptr %281, align 4, !tbaa !65
  %283 = zext i32 %282 to i64
  %284 = getelementptr inbounds double, ptr %42, i64 %283
  %285 = load double, ptr %284, align 8, !tbaa !69
  %286 = getelementptr inbounds double, ptr %246, i64 4
  store double %285, ptr %276, align 8, !tbaa !69
  %287 = add nuw nsw i64 %245, 4
  %288 = add i64 %247, 4
  %289 = icmp eq i64 %288, %243
  br i1 %289, label %290, label %244

290:                                              ; preds = %244, %226
  %291 = phi ptr [ undef, %226 ], [ %286, %244 ]
  %292 = phi i64 [ 0, %226 ], [ %287, %244 ]
  %293 = phi ptr [ %227, %226 ], [ %286, %244 ]
  %294 = icmp eq i64 %240, 0
  br i1 %294, label %311, label %295

295:                                              ; preds = %290, %295
  %296 = phi i64 [ %308, %295 ], [ %292, %290 ]
  %297 = phi ptr [ %307, %295 ], [ %293, %290 ]
  %298 = phi i64 [ %309, %295 ], [ 0, %290 ]
  %299 = trunc i64 %296 to i32
  %300 = add i32 %239, %299
  %301 = zext i32 %300 to i64
  %302 = getelementptr inbounds i32, ptr %236, i64 %301
  %303 = load i32, ptr %302, align 4, !tbaa !65
  %304 = zext i32 %303 to i64
  %305 = getelementptr inbounds double, ptr %42, i64 %304
  %306 = load double, ptr %305, align 8, !tbaa !69
  %307 = getelementptr inbounds double, ptr %297, i64 1
  store double %306, ptr %297, align 8, !tbaa !69
  %308 = add nuw nsw i64 %296, 1
  %309 = add i64 %298, 1
  %310 = icmp eq i64 %309, %240
  br i1 %310, label %311, label %295, !llvm.loop !97

311:                                              ; preds = %295, %290
  %312 = phi ptr [ %291, %290 ], [ %307, %295 ]
  %313 = getelementptr inbounds [2 x [2 x i32]], ptr @_ZZN6dealii8internal12TriaAccessor14Implementation12vertex_indexILi3ELi3EEEjRKNS_12TriaAccessorILi2EXT_EXT0_EEEjE12switch_table, i64 0, i64 %140, i64 1
  %314 = load i32, ptr %313, align 4, !tbaa !65
  %315 = zext i32 %314 to i64
  %316 = getelementptr inbounds [2 x i32], ptr %144, i64 0, i64 %315
  %317 = load i32, ptr %316, align 4, !tbaa !65
  %318 = zext i32 %317 to i64
  %319 = getelementptr inbounds %"class.dealii::MGDoFHandler<3>::MGVertexDoFs", ptr %41, i64 %318
  %320 = getelementptr inbounds %"class.dealii::MGDoFHandler<3>::MGVertexDoFs", ptr %41, i64 %318, i32 2
  %321 = load ptr, ptr %320, align 8, !tbaa !66
  %322 = load i32, ptr %319, align 8, !tbaa !68
  %323 = sub i32 %1, %322
  %324 = mul i32 %323, %10
  %325 = and i64 %61, 3
  %326 = icmp ult i32 %10, 4
  br i1 %326, label %375, label %327

327:                                              ; preds = %311
  %328 = and i64 %61, 4294967292
  br label %329

329:                                              ; preds = %329, %327
  %330 = phi i64 [ 0, %327 ], [ %372, %329 ]
  %331 = phi ptr [ %312, %327 ], [ %371, %329 ]
  %332 = phi i64 [ 0, %327 ], [ %373, %329 ]
  %333 = trunc i64 %330 to i32
  %334 = add i32 %324, %333
  %335 = zext i32 %334 to i64
  %336 = getelementptr inbounds i32, ptr %321, i64 %335
  %337 = load i32, ptr %336, align 4, !tbaa !65
  %338 = zext i32 %337 to i64
  %339 = getelementptr inbounds double, ptr %42, i64 %338
  %340 = load double, ptr %339, align 8, !tbaa !69
  %341 = getelementptr inbounds double, ptr %331, i64 1
  store double %340, ptr %331, align 8, !tbaa !69
  %342 = trunc i64 %330 to i32
  %343 = or i32 %342, 1
  %344 = add i32 %324, %343
  %345 = zext i32 %344 to i64
  %346 = getelementptr inbounds i32, ptr %321, i64 %345
  %347 = load i32, ptr %346, align 4, !tbaa !65
  %348 = zext i32 %347 to i64
  %349 = getelementptr inbounds double, ptr %42, i64 %348
  %350 = load double, ptr %349, align 8, !tbaa !69
  %351 = getelementptr inbounds double, ptr %331, i64 2
  store double %350, ptr %341, align 8, !tbaa !69
  %352 = trunc i64 %330 to i32
  %353 = or i32 %352, 2
  %354 = add i32 %324, %353
  %355 = zext i32 %354 to i64
  %356 = getelementptr inbounds i32, ptr %321, i64 %355
  %357 = load i32, ptr %356, align 4, !tbaa !65
  %358 = zext i32 %357 to i64
  %359 = getelementptr inbounds double, ptr %42, i64 %358
  %360 = load double, ptr %359, align 8, !tbaa !69
  %361 = getelementptr inbounds double, ptr %331, i64 3
  store double %360, ptr %351, align 8, !tbaa !69
  %362 = trunc i64 %330 to i32
  %363 = or i32 %362, 3
  %364 = add i32 %324, %363
  %365 = zext i32 %364 to i64
  %366 = getelementptr inbounds i32, ptr %321, i64 %365
  %367 = load i32, ptr %366, align 4, !tbaa !65
  %368 = zext i32 %367 to i64
  %369 = getelementptr inbounds double, ptr %42, i64 %368
  %370 = load double, ptr %369, align 8, !tbaa !69
  %371 = getelementptr inbounds double, ptr %331, i64 4
  store double %370, ptr %361, align 8, !tbaa !69
  %372 = add nuw nsw i64 %330, 4
  %373 = add i64 %332, 4
  %374 = icmp eq i64 %373, %328
  br i1 %374, label %375, label %329

375:                                              ; preds = %329, %311
  %376 = phi ptr [ undef, %311 ], [ %371, %329 ]
  %377 = phi i64 [ 0, %311 ], [ %372, %329 ]
  %378 = phi ptr [ %312, %311 ], [ %371, %329 ]
  %379 = icmp eq i64 %325, 0
  br i1 %379, label %396, label %380

380:                                              ; preds = %375, %380
  %381 = phi i64 [ %393, %380 ], [ %377, %375 ]
  %382 = phi ptr [ %392, %380 ], [ %378, %375 ]
  %383 = phi i64 [ %394, %380 ], [ 0, %375 ]
  %384 = trunc i64 %381 to i32
  %385 = add i32 %324, %384
  %386 = zext i32 %385 to i64
  %387 = getelementptr inbounds i32, ptr %321, i64 %386
  %388 = load i32, ptr %387, align 4, !tbaa !65
  %389 = zext i32 %388 to i64
  %390 = getelementptr inbounds double, ptr %42, i64 %389
  %391 = load double, ptr %390, align 8, !tbaa !69
  %392 = getelementptr inbounds double, ptr %382, i64 1
  store double %391, ptr %382, align 8, !tbaa !69
  %393 = add nuw nsw i64 %381, 1
  %394 = add i64 %383, 1
  %395 = icmp eq i64 %394, %325
  br i1 %395, label %396, label %380, !llvm.loop !98

396:                                              ; preds = %375, %380, %4
  %397 = phi ptr [ %16, %4 ], [ %376, %375 ], [ %392, %380 ]
  %398 = icmp eq i32 %12, 0
  %399 = getelementptr inbounds %"class.dealii::TriaAccessorBase.20", ptr %0, i64 0, i32 1
  %400 = getelementptr inbounds %"class.dealii::MGDoFAccessor.17", ptr %0, i64 0, i32 1
  %401 = getelementptr inbounds %"class.dealii::Vector", ptr %2, i64 0, i32 3
  br i1 %398, label %482, label %402

402:                                              ; preds = %396, %402
  %403 = phi i32 [ %420, %402 ], [ 0, %396 ]
  %404 = phi ptr [ %419, %402 ], [ %397, %396 ]
  %405 = load ptr, ptr %399, align 8, !tbaa !99, !noalias !100
  %406 = getelementptr inbounds %"class.dealii::Triangulation", ptr %405, i64 0, i32 2
  %407 = load ptr, ptr %406, align 8, !tbaa !31, !noalias !100
  %408 = load i32, ptr %0, align 8, !tbaa !103, !noalias !100
  %409 = sext i32 %408 to i64
  %410 = load ptr, ptr %407, align 8, !tbaa !88, !noalias !100
  %411 = getelementptr inbounds %"class.dealii::internal::Triangulation::TriaObject.151", ptr %410, i64 %409
  %412 = load i32, ptr %411, align 4, !tbaa !65, !noalias !100
  %413 = load ptr, ptr %400, align 8, !tbaa !104, !noalias !100
  %414 = tail call noundef i32 @_ZNK6dealii12MGDoFHandlerILi3ELi3EE13get_dof_indexILi1EEEjjjjj(ptr noundef nonnull align 8 dereferenceable(248) %413, i32 noundef %1, i32 noundef %412, i32 noundef 0, i32 noundef %403)
  %415 = load ptr, ptr %401, align 8, !tbaa !19
  %416 = zext i32 %414 to i64
  %417 = getelementptr inbounds double, ptr %415, i64 %416
  %418 = load double, ptr %417, align 8, !tbaa !69
  %419 = getelementptr inbounds double, ptr %404, i64 1
  store double %418, ptr %404, align 8, !tbaa !69
  %420 = add nuw i32 %403, 1
  %421 = icmp eq i32 %420, %12
  br i1 %421, label %422, label %402

422:                                              ; preds = %402, %422
  %423 = phi i32 [ %440, %422 ], [ 0, %402 ]
  %424 = phi ptr [ %439, %422 ], [ %419, %402 ]
  %425 = load ptr, ptr %399, align 8, !tbaa !99, !noalias !100
  %426 = getelementptr inbounds %"class.dealii::Triangulation", ptr %425, i64 0, i32 2
  %427 = load ptr, ptr %426, align 8, !tbaa !31, !noalias !100
  %428 = load i32, ptr %0, align 8, !tbaa !103, !noalias !100
  %429 = sext i32 %428 to i64
  %430 = load ptr, ptr %427, align 8, !tbaa !88, !noalias !100
  %431 = getelementptr inbounds %"class.dealii::internal::Triangulation::TriaObject.151", ptr %430, i64 %429, i32 0, i64 1
  %432 = load i32, ptr %431, align 4, !tbaa !65, !noalias !100
  %433 = load ptr, ptr %400, align 8, !tbaa !104, !noalias !100
  %434 = tail call noundef i32 @_ZNK6dealii12MGDoFHandlerILi3ELi3EE13get_dof_indexILi1EEEjjjjj(ptr noundef nonnull align 8 dereferenceable(248) %433, i32 noundef %1, i32 noundef %432, i32 noundef 0, i32 noundef %423)
  %435 = load ptr, ptr %401, align 8, !tbaa !19
  %436 = zext i32 %434 to i64
  %437 = getelementptr inbounds double, ptr %435, i64 %436
  %438 = load double, ptr %437, align 8, !tbaa !69
  %439 = getelementptr inbounds double, ptr %424, i64 1
  store double %438, ptr %424, align 8, !tbaa !69
  %440 = add nuw i32 %423, 1
  %441 = icmp eq i32 %440, %12
  br i1 %441, label %442, label %422

442:                                              ; preds = %422, %442
  %443 = phi i32 [ %460, %442 ], [ 0, %422 ]
  %444 = phi ptr [ %459, %442 ], [ %439, %422 ]
  %445 = load ptr, ptr %399, align 8, !tbaa !99, !noalias !100
  %446 = getelementptr inbounds %"class.dealii::Triangulation", ptr %445, i64 0, i32 2
  %447 = load ptr, ptr %446, align 8, !tbaa !31, !noalias !100
  %448 = load i32, ptr %0, align 8, !tbaa !103, !noalias !100
  %449 = sext i32 %448 to i64
  %450 = load ptr, ptr %447, align 8, !tbaa !88, !noalias !100
  %451 = getelementptr inbounds %"class.dealii::internal::Triangulation::TriaObject.151", ptr %450, i64 %449, i32 0, i64 2
  %452 = load i32, ptr %451, align 4, !tbaa !65, !noalias !100
  %453 = load ptr, ptr %400, align 8, !tbaa !104, !noalias !100
  %454 = tail call noundef i32 @_ZNK6dealii12MGDoFHandlerILi3ELi3EE13get_dof_indexILi1EEEjjjjj(ptr noundef nonnull align 8 dereferenceable(248) %453, i32 noundef %1, i32 noundef %452, i32 noundef 0, i32 noundef %443)
  %455 = load ptr, ptr %401, align 8, !tbaa !19
  %456 = zext i32 %454 to i64
  %457 = getelementptr inbounds double, ptr %455, i64 %456
  %458 = load double, ptr %457, align 8, !tbaa !69
  %459 = getelementptr inbounds double, ptr %444, i64 1
  store double %458, ptr %444, align 8, !tbaa !69
  %460 = add nuw i32 %443, 1
  %461 = icmp eq i32 %460, %12
  br i1 %461, label %462, label %442

462:                                              ; preds = %442, %462
  %463 = phi i32 [ %480, %462 ], [ 0, %442 ]
  %464 = phi ptr [ %479, %462 ], [ %459, %442 ]
  %465 = load ptr, ptr %399, align 8, !tbaa !99, !noalias !100
  %466 = getelementptr inbounds %"class.dealii::Triangulation", ptr %465, i64 0, i32 2
  %467 = load ptr, ptr %466, align 8, !tbaa !31, !noalias !100
  %468 = load i32, ptr %0, align 8, !tbaa !103, !noalias !100
  %469 = sext i32 %468 to i64
  %470 = load ptr, ptr %467, align 8, !tbaa !88, !noalias !100
  %471 = getelementptr inbounds %"class.dealii::internal::Triangulation::TriaObject.151", ptr %470, i64 %469, i32 0, i64 3
  %472 = load i32, ptr %471, align 4, !tbaa !65, !noalias !100
  %473 = load ptr, ptr %400, align 8, !tbaa !104, !noalias !100
  %474 = tail call noundef i32 @_ZNK6dealii12MGDoFHandlerILi3ELi3EE13get_dof_indexILi1EEEjjjjj(ptr noundef nonnull align 8 dereferenceable(248) %473, i32 noundef %1, i32 noundef %472, i32 noundef 0, i32 noundef %463)
  %475 = load ptr, ptr %401, align 8, !tbaa !19
  %476 = zext i32 %474 to i64
  %477 = getelementptr inbounds double, ptr %475, i64 %476
  %478 = load double, ptr %477, align 8, !tbaa !69
  %479 = getelementptr inbounds double, ptr %464, i64 1
  store double %478, ptr %464, align 8, !tbaa !69
  %480 = add nuw i32 %463, 1
  %481 = icmp eq i32 %480, %12
  br i1 %481, label %482, label %462

482:                                              ; preds = %462, %396
  %483 = phi ptr [ %397, %396 ], [ %479, %462 ]
  %484 = icmp eq i32 %14, 0
  br i1 %484, label %485, label %486

485:                                              ; preds = %486, %482
  ret void

486:                                              ; preds = %482, %486
  %487 = phi i32 [ %497, %486 ], [ 0, %482 ]
  %488 = phi ptr [ %496, %486 ], [ %483, %482 ]
  %489 = load ptr, ptr %400, align 8, !tbaa !104
  %490 = load i32, ptr %0, align 8, !tbaa !103
  %491 = tail call noundef i32 @_ZNK6dealii12MGDoFHandlerILi3ELi3EE13get_dof_indexILi2EEEjjjjj(ptr noundef nonnull align 8 dereferenceable(248) %489, i32 noundef %1, i32 noundef %490, i32 noundef 0, i32 noundef %487)
  %492 = load ptr, ptr %401, align 8, !tbaa !19
  %493 = zext i32 %491 to i64
  %494 = getelementptr inbounds double, ptr %492, i64 %493
  %495 = load double, ptr %494, align 8, !tbaa !69
  %496 = getelementptr inbounds double, ptr %488, i64 1
  store double %495, ptr %488, align 8, !tbaa !69
  %497 = add nuw i32 %487, 1
  %498 = icmp eq i32 %497, %14
  br i1 %498, label %485, label %486
}

; Function Attrs: sspstrong uwtable
define weak_odr dso_local void @_ZNK6dealii13MGDoFAccessorILi2ELi3ELi3EE17get_mg_dof_valuesIfEEviRKNS_6VectorIT_EERS5_(ptr noundef nonnull align 8 dereferenceable(32) %0, i32 noundef %1, ptr noundef nonnull align 1 %2, ptr noundef nonnull align 1 %3) local_unnamed_addr #0 comdat align 2 {
  tail call void @_ZN6dealii8internal13MGDoFAccessor17get_mg_dof_valuesILi3ELi3EfEEvRKNS_13MGDoFAccessorILi2EXT_EXT0_EEEiRKNS_6VectorIT1_EERS9_(ptr noundef nonnull align 8 dereferenceable(32) %0, i32 noundef %1, ptr noundef nonnull align 1 %2, ptr noundef nonnull align 1 %3)
  ret void
}

; Function Attrs: sspstrong uwtable
define linkonce_odr dso_local void @_ZN6dealii8internal13MGDoFAccessor17get_mg_dof_valuesILi3ELi3EfEEvRKNS_13MGDoFAccessorILi2EXT_EXT0_EEEiRKNS_6VectorIT1_EERS9_(ptr noundef nonnull align 8 dereferenceable(32) %0, i32 noundef %1, ptr noundef nonnull align 1 %2, ptr noundef nonnull align 1 %3) local_unnamed_addr #0 comdat {
  %5 = getelementptr inbounds %"class.dealii::DoFAccessor.18", ptr %0, i64 0, i32 1
  %6 = load ptr, ptr %5, align 8, !tbaa !83
  %7 = getelementptr inbounds %"class.dealii::DoFHandler", ptr %6, i64 0, i32 2
  %8 = load ptr, ptr %7, align 8, !tbaa !13
  %9 = getelementptr inbounds i8, ptr %8, i64 72
  %10 = load i32, ptr %9, align 8, !tbaa !15
  %11 = getelementptr inbounds i8, ptr %8, i64 76
  %12 = load i32, ptr %11, align 4, !tbaa !18
  %13 = getelementptr inbounds i8, ptr %8, i64 80
  %14 = load i32, ptr %13, align 8, !tbaa !87
  %15 = getelementptr inbounds %"class.dealii::Vector.16", ptr %3, i64 0, i32 3
  %16 = load ptr, ptr %15, align 8, !tbaa !77
  %17 = icmp eq i32 %10, 0
  %18 = load i32, ptr %0, align 8
  %19 = shl i32 %18, 2
  %20 = and i32 %19, 60
  br i1 %17, label %396, label %21

21:                                               ; preds = %4
  %22 = getelementptr inbounds %"class.dealii::Vector.16", ptr %2, i64 0, i32 3
  %23 = lshr i32 %19, 6
  %24 = zext i32 %23 to i64
  %25 = sext i32 %18 to i64
  %26 = getelementptr inbounds %"class.dealii::TriaAccessorBase.20", ptr %0, i64 0, i32 1
  %27 = load ptr, ptr %26, align 8
  %28 = getelementptr inbounds %"class.dealii::Triangulation", ptr %27, i64 0, i32 2
  %29 = getelementptr inbounds %"class.dealii::MGDoFAccessor.17", ptr %0, i64 0, i32 1
  %30 = load ptr, ptr %29, align 8
  %31 = getelementptr inbounds %"class.dealii::MGDoFHandler", ptr %30, i64 0, i32 3
  %32 = load ptr, ptr %28, align 8, !tbaa !31
  %33 = load ptr, ptr %32, align 8, !tbaa !88, !noalias !106
  %34 = getelementptr inbounds %"class.dealii::internal::Triangulation::TriaObject.151", ptr %33, i64 %25
  %35 = getelementptr inbounds %"class.dealii::internal::Triangulation::TriaObjectsQuad3D", ptr %32, i64 0, i32 1
  %36 = load ptr, ptr %35, align 8, !tbaa !93
  %37 = getelementptr inbounds i64, ptr %36, i64 %24
  %38 = load i64, ptr %37, align 8, !tbaa !94
  %39 = getelementptr inbounds %"class.dealii::internal::Triangulation::TriaFaces", ptr %32, i64 0, i32 1
  %40 = load ptr, ptr %39, align 8, !tbaa !61
  %41 = load ptr, ptr %31, align 8, !tbaa !63
  %42 = load ptr, ptr %22, align 8, !tbaa !77
  %43 = load i32, ptr %34, align 4, !tbaa !65, !noalias !106
  %44 = zext i32 %20 to i64
  %45 = lshr i64 %38, %44
  %46 = and i64 %45, 1
  %47 = getelementptr inbounds [2 x [2 x i32]], ptr @_ZZN6dealii8internal12TriaAccessor14Implementation12vertex_indexILi3ELi3EEEjRKNS_12TriaAccessorILi2EXT_EXT0_EEEjE12switch_table, i64 0, i64 %46, i64 0
  %48 = load i32, ptr %47, align 8, !tbaa !65
  %49 = sext i32 %43 to i64
  %50 = getelementptr inbounds %"class.dealii::internal::Triangulation::TriaObject", ptr %40, i64 %49
  %51 = zext i32 %48 to i64
  %52 = getelementptr inbounds [2 x i32], ptr %50, i64 0, i64 %51
  %53 = load i32, ptr %52, align 4, !tbaa !65
  %54 = zext i32 %53 to i64
  %55 = getelementptr inbounds %"class.dealii::MGDoFHandler<3>::MGVertexDoFs", ptr %41, i64 %54
  %56 = getelementptr inbounds %"class.dealii::MGDoFHandler<3>::MGVertexDoFs", ptr %41, i64 %54, i32 2
  %57 = load ptr, ptr %56, align 8, !tbaa !66
  %58 = load i32, ptr %55, align 8, !tbaa !68
  %59 = sub i32 %1, %58
  %60 = mul i32 %59, %10
  %61 = zext i32 %10 to i64
  %62 = and i64 %61, 3
  %63 = icmp ult i32 %10, 4
  br i1 %63, label %112, label %64

64:                                               ; preds = %21
  %65 = and i64 %61, 4294967292
  br label %66

66:                                               ; preds = %66, %64
  %67 = phi i64 [ 0, %64 ], [ %109, %66 ]
  %68 = phi ptr [ %16, %64 ], [ %108, %66 ]
  %69 = phi i64 [ 0, %64 ], [ %110, %66 ]
  %70 = trunc i64 %67 to i32
  %71 = add i32 %60, %70
  %72 = zext i32 %71 to i64
  %73 = getelementptr inbounds i32, ptr %57, i64 %72
  %74 = load i32, ptr %73, align 4, !tbaa !65
  %75 = zext i32 %74 to i64
  %76 = getelementptr inbounds float, ptr %42, i64 %75
  %77 = load float, ptr %76, align 4, !tbaa !79
  %78 = getelementptr inbounds float, ptr %68, i64 1
  store float %77, ptr %68, align 4, !tbaa !79
  %79 = trunc i64 %67 to i32
  %80 = or i32 %79, 1
  %81 = add i32 %60, %80
  %82 = zext i32 %81 to i64
  %83 = getelementptr inbounds i32, ptr %57, i64 %82
  %84 = load i32, ptr %83, align 4, !tbaa !65
  %85 = zext i32 %84 to i64
  %86 = getelementptr inbounds float, ptr %42, i64 %85
  %87 = load float, ptr %86, align 4, !tbaa !79
  %88 = getelementptr inbounds float, ptr %68, i64 2
  store float %87, ptr %78, align 4, !tbaa !79
  %89 = trunc i64 %67 to i32
  %90 = or i32 %89, 2
  %91 = add i32 %60, %90
  %92 = zext i32 %91 to i64
  %93 = getelementptr inbounds i32, ptr %57, i64 %92
  %94 = load i32, ptr %93, align 4, !tbaa !65
  %95 = zext i32 %94 to i64
  %96 = getelementptr inbounds float, ptr %42, i64 %95
  %97 = load float, ptr %96, align 4, !tbaa !79
  %98 = getelementptr inbounds float, ptr %68, i64 3
  store float %97, ptr %88, align 4, !tbaa !79
  %99 = trunc i64 %67 to i32
  %100 = or i32 %99, 3
  %101 = add i32 %60, %100
  %102 = zext i32 %101 to i64
  %103 = getelementptr inbounds i32, ptr %57, i64 %102
  %104 = load i32, ptr %103, align 4, !tbaa !65
  %105 = zext i32 %104 to i64
  %106 = getelementptr inbounds float, ptr %42, i64 %105
  %107 = load float, ptr %106, align 4, !tbaa !79
  %108 = getelementptr inbounds float, ptr %68, i64 4
  store float %107, ptr %98, align 4, !tbaa !79
  %109 = add nuw nsw i64 %67, 4
  %110 = add i64 %69, 4
  %111 = icmp eq i64 %110, %65
  br i1 %111, label %112, label %66

112:                                              ; preds = %66, %21
  %113 = phi ptr [ undef, %21 ], [ %108, %66 ]
  %114 = phi i64 [ 0, %21 ], [ %109, %66 ]
  %115 = phi ptr [ %16, %21 ], [ %108, %66 ]
  %116 = icmp eq i64 %62, 0
  br i1 %116, label %133, label %117

117:                                              ; preds = %112, %117
  %118 = phi i64 [ %130, %117 ], [ %114, %112 ]
  %119 = phi ptr [ %129, %117 ], [ %115, %112 ]
  %120 = phi i64 [ %131, %117 ], [ 0, %112 ]
  %121 = trunc i64 %118 to i32
  %122 = add i32 %60, %121
  %123 = zext i32 %122 to i64
  %124 = getelementptr inbounds i32, ptr %57, i64 %123
  %125 = load i32, ptr %124, align 4, !tbaa !65
  %126 = zext i32 %125 to i64
  %127 = getelementptr inbounds float, ptr %42, i64 %126
  %128 = load float, ptr %127, align 4, !tbaa !79
  %129 = getelementptr inbounds float, ptr %119, i64 1
  store float %128, ptr %119, align 4, !tbaa !79
  %130 = add nuw nsw i64 %118, 1
  %131 = add i64 %120, 1
  %132 = icmp eq i64 %131, %62
  br i1 %132, label %133, label %117, !llvm.loop !109

133:                                              ; preds = %117, %112
  %134 = phi ptr [ %113, %112 ], [ %129, %117 ]
  %135 = getelementptr inbounds [4 x i32], ptr %34, i64 0, i64 1
  %136 = load i32, ptr %135, align 4, !tbaa !65, !noalias !106
  %137 = or i32 %20, 1
  %138 = zext i32 %137 to i64
  %139 = lshr i64 %38, %138
  %140 = and i64 %139, 1
  %141 = getelementptr inbounds [2 x [2 x i32]], ptr @_ZZN6dealii8internal12TriaAccessor14Implementation12vertex_indexILi3ELi3EEEjRKNS_12TriaAccessorILi2EXT_EXT0_EEEjE12switch_table, i64 0, i64 %140, i64 0
  %142 = load i32, ptr %141, align 8, !tbaa !65
  %143 = sext i32 %136 to i64
  %144 = getelementptr inbounds %"class.dealii::internal::Triangulation::TriaObject", ptr %40, i64 %143
  %145 = zext i32 %142 to i64
  %146 = getelementptr inbounds [2 x i32], ptr %144, i64 0, i64 %145
  %147 = load i32, ptr %146, align 4, !tbaa !65
  %148 = zext i32 %147 to i64
  %149 = getelementptr inbounds %"class.dealii::MGDoFHandler<3>::MGVertexDoFs", ptr %41, i64 %148
  %150 = getelementptr inbounds %"class.dealii::MGDoFHandler<3>::MGVertexDoFs", ptr %41, i64 %148, i32 2
  %151 = load ptr, ptr %150, align 8, !tbaa !66
  %152 = load i32, ptr %149, align 8, !tbaa !68
  %153 = sub i32 %1, %152
  %154 = mul i32 %153, %10
  %155 = and i64 %61, 3
  %156 = icmp ult i32 %10, 4
  br i1 %156, label %205, label %157

157:                                              ; preds = %133
  %158 = and i64 %61, 4294967292
  br label %159

159:                                              ; preds = %159, %157
  %160 = phi i64 [ 0, %157 ], [ %202, %159 ]
  %161 = phi ptr [ %134, %157 ], [ %201, %159 ]
  %162 = phi i64 [ 0, %157 ], [ %203, %159 ]
  %163 = trunc i64 %160 to i32
  %164 = add i32 %154, %163
  %165 = zext i32 %164 to i64
  %166 = getelementptr inbounds i32, ptr %151, i64 %165
  %167 = load i32, ptr %166, align 4, !tbaa !65
  %168 = zext i32 %167 to i64
  %169 = getelementptr inbounds float, ptr %42, i64 %168
  %170 = load float, ptr %169, align 4, !tbaa !79
  %171 = getelementptr inbounds float, ptr %161, i64 1
  store float %170, ptr %161, align 4, !tbaa !79
  %172 = trunc i64 %160 to i32
  %173 = or i32 %172, 1
  %174 = add i32 %154, %173
  %175 = zext i32 %174 to i64
  %176 = getelementptr inbounds i32, ptr %151, i64 %175
  %177 = load i32, ptr %176, align 4, !tbaa !65
  %178 = zext i32 %177 to i64
  %179 = getelementptr inbounds float, ptr %42, i64 %178
  %180 = load float, ptr %179, align 4, !tbaa !79
  %181 = getelementptr inbounds float, ptr %161, i64 2
  store float %180, ptr %171, align 4, !tbaa !79
  %182 = trunc i64 %160 to i32
  %183 = or i32 %182, 2
  %184 = add i32 %154, %183
  %185 = zext i32 %184 to i64
  %186 = getelementptr inbounds i32, ptr %151, i64 %185
  %187 = load i32, ptr %186, align 4, !tbaa !65
  %188 = zext i32 %187 to i64
  %189 = getelementptr inbounds float, ptr %42, i64 %188
  %190 = load float, ptr %189, align 4, !tbaa !79
  %191 = getelementptr inbounds float, ptr %161, i64 3
  store float %190, ptr %181, align 4, !tbaa !79
  %192 = trunc i64 %160 to i32
  %193 = or i32 %192, 3
  %194 = add i32 %154, %193
  %195 = zext i32 %194 to i64
  %196 = getelementptr inbounds i32, ptr %151, i64 %195
  %197 = load i32, ptr %196, align 4, !tbaa !65
  %198 = zext i32 %197 to i64
  %199 = getelementptr inbounds float, ptr %42, i64 %198
  %200 = load float, ptr %199, align 4, !tbaa !79
  %201 = getelementptr inbounds float, ptr %161, i64 4
  store float %200, ptr %191, align 4, !tbaa !79
  %202 = add nuw nsw i64 %160, 4
  %203 = add i64 %162, 4
  %204 = icmp eq i64 %203, %158
  br i1 %204, label %205, label %159

205:                                              ; preds = %159, %133
  %206 = phi ptr [ undef, %133 ], [ %201, %159 ]
  %207 = phi i64 [ 0, %133 ], [ %202, %159 ]
  %208 = phi ptr [ %134, %133 ], [ %201, %159 ]
  %209 = icmp eq i64 %155, 0
  br i1 %209, label %226, label %210

210:                                              ; preds = %205, %210
  %211 = phi i64 [ %223, %210 ], [ %207, %205 ]
  %212 = phi ptr [ %222, %210 ], [ %208, %205 ]
  %213 = phi i64 [ %224, %210 ], [ 0, %205 ]
  %214 = trunc i64 %211 to i32
  %215 = add i32 %154, %214
  %216 = zext i32 %215 to i64
  %217 = getelementptr inbounds i32, ptr %151, i64 %216
  %218 = load i32, ptr %217, align 4, !tbaa !65
  %219 = zext i32 %218 to i64
  %220 = getelementptr inbounds float, ptr %42, i64 %219
  %221 = load float, ptr %220, align 4, !tbaa !79
  %222 = getelementptr inbounds float, ptr %212, i64 1
  store float %221, ptr %212, align 4, !tbaa !79
  %223 = add nuw nsw i64 %211, 1
  %224 = add i64 %213, 1
  %225 = icmp eq i64 %224, %155
  br i1 %225, label %226, label %210, !llvm.loop !110

226:                                              ; preds = %210, %205
  %227 = phi ptr [ %206, %205 ], [ %222, %210 ]
  %228 = getelementptr inbounds [2 x [2 x i32]], ptr @_ZZN6dealii8internal12TriaAccessor14Implementation12vertex_indexILi3ELi3EEEjRKNS_12TriaAccessorILi2EXT_EXT0_EEEjE12switch_table, i64 0, i64 %46, i64 1
  %229 = load i32, ptr %228, align 4, !tbaa !65
  %230 = zext i32 %229 to i64
  %231 = getelementptr inbounds [2 x i32], ptr %50, i64 0, i64 %230
  %232 = load i32, ptr %231, align 4, !tbaa !65
  %233 = zext i32 %232 to i64
  %234 = getelementptr inbounds %"class.dealii::MGDoFHandler<3>::MGVertexDoFs", ptr %41, i64 %233
  %235 = getelementptr inbounds %"class.dealii::MGDoFHandler<3>::MGVertexDoFs", ptr %41, i64 %233, i32 2
  %236 = load ptr, ptr %235, align 8, !tbaa !66
  %237 = load i32, ptr %234, align 8, !tbaa !68
  %238 = sub i32 %1, %237
  %239 = mul i32 %238, %10
  %240 = and i64 %61, 3
  %241 = icmp ult i32 %10, 4
  br i1 %241, label %290, label %242

242:                                              ; preds = %226
  %243 = and i64 %61, 4294967292
  br label %244

244:                                              ; preds = %244, %242
  %245 = phi i64 [ 0, %242 ], [ %287, %244 ]
  %246 = phi ptr [ %227, %242 ], [ %286, %244 ]
  %247 = phi i64 [ 0, %242 ], [ %288, %244 ]
  %248 = trunc i64 %245 to i32
  %249 = add i32 %239, %248
  %250 = zext i32 %249 to i64
  %251 = getelementptr inbounds i32, ptr %236, i64 %250
  %252 = load i32, ptr %251, align 4, !tbaa !65
  %253 = zext i32 %252 to i64
  %254 = getelementptr inbounds float, ptr %42, i64 %253
  %255 = load float, ptr %254, align 4, !tbaa !79
  %256 = getelementptr inbounds float, ptr %246, i64 1
  store float %255, ptr %246, align 4, !tbaa !79
  %257 = trunc i64 %245 to i32
  %258 = or i32 %257, 1
  %259 = add i32 %239, %258
  %260 = zext i32 %259 to i64
  %261 = getelementptr inbounds i32, ptr %236, i64 %260
  %262 = load i32, ptr %261, align 4, !tbaa !65
  %263 = zext i32 %262 to i64
  %264 = getelementptr inbounds float, ptr %42, i64 %263
  %265 = load float, ptr %264, align 4, !tbaa !79
  %266 = getelementptr inbounds float, ptr %246, i64 2
  store float %265, ptr %256, align 4, !tbaa !79
  %267 = trunc i64 %245 to i32
  %268 = or i32 %267, 2
  %269 = add i32 %239, %268
  %270 = zext i32 %269 to i64
  %271 = getelementptr inbounds i32, ptr %236, i64 %270
  %272 = load i32, ptr %271, align 4, !tbaa !65
  %273 = zext i32 %272 to i64
  %274 = getelementptr inbounds float, ptr %42, i64 %273
  %275 = load float, ptr %274, align 4, !tbaa !79
  %276 = getelementptr inbounds float, ptr %246, i64 3
  store float %275, ptr %266, align 4, !tbaa !79
  %277 = trunc i64 %245 to i32
  %278 = or i32 %277, 3
  %279 = add i32 %239, %278
  %280 = zext i32 %279 to i64
  %281 = getelementptr inbounds i32, ptr %236, i64 %280
  %282 = load i32, ptr %281, align 4, !tbaa !65
  %283 = zext i32 %282 to i64
  %284 = getelementptr inbounds float, ptr %42, i64 %283
  %285 = load float, ptr %284, align 4, !tbaa !79
  %286 = getelementptr inbounds float, ptr %246, i64 4
  store float %285, ptr %276, align 4, !tbaa !79
  %287 = add nuw nsw i64 %245, 4
  %288 = add i64 %247, 4
  %289 = icmp eq i64 %288, %243
  br i1 %289, label %290, label %244

290:                                              ; preds = %244, %226
  %291 = phi ptr [ undef, %226 ], [ %286, %244 ]
  %292 = phi i64 [ 0, %226 ], [ %287, %244 ]
  %293 = phi ptr [ %227, %226 ], [ %286, %244 ]
  %294 = icmp eq i64 %240, 0
  br i1 %294, label %311, label %295

295:                                              ; preds = %290, %295
  %296 = phi i64 [ %308, %295 ], [ %292, %290 ]
  %297 = phi ptr [ %307, %295 ], [ %293, %290 ]
  %298 = phi i64 [ %309, %295 ], [ 0, %290 ]
  %299 = trunc i64 %296 to i32
  %300 = add i32 %239, %299
  %301 = zext i32 %300 to i64
  %302 = getelementptr inbounds i32, ptr %236, i64 %301
  %303 = load i32, ptr %302, align 4, !tbaa !65
  %304 = zext i32 %303 to i64
  %305 = getelementptr inbounds float, ptr %42, i64 %304
  %306 = load float, ptr %305, align 4, !tbaa !79
  %307 = getelementptr inbounds float, ptr %297, i64 1
  store float %306, ptr %297, align 4, !tbaa !79
  %308 = add nuw nsw i64 %296, 1
  %309 = add i64 %298, 1
  %310 = icmp eq i64 %309, %240
  br i1 %310, label %311, label %295, !llvm.loop !111

311:                                              ; preds = %295, %290
  %312 = phi ptr [ %291, %290 ], [ %307, %295 ]
  %313 = getelementptr inbounds [2 x [2 x i32]], ptr @_ZZN6dealii8internal12TriaAccessor14Implementation12vertex_indexILi3ELi3EEEjRKNS_12TriaAccessorILi2EXT_EXT0_EEEjE12switch_table, i64 0, i64 %140, i64 1
  %314 = load i32, ptr %313, align 4, !tbaa !65
  %315 = zext i32 %314 to i64
  %316 = getelementptr inbounds [2 x i32], ptr %144, i64 0, i64 %315
  %317 = load i32, ptr %316, align 4, !tbaa !65
  %318 = zext i32 %317 to i64
  %319 = getelementptr inbounds %"class.dealii::MGDoFHandler<3>::MGVertexDoFs", ptr %41, i64 %318
  %320 = getelementptr inbounds %"class.dealii::MGDoFHandler<3>::MGVertexDoFs", ptr %41, i64 %318, i32 2
  %321 = load ptr, ptr %320, align 8, !tbaa !66
  %322 = load i32, ptr %319, align 8, !tbaa !68
  %323 = sub i32 %1, %322
  %324 = mul i32 %323, %10
  %325 = and i64 %61, 3
  %326 = icmp ult i32 %10, 4
  br i1 %326, label %375, label %327

327:                                              ; preds = %311
  %328 = and i64 %61, 4294967292
  br label %329

329:                                              ; preds = %329, %327
  %330 = phi i64 [ 0, %327 ], [ %372, %329 ]
  %331 = phi ptr [ %312, %327 ], [ %371, %329 ]
  %332 = phi i64 [ 0, %327 ], [ %373, %329 ]
  %333 = trunc i64 %330 to i32
  %334 = add i32 %324, %333
  %335 = zext i32 %334 to i64
  %336 = getelementptr inbounds i32, ptr %321, i64 %335
  %337 = load i32, ptr %336, align 4, !tbaa !65
  %338 = zext i32 %337 to i64
  %339 = getelementptr inbounds float, ptr %42, i64 %338
  %340 = load float, ptr %339, align 4, !tbaa !79
  %341 = getelementptr inbounds float, ptr %331, i64 1
  store float %340, ptr %331, align 4, !tbaa !79
  %342 = trunc i64 %330 to i32
  %343 = or i32 %342, 1
  %344 = add i32 %324, %343
  %345 = zext i32 %344 to i64
  %346 = getelementptr inbounds i32, ptr %321, i64 %345
  %347 = load i32, ptr %346, align 4, !tbaa !65
  %348 = zext i32 %347 to i64
  %349 = getelementptr inbounds float, ptr %42, i64 %348
  %350 = load float, ptr %349, align 4, !tbaa !79
  %351 = getelementptr inbounds float, ptr %331, i64 2
  store float %350, ptr %341, align 4, !tbaa !79
  %352 = trunc i64 %330 to i32
  %353 = or i32 %352, 2
  %354 = add i32 %324, %353
  %355 = zext i32 %354 to i64
  %356 = getelementptr inbounds i32, ptr %321, i64 %355
  %357 = load i32, ptr %356, align 4, !tbaa !65
  %358 = zext i32 %357 to i64
  %359 = getelementptr inbounds float, ptr %42, i64 %358
  %360 = load float, ptr %359, align 4, !tbaa !79
  %361 = getelementptr inbounds float, ptr %331, i64 3
  store float %360, ptr %351, align 4, !tbaa !79
  %362 = trunc i64 %330 to i32
  %363 = or i32 %362, 3
  %364 = add i32 %324, %363
  %365 = zext i32 %364 to i64
  %366 = getelementptr inbounds i32, ptr %321, i64 %365
  %367 = load i32, ptr %366, align 4, !tbaa !65
  %368 = zext i32 %367 to i64
  %369 = getelementptr inbounds float, ptr %42, i64 %368
  %370 = load float, ptr %369, align 4, !tbaa !79
  %371 = getelementptr inbounds float, ptr %331, i64 4
  store float %370, ptr %361, align 4, !tbaa !79
  %372 = add nuw nsw i64 %330, 4
  %373 = add i64 %332, 4
  %374 = icmp eq i64 %373, %328
  br i1 %374, label %375, label %329

375:                                              ; preds = %329, %311
  %376 = phi ptr [ undef, %311 ], [ %371, %329 ]
  %377 = phi i64 [ 0, %311 ], [ %372, %329 ]
  %378 = phi ptr [ %312, %311 ], [ %371, %329 ]
  %379 = icmp eq i64 %325, 0
  br i1 %379, label %396, label %380

380:                                              ; preds = %375, %380
  %381 = phi i64 [ %393, %380 ], [ %377, %375 ]
  %382 = phi ptr [ %392, %380 ], [ %378, %375 ]
  %383 = phi i64 [ %394, %380 ], [ 0, %375 ]
  %384 = trunc i64 %381 to i32
  %385 = add i32 %324, %384
  %386 = zext i32 %385 to i64
  %387 = getelementptr inbounds i32, ptr %321, i64 %386
  %388 = load i32, ptr %387, align 4, !tbaa !65
  %389 = zext i32 %388 to i64
  %390 = getelementptr inbounds float, ptr %42, i64 %389
  %391 = load float, ptr %390, align 4, !tbaa !79
  %392 = getelementptr inbounds float, ptr %382, i64 1
  store float %391, ptr %382, align 4, !tbaa !79
  %393 = add nuw nsw i64 %381, 1
  %394 = add i64 %383, 1
  %395 = icmp eq i64 %394, %325
  br i1 %395, label %396, label %380, !llvm.loop !112

396:                                              ; preds = %375, %380, %4
  %397 = phi ptr [ %16, %4 ], [ %376, %375 ], [ %392, %380 ]
  %398 = icmp eq i32 %12, 0
  %399 = getelementptr inbounds %"class.dealii::TriaAccessorBase.20", ptr %0, i64 0, i32 1
  %400 = getelementptr inbounds %"class.dealii::MGDoFAccessor.17", ptr %0, i64 0, i32 1
  %401 = getelementptr inbounds %"class.dealii::Vector.16", ptr %2, i64 0, i32 3
  br i1 %398, label %482, label %402

402:                                              ; preds = %396, %402
  %403 = phi i32 [ %420, %402 ], [ 0, %396 ]
  %404 = phi ptr [ %419, %402 ], [ %397, %396 ]
  %405 = load ptr, ptr %399, align 8, !tbaa !99, !noalias !113
  %406 = getelementptr inbounds %"class.dealii::Triangulation", ptr %405, i64 0, i32 2
  %407 = load ptr, ptr %406, align 8, !tbaa !31, !noalias !113
  %408 = load i32, ptr %0, align 8, !tbaa !103, !noalias !113
  %409 = sext i32 %408 to i64
  %410 = load ptr, ptr %407, align 8, !tbaa !88, !noalias !113
  %411 = getelementptr inbounds %"class.dealii::internal::Triangulation::TriaObject.151", ptr %410, i64 %409
  %412 = load i32, ptr %411, align 4, !tbaa !65, !noalias !113
  %413 = load ptr, ptr %400, align 8, !tbaa !104, !noalias !113
  %414 = tail call noundef i32 @_ZNK6dealii12MGDoFHandlerILi3ELi3EE13get_dof_indexILi1EEEjjjjj(ptr noundef nonnull align 8 dereferenceable(248) %413, i32 noundef %1, i32 noundef %412, i32 noundef 0, i32 noundef %403)
  %415 = load ptr, ptr %401, align 8, !tbaa !77
  %416 = zext i32 %414 to i64
  %417 = getelementptr inbounds float, ptr %415, i64 %416
  %418 = load float, ptr %417, align 4, !tbaa !79
  %419 = getelementptr inbounds float, ptr %404, i64 1
  store float %418, ptr %404, align 4, !tbaa !79
  %420 = add nuw i32 %403, 1
  %421 = icmp eq i32 %420, %12
  br i1 %421, label %422, label %402

422:                                              ; preds = %402, %422
  %423 = phi i32 [ %440, %422 ], [ 0, %402 ]
  %424 = phi ptr [ %439, %422 ], [ %419, %402 ]
  %425 = load ptr, ptr %399, align 8, !tbaa !99, !noalias !113
  %426 = getelementptr inbounds %"class.dealii::Triangulation", ptr %425, i64 0, i32 2
  %427 = load ptr, ptr %426, align 8, !tbaa !31, !noalias !113
  %428 = load i32, ptr %0, align 8, !tbaa !103, !noalias !113
  %429 = sext i32 %428 to i64
  %430 = load ptr, ptr %427, align 8, !tbaa !88, !noalias !113
  %431 = getelementptr inbounds %"class.dealii::internal::Triangulation::TriaObject.151", ptr %430, i64 %429, i32 0, i64 1
  %432 = load i32, ptr %431, align 4, !tbaa !65, !noalias !113
  %433 = load ptr, ptr %400, align 8, !tbaa !104, !noalias !113
  %434 = tail call noundef i32 @_ZNK6dealii12MGDoFHandlerILi3ELi3EE13get_dof_indexILi1EEEjjjjj(ptr noundef nonnull align 8 dereferenceable(248) %433, i32 noundef %1, i32 noundef %432, i32 noundef 0, i32 noundef %423)
  %435 = load ptr, ptr %401, align 8, !tbaa !77
  %436 = zext i32 %434 to i64
  %437 = getelementptr inbounds float, ptr %435, i64 %436
  %438 = load float, ptr %437, align 4, !tbaa !79
  %439 = getelementptr inbounds float, ptr %424, i64 1
  store float %438, ptr %424, align 4, !tbaa !79
  %440 = add nuw i32 %423, 1
  %441 = icmp eq i32 %440, %12
  br i1 %441, label %442, label %422

442:                                              ; preds = %422, %442
  %443 = phi i32 [ %460, %442 ], [ 0, %422 ]
  %444 = phi ptr [ %459, %442 ], [ %439, %422 ]
  %445 = load ptr, ptr %399, align 8, !tbaa !99, !noalias !113
  %446 = getelementptr inbounds %"class.dealii::Triangulation", ptr %445, i64 0, i32 2
  %447 = load ptr, ptr %446, align 8, !tbaa !31, !noalias !113
  %448 = load i32, ptr %0, align 8, !tbaa !103, !noalias !113
  %449 = sext i32 %448 to i64
  %450 = load ptr, ptr %447, align 8, !tbaa !88, !noalias !113
  %451 = getelementptr inbounds %"class.dealii::internal::Triangulation::TriaObject.151", ptr %450, i64 %449, i32 0, i64 2
  %452 = load i32, ptr %451, align 4, !tbaa !65, !noalias !113
  %453 = load ptr, ptr %400, align 8, !tbaa !104, !noalias !113
  %454 = tail call noundef i32 @_ZNK6dealii12MGDoFHandlerILi3ELi3EE13get_dof_indexILi1EEEjjjjj(ptr noundef nonnull align 8 dereferenceable(248) %453, i32 noundef %1, i32 noundef %452, i32 noundef 0, i32 noundef %443)
  %455 = load ptr, ptr %401, align 8, !tbaa !77
  %456 = zext i32 %454 to i64
  %457 = getelementptr inbounds float, ptr %455, i64 %456
  %458 = load float, ptr %457, align 4, !tbaa !79
  %459 = getelementptr inbounds float, ptr %444, i64 1
  store float %458, ptr %444, align 4, !tbaa !79
  %460 = add nuw i32 %443, 1
  %461 = icmp eq i32 %460, %12
  br i1 %461, label %462, label %442

462:                                              ; preds = %442, %462
  %463 = phi i32 [ %480, %462 ], [ 0, %442 ]
  %464 = phi ptr [ %479, %462 ], [ %459, %442 ]
  %465 = load ptr, ptr %399, align 8, !tbaa !99, !noalias !113
  %466 = getelementptr inbounds %"class.dealii::Triangulation", ptr %465, i64 0, i32 2
  %467 = load ptr, ptr %466, align 8, !tbaa !31, !noalias !113
  %468 = load i32, ptr %0, align 8, !tbaa !103, !noalias !113
  %469 = sext i32 %468 to i64
  %470 = load ptr, ptr %467, align 8, !tbaa !88, !noalias !113
  %471 = getelementptr inbounds %"class.dealii::internal::Triangulation::TriaObject.151", ptr %470, i64 %469, i32 0, i64 3
  %472 = load i32, ptr %471, align 4, !tbaa !65, !noalias !113
  %473 = load ptr, ptr %400, align 8, !tbaa !104, !noalias !113
  %474 = tail call noundef i32 @_ZNK6dealii12MGDoFHandlerILi3ELi3EE13get_dof_indexILi1EEEjjjjj(ptr noundef nonnull align 8 dereferenceable(248) %473, i32 noundef %1, i32 noundef %472, i32 noundef 0, i32 noundef %463)
  %475 = load ptr, ptr %401, align 8, !tbaa !77
  %476 = zext i32 %474 to i64
  %477 = getelementptr inbounds float, ptr %475, i64 %476
  %478 = load float, ptr %477, align 4, !tbaa !79
  %479 = getelementptr inbounds float, ptr %464, i64 1
  store float %478, ptr %464, align 4, !tbaa !79
  %480 = add nuw i32 %463, 1
  %481 = icmp eq i32 %480, %12
  br i1 %481, label %482, label %462

482:                                              ; preds = %462, %396
  %483 = phi ptr [ %397, %396 ], [ %479, %462 ]
  %484 = icmp eq i32 %14, 0
  br i1 %484, label %485, label %486

485:                                              ; preds = %486, %482
  ret void

486:                                              ; preds = %482, %486
  %487 = phi i32 [ %497, %486 ], [ 0, %482 ]
  %488 = phi ptr [ %496, %486 ], [ %483, %482 ]
  %489 = load ptr, ptr %400, align 8, !tbaa !104
  %490 = load i32, ptr %0, align 8, !tbaa !103
  %491 = tail call noundef i32 @_ZNK6dealii12MGDoFHandlerILi3ELi3EE13get_dof_indexILi2EEEjjjjj(ptr noundef nonnull align 8 dereferenceable(248) %489, i32 noundef %1, i32 noundef %490, i32 noundef 0, i32 noundef %487)
  %492 = load ptr, ptr %401, align 8, !tbaa !77
  %493 = zext i32 %491 to i64
  %494 = getelementptr inbounds float, ptr %492, i64 %493
  %495 = load float, ptr %494, align 4, !tbaa !79
  %496 = getelementptr inbounds float, ptr %488, i64 1
  store float %495, ptr %488, align 4, !tbaa !79
  %497 = add nuw i32 %487, 1
  %498 = icmp eq i32 %497, %14
  br i1 %498, label %485, label %486
}

; Function Attrs: sspstrong uwtable
define weak_odr dso_local void @_ZNK6dealii13MGDoFAccessorILi3ELi3ELi3EE17get_mg_dof_valuesIdEEviRKNS_6VectorIT_EERS5_(ptr noundef nonnull align 8 dereferenceable(32) %0, i32 noundef %1, ptr noundef nonnull align 1 %2, ptr noundef nonnull align 1 %3) local_unnamed_addr #0 comdat align 2 {
  tail call void @_ZN6dealii8internal13MGDoFAccessor17get_mg_dof_valuesILi3ELi3EdEEvRKNS_13MGDoFAccessorILi3EXT_EXT0_EEEiRKNS_6VectorIT1_EERS9_(ptr noundef nonnull align 8 dereferenceable(32) %0, i32 noundef %1, ptr noundef nonnull align 1 %2, ptr noundef nonnull align 1 %3)
  ret void
}

; Function Attrs: sspstrong uwtable
define linkonce_odr dso_local void @_ZN6dealii8internal13MGDoFAccessor17get_mg_dof_valuesILi3ELi3EdEEvRKNS_13MGDoFAccessorILi3EXT_EXT0_EEEiRKNS_6VectorIT1_EERS9_(ptr noundef nonnull align 8 dereferenceable(32) %0, i32 noundef %1, ptr noundef nonnull align 1 %2, ptr noundef nonnull align 1 %3) local_unnamed_addr #0 comdat {
  %5 = getelementptr inbounds %"class.dealii::DoFAccessor.22", ptr %0, i64 0, i32 1
  %6 = load ptr, ptr %5, align 8, !tbaa !116
  %7 = getelementptr inbounds %"class.dealii::DoFHandler", ptr %6, i64 0, i32 2
  %8 = load ptr, ptr %7, align 8, !tbaa !13
  %9 = getelementptr inbounds i8, ptr %8, i64 72
  %10 = load i32, ptr %9, align 8, !tbaa !15
  %11 = getelementptr inbounds i8, ptr %8, i64 76
  %12 = load i32, ptr %11, align 4, !tbaa !18
  %13 = getelementptr inbounds i8, ptr %8, i64 80
  %14 = load i32, ptr %13, align 8, !tbaa !87
  %15 = getelementptr inbounds i8, ptr %8, i64 84
  %16 = load i32, ptr %15, align 4, !tbaa !121
  %17 = getelementptr inbounds %"class.dealii::Vector", ptr %3, i64 0, i32 3
  %18 = load ptr, ptr %17, align 8, !tbaa !19
  %19 = icmp eq i32 %10, 0
  %20 = getelementptr inbounds %"class.dealii::MGDoFAccessor.21", ptr %0, i64 0, i32 1
  %21 = getelementptr inbounds %"class.dealii::TriaAccessorBase.24", ptr %0, i64 0, i32 2
  %22 = getelementptr inbounds %"class.dealii::TriaAccessorBase.24", ptr %0, i64 0, i32 1
  %23 = getelementptr inbounds %"class.dealii::Vector", ptr %2, i64 0, i32 3
  br i1 %19, label %135, label %24

24:                                               ; preds = %4, %132
  %25 = phi i32 [ %133, %132 ], [ 0, %4 ]
  %26 = phi ptr [ %129, %132 ], [ %18, %4 ]
  %27 = lshr i32 %25, 2
  %28 = add nuw nsw i32 %27, 4
  %29 = zext i32 %28 to i64
  %30 = and i32 %25, 3
  br label %31

31:                                               ; preds = %24, %31
  %32 = phi i32 [ 0, %24 ], [ %130, %31 ]
  %33 = phi ptr [ %26, %24 ], [ %129, %31 ]
  %34 = load ptr, ptr %20, align 8, !tbaa !122
  %35 = getelementptr inbounds %"class.dealii::MGDoFHandler", ptr %34, i64 0, i32 3
  %36 = load ptr, ptr %21, align 8, !tbaa !125
  %37 = getelementptr inbounds %"class.dealii::Triangulation", ptr %36, i64 0, i32 1
  %38 = load i32, ptr %0, align 8, !tbaa !126
  %39 = sext i32 %38 to i64
  %40 = load ptr, ptr %37, align 8, !tbaa !127
  %41 = getelementptr inbounds ptr, ptr %40, i64 %39
  %42 = load ptr, ptr %41, align 8, !tbaa !128
  %43 = getelementptr inbounds %"class.dealii::internal::Triangulation::TriaLevel", ptr %42, i64 0, i32 4
  %44 = load i32, ptr %22, align 4, !tbaa !129
  %45 = sext i32 %44 to i64
  %46 = load ptr, ptr %43, align 8, !tbaa !130, !noalias !132
  %47 = getelementptr inbounds %"class.dealii::internal::Triangulation::TriaObject.177", ptr %46, i64 %45
  %48 = getelementptr inbounds [6 x i32], ptr %47, i64 0, i64 %29
  %49 = load i32, ptr %48, align 4, !tbaa !65, !noalias !132
  %50 = getelementptr inbounds %"class.dealii::internal::Triangulation::TriaLevel", ptr %42, i64 0, i32 4, i32 1
  %51 = mul i32 %44, 6
  %52 = add i32 %51, %28
  %53 = load ptr, ptr %50, align 8, !tbaa !93
  %54 = lshr i32 %52, 6
  %55 = zext i32 %54 to i64
  %56 = getelementptr inbounds i64, ptr %53, i64 %55
  %57 = and i32 %52, 63
  %58 = zext i32 %57 to i64
  %59 = shl nuw i64 1, %58
  %60 = load i64, ptr %56, align 8, !tbaa !94
  %61 = and i64 %59, %60
  %62 = icmp ne i64 %61, 0
  %63 = getelementptr inbounds %"class.dealii::internal::Triangulation::TriaLevel", ptr %42, i64 0, i32 4, i32 2
  %64 = load ptr, ptr %63, align 8, !tbaa !93
  %65 = getelementptr inbounds i64, ptr %64, i64 %55
  %66 = load i64, ptr %65, align 8, !tbaa !94
  %67 = and i64 %66, %59
  %68 = icmp ne i64 %67, 0
  %69 = getelementptr inbounds %"class.dealii::internal::Triangulation::TriaLevel", ptr %42, i64 0, i32 4, i32 3
  %70 = load ptr, ptr %69, align 8, !tbaa !93
  %71 = getelementptr inbounds i64, ptr %70, i64 %55
  %72 = load i64, ptr %71, align 8, !tbaa !94
  %73 = and i64 %72, %59
  %74 = icmp ne i64 %73, 0
  %75 = tail call noundef i32 @_ZN6dealii12GeometryInfoILi3EE28standard_to_real_face_vertexEjbbb(i32 noundef %30, i1 noundef zeroext %62, i1 noundef zeroext %68, i1 noundef zeroext %74)
  %76 = and i32 %75, 1
  %77 = getelementptr inbounds %"class.dealii::Triangulation", ptr %36, i64 0, i32 2
  %78 = load ptr, ptr %77, align 8, !tbaa !31
  %79 = sext i32 %49 to i64
  %80 = load ptr, ptr %78, align 8, !tbaa !88, !noalias !135
  %81 = getelementptr inbounds %"class.dealii::internal::Triangulation::TriaObject.151", ptr %80, i64 %79
  %82 = zext i32 %76 to i64
  %83 = getelementptr inbounds [4 x i32], ptr %81, i64 0, i64 %82
  %84 = load i32, ptr %83, align 4, !tbaa !65, !noalias !135
  %85 = getelementptr inbounds %"class.dealii::internal::Triangulation::TriaObjectsQuad3D", ptr %78, i64 0, i32 1
  %86 = shl i32 %49, 2
  %87 = load ptr, ptr %85, align 8, !tbaa !93
  %88 = lshr i32 %86, 6
  %89 = zext i32 %88 to i64
  %90 = getelementptr inbounds i64, ptr %87, i64 %89
  %91 = and i32 %86, 60
  %92 = or i32 %76, %91
  %93 = zext i32 %92 to i64
  %94 = load i64, ptr %90, align 8, !tbaa !94
  %95 = lshr i64 %94, %93
  %96 = and i64 %95, 1
  %97 = lshr i32 %75, 1
  %98 = zext i32 %97 to i64
  %99 = getelementptr inbounds [2 x [2 x i32]], ptr @_ZZN6dealii8internal12TriaAccessor14Implementation12vertex_indexILi3ELi3EEEjRKNS_12TriaAccessorILi2EXT_EXT0_EEEjE12switch_table, i64 0, i64 %96, i64 %98
  %100 = load i32, ptr %99, align 4, !tbaa !65
  %101 = getelementptr inbounds %"class.dealii::internal::Triangulation::TriaFaces", ptr %78, i64 0, i32 1
  %102 = sext i32 %84 to i64
  %103 = load ptr, ptr %101, align 8, !tbaa !61
  %104 = getelementptr inbounds %"class.dealii::internal::Triangulation::TriaObject", ptr %103, i64 %102
  %105 = zext i32 %100 to i64
  %106 = getelementptr inbounds [2 x i32], ptr %104, i64 0, i64 %105
  %107 = load i32, ptr %106, align 4, !tbaa !65
  %108 = zext i32 %107 to i64
  %109 = load ptr, ptr %35, align 8, !tbaa !63
  %110 = getelementptr inbounds %"class.dealii::MGDoFHandler<3>::MGVertexDoFs", ptr %109, i64 %108
  %111 = load ptr, ptr %5, align 8, !tbaa !116
  %112 = getelementptr inbounds %"class.dealii::DoFHandler", ptr %111, i64 0, i32 2
  %113 = load ptr, ptr %112, align 8, !tbaa !13
  %114 = getelementptr inbounds i8, ptr %113, i64 72
  %115 = load i32, ptr %114, align 8, !tbaa !15
  %116 = getelementptr inbounds %"class.dealii::MGDoFHandler<3>::MGVertexDoFs", ptr %109, i64 %108, i32 2
  %117 = load ptr, ptr %116, align 8, !tbaa !66
  %118 = load i32, ptr %110, align 8, !tbaa !68
  %119 = sub i32 %1, %118
  %120 = mul i32 %119, %115
  %121 = add i32 %120, %32
  %122 = zext i32 %121 to i64
  %123 = getelementptr inbounds i32, ptr %117, i64 %122
  %124 = load i32, ptr %123, align 4, !tbaa !65
  %125 = load ptr, ptr %23, align 8, !tbaa !19
  %126 = zext i32 %124 to i64
  %127 = getelementptr inbounds double, ptr %125, i64 %126
  %128 = load double, ptr %127, align 8, !tbaa !69
  %129 = getelementptr inbounds double, ptr %33, i64 1
  store double %128, ptr %33, align 8, !tbaa !69
  %130 = add nuw i32 %32, 1
  %131 = icmp eq i32 %130, %10
  br i1 %131, label %132, label %31

132:                                              ; preds = %31
  %133 = add nuw nsw i32 %25, 1
  %134 = icmp eq i32 %133, 8
  br i1 %134, label %135, label %24

135:                                              ; preds = %132, %4
  %136 = phi ptr [ %18, %4 ], [ %129, %132 ]
  %137 = icmp eq i32 %12, 0
  br i1 %137, label %217, label %138

138:                                              ; preds = %135, %214
  %139 = phi i64 [ %215, %214 ], [ 0, %135 ]
  %140 = phi ptr [ %211, %214 ], [ %136, %135 ]
  %141 = getelementptr inbounds [12 x [2 x i32]], ptr @_ZZN6dealii8internal12TriaAccessor14Implementation10line_indexILi3ELi3EEEjRKNS_12TriaAccessorILi3EXT_EXT0_EEEjE12lookup_table, i64 0, i64 %139
  %142 = load i32, ptr %141, align 8, !tbaa !65, !noalias !138
  %143 = getelementptr inbounds [12 x [2 x i32]], ptr @_ZZN6dealii8internal12TriaAccessor14Implementation10line_indexILi3ELi3EEEjRKNS_12TriaAccessorILi3EXT_EXT0_EEEjE12lookup_table, i64 0, i64 %139, i64 1
  %144 = load i32, ptr %143, align 4, !tbaa !65, !noalias !138
  %145 = zext i32 %142 to i64
  br label %146

146:                                              ; preds = %138, %146
  %147 = phi i32 [ 0, %138 ], [ %212, %146 ]
  %148 = phi ptr [ %140, %138 ], [ %211, %146 ]
  %149 = load ptr, ptr %21, align 8, !tbaa !125, !noalias !138
  %150 = getelementptr inbounds %"class.dealii::Triangulation", ptr %149, i64 0, i32 1
  %151 = load i32, ptr %0, align 8, !tbaa !126, !noalias !138
  %152 = sext i32 %151 to i64
  %153 = load ptr, ptr %150, align 8, !tbaa !127, !noalias !138
  %154 = getelementptr inbounds ptr, ptr %153, i64 %152
  %155 = load ptr, ptr %154, align 8, !tbaa !128, !noalias !138
  %156 = load i32, ptr %22, align 4, !tbaa !129, !noalias !138
  %157 = getelementptr inbounds %"class.dealii::internal::Triangulation::TriaLevel", ptr %155, i64 0, i32 4, i32 1
  %158 = mul i32 %156, 6
  %159 = add i32 %158, %142
  %160 = load ptr, ptr %157, align 8, !tbaa !93, !noalias !138
  %161 = lshr i32 %159, 6
  %162 = zext i32 %161 to i64
  %163 = getelementptr inbounds i64, ptr %160, i64 %162
  %164 = and i32 %159, 63
  %165 = zext i32 %164 to i64
  %166 = shl nuw i64 1, %165
  %167 = load i64, ptr %163, align 8, !tbaa !94, !noalias !138
  %168 = and i64 %166, %167
  %169 = icmp ne i64 %168, 0
  %170 = getelementptr inbounds %"class.dealii::internal::Triangulation::TriaLevel", ptr %155, i64 0, i32 4, i32 2
  %171 = load ptr, ptr %170, align 8, !tbaa !93, !noalias !138
  %172 = getelementptr inbounds i64, ptr %171, i64 %162
  %173 = load i64, ptr %172, align 8, !tbaa !94, !noalias !138
  %174 = and i64 %166, %173
  %175 = icmp ne i64 %174, 0
  %176 = getelementptr inbounds %"class.dealii::internal::Triangulation::TriaLevel", ptr %155, i64 0, i32 4, i32 3
  %177 = load ptr, ptr %176, align 8, !tbaa !93, !noalias !138
  %178 = getelementptr inbounds i64, ptr %177, i64 %162
  %179 = load i64, ptr %178, align 8, !tbaa !94, !noalias !138
  %180 = and i64 %179, %166
  %181 = icmp ne i64 %180, 0
  %182 = tail call noundef i32 @_ZN6dealii12GeometryInfoILi3EE26standard_to_real_face_lineEjbbb(i32 noundef %144, i1 noundef zeroext %169, i1 noundef zeroext %175, i1 noundef zeroext %181), !noalias !138
  %183 = load ptr, ptr %21, align 8, !tbaa !125, !noalias !141
  %184 = getelementptr inbounds %"class.dealii::Triangulation", ptr %183, i64 0, i32 1
  %185 = load i32, ptr %0, align 8, !tbaa !126, !noalias !141
  %186 = sext i32 %185 to i64
  %187 = load ptr, ptr %184, align 8, !tbaa !127, !noalias !141
  %188 = getelementptr inbounds ptr, ptr %187, i64 %186
  %189 = load ptr, ptr %188, align 8, !tbaa !128, !noalias !141
  %190 = getelementptr inbounds %"class.dealii::internal::Triangulation::TriaLevel", ptr %189, i64 0, i32 4
  %191 = load i32, ptr %22, align 4, !tbaa !129, !noalias !141
  %192 = sext i32 %191 to i64
  %193 = load ptr, ptr %190, align 8, !tbaa !130, !noalias !141
  %194 = getelementptr inbounds %"class.dealii::internal::Triangulation::TriaObject.177", ptr %193, i64 %192
  %195 = getelementptr inbounds [6 x i32], ptr %194, i64 0, i64 %145
  %196 = load i32, ptr %195, align 4, !tbaa !65, !noalias !141
  %197 = getelementptr inbounds %"class.dealii::Triangulation", ptr %183, i64 0, i32 2
  %198 = load ptr, ptr %197, align 8, !tbaa !31, !noalias !138
  %199 = sext i32 %196 to i64
  %200 = load ptr, ptr %198, align 8, !tbaa !88, !noalias !138
  %201 = getelementptr inbounds %"class.dealii::internal::Triangulation::TriaObject.151", ptr %200, i64 %199
  %202 = zext i32 %182 to i64
  %203 = getelementptr inbounds [4 x i32], ptr %201, i64 0, i64 %202
  %204 = load i32, ptr %203, align 4, !tbaa !65, !noalias !138
  %205 = load ptr, ptr %20, align 8, !tbaa !122, !noalias !138
  %206 = tail call noundef i32 @_ZNK6dealii12MGDoFHandlerILi3ELi3EE13get_dof_indexILi1EEEjjjjj(ptr noundef nonnull align 8 dereferenceable(248) %205, i32 noundef %1, i32 noundef %204, i32 noundef 0, i32 noundef %147)
  %207 = load ptr, ptr %23, align 8, !tbaa !19
  %208 = zext i32 %206 to i64
  %209 = getelementptr inbounds double, ptr %207, i64 %208
  %210 = load double, ptr %209, align 8, !tbaa !69
  %211 = getelementptr inbounds double, ptr %148, i64 1
  store double %210, ptr %148, align 8, !tbaa !69
  %212 = add nuw i32 %147, 1
  %213 = icmp eq i32 %212, %12
  br i1 %213, label %214, label %146

214:                                              ; preds = %146
  %215 = add nuw nsw i64 %139, 1
  %216 = icmp eq i64 %215, 12
  br i1 %216, label %217, label %138

217:                                              ; preds = %214, %135
  %218 = phi ptr [ %136, %135 ], [ %211, %214 ]
  %219 = icmp eq i32 %14, 0
  br i1 %219, label %370, label %220

220:                                              ; preds = %217, %220
  %221 = phi i32 [ %243, %220 ], [ 0, %217 ]
  %222 = phi ptr [ %242, %220 ], [ %218, %217 ]
  %223 = load ptr, ptr %21, align 8, !tbaa !125, !noalias !144
  %224 = getelementptr inbounds %"class.dealii::Triangulation", ptr %223, i64 0, i32 1
  %225 = load i32, ptr %0, align 8, !tbaa !126, !noalias !144
  %226 = sext i32 %225 to i64
  %227 = load ptr, ptr %224, align 8, !tbaa !127, !noalias !144
  %228 = getelementptr inbounds ptr, ptr %227, i64 %226
  %229 = load ptr, ptr %228, align 8, !tbaa !128, !noalias !144
  %230 = getelementptr inbounds %"class.dealii::internal::Triangulation::TriaLevel", ptr %229, i64 0, i32 4
  %231 = load i32, ptr %22, align 4, !tbaa !129, !noalias !144
  %232 = sext i32 %231 to i64
  %233 = load ptr, ptr %230, align 8, !tbaa !130, !noalias !144
  %234 = getelementptr inbounds %"class.dealii::internal::Triangulation::TriaObject.177", ptr %233, i64 %232
  %235 = load i32, ptr %234, align 4, !tbaa !65, !noalias !144
  %236 = load ptr, ptr %20, align 8, !tbaa !122, !noalias !144
  %237 = tail call noundef i32 @_ZNK6dealii12MGDoFHandlerILi3ELi3EE13get_dof_indexILi2EEEjjjjj(ptr noundef nonnull align 8 dereferenceable(248) %236, i32 noundef %1, i32 noundef %235, i32 noundef 0, i32 noundef %221)
  %238 = load ptr, ptr %23, align 8, !tbaa !19
  %239 = zext i32 %237 to i64
  %240 = getelementptr inbounds double, ptr %238, i64 %239
  %241 = load double, ptr %240, align 8, !tbaa !69
  %242 = getelementptr inbounds double, ptr %222, i64 1
  store double %241, ptr %222, align 8, !tbaa !69
  %243 = add nuw i32 %221, 1
  %244 = icmp eq i32 %243, %14
  br i1 %244, label %245, label %220

245:                                              ; preds = %220, %245
  %246 = phi i32 [ %268, %245 ], [ 0, %220 ]
  %247 = phi ptr [ %267, %245 ], [ %242, %220 ]
  %248 = load ptr, ptr %21, align 8, !tbaa !125, !noalias !144
  %249 = getelementptr inbounds %"class.dealii::Triangulation", ptr %248, i64 0, i32 1
  %250 = load i32, ptr %0, align 8, !tbaa !126, !noalias !144
  %251 = sext i32 %250 to i64
  %252 = load ptr, ptr %249, align 8, !tbaa !127, !noalias !144
  %253 = getelementptr inbounds ptr, ptr %252, i64 %251
  %254 = load ptr, ptr %253, align 8, !tbaa !128, !noalias !144
  %255 = getelementptr inbounds %"class.dealii::internal::Triangulation::TriaLevel", ptr %254, i64 0, i32 4
  %256 = load i32, ptr %22, align 4, !tbaa !129, !noalias !144
  %257 = sext i32 %256 to i64
  %258 = load ptr, ptr %255, align 8, !tbaa !130, !noalias !144
  %259 = getelementptr inbounds %"class.dealii::internal::Triangulation::TriaObject.177", ptr %258, i64 %257, i32 0, i64 1
  %260 = load i32, ptr %259, align 4, !tbaa !65, !noalias !144
  %261 = load ptr, ptr %20, align 8, !tbaa !122, !noalias !144
  %262 = tail call noundef i32 @_ZNK6dealii12MGDoFHandlerILi3ELi3EE13get_dof_indexILi2EEEjjjjj(ptr noundef nonnull align 8 dereferenceable(248) %261, i32 noundef %1, i32 noundef %260, i32 noundef 0, i32 noundef %246)
  %263 = load ptr, ptr %23, align 8, !tbaa !19
  %264 = zext i32 %262 to i64
  %265 = getelementptr inbounds double, ptr %263, i64 %264
  %266 = load double, ptr %265, align 8, !tbaa !69
  %267 = getelementptr inbounds double, ptr %247, i64 1
  store double %266, ptr %247, align 8, !tbaa !69
  %268 = add nuw i32 %246, 1
  %269 = icmp eq i32 %268, %14
  br i1 %269, label %270, label %245

270:                                              ; preds = %245, %270
  %271 = phi i32 [ %293, %270 ], [ 0, %245 ]
  %272 = phi ptr [ %292, %270 ], [ %267, %245 ]
  %273 = load ptr, ptr %21, align 8, !tbaa !125, !noalias !144
  %274 = getelementptr inbounds %"class.dealii::Triangulation", ptr %273, i64 0, i32 1
  %275 = load i32, ptr %0, align 8, !tbaa !126, !noalias !144
  %276 = sext i32 %275 to i64
  %277 = load ptr, ptr %274, align 8, !tbaa !127, !noalias !144
  %278 = getelementptr inbounds ptr, ptr %277, i64 %276
  %279 = load ptr, ptr %278, align 8, !tbaa !128, !noalias !144
  %280 = getelementptr inbounds %"class.dealii::internal::Triangulation::TriaLevel", ptr %279, i64 0, i32 4
  %281 = load i32, ptr %22, align 4, !tbaa !129, !noalias !144
  %282 = sext i32 %281 to i64
  %283 = load ptr, ptr %280, align 8, !tbaa !130, !noalias !144
  %284 = getelementptr inbounds %"class.dealii::internal::Triangulation::TriaObject.177", ptr %283, i64 %282, i32 0, i64 2
  %285 = load i32, ptr %284, align 4, !tbaa !65, !noalias !144
  %286 = load ptr, ptr %20, align 8, !tbaa !122, !noalias !144
  %287 = tail call noundef i32 @_ZNK6dealii12MGDoFHandlerILi3ELi3EE13get_dof_indexILi2EEEjjjjj(ptr noundef nonnull align 8 dereferenceable(248) %286, i32 noundef %1, i32 noundef %285, i32 noundef 0, i32 noundef %271)
  %288 = load ptr, ptr %23, align 8, !tbaa !19
  %289 = zext i32 %287 to i64
  %290 = getelementptr inbounds double, ptr %288, i64 %289
  %291 = load double, ptr %290, align 8, !tbaa !69
  %292 = getelementptr inbounds double, ptr %272, i64 1
  store double %291, ptr %272, align 8, !tbaa !69
  %293 = add nuw i32 %271, 1
  %294 = icmp eq i32 %293, %14
  br i1 %294, label %295, label %270

295:                                              ; preds = %270, %295
  %296 = phi i32 [ %318, %295 ], [ 0, %270 ]
  %297 = phi ptr [ %317, %295 ], [ %292, %270 ]
  %298 = load ptr, ptr %21, align 8, !tbaa !125, !noalias !144
  %299 = getelementptr inbounds %"class.dealii::Triangulation", ptr %298, i64 0, i32 1
  %300 = load i32, ptr %0, align 8, !tbaa !126, !noalias !144
  %301 = sext i32 %300 to i64
  %302 = load ptr, ptr %299, align 8, !tbaa !127, !noalias !144
  %303 = getelementptr inbounds ptr, ptr %302, i64 %301
  %304 = load ptr, ptr %303, align 8, !tbaa !128, !noalias !144
  %305 = getelementptr inbounds %"class.dealii::internal::Triangulation::TriaLevel", ptr %304, i64 0, i32 4
  %306 = load i32, ptr %22, align 4, !tbaa !129, !noalias !144
  %307 = sext i32 %306 to i64
  %308 = load ptr, ptr %305, align 8, !tbaa !130, !noalias !144
  %309 = getelementptr inbounds %"class.dealii::internal::Triangulation::TriaObject.177", ptr %308, i64 %307, i32 0, i64 3
  %310 = load i32, ptr %309, align 4, !tbaa !65, !noalias !144
  %311 = load ptr, ptr %20, align 8, !tbaa !122, !noalias !144
  %312 = tail call noundef i32 @_ZNK6dealii12MGDoFHandlerILi3ELi3EE13get_dof_indexILi2EEEjjjjj(ptr noundef nonnull align 8 dereferenceable(248) %311, i32 noundef %1, i32 noundef %310, i32 noundef 0, i32 noundef %296)
  %313 = load ptr, ptr %23, align 8, !tbaa !19
  %314 = zext i32 %312 to i64
  %315 = getelementptr inbounds double, ptr %313, i64 %314
  %316 = load double, ptr %315, align 8, !tbaa !69
  %317 = getelementptr inbounds double, ptr %297, i64 1
  store double %316, ptr %297, align 8, !tbaa !69
  %318 = add nuw i32 %296, 1
  %319 = icmp eq i32 %318, %14
  br i1 %319, label %320, label %295

320:                                              ; preds = %295, %320
  %321 = phi i32 [ %343, %320 ], [ 0, %295 ]
  %322 = phi ptr [ %342, %320 ], [ %317, %295 ]
  %323 = load ptr, ptr %21, align 8, !tbaa !125, !noalias !144
  %324 = getelementptr inbounds %"class.dealii::Triangulation", ptr %323, i64 0, i32 1
  %325 = load i32, ptr %0, align 8, !tbaa !126, !noalias !144
  %326 = sext i32 %325 to i64
  %327 = load ptr, ptr %324, align 8, !tbaa !127, !noalias !144
  %328 = getelementptr inbounds ptr, ptr %327, i64 %326
  %329 = load ptr, ptr %328, align 8, !tbaa !128, !noalias !144
  %330 = getelementptr inbounds %"class.dealii::internal::Triangulation::TriaLevel", ptr %329, i64 0, i32 4
  %331 = load i32, ptr %22, align 4, !tbaa !129, !noalias !144
  %332 = sext i32 %331 to i64
  %333 = load ptr, ptr %330, align 8, !tbaa !130, !noalias !144
  %334 = getelementptr inbounds %"class.dealii::internal::Triangulation::TriaObject.177", ptr %333, i64 %332, i32 0, i64 4
  %335 = load i32, ptr %334, align 4, !tbaa !65, !noalias !144
  %336 = load ptr, ptr %20, align 8, !tbaa !122, !noalias !144
  %337 = tail call noundef i32 @_ZNK6dealii12MGDoFHandlerILi3ELi3EE13get_dof_indexILi2EEEjjjjj(ptr noundef nonnull align 8 dereferenceable(248) %336, i32 noundef %1, i32 noundef %335, i32 noundef 0, i32 noundef %321)
  %338 = load ptr, ptr %23, align 8, !tbaa !19
  %339 = zext i32 %337 to i64
  %340 = getelementptr inbounds double, ptr %338, i64 %339
  %341 = load double, ptr %340, align 8, !tbaa !69
  %342 = getelementptr inbounds double, ptr %322, i64 1
  store double %341, ptr %322, align 8, !tbaa !69
  %343 = add nuw i32 %321, 1
  %344 = icmp eq i32 %343, %14
  br i1 %344, label %345, label %320

345:                                              ; preds = %320, %345
  %346 = phi i32 [ %368, %345 ], [ 0, %320 ]
  %347 = phi ptr [ %367, %345 ], [ %342, %320 ]
  %348 = load ptr, ptr %21, align 8, !tbaa !125, !noalias !144
  %349 = getelementptr inbounds %"class.dealii::Triangulation", ptr %348, i64 0, i32 1
  %350 = load i32, ptr %0, align 8, !tbaa !126, !noalias !144
  %351 = sext i32 %350 to i64
  %352 = load ptr, ptr %349, align 8, !tbaa !127, !noalias !144
  %353 = getelementptr inbounds ptr, ptr %352, i64 %351
  %354 = load ptr, ptr %353, align 8, !tbaa !128, !noalias !144
  %355 = getelementptr inbounds %"class.dealii::internal::Triangulation::TriaLevel", ptr %354, i64 0, i32 4
  %356 = load i32, ptr %22, align 4, !tbaa !129, !noalias !144
  %357 = sext i32 %356 to i64
  %358 = load ptr, ptr %355, align 8, !tbaa !130, !noalias !144
  %359 = getelementptr inbounds %"class.dealii::internal::Triangulation::TriaObject.177", ptr %358, i64 %357, i32 0, i64 5
  %360 = load i32, ptr %359, align 4, !tbaa !65, !noalias !144
  %361 = load ptr, ptr %20, align 8, !tbaa !122, !noalias !144
  %362 = tail call noundef i32 @_ZNK6dealii12MGDoFHandlerILi3ELi3EE13get_dof_indexILi2EEEjjjjj(ptr noundef nonnull align 8 dereferenceable(248) %361, i32 noundef %1, i32 noundef %360, i32 noundef 0, i32 noundef %346)
  %363 = load ptr, ptr %23, align 8, !tbaa !19
  %364 = zext i32 %362 to i64
  %365 = getelementptr inbounds double, ptr %363, i64 %364
  %366 = load double, ptr %365, align 8, !tbaa !69
  %367 = getelementptr inbounds double, ptr %347, i64 1
  store double %366, ptr %347, align 8, !tbaa !69
  %368 = add nuw i32 %346, 1
  %369 = icmp eq i32 %368, %14
  br i1 %369, label %370, label %345

370:                                              ; preds = %345, %217
  %371 = phi ptr [ %218, %217 ], [ %367, %345 ]
  %372 = icmp eq i32 %16, 0
  br i1 %372, label %415, label %373

373:                                              ; preds = %370
  %374 = load ptr, ptr %5, align 8, !tbaa !116
  %375 = load i32, ptr %0, align 8, !tbaa !126
  %376 = load i32, ptr %22, align 4, !tbaa !129
  %377 = getelementptr inbounds %"class.dealii::DoFHandler", ptr %374, i64 0, i32 3
  %378 = zext i32 %375 to i64
  %379 = load ptr, ptr %377, align 8, !tbaa !147
  %380 = getelementptr inbounds ptr, ptr %379, i64 %378
  %381 = load ptr, ptr %380, align 8, !tbaa !128
  %382 = getelementptr inbounds %"class.dealii::internal::DoFHandler::DoFLevel", ptr %381, i64 0, i32 1
  %383 = getelementptr inbounds %"class.dealii::DoFHandler", ptr %374, i64 0, i32 2
  %384 = load ptr, ptr %383, align 8, !tbaa !13
  %385 = getelementptr inbounds i8, ptr %384, i64 84
  %386 = load i32, ptr %385, align 4, !tbaa !121
  %387 = mul i32 %386, %376
  %388 = load ptr, ptr %382, align 8, !tbaa !149
  %389 = load ptr, ptr %23, align 8, !tbaa !19
  %390 = zext i32 %16 to i64
  %391 = and i64 %390, 3
  %392 = icmp ult i32 %16, 4
  br i1 %392, label %395, label %393

393:                                              ; preds = %373
  %394 = and i64 %390, 4294967292
  br label %416

395:                                              ; preds = %416, %373
  %396 = phi i64 [ 0, %373 ], [ %459, %416 ]
  %397 = phi ptr [ %371, %373 ], [ %458, %416 ]
  %398 = icmp eq i64 %391, 0
  br i1 %398, label %415, label %399

399:                                              ; preds = %395, %399
  %400 = phi i64 [ %412, %399 ], [ %396, %395 ]
  %401 = phi ptr [ %411, %399 ], [ %397, %395 ]
  %402 = phi i64 [ %413, %399 ], [ 0, %395 ]
  %403 = trunc i64 %400 to i32
  %404 = add i32 %387, %403
  %405 = zext i32 %404 to i64
  %406 = getelementptr inbounds i32, ptr %388, i64 %405
  %407 = load i32, ptr %406, align 4, !tbaa !65
  %408 = zext i32 %407 to i64
  %409 = getelementptr inbounds double, ptr %389, i64 %408
  %410 = load double, ptr %409, align 8, !tbaa !69
  %411 = getelementptr inbounds double, ptr %401, i64 1
  store double %410, ptr %401, align 8, !tbaa !69
  %412 = add nuw nsw i64 %400, 1
  %413 = add i64 %402, 1
  %414 = icmp eq i64 %413, %391
  br i1 %414, label %415, label %399, !llvm.loop !150

415:                                              ; preds = %395, %399, %370
  ret void

416:                                              ; preds = %416, %393
  %417 = phi i64 [ 0, %393 ], [ %459, %416 ]
  %418 = phi ptr [ %371, %393 ], [ %458, %416 ]
  %419 = phi i64 [ 0, %393 ], [ %460, %416 ]
  %420 = trunc i64 %417 to i32
  %421 = add i32 %387, %420
  %422 = zext i32 %421 to i64
  %423 = getelementptr inbounds i32, ptr %388, i64 %422
  %424 = load i32, ptr %423, align 4, !tbaa !65
  %425 = zext i32 %424 to i64
  %426 = getelementptr inbounds double, ptr %389, i64 %425
  %427 = load double, ptr %426, align 8, !tbaa !69
  %428 = getelementptr inbounds double, ptr %418, i64 1
  store double %427, ptr %418, align 8, !tbaa !69
  %429 = trunc i64 %417 to i32
  %430 = or i32 %429, 1
  %431 = add i32 %387, %430
  %432 = zext i32 %431 to i64
  %433 = getelementptr inbounds i32, ptr %388, i64 %432
  %434 = load i32, ptr %433, align 4, !tbaa !65
  %435 = zext i32 %434 to i64
  %436 = getelementptr inbounds double, ptr %389, i64 %435
  %437 = load double, ptr %436, align 8, !tbaa !69
  %438 = getelementptr inbounds double, ptr %418, i64 2
  store double %437, ptr %428, align 8, !tbaa !69
  %439 = trunc i64 %417 to i32
  %440 = or i32 %439, 2
  %441 = add i32 %387, %440
  %442 = zext i32 %441 to i64
  %443 = getelementptr inbounds i32, ptr %388, i64 %442
  %444 = load i32, ptr %443, align 4, !tbaa !65
  %445 = zext i32 %444 to i64
  %446 = getelementptr inbounds double, ptr %389, i64 %445
  %447 = load double, ptr %446, align 8, !tbaa !69
  %448 = getelementptr inbounds double, ptr %418, i64 3
  store double %447, ptr %438, align 8, !tbaa !69
  %449 = trunc i64 %417 to i32
  %450 = or i32 %449, 3
  %451 = add i32 %387, %450
  %452 = zext i32 %451 to i64
  %453 = getelementptr inbounds i32, ptr %388, i64 %452
  %454 = load i32, ptr %453, align 4, !tbaa !65
  %455 = zext i32 %454 to i64
  %456 = getelementptr inbounds double, ptr %389, i64 %455
  %457 = load double, ptr %456, align 8, !tbaa !69
  %458 = getelementptr inbounds double, ptr %418, i64 4
  store double %457, ptr %448, align 8, !tbaa !69
  %459 = add nuw nsw i64 %417, 4
  %460 = add i64 %419, 4
  %461 = icmp eq i64 %460, %394
  br i1 %461, label %395, label %416
}

; Function Attrs: sspstrong uwtable
define weak_odr dso_local void @_ZNK6dealii13MGDoFAccessorILi3ELi3ELi3EE17get_mg_dof_valuesIfEEviRKNS_6VectorIT_EERS5_(ptr noundef nonnull align 8 dereferenceable(32) %0, i32 noundef %1, ptr noundef nonnull align 1 %2, ptr noundef nonnull align 1 %3) local_unnamed_addr #0 comdat align 2 {
  tail call void @_ZN6dealii8internal13MGDoFAccessor17get_mg_dof_valuesILi3ELi3EfEEvRKNS_13MGDoFAccessorILi3EXT_EXT0_EEEiRKNS_6VectorIT1_EERS9_(ptr noundef nonnull align 8 dereferenceable(32) %0, i32 noundef %1, ptr noundef nonnull align 1 %2, ptr noundef nonnull align 1 %3)
  ret void
}

; Function Attrs: sspstrong uwtable
define linkonce_odr dso_local void @_ZN6dealii8internal13MGDoFAccessor17get_mg_dof_valuesILi3ELi3EfEEvRKNS_13MGDoFAccessorILi3EXT_EXT0_EEEiRKNS_6VectorIT1_EERS9_(ptr noundef nonnull align 8 dereferenceable(32) %0, i32 noundef %1, ptr noundef nonnull align 1 %2, ptr noundef nonnull align 1 %3) local_unnamed_addr #0 comdat {
  %5 = getelementptr inbounds %"class.dealii::DoFAccessor.22", ptr %0, i64 0, i32 1
  %6 = load ptr, ptr %5, align 8, !tbaa !116
  %7 = getelementptr inbounds %"class.dealii::DoFHandler", ptr %6, i64 0, i32 2
  %8 = load ptr, ptr %7, align 8, !tbaa !13
  %9 = getelementptr inbounds i8, ptr %8, i64 72
  %10 = load i32, ptr %9, align 8, !tbaa !15
  %11 = getelementptr inbounds i8, ptr %8, i64 76
  %12 = load i32, ptr %11, align 4, !tbaa !18
  %13 = getelementptr inbounds i8, ptr %8, i64 80
  %14 = load i32, ptr %13, align 8, !tbaa !87
  %15 = getelementptr inbounds i8, ptr %8, i64 84
  %16 = load i32, ptr %15, align 4, !tbaa !121
  %17 = getelementptr inbounds %"class.dealii::Vector.16", ptr %3, i64 0, i32 3
  %18 = load ptr, ptr %17, align 8, !tbaa !77
  %19 = icmp eq i32 %10, 0
  %20 = getelementptr inbounds %"class.dealii::MGDoFAccessor.21", ptr %0, i64 0, i32 1
  %21 = getelementptr inbounds %"class.dealii::TriaAccessorBase.24", ptr %0, i64 0, i32 2
  %22 = getelementptr inbounds %"class.dealii::TriaAccessorBase.24", ptr %0, i64 0, i32 1
  %23 = getelementptr inbounds %"class.dealii::Vector.16", ptr %2, i64 0, i32 3
  br i1 %19, label %135, label %24

24:                                               ; preds = %4, %132
  %25 = phi i32 [ %133, %132 ], [ 0, %4 ]
  %26 = phi ptr [ %129, %132 ], [ %18, %4 ]
  %27 = lshr i32 %25, 2
  %28 = add nuw nsw i32 %27, 4
  %29 = zext i32 %28 to i64
  %30 = and i32 %25, 3
  br label %31

31:                                               ; preds = %24, %31
  %32 = phi i32 [ 0, %24 ], [ %130, %31 ]
  %33 = phi ptr [ %26, %24 ], [ %129, %31 ]
  %34 = load ptr, ptr %20, align 8, !tbaa !122
  %35 = getelementptr inbounds %"class.dealii::MGDoFHandler", ptr %34, i64 0, i32 3
  %36 = load ptr, ptr %21, align 8, !tbaa !125
  %37 = getelementptr inbounds %"class.dealii::Triangulation", ptr %36, i64 0, i32 1
  %38 = load i32, ptr %0, align 8, !tbaa !126
  %39 = sext i32 %38 to i64
  %40 = load ptr, ptr %37, align 8, !tbaa !127
  %41 = getelementptr inbounds ptr, ptr %40, i64 %39
  %42 = load ptr, ptr %41, align 8, !tbaa !128
  %43 = getelementptr inbounds %"class.dealii::internal::Triangulation::TriaLevel", ptr %42, i64 0, i32 4
  %44 = load i32, ptr %22, align 4, !tbaa !129
  %45 = sext i32 %44 to i64
  %46 = load ptr, ptr %43, align 8, !tbaa !130, !noalias !151
  %47 = getelementptr inbounds %"class.dealii::internal::Triangulation::TriaObject.177", ptr %46, i64 %45
  %48 = getelementptr inbounds [6 x i32], ptr %47, i64 0, i64 %29
  %49 = load i32, ptr %48, align 4, !tbaa !65, !noalias !151
  %50 = getelementptr inbounds %"class.dealii::internal::Triangulation::TriaLevel", ptr %42, i64 0, i32 4, i32 1
  %51 = mul i32 %44, 6
  %52 = add i32 %51, %28
  %53 = load ptr, ptr %50, align 8, !tbaa !93
  %54 = lshr i32 %52, 6
  %55 = zext i32 %54 to i64
  %56 = getelementptr inbounds i64, ptr %53, i64 %55
  %57 = and i32 %52, 63
  %58 = zext i32 %57 to i64
  %59 = shl nuw i64 1, %58
  %60 = load i64, ptr %56, align 8, !tbaa !94
  %61 = and i64 %59, %60
  %62 = icmp ne i64 %61, 0
  %63 = getelementptr inbounds %"class.dealii::internal::Triangulation::TriaLevel", ptr %42, i64 0, i32 4, i32 2
  %64 = load ptr, ptr %63, align 8, !tbaa !93
  %65 = getelementptr inbounds i64, ptr %64, i64 %55
  %66 = load i64, ptr %65, align 8, !tbaa !94
  %67 = and i64 %66, %59
  %68 = icmp ne i64 %67, 0
  %69 = getelementptr inbounds %"class.dealii::internal::Triangulation::TriaLevel", ptr %42, i64 0, i32 4, i32 3
  %70 = load ptr, ptr %69, align 8, !tbaa !93
  %71 = getelementptr inbounds i64, ptr %70, i64 %55
  %72 = load i64, ptr %71, align 8, !tbaa !94
  %73 = and i64 %72, %59
  %74 = icmp ne i64 %73, 0
  %75 = tail call noundef i32 @_ZN6dealii12GeometryInfoILi3EE28standard_to_real_face_vertexEjbbb(i32 noundef %30, i1 noundef zeroext %62, i1 noundef zeroext %68, i1 noundef zeroext %74)
  %76 = and i32 %75, 1
  %77 = getelementptr inbounds %"class.dealii::Triangulation", ptr %36, i64 0, i32 2
  %78 = load ptr, ptr %77, align 8, !tbaa !31
  %79 = sext i32 %49 to i64
  %80 = load ptr, ptr %78, align 8, !tbaa !88, !noalias !154
  %81 = getelementptr inbounds %"class.dealii::internal::Triangulation::TriaObject.151", ptr %80, i64 %79
  %82 = zext i32 %76 to i64
  %83 = getelementptr inbounds [4 x i32], ptr %81, i64 0, i64 %82
  %84 = load i32, ptr %83, align 4, !tbaa !65, !noalias !154
  %85 = getelementptr inbounds %"class.dealii::internal::Triangulation::TriaObjectsQuad3D", ptr %78, i64 0, i32 1
  %86 = shl i32 %49, 2
  %87 = load ptr, ptr %85, align 8, !tbaa !93
  %88 = lshr i32 %86, 6
  %89 = zext i32 %88 to i64
  %90 = getelementptr inbounds i64, ptr %87, i64 %89
  %91 = and i32 %86, 60
  %92 = or i32 %76, %91
  %93 = zext i32 %92 to i64
  %94 = load i64, ptr %90, align 8, !tbaa !94
  %95 = lshr i64 %94, %93
  %96 = and i64 %95, 1
  %97 = lshr i32 %75, 1
  %98 = zext i32 %97 to i64
  %99 = getelementptr inbounds [2 x [2 x i32]], ptr @_ZZN6dealii8internal12TriaAccessor14Implementation12vertex_indexILi3ELi3EEEjRKNS_12TriaAccessorILi2EXT_EXT0_EEEjE12switch_table, i64 0, i64 %96, i64 %98
  %100 = load i32, ptr %99, align 4, !tbaa !65
  %101 = getelementptr inbounds %"class.dealii::internal::Triangulation::TriaFaces", ptr %78, i64 0, i32 1
  %102 = sext i32 %84 to i64
  %103 = load ptr, ptr %101, align 8, !tbaa !61
  %104 = getelementptr inbounds %"class.dealii::internal::Triangulation::TriaObject", ptr %103, i64 %102
  %105 = zext i32 %100 to i64
  %106 = getelementptr inbounds [2 x i32], ptr %104, i64 0, i64 %105
  %107 = load i32, ptr %106, align 4, !tbaa !65
  %108 = zext i32 %107 to i64
  %109 = load ptr, ptr %35, align 8, !tbaa !63
  %110 = getelementptr inbounds %"class.dealii::MGDoFHandler<3>::MGVertexDoFs", ptr %109, i64 %108
  %111 = load ptr, ptr %5, align 8, !tbaa !116
  %112 = getelementptr inbounds %"class.dealii::DoFHandler", ptr %111, i64 0, i32 2
  %113 = load ptr, ptr %112, align 8, !tbaa !13
  %114 = getelementptr inbounds i8, ptr %113, i64 72
  %115 = load i32, ptr %114, align 8, !tbaa !15
  %116 = getelementptr inbounds %"class.dealii::MGDoFHandler<3>::MGVertexDoFs", ptr %109, i64 %108, i32 2
  %117 = load ptr, ptr %116, align 8, !tbaa !66
  %118 = load i32, ptr %110, align 8, !tbaa !68
  %119 = sub i32 %1, %118
  %120 = mul i32 %119, %115
  %121 = add i32 %120, %32
  %122 = zext i32 %121 to i64
  %123 = getelementptr inbounds i32, ptr %117, i64 %122
  %124 = load i32, ptr %123, align 4, !tbaa !65
  %125 = load ptr, ptr %23, align 8, !tbaa !77
  %126 = zext i32 %124 to i64
  %127 = getelementptr inbounds float, ptr %125, i64 %126
  %128 = load float, ptr %127, align 4, !tbaa !79
  %129 = getelementptr inbounds float, ptr %33, i64 1
  store float %128, ptr %33, align 4, !tbaa !79
  %130 = add nuw i32 %32, 1
  %131 = icmp eq i32 %130, %10
  br i1 %131, label %132, label %31

132:                                              ; preds = %31
  %133 = add nuw nsw i32 %25, 1
  %134 = icmp eq i32 %133, 8
  br i1 %134, label %135, label %24

135:                                              ; preds = %132, %4
  %136 = phi ptr [ %18, %4 ], [ %129, %132 ]
  %137 = icmp eq i32 %12, 0
  br i1 %137, label %217, label %138

138:                                              ; preds = %135, %214
  %139 = phi i64 [ %215, %214 ], [ 0, %135 ]
  %140 = phi ptr [ %211, %214 ], [ %136, %135 ]
  %141 = getelementptr inbounds [12 x [2 x i32]], ptr @_ZZN6dealii8internal12TriaAccessor14Implementation10line_indexILi3ELi3EEEjRKNS_12TriaAccessorILi3EXT_EXT0_EEEjE12lookup_table, i64 0, i64 %139
  %142 = load i32, ptr %141, align 8, !tbaa !65, !noalias !157
  %143 = getelementptr inbounds [12 x [2 x i32]], ptr @_ZZN6dealii8internal12TriaAccessor14Implementation10line_indexILi3ELi3EEEjRKNS_12TriaAccessorILi3EXT_EXT0_EEEjE12lookup_table, i64 0, i64 %139, i64 1
  %144 = load i32, ptr %143, align 4, !tbaa !65, !noalias !157
  %145 = zext i32 %142 to i64
  br label %146

146:                                              ; preds = %138, %146
  %147 = phi i32 [ 0, %138 ], [ %212, %146 ]
  %148 = phi ptr [ %140, %138 ], [ %211, %146 ]
  %149 = load ptr, ptr %21, align 8, !tbaa !125, !noalias !157
  %150 = getelementptr inbounds %"class.dealii::Triangulation", ptr %149, i64 0, i32 1
  %151 = load i32, ptr %0, align 8, !tbaa !126, !noalias !157
  %152 = sext i32 %151 to i64
  %153 = load ptr, ptr %150, align 8, !tbaa !127, !noalias !157
  %154 = getelementptr inbounds ptr, ptr %153, i64 %152
  %155 = load ptr, ptr %154, align 8, !tbaa !128, !noalias !157
  %156 = load i32, ptr %22, align 4, !tbaa !129, !noalias !157
  %157 = getelementptr inbounds %"class.dealii::internal::Triangulation::TriaLevel", ptr %155, i64 0, i32 4, i32 1
  %158 = mul i32 %156, 6
  %159 = add i32 %158, %142
  %160 = load ptr, ptr %157, align 8, !tbaa !93, !noalias !157
  %161 = lshr i32 %159, 6
  %162 = zext i32 %161 to i64
  %163 = getelementptr inbounds i64, ptr %160, i64 %162
  %164 = and i32 %159, 63
  %165 = zext i32 %164 to i64
  %166 = shl nuw i64 1, %165
  %167 = load i64, ptr %163, align 8, !tbaa !94, !noalias !157
  %168 = and i64 %166, %167
  %169 = icmp ne i64 %168, 0
  %170 = getelementptr inbounds %"class.dealii::internal::Triangulation::TriaLevel", ptr %155, i64 0, i32 4, i32 2
  %171 = load ptr, ptr %170, align 8, !tbaa !93, !noalias !157
  %172 = getelementptr inbounds i64, ptr %171, i64 %162
  %173 = load i64, ptr %172, align 8, !tbaa !94, !noalias !157
  %174 = and i64 %166, %173
  %175 = icmp ne i64 %174, 0
  %176 = getelementptr inbounds %"class.dealii::internal::Triangulation::TriaLevel", ptr %155, i64 0, i32 4, i32 3
  %177 = load ptr, ptr %176, align 8, !tbaa !93, !noalias !157
  %178 = getelementptr inbounds i64, ptr %177, i64 %162
  %179 = load i64, ptr %178, align 8, !tbaa !94, !noalias !157
  %180 = and i64 %179, %166
  %181 = icmp ne i64 %180, 0
  %182 = tail call noundef i32 @_ZN6dealii12GeometryInfoILi3EE26standard_to_real_face_lineEjbbb(i32 noundef %144, i1 noundef zeroext %169, i1 noundef zeroext %175, i1 noundef zeroext %181), !noalias !157
  %183 = load ptr, ptr %21, align 8, !tbaa !125, !noalias !160
  %184 = getelementptr inbounds %"class.dealii::Triangulation", ptr %183, i64 0, i32 1
  %185 = load i32, ptr %0, align 8, !tbaa !126, !noalias !160
  %186 = sext i32 %185 to i64
  %187 = load ptr, ptr %184, align 8, !tbaa !127, !noalias !160
  %188 = getelementptr inbounds ptr, ptr %187, i64 %186
  %189 = load ptr, ptr %188, align 8, !tbaa !128, !noalias !160
  %190 = getelementptr inbounds %"class.dealii::internal::Triangulation::TriaLevel", ptr %189, i64 0, i32 4
  %191 = load i32, ptr %22, align 4, !tbaa !129, !noalias !160
  %192 = sext i32 %191 to i64
  %193 = load ptr, ptr %190, align 8, !tbaa !130, !noalias !160
  %194 = getelementptr inbounds %"class.dealii::internal::Triangulation::TriaObject.177", ptr %193, i64 %192
  %195 = getelementptr inbounds [6 x i32], ptr %194, i64 0, i64 %145
  %196 = load i32, ptr %195, align 4, !tbaa !65, !noalias !160
  %197 = getelementptr inbounds %"class.dealii::Triangulation", ptr %183, i64 0, i32 2
  %198 = load ptr, ptr %197, align 8, !tbaa !31, !noalias !157
  %199 = sext i32 %196 to i64
  %200 = load ptr, ptr %198, align 8, !tbaa !88, !noalias !157
  %201 = getelementptr inbounds %"class.dealii::internal::Triangulation::TriaObject.151", ptr %200, i64 %199
  %202 = zext i32 %182 to i64
  %203 = getelementptr inbounds [4 x i32], ptr %201, i64 0, i64 %202
  %204 = load i32, ptr %203, align 4, !tbaa !65, !noalias !157
  %205 = load ptr, ptr %20, align 8, !tbaa !122, !noalias !157
  %206 = tail call noundef i32 @_ZNK6dealii12MGDoFHandlerILi3ELi3EE13get_dof_indexILi1EEEjjjjj(ptr noundef nonnull align 8 dereferenceable(248) %205, i32 noundef %1, i32 noundef %204, i32 noundef 0, i32 noundef %147)
  %207 = load ptr, ptr %23, align 8, !tbaa !77
  %208 = zext i32 %206 to i64
  %209 = getelementptr inbounds float, ptr %207, i64 %208
  %210 = load float, ptr %209, align 4, !tbaa !79
  %211 = getelementptr inbounds float, ptr %148, i64 1
  store float %210, ptr %148, align 4, !tbaa !79
  %212 = add nuw i32 %147, 1
  %213 = icmp eq i32 %212, %12
  br i1 %213, label %214, label %146

214:                                              ; preds = %146
  %215 = add nuw nsw i64 %139, 1
  %216 = icmp eq i64 %215, 12
  br i1 %216, label %217, label %138

217:                                              ; preds = %214, %135
  %218 = phi ptr [ %136, %135 ], [ %211, %214 ]
  %219 = icmp eq i32 %14, 0
  br i1 %219, label %370, label %220

220:                                              ; preds = %217, %220
  %221 = phi i32 [ %243, %220 ], [ 0, %217 ]
  %222 = phi ptr [ %242, %220 ], [ %218, %217 ]
  %223 = load ptr, ptr %21, align 8, !tbaa !125, !noalias !163
  %224 = getelementptr inbounds %"class.dealii::Triangulation", ptr %223, i64 0, i32 1
  %225 = load i32, ptr %0, align 8, !tbaa !126, !noalias !163
  %226 = sext i32 %225 to i64
  %227 = load ptr, ptr %224, align 8, !tbaa !127, !noalias !163
  %228 = getelementptr inbounds ptr, ptr %227, i64 %226
  %229 = load ptr, ptr %228, align 8, !tbaa !128, !noalias !163
  %230 = getelementptr inbounds %"class.dealii::internal::Triangulation::TriaLevel", ptr %229, i64 0, i32 4
  %231 = load i32, ptr %22, align 4, !tbaa !129, !noalias !163
  %232 = sext i32 %231 to i64
  %233 = load ptr, ptr %230, align 8, !tbaa !130, !noalias !163
  %234 = getelementptr inbounds %"class.dealii::internal::Triangulation::TriaObject.177", ptr %233, i64 %232
  %235 = load i32, ptr %234, align 4, !tbaa !65, !noalias !163
  %236 = load ptr, ptr %20, align 8, !tbaa !122, !noalias !163
  %237 = tail call noundef i32 @_ZNK6dealii12MGDoFHandlerILi3ELi3EE13get_dof_indexILi2EEEjjjjj(ptr noundef nonnull align 8 dereferenceable(248) %236, i32 noundef %1, i32 noundef %235, i32 noundef 0, i32 noundef %221)
  %238 = load ptr, ptr %23, align 8, !tbaa !77
  %239 = zext i32 %237 to i64
  %240 = getelementptr inbounds float, ptr %238, i64 %239
  %241 = load float, ptr %240, align 4, !tbaa !79
  %242 = getelementptr inbounds float, ptr %222, i64 1
  store float %241, ptr %222, align 4, !tbaa !79
  %243 = add nuw i32 %221, 1
  %244 = icmp eq i32 %243, %14
  br i1 %244, label %245, label %220

245:                                              ; preds = %220, %245
  %246 = phi i32 [ %268, %245 ], [ 0, %220 ]
  %247 = phi ptr [ %267, %245 ], [ %242, %220 ]
  %248 = load ptr, ptr %21, align 8, !tbaa !125, !noalias !163
  %249 = getelementptr inbounds %"class.dealii::Triangulation", ptr %248, i64 0, i32 1
  %250 = load i32, ptr %0, align 8, !tbaa !126, !noalias !163
  %251 = sext i32 %250 to i64
  %252 = load ptr, ptr %249, align 8, !tbaa !127, !noalias !163
  %253 = getelementptr inbounds ptr, ptr %252, i64 %251
  %254 = load ptr, ptr %253, align 8, !tbaa !128, !noalias !163
  %255 = getelementptr inbounds %"class.dealii::internal::Triangulation::TriaLevel", ptr %254, i64 0, i32 4
  %256 = load i32, ptr %22, align 4, !tbaa !129, !noalias !163
  %257 = sext i32 %256 to i64
  %258 = load ptr, ptr %255, align 8, !tbaa !130, !noalias !163
  %259 = getelementptr inbounds %"class.dealii::internal::Triangulation::TriaObject.177", ptr %258, i64 %257, i32 0, i64 1
  %260 = load i32, ptr %259, align 4, !tbaa !65, !noalias !163
  %261 = load ptr, ptr %20, align 8, !tbaa !122, !noalias !163
  %262 = tail call noundef i32 @_ZNK6dealii12MGDoFHandlerILi3ELi3EE13get_dof_indexILi2EEEjjjjj(ptr noundef nonnull align 8 dereferenceable(248) %261, i32 noundef %1, i32 noundef %260, i32 noundef 0, i32 noundef %246)
  %263 = load ptr, ptr %23, align 8, !tbaa !77
  %264 = zext i32 %262 to i64
  %265 = getelementptr inbounds float, ptr %263, i64 %264
  %266 = load float, ptr %265, align 4, !tbaa !79
  %267 = getelementptr inbounds float, ptr %247, i64 1
  store float %266, ptr %247, align 4, !tbaa !79
  %268 = add nuw i32 %246, 1
  %269 = icmp eq i32 %268, %14
  br i1 %269, label %270, label %245

270:                                              ; preds = %245, %270
  %271 = phi i32 [ %293, %270 ], [ 0, %245 ]
  %272 = phi ptr [ %292, %270 ], [ %267, %245 ]
  %273 = load ptr, ptr %21, align 8, !tbaa !125, !noalias !163
  %274 = getelementptr inbounds %"class.dealii::Triangulation", ptr %273, i64 0, i32 1
  %275 = load i32, ptr %0, align 8, !tbaa !126, !noalias !163
  %276 = sext i32 %275 to i64
  %277 = load ptr, ptr %274, align 8, !tbaa !127, !noalias !163
  %278 = getelementptr inbounds ptr, ptr %277, i64 %276
  %279 = load ptr, ptr %278, align 8, !tbaa !128, !noalias !163
  %280 = getelementptr inbounds %"class.dealii::internal::Triangulation::TriaLevel", ptr %279, i64 0, i32 4
  %281 = load i32, ptr %22, align 4, !tbaa !129, !noalias !163
  %282 = sext i32 %281 to i64
  %283 = load ptr, ptr %280, align 8, !tbaa !130, !noalias !163
  %284 = getelementptr inbounds %"class.dealii::internal::Triangulation::TriaObject.177", ptr %283, i64 %282, i32 0, i64 2
  %285 = load i32, ptr %284, align 4, !tbaa !65, !noalias !163
  %286 = load ptr, ptr %20, align 8, !tbaa !122, !noalias !163
  %287 = tail call noundef i32 @_ZNK6dealii12MGDoFHandlerILi3ELi3EE13get_dof_indexILi2EEEjjjjj(ptr noundef nonnull align 8 dereferenceable(248) %286, i32 noundef %1, i32 noundef %285, i32 noundef 0, i32 noundef %271)
  %288 = load ptr, ptr %23, align 8, !tbaa !77
  %289 = zext i32 %287 to i64
  %290 = getelementptr inbounds float, ptr %288, i64 %289
  %291 = load float, ptr %290, align 4, !tbaa !79
  %292 = getelementptr inbounds float, ptr %272, i64 1
  store float %291, ptr %272, align 4, !tbaa !79
  %293 = add nuw i32 %271, 1
  %294 = icmp eq i32 %293, %14
  br i1 %294, label %295, label %270

295:                                              ; preds = %270, %295
  %296 = phi i32 [ %318, %295 ], [ 0, %270 ]
  %297 = phi ptr [ %317, %295 ], [ %292, %270 ]
  %298 = load ptr, ptr %21, align 8, !tbaa !125, !noalias !163
  %299 = getelementptr inbounds %"class.dealii::Triangulation", ptr %298, i64 0, i32 1
  %300 = load i32, ptr %0, align 8, !tbaa !126, !noalias !163
  %301 = sext i32 %300 to i64
  %302 = load ptr, ptr %299, align 8, !tbaa !127, !noalias !163
  %303 = getelementptr inbounds ptr, ptr %302, i64 %301
  %304 = load ptr, ptr %303, align 8, !tbaa !128, !noalias !163
  %305 = getelementptr inbounds %"class.dealii::internal::Triangulation::TriaLevel", ptr %304, i64 0, i32 4
  %306 = load i32, ptr %22, align 4, !tbaa !129, !noalias !163
  %307 = sext i32 %306 to i64
  %308 = load ptr, ptr %305, align 8, !tbaa !130, !noalias !163
  %309 = getelementptr inbounds %"class.dealii::internal::Triangulation::TriaObject.177", ptr %308, i64 %307, i32 0, i64 3
  %310 = load i32, ptr %309, align 4, !tbaa !65, !noalias !163
  %311 = load ptr, ptr %20, align 8, !tbaa !122, !noalias !163
  %312 = tail call noundef i32 @_ZNK6dealii12MGDoFHandlerILi3ELi3EE13get_dof_indexILi2EEEjjjjj(ptr noundef nonnull align 8 dereferenceable(248) %311, i32 noundef %1, i32 noundef %310, i32 noundef 0, i32 noundef %296)
  %313 = load ptr, ptr %23, align 8, !tbaa !77
  %314 = zext i32 %312 to i64
  %315 = getelementptr inbounds float, ptr %313, i64 %314
  %316 = load float, ptr %315, align 4, !tbaa !79
  %317 = getelementptr inbounds float, ptr %297, i64 1
  store float %316, ptr %297, align 4, !tbaa !79
  %318 = add nuw i32 %296, 1
  %319 = icmp eq i32 %318, %14
  br i1 %319, label %320, label %295

320:                                              ; preds = %295, %320
  %321 = phi i32 [ %343, %320 ], [ 0, %295 ]
  %322 = phi ptr [ %342, %320 ], [ %317, %295 ]
  %323 = load ptr, ptr %21, align 8, !tbaa !125, !noalias !163
  %324 = getelementptr inbounds %"class.dealii::Triangulation", ptr %323, i64 0, i32 1
  %325 = load i32, ptr %0, align 8, !tbaa !126, !noalias !163
  %326 = sext i32 %325 to i64
  %327 = load ptr, ptr %324, align 8, !tbaa !127, !noalias !163
  %328 = getelementptr inbounds ptr, ptr %327, i64 %326
  %329 = load ptr, ptr %328, align 8, !tbaa !128, !noalias !163
  %330 = getelementptr inbounds %"class.dealii::internal::Triangulation::TriaLevel", ptr %329, i64 0, i32 4
  %331 = load i32, ptr %22, align 4, !tbaa !129, !noalias !163
  %332 = sext i32 %331 to i64
  %333 = load ptr, ptr %330, align 8, !tbaa !130, !noalias !163
  %334 = getelementptr inbounds %"class.dealii::internal::Triangulation::TriaObject.177", ptr %333, i64 %332, i32 0, i64 4
  %335 = load i32, ptr %334, align 4, !tbaa !65, !noalias !163
  %336 = load ptr, ptr %20, align 8, !tbaa !122, !noalias !163
  %337 = tail call noundef i32 @_ZNK6dealii12MGDoFHandlerILi3ELi3EE13get_dof_indexILi2EEEjjjjj(ptr noundef nonnull align 8 dereferenceable(248) %336, i32 noundef %1, i32 noundef %335, i32 noundef 0, i32 noundef %321)
  %338 = load ptr, ptr %23, align 8, !tbaa !77
  %339 = zext i32 %337 to i64
  %340 = getelementptr inbounds float, ptr %338, i64 %339
  %341 = load float, ptr %340, align 4, !tbaa !79
  %342 = getelementptr inbounds float, ptr %322, i64 1
  store float %341, ptr %322, align 4, !tbaa !79
  %343 = add nuw i32 %321, 1
  %344 = icmp eq i32 %343, %14
  br i1 %344, label %345, label %320

345:                                              ; preds = %320, %345
  %346 = phi i32 [ %368, %345 ], [ 0, %320 ]
  %347 = phi ptr [ %367, %345 ], [ %342, %320 ]
  %348 = load ptr, ptr %21, align 8, !tbaa !125, !noalias !163
  %349 = getelementptr inbounds %"class.dealii::Triangulation", ptr %348, i64 0, i32 1
  %350 = load i32, ptr %0, align 8, !tbaa !126, !noalias !163
  %351 = sext i32 %350 to i64
  %352 = load ptr, ptr %349, align 8, !tbaa !127, !noalias !163
  %353 = getelementptr inbounds ptr, ptr %352, i64 %351
  %354 = load ptr, ptr %353, align 8, !tbaa !128, !noalias !163
  %355 = getelementptr inbounds %"class.dealii::internal::Triangulation::TriaLevel", ptr %354, i64 0, i32 4
  %356 = load i32, ptr %22, align 4, !tbaa !129, !noalias !163
  %357 = sext i32 %356 to i64
  %358 = load ptr, ptr %355, align 8, !tbaa !130, !noalias !163
  %359 = getelementptr inbounds %"class.dealii::internal::Triangulation::TriaObject.177", ptr %358, i64 %357, i32 0, i64 5
  %360 = load i32, ptr %359, align 4, !tbaa !65, !noalias !163
  %361 = load ptr, ptr %20, align 8, !tbaa !122, !noalias !163
  %362 = tail call noundef i32 @_ZNK6dealii12MGDoFHandlerILi3ELi3EE13get_dof_indexILi2EEEjjjjj(ptr noundef nonnull align 8 dereferenceable(248) %361, i32 noundef %1, i32 noundef %360, i32 noundef 0, i32 noundef %346)
  %363 = load ptr, ptr %23, align 8, !tbaa !77
  %364 = zext i32 %362 to i64
  %365 = getelementptr inbounds float, ptr %363, i64 %364
  %366 = load float, ptr %365, align 4, !tbaa !79
  %367 = getelementptr inbounds float, ptr %347, i64 1
  store float %366, ptr %347, align 4, !tbaa !79
  %368 = add nuw i32 %346, 1
  %369 = icmp eq i32 %368, %14
  br i1 %369, label %370, label %345

370:                                              ; preds = %345, %217
  %371 = phi ptr [ %218, %217 ], [ %367, %345 ]
  %372 = icmp eq i32 %16, 0
  br i1 %372, label %415, label %373

373:                                              ; preds = %370
  %374 = load ptr, ptr %5, align 8, !tbaa !116
  %375 = load i32, ptr %0, align 8, !tbaa !126
  %376 = load i32, ptr %22, align 4, !tbaa !129
  %377 = getelementptr inbounds %"class.dealii::DoFHandler", ptr %374, i64 0, i32 3
  %378 = zext i32 %375 to i64
  %379 = load ptr, ptr %377, align 8, !tbaa !147
  %380 = getelementptr inbounds ptr, ptr %379, i64 %378
  %381 = load ptr, ptr %380, align 8, !tbaa !128
  %382 = getelementptr inbounds %"class.dealii::internal::DoFHandler::DoFLevel", ptr %381, i64 0, i32 1
  %383 = getelementptr inbounds %"class.dealii::DoFHandler", ptr %374, i64 0, i32 2
  %384 = load ptr, ptr %383, align 8, !tbaa !13
  %385 = getelementptr inbounds i8, ptr %384, i64 84
  %386 = load i32, ptr %385, align 4, !tbaa !121
  %387 = mul i32 %386, %376
  %388 = load ptr, ptr %382, align 8, !tbaa !149
  %389 = load ptr, ptr %23, align 8, !tbaa !77
  %390 = zext i32 %16 to i64
  %391 = and i64 %390, 3
  %392 = icmp ult i32 %16, 4
  br i1 %392, label %395, label %393

393:                                              ; preds = %373
  %394 = and i64 %390, 4294967292
  br label %416

395:                                              ; preds = %416, %373
  %396 = phi i64 [ 0, %373 ], [ %459, %416 ]
  %397 = phi ptr [ %371, %373 ], [ %458, %416 ]
  %398 = icmp eq i64 %391, 0
  br i1 %398, label %415, label %399

399:                                              ; preds = %395, %399
  %400 = phi i64 [ %412, %399 ], [ %396, %395 ]
  %401 = phi ptr [ %411, %399 ], [ %397, %395 ]
  %402 = phi i64 [ %413, %399 ], [ 0, %395 ]
  %403 = trunc i64 %400 to i32
  %404 = add i32 %387, %403
  %405 = zext i32 %404 to i64
  %406 = getelementptr inbounds i32, ptr %388, i64 %405
  %407 = load i32, ptr %406, align 4, !tbaa !65
  %408 = zext i32 %407 to i64
  %409 = getelementptr inbounds float, ptr %389, i64 %408
  %410 = load float, ptr %409, align 4, !tbaa !79
  %411 = getelementptr inbounds float, ptr %401, i64 1
  store float %410, ptr %401, align 4, !tbaa !79
  %412 = add nuw nsw i64 %400, 1
  %413 = add i64 %402, 1
  %414 = icmp eq i64 %413, %391
  br i1 %414, label %415, label %399, !llvm.loop !166

415:                                              ; preds = %395, %399, %370
  ret void

416:                                              ; preds = %416, %393
  %417 = phi i64 [ 0, %393 ], [ %459, %416 ]
  %418 = phi ptr [ %371, %393 ], [ %458, %416 ]
  %419 = phi i64 [ 0, %393 ], [ %460, %416 ]
  %420 = trunc i64 %417 to i32
  %421 = add i32 %387, %420
  %422 = zext i32 %421 to i64
  %423 = getelementptr inbounds i32, ptr %388, i64 %422
  %424 = load i32, ptr %423, align 4, !tbaa !65
  %425 = zext i32 %424 to i64
  %426 = getelementptr inbounds float, ptr %389, i64 %425
  %427 = load float, ptr %426, align 4, !tbaa !79
  %428 = getelementptr inbounds float, ptr %418, i64 1
  store float %427, ptr %418, align 4, !tbaa !79
  %429 = trunc i64 %417 to i32
  %430 = or i32 %429, 1
  %431 = add i32 %387, %430
  %432 = zext i32 %431 to i64
  %433 = getelementptr inbounds i32, ptr %388, i64 %432
  %434 = load i32, ptr %433, align 4, !tbaa !65
  %435 = zext i32 %434 to i64
  %436 = getelementptr inbounds float, ptr %389, i64 %435
  %437 = load float, ptr %436, align 4, !tbaa !79
  %438 = getelementptr inbounds float, ptr %418, i64 2
  store float %437, ptr %428, align 4, !tbaa !79
  %439 = trunc i64 %417 to i32
  %440 = or i32 %439, 2
  %441 = add i32 %387, %440
  %442 = zext i32 %441 to i64
  %443 = getelementptr inbounds i32, ptr %388, i64 %442
  %444 = load i32, ptr %443, align 4, !tbaa !65
  %445 = zext i32 %444 to i64
  %446 = getelementptr inbounds float, ptr %389, i64 %445
  %447 = load float, ptr %446, align 4, !tbaa !79
  %448 = getelementptr inbounds float, ptr %418, i64 3
  store float %447, ptr %438, align 4, !tbaa !79
  %449 = trunc i64 %417 to i32
  %450 = or i32 %449, 3
  %451 = add i32 %387, %450
  %452 = zext i32 %451 to i64
  %453 = getelementptr inbounds i32, ptr %388, i64 %452
  %454 = load i32, ptr %453, align 4, !tbaa !65
  %455 = zext i32 %454 to i64
  %456 = getelementptr inbounds float, ptr %389, i64 %455
  %457 = load float, ptr %456, align 4, !tbaa !79
  %458 = getelementptr inbounds float, ptr %418, i64 4
  store float %457, ptr %448, align 4, !tbaa !79
  %459 = add nuw nsw i64 %417, 4
  %460 = add i64 %419, 4
  %461 = icmp eq i64 %460, %394
  br i1 %461, label %395, label %416
}

; Function Attrs: sspstrong uwtable
define weak_odr dso_local void @_ZNK6dealii17MGDoFCellAccessorILi3ELi3EE17get_mg_dof_valuesIdEEvRKNS_6VectorIT_EERS5_(ptr noundef nonnull align 8 dereferenceable(32) %0, ptr noundef nonnull align 1 %1, ptr noundef nonnull align 1 %2) local_unnamed_addr #0 comdat align 2 {
  %4 = load i32, ptr %0, align 8, !tbaa !126
  tail call void @_ZN6dealii8internal13MGDoFAccessor17get_mg_dof_valuesILi3ELi3EdEEvRKNS_13MGDoFAccessorILi3EXT_EXT0_EEEiRKNS_6VectorIT1_EERS9_(ptr noundef nonnull align 8 dereferenceable(32) %0, i32 noundef %4, ptr noundef nonnull align 1 %1, ptr noundef nonnull align 1 %2)
  ret void
}

; Function Attrs: sspstrong uwtable
define weak_odr dso_local void @_ZNK6dealii17MGDoFCellAccessorILi3ELi3EE17get_mg_dof_valuesIfEEvRKNS_6VectorIT_EERS5_(ptr noundef nonnull align 8 dereferenceable(32) %0, ptr noundef nonnull align 1 %1, ptr noundef nonnull align 1 %2) local_unnamed_addr #0 comdat align 2 {
  %4 = load i32, ptr %0, align 8, !tbaa !126
  tail call void @_ZN6dealii8internal13MGDoFAccessor17get_mg_dof_valuesILi3ELi3EfEEvRKNS_13MGDoFAccessorILi3EXT_EXT0_EEEiRKNS_6VectorIT1_EERS9_(ptr noundef nonnull align 8 dereferenceable(32) %0, i32 noundef %4, ptr noundef nonnull align 1 %1, ptr noundef nonnull align 1 %2)
  ret void
}

; Function Attrs: sspstrong uwtable
define weak_odr dso_local void @_ZN6dealii13MGDoFAccessorILi1ELi3ELi3EEC2Ev(ptr noundef nonnull align 8 dereferenceable(32) %0) unnamed_addr #0 comdat($_ZN6dealii13MGDoFAccessorILi1ELi3ELi3EEC5Ev) align 2 {
  store i32 -1, ptr %0, align 8, !tbaa !76
  %2 = getelementptr inbounds %"class.dealii::TriaAccessorBase", ptr %0, i64 0, i32 1
  tail call void @llvm.memset.p0.i64(ptr noundef nonnull align 8 dereferenceable(16) %2, i8 0, i64 16, i1 false)
  ret void
}

; Function Attrs: sspstrong uwtable
define weak_odr dso_local void @_ZN6dealii13MGDoFAccessorILi1ELi3ELi3EEC2EPKNS_13TriangulationILi3ELi3EEEiiPKNS_12MGDoFHandlerILi3ELi3EEE(ptr noundef nonnull align 8 dereferenceable(32) %0, ptr noundef %1, i32 noundef %2, i32 noundef %3, ptr noundef %4) unnamed_addr #0 comdat($_ZN6dealii13MGDoFAccessorILi1ELi3ELi3EEC5EPKNS_13TriangulationILi3ELi3EEEiiPKNS_12MGDoFHandlerILi3ELi3EEE) align 2 {
  store i32 %3, ptr %0, align 8, !tbaa !76
  %6 = getelementptr inbounds %"class.dealii::TriaAccessorBase", ptr %0, i64 0, i32 1
  store ptr %1, ptr %6, align 8, !tbaa !167
  %7 = getelementptr inbounds %"class.dealii::DoFAccessor", ptr %0, i64 0, i32 1
  store ptr %4, ptr %7, align 8, !tbaa !5
  %8 = getelementptr inbounds %"class.dealii::MGDoFAccessor", ptr %0, i64 0, i32 1
  store ptr %4, ptr %8, align 8, !tbaa !74
  ret void
}

; Function Attrs: sspstrong uwtable
define weak_odr dso_local void @_ZNK6dealii13MGDoFAccessorILi1ELi3ELi3EE18get_mg_dof_indicesEiRSt6vectorIjSaIjEE(ptr noundef nonnull align 8 dereferenceable(32) %0, i32 noundef %1, ptr noundef nonnull align 8 dereferenceable(24) %2) local_unnamed_addr #0 comdat align 2 {
  tail call void @_ZN6dealii8internal13MGDoFAccessor18get_mg_dof_indicesILi3ELi3EEEvRKNS_13MGDoFAccessorILi1EXT_EXT0_EEEiRSt6vectorIjSaIjEE(ptr noundef nonnull align 8 dereferenceable(32) %0, i32 noundef %1, ptr noundef nonnull align 8 dereferenceable(24) %2)
  ret void
}

; Function Attrs: sspstrong uwtable
define linkonce_odr dso_local void @_ZN6dealii8internal13MGDoFAccessor18get_mg_dof_indicesILi3ELi3EEEvRKNS_13MGDoFAccessorILi1EXT_EXT0_EEEiRSt6vectorIjSaIjEE(ptr noundef nonnull align 8 dereferenceable(32) %0, i32 noundef %1, ptr noundef nonnull align 8 dereferenceable(24) %2) local_unnamed_addr #0 comdat {
  %4 = getelementptr inbounds %"class.dealii::DoFAccessor", ptr %0, i64 0, i32 1
  %5 = load ptr, ptr %4, align 8, !tbaa !5
  %6 = getelementptr inbounds %"class.dealii::DoFHandler", ptr %5, i64 0, i32 2
  %7 = load ptr, ptr %6, align 8, !tbaa !13
  %8 = getelementptr inbounds i8, ptr %7, i64 72
  %9 = load i32, ptr %8, align 8, !tbaa !15
  %10 = getelementptr inbounds i8, ptr %7, i64 76
  %11 = load i32, ptr %10, align 4, !tbaa !18
  %12 = load ptr, ptr %2, align 8, !tbaa !128
  %13 = icmp eq i32 %9, 0
  br i1 %13, label %167, label %14

14:                                               ; preds = %3
  %15 = getelementptr inbounds %"class.dealii::TriaAccessorBase", ptr %0, i64 0, i32 1
  %16 = load ptr, ptr %15, align 8
  %17 = getelementptr inbounds %"class.dealii::Triangulation", ptr %16, i64 0, i32 2
  %18 = getelementptr inbounds %"class.dealii::MGDoFAccessor", ptr %0, i64 0, i32 1
  %19 = load ptr, ptr %18, align 8
  %20 = getelementptr inbounds %"class.dealii::MGDoFHandler", ptr %19, i64 0, i32 3
  %21 = load ptr, ptr %17, align 8, !tbaa !31
  %22 = getelementptr inbounds %"class.dealii::internal::Triangulation::TriaFaces", ptr %21, i64 0, i32 1
  %23 = load ptr, ptr %22, align 8, !tbaa !61
  %24 = load ptr, ptr %20, align 8, !tbaa !63
  %25 = add i32 %9, -1
  %26 = and i32 %9, 1
  %27 = icmp eq i32 %25, 0
  br i1 %27, label %72, label %28

28:                                               ; preds = %14
  %29 = and i32 %9, -2
  br label %30

30:                                               ; preds = %30, %28
  %31 = phi i32 [ 0, %28 ], [ %69, %30 ]
  %32 = phi ptr [ %12, %28 ], [ %68, %30 ]
  %33 = phi i32 [ 0, %28 ], [ %70, %30 ]
  %34 = load i32, ptr %0, align 8, !tbaa !76
  %35 = sext i32 %34 to i64
  %36 = getelementptr %"class.dealii::internal::Triangulation::TriaObject", ptr %23, i64 %35
  %37 = load i32, ptr %36, align 4, !tbaa !65
  %38 = zext i32 %37 to i64
  %39 = getelementptr inbounds %"class.dealii::MGDoFHandler<3>::MGVertexDoFs", ptr %24, i64 %38
  %40 = load i32, ptr %8, align 8, !tbaa !15
  %41 = getelementptr inbounds %"class.dealii::MGDoFHandler<3>::MGVertexDoFs", ptr %24, i64 %38, i32 2
  %42 = load ptr, ptr %41, align 8, !tbaa !66
  %43 = load i32, ptr %39, align 8, !tbaa !68
  %44 = sub i32 %1, %43
  %45 = mul i32 %44, %40
  %46 = add i32 %45, %31
  %47 = zext i32 %46 to i64
  %48 = getelementptr inbounds i32, ptr %42, i64 %47
  %49 = load i32, ptr %48, align 4, !tbaa !65
  %50 = getelementptr inbounds i32, ptr %32, i64 1
  store i32 %49, ptr %32, align 4, !tbaa !65
  %51 = or i32 %31, 1
  %52 = load i32, ptr %0, align 8, !tbaa !76
  %53 = sext i32 %52 to i64
  %54 = getelementptr %"class.dealii::internal::Triangulation::TriaObject", ptr %23, i64 %53
  %55 = load i32, ptr %54, align 4, !tbaa !65
  %56 = zext i32 %55 to i64
  %57 = getelementptr inbounds %"class.dealii::MGDoFHandler<3>::MGVertexDoFs", ptr %24, i64 %56
  %58 = load i32, ptr %8, align 8, !tbaa !15
  %59 = getelementptr inbounds %"class.dealii::MGDoFHandler<3>::MGVertexDoFs", ptr %24, i64 %56, i32 2
  %60 = load ptr, ptr %59, align 8, !tbaa !66
  %61 = load i32, ptr %57, align 8, !tbaa !68
  %62 = sub i32 %1, %61
  %63 = mul i32 %62, %58
  %64 = add i32 %63, %51
  %65 = zext i32 %64 to i64
  %66 = getelementptr inbounds i32, ptr %60, i64 %65
  %67 = load i32, ptr %66, align 4, !tbaa !65
  %68 = getelementptr inbounds i32, ptr %32, i64 2
  store i32 %67, ptr %50, align 4, !tbaa !65
  %69 = add nuw i32 %31, 2
  %70 = add i32 %33, 2
  %71 = icmp eq i32 %70, %29
  br i1 %71, label %72, label %30

72:                                               ; preds = %30, %14
  %73 = phi ptr [ undef, %14 ], [ %68, %30 ]
  %74 = phi i32 [ 0, %14 ], [ %69, %30 ]
  %75 = phi ptr [ %12, %14 ], [ %68, %30 ]
  %76 = icmp eq i32 %26, 0
  br i1 %76, label %95, label %77

77:                                               ; preds = %72
  %78 = load i32, ptr %0, align 8, !tbaa !76
  %79 = sext i32 %78 to i64
  %80 = getelementptr %"class.dealii::internal::Triangulation::TriaObject", ptr %23, i64 %79
  %81 = load i32, ptr %80, align 4, !tbaa !65
  %82 = zext i32 %81 to i64
  %83 = getelementptr inbounds %"class.dealii::MGDoFHandler<3>::MGVertexDoFs", ptr %24, i64 %82
  %84 = load i32, ptr %8, align 8, !tbaa !15
  %85 = getelementptr inbounds %"class.dealii::MGDoFHandler<3>::MGVertexDoFs", ptr %24, i64 %82, i32 2
  %86 = load ptr, ptr %85, align 8, !tbaa !66
  %87 = load i32, ptr %83, align 8, !tbaa !68
  %88 = sub i32 %1, %87
  %89 = mul i32 %88, %84
  %90 = add i32 %89, %74
  %91 = zext i32 %90 to i64
  %92 = getelementptr inbounds i32, ptr %86, i64 %91
  %93 = load i32, ptr %92, align 4, !tbaa !65
  %94 = getelementptr inbounds i32, ptr %75, i64 1
  store i32 %93, ptr %75, align 4, !tbaa !65
  br label %95

95:                                               ; preds = %72, %77
  %96 = phi ptr [ %73, %72 ], [ %94, %77 ]
  %97 = getelementptr [2 x i32], ptr %23, i64 0, i64 1
  %98 = and i32 %9, 1
  %99 = icmp eq i32 %25, 0
  br i1 %99, label %144, label %100

100:                                              ; preds = %95
  %101 = and i32 %9, -2
  br label %102

102:                                              ; preds = %102, %100
  %103 = phi i32 [ 0, %100 ], [ %141, %102 ]
  %104 = phi ptr [ %96, %100 ], [ %140, %102 ]
  %105 = phi i32 [ 0, %100 ], [ %142, %102 ]
  %106 = load i32, ptr %0, align 8, !tbaa !76
  %107 = sext i32 %106 to i64
  %108 = getelementptr %"class.dealii::internal::Triangulation::TriaObject", ptr %97, i64 %107
  %109 = load i32, ptr %108, align 4, !tbaa !65
  %110 = zext i32 %109 to i64
  %111 = getelementptr inbounds %"class.dealii::MGDoFHandler<3>::MGVertexDoFs", ptr %24, i64 %110
  %112 = load i32, ptr %8, align 8, !tbaa !15
  %113 = getelementptr inbounds %"class.dealii::MGDoFHandler<3>::MGVertexDoFs", ptr %24, i64 %110, i32 2
  %114 = load ptr, ptr %113, align 8, !tbaa !66
  %115 = load i32, ptr %111, align 8, !tbaa !68
  %116 = sub i32 %1, %115
  %117 = mul i32 %116, %112
  %118 = add i32 %117, %103
  %119 = zext i32 %118 to i64
  %120 = getelementptr inbounds i32, ptr %114, i64 %119
  %121 = load i32, ptr %120, align 4, !tbaa !65
  %122 = getelementptr inbounds i32, ptr %104, i64 1
  store i32 %121, ptr %104, align 4, !tbaa !65
  %123 = or i32 %103, 1
  %124 = load i32, ptr %0, align 8, !tbaa !76
  %125 = sext i32 %124 to i64
  %126 = getelementptr %"class.dealii::internal::Triangulation::TriaObject", ptr %97, i64 %125
  %127 = load i32, ptr %126, align 4, !tbaa !65
  %128 = zext i32 %127 to i64
  %129 = getelementptr inbounds %"class.dealii::MGDoFHandler<3>::MGVertexDoFs", ptr %24, i64 %128
  %130 = load i32, ptr %8, align 8, !tbaa !15
  %131 = getelementptr inbounds %"class.dealii::MGDoFHandler<3>::MGVertexDoFs", ptr %24, i64 %128, i32 2
  %132 = load ptr, ptr %131, align 8, !tbaa !66
  %133 = load i32, ptr %129, align 8, !tbaa !68
  %134 = sub i32 %1, %133
  %135 = mul i32 %134, %130
  %136 = add i32 %135, %123
  %137 = zext i32 %136 to i64
  %138 = getelementptr inbounds i32, ptr %132, i64 %137
  %139 = load i32, ptr %138, align 4, !tbaa !65
  %140 = getelementptr inbounds i32, ptr %104, i64 2
  store i32 %139, ptr %122, align 4, !tbaa !65
  %141 = add nuw i32 %103, 2
  %142 = add i32 %105, 2
  %143 = icmp eq i32 %142, %101
  br i1 %143, label %144, label %102

144:                                              ; preds = %102, %95
  %145 = phi ptr [ undef, %95 ], [ %140, %102 ]
  %146 = phi i32 [ 0, %95 ], [ %141, %102 ]
  %147 = phi ptr [ %96, %95 ], [ %140, %102 ]
  %148 = icmp eq i32 %98, 0
  br i1 %148, label %167, label %149

149:                                              ; preds = %144
  %150 = load i32, ptr %0, align 8, !tbaa !76
  %151 = sext i32 %150 to i64
  %152 = getelementptr %"class.dealii::internal::Triangulation::TriaObject", ptr %97, i64 %151
  %153 = load i32, ptr %152, align 4, !tbaa !65
  %154 = zext i32 %153 to i64
  %155 = getelementptr inbounds %"class.dealii::MGDoFHandler<3>::MGVertexDoFs", ptr %24, i64 %154
  %156 = load i32, ptr %8, align 8, !tbaa !15
  %157 = getelementptr inbounds %"class.dealii::MGDoFHandler<3>::MGVertexDoFs", ptr %24, i64 %154, i32 2
  %158 = load ptr, ptr %157, align 8, !tbaa !66
  %159 = load i32, ptr %155, align 8, !tbaa !68
  %160 = sub i32 %1, %159
  %161 = mul i32 %160, %156
  %162 = add i32 %161, %146
  %163 = zext i32 %162 to i64
  %164 = getelementptr inbounds i32, ptr %158, i64 %163
  %165 = load i32, ptr %164, align 4, !tbaa !65
  %166 = getelementptr inbounds i32, ptr %147, i64 1
  store i32 %165, ptr %147, align 4, !tbaa !65
  br label %167

167:                                              ; preds = %149, %144, %3
  %168 = phi ptr [ %12, %3 ], [ %145, %144 ], [ %166, %149 ]
  %169 = icmp eq i32 %11, 0
  br i1 %169, label %172, label %170

170:                                              ; preds = %167
  %171 = getelementptr inbounds %"class.dealii::MGDoFAccessor", ptr %0, i64 0, i32 1
  br label %173

172:                                              ; preds = %173, %167
  ret void

173:                                              ; preds = %170, %173
  %174 = phi i32 [ 0, %170 ], [ %180, %173 ]
  %175 = phi ptr [ %168, %170 ], [ %179, %173 ]
  %176 = load ptr, ptr %171, align 8, !tbaa !74
  %177 = load i32, ptr %0, align 8, !tbaa !76
  %178 = tail call noundef i32 @_ZNK6dealii12MGDoFHandlerILi3ELi3EE13get_dof_indexILi1EEEjjjjj(ptr noundef nonnull align 8 dereferenceable(248) %176, i32 noundef %1, i32 noundef %177, i32 noundef 0, i32 noundef %174)
  %179 = getelementptr inbounds i32, ptr %175, i64 1
  store i32 %178, ptr %175, align 4, !tbaa !65
  %180 = add nuw i32 %174, 1
  %181 = icmp eq i32 %180, %11
  br i1 %181, label %172, label %173
}

; Function Attrs: sspstrong uwtable
define weak_odr dso_local noundef i32 @_ZNK6dealii13MGDoFAccessorILi1ELi3ELi3EE19mg_vertex_dof_indexEijj(ptr noundef nonnull align 8 dereferenceable(32) %0, i32 noundef %1, i32 noundef %2, i32 noundef %3) local_unnamed_addr #0 comdat align 2 {
  %5 = getelementptr inbounds %"class.dealii::MGDoFAccessor", ptr %0, i64 0, i32 1
  %6 = load ptr, ptr %5, align 8, !tbaa !74
  %7 = getelementptr inbounds %"class.dealii::MGDoFHandler", ptr %6, i64 0, i32 3
  %8 = getelementptr inbounds %"class.dealii::TriaAccessorBase", ptr %0, i64 0, i32 1
  %9 = load ptr, ptr %8, align 8, !tbaa !167
  %10 = getelementptr inbounds %"class.dealii::Triangulation", ptr %9, i64 0, i32 2
  %11 = load ptr, ptr %10, align 8, !tbaa !31
  %12 = getelementptr inbounds %"class.dealii::internal::Triangulation::TriaFaces", ptr %11, i64 0, i32 1
  %13 = load i32, ptr %0, align 8, !tbaa !76
  %14 = sext i32 %13 to i64
  %15 = load ptr, ptr %12, align 8, !tbaa !61
  %16 = getelementptr inbounds %"class.dealii::internal::Triangulation::TriaObject", ptr %15, i64 %14
  %17 = zext i32 %2 to i64
  %18 = getelementptr inbounds [2 x i32], ptr %16, i64 0, i64 %17
  %19 = load i32, ptr %18, align 4, !tbaa !65
  %20 = zext i32 %19 to i64
  %21 = load ptr, ptr %7, align 8, !tbaa !63
  %22 = getelementptr inbounds %"class.dealii::MGDoFHandler<3>::MGVertexDoFs", ptr %21, i64 %20
  %23 = getelementptr inbounds %"class.dealii::DoFAccessor", ptr %0, i64 0, i32 1
  %24 = load ptr, ptr %23, align 8, !tbaa !5
  %25 = getelementptr inbounds %"class.dealii::DoFHandler", ptr %24, i64 0, i32 2
  %26 = load ptr, ptr %25, align 8, !tbaa !13
  %27 = getelementptr inbounds i8, ptr %26, i64 72
  %28 = load i32, ptr %27, align 8, !tbaa !15
  %29 = getelementptr inbounds %"class.dealii::MGDoFHandler<3>::MGVertexDoFs", ptr %21, i64 %20, i32 2
  %30 = load ptr, ptr %29, align 8, !tbaa !66
  %31 = load i32, ptr %22, align 8, !tbaa !68
  %32 = sub i32 %1, %31
  %33 = mul i32 %32, %28
  %34 = add i32 %33, %3
  %35 = zext i32 %34 to i64
  %36 = getelementptr inbounds i32, ptr %30, i64 %35
  %37 = load i32, ptr %36, align 4, !tbaa !65
  ret i32 %37
}

; Function Attrs: sspstrong uwtable
define weak_odr dso_local noundef i32 @_ZNK6dealii13MGDoFAccessorILi1ELi3ELi3EE12mg_dof_indexEij(ptr noundef nonnull align 8 dereferenceable(32) %0, i32 noundef %1, i32 noundef %2) local_unnamed_addr #0 comdat align 2 {
  %4 = getelementptr inbounds %"class.dealii::MGDoFAccessor", ptr %0, i64 0, i32 1
  %5 = load ptr, ptr %4, align 8, !tbaa !74
  %6 = load i32, ptr %0, align 8, !tbaa !76
  %7 = tail call noundef i32 @_ZNK6dealii12MGDoFHandlerILi3ELi3EE13get_dof_indexILi1EEEjjjjj(ptr noundef nonnull align 8 dereferenceable(248) %5, i32 noundef %1, i32 noundef %6, i32 noundef 0, i32 noundef %2)
  ret i32 %7
}

declare noundef i32 @_ZNK6dealii12MGDoFHandlerILi3ELi3EE13get_dof_indexILi1EEEjjjjj(ptr noundef nonnull align 8 dereferenceable(248), i32 noundef, i32 noundef, i32 noundef, i32 noundef) local_unnamed_addr #1

; Function Attrs: sspstrong uwtable
define weak_odr dso_local void @_ZNK6dealii13MGDoFAccessorILi1ELi3ELi3EE5childEj(ptr noalias sret(%"class.dealii::TriaIterator") align 8 %0, ptr noundef nonnull align 8 dereferenceable(32) %1, i32 noundef %2) local_unnamed_addr #0 comdat align 2 {
  %4 = getelementptr inbounds %"class.dealii::TriaAccessorBase", ptr %1, i64 0, i32 1
  %5 = load ptr, ptr %4, align 8, !tbaa !167
  %6 = getelementptr inbounds %"class.dealii::Triangulation", ptr %5, i64 0, i32 2
  %7 = load ptr, ptr %6, align 8, !tbaa !31
  %8 = getelementptr inbounds %"class.dealii::internal::Triangulation::TriaFaces", ptr %7, i64 0, i32 1, i32 1
  %9 = load i32, ptr %1, align 8, !tbaa !76
  %10 = lshr i32 %2, 1
  %11 = add i32 %9, %10
  %12 = zext i32 %11 to i64
  %13 = load ptr, ptr %8, align 8, !tbaa !168
  %14 = getelementptr inbounds i32, ptr %13, i64 %12
  %15 = load i32, ptr %14, align 4, !tbaa !65
  %16 = and i32 %2, 1
  %17 = add i32 %15, %16
  %18 = getelementptr inbounds %"class.dealii::MGDoFAccessor", ptr %1, i64 0, i32 1
  %19 = load ptr, ptr %18, align 8, !tbaa !74
  store i32 %17, ptr %0, align 8, !tbaa !76
  %20 = getelementptr inbounds %"class.dealii::TriaAccessorBase", ptr %0, i64 0, i32 1
  store ptr %5, ptr %20, align 8, !tbaa !167
  %21 = getelementptr inbounds %"class.dealii::DoFAccessor", ptr %0, i64 0, i32 1
  store ptr %19, ptr %21, align 8, !tbaa !5
  %22 = getelementptr inbounds %"class.dealii::MGDoFAccessor", ptr %0, i64 0, i32 1
  store ptr %19, ptr %22, align 8, !tbaa !74
  ret void
}

; Function Attrs: sspstrong uwtable
define weak_odr dso_local void @_ZNK6dealii13MGDoFAccessorILi1ELi3ELi3EE4lineEj(ptr noalias sret(%"class.dealii::TriaIterator") align 8 %0, ptr noundef nonnull align 8 dereferenceable(32) %1, i32 noundef %2) local_unnamed_addr #0 comdat align 2 {
  %4 = getelementptr inbounds %"class.dealii::TriaAccessorBase", ptr %1, i64 0, i32 1
  %5 = load ptr, ptr %4, align 8, !tbaa !167
  %6 = getelementptr inbounds %"class.dealii::MGDoFAccessor", ptr %1, i64 0, i32 1
  %7 = load ptr, ptr %6, align 8, !tbaa !74
  store i32 -1, ptr %0, align 8, !tbaa !76
  %8 = getelementptr inbounds %"class.dealii::TriaAccessorBase", ptr %0, i64 0, i32 1
  store ptr %5, ptr %8, align 8, !tbaa !167
  %9 = getelementptr inbounds %"class.dealii::DoFAccessor", ptr %0, i64 0, i32 1
  store ptr %7, ptr %9, align 8, !tbaa !5
  %10 = getelementptr inbounds %"class.dealii::MGDoFAccessor", ptr %0, i64 0, i32 1
  store ptr %7, ptr %10, align 8, !tbaa !74
  ret void
}

; Function Attrs: sspstrong uwtable
define weak_odr dso_local void @_ZNK6dealii13MGDoFAccessorILi1ELi3ELi3EE4quadEj(ptr noalias sret(%"class.dealii::TriaIterator.83") align 8 %0, ptr noundef nonnull align 8 dereferenceable(32) %1, i32 noundef %2) local_unnamed_addr #0 comdat align 2 {
  %4 = getelementptr inbounds %"class.dealii::TriaAccessorBase", ptr %1, i64 0, i32 1
  %5 = load ptr, ptr %4, align 8, !tbaa !167
  %6 = getelementptr inbounds %"class.dealii::MGDoFAccessor", ptr %1, i64 0, i32 1
  %7 = load ptr, ptr %6, align 8, !tbaa !74
  store i32 -1, ptr %0, align 8, !tbaa !103
  %8 = getelementptr inbounds %"class.dealii::TriaAccessorBase.20", ptr %0, i64 0, i32 1
  store ptr %5, ptr %8, align 8, !tbaa !99
  %9 = getelementptr inbounds %"class.dealii::DoFAccessor.18", ptr %0, i64 0, i32 1
  store ptr %7, ptr %9, align 8, !tbaa !83
  %10 = getelementptr inbounds %"class.dealii::MGDoFAccessor.17", ptr %0, i64 0, i32 1
  store ptr %7, ptr %10, align 8, !tbaa !104
  ret void
}

; Function Attrs: sspstrong uwtable
define weak_odr dso_local void @_ZN6dealii13MGDoFAccessorILi1ELi3ELi3EE9copy_fromERKS1_(ptr noundef nonnull align 8 dereferenceable(32) %0, ptr noundef nonnull align 8 dereferenceable(32) %1) local_unnamed_addr #0 comdat align 2 {
  %3 = load i32, ptr %1, align 8, !tbaa !76
  store i32 %3, ptr %0, align 8, !tbaa !76
  %4 = getelementptr inbounds %"class.dealii::TriaAccessorBase", ptr %1, i64 0, i32 1
  %5 = getelementptr inbounds %"class.dealii::TriaAccessorBase", ptr %0, i64 0, i32 1
  %6 = load <2 x ptr>, ptr %4, align 8, !tbaa !128
  store <2 x ptr> %6, ptr %5, align 8, !tbaa !128
  %7 = getelementptr inbounds %"class.dealii::MGDoFAccessor", ptr %1, i64 0, i32 1
  %8 = load ptr, ptr %7, align 8, !tbaa !74
  %9 = getelementptr inbounds %"class.dealii::MGDoFAccessor", ptr %0, i64 0, i32 1
  store ptr %8, ptr %9, align 8, !tbaa !74
  ret void
}

; Function Attrs: nounwind sspstrong uwtable
define weak_odr dso_local void @_ZN6dealii13MGDoFAccessorILi1ELi3ELi3EE18set_mg_dof_handlerEPNS_12MGDoFHandlerILi3ELi3EEE(ptr noundef nonnull align 8 dereferenceable(32) %0, ptr noundef %1) local_unnamed_addr #2 comdat align 2 {
  %3 = getelementptr inbounds %"class.dealii::MGDoFAccessor", ptr %0, i64 0, i32 1
  store ptr %1, ptr %3, align 8, !tbaa !74
  ret void
}

; Function Attrs: sspstrong uwtable
define weak_odr dso_local void @_ZNK6dealii13MGDoFAccessorILi1ELi3ELi3EE23set_mg_vertex_dof_indexEijjj(ptr noundef nonnull align 8 dereferenceable(32) %0, i32 noundef %1, i32 noundef %2, i32 noundef %3, i32 noundef %4) local_unnamed_addr #0 comdat align 2 {
  %6 = getelementptr inbounds %"class.dealii::MGDoFAccessor", ptr %0, i64 0, i32 1
  %7 = load ptr, ptr %6, align 8, !tbaa !74
  %8 = getelementptr inbounds %"class.dealii::MGDoFHandler", ptr %7, i64 0, i32 3
  %9 = getelementptr inbounds %"class.dealii::TriaAccessorBase", ptr %0, i64 0, i32 1
  %10 = load ptr, ptr %9, align 8, !tbaa !167
  %11 = getelementptr inbounds %"class.dealii::Triangulation", ptr %10, i64 0, i32 2
  %12 = load ptr, ptr %11, align 8, !tbaa !31
  %13 = getelementptr inbounds %"class.dealii::internal::Triangulation::TriaFaces", ptr %12, i64 0, i32 1
  %14 = load i32, ptr %0, align 8, !tbaa !76
  %15 = sext i32 %14 to i64
  %16 = load ptr, ptr %13, align 8, !tbaa !61
  %17 = getelementptr inbounds %"class.dealii::internal::Triangulation::TriaObject", ptr %16, i64 %15
  %18 = zext i32 %2 to i64
  %19 = getelementptr inbounds [2 x i32], ptr %17, i64 0, i64 %18
  %20 = load i32, ptr %19, align 4, !tbaa !65
  %21 = zext i32 %20 to i64
  %22 = load ptr, ptr %8, align 8, !tbaa !63
  %23 = getelementptr inbounds %"class.dealii::MGDoFHandler<3>::MGVertexDoFs", ptr %22, i64 %21
  %24 = getelementptr inbounds %"class.dealii::DoFAccessor", ptr %0, i64 0, i32 1
  %25 = load ptr, ptr %24, align 8, !tbaa !5
  %26 = getelementptr inbounds %"class.dealii::DoFHandler", ptr %25, i64 0, i32 2
  %27 = load ptr, ptr %26, align 8, !tbaa !13
  %28 = getelementptr inbounds i8, ptr %27, i64 72
  %29 = load i32, ptr %28, align 8, !tbaa !15
  %30 = getelementptr inbounds %"class.dealii::MGDoFHandler<3>::MGVertexDoFs", ptr %22, i64 %21, i32 2
  %31 = load ptr, ptr %30, align 8, !tbaa !66
  %32 = load i32, ptr %23, align 8, !tbaa !68
  %33 = sub i32 %1, %32
  %34 = mul i32 %33, %29
