; ModuleID = 'source/multigrid/mg_dof_tools.cc'
source_filename = "source/multigrid/mg_dof_tools.cc"
target datalayout = "e-m:e-p270:32:32-p271:32:32-p272:64:64-i64:64-f80:128-n8:16:32:64-S128"
target triple = "x86_64-pc-linux-gnu"

module asm ".globl _ZSt21ios_base_library_initv"

%"struct.boost::detail::function::basic_vtable5" = type { %"struct.boost::detail::function::vtable_base", ptr }
%"struct.boost::detail::function::vtable_base" = type { ptr }
%"struct.boost::detail::function::basic_vtable0" = type { %"struct.boost::detail::function::vtable_base", ptr }
%"class.std::vector.20" = type { %"struct.std::_Vector_base.21" }
%"struct.std::_Vector_base.21" = type { %"struct.std::_Vector_base<unsigned int, std::allocator<unsigned int> >::_Vector_impl" }
%"struct.std::_Vector_base<unsigned int, std::allocator<unsigned int> >::_Vector_impl" = type { %"struct.std::_Vector_base<unsigned int, std::allocator<unsigned int> >::_Vector_impl_data" }
%"struct.std::_Vector_base<unsigned int, std::allocator<unsigned int> >::_Vector_impl_data" = type { ptr, ptr, ptr }
%"class.dealii::TriaIterator" = type { %"class.dealii::TriaRawIterator" }
%"class.dealii::TriaRawIterator" = type { %"class.dealii::MGDoFCellAccessor" }
%"class.dealii::MGDoFCellAccessor" = type { %"class.dealii::MGDoFAccessor" }
%"class.dealii::MGDoFAccessor" = type { %"class.dealii::DoFCellAccessor", ptr }
%"class.dealii::DoFCellAccessor" = type { %"class.dealii::DoFAccessor" }
%"class.dealii::DoFAccessor" = type { %"class.dealii::CellAccessor", ptr }
%"class.dealii::CellAccessor" = type { %"class.dealii::TriaAccessor" }
%"class.dealii::TriaAccessor" = type { %"class.dealii::TriaAccessorBase" }
%"class.dealii::TriaAccessorBase" = type { i32, i32, ptr }
%"class.dealii::DoFHandler" = type { %"class.dealii::Subscriptor", %"class.dealii::SmartPointer", %"class.dealii::SmartPointer.16", %"class.std::vector", ptr, i32, %"class.std::vector.20" }
%"class.dealii::Subscriptor" = type { ptr, i32, %"class.std::map", ptr }
%"class.std::map" = type { %"class.std::_Rb_tree" }
%"class.std::_Rb_tree" = type { %"struct.std::_Rb_tree<const char *, std::pair<const char *const, unsigned int>, std::_Select1st<std::pair<const char *const, unsigned int> >, std::less<const char *> >::_Rb_tree_impl" }
%"struct.std::_Rb_tree<const char *, std::pair<const char *const, unsigned int>, std::_Select1st<std::pair<const char *const, unsigned int> >, std::less<const char *> >::_Rb_tree_impl" = type { %"struct.std::_Rb_tree_key_compare", %"struct.std::_Rb_tree_header" }
%"struct.std::_Rb_tree_key_compare" = type { %"struct.std::less" }
%"struct.std::less" = type { i8 }
%"struct.std::_Rb_tree_header" = type { %"struct.std::_Rb_tree_node_base", i64 }
%"struct.std::_Rb_tree_node_base" = type { i32, ptr, ptr, ptr }
%"class.dealii::SmartPointer" = type { ptr, ptr }
%"class.dealii::SmartPointer.16" = type { ptr, ptr }
%"class.std::vector" = type { %"struct.std::_Vector_base" }
%"struct.std::_Vector_base" = type { %"struct.std::_Vector_base<dealii::internal::DoFHandler::DoFLevel<3> *, std::allocator<dealii::internal::DoFHandler::DoFLevel<3> *> >::_Vector_impl" }
%"struct.std::_Vector_base<dealii::internal::DoFHandler::DoFLevel<3> *, std::allocator<dealii::internal::DoFHandler::DoFLevel<3> *> >::_Vector_impl" = type { %"struct.std::_Vector_base<dealii::internal::DoFHandler::DoFLevel<3> *, std::allocator<dealii::internal::DoFHandler::DoFLevel<3> *> >::_Vector_impl_data" }
%"struct.std::_Vector_base<dealii::internal::DoFHandler::DoFLevel<3> *, std::allocator<dealii::internal::DoFHandler::DoFLevel<3> *> >::_Vector_impl_data" = type { ptr, ptr, ptr }
%"class.dealii::Triangulation" = type { %"class.dealii::Subscriptor", %"class.std::vector.82", ptr, %"class.std::vector.35", %"class.std::vector.64", [255 x %"class.dealii::SmartPointer.87"], [255 x %"class.dealii::SmartPointer.87"], i8, i32, %"struct.dealii::internal::Triangulation::NumberCache", %"class.std::__cxx11::list" }
%"class.std::vector.82" = type { %"struct.std::_Vector_base.83" }
%"struct.std::_Vector_base.83" = type { %"struct.std::_Vector_base<dealii::internal::Triangulation::TriaLevel<3> *, std::allocator<dealii::internal::Triangulation::TriaLevel<3> *> >::_Vector_impl" }
%"struct.std::_Vector_base<dealii::internal::Triangulation::TriaLevel<3> *, std::allocator<dealii::internal::Triangulation::TriaLevel<3> *> >::_Vector_impl" = type { %"struct.std::_Vector_base<dealii::internal::Triangulation::TriaLevel<3> *, std::allocator<dealii::internal::Triangulation::TriaLevel<3> *> >::_Vector_impl_data" }
%"struct.std::_Vector_base<dealii::internal::Triangulation::TriaLevel<3> *, std::allocator<dealii::internal::Triangulation::TriaLevel<3> *> >::_Vector_impl_data" = type { ptr, ptr, ptr }
%"class.std::vector.35" = type { %"struct.std::_Vector_base.36" }
%"struct.std::_Vector_base.36" = type { %"struct.std::_Vector_base<dealii::Point<3>, std::allocator<dealii::Point<3> > >::_Vector_impl" }
%"struct.std::_Vector_base<dealii::Point<3>, std::allocator<dealii::Point<3> > >::_Vector_impl" = type { %"struct.std::_Vector_base<dealii::Point<3>, std::allocator<dealii::Point<3> > >::_Vector_impl_data" }
%"struct.std::_Vector_base<dealii::Point<3>, std::allocator<dealii::Point<3> > >::_Vector_impl_data" = type { ptr, ptr, ptr }
%"class.std::vector.64" = type { %"struct.std::_Bvector_base" }
%"struct.std::_Bvector_base" = type { %"struct.std::_Bvector_base<std::allocator<bool> >::_Bvector_impl" }
%"struct.std::_Bvector_base<std::allocator<bool> >::_Bvector_impl" = type { %"struct.std::_Bvector_base<std::allocator<bool> >::_Bvector_impl_data" }
%"struct.std::_Bvector_base<std::allocator<bool> >::_Bvector_impl_data" = type { %"struct.std::_Bit_iterator", %"struct.std::_Bit_iterator", ptr }
%"struct.std::_Bit_iterator" = type { %"struct.std::_Bit_iterator_base.base", [4 x i8] }
%"struct.std::_Bit_iterator_base.base" = type <{ ptr, i32 }>
%"class.dealii::SmartPointer.87" = type { ptr, ptr }
%"struct.dealii::internal::Triangulation::NumberCache" = type { %"struct.dealii::internal::Triangulation::NumberCache.88", i32, %"class.std::vector.20", i32, %"class.std::vector.20" }
%"struct.dealii::internal::Triangulation::NumberCache.88" = type { %"struct.dealii::internal::Triangulation::NumberCache.89", i32, %"class.std::vector.20", i32, %"class.std::vector.20" }
%"struct.dealii::internal::Triangulation::NumberCache.89" = type { i32, %"class.std::vector.20", i32, %"class.std::vector.20" }
%"class.std::__cxx11::list" = type { %"class.std::__cxx11::_List_base" }
%"class.std::__cxx11::_List_base" = type { %"struct.std::__cxx11::_List_base<dealii::Triangulation<3, 3>::RefinementListener *, std::allocator<dealii::Triangulation<3, 3>::RefinementListener *> >::_List_impl" }
%"struct.std::__cxx11::_List_base<dealii::Triangulation<3, 3>::RefinementListener *, std::allocator<dealii::Triangulation<3, 3>::RefinementListener *> >::_List_impl" = type { %"struct.std::__detail::_List_node_header" }
%"struct.std::__detail::_List_node_header" = type { %"struct.std::__detail::_List_node_base", i64 }
%"struct.std::__detail::_List_node_base" = type { ptr, ptr }
%"class.dealii::internal::Triangulation::TriaLevel" = type { %"class.std::vector.209", %"class.std::vector.64", %"class.std::vector.214", %"class.std::vector.20", %"class.dealii::internal::Triangulation::TriaObjectsHex" }
%"class.std::vector.209" = type { %"struct.std::_Vector_base.210" }
%"struct.std::_Vector_base.210" = type { %"struct.std::_Vector_base<unsigned char, std::allocator<unsigned char> >::_Vector_impl" }
%"struct.std::_Vector_base<unsigned char, std::allocator<unsigned char> >::_Vector_impl" = type { %"struct.std::_Vector_base<unsigned char, std::allocator<unsigned char> >::_Vector_impl_data" }
%"struct.std::_Vector_base<unsigned char, std::allocator<unsigned char> >::_Vector_impl_data" = type { ptr, ptr, ptr }
%"class.std::vector.214" = type { %"struct.std::_Vector_base.215" }
%"struct.std::_Vector_base.215" = type { %"struct.std::_Vector_base<std::pair<int, int>, std::allocator<std::pair<int, int> > >::_Vector_impl" }
%"struct.std::_Vector_base<std::pair<int, int>, std::allocator<std::pair<int, int> > >::_Vector_impl" = type { %"struct.std::_Vector_base<std::pair<int, int>, std::allocator<std::pair<int, int> > >::_Vector_impl_data" }
%"struct.std::_Vector_base<std::pair<int, int>, std::allocator<std::pair<int, int> > >::_Vector_impl_data" = type { ptr, ptr, ptr }
%"class.dealii::internal::Triangulation::TriaObjectsHex" = type { %"class.dealii::internal::Triangulation::TriaObjects.base", %"class.std::vector.64", %"class.std::vector.64", %"class.std::vector.64" }
%"class.dealii::internal::Triangulation::TriaObjects.base" = type <{ %"class.std::vector.219", %"class.std::vector.49", %"class.std::vector.224", %"class.std::vector.64", %"class.std::vector.64", %"class.std::vector.209", i32, i32, i8, [7 x i8], %"class.std::vector.229", i32 }>
%"class.std::vector.219" = type { %"struct.std::_Vector_base.220" }
%"struct.std::_Vector_base.220" = type { %"struct.std::_Vector_base<dealii::internal::Triangulation::TriaObject<3>, std::allocator<dealii::internal::Triangulation::TriaObject<3> > >::_Vector_impl" }
%"struct.std::_Vector_base<dealii::internal::Triangulation::TriaObject<3>, std::allocator<dealii::internal::Triangulation::TriaObject<3> > >::_Vector_impl" = type { %"struct.std::_Vector_base<dealii::internal::Triangulation::TriaObject<3>, std::allocator<dealii::internal::Triangulation::TriaObject<3> > >::_Vector_impl_data" }
%"struct.std::_Vector_base<dealii::internal::Triangulation::TriaObject<3>, std::allocator<dealii::internal::Triangulation::TriaObject<3> > >::_Vector_impl_data" = type { ptr, ptr, ptr }
%"class.std::vector.49" = type { %"struct.std::_Vector_base.50" }
%"struct.std::_Vector_base.50" = type { %"struct.std::_Vector_base<int, std::allocator<int> >::_Vector_impl" }
%"struct.std::_Vector_base<int, std::allocator<int> >::_Vector_impl" = type { %"struct.std::_Vector_base<int, std::allocator<int> >::_Vector_impl_data" }
%"struct.std::_Vector_base<int, std::allocator<int> >::_Vector_impl_data" = type { ptr, ptr, ptr }
%"class.std::vector.224" = type { %"struct.std::_Vector_base.225" }
%"struct.std::_Vector_base.225" = type { %"struct.std::_Vector_base<dealii::RefinementCase<3>, std::allocator<dealii::RefinementCase<3> > >::_Vector_impl" }
%"struct.std::_Vector_base<dealii::RefinementCase<3>, std::allocator<dealii::RefinementCase<3> > >::_Vector_impl" = type { %"struct.std::_Vector_base<dealii::RefinementCase<3>, std::allocator<dealii::RefinementCase<3> > >::_Vector_impl_data" }
%"struct.std::_Vector_base<dealii::RefinementCase<3>, std::allocator<dealii::RefinementCase<3> > >::_Vector_impl_data" = type { ptr, ptr, ptr }
%"class.std::vector.229" = type { %"struct.std::_Vector_base.230" }
%"struct.std::_Vector_base.230" = type { %"struct.std::_Vector_base<dealii::internal::Triangulation::TriaObjects<dealii::internal::Triangulation::TriaObject<3> >::UserData, std::allocator<dealii::internal::Triangulation::TriaObjects<dealii::internal::Triangulation::TriaObject<3> >::UserData> >::_Vector_impl" }
%"struct.std::_Vector_base<dealii::internal::Triangulation::TriaObjects<dealii::internal::Triangulation::TriaObject<3> >::UserData, std::allocator<dealii::internal::Triangulation::TriaObjects<dealii::internal::Triangulation::TriaObject<3> >::UserData> >::_Vector_impl" = type { %"struct.std::_Vector_base<dealii::internal::Triangulation::TriaObjects<dealii::internal::Triangulation::TriaObject<3> >::UserData, std::allocator<dealii::internal::Triangulation::TriaObjects<dealii::internal::Triangulation::TriaObject<3> >::UserData> >::_Vector_impl_data" }
%"struct.std::_Vector_base<dealii::internal::Triangulation::TriaObjects<dealii::internal::Triangulation::TriaObject<3> >::UserData, std::allocator<dealii::internal::Triangulation::TriaObjects<dealii::internal::Triangulation::TriaObject<3> >::UserData> >::_Vector_impl_data" = type { ptr, ptr, ptr }
%"struct.std::pair.234" = type { i32, i32 }
%"class.dealii::Table.74" = type { %"class.dealii::TableBase.base.76", [4 x i8] }
%"class.dealii::TableBase.base.76" = type <{ %"class.dealii::Subscriptor", ptr, i32, %"class.dealii::TableIndices" }>
%"class.dealii::TableIndices" = type { %"class.dealii::TableIndicesBase" }
%"class.dealii::TableIndicesBase" = type { [2 x i32] }
%"class.dealii::Table.78" = type { %"class.dealii::TableBase.base.80", [4 x i8] }
%"class.dealii::TableBase.base.80" = type <{ %"class.dealii::Subscriptor", ptr, i32, %"class.dealii::TableIndices" }>
%"class.dealii::TriaIterator.93" = type { %"class.dealii::TriaRawIterator.94" }
%"class.dealii::TriaRawIterator.94" = type { %"class.dealii::MGDoFAccessor.96" }
%"class.dealii::MGDoFAccessor.96" = type { %"class.dealii::DoFAccessor.97", ptr }
%"class.dealii::DoFAccessor.97" = type { %"class.dealii::TriaAccessor.98", ptr }
%"class.dealii::TriaAccessor.98" = type { %"class.dealii::TriaAccessorBase.99" }
%"class.dealii::TriaAccessorBase.99" = type { i32, ptr }
%"class.dealii::TableBase.75" = type <{ %"class.dealii::Subscriptor", ptr, i32, %"class.dealii::TableIndices", [4 x i8] }>
%"struct.std::_Bit_iterator_base" = type <{ ptr, i32, [4 x i8] }>
%"class.dealii::TableBase.79" = type <{ %"class.dealii::Subscriptor", ptr, i32, %"class.dealii::TableIndices", [4 x i8] }>
%"class.dealii::internal::Triangulation::TriaObjects.236" = type <{ %"class.std::vector.237", %"class.std::vector.49", %"class.std::vector.242", %"class.std::vector.64", %"class.std::vector.64", %"class.std::vector.209", i32, i32, i8, [7 x i8], %"class.std::vector.247", i32, [4 x i8] }>
%"class.std::vector.237" = type { %"struct.std::_Vector_base.238" }
%"struct.std::_Vector_base.238" = type { %"struct.std::_Vector_base<dealii::internal::Triangulation::TriaObject<2>, std::allocator<dealii::internal::Triangulation::TriaObject<2> > >::_Vector_impl" }
%"struct.std::_Vector_base<dealii::internal::Triangulation::TriaObject<2>, std::allocator<dealii::internal::Triangulation::TriaObject<2> > >::_Vector_impl" = type { %"struct.std::_Vector_base<dealii::internal::Triangulation::TriaObject<2>, std::allocator<dealii::internal::Triangulation::TriaObject<2> > >::_Vector_impl_data" }
%"struct.std::_Vector_base<dealii::internal::Triangulation::TriaObject<2>, std::allocator<dealii::internal::Triangulation::TriaObject<2> > >::_Vector_impl_data" = type { ptr, ptr, ptr }
%"class.std::vector.242" = type { %"struct.std::_Vector_base.243" }
%"struct.std::_Vector_base.243" = type { %"struct.std::_Vector_base<dealii::RefinementCase<2>, std::allocator<dealii::RefinementCase<2> > >::_Vector_impl" }
%"struct.std::_Vector_base<dealii::RefinementCase<2>, std::allocator<dealii::RefinementCase<2> > >::_Vector_impl" = type { %"struct.std::_Vector_base<dealii::RefinementCase<2>, std::allocator<dealii::RefinementCase<2> > >::_Vector_impl_data" }
%"struct.std::_Vector_base<dealii::RefinementCase<2>, std::allocator<dealii::RefinementCase<2> > >::_Vector_impl_data" = type { ptr, ptr, ptr }
%"class.std::vector.247" = type { %"struct.std::_Vector_base.248" }
%"struct.std::_Vector_base.248" = type { %"struct.std::_Vector_base<dealii::internal::Triangulation::TriaObjects<dealii::internal::Triangulation::TriaObject<2> >::UserData, std::allocator<dealii::internal::Triangulation::TriaObjects<dealii::internal::Triangulation::TriaObject<2> >::UserData> >::_Vector_impl" }
%"struct.std::_Vector_base<dealii::internal::Triangulation::TriaObjects<dealii::internal::Triangulation::TriaObject<2> >::UserData, std::allocator<dealii::internal::Triangulation::TriaObjects<dealii::internal::Triangulation::TriaObject<2> >::UserData> >::_Vector_impl" = type { %"struct.std::_Vector_base<dealii::internal::Triangulation::TriaObjects<dealii::internal::Triangulation::TriaObject<2> >::UserData, std::allocator<dealii::internal::Triangulation::TriaObjects<dealii::internal::Triangulation::TriaObject<2> >::UserData> >::_Vector_impl_data" }
%"struct.std::_Vector_base<dealii::internal::Triangulation::TriaObjects<dealii::internal::Triangulation::TriaObject<2> >::UserData, std::allocator<dealii::internal::Triangulation::TriaObjects<dealii::internal::Triangulation::TriaObject<2> >::UserData> >::_Vector_impl_data" = type { ptr, ptr, ptr }
%"class.dealii::CompressedSparsityPattern" = type { %"class.dealii::Subscriptor", i32, i32, %"class.std::vector.100" }
%"class.std::vector.100" = type { %"struct.std::_Vector_base.101" }
%"struct.std::_Vector_base.101" = type { %"struct.std::_Vector_base<dealii::CompressedSparsityPattern::Line, std::allocator<dealii::CompressedSparsityPattern::Line> >::_Vector_impl" }
%"struct.std::_Vector_base<dealii::CompressedSparsityPattern::Line, std::allocator<dealii::CompressedSparsityPattern::Line> >::_Vector_impl" = type { %"struct.std::_Vector_base<dealii::CompressedSparsityPattern::Line, std::allocator<dealii::CompressedSparsityPattern::Line> >::_Vector_impl_data" }
%"struct.std::_Vector_base<dealii::CompressedSparsityPattern::Line, std::allocator<dealii::CompressedSparsityPattern::Line> >::_Vector_impl_data" = type { ptr, ptr, ptr }
%"struct.dealii::CompressedSparsityPattern::Line" = type <{ %"class.std::vector.20", [8 x i32], i32, [4 x i8] }>
%"class.dealii::CompressedSetSparsityPattern" = type { %"class.dealii::Subscriptor", i32, i32, %"class.std::vector.105" }
%"class.std::vector.105" = type { %"struct.std::_Vector_base.106" }
%"struct.std::_Vector_base.106" = type { %"struct.std::_Vector_base<dealii::CompressedSetSparsityPattern::Line, std::allocator<dealii::CompressedSetSparsityPattern::Line> >::_Vector_impl" }
%"struct.std::_Vector_base<dealii::CompressedSetSparsityPattern::Line, std::allocator<dealii::CompressedSetSparsityPattern::Line> >::_Vector_impl" = type { %"struct.std::_Vector_base<dealii::CompressedSetSparsityPattern::Line, std::allocator<dealii::CompressedSetSparsityPattern::Line> >::_Vector_impl_data" }
%"struct.std::_Vector_base<dealii::CompressedSetSparsityPattern::Line, std::allocator<dealii::CompressedSetSparsityPattern::Line> >::_Vector_impl_data" = type { ptr, ptr, ptr }
%"struct.dealii::CompressedSetSparsityPattern::Line" = type { %"class.std::set" }
%"class.std::set" = type { %"class.std::_Rb_tree.191" }
%"class.std::_Rb_tree.191" = type { %"struct.std::_Rb_tree<unsigned int, unsigned int, std::_Identity<unsigned int>, std::less<unsigned int> >::_Rb_tree_impl" }
%"struct.std::_Rb_tree<unsigned int, unsigned int, std::_Identity<unsigned int>, std::less<unsigned int> >::_Rb_tree_impl" = type { %"struct.std::_Rb_tree_key_compare.195", %"struct.std::_Rb_tree_header" }
%"struct.std::_Rb_tree_key_compare.195" = type { %"struct.std::less.196" }
%"struct.std::less.196" = type { i8 }
%"struct.std::_Rb_tree_node" = type <{ %"struct.std::_Rb_tree_node_base", i32, [4 x i8] }>
%"class.dealii::BlockSparsityPatternBase" = type { %"class.dealii::Subscriptor", i32, i32, %"class.dealii::Table.110", %"class.dealii::BlockIndices", %"class.dealii::BlockIndices", %"class.std::vector.20", %"class.std::vector.114" }
%"class.dealii::Table.110" = type { %"class.dealii::TableBase.base.112", [4 x i8] }
%"class.dealii::TableBase.base.112" = type <{ %"class.dealii::Subscriptor", ptr, i32, %"class.dealii::TableIndices" }>
%"class.dealii::BlockIndices" = type { i32, %"class.std::vector.20" }
%"class.std::vector.114" = type { %"struct.std::_Vector_base.115" }
%"struct.std::_Vector_base.115" = type { %"struct.std::_Vector_base<std::vector<unsigned int>, std::allocator<std::vector<unsigned int> > >::_Vector_impl" }
%"struct.std::_Vector_base<std::vector<unsigned int>, std::allocator<std::vector<unsigned int> > >::_Vector_impl" = type { %"struct.std::_Vector_base<std::vector<unsigned int>, std::allocator<std::vector<unsigned int> > >::_Vector_impl_data" }
%"struct.std::_Vector_base<std::vector<unsigned int>, std::allocator<std::vector<unsigned int> > >::_Vector_impl_data" = type { ptr, ptr, ptr }
%"class.dealii::SmartPointer.271" = type { ptr, ptr }
%"class.dealii::BlockSparsityPatternBase.119" = type { %"class.dealii::Subscriptor", i32, i32, %"class.dealii::Table.120", %"class.dealii::BlockIndices", %"class.dealii::BlockIndices", %"class.std::vector.20", %"class.std::vector.114" }
%"class.dealii::Table.120" = type { %"class.dealii::TableBase.base.122", [4 x i8] }
%"class.dealii::TableBase.base.122" = type <{ %"class.dealii::Subscriptor", ptr, i32, %"class.dealii::TableIndices" }>
%"class.dealii::SmartPointer.275" = type { ptr, ptr }
%"class.dealii::BlockSparsityPatternBase.124" = type { %"class.dealii::Subscriptor", i32, i32, %"class.dealii::Table.125", %"class.dealii::BlockIndices", %"class.dealii::BlockIndices", %"class.std::vector.20", %"class.std::vector.114" }
%"class.dealii::Table.125" = type { %"class.dealii::TableBase.base.127", [4 x i8] }
%"class.dealii::TableBase.base.127" = type <{ %"class.dealii::Subscriptor", ptr, i32, %"class.dealii::TableIndices" }>
%"class.dealii::SmartPointer.277" = type { ptr, ptr }
%"class.dealii::TriaActiveIterator" = type { %"class.dealii::TriaIterator" }
%"class.std::vector.129" = type { %"struct.std::_Vector_base.130" }
%"struct.std::_Vector_base.130" = type { %"struct.std::_Vector_base<dealii::Table<2, dealii::DoFTools::Coupling>, std::allocator<dealii::Table<2, dealii::DoFTools::Coupling> > >::_Vector_impl" }
%"struct.std::_Vector_base<dealii::Table<2, dealii::DoFTools::Coupling>, std::allocator<dealii::Table<2, dealii::DoFTools::Coupling> > >::_Vector_impl" = type { %"struct.std::_Vector_base<dealii::Table<2, dealii::DoFTools::Coupling>, std::allocator<dealii::Table<2, dealii::DoFTools::Coupling> > >::_Vector_impl_data" }
%"struct.std::_Vector_base<dealii::Table<2, dealii::DoFTools::Coupling>, std::allocator<dealii::Table<2, dealii::DoFTools::Coupling> > >::_Vector_impl_data" = type { ptr, ptr, ptr }
%"class.dealii::FiniteElement" = type { %"class.dealii::Subscriptor", %"class.dealii::FiniteElementData", i8, %"class.std::vector.30", %"class.std::vector.30", %"class.dealii::FullMatrix", %"class.std::vector.35", %"class.std::vector.40", %"class.std::vector.35", %"class.std::vector.40", %"class.dealii::Table.45", %"class.std::vector.49", %"class.std::vector.54", %"class.std::vector.54", %"class.std::vector.59", %"class.std::vector.59", %"class.std::vector.20", %"class.std::vector.59", %"class.std::vector.64", %"class.std::vector.68", %"class.std::vector.20" }
%"class.dealii::FiniteElementData" = type { i32, i32, i32, i32, i32, i32, i32, i32, i32, i32, i32, i32, i32, i32, i32 }
%"class.std::vector.30" = type { %"struct.std::_Vector_base.31" }
%"struct.std::_Vector_base.31" = type { %"struct.std::_Vector_base<std::vector<dealii::FullMatrix<double> >, std::allocator<std::vector<dealii::FullMatrix<double> > > >::_Vector_impl" }
%"struct.std::_Vector_base<std::vector<dealii::FullMatrix<double> >, std::allocator<std::vector<dealii::FullMatrix<double> > > >::_Vector_impl" = type { %"struct.std::_Vector_base<std::vector<dealii::FullMatrix<double> >, std::allocator<std::vector<dealii::FullMatrix<double> > > >::_Vector_impl_data" }
%"struct.std::_Vector_base<std::vector<dealii::FullMatrix<double> >, std::allocator<std::vector<dealii::FullMatrix<double> > > >::_Vector_impl_data" = type { ptr, ptr, ptr }
%"class.dealii::FullMatrix" = type { %"class.dealii::Table.base", [4 x i8] }
%"class.dealii::Table.base" = type { %"class.dealii::TableBase.base" }
%"class.dealii::TableBase.base" = type <{ %"class.dealii::Subscriptor", ptr, i32, %"class.dealii::TableIndices" }>
%"class.std::vector.40" = type { %"struct.std::_Vector_base.41" }
%"struct.std::_Vector_base.41" = type { %"struct.std::_Vector_base<dealii::Point<2>, std::allocator<dealii::Point<2> > >::_Vector_impl" }
%"struct.std::_Vector_base<dealii::Point<2>, std::allocator<dealii::Point<2> > >::_Vector_impl" = type { %"struct.std::_Vector_base<dealii::Point<2>, std::allocator<dealii::Point<2> > >::_Vector_impl_data" }
%"struct.std::_Vector_base<dealii::Point<2>, std::allocator<dealii::Point<2> > >::_Vector_impl_data" = type { ptr, ptr, ptr }
%"class.dealii::Table.45" = type { %"class.dealii::TableBase.base.47", [4 x i8] }
%"class.dealii::TableBase.base.47" = type <{ %"class.dealii::Subscriptor", ptr, i32, %"class.dealii::TableIndices" }>
%"class.std::vector.54" = type { %"struct.std::_Vector_base.55" }
%"struct.std::_Vector_base.55" = type { %"struct.std::_Vector_base<std::pair<unsigned int, unsigned int>, std::allocator<std::pair<unsigned int, unsigned int> > >::_Vector_impl" }
%"struct.std::_Vector_base<std::pair<unsigned int, unsigned int>, std::allocator<std::pair<unsigned int, unsigned int> > >::_Vector_impl" = type { %"struct.std::_Vector_base<std::pair<unsigned int, unsigned int>, std::allocator<std::pair<unsigned int, unsigned int> > >::_Vector_impl_data" }
%"struct.std::_Vector_base<std::pair<unsigned int, unsigned int>, std::allocator<std::pair<unsigned int, unsigned int> > >::_Vector_impl_data" = type { ptr, ptr, ptr }
%"class.std::vector.59" = type { %"struct.std::_Vector_base.60" }
%"struct.std::_Vector_base.60" = type { %"struct.std::_Vector_base<std::pair<std::pair<unsigned int, unsigned int>, unsigned int>, std::allocator<std::pair<std::pair<unsigned int, unsigned int>, unsigned int> > >::_Vector_impl" }
%"struct.std::_Vector_base<std::pair<std::pair<unsigned int, unsigned int>, unsigned int>, std::allocator<std::pair<std::pair<unsigned int, unsigned int>, unsigned int> > >::_Vector_impl" = type { %"struct.std::_Vector_base<std::pair<std::pair<unsigned int, unsigned int>, unsigned int>, std::allocator<std::pair<std::pair<unsigned int, unsigned int>, unsigned int> > >::_Vector_impl_data" }
%"struct.std::_Vector_base<std::pair<std::pair<unsigned int, unsigned int>, unsigned int>, std::allocator<std::pair<std::pair<unsigned int, unsigned int>, unsigned int> > >::_Vector_impl_data" = type { ptr, ptr, ptr }
%"class.std::vector.68" = type { %"struct.std::_Vector_base.69" }
%"struct.std::_Vector_base.69" = type { %"struct.std::_Vector_base<std::vector<bool>, std::allocator<std::vector<bool> > >::_Vector_impl" }
%"struct.std::_Vector_base<std::vector<bool>, std::allocator<std::vector<bool> > >::_Vector_impl" = type { %"struct.std::_Vector_base<std::vector<bool>, std::allocator<std::vector<bool> > >::_Vector_impl_data" }
%"struct.std::_Vector_base<std::vector<bool>, std::allocator<std::vector<bool> > >::_Vector_impl_data" = type { ptr, ptr, ptr }
%"struct.std::pair.278" = type { %"struct.std::pair", i32 }
%"struct.std::pair" = type { i32, i32 }
%"class.dealii::MGLevelObject" = type { %"class.dealii::Subscriptor", i32, %"class.std::vector.134" }
%"class.std::vector.134" = type { %"struct.std::_Vector_base.135" }
%"struct.std::_Vector_base.135" = type { %"struct.std::_Vector_base<boost::shared_ptr<dealii::Vector<double> >, std::allocator<boost::shared_ptr<dealii::Vector<double> > > >::_Vector_impl" }
%"struct.std::_Vector_base<boost::shared_ptr<dealii::Vector<double> >, std::allocator<boost::shared_ptr<dealii::Vector<double> > > >::_Vector_impl" = type { %"struct.std::_Vector_base<boost::shared_ptr<dealii::Vector<double> >, std::allocator<boost::shared_ptr<dealii::Vector<double> > > >::_Vector_impl_data" }
%"struct.std::_Vector_base<boost::shared_ptr<dealii::Vector<double> >, std::allocator<boost::shared_ptr<dealii::Vector<double> > > >::_Vector_impl_data" = type { ptr, ptr, ptr }
%"class.boost::shared_ptr.280" = type { ptr, %"class.boost::detail::shared_count" }
%"class.boost::detail::shared_count" = type { ptr }
%"class.dealii::MGLevelObject.139" = type { %"class.dealii::Subscriptor", i32, %"class.std::vector.140" }
%"class.std::vector.140" = type { %"struct.std::_Vector_base.141" }
%"struct.std::_Vector_base.141" = type { %"struct.std::_Vector_base<boost::shared_ptr<dealii::Vector<float> >, std::allocator<boost::shared_ptr<dealii::Vector<float> > > >::_Vector_impl" }
%"struct.std::_Vector_base<boost::shared_ptr<dealii::Vector<float> >, std::allocator<boost::shared_ptr<dealii::Vector<float> > > >::_Vector_impl" = type { %"struct.std::_Vector_base<boost::shared_ptr<dealii::Vector<float> >, std::allocator<boost::shared_ptr<dealii::Vector<float> > > >::_Vector_impl_data" }
%"struct.std::_Vector_base<boost::shared_ptr<dealii::Vector<float> >, std::allocator<boost::shared_ptr<dealii::Vector<float> > > >::_Vector_impl_data" = type { ptr, ptr, ptr }
%"class.boost::shared_ptr.281" = type { ptr, %"class.boost::detail::shared_count" }
%"class.dealii::MGLevelObject.146" = type { %"class.dealii::Subscriptor", i32, %"class.std::vector.147" }
%"class.std::vector.147" = type { %"struct.std::_Vector_base.148" }
%"struct.std::_Vector_base.148" = type { %"struct.std::_Vector_base<boost::shared_ptr<dealii::BlockVector<double> >, std::allocator<boost::shared_ptr<dealii::BlockVector<double> > > >::_Vector_impl" }
%"struct.std::_Vector_base<boost::shared_ptr<dealii::BlockVector<double> >, std::allocator<boost::shared_ptr<dealii::BlockVector<double> > > >::_Vector_impl" = type { %"struct.std::_Vector_base<boost::shared_ptr<dealii::BlockVector<double> >, std::allocator<boost::shared_ptr<dealii::BlockVector<double> > > >::_Vector_impl_data" }
%"struct.std::_Vector_base<boost::shared_ptr<dealii::BlockVector<double> >, std::allocator<boost::shared_ptr<dealii::BlockVector<double> > > >::_Vector_impl_data" = type { ptr, ptr, ptr }
%"class.boost::shared_ptr.283" = type { ptr, %"class.boost::detail::shared_count" }
%"class.dealii::Threads::Thread<>::ExcNoThread" = type { %"class.dealii::ExceptionBase.base", [4 x i8] }
%"class.dealii::ExceptionBase.base" = type <{ %"class.std::exception", ptr, i32, [4 x i8], ptr, ptr, ptr, ptr, i32 }>
%"class.std::exception" = type { ptr }
%"class.dealii::Threads::ThreadGroup" = type { %"class.std::__cxx11::list.173" }
%"class.std::__cxx11::list.173" = type { %"class.std::__cxx11::_List_base.174" }
%"class.std::__cxx11::_List_base.174" = type { %"struct.std::__cxx11::_List_base<dealii::Threads::Thread<>, std::allocator<dealii::Threads::Thread<> > >::_List_impl" }
%"struct.std::__cxx11::_List_base<dealii::Threads::Thread<>, std::allocator<dealii::Threads::Thread<> > >::_List_impl" = type { %"struct.std::__detail::_List_node_header" }
%"class.dealii::Threads::Thread" = type { %"class.boost::shared_ptr" }
%"class.boost::shared_ptr" = type { ptr, %"class.boost::detail::shared_count" }
%"class.dealii::Threads::internal::fun_encapsulator" = type { %"class.boost::function" }
%"class.boost::function" = type { %"class.boost::function5" }
%"class.boost::function5" = type { %"class.boost::function_base" }
%"class.boost::function_base" = type { ptr, %"union.boost::detail::function::function_buffer" }
%"union.boost::detail::function::function_buffer" = type { %"struct.boost::detail::function::function_buffer::bound_memfunc_ptr_t" }
%"struct.boost::detail::function::function_buffer::bound_memfunc_ptr_t" = type { { i64, i64 }, ptr }
%"struct.std::_List_node" = type { %"struct.std::__detail::_List_node_base", %"class.dealii::Threads::Thread" }
%"class.boost::detail::sp_counted_base" = type { ptr, i64, i64 }
%"class.dealii::MGLevelObject.157" = type { %"class.dealii::Subscriptor", i32, %"class.std::vector.158" }
%"class.std::vector.158" = type { %"struct.std::_Vector_base.159" }
%"struct.std::_Vector_base.159" = type { %"struct.std::_Vector_base<boost::shared_ptr<dealii::BlockVector<float> >, std::allocator<boost::shared_ptr<dealii::BlockVector<float> > > >::_Vector_impl" }
%"struct.std::_Vector_base<boost::shared_ptr<dealii::BlockVector<float> >, std::allocator<boost::shared_ptr<dealii::BlockVector<float> > > >::_Vector_impl" = type { %"struct.std::_Vector_base<boost::shared_ptr<dealii::BlockVector<float> >, std::allocator<boost::shared_ptr<dealii::BlockVector<float> > > >::_Vector_impl_data" }
%"struct.std::_Vector_base<boost::shared_ptr<dealii::BlockVector<float> >, std::allocator<boost::shared_ptr<dealii::BlockVector<float> > > >::_Vector_impl_data" = type { ptr, ptr, ptr }
%"class.boost::shared_ptr.284" = type { ptr, %"class.boost::detail::shared_count" }
%"class.dealii::BlockVectorBase" = type { %"class.dealii::Subscriptor", %"class.std::vector.152", %"class.dealii::BlockIndices" }
%"class.std::vector.152" = type { %"struct.std::_Vector_base.153" }
%"struct.std::_Vector_base.153" = type { %"struct.std::_Vector_base<dealii::Vector<double>, std::allocator<dealii::Vector<double> > >::_Vector_impl" }
%"struct.std::_Vector_base<dealii::Vector<double>, std::allocator<dealii::Vector<double> > >::_Vector_impl" = type { %"struct.std::_Vector_base<dealii::Vector<double>, std::allocator<dealii::Vector<double> > >::_Vector_impl_data" }
%"struct.std::_Vector_base<dealii::Vector<double>, std::allocator<dealii::Vector<double> > >::_Vector_impl_data" = type { ptr, ptr, ptr }
%"class.dealii::Vector" = type { %"class.dealii::Subscriptor", i32, i32, ptr }
%"class.dealii::BlockVectorBase.164" = type { %"class.dealii::Subscriptor", %"class.std::vector.165", %"class.dealii::BlockIndices" }
%"class.std::vector.165" = type { %"struct.std::_Vector_base.166" }
%"struct.std::_Vector_base.166" = type { %"struct.std::_Vector_base<dealii::Vector<float>, std::allocator<dealii::Vector<float> > >::_Vector_impl" }
%"struct.std::_Vector_base<dealii::Vector<float>, std::allocator<dealii::Vector<float> > >::_Vector_impl" = type { %"struct.std::_Vector_base<dealii::Vector<float>, std::allocator<dealii::Vector<float> > >::_Vector_impl_data" }
%"struct.std::_Vector_base<dealii::Vector<float>, std::allocator<dealii::Vector<float> > >::_Vector_impl_data" = type { ptr, ptr, ptr }
%"class.dealii::Vector.145" = type { %"class.dealii::Subscriptor", i32, i32, ptr }
%"class.boost::function.285" = type { %"class.boost::function0" }
%"class.boost::function0" = type { %"class.boost::function_base" }
%"class.boost::_bi::bind_t" = type { %"class.boost::function", %"class.boost::_bi::list5" }
%"class.boost::_bi::list5" = type { %"struct.boost::_bi::storage5.base", [7 x i8] }
%"struct.boost::_bi::storage5.base" = type <{ %"struct.boost::_bi::storage4", %"class.boost::_bi::value.288" }>
%"struct.boost::_bi::storage4" = type { %"struct.boost::_bi::storage3", %"class.boost::reference_wrapper.287" }
%"struct.boost::_bi::storage3" = type { %"struct.boost::_bi::storage2", %"class.boost::reference_wrapper.286" }
%"struct.boost::_bi::storage2" = type { %"struct.boost::_bi::storage1", %"class.boost::reference_wrapper" }
%"struct.boost::_bi::storage1" = type { %"class.boost::_bi::value" }
%"class.boost::_bi::value" = type { i32 }
%"class.boost::reference_wrapper" = type { ptr }
%"class.boost::reference_wrapper.286" = type { ptr }
%"class.boost::reference_wrapper.287" = type { ptr }
%"class.boost::_bi::value.288" = type { i8 }
%"struct.std::_Rb_tree_node.294" = type { %"struct.std::_Rb_tree_node_base", %"struct.std::pair.295" }
%"struct.std::pair.295" = type { i8, ptr }
%"struct.boost::detail::function::function_buffer::type_t" = type { ptr, i8, i8 }
%"class.std::type_info" = type { ptr, ptr }
%"class.boost::detail::sp_counted_impl_p" = type { %"class.boost::detail::sp_counted_base", ptr }
%"class.std::__cxx11::basic_string" = type { %"struct.std::__cxx11::basic_string<char>::_Alloc_hider", i64, %union.anon.292 }
%"struct.std::__cxx11::basic_string<char>::_Alloc_hider" = type { ptr }
%union.anon.292 = type { i64, [8 x i8] }
%"class.boost::bad_function_call" = type { %"class.std::runtime_error" }
%"class.std::runtime_error" = type { %"class.std::exception", %"struct.std::__cow_string" }
%"struct.std::__cow_string" = type { %union.anon }
%union.anon = type { ptr }
%"struct.boost::exception_detail::error_info_injector" = type <{ %"class.boost::bad_function_call", %"class.boost::exception.base", [4 x i8] }>
%"class.boost::exception.base" = type <{ ptr, %"class.boost::exception_detail::refcount_ptr", ptr, ptr, i32 }>
%"class.boost::exception_detail::refcount_ptr" = type { ptr }

$_ZN6dealii7MGTools21make_sparsity_patternILi3ENS_15SparsityPatternELi3EEEvRKNS_12MGDoFHandlerIXT_EXT1_EEERT0_j = comdat any

$__clang_call_terminate = comdat any

$_ZN6dealii7MGTools26make_flux_sparsity_patternILi3ENS_15SparsityPatternELi3EEEvRKNS_12MGDoFHandlerIXT_EXT1_EEERT0_j = comdat any

$_ZN6dealii7MGTools31make_flux_sparsity_pattern_edgeILi3ENS_15SparsityPatternELi3EEEvRKNS_12MGDoFHandlerIXT_EXT1_EEERT0_j = comdat any

$_ZN6dealii7MGTools26make_flux_sparsity_patternILi3ENS_15SparsityPatternELi3EEEvRKNS_12MGDoFHandlerIXT_EXT1_EEERT0_jRKNS_5TableILi2ENS_8DoFTools8CouplingEEESE_ = comdat any

$_ZNSt13_Bvector_baseISaIbEED2Ev = comdat any

$_ZN6dealii7MGTools31make_flux_sparsity_pattern_edgeILi3ENS_15SparsityPatternELi3EEEvRKNS_12MGDoFHandlerIXT_EXT1_EEERT0_jRKNS_5TableILi2ENS_8DoFTools8CouplingEEE = comdat any

$_ZN6dealii7MGTools21make_sparsity_patternILi3ENS_25CompressedSparsityPatternELi3EEEvRKNS_12MGDoFHandlerIXT_EXT1_EEERT0_j = comdat any

$_ZN6dealii7MGTools26make_flux_sparsity_patternILi3ENS_25CompressedSparsityPatternELi3EEEvRKNS_12MGDoFHandlerIXT_EXT1_EEERT0_j = comdat any

$_ZN6dealii7MGTools31make_flux_sparsity_pattern_edgeILi3ENS_25CompressedSparsityPatternELi3EEEvRKNS_12MGDoFHandlerIXT_EXT1_EEERT0_j = comdat any

$_ZN6dealii7MGTools26make_flux_sparsity_patternILi3ENS_25CompressedSparsityPatternELi3EEEvRKNS_12MGDoFHandlerIXT_EXT1_EEERT0_jRKNS_5TableILi2ENS_8DoFTools8CouplingEEESE_ = comdat any

$_ZN6dealii7MGTools31make_flux_sparsity_pattern_edgeILi3ENS_25CompressedSparsityPatternELi3EEEvRKNS_12MGDoFHandlerIXT_EXT1_EEERT0_jRKNS_5TableILi2ENS_8DoFTools8CouplingEEE = comdat any

$_ZN6dealii7MGTools21make_sparsity_patternILi3ENS_28CompressedSetSparsityPatternELi3EEEvRKNS_12MGDoFHandlerIXT_EXT1_EEERT0_j = comdat any

$_ZN6dealii7MGTools26make_flux_sparsity_patternILi3ENS_28CompressedSetSparsityPatternELi3EEEvRKNS_12MGDoFHandlerIXT_EXT1_EEERT0_j = comdat any

$_ZN6dealii7MGTools31make_flux_sparsity_pattern_edgeILi3ENS_28CompressedSetSparsityPatternELi3EEEvRKNS_12MGDoFHandlerIXT_EXT1_EEERT0_j = comdat any

$_ZN6dealii7MGTools26make_flux_sparsity_patternILi3ENS_28CompressedSetSparsityPatternELi3EEEvRKNS_12MGDoFHandlerIXT_EXT1_EEERT0_jRKNS_5TableILi2ENS_8DoFTools8CouplingEEESE_ = comdat any

$_ZN6dealii7MGTools31make_flux_sparsity_pattern_edgeILi3ENS_28CompressedSetSparsityPatternELi3EEEvRKNS_12MGDoFHandlerIXT_EXT1_EEERT0_jRKNS_5TableILi2ENS_8DoFTools8CouplingEEE = comdat any

$_ZN6dealii7MGTools21make_sparsity_patternILi3ENS_20BlockSparsityPatternELi3EEEvRKNS_12MGDoFHandlerIXT_EXT1_EEERT0_j = comdat any

$_ZN6dealii7MGTools26make_flux_sparsity_patternILi3ENS_20BlockSparsityPatternELi3EEEvRKNS_12MGDoFHandlerIXT_EXT1_EEERT0_j = comdat any

$_ZN6dealii7MGTools31make_flux_sparsity_pattern_edgeILi3ENS_20BlockSparsityPatternELi3EEEvRKNS_12MGDoFHandlerIXT_EXT1_EEERT0_j = comdat any

$_ZN6dealii7MGTools26make_flux_sparsity_patternILi3ENS_20BlockSparsityPatternELi3EEEvRKNS_12MGDoFHandlerIXT_EXT1_EEERT0_jRKNS_5TableILi2ENS_8DoFTools8CouplingEEESE_ = comdat any

$_ZN6dealii7MGTools31make_flux_sparsity_pattern_edgeILi3ENS_20BlockSparsityPatternELi3EEEvRKNS_12MGDoFHandlerIXT_EXT1_EEERT0_jRKNS_5TableILi2ENS_8DoFTools8CouplingEEE = comdat any

$_ZN6dealii7MGTools21make_sparsity_patternILi3ENS_30BlockCompressedSparsityPatternELi3EEEvRKNS_12MGDoFHandlerIXT_EXT1_EEERT0_j = comdat any

$_ZN6dealii7MGTools26make_flux_sparsity_patternILi3ENS_30BlockCompressedSparsityPatternELi3EEEvRKNS_12MGDoFHandlerIXT_EXT1_EEERT0_j = comdat any

$_ZN6dealii7MGTools31make_flux_sparsity_pattern_edgeILi3ENS_30BlockCompressedSparsityPatternELi3EEEvRKNS_12MGDoFHandlerIXT_EXT1_EEERT0_j = comdat any

$_ZN6dealii7MGTools26make_flux_sparsity_patternILi3ENS_30BlockCompressedSparsityPatternELi3EEEvRKNS_12MGDoFHandlerIXT_EXT1_EEERT0_jRKNS_5TableILi2ENS_8DoFTools8CouplingEEESE_ = comdat any

$_ZN6dealii7MGTools31make_flux_sparsity_pattern_edgeILi3ENS_30BlockCompressedSparsityPatternELi3EEEvRKNS_12MGDoFHandlerIXT_EXT1_EEERT0_jRKNS_5TableILi2ENS_8DoFTools8CouplingEEE = comdat any

$_ZN6dealii7MGTools21make_sparsity_patternILi3ENS_33BlockCompressedSetSparsityPatternELi3EEEvRKNS_12MGDoFHandlerIXT_EXT1_EEERT0_j = comdat any

$_ZN6dealii7MGTools26make_flux_sparsity_patternILi3ENS_33BlockCompressedSetSparsityPatternELi3EEEvRKNS_12MGDoFHandlerIXT_EXT1_EEERT0_j = comdat any

$_ZN6dealii7MGTools31make_flux_sparsity_pattern_edgeILi3ENS_33BlockCompressedSetSparsityPatternELi3EEEvRKNS_12MGDoFHandlerIXT_EXT1_EEERT0_j = comdat any

$_ZN6dealii7MGTools26make_flux_sparsity_patternILi3ENS_33BlockCompressedSetSparsityPatternELi3EEEvRKNS_12MGDoFHandlerIXT_EXT1_EEERT0_jRKNS_5TableILi2ENS_8DoFTools8CouplingEEESE_ = comdat any

$_ZN6dealii7MGTools31make_flux_sparsity_pattern_edgeILi3ENS_33BlockCompressedSetSparsityPatternELi3EEEvRKNS_12MGDoFHandlerIXT_EXT1_EEERT0_jRKNS_5TableILi2ENS_8DoFTools8CouplingEEE = comdat any

$_ZN6dealii7MGTools25compute_row_length_vectorILi3ELi3EEEvRKNS_12MGDoFHandlerIXT_EXT0_EEEjRSt6vectorIjSaIjEENS_8DoFTools8CouplingE = comdat any

$_ZN6dealii7MGTools25compute_row_length_vectorILi3ELi3EEEvRKNS_12MGDoFHandlerIXT_EXT0_EEEjRSt6vectorIjSaIjEERKNS_5TableILi2ENS_8DoFTools8CouplingEEESF_ = comdat any

$_ZN6dealii7MGTools13reinit_vectorILi3EdLi3EEEvRKNS_12MGDoFHandlerIXT_EXT1_EEERNS_13MGLevelObjectINS_6VectorIT0_EEEE = comdat any

$_ZN6dealii7MGTools13reinit_vectorILi3EfLi3EEEvRKNS_12MGDoFHandlerIXT_EXT1_EEERNS_13MGLevelObjectINS_6VectorIT0_EEEE = comdat any

$_ZN6dealii7MGTools13reinit_vectorILi3EdLi3EEEvRKNS_12MGDoFHandlerIXT_EXT1_EEERNS_13MGLevelObjectINS_11BlockVectorIT0_EEEE = comdat any

$_ZN6dealii7MGTools20count_dofs_per_blockILi3ELi3EEEvRKNS_12MGDoFHandlerIXT_EXT0_EEERSt6vectorIS6_IjSaIjEESaIS8_EES8_ = comdat any

$_ZNSt6vectorIS_IjSaIjEESaIS1_EED2Ev = comdat any

$_ZN6dealii7MGTools13reinit_vectorILi3EfLi3EEEvRKNS_12MGDoFHandlerIXT_EXT1_EEERNS_13MGLevelObjectINS_11BlockVectorIT0_EEEE = comdat any

$_ZN6dealii7MGTools27reinit_vector_by_componentsILi3EdLi3EEEvRKNS_12MGDoFHandlerIXT_EXT1_EEERNS_13MGLevelObjectINS_11BlockVectorIT0_EEEERKSt6vectorIbSaIbEERKSC_IjSaIjEERSC_ISI_SaISI_EE = comdat any

$_ZNSt6vectorIbSaIbEEC2ERKS1_ = comdat any

$_ZN6dealii7MGTools24count_dofs_per_componentILi3ELi3EEEvRKNS_12MGDoFHandlerIXT_EXT0_EEERSt6vectorIS6_IjSaIjEESaIS8_EEbS8_ = comdat any

$_ZN6dealii7MGTools27reinit_vector_by_componentsILi3EfLi3EEEvRKNS_12MGDoFHandlerIXT_EXT1_EEERNS_13MGLevelObjectINS_11BlockVectorIT0_EEEERKSt6vectorIbSaIbEERKSC_IjSaIjEERSC_ISI_SaISI_EE = comdat any

$_ZN6dealii7MGTools27reinit_vector_by_componentsILi3EdLi3EEEvRKNS_12MGDoFHandlerIXT_EXT1_EEERNS_13MGLevelObjectINS_6VectorIT0_EEEERKSt6vectorIbSaIbEERKSC_IjSaIjEERSC_ISI_SaISI_EE = comdat any

$_ZN6dealii7MGTools27reinit_vector_by_componentsILi3EfLi3EEEvRKNS_12MGDoFHandlerIXT_EXT1_EEERNS_13MGLevelObjectINS_6VectorIT0_EEEERKSt6vectorIbSaIbEERKSC_IjSaIjEERSC_ISI_SaISI_EE = comdat any

$_ZN6dealii7MGTools23reinit_vector_by_blocksILi3EdLi3EEEvRKNS_12MGDoFHandlerIXT_EXT1_EEERNS_13MGLevelObjectINS_11BlockVectorIT0_EEEERKSt6vectorIbSaIbEERSC_ISC_IjSaIjEESaISI_EE = comdat any

$_ZN6dealii7MGTools23reinit_vector_by_blocksILi3EfLi3EEEvRKNS_12MGDoFHandlerIXT_EXT1_EEERNS_13MGLevelObjectINS_11BlockVectorIT0_EEEERKSt6vectorIbSaIbEERSC_ISC_IjSaIjEESaISI_EE = comdat any

$_ZN6dealii7MGTools23reinit_vector_by_blocksILi3EdLi3EEEvRKNS_12MGDoFHandlerIXT_EXT1_EEERNS_13MGLevelObjectINS_6VectorIT0_EEEEjRSt6vectorISC_IjSaIjEESaISE_EE = comdat any

$_ZN6dealii7MGTools23reinit_vector_by_blocksILi3EfLi3EEEvRKNS_12MGDoFHandlerIXT_EXT1_EEERNS_13MGLevelObjectINS_6VectorIT0_EEEEjRSt6vectorISC_IjSaIjEESaISE_EE = comdat any

$_ZN6dealii7Threads8internal16fun_encapsulatorIvN5boost6tuples5tupleIjRKNS_12MGDoFHandlerILi3ELi3EEERKSt6vectorIbSaIbEERSC_bNS4_9null_typeESG_SG_SG_SG_EELi5EEclEjS9_SE_SF_b = comdat any

$_ZN6dealii7Threads6ThreadIvED2Ev = comdat any

$_ZN6dealii7Threads11ThreadGroupIvED2Ev = comdat any

$_ZNSt6vectorIS_IbSaIbEESaIS1_EED2Ev = comdat any

$_ZN6dealii7MGTools24count_dofs_per_componentILi3ELi3EEEvRKNS_12MGDoFHandlerIXT_EXT0_EEERSt6vectorIS6_IjSaIjEESaIS8_EES8_ = comdat any

$_ZN6dealii7MGTools18make_boundary_listILi3ELi3EEEvRKNS_12MGDoFHandlerIXT_EXT0_EEERKNS_11FunctionMapIXT_EE4typeERSt6vectorISt3setIjSt4lessIjESaIjEESaISG_EERKSB_IbSaIbEE = comdat any

$_ZN6dealii9TableBaseILi2ENS_8DoFTools8CouplingEED2Ev = comdat any

$_ZN6dealii9TableBaseILi2ENS_8DoFTools8CouplingEED0Ev = comdat any

$_ZN6dealii9TableBaseILi2EbED2Ev = comdat any

$_ZN6dealii9TableBaseILi2EbED0Ev = comdat any

$_ZN5boost10shared_ptrIN6dealii7Threads8internal16ThreadDescriptorIvEEED2Ev = comdat any

$_ZNSt6vectorIjSaIjEE14_M_fill_insertEN9__gnu_cxx17__normal_iteratorIPjS1_EEmRKj = comdat any

$_ZNSt6vectorIbSaIbEE14_M_fill_insertESt13_Bit_iteratormb = comdat any

$_ZN6dealii5TableILi2EbED0Ev = comdat any

$_ZSt18__do_uninit_fill_nIPSt6vectorIjSaIjEEmS2_ET_S4_T0_RKT1_ = comdat any

$_ZNSt22__uninitialized_fill_nILb0EE15__uninit_fill_nIPSt6vectorIbSaIbEEmS4_EET_S6_T0_RKT1_ = comdat any

$_ZN5boost6detail8function15functor_managerIPFvjRKN6dealii12MGDoFHandlerILi3ELi3EEERKSt6vectorIbSaIbEERSA_bEE6manageERKNS1_15function_bufferERSH_NS1_30functor_manager_operation_typeE = comdat any

$_ZN5boost6detail8function22void_function_invoker5IPFvjRKN6dealii12MGDoFHandlerILi3ELi3EEERKSt6vectorIbSaIbEERSA_bEvjS7_SC_SD_bE6invokeERNS1_15function_bufferEjS7_SC_SD_b = comdat any

$_ZN5boost8functionIFvvEEC2INS_3_bi6bind_tINS4_11unspecifiedENS0_IFvjRKN6dealii12MGDoFHandlerILi3ELi3EEERKSt6vectorIbSaIbEERSE_bEEENS4_5list5INS4_5valueIjEENS_17reference_wrapperISA_EENSN_ISF_EENSN_ISE_EENSL_IbEEEEEEEET_NS_11enable_if_cIXsr5boost11type_traits7ice_notIXsr11is_integralISU_EE5valueEEE5valueEiE4typeE = comdat any

$_ZN6dealii7Threads6ThreadIvEC2ERKN5boost8functionIFvvEEE = comdat any

$_ZN5boost9function0IvE9assign_toINS_3_bi6bind_tINS3_11unspecifiedENS_8functionIFvjRKN6dealii12MGDoFHandlerILi3ELi3EEERKSt6vectorIbSaIbEERSE_bEEENS3_5list5INS3_5valueIjEENS_17reference_wrapperISA_EENSN_ISF_EENSN_ISE_EENSL_IbEEEEEEEEvT_ = comdat any

$_ZN5boost6detail8function15functor_managerINS_3_bi6bind_tINS3_11unspecifiedENS_8functionIFvjRKN6dealii12MGDoFHandlerILi3ELi3EEERKSt6vectorIbSaIbEERSE_bEEENS3_5list5INS3_5valueIjEENS_17reference_wrapperISA_EENSN_ISF_EENSN_ISE_EENSL_IbEEEEEEE6manageERKNS1_15function_bufferERSV_NS1_30functor_manager_operation_typeE = comdat any

$_ZN5boost6detail8function26void_function_obj_invoker0INS_3_bi6bind_tINS3_11unspecifiedENS_8functionIFvjRKN6dealii12MGDoFHandlerILi3ELi3EEERKSt6vectorIbSaIbEERSE_bEEENS3_5list5INS3_5valueIjEENS_17reference_wrapperISA_EENSN_ISF_EENSN_ISE_EENSL_IbEEEEEEvE6invokeERNS1_15function_bufferE = comdat any

$_ZN5boost6detail8function15functor_managerINS_3_bi6bind_tINS3_11unspecifiedENS_8functionIFvjRKN6dealii12MGDoFHandlerILi3ELi3EEERKSt6vectorIbSaIbEERSE_bEEENS3_5list5INS3_5valueIjEENS_17reference_wrapperISA_EENSN_ISF_EENSN_ISE_EENSL_IbEEEEEEE7managerERKNS1_15function_bufferERSV_NS1_30functor_manager_operation_typeEN4mpl_5bool_ILb0EEE = comdat any

$_ZNK5boost9function5IvjRKN6dealii12MGDoFHandlerILi3ELi3EEERKSt6vectorIbSaIbEERS8_bEclEjS5_SA_SB_b = comdat any

$_ZN5boost15throw_exceptionINS_17bad_function_callEEEvRKT_ = comdat any

$_ZN5boost16exception_detail10clone_implINS0_19error_info_injectorINS_17bad_function_callEEEED2Ev = comdat any

$_ZN5boost16exception_detail19error_info_injectorINS_17bad_function_callEED2Ev = comdat any

$_ZN5boost16exception_detail10clone_implINS0_19error_info_injectorINS_17bad_function_callEEEED0Ev = comdat any

$_ZNK5boost16exception_detail10clone_implINS0_19error_info_injectorINS_17bad_function_callEEEE5cloneEv = comdat any

$_ZNK5boost16exception_detail10clone_implINS0_19error_info_injectorINS_17bad_function_callEEEE7rethrowEv = comdat any

$_ZThn16_N5boost16exception_detail10clone_implINS0_19error_info_injectorINS_17bad_function_callEEEED1Ev = comdat any

$_ZThn16_N5boost16exception_detail10clone_implINS0_19error_info_injectorINS_17bad_function_callEEEED0Ev = comdat any

$_ZThn56_NK5boost16exception_detail10clone_implINS0_19error_info_injectorINS_17bad_function_callEEEE5cloneEv = comdat any

$_ZThn56_NK5boost16exception_detail10clone_implINS0_19error_info_injectorINS_17bad_function_callEEEE7rethrowEv = comdat any

$_ZThn56_N5boost16exception_detail10clone_implINS0_19error_info_injectorINS_17bad_function_callEEEED1Ev = comdat any

$_ZThn56_N5boost16exception_detail10clone_implINS0_19error_info_injectorINS_17bad_function_callEEEED0Ev = comdat any

$_ZN5boost16exception_detail19error_info_injectorINS_17bad_function_callEED0Ev = comdat any

$_ZThn16_N5boost16exception_detail19error_info_injectorINS_17bad_function_callEED1Ev = comdat any

$_ZThn16_N5boost16exception_detail19error_info_injectorINS_17bad_function_callEED0Ev = comdat any

$_ZN5boost17bad_function_callD0Ev = comdat any

$_ZN5boost16exception_detail10clone_implINS0_19error_info_injectorINS_17bad_function_callEEEEC2ERKS5_ = comdat any

$_ZN5boost6detail8function13basic_vtable0IvE9assign_toINS_3_bi6bind_tINS5_11unspecifiedENS_8functionIFvjRKN6dealii12MGDoFHandlerILi3ELi3EEERKSt6vectorIbSaIbEERSG_bEEENS5_5list5INS5_5valueIjEENS_17reference_wrapperISC_EENSP_ISH_EENSP_ISG_EENSN_IbEEEEEEEEbT_RNS1_15function_bufferENS1_16function_obj_tagE = comdat any

$_ZN5boost6detail15sp_counted_baseD2Ev = comdat any

$_ZN5boost6detail17sp_counted_impl_pIN6dealii7Threads8internal16ThreadDescriptorIvEEED0Ev = comdat any

$_ZN5boost6detail17sp_counted_impl_pIN6dealii7Threads8internal16ThreadDescriptorIvEEE7disposeEv = comdat any

$_ZN5boost6detail15sp_counted_base7destroyEv = comdat any

$_ZN5boost6detail17sp_counted_impl_pIN6dealii7Threads8internal16ThreadDescriptorIvEEE11get_deleterERKSt9type_info = comdat any

$_ZNK5boost9function0IvEclEv = comdat any

$_ZN6dealii7Threads6ThreadIvE11ExcNoThreadD0Ev = comdat any

$_ZNSt6vectorIS_IjSaIjEESaIS1_EE14_M_fill_insertEN9__gnu_cxx17__normal_iteratorIPS1_S3_EEmRKS1_ = comdat any

$_ZSt16__do_uninit_copyIPSt6vectorIjSaIjEES3_ET0_T_S5_S4_ = comdat any

$_ZNSt6vectorIjSaIjEEaSERKS1_ = comdat any

$_ZTVN6dealii9TableBaseILi2ENS_8DoFTools8CouplingEEE = comdat any

$_ZTSN6dealii9TableBaseILi2ENS_8DoFTools8CouplingEEE = comdat any

$_ZTIN6dealii9TableBaseILi2ENS_8DoFTools8CouplingEEE = comdat any

$_ZTVN6dealii9TableBaseILi2EbEE = comdat any

$_ZTSN6dealii9TableBaseILi2EbEE = comdat any

$_ZTIN6dealii9TableBaseILi2EbEE = comdat any

$_ZTVN6dealii5TableILi2EbEE = comdat any

$_ZTSN6dealii5TableILi2EbEE = comdat any

$_ZTIN6dealii5TableILi2EbEE = comdat any

$_ZZN5boost9function5IvjRKN6dealii12MGDoFHandlerILi3ELi3EEERKSt6vectorIbSaIbEERS8_bE9assign_toIPFvjS5_SA_SB_bEEEvT_E13stored_vtable = comdat any

$_ZTSPFvjRKN6dealii12MGDoFHandlerILi3ELi3EEERKSt6vectorIbSaIbEERS6_bE = comdat any

$_ZTSFvjRKN6dealii12MGDoFHandlerILi3ELi3EEERKSt6vectorIbSaIbEERS6_bE = comdat any

$_ZTIFvjRKN6dealii12MGDoFHandlerILi3ELi3EEERKSt6vectorIbSaIbEERS6_bE = comdat any

$_ZTIPFvjRKN6dealii12MGDoFHandlerILi3ELi3EEERKSt6vectorIbSaIbEERS6_bE = comdat any

$_ZZN5boost9function0IvE9assign_toINS_3_bi6bind_tINS3_11unspecifiedENS_8functionIFvjRKN6dealii12MGDoFHandlerILi3ELi3EEERKSt6vectorIbSaIbEERSE_bEEENS3_5list5INS3_5valueIjEENS_17reference_wrapperISA_EENSN_ISF_EENSN_ISE_EENSL_IbEEEEEEEEvT_E13stored_vtable = comdat any

$_ZTSN5boost3_bi6bind_tINS0_11unspecifiedENS_8functionIFvjRKN6dealii12MGDoFHandlerILi3ELi3EEERKSt6vectorIbSaIbEERSB_bEEENS0_5list5INS0_5valueIjEENS_17reference_wrapperIS7_EENSK_ISC_EENSK_ISB_EENSI_IbEEEEEE = comdat any

$_ZTIN5boost3_bi6bind_tINS0_11unspecifiedENS_8functionIFvjRKN6dealii12MGDoFHandlerILi3ELi3EEERKSt6vectorIbSaIbEERSB_bEEENS0_5list5INS0_5valueIjEENS_17reference_wrapperIS7_EENSK_ISC_EENSK_ISB_EENSI_IbEEEEEE = comdat any

$_ZTSN5boost16exception_detail10clone_implINS0_19error_info_injectorINS_17bad_function_callEEEEE = comdat any

$_ZTSN5boost16exception_detail19error_info_injectorINS_17bad_function_callEEE = comdat any

$_ZTSN5boost17bad_function_callE = comdat any

$_ZTIN5boost17bad_function_callE = comdat any

$_ZTSN5boost9exceptionE = comdat any

$_ZTIN5boost9exceptionE = comdat any

$_ZTIN5boost16exception_detail19error_info_injectorINS_17bad_function_callEEE = comdat any

$_ZTSN5boost16exception_detail10clone_baseE = comdat any

$_ZTIN5boost16exception_detail10clone_baseE = comdat any

$_ZTIN5boost16exception_detail10clone_implINS0_19error_info_injectorINS_17bad_function_callEEEEE = comdat any

$_ZTVN5boost16exception_detail10clone_implINS0_19error_info_injectorINS_17bad_function_callEEEEE = comdat any

$_ZTVN5boost16exception_detail19error_info_injectorINS_17bad_function_callEEE = comdat any

$_ZTVN5boost17bad_function_callE = comdat any

$_ZTVN5boost9exceptionE = comdat any

$_ZTVN5boost6detail17sp_counted_impl_pIN6dealii7Threads8internal16ThreadDescriptorIvEEEE = comdat any

$_ZTSN5boost6detail17sp_counted_impl_pIN6dealii7Threads8internal16ThreadDescriptorIvEEEE = comdat any

$_ZTSN5boost6detail15sp_counted_baseE = comdat any

$_ZTIN5boost6detail15sp_counted_baseE = comdat any

$_ZTIN5boost6detail17sp_counted_impl_pIN6dealii7Threads8internal16ThreadDescriptorIvEEEE = comdat any

$_ZTSN6dealii7Threads6ThreadIvE11ExcNoThreadE = comdat any

$_ZTIN6dealii7Threads6ThreadIvE11ExcNoThreadE = comdat any

$_ZTVN6dealii7Threads6ThreadIvE11ExcNoThreadE = comdat any

@_ZTVN6dealii9TableBaseILi2ENS_8DoFTools8CouplingEEE = linkonce_odr dso_local unnamed_addr constant { [4 x ptr] } { [4 x ptr] [ptr null, ptr @_ZTIN6dealii9TableBaseILi2ENS_8DoFTools8CouplingEEE, ptr @_ZN6dealii9TableBaseILi2ENS_8DoFTools8CouplingEED2Ev, ptr @_ZN6dealii9TableBaseILi2ENS_8DoFTools8CouplingEED0Ev] }, comdat, align 8
@_ZTVN10__cxxabiv120__si_class_type_infoE = external global ptr
@_ZTSN6dealii9TableBaseILi2ENS_8DoFTools8CouplingEEE = linkonce_odr dso_local constant [48 x i8] c"N6dealii9TableBaseILi2ENS_8DoFTools8CouplingEEE\00", comdat, align 1
@_ZTIN6dealii11SubscriptorE = external constant ptr
@_ZTIN6dealii9TableBaseILi2ENS_8DoFTools8CouplingEEE = linkonce_odr dso_local constant { ptr, ptr, ptr } { ptr getelementptr inbounds (ptr, ptr @_ZTVN10__cxxabiv120__si_class_type_infoE, i64 2), ptr @_ZTSN6dealii9TableBaseILi2ENS_8DoFTools8CouplingEEE, ptr @_ZTIN6dealii11SubscriptorE }, comdat, align 8
@_ZTVN6dealii9TableBaseILi2EbEE = linkonce_odr dso_local unnamed_addr constant { [4 x ptr] } { [4 x ptr] [ptr null, ptr @_ZTIN6dealii9TableBaseILi2EbEE, ptr @_ZN6dealii9TableBaseILi2EbED2Ev, ptr @_ZN6dealii9TableBaseILi2EbED0Ev] }, comdat, align 8
@_ZTSN6dealii9TableBaseILi2EbEE = linkonce_odr dso_local constant [27 x i8] c"N6dealii9TableBaseILi2EbEE\00", comdat, align 1
@_ZTIN6dealii9TableBaseILi2EbEE = linkonce_odr dso_local constant { ptr, ptr, ptr } { ptr getelementptr inbounds (ptr, ptr @_ZTVN10__cxxabiv120__si_class_type_infoE, i64 2), ptr @_ZTSN6dealii9TableBaseILi2EbEE, ptr @_ZTIN6dealii11SubscriptorE }, comdat, align 8
@.str = private unnamed_addr constant [49 x i8] c"cannot create std::vector larger than max_size()\00", align 1
@.str.9 = private unnamed_addr constant [23 x i8] c"vector::_M_fill_insert\00", align 1
@.str.10 = private unnamed_addr constant [29 x i8] c"vector<bool>::_M_fill_insert\00", align 1
@_ZTVN6dealii5TableILi2EbEE = linkonce_odr dso_local unnamed_addr constant { [4 x ptr] } { [4 x ptr] [ptr null, ptr @_ZTIN6dealii5TableILi2EbEE, ptr @_ZN6dealii9TableBaseILi2EbED2Ev, ptr @_ZN6dealii5TableILi2EbED0Ev] }, comdat, align 8
@_ZTSN6dealii5TableILi2EbEE = linkonce_odr dso_local constant [23 x i8] c"N6dealii5TableILi2EbEE\00", comdat, align 1
@_ZTIN6dealii5TableILi2EbEE = linkonce_odr dso_local constant { ptr, ptr, ptr } { ptr getelementptr inbounds (ptr, ptr @_ZTVN10__cxxabiv120__si_class_type_infoE, i64 2), ptr @_ZTSN6dealii5TableILi2EbEE, ptr @_ZTIN6dealii9TableBaseILi2EbEE }, comdat, align 8
@_ZZN5boost9function5IvjRKN6dealii12MGDoFHandlerILi3ELi3EEERKSt6vectorIbSaIbEERS8_bE9assign_toIPFvjS5_SA_SB_bEEEvT_E13stored_vtable = linkonce_odr dso_local global %"struct.boost::detail::function::basic_vtable5" { %"struct.boost::detail::function::vtable_base" { ptr @_ZN5boost6detail8function15functor_managerIPFvjRKN6dealii12MGDoFHandlerILi3ELi3EEERKSt6vectorIbSaIbEERSA_bEE6manageERKNS1_15function_bufferERSH_NS1_30functor_manager_operation_typeE }, ptr @_ZN5boost6detail8function22void_function_invoker5IPFvjRKN6dealii12MGDoFHandlerILi3ELi3EEERKSt6vectorIbSaIbEERSA_bEvjS7_SC_SD_bE6invokeERNS1_15function_bufferEjS7_SC_SD_b }, comdat, align 8
@_ZTVN10__cxxabiv119__pointer_type_infoE = external global ptr
@_ZTSPFvjRKN6dealii12MGDoFHandlerILi3ELi3EEERKSt6vectorIbSaIbEERS6_bE = linkonce_odr dso_local constant [65 x i8] c"PFvjRKN6dealii12MGDoFHandlerILi3ELi3EEERKSt6vectorIbSaIbEERS6_bE\00", comdat, align 1
@_ZTVN10__cxxabiv120__function_type_infoE = external global ptr
@_ZTSFvjRKN6dealii12MGDoFHandlerILi3ELi3EEERKSt6vectorIbSaIbEERS6_bE = linkonce_odr dso_local constant [64 x i8] c"FvjRKN6dealii12MGDoFHandlerILi3ELi3EEERKSt6vectorIbSaIbEERS6_bE\00", comdat, align 1
@_ZTIFvjRKN6dealii12MGDoFHandlerILi3ELi3EEERKSt6vectorIbSaIbEERS6_bE = linkonce_odr dso_local constant { ptr, ptr } { ptr getelementptr inbounds (ptr, ptr @_ZTVN10__cxxabiv120__function_type_infoE, i64 2), ptr @_ZTSFvjRKN6dealii12MGDoFHandlerILi3ELi3EEERKSt6vectorIbSaIbEERS6_bE }, comdat, align 8
@_ZTIPFvjRKN6dealii12MGDoFHandlerILi3ELi3EEERKSt6vectorIbSaIbEERS6_bE = linkonce_odr dso_local constant { ptr, ptr, i32, ptr } { ptr getelementptr inbounds (ptr, ptr @_ZTVN10__cxxabiv119__pointer_type_infoE, i64 2), ptr @_ZTSPFvjRKN6dealii12MGDoFHandlerILi3ELi3EEERKSt6vectorIbSaIbEERS6_bE, i32 0, ptr @_ZTIFvjRKN6dealii12MGDoFHandlerILi3ELi3EEERKSt6vectorIbSaIbEERS6_bE }, comdat, align 8
@_ZZN5boost9function0IvE9assign_toINS_3_bi6bind_tINS3_11unspecifiedENS_8functionIFvjRKN6dealii12MGDoFHandlerILi3ELi3EEERKSt6vectorIbSaIbEERSE_bEEENS3_5list5INS3_5valueIjEENS_17reference_wrapperISA_EENSN_ISF_EENSN_ISE_EENSL_IbEEEEEEEEvT_E13stored_vtable = linkonce_odr dso_local global %"struct.boost::detail::function::basic_vtable0" { %"struct.boost::detail::function::vtable_base" { ptr @_ZN5boost6detail8function15functor_managerINS_3_bi6bind_tINS3_11unspecifiedENS_8functionIFvjRKN6dealii12MGDoFHandlerILi3ELi3EEERKSt6vectorIbSaIbEERSE_bEEENS3_5list5INS3_5valueIjEENS_17reference_wrapperISA_EENSN_ISF_EENSN_ISE_EENSL_IbEEEEEEE6manageERKNS1_15function_bufferERSV_NS1_30functor_manager_operation_typeE }, ptr @_ZN5boost6detail8function26void_function_obj_invoker0INS_3_bi6bind_tINS3_11unspecifiedENS_8functionIFvjRKN6dealii12MGDoFHandlerILi3ELi3EEERKSt6vectorIbSaIbEERSE_bEEENS3_5list5INS3_5valueIjEENS_17reference_wrapperISA_EENSN_ISF_EENSN_ISE_EENSL_IbEEEEEEvE6invokeERNS1_15function_bufferE }, comdat, align 8
@_ZTVN10__cxxabiv117__class_type_infoE = external global ptr
@_ZTSN5boost3_bi6bind_tINS0_11unspecifiedENS_8functionIFvjRKN6dealii12MGDoFHandlerILi3ELi3EEERKSt6vectorIbSaIbEERSB_bEEENS0_5list5INS0_5valueIjEENS_17reference_wrapperIS7_EENSK_ISC_EENSK_ISB_EENSI_IbEEEEEE = linkonce_odr dso_local constant [201 x i8] c"N5boost3_bi6bind_tINS0_11unspecifiedENS_8functionIFvjRKN6dealii12MGDoFHandlerILi3ELi3EEERKSt6vectorIbSaIbEERSB_bEEENS0_5list5INS0_5valueIjEENS_17reference_wrapperIS7_EENSK_ISC_EENSK_ISB_EENSI_IbEEEEEE\00", comdat, align 1
@_ZTIN5boost3_bi6bind_tINS0_11unspecifiedENS_8functionIFvjRKN6dealii12MGDoFHandlerILi3ELi3EEERKSt6vectorIbSaIbEERSB_bEEENS0_5list5INS0_5valueIjEENS_17reference_wrapperIS7_EENSK_ISC_EENSK_ISB_EENSI_IbEEEEEE = linkonce_odr dso_local constant { ptr, ptr } { ptr getelementptr inbounds (ptr, ptr @_ZTVN10__cxxabiv117__class_type_infoE, i64 2), ptr @_ZTSN5boost3_bi6bind_tINS0_11unspecifiedENS_8functionIFvjRKN6dealii12MGDoFHandlerILi3ELi3EEERKSt6vectorIbSaIbEERSB_bEEENS0_5list5INS0_5valueIjEENS_17reference_wrapperIS7_EENSK_ISC_EENSK_ISB_EENSI_IbEEEEEE }, comdat, align 8
@_ZTVN10__cxxabiv121__vmi_class_type_infoE = external global ptr
@_ZTSN5boost16exception_detail10clone_implINS0_19error_info_injectorINS_17bad_function_callEEEEE = linkonce_odr dso_local constant [92 x i8] c"N5boost16exception_detail10clone_implINS0_19error_info_injectorINS_17bad_function_callEEEEE\00", comdat, align 1
@_ZTSN5boost16exception_detail19error_info_injectorINS_17bad_function_callEEE = linkonce_odr dso_local constant [73 x i8] c"N5boost16exception_detail19error_info_injectorINS_17bad_function_callEEE\00", comdat, align 1
@_ZTSN5boost17bad_function_callE = linkonce_odr dso_local constant [28 x i8] c"N5boost17bad_function_callE\00", comdat, align 1
@_ZTISt13runtime_error = external constant ptr
@_ZTIN5boost17bad_function_callE = linkonce_odr dso_local constant { ptr, ptr, ptr } { ptr getelementptr inbounds (ptr, ptr @_ZTVN10__cxxabiv120__si_class_type_infoE, i64 2), ptr @_ZTSN5boost17bad_function_callE, ptr @_ZTISt13runtime_error }, comdat, align 8
@_ZTSN5boost9exceptionE = linkonce_odr dso_local constant [19 x i8] c"N5boost9exceptionE\00", comdat, align 1
@_ZTIN5boost9exceptionE = linkonce_odr dso_local constant { ptr, ptr } { ptr getelementptr inbounds (ptr, ptr @_ZTVN10__cxxabiv117__class_type_infoE, i64 2), ptr @_ZTSN5boost9exceptionE }, comdat, align 8
@_ZTIN5boost16exception_detail19error_info_injectorINS_17bad_function_callEEE = linkonce_odr dso_local constant { ptr, ptr, i32, i32, ptr, i64, ptr, i64 } { ptr getelementptr inbounds (ptr, ptr @_ZTVN10__cxxabiv121__vmi_class_type_infoE, i64 2), ptr @_ZTSN5boost16exception_detail19error_info_injectorINS_17bad_function_callEEE, i32 0, i32 2, ptr @_ZTIN5boost17bad_function_callE, i64 2, ptr @_ZTIN5boost9exceptionE, i64 4098 }, comdat, align 8
@_ZTSN5boost16exception_detail10clone_baseE = linkonce_odr dso_local constant [39 x i8] c"N5boost16exception_detail10clone_baseE\00", comdat, align 1
@_ZTIN5boost16exception_detail10clone_baseE = linkonce_odr dso_local constant { ptr, ptr } { ptr getelementptr inbounds (ptr, ptr @_ZTVN10__cxxabiv117__class_type_infoE, i64 2), ptr @_ZTSN5boost16exception_detail10clone_baseE }, comdat, align 8
@_ZTIN5boost16exception_detail10clone_implINS0_19error_info_injectorINS_17bad_function_callEEEEE = linkonce_odr dso_local constant { ptr, ptr, i32, i32, ptr, i64, ptr, i64 } { ptr getelementptr inbounds (ptr, ptr @_ZTVN10__cxxabiv121__vmi_class_type_infoE, i64 2), ptr @_ZTSN5boost16exception_detail10clone_implINS0_19error_info_injectorINS_17bad_function_callEEEEE, i32 0, i32 2, ptr @_ZTIN5boost16exception_detail19error_info_injectorINS_17bad_function_callEEE, i64 2, ptr @_ZTIN5boost16exception_detail10clone_baseE, i64 14338 }, comdat, align 8
@_ZTVN5boost16exception_detail10clone_implINS0_19error_info_injectorINS_17bad_function_callEEEEE = linkonce_odr dso_local unnamed_addr constant { [7 x ptr], [4 x ptr], [6 x ptr] } { [7 x ptr] [ptr null, ptr @_ZTIN5boost16exception_detail10clone_implINS0_19error_info_injectorINS_17bad_function_callEEEEE, ptr @_ZN5boost16exception_detail10clone_implINS0_19error_info_injectorINS_17bad_function_callEEEED2Ev, ptr @_ZN5boost16exception_detail10clone_implINS0_19error_info_injectorINS_17bad_function_callEEEED0Ev, ptr @_ZNKSt13runtime_error4whatEv, ptr @_ZNK5boost16exception_detail10clone_implINS0_19error_info_injectorINS_17bad_function_callEEEE5cloneEv, ptr @_ZNK5boost16exception_detail10clone_implINS0_19error_info_injectorINS_17bad_function_callEEEE7rethrowEv], [4 x ptr] [ptr inttoptr (i64 -16 to ptr), ptr @_ZTIN5boost16exception_detail10clone_implINS0_19error_info_injectorINS_17bad_function_callEEEEE, ptr @_ZThn16_N5boost16exception_detail10clone_implINS0_19error_info_injectorINS_17bad_function_callEEEED1Ev, ptr @_ZThn16_N5boost16exception_detail10clone_implINS0_19error_info_injectorINS_17bad_function_callEEEED0Ev], [6 x ptr] [ptr inttoptr (i64 -56 to ptr), ptr @_ZTIN5boost16exception_detail10clone_implINS0_19error_info_injectorINS_17bad_function_callEEEEE, ptr @_ZThn56_NK5boost16exception_detail10clone_implINS0_19error_info_injectorINS_17bad_function_callEEEE5cloneEv, ptr @_ZThn56_NK5boost16exception_detail10clone_implINS0_19error_info_injectorINS_17bad_function_callEEEE7rethrowEv, ptr @_ZThn56_N5boost16exception_detail10clone_implINS0_19error_info_injectorINS_17bad_function_callEEEED1Ev, ptr @_ZThn56_N5boost16exception_detail10clone_implINS0_19error_info_injectorINS_17bad_function_callEEEED0Ev] }, comdat, align 8
@_ZTVN5boost16exception_detail19error_info_injectorINS_17bad_function_callEEE = linkonce_odr dso_local unnamed_addr constant { [5 x ptr], [4 x ptr] } { [5 x ptr] [ptr null, ptr @_ZTIN5boost16exception_detail19error_info_injectorINS_17bad_function_callEEE, ptr @_ZN5boost16exception_detail19error_info_injectorINS_17bad_function_callEED2Ev, ptr @_ZN5boost16exception_detail19error_info_injectorINS_17bad_function_callEED0Ev, ptr @_ZNKSt13runtime_error4whatEv], [4 x ptr] [ptr inttoptr (i64 -16 to ptr), ptr @_ZTIN5boost16exception_detail19error_info_injectorINS_17bad_function_callEEE, ptr @_ZThn16_N5boost16exception_detail19error_info_injectorINS_17bad_function_callEED1Ev, ptr @_ZThn16_N5boost16exception_detail19error_info_injectorINS_17bad_function_callEED0Ev] }, comdat, align 8
@_ZTVN5boost17bad_function_callE = linkonce_odr dso_local unnamed_addr constant { [5 x ptr] } { [5 x ptr] [ptr null, ptr @_ZTIN5boost17bad_function_callE, ptr @_ZNSt13runtime_errorD2Ev, ptr @_ZN5boost17bad_function_callD0Ev, ptr @_ZNKSt13runtime_error4whatEv] }, comdat, align 8
@_ZTVN5boost9exceptionE = linkonce_odr dso_local unnamed_addr constant { [4 x ptr] } { [4 x ptr] [ptr null, ptr @_ZTIN5boost9exceptionE, ptr @__cxa_pure_virtual, ptr @__cxa_pure_virtual] }, comdat, align 8
@.str.11 = private unnamed_addr constant [30 x i8] c"call to empty boost::function\00", align 1
@_ZTVN5boost6detail17sp_counted_impl_pIN6dealii7Threads8internal16ThreadDescriptorIvEEEE = linkonce_odr dso_local unnamed_addr constant { [7 x ptr] } { [7 x ptr] [ptr null, ptr @_ZTIN5boost6detail17sp_counted_impl_pIN6dealii7Threads8internal16ThreadDescriptorIvEEEE, ptr @_ZN5boost6detail15sp_counted_baseD2Ev, ptr @_ZN5boost6detail17sp_counted_impl_pIN6dealii7Threads8internal16ThreadDescriptorIvEEED0Ev, ptr @_ZN5boost6detail17sp_counted_impl_pIN6dealii7Threads8internal16ThreadDescriptorIvEEE7disposeEv, ptr @_ZN5boost6detail15sp_counted_base7destroyEv, ptr @_ZN5boost6detail17sp_counted_impl_pIN6dealii7Threads8internal16ThreadDescriptorIvEEE11get_deleterERKSt9type_info] }, comdat, align 8
@_ZTSN5boost6detail17sp_counted_impl_pIN6dealii7Threads8internal16ThreadDescriptorIvEEEE = linkonce_odr dso_local constant [84 x i8] c"N5boost6detail17sp_counted_impl_pIN6dealii7Threads8internal16ThreadDescriptorIvEEEE\00", comdat, align 1
@_ZTSN5boost6detail15sp_counted_baseE = linkonce_odr dso_local constant [33 x i8] c"N5boost6detail15sp_counted_baseE\00", comdat, align 1
@_ZTIN5boost6detail15sp_counted_baseE = linkonce_odr dso_local constant { ptr, ptr } { ptr getelementptr inbounds (ptr, ptr @_ZTVN10__cxxabiv117__class_type_infoE, i64 2), ptr @_ZTSN5boost6detail15sp_counted_baseE }, comdat, align 8
@_ZTIN5boost6detail17sp_counted_impl_pIN6dealii7Threads8internal16ThreadDescriptorIvEEEE = linkonce_odr dso_local constant { ptr, ptr, ptr } { ptr getelementptr inbounds (ptr, ptr @_ZTVN10__cxxabiv120__si_class_type_infoE, i64 2), ptr @_ZTSN5boost6detail17sp_counted_impl_pIN6dealii7Threads8internal16ThreadDescriptorIvEEEE, ptr @_ZTIN5boost6detail15sp_counted_baseE }, comdat, align 8
@.str.13 = private unnamed_addr constant [33 x i8] c"include/base/thread_management.h\00", align 1
@.str.14 = private unnamed_addr constant [1 x i8] zeroinitializer, align 1
@.str.15 = private unnamed_addr constant [18 x i8] c"thread_descriptor\00", align 1
@.str.16 = private unnamed_addr constant [14 x i8] c"ExcNoThread()\00", align 1
@_ZTSN6dealii7Threads6ThreadIvE11ExcNoThreadE = linkonce_odr dso_local constant [41 x i8] c"N6dealii7Threads6ThreadIvE11ExcNoThreadE\00", comdat, align 1
@_ZTIN6dealii13ExceptionBaseE = external constant ptr
@_ZTIN6dealii7Threads6ThreadIvE11ExcNoThreadE = linkonce_odr dso_local constant { ptr, ptr, ptr } { ptr getelementptr inbounds (ptr, ptr @_ZTVN10__cxxabiv120__si_class_type_infoE, i64 2), ptr @_ZTSN6dealii7Threads6ThreadIvE11ExcNoThreadE, ptr @_ZTIN6dealii13ExceptionBaseE }, comdat, align 8
@_ZTVN6dealii7Threads6ThreadIvE11ExcNoThreadE = linkonce_odr dso_local unnamed_addr constant { [6 x ptr] } { [6 x ptr] [ptr null, ptr @_ZTIN6dealii7Threads6ThreadIvE11ExcNoThreadE, ptr @_ZN6dealii13ExceptionBaseD2Ev, ptr @_ZN6dealii7Threads6ThreadIvE11ExcNoThreadD0Ev, ptr @_ZNK6dealii13ExceptionBase4whatEv, ptr @_ZNK6dealii13ExceptionBase10print_infoERSo] }, comdat, align 8
@llvm.global_ctors = appending global [0 x { i32, ptr, ptr }] zeroinitializer

; Function Attrs: sspstrong uwtable
define weak_odr dso_local void @_ZN6dealii7MGTools21make_sparsity_patternILi3ENS_15SparsityPatternELi3EEEvRKNS_12MGDoFHandlerIXT_EXT1_EEERT0_j(ptr noundef nonnull align 8 dereferenceable(248) %0, ptr noundef nonnull align 8 dereferenceable(122) %1, i32 noundef %2) local_unnamed_addr #0 comdat align 2 personality ptr @__gxx_personality_v0 {
  %4 = alloca %"class.std::vector.20", align 8
  %5 = alloca %"class.dealii::TriaIterator", align 8
  %6 = alloca %"class.dealii::TriaIterator", align 8
  %7 = tail call noundef i32 @_ZNK6dealii12MGDoFHandlerILi3ELi3EE6n_dofsEj(ptr noundef nonnull align 8 dereferenceable(248) %0, i32 noundef %2)
  %8 = getelementptr inbounds %"class.dealii::DoFHandler", ptr %0, i64 0, i32 2
  %9 = load ptr, ptr %8, align 8, !tbaa !5
  %10 = getelementptr inbounds i8, ptr %9, i64 112
  %11 = load i32, ptr %10, align 8, !tbaa !10
  call void @llvm.lifetime.start.p0(i64 24, ptr nonnull %4) #17
  %12 = icmp eq i32 %11, 0
  br i1 %12, label %13, label %14

13:                                               ; preds = %3
  call void @llvm.memset.p0.i64(ptr noundef nonnull align 8 dereferenceable(24) %4, i8 0, i64 24, i1 false)
  br label %20

14:                                               ; preds = %3
  %15 = zext i32 %11 to i64
  %16 = shl nuw nsw i64 %15, 2
  %17 = tail call noalias noundef nonnull ptr @_Znwm(i64 noundef %16) #18
  store ptr %17, ptr %4, align 8, !tbaa !14
  %18 = getelementptr inbounds i32, ptr %17, i64 %15
  %19 = getelementptr inbounds %"struct.std::_Vector_base<unsigned int, std::allocator<unsigned int> >::_Vector_impl_data", ptr %4, i64 0, i32 2
  store ptr %18, ptr %19, align 8, !tbaa !16
  tail call void @llvm.memset.p0.i64(ptr nonnull align 4 %17, i8 0, i64 %16, i1 false), !tbaa !17
  br label %20

20:                                               ; preds = %14, %13
  %21 = phi ptr [ null, %13 ], [ %17, %14 ]
  %22 = phi ptr [ null, %13 ], [ %18, %14 ]
  %23 = getelementptr inbounds %"struct.std::_Vector_base<unsigned int, std::allocator<unsigned int> >::_Vector_impl_data", ptr %4, i64 0, i32 1
  store ptr %22, ptr %23, align 8, !tbaa !18
  call void @llvm.lifetime.start.p0(i64 32, ptr nonnull %5) #17
  invoke void @_ZNK6dealii12MGDoFHandlerILi3ELi3EE5beginEj(ptr nonnull sret(%"class.dealii::TriaIterator") align 8 %5, ptr noundef nonnull align 8 dereferenceable(248) %0, i32 noundef %2)
          to label %24 unwind label %142

24:                                               ; preds = %20
  call void @llvm.lifetime.start.p0(i64 32, ptr nonnull %6) #17
  invoke void @_ZNK6dealii12MGDoFHandlerILi3ELi3EE3endEj(ptr nonnull sret(%"class.dealii::TriaIterator") align 8 %6, ptr noundef nonnull align 8 dereferenceable(248) %0, i32 noundef %2)
          to label %25 unwind label %146

25:                                               ; preds = %24
  %26 = getelementptr inbounds %"class.dealii::TriaAccessorBase", ptr %5, i64 0, i32 1
  %27 = getelementptr inbounds %"class.dealii::TriaAccessorBase", ptr %6, i64 0, i32 1
  %28 = load i32, ptr %26, align 4, !tbaa !19
  %29 = load i32, ptr %27, align 4, !tbaa !19
  %30 = icmp ne i32 %28, %29
  %31 = load i32, ptr %5, align 8
  %32 = load i32, ptr %6, align 8
  %33 = icmp ne i32 %31, %32
  %34 = select i1 %30, i1 true, i1 %33
  br i1 %34, label %35, label %165

35:                                               ; preds = %25
  %36 = getelementptr inbounds %"class.dealii::TriaAccessorBase", ptr %5, i64 0, i32 2
  %37 = zext i32 %11 to i64
  br label %38

38:                                               ; preds = %35, %136
  invoke void @_ZNK6dealii17MGDoFCellAccessorILi3ELi3EE18get_mg_dof_indicesERSt6vectorIjSaIjEE(ptr noundef nonnull align 8 dereferenceable(32) %5, ptr noundef nonnull align 8 dereferenceable(24) %4)
          to label %39 unwind label %144

39:                                               ; preds = %38
  br i1 %12, label %42, label %40

40:                                               ; preds = %39, %148
  %41 = phi i64 [ %149, %148 ], [ 0, %39 ]
  br label %151

42:                                               ; preds = %148, %39
  %43 = load ptr, ptr %36, align 8, !tbaa !21
  %44 = getelementptr inbounds %"class.dealii::Triangulation", ptr %43, i64 0, i32 1
  %45 = load ptr, ptr %44, align 8, !tbaa !22
  %46 = load i32, ptr %26, align 4
  %47 = load i32, ptr %5, align 8
  %48 = ptrtoint ptr %45 to i64
  %49 = getelementptr inbounds %"class.dealii::Triangulation", ptr %43, i64 0, i32 1, i32 0, i32 0, i32 0, i32 1
  br label %50

50:                                               ; preds = %121, %42
  %51 = phi i32 [ %116, %121 ], [ %47, %42 ]
  %52 = phi i32 [ %118, %121 ], [ %47, %42 ]
  %53 = phi i32 [ %117, %121 ], [ %46, %42 ]
  %54 = add nsw i32 %53, 1
  %55 = sext i32 %52 to i64
  %56 = getelementptr inbounds ptr, ptr %45, i64 %55
  %57 = load ptr, ptr %56, align 8, !tbaa !24
  %58 = getelementptr inbounds %"class.dealii::internal::Triangulation::TriaLevel", ptr %57, i64 0, i32 4
  %59 = getelementptr inbounds %"class.dealii::internal::Triangulation::TriaLevel", ptr %57, i64 0, i32 4, i32 0, i32 0, i32 0, i32 0, i32 0, i32 1
  %60 = load ptr, ptr %59, align 8, !tbaa !25
  %61 = load ptr, ptr %58, align 8, !tbaa !27
  %62 = ptrtoint ptr %60 to i64
  %63 = ptrtoint ptr %61 to i64
  %64 = sub i64 %62, %63
  %65 = sdiv exact i64 %64, 24
  %66 = trunc i64 %65 to i32
  %67 = icmp slt i32 %54, %66
  br i1 %67, label %115, label %68

68:                                               ; preds = %50
  %69 = add nsw i64 %55, 1
  %70 = trunc i64 %69 to i32
  store i32 %70, ptr %5, align 8, !tbaa !28
  %71 = load ptr, ptr %49, align 8, !tbaa !29
  %72 = ptrtoint ptr %71 to i64
  %73 = sub i64 %72, %48
  %74 = shl i64 %73, 29
  %75 = ashr i64 %74, 32
  %76 = icmp slt i64 %69, %75
  br i1 %76, label %77, label %109

77:                                               ; preds = %68
  %78 = getelementptr inbounds ptr, ptr %45, i64 %69
  %79 = load ptr, ptr %78, align 8, !tbaa !24
  %80 = getelementptr inbounds %"class.dealii::internal::Triangulation::TriaLevel", ptr %79, i64 0, i32 4
  %81 = getelementptr inbounds %"class.dealii::internal::Triangulation::TriaLevel", ptr %79, i64 0, i32 4, i32 0, i32 0, i32 0, i32 0, i32 0, i32 1
  %82 = load ptr, ptr %81, align 8, !tbaa !25
  %83 = load ptr, ptr %80, align 8, !tbaa !27
  %84 = ptrtoint ptr %82 to i64
  %85 = ptrtoint ptr %83 to i64
  %86 = sub i64 %84, %85
  %87 = sdiv exact i64 %86, 24
  %88 = trunc i64 %87 to i32
  %89 = icmp sgt i32 %88, 0
  br i1 %89, label %111, label %103

90:                                               ; preds = %103
  %91 = getelementptr inbounds ptr, ptr %45, i64 %105
  %92 = load ptr, ptr %91, align 8, !tbaa !24
  %93 = getelementptr inbounds %"class.dealii::internal::Triangulation::TriaLevel", ptr %92, i64 0, i32 4
  %94 = getelementptr inbounds %"class.dealii::internal::Triangulation::TriaLevel", ptr %92, i64 0, i32 4, i32 0, i32 0, i32 0, i32 0, i32 0, i32 1
  %95 = load ptr, ptr %94, align 8, !tbaa !25
  %96 = load ptr, ptr %93, align 8, !tbaa !27
  %97 = ptrtoint ptr %95 to i64
  %98 = ptrtoint ptr %96 to i64
  %99 = sub i64 %97, %98
  %100 = sdiv exact i64 %99, 24
  %101 = trunc i64 %100 to i32
  %102 = icmp sgt i32 %101, 0
  br i1 %102, label %110, label %103, !llvm.loop !30

103:                                              ; preds = %77, %90
  %104 = phi i64 [ %105, %90 ], [ %69, %77 ]
  %105 = add i64 %104, 1
  %106 = trunc i64 %105 to i32
  %107 = icmp eq i64 %105, %75
  br i1 %107, label %108, label %90, !llvm.loop !30

108:                                              ; preds = %103
  store i32 %106, ptr %5, align 8, !tbaa !28
  br label %109

109:                                              ; preds = %108, %68
  store i32 -1, ptr %5, align 8, !tbaa !28
  br label %115

110:                                              ; preds = %90
  store i32 %106, ptr %5, align 8, !tbaa !28
  br label %111

111:                                              ; preds = %110, %77
  %112 = phi i32 [ %70, %77 ], [ %106, %110 ]
  %113 = phi i64 [ %69, %77 ], [ %105, %110 ]
  %114 = trunc i64 %113 to i32
  br label %115

115:                                              ; preds = %111, %109, %50
  %116 = phi i32 [ %51, %50 ], [ -1, %109 ], [ %112, %111 ]
  %117 = phi i32 [ %54, %50 ], [ -1, %109 ], [ 0, %111 ]
  %118 = phi i32 [ %52, %50 ], [ -1, %109 ], [ %114, %111 ]
  %119 = or i32 %118, %117
  %120 = icmp sgt i32 %119, -1
  br i1 %120, label %121, label %136

121:                                              ; preds = %115
  %122 = zext i32 %118 to i64
  %123 = getelementptr inbounds ptr, ptr %45, i64 %122
  %124 = load ptr, ptr %123, align 8, !tbaa !24
  %125 = getelementptr inbounds %"class.dealii::internal::Triangulation::TriaLevel", ptr %124, i64 0, i32 4, i32 0, i32 3
  %126 = load ptr, ptr %125, align 8, !tbaa !32
  %127 = lshr i32 %117, 6
  %128 = zext i32 %127 to i64
  %129 = getelementptr inbounds i64, ptr %126, i64 %128
  %130 = and i32 %117, 63
  %131 = zext i32 %130 to i64
  %132 = shl nuw i64 1, %131
  %133 = load i64, ptr %129, align 8, !tbaa !34
  %134 = and i64 %133, %132
  %135 = icmp eq i64 %134, 0
  br i1 %135, label %50, label %136

136:                                              ; preds = %115, %121
  store i32 %117, ptr %26, align 4, !tbaa !19
  %137 = load i32, ptr %27, align 4, !tbaa !19
  %138 = icmp ne i32 %117, %137
  %139 = load i32, ptr %6, align 8
  %140 = icmp ne i32 %116, %139
  %141 = select i1 %138, i1 true, i1 %140
  br i1 %141, label %38, label %163

142:                                              ; preds = %20
  %143 = landingpad { ptr, i32 }
          cleanup
  br label %173

144:                                              ; preds = %38
  %145 = landingpad { ptr, i32 }
          cleanup
  br label %170

146:                                              ; preds = %24
  %147 = landingpad { ptr, i32 }
          cleanup
  br label %170

148:                                              ; preds = %158
  %149 = add nuw nsw i64 %41, 1
  %150 = icmp eq i64 %149, %37
  br i1 %150, label %42, label %40

151:                                              ; preds = %40, %158
  %152 = phi i64 [ 0, %40 ], [ %159, %158 ]
  %153 = load ptr, ptr %4, align 8, !tbaa !14
  %154 = getelementptr inbounds i32, ptr %153, i64 %41
  %155 = load i32, ptr %154, align 4, !tbaa !17
  %156 = getelementptr inbounds i32, ptr %153, i64 %152
  %157 = load i32, ptr %156, align 4, !tbaa !17
  invoke void @_ZN6dealii15SparsityPattern3addEjj(ptr noundef nonnull align 8 dereferenceable(122) %1, i32 noundef %155, i32 noundef %157)
          to label %158 unwind label %161

158:                                              ; preds = %151
  %159 = add nuw nsw i64 %152, 1
  %160 = icmp eq i64 %159, %37
  br i1 %160, label %148, label %151

161:                                              ; preds = %151
  %162 = landingpad { ptr, i32 }
          cleanup
  br label %170

163:                                              ; preds = %136
  %164 = load ptr, ptr %4, align 8, !tbaa !14
  br label %165

165:                                              ; preds = %163, %25
  %166 = phi ptr [ %164, %163 ], [ %21, %25 ]
  call void @llvm.lifetime.end.p0(i64 32, ptr nonnull %6) #17
  call void @llvm.lifetime.end.p0(i64 32, ptr nonnull %5) #17
  %167 = icmp eq ptr %166, null
  br i1 %167, label %169, label %168

168:                                              ; preds = %165
  call void @_ZdlPv(ptr noundef nonnull %166) #19
  br label %169

169:                                              ; preds = %165, %168
  call void @llvm.lifetime.end.p0(i64 24, ptr nonnull %4) #17
  ret void

170:                                              ; preds = %144, %146, %161
  %171 = phi { ptr, i32 } [ %162, %161 ], [ %145, %144 ], [ %147, %146 ]
  call void @llvm.lifetime.end.p0(i64 32, ptr nonnull %6) #17
  %172 = load ptr, ptr %4, align 8, !tbaa !14
  br label %173

173:                                              ; preds = %170, %142
  %174 = phi ptr [ %172, %170 ], [ %21, %142 ]
  %175 = phi { ptr, i32 } [ %171, %170 ], [ %143, %142 ]
  call void @llvm.lifetime.end.p0(i64 32, ptr nonnull %5) #17
  %176 = icmp eq ptr %174, null
  br i1 %176, label %178, label %177

177:                                              ; preds = %173
  call void @_ZdlPv(ptr noundef nonnull %174) #19
  br label %178

178:                                              ; preds = %177, %173
  call void @llvm.lifetime.end.p0(i64 24, ptr nonnull %4) #17
  resume { ptr, i32 } %175
}

; Function Attrs: mustprogress nocallback nofree nosync nounwind willreturn memory(argmem: readwrite)
declare void @llvm.lifetime.start.p0(i64 immarg, ptr nocapture) #1

declare noundef i32 @_ZNK6dealii12MGDoFHandlerILi3ELi3EE6n_dofsEj(ptr noundef nonnull align 8 dereferenceable(248), i32 noundef) local_unnamed_addr #2

declare i32 @__gxx_personality_v0(...)

; Function Attrs: mustprogress nocallback nofree nosync nounwind willreturn memory(argmem: readwrite)
declare void @llvm.lifetime.end.p0(i64 immarg, ptr nocapture) #1

declare void @_ZNK6dealii12MGDoFHandlerILi3ELi3EE5beginEj(ptr sret(%"class.dealii::TriaIterator") align 8, ptr noundef nonnull align 8 dereferenceable(248), i32 noundef) local_unnamed_addr #2

declare void @_ZNK6dealii12MGDoFHandlerILi3ELi3EE3endEj(ptr sret(%"class.dealii::TriaIterator") align 8, ptr noundef nonnull align 8 dereferenceable(248), i32 noundef) local_unnamed_addr #2

declare void @_ZNK6dealii17MGDoFCellAccessorILi3ELi3EE18get_mg_dof_indicesERSt6vectorIjSaIjEE(ptr noundef nonnull align 8 dereferenceable(32), ptr noundef nonnull align 8 dereferenceable(24)) local_unnamed_addr #2

declare void @_ZN6dealii15SparsityPattern3addEjj(ptr noundef nonnull align 8 dereferenceable(122), i32 noundef, i32 noundef) local_unnamed_addr #2

; Function Attrs: noinline noreturn nounwind sspstrong uwtable
define linkonce_odr hidden void @__clang_call_terminate(ptr noundef %0) local_unnamed_addr #3 comdat {
  %2 = tail call ptr @__cxa_begin_catch(ptr %0) #17
  tail call void @_ZSt9terminatev() #20
  unreachable
}

declare ptr @__cxa_begin_catch(ptr) local_unnamed_addr

declare void @_ZSt9terminatev() local_unnamed_addr

; Function Attrs: sspstrong uwtable
define weak_odr dso_local void @_ZN6dealii7MGTools26make_flux_sparsity_patternILi3ENS_15SparsityPatternELi3EEEvRKNS_12MGDoFHandlerIXT_EXT1_EEERT0_j(ptr noundef nonnull align 8 dereferenceable(248) %0, ptr noundef nonnull align 8 dereferenceable(122) %1, i32 noundef %2) local_unnamed_addr #0 comdat align 2 personality ptr @__gxx_personality_v0 {
  %4 = alloca %"class.std::vector.20", align 8
  %5 = alloca %"class.std::vector.20", align 8
  %6 = alloca %"class.dealii::TriaIterator", align 8
  %7 = alloca %"class.dealii::TriaIterator", align 8
  %8 = alloca %"class.dealii::TriaIterator", align 8
  %9 = tail call noundef i32 @_ZNK6dealii12MGDoFHandlerILi3ELi3EE6n_dofsEj(ptr noundef nonnull align 8 dereferenceable(248) %0, i32 noundef %2)
  %10 = getelementptr inbounds %"class.dealii::DoFHandler", ptr %0, i64 0, i32 2
  %11 = load ptr, ptr %10, align 8, !tbaa !5
  %12 = getelementptr inbounds i8, ptr %11, i64 112
  %13 = load i32, ptr %12, align 8, !tbaa !10
  call void @llvm.lifetime.start.p0(i64 24, ptr nonnull %4) #17
  %14 = zext i32 %13 to i64
  %15 = icmp eq i32 %13, 0
  br i1 %15, label %16, label %17

16:                                               ; preds = %3
  call void @llvm.memset.p0.i64(ptr noundef nonnull align 8 dereferenceable(24) %4, i8 0, i64 24, i1 false)
  call void @llvm.lifetime.start.p0(i64 24, ptr nonnull %5) #17
  call void @llvm.memset.p0.i64(ptr noundef nonnull align 8 dereferenceable(24) %5, i8 0, i64 24, i1 false)
  br label %27

17:                                               ; preds = %3
  %18 = shl nuw nsw i64 %14, 2
  %19 = tail call noalias noundef nonnull ptr @_Znwm(i64 noundef %18) #18
  store ptr %19, ptr %4, align 8, !tbaa !14
  %20 = getelementptr inbounds i32, ptr %19, i64 %14
  %21 = getelementptr inbounds %"struct.std::_Vector_base<unsigned int, std::allocator<unsigned int> >::_Vector_impl_data", ptr %4, i64 0, i32 2
  store ptr %20, ptr %21, align 8, !tbaa !16
  tail call void @llvm.memset.p0.i64(ptr nonnull align 4 %19, i8 0, i64 %18, i1 false), !tbaa !17
  %22 = getelementptr inbounds %"struct.std::_Vector_base<unsigned int, std::allocator<unsigned int> >::_Vector_impl_data", ptr %4, i64 0, i32 1
  store ptr %20, ptr %22, align 8, !tbaa !18
  call void @llvm.lifetime.start.p0(i64 24, ptr nonnull %5) #17
  %23 = invoke noalias noundef nonnull ptr @_Znwm(i64 noundef %18) #18
          to label %24 unwind label %49

24:                                               ; preds = %17
  store ptr %23, ptr %5, align 8, !tbaa !14
  %25 = getelementptr inbounds i32, ptr %23, i64 %14
  %26 = getelementptr inbounds %"struct.std::_Vector_base<unsigned int, std::allocator<unsigned int> >::_Vector_impl_data", ptr %5, i64 0, i32 2
  store ptr %25, ptr %26, align 8, !tbaa !16
  tail call void @llvm.memset.p0.i64(ptr nonnull align 4 %23, i8 0, i64 %18, i1 false), !tbaa !17
  br label %27

27:                                               ; preds = %24, %16
  %28 = phi ptr [ null, %16 ], [ %25, %24 ]
  %29 = getelementptr inbounds %"struct.std::_Vector_base<unsigned int, std::allocator<unsigned int> >::_Vector_impl_data", ptr %5, i64 0, i32 1
  store ptr %28, ptr %29, align 8, !tbaa !18
  call void @llvm.lifetime.start.p0(i64 32, ptr nonnull %6) #17
  invoke void @_ZNK6dealii12MGDoFHandlerILi3ELi3EE5beginEj(ptr nonnull sret(%"class.dealii::TriaIterator") align 8 %6, ptr noundef nonnull align 8 dereferenceable(248) %0, i32 noundef %2)
          to label %30 unwind label %51

30:                                               ; preds = %27
  call void @llvm.lifetime.start.p0(i64 32, ptr nonnull %7) #17
  invoke void @_ZNK6dealii12MGDoFHandlerILi3ELi3EE3endEj(ptr nonnull sret(%"class.dealii::TriaIterator") align 8 %7, ptr noundef nonnull align 8 dereferenceable(248) %0, i32 noundef %2)
          to label %31 unwind label %55

31:                                               ; preds = %30
  %32 = getelementptr inbounds %"class.dealii::TriaAccessorBase", ptr %6, i64 0, i32 1
  %33 = getelementptr inbounds %"class.dealii::TriaAccessorBase", ptr %7, i64 0, i32 1
  %34 = load i32, ptr %32, align 4, !tbaa !19
  %35 = load i32, ptr %33, align 4, !tbaa !19
  %36 = icmp ne i32 %34, %35
  %37 = load i32, ptr %6, align 8
  %38 = load i32, ptr %7, align 8
  %39 = icmp ne i32 %37, %38
  %40 = select i1 %36, i1 true, i1 %39
  br i1 %40, label %41, label %430

41:                                               ; preds = %31
  %42 = getelementptr inbounds %"class.dealii::TriaAccessorBase", ptr %6, i64 0, i32 2
  br label %43

43:                                               ; preds = %41, %158
  invoke void @_ZNK6dealii17MGDoFCellAccessorILi3ELi3EE18get_mg_dof_indicesERSt6vectorIjSaIjEE(ptr noundef nonnull align 8 dereferenceable(32) %6, ptr noundef nonnull align 8 dereferenceable(24) %4)
          to label %44 unwind label %53

44:                                               ; preds = %43
  br i1 %15, label %45, label %47

45:                                               ; preds = %57, %44
  %46 = invoke noundef zeroext i1 @_ZNK6dealii12CellAccessorILi3ELi3EE11at_boundaryEj(ptr noundef nonnull align 8 dereferenceable(16) %6, i32 noundef 0)
          to label %164 unwind label %187

47:                                               ; preds = %44, %57
  %48 = phi i64 [ %58, %57 ], [ 0, %44 ]
  br label %60

49:                                               ; preds = %17
  %50 = landingpad { ptr, i32 }
          cleanup
  br label %446

51:                                               ; preds = %27
  %52 = landingpad { ptr, i32 }
          cleanup
  br label %441

53:                                               ; preds = %43
  %54 = landingpad { ptr, i32 }
          cleanup
  br label %439

55:                                               ; preds = %30
  %56 = landingpad { ptr, i32 }
          cleanup
  br label %439

57:                                               ; preds = %67
  %58 = add nuw nsw i64 %48, 1
  %59 = icmp eq i64 %58, %14
  br i1 %59, label %45, label %47

60:                                               ; preds = %47, %67
  %61 = phi i64 [ 0, %47 ], [ %68, %67 ]
  %62 = load ptr, ptr %4, align 8, !tbaa !14
  %63 = getelementptr inbounds i32, ptr %62, i64 %48
  %64 = load i32, ptr %63, align 4, !tbaa !17
  %65 = getelementptr inbounds i32, ptr %62, i64 %61
  %66 = load i32, ptr %65, align 4, !tbaa !17
  invoke void @_ZN6dealii15SparsityPattern3addEjj(ptr noundef nonnull align 8 dereferenceable(122) %1, i32 noundef %64, i32 noundef %66)
          to label %67 unwind label %70

67:                                               ; preds = %60
  %68 = add nuw nsw i64 %61, 1
  %69 = icmp eq i64 %68, %14
  br i1 %69, label %57, label %60

70:                                               ; preds = %60
  %71 = landingpad { ptr, i32 }
          cleanup
  br label %439

72:                                               ; preds = %143, %422
  %73 = phi i32 [ %138, %143 ], [ %423, %422 ]
  %74 = phi i32 [ %140, %143 ], [ %423, %422 ]
  %75 = phi i32 [ %139, %143 ], [ %424, %422 ]
  %76 = add nsw i32 %75, 1
  %77 = sext i32 %74 to i64
  %78 = getelementptr inbounds ptr, ptr %427, i64 %77
  %79 = load ptr, ptr %78, align 8, !tbaa !24
  %80 = getelementptr inbounds %"class.dealii::internal::Triangulation::TriaLevel", ptr %79, i64 0, i32 4
  %81 = getelementptr inbounds %"class.dealii::internal::Triangulation::TriaLevel", ptr %79, i64 0, i32 4, i32 0, i32 0, i32 0, i32 0, i32 0, i32 1
  %82 = load ptr, ptr %81, align 8, !tbaa !25
  %83 = load ptr, ptr %80, align 8, !tbaa !27
  %84 = ptrtoint ptr %82 to i64
  %85 = ptrtoint ptr %83 to i64
  %86 = sub i64 %84, %85
  %87 = sdiv exact i64 %86, 24
  %88 = trunc i64 %87 to i32
  %89 = icmp slt i32 %76, %88
  br i1 %89, label %137, label %90

90:                                               ; preds = %72
  %91 = add nsw i64 %77, 1
  %92 = trunc i64 %91 to i32
  store i32 %92, ptr %6, align 8, !tbaa !28
  %93 = load ptr, ptr %429, align 8, !tbaa !29
  %94 = ptrtoint ptr %93 to i64
  %95 = sub i64 %94, %428
  %96 = shl i64 %95, 29
  %97 = ashr i64 %96, 32
  %98 = icmp slt i64 %91, %97
  br i1 %98, label %99, label %131

99:                                               ; preds = %90
  %100 = getelementptr inbounds ptr, ptr %427, i64 %91
  %101 = load ptr, ptr %100, align 8, !tbaa !24
  %102 = getelementptr inbounds %"class.dealii::internal::Triangulation::TriaLevel", ptr %101, i64 0, i32 4
  %103 = getelementptr inbounds %"class.dealii::internal::Triangulation::TriaLevel", ptr %101, i64 0, i32 4, i32 0, i32 0, i32 0, i32 0, i32 0, i32 1
  %104 = load ptr, ptr %103, align 8, !tbaa !25
  %105 = load ptr, ptr %102, align 8, !tbaa !27
  %106 = ptrtoint ptr %104 to i64
  %107 = ptrtoint ptr %105 to i64
  %108 = sub i64 %106, %107
  %109 = sdiv exact i64 %108, 24
  %110 = trunc i64 %109 to i32
  %111 = icmp sgt i32 %110, 0
  br i1 %111, label %133, label %125

112:                                              ; preds = %125
  %113 = getelementptr inbounds ptr, ptr %427, i64 %127
  %114 = load ptr, ptr %113, align 8, !tbaa !24
  %115 = getelementptr inbounds %"class.dealii::internal::Triangulation::TriaLevel", ptr %114, i64 0, i32 4
  %116 = getelementptr inbounds %"class.dealii::internal::Triangulation::TriaLevel", ptr %114, i64 0, i32 4, i32 0, i32 0, i32 0, i32 0, i32 0, i32 1
  %117 = load ptr, ptr %116, align 8, !tbaa !25
  %118 = load ptr, ptr %115, align 8, !tbaa !27
  %119 = ptrtoint ptr %117 to i64
  %120 = ptrtoint ptr %118 to i64
  %121 = sub i64 %119, %120
  %122 = sdiv exact i64 %121, 24
  %123 = trunc i64 %122 to i32
  %124 = icmp sgt i32 %123, 0
  br i1 %124, label %132, label %125, !llvm.loop !30

125:                                              ; preds = %99, %112
  %126 = phi i64 [ %127, %112 ], [ %91, %99 ]
  %127 = add i64 %126, 1
  %128 = trunc i64 %127 to i32
  %129 = icmp eq i64 %127, %97
  br i1 %129, label %130, label %112, !llvm.loop !30

130:                                              ; preds = %125
  store i32 %128, ptr %6, align 8, !tbaa !28
  br label %131

131:                                              ; preds = %130, %90
  store i32 -1, ptr %6, align 8, !tbaa !28
  br label %137

132:                                              ; preds = %112
  store i32 %128, ptr %6, align 8, !tbaa !28
  br label %133

133:                                              ; preds = %132, %99
  %134 = phi i32 [ %92, %99 ], [ %128, %132 ]
  %135 = phi i64 [ %91, %99 ], [ %127, %132 ]
  %136 = trunc i64 %135 to i32
  br label %137

137:                                              ; preds = %133, %131, %72
  %138 = phi i32 [ %73, %72 ], [ -1, %131 ], [ %134, %133 ]
  %139 = phi i32 [ %76, %72 ], [ -1, %131 ], [ 0, %133 ]
  %140 = phi i32 [ %74, %72 ], [ -1, %131 ], [ %136, %133 ]
  %141 = or i32 %140, %139
  %142 = icmp sgt i32 %141, -1
  br i1 %142, label %143, label %158

143:                                              ; preds = %137
  %144 = zext i32 %140 to i64
  %145 = getelementptr inbounds ptr, ptr %427, i64 %144
  %146 = load ptr, ptr %145, align 8, !tbaa !24
  %147 = getelementptr inbounds %"class.dealii::internal::Triangulation::TriaLevel", ptr %146, i64 0, i32 4, i32 0, i32 3
  %148 = load ptr, ptr %147, align 8, !tbaa !32
  %149 = lshr i32 %139, 6
  %150 = zext i32 %149 to i64
  %151 = getelementptr inbounds i64, ptr %148, i64 %150
  %152 = and i32 %139, 63
  %153 = zext i32 %152 to i64
  %154 = shl nuw i64 1, %153
  %155 = load i64, ptr %151, align 8, !tbaa !34
  %156 = and i64 %155, %154
  %157 = icmp eq i64 %156, 0
  br i1 %157, label %72, label %158

158:                                              ; preds = %137, %143
  store i32 %139, ptr %32, align 4, !tbaa !19
  %159 = load i32, ptr %33, align 4, !tbaa !19
  %160 = icmp ne i32 %139, %159
  %161 = load i32, ptr %7, align 8
  %162 = icmp ne i32 %138, %161
  %163 = select i1 %160, i1 true, i1 %162
  br i1 %163, label %43, label %430

164:                                              ; preds = %45
  br i1 %46, label %219, label %165

165:                                              ; preds = %164
  %166 = load ptr, ptr %42, align 8, !tbaa !21
  %167 = getelementptr inbounds %"class.dealii::Triangulation", ptr %166, i64 0, i32 1
  %168 = load i32, ptr %6, align 8, !tbaa !28
  %169 = sext i32 %168 to i64
  %170 = load ptr, ptr %167, align 8, !tbaa !22
  %171 = getelementptr inbounds ptr, ptr %170, i64 %169
  %172 = load ptr, ptr %171, align 8, !tbaa !24
  %173 = getelementptr inbounds %"class.dealii::internal::Triangulation::TriaLevel", ptr %172, i64 0, i32 2
  %174 = load i32, ptr %32, align 4, !tbaa !19
  %175 = mul i32 %174, 6
  %176 = zext i32 %175 to i64
  %177 = load ptr, ptr %173, align 8, !tbaa !36
  %178 = getelementptr inbounds %"struct.std::pair.234", ptr %177, i64 %176
  %179 = load i32, ptr %178, align 4, !tbaa !38
  %180 = icmp eq i32 %179, %2
  br i1 %180, label %181, label %219

181:                                              ; preds = %165
  call void @llvm.lifetime.start.p0(i64 32, ptr nonnull %8) #17
  invoke void @_ZNK6dealii17MGDoFCellAccessorILi3ELi3EE8neighborEj(ptr nonnull sret(%"class.dealii::TriaIterator") align 8 %8, ptr noundef nonnull align 8 dereferenceable(32) %6, i32 noundef 0)
          to label %182 unwind label %189

182:                                              ; preds = %181
  invoke void @_ZNK6dealii17MGDoFCellAccessorILi3ELi3EE18get_mg_dof_indicesERSt6vectorIjSaIjEE(ptr noundef nonnull align 8 dereferenceable(32) %8, ptr noundef nonnull align 8 dereferenceable(24) %5)
          to label %183 unwind label %189

183:                                              ; preds = %182
  br i1 %15, label %186, label %184

184:                                              ; preds = %183, %191
  %185 = phi i64 [ %192, %191 ], [ 0, %183 ]
  br label %194

186:                                              ; preds = %191, %183
  call void @llvm.lifetime.end.p0(i64 32, ptr nonnull %8) #17
  br label %219

187:                                              ; preds = %379, %339, %299, %259, %219, %45
  %188 = landingpad { ptr, i32 }
          cleanup
  br label %439

189:                                              ; preds = %400, %399, %360, %359, %320, %319, %280, %279, %240, %239, %182, %181
  %190 = landingpad { ptr, i32 }
          cleanup
  br label %217

191:                                              ; preds = %202
  %192 = add nuw nsw i64 %185, 1
  %193 = icmp eq i64 %192, %14
  br i1 %193, label %186, label %184

194:                                              ; preds = %184, %202
  %195 = phi i64 [ 0, %184 ], [ %203, %202 ]
  %196 = load ptr, ptr %4, align 8, !tbaa !14
  %197 = getelementptr inbounds i32, ptr %196, i64 %185
  %198 = load i32, ptr %197, align 4, !tbaa !17
  %199 = load ptr, ptr %5, align 8, !tbaa !14
  %200 = getelementptr inbounds i32, ptr %199, i64 %195
  %201 = load i32, ptr %200, align 4, !tbaa !17
  invoke void @_ZN6dealii15SparsityPattern3addEjj(ptr noundef nonnull align 8 dereferenceable(122) %1, i32 noundef %198, i32 noundef %201)
          to label %202 unwind label %205

202:                                              ; preds = %194
  %203 = add nuw nsw i64 %195, 1
  %204 = icmp eq i64 %203, %14
  br i1 %204, label %191, label %194

205:                                              ; preds = %194
  %206 = landingpad { ptr, i32 }
          cleanup
  br label %217

207:                                              ; preds = %244
  %208 = landingpad { ptr, i32 }
          cleanup
  br label %217

209:                                              ; preds = %284
  %210 = landingpad { ptr, i32 }
          cleanup
  br label %217

211:                                              ; preds = %324
  %212 = landingpad { ptr, i32 }
          cleanup
  br label %217

213:                                              ; preds = %364
  %214 = landingpad { ptr, i32 }
          cleanup
  br label %217

215:                                              ; preds = %404
  %216 = landingpad { ptr, i32 }
          cleanup
  br label %217

217:                                              ; preds = %205, %209, %213, %215, %211, %207, %189
  %218 = phi { ptr, i32 } [ %190, %189 ], [ %206, %205 ], [ %208, %207 ], [ %210, %209 ], [ %212, %211 ], [ %214, %213 ], [ %216, %215 ]
  call void @llvm.lifetime.end.p0(i64 32, ptr nonnull %8) #17
  br label %439

219:                                              ; preds = %164, %165, %186
  %220 = invoke noundef zeroext i1 @_ZNK6dealii12CellAccessorILi3ELi3EE11at_boundaryEj(ptr noundef nonnull align 8 dereferenceable(16) %6, i32 noundef 1)
          to label %221 unwind label %187

221:                                              ; preds = %219
  br i1 %220, label %259, label %222

222:                                              ; preds = %221
  %223 = load ptr, ptr %42, align 8, !tbaa !21
  %224 = getelementptr inbounds %"class.dealii::Triangulation", ptr %223, i64 0, i32 1
  %225 = load i32, ptr %6, align 8, !tbaa !28
  %226 = sext i32 %225 to i64
  %227 = load ptr, ptr %224, align 8, !tbaa !22
  %228 = getelementptr inbounds ptr, ptr %227, i64 %226
  %229 = load ptr, ptr %228, align 8, !tbaa !24
  %230 = getelementptr inbounds %"class.dealii::internal::Triangulation::TriaLevel", ptr %229, i64 0, i32 2
  %231 = load i32, ptr %32, align 4, !tbaa !19
  %232 = mul i32 %231, 6
  %233 = or i32 %232, 1
  %234 = zext i32 %233 to i64
  %235 = load ptr, ptr %230, align 8, !tbaa !36
  %236 = getelementptr inbounds %"struct.std::pair.234", ptr %235, i64 %234
  %237 = load i32, ptr %236, align 4, !tbaa !38
  %238 = icmp eq i32 %237, %2
  br i1 %238, label %239, label %259

239:                                              ; preds = %222
  call void @llvm.lifetime.start.p0(i64 32, ptr nonnull %8) #17
  invoke void @_ZNK6dealii17MGDoFCellAccessorILi3ELi3EE8neighborEj(ptr nonnull sret(%"class.dealii::TriaIterator") align 8 %8, ptr noundef nonnull align 8 dereferenceable(32) %6, i32 noundef 1)
          to label %240 unwind label %189

240:                                              ; preds = %239
  invoke void @_ZNK6dealii17MGDoFCellAccessorILi3ELi3EE18get_mg_dof_indicesERSt6vectorIjSaIjEE(ptr noundef nonnull align 8 dereferenceable(32) %8, ptr noundef nonnull align 8 dereferenceable(24) %5)
          to label %241 unwind label %189

241:                                              ; preds = %240
  br i1 %15, label %258, label %242

242:                                              ; preds = %241, %255
  %243 = phi i64 [ %256, %255 ], [ 0, %241 ]
  br label %244

244:                                              ; preds = %252, %242
  %245 = phi i64 [ 0, %242 ], [ %253, %252 ]
  %246 = load ptr, ptr %4, align 8, !tbaa !14
  %247 = getelementptr inbounds i32, ptr %246, i64 %243
  %248 = load i32, ptr %247, align 4, !tbaa !17
  %249 = load ptr, ptr %5, align 8, !tbaa !14
  %250 = getelementptr inbounds i32, ptr %249, i64 %245
  %251 = load i32, ptr %250, align 4, !tbaa !17
  invoke void @_ZN6dealii15SparsityPattern3addEjj(ptr noundef nonnull align 8 dereferenceable(122) %1, i32 noundef %248, i32 noundef %251)
          to label %252 unwind label %207

252:                                              ; preds = %244
  %253 = add nuw nsw i64 %245, 1
  %254 = icmp eq i64 %253, %14
  br i1 %254, label %255, label %244

255:                                              ; preds = %252
  %256 = add nuw nsw i64 %243, 1
  %257 = icmp eq i64 %256, %14
  br i1 %257, label %258, label %242

258:                                              ; preds = %255, %241
  call void @llvm.lifetime.end.p0(i64 32, ptr nonnull %8) #17
  br label %259

259:                                              ; preds = %258, %222, %221
  %260 = invoke noundef zeroext i1 @_ZNK6dealii12CellAccessorILi3ELi3EE11at_boundaryEj(ptr noundef nonnull align 8 dereferenceable(16) %6, i32 noundef 2)
          to label %261 unwind label %187

261:                                              ; preds = %259
  br i1 %260, label %299, label %262

262:                                              ; preds = %261
  %263 = load ptr, ptr %42, align 8, !tbaa !21
  %264 = getelementptr inbounds %"class.dealii::Triangulation", ptr %263, i64 0, i32 1
  %265 = load i32, ptr %6, align 8, !tbaa !28
  %266 = sext i32 %265 to i64
  %267 = load ptr, ptr %264, align 8, !tbaa !22
  %268 = getelementptr inbounds ptr, ptr %267, i64 %266
  %269 = load ptr, ptr %268, align 8, !tbaa !24
  %270 = getelementptr inbounds %"class.dealii::internal::Triangulation::TriaLevel", ptr %269, i64 0, i32 2
  %271 = load i32, ptr %32, align 4, !tbaa !19
  %272 = mul i32 %271, 6
  %273 = add i32 %272, 2
  %274 = zext i32 %273 to i64
  %275 = load ptr, ptr %270, align 8, !tbaa !36
  %276 = getelementptr inbounds %"struct.std::pair.234", ptr %275, i64 %274
  %277 = load i32, ptr %276, align 4, !tbaa !38
  %278 = icmp eq i32 %277, %2
  br i1 %278, label %279, label %299

279:                                              ; preds = %262
  call void @llvm.lifetime.start.p0(i64 32, ptr nonnull %8) #17
  invoke void @_ZNK6dealii17MGDoFCellAccessorILi3ELi3EE8neighborEj(ptr nonnull sret(%"class.dealii::TriaIterator") align 8 %8, ptr noundef nonnull align 8 dereferenceable(32) %6, i32 noundef 2)
          to label %280 unwind label %189

280:                                              ; preds = %279
  invoke void @_ZNK6dealii17MGDoFCellAccessorILi3ELi3EE18get_mg_dof_indicesERSt6vectorIjSaIjEE(ptr noundef nonnull align 8 dereferenceable(32) %8, ptr noundef nonnull align 8 dereferenceable(24) %5)
          to label %281 unwind label %189

281:                                              ; preds = %280
  br i1 %15, label %298, label %282

282:                                              ; preds = %281, %295
  %283 = phi i64 [ %296, %295 ], [ 0, %281 ]
  br label %284

284:                                              ; preds = %292, %282
  %285 = phi i64 [ 0, %282 ], [ %293, %292 ]
  %286 = load ptr, ptr %4, align 8, !tbaa !14
  %287 = getelementptr inbounds i32, ptr %286, i64 %283
  %288 = load i32, ptr %287, align 4, !tbaa !17
  %289 = load ptr, ptr %5, align 8, !tbaa !14
  %290 = getelementptr inbounds i32, ptr %289, i64 %285
  %291 = load i32, ptr %290, align 4, !tbaa !17
  invoke void @_ZN6dealii15SparsityPattern3addEjj(ptr noundef nonnull align 8 dereferenceable(122) %1, i32 noundef %288, i32 noundef %291)
          to label %292 unwind label %209

292:                                              ; preds = %284
  %293 = add nuw nsw i64 %285, 1
  %294 = icmp eq i64 %293, %14
  br i1 %294, label %295, label %284

295:                                              ; preds = %292
  %296 = add nuw nsw i64 %283, 1
  %297 = icmp eq i64 %296, %14
  br i1 %297, label %298, label %282

298:                                              ; preds = %295, %281
  call void @llvm.lifetime.end.p0(i64 32, ptr nonnull %8) #17
  br label %299

299:                                              ; preds = %298, %262, %261
  %300 = invoke noundef zeroext i1 @_ZNK6dealii12CellAccessorILi3ELi3EE11at_boundaryEj(ptr noundef nonnull align 8 dereferenceable(16) %6, i32 noundef 3)
          to label %301 unwind label %187

301:                                              ; preds = %299
  br i1 %300, label %339, label %302

302:                                              ; preds = %301
  %303 = load ptr, ptr %42, align 8, !tbaa !21
  %304 = getelementptr inbounds %"class.dealii::Triangulation", ptr %303, i64 0, i32 1
  %305 = load i32, ptr %6, align 8, !tbaa !28
  %306 = sext i32 %305 to i64
  %307 = load ptr, ptr %304, align 8, !tbaa !22
  %308 = getelementptr inbounds ptr, ptr %307, i64 %306
  %309 = load ptr, ptr %308, align 8, !tbaa !24
  %310 = getelementptr inbounds %"class.dealii::internal::Triangulation::TriaLevel", ptr %309, i64 0, i32 2
  %311 = load i32, ptr %32, align 4, !tbaa !19
  %312 = mul i32 %311, 6
  %313 = add i32 %312, 3
  %314 = zext i32 %313 to i64
  %315 = load ptr, ptr %310, align 8, !tbaa !36
  %316 = getelementptr inbounds %"struct.std::pair.234", ptr %315, i64 %314
  %317 = load i32, ptr %316, align 4, !tbaa !38
  %318 = icmp eq i32 %317, %2
  br i1 %318, label %319, label %339

319:                                              ; preds = %302
  call void @llvm.lifetime.start.p0(i64 32, ptr nonnull %8) #17
  invoke void @_ZNK6dealii17MGDoFCellAccessorILi3ELi3EE8neighborEj(ptr nonnull sret(%"class.dealii::TriaIterator") align 8 %8, ptr noundef nonnull align 8 dereferenceable(32) %6, i32 noundef 3)
          to label %320 unwind label %189

320:                                              ; preds = %319
  invoke void @_ZNK6dealii17MGDoFCellAccessorILi3ELi3EE18get_mg_dof_indicesERSt6vectorIjSaIjEE(ptr noundef nonnull align 8 dereferenceable(32) %8, ptr noundef nonnull align 8 dereferenceable(24) %5)
          to label %321 unwind label %189

321:                                              ; preds = %320
  br i1 %15, label %338, label %322

322:                                              ; preds = %321, %335
  %323 = phi i64 [ %336, %335 ], [ 0, %321 ]
  br label %324

324:                                              ; preds = %332, %322
  %325 = phi i64 [ 0, %322 ], [ %333, %332 ]
  %326 = load ptr, ptr %4, align 8, !tbaa !14
  %327 = getelementptr inbounds i32, ptr %326, i64 %323
  %328 = load i32, ptr %327, align 4, !tbaa !17
  %329 = load ptr, ptr %5, align 8, !tbaa !14
  %330 = getelementptr inbounds i32, ptr %329, i64 %325
  %331 = load i32, ptr %330, align 4, !tbaa !17
  invoke void @_ZN6dealii15SparsityPattern3addEjj(ptr noundef nonnull align 8 dereferenceable(122) %1, i32 noundef %328, i32 noundef %331)
          to label %332 unwind label %211

332:                                              ; preds = %324
  %333 = add nuw nsw i64 %325, 1
  %334 = icmp eq i64 %333, %14
  br i1 %334, label %335, label %324

335:                                              ; preds = %332
  %336 = add nuw nsw i64 %323, 1
  %337 = icmp eq i64 %336, %14
  br i1 %337, label %338, label %322

338:                                              ; preds = %335, %321
  call void @llvm.lifetime.end.p0(i64 32, ptr nonnull %8) #17
  br label %339

339:                                              ; preds = %338, %302, %301
  %340 = invoke noundef zeroext i1 @_ZNK6dealii12CellAccessorILi3ELi3EE11at_boundaryEj(ptr noundef nonnull align 8 dereferenceable(16) %6, i32 noundef 4)
          to label %341 unwind label %187

341:                                              ; preds = %339
  br i1 %340, label %379, label %342

342:                                              ; preds = %341
  %343 = load ptr, ptr %42, align 8, !tbaa !21
  %344 = getelementptr inbounds %"class.dealii::Triangulation", ptr %343, i64 0, i32 1
  %345 = load i32, ptr %6, align 8, !tbaa !28
  %346 = sext i32 %345 to i64
  %347 = load ptr, ptr %344, align 8, !tbaa !22
  %348 = getelementptr inbounds ptr, ptr %347, i64 %346
  %349 = load ptr, ptr %348, align 8, !tbaa !24
  %350 = getelementptr inbounds %"class.dealii::internal::Triangulation::TriaLevel", ptr %349, i64 0, i32 2
  %351 = load i32, ptr %32, align 4, !tbaa !19
  %352 = mul i32 %351, 6
  %353 = add i32 %352, 4
  %354 = zext i32 %353 to i64
  %355 = load ptr, ptr %350, align 8, !tbaa !36
  %356 = getelementptr inbounds %"struct.std::pair.234", ptr %355, i64 %354
  %357 = load i32, ptr %356, align 4, !tbaa !38
  %358 = icmp eq i32 %357, %2
  br i1 %358, label %359, label %379

359:                                              ; preds = %342
  call void @llvm.lifetime.start.p0(i64 32, ptr nonnull %8) #17
  invoke void @_ZNK6dealii17MGDoFCellAccessorILi3ELi3EE8neighborEj(ptr nonnull sret(%"class.dealii::TriaIterator") align 8 %8, ptr noundef nonnull align 8 dereferenceable(32) %6, i32 noundef 4)
          to label %360 unwind label %189

360:                                              ; preds = %359
  invoke void @_ZNK6dealii17MGDoFCellAccessorILi3ELi3EE18get_mg_dof_indicesERSt6vectorIjSaIjEE(ptr noundef nonnull align 8 dereferenceable(32) %8, ptr noundef nonnull align 8 dereferenceable(24) %5)
          to label %361 unwind label %189

361:                                              ; preds = %360
  br i1 %15, label %378, label %362

362:                                              ; preds = %361, %375
  %363 = phi i64 [ %376, %375 ], [ 0, %361 ]
  br label %364

364:                                              ; preds = %372, %362
  %365 = phi i64 [ 0, %362 ], [ %373, %372 ]
  %366 = load ptr, ptr %4, align 8, !tbaa !14
  %367 = getelementptr inbounds i32, ptr %366, i64 %363
  %368 = load i32, ptr %367, align 4, !tbaa !17
  %369 = load ptr, ptr %5, align 8, !tbaa !14
  %370 = getelementptr inbounds i32, ptr %369, i64 %365
  %371 = load i32, ptr %370, align 4, !tbaa !17
  invoke void @_ZN6dealii15SparsityPattern3addEjj(ptr noundef nonnull align 8 dereferenceable(122) %1, i32 noundef %368, i32 noundef %371)
          to label %372 unwind label %213

372:                                              ; preds = %364
  %373 = add nuw nsw i64 %365, 1
  %374 = icmp eq i64 %373, %14
  br i1 %374, label %375, label %364

375:                                              ; preds = %372
  %376 = add nuw nsw i64 %363, 1
  %377 = icmp eq i64 %376, %14
  br i1 %377, label %378, label %362

378:                                              ; preds = %375, %361
  call void @llvm.lifetime.end.p0(i64 32, ptr nonnull %8) #17
  br label %379

379:                                              ; preds = %378, %342, %341
  %380 = invoke noundef zeroext i1 @_ZNK6dealii12CellAccessorILi3ELi3EE11at_boundaryEj(ptr noundef nonnull align 8 dereferenceable(16) %6, i32 noundef 5)
          to label %381 unwind label %187

381:                                              ; preds = %379
  %382 = load ptr, ptr %42, align 8, !tbaa !21
  %383 = load i32, ptr %32, align 4
  %384 = load i32, ptr %6, align 8
  br i1 %380, label %422, label %385

385:                                              ; preds = %381
  %386 = getelementptr inbounds %"class.dealii::Triangulation", ptr %382, i64 0, i32 1
  %387 = sext i32 %384 to i64
  %388 = load ptr, ptr %386, align 8, !tbaa !22
  %389 = getelementptr inbounds ptr, ptr %388, i64 %387
  %390 = load ptr, ptr %389, align 8, !tbaa !24
  %391 = getelementptr inbounds %"class.dealii::internal::Triangulation::TriaLevel", ptr %390, i64 0, i32 2
  %392 = mul i32 %383, 6
  %393 = add i32 %392, 5
  %394 = zext i32 %393 to i64
  %395 = load ptr, ptr %391, align 8, !tbaa !36
  %396 = getelementptr inbounds %"struct.std::pair.234", ptr %395, i64 %394
  %397 = load i32, ptr %396, align 4, !tbaa !38
  %398 = icmp eq i32 %397, %2
  br i1 %398, label %399, label %422

399:                                              ; preds = %385
  call void @llvm.lifetime.start.p0(i64 32, ptr nonnull %8) #17
  invoke void @_ZNK6dealii17MGDoFCellAccessorILi3ELi3EE8neighborEj(ptr nonnull sret(%"class.dealii::TriaIterator") align 8 %8, ptr noundef nonnull align 8 dereferenceable(32) %6, i32 noundef 5)
          to label %400 unwind label %189

400:                                              ; preds = %399
  invoke void @_ZNK6dealii17MGDoFCellAccessorILi3ELi3EE18get_mg_dof_indicesERSt6vectorIjSaIjEE(ptr noundef nonnull align 8 dereferenceable(32) %8, ptr noundef nonnull align 8 dereferenceable(24) %5)
          to label %401 unwind label %189

401:                                              ; preds = %400
  br i1 %15, label %418, label %402

402:                                              ; preds = %401, %415
  %403 = phi i64 [ %416, %415 ], [ 0, %401 ]
  br label %404

404:                                              ; preds = %412, %402
  %405 = phi i64 [ 0, %402 ], [ %413, %412 ]
  %406 = load ptr, ptr %4, align 8, !tbaa !14
  %407 = getelementptr inbounds i32, ptr %406, i64 %403
  %408 = load i32, ptr %407, align 4, !tbaa !17
  %409 = load ptr, ptr %5, align 8, !tbaa !14
  %410 = getelementptr inbounds i32, ptr %409, i64 %405
  %411 = load i32, ptr %410, align 4, !tbaa !17
  invoke void @_ZN6dealii15SparsityPattern3addEjj(ptr noundef nonnull align 8 dereferenceable(122) %1, i32 noundef %408, i32 noundef %411)
          to label %412 unwind label %215

412:                                              ; preds = %404
  %413 = add nuw nsw i64 %405, 1
  %414 = icmp eq i64 %413, %14
  br i1 %414, label %415, label %404

415:                                              ; preds = %412
  %416 = add nuw nsw i64 %403, 1
  %417 = icmp eq i64 %416, %14
  br i1 %417, label %418, label %402

418:                                              ; preds = %415, %401
  call void @llvm.lifetime.end.p0(i64 32, ptr nonnull %8) #17
  %419 = load ptr, ptr %42, align 8, !tbaa !21
  %420 = load i32, ptr %32, align 4
  %421 = load i32, ptr %6, align 8
  br label %422

422:                                              ; preds = %418, %385, %381
  %423 = phi i32 [ %421, %418 ], [ %384, %385 ], [ %384, %381 ]
  %424 = phi i32 [ %420, %418 ], [ %383, %385 ], [ %383, %381 ]
  %425 = phi ptr [ %419, %418 ], [ %382, %385 ], [ %382, %381 ]
  %426 = getelementptr inbounds %"class.dealii::Triangulation", ptr %425, i64 0, i32 1
  %427 = load ptr, ptr %426, align 8, !tbaa !22
  %428 = ptrtoint ptr %427 to i64
  %429 = getelementptr inbounds %"class.dealii::Triangulation", ptr %425, i64 0, i32 1, i32 0, i32 0, i32 0, i32 1
  br label %72

430:                                              ; preds = %158, %31
  call void @llvm.lifetime.end.p0(i64 32, ptr nonnull %7) #17
  call void @llvm.lifetime.end.p0(i64 32, ptr nonnull %6) #17
  %431 = load ptr, ptr %5, align 8, !tbaa !14
  %432 = icmp eq ptr %431, null
  br i1 %432, label %434, label %433

433:                                              ; preds = %430
  call void @_ZdlPv(ptr noundef nonnull %431) #19
  br label %434

434:                                              ; preds = %433, %430
  call void @llvm.lifetime.end.p0(i64 24, ptr nonnull %5) #17
  %435 = load ptr, ptr %4, align 8, !tbaa !14
  %436 = icmp eq ptr %435, null
  br i1 %436, label %438, label %437

437:                                              ; preds = %434
  call void @_ZdlPv(ptr noundef nonnull %435) #19
  br label %438

438:                                              ; preds = %434, %437
  call void @llvm.lifetime.end.p0(i64 24, ptr nonnull %4) #17
  ret void

439:                                              ; preds = %53, %55, %187, %217, %70
  %440 = phi { ptr, i32 } [ %71, %70 ], [ %218, %217 ], [ %188, %187 ], [ %54, %53 ], [ %56, %55 ]
  call void @llvm.lifetime.end.p0(i64 32, ptr nonnull %7) #17
  br label %441

441:                                              ; preds = %439, %51
  %442 = phi { ptr, i32 } [ %440, %439 ], [ %52, %51 ]
  call void @llvm.lifetime.end.p0(i64 32, ptr nonnull %6) #17
  %443 = load ptr, ptr %5, align 8, !tbaa !14
  %444 = icmp eq ptr %443, null
  br i1 %444, label %446, label %445

445:                                              ; preds = %441
  call void @_ZdlPv(ptr noundef nonnull %443) #19
  br label %446

446:                                              ; preds = %445, %441, %49
  %447 = phi { ptr, i32 } [ %50, %49 ], [ %442, %441 ], [ %442, %445 ]
  call void @llvm.lifetime.end.p0(i64 24, ptr nonnull %5) #17
  %448 = load ptr, ptr %4, align 8, !tbaa !14
  %449 = icmp eq ptr %448, null
  br i1 %449, label %451, label %450

450:                                              ; preds = %446
  call void @_ZdlPv(ptr noundef nonnull %448) #19
  br label %451

451:                                              ; preds = %450, %446
  call void @llvm.lifetime.end.p0(i64 24, ptr nonnull %4) #17
  resume { ptr, i32 } %447
}

declare noundef zeroext i1 @_ZNK6dealii12CellAccessorILi3ELi3EE11at_boundaryEj(ptr noundef nonnull align 8 dereferenceable(16), i32 noundef) local_unnamed_addr #2

declare void @_ZNK6dealii17MGDoFCellAccessorILi3ELi3EE8neighborEj(ptr sret(%"class.dealii::TriaIterator") align 8, ptr noundef nonnull align 8 dereferenceable(32), i32 noundef) local_unnamed_addr #2

; Function Attrs: sspstrong uwtable
define weak_odr dso_local void @_ZN6dealii7MGTools31make_flux_sparsity_pattern_edgeILi3ENS_15SparsityPatternELi3EEEvRKNS_12MGDoFHandlerIXT_EXT1_EEERT0_j(ptr noundef nonnull align 8 dereferenceable(248) %0, ptr noundef nonnull align 8 dereferenceable(122) %1, i32 noundef %2) local_unnamed_addr #0 comdat align 2 personality ptr @__gxx_personality_v0 {
  %4 = alloca %"class.std::vector.20", align 8
  %5 = alloca %"class.std::vector.20", align 8
  %6 = alloca %"class.dealii::TriaIterator", align 8
  %7 = alloca %"class.dealii::TriaIterator", align 8
  %8 = alloca %"class.dealii::TriaIterator", align 8
  %9 = tail call noundef i32 @_ZNK6dealii12MGDoFHandlerILi3ELi3EE6n_dofsEj(ptr noundef nonnull align 8 dereferenceable(248) %0, i32 noundef %2)
  %10 = add i32 %2, -1
  %11 = tail call noundef i32 @_ZNK6dealii12MGDoFHandlerILi3ELi3EE6n_dofsEj(ptr noundef nonnull align 8 dereferenceable(248) %0, i32 noundef %10)
  %12 = getelementptr inbounds %"class.dealii::DoFHandler", ptr %0, i64 0, i32 2
  %13 = load ptr, ptr %12, align 8, !tbaa !5
  %14 = getelementptr inbounds i8, ptr %13, i64 112
  %15 = load i32, ptr %14, align 8, !tbaa !10
  call void @llvm.lifetime.start.p0(i64 24, ptr nonnull %4) #17
  %16 = zext i32 %15 to i64
  %17 = icmp eq i32 %15, 0
  br i1 %17, label %18, label %19

18:                                               ; preds = %3
  call void @llvm.memset.p0.i64(ptr noundef nonnull align 8 dereferenceable(24) %4, i8 0, i64 24, i1 false)
  call void @llvm.lifetime.start.p0(i64 24, ptr nonnull %5) #17
  call void @llvm.memset.p0.i64(ptr noundef nonnull align 8 dereferenceable(24) %5, i8 0, i64 24, i1 false)
  br label %29

19:                                               ; preds = %3
  %20 = shl nuw nsw i64 %16, 2
  %21 = tail call noalias noundef nonnull ptr @_Znwm(i64 noundef %20) #18
  store ptr %21, ptr %4, align 8, !tbaa !14
  %22 = getelementptr inbounds i32, ptr %21, i64 %16
  %23 = getelementptr inbounds %"struct.std::_Vector_base<unsigned int, std::allocator<unsigned int> >::_Vector_impl_data", ptr %4, i64 0, i32 2
  store ptr %22, ptr %23, align 8, !tbaa !16
  tail call void @llvm.memset.p0.i64(ptr nonnull align 4 %21, i8 0, i64 %20, i1 false), !tbaa !17
  %24 = getelementptr inbounds %"struct.std::_Vector_base<unsigned int, std::allocator<unsigned int> >::_Vector_impl_data", ptr %4, i64 0, i32 1
  store ptr %22, ptr %24, align 8, !tbaa !18
  call void @llvm.lifetime.start.p0(i64 24, ptr nonnull %5) #17
  %25 = invoke noalias noundef nonnull ptr @_Znwm(i64 noundef %20) #18
          to label %26 unwind label %146

26:                                               ; preds = %19
  store ptr %25, ptr %5, align 8, !tbaa !14
  %27 = getelementptr inbounds i32, ptr %25, i64 %16
  %28 = getelementptr inbounds %"struct.std::_Vector_base<unsigned int, std::allocator<unsigned int> >::_Vector_impl_data", ptr %5, i64 0, i32 2
  store ptr %27, ptr %28, align 8, !tbaa !16
  tail call void @llvm.memset.p0.i64(ptr nonnull align 4 %25, i8 0, i64 %20, i1 false), !tbaa !17
  br label %29

29:                                               ; preds = %26, %18
  %30 = phi ptr [ null, %18 ], [ %27, %26 ]
  %31 = getelementptr inbounds %"struct.std::_Vector_base<unsigned int, std::allocator<unsigned int> >::_Vector_impl_data", ptr %5, i64 0, i32 1
  store ptr %30, ptr %31, align 8, !tbaa !18
  call void @llvm.lifetime.start.p0(i64 32, ptr nonnull %6) #17
  invoke void @_ZNK6dealii12MGDoFHandlerILi3ELi3EE5beginEj(ptr nonnull sret(%"class.dealii::TriaIterator") align 8 %6, ptr noundef nonnull align 8 dereferenceable(248) %0, i32 noundef %2)
          to label %32 unwind label %148

32:                                               ; preds = %29
  call void @llvm.lifetime.start.p0(i64 32, ptr nonnull %7) #17
  invoke void @_ZNK6dealii12MGDoFHandlerILi3ELi3EE3endEj(ptr nonnull sret(%"class.dealii::TriaIterator") align 8 %7, ptr noundef nonnull align 8 dereferenceable(248) %0, i32 noundef %2)
          to label %33 unwind label %152

33:                                               ; preds = %32
  %34 = getelementptr inbounds %"class.dealii::TriaAccessorBase", ptr %6, i64 0, i32 1
  %35 = getelementptr inbounds %"class.dealii::TriaAccessorBase", ptr %7, i64 0, i32 1
  %36 = load i32, ptr %34, align 4, !tbaa !19
  %37 = load i32, ptr %35, align 4, !tbaa !19
  %38 = icmp ne i32 %36, %37
  %39 = load i32, ptr %6, align 8
  %40 = load i32, ptr %7, align 8
  %41 = icmp ne i32 %39, %40
  %42 = select i1 %38, i1 true, i1 %41
  br i1 %42, label %43, label %213

43:                                               ; preds = %33
  %44 = getelementptr inbounds %"class.dealii::TriaAccessorBase", ptr %6, i64 0, i32 2
  br label %45

45:                                               ; preds = %43, %140
  invoke void @_ZNK6dealii17MGDoFCellAccessorILi3ELi3EE18get_mg_dof_indicesERSt6vectorIjSaIjEE(ptr noundef nonnull align 8 dereferenceable(32) %6, ptr noundef nonnull align 8 dereferenceable(24) %4)
          to label %154 unwind label %150

46:                                               ; preds = %210
  %47 = load ptr, ptr %44, align 8, !tbaa !21
  %48 = getelementptr inbounds %"class.dealii::Triangulation", ptr %47, i64 0, i32 1
  %49 = load ptr, ptr %48, align 8, !tbaa !22
  %50 = load i32, ptr %34, align 4
  %51 = load i32, ptr %6, align 8
  %52 = ptrtoint ptr %49 to i64
  %53 = getelementptr inbounds %"class.dealii::Triangulation", ptr %47, i64 0, i32 1, i32 0, i32 0, i32 0, i32 1
  br label %54

54:                                               ; preds = %125, %46
  %55 = phi i32 [ %120, %125 ], [ %51, %46 ]
  %56 = phi i32 [ %122, %125 ], [ %51, %46 ]
  %57 = phi i32 [ %121, %125 ], [ %50, %46 ]
  %58 = add nsw i32 %57, 1
  %59 = sext i32 %56 to i64
  %60 = getelementptr inbounds ptr, ptr %49, i64 %59
  %61 = load ptr, ptr %60, align 8, !tbaa !24
  %62 = getelementptr inbounds %"class.dealii::internal::Triangulation::TriaLevel", ptr %61, i64 0, i32 4
  %63 = getelementptr inbounds %"class.dealii::internal::Triangulation::TriaLevel", ptr %61, i64 0, i32 4, i32 0, i32 0, i32 0, i32 0, i32 0, i32 1
  %64 = load ptr, ptr %63, align 8, !tbaa !25
  %65 = load ptr, ptr %62, align 8, !tbaa !27
  %66 = ptrtoint ptr %64 to i64
  %67 = ptrtoint ptr %65 to i64
  %68 = sub i64 %66, %67
  %69 = sdiv exact i64 %68, 24
  %70 = trunc i64 %69 to i32
  %71 = icmp slt i32 %58, %70
  br i1 %71, label %119, label %72

72:                                               ; preds = %54
  %73 = add nsw i64 %59, 1
  %74 = trunc i64 %73 to i32
  store i32 %74, ptr %6, align 8, !tbaa !28
  %75 = load ptr, ptr %53, align 8, !tbaa !29
  %76 = ptrtoint ptr %75 to i64
  %77 = sub i64 %76, %52
  %78 = shl i64 %77, 29
  %79 = ashr i64 %78, 32
  %80 = icmp slt i64 %73, %79
  br i1 %80, label %81, label %113

81:                                               ; preds = %72
  %82 = getelementptr inbounds ptr, ptr %49, i64 %73
  %83 = load ptr, ptr %82, align 8, !tbaa !24
  %84 = getelementptr inbounds %"class.dealii::internal::Triangulation::TriaLevel", ptr %83, i64 0, i32 4
  %85 = getelementptr inbounds %"class.dealii::internal::Triangulation::TriaLevel", ptr %83, i64 0, i32 4, i32 0, i32 0, i32 0, i32 0, i32 0, i32 1
  %86 = load ptr, ptr %85, align 8, !tbaa !25
  %87 = load ptr, ptr %84, align 8, !tbaa !27
  %88 = ptrtoint ptr %86 to i64
  %89 = ptrtoint ptr %87 to i64
  %90 = sub i64 %88, %89
  %91 = sdiv exact i64 %90, 24
  %92 = trunc i64 %91 to i32
  %93 = icmp sgt i32 %92, 0
  br i1 %93, label %115, label %107

94:                                               ; preds = %107
  %95 = getelementptr inbounds ptr, ptr %49, i64 %109
  %96 = load ptr, ptr %95, align 8, !tbaa !24
  %97 = getelementptr inbounds %"class.dealii::internal::Triangulation::TriaLevel", ptr %96, i64 0, i32 4
  %98 = getelementptr inbounds %"class.dealii::internal::Triangulation::TriaLevel", ptr %96, i64 0, i32 4, i32 0, i32 0, i32 0, i32 0, i32 0, i32 1
  %99 = load ptr, ptr %98, align 8, !tbaa !25
  %100 = load ptr, ptr %97, align 8, !tbaa !27
  %101 = ptrtoint ptr %99 to i64
  %102 = ptrtoint ptr %100 to i64
  %103 = sub i64 %101, %102
  %104 = sdiv exact i64 %103, 24
  %105 = trunc i64 %104 to i32
  %106 = icmp sgt i32 %105, 0
  br i1 %106, label %114, label %107, !llvm.loop !30

107:                                              ; preds = %81, %94
  %108 = phi i64 [ %109, %94 ], [ %73, %81 ]
  %109 = add i64 %108, 1
  %110 = trunc i64 %109 to i32
  %111 = icmp eq i64 %109, %79
  br i1 %111, label %112, label %94, !llvm.loop !30

112:                                              ; preds = %107
  store i32 %110, ptr %6, align 8, !tbaa !28
  br label %113

113:                                              ; preds = %112, %72
  store i32 -1, ptr %6, align 8, !tbaa !28
  br label %119

114:                                              ; preds = %94
  store i32 %110, ptr %6, align 8, !tbaa !28
  br label %115

115:                                              ; preds = %114, %81
  %116 = phi i32 [ %74, %81 ], [ %110, %114 ]
  %117 = phi i64 [ %73, %81 ], [ %109, %114 ]
  %118 = trunc i64 %117 to i32
  br label %119

119:                                              ; preds = %115, %113, %54
  %120 = phi i32 [ %55, %54 ], [ -1, %113 ], [ %116, %115 ]
  %121 = phi i32 [ %58, %54 ], [ -1, %113 ], [ 0, %115 ]
  %122 = phi i32 [ %56, %54 ], [ -1, %113 ], [ %118, %115 ]
  %123 = or i32 %122, %121
  %124 = icmp sgt i32 %123, -1
  br i1 %124, label %125, label %140

125:                                              ; preds = %119
  %126 = zext i32 %122 to i64
  %127 = getelementptr inbounds ptr, ptr %49, i64 %126
  %128 = load ptr, ptr %127, align 8, !tbaa !24
  %129 = getelementptr inbounds %"class.dealii::internal::Triangulation::TriaLevel", ptr %128, i64 0, i32 4, i32 0, i32 3
  %130 = load ptr, ptr %129, align 8, !tbaa !32
  %131 = lshr i32 %121, 6
  %132 = zext i32 %131 to i64
  %133 = getelementptr inbounds i64, ptr %130, i64 %132
  %134 = and i32 %121, 63
  %135 = zext i32 %134 to i64
  %136 = shl nuw i64 1, %135
  %137 = load i64, ptr %133, align 8, !tbaa !34
  %138 = and i64 %137, %136
  %139 = icmp eq i64 %138, 0
  br i1 %139, label %54, label %140

140:                                              ; preds = %119, %125
  store i32 %121, ptr %34, align 4, !tbaa !19
  %141 = load i32, ptr %35, align 4, !tbaa !19
  %142 = icmp ne i32 %121, %141
  %143 = load i32, ptr %7, align 8
  %144 = icmp ne i32 %120, %143
  %145 = select i1 %142, i1 true, i1 %144
  br i1 %145, label %45, label %213

146:                                              ; preds = %19
  %147 = landingpad { ptr, i32 }
          cleanup
  br label %229

148:                                              ; preds = %29
  %149 = landingpad { ptr, i32 }
          cleanup
  br label %224

150:                                              ; preds = %45
  %151 = landingpad { ptr, i32 }
          cleanup
  br label %222

152:                                              ; preds = %32
  %153 = landingpad { ptr, i32 }
          cleanup
  br label %222

154:                                              ; preds = %45, %210
  %155 = phi i32 [ %211, %210 ], [ 0, %45 ]
  %156 = invoke noundef zeroext i1 @_ZNK6dealii12CellAccessorILi3ELi3EE11at_boundaryEj(ptr noundef nonnull align 8 dereferenceable(16) %6, i32 noundef %155)
          to label %157 unwind label %181

157:                                              ; preds = %154
  br i1 %156, label %210, label %158

158:                                              ; preds = %157
  %159 = load ptr, ptr %44, align 8, !tbaa !21
  %160 = getelementptr inbounds %"class.dealii::Triangulation", ptr %159, i64 0, i32 1
  %161 = load i32, ptr %6, align 8, !tbaa !28
  %162 = sext i32 %161 to i64
  %163 = load ptr, ptr %160, align 8, !tbaa !22
  %164 = getelementptr inbounds ptr, ptr %163, i64 %162
  %165 = load ptr, ptr %164, align 8, !tbaa !24
  %166 = getelementptr inbounds %"class.dealii::internal::Triangulation::TriaLevel", ptr %165, i64 0, i32 2
  %167 = load i32, ptr %34, align 4, !tbaa !19
  %168 = mul i32 %167, 6
  %169 = add i32 %168, %155
  %170 = zext i32 %169 to i64
  %171 = load ptr, ptr %166, align 8, !tbaa !36
  %172 = getelementptr inbounds %"struct.std::pair.234", ptr %171, i64 %170
  %173 = load i32, ptr %172, align 4, !tbaa !38
  %174 = icmp eq i32 %173, %2
  br i1 %174, label %210, label %175

175:                                              ; preds = %158
  call void @llvm.lifetime.start.p0(i64 32, ptr nonnull %8) #17
  invoke void @_ZNK6dealii17MGDoFCellAccessorILi3ELi3EE8neighborEj(ptr nonnull sret(%"class.dealii::TriaIterator") align 8 %8, ptr noundef nonnull align 8 dereferenceable(32) %6, i32 noundef %155)
          to label %176 unwind label %183

176:                                              ; preds = %175
  invoke void @_ZNK6dealii17MGDoFCellAccessorILi3ELi3EE18get_mg_dof_indicesERSt6vectorIjSaIjEE(ptr noundef nonnull align 8 dereferenceable(32) %8, ptr noundef nonnull align 8 dereferenceable(24) %5)
          to label %177 unwind label %183

177:                                              ; preds = %176
  br i1 %17, label %180, label %178

178:                                              ; preds = %177, %185
  %179 = phi i64 [ %186, %185 ], [ 0, %177 ]
  br label %188

180:                                              ; preds = %185, %177
  call void @llvm.lifetime.end.p0(i64 32, ptr nonnull %8) #17
  br label %210

181:                                              ; preds = %154
  %182 = landingpad { ptr, i32 }
          cleanup
  br label %222

183:                                              ; preds = %176, %175
  %184 = landingpad { ptr, i32 }
          cleanup
  br label %208

185:                                              ; preds = %203
  %186 = add nuw nsw i64 %179, 1
  %187 = icmp eq i64 %186, %16
  br i1 %187, label %180, label %178

188:                                              ; preds = %178, %203
  %189 = phi i64 [ 0, %178 ], [ %204, %203 ]
  %190 = load ptr, ptr %5, align 8, !tbaa !14
  %191 = getelementptr inbounds i32, ptr %190, i64 %179
  %192 = load i32, ptr %191, align 4, !tbaa !17
  %193 = load ptr, ptr %4, align 8, !tbaa !14
  %194 = getelementptr inbounds i32, ptr %193, i64 %189
  %195 = load i32, ptr %194, align 4, !tbaa !17
  invoke void @_ZN6dealii15SparsityPattern3addEjj(ptr noundef nonnull align 8 dereferenceable(122) %1, i32 noundef %192, i32 noundef %195)
          to label %196 unwind label %206

196:                                              ; preds = %188
  %197 = load ptr, ptr %5, align 8, !tbaa !14
  %198 = getelementptr inbounds i32, ptr %197, i64 %189
  %199 = load i32, ptr %198, align 4, !tbaa !17
  %200 = load ptr, ptr %4, align 8, !tbaa !14
  %201 = getelementptr inbounds i32, ptr %200, i64 %179
  %202 = load i32, ptr %201, align 4, !tbaa !17
  invoke void @_ZN6dealii15SparsityPattern3addEjj(ptr noundef nonnull align 8 dereferenceable(122) %1, i32 noundef %199, i32 noundef %202)
          to label %203 unwind label %206

203:                                              ; preds = %196
  %204 = add nuw nsw i64 %189, 1
  %205 = icmp eq i64 %204, %16
  br i1 %205, label %185, label %188

206:                                              ; preds = %196, %188
  %207 = landingpad { ptr, i32 }
          cleanup
  br label %208

208:                                              ; preds = %206, %183
  %209 = phi { ptr, i32 } [ %207, %206 ], [ %184, %183 ]
  call void @llvm.lifetime.end.p0(i64 32, ptr nonnull %8) #17
  br label %222

210:                                              ; preds = %157, %158, %180
  %211 = add nuw nsw i32 %155, 1
  %212 = icmp eq i32 %211, 6
  br i1 %212, label %46, label %154

213:                                              ; preds = %140, %33
  call void @llvm.lifetime.end.p0(i64 32, ptr nonnull %7) #17
  call void @llvm.lifetime.end.p0(i64 32, ptr nonnull %6) #17
  %214 = load ptr, ptr %5, align 8, !tbaa !14
  %215 = icmp eq ptr %214, null
  br i1 %215, label %217, label %216

216:                                              ; preds = %213
  call void @_ZdlPv(ptr noundef nonnull %214) #19
  br label %217

217:                                              ; preds = %216, %213
  call void @llvm.lifetime.end.p0(i64 24, ptr nonnull %5) #17
  %218 = load ptr, ptr %4, align 8, !tbaa !14
  %219 = icmp eq ptr %218, null
  br i1 %219, label %221, label %220

220:                                              ; preds = %217
  call void @_ZdlPv(ptr noundef nonnull %218) #19
  br label %221

221:                                              ; preds = %217, %220
  call void @llvm.lifetime.end.p0(i64 24, ptr nonnull %4) #17
  ret void

222:                                              ; preds = %150, %152, %181, %208
  %223 = phi { ptr, i32 } [ %209, %208 ], [ %182, %181 ], [ %151, %150 ], [ %153, %152 ]
  call void @llvm.lifetime.end.p0(i64 32, ptr nonnull %7) #17
  br label %224

224:                                              ; preds = %222, %148
  %225 = phi { ptr, i32 } [ %223, %222 ], [ %149, %148 ]
  call void @llvm.lifetime.end.p0(i64 32, ptr nonnull %6) #17
  %226 = load ptr, ptr %5, align 8, !tbaa !14
  %227 = icmp eq ptr %226, null
  br i1 %227, label %229, label %228

228:                                              ; preds = %224
  call void @_ZdlPv(ptr noundef nonnull %226) #19
  br label %229

229:                                              ; preds = %228, %224, %146
  %230 = phi { ptr, i32 } [ %147, %146 ], [ %225, %224 ], [ %225, %228 ]
  call void @llvm.lifetime.end.p0(i64 24, ptr nonnull %5) #17
  %231 = load ptr, ptr %4, align 8, !tbaa !14
  %232 = icmp eq ptr %231, null
  br i1 %232, label %234, label %233

233:                                              ; preds = %229
  call void @_ZdlPv(ptr noundef nonnull %231) #19
  br label %234

234:                                              ; preds = %233, %229
  call void @llvm.lifetime.end.p0(i64 24, ptr nonnull %4) #17
  resume { ptr, i32 } %230
}

; Function Attrs: sspstrong uwtable
define weak_odr dso_local void @_ZN6dealii7MGTools26make_flux_sparsity_patternILi3ENS_15SparsityPatternELi3EEEvRKNS_12MGDoFHandlerIXT_EXT1_EEERT0_jRKNS_5TableILi2ENS_8DoFTools8CouplingEEESE_(ptr noundef nonnull align 8 dereferenceable(248) %0, ptr noundef nonnull align 8 dereferenceable(122) %1, i32 noundef %2, ptr noundef nonnull align 8 dereferenceable(92) %3, ptr noundef nonnull align 8 dereferenceable(92) %4) local_unnamed_addr #0 comdat align 2 personality ptr @__gxx_personality_v0 {
  %6 = alloca %"class.std::vector.20", align 8
  %7 = alloca %"class.std::vector.20", align 8
  %8 = alloca %"class.dealii::Table.74", align 8
  %9 = alloca %"class.dealii::TriaIterator", align 8
  %10 = alloca %"class.dealii::TriaIterator", align 8
  %11 = alloca %"class.dealii::Table.78", align 8
  %12 = alloca %"class.dealii::Table.78", align 8
  %13 = alloca %"class.std::vector.64", align 8
  %14 = alloca %"class.dealii::TriaIterator.93", align 8
  %15 = alloca %"class.dealii::TriaIterator", align 8
  %16 = alloca %"class.dealii::TriaIterator.93", align 8
  %17 = getelementptr inbounds %"class.dealii::DoFHandler", ptr %0, i64 0, i32 2
  %18 = load ptr, ptr %17, align 8, !tbaa !5
  %19 = tail call noundef i32 @_ZNK6dealii12MGDoFHandlerILi3ELi3EE6n_dofsEj(ptr noundef nonnull align 8 dereferenceable(248) %0, i32 noundef %2)
  %20 = getelementptr inbounds i8, ptr %18, i64 112
  %21 = load i32, ptr %20, align 8, !tbaa !10
  call void @llvm.lifetime.start.p0(i64 24, ptr nonnull %6) #17
  %22 = zext i32 %21 to i64
  %23 = icmp eq i32 %21, 0
  br i1 %23, label %24, label %25

24:                                               ; preds = %5
  call void @llvm.memset.p0.i64(ptr noundef nonnull align 8 dereferenceable(24) %6, i8 0, i64 24, i1 false)
  call void @llvm.lifetime.start.p0(i64 24, ptr nonnull %7) #17
  call void @llvm.memset.p0.i64(ptr noundef nonnull align 8 dereferenceable(24) %7, i8 0, i64 24, i1 false)
  br label %35

25:                                               ; preds = %5
  %26 = shl nuw nsw i64 %22, 2
  %27 = tail call noalias noundef nonnull ptr @_Znwm(i64 noundef %26) #18
  store ptr %27, ptr %6, align 8, !tbaa !14
  %28 = getelementptr inbounds i32, ptr %27, i64 %22
  %29 = getelementptr inbounds %"struct.std::_Vector_base<unsigned int, std::allocator<unsigned int> >::_Vector_impl_data", ptr %6, i64 0, i32 2
  store ptr %28, ptr %29, align 8, !tbaa !16
  tail call void @llvm.memset.p0.i64(ptr nonnull align 4 %27, i8 0, i64 %26, i1 false), !tbaa !17
  %30 = getelementptr inbounds %"struct.std::_Vector_base<unsigned int, std::allocator<unsigned int> >::_Vector_impl_data", ptr %6, i64 0, i32 1
  store ptr %28, ptr %30, align 8, !tbaa !18
  call void @llvm.lifetime.start.p0(i64 24, ptr nonnull %7) #17
  %31 = invoke noalias noundef nonnull ptr @_Znwm(i64 noundef %26) #18
          to label %32 unwind label %68

32:                                               ; preds = %25
  store ptr %31, ptr %7, align 8, !tbaa !14
  %33 = getelementptr inbounds i32, ptr %31, i64 %22
  %34 = getelementptr inbounds %"struct.std::_Vector_base<unsigned int, std::allocator<unsigned int> >::_Vector_impl_data", ptr %7, i64 0, i32 2
  store ptr %33, ptr %34, align 8, !tbaa !16
  tail call void @llvm.memset.p0.i64(ptr nonnull align 4 %31, i8 0, i64 %26, i1 false), !tbaa !17
  br label %35

35:                                               ; preds = %32, %24
  %36 = phi ptr [ null, %24 ], [ %33, %32 ]
  %37 = getelementptr inbounds %"struct.std::_Vector_base<unsigned int, std::allocator<unsigned int> >::_Vector_impl_data", ptr %7, i64 0, i32 1
  store ptr %36, ptr %37, align 8, !tbaa !18
  call void @llvm.lifetime.start.p0(i64 96, ptr nonnull %8) #17
  invoke void @_ZN6dealii11SubscriptorC2Ev(ptr noundef nonnull align 8 dereferenceable(72) %8)
          to label %38 unwind label %70

38:                                               ; preds = %35
  store ptr getelementptr inbounds ({ [4 x ptr] }, ptr @_ZTVN6dealii9TableBaseILi2EbEE, i64 0, inrange i32 0, i64 2), ptr %8, align 8, !tbaa !40
  %39 = getelementptr inbounds %"class.dealii::TableBase.75", ptr %8, i64 0, i32 1
  %40 = getelementptr inbounds %"class.dealii::TableBase.75", ptr %8, i64 0, i32 3
  store i64 0, ptr %39, align 8
  %41 = or i64 %22, 25769803776
  store i64 %41, ptr %40, align 4
  %42 = mul i32 %21, 6
  %43 = icmp eq i32 %42, 0
  br i1 %43, label %44, label %45

44:                                               ; preds = %38
  call void @llvm.memset.p0.i64(ptr noundef nonnull align 8 dereferenceable(20) %39, i8 0, i64 20, i1 false)
  br label %55

45:                                               ; preds = %38
  %46 = getelementptr inbounds %"class.dealii::TableBase.75", ptr %8, i64 0, i32 2
  store i32 %42, ptr %46, align 8, !tbaa !42
  %47 = zext i32 %42 to i64
  %48 = invoke noalias noundef nonnull ptr @_Znam(i64 noundef %47) #18
          to label %49 unwind label %50

49:                                               ; preds = %45
  store ptr %48, ptr %39, align 8, !tbaa !55
  call void @llvm.memset.p0.i64(ptr nonnull align 1 %48, i8 0, i64 %47, i1 false), !tbaa !56
  br label %55

50:                                               ; preds = %45
  %51 = landingpad { ptr, i32 }
          cleanup
  invoke void @_ZN6dealii11SubscriptorD2Ev(ptr noundef nonnull align 8 dereferenceable(72) %8)
          to label %748 unwind label %52

52:                                               ; preds = %50
  %53 = landingpad { ptr, i32 }
          catch ptr null
  %54 = extractvalue { ptr, i32 } %53, 0
  call void @__clang_call_terminate(ptr %54) #20
  unreachable

55:                                               ; preds = %49, %44
  store ptr getelementptr inbounds ({ [4 x ptr] }, ptr @_ZTVN6dealii5TableILi2EbEE, i64 0, inrange i32 0, i64 2), ptr %8, align 8, !tbaa !40
  call void @llvm.lifetime.start.p0(i64 32, ptr nonnull %9) #17
  invoke void @_ZNK6dealii12MGDoFHandlerILi3ELi3EE5beginEj(ptr nonnull sret(%"class.dealii::TriaIterator") align 8 %9, ptr noundef nonnull align 8 dereferenceable(248) %0, i32 noundef %2)
          to label %56 unwind label %72

56:                                               ; preds = %55
  call void @llvm.lifetime.start.p0(i64 32, ptr nonnull %10) #17
  invoke void @_ZNK6dealii12MGDoFHandlerILi3ELi3EE3endEj(ptr nonnull sret(%"class.dealii::TriaIterator") align 8 %10, ptr noundef nonnull align 8 dereferenceable(248) %0, i32 noundef %2)
          to label %57 unwind label %74

57:                                               ; preds = %56
  call void @llvm.lifetime.start.p0(i64 96, ptr nonnull %11) #17
  invoke void @_ZN6dealii8DoFTools38dof_couplings_from_component_couplingsILi3ELi3EEENS_5TableILi2ENS0_8CouplingEEERKNS_13FiniteElementIXT_EXT0_EEERKS4_(ptr nonnull sret(%"class.dealii::Table.78") align 8 %11, ptr noundef nonnull align 8 dereferenceable(728) %18, ptr noundef nonnull align 8 dereferenceable(92) %3)
          to label %58 unwind label %76

58:                                               ; preds = %57
  call void @llvm.lifetime.start.p0(i64 96, ptr nonnull %12) #17
  invoke void @_ZN6dealii8DoFTools38dof_couplings_from_component_couplingsILi3ELi3EEENS_5TableILi2ENS0_8CouplingEEERKNS_13FiniteElementIXT_EXT0_EEERKS4_(ptr nonnull sret(%"class.dealii::Table.78") align 8 %12, ptr noundef nonnull align 8 dereferenceable(728) %18, ptr noundef nonnull align 8 dereferenceable(92) %4)
          to label %59 unwind label %78

59:                                               ; preds = %58
  br i1 %23, label %151, label %60

60:                                               ; preds = %59
  %61 = getelementptr inbounds %"class.dealii::TableBase.75", ptr %8, i64 0, i32 3, i32 0, i32 0, i64 1
  br label %62

62:                                               ; preds = %60, %139
  %63 = phi i32 [ 0, %60 ], [ %147, %139 ]
  %64 = load ptr, ptr %18, align 8, !tbaa !40
  %65 = getelementptr inbounds ptr, ptr %64, i64 9
  %66 = load ptr, ptr %65, align 8
  %67 = invoke noundef zeroext i1 %66(ptr noundef nonnull align 8 dereferenceable(728) %18, i32 noundef %63, i32 noundef 0)
          to label %80 unwind label %149

68:                                               ; preds = %25
  %69 = landingpad { ptr, i32 }
          cleanup
  br label %753

70:                                               ; preds = %701, %35
  %71 = landingpad { ptr, i32 }
          cleanup
  br label %748

72:                                               ; preds = %55
  %73 = landingpad { ptr, i32 }
          cleanup
  br label %742

74:                                               ; preds = %56
  %75 = landingpad { ptr, i32 }
          cleanup
  br label %740

76:                                               ; preds = %696, %57
  %77 = landingpad { ptr, i32 }
          cleanup
  br label %738

78:                                               ; preds = %690, %58
  %79 = landingpad { ptr, i32 }
          cleanup
  br label %731

80:                                               ; preds = %62
  %81 = load ptr, ptr %39, align 8, !tbaa !55
  %82 = load i32, ptr %61, align 8, !tbaa !17
  %83 = mul i32 %82, %63
  %84 = zext i32 %83 to i64
  %85 = getelementptr inbounds i8, ptr %81, i64 %84
  %86 = zext i1 %67 to i8
  store i8 %86, ptr %85, align 1, !tbaa !56
  %87 = load ptr, ptr %18, align 8, !tbaa !40
  %88 = getelementptr inbounds ptr, ptr %87, i64 9
  %89 = load ptr, ptr %88, align 8
  %90 = invoke noundef zeroext i1 %89(ptr noundef nonnull align 8 dereferenceable(728) %18, i32 noundef %63, i32 noundef 1)
          to label %91 unwind label %149

91:                                               ; preds = %80
  %92 = load ptr, ptr %39, align 8, !tbaa !55
  %93 = load i32, ptr %61, align 8, !tbaa !17
  %94 = mul i32 %93, %63
  %95 = add i32 %94, 1
  %96 = zext i32 %95 to i64
  %97 = getelementptr inbounds i8, ptr %92, i64 %96
  %98 = zext i1 %90 to i8
  store i8 %98, ptr %97, align 1, !tbaa !56
  %99 = load ptr, ptr %18, align 8, !tbaa !40
  %100 = getelementptr inbounds ptr, ptr %99, i64 9
  %101 = load ptr, ptr %100, align 8
  %102 = invoke noundef zeroext i1 %101(ptr noundef nonnull align 8 dereferenceable(728) %18, i32 noundef %63, i32 noundef 2)
          to label %103 unwind label %149

103:                                              ; preds = %91
  %104 = load ptr, ptr %39, align 8, !tbaa !55
  %105 = load i32, ptr %61, align 8, !tbaa !17
  %106 = mul i32 %105, %63
  %107 = add i32 %106, 2
  %108 = zext i32 %107 to i64
  %109 = getelementptr inbounds i8, ptr %104, i64 %108
  %110 = zext i1 %102 to i8
  store i8 %110, ptr %109, align 1, !tbaa !56
  %111 = load ptr, ptr %18, align 8, !tbaa !40
  %112 = getelementptr inbounds ptr, ptr %111, i64 9
  %113 = load ptr, ptr %112, align 8
  %114 = invoke noundef zeroext i1 %113(ptr noundef nonnull align 8 dereferenceable(728) %18, i32 noundef %63, i32 noundef 3)
          to label %115 unwind label %149

115:                                              ; preds = %103
  %116 = load ptr, ptr %39, align 8, !tbaa !55
  %117 = load i32, ptr %61, align 8, !tbaa !17
  %118 = mul i32 %117, %63
  %119 = add i32 %118, 3
  %120 = zext i32 %119 to i64
  %121 = getelementptr inbounds i8, ptr %116, i64 %120
  %122 = zext i1 %114 to i8
  store i8 %122, ptr %121, align 1, !tbaa !56
  %123 = load ptr, ptr %18, align 8, !tbaa !40
  %124 = getelementptr inbounds ptr, ptr %123, i64 9
  %125 = load ptr, ptr %124, align 8
  %126 = invoke noundef zeroext i1 %125(ptr noundef nonnull align 8 dereferenceable(728) %18, i32 noundef %63, i32 noundef 4)
          to label %127 unwind label %149

127:                                              ; preds = %115
  %128 = load ptr, ptr %39, align 8, !tbaa !55
  %129 = load i32, ptr %61, align 8, !tbaa !17
  %130 = mul i32 %129, %63
  %131 = add i32 %130, 4
  %132 = zext i32 %131 to i64
  %133 = getelementptr inbounds i8, ptr %128, i64 %132
  %134 = zext i1 %126 to i8
  store i8 %134, ptr %133, align 1, !tbaa !56
  %135 = load ptr, ptr %18, align 8, !tbaa !40
  %136 = getelementptr inbounds ptr, ptr %135, i64 9
  %137 = load ptr, ptr %136, align 8
  %138 = invoke noundef zeroext i1 %137(ptr noundef nonnull align 8 dereferenceable(728) %18, i32 noundef %63, i32 noundef 5)
          to label %139 unwind label %149

139:                                              ; preds = %127
  %140 = load ptr, ptr %39, align 8, !tbaa !55
  %141 = load i32, ptr %61, align 8, !tbaa !17
  %142 = mul i32 %141, %63
  %143 = add i32 %142, 5
  %144 = zext i32 %143 to i64
  %145 = getelementptr inbounds i8, ptr %140, i64 %144
  %146 = zext i1 %138 to i8
  store i8 %146, ptr %145, align 1, !tbaa !56
  %147 = add nuw i32 %63, 1
  %148 = icmp eq i32 %147, %21
  br i1 %148, label %151, label %62

149:                                              ; preds = %127, %115, %103, %91, %80, %62
  %150 = landingpad { ptr, i32 }
          cleanup
  br label %724

151:                                              ; preds = %139, %59
  call void @llvm.lifetime.start.p0(i64 40, ptr nonnull %13) #17
  store ptr null, ptr %13, align 8, !tbaa !32
  %152 = getelementptr inbounds %"struct.std::_Bit_iterator_base", ptr %13, i64 0, i32 1
  store i32 0, ptr %152, align 8, !tbaa !58
  %153 = getelementptr inbounds %"struct.std::_Bvector_base<std::allocator<bool> >::_Bvector_impl_data", ptr %13, i64 0, i32 1
  store ptr null, ptr %153, align 8, !tbaa !32
  %154 = getelementptr inbounds %"struct.std::_Bvector_base<std::allocator<bool> >::_Bvector_impl_data", ptr %13, i64 0, i32 1, i32 0, i32 1
  store i32 0, ptr %154, align 8, !tbaa !58
  %155 = getelementptr inbounds %"struct.std::_Bvector_base<std::allocator<bool> >::_Bvector_impl_data", ptr %13, i64 0, i32 2
  store ptr null, ptr %155, align 8, !tbaa !59
  %156 = getelementptr inbounds %"class.dealii::DoFHandler", ptr %0, i64 0, i32 1
  %157 = load ptr, ptr %156, align 8, !tbaa !62
  invoke void @_ZNK6dealii13TriangulationILi3ELi3EE15save_user_flagsERSt6vectorIbSaIbEE(ptr noundef nonnull align 8 dereferenceable(8552) %157, ptr noundef nonnull align 8 dereferenceable(40) %13)
          to label %158 unwind label %187

158:                                              ; preds = %151
  %159 = load ptr, ptr %156, align 8, !tbaa !62
  invoke void @_ZN6dealii13TriangulationILi3ELi3EE16clear_user_flagsEv(ptr noundef nonnull align 8 dereferenceable(8552) %159)
          to label %160 unwind label %187

160:                                              ; preds = %158
  %161 = getelementptr inbounds %"class.dealii::TriaAccessorBase", ptr %9, i64 0, i32 1
  %162 = getelementptr inbounds %"class.dealii::TriaAccessorBase", ptr %10, i64 0, i32 1
  %163 = load i32, ptr %161, align 4, !tbaa !19
  %164 = load i32, ptr %162, align 4, !tbaa !19
  %165 = icmp ne i32 %163, %164
  %166 = load i32, ptr %9, align 8
  %167 = load i32, ptr %10, align 8
  %168 = icmp ne i32 %166, %167
  %169 = select i1 %165, i1 true, i1 %168
  br i1 %169, label %170, label %672

170:                                              ; preds = %160
  %171 = getelementptr inbounds %"class.dealii::TableBase.79", ptr %11, i64 0, i32 1
  %172 = getelementptr inbounds %"class.dealii::TableBase.79", ptr %11, i64 0, i32 3, i32 0, i32 0, i64 1
  %173 = getelementptr inbounds %"class.dealii::TriaAccessorBase.99", ptr %14, i64 0, i32 1
  %174 = getelementptr inbounds %"class.dealii::TableBase.75", ptr %8, i64 0, i32 3, i32 0, i32 0, i64 1
  %175 = getelementptr inbounds %"class.dealii::TableBase.79", ptr %12, i64 0, i32 1
  %176 = getelementptr inbounds %"class.dealii::TableBase.79", ptr %12, i64 0, i32 3, i32 0, i32 0, i64 1
  %177 = getelementptr inbounds %"class.dealii::TriaAccessorBase.99", ptr %16, i64 0, i32 1
  %178 = getelementptr inbounds %"class.dealii::TriaAccessorBase", ptr %9, i64 0, i32 2
  br label %179

179:                                              ; preds = %170, %307
  invoke void @_ZNK6dealii17MGDoFCellAccessorILi3ELi3EE18get_mg_dof_indicesERSt6vectorIjSaIjEE(ptr noundef nonnull align 8 dereferenceable(32) %9, ptr noundef nonnull align 8 dereferenceable(24) %6)
          to label %180 unwind label %185

180:                                              ; preds = %179
  br i1 %23, label %181, label %182

181:                                              ; preds = %189, %180
  br label %313

182:                                              ; preds = %180, %189
  %183 = phi i64 [ %190, %189 ], [ 0, %180 ]
  %184 = trunc i64 %183 to i32
  br label %192

185:                                              ; preds = %179
  %186 = landingpad { ptr, i32 }
          cleanup
  br label %711

187:                                              ; preds = %151, %158, %672
  %188 = landingpad { ptr, i32 }
          cleanup
  br label %711

189:                                              ; preds = %210
  %190 = add nuw nsw i64 %183, 1
  %191 = icmp eq i64 %190, %22
  br i1 %191, label %181, label %182

192:                                              ; preds = %182, %210
  %193 = phi i64 [ 0, %182 ], [ %211, %210 ]
  %194 = load ptr, ptr %171, align 8, !tbaa !64, !noalias !66
  %195 = load i32, ptr %172, align 8, !tbaa !17, !noalias !66
  %196 = mul i32 %195, %184
  %197 = zext i32 %196 to i64
  %198 = getelementptr inbounds i32, ptr %194, i64 %197
  %199 = getelementptr inbounds i32, ptr %198, i64 %193
  %200 = load i32, ptr %199, align 4, !tbaa !69
  %201 = icmp eq i32 %200, 0
  br i1 %201, label %210, label %202

202:                                              ; preds = %192
  %203 = load ptr, ptr %6, align 8, !tbaa !14
  %204 = getelementptr inbounds i32, ptr %203, i64 %183
  %205 = load i32, ptr %204, align 4, !tbaa !17
  %206 = getelementptr inbounds i32, ptr %203, i64 %193
  %207 = load i32, ptr %206, align 4, !tbaa !17
  invoke void @_ZN6dealii15SparsityPattern3addEjj(ptr noundef nonnull align 8 dereferenceable(122) %1, i32 noundef %205, i32 noundef %207)
          to label %210 unwind label %208

208:                                              ; preds = %202
  %209 = landingpad { ptr, i32 }
          cleanup
  br label %711

210:                                              ; preds = %192, %202
  %211 = add nuw nsw i64 %193, 1
  %212 = icmp eq i64 %211, %22
  br i1 %212, label %189, label %192

213:                                              ; preds = %667
  %214 = load ptr, ptr %178, align 8, !tbaa !21
  %215 = getelementptr inbounds %"class.dealii::Triangulation", ptr %214, i64 0, i32 1
  %216 = load ptr, ptr %215, align 8, !tbaa !22
  %217 = load i32, ptr %161, align 4
  %218 = load i32, ptr %9, align 8
  %219 = ptrtoint ptr %216 to i64
  %220 = getelementptr inbounds %"class.dealii::Triangulation", ptr %214, i64 0, i32 1, i32 0, i32 0, i32 0, i32 1
  br label %221

221:                                              ; preds = %292, %213
  %222 = phi i32 [ %287, %292 ], [ %218, %213 ]
  %223 = phi i32 [ %289, %292 ], [ %218, %213 ]
  %224 = phi i32 [ %288, %292 ], [ %217, %213 ]
  %225 = add nsw i32 %224, 1
  %226 = sext i32 %223 to i64
  %227 = getelementptr inbounds ptr, ptr %216, i64 %226
  %228 = load ptr, ptr %227, align 8, !tbaa !24
  %229 = getelementptr inbounds %"class.dealii::internal::Triangulation::TriaLevel", ptr %228, i64 0, i32 4
  %230 = getelementptr inbounds %"class.dealii::internal::Triangulation::TriaLevel", ptr %228, i64 0, i32 4, i32 0, i32 0, i32 0, i32 0, i32 0, i32 1
  %231 = load ptr, ptr %230, align 8, !tbaa !25
  %232 = load ptr, ptr %229, align 8, !tbaa !27
  %233 = ptrtoint ptr %231 to i64
  %234 = ptrtoint ptr %232 to i64
  %235 = sub i64 %233, %234
  %236 = sdiv exact i64 %235, 24
  %237 = trunc i64 %236 to i32
  %238 = icmp slt i32 %225, %237
  br i1 %238, label %286, label %239

239:                                              ; preds = %221
  %240 = add nsw i64 %226, 1
  %241 = trunc i64 %240 to i32
  store i32 %241, ptr %9, align 8, !tbaa !28
  %242 = load ptr, ptr %220, align 8, !tbaa !29
  %243 = ptrtoint ptr %242 to i64
  %244 = sub i64 %243, %219
  %245 = shl i64 %244, 29
  %246 = ashr i64 %245, 32
  %247 = icmp slt i64 %240, %246
  br i1 %247, label %248, label %280

248:                                              ; preds = %239
  %249 = getelementptr inbounds ptr, ptr %216, i64 %240
  %250 = load ptr, ptr %249, align 8, !tbaa !24
  %251 = getelementptr inbounds %"class.dealii::internal::Triangulation::TriaLevel", ptr %250, i64 0, i32 4
  %252 = getelementptr inbounds %"class.dealii::internal::Triangulation::TriaLevel", ptr %250, i64 0, i32 4, i32 0, i32 0, i32 0, i32 0, i32 0, i32 1
  %253 = load ptr, ptr %252, align 8, !tbaa !25
  %254 = load ptr, ptr %251, align 8, !tbaa !27
  %255 = ptrtoint ptr %253 to i64
  %256 = ptrtoint ptr %254 to i64
  %257 = sub i64 %255, %256
  %258 = sdiv exact i64 %257, 24
  %259 = trunc i64 %258 to i32
  %260 = icmp sgt i32 %259, 0
  br i1 %260, label %282, label %274

261:                                              ; preds = %274
  %262 = getelementptr inbounds ptr, ptr %216, i64 %276
  %263 = load ptr, ptr %262, align 8, !tbaa !24
  %264 = getelementptr inbounds %"class.dealii::internal::Triangulation::TriaLevel", ptr %263, i64 0, i32 4
  %265 = getelementptr inbounds %"class.dealii::internal::Triangulation::TriaLevel", ptr %263, i64 0, i32 4, i32 0, i32 0, i32 0, i32 0, i32 0, i32 1
  %266 = load ptr, ptr %265, align 8, !tbaa !25
  %267 = load ptr, ptr %264, align 8, !tbaa !27
  %268 = ptrtoint ptr %266 to i64
  %269 = ptrtoint ptr %267 to i64
  %270 = sub i64 %268, %269
  %271 = sdiv exact i64 %270, 24
  %272 = trunc i64 %271 to i32
  %273 = icmp sgt i32 %272, 0
  br i1 %273, label %281, label %274, !llvm.loop !30

274:                                              ; preds = %248, %261
  %275 = phi i64 [ %276, %261 ], [ %240, %248 ]
  %276 = add i64 %275, 1
  %277 = trunc i64 %276 to i32
  %278 = icmp eq i64 %276, %246
  br i1 %278, label %279, label %261, !llvm.loop !30

279:                                              ; preds = %274
  store i32 %277, ptr %9, align 8, !tbaa !28
  br label %280

280:                                              ; preds = %279, %239
  store i32 -1, ptr %9, align 8, !tbaa !28
  br label %286

281:                                              ; preds = %261
  store i32 %277, ptr %9, align 8, !tbaa !28
  br label %282

282:                                              ; preds = %281, %248
  %283 = phi i32 [ %241, %248 ], [ %277, %281 ]
  %284 = phi i64 [ %240, %248 ], [ %276, %281 ]
  %285 = trunc i64 %284 to i32
  br label %286

286:                                              ; preds = %282, %280, %221
  %287 = phi i32 [ %222, %221 ], [ -1, %280 ], [ %283, %282 ]
  %288 = phi i32 [ %225, %221 ], [ -1, %280 ], [ 0, %282 ]
  %289 = phi i32 [ %223, %221 ], [ -1, %280 ], [ %285, %282 ]
  %290 = or i32 %289, %288
  %291 = icmp sgt i32 %290, -1
  br i1 %291, label %292, label %307

292:                                              ; preds = %286
  %293 = zext i32 %289 to i64
  %294 = getelementptr inbounds ptr, ptr %216, i64 %293
  %295 = load ptr, ptr %294, align 8, !tbaa !24
  %296 = getelementptr inbounds %"class.dealii::internal::Triangulation::TriaLevel", ptr %295, i64 0, i32 4, i32 0, i32 3
  %297 = load ptr, ptr %296, align 8, !tbaa !32
  %298 = lshr i32 %288, 6
  %299 = zext i32 %298 to i64
  %300 = getelementptr inbounds i64, ptr %297, i64 %299
  %301 = and i32 %288, 63
  %302 = zext i32 %301 to i64
  %303 = shl nuw i64 1, %302
  %304 = load i64, ptr %300, align 8, !tbaa !34
  %305 = and i64 %304, %303
  %306 = icmp eq i64 %305, 0
  br i1 %306, label %221, label %307

307:                                              ; preds = %286, %292
  store i32 %288, ptr %161, align 4, !tbaa !19
  %308 = load i32, ptr %162, align 4, !tbaa !19
  %309 = icmp ne i32 %288, %308
  %310 = load i32, ptr %10, align 8
  %311 = icmp ne i32 %287, %310
  %312 = select i1 %309, i1 true, i1 %311
  br i1 %312, label %179, label %672

313:                                              ; preds = %181, %667
  %314 = phi i32 [ %668, %667 ], [ 0, %181 ]
  call void @llvm.lifetime.start.p0(i64 32, ptr nonnull %14) #17
  invoke void @_ZNK6dealii17MGDoFCellAccessorILi3ELi3EE4faceEj(ptr nonnull sret(%"class.dealii::TriaIterator.93") align 8 %14, ptr noundef nonnull align 8 dereferenceable(32) %9, i32 noundef %314)
          to label %315 unwind label %336

315:                                              ; preds = %313
  %316 = load ptr, ptr %173, align 8, !tbaa !71
  %317 = getelementptr inbounds %"class.dealii::Triangulation", ptr %316, i64 0, i32 2
  %318 = load ptr, ptr %317, align 8, !tbaa !73
  %319 = getelementptr inbounds %"class.dealii::internal::Triangulation::TriaObjects.236", ptr %318, i64 0, i32 4
  %320 = load i32, ptr %14, align 8, !tbaa !97
  %321 = load ptr, ptr %319, align 8, !tbaa !32
  %322 = sdiv i32 %320, 64
  %323 = sext i32 %322 to i64
  %324 = getelementptr inbounds i64, ptr %321, i64 %323
  %325 = srem i32 %320, 64
  %326 = sext i32 %325 to i64
  %327 = icmp slt i32 %325, 0
  %328 = add nsw i64 %326, 64
  %329 = ashr i64 %326, 63
  %330 = getelementptr inbounds i64, ptr %324, i64 %329
  %331 = select i1 %327, i64 %328, i64 %326
  %332 = shl nuw i64 1, %331
  %333 = load i64, ptr %330, align 8, !tbaa !34
  %334 = and i64 %332, %333
  %335 = icmp eq i64 %334, 0
  br i1 %335, label %338, label %667

336:                                              ; preds = %338, %313
  %337 = landingpad { ptr, i32 }
          cleanup
  br label %670

338:                                              ; preds = %315
  %339 = invoke noundef zeroext i1 @_ZNK6dealii12CellAccessorILi3ELi3EE11at_boundaryEj(ptr noundef nonnull align 8 dereferenceable(16) %9, i32 noundef %314)
          to label %340 unwind label %336

340:                                              ; preds = %338
  br i1 %339, label %341, label %427

341:                                              ; preds = %340
  br i1 %23, label %667, label %342

342:                                              ; preds = %341, %375
  %343 = phi i64 [ %376, %375 ], [ 0, %341 ]
  %344 = load ptr, ptr %39, align 8, !tbaa !55
  %345 = load i32, ptr %174, align 8, !tbaa !17
  %346 = trunc i64 %343 to i32
  %347 = mul i32 %345, %346
  %348 = add i32 %347, %314
  %349 = zext i32 %348 to i64
  %350 = getelementptr inbounds i8, ptr %344, i64 %349
  %351 = load i8, ptr %350, align 1, !tbaa !56, !range !98, !noundef !99
  %352 = icmp eq i8 %351, 0
  br i1 %352, label %353, label %378

353:                                              ; preds = %342, %370
  %354 = phi i64 [ %371, %370 ], [ 0, %342 ]
  %355 = load ptr, ptr %175, align 8, !tbaa !64
  %356 = load i32, ptr %176, align 8, !tbaa !17
  %357 = mul i32 %356, %346
  %358 = trunc i64 %354 to i32
  %359 = add i32 %357, %358
  %360 = zext i32 %359 to i64
  %361 = getelementptr inbounds i32, ptr %355, i64 %360
  %362 = load i32, ptr %361, align 4, !tbaa !69
  %363 = icmp eq i32 %362, 1
  br i1 %363, label %364, label %370

364:                                              ; preds = %353
  %365 = load ptr, ptr %6, align 8, !tbaa !14
  %366 = getelementptr inbounds i32, ptr %365, i64 %343
  %367 = load i32, ptr %366, align 4, !tbaa !17
  %368 = getelementptr inbounds i32, ptr %365, i64 %354
  %369 = load i32, ptr %368, align 4, !tbaa !17
  invoke void @_ZN6dealii15SparsityPattern3addEjj(ptr noundef nonnull align 8 dereferenceable(122) %1, i32 noundef %367, i32 noundef %369)
          to label %370 unwind label %373

370:                                              ; preds = %364, %353
  %371 = add nuw nsw i64 %354, 1
  %372 = icmp eq i64 %371, %22
  br i1 %372, label %375, label %353

373:                                              ; preds = %364
  %374 = landingpad { ptr, i32 }
          cleanup
  br label %670

375:                                              ; preds = %424, %370
  %376 = add nuw nsw i64 %343, 1
  %377 = icmp eq i64 %376, %22
  br i1 %377, label %667, label %342

378:                                              ; preds = %342, %424
  %379 = phi i64 [ %425, %424 ], [ 0, %342 ]
  %380 = load ptr, ptr %39, align 8, !tbaa !55
  %381 = load i32, ptr %174, align 8, !tbaa !17
  %382 = trunc i64 %379 to i32
  %383 = mul i32 %381, %382
  %384 = add i32 %383, %314
  %385 = zext i32 %384 to i64
  %386 = getelementptr inbounds i8, ptr %380, i64 %385
  %387 = load i8, ptr %386, align 1, !tbaa !56, !range !98, !noundef !99
  %388 = icmp eq i8 %387, 0
  %389 = load ptr, ptr %175, align 8, !tbaa !64
  %390 = load i32, ptr %176, align 8, !tbaa !17
  %391 = mul i32 %390, %346
  %392 = add i32 %391, %382
  %393 = zext i32 %392 to i64
  %394 = getelementptr inbounds i32, ptr %389, i64 %393
  %395 = load i32, ptr %394, align 4, !tbaa !69
  %396 = icmp eq i32 %395, 1
  br i1 %396, label %397, label %411

397:                                              ; preds = %378
  %398 = load ptr, ptr %6, align 8, !tbaa !14
  %399 = getelementptr inbounds i32, ptr %398, i64 %343
  %400 = load i32, ptr %399, align 4, !tbaa !17
  %401 = getelementptr inbounds i32, ptr %398, i64 %379
  %402 = load i32, ptr %401, align 4, !tbaa !17
  invoke void @_ZN6dealii15SparsityPattern3addEjj(ptr noundef nonnull align 8 dereferenceable(122) %1, i32 noundef %400, i32 noundef %402)
          to label %403 unwind label %409

403:                                              ; preds = %397
  %404 = load ptr, ptr %175, align 8, !tbaa !64
  %405 = load i32, ptr %176, align 8, !tbaa !17
  %406 = mul i32 %405, %346
  %407 = add i32 %406, %382
  %408 = zext i32 %407 to i64
  br label %411

409:                                              ; preds = %418, %397
  %410 = landingpad { ptr, i32 }
          cleanup
  br label %670

411:                                              ; preds = %403, %378
  %412 = phi i64 [ %408, %403 ], [ %393, %378 ]
  %413 = phi ptr [ %404, %403 ], [ %389, %378 ]
  %414 = getelementptr inbounds i32, ptr %413, i64 %412
  %415 = load i32, ptr %414, align 4, !tbaa !69
  %416 = icmp ne i32 %415, 2
  %417 = or i1 %388, %416
  br i1 %417, label %424, label %418

418:                                              ; preds = %411
  %419 = load ptr, ptr %6, align 8, !tbaa !14
  %420 = getelementptr inbounds i32, ptr %419, i64 %343
  %421 = load i32, ptr %420, align 4, !tbaa !17
  %422 = getelementptr inbounds i32, ptr %419, i64 %379
  %423 = load i32, ptr %422, align 4, !tbaa !17
  invoke void @_ZN6dealii15SparsityPattern3addEjj(ptr noundef nonnull align 8 dereferenceable(122) %1, i32 noundef %421, i32 noundef %423)
          to label %424 unwind label %409

424:                                              ; preds = %411, %418
  %425 = add nuw nsw i64 %379, 1
  %426 = icmp eq i64 %425, %22
  br i1 %426, label %375, label %378

427:                                              ; preds = %340
  call void @llvm.lifetime.start.p0(i64 32, ptr nonnull %15) #17
  invoke void @_ZNK6dealii17MGDoFCellAccessorILi3ELi3EE8neighborEj(ptr nonnull sret(%"class.dealii::TriaIterator") align 8 %15, ptr noundef nonnull align 8 dereferenceable(32) %9, i32 noundef %314)
          to label %428 unwind label %432

428:                                              ; preds = %427
  %429 = load i32, ptr %15, align 8, !tbaa !28
  %430 = load i32, ptr %9, align 8, !tbaa !28
  %431 = icmp slt i32 %429, %430
  br i1 %431, label %666, label %434

432:                                              ; preds = %427
  %433 = landingpad { ptr, i32 }
          cleanup
  br label %664

434:                                              ; preds = %428
  %435 = invoke noundef i32 @_ZNK6dealii12CellAccessorILi3ELi3EE20neighbor_of_neighborEj(ptr noundef nonnull align 8 dereferenceable(16) %9, i32 noundef %314)
          to label %436 unwind label %438

436:                                              ; preds = %434
  invoke void @_ZNK6dealii17MGDoFCellAccessorILi3ELi3EE18get_mg_dof_indicesERSt6vectorIjSaIjEE(ptr noundef nonnull align 8 dereferenceable(32) %15, ptr noundef nonnull align 8 dereferenceable(24) %7)
          to label %437 unwind label %438

437:                                              ; preds = %436
  br i1 %23, label %641, label %440

438:                                              ; preds = %436, %434
  %439 = landingpad { ptr, i32 }
          cleanup
  br label %664

440:                                              ; preds = %437, %456
  %441 = phi i64 [ %457, %456 ], [ 0, %437 ]
  %442 = load ptr, ptr %39, align 8, !tbaa !55
  %443 = load i32, ptr %174, align 8, !tbaa !17
  %444 = trunc i64 %441 to i32
  %445 = mul i32 %443, %444
  %446 = add i32 %445, %314
  %447 = zext i32 %446 to i64
  %448 = getelementptr inbounds i8, ptr %442, i64 %447
  %449 = load i8, ptr %448, align 1, !tbaa !56, !range !98, !noundef !99
  %450 = icmp eq i8 %449, 0
  %451 = add i32 %445, %435
  %452 = zext i32 %451 to i64
  %453 = getelementptr inbounds i8, ptr %442, i64 %452
  %454 = load i8, ptr %453, align 1, !tbaa !56, !range !98, !noundef !99
  %455 = icmp eq i8 %454, 0
  br label %459

456:                                              ; preds = %638
  %457 = add nuw nsw i64 %441, 1
  %458 = icmp eq i64 %457, %22
  br i1 %458, label %641, label %440

459:                                              ; preds = %440, %638
  %460 = phi i64 [ 0, %440 ], [ %639, %638 ]
  %461 = load ptr, ptr %39, align 8, !tbaa !55
  %462 = load i32, ptr %174, align 8, !tbaa !17
  %463 = trunc i64 %460 to i32
  %464 = mul i32 %462, %463
  %465 = add i32 %464, %314
  %466 = zext i32 %465 to i64
  %467 = getelementptr inbounds i8, ptr %461, i64 %466
  %468 = load i8, ptr %467, align 1, !tbaa !56, !range !98, !noundef !99
  %469 = icmp eq i8 %468, 0
  %470 = add i32 %464, %435
  %471 = zext i32 %470 to i64
  %472 = getelementptr inbounds i8, ptr %461, i64 %471
  %473 = load i8, ptr %472, align 1, !tbaa !56, !range !98, !noundef !99
  %474 = icmp eq i8 %473, 0
  %475 = load ptr, ptr %175, align 8, !tbaa !64
  %476 = load i32, ptr %176, align 8, !tbaa !17
  %477 = mul i32 %476, %444
  %478 = add i32 %477, %463
  %479 = zext i32 %478 to i64
  %480 = getelementptr inbounds i32, ptr %475, i64 %479
  %481 = load i32, ptr %480, align 4, !tbaa !69
  %482 = icmp eq i32 %481, 1
  br i1 %482, label %483, label %517

483:                                              ; preds = %459
  %484 = load ptr, ptr %6, align 8, !tbaa !14
  %485 = getelementptr inbounds i32, ptr %484, i64 %441
  %486 = load i32, ptr %485, align 4, !tbaa !17
  %487 = load ptr, ptr %7, align 8, !tbaa !14
  %488 = getelementptr inbounds i32, ptr %487, i64 %460
  %489 = load i32, ptr %488, align 4, !tbaa !17
  invoke void @_ZN6dealii15SparsityPattern3addEjj(ptr noundef nonnull align 8 dereferenceable(122) %1, i32 noundef %486, i32 noundef %489)
          to label %490 unwind label %515

490:                                              ; preds = %483
  %491 = load ptr, ptr %7, align 8, !tbaa !14
  %492 = getelementptr inbounds i32, ptr %491, i64 %441
  %493 = load i32, ptr %492, align 4, !tbaa !17
  %494 = load ptr, ptr %6, align 8, !tbaa !14
  %495 = getelementptr inbounds i32, ptr %494, i64 %460
  %496 = load i32, ptr %495, align 4, !tbaa !17
  invoke void @_ZN6dealii15SparsityPattern3addEjj(ptr noundef nonnull align 8 dereferenceable(122) %1, i32 noundef %493, i32 noundef %496)
          to label %497 unwind label %515

497:                                              ; preds = %490
  %498 = load ptr, ptr %6, align 8, !tbaa !14
  %499 = getelementptr inbounds i32, ptr %498, i64 %441
  %500 = load i32, ptr %499, align 4, !tbaa !17
  %501 = getelementptr inbounds i32, ptr %498, i64 %460
  %502 = load i32, ptr %501, align 4, !tbaa !17
  invoke void @_ZN6dealii15SparsityPattern3addEjj(ptr noundef nonnull align 8 dereferenceable(122) %1, i32 noundef %500, i32 noundef %502)
          to label %503 unwind label %515

503:                                              ; preds = %497
  %504 = load ptr, ptr %7, align 8, !tbaa !14
  %505 = getelementptr inbounds i32, ptr %504, i64 %441
  %506 = load i32, ptr %505, align 4, !tbaa !17
  %507 = getelementptr inbounds i32, ptr %504, i64 %460
  %508 = load i32, ptr %507, align 4, !tbaa !17
  invoke void @_ZN6dealii15SparsityPattern3addEjj(ptr noundef nonnull align 8 dereferenceable(122) %1, i32 noundef %506, i32 noundef %508)
          to label %509 unwind label %515

509:                                              ; preds = %503
  %510 = load ptr, ptr %175, align 8, !tbaa !64
  %511 = load i32, ptr %176, align 8, !tbaa !17
  %512 = mul i32 %511, %444
  %513 = add i32 %512, %463
  %514 = zext i32 %513 to i64
  br label %517

515:                                              ; preds = %632, %624, %615, %606, %586, %580, %573, %566, %551, %543, %534, %525, %503, %497, %490, %483
  %516 = landingpad { ptr, i32 }
          cleanup
  br label %664

517:                                              ; preds = %509, %459
  %518 = phi i64 [ %514, %509 ], [ %479, %459 ]
  %519 = phi ptr [ %510, %509 ], [ %475, %459 ]
  %520 = getelementptr inbounds i32, ptr %519, i64 %518
  %521 = load i32, ptr %520, align 4, !tbaa !69
  %522 = icmp eq i32 %521, 2
  br i1 %522, label %523, label %557

523:                                              ; preds = %517
  %524 = or i1 %450, %474
  br i1 %524, label %532, label %525

525:                                              ; preds = %523
  %526 = load ptr, ptr %6, align 8, !tbaa !14
  %527 = getelementptr inbounds i32, ptr %526, i64 %441
  %528 = load i32, ptr %527, align 4, !tbaa !17
  %529 = load ptr, ptr %7, align 8, !tbaa !14
  %530 = getelementptr inbounds i32, ptr %529, i64 %460
  %531 = load i32, ptr %530, align 4, !tbaa !17
  invoke void @_ZN6dealii15SparsityPattern3addEjj(ptr noundef nonnull align 8 dereferenceable(122) %1, i32 noundef %528, i32 noundef %531)
          to label %532 unwind label %515

532:                                              ; preds = %523, %525
  %533 = or i1 %455, %469
  br i1 %533, label %541, label %534

534:                                              ; preds = %532
  %535 = load ptr, ptr %7, align 8, !tbaa !14
  %536 = getelementptr inbounds i32, ptr %535, i64 %441
  %537 = load i32, ptr %536, align 4, !tbaa !17
  %538 = load ptr, ptr %6, align 8, !tbaa !14
  %539 = getelementptr inbounds i32, ptr %538, i64 %460
  %540 = load i32, ptr %539, align 4, !tbaa !17
  invoke void @_ZN6dealii15SparsityPattern3addEjj(ptr noundef nonnull align 8 dereferenceable(122) %1, i32 noundef %537, i32 noundef %540)
          to label %541 unwind label %515

541:                                              ; preds = %532, %534
  %542 = or i1 %450, %469
  br i1 %542, label %549, label %543

543:                                              ; preds = %541
  %544 = load ptr, ptr %6, align 8, !tbaa !14
  %545 = getelementptr inbounds i32, ptr %544, i64 %441
  %546 = load i32, ptr %545, align 4, !tbaa !17
  %547 = getelementptr inbounds i32, ptr %544, i64 %460
  %548 = load i32, ptr %547, align 4, !tbaa !17
  invoke void @_ZN6dealii15SparsityPattern3addEjj(ptr noundef nonnull align 8 dereferenceable(122) %1, i32 noundef %546, i32 noundef %548)
          to label %549 unwind label %515

549:                                              ; preds = %541, %543
  %550 = or i1 %455, %474
  br i1 %550, label %557, label %551

551:                                              ; preds = %549
  %552 = load ptr, ptr %7, align 8, !tbaa !14
  %553 = getelementptr inbounds i32, ptr %552, i64 %441
  %554 = load i32, ptr %553, align 4, !tbaa !17
  %555 = getelementptr inbounds i32, ptr %552, i64 %460
  %556 = load i32, ptr %555, align 4, !tbaa !17
  invoke void @_ZN6dealii15SparsityPattern3addEjj(ptr noundef nonnull align 8 dereferenceable(122) %1, i32 noundef %554, i32 noundef %556)
          to label %557 unwind label %515

557:                                              ; preds = %549, %551, %517
  %558 = load ptr, ptr %175, align 8, !tbaa !64
  %559 = load i32, ptr %176, align 8, !tbaa !17
  %560 = mul i32 %559, %463
  %561 = add i32 %560, %444
  %562 = zext i32 %561 to i64
  %563 = getelementptr inbounds i32, ptr %558, i64 %562
  %564 = load i32, ptr %563, align 4, !tbaa !69
  %565 = icmp eq i32 %564, 1
  br i1 %565, label %566, label %598

566:                                              ; preds = %557
  %567 = load ptr, ptr %6, align 8, !tbaa !14
  %568 = getelementptr inbounds i32, ptr %567, i64 %460
  %569 = load i32, ptr %568, align 4, !tbaa !17
  %570 = load ptr, ptr %7, align 8, !tbaa !14
  %571 = getelementptr inbounds i32, ptr %570, i64 %441
  %572 = load i32, ptr %571, align 4, !tbaa !17
  invoke void @_ZN6dealii15SparsityPattern3addEjj(ptr noundef nonnull align 8 dereferenceable(122) %1, i32 noundef %569, i32 noundef %572)
          to label %573 unwind label %515

573:                                              ; preds = %566
  %574 = load ptr, ptr %7, align 8, !tbaa !14
  %575 = getelementptr inbounds i32, ptr %574, i64 %460
  %576 = load i32, ptr %575, align 4, !tbaa !17
  %577 = load ptr, ptr %6, align 8, !tbaa !14
  %578 = getelementptr inbounds i32, ptr %577, i64 %441
  %579 = load i32, ptr %578, align 4, !tbaa !17
  invoke void @_ZN6dealii15SparsityPattern3addEjj(ptr noundef nonnull align 8 dereferenceable(122) %1, i32 noundef %576, i32 noundef %579)
          to label %580 unwind label %515

580:                                              ; preds = %573
  %581 = load ptr, ptr %6, align 8, !tbaa !14
  %582 = getelementptr inbounds i32, ptr %581, i64 %460
  %583 = load i32, ptr %582, align 4, !tbaa !17
  %584 = getelementptr inbounds i32, ptr %581, i64 %441
  %585 = load i32, ptr %584, align 4, !tbaa !17
  invoke void @_ZN6dealii15SparsityPattern3addEjj(ptr noundef nonnull align 8 dereferenceable(122) %1, i32 noundef %583, i32 noundef %585)
          to label %586 unwind label %515

586:                                              ; preds = %580
  %587 = load ptr, ptr %7, align 8, !tbaa !14
  %588 = getelementptr inbounds i32, ptr %587, i64 %460
  %589 = load i32, ptr %588, align 4, !tbaa !17
  %590 = getelementptr inbounds i32, ptr %587, i64 %441
  %591 = load i32, ptr %590, align 4, !tbaa !17
  invoke void @_ZN6dealii15SparsityPattern3addEjj(ptr noundef nonnull align 8 dereferenceable(122) %1, i32 noundef %589, i32 noundef %591)
          to label %592 unwind label %515

592:                                              ; preds = %586
  %593 = load ptr, ptr %175, align 8, !tbaa !64
  %594 = load i32, ptr %176, align 8, !tbaa !17
  %595 = mul i32 %594, %463
  %596 = add i32 %595, %444
  %597 = zext i32 %596 to i64
  br label %598

598:                                              ; preds = %592, %557
  %599 = phi i64 [ %597, %592 ], [ %562, %557 ]
  %600 = phi ptr [ %593, %592 ], [ %558, %557 ]
  %601 = getelementptr inbounds i32, ptr %600, i64 %599
  %602 = load i32, ptr %601, align 4, !tbaa !69
  %603 = icmp eq i32 %602, 2
  br i1 %603, label %604, label %638

604:                                              ; preds = %598
  %605 = or i1 %455, %469
  br i1 %605, label %613, label %606

606:                                              ; preds = %604
  %607 = load ptr, ptr %6, align 8, !tbaa !14
  %608 = getelementptr inbounds i32, ptr %607, i64 %460
  %609 = load i32, ptr %608, align 4, !tbaa !17
  %610 = load ptr, ptr %7, align 8, !tbaa !14
  %611 = getelementptr inbounds i32, ptr %610, i64 %441
  %612 = load i32, ptr %611, align 4, !tbaa !17
  invoke void @_ZN6dealii15SparsityPattern3addEjj(ptr noundef nonnull align 8 dereferenceable(122) %1, i32 noundef %609, i32 noundef %612)
          to label %613 unwind label %515

613:                                              ; preds = %604, %606
  %614 = or i1 %450, %474
  br i1 %614, label %622, label %615

615:                                              ; preds = %613
  %616 = load ptr, ptr %7, align 8, !tbaa !14
  %617 = getelementptr inbounds i32, ptr %616, i64 %460
  %618 = load i32, ptr %617, align 4, !tbaa !17
  %619 = load ptr, ptr %6, align 8, !tbaa !14
  %620 = getelementptr inbounds i32, ptr %619, i64 %441
  %621 = load i32, ptr %620, align 4, !tbaa !17
  invoke void @_ZN6dealii15SparsityPattern3addEjj(ptr noundef nonnull align 8 dereferenceable(122) %1, i32 noundef %618, i32 noundef %621)
          to label %622 unwind label %515

622:                                              ; preds = %613, %615
  %623 = or i1 %450, %469
  br i1 %623, label %630, label %624

624:                                              ; preds = %622
  %625 = load ptr, ptr %6, align 8, !tbaa !14
  %626 = getelementptr inbounds i32, ptr %625, i64 %460
  %627 = load i32, ptr %626, align 4, !tbaa !17
  %628 = getelementptr inbounds i32, ptr %625, i64 %441
  %629 = load i32, ptr %628, align 4, !tbaa !17
  invoke void @_ZN6dealii15SparsityPattern3addEjj(ptr noundef nonnull align 8 dereferenceable(122) %1, i32 noundef %627, i32 noundef %629)
          to label %630 unwind label %515

630:                                              ; preds = %622, %624
  %631 = or i1 %455, %474
  br i1 %631, label %638, label %632

632:                                              ; preds = %630
  %633 = load ptr, ptr %7, align 8, !tbaa !14
  %634 = getelementptr inbounds i32, ptr %633, i64 %460
  %635 = load i32, ptr %634, align 4, !tbaa !17
  %636 = getelementptr inbounds i32, ptr %633, i64 %441
  %637 = load i32, ptr %636, align 4, !tbaa !17
  invoke void @_ZN6dealii15SparsityPattern3addEjj(ptr noundef nonnull align 8 dereferenceable(122) %1, i32 noundef %635, i32 noundef %637)
          to label %638 unwind label %515

638:                                              ; preds = %630, %632, %598
  %639 = add nuw nsw i64 %460, 1
  %640 = icmp eq i64 %639, %22
  br i1 %640, label %456, label %459

641:                                              ; preds = %456, %437
  call void @llvm.lifetime.start.p0(i64 32, ptr nonnull %16) #17
  invoke void @_ZNK6dealii17MGDoFCellAccessorILi3ELi3EE4faceEj(ptr nonnull sret(%"class.dealii::TriaIterator.93") align 8 %16, ptr noundef nonnull align 8 dereferenceable(32) %15, i32 noundef %435)
          to label %642 unwind label %662

642:                                              ; preds = %641
  %643 = load ptr, ptr %177, align 8, !tbaa !71
  %644 = getelementptr inbounds %"class.dealii::Triangulation", ptr %643, i64 0, i32 2
  %645 = load ptr, ptr %644, align 8, !tbaa !73
  %646 = getelementptr inbounds %"class.dealii::internal::Triangulation::TriaObjects.236", ptr %645, i64 0, i32 4
  %647 = load i32, ptr %16, align 8, !tbaa !97
  %648 = load ptr, ptr %646, align 8, !tbaa !32
  %649 = sdiv i32 %647, 64
  %650 = sext i32 %649 to i64
  %651 = getelementptr inbounds i64, ptr %648, i64 %650
  %652 = srem i32 %647, 64
  %653 = sext i32 %652 to i64
  %654 = icmp slt i32 %652, 0
  %655 = add nsw i64 %653, 64
  %656 = ashr i64 %653, 63
  %657 = getelementptr inbounds i64, ptr %651, i64 %656
  %658 = select i1 %654, i64 %655, i64 %653
  %659 = shl nuw i64 1, %658
  %660 = load i64, ptr %657, align 8, !tbaa !34
  %661 = or i64 %659, %660
  store i64 %661, ptr %657, align 8, !tbaa !34
  call void @llvm.lifetime.end.p0(i64 32, ptr nonnull %16) #17
  call void @llvm.lifetime.end.p0(i64 32, ptr nonnull %15) #17
  br label %667

662:                                              ; preds = %641
  %663 = landingpad { ptr, i32 }
          cleanup
  call void @llvm.lifetime.end.p0(i64 32, ptr nonnull %16) #17
  br label %664

664:                                              ; preds = %438, %515, %662, %432
  %665 = phi { ptr, i32 } [ %433, %432 ], [ %516, %515 ], [ %663, %662 ], [ %439, %438 ]
  call void @llvm.lifetime.end.p0(i64 32, ptr nonnull %15) #17
  br label %670

666:                                              ; preds = %428
  call void @llvm.lifetime.end.p0(i64 32, ptr nonnull %15) #17
  br label %667

667:                                              ; preds = %375, %341, %642, %666, %315
  call void @llvm.lifetime.end.p0(i64 32, ptr nonnull %14) #17
  %668 = add nuw nsw i32 %314, 1
  %669 = icmp eq i32 %668, 6
  br i1 %669, label %213, label %313

670:                                              ; preds = %409, %373, %664, %336
  %671 = phi { ptr, i32 } [ %665, %664 ], [ %337, %336 ], [ %410, %409 ], [ %374, %373 ]
  call void @llvm.lifetime.end.p0(i64 32, ptr nonnull %14) #17
  br label %711

672:                                              ; preds = %307, %160
  %673 = load ptr, ptr %156, align 8, !tbaa !62
  invoke void @_ZN6dealii13TriangulationILi3ELi3EE15load_user_flagsERKSt6vectorIbSaIbEE(ptr noundef nonnull align 8 dereferenceable(8552) %673, ptr noundef nonnull align 8 dereferenceable(40) %13)
          to label %674 unwind label %187

674:                                              ; preds = %672
  %675 = load ptr, ptr %13, align 8, !tbaa !32
  %676 = icmp eq ptr %675, null
  br i1 %676, label %685, label %677

677:                                              ; preds = %674
  %678 = load ptr, ptr %155, align 8, !tbaa !59
  %679 = ptrtoint ptr %678 to i64
  %680 = ptrtoint ptr %675 to i64
  %681 = sub i64 %679, %680
  %682 = ashr exact i64 %681, 3
  %683 = sub nsw i64 0, %682
  %684 = getelementptr inbounds i64, ptr %678, i64 %683
  call void @_ZdlPv(ptr noundef %684) #19
  br label %685

685:                                              ; preds = %677, %674
  call void @llvm.lifetime.end.p0(i64 40, ptr nonnull %13) #17
  store ptr getelementptr inbounds ({ [4 x ptr] }, ptr @_ZTVN6dealii9TableBaseILi2ENS_8DoFTools8CouplingEEE, i64 0, inrange i32 0, i64 2), ptr %12, align 8, !tbaa !40
  %686 = getelementptr inbounds %"class.dealii::TableBase.79", ptr %12, i64 0, i32 1
  %687 = load ptr, ptr %686, align 8, !tbaa !64
  %688 = icmp eq ptr %687, null
  br i1 %688, label %690, label %689

689:                                              ; preds = %685
  call void @_ZdaPv(ptr noundef nonnull %687) #19
  br label %690

690:                                              ; preds = %689, %685
  invoke void @_ZN6dealii11SubscriptorD2Ev(ptr noundef nonnull align 8 dereferenceable(72) %12)
          to label %691 unwind label %78

691:                                              ; preds = %690
  call void @llvm.lifetime.end.p0(i64 96, ptr nonnull %12) #17
  store ptr getelementptr inbounds ({ [4 x ptr] }, ptr @_ZTVN6dealii9TableBaseILi2ENS_8DoFTools8CouplingEEE, i64 0, inrange i32 0, i64 2), ptr %11, align 8, !tbaa !40
  %692 = getelementptr inbounds %"class.dealii::TableBase.79", ptr %11, i64 0, i32 1
  %693 = load ptr, ptr %692, align 8, !tbaa !64
  %694 = icmp eq ptr %693, null
  br i1 %694, label %696, label %695

695:                                              ; preds = %691
  call void @_ZdaPv(ptr noundef nonnull %693) #19
  br label %696

696:                                              ; preds = %695, %691
  invoke void @_ZN6dealii11SubscriptorD2Ev(ptr noundef nonnull align 8 dereferenceable(72) %11)
          to label %697 unwind label %76

697:                                              ; preds = %696
  call void @llvm.lifetime.end.p0(i64 96, ptr nonnull %11) #17
  call void @llvm.lifetime.end.p0(i64 32, ptr nonnull %10) #17
  call void @llvm.lifetime.end.p0(i64 32, ptr nonnull %9) #17
  store ptr getelementptr inbounds ({ [4 x ptr] }, ptr @_ZTVN6dealii9TableBaseILi2EbEE, i64 0, inrange i32 0, i64 2), ptr %8, align 8, !tbaa !40
  %698 = load ptr, ptr %39, align 8, !tbaa !55
  %699 = icmp eq ptr %698, null
  br i1 %699, label %701, label %700

700:                                              ; preds = %697
  call void @_ZdaPv(ptr noundef nonnull %698) #19
  br label %701

701:                                              ; preds = %700, %697
  invoke void @_ZN6dealii11SubscriptorD2Ev(ptr noundef nonnull align 8 dereferenceable(72) %8)
          to label %702 unwind label %70

702:                                              ; preds = %701
  call void @llvm.lifetime.end.p0(i64 96, ptr nonnull %8) #17
  %703 = load ptr, ptr %7, align 8, !tbaa !14
  %704 = icmp eq ptr %703, null
  br i1 %704, label %706, label %705

705:                                              ; preds = %702
  call void @_ZdlPv(ptr noundef nonnull %703) #19
  br label %706

706:                                              ; preds = %705, %702
  call void @llvm.lifetime.end.p0(i64 24, ptr nonnull %7) #17
  %707 = load ptr, ptr %6, align 8, !tbaa !14
  %708 = icmp eq ptr %707, null
  br i1 %708, label %710, label %709

709:                                              ; preds = %706
  call void @_ZdlPv(ptr noundef nonnull %707) #19
  br label %710

710:                                              ; preds = %706, %709
  call void @llvm.lifetime.end.p0(i64 24, ptr nonnull %6) #17
  ret void

711:                                              ; preds = %185, %187, %208, %670
  %712 = phi { ptr, i32 } [ %671, %670 ], [ %209, %208 ], [ %186, %185 ], [ %188, %187 ]
  %713 = load ptr, ptr %13, align 8, !tbaa !32
  %714 = icmp eq ptr %713, null
  br i1 %714, label %723, label %715

715:                                              ; preds = %711
  %716 = load ptr, ptr %155, align 8, !tbaa !59
  %717 = ptrtoint ptr %716 to i64
  %718 = ptrtoint ptr %713 to i64
  %719 = sub i64 %717, %718
  %720 = ashr exact i64 %719, 3
  %721 = sub nsw i64 0, %720
  %722 = getelementptr inbounds i64, ptr %716, i64 %721
  call void @_ZdlPv(ptr noundef %722) #19
  store ptr null, ptr %13, align 8
  store i32 0, ptr %152, align 8
  br label %723

723:                                              ; preds = %715, %711
  call void @llvm.lifetime.end.p0(i64 40, ptr nonnull %13) #17
  br label %724

724:                                              ; preds = %723, %149
  %725 = phi { ptr, i32 } [ %150, %149 ], [ %712, %723 ]
  store ptr getelementptr inbounds ({ [4 x ptr] }, ptr @_ZTVN6dealii9TableBaseILi2ENS_8DoFTools8CouplingEEE, i64 0, inrange i32 0, i64 2), ptr %12, align 8, !tbaa !40
  %726 = getelementptr inbounds %"class.dealii::TableBase.79", ptr %12, i64 0, i32 1
  %727 = load ptr, ptr %726, align 8, !tbaa !64
  %728 = icmp eq ptr %727, null
  br i1 %728, label %730, label %729

729:                                              ; preds = %724
  call void @_ZdaPv(ptr noundef nonnull %727) #19
  br label %730

730:                                              ; preds = %729, %724
  invoke void @_ZN6dealii11SubscriptorD2Ev(ptr noundef nonnull align 8 dereferenceable(72) %12)
          to label %731 unwind label %759

731:                                              ; preds = %730, %78
  %732 = phi { ptr, i32 } [ %79, %78 ], [ %725, %730 ]
  call void @llvm.lifetime.end.p0(i64 96, ptr nonnull %12) #17
  store ptr getelementptr inbounds ({ [4 x ptr] }, ptr @_ZTVN6dealii9TableBaseILi2ENS_8DoFTools8CouplingEEE, i64 0, inrange i32 0, i64 2), ptr %11, align 8, !tbaa !40
  %733 = getelementptr inbounds %"class.dealii::TableBase.79", ptr %11, i64 0, i32 1
  %734 = load ptr, ptr %733, align 8, !tbaa !64
  %735 = icmp eq ptr %734, null
  br i1 %735, label %737, label %736

736:                                              ; preds = %731
  call void @_ZdaPv(ptr noundef nonnull %734) #19
  br label %737

737:                                              ; preds = %736, %731
  invoke void @_ZN6dealii11SubscriptorD2Ev(ptr noundef nonnull align 8 dereferenceable(72) %11)
          to label %738 unwind label %759

738:                                              ; preds = %737, %76
  %739 = phi { ptr, i32 } [ %77, %76 ], [ %732, %737 ]
  call void @llvm.lifetime.end.p0(i64 96, ptr nonnull %11) #17
  br label %740

740:                                              ; preds = %738, %74
  %741 = phi { ptr, i32 } [ %739, %738 ], [ %75, %74 ]
  call void @llvm.lifetime.end.p0(i64 32, ptr nonnull %10) #17
  br label %742

742:                                              ; preds = %740, %72
  %743 = phi { ptr, i32 } [ %741, %740 ], [ %73, %72 ]
  call void @llvm.lifetime.end.p0(i64 32, ptr nonnull %9) #17
  store ptr getelementptr inbounds ({ [4 x ptr] }, ptr @_ZTVN6dealii9TableBaseILi2EbEE, i64 0, inrange i32 0, i64 2), ptr %8, align 8, !tbaa !40
  %744 = load ptr, ptr %39, align 8, !tbaa !55
  %745 = icmp eq ptr %744, null
  br i1 %745, label %747, label %746

746:                                              ; preds = %742
  call void @_ZdaPv(ptr noundef nonnull %744) #19
  br label %747

747:                                              ; preds = %746, %742
  invoke void @_ZN6dealii11SubscriptorD2Ev(ptr noundef nonnull align 8 dereferenceable(72) %8)
          to label %748 unwind label %759

748:                                              ; preds = %747, %70, %50
  %749 = phi { ptr, i32 } [ %71, %70 ], [ %51, %50 ], [ %743, %747 ]
  call void @llvm.lifetime.end.p0(i64 96, ptr nonnull %8) #17
  %750 = load ptr, ptr %7, align 8, !tbaa !14
  %751 = icmp eq ptr %750, null
  br i1 %751, label %753, label %752

752:                                              ; preds = %748
  call void @_ZdlPv(ptr noundef nonnull %750) #19
  br label %753

753:                                              ; preds = %752, %748, %68
  %754 = phi { ptr, i32 } [ %69, %68 ], [ %749, %748 ], [ %749, %752 ]
  call void @llvm.lifetime.end.p0(i64 24, ptr nonnull %7) #17
  %755 = load ptr, ptr %6, align 8, !tbaa !14
  %756 = icmp eq ptr %755, null
  br i1 %756, label %758, label %757

757:                                              ; preds = %753
  call void @_ZdlPv(ptr noundef nonnull %755) #19
  br label %758

758:                                              ; preds = %757, %753
  call void @llvm.lifetime.end.p0(i64 24, ptr nonnull %6) #17
  resume { ptr, i32 } %754

759:                                              ; preds = %747, %737, %730
  %760 = landingpad { ptr, i32 }
          catch ptr null
  %761 = extractvalue { ptr, i32 } %760, 0
  call void @__clang_call_terminate(ptr %761) #20
  unreachable
}

declare void @_ZN6dealii8DoFTools38dof_couplings_from_component_couplingsILi3ELi3EEENS_5TableILi2ENS0_8CouplingEEERKNS_13FiniteElementIXT_EXT0_EEERKS4_(ptr sret(%"class.dealii::Table.78") align 8, ptr noundef nonnull align 8 dereferenceable(728), ptr noundef nonnull align 8 dereferenceable(92)) local_unnamed_addr #2

declare void @_ZNK6dealii13TriangulationILi3ELi3EE15save_user_flagsERSt6vectorIbSaIbEE(ptr noundef nonnull align 8 dereferenceable(8552), ptr noundef nonnull align 8 dereferenceable(40)) local_unnamed_addr #2

declare void @_ZN6dealii13TriangulationILi3ELi3EE16clear_user_flagsEv(ptr noundef nonnull align 8 dereferenceable(8552)) local_unnamed_addr #2

declare void @_ZNK6dealii17MGDoFCellAccessorILi3ELi3EE4faceEj(ptr sret(%"class.dealii::TriaIterator.93") align 8, ptr noundef nonnull align 8 dereferenceable(32), i32 noundef) local_unnamed_addr #2

declare noundef i32 @_ZNK6dealii12CellAccessorILi3ELi3EE20neighbor_of_neighborEj(ptr noundef nonnull align 8 dereferenceable(16), i32 noundef) local_unnamed_addr #2

declare void @_ZN6dealii13TriangulationILi3ELi3EE15load_user_flagsERKSt6vectorIbSaIbEE(ptr noundef nonnull align 8 dereferenceable(8552), ptr noundef nonnull align 8 dereferenceable(40)) local_unnamed_addr #2

; Function Attrs: sspstrong uwtable
define linkonce_odr dso_local void @_ZNSt13_Bvector_baseISaIbEED2Ev(ptr noundef nonnull align 8 dereferenceable(40) %0) unnamed_addr #0 comdat align 2 personality ptr @__gxx_personality_v0 {
  %2 = load ptr, ptr %0, align 8, !tbaa !32
  %3 = icmp eq ptr %2, null
  br i1 %3, label %16, label %4

4:                                                ; preds = %1
  %5 = getelementptr inbounds %"struct.std::_Bvector_base<std::allocator<bool> >::_Bvector_impl_data", ptr %0, i64 0, i32 2
  %6 = load ptr, ptr %5, align 8, !tbaa !59
  %7 = ptrtoint ptr %6 to i64
  %8 = ptrtoint ptr %2 to i64
  %9 = sub i64 %7, %8
  %10 = ashr exact i64 %9, 3
  %11 = sub nsw i64 0, %10
  %12 = getelementptr inbounds i64, ptr %6, i64 %11
  tail call void @_ZdlPv(ptr noundef %12) #19
  store ptr null, ptr %0, align 8
  %13 = getelementptr inbounds i8, ptr %0, i64 8
  store i32 0, ptr %13, align 8
  %14 = getelementptr inbounds i8, ptr %0, i64 16
  store ptr null, ptr %14, align 8
  %15 = getelementptr inbounds i8, ptr %0, i64 24
  store i32 0, ptr %15, align 8
  store ptr null, ptr %5, align 8
  br label %16

16:                                               ; preds = %4, %1
  ret void
}

; Function Attrs: sspstrong uwtable
define weak_odr dso_local void @_ZN6dealii7MGTools31make_flux_sparsity_pattern_edgeILi3ENS_15SparsityPatternELi3EEEvRKNS_12MGDoFHandlerIXT_EXT1_EEERT0_jRKNS_5TableILi2ENS_8DoFTools8CouplingEEE(ptr noundef nonnull align 8 dereferenceable(248) %0, ptr noundef nonnull align 8 dereferenceable(122) %1, i32 noundef %2, ptr noundef nonnull align 8 dereferenceable(92) %3) local_unnamed_addr #0 comdat align 2 personality ptr @__gxx_personality_v0 {
  %5 = alloca %"class.std::vector.20", align 8
  %6 = alloca %"class.std::vector.20", align 8
  %7 = alloca %"class.dealii::Table.74", align 8
  %8 = alloca %"class.dealii::TriaIterator", align 8
  %9 = alloca %"class.dealii::TriaIterator", align 8
  %10 = alloca %"class.dealii::Table.78", align 8
  %11 = alloca %"class.dealii::TriaIterator", align 8
  %12 = getelementptr inbounds %"class.dealii::DoFHandler", ptr %0, i64 0, i32 2
  %13 = load ptr, ptr %12, align 8, !tbaa !5
  %14 = tail call noundef i32 @_ZNK6dealii12MGDoFHandlerILi3ELi3EE6n_dofsEj(ptr noundef nonnull align 8 dereferenceable(248) %0, i32 noundef %2)
  %15 = add i32 %2, -1
  %16 = tail call noundef i32 @_ZNK6dealii12MGDoFHandlerILi3ELi3EE6n_dofsEj(ptr noundef nonnull align 8 dereferenceable(248) %0, i32 noundef %15)
  %17 = load ptr, ptr %12, align 8, !tbaa !5
  %18 = getelementptr inbounds i8, ptr %17, i64 112
  %19 = load i32, ptr %18, align 8, !tbaa !10
  call void @llvm.lifetime.start.p0(i64 24, ptr nonnull %5) #17
  %20 = zext i32 %19 to i64
  %21 = icmp eq i32 %19, 0
  br i1 %21, label %22, label %23

22:                                               ; preds = %4
  call void @llvm.memset.p0.i64(ptr noundef nonnull align 8 dereferenceable(24) %5, i8 0, i64 24, i1 false)
  call void @llvm.lifetime.start.p0(i64 24, ptr nonnull %6) #17
  call void @llvm.memset.p0.i64(ptr noundef nonnull align 8 dereferenceable(24) %6, i8 0, i64 24, i1 false)
  br label %33

23:                                               ; preds = %4
  %24 = shl nuw nsw i64 %20, 2
  %25 = tail call noalias noundef nonnull ptr @_Znwm(i64 noundef %24) #18
  store ptr %25, ptr %5, align 8, !tbaa !14
  %26 = getelementptr inbounds i32, ptr %25, i64 %20
  %27 = getelementptr inbounds %"struct.std::_Vector_base<unsigned int, std::allocator<unsigned int> >::_Vector_impl_data", ptr %5, i64 0, i32 2
  store ptr %26, ptr %27, align 8, !tbaa !16
  tail call void @llvm.memset.p0.i64(ptr nonnull align 4 %25, i8 0, i64 %24, i1 false), !tbaa !17
  %28 = getelementptr inbounds %"struct.std::_Vector_base<unsigned int, std::allocator<unsigned int> >::_Vector_impl_data", ptr %5, i64 0, i32 1
  store ptr %26, ptr %28, align 8, !tbaa !18
  call void @llvm.lifetime.start.p0(i64 24, ptr nonnull %6) #17
  %29 = invoke noalias noundef nonnull ptr @_Znwm(i64 noundef %24) #18
          to label %30 unwind label %79

30:                                               ; preds = %23
  store ptr %29, ptr %6, align 8, !tbaa !14
  %31 = getelementptr inbounds i32, ptr %29, i64 %20
  %32 = getelementptr inbounds %"struct.std::_Vector_base<unsigned int, std::allocator<unsigned int> >::_Vector_impl_data", ptr %6, i64 0, i32 2
  store ptr %31, ptr %32, align 8, !tbaa !16
  tail call void @llvm.memset.p0.i64(ptr nonnull align 4 %29, i8 0, i64 %24, i1 false), !tbaa !17
  br label %33

33:                                               ; preds = %30, %22
  %34 = phi ptr [ null, %22 ], [ %31, %30 ]
  %35 = getelementptr inbounds %"struct.std::_Vector_base<unsigned int, std::allocator<unsigned int> >::_Vector_impl_data", ptr %6, i64 0, i32 1
  store ptr %34, ptr %35, align 8, !tbaa !18
  call void @llvm.lifetime.start.p0(i64 96, ptr nonnull %7) #17
  invoke void @_ZN6dealii11SubscriptorC2Ev(ptr noundef nonnull align 8 dereferenceable(72) %7)
          to label %36 unwind label %81

36:                                               ; preds = %33
  store ptr getelementptr inbounds ({ [4 x ptr] }, ptr @_ZTVN6dealii9TableBaseILi2EbEE, i64 0, inrange i32 0, i64 2), ptr %7, align 8, !tbaa !40
  %37 = getelementptr inbounds %"class.dealii::TableBase.75", ptr %7, i64 0, i32 1
  %38 = getelementptr inbounds %"class.dealii::TableBase.75", ptr %7, i64 0, i32 3
  store i64 0, ptr %37, align 8
  %39 = or i64 %20, 25769803776
  store i64 %39, ptr %38, align 4
  %40 = mul i32 %19, 6
  %41 = icmp eq i32 %40, 0
  br i1 %41, label %42, label %43

42:                                               ; preds = %36
  call void @llvm.memset.p0.i64(ptr noundef nonnull align 8 dereferenceable(20) %37, i8 0, i64 20, i1 false)
  br label %53

43:                                               ; preds = %36
  %44 = getelementptr inbounds %"class.dealii::TableBase.75", ptr %7, i64 0, i32 2
  store i32 %40, ptr %44, align 8, !tbaa !42
  %45 = zext i32 %40 to i64
  %46 = invoke noalias noundef nonnull ptr @_Znam(i64 noundef %45) #18
          to label %47 unwind label %48

47:                                               ; preds = %43
  store ptr %46, ptr %37, align 8, !tbaa !55
  call void @llvm.memset.p0.i64(ptr nonnull align 1 %46, i8 0, i64 %45, i1 false), !tbaa !56
  br label %53

48:                                               ; preds = %43
  %49 = landingpad { ptr, i32 }
          cleanup
  invoke void @_ZN6dealii11SubscriptorD2Ev(ptr noundef nonnull align 8 dereferenceable(72) %7)
          to label %370 unwind label %50

50:                                               ; preds = %48
  %51 = landingpad { ptr, i32 }
          catch ptr null
  %52 = extractvalue { ptr, i32 } %51, 0
  call void @__clang_call_terminate(ptr %52) #20
  unreachable

53:                                               ; preds = %47, %42
  store ptr getelementptr inbounds ({ [4 x ptr] }, ptr @_ZTVN6dealii5TableILi2EbEE, i64 0, inrange i32 0, i64 2), ptr %7, align 8, !tbaa !40
  call void @llvm.lifetime.start.p0(i64 32, ptr nonnull %8) #17
  invoke void @_ZNK6dealii12MGDoFHandlerILi3ELi3EE5beginEj(ptr nonnull sret(%"class.dealii::TriaIterator") align 8 %8, ptr noundef nonnull align 8 dereferenceable(248) %0, i32 noundef %2)
          to label %54 unwind label %83

54:                                               ; preds = %53
  call void @llvm.lifetime.start.p0(i64 32, ptr nonnull %9) #17
  invoke void @_ZNK6dealii12MGDoFHandlerILi3ELi3EE3endEj(ptr nonnull sret(%"class.dealii::TriaIterator") align 8 %9, ptr noundef nonnull align 8 dereferenceable(248) %0, i32 noundef %2)
          to label %55 unwind label %85

55:                                               ; preds = %54
  call void @llvm.lifetime.start.p0(i64 96, ptr nonnull %10) #17
  invoke void @_ZN6dealii8DoFTools38dof_couplings_from_component_couplingsILi3ELi3EEENS_5TableILi2ENS0_8CouplingEEERKNS_13FiniteElementIXT_EXT0_EEERKS4_(ptr nonnull sret(%"class.dealii::Table.78") align 8 %10, ptr noundef nonnull align 8 dereferenceable(728) %13, ptr noundef nonnull align 8 dereferenceable(92) %3)
          to label %56 unwind label %87

56:                                               ; preds = %55
  br i1 %21, label %65, label %57

57:                                               ; preds = %56
  %58 = getelementptr inbounds %"class.dealii::TableBase.75", ptr %7, i64 0, i32 3, i32 0, i32 0, i64 1
  br label %59

59:                                               ; preds = %57, %148
  %60 = phi i32 [ 0, %57 ], [ %156, %148 ]
  %61 = load ptr, ptr %13, align 8, !tbaa !40
  %62 = getelementptr inbounds ptr, ptr %61, i64 9
  %63 = load ptr, ptr %62, align 8
  %64 = invoke noundef zeroext i1 %63(ptr noundef nonnull align 8 dereferenceable(728) %13, i32 noundef %60, i32 noundef 0)
          to label %89 unwind label %158

65:                                               ; preds = %148, %56
  %66 = getelementptr inbounds %"class.dealii::TriaAccessorBase", ptr %8, i64 0, i32 1
  %67 = getelementptr inbounds %"class.dealii::TriaAccessorBase", ptr %9, i64 0, i32 1
  %68 = load i32, ptr %66, align 4, !tbaa !19
  %69 = load i32, ptr %67, align 4, !tbaa !19
  %70 = icmp ne i32 %68, %69
  %71 = load i32, ptr %8, align 8
  %72 = load i32, ptr %9, align 8
  %73 = icmp ne i32 %71, %72
  %74 = select i1 %70, i1 true, i1 %73
  br i1 %74, label %75, label %333

75:                                               ; preds = %65
  %76 = getelementptr inbounds %"class.dealii::TriaAccessorBase", ptr %8, i64 0, i32 2
  %77 = getelementptr inbounds %"class.dealii::TableBase.79", ptr %10, i64 0, i32 1
  %78 = getelementptr inbounds %"class.dealii::TableBase.79", ptr %10, i64 0, i32 3, i32 0, i32 0, i64 1
  br label %160

79:                                               ; preds = %23
  %80 = landingpad { ptr, i32 }
          cleanup
  br label %375

81:                                               ; preds = %343, %33
  %82 = landingpad { ptr, i32 }
          cleanup
  br label %370

83:                                               ; preds = %53
  %84 = landingpad { ptr, i32 }
          cleanup
  br label %364

85:                                               ; preds = %54
  %86 = landingpad { ptr, i32 }
          cleanup
  br label %362

87:                                               ; preds = %338, %55
  %88 = landingpad { ptr, i32 }
          cleanup
  br label %360

89:                                               ; preds = %59
  %90 = load ptr, ptr %37, align 8, !tbaa !55
  %91 = load i32, ptr %58, align 8, !tbaa !17
  %92 = mul i32 %91, %60
  %93 = zext i32 %92 to i64
  %94 = getelementptr inbounds i8, ptr %90, i64 %93
  %95 = zext i1 %64 to i8
  store i8 %95, ptr %94, align 1, !tbaa !56
  %96 = load ptr, ptr %13, align 8, !tbaa !40
  %97 = getelementptr inbounds ptr, ptr %96, i64 9
  %98 = load ptr, ptr %97, align 8
  %99 = invoke noundef zeroext i1 %98(ptr noundef nonnull align 8 dereferenceable(728) %13, i32 noundef %60, i32 noundef 1)
          to label %100 unwind label %158

100:                                              ; preds = %89
  %101 = load ptr, ptr %37, align 8, !tbaa !55
  %102 = load i32, ptr %58, align 8, !tbaa !17
  %103 = mul i32 %102, %60
  %104 = add i32 %103, 1
  %105 = zext i32 %104 to i64
  %106 = getelementptr inbounds i8, ptr %101, i64 %105
  %107 = zext i1 %99 to i8
  store i8 %107, ptr %106, align 1, !tbaa !56
  %108 = load ptr, ptr %13, align 8, !tbaa !40
  %109 = getelementptr inbounds ptr, ptr %108, i64 9
  %110 = load ptr, ptr %109, align 8
  %111 = invoke noundef zeroext i1 %110(ptr noundef nonnull align 8 dereferenceable(728) %13, i32 noundef %60, i32 noundef 2)
          to label %112 unwind label %158

112:                                              ; preds = %100
  %113 = load ptr, ptr %37, align 8, !tbaa !55
  %114 = load i32, ptr %58, align 8, !tbaa !17
  %115 = mul i32 %114, %60
  %116 = add i32 %115, 2
  %117 = zext i32 %116 to i64
  %118 = getelementptr inbounds i8, ptr %113, i64 %117
  %119 = zext i1 %111 to i8
  store i8 %119, ptr %118, align 1, !tbaa !56
  %120 = load ptr, ptr %13, align 8, !tbaa !40
  %121 = getelementptr inbounds ptr, ptr %120, i64 9
  %122 = load ptr, ptr %121, align 8
  %123 = invoke noundef zeroext i1 %122(ptr noundef nonnull align 8 dereferenceable(728) %13, i32 noundef %60, i32 noundef 3)
          to label %124 unwind label %158

124:                                              ; preds = %112
  %125 = load ptr, ptr %37, align 8, !tbaa !55
  %126 = load i32, ptr %58, align 8, !tbaa !17
  %127 = mul i32 %126, %60
  %128 = add i32 %127, 3
  %129 = zext i32 %128 to i64
  %130 = getelementptr inbounds i8, ptr %125, i64 %129
  %131 = zext i1 %123 to i8
  store i8 %131, ptr %130, align 1, !tbaa !56
  %132 = load ptr, ptr %13, align 8, !tbaa !40
  %133 = getelementptr inbounds ptr, ptr %132, i64 9
  %134 = load ptr, ptr %133, align 8
  %135 = invoke noundef zeroext i1 %134(ptr noundef nonnull align 8 dereferenceable(728) %13, i32 noundef %60, i32 noundef 4)
          to label %136 unwind label %158

136:                                              ; preds = %124
  %137 = load ptr, ptr %37, align 8, !tbaa !55
  %138 = load i32, ptr %58, align 8, !tbaa !17
  %139 = mul i32 %138, %60
  %140 = add i32 %139, 4
  %141 = zext i32 %140 to i64
  %142 = getelementptr inbounds i8, ptr %137, i64 %141
  %143 = zext i1 %135 to i8
  store i8 %143, ptr %142, align 1, !tbaa !56
  %144 = load ptr, ptr %13, align 8, !tbaa !40
  %145 = getelementptr inbounds ptr, ptr %144, i64 9
  %146 = load ptr, ptr %145, align 8
  %147 = invoke noundef zeroext i1 %146(ptr noundef nonnull align 8 dereferenceable(728) %13, i32 noundef %60, i32 noundef 5)
          to label %148 unwind label %158

148:                                              ; preds = %136
  %149 = load ptr, ptr %37, align 8, !tbaa !55
  %150 = load i32, ptr %58, align 8, !tbaa !17
  %151 = mul i32 %150, %60
  %152 = add i32 %151, 5
  %153 = zext i32 %152 to i64
  %154 = getelementptr inbounds i8, ptr %149, i64 %153
  %155 = zext i1 %147 to i8
  store i8 %155, ptr %154, align 1, !tbaa !56
  %156 = add nuw i32 %60, 1
  %157 = icmp eq i32 %156, %19
  br i1 %157, label %65, label %59

158:                                              ; preds = %136, %124, %112, %100, %89, %59
  %159 = landingpad { ptr, i32 }
          cleanup
  br label %353

160:                                              ; preds = %75, %255
  invoke void @_ZNK6dealii17MGDoFCellAccessorILi3ELi3EE18get_mg_dof_indicesERSt6vectorIjSaIjEE(ptr noundef nonnull align 8 dereferenceable(32) %8, ptr noundef nonnull align 8 dereferenceable(24) %5)
          to label %263 unwind label %261

161:                                              ; preds = %330
  %162 = load ptr, ptr %76, align 8, !tbaa !21
  %163 = getelementptr inbounds %"class.dealii::Triangulation", ptr %162, i64 0, i32 1
  %164 = load ptr, ptr %163, align 8, !tbaa !22
  %165 = load i32, ptr %66, align 4
  %166 = load i32, ptr %8, align 8
  %167 = ptrtoint ptr %164 to i64
  %168 = getelementptr inbounds %"class.dealii::Triangulation", ptr %162, i64 0, i32 1, i32 0, i32 0, i32 0, i32 1
  br label %169

169:                                              ; preds = %240, %161
  %170 = phi i32 [ %235, %240 ], [ %166, %161 ]
  %171 = phi i32 [ %237, %240 ], [ %166, %161 ]
  %172 = phi i32 [ %236, %240 ], [ %165, %161 ]
  %173 = add nsw i32 %172, 1
  %174 = sext i32 %171 to i64
  %175 = getelementptr inbounds ptr, ptr %164, i64 %174
  %176 = load ptr, ptr %175, align 8, !tbaa !24
  %177 = getelementptr inbounds %"class.dealii::internal::Triangulation::TriaLevel", ptr %176, i64 0, i32 4
  %178 = getelementptr inbounds %"class.dealii::internal::Triangulation::TriaLevel", ptr %176, i64 0, i32 4, i32 0, i32 0, i32 0, i32 0, i32 0, i32 1
  %179 = load ptr, ptr %178, align 8, !tbaa !25
  %180 = load ptr, ptr %177, align 8, !tbaa !27
  %181 = ptrtoint ptr %179 to i64
  %182 = ptrtoint ptr %180 to i64
  %183 = sub i64 %181, %182
  %184 = sdiv exact i64 %183, 24
  %185 = trunc i64 %184 to i32
  %186 = icmp slt i32 %173, %185
  br i1 %186, label %234, label %187

187:                                              ; preds = %169
  %188 = add nsw i64 %174, 1
  %189 = trunc i64 %188 to i32
  store i32 %189, ptr %8, align 8, !tbaa !28
  %190 = load ptr, ptr %168, align 8, !tbaa !29
  %191 = ptrtoint ptr %190 to i64
  %192 = sub i64 %191, %167
  %193 = shl i64 %192, 29
  %194 = ashr i64 %193, 32
  %195 = icmp slt i64 %188, %194
  br i1 %195, label %196, label %228

196:                                              ; preds = %187
  %197 = getelementptr inbounds ptr, ptr %164, i64 %188
  %198 = load ptr, ptr %197, align 8, !tbaa !24
  %199 = getelementptr inbounds %"class.dealii::internal::Triangulation::TriaLevel", ptr %198, i64 0, i32 4
  %200 = getelementptr inbounds %"class.dealii::internal::Triangulation::TriaLevel", ptr %198, i64 0, i32 4, i32 0, i32 0, i32 0, i32 0, i32 0, i32 1
  %201 = load ptr, ptr %200, align 8, !tbaa !25
  %202 = load ptr, ptr %199, align 8, !tbaa !27
  %203 = ptrtoint ptr %201 to i64
  %204 = ptrtoint ptr %202 to i64
  %205 = sub i64 %203, %204
  %206 = sdiv exact i64 %205, 24
  %207 = trunc i64 %206 to i32
  %208 = icmp sgt i32 %207, 0
  br i1 %208, label %230, label %222

209:                                              ; preds = %222
  %210 = getelementptr inbounds ptr, ptr %164, i64 %224
  %211 = load ptr, ptr %210, align 8, !tbaa !24
  %212 = getelementptr inbounds %"class.dealii::internal::Triangulation::TriaLevel", ptr %211, i64 0, i32 4
  %213 = getelementptr inbounds %"class.dealii::internal::Triangulation::TriaLevel", ptr %211, i64 0, i32 4, i32 0, i32 0, i32 0, i32 0, i32 0, i32 1
  %214 = load ptr, ptr %213, align 8, !tbaa !25
  %215 = load ptr, ptr %212, align 8, !tbaa !27
  %216 = ptrtoint ptr %214 to i64
  %217 = ptrtoint ptr %215 to i64
  %218 = sub i64 %216, %217
  %219 = sdiv exact i64 %218, 24
  %220 = trunc i64 %219 to i32
  %221 = icmp sgt i32 %220, 0
  br i1 %221, label %229, label %222, !llvm.loop !30

222:                                              ; preds = %196, %209
  %223 = phi i64 [ %224, %209 ], [ %188, %196 ]
  %224 = add i64 %223, 1
  %225 = trunc i64 %224 to i32
  %226 = icmp eq i64 %224, %194
  br i1 %226, label %227, label %209, !llvm.loop !30

227:                                              ; preds = %222
  store i32 %225, ptr %8, align 8, !tbaa !28
  br label %228

228:                                              ; preds = %227, %187
  store i32 -1, ptr %8, align 8, !tbaa !28
  br label %234

229:                                              ; preds = %209
  store i32 %225, ptr %8, align 8, !tbaa !28
  br label %230

230:                                              ; preds = %229, %196
  %231 = phi i32 [ %189, %196 ], [ %225, %229 ]
  %232 = phi i64 [ %188, %196 ], [ %224, %229 ]
  %233 = trunc i64 %232 to i32
  br label %234

234:                                              ; preds = %230, %228, %169
  %235 = phi i32 [ %170, %169 ], [ -1, %228 ], [ %231, %230 ]
  %236 = phi i32 [ %173, %169 ], [ -1, %228 ], [ 0, %230 ]
  %237 = phi i32 [ %171, %169 ], [ -1, %228 ], [ %233, %230 ]
  %238 = or i32 %237, %236
  %239 = icmp sgt i32 %238, -1
  br i1 %239, label %240, label %255

240:                                              ; preds = %234
  %241 = zext i32 %237 to i64
  %242 = getelementptr inbounds ptr, ptr %164, i64 %241
  %243 = load ptr, ptr %242, align 8, !tbaa !24
  %244 = getelementptr inbounds %"class.dealii::internal::Triangulation::TriaLevel", ptr %243, i64 0, i32 4, i32 0, i32 3
  %245 = load ptr, ptr %244, align 8, !tbaa !32
  %246 = lshr i32 %236, 6
  %247 = zext i32 %246 to i64
  %248 = getelementptr inbounds i64, ptr %245, i64 %247
  %249 = and i32 %236, 63
  %250 = zext i32 %249 to i64
  %251 = shl nuw i64 1, %250
  %252 = load i64, ptr %248, align 8, !tbaa !34
  %253 = and i64 %252, %251
  %254 = icmp eq i64 %253, 0
  br i1 %254, label %169, label %255

255:                                              ; preds = %234, %240
  store i32 %236, ptr %66, align 4, !tbaa !19
  %256 = load i32, ptr %67, align 4, !tbaa !19
  %257 = icmp ne i32 %236, %256
  %258 = load i32, ptr %9, align 8
  %259 = icmp ne i32 %235, %258
  %260 = select i1 %257, i1 true, i1 %259
  br i1 %260, label %160, label %333

261:                                              ; preds = %160
  %262 = landingpad { ptr, i32 }
          cleanup
  br label %353

263:                                              ; preds = %160, %330
  %264 = phi i32 [ %331, %330 ], [ 0, %160 ]
  %265 = invoke noundef zeroext i1 @_ZNK6dealii12CellAccessorILi3ELi3EE11at_boundaryEj(ptr noundef nonnull align 8 dereferenceable(16) %8, i32 noundef %264)
          to label %266 unwind label %291

266:                                              ; preds = %263
  br i1 %265, label %330, label %267

267:                                              ; preds = %266
  %268 = load ptr, ptr %76, align 8, !tbaa !21
  %269 = getelementptr inbounds %"class.dealii::Triangulation", ptr %268, i64 0, i32 1
  %270 = load i32, ptr %8, align 8, !tbaa !28
  %271 = sext i32 %270 to i64
  %272 = load ptr, ptr %269, align 8, !tbaa !22
  %273 = getelementptr inbounds ptr, ptr %272, i64 %271
  %274 = load ptr, ptr %273, align 8, !tbaa !24
  %275 = getelementptr inbounds %"class.dealii::internal::Triangulation::TriaLevel", ptr %274, i64 0, i32 2
  %276 = load i32, ptr %66, align 4, !tbaa !19
  %277 = mul i32 %276, 6
  %278 = add i32 %277, %264
  %279 = zext i32 %278 to i64
  %280 = load ptr, ptr %275, align 8, !tbaa !36
  %281 = getelementptr inbounds %"struct.std::pair.234", ptr %280, i64 %279
  %282 = load i32, ptr %281, align 4, !tbaa !38
  %283 = icmp eq i32 %282, %2
  br i1 %283, label %330, label %284

284:                                              ; preds = %267
  call void @llvm.lifetime.start.p0(i64 32, ptr nonnull %11) #17
  invoke void @_ZNK6dealii17MGDoFCellAccessorILi3ELi3EE8neighborEj(ptr nonnull sret(%"class.dealii::TriaIterator") align 8 %11, ptr noundef nonnull align 8 dereferenceable(32) %8, i32 noundef %264)
          to label %285 unwind label %293

285:                                              ; preds = %284
  invoke void @_ZNK6dealii17MGDoFCellAccessorILi3ELi3EE18get_mg_dof_indicesERSt6vectorIjSaIjEE(ptr noundef nonnull align 8 dereferenceable(32) %11, ptr noundef nonnull align 8 dereferenceable(24) %6)
          to label %286 unwind label %293

286:                                              ; preds = %285
  br i1 %21, label %290, label %287

287:                                              ; preds = %286, %295
  %288 = phi i64 [ %296, %295 ], [ 0, %286 ]
  %289 = trunc i64 %288 to i32
  br label %298

290:                                              ; preds = %295, %286
  call void @llvm.lifetime.end.p0(i64 32, ptr nonnull %11) #17
  br label %330

291:                                              ; preds = %263
  %292 = landingpad { ptr, i32 }
          cleanup
  br label %353

293:                                              ; preds = %285, %284
  %294 = landingpad { ptr, i32 }
          cleanup
  br label %328

295:                                              ; preds = %325
  %296 = add nuw nsw i64 %288, 1
  %297 = icmp eq i64 %296, %20
  br i1 %297, label %290, label %287

298:                                              ; preds = %287, %325
  %299 = phi i64 [ 0, %287 ], [ %326, %325 ]
  %300 = load ptr, ptr %77, align 8, !tbaa !64
  %301 = load i32, ptr %78, align 8, !tbaa !17
  %302 = mul i32 %301, %289
  %303 = trunc i64 %299 to i32
  %304 = add i32 %302, %303
  %305 = zext i32 %304 to i64
  %306 = getelementptr inbounds i32, ptr %300, i64 %305
  %307 = load i32, ptr %306, align 4, !tbaa !69
  %308 = icmp eq i32 %307, 0
  br i1 %308, label %325, label %309

309:                                              ; preds = %298
  %310 = load ptr, ptr %6, align 8, !tbaa !14
  %311 = getelementptr inbounds i32, ptr %310, i64 %288
  %312 = load i32, ptr %311, align 4, !tbaa !17
  %313 = load ptr, ptr %5, align 8, !tbaa !14
  %314 = getelementptr inbounds i32, ptr %313, i64 %299
  %315 = load i32, ptr %314, align 4, !tbaa !17
  invoke void @_ZN6dealii15SparsityPattern3addEjj(ptr noundef nonnull align 8 dereferenceable(122) %1, i32 noundef %312, i32 noundef %315)
          to label %316 unwind label %323

316:                                              ; preds = %309
  %317 = load ptr, ptr %6, align 8, !tbaa !14
  %318 = getelementptr inbounds i32, ptr %317, i64 %299
  %319 = load i32, ptr %318, align 4, !tbaa !17
  %320 = load ptr, ptr %5, align 8, !tbaa !14
  %321 = getelementptr inbounds i32, ptr %320, i64 %288
  %322 = load i32, ptr %321, align 4, !tbaa !17
  invoke void @_ZN6dealii15SparsityPattern3addEjj(ptr noundef nonnull align 8 dereferenceable(122) %1, i32 noundef %319, i32 noundef %322)
          to label %325 unwind label %323

323:                                              ; preds = %316, %309
  %324 = landingpad { ptr, i32 }
          cleanup
  br label %328

325:                                              ; preds = %298, %316
  %326 = add nuw nsw i64 %299, 1
  %327 = icmp eq i64 %326, %20
  br i1 %327, label %295, label %298

328:                                              ; preds = %323, %293
  %329 = phi { ptr, i32 } [ %324, %323 ], [ %294, %293 ]
  call void @llvm.lifetime.end.p0(i64 32, ptr nonnull %11) #17
  br label %353

330:                                              ; preds = %266, %267, %290
  %331 = add nuw nsw i32 %264, 1
  %332 = icmp eq i32 %331, 6
  br i1 %332, label %161, label %263

333:                                              ; preds = %255, %65
  store ptr getelementptr inbounds ({ [4 x ptr] }, ptr @_ZTVN6dealii9TableBaseILi2ENS_8DoFTools8CouplingEEE, i64 0, inrange i32 0, i64 2), ptr %10, align 8, !tbaa !40
  %334 = getelementptr inbounds %"class.dealii::TableBase.79", ptr %10, i64 0, i32 1
  %335 = load ptr, ptr %334, align 8, !tbaa !64
  %336 = icmp eq ptr %335, null
  br i1 %336, label %338, label %337

337:                                              ; preds = %333
  call void @_ZdaPv(ptr noundef nonnull %335) #19
  br label %338

338:                                              ; preds = %337, %333
  invoke void @_ZN6dealii11SubscriptorD2Ev(ptr noundef nonnull align 8 dereferenceable(72) %10)
          to label %339 unwind label %87

339:                                              ; preds = %338
  call void @llvm.lifetime.end.p0(i64 96, ptr nonnull %10) #17
  call void @llvm.lifetime.end.p0(i64 32, ptr nonnull %9) #17
  call void @llvm.lifetime.end.p0(i64 32, ptr nonnull %8) #17
  store ptr getelementptr inbounds ({ [4 x ptr] }, ptr @_ZTVN6dealii9TableBaseILi2EbEE, i64 0, inrange i32 0, i64 2), ptr %7, align 8, !tbaa !40
  %340 = load ptr, ptr %37, align 8, !tbaa !55
  %341 = icmp eq ptr %340, null
  br i1 %341, label %343, label %342

342:                                              ; preds = %339
  call void @_ZdaPv(ptr noundef nonnull %340) #19
  br label %343

343:                                              ; preds = %342, %339
  invoke void @_ZN6dealii11SubscriptorD2Ev(ptr noundef nonnull align 8 dereferenceable(72) %7)
          to label %344 unwind label %81

344:                                              ; preds = %343
  call void @llvm.lifetime.end.p0(i64 96, ptr nonnull %7) #17
  %345 = load ptr, ptr %6, align 8, !tbaa !14
  %346 = icmp eq ptr %345, null
  br i1 %346, label %348, label %347

347:                                              ; preds = %344
  call void @_ZdlPv(ptr noundef nonnull %345) #19
  br label %348

348:                                              ; preds = %347, %344
  call void @llvm.lifetime.end.p0(i64 24, ptr nonnull %6) #17
  %349 = load ptr, ptr %5, align 8, !tbaa !14
  %350 = icmp eq ptr %349, null
  br i1 %350, label %352, label %351

351:                                              ; preds = %348
  call void @_ZdlPv(ptr noundef nonnull %349) #19
  br label %352

352:                                              ; preds = %348, %351
  call void @llvm.lifetime.end.p0(i64 24, ptr nonnull %5) #17
  ret void

353:                                              ; preds = %291, %328, %261, %158
  %354 = phi { ptr, i32 } [ %159, %158 ], [ %262, %261 ], [ %329, %328 ], [ %292, %291 ]
  store ptr getelementptr inbounds ({ [4 x ptr] }, ptr @_ZTVN6dealii9TableBaseILi2ENS_8DoFTools8CouplingEEE, i64 0, inrange i32 0, i64 2), ptr %10, align 8, !tbaa !40
  %355 = getelementptr inbounds %"class.dealii::TableBase.79", ptr %10, i64 0, i32 1
  %356 = load ptr, ptr %355, align 8, !tbaa !64
  %357 = icmp eq ptr %356, null
  br i1 %357, label %359, label %358

358:                                              ; preds = %353
  call void @_ZdaPv(ptr noundef nonnull %356) #19
  br label %359

359:                                              ; preds = %358, %353
  invoke void @_ZN6dealii11SubscriptorD2Ev(ptr noundef nonnull align 8 dereferenceable(72) %10)
          to label %360 unwind label %381

360:                                              ; preds = %359, %87
  %361 = phi { ptr, i32 } [ %88, %87 ], [ %354, %359 ]
  call void @llvm.lifetime.end.p0(i64 96, ptr nonnull %10) #17
  br label %362

362:                                              ; preds = %360, %85
  %363 = phi { ptr, i32 } [ %361, %360 ], [ %86, %85 ]
  call void @llvm.lifetime.end.p0(i64 32, ptr nonnull %9) #17
  br label %364

364:                                              ; preds = %362, %83
  %365 = phi { ptr, i32 } [ %363, %362 ], [ %84, %83 ]
  call void @llvm.lifetime.end.p0(i64 32, ptr nonnull %8) #17
  store ptr getelementptr inbounds ({ [4 x ptr] }, ptr @_ZTVN6dealii9TableBaseILi2EbEE, i64 0, inrange i32 0, i64 2), ptr %7, align 8, !tbaa !40
  %366 = load ptr, ptr %37, align 8, !tbaa !55
  %367 = icmp eq ptr %366, null
  br i1 %367, label %369, label %368

368:                                              ; preds = %364
  call void @_ZdaPv(ptr noundef nonnull %366) #19
  br label %369

369:                                              ; preds = %368, %364
  invoke void @_ZN6dealii11SubscriptorD2Ev(ptr noundef nonnull align 8 dereferenceable(72) %7)
          to label %370 unwind label %381

370:                                              ; preds = %369, %81, %48
  %371 = phi { ptr, i32 } [ %82, %81 ], [ %49, %48 ], [ %365, %369 ]
  call void @llvm.lifetime.end.p0(i64 96, ptr nonnull %7) #17
  %372 = load ptr, ptr %6, align 8, !tbaa !14
  %373 = icmp eq ptr %372, null
  br i1 %373, label %375, label %374

374:                                              ; preds = %370
  call void @_ZdlPv(ptr noundef nonnull %372) #19
  br label %375

375:                                              ; preds = %374, %370, %79
  %376 = phi { ptr, i32 } [ %80, %79 ], [ %371, %370 ], [ %371, %374 ]
  call void @llvm.lifetime.end.p0(i64 24, ptr nonnull %6) #17
  %377 = load ptr, ptr %5, align 8, !tbaa !14
  %378 = icmp eq ptr %377, null
  br i1 %378, label %380, label %379

379:                                              ; preds = %375
  call void @_ZdlPv(ptr noundef nonnull %377) #19
  br label %380

380:                                              ; preds = %379, %375
  call void @llvm.lifetime.end.p0(i64 24, ptr nonnull %5) #17
  resume { ptr, i32 } %376

381:                                              ; preds = %369, %359
  %382 = landingpad { ptr, i32 }
          catch ptr null
  %383 = extractvalue { ptr, i32 } %382, 0
  call void @__clang_call_terminate(ptr %383) #20
  unreachable
}

; Function Attrs: sspstrong uwtable
define weak_odr dso_local void @_ZN6dealii7MGTools21make_sparsity_patternILi3ENS_25CompressedSparsityPatternELi3EEEvRKNS_12MGDoFHandlerIXT_EXT1_EEERT0_j(ptr noundef nonnull align 8 dereferenceable(248) %0, ptr noundef nonnull align 8 dereferenceable(104) %1, i32 noundef %2) local_unnamed_addr #0 comdat align 2 personality ptr @__gxx_personality_v0 {
  %4 = alloca %"class.std::vector.20", align 8
  %5 = alloca %"class.dealii::TriaIterator", align 8
  %6 = alloca %"class.dealii::TriaIterator", align 8
  %7 = tail call noundef i32 @_ZNK6dealii12MGDoFHandlerILi3ELi3EE6n_dofsEj(ptr noundef nonnull align 8 dereferenceable(248) %0, i32 noundef %2)
  %8 = getelementptr inbounds %"class.dealii::DoFHandler", ptr %0, i64 0, i32 2
  %9 = load ptr, ptr %8, align 8, !tbaa !5
  %10 = getelementptr inbounds i8, ptr %9, i64 112
  %11 = load i32, ptr %10, align 8, !tbaa !10
  call void @llvm.lifetime.start.p0(i64 24, ptr nonnull %4) #17
  %12 = icmp eq i32 %11, 0
  br i1 %12, label %13, label %14

13:                                               ; preds = %3
  call void @llvm.memset.p0.i64(ptr noundef nonnull align 8 dereferenceable(24) %4, i8 0, i64 24, i1 false)
  br label %20

14:                                               ; preds = %3
  %15 = zext i32 %11 to i64
  %16 = shl nuw nsw i64 %15, 2
  %17 = tail call noalias noundef nonnull ptr @_Znwm(i64 noundef %16) #18
  store ptr %17, ptr %4, align 8, !tbaa !14
  %18 = getelementptr inbounds i32, ptr %17, i64 %15
  %19 = getelementptr inbounds %"struct.std::_Vector_base<unsigned int, std::allocator<unsigned int> >::_Vector_impl_data", ptr %4, i64 0, i32 2
  store ptr %18, ptr %19, align 8, !tbaa !16
  tail call void @llvm.memset.p0.i64(ptr nonnull align 4 %17, i8 0, i64 %16, i1 false), !tbaa !17
  br label %20

20:                                               ; preds = %14, %13
  %21 = phi ptr [ null, %13 ], [ %18, %14 ]
  %22 = getelementptr inbounds %"struct.std::_Vector_base<unsigned int, std::allocator<unsigned int> >::_Vector_impl_data", ptr %4, i64 0, i32 1
  store ptr %21, ptr %22, align 8, !tbaa !18
  call void @llvm.lifetime.start.p0(i64 32, ptr nonnull %5) #17
  invoke void @_ZNK6dealii12MGDoFHandlerILi3ELi3EE5beginEj(ptr nonnull sret(%"class.dealii::TriaIterator") align 8 %5, ptr noundef nonnull align 8 dereferenceable(248) %0, i32 noundef %2)
          to label %23 unwind label %142

23:                                               ; preds = %20
  call void @llvm.lifetime.start.p0(i64 32, ptr nonnull %6) #17
  invoke void @_ZNK6dealii12MGDoFHandlerILi3ELi3EE3endEj(ptr nonnull sret(%"class.dealii::TriaIterator") align 8 %6, ptr noundef nonnull align 8 dereferenceable(248) %0, i32 noundef %2)
          to label %24 unwind label %146

24:                                               ; preds = %23
  %25 = getelementptr inbounds %"class.dealii::TriaAccessorBase", ptr %5, i64 0, i32 1
  %26 = getelementptr inbounds %"class.dealii::TriaAccessorBase", ptr %6, i64 0, i32 1
  %27 = load i32, ptr %25, align 4, !tbaa !19
  %28 = load i32, ptr %26, align 4, !tbaa !19
  %29 = icmp ne i32 %27, %28
  %30 = load i32, ptr %5, align 8
  %31 = load i32, ptr %6, align 8
  %32 = icmp ne i32 %30, %31
  %33 = select i1 %29, i1 true, i1 %32
  br i1 %33, label %34, label %190

34:                                               ; preds = %24
  %35 = getelementptr inbounds %"class.dealii::CompressedSparsityPattern", ptr %1, i64 0, i32 3
  %36 = getelementptr inbounds %"class.dealii::TriaAccessorBase", ptr %5, i64 0, i32 2
  %37 = zext i32 %11 to i64
  br label %38

38:                                               ; preds = %34, %136
  invoke void @_ZNK6dealii17MGDoFCellAccessorILi3ELi3EE18get_mg_dof_indicesERSt6vectorIjSaIjEE(ptr noundef nonnull align 8 dereferenceable(32) %5, ptr noundef nonnull align 8 dereferenceable(24) %4)
          to label %39 unwind label %144

39:                                               ; preds = %38
  br i1 %12, label %42, label %40

40:                                               ; preds = %39, %148
  %41 = phi i64 [ %149, %148 ], [ 0, %39 ]
  br label %151

42:                                               ; preds = %148, %39
  %43 = load ptr, ptr %36, align 8, !tbaa !21
  %44 = getelementptr inbounds %"class.dealii::Triangulation", ptr %43, i64 0, i32 1
  %45 = load ptr, ptr %44, align 8, !tbaa !22
  %46 = load i32, ptr %25, align 4
  %47 = load i32, ptr %5, align 8
  %48 = ptrtoint ptr %45 to i64
  %49 = getelementptr inbounds %"class.dealii::Triangulation", ptr %43, i64 0, i32 1, i32 0, i32 0, i32 0, i32 1
  br label %50

50:                                               ; preds = %121, %42
  %51 = phi i32 [ %116, %121 ], [ %47, %42 ]
  %52 = phi i32 [ %118, %121 ], [ %47, %42 ]
  %53 = phi i32 [ %117, %121 ], [ %46, %42 ]
  %54 = add nsw i32 %53, 1
  %55 = sext i32 %52 to i64
  %56 = getelementptr inbounds ptr, ptr %45, i64 %55
  %57 = load ptr, ptr %56, align 8, !tbaa !24
  %58 = getelementptr inbounds %"class.dealii::internal::Triangulation::TriaLevel", ptr %57, i64 0, i32 4
  %59 = getelementptr inbounds %"class.dealii::internal::Triangulation::TriaLevel", ptr %57, i64 0, i32 4, i32 0, i32 0, i32 0, i32 0, i32 0, i32 1
  %60 = load ptr, ptr %59, align 8, !tbaa !25
  %61 = load ptr, ptr %58, align 8, !tbaa !27
  %62 = ptrtoint ptr %60 to i64
  %63 = ptrtoint ptr %61 to i64
  %64 = sub i64 %62, %63
  %65 = sdiv exact i64 %64, 24
  %66 = trunc i64 %65 to i32
  %67 = icmp slt i32 %54, %66
  br i1 %67, label %115, label %68

68:                                               ; preds = %50
  %69 = add nsw i64 %55, 1
  %70 = trunc i64 %69 to i32
  store i32 %70, ptr %5, align 8, !tbaa !28
  %71 = load ptr, ptr %49, align 8, !tbaa !29
  %72 = ptrtoint ptr %71 to i64
  %73 = sub i64 %72, %48
  %74 = shl i64 %73, 29
  %75 = ashr i64 %74, 32
  %76 = icmp slt i64 %69, %75
  br i1 %76, label %77, label %109

77:                                               ; preds = %68
  %78 = getelementptr inbounds ptr, ptr %45, i64 %69
  %79 = load ptr, ptr %78, align 8, !tbaa !24
  %80 = getelementptr inbounds %"class.dealii::internal::Triangulation::TriaLevel", ptr %79, i64 0, i32 4
  %81 = getelementptr inbounds %"class.dealii::internal::Triangulation::TriaLevel", ptr %79, i64 0, i32 4, i32 0, i32 0, i32 0, i32 0, i32 0, i32 1
  %82 = load ptr, ptr %81, align 8, !tbaa !25
  %83 = load ptr, ptr %80, align 8, !tbaa !27
  %84 = ptrtoint ptr %82 to i64
  %85 = ptrtoint ptr %83 to i64
  %86 = sub i64 %84, %85
  %87 = sdiv exact i64 %86, 24
  %88 = trunc i64 %87 to i32
  %89 = icmp sgt i32 %88, 0
  br i1 %89, label %111, label %103

90:                                               ; preds = %103
  %91 = getelementptr inbounds ptr, ptr %45, i64 %105
  %92 = load ptr, ptr %91, align 8, !tbaa !24
  %93 = getelementptr inbounds %"class.dealii::internal::Triangulation::TriaLevel", ptr %92, i64 0, i32 4
  %94 = getelementptr inbounds %"class.dealii::internal::Triangulation::TriaLevel", ptr %92, i64 0, i32 4, i32 0, i32 0, i32 0, i32 0, i32 0, i32 1
  %95 = load ptr, ptr %94, align 8, !tbaa !25
  %96 = load ptr, ptr %93, align 8, !tbaa !27
  %97 = ptrtoint ptr %95 to i64
  %98 = ptrtoint ptr %96 to i64
  %99 = sub i64 %97, %98
  %100 = sdiv exact i64 %99, 24
  %101 = trunc i64 %100 to i32
  %102 = icmp sgt i32 %101, 0
  br i1 %102, label %110, label %103, !llvm.loop !30

103:                                              ; preds = %77, %90
  %104 = phi i64 [ %105, %90 ], [ %69, %77 ]
  %105 = add i64 %104, 1
  %106 = trunc i64 %105 to i32
  %107 = icmp eq i64 %105, %75
  br i1 %107, label %108, label %90, !llvm.loop !30

108:                                              ; preds = %103
  store i32 %106, ptr %5, align 8, !tbaa !28
  br label %109

109:                                              ; preds = %108, %68
  store i32 -1, ptr %5, align 8, !tbaa !28
  br label %115

110:                                              ; preds = %90
  store i32 %106, ptr %5, align 8, !tbaa !28
  br label %111

111:                                              ; preds = %110, %77
  %112 = phi i32 [ %70, %77 ], [ %106, %110 ]
  %113 = phi i64 [ %69, %77 ], [ %105, %110 ]
  %114 = trunc i64 %113 to i32
  br label %115

115:                                              ; preds = %111, %109, %50
  %116 = phi i32 [ %51, %50 ], [ -1, %109 ], [ %112, %111 ]
  %117 = phi i32 [ %54, %50 ], [ -1, %109 ], [ 0, %111 ]
  %118 = phi i32 [ %52, %50 ], [ -1, %109 ], [ %114, %111 ]
  %119 = or i32 %118, %117
  %120 = icmp sgt i32 %119, -1
  br i1 %120, label %121, label %136

121:                                              ; preds = %115
  %122 = zext i32 %118 to i64
  %123 = getelementptr inbounds ptr, ptr %45, i64 %122
  %124 = load ptr, ptr %123, align 8, !tbaa !24
  %125 = getelementptr inbounds %"class.dealii::internal::Triangulation::TriaLevel", ptr %124, i64 0, i32 4, i32 0, i32 3
  %126 = load ptr, ptr %125, align 8, !tbaa !32
  %127 = lshr i32 %117, 6
  %128 = zext i32 %127 to i64
  %129 = getelementptr inbounds i64, ptr %126, i64 %128
  %130 = and i32 %117, 63
  %131 = zext i32 %130 to i64
  %132 = shl nuw i64 1, %131
  %133 = load i64, ptr %129, align 8, !tbaa !34
  %134 = and i64 %133, %132
  %135 = icmp eq i64 %134, 0
  br i1 %135, label %50, label %136

136:                                              ; preds = %115, %121
  store i32 %117, ptr %25, align 4, !tbaa !19
  %137 = load i32, ptr %26, align 4, !tbaa !19
  %138 = icmp ne i32 %117, %137
  %139 = load i32, ptr %6, align 8
  %140 = icmp ne i32 %116, %139
  %141 = select i1 %138, i1 true, i1 %140
  br i1 %141, label %38, label %190

142:                                              ; preds = %20
  %143 = landingpad { ptr, i32 }
          cleanup
  br label %197

144:                                              ; preds = %38
  %145 = landingpad { ptr, i32 }
          cleanup
  br label %195

146:                                              ; preds = %23
  %147 = landingpad { ptr, i32 }
          cleanup
  br label %195

148:                                              ; preds = %185
  %149 = add nuw nsw i64 %41, 1
  %150 = icmp eq i64 %149, %37
  br i1 %150, label %42, label %40

151:                                              ; preds = %40, %185
  %152 = phi i64 [ 0, %40 ], [ %186, %185 ]
  %153 = load ptr, ptr %4, align 8, !tbaa !14
  %154 = getelementptr inbounds i32, ptr %153, i64 %41
  %155 = load i32, ptr %154, align 4, !tbaa !17
  %156 = getelementptr inbounds i32, ptr %153, i64 %152
  %157 = load i32, ptr %156, align 4, !tbaa !17
  %158 = zext i32 %155 to i64
  %159 = load ptr, ptr %35, align 8, !tbaa !100
  %160 = getelementptr inbounds %"struct.dealii::CompressedSparsityPattern::Line", ptr %159, i64 %158
  %161 = getelementptr inbounds %"struct.dealii::CompressedSparsityPattern::Line", ptr %159, i64 %158, i32 2
  %162 = load i32, ptr %161, align 8, !tbaa !102
  %163 = icmp eq i32 %162, 0
  br i1 %163, label %179, label %164

164:                                              ; preds = %151
  %165 = zext i32 %162 to i64
  br label %169

166:                                              ; preds = %169
  %167 = add nuw nsw i64 %170, 1
  %168 = icmp eq i64 %167, %165
  br i1 %168, label %174, label %169

169:                                              ; preds = %166, %164
  %170 = phi i64 [ 0, %164 ], [ %167, %166 ]
  %171 = getelementptr inbounds %"struct.dealii::CompressedSparsityPattern::Line", ptr %159, i64 %158, i32 1, i64 %170
  %172 = load i32, ptr %171, align 4, !tbaa !17
  %173 = icmp eq i32 %172, %157
  br i1 %173, label %185, label %166

174:                                              ; preds = %166
  %175 = icmp eq i32 %162, 8
  br i1 %175, label %176, label %179

176:                                              ; preds = %174
  invoke void @_ZNK6dealii25CompressedSparsityPattern4Line11flush_cacheEv(ptr noundef nonnull align 8 dereferenceable(60) %160)
          to label %177 unwind label %188

177:                                              ; preds = %176
  %178 = load i32, ptr %161, align 8, !tbaa !102
  br label %179

179:                                              ; preds = %177, %174, %151
  %180 = phi i32 [ %178, %177 ], [ %162, %174 ], [ 0, %151 ]
  %181 = zext i32 %180 to i64
  %182 = getelementptr inbounds %"struct.dealii::CompressedSparsityPattern::Line", ptr %159, i64 %158, i32 1, i64 %181
  store i32 %157, ptr %182, align 4, !tbaa !17
  %183 = load i32, ptr %161, align 8, !tbaa !102
  %184 = add i32 %183, 1
  store i32 %184, ptr %161, align 8, !tbaa !102
  br label %185

185:                                              ; preds = %169, %179
  %186 = add nuw nsw i64 %152, 1
  %187 = icmp eq i64 %186, %37
  br i1 %187, label %148, label %151

188:                                              ; preds = %176
  %189 = landingpad { ptr, i32 }
          cleanup
  br label %195

190:                                              ; preds = %136, %24
  call void @llvm.lifetime.end.p0(i64 32, ptr nonnull %6) #17
  call void @llvm.lifetime.end.p0(i64 32, ptr nonnull %5) #17
  %191 = load ptr, ptr %4, align 8, !tbaa !14
  %192 = icmp eq ptr %191, null
  br i1 %192, label %194, label %193

193:                                              ; preds = %190
  call void @_ZdlPv(ptr noundef nonnull %191) #19
  br label %194

194:                                              ; preds = %190, %193
  call void @llvm.lifetime.end.p0(i64 24, ptr nonnull %4) #17
  ret void

195:                                              ; preds = %144, %146, %188
  %196 = phi { ptr, i32 } [ %189, %188 ], [ %145, %144 ], [ %147, %146 ]
  call void @llvm.lifetime.end.p0(i64 32, ptr nonnull %6) #17
  br label %197

197:                                              ; preds = %195, %142
  %198 = phi { ptr, i32 } [ %196, %195 ], [ %143, %142 ]
  call void @llvm.lifetime.end.p0(i64 32, ptr nonnull %5) #17
  %199 = load ptr, ptr %4, align 8, !tbaa !14
  %200 = icmp eq ptr %199, null
  br i1 %200, label %202, label %201

201:                                              ; preds = %197
  call void @_ZdlPv(ptr noundef nonnull %199) #19
  br label %202

202:                                              ; preds = %201, %197
  call void @llvm.lifetime.end.p0(i64 24, ptr nonnull %4) #17
  resume { ptr, i32 } %198
}

; Function Attrs: sspstrong uwtable
define weak_odr dso_local void @_ZN6dealii7MGTools26make_flux_sparsity_patternILi3ENS_25CompressedSparsityPatternELi3EEEvRKNS_12MGDoFHandlerIXT_EXT1_EEERT0_j(ptr noundef nonnull align 8 dereferenceable(248) %0, ptr noundef nonnull align 8 dereferenceable(104) %1, i32 noundef %2) local_unnamed_addr #0 comdat align 2 personality ptr @__gxx_personality_v0 {
  %4 = alloca %"class.std::vector.20", align 8
  %5 = alloca %"class.std::vector.20", align 8
  %6 = alloca %"class.dealii::TriaIterator", align 8
  %7 = alloca %"class.dealii::TriaIterator", align 8
  %8 = alloca %"class.dealii::TriaIterator", align 8
  %9 = tail call noundef i32 @_ZNK6dealii12MGDoFHandlerILi3ELi3EE6n_dofsEj(ptr noundef nonnull align 8 dereferenceable(248) %0, i32 noundef %2)
  %10 = getelementptr inbounds %"class.dealii::DoFHandler", ptr %0, i64 0, i32 2
  %11 = load ptr, ptr %10, align 8, !tbaa !5
  %12 = getelementptr inbounds i8, ptr %11, i64 112
  %13 = load i32, ptr %12, align 8, !tbaa !10
  call void @llvm.lifetime.start.p0(i64 24, ptr nonnull %4) #17
  %14 = zext i32 %13 to i64
  %15 = icmp eq i32 %13, 0
  br i1 %15, label %16, label %17

16:                                               ; preds = %3
  call void @llvm.memset.p0.i64(ptr noundef nonnull align 8 dereferenceable(24) %4, i8 0, i64 24, i1 false)
  call void @llvm.lifetime.start.p0(i64 24, ptr nonnull %5) #17
  call void @llvm.memset.p0.i64(ptr noundef nonnull align 8 dereferenceable(24) %5, i8 0, i64 24, i1 false)
  br label %27

17:                                               ; preds = %3
  %18 = shl nuw nsw i64 %14, 2
  %19 = tail call noalias noundef nonnull ptr @_Znwm(i64 noundef %18) #18
  store ptr %19, ptr %4, align 8, !tbaa !14
  %20 = getelementptr inbounds i32, ptr %19, i64 %14
  %21 = getelementptr inbounds %"struct.std::_Vector_base<unsigned int, std::allocator<unsigned int> >::_Vector_impl_data", ptr %4, i64 0, i32 2
  store ptr %20, ptr %21, align 8, !tbaa !16
  tail call void @llvm.memset.p0.i64(ptr nonnull align 4 %19, i8 0, i64 %18, i1 false), !tbaa !17
  %22 = getelementptr inbounds %"struct.std::_Vector_base<unsigned int, std::allocator<unsigned int> >::_Vector_impl_data", ptr %4, i64 0, i32 1
  store ptr %20, ptr %22, align 8, !tbaa !18
  call void @llvm.lifetime.start.p0(i64 24, ptr nonnull %5) #17
  %23 = invoke noalias noundef nonnull ptr @_Znwm(i64 noundef %18) #18
          to label %24 unwind label %49

24:                                               ; preds = %17
  store ptr %23, ptr %5, align 8, !tbaa !14
  %25 = getelementptr inbounds i32, ptr %23, i64 %14
  %26 = getelementptr inbounds %"struct.std::_Vector_base<unsigned int, std::allocator<unsigned int> >::_Vector_impl_data", ptr %5, i64 0, i32 2
  store ptr %25, ptr %26, align 8, !tbaa !16
  tail call void @llvm.memset.p0.i64(ptr nonnull align 4 %23, i8 0, i64 %18, i1 false), !tbaa !17
  br label %27

27:                                               ; preds = %24, %16
  %28 = phi ptr [ null, %16 ], [ %25, %24 ]
  %29 = getelementptr inbounds %"struct.std::_Vector_base<unsigned int, std::allocator<unsigned int> >::_Vector_impl_data", ptr %5, i64 0, i32 1
  store ptr %28, ptr %29, align 8, !tbaa !18
  call void @llvm.lifetime.start.p0(i64 32, ptr nonnull %6) #17
  invoke void @_ZNK6dealii12MGDoFHandlerILi3ELi3EE5beginEj(ptr nonnull sret(%"class.dealii::TriaIterator") align 8 %6, ptr noundef nonnull align 8 dereferenceable(248) %0, i32 noundef %2)
          to label %30 unwind label %51

30:                                               ; preds = %27
  call void @llvm.lifetime.start.p0(i64 32, ptr nonnull %7) #17
  invoke void @_ZNK6dealii12MGDoFHandlerILi3ELi3EE3endEj(ptr nonnull sret(%"class.dealii::TriaIterator") align 8 %7, ptr noundef nonnull align 8 dereferenceable(248) %0, i32 noundef %2)
          to label %31 unwind label %55

31:                                               ; preds = %30
  %32 = getelementptr inbounds %"class.dealii::TriaAccessorBase", ptr %6, i64 0, i32 1
  %33 = getelementptr inbounds %"class.dealii::TriaAccessorBase", ptr %7, i64 0, i32 1
  %34 = load i32, ptr %32, align 4, !tbaa !19
  %35 = load i32, ptr %33, align 4, !tbaa !19
  %36 = icmp ne i32 %34, %35
  %37 = load i32, ptr %6, align 8
  %38 = load i32, ptr %7, align 8
  %39 = icmp ne i32 %37, %38
  %40 = select i1 %36, i1 true, i1 %39
  br i1 %40, label %41, label %278

41:                                               ; preds = %31
  %42 = getelementptr inbounds %"class.dealii::CompressedSparsityPattern", ptr %1, i64 0, i32 3
  %43 = getelementptr inbounds %"class.dealii::TriaAccessorBase", ptr %6, i64 0, i32 2
  br label %44

44:                                               ; preds = %41, %193
  invoke void @_ZNK6dealii17MGDoFCellAccessorILi3ELi3EE18get_mg_dof_indicesERSt6vectorIjSaIjEE(ptr noundef nonnull align 8 dereferenceable(32) %6, ptr noundef nonnull align 8 dereferenceable(24) %4)
          to label %45 unwind label %53

45:                                               ; preds = %44
  br i1 %15, label %46, label %47

46:                                               ; preds = %57, %45
  br label %199

47:                                               ; preds = %45, %57
  %48 = phi i64 [ %58, %57 ], [ 0, %45 ]
  br label %60

49:                                               ; preds = %17
  %50 = landingpad { ptr, i32 }
          cleanup
  br label %294

51:                                               ; preds = %27
  %52 = landingpad { ptr, i32 }
          cleanup
  br label %289

53:                                               ; preds = %44
  %54 = landingpad { ptr, i32 }
          cleanup
  br label %287

55:                                               ; preds = %30
  %56 = landingpad { ptr, i32 }
          cleanup
  br label %287

57:                                               ; preds = %94
  %58 = add nuw nsw i64 %48, 1
  %59 = icmp eq i64 %58, %14
  br i1 %59, label %46, label %47

60:                                               ; preds = %47, %94
  %61 = phi i64 [ 0, %47 ], [ %95, %94 ]
  %62 = load ptr, ptr %4, align 8, !tbaa !14
  %63 = getelementptr inbounds i32, ptr %62, i64 %48
  %64 = load i32, ptr %63, align 4, !tbaa !17
  %65 = getelementptr inbounds i32, ptr %62, i64 %61
  %66 = load i32, ptr %65, align 4, !tbaa !17
  %67 = zext i32 %64 to i64
  %68 = load ptr, ptr %42, align 8, !tbaa !100
  %69 = getelementptr inbounds %"struct.dealii::CompressedSparsityPattern::Line", ptr %68, i64 %67
  %70 = getelementptr inbounds %"struct.dealii::CompressedSparsityPattern::Line", ptr %68, i64 %67, i32 2
  %71 = load i32, ptr %70, align 8, !tbaa !102
  %72 = icmp eq i32 %71, 0
  br i1 %72, label %88, label %73

73:                                               ; preds = %60
  %74 = zext i32 %71 to i64
  br label %78

75:                                               ; preds = %78
  %76 = add nuw nsw i64 %79, 1
  %77 = icmp eq i64 %76, %74
  br i1 %77, label %83, label %78

78:                                               ; preds = %75, %73
  %79 = phi i64 [ 0, %73 ], [ %76, %75 ]
  %80 = getelementptr inbounds %"struct.dealii::CompressedSparsityPattern::Line", ptr %68, i64 %67, i32 1, i64 %79
  %81 = load i32, ptr %80, align 4, !tbaa !17
  %82 = icmp eq i32 %81, %66
  br i1 %82, label %94, label %75

83:                                               ; preds = %75
  %84 = icmp eq i32 %71, 8
  br i1 %84, label %85, label %88

85:                                               ; preds = %83
  invoke void @_ZNK6dealii25CompressedSparsityPattern4Line11flush_cacheEv(ptr noundef nonnull align 8 dereferenceable(60) %69)
          to label %86 unwind label %97

86:                                               ; preds = %85
  %87 = load i32, ptr %70, align 8, !tbaa !102
  br label %88

88:                                               ; preds = %86, %83, %60
  %89 = phi i32 [ %87, %86 ], [ %71, %83 ], [ 0, %60 ]
  %90 = zext i32 %89 to i64
  %91 = getelementptr inbounds %"struct.dealii::CompressedSparsityPattern::Line", ptr %68, i64 %67, i32 1, i64 %90
  store i32 %66, ptr %91, align 4, !tbaa !17
  %92 = load i32, ptr %70, align 8, !tbaa !102
  %93 = add i32 %92, 1
  store i32 %93, ptr %70, align 8, !tbaa !102
  br label %94

94:                                               ; preds = %78, %88
  %95 = add nuw nsw i64 %61, 1
  %96 = icmp eq i64 %95, %14
  br i1 %96, label %57, label %60

97:                                               ; preds = %85
  %98 = landingpad { ptr, i32 }
          cleanup
  br label %287

99:                                               ; preds = %275
  %100 = load ptr, ptr %43, align 8, !tbaa !21
  %101 = getelementptr inbounds %"class.dealii::Triangulation", ptr %100, i64 0, i32 1
