; ModuleID = 'source/multigrid/mg_transfer_component.cc'
source_filename = "source/multigrid/mg_transfer_component.cc"
target datalayout = "e-m:e-p270:32:32-p271:32:32-p272:64:64-i64:64-f80:128-n8:16:32:64-S128"
target triple = "x86_64-pc-linux-gnu"

module asm ".globl _ZSt21ios_base_library_initv"

%"class.std::vector.20" = type { %"struct.std::_Vector_base.21" }
%"struct.std::_Vector_base.21" = type { %"struct.std::_Vector_base<unsigned int, std::allocator<unsigned int> >::_Vector_impl" }
%"struct.std::_Vector_base<unsigned int, std::allocator<unsigned int> >::_Vector_impl" = type { %"struct.std::_Vector_base<unsigned int, std::allocator<unsigned int> >::_Vector_impl_data" }
%"struct.std::_Vector_base<unsigned int, std::allocator<unsigned int> >::_Vector_impl_data" = type { ptr, ptr, ptr }
%"class.dealii::TriaActiveIterator" = type { %"class.dealii::TriaIterator" }
%"class.dealii::TriaIterator" = type { %"class.dealii::TriaRawIterator" }
%"class.dealii::TriaRawIterator" = type { %"class.dealii::MGDoFCellAccessor" }
%"class.dealii::MGDoFCellAccessor" = type { %"class.dealii::MGDoFAccessor" }
%"class.dealii::MGDoFAccessor" = type { %"class.dealii::DoFCellAccessor", ptr }
%"class.dealii::DoFCellAccessor" = type { %"class.dealii::DoFAccessor" }
%"class.dealii::DoFAccessor" = type { %"class.dealii::CellAccessor", ptr }
%"class.dealii::CellAccessor" = type { %"class.dealii::TriaAccessor" }
%"class.dealii::TriaAccessor" = type { %"class.dealii::TriaAccessorBase" }
%"class.dealii::TriaAccessorBase" = type { i32, i32, ptr }
%"class.dealii::DoFHandler" = type { %"class.dealii::Subscriptor", %"class.dealii::SmartPointer", %"class.dealii::SmartPointer.16", %"class.std::vector", ptr, i32, %"class.std::vector.20" }
%"class.dealii::Subscriptor" = type { ptr, i32, %"class.std::map", ptr }
%"class.std::map" = type { %"class.std::_Rb_tree" }
%"class.std::_Rb_tree" = type { %"struct.std::_Rb_tree<const char *, std::pair<const char *const, unsigned int>, std::_Select1st<std::pair<const char *const, unsigned int> >, std::less<const char *> >::_Rb_tree_impl" }
%"struct.std::_Rb_tree<const char *, std::pair<const char *const, unsigned int>, std::_Select1st<std::pair<const char *const, unsigned int> >, std::less<const char *> >::_Rb_tree_impl" = type { %"struct.std::_Rb_tree_key_compare", %"struct.std::_Rb_tree_header" }
%"struct.std::_Rb_tree_key_compare" = type { %"struct.std::less" }
%"struct.std::less" = type { i8 }
%"struct.std::_Rb_tree_header" = type { %"struct.std::_Rb_tree_node_base", i64 }
%"struct.std::_Rb_tree_node_base" = type { i32, ptr, ptr, ptr }
%"class.dealii::SmartPointer" = type { ptr, ptr }
%"class.dealii::SmartPointer.16" = type { ptr, ptr }
%"class.std::vector" = type { %"struct.std::_Vector_base" }
%"struct.std::_Vector_base" = type { %"struct.std::_Vector_base<dealii::internal::DoFHandler::DoFLevel<3> *, std::allocator<dealii::internal::DoFHandler::DoFLevel<3> *> >::_Vector_impl" }
%"struct.std::_Vector_base<dealii::internal::DoFHandler::DoFLevel<3> *, std::allocator<dealii::internal::DoFHandler::DoFLevel<3> *> >::_Vector_impl" = type { %"struct.std::_Vector_base<dealii::internal::DoFHandler::DoFLevel<3> *, std::allocator<dealii::internal::DoFHandler::DoFLevel<3> *> >::_Vector_impl_data" }
%"struct.std::_Vector_base<dealii::internal::DoFHandler::DoFLevel<3> *, std::allocator<dealii::internal::DoFHandler::DoFLevel<3> *> >::_Vector_impl_data" = type { ptr, ptr, ptr }
%"class.dealii::MGTransferSelect" = type { %"class.dealii::MGTransferBase", %"class.dealii::MGTransferComponentBase", i32, i32 }
%"class.dealii::MGTransferBase" = type { %"class.dealii::Subscriptor" }
%"class.dealii::MGTransferComponentBase" = type { %"class.std::vector.64", %"class.std::vector.64", %"class.std::vector.20", %"class.std::vector.20", %"class.std::vector.73", %"class.std::vector.20", %"class.std::vector.73", %"class.std::vector.78", %"class.std::vector.83", %"class.std::vector.88" }
%"class.std::vector.64" = type { %"struct.std::_Bvector_base" }
%"struct.std::_Bvector_base" = type { %"struct.std::_Bvector_base<std::allocator<bool> >::_Bvector_impl" }
%"struct.std::_Bvector_base<std::allocator<bool> >::_Bvector_impl" = type { %"struct.std::_Bvector_base<std::allocator<bool> >::_Bvector_impl_data" }
%"struct.std::_Bvector_base<std::allocator<bool> >::_Bvector_impl_data" = type { %"struct.std::_Bit_iterator", %"struct.std::_Bit_iterator", ptr }
%"struct.std::_Bit_iterator" = type { %"struct.std::_Bit_iterator_base.base", [4 x i8] }
%"struct.std::_Bit_iterator_base.base" = type <{ ptr, i32 }>
%"class.std::vector.73" = type { %"struct.std::_Vector_base.74" }
%"struct.std::_Vector_base.74" = type { %"struct.std::_Vector_base<std::vector<unsigned int>, std::allocator<std::vector<unsigned int> > >::_Vector_impl" }
%"struct.std::_Vector_base<std::vector<unsigned int>, std::allocator<std::vector<unsigned int> > >::_Vector_impl" = type { %"struct.std::_Vector_base<std::vector<unsigned int>, std::allocator<std::vector<unsigned int> > >::_Vector_impl_data" }
%"struct.std::_Vector_base<std::vector<unsigned int>, std::allocator<std::vector<unsigned int> > >::_Vector_impl_data" = type { ptr, ptr, ptr }
%"class.std::vector.78" = type { %"struct.std::_Vector_base.79" }
%"struct.std::_Vector_base.79" = type { %"struct.std::_Vector_base<boost::shared_ptr<dealii::BlockSparsityPattern>, std::allocator<boost::shared_ptr<dealii::BlockSparsityPattern> > >::_Vector_impl" }
%"struct.std::_Vector_base<boost::shared_ptr<dealii::BlockSparsityPattern>, std::allocator<boost::shared_ptr<dealii::BlockSparsityPattern> > >::_Vector_impl" = type { %"struct.std::_Vector_base<boost::shared_ptr<dealii::BlockSparsityPattern>, std::allocator<boost::shared_ptr<dealii::BlockSparsityPattern> > >::_Vector_impl_data" }
%"struct.std::_Vector_base<boost::shared_ptr<dealii::BlockSparsityPattern>, std::allocator<boost::shared_ptr<dealii::BlockSparsityPattern> > >::_Vector_impl_data" = type { ptr, ptr, ptr }
%"class.std::vector.83" = type { %"struct.std::_Vector_base.84" }
%"struct.std::_Vector_base.84" = type { %"struct.std::_Vector_base<boost::shared_ptr<dealii::BlockSparseMatrix<double> >, std::allocator<boost::shared_ptr<dealii::BlockSparseMatrix<double> > > >::_Vector_impl" }
%"struct.std::_Vector_base<boost::shared_ptr<dealii::BlockSparseMatrix<double> >, std::allocator<boost::shared_ptr<dealii::BlockSparseMatrix<double> > > >::_Vector_impl" = type { %"struct.std::_Vector_base<boost::shared_ptr<dealii::BlockSparseMatrix<double> >, std::allocator<boost::shared_ptr<dealii::BlockSparseMatrix<double> > > >::_Vector_impl_data" }
%"struct.std::_Vector_base<boost::shared_ptr<dealii::BlockSparseMatrix<double> >, std::allocator<boost::shared_ptr<dealii::BlockSparseMatrix<double> > > >::_Vector_impl_data" = type { ptr, ptr, ptr }
%"class.std::vector.88" = type { %"struct.std::_Vector_base.89" }
%"struct.std::_Vector_base.89" = type { %"struct.std::_Vector_base<std::map<unsigned int, unsigned int>, std::allocator<std::map<unsigned int, unsigned int> > >::_Vector_impl" }
%"struct.std::_Vector_base<std::map<unsigned int, unsigned int>, std::allocator<std::map<unsigned int, unsigned int> > >::_Vector_impl" = type { %"struct.std::_Vector_base<std::map<unsigned int, unsigned int>, std::allocator<std::map<unsigned int, unsigned int> > >::_Vector_impl_data" }
%"struct.std::_Vector_base<std::map<unsigned int, unsigned int>, std::allocator<std::map<unsigned int, unsigned int> > >::_Vector_impl_data" = type { ptr, ptr, ptr }
%"class.dealii::FiniteElement" = type { %"class.dealii::Subscriptor", %"class.dealii::FiniteElementData", i8, %"class.std::vector.30", %"class.std::vector.30", %"class.dealii::FullMatrix", %"class.std::vector.35", %"class.std::vector.40", %"class.std::vector.35", %"class.std::vector.40", %"class.dealii::Table.45", %"class.std::vector.49", %"class.std::vector.54", %"class.std::vector.54", %"class.std::vector.59", %"class.std::vector.59", %"class.std::vector.20", %"class.std::vector.59", %"class.std::vector.64", %"class.std::vector.68", %"class.std::vector.20" }
%"class.dealii::FiniteElementData" = type { i32, i32, i32, i32, i32, i32, i32, i32, i32, i32, i32, i32, i32, i32, i32 }
%"class.std::vector.30" = type { %"struct.std::_Vector_base.31" }
%"struct.std::_Vector_base.31" = type { %"struct.std::_Vector_base<std::vector<dealii::FullMatrix<double> >, std::allocator<std::vector<dealii::FullMatrix<double> > > >::_Vector_impl" }
%"struct.std::_Vector_base<std::vector<dealii::FullMatrix<double> >, std::allocator<std::vector<dealii::FullMatrix<double> > > >::_Vector_impl" = type { %"struct.std::_Vector_base<std::vector<dealii::FullMatrix<double> >, std::allocator<std::vector<dealii::FullMatrix<double> > > >::_Vector_impl_data" }
%"struct.std::_Vector_base<std::vector<dealii::FullMatrix<double> >, std::allocator<std::vector<dealii::FullMatrix<double> > > >::_Vector_impl_data" = type { ptr, ptr, ptr }
%"class.dealii::FullMatrix" = type { %"class.dealii::Table.base", [4 x i8] }
%"class.dealii::Table.base" = type { %"class.dealii::TableBase.base" }
%"class.dealii::TableBase.base" = type <{ %"class.dealii::Subscriptor", ptr, i32, %"class.dealii::TableIndices" }>
%"class.dealii::TableIndices" = type { %"class.dealii::TableIndicesBase" }
%"class.dealii::TableIndicesBase" = type { [2 x i32] }
%"class.std::vector.35" = type { %"struct.std::_Vector_base.36" }
%"struct.std::_Vector_base.36" = type { %"struct.std::_Vector_base<dealii::Point<3>, std::allocator<dealii::Point<3> > >::_Vector_impl" }
%"struct.std::_Vector_base<dealii::Point<3>, std::allocator<dealii::Point<3> > >::_Vector_impl" = type { %"struct.std::_Vector_base<dealii::Point<3>, std::allocator<dealii::Point<3> > >::_Vector_impl_data" }
%"struct.std::_Vector_base<dealii::Point<3>, std::allocator<dealii::Point<3> > >::_Vector_impl_data" = type { ptr, ptr, ptr }
%"class.std::vector.40" = type { %"struct.std::_Vector_base.41" }
%"struct.std::_Vector_base.41" = type { %"struct.std::_Vector_base<dealii::Point<2>, std::allocator<dealii::Point<2> > >::_Vector_impl" }
%"struct.std::_Vector_base<dealii::Point<2>, std::allocator<dealii::Point<2> > >::_Vector_impl" = type { %"struct.std::_Vector_base<dealii::Point<2>, std::allocator<dealii::Point<2> > >::_Vector_impl_data" }
%"struct.std::_Vector_base<dealii::Point<2>, std::allocator<dealii::Point<2> > >::_Vector_impl_data" = type { ptr, ptr, ptr }
%"class.dealii::Table.45" = type { %"class.dealii::TableBase.base.47", [4 x i8] }
%"class.dealii::TableBase.base.47" = type <{ %"class.dealii::Subscriptor", ptr, i32, %"class.dealii::TableIndices" }>
%"class.std::vector.49" = type { %"struct.std::_Vector_base.50" }
%"struct.std::_Vector_base.50" = type { %"struct.std::_Vector_base<int, std::allocator<int> >::_Vector_impl" }
%"struct.std::_Vector_base<int, std::allocator<int> >::_Vector_impl" = type { %"struct.std::_Vector_base<int, std::allocator<int> >::_Vector_impl_data" }
%"struct.std::_Vector_base<int, std::allocator<int> >::_Vector_impl_data" = type { ptr, ptr, ptr }
%"class.std::vector.54" = type { %"struct.std::_Vector_base.55" }
%"struct.std::_Vector_base.55" = type { %"struct.std::_Vector_base<std::pair<unsigned int, unsigned int>, std::allocator<std::pair<unsigned int, unsigned int> > >::_Vector_impl" }
%"struct.std::_Vector_base<std::pair<unsigned int, unsigned int>, std::allocator<std::pair<unsigned int, unsigned int> > >::_Vector_impl" = type { %"struct.std::_Vector_base<std::pair<unsigned int, unsigned int>, std::allocator<std::pair<unsigned int, unsigned int> > >::_Vector_impl_data" }
%"struct.std::_Vector_base<std::pair<unsigned int, unsigned int>, std::allocator<std::pair<unsigned int, unsigned int> > >::_Vector_impl_data" = type { ptr, ptr, ptr }
%"class.std::vector.59" = type { %"struct.std::_Vector_base.60" }
%"struct.std::_Vector_base.60" = type { %"struct.std::_Vector_base<std::pair<std::pair<unsigned int, unsigned int>, unsigned int>, std::allocator<std::pair<std::pair<unsigned int, unsigned int>, unsigned int> > >::_Vector_impl" }
%"struct.std::_Vector_base<std::pair<std::pair<unsigned int, unsigned int>, unsigned int>, std::allocator<std::pair<std::pair<unsigned int, unsigned int>, unsigned int> > >::_Vector_impl" = type { %"struct.std::_Vector_base<std::pair<std::pair<unsigned int, unsigned int>, unsigned int>, std::allocator<std::pair<std::pair<unsigned int, unsigned int>, unsigned int> > >::_Vector_impl_data" }
%"struct.std::_Vector_base<std::pair<std::pair<unsigned int, unsigned int>, unsigned int>, std::allocator<std::pair<std::pair<unsigned int, unsigned int>, unsigned int> > >::_Vector_impl_data" = type { ptr, ptr, ptr }
%"class.std::vector.68" = type { %"struct.std::_Vector_base.69" }
%"struct.std::_Vector_base.69" = type { %"struct.std::_Vector_base<std::vector<bool>, std::allocator<std::vector<bool> > >::_Vector_impl" }
%"struct.std::_Vector_base<std::vector<bool>, std::allocator<std::vector<bool> > >::_Vector_impl" = type { %"struct.std::_Vector_base<std::vector<bool>, std::allocator<std::vector<bool> > >::_Vector_impl_data" }
%"struct.std::_Vector_base<std::vector<bool>, std::allocator<std::vector<bool> > >::_Vector_impl_data" = type { ptr, ptr, ptr }
%"class.dealii::Triangulation" = type { %"class.dealii::Subscriptor", %"class.std::vector.93", ptr, %"class.std::vector.35", %"class.std::vector.64", [255 x %"class.dealii::SmartPointer.98"], [255 x %"class.dealii::SmartPointer.98"], i8, i32, %"struct.dealii::internal::Triangulation::NumberCache", %"class.std::__cxx11::list" }
%"class.std::vector.93" = type { %"struct.std::_Vector_base.94" }
%"struct.std::_Vector_base.94" = type { %"struct.std::_Vector_base<dealii::internal::Triangulation::TriaLevel<3> *, std::allocator<dealii::internal::Triangulation::TriaLevel<3> *> >::_Vector_impl" }
%"struct.std::_Vector_base<dealii::internal::Triangulation::TriaLevel<3> *, std::allocator<dealii::internal::Triangulation::TriaLevel<3> *> >::_Vector_impl" = type { %"struct.std::_Vector_base<dealii::internal::Triangulation::TriaLevel<3> *, std::allocator<dealii::internal::Triangulation::TriaLevel<3> *> >::_Vector_impl_data" }
%"struct.std::_Vector_base<dealii::internal::Triangulation::TriaLevel<3> *, std::allocator<dealii::internal::Triangulation::TriaLevel<3> *> >::_Vector_impl_data" = type { ptr, ptr, ptr }
%"class.dealii::SmartPointer.98" = type { ptr, ptr }
%"struct.dealii::internal::Triangulation::NumberCache" = type { %"struct.dealii::internal::Triangulation::NumberCache.99", i32, %"class.std::vector.20", i32, %"class.std::vector.20" }
%"struct.dealii::internal::Triangulation::NumberCache.99" = type { %"struct.dealii::internal::Triangulation::NumberCache.100", i32, %"class.std::vector.20", i32, %"class.std::vector.20" }
%"struct.dealii::internal::Triangulation::NumberCache.100" = type { i32, %"class.std::vector.20", i32, %"class.std::vector.20" }
%"class.std::__cxx11::list" = type { %"class.std::__cxx11::_List_base" }
%"class.std::__cxx11::_List_base" = type { %"struct.std::__cxx11::_List_base<dealii::Triangulation<3, 3>::RefinementListener *, std::allocator<dealii::Triangulation<3, 3>::RefinementListener *> >::_List_impl" }
%"struct.std::__cxx11::_List_base<dealii::Triangulation<3, 3>::RefinementListener *, std::allocator<dealii::Triangulation<3, 3>::RefinementListener *> >::_List_impl" = type { %"struct.std::__detail::_List_node_header" }
%"struct.std::__detail::_List_node_header" = type { %"struct.std::__detail::_List_node_base", i64 }
%"struct.std::__detail::_List_node_base" = type { ptr, ptr }
%"class.dealii::internal::Triangulation::TriaLevel" = type { %"class.std::vector.171", %"class.std::vector.64", %"class.std::vector.181", %"class.std::vector.20", %"class.dealii::internal::Triangulation::TriaObjectsHex" }
%"class.std::vector.171" = type { %"struct.std::_Vector_base.172" }
%"struct.std::_Vector_base.172" = type { %"struct.std::_Vector_base<unsigned char, std::allocator<unsigned char> >::_Vector_impl" }
%"struct.std::_Vector_base<unsigned char, std::allocator<unsigned char> >::_Vector_impl" = type { %"struct.std::_Vector_base<unsigned char, std::allocator<unsigned char> >::_Vector_impl_data" }
%"struct.std::_Vector_base<unsigned char, std::allocator<unsigned char> >::_Vector_impl_data" = type { ptr, ptr, ptr }
%"class.std::vector.181" = type { %"struct.std::_Vector_base.182" }
%"struct.std::_Vector_base.182" = type { %"struct.std::_Vector_base<std::pair<int, int>, std::allocator<std::pair<int, int> > >::_Vector_impl" }
%"struct.std::_Vector_base<std::pair<int, int>, std::allocator<std::pair<int, int> > >::_Vector_impl" = type { %"struct.std::_Vector_base<std::pair<int, int>, std::allocator<std::pair<int, int> > >::_Vector_impl_data" }
%"struct.std::_Vector_base<std::pair<int, int>, std::allocator<std::pair<int, int> > >::_Vector_impl_data" = type { ptr, ptr, ptr }
%"class.dealii::internal::Triangulation::TriaObjectsHex" = type { %"class.dealii::internal::Triangulation::TriaObjects.base", %"class.std::vector.64", %"class.std::vector.64", %"class.std::vector.64" }
%"class.dealii::internal::Triangulation::TriaObjects.base" = type <{ %"class.std::vector.161", %"class.std::vector.49", %"class.std::vector.166", %"class.std::vector.64", %"class.std::vector.64", %"class.std::vector.171", i32, i32, i8, [7 x i8], %"class.std::vector.176", i32 }>
%"class.std::vector.161" = type { %"struct.std::_Vector_base.162" }
%"struct.std::_Vector_base.162" = type { %"struct.std::_Vector_base<dealii::internal::Triangulation::TriaObject<3>, std::allocator<dealii::internal::Triangulation::TriaObject<3> > >::_Vector_impl" }
%"struct.std::_Vector_base<dealii::internal::Triangulation::TriaObject<3>, std::allocator<dealii::internal::Triangulation::TriaObject<3> > >::_Vector_impl" = type { %"struct.std::_Vector_base<dealii::internal::Triangulation::TriaObject<3>, std::allocator<dealii::internal::Triangulation::TriaObject<3> > >::_Vector_impl_data" }
%"struct.std::_Vector_base<dealii::internal::Triangulation::TriaObject<3>, std::allocator<dealii::internal::Triangulation::TriaObject<3> > >::_Vector_impl_data" = type { ptr, ptr, ptr }
%"class.std::vector.166" = type { %"struct.std::_Vector_base.167" }
%"struct.std::_Vector_base.167" = type { %"struct.std::_Vector_base<dealii::RefinementCase<3>, std::allocator<dealii::RefinementCase<3> > >::_Vector_impl" }
%"struct.std::_Vector_base<dealii::RefinementCase<3>, std::allocator<dealii::RefinementCase<3> > >::_Vector_impl" = type { %"struct.std::_Vector_base<dealii::RefinementCase<3>, std::allocator<dealii::RefinementCase<3> > >::_Vector_impl_data" }
%"struct.std::_Vector_base<dealii::RefinementCase<3>, std::allocator<dealii::RefinementCase<3> > >::_Vector_impl_data" = type { ptr, ptr, ptr }
%"class.std::vector.176" = type { %"struct.std::_Vector_base.177" }
%"struct.std::_Vector_base.177" = type { %"struct.std::_Vector_base<dealii::internal::Triangulation::TriaObjects<dealii::internal::Triangulation::TriaObject<3> >::UserData, std::allocator<dealii::internal::Triangulation::TriaObjects<dealii::internal::Triangulation::TriaObject<3> >::UserData> >::_Vector_impl" }
%"struct.std::_Vector_base<dealii::internal::Triangulation::TriaObjects<dealii::internal::Triangulation::TriaObject<3> >::UserData, std::allocator<dealii::internal::Triangulation::TriaObjects<dealii::internal::Triangulation::TriaObject<3> >::UserData> >::_Vector_impl" = type { %"struct.std::_Vector_base<dealii::internal::Triangulation::TriaObjects<dealii::internal::Triangulation::TriaObject<3> >::UserData, std::allocator<dealii::internal::Triangulation::TriaObjects<dealii::internal::Triangulation::TriaObject<3> >::UserData> >::_Vector_impl_data" }
%"struct.std::_Vector_base<dealii::internal::Triangulation::TriaObjects<dealii::internal::Triangulation::TriaObject<3> >::UserData, std::allocator<dealii::internal::Triangulation::TriaObjects<dealii::internal::Triangulation::TriaObject<3> >::UserData> >::_Vector_impl_data" = type { ptr, ptr, ptr }
%"struct.std::pair" = type { i32, i32 }
%"class.std::map.105" = type { %"class.std::_Rb_tree.106" }
%"class.std::_Rb_tree.106" = type { %"struct.std::_Rb_tree<unsigned int, std::pair<const unsigned int, unsigned int>, std::_Select1st<std::pair<const unsigned int, unsigned int> >, std::less<unsigned int> >::_Rb_tree_impl" }
%"struct.std::_Rb_tree<unsigned int, std::pair<const unsigned int, unsigned int>, std::_Select1st<std::pair<const unsigned int, unsigned int> >, std::less<unsigned int> >::_Rb_tree_impl" = type { %"struct.std::_Rb_tree_key_compare.110", %"struct.std::_Rb_tree_header" }
%"struct.std::_Rb_tree_key_compare.110" = type { %"struct.std::less.111" }
%"struct.std::less.111" = type { i8 }
%"struct.std::_Rb_tree_node" = type { %"struct.std::_Rb_tree_node_base", %"struct.std::pair.115" }
%"struct.std::pair.115" = type { i32, i32 }
%"class.dealii::RefinementCase" = type { i8 }
%"class.boost::shared_ptr" = type { ptr, %"class.boost::detail::shared_count" }
%"class.boost::detail::shared_count" = type { ptr }
%"class.boost::shared_ptr.136" = type { ptr, %"class.boost::detail::shared_count" }
%"class.boost::detail::sp_counted_base" = type { ptr, i64, i64 }
%"class.boost::detail::sp_counted_impl_p" = type { %"class.boost::detail::sp_counted_base", ptr }
%"class.boost::detail::sp_counted_impl_p.159" = type { %"class.boost::detail::sp_counted_base", ptr }
%"class.dealii::BlockSparsityPatternBase" = type { %"class.dealii::Subscriptor", i32, i32, %"class.dealii::Table.137", %"class.dealii::BlockIndices", %"class.dealii::BlockIndices", %"class.std::vector.20", %"class.std::vector.73" }
%"class.dealii::Table.137" = type { %"class.dealii::TableBase.base.139", [4 x i8] }
%"class.dealii::TableBase.base.139" = type <{ %"class.dealii::Subscriptor", ptr, i32, %"class.dealii::TableIndices" }>
%"class.dealii::BlockIndices" = type { i32, %"class.std::vector.20" }
%"class.dealii::SmartPointer.160" = type { ptr, ptr }
%"class.dealii::TableBase" = type <{ %"class.dealii::Subscriptor", ptr, i32, %"class.dealii::TableIndices", [4 x i8] }>
%"class.dealii::BlockMatrixBase" = type { %"class.dealii::Subscriptor", %"class.dealii::BlockIndices", %"class.dealii::BlockIndices", %"class.dealii::Table.141", %"class.std::vector.20", %"class.std::vector.73", %"class.std::vector.145" }
%"class.dealii::Table.141" = type { %"class.dealii::TableBase.base.143", [4 x i8] }
%"class.dealii::TableBase.base.143" = type <{ %"class.dealii::Subscriptor", ptr, i32, %"class.dealii::TableIndices" }>
%"class.std::vector.145" = type { %"struct.std::_Vector_base.146" }
%"struct.std::_Vector_base.146" = type { %"struct.std::_Vector_base<std::vector<double>, std::allocator<std::vector<double> > >::_Vector_impl" }
%"struct.std::_Vector_base<std::vector<double>, std::allocator<std::vector<double> > >::_Vector_impl" = type { %"struct.std::_Vector_base<std::vector<double>, std::allocator<std::vector<double> > >::_Vector_impl_data" }
%"struct.std::_Vector_base<std::vector<double>, std::allocator<std::vector<double> > >::_Vector_impl_data" = type { ptr, ptr, ptr }
%"class.dealii::SmartPointer.190" = type { ptr, ptr }
%"class.dealii::SparseMatrix" = type <{ ptr, %"class.dealii::SmartPointer.188", ptr, i32, [4 x i8], %"class.dealii::Subscriptor" }>
%"class.dealii::SmartPointer.188" = type { ptr, ptr }
%"class.dealii::MGTransferSelect.117" = type { %"class.dealii::MGTransferBase.118", %"class.dealii::MGTransferComponentBase", i32, i32 }
%"class.dealii::MGTransferBase.118" = type { %"class.dealii::Subscriptor" }
%"class.dealii::MGLevelObject" = type { %"class.dealii::Subscriptor", i32, %"class.std::vector.120" }
%"class.std::vector.120" = type { %"struct.std::_Vector_base.121" }
%"struct.std::_Vector_base.121" = type { %"struct.std::_Vector_base<boost::shared_ptr<dealii::Vector<float> >, std::allocator<boost::shared_ptr<dealii::Vector<float> > > >::_Vector_impl" }
%"struct.std::_Vector_base<boost::shared_ptr<dealii::Vector<float> >, std::allocator<boost::shared_ptr<dealii::Vector<float> > > >::_Vector_impl" = type { %"struct.std::_Vector_base<boost::shared_ptr<dealii::Vector<float> >, std::allocator<boost::shared_ptr<dealii::Vector<float> > > >::_Vector_impl_data" }
%"struct.std::_Vector_base<boost::shared_ptr<dealii::Vector<float> >, std::allocator<boost::shared_ptr<dealii::Vector<float> > > >::_Vector_impl_data" = type { ptr, ptr, ptr }
%"class.dealii::Vector.252" = type { %"class.dealii::Subscriptor", i32, i32, ptr }
%"class.boost::shared_ptr.254" = type { ptr, %"class.boost::detail::shared_count" }
%"class.dealii::Vector" = type { %"class.dealii::Subscriptor", i32, i32, ptr }
%"class.dealii::BlockVectorBase" = type { %"class.dealii::Subscriptor", %"class.std::vector.125", %"class.dealii::BlockIndices" }
%"class.std::vector.125" = type { %"struct.std::_Vector_base.126" }
%"struct.std::_Vector_base.126" = type { %"struct.std::_Vector_base<dealii::Vector<double>, std::allocator<dealii::Vector<double> > >::_Vector_impl" }
%"struct.std::_Vector_base<dealii::Vector<double>, std::allocator<dealii::Vector<double> > >::_Vector_impl" = type { %"struct.std::_Vector_base<dealii::Vector<double>, std::allocator<dealii::Vector<double> > >::_Vector_impl_data" }
%"struct.std::_Vector_base<dealii::Vector<double>, std::allocator<dealii::Vector<double> > >::_Vector_impl_data" = type { ptr, ptr, ptr }
%"class.dealii::MGLevelObject.119" = type { %"class.dealii::Subscriptor", i32, %"class.std::vector.130" }
%"class.std::vector.130" = type { %"struct.std::_Vector_base.131" }
%"struct.std::_Vector_base.131" = type { %"struct.std::_Vector_base<boost::shared_ptr<dealii::Vector<double> >, std::allocator<boost::shared_ptr<dealii::Vector<double> > > >::_Vector_impl" }
%"struct.std::_Vector_base<boost::shared_ptr<dealii::Vector<double> >, std::allocator<boost::shared_ptr<dealii::Vector<double> > > >::_Vector_impl" = type { %"struct.std::_Vector_base<boost::shared_ptr<dealii::Vector<double> >, std::allocator<boost::shared_ptr<dealii::Vector<double> > > >::_Vector_impl_data" }
%"struct.std::_Vector_base<boost::shared_ptr<dealii::Vector<double> >, std::allocator<boost::shared_ptr<dealii::Vector<double> > > >::_Vector_impl_data" = type { ptr, ptr, ptr }
%"class.boost::shared_ptr.256" = type { ptr, %"class.boost::detail::shared_count" }
%"struct.std::_Rb_tree<unsigned int, std::pair<const unsigned int, unsigned int>, std::_Select1st<std::pair<const unsigned int, unsigned int> >, std::less<unsigned int> >::_Alloc_node" = type { ptr }
%"struct.std::_Rb_tree<unsigned int, std::pair<const unsigned int, unsigned int>, std::_Select1st<std::pair<const unsigned int, unsigned int> >, std::less<unsigned int> >::_Reuse_or_alloc_node" = type { ptr, ptr, ptr }
%"class.dealii::internal::Triangulation::TriaObject" = type { [6 x i32] }
%"class.dealii::internal::Triangulation::TriaObject.226" = type { [4 x i32] }
%"class.dealii::internal::Triangulation::TriaObjectsQuad3D" = type { %"class.dealii::internal::Triangulation::TriaObjects.base.225", %"class.std::vector.64" }
%"class.dealii::internal::Triangulation::TriaObjects.base.225" = type <{ %"class.std::vector.210", %"class.std::vector.49", %"class.std::vector.215", %"class.std::vector.64", %"class.std::vector.64", %"class.std::vector.171", i32, i32, i8, [7 x i8], %"class.std::vector.220", i32 }>
%"class.std::vector.210" = type { %"struct.std::_Vector_base.211" }
%"struct.std::_Vector_base.211" = type { %"struct.std::_Vector_base<dealii::internal::Triangulation::TriaObject<2>, std::allocator<dealii::internal::Triangulation::TriaObject<2> > >::_Vector_impl" }
%"struct.std::_Vector_base<dealii::internal::Triangulation::TriaObject<2>, std::allocator<dealii::internal::Triangulation::TriaObject<2> > >::_Vector_impl" = type { %"struct.std::_Vector_base<dealii::internal::Triangulation::TriaObject<2>, std::allocator<dealii::internal::Triangulation::TriaObject<2> > >::_Vector_impl_data" }
%"struct.std::_Vector_base<dealii::internal::Triangulation::TriaObject<2>, std::allocator<dealii::internal::Triangulation::TriaObject<2> > >::_Vector_impl_data" = type { ptr, ptr, ptr }
%"class.std::vector.215" = type { %"struct.std::_Vector_base.216" }
%"struct.std::_Vector_base.216" = type { %"struct.std::_Vector_base<dealii::RefinementCase<2>, std::allocator<dealii::RefinementCase<2> > >::_Vector_impl" }
%"struct.std::_Vector_base<dealii::RefinementCase<2>, std::allocator<dealii::RefinementCase<2> > >::_Vector_impl" = type { %"struct.std::_Vector_base<dealii::RefinementCase<2>, std::allocator<dealii::RefinementCase<2> > >::_Vector_impl_data" }
%"struct.std::_Vector_base<dealii::RefinementCase<2>, std::allocator<dealii::RefinementCase<2> > >::_Vector_impl_data" = type { ptr, ptr, ptr }
%"class.std::vector.220" = type { %"struct.std::_Vector_base.221" }
%"struct.std::_Vector_base.221" = type { %"struct.std::_Vector_base<dealii::internal::Triangulation::TriaObjects<dealii::internal::Triangulation::TriaObject<2> >::UserData, std::allocator<dealii::internal::Triangulation::TriaObjects<dealii::internal::Triangulation::TriaObject<2> >::UserData> >::_Vector_impl" }
%"struct.std::_Vector_base<dealii::internal::Triangulation::TriaObjects<dealii::internal::Triangulation::TriaObject<2> >::UserData, std::allocator<dealii::internal::Triangulation::TriaObjects<dealii::internal::Triangulation::TriaObject<2> >::UserData> >::_Vector_impl" = type { %"struct.std::_Vector_base<dealii::internal::Triangulation::TriaObjects<dealii::internal::Triangulation::TriaObject<2> >::UserData, std::allocator<dealii::internal::Triangulation::TriaObjects<dealii::internal::Triangulation::TriaObject<2> >::UserData> >::_Vector_impl_data" }
%"struct.std::_Vector_base<dealii::internal::Triangulation::TriaObjects<dealii::internal::Triangulation::TriaObject<2> >::UserData, std::allocator<dealii::internal::Triangulation::TriaObjects<dealii::internal::Triangulation::TriaObject<2> >::UserData> >::_Vector_impl_data" = type { ptr, ptr, ptr }
%"class.dealii::internal::Triangulation::TriaFaces" = type { %"class.dealii::internal::Triangulation::TriaObjectsQuad3D", %"class.dealii::internal::Triangulation::TriaObjects.227" }
%"class.dealii::internal::Triangulation::TriaObjects.227" = type <{ %"class.std::vector.228", %"class.std::vector.49", %"class.std::vector.233", %"class.std::vector.64", %"class.std::vector.64", %"class.std::vector.171", i32, i32, i8, [7 x i8], %"class.std::vector.238", i32, [4 x i8] }>
%"class.std::vector.228" = type { %"struct.std::_Vector_base.229" }
%"struct.std::_Vector_base.229" = type { %"struct.std::_Vector_base<dealii::internal::Triangulation::TriaObject<1>, std::allocator<dealii::internal::Triangulation::TriaObject<1> > >::_Vector_impl" }
%"struct.std::_Vector_base<dealii::internal::Triangulation::TriaObject<1>, std::allocator<dealii::internal::Triangulation::TriaObject<1> > >::_Vector_impl" = type { %"struct.std::_Vector_base<dealii::internal::Triangulation::TriaObject<1>, std::allocator<dealii::internal::Triangulation::TriaObject<1> > >::_Vector_impl_data" }
%"struct.std::_Vector_base<dealii::internal::Triangulation::TriaObject<1>, std::allocator<dealii::internal::Triangulation::TriaObject<1> > >::_Vector_impl_data" = type { ptr, ptr, ptr }
%"class.std::vector.233" = type { %"struct.std::_Vector_base.234" }
%"struct.std::_Vector_base.234" = type { %"struct.std::_Vector_base<dealii::RefinementCase<1>, std::allocator<dealii::RefinementCase<1> > >::_Vector_impl" }
%"struct.std::_Vector_base<dealii::RefinementCase<1>, std::allocator<dealii::RefinementCase<1> > >::_Vector_impl" = type { %"struct.std::_Vector_base<dealii::RefinementCase<1>, std::allocator<dealii::RefinementCase<1> > >::_Vector_impl_data" }
%"struct.std::_Vector_base<dealii::RefinementCase<1>, std::allocator<dealii::RefinementCase<1> > >::_Vector_impl_data" = type { ptr, ptr, ptr }
%"class.std::vector.238" = type { %"struct.std::_Vector_base.239" }
%"struct.std::_Vector_base.239" = type { %"struct.std::_Vector_base<dealii::internal::Triangulation::TriaObjects<dealii::internal::Triangulation::TriaObject<1> >::UserData, std::allocator<dealii::internal::Triangulation::TriaObjects<dealii::internal::Triangulation::TriaObject<1> >::UserData> >::_Vector_impl" }
%"struct.std::_Vector_base<dealii::internal::Triangulation::TriaObjects<dealii::internal::Triangulation::TriaObject<1> >::UserData, std::allocator<dealii::internal::Triangulation::TriaObjects<dealii::internal::Triangulation::TriaObject<1> >::UserData> >::_Vector_impl" = type { %"struct.std::_Vector_base<dealii::internal::Triangulation::TriaObjects<dealii::internal::Triangulation::TriaObject<1> >::UserData, std::allocator<dealii::internal::Triangulation::TriaObjects<dealii::internal::Triangulation::TriaObject<1> >::UserData> >::_Vector_impl_data" }
%"struct.std::_Vector_base<dealii::internal::Triangulation::TriaObjects<dealii::internal::Triangulation::TriaObject<1> >::UserData, std::allocator<dealii::internal::Triangulation::TriaObjects<dealii::internal::Triangulation::TriaObject<1> >::UserData> >::_Vector_impl_data" = type { ptr, ptr, ptr }
%"class.dealii::internal::Triangulation::TriaObject.244" = type { [2 x i32] }
%"class.dealii::internal::DoFHandler::DoFFaces" = type { %"class.dealii::internal::DoFHandler::DoFObjects", %"class.dealii::internal::DoFHandler::DoFObjects.246" }
%"class.dealii::internal::DoFHandler::DoFObjects" = type { %"class.std::vector.20" }
%"class.dealii::internal::DoFHandler::DoFObjects.246" = type { %"class.std::vector.20" }
%"class.dealii::internal::DoFHandler::DoFLevel" = type { %"class.dealii::internal::DoFHandler::DoFLevel.248", %"class.dealii::internal::DoFHandler::DoFObjects.249" }
%"class.dealii::internal::DoFHandler::DoFLevel.248" = type { %"class.std::vector.20" }
%"class.dealii::internal::DoFHandler::DoFObjects.249" = type { %"class.std::vector.20" }

$_ZN6dealii16MGTransferSelectIfE14build_matricesILi3ELi3EEEvRKNS_10DoFHandlerIXT_EXT0_EEERKNS_12MGDoFHandlerIXT_EXT0_EEEjjRKSt6vectorIjSaIjEESF_ = comdat any

$_ZNSt6vectorIjSaIjEEaSERKS1_ = comdat any

$_ZN6dealii23MGTransferComponentBase14build_matricesILi3ELi3EEEvRKNS_10DoFHandlerIXT_EXT0_EEERKNS_12MGDoFHandlerIXT_EXT0_EEE = comdat any

$__clang_call_terminate = comdat any

$_ZN6dealii16MGTransferSelectIdE14build_matricesILi3ELi3EEEvRKNS_10DoFHandlerIXT_EXT0_EEERKNS_12MGDoFHandlerIXT_EXT0_EEEjjRKSt6vectorIjSaIjEESF_ = comdat any

$_ZNK6dealii16MGTransferSelectIfE10copy_to_mgILi3EdLi3EEEvRKNS_12MGDoFHandlerIXT_EXT1_EEERNS_13MGLevelObjectINS_6VectorIfEEEERKNS8_IT0_EE = comdat any

$_ZNK6dealii16MGTransferSelectIfE13do_copy_to_mgILi3ENS_6VectorIdEELi3EEEvRKNS_12MGDoFHandlerIXT_EXT1_EEERNS_13MGLevelObjectINS3_IfEEEERKT0_j = comdat any

$_ZNK6dealii16MGTransferSelectIfE10copy_to_mgILi3EdLi3EEEvRKNS_12MGDoFHandlerIXT_EXT1_EEERNS_13MGLevelObjectINS_6VectorIfEEEERKNS_11BlockVectorIT0_EE = comdat any

$_ZNK6dealii16MGTransferSelectIfE13do_copy_to_mgILi3ENS_11BlockVectorIdEELi3EEEvRKNS_12MGDoFHandlerIXT_EXT1_EEERNS_13MGLevelObjectINS_6VectorIfEEEERKT0_j = comdat any

$_ZNK6dealii16MGTransferSelectIfE12copy_from_mgILi3EdLi3EEEvRKNS_12MGDoFHandlerIXT_EXT1_EEERNS_6VectorIT0_EERKNS_13MGLevelObjectINS7_IfEEEE = comdat any

$_ZNK6dealii16MGTransferSelectIfE15do_copy_from_mgILi3ENS_6VectorIdEELi3EEEvRKNS_12MGDoFHandlerIXT_EXT1_EEERT0_RKNS_13MGLevelObjectINS3_IfEEEEj = comdat any

$_ZNK6dealii16MGTransferSelectIfE12copy_from_mgILi3EdLi3EEEvRKNS_12MGDoFHandlerIXT_EXT1_EEERNS_11BlockVectorIT0_EERKNS_13MGLevelObjectINS_6VectorIfEEEE = comdat any

$_ZNK6dealii16MGTransferSelectIfE15do_copy_from_mgILi3ENS_11BlockVectorIdEELi3EEEvRKNS_12MGDoFHandlerIXT_EXT1_EEERT0_RKNS_13MGLevelObjectINS_6VectorIfEEEEj = comdat any

$_ZNK6dealii16MGTransferSelectIfE16copy_from_mg_addILi3EdLi3EEEvRKNS_12MGDoFHandlerIXT_EXT1_EEERNS_6VectorIT0_EERKNS_13MGLevelObjectINS7_IfEEEE = comdat any

$_ZNK6dealii16MGTransferSelectIfE19do_copy_from_mg_addILi3ENS_6VectorIdEELi3EEEvRKNS_12MGDoFHandlerIXT_EXT1_EEERT0_RKNS_13MGLevelObjectINS3_IfEEEEj = comdat any

$_ZNK6dealii16MGTransferSelectIfE16copy_from_mg_addILi3EdLi3EEEvRKNS_12MGDoFHandlerIXT_EXT1_EEERNS_11BlockVectorIT0_EERKNS_13MGLevelObjectINS_6VectorIfEEEE = comdat any

$_ZNK6dealii16MGTransferSelectIfE19do_copy_from_mg_addILi3ENS_11BlockVectorIdEELi3EEEvRKNS_12MGDoFHandlerIXT_EXT1_EEERT0_RKNS_13MGLevelObjectINS_6VectorIfEEEEj = comdat any

$_ZNK6dealii16MGTransferSelectIdE10copy_to_mgILi3EdLi3EEEvRKNS_12MGDoFHandlerIXT_EXT1_EEERNS_13MGLevelObjectINS_6VectorIdEEEERKNS8_IT0_EE = comdat any

$_ZNK6dealii16MGTransferSelectIdE13do_copy_to_mgILi3ENS_6VectorIdEELi3EEEvRKNS_12MGDoFHandlerIXT_EXT1_EEERNS_13MGLevelObjectIS4_EERKT0_j = comdat any

$_ZNK6dealii16MGTransferSelectIdE10copy_to_mgILi3EdLi3EEEvRKNS_12MGDoFHandlerIXT_EXT1_EEERNS_13MGLevelObjectINS_6VectorIdEEEERKNS_11BlockVectorIT0_EE = comdat any

$_ZNK6dealii16MGTransferSelectIdE13do_copy_to_mgILi3ENS_11BlockVectorIdEELi3EEEvRKNS_12MGDoFHandlerIXT_EXT1_EEERNS_13MGLevelObjectINS_6VectorIdEEEERKT0_j = comdat any

$_ZNK6dealii16MGTransferSelectIdE12copy_from_mgILi3EdLi3EEEvRKNS_12MGDoFHandlerIXT_EXT1_EEERNS_6VectorIT0_EERKNS_13MGLevelObjectINS7_IdEEEE = comdat any

$_ZNK6dealii16MGTransferSelectIdE15do_copy_from_mgILi3ENS_6VectorIdEELi3EEEvRKNS_12MGDoFHandlerIXT_EXT1_EEERT0_RKNS_13MGLevelObjectIS4_EEj = comdat any

$_ZNK6dealii16MGTransferSelectIdE12copy_from_mgILi3EdLi3EEEvRKNS_12MGDoFHandlerIXT_EXT1_EEERNS_11BlockVectorIT0_EERKNS_13MGLevelObjectINS_6VectorIdEEEE = comdat any

$_ZNK6dealii16MGTransferSelectIdE15do_copy_from_mgILi3ENS_11BlockVectorIdEELi3EEEvRKNS_12MGDoFHandlerIXT_EXT1_EEERT0_RKNS_13MGLevelObjectINS_6VectorIdEEEEj = comdat any

$_ZNK6dealii16MGTransferSelectIdE16copy_from_mg_addILi3EdLi3EEEvRKNS_12MGDoFHandlerIXT_EXT1_EEERNS_6VectorIT0_EERKNS_13MGLevelObjectINS7_IdEEEE = comdat any

$_ZNK6dealii16MGTransferSelectIdE19do_copy_from_mg_addILi3ENS_6VectorIdEELi3EEEvRKNS_12MGDoFHandlerIXT_EXT1_EEERT0_RKNS_13MGLevelObjectIS4_EEj = comdat any

$_ZNK6dealii16MGTransferSelectIdE16copy_from_mg_addILi3EdLi3EEEvRKNS_12MGDoFHandlerIXT_EXT1_EEERNS_11BlockVectorIT0_EERKNS_13MGLevelObjectINS_6VectorIdEEEE = comdat any

$_ZNK6dealii16MGTransferSelectIdE19do_copy_from_mg_addILi3ENS_11BlockVectorIdEELi3EEEvRKNS_12MGDoFHandlerIXT_EXT1_EEERT0_RKNS_13MGLevelObjectINS_6VectorIdEEEEj = comdat any

$_ZNSt6vectorIbSaIbEE14_M_fill_insertESt13_Bit_iteratormb = comdat any

$_ZNSt6vectorIS_IjSaIjEESaIS1_EEaSERKS3_ = comdat any

$_ZN5boost10shared_ptrIN6dealii17BlockSparseMatrixIdEEED2Ev = comdat any

$_ZN5boost10shared_ptrIN6dealii20BlockSparsityPatternEED2Ev = comdat any

$_ZNSt6vectorIjSaIjEE14_M_fill_insertEN9__gnu_cxx17__normal_iteratorIPjS1_EEmRKj = comdat any

$_ZNSt6vectorIS_IjSaIjEESaIS1_EE14_M_fill_insertEN9__gnu_cxx17__normal_iteratorIPS1_S3_EEmRKS1_ = comdat any

$_ZSt16__do_uninit_copyIPSt6vectorIjSaIjEES3_ET0_T_S5_S4_ = comdat any

$_ZSt18__do_uninit_fill_nIPSt6vectorIjSaIjEEmS2_ET_S4_T0_RKT1_ = comdat any

$_ZNSt6vectorIS_IjSaIjEESaIS1_EE20_M_allocate_and_copyIN9__gnu_cxx17__normal_iteratorIPKS1_S3_EEEEPS1_mT_SB_ = comdat any

$_ZSt16__do_uninit_copyIN9__gnu_cxx17__normal_iteratorIPKSt6vectorIjSaIjEES2_IS4_SaIS4_EEEEPS4_ET0_T_SC_SB_ = comdat any

$_ZNSt6vectorISt3mapIjjSt4lessIjESaISt4pairIKjjEEESaIS7_EE14_M_fill_insertEN9__gnu_cxx17__normal_iteratorIPS7_S9_EEmRKS7_ = comdat any

$_ZNSt8_Rb_treeIjSt4pairIKjjESt10_Select1stIS2_ESt4lessIjESaIS2_EE7_M_copyILb0ENS8_11_Alloc_nodeEEEPSt13_Rb_tree_nodeIS2_ESD_PSt18_Rb_tree_node_baseRT0_ = comdat any

$_ZNSt8_Rb_treeIjSt4pairIKjjESt10_Select1stIS2_ESt4lessIjESaIS2_EE8_M_eraseEPSt13_Rb_tree_nodeIS2_E = comdat any

$_ZSt16__do_uninit_copyIPSt3mapIjjSt4lessIjESaISt4pairIKjjEEES8_ET0_T_SA_S9_ = comdat any

$_ZNSt8_Rb_treeIjSt4pairIKjjESt10_Select1stIS2_ESt4lessIjESaIS2_EEaSERKS8_ = comdat any

$_ZNSt8_Rb_treeIjSt4pairIKjjESt10_Select1stIS2_ESt4lessIjESaIS2_EE7_M_copyILb0ENS8_20_Reuse_or_alloc_nodeEEEPSt13_Rb_tree_nodeIS2_ESD_PSt18_Rb_tree_node_baseRT0_ = comdat any

$_ZSt18__do_uninit_fill_nIPSt3mapIjjSt4lessIjESaISt4pairIKjjEEEmS7_ET_S9_T0_RKT1_ = comdat any

$_ZNSt6vectorIN5boost10shared_ptrIN6dealii20BlockSparsityPatternEEESaIS4_EE17_M_realloc_insertEN9__gnu_cxx17__normal_iteratorIPS4_S6_EERKS4_ = comdat any

$_ZN5boost6detail17sp_counted_impl_pIN6dealii20BlockSparsityPatternEED0Ev = comdat any

$_ZN5boost6detail17sp_counted_impl_pIN6dealii20BlockSparsityPatternEE7disposeEv = comdat any

$_ZN5boost6detail15sp_counted_base7destroyEv = comdat any

$_ZN5boost6detail17sp_counted_impl_pIN6dealii20BlockSparsityPatternEE11get_deleterERKSt9type_info = comdat any

$_ZNSt6vectorIN5boost10shared_ptrIN6dealii17BlockSparseMatrixIdEEEESaIS5_EE17_M_realloc_insertEN9__gnu_cxx17__normal_iteratorIPS5_S7_EERKS5_ = comdat any

$_ZN5boost6detail15sp_counted_baseD2Ev = comdat any

$_ZN5boost6detail17sp_counted_impl_pIN6dealii17BlockSparseMatrixIdEEED0Ev = comdat any

$_ZN5boost6detail17sp_counted_impl_pIN6dealii17BlockSparseMatrixIdEEE7disposeEv = comdat any

$_ZN5boost6detail17sp_counted_impl_pIN6dealii17BlockSparseMatrixIdEEE11get_deleterERKSt9type_info = comdat any

$_ZN6dealii8internal11DoFAccessor15get_dof_indicesINS_10DoFHandlerILi3ELi3EEEEEvRKNS_11DoFAccessorILi3ET_EERSt6vectorIjSaIjEEj = comdat any

$_ZTVN5boost6detail17sp_counted_impl_pIN6dealii20BlockSparsityPatternEEE = comdat any

$_ZTSN5boost6detail17sp_counted_impl_pIN6dealii20BlockSparsityPatternEEE = comdat any

$_ZTSN5boost6detail15sp_counted_baseE = comdat any

$_ZTIN5boost6detail15sp_counted_baseE = comdat any

$_ZTIN5boost6detail17sp_counted_impl_pIN6dealii20BlockSparsityPatternEEE = comdat any

$_ZTVN5boost6detail17sp_counted_impl_pIN6dealii17BlockSparseMatrixIdEEEE = comdat any

$_ZTSN5boost6detail17sp_counted_impl_pIN6dealii17BlockSparseMatrixIdEEEE = comdat any

$_ZTIN5boost6detail17sp_counted_impl_pIN6dealii17BlockSparseMatrixIdEEEE = comdat any

$_ZZN6dealii8internal12TriaAccessor14Implementation12vertex_indexILi3ELi3EEEjRKNS_12TriaAccessorILi2EXT_EXT0_EEEjE12switch_table = comdat any

$_ZZN6dealii8internal12TriaAccessor14Implementation10line_indexILi3ELi3EEEjRKNS_12TriaAccessorILi3EXT_EXT0_EEEjE12lookup_table = comdat any

$_ZZN6dealii8internal12TriaAccessor14Implementation16line_orientationILi3ELi3EEEbRKNS_12TriaAccessorILi3EXT_EXT0_EEEjE12lookup_table = comdat any

$_ZZN6dealii8internal12TriaAccessor14Implementation16line_orientationILi3ELi3EEEbRKNS_12TriaAccessorILi3EXT_EXT0_EEEjE10bool_table = comdat any

@.str.9 = private unnamed_addr constant [29 x i8] c"vector<bool>::_M_fill_insert\00", align 1
@.str.10 = private unnamed_addr constant [23 x i8] c"vector::_M_fill_insert\00", align 1
@.str.11 = private unnamed_addr constant [26 x i8] c"vector::_M_realloc_insert\00", align 1
@_ZTVN5boost6detail17sp_counted_impl_pIN6dealii20BlockSparsityPatternEEE = linkonce_odr dso_local unnamed_addr constant { [7 x ptr] } { [7 x ptr] [ptr null, ptr @_ZTIN5boost6detail17sp_counted_impl_pIN6dealii20BlockSparsityPatternEEE, ptr @_ZN5boost6detail15sp_counted_baseD2Ev, ptr @_ZN5boost6detail17sp_counted_impl_pIN6dealii20BlockSparsityPatternEED0Ev, ptr @_ZN5boost6detail17sp_counted_impl_pIN6dealii20BlockSparsityPatternEE7disposeEv, ptr @_ZN5boost6detail15sp_counted_base7destroyEv, ptr @_ZN5boost6detail17sp_counted_impl_pIN6dealii20BlockSparsityPatternEE11get_deleterERKSt9type_info] }, comdat, align 8
@_ZTVN10__cxxabiv120__si_class_type_infoE = external global ptr
@_ZTSN5boost6detail17sp_counted_impl_pIN6dealii20BlockSparsityPatternEEE = linkonce_odr dso_local constant [68 x i8] c"N5boost6detail17sp_counted_impl_pIN6dealii20BlockSparsityPatternEEE\00", comdat, align 1
@_ZTVN10__cxxabiv117__class_type_infoE = external global ptr
@_ZTSN5boost6detail15sp_counted_baseE = linkonce_odr dso_local constant [33 x i8] c"N5boost6detail15sp_counted_baseE\00", comdat, align 1
@_ZTIN5boost6detail15sp_counted_baseE = linkonce_odr dso_local constant { ptr, ptr } { ptr getelementptr inbounds (ptr, ptr @_ZTVN10__cxxabiv117__class_type_infoE, i64 2), ptr @_ZTSN5boost6detail15sp_counted_baseE }, comdat, align 8
@_ZTIN5boost6detail17sp_counted_impl_pIN6dealii20BlockSparsityPatternEEE = linkonce_odr dso_local constant { ptr, ptr, ptr } { ptr getelementptr inbounds (ptr, ptr @_ZTVN10__cxxabiv120__si_class_type_infoE, i64 2), ptr @_ZTSN5boost6detail17sp_counted_impl_pIN6dealii20BlockSparsityPatternEEE, ptr @_ZTIN5boost6detail15sp_counted_baseE }, comdat, align 8
@_ZTVN5boost6detail17sp_counted_impl_pIN6dealii17BlockSparseMatrixIdEEEE = linkonce_odr dso_local unnamed_addr constant { [7 x ptr] } { [7 x ptr] [ptr null, ptr @_ZTIN5boost6detail17sp_counted_impl_pIN6dealii17BlockSparseMatrixIdEEEE, ptr @_ZN5boost6detail15sp_counted_baseD2Ev, ptr @_ZN5boost6detail17sp_counted_impl_pIN6dealii17BlockSparseMatrixIdEEED0Ev, ptr @_ZN5boost6detail17sp_counted_impl_pIN6dealii17BlockSparseMatrixIdEEE7disposeEv, ptr @_ZN5boost6detail15sp_counted_base7destroyEv, ptr @_ZN5boost6detail17sp_counted_impl_pIN6dealii17BlockSparseMatrixIdEEE11get_deleterERKSt9type_info] }, comdat, align 8
@_ZTSN5boost6detail17sp_counted_impl_pIN6dealii17BlockSparseMatrixIdEEEE = linkonce_odr dso_local constant [68 x i8] c"N5boost6detail17sp_counted_impl_pIN6dealii17BlockSparseMatrixIdEEEE\00", comdat, align 1
@_ZTIN5boost6detail17sp_counted_impl_pIN6dealii17BlockSparseMatrixIdEEEE = linkonce_odr dso_local constant { ptr, ptr, ptr } { ptr getelementptr inbounds (ptr, ptr @_ZTVN10__cxxabiv120__si_class_type_infoE, i64 2), ptr @_ZTSN5boost6detail17sp_counted_impl_pIN6dealii17BlockSparseMatrixIdEEEE, ptr @_ZTIN5boost6detail15sp_counted_baseE }, comdat, align 8
@_ZZN6dealii8internal12TriaAccessor14Implementation12vertex_indexILi3ELi3EEEjRKNS_12TriaAccessorILi2EXT_EXT0_EEEjE12switch_table = linkonce_odr dso_local local_unnamed_addr constant [2 x [2 x i32]] [[2 x i32] [i32 1, i32 0], [2 x i32] [i32 0, i32 1]], comdat, align 16
@_ZZN6dealii8internal12TriaAccessor14Implementation10line_indexILi3ELi3EEEjRKNS_12TriaAccessorILi3EXT_EXT0_EEEjE12lookup_table = linkonce_odr dso_local local_unnamed_addr constant [12 x [2 x i32]] [[2 x i32] [i32 4, i32 0], [2 x i32] [i32 4, i32 1], [2 x i32] [i32 4, i32 2], [2 x i32] [i32 4, i32 3], [2 x i32] [i32 5, i32 0], [2 x i32] [i32 5, i32 1], [2 x i32] [i32 5, i32 2], [2 x i32] [i32 5, i32 3], [2 x i32] zeroinitializer, [2 x i32] [i32 1, i32 0], [2 x i32] [i32 0, i32 1], [2 x i32] [i32 1, i32 1]], comdat, align 16
@_ZZN6dealii8internal12TriaAccessor14Implementation16line_orientationILi3ELi3EEEbRKNS_12TriaAccessorILi3EXT_EXT0_EEEjE12lookup_table = linkonce_odr dso_local local_unnamed_addr constant [12 x [2 x i32]] [[2 x i32] [i32 4, i32 0], [2 x i32] [i32 4, i32 1], [2 x i32] [i32 4, i32 2], [2 x i32] [i32 4, i32 3], [2 x i32] [i32 5, i32 0], [2 x i32] [i32 5, i32 1], [2 x i32] [i32 5, i32 2], [2 x i32] [i32 5, i32 3], [2 x i32] zeroinitializer, [2 x i32] [i32 1, i32 0], [2 x i32] [i32 0, i32 1], [2 x i32] [i32 1, i32 1]], comdat, align 16
@_ZZN6dealii8internal12TriaAccessor14Implementation16line_orientationILi3ELi3EEEbRKNS_12TriaAccessorILi3EXT_EXT0_EEEjE10bool_table = linkonce_odr dso_local local_unnamed_addr constant [2 x [2 x [2 x [2 x i8]]]] [[2 x [2 x [2 x i8]]] [[2 x [2 x i8]] [[2 x i8] c"\01\00", [2 x i8] c"\00\01"], [2 x [2 x i8]] [[2 x i8] c"\01\01", [2 x i8] zeroinitializer]], [2 x [2 x [2 x i8]]] [[2 x [2 x i8]] [[2 x i8] c"\01\01", [2 x i8] zeroinitializer], [2 x [2 x i8]] [[2 x i8] c"\01\00", [2 x i8] c"\00\01"]]], comdat, align 16
@llvm.global_ctors = appending global [0 x { i32, ptr, ptr }] zeroinitializer

; Function Attrs: sspstrong uwtable
define weak_odr dso_local void @_ZN6dealii16MGTransferSelectIfE14build_matricesILi3ELi3EEEvRKNS_10DoFHandlerIXT_EXT0_EEERKNS_12MGDoFHandlerIXT_EXT0_EEEjjRKSt6vectorIjSaIjEESF_(ptr noundef nonnull align 8 dereferenceable(352) %0, ptr noundef nonnull align 8 dereferenceable(168) %1, ptr noundef nonnull align 8 dereferenceable(248) %2, i32 noundef %3, i32 noundef %4, ptr noundef nonnull align 8 dereferenceable(24) %5, ptr noundef nonnull align 8 dereferenceable(24) %6) local_unnamed_addr #0 comdat align 2 personality ptr @__gxx_personality_v0 {
  %8 = alloca %"class.std::vector.20", align 8
  %9 = alloca %"class.std::vector.20", align 8
  %10 = alloca %"class.dealii::TriaActiveIterator", align 8
  %11 = alloca %"class.dealii::TriaActiveIterator", align 8
  %12 = getelementptr inbounds %"class.dealii::DoFHandler", ptr %2, i64 0, i32 2
  %13 = load ptr, ptr %12, align 8, !tbaa !5
  %14 = getelementptr inbounds i8, ptr %13, i64 116
  %15 = load i32, ptr %14, align 4, !tbaa !10
  %16 = getelementptr inbounds i8, ptr %0, i64 72
  %17 = getelementptr inbounds i8, ptr %0, i64 152
  %18 = tail call noundef nonnull align 8 dereferenceable(24) ptr @_ZNSt6vectorIjSaIjEEaSERKS1_(ptr noundef nonnull align 8 dereferenceable(24) %17, ptr noundef nonnull align 8 dereferenceable(24) %5)
  %19 = getelementptr inbounds i8, ptr %0, i64 176
  %20 = tail call noundef nonnull align 8 dereferenceable(24) ptr @_ZNSt6vectorIjSaIjEEaSERKS1_(ptr noundef nonnull align 8 dereferenceable(24) %19, ptr noundef nonnull align 8 dereferenceable(24) %6)
  %21 = getelementptr inbounds %"class.dealii::MGTransferSelect", ptr %0, i64 0, i32 2
  store i32 %3, ptr %21, align 8, !tbaa !14
  %22 = getelementptr inbounds %"class.dealii::MGTransferSelect", ptr %0, i64 0, i32 3
  store i32 %4, ptr %22, align 4, !tbaa !54
  %23 = zext i32 %15 to i64
  %24 = getelementptr inbounds i8, ptr %0, i64 88
  %25 = load ptr, ptr %24, align 8
  %26 = getelementptr inbounds i8, ptr %0, i64 96
  %27 = load i32, ptr %26, align 8
  %28 = load ptr, ptr %16, align 8, !tbaa !55
  %29 = ptrtoint ptr %25 to i64
  %30 = ptrtoint ptr %28 to i64
  %31 = sub i64 %29, %30
  %32 = shl nsw i64 %31, 3
  %33 = zext i32 %27 to i64
  %34 = add nsw i64 %32, %33
  %35 = icmp ugt i64 %34, %23
  br i1 %35, label %36, label %41

36:                                               ; preds = %7
  %37 = lshr i32 %15, 6
  %38 = zext i32 %37 to i64
  %39 = getelementptr inbounds i64, ptr %28, i64 %38
  %40 = and i32 %15, 63
  store ptr %39, ptr %24, align 8
  store i32 %40, ptr %26, align 8
  br label %44

41:                                               ; preds = %7
  %42 = sub i64 %23, %34
  tail call void @_ZNSt6vectorIbSaIbEE14_M_fill_insertESt13_Bit_iteratormb(ptr noundef nonnull align 8 dereferenceable(40) %16, ptr %25, i32 %27, i64 noundef %42, i1 noundef zeroext false)
  %43 = load ptr, ptr %16, align 8, !tbaa !55
  br label %44

44:                                               ; preds = %36, %41
  %45 = phi ptr [ %28, %36 ], [ %43, %41 ]
  %46 = lshr i32 %3, 6
  %47 = zext i32 %46 to i64
  %48 = getelementptr inbounds i64, ptr %45, i64 %47
  %49 = and i32 %3, 63
  %50 = zext i32 %49 to i64
  %51 = shl nuw i64 1, %50
  %52 = load i64, ptr %48, align 8, !tbaa !56
  %53 = or i64 %52, %51
  store i64 %53, ptr %48, align 8, !tbaa !56
  %54 = getelementptr inbounds i8, ptr %0, i64 112
  %55 = getelementptr inbounds i8, ptr %0, i64 128
  %56 = load ptr, ptr %55, align 8
  %57 = getelementptr inbounds i8, ptr %0, i64 136
  %58 = load i32, ptr %57, align 8
  %59 = load ptr, ptr %54, align 8, !tbaa !55
  %60 = ptrtoint ptr %56 to i64
  %61 = ptrtoint ptr %59 to i64
  %62 = sub i64 %60, %61
  %63 = shl nsw i64 %62, 3
  %64 = zext i32 %58 to i64
  %65 = add nsw i64 %63, %64
  %66 = icmp ugt i64 %65, %23
  br i1 %66, label %67, label %72

67:                                               ; preds = %44
  %68 = lshr i32 %15, 6
  %69 = zext i32 %68 to i64
  %70 = getelementptr inbounds i64, ptr %59, i64 %69
  %71 = and i32 %15, 63
  store ptr %70, ptr %55, align 8
  store i32 %71, ptr %57, align 8
  br label %75

72:                                               ; preds = %44
  %73 = sub i64 %23, %65
  tail call void @_ZNSt6vectorIbSaIbEE14_M_fill_insertESt13_Bit_iteratormb(ptr noundef nonnull align 8 dereferenceable(40) %54, ptr %56, i32 %58, i64 noundef %73, i1 noundef zeroext false)
  %74 = load ptr, ptr %54, align 8, !tbaa !55
  br label %75

75:                                               ; preds = %67, %72
  %76 = phi ptr [ %59, %67 ], [ %74, %72 ]
  %77 = lshr i32 %4, 6
  %78 = zext i32 %77 to i64
  %79 = getelementptr inbounds i64, ptr %76, i64 %78
  %80 = and i32 %4, 63
  %81 = zext i32 %80 to i64
  %82 = shl nuw i64 1, %81
  %83 = load i64, ptr %79, align 8, !tbaa !56
  %84 = or i64 %83, %82
  store i64 %84, ptr %79, align 8, !tbaa !56
  %85 = getelementptr inbounds i8, ptr %0, i64 160
  %86 = load ptr, ptr %85, align 8, !tbaa !57
  %87 = load ptr, ptr %17, align 8, !tbaa !58
  %88 = ptrtoint ptr %86 to i64
  %89 = ptrtoint ptr %87 to i64
  %90 = sub i64 %88, %89
  %91 = ashr exact i64 %90, 2
  %92 = icmp eq ptr %86, %87
  br i1 %92, label %104, label %93

93:                                               ; preds = %75, %100
  %94 = phi i64 [ %102, %100 ], [ 0, %75 ]
  %95 = phi i32 [ %101, %100 ], [ 0, %75 ]
  %96 = getelementptr inbounds i32, ptr %87, i64 %94
  %97 = load i32, ptr %96, align 4, !tbaa !59
  %98 = icmp eq i32 %97, %3
  br i1 %98, label %99, label %100

99:                                               ; preds = %93
  store i32 %95, ptr %21, align 8, !tbaa !14
  br label %104

100:                                              ; preds = %93
  %101 = add i32 %95, 1
  %102 = zext i32 %101 to i64
  %103 = icmp ugt i64 %91, %102
  br i1 %103, label %93, label %104

104:                                              ; preds = %100, %75, %99
  %105 = getelementptr inbounds i8, ptr %0, i64 184
  %106 = load ptr, ptr %105, align 8, !tbaa !57
  %107 = load ptr, ptr %19, align 8, !tbaa !58
  %108 = ptrtoint ptr %106 to i64
  %109 = ptrtoint ptr %107 to i64
  %110 = sub i64 %108, %109
  %111 = ashr exact i64 %110, 2
  %112 = icmp eq ptr %106, %107
  br i1 %112, label %124, label %113

113:                                              ; preds = %104, %120
  %114 = phi i64 [ %122, %120 ], [ 0, %104 ]
  %115 = phi i32 [ %121, %120 ], [ 0, %104 ]
  %116 = getelementptr inbounds i32, ptr %107, i64 %114
  %117 = load i32, ptr %116, align 4, !tbaa !59
  %118 = icmp eq i32 %117, %4
  br i1 %118, label %119, label %120

119:                                              ; preds = %113
  store i32 %115, ptr %22, align 4, !tbaa !54
  br label %124

120:                                              ; preds = %113
  %121 = add i32 %115, 1
  %122 = zext i32 %121 to i64
  %123 = icmp ugt i64 %111, %122
  br i1 %123, label %113, label %124

124:                                              ; preds = %120, %104, %119
  tail call void @_ZN6dealii23MGTransferComponentBase14build_matricesILi3ELi3EEEvRKNS_10DoFHandlerIXT_EXT0_EEERKNS_12MGDoFHandlerIXT_EXT0_EEE(ptr noundef nonnull align 8 dereferenceable(272) %16, ptr noundef nonnull align 8 dereferenceable(168) %1, ptr noundef nonnull align 8 dereferenceable(248) %2)
  call void @llvm.lifetime.start.p0(i64 24, ptr nonnull %8) #15
  %125 = getelementptr inbounds i8, ptr %13, i64 112
  %126 = load i32, ptr %125, align 8, !tbaa !60
  %127 = icmp eq i32 %126, 0
  br i1 %127, label %128, label %129

128:                                              ; preds = %124
  call void @llvm.memset.p0.i64(ptr noundef nonnull align 8 dereferenceable(24) %8, i8 0, i64 24, i1 false)
  call void @llvm.lifetime.start.p0(i64 24, ptr nonnull %9) #15
  br label %139

129:                                              ; preds = %124
  %130 = zext i32 %126 to i64
  %131 = shl nuw nsw i64 %130, 2
  %132 = tail call noalias noundef nonnull ptr @_Znwm(i64 noundef %131) #16
  store ptr %132, ptr %8, align 8, !tbaa !58
  %133 = getelementptr inbounds i32, ptr %132, i64 %130
  %134 = getelementptr inbounds %"struct.std::_Vector_base<unsigned int, std::allocator<unsigned int> >::_Vector_impl_data", ptr %8, i64 0, i32 2
  store ptr %133, ptr %134, align 8, !tbaa !61
  tail call void @llvm.memset.p0.i64(ptr nonnull align 4 %132, i8 0, i64 %131, i1 false), !tbaa !59
  %135 = load i32, ptr %125, align 8, !tbaa !60
  %136 = getelementptr inbounds %"struct.std::_Vector_base<unsigned int, std::allocator<unsigned int> >::_Vector_impl_data", ptr %8, i64 0, i32 1
  store ptr %133, ptr %136, align 8, !tbaa !57
  call void @llvm.lifetime.start.p0(i64 24, ptr nonnull %9) #15
  %137 = zext i32 %135 to i64
  %138 = icmp eq i32 %135, 0
  br i1 %138, label %139, label %140

139:                                              ; preds = %128, %129
  call void @llvm.memset.p0.i64(ptr noundef nonnull align 8 dereferenceable(24) %9, i8 0, i64 24, i1 false)
  br label %146

140:                                              ; preds = %129
  %141 = shl nuw nsw i64 %137, 2
  %142 = invoke noalias noundef nonnull ptr @_Znwm(i64 noundef %141) #16
          to label %143 unwind label %167

143:                                              ; preds = %140
  store ptr %142, ptr %9, align 8, !tbaa !58
  %144 = getelementptr inbounds i32, ptr %142, i64 %137
  %145 = getelementptr inbounds %"struct.std::_Vector_base<unsigned int, std::allocator<unsigned int> >::_Vector_impl_data", ptr %9, i64 0, i32 2
  store ptr %144, ptr %145, align 8, !tbaa !61
  tail call void @llvm.memset.p0.i64(ptr nonnull align 4 %142, i8 0, i64 %141, i1 false), !tbaa !59
  br label %146

146:                                              ; preds = %143, %139
  %147 = phi ptr [ null, %139 ], [ %144, %143 ]
  %148 = getelementptr inbounds %"struct.std::_Vector_base<unsigned int, std::allocator<unsigned int> >::_Vector_impl_data", ptr %9, i64 0, i32 1
  store ptr %147, ptr %148, align 8, !tbaa !57
  %149 = getelementptr inbounds %"class.dealii::DoFHandler", ptr %1, i64 0, i32 1
  %150 = load ptr, ptr %149, align 8, !tbaa !62
  %151 = invoke noundef i32 @_ZNK6dealii13TriangulationILi3ELi3EE8n_levelsEv(ptr noundef nonnull align 8 dereferenceable(8552) %150)
          to label %152 unwind label %169

152:                                              ; preds = %146
  %153 = add i32 %151, -1
  %154 = icmp sgt i32 %153, -1
  br i1 %154, label %155, label %163

155:                                              ; preds = %152
  %156 = getelementptr inbounds %"class.dealii::TriaAccessorBase", ptr %10, i64 0, i32 1
  %157 = getelementptr inbounds %"class.dealii::TriaAccessorBase", ptr %11, i64 0, i32 1
  %158 = getelementptr inbounds %"class.dealii::FiniteElement", ptr %13, i64 0, i32 12
  %159 = getelementptr inbounds i8, ptr %0, i64 248
  %160 = getelementptr inbounds i8, ptr %0, i64 320
  %161 = getelementptr inbounds i8, ptr %0, i64 224
  %162 = getelementptr inbounds %"class.dealii::TriaAccessorBase", ptr %10, i64 0, i32 2
  br label %171

163:                                              ; preds = %410, %152
  %164 = load ptr, ptr %9, align 8, !tbaa !58
  %165 = icmp eq ptr %164, null
  br i1 %165, label %422, label %166

166:                                              ; preds = %163
  call void @_ZdlPv(ptr noundef nonnull %164) #17
  br label %422

167:                                              ; preds = %140
  %168 = landingpad { ptr, i32 }
          cleanup
  br label %427

169:                                              ; preds = %146
  %170 = landingpad { ptr, i32 }
          cleanup
  br label %417

171:                                              ; preds = %155, %410
  %172 = phi i32 [ %153, %155 ], [ %411, %410 ]
  call void @llvm.lifetime.start.p0(i64 32, ptr nonnull %10) #15
  invoke void @_ZNK6dealii12MGDoFHandlerILi3ELi3EE12begin_activeEj(ptr nonnull sret(%"class.dealii::TriaActiveIterator") align 8 %10, ptr noundef nonnull align 8 dereferenceable(248) %2, i32 noundef %172)
          to label %173 unwind label %307

173:                                              ; preds = %171
  call void @llvm.lifetime.start.p0(i64 32, ptr nonnull %11) #15
  invoke void @_ZNK6dealii12MGDoFHandlerILi3ELi3EE10end_activeEj(ptr nonnull sret(%"class.dealii::TriaActiveIterator") align 8 %11, ptr noundef nonnull align 8 dereferenceable(248) %2, i32 noundef %172)
          to label %174 unwind label %309

174:                                              ; preds = %173
  %175 = load i32, ptr %156, align 4, !tbaa !64
  %176 = load i32, ptr %157, align 4, !tbaa !64
  %177 = icmp ne i32 %175, %176
  %178 = load i32, ptr %10, align 8
  %179 = load i32, ptr %11, align 8
  %180 = icmp ne i32 %178, %179
  %181 = select i1 %177, i1 true, i1 %180
  br i1 %181, label %182, label %410

182:                                              ; preds = %174
  %183 = zext i32 %172 to i64
  br label %184

184:                                              ; preds = %182, %301
  invoke void @_ZN6dealii8internal11DoFAccessor15get_dof_indicesINS_10DoFHandlerILi3ELi3EEEEEvRKNS_11DoFAccessorILi3ET_EERSt6vectorIjSaIjEEj(ptr noundef nonnull align 8 dereferenceable(24) %10, ptr noundef nonnull align 8 dereferenceable(24) %8, i32 noundef 0)
          to label %185 unwind label %311

185:                                              ; preds = %184
  invoke void @_ZNK6dealii17MGDoFCellAccessorILi3ELi3EE18get_mg_dof_indicesERSt6vectorIjSaIjEE(ptr noundef nonnull align 8 dereferenceable(32) %10, ptr noundef nonnull align 8 dereferenceable(24) %9)
          to label %186 unwind label %311

186:                                              ; preds = %185
  %187 = load i32, ptr %125, align 8, !tbaa !60
  %188 = icmp eq i32 %187, 0
  br i1 %188, label %189, label %313

189:                                              ; preds = %405, %186
  %190 = load ptr, ptr %162, align 8, !tbaa !66
  %191 = getelementptr inbounds %"class.dealii::Triangulation", ptr %190, i64 0, i32 1
  %192 = load ptr, ptr %191, align 8, !tbaa !67
  %193 = ptrtoint ptr %192 to i64
  %194 = getelementptr inbounds %"class.dealii::Triangulation", ptr %190, i64 0, i32 1, i32 0, i32 0, i32 0, i32 1
  %195 = load i32, ptr %10, align 8
  %196 = load i32, ptr %156, align 4
  br label %197

197:                                              ; preds = %285, %189
  %198 = phi i32 [ %195, %189 ], [ %264, %285 ]
  %199 = phi i32 [ %195, %189 ], [ %265, %285 ]
  %200 = phi i32 [ %195, %189 ], [ %286, %285 ]
  %201 = phi i32 [ %196, %189 ], [ %266, %285 ]
  %202 = add nsw i32 %201, 1
  %203 = sext i32 %200 to i64
  %204 = getelementptr inbounds ptr, ptr %192, i64 %203
  %205 = load ptr, ptr %204, align 8, !tbaa !69
  %206 = getelementptr inbounds %"class.dealii::internal::Triangulation::TriaLevel", ptr %205, i64 0, i32 4
  %207 = getelementptr inbounds %"class.dealii::internal::Triangulation::TriaLevel", ptr %205, i64 0, i32 4, i32 0, i32 0, i32 0, i32 0, i32 0, i32 1
  %208 = load ptr, ptr %207, align 8, !tbaa !70
  %209 = load ptr, ptr %206, align 8, !tbaa !72
  %210 = ptrtoint ptr %208 to i64
  %211 = ptrtoint ptr %209 to i64
  %212 = sub i64 %210, %211
  %213 = sdiv exact i64 %212, 24
  %214 = trunc i64 %213 to i32
  %215 = icmp slt i32 %202, %214
  br i1 %215, label %263, label %216

216:                                              ; preds = %197
  %217 = add nsw i64 %203, 1
  %218 = trunc i64 %217 to i32
  store i32 %218, ptr %10, align 8, !tbaa !73
  %219 = load ptr, ptr %194, align 8, !tbaa !74
  %220 = ptrtoint ptr %219 to i64
  %221 = sub i64 %220, %193
  %222 = shl i64 %221, 29
  %223 = ashr i64 %222, 32
  %224 = icmp slt i64 %217, %223
  br i1 %224, label %225, label %257

225:                                              ; preds = %216
  %226 = getelementptr inbounds ptr, ptr %192, i64 %217
  %227 = load ptr, ptr %226, align 8, !tbaa !69
  %228 = getelementptr inbounds %"class.dealii::internal::Triangulation::TriaLevel", ptr %227, i64 0, i32 4
  %229 = getelementptr inbounds %"class.dealii::internal::Triangulation::TriaLevel", ptr %227, i64 0, i32 4, i32 0, i32 0, i32 0, i32 0, i32 0, i32 1
  %230 = load ptr, ptr %229, align 8, !tbaa !70
  %231 = load ptr, ptr %228, align 8, !tbaa !72
  %232 = ptrtoint ptr %230 to i64
  %233 = ptrtoint ptr %231 to i64
  %234 = sub i64 %232, %233
  %235 = sdiv exact i64 %234, 24
  %236 = trunc i64 %235 to i32
  %237 = icmp sgt i32 %236, 0
  br i1 %237, label %259, label %251

238:                                              ; preds = %251
  %239 = getelementptr inbounds ptr, ptr %192, i64 %253
  %240 = load ptr, ptr %239, align 8, !tbaa !69
  %241 = getelementptr inbounds %"class.dealii::internal::Triangulation::TriaLevel", ptr %240, i64 0, i32 4
  %242 = getelementptr inbounds %"class.dealii::internal::Triangulation::TriaLevel", ptr %240, i64 0, i32 4, i32 0, i32 0, i32 0, i32 0, i32 0, i32 1
  %243 = load ptr, ptr %242, align 8, !tbaa !70
  %244 = load ptr, ptr %241, align 8, !tbaa !72
  %245 = ptrtoint ptr %243 to i64
  %246 = ptrtoint ptr %244 to i64
  %247 = sub i64 %245, %246
  %248 = sdiv exact i64 %247, 24
  %249 = trunc i64 %248 to i32
  %250 = icmp sgt i32 %249, 0
  br i1 %250, label %258, label %251, !llvm.loop !75

251:                                              ; preds = %225, %238
  %252 = phi i64 [ %253, %238 ], [ %217, %225 ]
  %253 = add i64 %252, 1
  %254 = trunc i64 %253 to i32
  %255 = icmp eq i64 %253, %223
  br i1 %255, label %256, label %238, !llvm.loop !75

256:                                              ; preds = %251
  store i32 %254, ptr %10, align 8, !tbaa !73
  br label %257

257:                                              ; preds = %256, %216
  store i32 -1, ptr %10, align 8, !tbaa !73
  br label %263

258:                                              ; preds = %238
  store i32 %254, ptr %10, align 8, !tbaa !73
  br label %259

259:                                              ; preds = %258, %225
  %260 = phi i32 [ %218, %225 ], [ %254, %258 ]
  %261 = phi i64 [ %217, %225 ], [ %253, %258 ]
  %262 = trunc i64 %261 to i32
  br label %263

263:                                              ; preds = %259, %257, %197
  %264 = phi i32 [ %198, %197 ], [ -1, %257 ], [ %260, %259 ]
  %265 = phi i32 [ %199, %197 ], [ -1, %257 ], [ %262, %259 ]
  %266 = phi i32 [ %202, %197 ], [ -1, %257 ], [ 0, %259 ]
  %267 = phi i32 [ %200, %197 ], [ -1, %257 ], [ %262, %259 ]
  %268 = or i32 %267, %266
  %269 = icmp sgt i32 %268, -1
  br i1 %269, label %270, label %287

270:                                              ; preds = %263
  %271 = zext i32 %267 to i64
  %272 = getelementptr inbounds ptr, ptr %192, i64 %271
  %273 = load ptr, ptr %272, align 8, !tbaa !69
  %274 = getelementptr inbounds %"class.dealii::internal::Triangulation::TriaLevel", ptr %273, i64 0, i32 4, i32 0, i32 3
  %275 = load ptr, ptr %274, align 8, !tbaa !55
  %276 = lshr i32 %266, 6
  %277 = zext i32 %276 to i64
  %278 = getelementptr inbounds i64, ptr %275, i64 %277
  %279 = and i32 %266, 63
  %280 = zext i32 %279 to i64
  %281 = shl nuw i64 1, %280
  %282 = load i64, ptr %278, align 8, !tbaa !56
  %283 = and i64 %282, %281
  %284 = icmp eq i64 %283, 0
  br i1 %284, label %285, label %287

285:                                              ; preds = %270, %290
  %286 = phi i32 [ %267, %270 ], [ %265, %290 ]
  br label %197

287:                                              ; preds = %270, %263
  store i32 %266, ptr %156, align 4, !tbaa !64
  %288 = or i32 %266, %265
  %289 = icmp sgt i32 %288, -1
  br i1 %289, label %290, label %301

290:                                              ; preds = %287
  %291 = zext i32 %265 to i64
  %292 = getelementptr inbounds ptr, ptr %192, i64 %291
  %293 = load ptr, ptr %292, align 8, !tbaa !69
  %294 = getelementptr inbounds %"class.dealii::internal::Triangulation::TriaLevel", ptr %293, i64 0, i32 4, i32 0, i32 1
  %295 = shl i32 %266, 2
  %296 = zext i32 %295 to i64
  %297 = load ptr, ptr %294, align 8, !tbaa !77
  %298 = getelementptr inbounds i32, ptr %297, i64 %296
  %299 = load i32, ptr %298, align 4, !tbaa !59
  %300 = icmp eq i32 %299, -1
  br i1 %300, label %301, label %285

301:                                              ; preds = %287, %290
  %302 = load i32, ptr %157, align 4, !tbaa !64
  %303 = icmp ne i32 %266, %302
  %304 = load i32, ptr %11, align 8
  %305 = icmp ne i32 %264, %304
  %306 = select i1 %303, i1 true, i1 %305
  br i1 %306, label %184, label %410

307:                                              ; preds = %171
  %308 = landingpad { ptr, i32 }
          cleanup
  br label %415

309:                                              ; preds = %173
  %310 = landingpad { ptr, i32 }
          cleanup
  br label %413

311:                                              ; preds = %184, %185
  %312 = landingpad { ptr, i32 }
          cleanup
  br label %413

313:                                              ; preds = %186, %405
  %314 = phi i32 [ %406, %405 ], [ %187, %186 ]
  %315 = phi i64 [ %407, %405 ], [ 0, %186 ]
  %316 = load ptr, ptr %158, align 8, !tbaa !79
  %317 = getelementptr inbounds %"struct.std::pair", ptr %316, i64 %315
  %318 = load i64, ptr %317, align 4
  %319 = and i64 %318, 4294967295
  %320 = load ptr, ptr %19, align 8, !tbaa !58
  %321 = getelementptr inbounds i32, ptr %320, i64 %319
  %322 = load i32, ptr %321, align 4, !tbaa !59
  %323 = load ptr, ptr %54, align 8, !tbaa !55
  %324 = lshr i32 %322, 6
  %325 = zext i32 %324 to i64
  %326 = getelementptr inbounds i64, ptr %323, i64 %325
  %327 = and i32 %322, 63
  %328 = zext i32 %327 to i64
  %329 = shl nuw i64 1, %328
  %330 = load i64, ptr %326, align 8, !tbaa !56
  %331 = and i64 %329, %330
  %332 = icmp eq i64 %331, 0
  br i1 %332, label %405, label %333

333:                                              ; preds = %313
  %334 = zext i32 %322 to i64
  %335 = load ptr, ptr %159, align 8, !tbaa !81
  %336 = getelementptr inbounds %"class.std::vector.20", ptr %335, i64 %183
  %337 = load ptr, ptr %336, align 8, !tbaa !58
  %338 = getelementptr inbounds i32, ptr %337, i64 %334
  %339 = load i32, ptr %338, align 4, !tbaa !59
  %340 = load ptr, ptr %160, align 8, !tbaa !82
  %341 = getelementptr inbounds %"class.std::map.105", ptr %340, i64 %183
  %342 = load ptr, ptr %8, align 8, !tbaa !58
  %343 = getelementptr inbounds i32, ptr %342, i64 %315
  %344 = load i32, ptr %343, align 4, !tbaa !59
  %345 = load i32, ptr %21, align 8, !tbaa !14
  %346 = zext i32 %345 to i64
  %347 = load ptr, ptr %161, align 8, !tbaa !58
  %348 = getelementptr inbounds i32, ptr %347, i64 %346
  %349 = load i32, ptr %348, align 4, !tbaa !59
  %350 = sub i32 %344, %349
  %351 = load ptr, ptr %9, align 8, !tbaa !58
  %352 = getelementptr inbounds i32, ptr %351, i64 %315
  %353 = load i32, ptr %352, align 4, !tbaa !59
  %354 = sub i32 %353, %339
  %355 = zext i32 %354 to i64
  %356 = shl nuw i64 %355, 32
  %357 = getelementptr inbounds i8, ptr %341, i64 16
  %358 = getelementptr inbounds i8, ptr %341, i64 8
  %359 = load ptr, ptr %357, align 8, !tbaa !69
  %360 = icmp eq ptr %359, null
  br i1 %360, label %372, label %361

361:                                              ; preds = %333, %361
  %362 = phi ptr [ %369, %361 ], [ %359, %333 ]
  %363 = getelementptr inbounds %"struct.std::_Rb_tree_node", ptr %362, i64 0, i32 1
  %364 = load i32, ptr %363, align 4, !tbaa !59
  %365 = icmp ult i32 %350, %364
  %366 = getelementptr inbounds %"struct.std::_Rb_tree_node_base", ptr %362, i64 0, i32 2
  %367 = getelementptr inbounds %"struct.std::_Rb_tree_node_base", ptr %362, i64 0, i32 3
  %368 = select i1 %365, ptr %366, ptr %367
  %369 = load ptr, ptr %368, align 8, !tbaa !69
  %370 = icmp eq ptr %369, null
  br i1 %370, label %371, label %361

371:                                              ; preds = %361
  br i1 %365, label %372, label %381

372:                                              ; preds = %371, %333
  %373 = phi ptr [ %362, %371 ], [ %358, %333 ]
  %374 = getelementptr inbounds i8, ptr %341, i64 24
  %375 = load ptr, ptr %374, align 8, !tbaa !83
  %376 = icmp eq ptr %373, %375
  br i1 %376, label %385, label %377

377:                                              ; preds = %372
  %378 = call noundef ptr @_ZSt18_Rb_tree_decrementPSt18_Rb_tree_node_base(ptr noundef nonnull %373) #18
  %379 = getelementptr inbounds %"struct.std::_Rb_tree_node", ptr %378, i64 0, i32 1
  %380 = load i32, ptr %379, align 4, !tbaa !59
  br label %381

381:                                              ; preds = %377, %371
  %382 = phi i32 [ %380, %377 ], [ %364, %371 ]
  %383 = phi ptr [ %373, %377 ], [ %362, %371 ]
  %384 = icmp ult i32 %382, %350
  br i1 %384, label %385, label %405

385:                                              ; preds = %381, %372
  %386 = phi ptr [ %373, %372 ], [ %383, %381 ]
  %387 = icmp eq ptr %358, %386
  br i1 %387, label %392, label %388

388:                                              ; preds = %385
  %389 = getelementptr inbounds %"struct.std::_Rb_tree_node", ptr %386, i64 0, i32 1
  %390 = load i32, ptr %389, align 4, !tbaa !59
  %391 = icmp ult i32 %350, %390
  br label %392

392:                                              ; preds = %388, %385
  %393 = phi i1 [ true, %385 ], [ %391, %388 ]
  %394 = invoke noalias noundef nonnull dereferenceable(40) ptr @_Znwm(i64 noundef 40) #16
          to label %395 unwind label %403

395:                                              ; preds = %392
  %396 = getelementptr inbounds %"struct.std::_Rb_tree_node", ptr %394, i64 0, i32 1
  %397 = zext i32 %350 to i64
  %398 = or i64 %356, %397
  store i64 %398, ptr %396, align 4
  call void @_ZSt29_Rb_tree_insert_and_rebalancebPSt18_Rb_tree_node_baseS0_RS_(i1 noundef zeroext %393, ptr noundef nonnull %394, ptr noundef nonnull %386, ptr noundef nonnull align 8 dereferenceable(32) %358) #15
  %399 = getelementptr inbounds i8, ptr %341, i64 40
  %400 = load i64, ptr %399, align 8, !tbaa !84
  %401 = add i64 %400, 1
  store i64 %401, ptr %399, align 8, !tbaa !84
  %402 = load i32, ptr %125, align 8, !tbaa !60
  br label %405

403:                                              ; preds = %392
  %404 = landingpad { ptr, i32 }
          cleanup
  br label %413

405:                                              ; preds = %381, %395, %313
  %406 = phi i32 [ %314, %381 ], [ %402, %395 ], [ %314, %313 ]
  %407 = add nuw nsw i64 %315, 1
  %408 = zext i32 %406 to i64
  %409 = icmp ult i64 %407, %408
  br i1 %409, label %313, label %189

410:                                              ; preds = %301, %174
  call void @llvm.lifetime.end.p0(i64 32, ptr nonnull %11) #15
  call void @llvm.lifetime.end.p0(i64 32, ptr nonnull %10) #15
  %411 = add nsw i32 %172, -1
  %412 = icmp sgt i32 %172, 0
  br i1 %412, label %171, label %163

413:                                              ; preds = %311, %403, %309
  %414 = phi { ptr, i32 } [ %310, %309 ], [ %312, %311 ], [ %404, %403 ]
  call void @llvm.lifetime.end.p0(i64 32, ptr nonnull %11) #15
  br label %415

415:                                              ; preds = %413, %307
  %416 = phi { ptr, i32 } [ %414, %413 ], [ %308, %307 ]
  call void @llvm.lifetime.end.p0(i64 32, ptr nonnull %10) #15
  br label %417

417:                                              ; preds = %415, %169
  %418 = phi { ptr, i32 } [ %416, %415 ], [ %170, %169 ]
  %419 = load ptr, ptr %9, align 8, !tbaa !58
  %420 = icmp eq ptr %419, null
  br i1 %420, label %427, label %421

421:                                              ; preds = %417
  call void @_ZdlPv(ptr noundef nonnull %419) #17
  br label %427

422:                                              ; preds = %166, %163
  call void @llvm.lifetime.end.p0(i64 24, ptr nonnull %9) #15
  %423 = load ptr, ptr %8, align 8, !tbaa !58
  %424 = icmp eq ptr %423, null
  br i1 %424, label %426, label %425

425:                                              ; preds = %422
  call void @_ZdlPv(ptr noundef nonnull %423) #17
  br label %426

426:                                              ; preds = %422, %425
  call void @llvm.lifetime.end.p0(i64 24, ptr nonnull %8) #15
  ret void

427:                                              ; preds = %421, %417, %167
  %428 = phi { ptr, i32 } [ %168, %167 ], [ %418, %417 ], [ %418, %421 ]
  call void @llvm.lifetime.end.p0(i64 24, ptr nonnull %9) #15
  %429 = load ptr, ptr %8, align 8, !tbaa !58
  %430 = icmp eq ptr %429, null
  br i1 %430, label %432, label %431

431:                                              ; preds = %427
  call void @_ZdlPv(ptr noundef nonnull %429) #17
  br label %432

432:                                              ; preds = %431, %427
  call void @llvm.lifetime.end.p0(i64 24, ptr nonnull %8) #15
  resume { ptr, i32 } %428
}

; Function Attrs: mustprogress nocallback nofree nosync nounwind willreturn memory(argmem: readwrite)
declare void @llvm.lifetime.start.p0(i64 immarg, ptr nocapture) #1

; Function Attrs: sspstrong uwtable
define linkonce_odr dso_local noundef nonnull align 8 dereferenceable(24) ptr @_ZNSt6vectorIjSaIjEEaSERKS1_(ptr noundef nonnull align 8 dereferenceable(24) %0, ptr noundef nonnull align 8 dereferenceable(24) %1) local_unnamed_addr #0 comdat align 2 personality ptr @__gxx_personality_v0 {
  %3 = icmp eq ptr %1, %0
  br i1 %3, label %82, label %4

4:                                                ; preds = %2
  %5 = getelementptr inbounds %"struct.std::_Vector_base<unsigned int, std::allocator<unsigned int> >::_Vector_impl_data", ptr %1, i64 0, i32 1
  %6 = load ptr, ptr %5, align 8, !tbaa !69
  %7 = load ptr, ptr %1, align 8, !tbaa !69
  %8 = ptrtoint ptr %6 to i64
  %9 = ptrtoint ptr %7 to i64
  %10 = sub i64 %8, %9
  %11 = ashr exact i64 %10, 2
  %12 = getelementptr inbounds %"struct.std::_Vector_base<unsigned int, std::allocator<unsigned int> >::_Vector_impl_data", ptr %0, i64 0, i32 2
  %13 = load ptr, ptr %12, align 8, !tbaa !61
  %14 = load ptr, ptr %0, align 8, !tbaa !69
  %15 = ptrtoint ptr %13 to i64
  %16 = ptrtoint ptr %14 to i64
  %17 = sub i64 %15, %16
  %18 = ashr exact i64 %17, 2
  %19 = icmp ugt i64 %11, %18
  br i1 %19, label %20, label %36

20:                                               ; preds = %4
  %21 = icmp ugt i64 %10, 9223372036854775804
  br i1 %21, label %22, label %23, !prof !85

22:                                               ; preds = %20
  tail call void @_ZSt28__throw_bad_array_new_lengthv() #19
  unreachable

23:                                               ; preds = %20
  %24 = tail call noalias noundef nonnull ptr @_Znwm(i64 noundef %10) #16
  %25 = icmp ugt i64 %10, 4
  br i1 %25, label %26, label %27, !prof !86

26:                                               ; preds = %23
  tail call void @llvm.memcpy.p0.p0.i64(ptr nonnull align 4 %24, ptr align 4 %7, i64 %10, i1 false)
  br label %31

27:                                               ; preds = %23
  %28 = icmp eq i64 %10, 4
  br i1 %28, label %29, label %31

29:                                               ; preds = %27
  %30 = load i32, ptr %7, align 4, !tbaa !59
  store i32 %30, ptr %24, align 4, !tbaa !59
  br label %31

31:                                               ; preds = %26, %27, %29
  %32 = icmp eq ptr %14, null
  br i1 %32, label %34, label %33

33:                                               ; preds = %31
  tail call void @_ZdlPv(ptr noundef nonnull %14) #17
  br label %34

34:                                               ; preds = %31, %33
  store ptr %24, ptr %0, align 8, !tbaa !58
  %35 = getelementptr inbounds i32, ptr %24, i64 %11
  store ptr %35, ptr %12, align 8, !tbaa !61
  br label %78

36:                                               ; preds = %4
  %37 = getelementptr inbounds %"struct.std::_Vector_base<unsigned int, std::allocator<unsigned int> >::_Vector_impl_data", ptr %0, i64 0, i32 1
  %38 = load ptr, ptr %37, align 8, !tbaa !57
  %39 = ptrtoint ptr %38 to i64
  %40 = sub i64 %39, %16
  %41 = ashr exact i64 %40, 2
  %42 = icmp ult i64 %41, %11
  br i1 %42, label %50, label %43

43:                                               ; preds = %36
  %44 = icmp sgt i64 %10, 4
  br i1 %44, label %45, label %46, !prof !86

45:                                               ; preds = %43
  tail call void @llvm.memmove.p0.p0.i64(ptr align 4 %14, ptr align 4 %7, i64 %10, i1 false)
  br label %78

46:                                               ; preds = %43
  %47 = icmp eq i64 %10, 4
  br i1 %47, label %48, label %78

48:                                               ; preds = %46
  %49 = load i32, ptr %7, align 4, !tbaa !59
  store i32 %49, ptr %14, align 4, !tbaa !59
  br label %78

50:                                               ; preds = %36
  %51 = icmp sgt i64 %40, 4
  br i1 %51, label %52, label %55, !prof !86

52:                                               ; preds = %50
  tail call void @llvm.memmove.p0.p0.i64(ptr align 4 %14, ptr align 4 %7, i64 %40, i1 false)
  %53 = load ptr, ptr %37, align 8, !tbaa !57
  %54 = ptrtoint ptr %53 to i64
  br label %59

55:                                               ; preds = %50
  %56 = icmp eq i64 %40, 4
  br i1 %56, label %57, label %59

57:                                               ; preds = %55
  %58 = load i32, ptr %7, align 4, !tbaa !59
  store i32 %58, ptr %14, align 4, !tbaa !59
  br label %59

59:                                               ; preds = %52, %55, %57
  %60 = phi i64 [ %54, %52 ], [ %39, %55 ], [ %39, %57 ]
  %61 = phi ptr [ %53, %52 ], [ %38, %55 ], [ %38, %57 ]
  %62 = load ptr, ptr %1, align 8, !tbaa !58
  %63 = load ptr, ptr %0, align 8, !tbaa !58
  %64 = ptrtoint ptr %63 to i64
  %65 = sub i64 %60, %64
  %66 = ashr exact i64 %65, 2
  %67 = getelementptr inbounds i32, ptr %62, i64 %66
  %68 = load ptr, ptr %5, align 8, !tbaa !57
  %69 = ptrtoint ptr %68 to i64
  %70 = ptrtoint ptr %67 to i64
  %71 = sub i64 %69, %70
  %72 = icmp sgt i64 %71, 4
  br i1 %72, label %73, label %74, !prof !86

73:                                               ; preds = %59
  tail call void @llvm.memmove.p0.p0.i64(ptr align 4 %61, ptr align 4 %67, i64 %71, i1 false)
  br label %78

74:                                               ; preds = %59
  %75 = icmp eq i64 %71, 4
  br i1 %75, label %76, label %78

76:                                               ; preds = %74
  %77 = load i32, ptr %67, align 4, !tbaa !59
  store i32 %77, ptr %61, align 4, !tbaa !59
  br label %78

78:                                               ; preds = %76, %74, %73, %48, %46, %45, %34
  %79 = load ptr, ptr %0, align 8, !tbaa !58
  %80 = getelementptr inbounds i32, ptr %79, i64 %11
  %81 = getelementptr inbounds %"struct.std::_Vector_base<unsigned int, std::allocator<unsigned int> >::_Vector_impl_data", ptr %0, i64 0, i32 1
  store ptr %80, ptr %81, align 8, !tbaa !57
  br label %82

82:                                               ; preds = %78, %2
  ret ptr %0
}

; Function Attrs: mustprogress nocallback nofree nosync nounwind willreturn memory(argmem: readwrite)
declare void @llvm.lifetime.end.p0(i64 immarg, ptr nocapture) #1

; Function Attrs: sspstrong uwtable
define linkonce_odr dso_local void @_ZN6dealii23MGTransferComponentBase14build_matricesILi3ELi3EEEvRKNS_10DoFHandlerIXT_EXT0_EEERKNS_12MGDoFHandlerIXT_EXT0_EEE(ptr noundef nonnull align 8 dereferenceable(272) %0, ptr noundef nonnull align 8 dereferenceable(168) %1, ptr noundef nonnull align 8 dereferenceable(248) %2) local_unnamed_addr #0 comdat align 2 personality ptr @__gxx_personality_v0 {
  %4 = alloca %"class.dealii::RefinementCase", align 1
  %5 = alloca %"class.dealii::RefinementCase", align 1
  %6 = alloca i32, align 4
  %7 = alloca i32, align 4
  %8 = alloca i32, align 4
  %9 = alloca %"class.std::vector.20", align 8
  %10 = alloca %"class.std::vector.20", align 8
  %11 = alloca %"class.std::vector.20", align 8
  %12 = alloca %"class.std::map.105", align 8
  %13 = alloca %"class.boost::shared_ptr", align 8
  %14 = alloca %"class.boost::shared_ptr.136", align 8
  %15 = alloca %"class.boost::shared_ptr.136", align 8
  %16 = alloca %"class.boost::shared_ptr", align 8
  %17 = alloca %"class.std::vector.20", align 8
  %18 = alloca %"class.std::vector.20", align 8
  %19 = alloca %"class.dealii::TriaIterator", align 8
  %20 = alloca %"class.dealii::TriaIterator", align 8
  %21 = alloca %"class.dealii::RefinementCase", align 1
  %22 = alloca %"class.dealii::TriaIterator", align 8
  %23 = alloca %"class.dealii::TriaIterator", align 8
  %24 = alloca %"class.dealii::TriaIterator", align 8
  %25 = alloca %"class.dealii::RefinementCase", align 1
  %26 = alloca %"class.dealii::TriaIterator", align 8
  %27 = getelementptr inbounds %"class.dealii::MGTransferComponentBase", ptr %0, i64 0, i32 2
  %28 = getelementptr inbounds %"class.dealii::MGTransferComponentBase", ptr %0, i64 0, i32 2, i32 0, i32 0, i32 0, i32 1
  %29 = load ptr, ptr %28, align 8, !tbaa !69
  %30 = load ptr, ptr %27, align 8, !tbaa !58
  %31 = ptrtoint ptr %29 to i64
  %32 = ptrtoint ptr %30 to i64
  %33 = sub i64 %31, %32
  %34 = ashr exact i64 %33, 2
  %35 = icmp eq ptr %29, %30
  br i1 %35, label %36, label %91

36:                                               ; preds = %3
  %37 = getelementptr inbounds %"class.dealii::DoFHandler", ptr %2, i64 0, i32 2
  %38 = load ptr, ptr %37, align 8, !tbaa !5
  %39 = getelementptr inbounds i8, ptr %38, i64 116
  %40 = load i32, ptr %39, align 4, !tbaa !10
  %41 = zext i32 %40 to i64
  call void @llvm.lifetime.start.p0(i64 4, ptr nonnull %8)
  store i32 0, ptr %8, align 4, !tbaa !59
  %42 = icmp ult i64 %34, %41
  br i1 %42, label %44, label %43

43:                                               ; preds = %36
  call void @llvm.lifetime.end.p0(i64 4, ptr nonnull %8)
  br label %96

44:                                               ; preds = %36
  %45 = sub nuw nsw i64 %41, %34
  call void @_ZNSt6vectorIjSaIjEE14_M_fill_insertEN9__gnu_cxx17__normal_iteratorIPjS1_EEmRKj(ptr noundef nonnull align 8 dereferenceable(24) %27, ptr %29, i64 noundef %45, ptr noundef nonnull align 4 dereferenceable(4) %8)
  %46 = load ptr, ptr %28, align 8, !tbaa !57
  %47 = load ptr, ptr %27, align 8, !tbaa !58
  %48 = ptrtoint ptr %46 to i64
  %49 = ptrtoint ptr %47 to i64
  call void @llvm.lifetime.end.p0(i64 4, ptr nonnull %8)
  %50 = sub i64 %48, %49
  %51 = ashr i64 %50, 2
  %52 = icmp eq ptr %46, %47
  br i1 %52, label %96, label %53

53:                                               ; preds = %44
  %54 = call i64 @llvm.umax.i64(i64 %51, i64 1)
  %55 = icmp ult i64 %54, 24
  br i1 %55, label %81, label %56

56:                                               ; preds = %53
  %57 = call i64 @llvm.umax.i64(i64 %51, i64 1)
  %58 = add i64 %57, -1
  %59 = and i64 %58, 4294967295
  %60 = icmp eq i64 %59, 4294967295
  %61 = icmp ugt i64 %58, 4294967295
  %62 = or i1 %60, %61
  br i1 %62, label %81, label %63

63:                                               ; preds = %56
  %64 = and i64 %54, -16
  %65 = trunc i64 %64 to i32
  br label %66

66:                                               ; preds = %66, %63
  %67 = phi i64 [ 0, %63 ], [ %76, %66 ]
  %68 = phi <4 x i32> [ <i32 0, i32 1, i32 2, i32 3>, %63 ], [ %77, %66 ]
  %69 = add <4 x i32> %68, <i32 4, i32 4, i32 4, i32 4>
  %70 = add <4 x i32> %68, <i32 8, i32 8, i32 8, i32 8>
  %71 = add <4 x i32> %68, <i32 12, i32 12, i32 12, i32 12>
  %72 = getelementptr inbounds i32, ptr %47, i64 %67
  store <4 x i32> %68, ptr %72, align 4, !tbaa !59
  %73 = getelementptr inbounds i32, ptr %72, i64 4
  store <4 x i32> %69, ptr %73, align 4, !tbaa !59
  %74 = getelementptr inbounds i32, ptr %72, i64 8
  store <4 x i32> %70, ptr %74, align 4, !tbaa !59
  %75 = getelementptr inbounds i32, ptr %72, i64 12
  store <4 x i32> %71, ptr %75, align 4, !tbaa !59
  %76 = add nuw i64 %67, 16
  %77 = add <4 x i32> %68, <i32 16, i32 16, i32 16, i32 16>
  %78 = icmp eq i64 %76, %64
  br i1 %78, label %79, label %66, !llvm.loop !87

79:                                               ; preds = %66
  %80 = icmp eq i64 %54, %64
  br i1 %80, label %96, label %81

81:                                               ; preds = %56, %53, %79
  %82 = phi i64 [ 0, %56 ], [ 0, %53 ], [ %64, %79 ]
  %83 = phi i32 [ 0, %56 ], [ 0, %53 ], [ %65, %79 ]
  br label %84

84:                                               ; preds = %81, %84
  %85 = phi i64 [ %89, %84 ], [ %82, %81 ]
  %86 = phi i32 [ %88, %84 ], [ %83, %81 ]
  %87 = getelementptr inbounds i32, ptr %47, i64 %85
  store i32 %86, ptr %87, align 4, !tbaa !59
  %88 = add i32 %86, 1
  %89 = zext i32 %88 to i64
  %90 = icmp ugt i64 %51, %89
  br i1 %90, label %84, label %96, !llvm.loop !90

91:                                               ; preds = %3, %91
  %92 = phi i32 [ %95, %91 ], [ 0, %3 ]
  %93 = zext i32 %92 to i64
  %94 = icmp ugt i64 %34, %93
  %95 = add i32 %92, 1
  br i1 %94, label %91, label %96

96:                                               ; preds = %91, %84, %79, %43, %44
  %97 = getelementptr inbounds %"class.dealii::MGTransferComponentBase", ptr %0, i64 0, i32 3
  %98 = getelementptr inbounds %"class.dealii::MGTransferComponentBase", ptr %0, i64 0, i32 3, i32 0, i32 0, i32 0, i32 1
  %99 = load ptr, ptr %98, align 8, !tbaa !69
  %100 = load ptr, ptr %97, align 8, !tbaa !69
  %101 = ptrtoint ptr %99 to i64
  %102 = ptrtoint ptr %100 to i64
  %103 = sub i64 %101, %102
  %104 = ashr exact i64 %103, 2
  %105 = icmp eq ptr %99, %100
  br i1 %105, label %106, label %171

106:                                              ; preds = %96
  %107 = getelementptr inbounds %"class.dealii::DoFHandler", ptr %2, i64 0, i32 2
  %108 = load ptr, ptr %107, align 8, !tbaa !5
  %109 = getelementptr inbounds i8, ptr %108, i64 116
  %110 = load i32, ptr %109, align 4, !tbaa !10
  %111 = zext i32 %110 to i64
  call void @llvm.lifetime.start.p0(i64 4, ptr nonnull %7)
  store i32 0, ptr %7, align 4, !tbaa !59
  %112 = icmp ult i64 %104, %111
  br i1 %112, label %114, label %113

113:                                              ; preds = %106
  call void @llvm.lifetime.end.p0(i64 4, ptr nonnull %7)
  br label %176

114:                                              ; preds = %106
  %115 = sub nuw nsw i64 %111, %104
  call void @_ZNSt6vectorIjSaIjEE14_M_fill_insertEN9__gnu_cxx17__normal_iteratorIPjS1_EEmRKj(ptr noundef nonnull align 8 dereferenceable(24) %97, ptr %99, i64 noundef %115, ptr noundef nonnull align 4 dereferenceable(4) %7)
  %116 = load ptr, ptr %98, align 8, !tbaa !69
  %117 = load ptr, ptr %97, align 8, !tbaa !69
  %118 = ptrtoint ptr %116 to i64
  %119 = ptrtoint ptr %117 to i64
  call void @llvm.lifetime.end.p0(i64 4, ptr nonnull %7)
  %120 = sub i64 %118, %119
  %121 = ashr i64 %120, 2
  %122 = icmp eq ptr %116, %117
  br i1 %122, label %176, label %123

123:                                              ; preds = %114
  %124 = load ptr, ptr %27, align 8, !tbaa !58
  %125 = call i64 @llvm.umax.i64(i64 %121, i64 1)
  %126 = icmp ult i64 %125, 32
  br i1 %126, label %159, label %127

127:                                              ; preds = %123
  %128 = ptrtoint ptr %124 to i64
  %129 = call i64 @llvm.umax.i64(i64 %121, i64 1)
  %130 = add i64 %129, -1
  %131 = and i64 %130, 4294967295
  %132 = icmp eq i64 %131, 4294967295
  %133 = icmp ugt i64 %130, 4294967295
  %134 = or i1 %132, %133
  %135 = sub i64 %119, %128
  %136 = icmp ult i64 %135, 128
  %137 = select i1 %134, i1 true, i1 %136
  br i1 %137, label %159, label %138

138:                                              ; preds = %127
  %139 = and i64 %125, -32
  %140 = trunc i64 %139 to i32
  br label %141

141:                                              ; preds = %141, %138
  %142 = phi i64 [ 0, %138 ], [ %155, %141 ]
  %143 = getelementptr inbounds i32, ptr %124, i64 %142
  %144 = load <8 x i32>, ptr %143, align 4, !tbaa !59
  %145 = getelementptr inbounds i32, ptr %143, i64 8
  %146 = load <8 x i32>, ptr %145, align 4, !tbaa !59
  %147 = getelementptr inbounds i32, ptr %143, i64 16
  %148 = load <8 x i32>, ptr %147, align 4, !tbaa !59
  %149 = getelementptr inbounds i32, ptr %143, i64 24
  %150 = load <8 x i32>, ptr %149, align 4, !tbaa !59
  %151 = getelementptr inbounds i32, ptr %117, i64 %142
  store <8 x i32> %144, ptr %151, align 4, !tbaa !59
  %152 = getelementptr inbounds i32, ptr %151, i64 8
  store <8 x i32> %146, ptr %152, align 4, !tbaa !59
  %153 = getelementptr inbounds i32, ptr %151, i64 16
  store <8 x i32> %148, ptr %153, align 4, !tbaa !59
  %154 = getelementptr inbounds i32, ptr %151, i64 24
  store <8 x i32> %150, ptr %154, align 4, !tbaa !59
  %155 = add nuw i64 %142, 32
  %156 = icmp eq i64 %155, %139
  br i1 %156, label %157, label %141, !llvm.loop !91

157:                                              ; preds = %141
  %158 = icmp eq i64 %125, %139
  br i1 %158, label %180, label %159

159:                                              ; preds = %127, %123, %157
  %160 = phi i64 [ 0, %127 ], [ 0, %123 ], [ %139, %157 ]
  %161 = phi i32 [ 0, %127 ], [ 0, %123 ], [ %140, %157 ]
  br label %162

162:                                              ; preds = %159, %162
  %163 = phi i64 [ %169, %162 ], [ %160, %159 ]
  %164 = phi i32 [ %168, %162 ], [ %161, %159 ]
  %165 = getelementptr inbounds i32, ptr %124, i64 %163
  %166 = load i32, ptr %165, align 4, !tbaa !59
  %167 = getelementptr inbounds i32, ptr %117, i64 %163
  store i32 %166, ptr %167, align 4, !tbaa !59
  %168 = add i32 %164, 1
  %169 = zext i32 %168 to i64
  %170 = icmp ugt i64 %121, %169
  br i1 %170, label %162, label %180, !llvm.loop !92

171:                                              ; preds = %96, %171
  %172 = phi i32 [ %175, %171 ], [ 0, %96 ]
  %173 = zext i32 %172 to i64
  %174 = icmp ugt i64 %104, %173
  %175 = add i32 %172, 1
  br i1 %174, label %171, label %180

176:                                              ; preds = %114, %113
  %177 = phi ptr [ %99, %113 ], [ %117, %114 ]
  %178 = getelementptr inbounds %"class.dealii::DoFHandler", ptr %2, i64 0, i32 2
  %179 = load ptr, ptr %178, align 8, !tbaa !5
  br label %201

180:                                              ; preds = %171, %162, %157
  %181 = phi ptr [ %116, %157 ], [ %116, %162 ], [ %99, %171 ]
  %182 = phi ptr [ %117, %157 ], [ %117, %162 ], [ %100, %171 ]
  %183 = getelementptr inbounds %"class.dealii::DoFHandler", ptr %2, i64 0, i32 2
  %184 = load ptr, ptr %183, align 8, !tbaa !5
  %185 = icmp eq ptr %182, %181
  %186 = getelementptr inbounds i32, ptr %182, i64 1
  %187 = icmp eq ptr %186, %181
  %188 = select i1 %185, i1 true, i1 %187
  br i1 %188, label %201, label %189

189:                                              ; preds = %180
  %190 = load i32, ptr %182, align 4, !tbaa !59
  br label %191

191:                                              ; preds = %191, %189
  %192 = phi i32 [ %197, %191 ], [ %190, %189 ]
  %193 = phi ptr [ %199, %191 ], [ %186, %189 ]
  %194 = phi ptr [ %198, %191 ], [ %182, %189 ]
  %195 = load i32, ptr %193, align 4, !tbaa !59
  %196 = icmp ult i32 %192, %195
  %197 = call i32 @llvm.umax.i32(i32 %192, i32 %195)
  %198 = select i1 %196, ptr %193, ptr %194
  %199 = getelementptr inbounds i32, ptr %193, i64 1
  %200 = icmp eq ptr %199, %181
  br i1 %200, label %201, label %191

201:                                              ; preds = %191, %176, %180
  %202 = phi ptr [ %184, %180 ], [ %179, %176 ], [ %184, %191 ]
  %203 = phi ptr [ %183, %180 ], [ %178, %176 ], [ %183, %191 ]
  %204 = phi ptr [ %182, %180 ], [ %177, %176 ], [ %198, %191 ]
  %205 = load i32, ptr %204, align 4, !tbaa !59
  %206 = add i32 %205, 1
  %207 = getelementptr inbounds i8, ptr %202, i64 112
  %208 = load i32, ptr %207, align 8, !tbaa !60
  %209 = getelementptr inbounds %"class.dealii::DoFHandler", ptr %2, i64 0, i32 1
  %210 = load ptr, ptr %209, align 8, !tbaa !62
  %211 = call noundef i32 @_ZNK6dealii13TriangulationILi3ELi3EE8n_levelsEv(ptr noundef nonnull align 8 dereferenceable(8552) %210)
  %212 = getelementptr inbounds %"class.dealii::MGTransferComponentBase", ptr %0, i64 0, i32 4
  %213 = zext i32 %211 to i64
  call void @llvm.memset.p0.i64(ptr noundef nonnull align 8 dereferenceable(24) %9, i8 0, i64 24, i1 false)
  %214 = getelementptr inbounds %"class.dealii::MGTransferComponentBase", ptr %0, i64 0, i32 4, i32 0, i32 0, i32 0, i32 1
  %215 = load ptr, ptr %214, align 8, !tbaa !69
  %216 = load ptr, ptr %212, align 8, !tbaa !81
  %217 = ptrtoint ptr %215 to i64
  %218 = ptrtoint ptr %216 to i64
  %219 = sub i64 %217, %218
  %220 = sdiv exact i64 %219, 24
  %221 = icmp ult i64 %220, %213
  br i1 %221, label %222, label %224

222:                                              ; preds = %201
  %223 = sub nsw i64 %213, %220
  invoke void @_ZNSt6vectorIS_IjSaIjEESaIS1_EE14_M_fill_insertEN9__gnu_cxx17__normal_iteratorIPS1_S3_EEmRKS1_(ptr noundef nonnull align 8 dereferenceable(24) %212, ptr %215, i64 noundef %223, ptr noundef nonnull align 8 dereferenceable(24) %9)
          to label %238 unwind label %362

224:                                              ; preds = %201
  %225 = icmp ugt i64 %220, %213
  br i1 %225, label %226, label %238

226:                                              ; preds = %224
  %227 = getelementptr inbounds %"class.std::vector.20", ptr %216, i64 %213
  %228 = icmp eq ptr %215, %227
  br i1 %228, label %238, label %229

229:                                              ; preds = %226, %234
  %230 = phi ptr [ %235, %234 ], [ %227, %226 ]
  %231 = load ptr, ptr %230, align 8, !tbaa !58
  %232 = icmp eq ptr %231, null
  br i1 %232, label %234, label %233

233:                                              ; preds = %229
  call void @_ZdlPv(ptr noundef nonnull %231) #17
  br label %234

234:                                              ; preds = %233, %229
  %235 = getelementptr inbounds %"class.std::vector.20", ptr %230, i64 1
  %236 = icmp eq ptr %235, %215
  br i1 %236, label %237, label %229

237:                                              ; preds = %234
  store ptr %227, ptr %214, align 8, !tbaa !93
  br label %238

238:                                              ; preds = %237, %226, %224, %222
  %239 = load ptr, ptr %9, align 8, !tbaa !58
  %240 = icmp eq ptr %239, null
  br i1 %240, label %242, label %241

241:                                              ; preds = %238
  call void @_ZdlPv(ptr noundef nonnull %239) #17
  br label %242

242:                                              ; preds = %238, %241
  %243 = load ptr, ptr %98, align 8, !tbaa !69
  %244 = load ptr, ptr %97, align 8, !tbaa !69
  %245 = ptrtoint ptr %243 to i64
  %246 = ptrtoint ptr %244 to i64
  %247 = sub i64 %245, %246
  %248 = ashr exact i64 %247, 2
  call void @llvm.memset.p0.i64(ptr noundef nonnull align 8 dereferenceable(24) %10, i8 0, i64 24, i1 false)
  %249 = icmp eq ptr %243, %244
  br i1 %249, label %255, label %250

250:                                              ; preds = %242
  %251 = icmp ugt i64 %247, 9223372036854775804
  br i1 %251, label %252, label %253, !prof !85

252:                                              ; preds = %250
  call void @_ZSt28__throw_bad_array_new_lengthv() #19
  unreachable

253:                                              ; preds = %250
  %254 = call noalias noundef nonnull ptr @_Znwm(i64 noundef %247) #16
  br label %255

255:                                              ; preds = %253, %242
  %256 = phi ptr [ null, %242 ], [ %254, %253 ]
  store ptr %256, ptr %10, align 8, !tbaa !58
  %257 = getelementptr inbounds %"struct.std::_Vector_base<unsigned int, std::allocator<unsigned int> >::_Vector_impl_data", ptr %10, i64 0, i32 1
  store ptr %256, ptr %257, align 8, !tbaa !57
  %258 = getelementptr inbounds i32, ptr %256, i64 %248
  %259 = getelementptr inbounds %"struct.std::_Vector_base<unsigned int, std::allocator<unsigned int> >::_Vector_impl_data", ptr %10, i64 0, i32 2
  store ptr %258, ptr %259, align 8, !tbaa !61
  %260 = icmp sgt i64 %247, 4
  br i1 %260, label %261, label %262, !prof !86

261:                                              ; preds = %255
  call void @llvm.memmove.p0.p0.i64(ptr align 4 %256, ptr align 4 %244, i64 %247, i1 false)
  br label %266

262:                                              ; preds = %255
  %263 = icmp eq i64 %247, 4
  br i1 %263, label %264, label %266

264:                                              ; preds = %262
  %265 = load i32, ptr %244, align 4, !tbaa !59
  store i32 %265, ptr %256, align 4, !tbaa !59
  br label %266

266:                                              ; preds = %261, %262, %264
  store ptr %258, ptr %257, align 8, !tbaa !57
  invoke void @_ZN6dealii7MGTools24count_dofs_per_componentILi3ELi3EEEvRKNS_12MGDoFHandlerIXT_EXT0_EEERSt6vectorIS6_IjSaIjEESaIS8_EEbS8_(ptr noundef nonnull align 8 dereferenceable(248) %2, ptr noundef nonnull align 8 dereferenceable(24) %212, i1 noundef zeroext true, ptr noundef nonnull %10)
          to label %267 unwind label %367

267:                                              ; preds = %266
  %268 = load ptr, ptr %10, align 8, !tbaa !58
  %269 = icmp eq ptr %268, null
  br i1 %269, label %271, label %270

270:                                              ; preds = %267
  call void @_ZdlPv(ptr noundef nonnull %268) #17
  br label %271

271:                                              ; preds = %267, %270
  %272 = getelementptr inbounds %"class.dealii::MGTransferComponentBase", ptr %0, i64 0, i32 6
  %273 = call noundef nonnull align 8 dereferenceable(24) ptr @_ZNSt6vectorIS_IjSaIjEESaIS1_EEaSERKS3_(ptr noundef nonnull align 8 dereferenceable(24) %272, ptr noundef nonnull align 8 dereferenceable(24) %212)
  %274 = getelementptr inbounds %"class.dealii::MGTransferComponentBase", ptr %0, i64 0, i32 6, i32 0, i32 0, i32 0, i32 1
  %275 = load ptr, ptr %274, align 8, !tbaa !93
  %276 = load ptr, ptr %272, align 8, !tbaa !81
  %277 = ptrtoint ptr %275 to i64
  %278 = ptrtoint ptr %276 to i64
  %279 = sub i64 %277, %278
  %280 = sdiv exact i64 %279, 24
  %281 = icmp eq ptr %275, %276
  br i1 %281, label %294, label %282

282:                                              ; preds = %271, %372
  %283 = phi i64 [ %374, %372 ], [ 0, %271 ]
  %284 = phi i32 [ %373, %372 ], [ 0, %271 ]
  %285 = getelementptr inbounds %"class.std::vector.20", ptr %276, i64 %283
  %286 = getelementptr inbounds %"struct.std::_Vector_base<unsigned int, std::allocator<unsigned int> >::_Vector_impl_data", ptr %285, i64 0, i32 1
  %287 = load ptr, ptr %286, align 8, !tbaa !57
  %288 = load ptr, ptr %285, align 8, !tbaa !58
  %289 = ptrtoint ptr %287 to i64
  %290 = ptrtoint ptr %288 to i64
  %291 = sub i64 %289, %290
  %292 = ashr exact i64 %291, 2
  %293 = icmp eq ptr %287, %288
  br i1 %293, label %372, label %376

294:                                              ; preds = %372, %271
  %295 = getelementptr inbounds %"class.dealii::MGTransferComponentBase", ptr %0, i64 0, i32 5
  %296 = load ptr, ptr %27, align 8, !tbaa !69
  %297 = load ptr, ptr %28, align 8, !tbaa !69
  %298 = icmp eq ptr %296, %297
  %299 = getelementptr inbounds i32, ptr %296, i64 1
  %300 = icmp eq ptr %299, %297
  %301 = select i1 %298, i1 true, i1 %300
  br i1 %301, label %314, label %302

302:                                              ; preds = %294
  %303 = load i32, ptr %296, align 4, !tbaa !59
  br label %304

304:                                              ; preds = %304, %302
  %305 = phi i32 [ %310, %304 ], [ %303, %302 ]
  %306 = phi ptr [ %312, %304 ], [ %299, %302 ]
  %307 = phi ptr [ %311, %304 ], [ %296, %302 ]
  %308 = load i32, ptr %306, align 4, !tbaa !59
  %309 = icmp ult i32 %305, %308
  %310 = call i32 @llvm.umax.i32(i32 %305, i32 %308)
  %311 = select i1 %309, ptr %306, ptr %307
  %312 = getelementptr inbounds i32, ptr %306, i64 1
  %313 = icmp eq ptr %312, %297
  br i1 %313, label %314, label %304

314:                                              ; preds = %304, %294
  %315 = phi ptr [ %296, %294 ], [ %311, %304 ]
  %316 = load i32, ptr %315, align 4, !tbaa !59
  %317 = add i32 %316, 1
  %318 = zext i32 %317 to i64
  call void @llvm.lifetime.start.p0(i64 4, ptr nonnull %6)
  store i32 0, ptr %6, align 4, !tbaa !59
  %319 = getelementptr inbounds %"class.dealii::MGTransferComponentBase", ptr %0, i64 0, i32 5, i32 0, i32 0, i32 0, i32 1
  %320 = load ptr, ptr %319, align 8, !tbaa !69
  %321 = load ptr, ptr %295, align 8, !tbaa !58
  %322 = ptrtoint ptr %320 to i64
  %323 = ptrtoint ptr %321 to i64
  %324 = sub i64 %322, %323
  %325 = ashr exact i64 %324, 2
  %326 = icmp ult i64 %325, %318
  br i1 %326, label %327, label %331

327:                                              ; preds = %314
  %328 = sub nsw i64 %318, %325
  call void @_ZNSt6vectorIjSaIjEE14_M_fill_insertEN9__gnu_cxx17__normal_iteratorIPjS1_EEmRKj(ptr noundef nonnull align 8 dereferenceable(24) %295, ptr %320, i64 noundef %328, ptr noundef nonnull align 4 dereferenceable(4) %6)
  %329 = load ptr, ptr %28, align 8, !tbaa !69
  %330 = load ptr, ptr %27, align 8, !tbaa !69
  br label %337

331:                                              ; preds = %314
  %332 = icmp ugt i64 %325, %318
  br i1 %332, label %333, label %337

333:                                              ; preds = %331
  %334 = getelementptr inbounds i32, ptr %321, i64 %318
  %335 = icmp eq ptr %320, %334
  br i1 %335, label %337, label %336

336:                                              ; preds = %333
  store ptr %334, ptr %319, align 8, !tbaa !57
  br label %337

337:                                              ; preds = %327, %331, %333, %336
  %338 = phi ptr [ %330, %327 ], [ %296, %331 ], [ %296, %333 ], [ %296, %336 ]
  %339 = phi ptr [ %329, %327 ], [ %297, %331 ], [ %297, %333 ], [ %297, %336 ]
  call void @llvm.lifetime.end.p0(i64 4, ptr nonnull %6)
  %340 = ptrtoint ptr %339 to i64
  %341 = ptrtoint ptr %338 to i64
  %342 = sub i64 %340, %341
  %343 = ashr exact i64 %342, 2
  call void @llvm.memset.p0.i64(ptr noundef nonnull align 8 dereferenceable(24) %11, i8 0, i64 24, i1 false)
  %344 = icmp eq ptr %339, %338
  br i1 %344, label %350, label %345

345:                                              ; preds = %337
  %346 = icmp ugt i64 %342, 9223372036854775804
  br i1 %346, label %347, label %348, !prof !85

347:                                              ; preds = %345
  call void @_ZSt28__throw_bad_array_new_lengthv() #19
  unreachable

348:                                              ; preds = %345
  %349 = call noalias noundef nonnull ptr @_Znwm(i64 noundef %342) #16
  br label %350

350:                                              ; preds = %348, %337
  %351 = phi ptr [ null, %337 ], [ %349, %348 ]
  store ptr %351, ptr %11, align 8, !tbaa !58
  %352 = getelementptr inbounds %"struct.std::_Vector_base<unsigned int, std::allocator<unsigned int> >::_Vector_impl_data", ptr %11, i64 0, i32 1
  store ptr %351, ptr %352, align 8, !tbaa !57
  %353 = getelementptr inbounds i32, ptr %351, i64 %343
  %354 = getelementptr inbounds %"struct.std::_Vector_base<unsigned int, std::allocator<unsigned int> >::_Vector_impl_data", ptr %11, i64 0, i32 2
  store ptr %353, ptr %354, align 8, !tbaa !61
  %355 = icmp sgt i64 %342, 4
  br i1 %355, label %356, label %357, !prof !86

356:                                              ; preds = %350
  call void @llvm.memmove.p0.p0.i64(ptr align 4 %351, ptr align 4 %338, i64 %342, i1 false)
  br label %361

357:                                              ; preds = %350
  %358 = icmp eq i64 %342, 4
  br i1 %358, label %359, label %361

359:                                              ; preds = %357
  %360 = load i32, ptr %338, align 4, !tbaa !59
  store i32 %360, ptr %351, align 4, !tbaa !59
  br label %361

361:                                              ; preds = %356, %357, %359
  store ptr %353, ptr %352, align 8, !tbaa !57
  invoke void @_ZN6dealii8DoFTools24count_dofs_per_componentILi3ELi3EEEvRKNS_10DoFHandlerIXT_EXT0_EEERSt6vectorIjSaIjEEbS8_(ptr noundef nonnull align 8 dereferenceable(168) %2, ptr noundef nonnull align 8 dereferenceable(24) %295, i1 noundef zeroext true, ptr noundef nonnull %11)
          to label %386 unwind label %428

362:                                              ; preds = %222
  %363 = landingpad { ptr, i32 }
          cleanup
  %364 = load ptr, ptr %9, align 8, !tbaa !58
  %365 = icmp eq ptr %364, null
  br i1 %365, label %556, label %366

366:                                              ; preds = %362
  call void @_ZdlPv(ptr noundef nonnull %364) #17
  br label %556

367:                                              ; preds = %266
  %368 = landingpad { ptr, i32 }
          cleanup
  %369 = load ptr, ptr %10, align 8, !tbaa !58
  %370 = icmp eq ptr %369, null
  br i1 %370, label %556, label %371

371:                                              ; preds = %367
  call void @_ZdlPv(ptr noundef nonnull %369) #17
  br label %556

372:                                              ; preds = %376, %282
  %373 = add i32 %284, 1
  %374 = zext i32 %373 to i64
  %375 = icmp ugt i64 %280, %374
  br i1 %375, label %282, label %294

376:                                              ; preds = %282, %376
  %377 = phi i64 [ %384, %376 ], [ 0, %282 ]
  %378 = phi i32 [ %382, %376 ], [ 0, %282 ]
  %379 = phi i32 [ %383, %376 ], [ 0, %282 ]
  %380 = getelementptr inbounds i32, ptr %288, i64 %377
  %381 = load i32, ptr %380, align 4, !tbaa !59
  store i32 %378, ptr %380, align 4, !tbaa !59
  %382 = add i32 %381, %378
  %383 = add i32 %379, 1
  %384 = zext i32 %383 to i64
  %385 = icmp ugt i64 %292, %384
  br i1 %385, label %376, label %372

386:                                              ; preds = %361
  %387 = load ptr, ptr %11, align 8, !tbaa !58
  %388 = icmp eq ptr %387, null
  br i1 %388, label %390, label %389

389:                                              ; preds = %386
  call void @_ZdlPv(ptr noundef nonnull %387) #17
  br label %390

390:                                              ; preds = %386, %389
  %391 = load ptr, ptr %319, align 8, !tbaa !57
  %392 = load ptr, ptr %295, align 8, !tbaa !58
  %393 = ptrtoint ptr %391 to i64
  %394 = ptrtoint ptr %392 to i64
  %395 = sub i64 %393, %394
  %396 = ashr exact i64 %395, 2
  %397 = icmp eq ptr %391, %392
  br i1 %397, label %398, label %433

398:                                              ; preds = %433, %390
  %399 = getelementptr inbounds %"class.dealii::MGTransferComponentBase", ptr %0, i64 0, i32 9
  %400 = getelementptr inbounds i8, ptr %12, i64 8
  store i32 0, ptr %400, align 8, !tbaa !94
  %401 = getelementptr inbounds i8, ptr %12, i64 16
  store ptr null, ptr %401, align 8, !tbaa !95
  %402 = getelementptr inbounds i8, ptr %12, i64 24
  store ptr %400, ptr %402, align 8, !tbaa !83
  %403 = getelementptr inbounds i8, ptr %12, i64 32
  store ptr %400, ptr %403, align 8, !tbaa !96
  %404 = getelementptr inbounds i8, ptr %12, i64 40
  store i64 0, ptr %404, align 8, !tbaa !84
  %405 = getelementptr inbounds %"class.dealii::MGTransferComponentBase", ptr %0, i64 0, i32 9, i32 0, i32 0, i32 0, i32 1
  %406 = load ptr, ptr %405, align 8, !tbaa !69
  %407 = load ptr, ptr %399, align 8, !tbaa !82
  %408 = ptrtoint ptr %406 to i64
  %409 = ptrtoint ptr %407 to i64
  %410 = sub i64 %408, %409
  %411 = sdiv exact i64 %410, 48
  %412 = icmp ult i64 %411, %213
  br i1 %412, label %413, label %415

413:                                              ; preds = %398
  %414 = sub nsw i64 %213, %411
  invoke void @_ZNSt6vectorISt3mapIjjSt4lessIjESaISt4pairIKjjEEESaIS7_EE14_M_fill_insertEN9__gnu_cxx17__normal_iteratorIPS7_S9_EEmRKS7_(ptr noundef nonnull align 8 dereferenceable(24) %399, ptr %406, i64 noundef %414, ptr noundef nonnull align 8 dereferenceable(48) %12)
          to label %443 unwind label %532

415:                                              ; preds = %398
  %416 = icmp ugt i64 %411, %213
  br i1 %416, label %417, label %443

417:                                              ; preds = %415
  %418 = getelementptr inbounds %"class.std::map.105", ptr %407, i64 %213
  %419 = icmp eq ptr %406, %418
  br i1 %419, label %443, label %420

420:                                              ; preds = %417, %424
  %421 = phi ptr [ %425, %424 ], [ %418, %417 ]
  %422 = getelementptr inbounds i8, ptr %421, i64 16
  %423 = load ptr, ptr %422, align 8, !tbaa !95
  invoke void @_ZNSt8_Rb_treeIjSt4pairIKjjESt10_Select1stIS2_ESt4lessIjESaIS2_EE8_M_eraseEPSt13_Rb_tree_nodeIS2_E(ptr noundef nonnull align 8 dereferenceable(48) %421, ptr noundef %423)
          to label %424 unwind label %530

424:                                              ; preds = %420
  %425 = getelementptr inbounds %"class.std::map.105", ptr %421, i64 1
  %426 = icmp eq ptr %425, %406
  br i1 %426, label %427, label %420

427:                                              ; preds = %424
  store ptr %418, ptr %405, align 8, !tbaa !97
  br label %443

428:                                              ; preds = %361
  %429 = landingpad { ptr, i32 }
          cleanup
  %430 = load ptr, ptr %11, align 8, !tbaa !58
  %431 = icmp eq ptr %430, null
  br i1 %431, label %556, label %432

432:                                              ; preds = %428
  call void @_ZdlPv(ptr noundef nonnull %430) #17
  br label %556

433:                                              ; preds = %390, %433
  %434 = phi i64 [ %441, %433 ], [ 0, %390 ]
  %435 = phi i32 [ %439, %433 ], [ 0, %390 ]
  %436 = phi i32 [ %440, %433 ], [ 0, %390 ]
  %437 = getelementptr inbounds i32, ptr %392, i64 %434
  %438 = load i32, ptr %437, align 4, !tbaa !59
  store i32 %435, ptr %437, align 4, !tbaa !59
  %439 = add i32 %438, %435
  %440 = add i32 %436, 1
  %441 = zext i32 %440 to i64
  %442 = icmp ugt i64 %396, %441
  br i1 %442, label %433, label %398

443:                                              ; preds = %427, %417, %415, %413
  %444 = load ptr, ptr %401, align 8, !tbaa !95
  call void @_ZNSt8_Rb_treeIjSt4pairIKjjESt10_Select1stIS2_ESt4lessIjESaIS2_EE8_M_eraseEPSt13_Rb_tree_nodeIS2_E(ptr noundef nonnull align 8 dereferenceable(48) %12, ptr noundef %444)
  %445 = getelementptr inbounds %"class.dealii::MGTransferComponentBase", ptr %0, i64 0, i32 8
  call void @llvm.memset.p0.i64(ptr noundef nonnull align 8 dereferenceable(16) %13, i8 0, i64 16, i1 false)
  %446 = getelementptr inbounds %"class.dealii::MGTransferComponentBase", ptr %0, i64 0, i32 8, i32 0, i32 0, i32 0, i32 1
  %447 = load ptr, ptr %446, align 8, !tbaa !69
  %448 = load ptr, ptr %445, align 8, !tbaa !98
  %449 = icmp eq ptr %447, %448
  br i1 %449, label %477, label %450

450:                                              ; preds = %443, %473
  %451 = phi ptr [ %474, %473 ], [ %448, %443 ]
  %452 = getelementptr inbounds %"class.boost::shared_ptr", ptr %451, i64 0, i32 1
  %453 = load ptr, ptr %452, align 8, !tbaa !99
  %454 = icmp eq ptr %453, null
  br i1 %454, label %473, label %455

455:                                              ; preds = %450
  %456 = getelementptr inbounds %"class.boost::detail::sp_counted_base", ptr %453, i64 0, i32 1
  %457 = load i64, ptr %456, align 8, !tbaa !101
  %458 = add nsw i64 %457, -1
  store i64 %458, ptr %456, align 8, !tbaa !101
  %459 = icmp eq i64 %458, 0
  br i1 %459, label %460, label %473

460:                                              ; preds = %455
  %461 = load ptr, ptr %453, align 8, !tbaa !103
  %462 = getelementptr inbounds ptr, ptr %461, i64 2
  %463 = load ptr, ptr %462, align 8
  invoke void %463(ptr noundef nonnull align 8 dereferenceable(24) %453)
          to label %464 unwind label %537

464:                                              ; preds = %460
  %465 = getelementptr inbounds %"class.boost::detail::sp_counted_base", ptr %453, i64 0, i32 2
  %466 = load i64, ptr %465, align 8, !tbaa !105
  %467 = add nsw i64 %466, -1
  store i64 %467, ptr %465, align 8, !tbaa !105
  %468 = icmp eq i64 %467, 0
  br i1 %468, label %469, label %473

469:                                              ; preds = %464
  %470 = load ptr, ptr %453, align 8, !tbaa !103
  %471 = getelementptr inbounds ptr, ptr %470, i64 3
  %472 = load ptr, ptr %471, align 8
  invoke void %472(ptr noundef nonnull align 8 dereferenceable(24) %453)
          to label %473 unwind label %537

473:                                              ; preds = %469, %464, %455, %450
  %474 = getelementptr inbounds %"class.boost::shared_ptr", ptr %451, i64 1
  %475 = icmp eq ptr %474, %447
  br i1 %475, label %476, label %450

476:                                              ; preds = %473
  store ptr %448, ptr %446, align 8, !tbaa !106
  br label %477

477:                                              ; preds = %443, %476
  %478 = getelementptr inbounds %"class.dealii::MGTransferComponentBase", ptr %0, i64 0, i32 7
  call void @llvm.memset.p0.i64(ptr noundef nonnull align 8 dereferenceable(16) %14, i8 0, i64 16, i1 false)
  %479 = getelementptr inbounds %"class.dealii::MGTransferComponentBase", ptr %0, i64 0, i32 7, i32 0, i32 0, i32 0, i32 1
  %480 = load ptr, ptr %479, align 8, !tbaa !69
  %481 = load ptr, ptr %478, align 8, !tbaa !107
  %482 = icmp eq ptr %480, %481
  br i1 %482, label %510, label %483

483:                                              ; preds = %477, %506
  %484 = phi ptr [ %507, %506 ], [ %481, %477 ]
  %485 = getelementptr inbounds %"class.boost::shared_ptr.136", ptr %484, i64 0, i32 1
  %486 = load ptr, ptr %485, align 8, !tbaa !99
  %487 = icmp eq ptr %486, null
  br i1 %487, label %506, label %488

488:                                              ; preds = %483
  %489 = getelementptr inbounds %"class.boost::detail::sp_counted_base", ptr %486, i64 0, i32 1
  %490 = load i64, ptr %489, align 8, !tbaa !101
  %491 = add nsw i64 %490, -1
  store i64 %491, ptr %489, align 8, !tbaa !101
  %492 = icmp eq i64 %491, 0
  br i1 %492, label %493, label %506

493:                                              ; preds = %488
  %494 = load ptr, ptr %486, align 8, !tbaa !103
  %495 = getelementptr inbounds ptr, ptr %494, i64 2
  %496 = load ptr, ptr %495, align 8
  invoke void %496(ptr noundef nonnull align 8 dereferenceable(24) %486)
          to label %497 unwind label %539

497:                                              ; preds = %493
  %498 = getelementptr inbounds %"class.boost::detail::sp_counted_base", ptr %486, i64 0, i32 2
  %499 = load i64, ptr %498, align 8, !tbaa !105
  %500 = add nsw i64 %499, -1
  store i64 %500, ptr %498, align 8, !tbaa !105
  %501 = icmp eq i64 %500, 0
  br i1 %501, label %502, label %506

502:                                              ; preds = %497
  %503 = load ptr, ptr %486, align 8, !tbaa !103
  %504 = getelementptr inbounds ptr, ptr %503, i64 3
  %505 = load ptr, ptr %504, align 8
  invoke void %505(ptr noundef nonnull align 8 dereferenceable(24) %486)
          to label %506 unwind label %539

506:                                              ; preds = %502, %497, %488, %483
  %507 = getelementptr inbounds %"class.boost::shared_ptr.136", ptr %484, i64 1
  %508 = icmp eq ptr %507, %480
  br i1 %508, label %509, label %483

509:                                              ; preds = %506
  store ptr %481, ptr %479, align 8, !tbaa !108
  br label %510

510:                                              ; preds = %477, %509
  %511 = add i32 %211, -1
  %512 = icmp eq i32 %511, 0
  br i1 %512, label %518, label %513

513:                                              ; preds = %510
  %514 = getelementptr inbounds %"class.boost::shared_ptr.136", ptr %15, i64 0, i32 1
  %515 = getelementptr inbounds %"class.dealii::MGTransferComponentBase", ptr %0, i64 0, i32 7, i32 0, i32 0, i32 0, i32 2
  %516 = getelementptr inbounds %"class.boost::shared_ptr", ptr %16, i64 0, i32 1
  %517 = getelementptr inbounds %"class.dealii::MGTransferComponentBase", ptr %0, i64 0, i32 8, i32 0, i32 0, i32 0, i32 2
  br label %541

518:                                              ; preds = %642, %510
  call void @llvm.lifetime.start.p0(i64 24, ptr nonnull %17) #15
  %519 = zext i32 %208 to i64
  %520 = icmp eq i32 %208, 0
  br i1 %520, label %521, label %522

521:                                              ; preds = %518
  call void @llvm.memset.p0.i64(ptr noundef nonnull align 8 dereferenceable(24) %17, i8 0, i64 24, i1 false)
  call void @llvm.lifetime.start.p0(i64 24, ptr nonnull %18) #15
  call void @llvm.memset.p0.i64(ptr noundef nonnull align 8 dereferenceable(24) %18, i8 0, i64 24, i1 false)
  br label %660

522:                                              ; preds = %518
  %523 = shl nuw nsw i64 %519, 2
  %524 = invoke noalias noundef nonnull ptr @_Znwm(i64 noundef %523) #16
          to label %525 unwind label %683

525:                                              ; preds = %522
  store ptr %524, ptr %17, align 8, !tbaa !58
  %526 = getelementptr inbounds i32, ptr %524, i64 %519
  %527 = getelementptr inbounds %"struct.std::_Vector_base<unsigned int, std::allocator<unsigned int> >::_Vector_impl_data", ptr %17, i64 0, i32 2
  store ptr %526, ptr %527, align 8, !tbaa !61
  call void @llvm.memset.p0.i64(ptr nonnull align 4 %524, i8 0, i64 %523, i1 false), !tbaa !59
  %528 = getelementptr inbounds %"struct.std::_Vector_base<unsigned int, std::allocator<unsigned int> >::_Vector_impl_data", ptr %17, i64 0, i32 1
  store ptr %526, ptr %528, align 8, !tbaa !57
  call void @llvm.lifetime.start.p0(i64 24, ptr nonnull %18) #15
  %529 = invoke noalias noundef nonnull ptr @_Znwm(i64 noundef %523) #16
          to label %657 unwind label %685

530:                                              ; preds = %420
  %531 = landingpad { ptr, i32 }
          cleanup
  br label %534

532:                                              ; preds = %413
  %533 = landingpad { ptr, i32 }
          cleanup
  br label %534

534:                                              ; preds = %532, %530
  %535 = phi { ptr, i32 } [ %531, %530 ], [ %533, %532 ]
  %536 = load ptr, ptr %401, align 8, !tbaa !95
  invoke void @_ZNSt8_Rb_treeIjSt4pairIKjjESt10_Select1stIS2_ESt4lessIjESaIS2_EE8_M_eraseEPSt13_Rb_tree_nodeIS2_E(ptr noundef nonnull align 8 dereferenceable(48) %12, ptr noundef %536)
          to label %556 unwind label %1290

537:                                              ; preds = %469, %460
  %538 = landingpad { ptr, i32 }
          cleanup
  invoke void @_ZN5boost10shared_ptrIN6dealii17BlockSparseMatrixIdEEED2Ev(ptr noundef nonnull align 8 dereferenceable(16) %13)
          to label %556 unwind label %1290

539:                                              ; preds = %502, %493
  %540 = landingpad { ptr, i32 }
          cleanup
  invoke void @_ZN5boost10shared_ptrIN6dealii20BlockSparsityPatternEED2Ev(ptr noundef nonnull align 8 dereferenceable(16) %14)
          to label %556 unwind label %1290

541:                                              ; preds = %513, %642
  %542 = phi i32 [ 0, %513 ], [ %643, %642 ]
  call void @llvm.lifetime.start.p0(i64 16, ptr nonnull %15) #15
  %543 = call noalias noundef nonnull dereferenceable(288) ptr @_Znwm(i64 noundef 288) #16
  invoke void @_ZN6dealii20BlockSparsityPatternC1Ev(ptr noundef nonnull align 8 dereferenceable(288) %543)
          to label %544 unwind label %645

544:                                              ; preds = %541
  store ptr %543, ptr %15, align 8, !tbaa !109
  store ptr null, ptr %514, align 8, !tbaa !99
  %545 = invoke noalias noundef nonnull dereferenceable(32) ptr @_Znwm(i64 noundef 32) #16
          to label %562 unwind label %546

546:                                              ; preds = %544
  %547 = landingpad { ptr, i32 }
          catch ptr null
  %548 = extractvalue { ptr, i32 } %547, 0
  %549 = call ptr @__cxa_begin_catch(ptr %548) #15
  %550 = load ptr, ptr %543, align 8, !tbaa !103
  %551 = getelementptr inbounds ptr, ptr %550, i64 1
  %552 = load ptr, ptr %551, align 8
  invoke void %552(ptr noundef nonnull align 8 dereferenceable(288) %543)
          to label %553 unwind label %554

553:                                              ; preds = %546
  invoke void @__cxa_rethrow() #19
          to label %561 unwind label %554

554:                                              ; preds = %553, %546
  %555 = landingpad { ptr, i32 }
          cleanup
  invoke void @__cxa_end_catch()
          to label %556 unwind label %558

556:                                              ; preds = %649, %655, %539, %537, %1288, %362, %366, %367, %371, %428, %432, %534, %605, %554
  %557 = phi { ptr, i32 } [ %555, %554 ], [ %606, %605 ], [ %1289, %1288 ], [ %540, %539 ], [ %538, %537 ], [ %656, %655 ], [ %650, %649 ], [ %363, %362 ], [ %363, %366 ], [ %368, %367 ], [ %368, %371 ], [ %429, %428 ], [ %429, %432 ], [ %535, %534 ]
  resume { ptr, i32 } %557

558:                                              ; preds = %554
  %559 = landingpad { ptr, i32 }
          catch ptr null
  %560 = extractvalue { ptr, i32 } %559, 0
  call void @__clang_call_terminate(ptr %560) #20
  unreachable

561:                                              ; preds = %553
  unreachable

562:                                              ; preds = %544
  %563 = getelementptr inbounds %"class.boost::detail::sp_counted_base", ptr %545, i64 0, i32 1
  store i64 1, ptr %563, align 8, !tbaa !101
  %564 = getelementptr inbounds %"class.boost::detail::sp_counted_base", ptr %545, i64 0, i32 2
  store i64 1, ptr %564, align 8, !tbaa !105
  store ptr getelementptr inbounds ({ [7 x ptr] }, ptr @_ZTVN5boost6detail17sp_counted_impl_pIN6dealii20BlockSparsityPatternEEE, i64 0, inrange i32 0, i64 2), ptr %545, align 8, !tbaa !103
  %565 = getelementptr inbounds %"class.boost::detail::sp_counted_impl_p", ptr %545, i64 0, i32 1
  store ptr %543, ptr %565, align 8, !tbaa !111
  store ptr %545, ptr %514, align 8, !tbaa !99
  %566 = load ptr, ptr %479, align 8, !tbaa !69
  %567 = load ptr, ptr %515, align 8, !tbaa !113
  %568 = icmp eq ptr %566, %567
  br i1 %568, label %572, label %569

569:                                              ; preds = %562
  store ptr %543, ptr %566, align 8, !tbaa !109
  %570 = getelementptr inbounds %"class.boost::shared_ptr.136", ptr %566, i64 0, i32 1
  store ptr %545, ptr %570, align 8, !tbaa !99
  store i64 2, ptr %563, align 8, !tbaa !101
  %571 = getelementptr inbounds %"class.boost::shared_ptr.136", ptr %566, i64 1
  store ptr %571, ptr %479, align 8, !tbaa !108
  br label %573

572:                                              ; preds = %562
  invoke void @_ZNSt6vectorIN5boost10shared_ptrIN6dealii20BlockSparsityPatternEEESaIS4_EE17_M_realloc_insertEN9__gnu_cxx17__normal_iteratorIPS4_S6_EERKS4_(ptr noundef nonnull align 8 dereferenceable(24) %478, ptr %566, ptr noundef nonnull align 8 dereferenceable(16) %15)
          to label %573 unwind label %647

573:                                              ; preds = %569, %572
  %574 = load ptr, ptr %514, align 8, !tbaa !99
  %575 = icmp eq ptr %574, null
  br i1 %575, label %593, label %576

576:                                              ; preds = %573
  %577 = getelementptr inbounds %"class.boost::detail::sp_counted_base", ptr %574, i64 0, i32 1
  %578 = load i64, ptr %577, align 8, !tbaa !101
  %579 = add nsw i64 %578, -1
  store i64 %579, ptr %577, align 8, !tbaa !101
  %580 = icmp eq i64 %579, 0
  br i1 %580, label %581, label %593

581:                                              ; preds = %576
  %582 = load ptr, ptr %574, align 8, !tbaa !103
  %583 = getelementptr inbounds ptr, ptr %582, i64 2
  %584 = load ptr, ptr %583, align 8
  call void %584(ptr noundef nonnull align 8 dereferenceable(24) %574)
  %585 = getelementptr inbounds %"class.boost::detail::sp_counted_base", ptr %574, i64 0, i32 2
  %586 = load i64, ptr %585, align 8, !tbaa !105
  %587 = add nsw i64 %586, -1
  store i64 %587, ptr %585, align 8, !tbaa !105
  %588 = icmp eq i64 %587, 0
  br i1 %588, label %589, label %593

589:                                              ; preds = %581
  %590 = load ptr, ptr %574, align 8, !tbaa !103
  %591 = getelementptr inbounds ptr, ptr %590, i64 3
  %592 = load ptr, ptr %591, align 8
  call void %592(ptr noundef nonnull align 8 dereferenceable(24) %574)
  br label %593

593:                                              ; preds = %573, %576, %581, %589
  call void @llvm.lifetime.end.p0(i64 16, ptr nonnull %15) #15
  call void @llvm.lifetime.start.p0(i64 16, ptr nonnull %16) #15
  %594 = call noalias noundef nonnull dereferenceable(320) ptr @_Znwm(i64 noundef 320) #16
  invoke void @_ZN6dealii17BlockSparseMatrixIdEC1Ev(ptr noundef nonnull align 8 dereferenceable(320) %594)
          to label %595 unwind label %651

595:                                              ; preds = %593
  store ptr %594, ptr %16, align 8, !tbaa !114
  store ptr null, ptr %516, align 8, !tbaa !99
  %596 = invoke noalias noundef nonnull dereferenceable(32) ptr @_Znwm(i64 noundef 32) #16
          to label %611 unwind label %597

597:                                              ; preds = %595
  %598 = landingpad { ptr, i32 }
          catch ptr null
  %599 = extractvalue { ptr, i32 } %598, 0
  %600 = call ptr @__cxa_begin_catch(ptr %599) #15
  %601 = load ptr, ptr %594, align 8, !tbaa !103
  %602 = getelementptr inbounds ptr, ptr %601, i64 1
  %603 = load ptr, ptr %602, align 8
  invoke void %603(ptr noundef nonnull align 8 dereferenceable(320) %594)
          to label %604 unwind label %605

604:                                              ; preds = %597
  invoke void @__cxa_rethrow() #19
          to label %610 unwind label %605

605:                                              ; preds = %604, %597
  %606 = landingpad { ptr, i32 }
          cleanup
  invoke void @__cxa_end_catch()
          to label %556 unwind label %607

607:                                              ; preds = %605
  %608 = landingpad { ptr, i32 }
          catch ptr null
  %609 = extractvalue { ptr, i32 } %608, 0
  call void @__clang_call_terminate(ptr %609) #20
  unreachable

610:                                              ; preds = %604
  unreachable

611:                                              ; preds = %595
  %612 = getelementptr inbounds %"class.boost::detail::sp_counted_base", ptr %596, i64 0, i32 1
  store i64 1, ptr %612, align 8, !tbaa !101
  %613 = getelementptr inbounds %"class.boost::detail::sp_counted_base", ptr %596, i64 0, i32 2
  store i64 1, ptr %613, align 8, !tbaa !105
  store ptr getelementptr inbounds ({ [7 x ptr] }, ptr @_ZTVN5boost6detail17sp_counted_impl_pIN6dealii17BlockSparseMatrixIdEEEE, i64 0, inrange i32 0, i64 2), ptr %596, align 8, !tbaa !103
  %614 = getelementptr inbounds %"class.boost::detail::sp_counted_impl_p.159", ptr %596, i64 0, i32 1
  store ptr %594, ptr %614, align 8, !tbaa !116
  store ptr %596, ptr %516, align 8, !tbaa !99
  %615 = load ptr, ptr %446, align 8, !tbaa !69
  %616 = load ptr, ptr %517, align 8, !tbaa !118
  %617 = icmp eq ptr %615, %616
  br i1 %617, label %621, label %618

618:                                              ; preds = %611
  store ptr %594, ptr %615, align 8, !tbaa !114
  %619 = getelementptr inbounds %"class.boost::shared_ptr", ptr %615, i64 0, i32 1
  store ptr %596, ptr %619, align 8, !tbaa !99
  store i64 2, ptr %612, align 8, !tbaa !101
  %620 = getelementptr inbounds %"class.boost::shared_ptr", ptr %615, i64 1
  store ptr %620, ptr %446, align 8, !tbaa !106
  br label %622

621:                                              ; preds = %611
  invoke void @_ZNSt6vectorIN5boost10shared_ptrIN6dealii17BlockSparseMatrixIdEEEESaIS5_EE17_M_realloc_insertEN9__gnu_cxx17__normal_iteratorIPS5_S7_EERKS5_(ptr noundef nonnull align 8 dereferenceable(24) %445, ptr %615, ptr noundef nonnull align 8 dereferenceable(16) %16)
          to label %622 unwind label %653

622:                                              ; preds = %618, %621
  %623 = load ptr, ptr %516, align 8, !tbaa !99
  %624 = icmp eq ptr %623, null
  br i1 %624, label %642, label %625

625:                                              ; preds = %622
  %626 = getelementptr inbounds %"class.boost::detail::sp_counted_base", ptr %623, i64 0, i32 1
  %627 = load i64, ptr %626, align 8, !tbaa !101
  %628 = add nsw i64 %627, -1
  store i64 %628, ptr %626, align 8, !tbaa !101
  %629 = icmp eq i64 %628, 0
  br i1 %629, label %630, label %642

630:                                              ; preds = %625
  %631 = load ptr, ptr %623, align 8, !tbaa !103
  %632 = getelementptr inbounds ptr, ptr %631, i64 2
  %633 = load ptr, ptr %632, align 8
  call void %633(ptr noundef nonnull align 8 dereferenceable(24) %623)
  %634 = getelementptr inbounds %"class.boost::detail::sp_counted_base", ptr %623, i64 0, i32 2
  %635 = load i64, ptr %634, align 8, !tbaa !105
  %636 = add nsw i64 %635, -1
  store i64 %636, ptr %634, align 8, !tbaa !105
  %637 = icmp eq i64 %636, 0
  br i1 %637, label %638, label %642

638:                                              ; preds = %630
  %639 = load ptr, ptr %623, align 8, !tbaa !103
  %640 = getelementptr inbounds ptr, ptr %639, i64 3
  %641 = load ptr, ptr %640, align 8
  call void %641(ptr noundef nonnull align 8 dereferenceable(24) %623)
  br label %642

642:                                              ; preds = %622, %625, %630, %638
  call void @llvm.lifetime.end.p0(i64 16, ptr nonnull %16) #15
  %643 = add nuw i32 %542, 1
  %644 = icmp eq i32 %643, %511
  br i1 %644, label %518, label %541

645:                                              ; preds = %541
  %646 = landingpad { ptr, i32 }
          cleanup
  call void @_ZdlPv(ptr noundef nonnull %543) #17
  br label %649

647:                                              ; preds = %572
  %648 = landingpad { ptr, i32 }
          cleanup
  invoke void @_ZN5boost10shared_ptrIN6dealii20BlockSparsityPatternEED2Ev(ptr noundef nonnull align 8 dereferenceable(16) %15)
          to label %649 unwind label %1290

649:                                              ; preds = %647, %645
  %650 = phi { ptr, i32 } [ %648, %647 ], [ %646, %645 ]
  call void @llvm.lifetime.end.p0(i64 16, ptr nonnull %15) #15
  br label %556

651:                                              ; preds = %593
  %652 = landingpad { ptr, i32 }
          cleanup
  call void @_ZdlPv(ptr noundef nonnull %594) #17
  br label %655

653:                                              ; preds = %621
  %654 = landingpad { ptr, i32 }
          cleanup
  invoke void @_ZN5boost10shared_ptrIN6dealii17BlockSparseMatrixIdEEED2Ev(ptr noundef nonnull align 8 dereferenceable(16) %16)
          to label %655 unwind label %1290

655:                                              ; preds = %653, %651
  %656 = phi { ptr, i32 } [ %654, %653 ], [ %652, %651 ]
  call void @llvm.lifetime.end.p0(i64 16, ptr nonnull %16) #15
  br label %556

657:                                              ; preds = %525
  store ptr %529, ptr %18, align 8, !tbaa !58
  %658 = getelementptr inbounds i32, ptr %529, i64 %519
  %659 = getelementptr inbounds %"struct.std::_Vector_base<unsigned int, std::allocator<unsigned int> >::_Vector_impl_data", ptr %18, i64 0, i32 2
  store ptr %658, ptr %659, align 8, !tbaa !61
  call void @llvm.memset.p0.i64(ptr nonnull align 4 %529, i8 0, i64 %523, i1 false), !tbaa !59
  br label %660

660:                                              ; preds = %657, %521
  %661 = phi ptr [ null, %521 ], [ %529, %657 ]
  %662 = phi ptr [ null, %521 ], [ %658, %657 ]
  %663 = getelementptr inbounds %"struct.std::_Vector_base<unsigned int, std::allocator<unsigned int> >::_Vector_impl_data", ptr %18, i64 0, i32 1
  store ptr %662, ptr %663, align 8, !tbaa !57
  br i1 %512, label %679, label %664

664:                                              ; preds = %660
  %665 = icmp eq i32 %206, 0
  %666 = add i32 %208, 1
  %667 = getelementptr inbounds %"class.dealii::TriaAccessorBase", ptr %19, i64 0, i32 1
  %668 = getelementptr inbounds %"class.dealii::TriaAccessorBase", ptr %20, i64 0, i32 1
  %669 = getelementptr inbounds %"class.dealii::TriaAccessorBase", ptr %19, i64 0, i32 2
  %670 = getelementptr inbounds %"class.dealii::FiniteElement", ptr %202, i64 0, i32 12
  %671 = getelementptr inbounds %"class.dealii::MGTransferComponentBase", ptr %0, i64 0, i32 1
  %672 = getelementptr inbounds %"class.dealii::TriaAccessorBase", ptr %23, i64 0, i32 1
  %673 = getelementptr inbounds %"class.dealii::TriaAccessorBase", ptr %24, i64 0, i32 1
  %674 = getelementptr inbounds %"class.dealii::TriaAccessorBase", ptr %23, i64 0, i32 2
  %675 = zext i32 %511 to i64
  %676 = zext i32 %206 to i64
  br label %687

677:                                              ; preds = %1016
  %678 = load ptr, ptr %18, align 8, !tbaa !58
  br label %679

679:                                              ; preds = %677, %660
  %680 = phi ptr [ %678, %677 ], [ %661, %660 ]
  %681 = icmp eq ptr %680, null
  br i1 %681, label %1278, label %682

682:                                              ; preds = %679
  call void @_ZdlPv(ptr noundef nonnull %680) #17
  br label %1278

683:                                              ; preds = %522
  %684 = landingpad { ptr, i32 }
          cleanup
  br label %1288

685:                                              ; preds = %525
  %686 = landingpad { ptr, i32 }
          cleanup
  br label %1283

687:                                              ; preds = %664, %1016
  %688 = phi i64 [ 0, %664 ], [ %1017, %1016 ]
  %689 = load ptr, ptr %478, align 8, !tbaa !107
  %690 = getelementptr inbounds %"class.boost::shared_ptr.136", ptr %689, i64 %688
  %691 = load ptr, ptr %690, align 8, !tbaa !109
  invoke void @_ZN6dealii24BlockSparsityPatternBaseINS_15SparsityPatternEE6reinitEjj(ptr noundef nonnull align 8 dereferenceable(288) %691, i32 noundef %206, i32 noundef %206)
          to label %692 unwind label %702

692:                                              ; preds = %687
  br i1 %665, label %698, label %693

693:                                              ; preds = %692
  %694 = add nuw nsw i64 %688, 1
  br label %695

695:                                              ; preds = %693, %704
  %696 = phi i64 [ 0, %693 ], [ %705, %704 ]
  %697 = trunc i64 %696 to i32
  br label %707

698:                                              ; preds = %704, %692
  %699 = load ptr, ptr %478, align 8, !tbaa !107
  %700 = getelementptr inbounds %"class.boost::shared_ptr.136", ptr %699, i64 %688
  %701 = load ptr, ptr %700, align 8, !tbaa !109
  invoke void @_ZN6dealii24BlockSparsityPatternBaseINS_15SparsityPatternEE13collect_sizesEv(ptr noundef nonnull align 8 dereferenceable(288) %701)
          to label %737 unwind label %702

702:                                              ; preds = %687, %996, %748, %698
  %703 = landingpad { ptr, i32 }
          cleanup
  br label %1273

704:                                              ; preds = %734
  %705 = add nuw nsw i64 %696, 1
  %706 = icmp eq i64 %705, %676
  br i1 %706, label %698, label %695

707:                                              ; preds = %695, %734
  %708 = phi i64 [ 0, %695 ], [ %735, %734 ]
  %709 = icmp eq i64 %696, %708
  %710 = load ptr, ptr %478, align 8, !tbaa !107
  %711 = getelementptr inbounds %"class.boost::shared_ptr.136", ptr %710, i64 %688
  %712 = load ptr, ptr %711, align 8, !tbaa !109
  %713 = getelementptr inbounds %"class.dealii::BlockSparsityPatternBase", ptr %712, i64 0, i32 3, i32 0, i32 1
  %714 = load ptr, ptr %713, align 8, !tbaa !119, !noalias !123
  %715 = getelementptr inbounds %"class.dealii::BlockSparsityPatternBase", ptr %712, i64 0, i32 3, i32 0, i32 3, i32 0, i32 0, i64 1
  %716 = load i32, ptr %715, align 8, !tbaa !59, !noalias !123
  %717 = load ptr, ptr %212, align 8, !tbaa !81
  %718 = getelementptr inbounds %"class.std::vector.20", ptr %717, i64 %694
  %719 = load ptr, ptr %718, align 8, !tbaa !58
  %720 = getelementptr inbounds i32, ptr %719, i64 %696
  %721 = load i32, ptr %720, align 4, !tbaa !59
  %722 = getelementptr inbounds %"class.std::vector.20", ptr %717, i64 %688
  %723 = load ptr, ptr %722, align 8, !tbaa !58
  %724 = select i1 %709, i32 %666, i32 0
  %725 = mul i32 %716, %697
  %726 = zext i32 %725 to i64
  %727 = getelementptr inbounds %"class.dealii::SmartPointer.160", ptr %714, i64 %726
  %728 = getelementptr inbounds %"class.dealii::SmartPointer.160", ptr %727, i64 %708
  %729 = load ptr, ptr %728, align 8, !tbaa !124
  %730 = getelementptr inbounds i32, ptr %723, i64 %708
  %731 = load i32, ptr %730, align 4, !tbaa !59
  invoke void @_ZN6dealii15SparsityPattern6reinitEjjjb(ptr noundef nonnull align 8 dereferenceable(122) %729, i32 noundef %721, i32 noundef %731, i32 noundef %724, i1 noundef zeroext false)
          to label %734 unwind label %732

732:                                              ; preds = %707
  %733 = landingpad { ptr, i32 }
          cleanup
  br label %1273

734:                                              ; preds = %707
  %735 = add nuw nsw i64 %708, 1
  %736 = icmp eq i64 %735, %676
  br i1 %736, label %704, label %707

737:                                              ; preds = %698
  call void @llvm.lifetime.start.p0(i64 32, ptr nonnull %19) #15
  %738 = trunc i64 %688 to i32
  invoke void @_ZNK6dealii12MGDoFHandlerILi3ELi3EE5beginEj(ptr nonnull sret(%"class.dealii::TriaIterator") align 8 %19, ptr noundef nonnull align 8 dereferenceable(248) %2, i32 noundef %738)
          to label %739 unwind label %754

739:                                              ; preds = %737, %993
  call void @llvm.lifetime.start.p0(i64 32, ptr nonnull %20) #15
  invoke void @_ZNK6dealii12MGDoFHandlerILi3ELi3EE3endEj(ptr nonnull sret(%"class.dealii::TriaIterator") align 8 %20, ptr noundef nonnull align 8 dereferenceable(248) %2, i32 noundef %738)
          to label %740 unwind label %756

740:                                              ; preds = %739
  %741 = load i32, ptr %667, align 4
  %742 = load i32, ptr %668, align 4, !tbaa !64
  %743 = icmp ne i32 %741, %742
  %744 = load i32, ptr %19, align 8
  %745 = load i32, ptr %20, align 8
  %746 = icmp ne i32 %744, %745
  %747 = select i1 %743, i1 true, i1 %746
  call void @llvm.lifetime.end.p0(i64 32, ptr nonnull %20) #15
  br i1 %747, label %758, label %748

748:                                              ; preds = %740
  call void @llvm.lifetime.end.p0(i64 32, ptr nonnull %19) #15
  %749 = load ptr, ptr %478, align 8, !tbaa !107
  %750 = getelementptr inbounds %"class.boost::shared_ptr.136", ptr %749, i64 %688
  %751 = load ptr, ptr %750, align 8, !tbaa !109
  invoke void @_ZN6dealii24BlockSparsityPatternBaseINS_15SparsityPatternEE8compressEv(ptr noundef nonnull align 8 dereferenceable(288) %751)
          to label %996 unwind label %702

752:                                              ; preds = %772
  %753 = landingpad { ptr, i32 }
          cleanup
  br label %994

754:                                              ; preds = %737
  %755 = landingpad { ptr, i32 }
          cleanup
  br label %994

756:                                              ; preds = %739
  %757 = landingpad { ptr, i32 }
          cleanup
  call void @llvm.lifetime.end.p0(i64 32, ptr nonnull %20) #15
  br label %994

758:                                              ; preds = %740
  %759 = load ptr, ptr %669, align 8, !tbaa !66
  %760 = getelementptr inbounds %"class.dealii::Triangulation", ptr %759, i64 0, i32 1
  %761 = sext i32 %744 to i64
  %762 = load ptr, ptr %760, align 8, !tbaa !67
  %763 = getelementptr inbounds ptr, ptr %762, i64 %761
  %764 = load ptr, ptr %763, align 8, !tbaa !69
  %765 = getelementptr inbounds %"class.dealii::internal::Triangulation::TriaLevel", ptr %764, i64 0, i32 4, i32 0, i32 1
  %766 = shl i32 %741, 2
  %767 = zext i32 %766 to i64
  %768 = load ptr, ptr %765, align 8, !tbaa !77
  %769 = getelementptr inbounds i32, ptr %768, i64 %767
  %770 = load i32, ptr %769, align 4, !tbaa !59
  %771 = icmp eq i32 %770, -1
  br i1 %771, label %919, label %772

772:                                              ; preds = %758
  invoke void @_ZNK6dealii17MGDoFCellAccessorILi3ELi3EE18get_mg_dof_indicesERSt6vectorIjSaIjEE(ptr noundef nonnull align 8 dereferenceable(32) %19, ptr noundef nonnull align 8 dereferenceable(24) %17)
          to label %773 unwind label %752

773:                                              ; preds = %772, %818
  %774 = phi i32 [ %819, %818 ], [ 0, %772 ]
  call void @llvm.lifetime.start.p0(i64 1, ptr nonnull %5) #15
  %775 = load ptr, ptr %669, align 8, !tbaa !66
  %776 = getelementptr inbounds %"class.dealii::Triangulation", ptr %775, i64 0, i32 1
  %777 = load i32, ptr %19, align 8, !tbaa !73
  %778 = sext i32 %777 to i64
  %779 = load ptr, ptr %776, align 8, !tbaa !67
  %780 = getelementptr inbounds ptr, ptr %779, i64 %778
  %781 = load ptr, ptr %780, align 8, !tbaa !69
  %782 = getelementptr inbounds %"class.dealii::internal::Triangulation::TriaLevel", ptr %781, i64 0, i32 4, i32 0, i32 2
  %783 = load i32, ptr %667, align 4, !tbaa !64
  %784 = sext i32 %783 to i64
  %785 = load ptr, ptr %782, align 8, !tbaa !126
  %786 = getelementptr inbounds %"class.dealii::RefinementCase", ptr %785, i64 %784
  %787 = load i8, ptr %786, align 1
  store i8 %787, ptr %5, align 1
  %788 = invoke noundef i32 @_ZN6dealii12GeometryInfoILi3EE10n_childrenERKNS_14RefinementCaseILi3EEE(ptr noundef nonnull align 1 dereferenceable(1) %5)
          to label %789 unwind label %791

789:                                              ; preds = %773
  call void @llvm.lifetime.end.p0(i64 1, ptr nonnull %5) #15
  %790 = icmp ult i32 %774, %788
  br i1 %790, label %793, label %913

791:                                              ; preds = %773
  %792 = landingpad { ptr, i32 }
          cleanup
  br label %994

793:                                              ; preds = %789
  %794 = load ptr, ptr %203, align 8, !tbaa !5
  call void @llvm.lifetime.start.p0(i64 1, ptr nonnull %21) #15
  %795 = load ptr, ptr %669, align 8, !tbaa !66
  %796 = getelementptr inbounds %"class.dealii::Triangulation", ptr %795, i64 0, i32 1
  %797 = load i32, ptr %19, align 8, !tbaa !73
  %798 = sext i32 %797 to i64
  %799 = load ptr, ptr %796, align 8, !tbaa !67
  %800 = getelementptr inbounds ptr, ptr %799, i64 %798
  %801 = load ptr, ptr %800, align 8, !tbaa !69
  %802 = getelementptr inbounds %"class.dealii::internal::Triangulation::TriaLevel", ptr %801, i64 0, i32 4, i32 0, i32 2
  %803 = load i32, ptr %667, align 4, !tbaa !64
  %804 = sext i32 %803 to i64
  %805 = load ptr, ptr %802, align 8, !tbaa !126
  %806 = getelementptr inbounds %"class.dealii::RefinementCase", ptr %805, i64 %804
  %807 = load i8, ptr %806, align 1
  store i8 %807, ptr %21, align 1
  %808 = invoke noundef nonnull align 8 dereferenceable(92) ptr @_ZNK6dealii13FiniteElementILi3ELi3EE23get_prolongation_matrixEjRKNS_14RefinementCaseILi3EEE(ptr noundef nonnull align 8 dereferenceable(728) %794, i32 noundef %774, ptr noundef nonnull align 1 dereferenceable(1) %21)
          to label %809 unwind label %820

809:                                              ; preds = %793
  call void @llvm.lifetime.end.p0(i64 1, ptr nonnull %21) #15
  call void @llvm.lifetime.start.p0(i64 32, ptr nonnull %22) #15
  invoke void @_ZNK6dealii17MGDoFCellAccessorILi3ELi3EE5childEj(ptr nonnull sret(%"class.dealii::TriaIterator") align 8 %22, ptr noundef nonnull align 8 dereferenceable(32) %19, i32 noundef %774)
          to label %810 unwind label %822

810:                                              ; preds = %809
  invoke void @_ZNK6dealii17MGDoFCellAccessorILi3ELi3EE18get_mg_dof_indicesERSt6vectorIjSaIjEE(ptr noundef nonnull align 8 dereferenceable(32) %22, ptr noundef nonnull align 8 dereferenceable(24) %18)
          to label %811 unwind label %822

811:                                              ; preds = %810
  call void @llvm.lifetime.end.p0(i64 32, ptr nonnull %22) #15
  br i1 %520, label %818, label %812

812:                                              ; preds = %811
  %813 = getelementptr inbounds %"class.dealii::TableBase", ptr %808, i64 0, i32 1
  %814 = getelementptr inbounds %"class.dealii::TableBase", ptr %808, i64 0, i32 3, i32 0, i32 0, i64 1
  br label %815

815:                                              ; preds = %812, %824
  %816 = phi i64 [ 0, %812 ], [ %825, %824 ]
  %817 = trunc i64 %816 to i32
  br label %827

818:                                              ; preds = %824, %811
  %819 = add i32 %774, 1
  br label %773

820:                                              ; preds = %793
  %821 = landingpad { ptr, i32 }
          cleanup
  call void @llvm.lifetime.end.p0(i64 1, ptr nonnull %21) #15
  br label %994

822:                                              ; preds = %810, %809
  %823 = landingpad { ptr, i32 }
          cleanup
  call void @llvm.lifetime.end.p0(i64 32, ptr nonnull %22) #15
  br label %994

824:                                              ; preds = %910
  %825 = add nuw nsw i64 %816, 1
  %826 = icmp eq i64 %825, %519
  br i1 %826, label %818, label %815

827:                                              ; preds = %815, %910
  %828 = phi i64 [ 0, %815 ], [ %911, %910 ]
  %829 = load ptr, ptr %813, align 8, !tbaa !128
  %830 = load i32, ptr %814, align 8, !tbaa !59
  %831 = mul i32 %830, %817
  %832 = trunc i64 %828 to i32
  %833 = add i32 %831, %832
  %834 = zext i32 %833 to i64
  %835 = getelementptr inbounds double, ptr %829, i64 %834
  %836 = load double, ptr %835, align 8, !tbaa !130
  %837 = fcmp une double %836, 0.000000e+00
  br i1 %837, label %838, label %910

838:                                              ; preds = %827
  %839 = load ptr, ptr %670, align 8, !tbaa !79
  %840 = getelementptr inbounds %"struct.std::pair", ptr %839, i64 %816
  %841 = load i64, ptr %840, align 4
  %842 = getelementptr inbounds %"struct.std::pair", ptr %839, i64 %828
  %843 = load i64, ptr %842, align 4
  %844 = trunc i64 %841 to i32
  %845 = trunc i64 %843 to i32
  %846 = icmp eq i32 %844, %845
  br i1 %846, label %847, label %910

847:                                              ; preds = %838
  %848 = and i64 %841, 4294967295
  %849 = load ptr, ptr %97, align 8, !tbaa !58
  %850 = getelementptr inbounds i32, ptr %849, i64 %848
  %851 = load i32, ptr %850, align 4, !tbaa !59
  %852 = load ptr, ptr %671, align 8, !tbaa !55
  %853 = lshr i32 %851, 6
  %854 = zext i32 %853 to i64
  %855 = getelementptr inbounds i64, ptr %852, i64 %854
  %856 = and i32 %851, 63
  %857 = zext i32 %856 to i64
  %858 = shl nuw i64 1, %857
  %859 = load i64, ptr %855, align 8, !tbaa !56
  %860 = and i64 %858, %859
  %861 = icmp eq i64 %860, 0
  br i1 %861, label %910, label %862

862:                                              ; preds = %847
  %863 = load ptr, ptr %478, align 8, !tbaa !107
  %864 = getelementptr inbounds %"class.boost::shared_ptr.136", ptr %863, i64 %688
  %865 = load ptr, ptr %864, align 8, !tbaa !109
  %866 = load ptr, ptr %18, align 8, !tbaa !58
  %867 = getelementptr inbounds i32, ptr %866, i64 %816
  %868 = load i32, ptr %867, align 4, !tbaa !59
  %869 = load ptr, ptr %17, align 8, !tbaa !58
  %870 = getelementptr inbounds i32, ptr %869, i64 %828
  %871 = load i32, ptr %870, align 4, !tbaa !59
  %872 = getelementptr inbounds %"class.dealii::BlockSparsityPatternBase", ptr %865, i64 0, i32 4
  %873 = load i32, ptr %872, align 8, !tbaa !132
  %874 = getelementptr inbounds %"class.dealii::BlockSparsityPatternBase", ptr %865, i64 0, i32 4, i32 1
  %875 = load ptr, ptr %874, align 8, !tbaa !58
  br label %876

876:                                              ; preds = %876, %862
  %877 = phi i32 [ %873, %862 ], [ %878, %876 ]
  %878 = add i32 %877, -1
  %879 = sext i32 %878 to i64
  %880 = getelementptr inbounds i32, ptr %875, i64 %879
  %881 = load i32, ptr %880, align 4, !tbaa !59
  %882 = icmp ugt i32 %881, %868
  br i1 %882, label %876, label %883

883:                                              ; preds = %876
  %884 = getelementptr inbounds %"class.dealii::BlockSparsityPatternBase", ptr %865, i64 0, i32 5
  %885 = load i32, ptr %884, align 8, !tbaa !132
  %886 = getelementptr inbounds %"class.dealii::BlockSparsityPatternBase", ptr %865, i64 0, i32 5, i32 1
  %887 = load ptr, ptr %886, align 8, !tbaa !58
  br label %888

888:                                              ; preds = %888, %883
  %889 = phi i32 [ %885, %883 ], [ %890, %888 ]
  %890 = add i32 %889, -1
  %891 = sext i32 %890 to i64
  %892 = getelementptr inbounds i32, ptr %887, i64 %891
  %893 = load i32, ptr %892, align 4, !tbaa !59
  %894 = icmp ugt i32 %893, %871
  br i1 %894, label %888, label %895

895:                                              ; preds = %888
  %896 = sub i32 %868, %881
  %897 = sub i32 %871, %893
  %898 = getelementptr inbounds %"class.dealii::BlockSparsityPatternBase", ptr %865, i64 0, i32 3, i32 0, i32 1
  %899 = load ptr, ptr %898, align 8, !tbaa !119, !noalias !134
  %900 = getelementptr inbounds %"class.dealii::BlockSparsityPatternBase", ptr %865, i64 0, i32 3, i32 0, i32 3, i32 0, i32 0, i64 1
  %901 = load i32, ptr %900, align 8, !tbaa !59, !noalias !134
  %902 = mul i32 %901, %878
  %903 = zext i32 %902 to i64
  %904 = getelementptr inbounds %"class.dealii::SmartPointer.160", ptr %899, i64 %903
  %905 = zext i32 %890 to i64
  %906 = getelementptr inbounds %"class.dealii::SmartPointer.160", ptr %904, i64 %905
  %907 = load ptr, ptr %906, align 8, !tbaa !124
  invoke void @_ZN6dealii15SparsityPattern3addEjj(ptr noundef nonnull align 8 dereferenceable(122) %907, i32 noundef %896, i32 noundef %897)
          to label %910 unwind label %908

908:                                              ; preds = %895
  %909 = landingpad { ptr, i32 }
          cleanup
  br label %994

910:                                              ; preds = %838, %895, %847, %827
  %911 = add nuw nsw i64 %828, 1
  %912 = icmp eq i64 %911, %519
  br i1 %912, label %824, label %827

913:                                              ; preds = %789
  %914 = load ptr, ptr %669, align 8, !tbaa !66
  %915 = getelementptr inbounds %"class.dealii::Triangulation", ptr %914, i64 0, i32 1
  %916 = load ptr, ptr %915, align 8, !tbaa !67
  %917 = load i32, ptr %667, align 4
  %918 = load i32, ptr %19, align 8, !tbaa !73
  br label %919

919:                                              ; preds = %913, %758
  %920 = phi i32 [ %918, %913 ], [ %744, %758 ]
  %921 = phi i32 [ %917, %913 ], [ %741, %758 ]
  %922 = phi ptr [ %916, %913 ], [ %762, %758 ]
  %923 = phi ptr [ %914, %913 ], [ %759, %758 ]
  %924 = ptrtoint ptr %922 to i64
  %925 = getelementptr inbounds %"class.dealii::Triangulation", ptr %923, i64 0, i32 1, i32 0, i32 0, i32 0, i32 1
  br label %926

926:                                              ; preds = %978, %919
  %927 = phi i32 [ %975, %978 ], [ %920, %919 ]
  %928 = phi i32 [ %974, %978 ], [ %921, %919 ]
  %929 = add nsw i32 %928, 1
  %930 = sext i32 %927 to i64
  %931 = getelementptr inbounds ptr, ptr %922, i64 %930
  %932 = load ptr, ptr %931, align 8, !tbaa !69
  %933 = getelementptr inbounds %"class.dealii::internal::Triangulation::TriaLevel", ptr %932, i64 0, i32 4
  %934 = getelementptr inbounds %"class.dealii::internal::Triangulation::TriaLevel", ptr %932, i64 0, i32 4, i32 0, i32 0, i32 0, i32 0, i32 0, i32 1
  %935 = load ptr, ptr %934, align 8, !tbaa !70
  %936 = load ptr, ptr %933, align 8, !tbaa !72
  %937 = ptrtoint ptr %935 to i64
  %938 = ptrtoint ptr %936 to i64
  %939 = sub i64 %937, %938
  %940 = sdiv exact i64 %939, 24
  %941 = trunc i64 %940 to i32
  %942 = icmp slt i32 %929, %941
  br i1 %942, label %973, label %943

943:                                              ; preds = %926
  %944 = add nsw i64 %930, 1
  %945 = trunc i64 %944 to i32
  store i32 %945, ptr %19, align 8, !tbaa !73
  %946 = load ptr, ptr %925, align 8, !tbaa !74
  %947 = ptrtoint ptr %946 to i64
  %948 = sub i64 %947, %924
  %949 = shl i64 %948, 29
  %950 = ashr i64 %949, 32
  %951 = icmp slt i64 %944, %950
  br i1 %951, label %952, label %970

952:                                              ; preds = %943, %966
  %953 = phi i64 [ %967, %966 ], [ %944, %943 ]
  %954 = getelementptr inbounds ptr, ptr %922, i64 %953
  %955 = load ptr, ptr %954, align 8, !tbaa !69
  %956 = getelementptr inbounds %"class.dealii::internal::Triangulation::TriaLevel", ptr %955, i64 0, i32 4
  %957 = getelementptr inbounds %"class.dealii::internal::Triangulation::TriaLevel", ptr %955, i64 0, i32 4, i32 0, i32 0, i32 0, i32 0, i32 0, i32 1
  %958 = load ptr, ptr %957, align 8, !tbaa !70
  %959 = load ptr, ptr %956, align 8, !tbaa !72
  %960 = ptrtoint ptr %958 to i64
  %961 = ptrtoint ptr %959 to i64
  %962 = sub i64 %960, %961
  %963 = sdiv exact i64 %962, 24
  %964 = trunc i64 %963 to i32
  %965 = icmp sgt i32 %964, 0
  br i1 %965, label %971, label %966

966:                                              ; preds = %952
  %967 = add i64 %953, 1
  %968 = trunc i64 %967 to i32
  store i32 %968, ptr %19, align 8, !tbaa !73
  %969 = icmp eq i64 %967, %950
  br i1 %969, label %970, label %952, !llvm.loop !75

970:                                              ; preds = %966, %943
  store i32 -1, ptr %19, align 8, !tbaa !73
  br label %973

971:                                              ; preds = %952
  %972 = trunc i64 %953 to i32
  br label %973

973:                                              ; preds = %971, %970, %926
  %974 = phi i32 [ %929, %926 ], [ -1, %970 ], [ 0, %971 ]
  %975 = phi i32 [ %927, %926 ], [ -1, %970 ], [ %972, %971 ]
  %976 = or i32 %975, %974
  %977 = icmp sgt i32 %976, -1
  br i1 %977, label %978, label %993

978:                                              ; preds = %973
  %979 = zext i32 %975 to i64
  %980 = getelementptr inbounds ptr, ptr %922, i64 %979
  %981 = load ptr, ptr %980, align 8, !tbaa !69
  %982 = getelementptr inbounds %"class.dealii::internal::Triangulation::TriaLevel", ptr %981, i64 0, i32 4, i32 0, i32 3
  %983 = load ptr, ptr %982, align 8, !tbaa !55
  %984 = lshr i32 %974, 6
  %985 = zext i32 %984 to i64
  %986 = getelementptr inbounds i64, ptr %983, i64 %985
  %987 = and i32 %974, 63
  %988 = zext i32 %987 to i64
  %989 = shl nuw i64 1, %988
  %990 = load i64, ptr %986, align 8, !tbaa !56
  %991 = and i64 %990, %989
  %992 = icmp eq i64 %991, 0
  br i1 %992, label %926, label %993

993:                                              ; preds = %973, %978
  store i32 %974, ptr %667, align 4, !tbaa !64
  br label %739

994:                                              ; preds = %752, %754, %791, %908, %822, %820, %756
  %995 = phi { ptr, i32 } [ %757, %756 ], [ %792, %791 ], [ %823, %822 ], [ %821, %820 ], [ %909, %908 ], [ %753, %752 ], [ %755, %754 ]
  call void @llvm.lifetime.end.p0(i64 32, ptr nonnull %19) #15
  br label %1273

996:                                              ; preds = %748
  %997 = load ptr, ptr %445, align 8, !tbaa !98
  %998 = getelementptr inbounds %"class.boost::shared_ptr", ptr %997, i64 %688
  %999 = load ptr, ptr %998, align 8, !tbaa !114
  %1000 = load ptr, ptr %478, align 8, !tbaa !107
  %1001 = getelementptr inbounds %"class.boost::shared_ptr.136", ptr %1000, i64 %688
  %1002 = load ptr, ptr %1001, align 8, !tbaa !109
  %1003 = load ptr, ptr %999, align 8, !tbaa !103
  %1004 = getelementptr inbounds ptr, ptr %1003, i64 2
  %1005 = load ptr, ptr %1004, align 8
  invoke void %1005(ptr noundef nonnull align 8 dereferenceable(320) %999, ptr noundef nonnull align 8 dereferenceable(288) %1002)
          to label %1006 unwind label %702

1006:                                             ; preds = %996
  call void @llvm.lifetime.start.p0(i64 32, ptr nonnull %23) #15
  invoke void @_ZNK6dealii12MGDoFHandlerILi3ELi3EE5beginEj(ptr nonnull sret(%"class.dealii::TriaIterator") align 8 %23, ptr noundef nonnull align 8 dereferenceable(248) %2, i32 noundef %738)
          to label %1007 unwind label %1021

1007:                                             ; preds = %1006, %1270
  call void @llvm.lifetime.start.p0(i64 32, ptr nonnull %24) #15
  invoke void @_ZNK6dealii12MGDoFHandlerILi3ELi3EE3endEj(ptr nonnull sret(%"class.dealii::TriaIterator") align 8 %24, ptr noundef nonnull align 8 dereferenceable(248) %2, i32 noundef %738)
          to label %1008 unwind label %1023

1008:                                             ; preds = %1007
  %1009 = load i32, ptr %672, align 4
  %1010 = load i32, ptr %673, align 4, !tbaa !64
  %1011 = icmp ne i32 %1009, %1010
  %1012 = load i32, ptr %23, align 8
  %1013 = load i32, ptr %24, align 8
  %1014 = icmp ne i32 %1012, %1013
  %1015 = select i1 %1011, i1 true, i1 %1014
  call void @llvm.lifetime.end.p0(i64 32, ptr nonnull %24) #15
  br i1 %1015, label %1025, label %1016

1016:                                             ; preds = %1008
  call void @llvm.lifetime.end.p0(i64 32, ptr nonnull %23) #15
  %1017 = add nuw nsw i64 %688, 1
  %1018 = icmp eq i64 %1017, %675
  br i1 %1018, label %677, label %687

1019:                                             ; preds = %1039
  %1020 = landingpad { ptr, i32 }
          cleanup
  br label %1271

1021:                                             ; preds = %1006
  %1022 = landingpad { ptr, i32 }
          cleanup
  br label %1271

1023:                                             ; preds = %1007
  %1024 = landingpad { ptr, i32 }
          cleanup
  call void @llvm.lifetime.end.p0(i64 32, ptr nonnull %24) #15
  br label %1271

1025:                                             ; preds = %1008
  %1026 = load ptr, ptr %674, align 8, !tbaa !66
  %1027 = getelementptr inbounds %"class.dealii::Triangulation", ptr %1026, i64 0, i32 1
  %1028 = sext i32 %1012 to i64
  %1029 = load ptr, ptr %1027, align 8, !tbaa !67
  %1030 = getelementptr inbounds ptr, ptr %1029, i64 %1028
  %1031 = load ptr, ptr %1030, align 8, !tbaa !69
  %1032 = getelementptr inbounds %"class.dealii::internal::Triangulation::TriaLevel", ptr %1031, i64 0, i32 4, i32 0, i32 1
  %1033 = shl i32 %1009, 2
  %1034 = zext i32 %1033 to i64
  %1035 = load ptr, ptr %1032, align 8, !tbaa !77
  %1036 = getelementptr inbounds i32, ptr %1035, i64 %1034
  %1037 = load i32, ptr %1036, align 4, !tbaa !59
  %1038 = icmp eq i32 %1037, -1
  br i1 %1038, label %1196, label %1039

1039:                                             ; preds = %1025
  invoke void @_ZNK6dealii17MGDoFCellAccessorILi3ELi3EE18get_mg_dof_indicesERSt6vectorIjSaIjEE(ptr noundef nonnull align 8 dereferenceable(32) %23, ptr noundef nonnull align 8 dereferenceable(24) %17)
          to label %1040 unwind label %1019

1040:                                             ; preds = %1039, %1085
  %1041 = phi i32 [ %1086, %1085 ], [ 0, %1039 ]
  call void @llvm.lifetime.start.p0(i64 1, ptr nonnull %4) #15
  %1042 = load ptr, ptr %674, align 8, !tbaa !66
  %1043 = getelementptr inbounds %"class.dealii::Triangulation", ptr %1042, i64 0, i32 1
  %1044 = load i32, ptr %23, align 8, !tbaa !73
  %1045 = sext i32 %1044 to i64
  %1046 = load ptr, ptr %1043, align 8, !tbaa !67
  %1047 = getelementptr inbounds ptr, ptr %1046, i64 %1045
  %1048 = load ptr, ptr %1047, align 8, !tbaa !69
  %1049 = getelementptr inbounds %"class.dealii::internal::Triangulation::TriaLevel", ptr %1048, i64 0, i32 4, i32 0, i32 2
  %1050 = load i32, ptr %672, align 4, !tbaa !64
  %1051 = sext i32 %1050 to i64
  %1052 = load ptr, ptr %1049, align 8, !tbaa !126
  %1053 = getelementptr inbounds %"class.dealii::RefinementCase", ptr %1052, i64 %1051
  %1054 = load i8, ptr %1053, align 1
  store i8 %1054, ptr %4, align 1
  %1055 = invoke noundef i32 @_ZN6dealii12GeometryInfoILi3EE10n_childrenERKNS_14RefinementCaseILi3EEE(ptr noundef nonnull align 1 dereferenceable(1) %4)
          to label %1056 unwind label %1058

1056:                                             ; preds = %1040
  call void @llvm.lifetime.end.p0(i64 1, ptr nonnull %4) #15
  %1057 = icmp ult i32 %1041, %1055
  br i1 %1057, label %1060, label %1190

1058:                                             ; preds = %1040
  %1059 = landingpad { ptr, i32 }
          cleanup
  br label %1271

1060:                                             ; preds = %1056
  %1061 = load ptr, ptr %203, align 8, !tbaa !5
  call void @llvm.lifetime.start.p0(i64 1, ptr nonnull %25) #15
  %1062 = load ptr, ptr %674, align 8, !tbaa !66
  %1063 = getelementptr inbounds %"class.dealii::Triangulation", ptr %1062, i64 0, i32 1
  %1064 = load i32, ptr %23, align 8, !tbaa !73
  %1065 = sext i32 %1064 to i64
  %1066 = load ptr, ptr %1063, align 8, !tbaa !67
  %1067 = getelementptr inbounds ptr, ptr %1066, i64 %1065
  %1068 = load ptr, ptr %1067, align 8, !tbaa !69
  %1069 = getelementptr inbounds %"class.dealii::internal::Triangulation::TriaLevel", ptr %1068, i64 0, i32 4, i32 0, i32 2
  %1070 = load i32, ptr %672, align 4, !tbaa !64
  %1071 = sext i32 %1070 to i64
  %1072 = load ptr, ptr %1069, align 8, !tbaa !126
  %1073 = getelementptr inbounds %"class.dealii::RefinementCase", ptr %1072, i64 %1071
  %1074 = load i8, ptr %1073, align 1
  store i8 %1074, ptr %25, align 1
  %1075 = invoke noundef nonnull align 8 dereferenceable(92) ptr @_ZNK6dealii13FiniteElementILi3ELi3EE23get_prolongation_matrixEjRKNS_14RefinementCaseILi3EEE(ptr noundef nonnull align 8 dereferenceable(728) %1061, i32 noundef %1041, ptr noundef nonnull align 1 dereferenceable(1) %25)
          to label %1076 unwind label %1087

1076:                                             ; preds = %1060
  call void @llvm.lifetime.end.p0(i64 1, ptr nonnull %25) #15
  call void @llvm.lifetime.start.p0(i64 32, ptr nonnull %26) #15
  invoke void @_ZNK6dealii17MGDoFCellAccessorILi3ELi3EE5childEj(ptr nonnull sret(%"class.dealii::TriaIterator") align 8 %26, ptr noundef nonnull align 8 dereferenceable(32) %23, i32 noundef %1041)
          to label %1077 unwind label %1089

1077:                                             ; preds = %1076
  invoke void @_ZNK6dealii17MGDoFCellAccessorILi3ELi3EE18get_mg_dof_indicesERSt6vectorIjSaIjEE(ptr noundef nonnull align 8 dereferenceable(32) %26, ptr noundef nonnull align 8 dereferenceable(24) %18)
          to label %1078 unwind label %1089

1078:                                             ; preds = %1077
  call void @llvm.lifetime.end.p0(i64 32, ptr nonnull %26) #15
  br i1 %520, label %1085, label %1079

1079:                                             ; preds = %1078
  %1080 = getelementptr inbounds %"class.dealii::TableBase", ptr %1075, i64 0, i32 1
  %1081 = getelementptr inbounds %"class.dealii::TableBase", ptr %1075, i64 0, i32 3, i32 0, i32 0, i64 1
  br label %1082

1082:                                             ; preds = %1079, %1091
  %1083 = phi i64 [ 0, %1079 ], [ %1092, %1091 ]
  %1084 = trunc i64 %1083 to i32
  br label %1094

1085:                                             ; preds = %1091, %1078
  %1086 = add i32 %1041, 1
  br label %1040

1087:                                             ; preds = %1060
  %1088 = landingpad { ptr, i32 }
          cleanup
  call void @llvm.lifetime.end.p0(i64 1, ptr nonnull %25) #15
  br label %1271

1089:                                             ; preds = %1077, %1076
  %1090 = landingpad { ptr, i32 }
          cleanup
  call void @llvm.lifetime.end.p0(i64 32, ptr nonnull %26) #15
  br label %1271

1091:                                             ; preds = %1187
  %1092 = add nuw nsw i64 %1083, 1
  %1093 = icmp eq i64 %1092, %519
  br i1 %1093, label %1085, label %1082

1094:                                             ; preds = %1082, %1187
  %1095 = phi i64 [ 0, %1082 ], [ %1188, %1187 ]
  %1096 = load ptr, ptr %1080, align 8, !tbaa !128
  %1097 = load i32, ptr %1081, align 8, !tbaa !59
  %1098 = mul i32 %1097, %1084
  %1099 = trunc i64 %1095 to i32
  %1100 = add i32 %1098, %1099
  %1101 = zext i32 %1100 to i64
  %1102 = getelementptr inbounds double, ptr %1096, i64 %1101
  %1103 = load double, ptr %1102, align 8, !tbaa !130
  %1104 = fcmp une double %1103, 0.000000e+00
  br i1 %1104, label %1105, label %1187

1105:                                             ; preds = %1094
  %1106 = load ptr, ptr %670, align 8, !tbaa !79
  %1107 = getelementptr inbounds %"struct.std::pair", ptr %1106, i64 %1083
  %1108 = load i64, ptr %1107, align 4
  %1109 = getelementptr inbounds %"struct.std::pair", ptr %1106, i64 %1095
  %1110 = load i64, ptr %1109, align 4
  %1111 = trunc i64 %1108 to i32
  %1112 = trunc i64 %1110 to i32
  %1113 = icmp eq i32 %1111, %1112
  br i1 %1113, label %1114, label %1187

1114:                                             ; preds = %1105
  %1115 = and i64 %1108, 4294967295
  %1116 = load ptr, ptr %97, align 8, !tbaa !58
  %1117 = getelementptr inbounds i32, ptr %1116, i64 %1115
  %1118 = load i32, ptr %1117, align 4, !tbaa !59
  %1119 = load ptr, ptr %671, align 8, !tbaa !55
  %1120 = lshr i32 %1118, 6
  %1121 = zext i32 %1120 to i64
  %1122 = getelementptr inbounds i64, ptr %1119, i64 %1121
  %1123 = and i32 %1118, 63
  %1124 = zext i32 %1123 to i64
  %1125 = shl nuw i64 1, %1124
  %1126 = load i64, ptr %1122, align 8, !tbaa !56
  %1127 = and i64 %1125, %1126
  %1128 = icmp eq i64 %1127, 0
  br i1 %1128, label %1187, label %1129

1129:                                             ; preds = %1114
  %1130 = load ptr, ptr %445, align 8, !tbaa !98
  %1131 = getelementptr inbounds %"class.boost::shared_ptr", ptr %1130, i64 %688
  %1132 = load ptr, ptr %1131, align 8, !tbaa !114
  %1133 = load ptr, ptr %18, align 8, !tbaa !58
  %1134 = getelementptr inbounds i32, ptr %1133, i64 %1083
  %1135 = load i32, ptr %1134, align 4, !tbaa !59
  %1136 = load ptr, ptr %17, align 8, !tbaa !58
  %1137 = getelementptr inbounds i32, ptr %1136, i64 %1095
  %1138 = load i32, ptr %1137, align 4, !tbaa !59
  %1139 = getelementptr inbounds %"class.dealii::BlockMatrixBase", ptr %1132, i64 0, i32 1
  %1140 = load i32, ptr %1139, align 8, !tbaa !132
  %1141 = getelementptr inbounds %"class.dealii::BlockMatrixBase", ptr %1132, i64 0, i32 1, i32 1
  %1142 = load ptr, ptr %1141, align 8, !tbaa !58
  br label %1143

1143:                                             ; preds = %1143, %1129
  %1144 = phi i32 [ %1140, %1129 ], [ %1145, %1143 ]
  %1145 = add i32 %1144, -1
  %1146 = sext i32 %1145 to i64
  %1147 = getelementptr inbounds i32, ptr %1142, i64 %1146
  %1148 = load i32, ptr %1147, align 4, !tbaa !59
  %1149 = icmp ugt i32 %1148, %1135
  br i1 %1149, label %1143, label %1150

1150:                                             ; preds = %1143
  %1151 = getelementptr inbounds %"class.dealii::BlockMatrixBase", ptr %1132, i64 0, i32 2
  %1152 = load i32, ptr %1151, align 8, !tbaa !132
  %1153 = getelementptr inbounds %"class.dealii::BlockMatrixBase", ptr %1132, i64 0, i32 2, i32 1
  %1154 = load ptr, ptr %1153, align 8, !tbaa !58
  br label %1155

1155:                                             ; preds = %1155, %1150
  %1156 = phi i32 [ %1152, %1150 ], [ %1157, %1155 ]
  %1157 = add i32 %1156, -1
  %1158 = sext i32 %1157 to i64
  %1159 = getelementptr inbounds i32, ptr %1154, i64 %1158
  %1160 = load i32, ptr %1159, align 4, !tbaa !59
  %1161 = icmp ugt i32 %1160, %1138
  br i1 %1161, label %1155, label %1162

1162:                                             ; preds = %1155
  %1163 = sub i32 %1135, %1148
  %1164 = sub i32 %1138, %1160
  %1165 = getelementptr inbounds %"class.dealii::BlockMatrixBase", ptr %1132, i64 0, i32 3, i32 0, i32 1
  %1166 = load ptr, ptr %1165, align 8, !tbaa !137, !noalias !139
  %1167 = getelementptr inbounds %"class.dealii::BlockMatrixBase", ptr %1132, i64 0, i32 3, i32 0, i32 3, i32 0, i32 0, i64 1
  %1168 = load i32, ptr %1167, align 8, !tbaa !59, !noalias !139
  %1169 = mul i32 %1168, %1145
  %1170 = zext i32 %1169 to i64
  %1171 = getelementptr inbounds %"class.dealii::SmartPointer.190", ptr %1166, i64 %1170
  %1172 = zext i32 %1157 to i64
  %1173 = getelementptr inbounds %"class.dealii::SmartPointer.190", ptr %1171, i64 %1172
  %1174 = load ptr, ptr %1173, align 8, !tbaa !142
  %1175 = getelementptr inbounds %"class.dealii::SparseMatrix", ptr %1174, i64 0, i32 1
  %1176 = load ptr, ptr %1175, align 8, !tbaa !144
  %1177 = invoke noundef i32 @_ZNK6dealii15SparsityPatternclEjj(ptr noundef nonnull align 8 dereferenceable(122) %1176, i32 noundef %1163, i32 noundef %1164)
          to label %1178 unwind label %1185

1178:                                             ; preds = %1162
  %1179 = icmp eq i32 %1177, -1
  br i1 %1179, label %1187, label %1180

1180:                                             ; preds = %1178
  %1181 = getelementptr inbounds %"class.dealii::SparseMatrix", ptr %1174, i64 0, i32 2
  %1182 = load ptr, ptr %1181, align 8, !tbaa !146
  %1183 = zext i32 %1177 to i64
  %1184 = getelementptr inbounds double, ptr %1182, i64 %1183
  store double %1103, ptr %1184, align 8, !tbaa !130
  br label %1187

1185:                                             ; preds = %1162
  %1186 = landingpad { ptr, i32 }
          cleanup
  br label %1271

1187:                                             ; preds = %1105, %1180, %1178, %1114, %1094
  %1188 = add nuw nsw i64 %1095, 1
  %1189 = icmp eq i64 %1188, %519
  br i1 %1189, label %1091, label %1094

1190:                                             ; preds = %1056
  %1191 = load ptr, ptr %674, align 8, !tbaa !66
  %1192 = getelementptr inbounds %"class.dealii::Triangulation", ptr %1191, i64 0, i32 1
  %1193 = load ptr, ptr %1192, align 8, !tbaa !67
  %1194 = load i32, ptr %672, align 4
  %1195 = load i32, ptr %23, align 8, !tbaa !73
  br label %1196

1196:                                             ; preds = %1190, %1025
  %1197 = phi i32 [ %1195, %1190 ], [ %1012, %1025 ]
  %1198 = phi i32 [ %1194, %1190 ], [ %1009, %1025 ]
  %1199 = phi ptr [ %1193, %1190 ], [ %1029, %1025 ]
  %1200 = phi ptr [ %1191, %1190 ], [ %1026, %1025 ]
  %1201 = ptrtoint ptr %1199 to i64
  %1202 = getelementptr inbounds %"class.dealii::Triangulation", ptr %1200, i64 0, i32 1, i32 0, i32 0, i32 0, i32 1
  br label %1203

1203:                                             ; preds = %1255, %1196
  %1204 = phi i32 [ %1252, %1255 ], [ %1197, %1196 ]
  %1205 = phi i32 [ %1251, %1255 ], [ %1198, %1196 ]
  %1206 = add nsw i32 %1205, 1
  %1207 = sext i32 %1204 to i64
  %1208 = getelementptr inbounds ptr, ptr %1199, i64 %1207
  %1209 = load ptr, ptr %1208, align 8, !tbaa !69
  %1210 = getelementptr inbounds %"class.dealii::internal::Triangulation::TriaLevel", ptr %1209, i64 0, i32 4
  %1211 = getelementptr inbounds %"class.dealii::internal::Triangulation::TriaLevel", ptr %1209, i64 0, i32 4, i32 0, i32 0, i32 0, i32 0, i32 0, i32 1
  %1212 = load ptr, ptr %1211, align 8, !tbaa !70
  %1213 = load ptr, ptr %1210, align 8, !tbaa !72
  %1214 = ptrtoint ptr %1212 to i64
  %1215 = ptrtoint ptr %1213 to i64
  %1216 = sub i64 %1214, %1215
  %1217 = sdiv exact i64 %1216, 24
  %1218 = trunc i64 %1217 to i32
  %1219 = icmp slt i32 %1206, %1218
  br i1 %1219, label %1250, label %1220

1220:                                             ; preds = %1203
  %1221 = add nsw i64 %1207, 1
  %1222 = trunc i64 %1221 to i32
  store i32 %1222, ptr %23, align 8, !tbaa !73
  %1223 = load ptr, ptr %1202, align 8, !tbaa !74
  %1224 = ptrtoint ptr %1223 to i64
  %1225 = sub i64 %1224, %1201
  %1226 = shl i64 %1225, 29
  %1227 = ashr i64 %1226, 32
  %1228 = icmp slt i64 %1221, %1227
  br i1 %1228, label %1229, label %1247

1229:                                             ; preds = %1220, %1243
  %1230 = phi i64 [ %1244, %1243 ], [ %1221, %1220 ]
  %1231 = getelementptr inbounds ptr, ptr %1199, i64 %1230
  %1232 = load ptr, ptr %1231, align 8, !tbaa !69
  %1233 = getelementptr inbounds %"class.dealii::internal::Triangulation::TriaLevel", ptr %1232, i64 0, i32 4
  %1234 = getelementptr inbounds %"class.dealii::internal::Triangulation::TriaLevel", ptr %1232, i64 0, i32 4, i32 0, i32 0, i32 0, i32 0, i32 0, i32 1
  %1235 = load ptr, ptr %1234, align 8, !tbaa !70
  %1236 = load ptr, ptr %1233, align 8, !tbaa !72
  %1237 = ptrtoint ptr %1235 to i64
  %1238 = ptrtoint ptr %1236 to i64
  %1239 = sub i64 %1237, %1238
  %1240 = sdiv exact i64 %1239, 24
  %1241 = trunc i64 %1240 to i32
  %1242 = icmp sgt i32 %1241, 0
  br i1 %1242, label %1248, label %1243

1243:                                             ; preds = %1229
  %1244 = add i64 %1230, 1
  %1245 = trunc i64 %1244 to i32
  store i32 %1245, ptr %23, align 8, !tbaa !73
  %1246 = icmp eq i64 %1244, %1227
  br i1 %1246, label %1247, label %1229, !llvm.loop !75

1247:                                             ; preds = %1243, %1220
  store i32 -1, ptr %23, align 8, !tbaa !73
  br label %1250

1248:                                             ; preds = %1229
  %1249 = trunc i64 %1230 to i32
  br label %1250

1250:                                             ; preds = %1248, %1247, %1203
  %1251 = phi i32 [ %1206, %1203 ], [ -1, %1247 ], [ 0, %1248 ]
  %1252 = phi i32 [ %1204, %1203 ], [ -1, %1247 ], [ %1249, %1248 ]
  %1253 = or i32 %1252, %1251
  %1254 = icmp sgt i32 %1253, -1
  br i1 %1254, label %1255, label %1270

1255:                                             ; preds = %1250
  %1256 = zext i32 %1252 to i64
  %1257 = getelementptr inbounds ptr, ptr %1199, i64 %1256
  %1258 = load ptr, ptr %1257, align 8, !tbaa !69
  %1259 = getelementptr inbounds %"class.dealii::internal::Triangulation::TriaLevel", ptr %1258, i64 0, i32 4, i32 0, i32 3
  %1260 = load ptr, ptr %1259, align 8, !tbaa !55
  %1261 = lshr i32 %1251, 6
  %1262 = zext i32 %1261 to i64
  %1263 = getelementptr inbounds i64, ptr %1260, i64 %1262
  %1264 = and i32 %1251, 63
  %1265 = zext i32 %1264 to i64
  %1266 = shl nuw i64 1, %1265
  %1267 = load i64, ptr %1263, align 8, !tbaa !56
  %1268 = and i64 %1267, %1266
  %1269 = icmp eq i64 %1268, 0
  br i1 %1269, label %1203, label %1270

1270:                                             ; preds = %1250, %1255
  store i32 %1251, ptr %672, align 4, !tbaa !64
  br label %1007

1271:                                             ; preds = %1019, %1021, %1058, %1185, %1089, %1087, %1023
  %1272 = phi { ptr, i32 } [ %1024, %1023 ], [ %1059, %1058 ], [ %1090, %1089 ], [ %1088, %1087 ], [ %1186, %1185 ], [ %1020, %1019 ], [ %1022, %1021 ]
  call void @llvm.lifetime.end.p0(i64 32, ptr nonnull %23) #15
  br label %1273

1273:                                             ; preds = %1271, %994, %732, %702
  %1274 = phi { ptr, i32 } [ %733, %732 ], [ %995, %994 ], [ %1272, %1271 ], [ %703, %702 ]
  %1275 = load ptr, ptr %18, align 8, !tbaa !58
  %1276 = icmp eq ptr %1275, null
  br i1 %1276, label %1283, label %1277

1277:                                             ; preds = %1273
  call void @_ZdlPv(ptr noundef nonnull %1275) #17
  br label %1283

1278:                                             ; preds = %682, %679
  call void @llvm.lifetime.end.p0(i64 24, ptr nonnull %18) #15
  %1279 = load ptr, ptr %17, align 8, !tbaa !58
  %1280 = icmp eq ptr %1279, null
  br i1 %1280, label %1282, label %1281

1281:                                             ; preds = %1278
  call void @_ZdlPv(ptr noundef nonnull %1279) #17
  br label %1282

1282:                                             ; preds = %1278, %1281
  call void @llvm.lifetime.end.p0(i64 24, ptr nonnull %17) #15
  ret void

1283:                                             ; preds = %1277, %1273, %685
  %1284 = phi { ptr, i32 } [ %686, %685 ], [ %1274, %1273 ], [ %1274, %1277 ]
  call void @llvm.lifetime.end.p0(i64 24, ptr nonnull %18) #15
  %1285 = load ptr, ptr %17, align 8, !tbaa !58
  %1286 = icmp eq ptr %1285, null
  br i1 %1286, label %1288, label %1287

1287:                                             ; preds = %1283
  call void @_ZdlPv(ptr noundef nonnull %1285) #17
  br label %1288

1288:                                             ; preds = %1287, %1283, %683
  %1289 = phi { ptr, i32 } [ %684, %683 ], [ %1284, %1283 ], [ %1284, %1287 ]
  call void @llvm.lifetime.end.p0(i64 24, ptr nonnull %17) #15
  br label %556

1290:                                             ; preds = %534, %653, %647, %539, %537
  %1291 = landingpad { ptr, i32 }
          catch ptr null
  %1292 = extractvalue { ptr, i32 } %1291, 0
  call void @__clang_call_terminate(ptr %1292) #20
  unreachable
}

declare i32 @__gxx_personality_v0(...)

declare noundef i32 @_ZNK6dealii13TriangulationILi3ELi3EE8n_levelsEv(ptr noundef nonnull align 8 dereferenceable(8552)) local_unnamed_addr #2

declare void @_ZNK6dealii12MGDoFHandlerILi3ELi3EE12begin_activeEj(ptr sret(%"class.dealii::TriaActiveIterator") align 8, ptr noundef nonnull align 8 dereferenceable(248), i32 noundef) local_unnamed_addr #2

declare void @_ZNK6dealii12MGDoFHandlerILi3ELi3EE10end_activeEj(ptr sret(%"class.dealii::TriaActiveIterator") align 8, ptr noundef nonnull align 8 dereferenceable(248), i32 noundef) local_unnamed_addr #2

declare void @_ZNK6dealii17MGDoFCellAccessorILi3ELi3EE18get_mg_dof_indicesERSt6vectorIjSaIjEE(ptr noundef nonnull align 8 dereferenceable(32), ptr noundef nonnull align 8 dereferenceable(24)) local_unnamed_addr #2

; Function Attrs: noinline noreturn nounwind sspstrong uwtable
define linkonce_odr hidden void @__clang_call_terminate(ptr noundef %0) local_unnamed_addr #3 comdat {
  %2 = tail call ptr @__cxa_begin_catch(ptr %0) #15
  tail call void @_ZSt9terminatev() #20
  unreachable
}

declare ptr @__cxa_begin_catch(ptr) local_unnamed_addr

declare void @_ZSt9terminatev() local_unnamed_addr

; Function Attrs: sspstrong uwtable
define weak_odr dso_local void @_ZN6dealii16MGTransferSelectIdE14build_matricesILi3ELi3EEEvRKNS_10DoFHandlerIXT_EXT0_EEERKNS_12MGDoFHandlerIXT_EXT0_EEEjjRKSt6vectorIjSaIjEESF_(ptr noundef nonnull align 8 dereferenceable(352) %0, ptr noundef nonnull align 8 dereferenceable(168) %1, ptr noundef nonnull align 8 dereferenceable(248) %2, i32 noundef %3, i32 noundef %4, ptr noundef nonnull align 8 dereferenceable(24) %5, ptr noundef nonnull align 8 dereferenceable(24) %6) local_unnamed_addr #0 comdat align 2 personality ptr @__gxx_personality_v0 {
  %8 = alloca %"class.std::vector.20", align 8
  %9 = alloca %"class.std::vector.20", align 8
  %10 = alloca %"class.dealii::TriaActiveIterator", align 8
  %11 = alloca %"class.dealii::TriaActiveIterator", align 8
  %12 = getelementptr inbounds %"class.dealii::DoFHandler", ptr %2, i64 0, i32 2
  %13 = load ptr, ptr %12, align 8, !tbaa !5
  %14 = getelementptr inbounds i8, ptr %13, i64 116
  %15 = load i32, ptr %14, align 4, !tbaa !10
  %16 = getelementptr inbounds i8, ptr %0, i64 72
  %17 = getelementptr inbounds i8, ptr %0, i64 152
  %18 = tail call noundef nonnull align 8 dereferenceable(24) ptr @_ZNSt6vectorIjSaIjEEaSERKS1_(ptr noundef nonnull align 8 dereferenceable(24) %17, ptr noundef nonnull align 8 dereferenceable(24) %5)
  %19 = getelementptr inbounds i8, ptr %0, i64 176
  %20 = tail call noundef nonnull align 8 dereferenceable(24) ptr @_ZNSt6vectorIjSaIjEEaSERKS1_(ptr noundef nonnull align 8 dereferenceable(24) %19, ptr noundef nonnull align 8 dereferenceable(24) %6)
  %21 = getelementptr inbounds %"class.dealii::MGTransferSelect.117", ptr %0, i64 0, i32 2
  store i32 %3, ptr %21, align 8, !tbaa !148
  %22 = getelementptr inbounds %"class.dealii::MGTransferSelect.117", ptr %0, i64 0, i32 3
  store i32 %4, ptr %22, align 4, !tbaa !151
  %23 = zext i32 %15 to i64
  %24 = getelementptr inbounds i8, ptr %0, i64 88
  %25 = load ptr, ptr %24, align 8
  %26 = getelementptr inbounds i8, ptr %0, i64 96
  %27 = load i32, ptr %26, align 8
  %28 = load ptr, ptr %16, align 8, !tbaa !55
  %29 = ptrtoint ptr %25 to i64
  %30 = ptrtoint ptr %28 to i64
  %31 = sub i64 %29, %30
  %32 = shl nsw i64 %31, 3
  %33 = zext i32 %27 to i64
  %34 = add nsw i64 %32, %33
  %35 = icmp ugt i64 %34, %23
  br i1 %35, label %36, label %41

36:                                               ; preds = %7
  %37 = lshr i32 %15, 6
  %38 = zext i32 %37 to i64
  %39 = getelementptr inbounds i64, ptr %28, i64 %38
  %40 = and i32 %15, 63
  store ptr %39, ptr %24, align 8
  store i32 %40, ptr %26, align 8
  br label %44

41:                                               ; preds = %7
  %42 = sub i64 %23, %34
  tail call void @_ZNSt6vectorIbSaIbEE14_M_fill_insertESt13_Bit_iteratormb(ptr noundef nonnull align 8 dereferenceable(40) %16, ptr %25, i32 %27, i64 noundef %42, i1 noundef zeroext false)
  %43 = load ptr, ptr %16, align 8, !tbaa !55
  br label %44

44:                                               ; preds = %36, %41
  %45 = phi ptr [ %28, %36 ], [ %43, %41 ]
  %46 = lshr i32 %3, 6
  %47 = zext i32 %46 to i64
  %48 = getelementptr inbounds i64, ptr %45, i64 %47
  %49 = and i32 %3, 63
  %50 = zext i32 %49 to i64
  %51 = shl nuw i64 1, %50
  %52 = load i64, ptr %48, align 8, !tbaa !56
  %53 = or i64 %52, %51
  store i64 %53, ptr %48, align 8, !tbaa !56
  %54 = getelementptr inbounds i8, ptr %0, i64 112
  %55 = getelementptr inbounds i8, ptr %0, i64 128
  %56 = load ptr, ptr %55, align 8
  %57 = getelementptr inbounds i8, ptr %0, i64 136
  %58 = load i32, ptr %57, align 8
  %59 = load ptr, ptr %54, align 8, !tbaa !55
  %60 = ptrtoint ptr %56 to i64
  %61 = ptrtoint ptr %59 to i64
  %62 = sub i64 %60, %61
  %63 = shl nsw i64 %62, 3
  %64 = zext i32 %58 to i64
  %65 = add nsw i64 %63, %64
  %66 = icmp ugt i64 %65, %23
  br i1 %66, label %67, label %72

67:                                               ; preds = %44
  %68 = lshr i32 %15, 6
  %69 = zext i32 %68 to i64
  %70 = getelementptr inbounds i64, ptr %59, i64 %69
  %71 = and i32 %15, 63
  store ptr %70, ptr %55, align 8
  store i32 %71, ptr %57, align 8
  br label %75

72:                                               ; preds = %44
  %73 = sub i64 %23, %65
  tail call void @_ZNSt6vectorIbSaIbEE14_M_fill_insertESt13_Bit_iteratormb(ptr noundef nonnull align 8 dereferenceable(40) %54, ptr %56, i32 %58, i64 noundef %73, i1 noundef zeroext false)
  %74 = load ptr, ptr %54, align 8, !tbaa !55
  br label %75

75:                                               ; preds = %67, %72
  %76 = phi ptr [ %59, %67 ], [ %74, %72 ]
  %77 = lshr i32 %4, 6
  %78 = zext i32 %77 to i64
  %79 = getelementptr inbounds i64, ptr %76, i64 %78
  %80 = and i32 %4, 63
  %81 = zext i32 %80 to i64
  %82 = shl nuw i64 1, %81
  %83 = load i64, ptr %79, align 8, !tbaa !56
  %84 = or i64 %83, %82
  store i64 %84, ptr %79, align 8, !tbaa !56
  %85 = getelementptr inbounds i8, ptr %0, i64 160
  %86 = load ptr, ptr %85, align 8, !tbaa !57
  %87 = load ptr, ptr %17, align 8, !tbaa !58
  %88 = ptrtoint ptr %86 to i64
  %89 = ptrtoint ptr %87 to i64
  %90 = sub i64 %88, %89
  %91 = ashr exact i64 %90, 2
  %92 = icmp eq ptr %86, %87
  br i1 %92, label %104, label %93

93:                                               ; preds = %75, %100
  %94 = phi i64 [ %102, %100 ], [ 0, %75 ]
  %95 = phi i32 [ %101, %100 ], [ 0, %75 ]
  %96 = getelementptr inbounds i32, ptr %87, i64 %94
  %97 = load i32, ptr %96, align 4, !tbaa !59
  %98 = icmp eq i32 %97, %3
  br i1 %98, label %99, label %100

99:                                               ; preds = %93
  store i32 %95, ptr %21, align 8, !tbaa !148
  br label %104

100:                                              ; preds = %93
  %101 = add i32 %95, 1
  %102 = zext i32 %101 to i64
  %103 = icmp ugt i64 %91, %102
  br i1 %103, label %93, label %104

104:                                              ; preds = %100, %75, %99
  %105 = getelementptr inbounds i8, ptr %0, i64 184
  %106 = load ptr, ptr %105, align 8, !tbaa !57
  %107 = load ptr, ptr %19, align 8, !tbaa !58
  %108 = ptrtoint ptr %106 to i64
  %109 = ptrtoint ptr %107 to i64
  %110 = sub i64 %108, %109
  %111 = ashr exact i64 %110, 2
  %112 = icmp eq ptr %106, %107
  br i1 %112, label %124, label %113

113:                                              ; preds = %104, %120
  %114 = phi i64 [ %122, %120 ], [ 0, %104 ]
  %115 = phi i32 [ %121, %120 ], [ 0, %104 ]
  %116 = getelementptr inbounds i32, ptr %107, i64 %114
  %117 = load i32, ptr %116, align 4, !tbaa !59
  %118 = icmp eq i32 %117, %4
  br i1 %118, label %119, label %120

119:                                              ; preds = %113
  store i32 %115, ptr %22, align 4, !tbaa !151
  br label %124

120:                                              ; preds = %113
  %121 = add i32 %115, 1
  %122 = zext i32 %121 to i64
  %123 = icmp ugt i64 %111, %122
  br i1 %123, label %113, label %124

124:                                              ; preds = %120, %104, %119
  tail call void @_ZN6dealii23MGTransferComponentBase14build_matricesILi3ELi3EEEvRKNS_10DoFHandlerIXT_EXT0_EEERKNS_12MGDoFHandlerIXT_EXT0_EEE(ptr noundef nonnull align 8 dereferenceable(272) %16, ptr noundef nonnull align 8 dereferenceable(168) %1, ptr noundef nonnull align 8 dereferenceable(248) %2)
  call void @llvm.lifetime.start.p0(i64 24, ptr nonnull %8) #15
  %125 = getelementptr inbounds i8, ptr %13, i64 112
  %126 = load i32, ptr %125, align 8, !tbaa !60
  %127 = icmp eq i32 %126, 0
  br i1 %127, label %128, label %129

128:                                              ; preds = %124
  call void @llvm.memset.p0.i64(ptr noundef nonnull align 8 dereferenceable(24) %8, i8 0, i64 24, i1 false)
  call void @llvm.lifetime.start.p0(i64 24, ptr nonnull %9) #15
  br label %139

129:                                              ; preds = %124
  %130 = zext i32 %126 to i64
  %131 = shl nuw nsw i64 %130, 2
  %132 = tail call noalias noundef nonnull ptr @_Znwm(i64 noundef %131) #16
  store ptr %132, ptr %8, align 8, !tbaa !58
  %133 = getelementptr inbounds i32, ptr %132, i64 %130
  %134 = getelementptr inbounds %"struct.std::_Vector_base<unsigned int, std::allocator<unsigned int> >::_Vector_impl_data", ptr %8, i64 0, i32 2
  store ptr %133, ptr %134, align 8, !tbaa !61
  tail call void @llvm.memset.p0.i64(ptr nonnull align 4 %132, i8 0, i64 %131, i1 false), !tbaa !59
  %135 = load i32, ptr %125, align 8, !tbaa !60
  %136 = getelementptr inbounds %"struct.std::_Vector_base<unsigned int, std::allocator<unsigned int> >::_Vector_impl_data", ptr %8, i64 0, i32 1
  store ptr %133, ptr %136, align 8, !tbaa !57
  call void @llvm.lifetime.start.p0(i64 24, ptr nonnull %9) #15
  %137 = zext i32 %135 to i64
  %138 = icmp eq i32 %135, 0
  br i1 %138, label %139, label %140

139:                                              ; preds = %128, %129
  call void @llvm.memset.p0.i64(ptr noundef nonnull align 8 dereferenceable(24) %9, i8 0, i64 24, i1 false)
  br label %146

140:                                              ; preds = %129
  %141 = shl nuw nsw i64 %137, 2
  %142 = invoke noalias noundef nonnull ptr @_Znwm(i64 noundef %141) #16
          to label %143 unwind label %167

143:                                              ; preds = %140
  store ptr %142, ptr %9, align 8, !tbaa !58
  %144 = getelementptr inbounds i32, ptr %142, i64 %137
  %145 = getelementptr inbounds %"struct.std::_Vector_base<unsigned int, std::allocator<unsigned int> >::_Vector_impl_data", ptr %9, i64 0, i32 2
  store ptr %144, ptr %145, align 8, !tbaa !61
  tail call void @llvm.memset.p0.i64(ptr nonnull align 4 %142, i8 0, i64 %141, i1 false), !tbaa !59
  br label %146

146:                                              ; preds = %143, %139
  %147 = phi ptr [ null, %139 ], [ %144, %143 ]
  %148 = getelementptr inbounds %"struct.std::_Vector_base<unsigned int, std::allocator<unsigned int> >::_Vector_impl_data", ptr %9, i64 0, i32 1
  store ptr %147, ptr %148, align 8, !tbaa !57
  %149 = getelementptr inbounds %"class.dealii::DoFHandler", ptr %1, i64 0, i32 1
  %150 = load ptr, ptr %149, align 8, !tbaa !62
  %151 = invoke noundef i32 @_ZNK6dealii13TriangulationILi3ELi3EE8n_levelsEv(ptr noundef nonnull align 8 dereferenceable(8552) %150)
          to label %152 unwind label %169

152:                                              ; preds = %146
  %153 = add i32 %151, -1
  %154 = icmp sgt i32 %153, -1
  br i1 %154, label %155, label %163

155:                                              ; preds = %152
  %156 = getelementptr inbounds %"class.dealii::TriaAccessorBase", ptr %10, i64 0, i32 1
  %157 = getelementptr inbounds %"class.dealii::TriaAccessorBase", ptr %11, i64 0, i32 1
  %158 = getelementptr inbounds %"class.dealii::FiniteElement", ptr %13, i64 0, i32 12
  %159 = getelementptr inbounds i8, ptr %0, i64 248
  %160 = getelementptr inbounds i8, ptr %0, i64 320
  %161 = getelementptr inbounds i8, ptr %0, i64 224
  %162 = getelementptr inbounds %"class.dealii::TriaAccessorBase", ptr %10, i64 0, i32 2
  br label %171

163:                                              ; preds = %410, %152
  %164 = load ptr, ptr %9, align 8, !tbaa !58
  %165 = icmp eq ptr %164, null
  br i1 %165, label %422, label %166

166:                                              ; preds = %163
  call void @_ZdlPv(ptr noundef nonnull %164) #17
  br label %422

167:                                              ; preds = %140
  %168 = landingpad { ptr, i32 }
          cleanup
  br label %427

169:                                              ; preds = %146
  %170 = landingpad { ptr, i32 }
          cleanup
  br label %417

171:                                              ; preds = %155, %410
  %172 = phi i32 [ %153, %155 ], [ %411, %410 ]
  call void @llvm.lifetime.start.p0(i64 32, ptr nonnull %10) #15
  invoke void @_ZNK6dealii12MGDoFHandlerILi3ELi3EE12begin_activeEj(ptr nonnull sret(%"class.dealii::TriaActiveIterator") align 8 %10, ptr noundef nonnull align 8 dereferenceable(248) %2, i32 noundef %172)
          to label %173 unwind label %307

173:                                              ; preds = %171
  call void @llvm.lifetime.start.p0(i64 32, ptr nonnull %11) #15
  invoke void @_ZNK6dealii12MGDoFHandlerILi3ELi3EE10end_activeEj(ptr nonnull sret(%"class.dealii::TriaActiveIterator") align 8 %11, ptr noundef nonnull align 8 dereferenceable(248) %2, i32 noundef %172)
          to label %174 unwind label %309

174:                                              ; preds = %173
  %175 = load i32, ptr %156, align 4, !tbaa !64
  %176 = load i32, ptr %157, align 4, !tbaa !64
  %177 = icmp ne i32 %175, %176
  %178 = load i32, ptr %10, align 8
  %179 = load i32, ptr %11, align 8
  %180 = icmp ne i32 %178, %179
  %181 = select i1 %177, i1 true, i1 %180
  br i1 %181, label %182, label %410

182:                                              ; preds = %174
  %183 = zext i32 %172 to i64
  br label %184

184:                                              ; preds = %182, %301
  invoke void @_ZN6dealii8internal11DoFAccessor15get_dof_indicesINS_10DoFHandlerILi3ELi3EEEEEvRKNS_11DoFAccessorILi3ET_EERSt6vectorIjSaIjEEj(ptr noundef nonnull align 8 dereferenceable(24) %10, ptr noundef nonnull align 8 dereferenceable(24) %8, i32 noundef 0)
          to label %185 unwind label %311

185:                                              ; preds = %184
  invoke void @_ZNK6dealii17MGDoFCellAccessorILi3ELi3EE18get_mg_dof_indicesERSt6vectorIjSaIjEE(ptr noundef nonnull align 8 dereferenceable(32) %10, ptr noundef nonnull align 8 dereferenceable(24) %9)
          to label %186 unwind label %311

186:                                              ; preds = %185
  %187 = load i32, ptr %125, align 8, !tbaa !60
  %188 = icmp eq i32 %187, 0
  br i1 %188, label %189, label %313

189:                                              ; preds = %405, %186
  %190 = load ptr, ptr %162, align 8, !tbaa !66
  %191 = getelementptr inbounds %"class.dealii::Triangulation", ptr %190, i64 0, i32 1
  %192 = load ptr, ptr %191, align 8, !tbaa !67
  %193 = ptrtoint ptr %192 to i64
  %194 = getelementptr inbounds %"class.dealii::Triangulation", ptr %190, i64 0, i32 1, i32 0, i32 0, i32 0, i32 1
  %195 = load i32, ptr %10, align 8
  %196 = load i32, ptr %156, align 4
  br label %197

197:                                              ; preds = %285, %189
  %198 = phi i32 [ %195, %189 ], [ %264, %285 ]
  %199 = phi i32 [ %195, %189 ], [ %265, %285 ]
  %200 = phi i32 [ %195, %189 ], [ %286, %285 ]
  %201 = phi i32 [ %196, %189 ], [ %266, %285 ]
  %202 = add nsw i32 %201, 1
  %203 = sext i32 %200 to i64
  %204 = getelementptr inbounds ptr, ptr %192, i64 %203
  %205 = load ptr, ptr %204, align 8, !tbaa !69
  %206 = getelementptr inbounds %"class.dealii::internal::Triangulation::TriaLevel", ptr %205, i64 0, i32 4
  %207 = getelementptr inbounds %"class.dealii::internal::Triangulation::TriaLevel", ptr %205, i64 0, i32 4, i32 0, i32 0, i32 0, i32 0, i32 0, i32 1
  %208 = load ptr, ptr %207, align 8, !tbaa !70
  %209 = load ptr, ptr %206, align 8, !tbaa !72
  %210 = ptrtoint ptr %208 to i64
  %211 = ptrtoint ptr %209 to i64
  %212 = sub i64 %210, %211
  %213 = sdiv exact i64 %212, 24
  %214 = trunc i64 %213 to i32
  %215 = icmp slt i32 %202, %214
  br i1 %215, label %263, label %216

216:                                              ; preds = %197
  %217 = add nsw i64 %203, 1
  %218 = trunc i64 %217 to i32
  store i32 %218, ptr %10, align 8, !tbaa !73
  %219 = load ptr, ptr %194, align 8, !tbaa !74
  %220 = ptrtoint ptr %219 to i64
  %221 = sub i64 %220, %193
  %222 = shl i64 %221, 29
  %223 = ashr i64 %222, 32
  %224 = icmp slt i64 %217, %223
  br i1 %224, label %225, label %257

225:                                              ; preds = %216
  %226 = getelementptr inbounds ptr, ptr %192, i64 %217
  %227 = load ptr, ptr %226, align 8, !tbaa !69
  %228 = getelementptr inbounds %"class.dealii::internal::Triangulation::TriaLevel", ptr %227, i64 0, i32 4
  %229 = getelementptr inbounds %"class.dealii::internal::Triangulation::TriaLevel", ptr %227, i64 0, i32 4, i32 0, i32 0, i32 0, i32 0, i32 0, i32 1
  %230 = load ptr, ptr %229, align 8, !tbaa !70
  %231 = load ptr, ptr %228, align 8, !tbaa !72
  %232 = ptrtoint ptr %230 to i64
  %233 = ptrtoint ptr %231 to i64
  %234 = sub i64 %232, %233
  %235 = sdiv exact i64 %234, 24
  %236 = trunc i64 %235 to i32
  %237 = icmp sgt i32 %236, 0
  br i1 %237, label %259, label %251

238:                                              ; preds = %251
  %239 = getelementptr inbounds ptr, ptr %192, i64 %253
  %240 = load ptr, ptr %239, align 8, !tbaa !69
  %241 = getelementptr inbounds %"class.dealii::internal::Triangulation::TriaLevel", ptr %240, i64 0, i32 4
  %242 = getelementptr inbounds %"class.dealii::internal::Triangulation::TriaLevel", ptr %240, i64 0, i32 4, i32 0, i32 0, i32 0, i32 0, i32 0, i32 1
  %243 = load ptr, ptr %242, align 8, !tbaa !70
  %244 = load ptr, ptr %241, align 8, !tbaa !72
  %245 = ptrtoint ptr %243 to i64
  %246 = ptrtoint ptr %244 to i64
  %247 = sub i64 %245, %246
  %248 = sdiv exact i64 %247, 24
  %249 = trunc i64 %248 to i32
  %250 = icmp sgt i32 %249, 0
  br i1 %250, label %258, label %251, !llvm.loop !75

251:                                              ; preds = %225, %238
  %252 = phi i64 [ %253, %238 ], [ %217, %225 ]
  %253 = add i64 %252, 1
  %254 = trunc i64 %253 to i32
  %255 = icmp eq i64 %253, %223
  br i1 %255, label %256, label %238, !llvm.loop !75

256:                                              ; preds = %251
  store i32 %254, ptr %10, align 8, !tbaa !73
  br label %257

257:                                              ; preds = %256, %216
  store i32 -1, ptr %10, align 8, !tbaa !73
  br label %263

258:                                              ; preds = %238
  store i32 %254, ptr %10, align 8, !tbaa !73
  br label %259

259:                                              ; preds = %258, %225
  %260 = phi i32 [ %218, %225 ], [ %254, %258 ]
  %261 = phi i64 [ %217, %225 ], [ %253, %258 ]
  %262 = trunc i64 %261 to i32
  br label %263

263:                                              ; preds = %259, %257, %197
  %264 = phi i32 [ %198, %197 ], [ -1, %257 ], [ %260, %259 ]
  %265 = phi i32 [ %199, %197 ], [ -1, %257 ], [ %262, %259 ]
  %266 = phi i32 [ %202, %197 ], [ -1, %257 ], [ 0, %259 ]
  %267 = phi i32 [ %200, %197 ], [ -1, %257 ], [ %262, %259 ]
  %268 = or i32 %267, %266
  %269 = icmp sgt i32 %268, -1
  br i1 %269, label %270, label %287

270:                                              ; preds = %263
  %271 = zext i32 %267 to i64
  %272 = getelementptr inbounds ptr, ptr %192, i64 %271
  %273 = load ptr, ptr %272, align 8, !tbaa !69
  %274 = getelementptr inbounds %"class.dealii::internal::Triangulation::TriaLevel", ptr %273, i64 0, i32 4, i32 0, i32 3
  %275 = load ptr, ptr %274, align 8, !tbaa !55
  %276 = lshr i32 %266, 6
  %277 = zext i32 %276 to i64
  %278 = getelementptr inbounds i64, ptr %275, i64 %277
  %279 = and i32 %266, 63
  %280 = zext i32 %279 to i64
  %281 = shl nuw i64 1, %280
  %282 = load i64, ptr %278, align 8, !tbaa !56
  %283 = and i64 %282, %281
  %284 = icmp eq i64 %283, 0
  br i1 %284, label %285, label %287

285:                                              ; preds = %270, %290
  %286 = phi i32 [ %267, %270 ], [ %265, %290 ]
  br label %197

287:                                              ; preds = %270, %263
  store i32 %266, ptr %156, align 4, !tbaa !64
  %288 = or i32 %266, %265
  %289 = icmp sgt i32 %288, -1
  br i1 %289, label %290, label %301

290:                                              ; preds = %287
  %291 = zext i32 %265 to i64
  %292 = getelementptr inbounds ptr, ptr %192, i64 %291
  %293 = load ptr, ptr %292, align 8, !tbaa !69
  %294 = getelementptr inbounds %"class.dealii::internal::Triangulation::TriaLevel", ptr %293, i64 0, i32 4, i32 0, i32 1
  %295 = shl i32 %266, 2
  %296 = zext i32 %295 to i64
  %297 = load ptr, ptr %294, align 8, !tbaa !77
  %298 = getelementptr inbounds i32, ptr %297, i64 %296
  %299 = load i32, ptr %298, align 4, !tbaa !59
  %300 = icmp eq i32 %299, -1
  br i1 %300, label %301, label %285

301:                                              ; preds = %287, %290
  %302 = load i32, ptr %157, align 4, !tbaa !64
  %303 = icmp ne i32 %266, %302
  %304 = load i32, ptr %11, align 8
  %305 = icmp ne i32 %264, %304
  %306 = select i1 %303, i1 true, i1 %305
  br i1 %306, label %184, label %410

307:                                              ; preds = %171
  %308 = landingpad { ptr, i32 }
          cleanup
  br label %415

309:                                              ; preds = %173
  %310 = landingpad { ptr, i32 }
          cleanup
  br label %413

311:                                              ; preds = %184, %185
  %312 = landingpad { ptr, i32 }
          cleanup
  br label %413

313:                                              ; preds = %186, %405
  %314 = phi i32 [ %406, %405 ], [ %187, %186 ]
  %315 = phi i64 [ %407, %405 ], [ 0, %186 ]
  %316 = load ptr, ptr %158, align 8, !tbaa !79
  %317 = getelementptr inbounds %"struct.std::pair", ptr %316, i64 %315
  %318 = load i64, ptr %317, align 4
  %319 = and i64 %318, 4294967295
  %320 = load ptr, ptr %19, align 8, !tbaa !58
  %321 = getelementptr inbounds i32, ptr %320, i64 %319
  %322 = load i32, ptr %321, align 4, !tbaa !59
  %323 = load ptr, ptr %54, align 8, !tbaa !55
  %324 = lshr i32 %322, 6
  %325 = zext i32 %324 to i64
  %326 = getelementptr inbounds i64, ptr %323, i64 %325
  %327 = and i32 %322, 63
  %328 = zext i32 %327 to i64
  %329 = shl nuw i64 1, %328
  %330 = load i64, ptr %326, align 8, !tbaa !56
  %331 = and i64 %329, %330
  %332 = icmp eq i64 %331, 0
  br i1 %332, label %405, label %333

333:                                              ; preds = %313
  %334 = zext i32 %322 to i64
  %335 = load ptr, ptr %159, align 8, !tbaa !81
  %336 = getelementptr inbounds %"class.std::vector.20", ptr %335, i64 %183
  %337 = load ptr, ptr %336, align 8, !tbaa !58
  %338 = getelementptr inbounds i32, ptr %337, i64 %334
  %339 = load i32, ptr %338, align 4, !tbaa !59
  %340 = load ptr, ptr %160, align 8, !tbaa !82
  %341 = getelementptr inbounds %"class.std::map.105", ptr %340, i64 %183
  %342 = load ptr, ptr %8, align 8, !tbaa !58
  %343 = getelementptr inbounds i32, ptr %342, i64 %315
  %344 = load i32, ptr %343, align 4, !tbaa !59
  %345 = load i32, ptr %21, align 8, !tbaa !148
  %346 = zext i32 %345 to i64
  %347 = load ptr, ptr %161, align 8, !tbaa !58
  %348 = getelementptr inbounds i32, ptr %347, i64 %346
  %349 = load i32, ptr %348, align 4, !tbaa !59
  %350 = sub i32 %344, %349
  %351 = load ptr, ptr %9, align 8, !tbaa !58
  %352 = getelementptr inbounds i32, ptr %351, i64 %315
  %353 = load i32, ptr %352, align 4, !tbaa !59
  %354 = sub i32 %353, %339
  %355 = zext i32 %354 to i64
  %356 = shl nuw i64 %355, 32
  %357 = getelementptr inbounds i8, ptr %341, i64 16
  %358 = getelementptr inbounds i8, ptr %341, i64 8
  %359 = load ptr, ptr %357, align 8, !tbaa !69
  %360 = icmp eq ptr %359, null
  br i1 %360, label %372, label %361

361:                                              ; preds = %333, %361
  %362 = phi ptr [ %369, %361 ], [ %359, %333 ]
  %363 = getelementptr inbounds %"struct.std::_Rb_tree_node", ptr %362, i64 0, i32 1
  %364 = load i32, ptr %363, align 4, !tbaa !59
  %365 = icmp ult i32 %350, %364
  %366 = getelementptr inbounds %"struct.std::_Rb_tree_node_base", ptr %362, i64 0, i32 2
  %367 = getelementptr inbounds %"struct.std::_Rb_tree_node_base", ptr %362, i64 0, i32 3
  %368 = select i1 %365, ptr %366, ptr %367
  %369 = load ptr, ptr %368, align 8, !tbaa !69
  %370 = icmp eq ptr %369, null
  br i1 %370, label %371, label %361

371:                                              ; preds = %361
  br i1 %365, label %372, label %381

372:                                              ; preds = %371, %333
  %373 = phi ptr [ %362, %371 ], [ %358, %333 ]
  %374 = getelementptr inbounds i8, ptr %341, i64 24
  %375 = load ptr, ptr %374, align 8, !tbaa !83
  %376 = icmp eq ptr %373, %375
  br i1 %376, label %385, label %377

377:                                              ; preds = %372
  %378 = call noundef ptr @_ZSt18_Rb_tree_decrementPSt18_Rb_tree_node_base(ptr noundef nonnull %373) #18
  %379 = getelementptr inbounds %"struct.std::_Rb_tree_node", ptr %378, i64 0, i32 1
  %380 = load i32, ptr %379, align 4, !tbaa !59
  br label %381

381:                                              ; preds = %377, %371
  %382 = phi i32 [ %380, %377 ], [ %364, %371 ]
  %383 = phi ptr [ %373, %377 ], [ %362, %371 ]
  %384 = icmp ult i32 %382, %350
  br i1 %384, label %385, label %405

385:                                              ; preds = %381, %372
  %386 = phi ptr [ %373, %372 ], [ %383, %381 ]
  %387 = icmp eq ptr %358, %386
  br i1 %387, label %392, label %388

388:                                              ; preds = %385
  %389 = getelementptr inbounds %"struct.std::_Rb_tree_node", ptr %386, i64 0, i32 1
  %390 = load i32, ptr %389, align 4, !tbaa !59
  %391 = icmp ult i32 %350, %390
  br label %392

392:                                              ; preds = %388, %385
  %393 = phi i1 [ true, %385 ], [ %391, %388 ]
  %394 = invoke noalias noundef nonnull dereferenceable(40) ptr @_Znwm(i64 noundef 40) #16
          to label %395 unwind label %403

395:                                              ; preds = %392
  %396 = getelementptr inbounds %"struct.std::_Rb_tree_node", ptr %394, i64 0, i32 1
  %397 = zext i32 %350 to i64
  %398 = or i64 %356, %397
  store i64 %398, ptr %396, align 4
  call void @_ZSt29_Rb_tree_insert_and_rebalancebPSt18_Rb_tree_node_baseS0_RS_(i1 noundef zeroext %393, ptr noundef nonnull %394, ptr noundef nonnull %386, ptr noundef nonnull align 8 dereferenceable(32) %358) #15
  %399 = getelementptr inbounds i8, ptr %341, i64 40
  %400 = load i64, ptr %399, align 8, !tbaa !84
  %401 = add i64 %400, 1
  store i64 %401, ptr %399, align 8, !tbaa !84
  %402 = load i32, ptr %125, align 8, !tbaa !60
  br label %405

403:                                              ; preds = %392
  %404 = landingpad { ptr, i32 }
          cleanup
  br label %413

405:                                              ; preds = %381, %395, %313
  %406 = phi i32 [ %314, %381 ], [ %402, %395 ], [ %314, %313 ]
  %407 = add nuw nsw i64 %315, 1
  %408 = zext i32 %406 to i64
  %409 = icmp ult i64 %407, %408
  br i1 %409, label %313, label %189

410:                                              ; preds = %301, %174
  call void @llvm.lifetime.end.p0(i64 32, ptr nonnull %11) #15
  call void @llvm.lifetime.end.p0(i64 32, ptr nonnull %10) #15
  %411 = add nsw i32 %172, -1
  %412 = icmp sgt i32 %172, 0
  br i1 %412, label %171, label %163

413:                                              ; preds = %311, %403, %309
  %414 = phi { ptr, i32 } [ %310, %309 ], [ %312, %311 ], [ %404, %403 ]
  call void @llvm.lifetime.end.p0(i64 32, ptr nonnull %11) #15
  br label %415

415:                                              ; preds = %413, %307
  %416 = phi { ptr, i32 } [ %414, %413 ], [ %308, %307 ]
  call void @llvm.lifetime.end.p0(i64 32, ptr nonnull %10) #15
  br label %417

417:                                              ; preds = %415, %169
  %418 = phi { ptr, i32 } [ %416, %415 ], [ %170, %169 ]
  %419 = load ptr, ptr %9, align 8, !tbaa !58
  %420 = icmp eq ptr %419, null
  br i1 %420, label %427, label %421

421:                                              ; preds = %417
  call void @_ZdlPv(ptr noundef nonnull %419) #17
  br label %427

422:                                              ; preds = %166, %163
  call void @llvm.lifetime.end.p0(i64 24, ptr nonnull %9) #15
  %423 = load ptr, ptr %8, align 8, !tbaa !58
  %424 = icmp eq ptr %423, null
  br i1 %424, label %426, label %425

425:                                              ; preds = %422
  call void @_ZdlPv(ptr noundef nonnull %423) #17
  br label %426

426:                                              ; preds = %422, %425
  call void @llvm.lifetime.end.p0(i64 24, ptr nonnull %8) #15
  ret void

427:                                              ; preds = %421, %417, %167
  %428 = phi { ptr, i32 } [ %168, %167 ], [ %418, %417 ], [ %418, %421 ]
  call void @llvm.lifetime.end.p0(i64 24, ptr nonnull %9) #15
  %429 = load ptr, ptr %8, align 8, !tbaa !58
  %430 = icmp eq ptr %429, null
  br i1 %430, label %432, label %431

431:                                              ; preds = %427
  call void @_ZdlPv(ptr noundef nonnull %429) #17
  br label %432

432:                                              ; preds = %431, %427
  call void @llvm.lifetime.end.p0(i64 24, ptr nonnull %8) #15
  resume { ptr, i32 } %428
}

; Function Attrs: sspstrong uwtable
define weak_odr dso_local void @_ZNK6dealii16MGTransferSelectIfE10copy_to_mgILi3EdLi3EEEvRKNS_12MGDoFHandlerIXT_EXT1_EEERNS_13MGLevelObjectINS_6VectorIfEEEERKNS8_IT0_EE(ptr noundef nonnull align 8 dereferenceable(352) %0, ptr noundef nonnull align 8 dereferenceable(248) %1, ptr noundef nonnull align 1 %2, ptr noundef nonnull align 1 %3) local_unnamed_addr #0 comdat align 2 {
  %5 = getelementptr inbounds i8, ptr %0, i64 224
  %6 = getelementptr inbounds %"class.dealii::MGTransferSelect", ptr %0, i64 0, i32 2
  %7 = load i32, ptr %6, align 8, !tbaa !14
  %8 = zext i32 %7 to i64
  %9 = load ptr, ptr %5, align 8, !tbaa !58
  %10 = getelementptr inbounds i32, ptr %9, i64 %8
  %11 = load i32, ptr %10, align 4, !tbaa !59
  tail call void @_ZNK6dealii16MGTransferSelectIfE13do_copy_to_mgILi3ENS_6VectorIdEELi3EEEvRKNS_12MGDoFHandlerIXT_EXT1_EEERNS_13MGLevelObjectINS3_IfEEEERKT0_j(ptr noundef nonnull align 8 dereferenceable(352) %0, ptr noundef nonnull align 8 dereferenceable(248) %1, ptr noundef nonnull align 1 %2, ptr noundef nonnull align 1 %3, i32 noundef %11)
  ret void
}

; Function Attrs: sspstrong uwtable
define linkonce_odr dso_local void @_ZNK6dealii16MGTransferSelectIfE13do_copy_to_mgILi3ENS_6VectorIdEELi3EEEvRKNS_12MGDoFHandlerIXT_EXT1_EEERNS_13MGLevelObjectINS3_IfEEEERKT0_j(ptr noundef nonnull align 8 dereferenceable(352) %0, ptr noundef nonnull align 8 dereferenceable(248) %1, ptr noundef nonnull align 1 %2, ptr noundef nonnull align 1 %3, i32 noundef %4) local_unnamed_addr #0 comdat align 2 personality ptr @__gxx_personality_v0 {
  %6 = alloca %"class.std::vector.20", align 8
  %7 = alloca %"class.dealii::TriaActiveIterator", align 8
  %8 = alloca %"class.dealii::TriaActiveIterator", align 8
  %9 = getelementptr inbounds %"class.dealii::DoFHandler", ptr %1, i64 0, i32 2
  %10 = load ptr, ptr %9, align 8, !tbaa !5
  %11 = getelementptr inbounds i8, ptr %10, i64 112
  %12 = load i32, ptr %11, align 8, !tbaa !60
  %13 = getelementptr inbounds %"class.dealii::MGLevelObject", ptr %2, i64 0, i32 1
  %14 = load i32, ptr %13, align 8, !tbaa !152
  %15 = getelementptr inbounds %"class.dealii::MGLevelObject", ptr %2, i64 0, i32 2
  %16 = getelementptr inbounds %"class.dealii::MGLevelObject", ptr %2, i64 0, i32 2, i32 0, i32 0, i32 0, i32 1
  %17 = load ptr, ptr %16, align 8, !tbaa !69
  %18 = load ptr, ptr %15, align 8, !tbaa !69
  %19 = ptrtoint ptr %17 to i64
  %20 = ptrtoint ptr %18 to i64
  %21 = sub i64 %19, %20
  %22 = lshr exact i64 %21, 4
  %23 = trunc i64 %22 to i32
  %24 = add i32 %14, -1
  %25 = add i32 %24, %23
  %26 = icmp eq ptr %18, %17
  br i1 %26, label %41, label %27

27:                                               ; preds = %5, %38
  %28 = phi ptr [ %39, %38 ], [ %18, %5 ]
  %29 = load ptr, ptr %28, align 8, !tbaa !158
  %30 = getelementptr inbounds %"class.dealii::Vector.252", ptr %29, i64 0, i32 1
  %31 = load i32, ptr %30, align 8, !tbaa !160
  %32 = icmp eq i32 %31, 0
  br i1 %32, label %38, label %33

33:                                               ; preds = %27
  %34 = getelementptr inbounds %"class.dealii::Vector.252", ptr %29, i64 0, i32 3
  %35 = load ptr, ptr %34, align 8, !tbaa !162
  %36 = zext i32 %31 to i64
  %37 = shl nuw nsw i64 %36, 2
  tail call void @llvm.memset.p0.i64(ptr align 4 %35, i8 0, i64 %37, i1 false), !tbaa !163
  br label %38

38:                                               ; preds = %33, %27
  %39 = getelementptr inbounds %"class.boost::shared_ptr.254", ptr %28, i64 1
  %40 = icmp eq ptr %39, %17
  br i1 %40, label %41, label %27

41:                                               ; preds = %38, %5
  %42 = getelementptr inbounds i8, ptr %0, i64 112
  %43 = getelementptr inbounds i8, ptr %0, i64 176
  %44 = getelementptr inbounds i8, ptr %0, i64 200
  tail call void @_ZN6dealii7MGTools27reinit_vector_by_componentsILi3EfLi3EEEvRKNS_12MGDoFHandlerIXT_EXT1_EEERNS_13MGLevelObjectINS_6VectorIT0_EEEERKSt6vectorIbSaIbEERKSC_IjSaIjEERSC_ISI_SaISI_EE(ptr noundef nonnull align 8 dereferenceable(248) %1, ptr noundef nonnull align 8 dereferenceable(104) %2, ptr noundef nonnull align 8 dereferenceable(40) %42, ptr noundef nonnull align 8 dereferenceable(24) %43, ptr noundef nonnull align 8 dereferenceable(24) %44)
  %45 = zext i32 %12 to i64
  %46 = icmp eq i32 %12, 0
  br i1 %46, label %47, label %48

47:                                               ; preds = %41
  call void @llvm.lifetime.start.p0(i64 24, ptr nonnull %6) #15
  call void @llvm.memset.p0.i64(ptr noundef nonnull align 8 dereferenceable(24) %6, i8 0, i64 24, i1 false)
  br label %140

48:                                               ; preds = %41
  %49 = shl nuw nsw i64 %45, 2
  %50 = tail call noalias noundef nonnull ptr @_Znwm(i64 noundef %49) #16
  tail call void @llvm.memset.p0.i64(ptr nonnull align 4 %50, i8 0, i64 %49, i1 false), !tbaa !59
  call void @llvm.lifetime.start.p0(i64 24, ptr nonnull %6) #15
  %51 = invoke noalias noundef nonnull ptr @_Znwm(i64 noundef %49) #16
          to label %52 unwind label %61

52:                                               ; preds = %48
  store ptr %51, ptr %6, align 8, !tbaa !58
  %53 = getelementptr inbounds i32, ptr %51, i64 %45
  %54 = getelementptr inbounds %"struct.std::_Vector_base<unsigned int, std::allocator<unsigned int> >::_Vector_impl_data", ptr %6, i64 0, i32 2
  store ptr %53, ptr %54, align 8, !tbaa !61
  tail call void @llvm.memset.p0.i64(ptr nonnull align 4 %51, i8 0, i64 %49, i1 false), !tbaa !59
  %55 = getelementptr inbounds %"struct.std::_Vector_base<unsigned int, std::allocator<unsigned int> >::_Vector_impl_data", ptr %6, i64 0, i32 1
  store ptr %53, ptr %55, align 8, !tbaa !57
  %56 = shl nuw nsw i64 %45, 2
  %57 = invoke noalias noundef nonnull ptr @_Znwm(i64 noundef %56) #16
          to label %58 unwind label %63

58:                                               ; preds = %52
  %59 = getelementptr inbounds i32, ptr %57, i64 %45
  %60 = getelementptr inbounds %"class.dealii::FiniteElement", ptr %10, i64 0, i32 12
  br label %65

61:                                               ; preds = %48
  %62 = landingpad { ptr, i32 }
          cleanup
  call void @llvm.lifetime.end.p0(i64 24, ptr nonnull %6) #15
  br label %414

63:                                               ; preds = %52
  %64 = landingpad { ptr, i32 }
          cleanup
  br label %406

65:                                               ; preds = %58, %134
  %66 = phi i64 [ 0, %58 ], [ %138, %134 ]
  %67 = phi ptr [ %57, %58 ], [ %137, %134 ]
  %68 = phi ptr [ %59, %58 ], [ %136, %134 ]
  %69 = phi ptr [ %57, %58 ], [ %135, %134 ]
  %70 = load ptr, ptr %60, align 8, !tbaa !79
  %71 = getelementptr inbounds %"struct.std::pair", ptr %70, i64 %66
  %72 = load i64, ptr %71, align 4
  %73 = and i64 %72, 4294967295
  %74 = load ptr, ptr %43, align 8, !tbaa !58
  %75 = getelementptr inbounds i32, ptr %74, i64 %73
  %76 = load i32, ptr %75, align 4, !tbaa !59
  %77 = load ptr, ptr %42, align 8, !tbaa !55
  %78 = lshr i32 %76, 6
  %79 = zext i32 %78 to i64
  %80 = getelementptr inbounds i64, ptr %77, i64 %79
  %81 = and i32 %76, 63
  %82 = zext i32 %81 to i64
  %83 = shl nuw i64 1, %82
  %84 = load i64, ptr %80, align 8, !tbaa !56
  %85 = and i64 %83, %84
  %86 = icmp eq i64 %85, 0
  br i1 %86, label %134, label %87

87:                                               ; preds = %65
  %88 = icmp eq ptr %69, %68
  br i1 %88, label %92, label %89

89:                                               ; preds = %87
  %90 = trunc i64 %66 to i32
  store i32 %90, ptr %69, align 4, !tbaa !59
  %91 = getelementptr inbounds i32, ptr %69, i64 1
  br label %134

92:                                               ; preds = %87
  %93 = ptrtoint ptr %68 to i64
  %94 = ptrtoint ptr %67 to i64
  %95 = sub i64 %93, %94
  %96 = icmp eq i64 %95, 9223372036854775804
  br i1 %96, label %97, label %99

97:                                               ; preds = %92
  invoke void @_ZSt20__throw_length_errorPKc(ptr noundef nonnull @.str.11) #19
          to label %98 unwind label %132

98:                                               ; preds = %97
  unreachable

99:                                               ; preds = %92
  %100 = ashr exact i64 %95, 2
  %101 = tail call i64 @llvm.umax.i64(i64 %100, i64 1)
  %102 = add i64 %101, %100
  %103 = icmp ult i64 %102, %100
  %104 = icmp ugt i64 %102, 2305843009213693951
  %105 = or i1 %103, %104
  %106 = select i1 %105, i64 2305843009213693951, i64 %102
  %107 = icmp eq i64 %106, 0
  br i1 %107, label %111, label %108

108:                                              ; preds = %99
  %109 = shl nuw nsw i64 %106, 2
  %110 = invoke noalias noundef nonnull ptr @_Znwm(i64 noundef %109) #16
          to label %111 unwind label %130

111:                                              ; preds = %108, %99
  %112 = phi ptr [ null, %99 ], [ %110, %108 ]
  %113 = getelementptr inbounds i32, ptr %112, i64 %100
  %114 = trunc i64 %66 to i32
  store i32 %114, ptr %113, align 4, !tbaa !59
  %115 = icmp sgt i64 %95, 4
  br i1 %115, label %116, label %117, !prof !86

116:                                              ; preds = %111
  tail call void @llvm.memmove.p0.p0.i64(ptr nonnull align 4 %112, ptr align 4 %67, i64 %95, i1 false)
  br label %122

117:                                              ; preds = %111
  %118 = icmp eq i64 %95, 4
  br i1 %118, label %119, label %122

119:                                              ; preds = %117
  %120 = load i32, ptr %67, align 4, !tbaa !59
  store i32 %120, ptr %112, align 4, !tbaa !59
  %121 = getelementptr inbounds i32, ptr %113, i64 1
  br label %125

122:                                              ; preds = %117, %116
  %123 = getelementptr inbounds i32, ptr %113, i64 1
  %124 = icmp eq ptr %67, null
  br i1 %124, label %127, label %125

125:                                              ; preds = %119, %122
  %126 = phi ptr [ %121, %119 ], [ %123, %122 ]
  tail call void @_ZdlPv(ptr noundef nonnull %67) #17
  br label %127

127:                                              ; preds = %125, %122
  %128 = phi ptr [ %123, %122 ], [ %126, %125 ]
  %129 = getelementptr inbounds i32, ptr %112, i64 %106
  br label %134

130:                                              ; preds = %108
  %131 = landingpad { ptr, i32 }
          cleanup
  br label %400

132:                                              ; preds = %97
  %133 = landingpad { ptr, i32 }
          cleanup
  br label %400

134:                                              ; preds = %127, %89, %65
  %135 = phi ptr [ %69, %65 ], [ %128, %127 ], [ %91, %89 ]
  %136 = phi ptr [ %68, %65 ], [ %129, %127 ], [ %68, %89 ]
  %137 = phi ptr [ %67, %65 ], [ %112, %127 ], [ %67, %89 ]
  %138 = add nuw nsw i64 %66, 1
  %139 = icmp eq i64 %138, %45
  br i1 %139, label %140, label %65

140:                                              ; preds = %134, %47
  %141 = phi ptr [ null, %47 ], [ %50, %134 ]
  %142 = phi ptr [ null, %47 ], [ %135, %134 ]
  %143 = phi ptr [ null, %47 ], [ %137, %134 ]
  %144 = icmp slt i32 %25, %14
  br i1 %144, label %392, label %145

145:                                              ; preds = %140
  %146 = load ptr, ptr %43, align 8, !tbaa !58
  %147 = getelementptr inbounds %"class.dealii::FiniteElement", ptr %10, i64 0, i32 12
  %148 = load ptr, ptr %147, align 8, !tbaa !79
  %149 = load i32, ptr %143, align 4, !tbaa !59
  %150 = zext i32 %149 to i64
  %151 = getelementptr inbounds %"struct.std::pair", ptr %148, i64 %150
  %152 = load i64, ptr %151, align 4
  %153 = and i64 %152, 4294967295
  %154 = getelementptr inbounds i32, ptr %146, i64 %153
  %155 = load i32, ptr %154, align 4, !tbaa !59
  %156 = getelementptr inbounds %"class.dealii::TriaAccessorBase", ptr %7, i64 0, i32 1
  %157 = getelementptr inbounds %"class.dealii::TriaAccessorBase", ptr %8, i64 0, i32 1
  %158 = getelementptr inbounds %"class.dealii::DoFAccessor", ptr %7, i64 0, i32 1
  %159 = getelementptr inbounds i8, ptr %0, i64 248
  %160 = zext i32 %155 to i64
  %161 = icmp eq ptr %143, %142
  %162 = getelementptr inbounds %"class.dealii::Vector", ptr %3, i64 0, i32 3
  %163 = getelementptr inbounds %"class.dealii::TriaAccessorBase", ptr %7, i64 0, i32 2
  %164 = sext i32 %25 to i64
  %165 = sext i32 %14 to i64
  br label %166

166:                                              ; preds = %145, %387
  %167 = phi i64 [ %164, %145 ], [ %388, %387 ]
  call void @llvm.lifetime.start.p0(i64 32, ptr nonnull %7) #15
  %168 = trunc i64 %167 to i32
  invoke void @_ZNK6dealii12MGDoFHandlerILi3ELi3EE12begin_activeEj(ptr nonnull sret(%"class.dealii::TriaActiveIterator") align 8 %7, ptr noundef nonnull align 8 dereferenceable(248) %1, i32 noundef %168)
          to label %169 unwind label %343

169:                                              ; preds = %166
  call void @llvm.lifetime.start.p0(i64 32, ptr nonnull %8) #15
  invoke void @_ZNK6dealii12MGDoFHandlerILi3ELi3EE10end_activeEj(ptr nonnull sret(%"class.dealii::TriaActiveIterator") align 8 %8, ptr noundef nonnull align 8 dereferenceable(248) %1, i32 noundef %168)
          to label %170 unwind label %347

170:                                              ; preds = %169
  %171 = load i32, ptr %156, align 4, !tbaa !64
  %172 = load i32, ptr %157, align 4, !tbaa !64
  %173 = icmp ne i32 %171, %172
  %174 = load i32, ptr %7, align 8
  %175 = load i32, ptr %8, align 8
  %176 = icmp ne i32 %174, %175
  %177 = select i1 %173, i1 true, i1 %176
  br i1 %177, label %178, label %369

178:                                              ; preds = %170, %337
  %179 = phi i32 [ %300, %337 ], [ %174, %170 ]
  %180 = phi i32 [ %302, %337 ], [ %171, %170 ]
  %181 = load ptr, ptr %158, align 8, !tbaa !165
  %182 = getelementptr inbounds %"class.dealii::DoFHandler", ptr %181, i64 0, i32 2
  %183 = load ptr, ptr %182, align 8, !tbaa !5
  %184 = getelementptr inbounds i8, ptr %183, i64 112
  %185 = load i32, ptr %184, align 8, !tbaa !60
  %186 = icmp eq i32 %185, 0
  br i1 %186, label %207, label %187

187:                                              ; preds = %178
  %188 = getelementptr inbounds %"class.dealii::DoFHandler", ptr %181, i64 0, i32 3
  %189 = load ptr, ptr %188, align 8, !tbaa !169
  %190 = sext i32 %179 to i64
  %191 = getelementptr inbounds ptr, ptr %189, i64 %190
  %192 = load ptr, ptr %191, align 8, !tbaa !69
  %193 = load ptr, ptr %192, align 8, !tbaa !58
  %194 = mul i32 %185, %180
  %195 = zext i32 %194 to i64
  %196 = getelementptr inbounds i32, ptr %193, i64 %195
  br label %197

197:                                              ; preds = %197, %187
  %198 = phi i64 [ 0, %187 ], [ %202, %197 ]
  %199 = phi ptr [ %196, %187 ], [ %203, %197 ]
  %200 = load i32, ptr %199, align 4, !tbaa !59
  %201 = getelementptr inbounds i32, ptr %141, i64 %198
  store i32 %200, ptr %201, align 4, !tbaa !59
  %202 = add nuw nsw i64 %198, 1
  %203 = getelementptr inbounds i32, ptr %199, i64 1
  %204 = load i32, ptr %184, align 8, !tbaa !60
  %205 = zext i32 %204 to i64
  %206 = icmp ult i64 %202, %205
  br i1 %206, label %197, label %207

207:                                              ; preds = %197, %178
  invoke void @_ZNK6dealii17MGDoFCellAccessorILi3ELi3EE18get_mg_dof_indicesERSt6vectorIjSaIjEE(ptr noundef nonnull align 8 dereferenceable(32) %7, ptr noundef nonnull align 8 dereferenceable(24) %6)
          to label %208 unwind label %345

208:                                              ; preds = %207
  %209 = load ptr, ptr %159, align 8, !tbaa !81
  %210 = getelementptr inbounds %"class.std::vector.20", ptr %209, i64 %167
  %211 = load ptr, ptr %210, align 8, !tbaa !58
  %212 = getelementptr inbounds i32, ptr %211, i64 %160
  %213 = load i32, ptr %212, align 4, !tbaa !59
  br i1 %161, label %225, label %214

214:                                              ; preds = %208
  %215 = load ptr, ptr %162, align 8, !tbaa !171
  %216 = load i32, ptr %13, align 8, !tbaa !152
  %217 = sub i32 %168, %216
  %218 = zext i32 %217 to i64
  %219 = load ptr, ptr %15, align 8, !tbaa !173
  %220 = getelementptr inbounds %"class.boost::shared_ptr.254", ptr %219, i64 %218
  %221 = load ptr, ptr %220, align 8, !tbaa !158
  %222 = load ptr, ptr %6, align 8, !tbaa !58
  %223 = getelementptr inbounds %"class.dealii::Vector.252", ptr %221, i64 0, i32 3
  %224 = load ptr, ptr %223, align 8, !tbaa !162
  br label %351

225:                                              ; preds = %351, %208
  %226 = load ptr, ptr %163, align 8, !tbaa !66
  %227 = getelementptr inbounds %"class.dealii::Triangulation", ptr %226, i64 0, i32 1
  %228 = load ptr, ptr %227, align 8, !tbaa !67
  %229 = ptrtoint ptr %228 to i64
  %230 = getelementptr inbounds %"class.dealii::Triangulation", ptr %226, i64 0, i32 1, i32 0, i32 0, i32 0, i32 1
  %231 = load i32, ptr %7, align 8
  %232 = load i32, ptr %156, align 4
  br label %233

233:                                              ; preds = %321, %225
  %234 = phi i32 [ %231, %225 ], [ %300, %321 ]
  %235 = phi i32 [ %231, %225 ], [ %301, %321 ]
  %236 = phi i32 [ %231, %225 ], [ %322, %321 ]
  %237 = phi i32 [ %232, %225 ], [ %302, %321 ]
  %238 = add nsw i32 %237, 1
  %239 = sext i32 %236 to i64
  %240 = getelementptr inbounds ptr, ptr %228, i64 %239
  %241 = load ptr, ptr %240, align 8, !tbaa !69
  %242 = getelementptr inbounds %"class.dealii::internal::Triangulation::TriaLevel", ptr %241, i64 0, i32 4
  %243 = getelementptr inbounds %"class.dealii::internal::Triangulation::TriaLevel", ptr %241, i64 0, i32 4, i32 0, i32 0, i32 0, i32 0, i32 0, i32 1
  %244 = load ptr, ptr %243, align 8, !tbaa !70
  %245 = load ptr, ptr %242, align 8, !tbaa !72
  %246 = ptrtoint ptr %244 to i64
  %247 = ptrtoint ptr %245 to i64
  %248 = sub i64 %246, %247
  %249 = sdiv exact i64 %248, 24
  %250 = trunc i64 %249 to i32
  %251 = icmp slt i32 %238, %250
  br i1 %251, label %299, label %252

252:                                              ; preds = %233
  %253 = add nsw i64 %239, 1
  %254 = trunc i64 %253 to i32
  store i32 %254, ptr %7, align 8, !tbaa !73
  %255 = load ptr, ptr %230, align 8, !tbaa !74
  %256 = ptrtoint ptr %255 to i64
  %257 = sub i64 %256, %229
  %258 = shl i64 %257, 29
  %259 = ashr i64 %258, 32
  %260 = icmp slt i64 %253, %259
  br i1 %260, label %261, label %293

261:                                              ; preds = %252
  %262 = getelementptr inbounds ptr, ptr %228, i64 %253
  %263 = load ptr, ptr %262, align 8, !tbaa !69
  %264 = getelementptr inbounds %"class.dealii::internal::Triangulation::TriaLevel", ptr %263, i64 0, i32 4
  %265 = getelementptr inbounds %"class.dealii::internal::Triangulation::TriaLevel", ptr %263, i64 0, i32 4, i32 0, i32 0, i32 0, i32 0, i32 0, i32 1
  %266 = load ptr, ptr %265, align 8, !tbaa !70
  %267 = load ptr, ptr %264, align 8, !tbaa !72
  %268 = ptrtoint ptr %266 to i64
  %269 = ptrtoint ptr %267 to i64
  %270 = sub i64 %268, %269
  %271 = sdiv exact i64 %270, 24
  %272 = trunc i64 %271 to i32
  %273 = icmp sgt i32 %272, 0
  br i1 %273, label %295, label %287

274:                                              ; preds = %287
  %275 = getelementptr inbounds ptr, ptr %228, i64 %289
  %276 = load ptr, ptr %275, align 8, !tbaa !69
  %277 = getelementptr inbounds %"class.dealii::internal::Triangulation::TriaLevel", ptr %276, i64 0, i32 4
  %278 = getelementptr inbounds %"class.dealii::internal::Triangulation::TriaLevel", ptr %276, i64 0, i32 4, i32 0, i32 0, i32 0, i32 0, i32 0, i32 1
  %279 = load ptr, ptr %278, align 8, !tbaa !70
  %280 = load ptr, ptr %277, align 8, !tbaa !72
  %281 = ptrtoint ptr %279 to i64
  %282 = ptrtoint ptr %280 to i64
  %283 = sub i64 %281, %282
  %284 = sdiv exact i64 %283, 24
  %285 = trunc i64 %284 to i32
  %286 = icmp sgt i32 %285, 0
  br i1 %286, label %294, label %287, !llvm.loop !75

287:                                              ; preds = %261, %274
  %288 = phi i64 [ %289, %274 ], [ %253, %261 ]
  %289 = add i64 %288, 1
  %290 = trunc i64 %289 to i32
  %291 = icmp eq i64 %289, %259
  br i1 %291, label %292, label %274, !llvm.loop !75

292:                                              ; preds = %287
  store i32 %290, ptr %7, align 8, !tbaa !73
  br label %293

293:                                              ; preds = %292, %252
  store i32 -1, ptr %7, align 8, !tbaa !73
  br label %299

294:                                              ; preds = %274
  store i32 %290, ptr %7, align 8, !tbaa !73
  br label %295

295:                                              ; preds = %294, %261
  %296 = phi i32 [ %254, %261 ], [ %290, %294 ]
  %297 = phi i64 [ %253, %261 ], [ %289, %294 ]
  %298 = trunc i64 %297 to i32
  br label %299

299:                                              ; preds = %295, %293, %233
  %300 = phi i32 [ %234, %233 ], [ -1, %293 ], [ %296, %295 ]
  %301 = phi i32 [ %235, %233 ], [ -1, %293 ], [ %298, %295 ]
  %302 = phi i32 [ %238, %233 ], [ -1, %293 ], [ 0, %295 ]
  %303 = phi i32 [ %236, %233 ], [ -1, %293 ], [ %298, %295 ]
  %304 = or i32 %303, %302
  %305 = icmp sgt i32 %304, -1
  br i1 %305, label %306, label %323

306:                                              ; preds = %299
  %307 = zext i32 %303 to i64
  %308 = getelementptr inbounds ptr, ptr %228, i64 %307
  %309 = load ptr, ptr %308, align 8, !tbaa !69
  %310 = getelementptr inbounds %"class.dealii::internal::Triangulation::TriaLevel", ptr %309, i64 0, i32 4, i32 0, i32 3
  %311 = load ptr, ptr %310, align 8, !tbaa !55
  %312 = lshr i32 %302, 6
  %313 = zext i32 %312 to i64
  %314 = getelementptr inbounds i64, ptr %311, i64 %313
  %315 = and i32 %302, 63
  %316 = zext i32 %315 to i64
  %317 = shl nuw i64 1, %316
  %318 = load i64, ptr %314, align 8, !tbaa !56
  %319 = and i64 %318, %317
  %320 = icmp eq i64 %319, 0
  br i1 %320, label %321, label %323

321:                                              ; preds = %306, %326
  %322 = phi i32 [ %303, %306 ], [ %301, %326 ]
  br label %233

323:                                              ; preds = %306, %299
  store i32 %302, ptr %156, align 4, !tbaa !64
  %324 = or i32 %302, %301
  %325 = icmp sgt i32 %324, -1
  br i1 %325, label %326, label %337

326:                                              ; preds = %323
  %327 = zext i32 %301 to i64
  %328 = getelementptr inbounds ptr, ptr %228, i64 %327
  %329 = load ptr, ptr %328, align 8, !tbaa !69
  %330 = getelementptr inbounds %"class.dealii::internal::Triangulation::TriaLevel", ptr %329, i64 0, i32 4, i32 0, i32 1
  %331 = shl i32 %302, 2
  %332 = zext i32 %331 to i64
  %333 = load ptr, ptr %330, align 8, !tbaa !77
  %334 = getelementptr inbounds i32, ptr %333, i64 %332
  %335 = load i32, ptr %334, align 4, !tbaa !59
  %336 = icmp eq i32 %335, -1
  br i1 %336, label %337, label %321

337:                                              ; preds = %323, %326
  %338 = load i32, ptr %157, align 4, !tbaa !64
  %339 = icmp ne i32 %302, %338
  %340 = load i32, ptr %8, align 8
  %341 = icmp ne i32 %300, %340
  %342 = select i1 %339, i1 true, i1 %341
  br i1 %342, label %178, label %369

343:                                              ; preds = %166
  %344 = landingpad { ptr, i32 }
          cleanup
  br label %390

345:                                              ; preds = %207
  %346 = landingpad { ptr, i32 }
          cleanup
  br label %349

347:                                              ; preds = %169, %371
  %348 = landingpad { ptr, i32 }
          cleanup
  br label %349

349:                                              ; preds = %347, %345
  %350 = phi { ptr, i32 } [ %346, %345 ], [ %348, %347 ]
  call void @llvm.lifetime.end.p0(i64 32, ptr nonnull %8) #15
  br label %390

351:                                              ; preds = %214, %351
  %352 = phi ptr [ %143, %214 ], [ %367, %351 ]
  %353 = load i32, ptr %352, align 4, !tbaa !59
  %354 = zext i32 %353 to i64
  %355 = getelementptr inbounds i32, ptr %141, i64 %354
  %356 = load i32, ptr %355, align 4, !tbaa !59
  %357 = sub i32 %356, %4
  %358 = zext i32 %357 to i64
  %359 = getelementptr inbounds double, ptr %215, i64 %358
  %360 = load double, ptr %359, align 8, !tbaa !130
  %361 = fptrunc double %360 to float
  %362 = getelementptr inbounds i32, ptr %222, i64 %354
  %363 = load i32, ptr %362, align 4, !tbaa !59
  %364 = sub i32 %363, %213
  %365 = zext i32 %364 to i64
  %366 = getelementptr inbounds float, ptr %224, i64 %365
  store float %361, ptr %366, align 4, !tbaa !163
  %367 = getelementptr inbounds i32, ptr %352, i64 1
  %368 = icmp eq ptr %367, %142
  br i1 %368, label %225, label %351

369:                                              ; preds = %337, %170
  %370 = icmp ugt i32 %25, %168
  br i1 %370, label %371, label %387

371:                                              ; preds = %369
  %372 = load i32, ptr %13, align 8, !tbaa !152
  %373 = sub i32 %168, %372
  %374 = zext i32 %373 to i64
  %375 = load ptr, ptr %15, align 8, !tbaa !173
  %376 = getelementptr inbounds %"class.boost::shared_ptr.254", ptr %375, i64 %374
  %377 = load ptr, ptr %376, align 8, !tbaa !158
  %378 = trunc i64 %167 to i32
  %379 = add i32 %378, 1
  %380 = sub i32 %379, %372
  %381 = zext i32 %380 to i64
  %382 = getelementptr inbounds %"class.boost::shared_ptr.254", ptr %375, i64 %381
  %383 = load ptr, ptr %382, align 8, !tbaa !158
  %384 = load ptr, ptr %0, align 8, !tbaa !103
  %385 = getelementptr inbounds ptr, ptr %384, i64 3
  %386 = load ptr, ptr %385, align 8
  invoke void %386(ptr noundef nonnull align 8 dereferenceable(352) %0, i32 noundef %379, ptr noundef nonnull align 8 dereferenceable(88) %377, ptr noundef nonnull align 8 dereferenceable(88) %383)
          to label %387 unwind label %347

387:                                              ; preds = %371, %369
  call void @llvm.lifetime.end.p0(i64 32, ptr nonnull %8) #15
  call void @llvm.lifetime.end.p0(i64 32, ptr nonnull %7) #15
  %388 = add nsw i64 %167, -1
  %389 = icmp sgt i64 %167, %165
  br i1 %389, label %166, label %392

390:                                              ; preds = %349, %343
  %391 = phi { ptr, i32 } [ %350, %349 ], [ %344, %343 ]
  call void @llvm.lifetime.end.p0(i64 32, ptr nonnull %7) #15
  br label %400

392:                                              ; preds = %387, %140
  call void @_ZdlPv(ptr noundef nonnull %143) #17
  %393 = load ptr, ptr %6, align 8, !tbaa !58
  %394 = icmp eq ptr %393, null
  br i1 %394, label %396, label %395

395:                                              ; preds = %392
  call void @_ZdlPv(ptr noundef nonnull %393) #17
  br label %396

396:                                              ; preds = %395, %392
  call void @llvm.lifetime.end.p0(i64 24, ptr nonnull %6) #15
  %397 = icmp eq ptr %141, null
  br i1 %397, label %399, label %398

398:                                              ; preds = %396
  call void @_ZdlPv(ptr noundef nonnull %141) #17
  br label %399

399:                                              ; preds = %396, %398
  ret void

400:                                              ; preds = %130, %132, %390
  %401 = phi ptr [ %141, %390 ], [ %50, %130 ], [ %50, %132 ]
  %402 = phi ptr [ %143, %390 ], [ %67, %130 ], [ %67, %132 ]
  %403 = phi { ptr, i32 } [ %391, %390 ], [ %131, %130 ], [ %133, %132 ]
  %404 = icmp eq ptr %402, null
  br i1 %404, label %406, label %405

405:                                              ; preds = %400
  call void @_ZdlPv(ptr noundef nonnull %402) #17
  br label %406

406:                                              ; preds = %405, %400, %63
  %407 = phi ptr [ %50, %63 ], [ %401, %400 ], [ %401, %405 ]
  %408 = phi { ptr, i32 } [ %64, %63 ], [ %403, %400 ], [ %403, %405 ]
  %409 = load ptr, ptr %6, align 8, !tbaa !58
  %410 = icmp eq ptr %409, null
  br i1 %410, label %412, label %411

411:                                              ; preds = %406
  call void @_ZdlPv(ptr noundef nonnull %409) #17
  br label %412

412:                                              ; preds = %411, %406
  call void @llvm.lifetime.end.p0(i64 24, ptr nonnull %6) #15
  %413 = icmp eq ptr %407, null
  br i1 %413, label %417, label %414

414:                                              ; preds = %61, %412
  %415 = phi { ptr, i32 } [ %62, %61 ], [ %408, %412 ]
  %416 = phi ptr [ %50, %61 ], [ %407, %412 ]
  call void @_ZdlPv(ptr noundef nonnull %416) #17
  br label %417

417:                                              ; preds = %414, %412
  %418 = phi { ptr, i32 } [ %408, %412 ], [ %415, %414 ]
  resume { ptr, i32 } %418
}

; Function Attrs: sspstrong uwtable
define weak_odr dso_local void @_ZNK6dealii16MGTransferSelectIfE10copy_to_mgILi3EdLi3EEEvRKNS_12MGDoFHandlerIXT_EXT1_EEERNS_13MGLevelObjectINS_6VectorIfEEEERKNS_11BlockVectorIT0_EE(ptr noundef nonnull align 8 dereferenceable(352) %0, ptr noundef nonnull align 8 dereferenceable(248) %1, ptr noundef nonnull align 1 %2, ptr noundef nonnull align 1 %3) local_unnamed_addr #0 comdat align 2 {
  tail call void @_ZNK6dealii16MGTransferSelectIfE13do_copy_to_mgILi3ENS_11BlockVectorIdEELi3EEEvRKNS_12MGDoFHandlerIXT_EXT1_EEERNS_13MGLevelObjectINS_6VectorIfEEEERKT0_j(ptr noundef nonnull align 8 dereferenceable(352) %0, ptr noundef nonnull align 8 dereferenceable(248) %1, ptr noundef nonnull align 1 %2, ptr noundef nonnull align 1 %3, i32 noundef 0)
  ret void
}

; Function Attrs: sspstrong uwtable
define linkonce_odr dso_local void @_ZNK6dealii16MGTransferSelectIfE13do_copy_to_mgILi3ENS_11BlockVectorIdEELi3EEEvRKNS_12MGDoFHandlerIXT_EXT1_EEERNS_13MGLevelObjectINS_6VectorIfEEEERKT0_j(ptr noundef nonnull align 8 dereferenceable(352) %0, ptr noundef nonnull align 8 dereferenceable(248) %1, ptr noundef nonnull align 1 %2, ptr noundef nonnull align 1 %3, i32 noundef %4) local_unnamed_addr #0 comdat align 2 personality ptr @__gxx_personality_v0 {
  %6 = alloca %"class.std::vector.20", align 8
  %7 = alloca %"class.dealii::TriaActiveIterator", align 8
  %8 = alloca %"class.dealii::TriaActiveIterator", align 8
  %9 = getelementptr inbounds %"class.dealii::DoFHandler", ptr %1, i64 0, i32 2
  %10 = load ptr, ptr %9, align 8, !tbaa !5
  %11 = getelementptr inbounds i8, ptr %10, i64 112
  %12 = load i32, ptr %11, align 8, !tbaa !60
  %13 = getelementptr inbounds %"class.dealii::MGLevelObject", ptr %2, i64 0, i32 1
  %14 = load i32, ptr %13, align 8, !tbaa !152
  %15 = getelementptr inbounds %"class.dealii::MGLevelObject", ptr %2, i64 0, i32 2
  %16 = getelementptr inbounds %"class.dealii::MGLevelObject", ptr %2, i64 0, i32 2, i32 0, i32 0, i32 0, i32 1
  %17 = load ptr, ptr %16, align 8, !tbaa !69
  %18 = load ptr, ptr %15, align 8, !tbaa !69
  %19 = ptrtoint ptr %17 to i64
  %20 = ptrtoint ptr %18 to i64
  %21 = sub i64 %19, %20
  %22 = lshr exact i64 %21, 4
  %23 = trunc i64 %22 to i32
  %24 = add i32 %14, -1
  %25 = add i32 %24, %23
  %26 = icmp eq ptr %18, %17
  br i1 %26, label %41, label %27

27:                                               ; preds = %5, %38
  %28 = phi ptr [ %39, %38 ], [ %18, %5 ]
  %29 = load ptr, ptr %28, align 8, !tbaa !158
  %30 = getelementptr inbounds %"class.dealii::Vector.252", ptr %29, i64 0, i32 1
  %31 = load i32, ptr %30, align 8, !tbaa !160
  %32 = icmp eq i32 %31, 0
  br i1 %32, label %38, label %33

33:                                               ; preds = %27
  %34 = getelementptr inbounds %"class.dealii::Vector.252", ptr %29, i64 0, i32 3
  %35 = load ptr, ptr %34, align 8, !tbaa !162
  %36 = zext i32 %31 to i64
  %37 = shl nuw nsw i64 %36, 2
  tail call void @llvm.memset.p0.i64(ptr align 4 %35, i8 0, i64 %37, i1 false), !tbaa !163
  br label %38

38:                                               ; preds = %33, %27
  %39 = getelementptr inbounds %"class.boost::shared_ptr.254", ptr %28, i64 1
  %40 = icmp eq ptr %39, %17
  br i1 %40, label %41, label %27

41:                                               ; preds = %38, %5
  %42 = getelementptr inbounds i8, ptr %0, i64 112
  %43 = getelementptr inbounds i8, ptr %0, i64 176
  %44 = getelementptr inbounds i8, ptr %0, i64 200
  tail call void @_ZN6dealii7MGTools27reinit_vector_by_componentsILi3EfLi3EEEvRKNS_12MGDoFHandlerIXT_EXT1_EEERNS_13MGLevelObjectINS_6VectorIT0_EEEERKSt6vectorIbSaIbEERKSC_IjSaIjEERSC_ISI_SaISI_EE(ptr noundef nonnull align 8 dereferenceable(248) %1, ptr noundef nonnull align 8 dereferenceable(104) %2, ptr noundef nonnull align 8 dereferenceable(40) %42, ptr noundef nonnull align 8 dereferenceable(24) %43, ptr noundef nonnull align 8 dereferenceable(24) %44)
  %45 = zext i32 %12 to i64
  %46 = icmp eq i32 %12, 0
  br i1 %46, label %47, label %48

47:                                               ; preds = %41
  call void @llvm.lifetime.start.p0(i64 24, ptr nonnull %6) #15
  call void @llvm.memset.p0.i64(ptr noundef nonnull align 8 dereferenceable(24) %6, i8 0, i64 24, i1 false)
  br label %140

48:                                               ; preds = %41
  %49 = shl nuw nsw i64 %45, 2
  %50 = tail call noalias noundef nonnull ptr @_Znwm(i64 noundef %49) #16
  tail call void @llvm.memset.p0.i64(ptr nonnull align 4 %50, i8 0, i64 %49, i1 false), !tbaa !59
  call void @llvm.lifetime.start.p0(i64 24, ptr nonnull %6) #15
  %51 = invoke noalias noundef nonnull ptr @_Znwm(i64 noundef %49) #16
          to label %52 unwind label %61

52:                                               ; preds = %48
  store ptr %51, ptr %6, align 8, !tbaa !58
  %53 = getelementptr inbounds i32, ptr %51, i64 %45
  %54 = getelementptr inbounds %"struct.std::_Vector_base<unsigned int, std::allocator<unsigned int> >::_Vector_impl_data", ptr %6, i64 0, i32 2
  store ptr %53, ptr %54, align 8, !tbaa !61
  tail call void @llvm.memset.p0.i64(ptr nonnull align 4 %51, i8 0, i64 %49, i1 false), !tbaa !59
  %55 = getelementptr inbounds %"struct.std::_Vector_base<unsigned int, std::allocator<unsigned int> >::_Vector_impl_data", ptr %6, i64 0, i32 1
  store ptr %53, ptr %55, align 8, !tbaa !57
  %56 = shl nuw nsw i64 %45, 2
  %57 = invoke noalias noundef nonnull ptr @_Znwm(i64 noundef %56) #16
          to label %58 unwind label %63

58:                                               ; preds = %52
  %59 = getelementptr inbounds i32, ptr %57, i64 %45
  %60 = getelementptr inbounds %"class.dealii::FiniteElement", ptr %10, i64 0, i32 12
  br label %65

61:                                               ; preds = %48
  %62 = landingpad { ptr, i32 }
          cleanup
  call void @llvm.lifetime.end.p0(i64 24, ptr nonnull %6) #15
  br label %430

63:                                               ; preds = %52
  %64 = landingpad { ptr, i32 }
          cleanup
  br label %422

65:                                               ; preds = %58, %134
  %66 = phi i64 [ 0, %58 ], [ %138, %134 ]
  %67 = phi ptr [ %57, %58 ], [ %137, %134 ]
  %68 = phi ptr [ %59, %58 ], [ %136, %134 ]
  %69 = phi ptr [ %57, %58 ], [ %135, %134 ]
  %70 = load ptr, ptr %60, align 8, !tbaa !79
  %71 = getelementptr inbounds %"struct.std::pair", ptr %70, i64 %66
  %72 = load i64, ptr %71, align 4
  %73 = and i64 %72, 4294967295
  %74 = load ptr, ptr %43, align 8, !tbaa !58
  %75 = getelementptr inbounds i32, ptr %74, i64 %73
  %76 = load i32, ptr %75, align 4, !tbaa !59
  %77 = load ptr, ptr %42, align 8, !tbaa !55
  %78 = lshr i32 %76, 6
  %79 = zext i32 %78 to i64
  %80 = getelementptr inbounds i64, ptr %77, i64 %79
  %81 = and i32 %76, 63
  %82 = zext i32 %81 to i64
  %83 = shl nuw i64 1, %82
  %84 = load i64, ptr %80, align 8, !tbaa !56
  %85 = and i64 %83, %84
  %86 = icmp eq i64 %85, 0
  br i1 %86, label %134, label %87

87:                                               ; preds = %65
  %88 = icmp eq ptr %69, %68
  br i1 %88, label %92, label %89

89:                                               ; preds = %87
  %90 = trunc i64 %66 to i32
  store i32 %90, ptr %69, align 4, !tbaa !59
  %91 = getelementptr inbounds i32, ptr %69, i64 1
  br label %134

92:                                               ; preds = %87
  %93 = ptrtoint ptr %68 to i64
  %94 = ptrtoint ptr %67 to i64
  %95 = sub i64 %93, %94
  %96 = icmp eq i64 %95, 9223372036854775804
  br i1 %96, label %97, label %99

97:                                               ; preds = %92
  invoke void @_ZSt20__throw_length_errorPKc(ptr noundef nonnull @.str.11) #19
          to label %98 unwind label %132

98:                                               ; preds = %97
  unreachable

99:                                               ; preds = %92
  %100 = ashr exact i64 %95, 2
  %101 = tail call i64 @llvm.umax.i64(i64 %100, i64 1)
  %102 = add i64 %101, %100
  %103 = icmp ult i64 %102, %100
  %104 = icmp ugt i64 %102, 2305843009213693951
  %105 = or i1 %103, %104
  %106 = select i1 %105, i64 2305843009213693951, i64 %102
  %107 = icmp eq i64 %106, 0
  br i1 %107, label %111, label %108

108:                                              ; preds = %99
  %109 = shl nuw nsw i64 %106, 2
  %110 = invoke noalias noundef nonnull ptr @_Znwm(i64 noundef %109) #16
          to label %111 unwind label %130

111:                                              ; preds = %108, %99
  %112 = phi ptr [ null, %99 ], [ %110, %108 ]
  %113 = getelementptr inbounds i32, ptr %112, i64 %100
  %114 = trunc i64 %66 to i32
  store i32 %114, ptr %113, align 4, !tbaa !59
  %115 = icmp sgt i64 %95, 4
  br i1 %115, label %116, label %117, !prof !86

116:                                              ; preds = %111
  tail call void @llvm.memmove.p0.p0.i64(ptr nonnull align 4 %112, ptr align 4 %67, i64 %95, i1 false)
  br label %122

117:                                              ; preds = %111
  %118 = icmp eq i64 %95, 4
  br i1 %118, label %119, label %122

119:                                              ; preds = %117
  %120 = load i32, ptr %67, align 4, !tbaa !59
  store i32 %120, ptr %112, align 4, !tbaa !59
  %121 = getelementptr inbounds i32, ptr %113, i64 1
  br label %125

122:                                              ; preds = %117, %116
  %123 = getelementptr inbounds i32, ptr %113, i64 1
  %124 = icmp eq ptr %67, null
  br i1 %124, label %127, label %125

125:                                              ; preds = %119, %122
  %126 = phi ptr [ %121, %119 ], [ %123, %122 ]
  tail call void @_ZdlPv(ptr noundef nonnull %67) #17
  br label %127

127:                                              ; preds = %125, %122
  %128 = phi ptr [ %123, %122 ], [ %126, %125 ]
  %129 = getelementptr inbounds i32, ptr %112, i64 %106
  br label %134

130:                                              ; preds = %108
  %131 = landingpad { ptr, i32 }
          cleanup
  br label %416

132:                                              ; preds = %97
  %133 = landingpad { ptr, i32 }
          cleanup
  br label %416

134:                                              ; preds = %127, %89, %65
  %135 = phi ptr [ %69, %65 ], [ %128, %127 ], [ %91, %89 ]
  %136 = phi ptr [ %68, %65 ], [ %129, %127 ], [ %68, %89 ]
  %137 = phi ptr [ %67, %65 ], [ %112, %127 ], [ %67, %89 ]
  %138 = add nuw nsw i64 %66, 1
  %139 = icmp eq i64 %138, %45
  br i1 %139, label %140, label %65

140:                                              ; preds = %134, %47
  %141 = phi ptr [ null, %47 ], [ %50, %134 ]
  %142 = phi ptr [ null, %47 ], [ %135, %134 ]
  %143 = phi ptr [ null, %47 ], [ %137, %134 ]
  %144 = icmp slt i32 %25, %14
  br i1 %144, label %408, label %145

145:                                              ; preds = %140
  %146 = load ptr, ptr %43, align 8, !tbaa !58
  %147 = getelementptr inbounds %"class.dealii::FiniteElement", ptr %10, i64 0, i32 12
  %148 = load ptr, ptr %147, align 8, !tbaa !79
  %149 = load i32, ptr %143, align 4, !tbaa !59
  %150 = zext i32 %149 to i64
  %151 = getelementptr inbounds %"struct.std::pair", ptr %148, i64 %150
  %152 = load i64, ptr %151, align 4
  %153 = and i64 %152, 4294967295
  %154 = getelementptr inbounds i32, ptr %146, i64 %153
  %155 = load i32, ptr %154, align 4, !tbaa !59
  %156 = getelementptr inbounds %"class.dealii::TriaAccessorBase", ptr %7, i64 0, i32 1
  %157 = getelementptr inbounds %"class.dealii::TriaAccessorBase", ptr %8, i64 0, i32 1
  %158 = getelementptr inbounds %"class.dealii::DoFAccessor", ptr %7, i64 0, i32 1
  %159 = getelementptr inbounds i8, ptr %0, i64 248
  %160 = zext i32 %155 to i64
  %161 = icmp eq ptr %143, %142
  %162 = getelementptr inbounds %"class.dealii::BlockVectorBase", ptr %3, i64 0, i32 2
  %163 = getelementptr inbounds %"class.dealii::BlockVectorBase", ptr %3, i64 0, i32 2, i32 1
  %164 = getelementptr inbounds %"class.dealii::BlockVectorBase", ptr %3, i64 0, i32 1
  %165 = getelementptr inbounds %"class.dealii::TriaAccessorBase", ptr %7, i64 0, i32 2
  %166 = sext i32 %25 to i64
  %167 = sext i32 %14 to i64
  br label %168

168:                                              ; preds = %145, %403
  %169 = phi i64 [ %166, %145 ], [ %404, %403 ]
  call void @llvm.lifetime.start.p0(i64 32, ptr nonnull %7) #15
  %170 = trunc i64 %169 to i32
