; ModuleID = 'source/fe/fe.cc'
source_filename = "source/fe/fe.cc"
target datalayout = "e-m:e-p270:32:32-p271:32:32-p272:64:64-i64:64-f80:128-n8:16:32:64-S128"
target triple = "x86_64-pc-linux-gnu"

module asm ".globl _ZSt21ios_base_library_initv"

%"class.dealii::FiniteElement<3, 3>::InternalDataBase" = type { %"class.dealii::Mapping<3, 3>::InternalDataBase.base", %"class.std::vector.29" }
%"class.dealii::Mapping<3, 3>::InternalDataBase.base" = type <{ %"class.dealii::Subscriptor", i32, i32, i32, [4 x i8], %"class.std::vector", %"class.std::vector.19", %"class.std::vector.24", %"class.std::vector.24", i8 }>
%"class.dealii::Subscriptor" = type { ptr, i32, %"class.std::map", ptr }
%"class.std::map" = type { %"class.std::_Rb_tree" }
%"class.std::_Rb_tree" = type { %"struct.std::_Rb_tree<const char *, std::pair<const char *const, unsigned int>, std::_Select1st<std::pair<const char *const, unsigned int> >, std::less<const char *> >::_Rb_tree_impl" }
%"struct.std::_Rb_tree<const char *, std::pair<const char *const, unsigned int>, std::_Select1st<std::pair<const char *const, unsigned int> >, std::less<const char *> >::_Rb_tree_impl" = type { %"struct.std::_Rb_tree_key_compare", %"struct.std::_Rb_tree_header" }
%"struct.std::_Rb_tree_key_compare" = type { %"struct.std::less" }
%"struct.std::less" = type { i8 }
%"struct.std::_Rb_tree_header" = type { %"struct.std::_Rb_tree_node_base", i64 }
%"struct.std::_Rb_tree_node_base" = type { i32, ptr, ptr, ptr }
%"class.std::vector" = type { %"struct.std::_Vector_base" }
%"struct.std::_Vector_base" = type { %"struct.std::_Vector_base<double, std::allocator<double> >::_Vector_impl" }
%"struct.std::_Vector_base<double, std::allocator<double> >::_Vector_impl" = type { %"struct.std::_Vector_base<double, std::allocator<double> >::_Vector_impl_data" }
%"struct.std::_Vector_base<double, std::allocator<double> >::_Vector_impl_data" = type { ptr, ptr, ptr }
%"class.std::vector.19" = type { %"struct.std::_Vector_base.20" }
%"struct.std::_Vector_base.20" = type { %"struct.std::_Vector_base<dealii::Point<3>, std::allocator<dealii::Point<3> > >::_Vector_impl" }
%"struct.std::_Vector_base<dealii::Point<3>, std::allocator<dealii::Point<3> > >::_Vector_impl" = type { %"struct.std::_Vector_base<dealii::Point<3>, std::allocator<dealii::Point<3> > >::_Vector_impl_data" }
%"struct.std::_Vector_base<dealii::Point<3>, std::allocator<dealii::Point<3> > >::_Vector_impl_data" = type { ptr, ptr, ptr }
%"class.std::vector.24" = type { %"struct.std::_Vector_base.25" }
%"struct.std::_Vector_base.25" = type { %"struct.std::_Vector_base<dealii::Tensor<2, 3>, std::allocator<dealii::Tensor<2, 3> > >::_Vector_impl" }
%"struct.std::_Vector_base<dealii::Tensor<2, 3>, std::allocator<dealii::Tensor<2, 3> > >::_Vector_impl" = type { %"struct.std::_Vector_base<dealii::Tensor<2, 3>, std::allocator<dealii::Tensor<2, 3> > >::_Vector_impl_data" }
%"struct.std::_Vector_base<dealii::Tensor<2, 3>, std::allocator<dealii::Tensor<2, 3> > >::_Vector_impl_data" = type { ptr, ptr, ptr }
%"class.std::vector.29" = type { %"struct.std::_Vector_base.30" }
%"struct.std::_Vector_base.30" = type { %"struct.std::_Vector_base<dealii::FEValues<3, 3> *, std::allocator<dealii::FEValues<3, 3> *> >::_Vector_impl" }
%"struct.std::_Vector_base<dealii::FEValues<3, 3> *, std::allocator<dealii::FEValues<3, 3> *> >::_Vector_impl" = type { %"struct.std::_Vector_base<dealii::FEValues<3, 3> *, std::allocator<dealii::FEValues<3, 3> *> >::_Vector_impl_data" }
%"struct.std::_Vector_base<dealii::FEValues<3, 3> *, std::allocator<dealii::FEValues<3, 3> *> >::_Vector_impl_data" = type { ptr, ptr, ptr }
%"class.dealii::Quadrature" = type { %"class.dealii::Subscriptor", i32, %"class.std::vector.19", %"class.std::vector" }
%"class.dealii::Point" = type { %"class.dealii::Tensor" }
%"class.dealii::Tensor" = type { [3 x double] }
%"struct.std::pair.109" = type { i32, i32 }
%"class.std::vector.100" = type { %"struct.std::_Bvector_base" }
%"struct.std::_Bvector_base" = type { %"struct.std::_Bvector_base<std::allocator<bool> >::_Bvector_impl" }
%"struct.std::_Bvector_base<std::allocator<bool> >::_Bvector_impl" = type { %"struct.std::_Bvector_base<std::allocator<bool> >::_Bvector_impl_data" }
%"struct.std::_Bvector_base<std::allocator<bool> >::_Bvector_impl_data" = type { %"struct.std::_Bit_iterator", %"struct.std::_Bit_iterator", ptr }
%"struct.std::_Bit_iterator" = type { %"struct.std::_Bit_iterator_base.base", [4 x i8] }
%"struct.std::_Bit_iterator_base.base" = type <{ ptr, i32 }>
%"class.std::vector.54" = type { %"struct.std::_Vector_base.55" }
%"struct.std::_Vector_base.55" = type { %"struct.std::_Vector_base<unsigned int, std::allocator<unsigned int> >::_Vector_impl" }
%"struct.std::_Vector_base<unsigned int, std::allocator<unsigned int> >::_Vector_impl" = type { %"struct.std::_Vector_base<unsigned int, std::allocator<unsigned int> >::_Vector_impl_data" }
%"struct.std::_Vector_base<unsigned int, std::allocator<unsigned int> >::_Vector_impl_data" = type { ptr, ptr, ptr }
%"class.std::vector.112" = type { %"struct.std::_Vector_base.113" }
%"struct.std::_Vector_base.113" = type { %"struct.std::_Vector_base<dealii::FullMatrix<double>, std::allocator<dealii::FullMatrix<double> > >::_Vector_impl" }
%"struct.std::_Vector_base<dealii::FullMatrix<double>, std::allocator<dealii::FullMatrix<double> > >::_Vector_impl" = type { %"struct.std::_Vector_base<dealii::FullMatrix<double>, std::allocator<dealii::FullMatrix<double> > >::_Vector_impl_data" }
%"struct.std::_Vector_base<dealii::FullMatrix<double>, std::allocator<dealii::FullMatrix<double> > >::_Vector_impl_data" = type { ptr, ptr, ptr }
%"class.dealii::RefinementCase" = type { i8 }
%"class.dealii::FullMatrix" = type { %"class.dealii::Table.base", [4 x i8] }
%"class.dealii::Table.base" = type { %"class.dealii::TableBase.base" }
%"class.dealii::TableBase.base" = type <{ %"class.dealii::Subscriptor", ptr, i32, %"class.dealii::TableIndices" }>
%"class.dealii::TableIndices" = type { %"class.dealii::TableIndicesBase" }
%"class.dealii::TableIndicesBase" = type { [2 x i32] }
%"class.dealii::FiniteElement" = type { %"class.dealii::Subscriptor", %"class.dealii::FiniteElementData", i8, %"class.std::vector.71", %"class.std::vector.71", %"class.dealii::FullMatrix", %"class.std::vector.19", %"class.std::vector.76", %"class.std::vector.19", %"class.std::vector.76", %"class.dealii::Table.81", %"class.std::vector.85", %"class.std::vector.90", %"class.std::vector.90", %"class.std::vector.95", %"class.std::vector.95", %"class.std::vector.54", %"class.std::vector.95", %"class.std::vector.100", %"class.std::vector.104", %"class.std::vector.54" }
%"class.dealii::FiniteElementData" = type { i32, i32, i32, i32, i32, i32, i32, i32, i32, i32, i32, i32, i32, i32, i32 }
%"class.std::vector.71" = type { %"struct.std::_Vector_base.72" }
%"struct.std::_Vector_base.72" = type { %"struct.std::_Vector_base<std::vector<dealii::FullMatrix<double> >, std::allocator<std::vector<dealii::FullMatrix<double> > > >::_Vector_impl" }
%"struct.std::_Vector_base<std::vector<dealii::FullMatrix<double> >, std::allocator<std::vector<dealii::FullMatrix<double> > > >::_Vector_impl" = type { %"struct.std::_Vector_base<std::vector<dealii::FullMatrix<double> >, std::allocator<std::vector<dealii::FullMatrix<double> > > >::_Vector_impl_data" }
%"struct.std::_Vector_base<std::vector<dealii::FullMatrix<double> >, std::allocator<std::vector<dealii::FullMatrix<double> > > >::_Vector_impl_data" = type { ptr, ptr, ptr }
%"class.std::vector.76" = type { %"struct.std::_Vector_base.77" }
%"struct.std::_Vector_base.77" = type { %"struct.std::_Vector_base<dealii::Point<2>, std::allocator<dealii::Point<2> > >::_Vector_impl" }
%"struct.std::_Vector_base<dealii::Point<2>, std::allocator<dealii::Point<2> > >::_Vector_impl" = type { %"struct.std::_Vector_base<dealii::Point<2>, std::allocator<dealii::Point<2> > >::_Vector_impl_data" }
%"struct.std::_Vector_base<dealii::Point<2>, std::allocator<dealii::Point<2> > >::_Vector_impl_data" = type { ptr, ptr, ptr }
%"class.dealii::Table.81" = type { %"class.dealii::TableBase.base.83", [4 x i8] }
%"class.dealii::TableBase.base.83" = type <{ %"class.dealii::Subscriptor", ptr, i32, %"class.dealii::TableIndices" }>
%"class.std::vector.85" = type { %"struct.std::_Vector_base.86" }
%"struct.std::_Vector_base.86" = type { %"struct.std::_Vector_base<int, std::allocator<int> >::_Vector_impl" }
%"struct.std::_Vector_base<int, std::allocator<int> >::_Vector_impl" = type { %"struct.std::_Vector_base<int, std::allocator<int> >::_Vector_impl_data" }
%"struct.std::_Vector_base<int, std::allocator<int> >::_Vector_impl_data" = type { ptr, ptr, ptr }
%"class.std::vector.90" = type { %"struct.std::_Vector_base.91" }
%"struct.std::_Vector_base.91" = type { %"struct.std::_Vector_base<std::pair<unsigned int, unsigned int>, std::allocator<std::pair<unsigned int, unsigned int> > >::_Vector_impl" }
%"struct.std::_Vector_base<std::pair<unsigned int, unsigned int>, std::allocator<std::pair<unsigned int, unsigned int> > >::_Vector_impl" = type { %"struct.std::_Vector_base<std::pair<unsigned int, unsigned int>, std::allocator<std::pair<unsigned int, unsigned int> > >::_Vector_impl_data" }
%"struct.std::_Vector_base<std::pair<unsigned int, unsigned int>, std::allocator<std::pair<unsigned int, unsigned int> > >::_Vector_impl_data" = type { ptr, ptr, ptr }
%"class.std::vector.95" = type { %"struct.std::_Vector_base.96" }
%"struct.std::_Vector_base.96" = type { %"struct.std::_Vector_base<std::pair<std::pair<unsigned int, unsigned int>, unsigned int>, std::allocator<std::pair<std::pair<unsigned int, unsigned int>, unsigned int> > >::_Vector_impl" }
%"struct.std::_Vector_base<std::pair<std::pair<unsigned int, unsigned int>, unsigned int>, std::allocator<std::pair<std::pair<unsigned int, unsigned int>, unsigned int> > >::_Vector_impl" = type { %"struct.std::_Vector_base<std::pair<std::pair<unsigned int, unsigned int>, unsigned int>, std::allocator<std::pair<std::pair<unsigned int, unsigned int>, unsigned int> > >::_Vector_impl_data" }
%"struct.std::_Vector_base<std::pair<std::pair<unsigned int, unsigned int>, unsigned int>, std::allocator<std::pair<std::pair<unsigned int, unsigned int>, unsigned int> > >::_Vector_impl_data" = type { ptr, ptr, ptr }
%"class.std::vector.104" = type { %"struct.std::_Vector_base.105" }
%"struct.std::_Vector_base.105" = type { %"struct.std::_Vector_base<std::vector<bool>, std::allocator<std::vector<bool> > >::_Vector_impl" }
%"struct.std::_Vector_base<std::vector<bool>, std::allocator<std::vector<bool> > >::_Vector_impl" = type { %"struct.std::_Vector_base<std::vector<bool>, std::allocator<std::vector<bool> > >::_Vector_impl_data" }
%"struct.std::_Vector_base<std::vector<bool>, std::allocator<std::vector<bool> > >::_Vector_impl_data" = type { ptr, ptr, ptr }
%"struct.std::pair" = type { %"struct.std::pair.109", i32 }
%"class.dealii::TableBase" = type <{ %"class.dealii::Subscriptor", ptr, i32, %"class.dealii::TableIndices", [4 x i8] }>
%"struct.std::_Bit_iterator_base" = type <{ ptr, i32, [4 x i8] }>
%"class.dealii::FiniteElement<3, 3>::ExcUnitShapeValuesDoNotExist" = type { %"class.dealii::ExceptionBase.base", [4 x i8] }
%"class.dealii::ExceptionBase.base" = type <{ %"class.std::exception", ptr, i32, [4 x i8], ptr, ptr, ptr, ptr, i32 }>
%"class.std::exception" = type { ptr }
%"class.dealii::Tensor.117" = type { [3 x %"class.dealii::Tensor"] }
%"class.dealii::FiniteElement<3, 3>::ExcInterpolationNotImplemented" = type { %"class.dealii::ExceptionBase.base", [4 x i8] }
%"class.dealii::Point.119" = type { %"class.dealii::Tensor.120" }
%"class.dealii::Tensor.120" = type { [2 x double] }
%"class.dealii::Vector" = type { %"class.dealii::Subscriptor", i32, i32, ptr }
%"class.dealii::VectorSlice" = type { ptr, i32, i32 }
%"class.dealii::FiniteElement<3, 3>::ExcShapeFunctionNotPrimitive" = type { %"class.dealii::ExceptionBase.base", i32 }
%"class.std::basic_ios" = type { %"class.std::ios_base", ptr, i8, i8, ptr, ptr, ptr, ptr }
%"class.std::ios_base" = type { ptr, i64, i64, i32, i32, i32, ptr, %"struct.std::ios_base::_Words", [8 x %"struct.std::ios_base::_Words"], i32, ptr, %"class.std::locale" }
%"struct.std::ios_base::_Words" = type { ptr, i64 }
%"class.std::locale" = type { ptr }
%"class.std::ctype" = type <{ %"class.std::locale::facet.base", [4 x i8], ptr, i8, [7 x i8], ptr, ptr, ptr, i8, [256 x i8], [256 x i8], i8, [6 x i8] }>
%"class.std::locale::facet.base" = type <{ ptr, i32 }>
%"class.dealii::FiniteElement<3, 3>::ExcWrongInterfaceMatrixSize" = type { %"class.dealii::ExceptionBase.base", i32, i32, [4 x i8] }
%"class.dealii::FiniteElement<3, 3>::ExcComponentIndexInvalid" = type { %"class.dealii::ExceptionBase.base", i32, i32, [4 x i8] }
%"class.std::vector.49" = type { %"struct.std::_Vector_base.50" }
%"struct.std::_Vector_base.50" = type { %"struct.std::_Vector_base<dealii::Tensor<1, 3>, std::allocator<dealii::Tensor<1, 3> > >::_Vector_impl" }
%"struct.std::_Vector_base<dealii::Tensor<1, 3>, std::allocator<dealii::Tensor<1, 3> > >::_Vector_impl" = type { %"struct.std::_Vector_base<dealii::Tensor<1, 3>, std::allocator<dealii::Tensor<1, 3> > >::_Vector_impl_data" }
%"struct.std::_Vector_base<dealii::Tensor<1, 3>, std::allocator<dealii::Tensor<1, 3> > >::_Vector_impl_data" = type { ptr, ptr, ptr }
%"class.dealii::FEValuesData" = type <{ %"class.dealii::Table", %"class.std::vector.34", %"class.std::vector.39", %"class.std::vector", %"class.std::vector.24", %"class.std::vector.44", %"class.std::vector.24", %"class.std::vector.19", %"class.std::vector.19", %"class.std::vector.19", %"class.std::vector.49", %"class.std::vector.19", %"class.std::vector.39", %"class.std::vector.39", %"class.std::vector.54", i32, [4 x i8] }>
%"class.dealii::Table" = type { %"class.dealii::TableBase.base", [4 x i8] }
%"class.std::vector.34" = type { %"struct.std::_Vector_base.35" }
%"struct.std::_Vector_base.35" = type { %"struct.std::_Vector_base<std::vector<dealii::Tensor<1, 3> >, std::allocator<std::vector<dealii::Tensor<1, 3> > > >::_Vector_impl" }
%"struct.std::_Vector_base<std::vector<dealii::Tensor<1, 3> >, std::allocator<std::vector<dealii::Tensor<1, 3> > > >::_Vector_impl" = type { %"struct.std::_Vector_base<std::vector<dealii::Tensor<1, 3> >, std::allocator<std::vector<dealii::Tensor<1, 3> > > >::_Vector_impl_data" }
%"struct.std::_Vector_base<std::vector<dealii::Tensor<1, 3> >, std::allocator<std::vector<dealii::Tensor<1, 3> > > >::_Vector_impl_data" = type { ptr, ptr, ptr }
%"class.std::vector.44" = type { %"struct.std::_Vector_base.45" }
%"struct.std::_Vector_base.45" = type { %"struct.std::_Vector_base<dealii::Tensor<3, 3>, std::allocator<dealii::Tensor<3, 3> > >::_Vector_impl" }
%"struct.std::_Vector_base<dealii::Tensor<3, 3>, std::allocator<dealii::Tensor<3, 3> > >::_Vector_impl" = type { %"struct.std::_Vector_base<dealii::Tensor<3, 3>, std::allocator<dealii::Tensor<3, 3> > >::_Vector_impl_data" }
%"struct.std::_Vector_base<dealii::Tensor<3, 3>, std::allocator<dealii::Tensor<3, 3> > >::_Vector_impl_data" = type { ptr, ptr, ptr }
%"class.std::vector.39" = type { %"struct.std::_Vector_base.40" }
%"struct.std::_Vector_base.40" = type { %"struct.std::_Vector_base<std::vector<dealii::Tensor<2, 3> >, std::allocator<std::vector<dealii::Tensor<2, 3> > > >::_Vector_impl" }
%"struct.std::_Vector_base<std::vector<dealii::Tensor<2, 3> >, std::allocator<std::vector<dealii::Tensor<2, 3> > > >::_Vector_impl" = type { %"struct.std::_Vector_base<std::vector<dealii::Tensor<2, 3> >, std::allocator<std::vector<dealii::Tensor<2, 3> > > >::_Vector_impl_data" }
%"struct.std::_Vector_base<std::vector<dealii::Tensor<2, 3> >, std::allocator<std::vector<dealii::Tensor<2, 3> > > >::_Vector_impl_data" = type { ptr, ptr, ptr }
%"class.dealii::FEValuesBase" = type { %"class.dealii::Subscriptor", %"class.dealii::FEValuesData.base", i32, i32, %"class.std::auto_ptr", %"class.dealii::SmartPointer", %"class.dealii::SmartPointer.59", %"class.dealii::SmartPointer.60", %"class.dealii::SmartPointer.60", i32, %"struct.dealii::internal::FEValuesViews::Cache" }
%"class.dealii::FEValuesData.base" = type <{ %"class.dealii::Table", %"class.std::vector.34", %"class.std::vector.39", %"class.std::vector", %"class.std::vector.24", %"class.std::vector.44", %"class.std::vector.24", %"class.std::vector.19", %"class.std::vector.19", %"class.std::vector.19", %"class.std::vector.49", %"class.std::vector.19", %"class.std::vector.39", %"class.std::vector.39", %"class.std::vector.54", i32 }>
%"class.std::auto_ptr" = type { ptr }
%"class.dealii::SmartPointer" = type { ptr, ptr }
%"class.dealii::SmartPointer.59" = type { ptr, ptr }
%"class.dealii::SmartPointer.60" = type { ptr, ptr }
%"struct.dealii::internal::FEValuesViews::Cache" = type { %"class.std::vector.61", %"class.std::vector.66" }
%"class.std::vector.61" = type { %"struct.std::_Vector_base.62" }
%"struct.std::_Vector_base.62" = type { %"struct.std::_Vector_base<dealii::FEValuesViews::Scalar<3, 3>, std::allocator<dealii::FEValuesViews::Scalar<3, 3> > >::_Vector_impl" }
%"struct.std::_Vector_base<dealii::FEValuesViews::Scalar<3, 3>, std::allocator<dealii::FEValuesViews::Scalar<3, 3> > >::_Vector_impl" = type { %"struct.std::_Vector_base<dealii::FEValuesViews::Scalar<3, 3>, std::allocator<dealii::FEValuesViews::Scalar<3, 3> > >::_Vector_impl_data" }
%"struct.std::_Vector_base<dealii::FEValuesViews::Scalar<3, 3>, std::allocator<dealii::FEValuesViews::Scalar<3, 3> > >::_Vector_impl_data" = type { ptr, ptr, ptr }
%"class.std::vector.66" = type { %"struct.std::_Vector_base.67" }
%"struct.std::_Vector_base.67" = type { %"struct.std::_Vector_base<dealii::FEValuesViews::Vector<3, 3>, std::allocator<dealii::FEValuesViews::Vector<3, 3> > >::_Vector_impl" }
%"struct.std::_Vector_base<dealii::FEValuesViews::Vector<3, 3>, std::allocator<dealii::FEValuesViews::Vector<3, 3> > >::_Vector_impl" = type { %"struct.std::_Vector_base<dealii::FEValuesViews::Vector<3, 3>, std::allocator<dealii::FEValuesViews::Vector<3, 3> > >::_Vector_impl_data" }
%"struct.std::_Vector_base<dealii::FEValuesViews::Vector<3, 3>, std::allocator<dealii::FEValuesViews::Vector<3, 3> > >::_Vector_impl_data" = type { ptr, ptr, ptr }
%"class.dealii::Mapping<3, 3>::InternalDataBase" = type <{ %"class.dealii::Subscriptor", i32, i32, i32, [4 x i8], %"class.std::vector", %"class.std::vector.19", %"class.std::vector.24", %"class.std::vector.24", i8, [7 x i8] }>
%"class.dealii::TableBase.82" = type <{ %"class.dealii::Subscriptor", ptr, i32, %"class.dealii::TableIndices", [4 x i8] }>

$_ZN6dealii13FiniteElementILi3ELi3EE16InternalDataBaseD5Ev = comdat any

$__clang_call_terminate = comdat any

$_ZN6dealii13FiniteElementILi3ELi3EE16InternalDataBase14initialize_2ndEPKS1_RKNS_7MappingILi3ELi3EEERKNS_10QuadratureILi3EEE = comdat any

$_ZN6dealii13FiniteElementILi3ELi3EEC5ERKNS_17FiniteElementDataILi3EEERKSt6vectorIbSaIbEERKS6_IS8_SaIS8_EE = comdat any

$_ZNSt6vectorIbSaIbEEC2ERKS1_ = comdat any

$_ZNSt13_Bvector_baseISaIbEED2Ev = comdat any

$_ZN6dealii13FiniteElementILi3ELi3EE28compute_n_nonzero_componentsERKSt6vectorIS2_IbSaIbEESaIS4_EE = comdat any

$_ZNSt6vectorIjSaIjEEaSERKS1_ = comdat any

$_ZNSt6vectorIN6dealii10FullMatrixIdEESaIS2_EED2Ev = comdat any

$_ZNSt6vectorIS_IbSaIbEESaIS1_EED2Ev = comdat any

$_ZNSt6vectorIS_IN6dealii10FullMatrixIdEESaIS2_EESaIS4_EED2Ev = comdat any

$_ZN6dealii13FiniteElementILi3ELi3EED5Ev = comdat any

$_ZNK6dealii13FiniteElementILi3ELi3EEixEj = comdat any

$_ZNK6dealii13FiniteElementILi3ELi3EE11shape_valueEjRKNS_5PointILi3EEE = comdat any

$_ZNK6dealii13FiniteElementILi3ELi3EE21shape_value_componentEjRKNS_5PointILi3EEEj = comdat any

$_ZNK6dealii13FiniteElementILi3ELi3EE10shape_gradEjRKNS_5PointILi3EEE = comdat any

$_ZNK6dealii13FiniteElementILi3ELi3EE20shape_grad_componentEjRKNS_5PointILi3EEEj = comdat any

$_ZNK6dealii13FiniteElementILi3ELi3EE15shape_grad_gradEjRKNS_5PointILi3EEE = comdat any

$_ZNK6dealii13FiniteElementILi3ELi3EE25shape_grad_grad_componentEjRKNS_5PointILi3EEEj = comdat any

$_ZNK6dealii13FiniteElementILi3ELi3EE19has_support_on_faceEjj = comdat any

$_ZNK6dealii13FiniteElementILi3ELi3EE22get_restriction_matrixEjRKNS_14RefinementCaseILi3EEE = comdat any

$_ZNK6dealii13FiniteElementILi3ELi3EE23get_prolongation_matrixEjRKNS_14RefinementCaseILi3EEE = comdat any

$_ZNK6dealii13FiniteElementILi3ELi3EE27prolongation_is_implementedEv = comdat any

$_ZNK6dealii13FiniteElementILi3ELi3EE37isotropic_prolongation_is_implementedEv = comdat any

$_ZNK6dealii13FiniteElementILi3ELi3EE26restriction_is_implementedEv = comdat any

$_ZNK6dealii13FiniteElementILi3ELi3EE36isotropic_restriction_is_implementedEv = comdat any

$_ZNK6dealii13FiniteElementILi3ELi3EE23restriction_is_additiveEj = comdat any

$_ZNK6dealii13FiniteElementILi3ELi3EE11constraintsERKNS_8internal11SubfaceCaseILi3EEE = comdat any

$_ZNK6dealii13FiniteElementILi3ELi3EE27constraints_are_implementedERKNS_8internal11SubfaceCaseILi3EEE = comdat any

$_ZNK6dealii13FiniteElementILi3ELi3EE30hp_constraints_are_implementedEv = comdat any

$_ZNK6dealii13FiniteElementILi3ELi3EE24get_interpolation_matrixERKS1_RNS_10FullMatrixIdEE = comdat any

$_ZNK6dealii13FiniteElementILi3ELi3EE29get_face_interpolation_matrixERKS1_RNS_10FullMatrixIdEE = comdat any

$_ZNK6dealii13FiniteElementILi3ELi3EE32get_subface_interpolation_matrixERKS1_jRNS_10FullMatrixIdEE = comdat any

$_ZNK6dealii13FiniteElementILi3ELi3EE24hp_vertex_dof_identitiesERKS1_ = comdat any

$_ZNK6dealii13FiniteElementILi3ELi3EE22hp_line_dof_identitiesERKS1_ = comdat any

$_ZNK6dealii13FiniteElementILi3ELi3EE22hp_quad_dof_identitiesERKS1_ = comdat any

$_ZNK6dealii13FiniteElementILi3ELi3EE27compare_for_face_dominationERKS1_ = comdat any

$_ZNK6dealii13FiniteElementILi3ELi3EEeqERKS1_ = comdat any

$_ZNK6dealii13FiniteElementILi3ELi3EE25system_to_component_indexEj = comdat any

$_ZNK6dealii13FiniteElementILi3ELi3EE25component_to_system_indexEjj = comdat any

$_ZNK6dealii13FiniteElementILi3ELi3EE30face_system_to_component_indexEj = comdat any

$_ZNK6dealii13FiniteElementILi3ELi3EE22get_nonzero_componentsEj = comdat any

$_ZNK6dealii13FiniteElementILi3ELi3EE20n_nonzero_componentsEj = comdat any

$_ZNK6dealii13FiniteElementILi3ELi3EE12is_primitiveEj = comdat any

$_ZNK6dealii13FiniteElementILi3ELi3EE12is_primitiveEv = comdat any

$_ZNK6dealii13FiniteElementILi3ELi3EE12base_elementEj = comdat any

$_ZNK6dealii13FiniteElementILi3ELi3EE20system_to_base_indexEj = comdat any

$_ZNK6dealii13FiniteElementILi3ELi3EE25face_system_to_base_indexEj = comdat any

$_ZNK6dealii13FiniteElementILi3ELi3EE19first_block_of_baseEj = comdat any

$_ZNK6dealii13FiniteElementILi3ELi3EE23component_to_base_indexEj = comdat any

$_ZNK6dealii13FiniteElementILi3ELi3EE19block_to_base_indexEj = comdat any

$_ZNK6dealii13FiniteElementILi3ELi3EE21system_to_block_indexEj = comdat any

$_ZNK6dealii13FiniteElementILi3ELi3EE24component_to_block_indexEj = comdat any

$_ZNK6dealii13FiniteElementILi3ELi3EE23get_unit_support_pointsEv = comdat any

$_ZNK6dealii13FiniteElementILi3ELi3EE18has_support_pointsEv = comdat any

$_ZNK6dealii13FiniteElementILi3ELi3EE18unit_support_pointEj = comdat any

$_ZNK6dealii13FiniteElementILi3ELi3EE28get_unit_face_support_pointsEv = comdat any

$_ZNK6dealii13FiniteElementILi3ELi3EE23has_face_support_pointsEv = comdat any

$_ZNK6dealii13FiniteElementILi3ELi3EE23unit_face_support_pointEj = comdat any

$_ZNK6dealii13FiniteElementILi3ELi3EE30get_generalized_support_pointsEv = comdat any

$_ZNK6dealii13FiniteElementILi3ELi3EE30has_generalized_support_pointsEv = comdat any

$_ZNK6dealii13FiniteElementILi3ELi3EE35get_generalized_face_support_pointsEv = comdat any

$_ZNK6dealii13FiniteElementILi3ELi3EE35has_generalized_face_support_pointsEv = comdat any

$_ZNK6dealii13FiniteElementILi3ELi3EE11interpolateERSt6vectorIdSaIdEERKS4_ = comdat any

$_ZNK6dealii13FiniteElementILi3ELi3EE11interpolateERSt6vectorIdSaIdEERKS2_INS_6VectorIdEESaIS7_EEj = comdat any

$_ZNK6dealii13FiniteElementILi3ELi3EE11interpolateERSt6vectorIdSaIdEERKNS_11VectorSliceIKS2_IS4_SaIS4_EEEE = comdat any

$_ZNK6dealii13FiniteElementILi3ELi3EE18memory_consumptionEv = comdat any

$_ZN6dealii13FiniteElementILi3ELi3EE28ExcShapeFunctionNotPrimitiveC5Ei = comdat any

$_ZN6dealii13FiniteElementILi3ELi3EE28ExcShapeFunctionNotPrimitiveD5Ev = comdat any

$_ZNK6dealii13FiniteElementILi3ELi3EE28ExcShapeFunctionNotPrimitive10print_infoERSo = comdat any

$_ZN6dealii13FiniteElementILi3ELi3EE27ExcWrongInterfaceMatrixSizeC5Eii = comdat any

$_ZN6dealii13FiniteElementILi3ELi3EE27ExcWrongInterfaceMatrixSizeD5Ev = comdat any

$_ZNK6dealii13FiniteElementILi3ELi3EE27ExcWrongInterfaceMatrixSize10print_infoERSo = comdat any

$_ZN6dealii13FiniteElementILi3ELi3EE24ExcComponentIndexInvalidC5Eii = comdat any

$_ZN6dealii13FiniteElementILi3ELi3EE24ExcComponentIndexInvalidD5Ev = comdat any

$_ZNK6dealii13FiniteElementILi3ELi3EE24ExcComponentIndexInvalid10print_infoERSo = comdat any

$_ZN6dealii13FiniteElementILi3ELi3EE44reinit_restriction_and_prolongation_matricesEbb = comdat any

$_ZNK6dealii13FiniteElementILi3ELi3EE26interface_constraints_sizeEv = comdat any

$_ZNK6dealii13FiniteElementILi3ELi3EE11compute_2ndERKNS_7MappingILi3ELi3EEERKNS_12TriaIteratorINS_12CellAccessorILi3ELi3EEEEEjRNS3_16InternalDataBaseERNS1_16InternalDataBaseERNS_12FEValuesDataILi3ELi3EEE = comdat any

$_ZNK6dealii13FiniteElementILi3ELi3EE13get_face_dataENS_11UpdateFlagsERKNS_7MappingILi3ELi3EEERKNS_10QuadratureILi2EEE = comdat any

$_ZNK6dealii13FiniteElementILi3ELi3EE16get_subface_dataENS_11UpdateFlagsERKNS_7MappingILi3ELi3EEERKNS_10QuadratureILi2EEE = comdat any

$_ZN6dealii7MappingILi3ELi3EE16InternalDataBase16clear_first_cellEv = comdat any

$_ZN6dealii13FiniteElementILi3ELi3EE17ExcFENotPrimitiveD0Ev = comdat any

$_ZN6dealii13FiniteElementILi3ELi3EE23ExcFEHasNoSupportPointsD0Ev = comdat any

$_ZN6dealii13FiniteElementILi3ELi3EE16ExcEmbeddingVoidD0Ev = comdat any

$_ZN6dealii13FiniteElementILi3ELi3EE17ExcProjectionVoidD0Ev = comdat any

$_ZN6dealii13FiniteElementILi3ELi3EE18ExcConstraintsVoidD0Ev = comdat any

$_ZN6dealii13FiniteElementILi3ELi3EE19ExcBoundaryFaceUsedD0Ev = comdat any

$_ZN6dealii13FiniteElementILi3ELi3EE32ExcJacobiDeterminantHasWrongSignD0Ev = comdat any

$_ZN6dealii9TableBaseILi2EdED2Ev = comdat any

$_ZN6dealii9TableBaseILi2EdED0Ev = comdat any

$_ZN6dealii9TableBaseILi2EiED2Ev = comdat any

$_ZN6dealii9TableBaseILi2EiED0Ev = comdat any

$_ZN6dealii13FiniteElementILi3ELi3EE28ExcUnitShapeValuesDoNotExistD0Ev = comdat any

$_ZN6dealii13FiniteElementILi3ELi3EE30ExcInterpolationNotImplementedD0Ev = comdat any

$_ZNSt6vectorIjSaIjEE14_M_fill_insertEN9__gnu_cxx17__normal_iteratorIPjS1_EEmRKj = comdat any

$_ZNSt6vectorIPN6dealii8FEValuesILi3ELi3EEESaIS3_EE14_M_fill_insertEN9__gnu_cxx17__normal_iteratorIPS3_S5_EEmRKS3_ = comdat any

$_ZN6dealii5TableILi2EiED0Ev = comdat any

$_ZNSt20__uninitialized_copyILb0EE13__uninit_copyIN9__gnu_cxx17__normal_iteratorIPKSt6vectorIbSaIbEES4_IS6_SaIS6_EEEEPS6_EET0_T_SE_SD_ = comdat any

$_ZNSt6vectorIbSaIbEE14_M_fill_insertESt13_Bit_iteratormb = comdat any

$_ZNSt6vectorIS_IbSaIbEESaIS1_EE14_M_fill_insertEN9__gnu_cxx17__normal_iteratorIPS1_S3_EEmRKS1_ = comdat any

$_ZNSt20__uninitialized_copyILb0EE13__uninit_copyIPSt6vectorIbSaIbEES5_EET0_T_S7_S6_ = comdat any

$_ZNSt6vectorIbSaIbEEaSERKS1_ = comdat any

$_ZNSt22__uninitialized_fill_nILb0EE15__uninit_fill_nIPSt6vectorIbSaIbEEmS4_EET_S6_T0_RKT1_ = comdat any

$_ZNSt6vectorISt4pairIjjESaIS1_EE14_M_fill_insertEN9__gnu_cxx17__normal_iteratorIPS1_S3_EEmRKS1_ = comdat any

$_ZNSt6vectorIS_IN6dealii10FullMatrixIdEESaIS2_EESaIS4_EE14_M_fill_insertEN9__gnu_cxx17__normal_iteratorIPS4_S6_EEmRKS4_ = comdat any

$_ZNSt6vectorIN6dealii10FullMatrixIdEESaIS2_EEC2ERKS4_ = comdat any

$_ZNSt20__uninitialized_copyILb0EE13__uninit_copyIPSt6vectorIN6dealii10FullMatrixIdEESaIS5_EES8_EET0_T_SA_S9_ = comdat any

$_ZNSt6vectorIN6dealii10FullMatrixIdEESaIS2_EEaSERKS4_ = comdat any

$_ZNSt6vectorIN6dealii10FullMatrixIdEESaIS2_EE20_M_allocate_and_copyIN9__gnu_cxx17__normal_iteratorIPKS2_S4_EEEEPS2_mT_SC_ = comdat any

$_ZNSt22__uninitialized_fill_nILb0EE15__uninit_fill_nIPSt6vectorIN6dealii10FullMatrixIdEESaIS5_EEmS7_EET_S9_T0_RKT1_ = comdat any

$_ZNSt6vectorIN6dealii10FullMatrixIdEESaIS2_EE14_M_fill_insertEN9__gnu_cxx17__normal_iteratorIPS2_S4_EEmRKS2_ = comdat any

$_ZSt18__do_uninit_fill_nIPSt6vectorIN6dealii6TensorILi1ELi3EEESaIS3_EEmS5_ET_S7_T0_RKT1_ = comdat any

$_ZTVN6dealii13FiniteElementILi3ELi3EE16InternalDataBaseE = comdat any

$_ZN6dealii13FiniteElementILi3ELi3EE14fd_step_lengthE = comdat any

$_ZTVN6dealii13FiniteElementILi3ELi3EEE = comdat any

$_ZTVN6dealii13FiniteElementILi3ELi3EE28ExcShapeFunctionNotPrimitiveE = comdat any

$_ZTVN6dealii13FiniteElementILi3ELi3EE27ExcWrongInterfaceMatrixSizeE = comdat any

$_ZTVN6dealii13FiniteElementILi3ELi3EE24ExcComponentIndexInvalidE = comdat any

$_ZTSN6dealii13FiniteElementILi3ELi3EEE = comdat any

$_ZTSN6dealii17FiniteElementDataILi3EEE = comdat any

$_ZTIN6dealii17FiniteElementDataILi3EEE = comdat any

$_ZTIN6dealii13FiniteElementILi3ELi3EEE = comdat any

$_ZTSN6dealii13FiniteElementILi3ELi3EE16InternalDataBaseE = comdat any

$_ZTSN6dealii7MappingILi3ELi3EE16InternalDataBaseE = comdat any

$_ZTIN6dealii7MappingILi3ELi3EE16InternalDataBaseE = comdat any

$_ZTIN6dealii13FiniteElementILi3ELi3EE16InternalDataBaseE = comdat any

$_ZTSN6dealii13FiniteElementILi3ELi3EE28ExcShapeFunctionNotPrimitiveE = comdat any

$_ZTIN6dealii13FiniteElementILi3ELi3EE28ExcShapeFunctionNotPrimitiveE = comdat any

$_ZTVN6dealii13FiniteElementILi3ELi3EE17ExcFENotPrimitiveE = comdat any

$_ZTSN6dealii13FiniteElementILi3ELi3EE17ExcFENotPrimitiveE = comdat any

$_ZTIN6dealii13FiniteElementILi3ELi3EE17ExcFENotPrimitiveE = comdat any

$_ZTVN6dealii13FiniteElementILi3ELi3EE23ExcFEHasNoSupportPointsE = comdat any

$_ZTSN6dealii13FiniteElementILi3ELi3EE23ExcFEHasNoSupportPointsE = comdat any

$_ZTIN6dealii13FiniteElementILi3ELi3EE23ExcFEHasNoSupportPointsE = comdat any

$_ZTVN6dealii13FiniteElementILi3ELi3EE16ExcEmbeddingVoidE = comdat any

$_ZTSN6dealii13FiniteElementILi3ELi3EE16ExcEmbeddingVoidE = comdat any

$_ZTIN6dealii13FiniteElementILi3ELi3EE16ExcEmbeddingVoidE = comdat any

$_ZTVN6dealii13FiniteElementILi3ELi3EE17ExcProjectionVoidE = comdat any

$_ZTSN6dealii13FiniteElementILi3ELi3EE17ExcProjectionVoidE = comdat any

$_ZTIN6dealii13FiniteElementILi3ELi3EE17ExcProjectionVoidE = comdat any

$_ZTVN6dealii13FiniteElementILi3ELi3EE18ExcConstraintsVoidE = comdat any

$_ZTSN6dealii13FiniteElementILi3ELi3EE18ExcConstraintsVoidE = comdat any

$_ZTIN6dealii13FiniteElementILi3ELi3EE18ExcConstraintsVoidE = comdat any

$_ZTSN6dealii13FiniteElementILi3ELi3EE27ExcWrongInterfaceMatrixSizeE = comdat any

$_ZTIN6dealii13FiniteElementILi3ELi3EE27ExcWrongInterfaceMatrixSizeE = comdat any

$_ZTSN6dealii13FiniteElementILi3ELi3EE24ExcComponentIndexInvalidE = comdat any

$_ZTIN6dealii13FiniteElementILi3ELi3EE24ExcComponentIndexInvalidE = comdat any

$_ZTVN6dealii13FiniteElementILi3ELi3EE19ExcBoundaryFaceUsedE = comdat any

$_ZTSN6dealii13FiniteElementILi3ELi3EE19ExcBoundaryFaceUsedE = comdat any

$_ZTIN6dealii13FiniteElementILi3ELi3EE19ExcBoundaryFaceUsedE = comdat any

$_ZTVN6dealii13FiniteElementILi3ELi3EE32ExcJacobiDeterminantHasWrongSignE = comdat any

$_ZTSN6dealii13FiniteElementILi3ELi3EE32ExcJacobiDeterminantHasWrongSignE = comdat any

$_ZTIN6dealii13FiniteElementILi3ELi3EE32ExcJacobiDeterminantHasWrongSignE = comdat any

$_ZTVN6dealii9TableBaseILi2EdEE = comdat any

$_ZTSN6dealii9TableBaseILi2EdEE = comdat any

$_ZTIN6dealii9TableBaseILi2EdEE = comdat any

$_ZTVN6dealii9TableBaseILi2EiEE = comdat any

$_ZTSN6dealii9TableBaseILi2EiEE = comdat any

$_ZTIN6dealii9TableBaseILi2EiEE = comdat any

$_ZTVN6dealii13FiniteElementILi3ELi3EE28ExcUnitShapeValuesDoNotExistE = comdat any

$_ZTSN6dealii13FiniteElementILi3ELi3EE28ExcUnitShapeValuesDoNotExistE = comdat any

$_ZTIN6dealii13FiniteElementILi3ELi3EE28ExcUnitShapeValuesDoNotExistE = comdat any

$_ZTVN6dealii13FiniteElementILi3ELi3EE30ExcInterpolationNotImplementedE = comdat any

$_ZTSN6dealii13FiniteElementILi3ELi3EE30ExcInterpolationNotImplementedE = comdat any

$_ZTIN6dealii13FiniteElementILi3ELi3EE30ExcInterpolationNotImplementedE = comdat any

$_ZTVN6dealii5TableILi2EiEE = comdat any

$_ZTSN6dealii5TableILi2EiEE = comdat any

$_ZTIN6dealii5TableILi2EiEE = comdat any

@_ZTVN6dealii13FiniteElementILi3ELi3EE16InternalDataBaseE = weak_odr dso_local unnamed_addr constant { [6 x ptr] } { [6 x ptr] [ptr null, ptr @_ZTIN6dealii13FiniteElementILi3ELi3EE16InternalDataBaseE, ptr @_ZN6dealii13FiniteElementILi3ELi3EE16InternalDataBaseD2Ev, ptr @_ZN6dealii13FiniteElementILi3ELi3EE16InternalDataBaseD0Ev, ptr @_ZN6dealii7MappingILi3ELi3EE16InternalDataBase16clear_first_cellEv, ptr @_ZNK6dealii7MappingILi3ELi3EE16InternalDataBase18memory_consumptionEv] }, comdat, align 8
@_ZN6dealii13FiniteElementILi3ELi3EE14fd_step_lengthE = weak_odr dso_local local_unnamed_addr constant double 0x3EB0C6F7A0B5ED8D, comdat, align 8
@_ZTVN6dealii13FiniteElementILi3ELi3EEE = weak_odr dso_local unnamed_addr constant { [38 x ptr] } { [38 x ptr] [ptr null, ptr @_ZTIN6dealii13FiniteElementILi3ELi3EEE, ptr @_ZN6dealii13FiniteElementILi3ELi3EED2Ev, ptr @_ZN6dealii13FiniteElementILi3ELi3EED0Ev, ptr @__cxa_pure_virtual, ptr @_ZNK6dealii13FiniteElementILi3ELi3EE11shape_valueEjRKNS_5PointILi3EEE, ptr @_ZNK6dealii13FiniteElementILi3ELi3EE21shape_value_componentEjRKNS_5PointILi3EEEj, ptr @_ZNK6dealii13FiniteElementILi3ELi3EE10shape_gradEjRKNS_5PointILi3EEE, ptr @_ZNK6dealii13FiniteElementILi3ELi3EE20shape_grad_componentEjRKNS_5PointILi3EEEj, ptr @_ZNK6dealii13FiniteElementILi3ELi3EE15shape_grad_gradEjRKNS_5PointILi3EEE, ptr @_ZNK6dealii13FiniteElementILi3ELi3EE25shape_grad_grad_componentEjRKNS_5PointILi3EEEj, ptr @_ZNK6dealii13FiniteElementILi3ELi3EE19has_support_on_faceEjj, ptr @_ZNK6dealii13FiniteElementILi3ELi3EE30hp_constraints_are_implementedEv, ptr @_ZNK6dealii13FiniteElementILi3ELi3EE24get_interpolation_matrixERKS1_RNS_10FullMatrixIdEE, ptr @_ZNK6dealii13FiniteElementILi3ELi3EE29get_face_interpolation_matrixERKS1_RNS_10FullMatrixIdEE, ptr @_ZNK6dealii13FiniteElementILi3ELi3EE32get_subface_interpolation_matrixERKS1_jRNS_10FullMatrixIdEE, ptr @_ZNK6dealii13FiniteElementILi3ELi3EE24hp_vertex_dof_identitiesERKS1_, ptr @_ZNK6dealii13FiniteElementILi3ELi3EE22hp_line_dof_identitiesERKS1_, ptr @_ZNK6dealii13FiniteElementILi3ELi3EE22hp_quad_dof_identitiesERKS1_, ptr @_ZNK6dealii13FiniteElementILi3ELi3EE27compare_for_face_dominationERKS1_, ptr @__cxa_pure_virtual, ptr @__cxa_pure_virtual, ptr @__cxa_pure_virtual, ptr @_ZNK6dealii13FiniteElementILi3ELi3EE18unit_support_pointEj, ptr @_ZNK6dealii13FiniteElementILi3ELi3EE23unit_face_support_pointEj, ptr @_ZNK6dealii13FiniteElementILi3ELi3EE11interpolateERSt6vectorIdSaIdEERKS4_, ptr @_ZNK6dealii13FiniteElementILi3ELi3EE11interpolateERSt6vectorIdSaIdEERKS2_INS_6VectorIdEESaIS7_EEj, ptr @_ZNK6dealii13FiniteElementILi3ELi3EE11interpolateERSt6vectorIdSaIdEERKNS_11VectorSliceIKS2_IS4_SaIS4_EEEE, ptr @_ZNK6dealii13FiniteElementILi3ELi3EE18memory_consumptionEv, ptr @__cxa_pure_virtual, ptr @__cxa_pure_virtual, ptr @__cxa_pure_virtual, ptr @__cxa_pure_virtual, ptr @_ZNK6dealii13FiniteElementILi3ELi3EE13get_face_dataENS_11UpdateFlagsERKNS_7MappingILi3ELi3EEERKNS_10QuadratureILi2EEE, ptr @_ZNK6dealii13FiniteElementILi3ELi3EE16get_subface_dataENS_11UpdateFlagsERKNS_7MappingILi3ELi3EEERKNS_10QuadratureILi2EEE, ptr @__cxa_pure_virtual, ptr @__cxa_pure_virtual, ptr @__cxa_pure_virtual] }, comdat, align 8
@.str = private unnamed_addr constant [16 x i8] c"source/fe/fe.cc\00", align 1
@.str.9 = private unnamed_addr constant [1 x i8] zeroinitializer, align 1
@.str.10 = private unnamed_addr constant [6 x i8] c"false\00", align 1
@.str.11 = private unnamed_addr constant [31 x i8] c"ExcUnitShapeValuesDoNotExist()\00", align 1
@.str.12 = private unnamed_addr constant [48 x i8] c"typename FEE:: ExcInterpolationNotImplemented()\00", align 1
@.str.13 = private unnamed_addr constant [47 x i8] c"typename FEE::ExcInterpolationNotImplemented()\00", align 1
@_ZTVN6dealii13FiniteElementILi3ELi3EE28ExcShapeFunctionNotPrimitiveE = weak_odr dso_local unnamed_addr constant { [6 x ptr] } { [6 x ptr] [ptr null, ptr @_ZTIN6dealii13FiniteElementILi3ELi3EE28ExcShapeFunctionNotPrimitiveE, ptr @_ZN6dealii13FiniteElementILi3ELi3EE28ExcShapeFunctionNotPrimitiveD2Ev, ptr @_ZN6dealii13FiniteElementILi3ELi3EE28ExcShapeFunctionNotPrimitiveD0Ev, ptr @_ZNK6dealii13ExceptionBase4whatEv, ptr @_ZNK6dealii13FiniteElementILi3ELi3EE28ExcShapeFunctionNotPrimitive10print_infoERSo] }, comdat, align 8
@.str.14 = private unnamed_addr constant [31 x i8] c"The shape function with index \00", align 1
@.str.15 = private unnamed_addr constant [49 x i8] c" is not primitive, i.e. it is vector-valued and \00", align 1
@.str.16 = private unnamed_addr constant [51 x i8] c"has more than one non-zero vector component. This \00", align 1
@.str.17 = private unnamed_addr constant [54 x i8] c"function cannot be called for these shape functions. \00", align 1
@.str.18 = private unnamed_addr constant [50 x i8] c"Maybe you want to use the same function with the \00", align 1
@.str.19 = private unnamed_addr constant [19 x i8] c"_component suffix?\00", align 1
@_ZTVN6dealii13FiniteElementILi3ELi3EE27ExcWrongInterfaceMatrixSizeE = weak_odr dso_local unnamed_addr constant { [6 x ptr] } { [6 x ptr] [ptr null, ptr @_ZTIN6dealii13FiniteElementILi3ELi3EE27ExcWrongInterfaceMatrixSizeE, ptr @_ZN6dealii13FiniteElementILi3ELi3EE27ExcWrongInterfaceMatrixSizeD2Ev, ptr @_ZN6dealii13FiniteElementILi3ELi3EE27ExcWrongInterfaceMatrixSizeD0Ev, ptr @_ZNK6dealii13ExceptionBase4whatEv, ptr @_ZNK6dealii13FiniteElementILi3ELi3EE27ExcWrongInterfaceMatrixSize10print_infoERSo] }, comdat, align 8
@.str.20 = private unnamed_addr constant [36 x i8] c"The interface matrix has a size of \00", align 1
@.str.21 = private unnamed_addr constant [2 x i8] c"x\00", align 1
@.str.22 = private unnamed_addr constant [52 x i8] c", which is not reasonable in the present dimension.\00", align 1
@_ZTVN6dealii13FiniteElementILi3ELi3EE24ExcComponentIndexInvalidE = weak_odr dso_local unnamed_addr constant { [6 x ptr] } { [6 x ptr] [ptr null, ptr @_ZTIN6dealii13FiniteElementILi3ELi3EE24ExcComponentIndexInvalidE, ptr @_ZN6dealii13FiniteElementILi3ELi3EE24ExcComponentIndexInvalidD2Ev, ptr @_ZN6dealii13FiniteElementILi3ELi3EE24ExcComponentIndexInvalidD0Ev, ptr @_ZNK6dealii13ExceptionBase4whatEv, ptr @_ZNK6dealii13FiniteElementILi3ELi3EE24ExcComponentIndexInvalid10print_infoERSo] }, comdat, align 8
@.str.23 = private unnamed_addr constant [27 x i8] c"The component-index pair (\00", align 1
@.str.24 = private unnamed_addr constant [3 x i8] c", \00", align 1
@.str.25 = private unnamed_addr constant [32 x i8] c") is invalid, i.e. non-existent\00", align 1
@_ZTVN10__cxxabiv121__vmi_class_type_infoE = external global ptr
@_ZTSN6dealii13FiniteElementILi3ELi3EEE = weak_odr dso_local constant [35 x i8] c"N6dealii13FiniteElementILi3ELi3EEE\00", comdat, align 1
@_ZTIN6dealii11SubscriptorE = external constant ptr
@_ZTVN10__cxxabiv117__class_type_infoE = external global ptr
@_ZTSN6dealii17FiniteElementDataILi3EEE = linkonce_odr dso_local constant [35 x i8] c"N6dealii17FiniteElementDataILi3EEE\00", comdat, align 1
@_ZTIN6dealii17FiniteElementDataILi3EEE = linkonce_odr dso_local constant { ptr, ptr } { ptr getelementptr inbounds (ptr, ptr @_ZTVN10__cxxabiv117__class_type_infoE, i64 2), ptr @_ZTSN6dealii17FiniteElementDataILi3EEE }, comdat, align 8
@_ZTIN6dealii13FiniteElementILi3ELi3EEE = weak_odr dso_local constant { ptr, ptr, i32, i32, ptr, i64, ptr, i64 } { ptr getelementptr inbounds (ptr, ptr @_ZTVN10__cxxabiv121__vmi_class_type_infoE, i64 2), ptr @_ZTSN6dealii13FiniteElementILi3ELi3EEE, i32 0, i32 2, ptr @_ZTIN6dealii11SubscriptorE, i64 2, ptr @_ZTIN6dealii17FiniteElementDataILi3EEE, i64 18434 }, comdat, align 8
@_ZTVN10__cxxabiv120__si_class_type_infoE = external global ptr
@_ZTSN6dealii13FiniteElementILi3ELi3EE16InternalDataBaseE = weak_odr dso_local constant [53 x i8] c"N6dealii13FiniteElementILi3ELi3EE16InternalDataBaseE\00", comdat, align 1
@_ZTSN6dealii7MappingILi3ELi3EE16InternalDataBaseE = linkonce_odr dso_local constant [46 x i8] c"N6dealii7MappingILi3ELi3EE16InternalDataBaseE\00", comdat, align 1
@_ZTIN6dealii7MappingILi3ELi3EE16InternalDataBaseE = linkonce_odr dso_local constant { ptr, ptr, ptr } { ptr getelementptr inbounds (ptr, ptr @_ZTVN10__cxxabiv120__si_class_type_infoE, i64 2), ptr @_ZTSN6dealii7MappingILi3ELi3EE16InternalDataBaseE, ptr @_ZTIN6dealii11SubscriptorE }, comdat, align 8
@_ZTIN6dealii13FiniteElementILi3ELi3EE16InternalDataBaseE = weak_odr dso_local constant { ptr, ptr, ptr } { ptr getelementptr inbounds (ptr, ptr @_ZTVN10__cxxabiv120__si_class_type_infoE, i64 2), ptr @_ZTSN6dealii13FiniteElementILi3ELi3EE16InternalDataBaseE, ptr @_ZTIN6dealii7MappingILi3ELi3EE16InternalDataBaseE }, comdat, align 8
@_ZTSN6dealii13FiniteElementILi3ELi3EE28ExcShapeFunctionNotPrimitiveE = weak_odr dso_local constant [65 x i8] c"N6dealii13FiniteElementILi3ELi3EE28ExcShapeFunctionNotPrimitiveE\00", comdat, align 1
@_ZTIN6dealii13ExceptionBaseE = external constant ptr
@_ZTIN6dealii13FiniteElementILi3ELi3EE28ExcShapeFunctionNotPrimitiveE = weak_odr dso_local constant { ptr, ptr, ptr } { ptr getelementptr inbounds (ptr, ptr @_ZTVN10__cxxabiv120__si_class_type_infoE, i64 2), ptr @_ZTSN6dealii13FiniteElementILi3ELi3EE28ExcShapeFunctionNotPrimitiveE, ptr @_ZTIN6dealii13ExceptionBaseE }, comdat, align 8
@_ZTVN6dealii13FiniteElementILi3ELi3EE17ExcFENotPrimitiveE = weak_odr dso_local unnamed_addr constant { [6 x ptr] } { [6 x ptr] [ptr null, ptr @_ZTIN6dealii13FiniteElementILi3ELi3EE17ExcFENotPrimitiveE, ptr @_ZN6dealii13ExceptionBaseD2Ev, ptr @_ZN6dealii13FiniteElementILi3ELi3EE17ExcFENotPrimitiveD0Ev, ptr @_ZNK6dealii13ExceptionBase4whatEv, ptr @_ZNK6dealii13ExceptionBase10print_infoERSo] }, comdat, align 8
@_ZTSN6dealii13FiniteElementILi3ELi3EE17ExcFENotPrimitiveE = weak_odr dso_local constant [54 x i8] c"N6dealii13FiniteElementILi3ELi3EE17ExcFENotPrimitiveE\00", comdat, align 1
@_ZTIN6dealii13FiniteElementILi3ELi3EE17ExcFENotPrimitiveE = weak_odr dso_local constant { ptr, ptr, ptr } { ptr getelementptr inbounds (ptr, ptr @_ZTVN10__cxxabiv120__si_class_type_infoE, i64 2), ptr @_ZTSN6dealii13FiniteElementILi3ELi3EE17ExcFENotPrimitiveE, ptr @_ZTIN6dealii13ExceptionBaseE }, comdat, align 8
@_ZTVN6dealii13FiniteElementILi3ELi3EE23ExcFEHasNoSupportPointsE = weak_odr dso_local unnamed_addr constant { [6 x ptr] } { [6 x ptr] [ptr null, ptr @_ZTIN6dealii13FiniteElementILi3ELi3EE23ExcFEHasNoSupportPointsE, ptr @_ZN6dealii13ExceptionBaseD2Ev, ptr @_ZN6dealii13FiniteElementILi3ELi3EE23ExcFEHasNoSupportPointsD0Ev, ptr @_ZNK6dealii13ExceptionBase4whatEv, ptr @_ZNK6dealii13ExceptionBase10print_infoERSo] }, comdat, align 8
@_ZTSN6dealii13FiniteElementILi3ELi3EE23ExcFEHasNoSupportPointsE = weak_odr dso_local constant [60 x i8] c"N6dealii13FiniteElementILi3ELi3EE23ExcFEHasNoSupportPointsE\00", comdat, align 1
@_ZTIN6dealii13FiniteElementILi3ELi3EE23ExcFEHasNoSupportPointsE = weak_odr dso_local constant { ptr, ptr, ptr } { ptr getelementptr inbounds (ptr, ptr @_ZTVN10__cxxabiv120__si_class_type_infoE, i64 2), ptr @_ZTSN6dealii13FiniteElementILi3ELi3EE23ExcFEHasNoSupportPointsE, ptr @_ZTIN6dealii13ExceptionBaseE }, comdat, align 8
@_ZTVN6dealii13FiniteElementILi3ELi3EE16ExcEmbeddingVoidE = weak_odr dso_local unnamed_addr constant { [6 x ptr] } { [6 x ptr] [ptr null, ptr @_ZTIN6dealii13FiniteElementILi3ELi3EE16ExcEmbeddingVoidE, ptr @_ZN6dealii13ExceptionBaseD2Ev, ptr @_ZN6dealii13FiniteElementILi3ELi3EE16ExcEmbeddingVoidD0Ev, ptr @_ZNK6dealii13ExceptionBase4whatEv, ptr @_ZNK6dealii13ExceptionBase10print_infoERSo] }, comdat, align 8
@_ZTSN6dealii13FiniteElementILi3ELi3EE16ExcEmbeddingVoidE = weak_odr dso_local constant [53 x i8] c"N6dealii13FiniteElementILi3ELi3EE16ExcEmbeddingVoidE\00", comdat, align 1
@_ZTIN6dealii13FiniteElementILi3ELi3EE16ExcEmbeddingVoidE = weak_odr dso_local constant { ptr, ptr, ptr } { ptr getelementptr inbounds (ptr, ptr @_ZTVN10__cxxabiv120__si_class_type_infoE, i64 2), ptr @_ZTSN6dealii13FiniteElementILi3ELi3EE16ExcEmbeddingVoidE, ptr @_ZTIN6dealii13ExceptionBaseE }, comdat, align 8
@_ZTVN6dealii13FiniteElementILi3ELi3EE17ExcProjectionVoidE = weak_odr dso_local unnamed_addr constant { [6 x ptr] } { [6 x ptr] [ptr null, ptr @_ZTIN6dealii13FiniteElementILi3ELi3EE17ExcProjectionVoidE, ptr @_ZN6dealii13ExceptionBaseD2Ev, ptr @_ZN6dealii13FiniteElementILi3ELi3EE17ExcProjectionVoidD0Ev, ptr @_ZNK6dealii13ExceptionBase4whatEv, ptr @_ZNK6dealii13ExceptionBase10print_infoERSo] }, comdat, align 8
@_ZTSN6dealii13FiniteElementILi3ELi3EE17ExcProjectionVoidE = weak_odr dso_local constant [54 x i8] c"N6dealii13FiniteElementILi3ELi3EE17ExcProjectionVoidE\00", comdat, align 1
@_ZTIN6dealii13FiniteElementILi3ELi3EE17ExcProjectionVoidE = weak_odr dso_local constant { ptr, ptr, ptr } { ptr getelementptr inbounds (ptr, ptr @_ZTVN10__cxxabiv120__si_class_type_infoE, i64 2), ptr @_ZTSN6dealii13FiniteElementILi3ELi3EE17ExcProjectionVoidE, ptr @_ZTIN6dealii13ExceptionBaseE }, comdat, align 8
@_ZTVN6dealii13FiniteElementILi3ELi3EE18ExcConstraintsVoidE = weak_odr dso_local unnamed_addr constant { [6 x ptr] } { [6 x ptr] [ptr null, ptr @_ZTIN6dealii13FiniteElementILi3ELi3EE18ExcConstraintsVoidE, ptr @_ZN6dealii13ExceptionBaseD2Ev, ptr @_ZN6dealii13FiniteElementILi3ELi3EE18ExcConstraintsVoidD0Ev, ptr @_ZNK6dealii13ExceptionBase4whatEv, ptr @_ZNK6dealii13ExceptionBase10print_infoERSo] }, comdat, align 8
@_ZTSN6dealii13FiniteElementILi3ELi3EE18ExcConstraintsVoidE = weak_odr dso_local constant [55 x i8] c"N6dealii13FiniteElementILi3ELi3EE18ExcConstraintsVoidE\00", comdat, align 1
@_ZTIN6dealii13FiniteElementILi3ELi3EE18ExcConstraintsVoidE = weak_odr dso_local constant { ptr, ptr, ptr } { ptr getelementptr inbounds (ptr, ptr @_ZTVN10__cxxabiv120__si_class_type_infoE, i64 2), ptr @_ZTSN6dealii13FiniteElementILi3ELi3EE18ExcConstraintsVoidE, ptr @_ZTIN6dealii13ExceptionBaseE }, comdat, align 8
@_ZTSN6dealii13FiniteElementILi3ELi3EE27ExcWrongInterfaceMatrixSizeE = weak_odr dso_local constant [64 x i8] c"N6dealii13FiniteElementILi3ELi3EE27ExcWrongInterfaceMatrixSizeE\00", comdat, align 1
@_ZTIN6dealii13FiniteElementILi3ELi3EE27ExcWrongInterfaceMatrixSizeE = weak_odr dso_local constant { ptr, ptr, ptr } { ptr getelementptr inbounds (ptr, ptr @_ZTVN10__cxxabiv120__si_class_type_infoE, i64 2), ptr @_ZTSN6dealii13FiniteElementILi3ELi3EE27ExcWrongInterfaceMatrixSizeE, ptr @_ZTIN6dealii13ExceptionBaseE }, comdat, align 8
@_ZTSN6dealii13FiniteElementILi3ELi3EE24ExcComponentIndexInvalidE = weak_odr dso_local constant [61 x i8] c"N6dealii13FiniteElementILi3ELi3EE24ExcComponentIndexInvalidE\00", comdat, align 1
@_ZTIN6dealii13FiniteElementILi3ELi3EE24ExcComponentIndexInvalidE = weak_odr dso_local constant { ptr, ptr, ptr } { ptr getelementptr inbounds (ptr, ptr @_ZTVN10__cxxabiv120__si_class_type_infoE, i64 2), ptr @_ZTSN6dealii13FiniteElementILi3ELi3EE24ExcComponentIndexInvalidE, ptr @_ZTIN6dealii13ExceptionBaseE }, comdat, align 8
@_ZTVN6dealii13FiniteElementILi3ELi3EE19ExcBoundaryFaceUsedE = weak_odr dso_local unnamed_addr constant { [6 x ptr] } { [6 x ptr] [ptr null, ptr @_ZTIN6dealii13FiniteElementILi3ELi3EE19ExcBoundaryFaceUsedE, ptr @_ZN6dealii13ExceptionBaseD2Ev, ptr @_ZN6dealii13FiniteElementILi3ELi3EE19ExcBoundaryFaceUsedD0Ev, ptr @_ZNK6dealii13ExceptionBase4whatEv, ptr @_ZNK6dealii13ExceptionBase10print_infoERSo] }, comdat, align 8
@_ZTSN6dealii13FiniteElementILi3ELi3EE19ExcBoundaryFaceUsedE = weak_odr dso_local constant [56 x i8] c"N6dealii13FiniteElementILi3ELi3EE19ExcBoundaryFaceUsedE\00", comdat, align 1
@_ZTIN6dealii13FiniteElementILi3ELi3EE19ExcBoundaryFaceUsedE = weak_odr dso_local constant { ptr, ptr, ptr } { ptr getelementptr inbounds (ptr, ptr @_ZTVN10__cxxabiv120__si_class_type_infoE, i64 2), ptr @_ZTSN6dealii13FiniteElementILi3ELi3EE19ExcBoundaryFaceUsedE, ptr @_ZTIN6dealii13ExceptionBaseE }, comdat, align 8
@_ZTVN6dealii13FiniteElementILi3ELi3EE32ExcJacobiDeterminantHasWrongSignE = weak_odr dso_local unnamed_addr constant { [6 x ptr] } { [6 x ptr] [ptr null, ptr @_ZTIN6dealii13FiniteElementILi3ELi3EE32ExcJacobiDeterminantHasWrongSignE, ptr @_ZN6dealii13ExceptionBaseD2Ev, ptr @_ZN6dealii13FiniteElementILi3ELi3EE32ExcJacobiDeterminantHasWrongSignD0Ev, ptr @_ZNK6dealii13ExceptionBase4whatEv, ptr @_ZNK6dealii13ExceptionBase10print_infoERSo] }, comdat, align 8
@_ZTSN6dealii13FiniteElementILi3ELi3EE32ExcJacobiDeterminantHasWrongSignE = weak_odr dso_local constant [69 x i8] c"N6dealii13FiniteElementILi3ELi3EE32ExcJacobiDeterminantHasWrongSignE\00", comdat, align 1
@_ZTIN6dealii13FiniteElementILi3ELi3EE32ExcJacobiDeterminantHasWrongSignE = weak_odr dso_local constant { ptr, ptr, ptr } { ptr getelementptr inbounds (ptr, ptr @_ZTVN10__cxxabiv120__si_class_type_infoE, i64 2), ptr @_ZTSN6dealii13FiniteElementILi3ELi3EE32ExcJacobiDeterminantHasWrongSignE, ptr @_ZTIN6dealii13ExceptionBaseE }, comdat, align 8
@_ZTVN6dealii9TableBaseILi2EdEE = linkonce_odr dso_local unnamed_addr constant { [4 x ptr] } { [4 x ptr] [ptr null, ptr @_ZTIN6dealii9TableBaseILi2EdEE, ptr @_ZN6dealii9TableBaseILi2EdED2Ev, ptr @_ZN6dealii9TableBaseILi2EdED0Ev] }, comdat, align 8
@_ZTSN6dealii9TableBaseILi2EdEE = linkonce_odr dso_local constant [27 x i8] c"N6dealii9TableBaseILi2EdEE\00", comdat, align 1
@_ZTIN6dealii9TableBaseILi2EdEE = linkonce_odr dso_local constant { ptr, ptr, ptr } { ptr getelementptr inbounds (ptr, ptr @_ZTVN10__cxxabiv120__si_class_type_infoE, i64 2), ptr @_ZTSN6dealii9TableBaseILi2EdEE, ptr @_ZTIN6dealii11SubscriptorE }, comdat, align 8
@_ZTVN6dealii9TableBaseILi2EiEE = linkonce_odr dso_local unnamed_addr constant { [4 x ptr] } { [4 x ptr] [ptr null, ptr @_ZTIN6dealii9TableBaseILi2EiEE, ptr @_ZN6dealii9TableBaseILi2EiED2Ev, ptr @_ZN6dealii9TableBaseILi2EiED0Ev] }, comdat, align 8
@_ZTSN6dealii9TableBaseILi2EiEE = linkonce_odr dso_local constant [27 x i8] c"N6dealii9TableBaseILi2EiEE\00", comdat, align 1
@_ZTIN6dealii9TableBaseILi2EiEE = linkonce_odr dso_local constant { ptr, ptr, ptr } { ptr getelementptr inbounds (ptr, ptr @_ZTVN10__cxxabiv120__si_class_type_infoE, i64 2), ptr @_ZTSN6dealii9TableBaseILi2EiEE, ptr @_ZTIN6dealii11SubscriptorE }, comdat, align 8
@_ZTVN6dealii13FiniteElementILi3ELi3EE28ExcUnitShapeValuesDoNotExistE = linkonce_odr dso_local unnamed_addr constant { [6 x ptr] } { [6 x ptr] [ptr null, ptr @_ZTIN6dealii13FiniteElementILi3ELi3EE28ExcUnitShapeValuesDoNotExistE, ptr @_ZN6dealii13ExceptionBaseD2Ev, ptr @_ZN6dealii13FiniteElementILi3ELi3EE28ExcUnitShapeValuesDoNotExistD0Ev, ptr @_ZNK6dealii13ExceptionBase4whatEv, ptr @_ZNK6dealii13ExceptionBase10print_infoERSo] }, comdat, align 8
@_ZTSN6dealii13FiniteElementILi3ELi3EE28ExcUnitShapeValuesDoNotExistE = linkonce_odr dso_local constant [65 x i8] c"N6dealii13FiniteElementILi3ELi3EE28ExcUnitShapeValuesDoNotExistE\00", comdat, align 1
@_ZTIN6dealii13FiniteElementILi3ELi3EE28ExcUnitShapeValuesDoNotExistE = linkonce_odr dso_local constant { ptr, ptr, ptr } { ptr getelementptr inbounds (ptr, ptr @_ZTVN10__cxxabiv120__si_class_type_infoE, i64 2), ptr @_ZTSN6dealii13FiniteElementILi3ELi3EE28ExcUnitShapeValuesDoNotExistE, ptr @_ZTIN6dealii13ExceptionBaseE }, comdat, align 8
@_ZTVN6dealii13FiniteElementILi3ELi3EE30ExcInterpolationNotImplementedE = linkonce_odr dso_local unnamed_addr constant { [6 x ptr] } { [6 x ptr] [ptr null, ptr @_ZTIN6dealii13FiniteElementILi3ELi3EE30ExcInterpolationNotImplementedE, ptr @_ZN6dealii13ExceptionBaseD2Ev, ptr @_ZN6dealii13FiniteElementILi3ELi3EE30ExcInterpolationNotImplementedD0Ev, ptr @_ZNK6dealii13ExceptionBase4whatEv, ptr @_ZNK6dealii13ExceptionBase10print_infoERSo] }, comdat, align 8
@_ZTSN6dealii13FiniteElementILi3ELi3EE30ExcInterpolationNotImplementedE = linkonce_odr dso_local constant [67 x i8] c"N6dealii13FiniteElementILi3ELi3EE30ExcInterpolationNotImplementedE\00", comdat, align 1
@_ZTIN6dealii13FiniteElementILi3ELi3EE30ExcInterpolationNotImplementedE = linkonce_odr dso_local constant { ptr, ptr, ptr } { ptr getelementptr inbounds (ptr, ptr @_ZTVN10__cxxabiv120__si_class_type_infoE, i64 2), ptr @_ZTSN6dealii13FiniteElementILi3ELi3EE30ExcInterpolationNotImplementedE, ptr @_ZTIN6dealii13ExceptionBaseE }, comdat, align 8
@.str.26 = private unnamed_addr constant [49 x i8] c"cannot create std::vector larger than max_size()\00", align 1
@.str.27 = private unnamed_addr constant [23 x i8] c"vector::_M_fill_insert\00", align 1
@_ZTVN6dealii5TableILi2EiEE = linkonce_odr dso_local unnamed_addr constant { [4 x ptr] } { [4 x ptr] [ptr null, ptr @_ZTIN6dealii5TableILi2EiEE, ptr @_ZN6dealii9TableBaseILi2EiED2Ev, ptr @_ZN6dealii5TableILi2EiED0Ev] }, comdat, align 8
@_ZTSN6dealii5TableILi2EiEE = linkonce_odr dso_local constant [23 x i8] c"N6dealii5TableILi2EiEE\00", comdat, align 1
@_ZTIN6dealii5TableILi2EiEE = linkonce_odr dso_local constant { ptr, ptr, ptr } { ptr getelementptr inbounds (ptr, ptr @_ZTVN10__cxxabiv120__si_class_type_infoE, i64 2), ptr @_ZTSN6dealii5TableILi2EiEE, ptr @_ZTIN6dealii9TableBaseILi2EiEE }, comdat, align 8
@.str.28 = private unnamed_addr constant [29 x i8] c"vector<bool>::_M_fill_insert\00", align 1
@llvm.global_ctors = appending global [0 x { i32, ptr, ptr }] zeroinitializer

@_ZN6dealii13FiniteElementILi3ELi3EE16InternalDataBaseD1Ev = weak_odr dso_local unnamed_addr alias void (ptr), ptr @_ZN6dealii13FiniteElementILi3ELi3EE16InternalDataBaseD2Ev
@_ZN6dealii13FiniteElementILi3ELi3EED1Ev = weak_odr dso_local unnamed_addr alias void (ptr), ptr @_ZN6dealii13FiniteElementILi3ELi3EED2Ev
@_ZN6dealii13FiniteElementILi3ELi3EE28ExcShapeFunctionNotPrimitiveC1Ei = weak_odr dso_local unnamed_addr alias void (ptr, i32), ptr @_ZN6dealii13FiniteElementILi3ELi3EE28ExcShapeFunctionNotPrimitiveC2Ei
@_ZN6dealii13FiniteElementILi3ELi3EE28ExcShapeFunctionNotPrimitiveD1Ev = weak_odr dso_local unnamed_addr alias void (ptr), ptr @_ZN6dealii13FiniteElementILi3ELi3EE28ExcShapeFunctionNotPrimitiveD2Ev
@_ZN6dealii13FiniteElementILi3ELi3EE27ExcWrongInterfaceMatrixSizeC1Eii = weak_odr dso_local unnamed_addr alias void (ptr, i32, i32), ptr @_ZN6dealii13FiniteElementILi3ELi3EE27ExcWrongInterfaceMatrixSizeC2Eii
@_ZN6dealii13FiniteElementILi3ELi3EE27ExcWrongInterfaceMatrixSizeD1Ev = weak_odr dso_local unnamed_addr alias void (ptr), ptr @_ZN6dealii13FiniteElementILi3ELi3EE27ExcWrongInterfaceMatrixSizeD2Ev
@_ZN6dealii13FiniteElementILi3ELi3EE24ExcComponentIndexInvalidC1Eii = weak_odr dso_local unnamed_addr alias void (ptr, i32, i32), ptr @_ZN6dealii13FiniteElementILi3ELi3EE24ExcComponentIndexInvalidC2Eii
@_ZN6dealii13FiniteElementILi3ELi3EE24ExcComponentIndexInvalidD1Ev = weak_odr dso_local unnamed_addr alias void (ptr), ptr @_ZN6dealii13FiniteElementILi3ELi3EE24ExcComponentIndexInvalidD2Ev

; Function Attrs: sspstrong uwtable
define weak_odr dso_local void @_ZN6dealii13FiniteElementILi3ELi3EE16InternalDataBaseD2Ev(ptr noundef nonnull align 8 dereferenceable(216) %0) unnamed_addr #0 comdat($_ZN6dealii13FiniteElementILi3ELi3EE16InternalDataBaseD5Ev) align 2 personality ptr @__gxx_personality_v0 {
  store ptr getelementptr inbounds ({ [6 x ptr] }, ptr @_ZTVN6dealii13FiniteElementILi3ELi3EE16InternalDataBaseE, i64 0, inrange i32 0, i64 2), ptr %0, align 8, !tbaa !5
  %2 = getelementptr inbounds %"class.dealii::FiniteElement<3, 3>::InternalDataBase", ptr %0, i64 0, i32 1
  %3 = getelementptr inbounds %"class.dealii::FiniteElement<3, 3>::InternalDataBase", ptr %0, i64 0, i32 1, i32 0, i32 0, i32 0, i32 1
  %4 = load ptr, ptr %3, align 8, !tbaa !8
  %5 = load ptr, ptr %2, align 8, !tbaa !12
  %6 = icmp eq ptr %4, %5
  br i1 %6, label %7, label %16

7:                                                ; preds = %33, %1
  %8 = phi ptr [ %4, %1 ], [ %34, %33 ]
  %9 = icmp eq ptr %8, null
  br i1 %9, label %43, label %10

10:                                               ; preds = %7
  tail call void @_ZdlPv(ptr noundef nonnull %8) #17
  br label %43

11:                                               ; preds = %24
  %12 = landingpad { ptr, i32 }
          cleanup
  %13 = load ptr, ptr %2, align 8, !tbaa !12
  %14 = icmp eq ptr %13, null
  br i1 %14, label %44, label %15

15:                                               ; preds = %11
  tail call void @_ZdlPv(ptr noundef nonnull %13) #17
  br label %44

16:                                               ; preds = %1, %33
  %17 = phi ptr [ %34, %33 ], [ %5, %1 ]
  %18 = phi ptr [ %35, %33 ], [ %4, %1 ]
  %19 = phi i64 [ %37, %33 ], [ 0, %1 ]
  %20 = phi i32 [ %36, %33 ], [ 0, %1 ]
  %21 = getelementptr inbounds ptr, ptr %17, i64 %19
  %22 = load ptr, ptr %21, align 8, !tbaa !13
  %23 = icmp eq ptr %22, null
  br i1 %23, label %33, label %24

24:                                               ; preds = %16
  %25 = load ptr, ptr %22, align 8, !tbaa !5
  %26 = getelementptr inbounds ptr, ptr %25, i64 1
  %27 = load ptr, ptr %26, align 8
  invoke void %27(ptr noundef nonnull align 8 dereferenceable(776) %22)
          to label %28 unwind label %11

28:                                               ; preds = %24
  %29 = load ptr, ptr %2, align 8, !tbaa !12
  %30 = getelementptr inbounds ptr, ptr %29, i64 %19
  store ptr null, ptr %30, align 8, !tbaa !13
  %31 = load ptr, ptr %3, align 8, !tbaa !8
  %32 = load ptr, ptr %2, align 8, !tbaa !12
  br label %33

33:                                               ; preds = %16, %28
  %34 = phi ptr [ %17, %16 ], [ %32, %28 ]
  %35 = phi ptr [ %18, %16 ], [ %31, %28 ]
  %36 = add i32 %20, 1
  %37 = zext i32 %36 to i64
  %38 = ptrtoint ptr %35 to i64
  %39 = ptrtoint ptr %34 to i64
  %40 = sub i64 %38, %39
  %41 = ashr exact i64 %40, 3
  %42 = icmp ugt i64 %41, %37
  br i1 %42, label %16, label %7

43:                                               ; preds = %10, %7
  tail call void @_ZN6dealii7MappingILi3ELi3EE16InternalDataBaseD2Ev(ptr noundef nonnull align 8 dereferenceable(185) %0)
  ret void

44:                                               ; preds = %15, %11
  invoke void @_ZN6dealii7MappingILi3ELi3EE16InternalDataBaseD2Ev(ptr noundef nonnull align 8 dereferenceable(185) %0)
          to label %45 unwind label %46

45:                                               ; preds = %44
  resume { ptr, i32 } %12

46:                                               ; preds = %44
  %47 = landingpad { ptr, i32 }
          catch ptr null
  %48 = extractvalue { ptr, i32 } %47, 0
  tail call void @__clang_call_terminate(ptr %48) #18
  unreachable
}

; Function Attrs: mustprogress nocallback nofree nosync nounwind willreturn memory(argmem: readwrite)
declare void @llvm.lifetime.start.p0(i64 immarg, ptr nocapture) #1

declare i32 @__gxx_personality_v0(...)

; Function Attrs: mustprogress nocallback nofree nosync nounwind willreturn memory(argmem: readwrite)
declare void @llvm.lifetime.end.p0(i64 immarg, ptr nocapture) #1

; Function Attrs: noinline noreturn nounwind sspstrong uwtable
define linkonce_odr hidden void @__clang_call_terminate(ptr noundef %0) local_unnamed_addr #2 comdat {
  %2 = tail call ptr @__cxa_begin_catch(ptr %0) #19
  tail call void @_ZSt9terminatev() #18
  unreachable
}

declare ptr @__cxa_begin_catch(ptr) local_unnamed_addr

declare void @_ZSt9terminatev() local_unnamed_addr

declare void @_ZN6dealii7MappingILi3ELi3EE16InternalDataBaseD2Ev(ptr noundef nonnull align 8 dereferenceable(185)) unnamed_addr #3

; Function Attrs: sspstrong uwtable
define weak_odr dso_local void @_ZN6dealii13FiniteElementILi3ELi3EE16InternalDataBaseD0Ev(ptr noundef nonnull align 8 dereferenceable(216) %0) unnamed_addr #0 comdat($_ZN6dealii13FiniteElementILi3ELi3EE16InternalDataBaseD5Ev) align 2 personality ptr @__gxx_personality_v0 {
  invoke void @_ZN6dealii13FiniteElementILi3ELi3EE16InternalDataBaseD2Ev(ptr noundef nonnull align 8 dereferenceable(216) %0)
          to label %2 unwind label %3

2:                                                ; preds = %1
  tail call void @_ZdlPv(ptr noundef nonnull %0) #17
  ret void

3:                                                ; preds = %1
  %4 = landingpad { ptr, i32 }
          cleanup
  tail call void @_ZdlPv(ptr noundef nonnull %0) #17
  resume { ptr, i32 } %4
}

; Function Attrs: nobuiltin nounwind
declare void @_ZdlPv(ptr noundef) local_unnamed_addr #4

; Function Attrs: sspstrong uwtable
define weak_odr dso_local void @_ZN6dealii13FiniteElementILi3ELi3EE16InternalDataBase14initialize_2ndEPKS1_RKNS_7MappingILi3ELi3EEERKNS_10QuadratureILi3EEE(ptr noundef nonnull align 8 dereferenceable(216) %0, ptr noundef %1, ptr noundef nonnull align 8 dereferenceable(72) %2, ptr noundef nonnull align 8 dereferenceable(128) %3) local_unnamed_addr #0 comdat align 2 personality ptr @__gxx_personality_v0 {
  %5 = alloca ptr, align 8
  %6 = alloca %"class.std::vector.19", align 8
  %7 = alloca %"class.dealii::Quadrature", align 8
  %8 = alloca %"class.dealii::Quadrature", align 8
  call void @llvm.lifetime.start.p0(i64 24, ptr nonnull %6) #19
  %9 = getelementptr inbounds %"class.dealii::Quadrature", ptr %3, i64 0, i32 3
  %10 = getelementptr inbounds %"class.dealii::Quadrature", ptr %3, i64 0, i32 3, i32 0, i32 0, i32 0, i32 1
  %11 = load ptr, ptr %10, align 8, !tbaa !14
  %12 = load ptr, ptr %9, align 8, !tbaa !16
  %13 = ptrtoint ptr %11 to i64
  %14 = ptrtoint ptr %12 to i64
  %15 = sub i64 %13, %14
  %16 = lshr exact i64 %15, 3
  %17 = and i64 %16, 4294967295
  %18 = icmp eq i64 %17, 0
  br i1 %18, label %19, label %20

19:                                               ; preds = %4
  call void @llvm.memset.p0.i64(ptr noundef nonnull align 8 dereferenceable(24) %6, i8 0, i64 24, i1 false)
  br label %26

20:                                               ; preds = %4
  %21 = mul nuw nsw i64 %17, 24
  %22 = tail call noalias noundef nonnull ptr @_Znwm(i64 noundef %21) #20
  store ptr %22, ptr %6, align 8, !tbaa !17
  %23 = getelementptr inbounds %"class.dealii::Point", ptr %22, i64 %17
  %24 = getelementptr inbounds %"struct.std::_Vector_base<dealii::Point<3>, std::allocator<dealii::Point<3> > >::_Vector_impl_data", ptr %6, i64 0, i32 2
  store ptr %23, ptr %24, align 8, !tbaa !19
  tail call void @llvm.memset.p0.i64(ptr nonnull align 8 %22, i8 0, i64 %21, i1 false), !tbaa !20
  %25 = getelementptr i8, ptr %22, i64 %21
  br label %26

26:                                               ; preds = %20, %19
  %27 = phi ptr [ null, %19 ], [ %25, %20 ]
  %28 = getelementptr inbounds %"struct.std::_Vector_base<dealii::Point<3>, std::allocator<dealii::Point<3> > >::_Vector_impl_data", ptr %6, i64 0, i32 1
  store ptr %27, ptr %28, align 8, !tbaa !22
  %29 = getelementptr inbounds %"class.dealii::FiniteElement<3, 3>::InternalDataBase", ptr %0, i64 0, i32 1
  call void @llvm.lifetime.start.p0(i64 8, ptr nonnull %5)
  store ptr null, ptr %5, align 8, !tbaa !13
  %30 = getelementptr inbounds %"class.dealii::FiniteElement<3, 3>::InternalDataBase", ptr %0, i64 0, i32 1, i32 0, i32 0, i32 0, i32 1
  %31 = load ptr, ptr %30, align 8, !tbaa !13
  %32 = load ptr, ptr %29, align 8, !tbaa !12
  %33 = ptrtoint ptr %31 to i64
  %34 = ptrtoint ptr %32 to i64
  %35 = sub i64 %33, %34
  %36 = icmp ult i64 %35, 48
  br i1 %36, label %37, label %40

37:                                               ; preds = %26
  %38 = lshr exact i64 %35, 3
  %39 = sub nuw nsw i64 6, %38
  invoke void @_ZNSt6vectorIPN6dealii8FEValuesILi3ELi3EEESaIS3_EE14_M_fill_insertEN9__gnu_cxx17__normal_iteratorIPS3_S5_EEmRKS3_(ptr noundef nonnull align 8 dereferenceable(24) %29, ptr %31, i64 noundef %39, ptr noundef nonnull align 8 dereferenceable(8) %5)
          to label %46 unwind label %57

40:                                               ; preds = %26
  %41 = icmp eq i64 %35, 48
  br i1 %41, label %46, label %42

42:                                               ; preds = %40
  %43 = getelementptr inbounds ptr, ptr %32, i64 6
  %44 = icmp eq ptr %31, %43
  br i1 %44, label %46, label %45

45:                                               ; preds = %42
  store ptr %43, ptr %30, align 8, !tbaa !8
  br label %46

46:                                               ; preds = %37, %40, %42, %45
  call void @llvm.lifetime.end.p0(i64 8, ptr nonnull %5)
  %47 = getelementptr inbounds %"class.dealii::Quadrature", ptr %3, i64 0, i32 2
  %48 = load ptr, ptr %28, align 8, !tbaa !22
  %49 = load ptr, ptr %6, align 8, !tbaa !17
  %50 = ptrtoint ptr %48 to i64
  %51 = ptrtoint ptr %49 to i64
  %52 = sub i64 %50, %51
  %53 = sdiv exact i64 %52, 24
  %54 = icmp eq ptr %48, %49
  br i1 %54, label %61, label %59

55:                                               ; preds = %252
  call void @_ZdlPv(ptr noundef nonnull %253) #17
  br label %56

56:                                               ; preds = %252, %55
  call void @llvm.lifetime.end.p0(i64 24, ptr nonnull %6) #19
  ret void

57:                                               ; preds = %37
  %58 = landingpad { ptr, i32 }
          cleanup
  br label %270

59:                                               ; preds = %46
  %60 = load ptr, ptr %47, align 8, !tbaa !17
  br label %63

61:                                               ; preds = %63, %46
  call void @llvm.lifetime.start.p0(i64 128, ptr nonnull %7) #19
  %62 = invoke noundef nonnull align 8 dereferenceable(24) ptr @_ZNK6dealii10QuadratureILi3EE11get_weightsEv(ptr noundef nonnull align 8 dereferenceable(128) %3)
          to label %77 unwind label %94

63:                                               ; preds = %59, %63
  %64 = phi i64 [ 0, %59 ], [ %75, %63 ]
  %65 = phi i32 [ 0, %59 ], [ %74, %63 ]
  %66 = getelementptr inbounds %"class.dealii::Point", ptr %60, i64 %64
  %67 = getelementptr inbounds [3 x double], ptr %66, i64 0, i64 2
  %68 = load double, ptr %67, align 8, !tbaa !20, !noalias !23
  %69 = fadd double %68, 0.000000e+00
  %70 = getelementptr inbounds %"class.dealii::Point", ptr %49, i64 %64
  %71 = load <2 x double>, ptr %66, align 8, !tbaa !20, !noalias !23
  %72 = fadd <2 x double> %71, <double 0x3EB0C6F7A0B5ED8D, double 0.000000e+00>
  store <2 x double> %72, ptr %70, align 8, !tbaa !20
  %73 = getelementptr inbounds [3 x double], ptr %70, i64 0, i64 2
  store double %69, ptr %73, align 8, !tbaa !20
  %74 = add i32 %65, 1
  %75 = zext i32 %74 to i64
  %76 = icmp ugt i64 %53, %75
  br i1 %76, label %63, label %61

77:                                               ; preds = %61
  invoke void @_ZN6dealii10QuadratureILi3EEC1ERKSt6vectorINS_5PointILi3EEESaIS4_EERKS2_IdSaIdEE(ptr noundef nonnull align 8 dereferenceable(128) %7, ptr noundef nonnull align 8 dereferenceable(24) %6, ptr noundef nonnull align 8 dereferenceable(24) %62)
          to label %78 unwind label %94

78:                                               ; preds = %77
  %79 = invoke noalias noundef nonnull dereferenceable(776) ptr @_Znwm(i64 noundef 776) #20
          to label %80 unwind label %96

80:                                               ; preds = %78
  invoke void @_ZN6dealii8FEValuesILi3ELi3EEC1ERKNS_7MappingILi3ELi3EEERKNS_13FiniteElementILi3ELi3EEERKNS_10QuadratureILi3EEENS_11UpdateFlagsE(ptr noundef nonnull align 8 dereferenceable(776) %79, ptr noundef nonnull align 8 dereferenceable(72) %2, ptr noundef nonnull align 8 dereferenceable(728) %1, ptr noundef nonnull align 8 dereferenceable(128) %7, i32 noundef 2)
          to label %81 unwind label %98

81:                                               ; preds = %80
  %82 = load ptr, ptr %29, align 8, !tbaa !12
  store ptr %79, ptr %82, align 8, !tbaa !13
  %83 = load ptr, ptr %28, align 8, !tbaa !22
  %84 = load ptr, ptr %6, align 8, !tbaa !17
  %85 = ptrtoint ptr %83 to i64
  %86 = ptrtoint ptr %84 to i64
  %87 = sub i64 %85, %86
  %88 = sdiv exact i64 %87, 24
  %89 = icmp eq ptr %83, %84
  br i1 %89, label %92, label %90

90:                                               ; preds = %81
  %91 = load ptr, ptr %47, align 8, !tbaa !17
  br label %101

92:                                               ; preds = %101, %81
  call void @llvm.lifetime.start.p0(i64 128, ptr nonnull %8) #19
  %93 = invoke noundef nonnull align 8 dereferenceable(24) ptr @_ZNK6dealii10QuadratureILi3EE11get_weightsEv(ptr noundef nonnull align 8 dereferenceable(128) %3)
          to label %114 unwind label %255

94:                                               ; preds = %251, %213, %211, %186, %148, %146, %121, %77, %61
  %95 = landingpad { ptr, i32 }
          cleanup
  br label %268

96:                                               ; preds = %214, %149, %78
  %97 = landingpad { ptr, i32 }
          cleanup
  br label %266

98:                                               ; preds = %216, %151, %80
  %99 = phi ptr [ %79, %80 ], [ %150, %151 ], [ %215, %216 ]
  %100 = landingpad { ptr, i32 }
          cleanup
  call void @_ZdlPv(ptr noundef nonnull %99) #17
  br label %266

101:                                              ; preds = %90, %101
  %102 = phi i64 [ 0, %90 ], [ %112, %101 ]
  %103 = phi i32 [ 0, %90 ], [ %111, %101 ]
  %104 = getelementptr inbounds %"class.dealii::Point", ptr %91, i64 %102
  %105 = getelementptr inbounds [3 x double], ptr %104, i64 0, i64 2
  %106 = load double, ptr %105, align 8, !tbaa !20, !noalias !26
  %107 = getelementptr inbounds %"class.dealii::Point", ptr %84, i64 %102
  %108 = load <2 x double>, ptr %104, align 8, !tbaa !20, !noalias !26
  %109 = fadd <2 x double> %108, <double 0xBEB0C6F7A0B5ED8D, double -0.000000e+00>
  store <2 x double> %109, ptr %107, align 8, !tbaa !20
  %110 = getelementptr inbounds [3 x double], ptr %107, i64 0, i64 2
  store double %106, ptr %110, align 8, !tbaa !20
  %111 = add i32 %103, 1
  %112 = zext i32 %111 to i64
  %113 = icmp ugt i64 %88, %112
  br i1 %113, label %101, label %92

114:                                              ; preds = %92
  invoke void @_ZN6dealii10QuadratureILi3EEC1ERKSt6vectorINS_5PointILi3EEESaIS4_EERKS2_IdSaIdEE(ptr noundef nonnull align 8 dereferenceable(128) %8, ptr noundef nonnull align 8 dereferenceable(24) %6, ptr noundef nonnull align 8 dereferenceable(24) %93)
          to label %115 unwind label %255

115:                                              ; preds = %114
  %116 = invoke noalias noundef nonnull dereferenceable(776) ptr @_Znwm(i64 noundef 776) #20
          to label %117 unwind label %257

117:                                              ; preds = %115
  invoke void @_ZN6dealii8FEValuesILi3ELi3EEC1ERKNS_7MappingILi3ELi3EEERKNS_13FiniteElementILi3ELi3EEERKNS_10QuadratureILi3EEENS_11UpdateFlagsE(ptr noundef nonnull align 8 dereferenceable(776) %116, ptr noundef nonnull align 8 dereferenceable(72) %2, ptr noundef nonnull align 8 dereferenceable(728) %1, ptr noundef nonnull align 8 dereferenceable(128) %8, i32 noundef 2)
          to label %118 unwind label %259

118:                                              ; preds = %117
  %119 = load ptr, ptr %29, align 8, !tbaa !12
  %120 = getelementptr inbounds ptr, ptr %119, i64 3
  store ptr %116, ptr %120, align 8, !tbaa !13
  invoke void @_ZN6dealii10QuadratureILi3EED1Ev(ptr noundef nonnull align 8 dereferenceable(128) %8)
          to label %121 unwind label %255

121:                                              ; preds = %118
  call void @llvm.lifetime.end.p0(i64 128, ptr nonnull %8) #19
  invoke void @_ZN6dealii10QuadratureILi3EED1Ev(ptr noundef nonnull align 8 dereferenceable(128) %7)
          to label %122 unwind label %94

122:                                              ; preds = %121
  call void @llvm.lifetime.end.p0(i64 128, ptr nonnull %7) #19
  %123 = load ptr, ptr %28, align 8, !tbaa !22
  %124 = load ptr, ptr %6, align 8, !tbaa !17
  %125 = ptrtoint ptr %123 to i64
  %126 = ptrtoint ptr %124 to i64
  %127 = sub i64 %125, %126
  %128 = sdiv exact i64 %127, 24
  %129 = icmp eq ptr %123, %124
  br i1 %129, label %146, label %130

130:                                              ; preds = %122
  %131 = load ptr, ptr %47, align 8, !tbaa !17
  br label %132

132:                                              ; preds = %132, %130
  %133 = phi i64 [ 0, %130 ], [ %144, %132 ]
  %134 = phi i32 [ 0, %130 ], [ %143, %132 ]
  %135 = getelementptr inbounds %"class.dealii::Point", ptr %131, i64 %133
  %136 = getelementptr inbounds [3 x double], ptr %135, i64 0, i64 2
  %137 = load double, ptr %136, align 8, !tbaa !20, !noalias !23
  %138 = fadd double %137, 0.000000e+00
  %139 = getelementptr inbounds %"class.dealii::Point", ptr %124, i64 %133
  %140 = load <2 x double>, ptr %135, align 8, !tbaa !20, !noalias !23
  %141 = fadd <2 x double> %140, <double 0.000000e+00, double 0x3EB0C6F7A0B5ED8D>
  store <2 x double> %141, ptr %139, align 8, !tbaa !20
  %142 = getelementptr inbounds [3 x double], ptr %139, i64 0, i64 2
  store double %138, ptr %142, align 8, !tbaa !20
  %143 = add i32 %134, 1
  %144 = zext i32 %143 to i64
  %145 = icmp ugt i64 %128, %144
  br i1 %145, label %132, label %146

146:                                              ; preds = %132, %122
  call void @llvm.lifetime.start.p0(i64 128, ptr nonnull %7) #19
  %147 = invoke noundef nonnull align 8 dereferenceable(24) ptr @_ZNK6dealii10QuadratureILi3EE11get_weightsEv(ptr noundef nonnull align 8 dereferenceable(128) %3)
          to label %148 unwind label %94

148:                                              ; preds = %146
  invoke void @_ZN6dealii10QuadratureILi3EEC1ERKSt6vectorINS_5PointILi3EEESaIS4_EERKS2_IdSaIdEE(ptr noundef nonnull align 8 dereferenceable(128) %7, ptr noundef nonnull align 8 dereferenceable(24) %6, ptr noundef nonnull align 8 dereferenceable(24) %147)
          to label %149 unwind label %94

149:                                              ; preds = %148
  %150 = invoke noalias noundef nonnull dereferenceable(776) ptr @_Znwm(i64 noundef 776) #20
          to label %151 unwind label %96

151:                                              ; preds = %149
  invoke void @_ZN6dealii8FEValuesILi3ELi3EEC1ERKNS_7MappingILi3ELi3EEERKNS_13FiniteElementILi3ELi3EEERKNS_10QuadratureILi3EEENS_11UpdateFlagsE(ptr noundef nonnull align 8 dereferenceable(776) %150, ptr noundef nonnull align 8 dereferenceable(72) %2, ptr noundef nonnull align 8 dereferenceable(728) %1, ptr noundef nonnull align 8 dereferenceable(128) %7, i32 noundef 2)
          to label %152 unwind label %98

152:                                              ; preds = %151
  %153 = load ptr, ptr %29, align 8, !tbaa !12
  %154 = getelementptr inbounds ptr, ptr %153, i64 1
  store ptr %150, ptr %154, align 8, !tbaa !13
  %155 = load ptr, ptr %28, align 8, !tbaa !22
  %156 = load ptr, ptr %6, align 8, !tbaa !17
  %157 = ptrtoint ptr %155 to i64
  %158 = ptrtoint ptr %156 to i64
  %159 = sub i64 %157, %158
  %160 = sdiv exact i64 %159, 24
  %161 = icmp eq ptr %155, %156
  br i1 %161, label %177, label %162

162:                                              ; preds = %152
  %163 = load ptr, ptr %47, align 8, !tbaa !17
  br label %164

164:                                              ; preds = %164, %162
  %165 = phi i64 [ 0, %162 ], [ %175, %164 ]
  %166 = phi i32 [ 0, %162 ], [ %174, %164 ]
  %167 = getelementptr inbounds %"class.dealii::Point", ptr %163, i64 %165
  %168 = getelementptr inbounds [3 x double], ptr %167, i64 0, i64 2
  %169 = load double, ptr %168, align 8, !tbaa !20, !noalias !26
  %170 = getelementptr inbounds %"class.dealii::Point", ptr %156, i64 %165
  %171 = load <2 x double>, ptr %167, align 8, !tbaa !20, !noalias !26
  %172 = fadd <2 x double> %171, <double -0.000000e+00, double 0xBEB0C6F7A0B5ED8D>
  store <2 x double> %172, ptr %170, align 8, !tbaa !20
  %173 = getelementptr inbounds [3 x double], ptr %170, i64 0, i64 2
  store double %169, ptr %173, align 8, !tbaa !20
  %174 = add i32 %166, 1
  %175 = zext i32 %174 to i64
  %176 = icmp ugt i64 %160, %175
  br i1 %176, label %164, label %177

177:                                              ; preds = %164, %152
  call void @llvm.lifetime.start.p0(i64 128, ptr nonnull %8) #19
  %178 = invoke noundef nonnull align 8 dereferenceable(24) ptr @_ZNK6dealii10QuadratureILi3EE11get_weightsEv(ptr noundef nonnull align 8 dereferenceable(128) %3)
          to label %179 unwind label %255

179:                                              ; preds = %177
  invoke void @_ZN6dealii10QuadratureILi3EEC1ERKSt6vectorINS_5PointILi3EEESaIS4_EERKS2_IdSaIdEE(ptr noundef nonnull align 8 dereferenceable(128) %8, ptr noundef nonnull align 8 dereferenceable(24) %6, ptr noundef nonnull align 8 dereferenceable(24) %178)
          to label %180 unwind label %255

180:                                              ; preds = %179
  %181 = invoke noalias noundef nonnull dereferenceable(776) ptr @_Znwm(i64 noundef 776) #20
          to label %182 unwind label %257

182:                                              ; preds = %180
  invoke void @_ZN6dealii8FEValuesILi3ELi3EEC1ERKNS_7MappingILi3ELi3EEERKNS_13FiniteElementILi3ELi3EEERKNS_10QuadratureILi3EEENS_11UpdateFlagsE(ptr noundef nonnull align 8 dereferenceable(776) %181, ptr noundef nonnull align 8 dereferenceable(72) %2, ptr noundef nonnull align 8 dereferenceable(728) %1, ptr noundef nonnull align 8 dereferenceable(128) %8, i32 noundef 2)
          to label %183 unwind label %259

183:                                              ; preds = %182
  %184 = load ptr, ptr %29, align 8, !tbaa !12
  %185 = getelementptr inbounds ptr, ptr %184, i64 4
  store ptr %181, ptr %185, align 8, !tbaa !13
  invoke void @_ZN6dealii10QuadratureILi3EED1Ev(ptr noundef nonnull align 8 dereferenceable(128) %8)
          to label %186 unwind label %255

186:                                              ; preds = %183
  call void @llvm.lifetime.end.p0(i64 128, ptr nonnull %8) #19
  invoke void @_ZN6dealii10QuadratureILi3EED1Ev(ptr noundef nonnull align 8 dereferenceable(128) %7)
          to label %187 unwind label %94

187:                                              ; preds = %186
  call void @llvm.lifetime.end.p0(i64 128, ptr nonnull %7) #19
  %188 = load ptr, ptr %28, align 8, !tbaa !22
  %189 = load ptr, ptr %6, align 8, !tbaa !17
  %190 = ptrtoint ptr %188 to i64
  %191 = ptrtoint ptr %189 to i64
  %192 = sub i64 %190, %191
  %193 = sdiv exact i64 %192, 24
  %194 = icmp eq ptr %188, %189
  br i1 %194, label %211, label %195

195:                                              ; preds = %187
  %196 = load ptr, ptr %47, align 8, !tbaa !17
  br label %197

197:                                              ; preds = %197, %195
  %198 = phi i64 [ 0, %195 ], [ %209, %197 ]
  %199 = phi i32 [ 0, %195 ], [ %208, %197 ]
  %200 = getelementptr inbounds %"class.dealii::Point", ptr %196, i64 %198
  %201 = getelementptr inbounds [3 x double], ptr %200, i64 0, i64 2
  %202 = load double, ptr %201, align 8, !tbaa !20, !noalias !23
  %203 = fadd double %202, 0x3EB0C6F7A0B5ED8D
  %204 = getelementptr inbounds %"class.dealii::Point", ptr %189, i64 %198
  %205 = load <2 x double>, ptr %200, align 8, !tbaa !20, !noalias !23
  %206 = fadd <2 x double> %205, zeroinitializer
  store <2 x double> %206, ptr %204, align 8, !tbaa !20
  %207 = getelementptr inbounds [3 x double], ptr %204, i64 0, i64 2
  store double %203, ptr %207, align 8, !tbaa !20
  %208 = add i32 %199, 1
  %209 = zext i32 %208 to i64
  %210 = icmp ugt i64 %193, %209
  br i1 %210, label %197, label %211

211:                                              ; preds = %197, %187
  call void @llvm.lifetime.start.p0(i64 128, ptr nonnull %7) #19
  %212 = invoke noundef nonnull align 8 dereferenceable(24) ptr @_ZNK6dealii10QuadratureILi3EE11get_weightsEv(ptr noundef nonnull align 8 dereferenceable(128) %3)
          to label %213 unwind label %94

213:                                              ; preds = %211
  invoke void @_ZN6dealii10QuadratureILi3EEC1ERKSt6vectorINS_5PointILi3EEESaIS4_EERKS2_IdSaIdEE(ptr noundef nonnull align 8 dereferenceable(128) %7, ptr noundef nonnull align 8 dereferenceable(24) %6, ptr noundef nonnull align 8 dereferenceable(24) %212)
          to label %214 unwind label %94

214:                                              ; preds = %213
  %215 = invoke noalias noundef nonnull dereferenceable(776) ptr @_Znwm(i64 noundef 776) #20
          to label %216 unwind label %96

216:                                              ; preds = %214
  invoke void @_ZN6dealii8FEValuesILi3ELi3EEC1ERKNS_7MappingILi3ELi3EEERKNS_13FiniteElementILi3ELi3EEERKNS_10QuadratureILi3EEENS_11UpdateFlagsE(ptr noundef nonnull align 8 dereferenceable(776) %215, ptr noundef nonnull align 8 dereferenceable(72) %2, ptr noundef nonnull align 8 dereferenceable(728) %1, ptr noundef nonnull align 8 dereferenceable(128) %7, i32 noundef 2)
          to label %217 unwind label %98

217:                                              ; preds = %216
  %218 = load ptr, ptr %29, align 8, !tbaa !12
  %219 = getelementptr inbounds ptr, ptr %218, i64 2
  store ptr %215, ptr %219, align 8, !tbaa !13
  %220 = load ptr, ptr %28, align 8, !tbaa !22
  %221 = load ptr, ptr %6, align 8, !tbaa !17
  %222 = ptrtoint ptr %220 to i64
  %223 = ptrtoint ptr %221 to i64
  %224 = sub i64 %222, %223
  %225 = sdiv exact i64 %224, 24
  %226 = icmp eq ptr %220, %221
  br i1 %226, label %242, label %227

227:                                              ; preds = %217
  %228 = load ptr, ptr %47, align 8, !tbaa !17
  br label %229

229:                                              ; preds = %229, %227
  %230 = phi i64 [ 0, %227 ], [ %240, %229 ]
  %231 = phi i32 [ 0, %227 ], [ %239, %229 ]
  %232 = getelementptr inbounds %"class.dealii::Point", ptr %228, i64 %230
  %233 = getelementptr inbounds [3 x double], ptr %232, i64 0, i64 2
  %234 = load double, ptr %233, align 8, !tbaa !20, !noalias !26
  %235 = fadd double %234, 0xBEB0C6F7A0B5ED8D
  %236 = getelementptr inbounds %"class.dealii::Point", ptr %221, i64 %230
  %237 = load <2 x double>, ptr %232, align 8, !tbaa !20, !noalias !26
  store <2 x double> %237, ptr %236, align 8, !tbaa !20
  %238 = getelementptr inbounds [3 x double], ptr %236, i64 0, i64 2
  store double %235, ptr %238, align 8, !tbaa !20
  %239 = add i32 %231, 1
  %240 = zext i32 %239 to i64
  %241 = icmp ugt i64 %225, %240
  br i1 %241, label %229, label %242

242:                                              ; preds = %229, %217
  call void @llvm.lifetime.start.p0(i64 128, ptr nonnull %8) #19
  %243 = invoke noundef nonnull align 8 dereferenceable(24) ptr @_ZNK6dealii10QuadratureILi3EE11get_weightsEv(ptr noundef nonnull align 8 dereferenceable(128) %3)
          to label %244 unwind label %255

244:                                              ; preds = %242
  invoke void @_ZN6dealii10QuadratureILi3EEC1ERKSt6vectorINS_5PointILi3EEESaIS4_EERKS2_IdSaIdEE(ptr noundef nonnull align 8 dereferenceable(128) %8, ptr noundef nonnull align 8 dereferenceable(24) %6, ptr noundef nonnull align 8 dereferenceable(24) %243)
          to label %245 unwind label %255

245:                                              ; preds = %244
  %246 = invoke noalias noundef nonnull dereferenceable(776) ptr @_Znwm(i64 noundef 776) #20
          to label %247 unwind label %257

247:                                              ; preds = %245
  invoke void @_ZN6dealii8FEValuesILi3ELi3EEC1ERKNS_7MappingILi3ELi3EEERKNS_13FiniteElementILi3ELi3EEERKNS_10QuadratureILi3EEENS_11UpdateFlagsE(ptr noundef nonnull align 8 dereferenceable(776) %246, ptr noundef nonnull align 8 dereferenceable(72) %2, ptr noundef nonnull align 8 dereferenceable(728) %1, ptr noundef nonnull align 8 dereferenceable(128) %8, i32 noundef 2)
          to label %248 unwind label %259

248:                                              ; preds = %247
  %249 = load ptr, ptr %29, align 8, !tbaa !12
  %250 = getelementptr inbounds ptr, ptr %249, i64 5
  store ptr %246, ptr %250, align 8, !tbaa !13
  invoke void @_ZN6dealii10QuadratureILi3EED1Ev(ptr noundef nonnull align 8 dereferenceable(128) %8)
          to label %251 unwind label %255

251:                                              ; preds = %248
  call void @llvm.lifetime.end.p0(i64 128, ptr nonnull %8) #19
  invoke void @_ZN6dealii10QuadratureILi3EED1Ev(ptr noundef nonnull align 8 dereferenceable(128) %7)
          to label %252 unwind label %94

252:                                              ; preds = %251
  call void @llvm.lifetime.end.p0(i64 128, ptr nonnull %7) #19
  %253 = load ptr, ptr %6, align 8, !tbaa !17
  %254 = icmp eq ptr %253, null
  br i1 %254, label %56, label %55

255:                                              ; preds = %248, %244, %242, %183, %179, %177, %118, %114, %92
  %256 = landingpad { ptr, i32 }
          cleanup
  br label %264

257:                                              ; preds = %245, %180, %115
  %258 = landingpad { ptr, i32 }
          cleanup
  br label %262

259:                                              ; preds = %247, %182, %117
  %260 = phi ptr [ %116, %117 ], [ %181, %182 ], [ %246, %247 ]
  %261 = landingpad { ptr, i32 }
          cleanup
  call void @_ZdlPv(ptr noundef nonnull %260) #17
  br label %262

262:                                              ; preds = %259, %257
  %263 = phi { ptr, i32 } [ %261, %259 ], [ %258, %257 ]
  invoke void @_ZN6dealii10QuadratureILi3EED1Ev(ptr noundef nonnull align 8 dereferenceable(128) %8)
          to label %264 unwind label %276

264:                                              ; preds = %262, %255
  %265 = phi { ptr, i32 } [ %256, %255 ], [ %263, %262 ]
  call void @llvm.lifetime.end.p0(i64 128, ptr nonnull %8) #19
  br label %266

266:                                              ; preds = %264, %98, %96
  %267 = phi { ptr, i32 } [ %265, %264 ], [ %100, %98 ], [ %97, %96 ]
  invoke void @_ZN6dealii10QuadratureILi3EED1Ev(ptr noundef nonnull align 8 dereferenceable(128) %7)
          to label %268 unwind label %276

268:                                              ; preds = %266, %94
  %269 = phi { ptr, i32 } [ %267, %266 ], [ %95, %94 ]
  call void @llvm.lifetime.end.p0(i64 128, ptr nonnull %7) #19
  br label %270

270:                                              ; preds = %268, %57
  %271 = phi { ptr, i32 } [ %269, %268 ], [ %58, %57 ]
  %272 = load ptr, ptr %6, align 8, !tbaa !17
  %273 = icmp eq ptr %272, null
  br i1 %273, label %275, label %274

274:                                              ; preds = %270
  call void @_ZdlPv(ptr noundef nonnull %272) #17
  br label %275

275:                                              ; preds = %274, %270
  call void @llvm.lifetime.end.p0(i64 24, ptr nonnull %6) #19
  resume { ptr, i32 } %271

276:                                              ; preds = %266, %262
  %277 = landingpad { ptr, i32 }
          catch ptr null
  %278 = extractvalue { ptr, i32 } %277, 0
  call void @__clang_call_terminate(ptr %278) #18
  unreachable
}

declare noundef nonnull align 8 dereferenceable(24) ptr @_ZNK6dealii10QuadratureILi3EE11get_weightsEv(ptr noundef nonnull align 8 dereferenceable(128)) local_unnamed_addr #3

declare void @_ZN6dealii10QuadratureILi3EEC1ERKSt6vectorINS_5PointILi3EEESaIS4_EERKS2_IdSaIdEE(ptr noundef nonnull align 8 dereferenceable(128), ptr noundef nonnull align 8 dereferenceable(24), ptr noundef nonnull align 8 dereferenceable(24)) unnamed_addr #3

; Function Attrs: nobuiltin allocsize(0)
declare noundef nonnull ptr @_Znwm(i64 noundef) local_unnamed_addr #5

declare void @_ZN6dealii8FEValuesILi3ELi3EEC1ERKNS_7MappingILi3ELi3EEERKNS_13FiniteElementILi3ELi3EEERKNS_10QuadratureILi3EEENS_11UpdateFlagsE(ptr noundef nonnull align 8 dereferenceable(776), ptr noundef nonnull align 8 dereferenceable(72), ptr noundef nonnull align 8 dereferenceable(728), ptr noundef nonnull align 8 dereferenceable(128), i32 noundef) unnamed_addr #3

declare void @_ZN6dealii10QuadratureILi3EED1Ev(ptr noundef nonnull align 8 dereferenceable(128)) unnamed_addr #3

; Function Attrs: sspstrong uwtable
define weak_odr dso_local void @_ZN6dealii13FiniteElementILi3ELi3EEC2ERKNS_17FiniteElementDataILi3EEERKSt6vectorIbSaIbEERKS6_IS8_SaIS8_EE(ptr noundef nonnull align 8 dereferenceable(728) %0, ptr noundef nonnull align 4 dereferenceable(60) %1, ptr noundef nonnull align 8 dereferenceable(40) %2, ptr noundef nonnull align 8 dereferenceable(24) %3) unnamed_addr #0 comdat($_ZN6dealii13FiniteElementILi3ELi3EEC5ERKNS_17FiniteElementDataILi3EEERKSt6vectorIbSaIbEERKS6_IS8_SaIS8_EE) align 2 personality ptr @__gxx_personality_v0 {
  %5 = alloca i32, align 4
  %6 = alloca %"struct.std::pair.109", align 8
  %7 = alloca %"struct.std::pair.109", align 8
  %8 = alloca %"class.std::vector.100", align 8
  %9 = alloca %"class.std::vector.54", align 8
  %10 = alloca %"class.std::vector.112", align 8
  %11 = alloca %"class.std::vector.112", align 8
  %12 = alloca %"class.dealii::RefinementCase", align 1
  %13 = alloca %"class.dealii::FullMatrix", align 8
  %14 = alloca %"class.dealii::RefinementCase", align 1
  %15 = alloca %"class.dealii::FullMatrix", align 8
  tail call void @_ZN6dealii11SubscriptorC2Ev(ptr noundef nonnull align 8 dereferenceable(72) %0)
  %16 = getelementptr inbounds i8, ptr %0, i64 72
  tail call void @llvm.memcpy.p0.p0.i64(ptr noundef nonnull align 8 dereferenceable(60) %16, ptr noundef nonnull align 4 dereferenceable(60) %1, i64 60, i1 false), !tbaa.struct !29
  store ptr getelementptr inbounds ({ [38 x ptr] }, ptr @_ZTVN6dealii13FiniteElementILi3ELi3EEE, i64 0, inrange i32 0, i64 2), ptr %0, align 8, !tbaa !5
  %17 = getelementptr inbounds %"class.dealii::FiniteElement", ptr %0, i64 0, i32 2
  store i8 0, ptr %17, align 4, !tbaa !34
  %18 = getelementptr inbounds %"class.dealii::FiniteElement", ptr %0, i64 0, i32 3
  %19 = getelementptr inbounds %"class.dealii::FiniteElement", ptr %0, i64 0, i32 4
  %20 = getelementptr inbounds %"class.dealii::FiniteElement", ptr %0, i64 0, i32 5
  tail call void @llvm.memset.p0.i64(ptr noundef nonnull align 8 dereferenceable(48) %18, i8 0, i64 48, i1 false)
  invoke void @_ZN6dealii10FullMatrixIdEC1Ej(ptr noundef nonnull align 8 dereferenceable(92) %20, i32 noundef 0)
          to label %21 unwind label %175

21:                                               ; preds = %4
  %22 = getelementptr inbounds %"class.dealii::FiniteElement", ptr %0, i64 0, i32 6
  %23 = getelementptr inbounds %"class.dealii::FiniteElement", ptr %0, i64 0, i32 7
  %24 = getelementptr inbounds %"class.dealii::FiniteElement", ptr %0, i64 0, i32 8
  %25 = getelementptr inbounds %"class.dealii::FiniteElement", ptr %0, i64 0, i32 9
  %26 = getelementptr inbounds %"class.dealii::FiniteElement", ptr %0, i64 0, i32 10
  %27 = getelementptr inbounds i8, ptr %0, i64 80
  tail call void @llvm.memset.p0.i64(ptr noundef nonnull align 8 dereferenceable(96) %22, i8 0, i64 96, i1 false)
  %28 = load i32, ptr %27, align 8, !tbaa !92
  invoke void @_ZN6dealii11SubscriptorC2Ev(ptr noundef nonnull align 8 dereferenceable(72) %26)
          to label %29 unwind label %177

29:                                               ; preds = %21
  store ptr getelementptr inbounds ({ [4 x ptr] }, ptr @_ZTVN6dealii9TableBaseILi2EiEE, i64 0, inrange i32 0, i64 2), ptr %26, align 8, !tbaa !5
  %30 = getelementptr inbounds %"class.dealii::FiniteElement", ptr %0, i64 0, i32 10, i32 0, i32 1
  %31 = getelementptr inbounds %"class.dealii::FiniteElement", ptr %0, i64 0, i32 10, i32 0, i32 3
  tail call void @llvm.memset.p0.i64(ptr noundef nonnull align 8 dereferenceable(20) %30, i8 0, i64 16, i1 false)
  %32 = zext i32 %28 to i64
  %33 = or i64 %32, 34359738368
  store i64 %33, ptr %31, align 4
  %34 = shl i32 %28, 3
  %35 = icmp eq i32 %34, 0
  br i1 %35, label %36, label %37

36:                                               ; preds = %29
  tail call void @llvm.memset.p0.i64(ptr noundef nonnull align 8 dereferenceable(20) %30, i8 0, i64 20, i1 false)
  br label %48

37:                                               ; preds = %29
  %38 = getelementptr inbounds %"class.dealii::FiniteElement", ptr %0, i64 0, i32 10, i32 0, i32 2
  store i32 %34, ptr %38, align 8, !tbaa !93
  %39 = zext i32 %34 to i64
  %40 = shl nuw nsw i64 %39, 2
  %41 = invoke noalias noundef nonnull ptr @_Znam(i64 noundef %40) #20
          to label %42 unwind label %43

42:                                               ; preds = %37
  store ptr %41, ptr %30, align 8, !tbaa !94
  tail call void @llvm.memset.p0.i64(ptr nonnull align 4 %41, i8 0, i64 %40, i1 false), !tbaa !30
  br label %48

43:                                               ; preds = %37
  %44 = landingpad { ptr, i32 }
          cleanup
  invoke void @_ZN6dealii11SubscriptorD2Ev(ptr noundef nonnull align 8 dereferenceable(72) %26)
          to label %801 unwind label %45

45:                                               ; preds = %43
  %46 = landingpad { ptr, i32 }
          catch ptr null
  %47 = extractvalue { ptr, i32 } %46, 0
  tail call void @__clang_call_terminate(ptr %47) #18
  unreachable

48:                                               ; preds = %42, %36
  store ptr getelementptr inbounds ({ [4 x ptr] }, ptr @_ZTVN6dealii5TableILi2EiEE, i64 0, inrange i32 0, i64 2), ptr %26, align 8, !tbaa !5
  %49 = getelementptr inbounds %"class.dealii::FiniteElement", ptr %0, i64 0, i32 11
  %50 = getelementptr inbounds i8, ptr %0, i64 76
  %51 = load i32, ptr %50, align 4, !tbaa !95
  %52 = zext i32 %51 to i64
  tail call void @llvm.memset.p0.i64(ptr noundef nonnull align 8 dereferenceable(24) %49, i8 0, i64 24, i1 false)
  %53 = icmp eq i32 %51, 0
  br i1 %53, label %60, label %54

54:                                               ; preds = %48
  %55 = shl nuw nsw i64 %52, 2
  %56 = invoke noalias noundef nonnull ptr @_Znwm(i64 noundef %55) #20
          to label %57 unwind label %179

57:                                               ; preds = %54
  store ptr %56, ptr %49, align 8, !tbaa !96
  %58 = getelementptr inbounds i32, ptr %56, i64 %52
  %59 = getelementptr inbounds %"class.dealii::FiniteElement", ptr %0, i64 0, i32 11, i32 0, i32 0, i32 0, i32 2
  store ptr %58, ptr %59, align 8, !tbaa !97
  tail call void @llvm.memset.p0.i64(ptr nonnull align 4 %56, i8 0, i64 %55, i1 false), !tbaa !30
  br label %60

60:                                               ; preds = %48, %57
  %61 = phi ptr [ %58, %57 ], [ null, %48 ]
  %62 = getelementptr inbounds %"class.dealii::FiniteElement", ptr %0, i64 0, i32 11, i32 0, i32 0, i32 0, i32 1
  store ptr %61, ptr %62, align 8, !tbaa !98
  %63 = getelementptr inbounds %"class.dealii::FiniteElement", ptr %0, i64 0, i32 12
  %64 = getelementptr inbounds %"class.dealii::FiniteElement", ptr %0, i64 0, i32 13
  %65 = getelementptr inbounds %"class.dealii::FiniteElement", ptr %0, i64 0, i32 14
  %66 = getelementptr inbounds i8, ptr %0, i64 112
  tail call void @llvm.memset.p0.i64(ptr noundef nonnull align 8 dereferenceable(48) %63, i8 0, i64 48, i1 false)
  %67 = load i32, ptr %66, align 8, !tbaa !99
  %68 = zext i32 %67 to i64
  tail call void @llvm.memset.p0.i64(ptr noundef nonnull align 8 dereferenceable(24) %65, i8 0, i64 24, i1 false)
  %69 = icmp eq i32 %67, 0
  br i1 %69, label %70, label %72

70:                                               ; preds = %60
  %71 = getelementptr inbounds %"class.dealii::FiniteElement", ptr %0, i64 0, i32 14, i32 0, i32 0, i32 0, i32 1
  br label %80

72:                                               ; preds = %60
  %73 = mul nuw nsw i64 %68, 12
  %74 = invoke noalias noundef nonnull ptr @_Znwm(i64 noundef %73) #20
          to label %75 unwind label %181

75:                                               ; preds = %72
  store ptr %74, ptr %65, align 8, !tbaa !100
  %76 = getelementptr inbounds %"class.dealii::FiniteElement", ptr %0, i64 0, i32 14, i32 0, i32 0, i32 0, i32 1
  store ptr %74, ptr %76, align 8, !tbaa !101
  %77 = getelementptr inbounds %"struct.std::pair", ptr %74, i64 %68
  %78 = getelementptr inbounds %"class.dealii::FiniteElement", ptr %0, i64 0, i32 14, i32 0, i32 0, i32 0, i32 2
  store ptr %77, ptr %78, align 8, !tbaa !102
  tail call void @llvm.memset.p0.i64(ptr nonnull align 4 %74, i8 0, i64 %73, i1 false)
  %79 = getelementptr i8, ptr %74, i64 %73
  br label %80

80:                                               ; preds = %75, %70
  %81 = phi ptr [ %71, %70 ], [ %76, %75 ]
  %82 = phi ptr [ null, %70 ], [ %79, %75 ]
  store ptr %82, ptr %81, align 8, !tbaa !101
  %83 = getelementptr inbounds %"class.dealii::FiniteElement", ptr %0, i64 0, i32 15
  %84 = getelementptr inbounds i8, ptr %0, i64 108
  %85 = load i32, ptr %84, align 4, !tbaa !103
  %86 = zext i32 %85 to i64
  tail call void @llvm.memset.p0.i64(ptr noundef nonnull align 8 dereferenceable(24) %83, i8 0, i64 24, i1 false)
  %87 = icmp eq i32 %85, 0
  br i1 %87, label %88, label %90

88:                                               ; preds = %80
  %89 = getelementptr inbounds %"class.dealii::FiniteElement", ptr %0, i64 0, i32 15, i32 0, i32 0, i32 0, i32 1
  br label %98

90:                                               ; preds = %80
  %91 = mul nuw nsw i64 %86, 12
  %92 = invoke noalias noundef nonnull ptr @_Znwm(i64 noundef %91) #20
          to label %93 unwind label %183

93:                                               ; preds = %90
  store ptr %92, ptr %83, align 8, !tbaa !100
  %94 = getelementptr inbounds %"class.dealii::FiniteElement", ptr %0, i64 0, i32 15, i32 0, i32 0, i32 0, i32 1
  store ptr %92, ptr %94, align 8, !tbaa !101
  %95 = getelementptr inbounds %"struct.std::pair", ptr %92, i64 %86
  %96 = getelementptr inbounds %"class.dealii::FiniteElement", ptr %0, i64 0, i32 15, i32 0, i32 0, i32 0, i32 2
  store ptr %95, ptr %96, align 8, !tbaa !102
  tail call void @llvm.memset.p0.i64(ptr nonnull align 4 %92, i8 0, i64 %91, i1 false)
  %97 = getelementptr i8, ptr %92, i64 %91
  br label %98

98:                                               ; preds = %93, %88
  %99 = phi ptr [ %89, %88 ], [ %94, %93 ]
  %100 = phi ptr [ null, %88 ], [ %97, %93 ]
  store ptr %100, ptr %99, align 8, !tbaa !101
  %101 = getelementptr inbounds %"class.dealii::FiniteElement", ptr %0, i64 0, i32 16
  tail call void @llvm.memset.p0.i64(ptr noundef nonnull align 8 dereferenceable(24) %101, i8 0, i64 24, i1 false)
  %102 = getelementptr inbounds %"class.dealii::FiniteElement", ptr %0, i64 0, i32 17
  %103 = getelementptr inbounds i8, ptr %0, i64 116
  %104 = load i32, ptr %103, align 4, !tbaa !104
  %105 = zext i32 %104 to i64
  tail call void @llvm.memset.p0.i64(ptr noundef nonnull align 8 dereferenceable(24) %102, i8 0, i64 24, i1 false)
  %106 = icmp eq i32 %104, 0
  br i1 %106, label %107, label %109

107:                                              ; preds = %98
  %108 = getelementptr inbounds %"class.dealii::FiniteElement", ptr %0, i64 0, i32 17, i32 0, i32 0, i32 0, i32 1
  br label %117

109:                                              ; preds = %98
  %110 = mul nuw nsw i64 %105, 12
  %111 = invoke noalias noundef nonnull ptr @_Znwm(i64 noundef %110) #20
          to label %112 unwind label %185

112:                                              ; preds = %109
  store ptr %111, ptr %102, align 8, !tbaa !100
  %113 = getelementptr inbounds %"class.dealii::FiniteElement", ptr %0, i64 0, i32 17, i32 0, i32 0, i32 0, i32 1
  store ptr %111, ptr %113, align 8, !tbaa !101
  %114 = getelementptr inbounds %"struct.std::pair", ptr %111, i64 %105
  %115 = getelementptr inbounds %"class.dealii::FiniteElement", ptr %0, i64 0, i32 17, i32 0, i32 0, i32 0, i32 2
  store ptr %114, ptr %115, align 8, !tbaa !102
  tail call void @llvm.memset.p0.i64(ptr nonnull align 4 %111, i8 0, i64 %110, i1 false)
  %116 = getelementptr i8, ptr %111, i64 %110
  br label %117

117:                                              ; preds = %112, %107
  %118 = phi ptr [ %108, %107 ], [ %113, %112 ]
  %119 = phi ptr [ null, %107 ], [ %116, %112 ]
  store ptr %119, ptr %118, align 8, !tbaa !101
  %120 = getelementptr inbounds %"class.dealii::FiniteElement", ptr %0, i64 0, i32 18
  invoke void @_ZNSt6vectorIbSaIbEEC2ERKS1_(ptr noundef nonnull align 8 dereferenceable(40) %120, ptr noundef nonnull align 8 dereferenceable(40) %2)
          to label %121 unwind label %187

121:                                              ; preds = %117
  %122 = getelementptr inbounds %"class.dealii::FiniteElement", ptr %0, i64 0, i32 19
  %123 = getelementptr inbounds %"struct.std::_Vector_base<std::vector<bool>, std::allocator<std::vector<bool> > >::_Vector_impl_data", ptr %3, i64 0, i32 1
  %124 = load ptr, ptr %123, align 8, !tbaa !105
  %125 = load ptr, ptr %3, align 8, !tbaa !106
  %126 = ptrtoint ptr %124 to i64
  %127 = ptrtoint ptr %125 to i64
  %128 = sub i64 %126, %127
  %129 = sdiv exact i64 %128, 40
  tail call void @llvm.memset.p0.i64(ptr noundef nonnull align 8 dereferenceable(24) %122, i8 0, i64 24, i1 false)
  %130 = icmp eq ptr %124, %125
  br i1 %130, label %137, label %131

131:                                              ; preds = %121
  %132 = icmp ugt i64 %129, 230584300921369395
  br i1 %132, label %133, label %135, !prof !107

133:                                              ; preds = %131
  invoke void @_ZSt28__throw_bad_array_new_lengthv() #21
          to label %134 unwind label %189

134:                                              ; preds = %133
  unreachable

135:                                              ; preds = %131
  %136 = invoke noalias noundef nonnull ptr @_Znwm(i64 noundef %128) #20
          to label %137 unwind label %189

137:                                              ; preds = %135, %121
  %138 = phi ptr [ null, %121 ], [ %136, %135 ]
  store ptr %138, ptr %122, align 8, !tbaa !106
  %139 = getelementptr inbounds %"class.dealii::FiniteElement", ptr %0, i64 0, i32 19, i32 0, i32 0, i32 0, i32 1
  store ptr %138, ptr %139, align 8, !tbaa !105
  %140 = getelementptr inbounds %"class.std::vector.100", ptr %138, i64 %129
  %141 = getelementptr inbounds %"class.dealii::FiniteElement", ptr %0, i64 0, i32 19, i32 0, i32 0, i32 0, i32 2
  store ptr %140, ptr %141, align 8, !tbaa !108
  %142 = load ptr, ptr %3, align 8, !tbaa !13
  %143 = load ptr, ptr %123, align 8, !tbaa !13
  %144 = invoke noundef ptr @_ZNSt20__uninitialized_copyILb0EE13__uninit_copyIN9__gnu_cxx17__normal_iteratorIPKSt6vectorIbSaIbEES4_IS6_SaIS6_EEEEPS6_EET0_T_SE_SD_(ptr %142, ptr %143, ptr noundef %138)
          to label %150 unwind label %145

145:                                              ; preds = %137
  %146 = landingpad { ptr, i32 }
          cleanup
  %147 = load ptr, ptr %122, align 8, !tbaa !106
  %148 = icmp eq ptr %147, null
  br i1 %148, label %765, label %149

149:                                              ; preds = %145
  tail call void @_ZdlPv(ptr noundef nonnull %147) #17
  br label %765

150:                                              ; preds = %137
  store ptr %144, ptr %139, align 8, !tbaa !105
  %151 = getelementptr inbounds %"class.dealii::FiniteElement", ptr %0, i64 0, i32 20
  tail call void @llvm.memset.p0.i64(ptr noundef nonnull align 8 dereferenceable(24) %151, i8 0, i64 24, i1 false)
  %152 = load i32, ptr %66, align 8, !tbaa !99
  %153 = getelementptr inbounds %"class.dealii::FiniteElement", ptr %0, i64 0, i32 18, i32 0, i32 0, i32 0, i32 1
  %154 = load ptr, ptr %153, align 8
  %155 = getelementptr inbounds %"class.dealii::FiniteElement", ptr %0, i64 0, i32 18, i32 0, i32 0, i32 0, i32 1, i32 0, i32 1
  %156 = load i32, ptr %155, align 8
  %157 = load ptr, ptr %120, align 8, !tbaa !109
  %158 = ptrtoint ptr %154 to i64
  %159 = ptrtoint ptr %157 to i64
  %160 = sub i64 %158, %159
  %161 = shl nsw i64 %160, 3
  %162 = zext i32 %156 to i64
  %163 = add nsw i64 %161, %162
  %164 = icmp eq i64 %163, 1
  %165 = icmp ugt i32 %152, 1
  %166 = select i1 %164, i1 %165, i1 false
  br i1 %166, label %167, label %195

167:                                              ; preds = %150
  %168 = load i64, ptr %157, align 8, !tbaa !110
  %169 = and i64 %168, 1
  %170 = icmp ne i64 %169, 0
  %171 = zext i32 %152 to i64
  %172 = add nsw i64 %171, -1
  invoke void @_ZNSt6vectorIbSaIbEE14_M_fill_insertESt13_Bit_iteratormb(ptr noundef nonnull align 8 dereferenceable(40) %120, ptr %154, i32 %156, i64 noundef %172, i1 noundef zeroext %170)
          to label %173 unwind label %193

173:                                              ; preds = %167
  %174 = load ptr, ptr %139, align 8, !tbaa !105
  br label %195

175:                                              ; preds = %4
  %176 = landingpad { ptr, i32 }
          cleanup
  br label %819

177:                                              ; preds = %21
  %178 = landingpad { ptr, i32 }
          cleanup
  br label %801

179:                                              ; preds = %54
  %180 = landingpad { ptr, i32 }
          cleanup
  br label %799

181:                                              ; preds = %72
  %182 = landingpad { ptr, i32 }
          cleanup
  br label %786

183:                                              ; preds = %90
  %184 = landingpad { ptr, i32 }
          cleanup
  br label %781

185:                                              ; preds = %109
  %186 = landingpad { ptr, i32 }
          cleanup
  br label %772

187:                                              ; preds = %117
  %188 = landingpad { ptr, i32 }
          cleanup
  br label %767

189:                                              ; preds = %135, %133
  %190 = landingpad { ptr, i32 }
          cleanup
  br label %765

191:                                              ; preds = %498, %450, %431
  %192 = landingpad { ptr, i32 }
          cleanup
  br label %759

193:                                              ; preds = %167
  %194 = landingpad { ptr, i32 }
          cleanup
  br label %759

195:                                              ; preds = %173, %150
  %196 = phi ptr [ %174, %173 ], [ %144, %150 ]
  %197 = load ptr, ptr %122, align 8, !tbaa !106
  %198 = ptrtoint ptr %196 to i64
  %199 = ptrtoint ptr %197 to i64
  %200 = sub i64 %198, %199
  %201 = icmp eq i64 %200, 40
  %202 = select i1 %201, i1 %165, i1 false
  br i1 %202, label %203, label %273

203:                                              ; preds = %195
  invoke void @_ZNSt6vectorIbSaIbEEC2ERKS1_(ptr noundef nonnull align 8 dereferenceable(40) %8, ptr noundef nonnull align 8 dereferenceable(40) %197)
          to label %204 unwind label %255

204:                                              ; preds = %203
  %205 = zext i32 %152 to i64
  %206 = load ptr, ptr %139, align 8, !tbaa !13
  %207 = load ptr, ptr %122, align 8, !tbaa !106
  %208 = ptrtoint ptr %206 to i64
  %209 = ptrtoint ptr %207 to i64
  %210 = sub i64 %208, %209
  %211 = sdiv exact i64 %210, 40
  %212 = icmp ult i64 %211, %205
  br i1 %212, label %213, label %215

213:                                              ; preds = %204
  %214 = sub nsw i64 %205, %211
  invoke void @_ZNSt6vectorIS_IbSaIbEESaIS1_EE14_M_fill_insertEN9__gnu_cxx17__normal_iteratorIPS1_S3_EEmRKS1_(ptr noundef nonnull align 8 dereferenceable(24) %122, ptr %206, i64 noundef %214, ptr noundef nonnull align 8 dereferenceable(40) %8)
          to label %240 unwind label %257

215:                                              ; preds = %204
  %216 = icmp ugt i64 %211, %205
  br i1 %216, label %217, label %240

217:                                              ; preds = %215
  %218 = getelementptr inbounds %"class.std::vector.100", ptr %207, i64 %205
  %219 = icmp eq ptr %206, %218
  br i1 %219, label %240, label %220

220:                                              ; preds = %217, %236
  %221 = phi ptr [ %237, %236 ], [ %218, %217 ]
  %222 = load ptr, ptr %221, align 8, !tbaa !109
  %223 = icmp eq ptr %222, null
  br i1 %223, label %236, label %224

224:                                              ; preds = %220
  %225 = getelementptr inbounds %"struct.std::_Bvector_base<std::allocator<bool> >::_Bvector_impl_data", ptr %221, i64 0, i32 2
  %226 = load ptr, ptr %225, align 8, !tbaa !111
  %227 = ptrtoint ptr %226 to i64
  %228 = ptrtoint ptr %222 to i64
  %229 = sub i64 %227, %228
  %230 = ashr exact i64 %229, 3
  %231 = sub nsw i64 0, %230
  %232 = getelementptr inbounds i64, ptr %226, i64 %231
  call void @_ZdlPv(ptr noundef %232) #17
  store ptr null, ptr %221, align 8
  %233 = getelementptr inbounds i8, ptr %221, i64 8
  store i32 0, ptr %233, align 8
  %234 = getelementptr inbounds i8, ptr %221, i64 16
  store ptr null, ptr %234, align 8
  %235 = getelementptr inbounds i8, ptr %221, i64 24
  store i32 0, ptr %235, align 8
  store ptr null, ptr %225, align 8
  br label %236

236:                                              ; preds = %224, %220
  %237 = getelementptr inbounds %"class.std::vector.100", ptr %221, i64 1
  %238 = icmp eq ptr %237, %206
  br i1 %238, label %239, label %220

239:                                              ; preds = %236
  store ptr %218, ptr %139, align 8, !tbaa !105
  br label %240

240:                                              ; preds = %239, %217, %215, %213
  %241 = load ptr, ptr %8, align 8, !tbaa !109
  %242 = icmp eq ptr %241, null
  br i1 %242, label %273, label %243

243:                                              ; preds = %240
  %244 = getelementptr inbounds %"struct.std::_Bvector_base<std::allocator<bool> >::_Bvector_impl_data", ptr %8, i64 0, i32 2
  %245 = load ptr, ptr %244, align 8, !tbaa !111
  %246 = ptrtoint ptr %245 to i64
  %247 = ptrtoint ptr %241 to i64
  %248 = sub i64 %246, %247
  %249 = ashr exact i64 %248, 3
  %250 = sub nsw i64 0, %249
  %251 = getelementptr inbounds i64, ptr %245, i64 %250
  call void @_ZdlPv(ptr noundef %251) #17
  store ptr null, ptr %8, align 8
  %252 = getelementptr inbounds i8, ptr %8, i64 8
  store i32 0, ptr %252, align 8
  %253 = getelementptr inbounds i8, ptr %8, i64 16
  store ptr null, ptr %253, align 8
  %254 = getelementptr inbounds i8, ptr %8, i64 24
  store i32 0, ptr %254, align 8
  store ptr null, ptr %244, align 8
  br label %273

255:                                              ; preds = %203
  %256 = landingpad { ptr, i32 }
          cleanup
  br label %759

257:                                              ; preds = %213
  %258 = landingpad { ptr, i32 }
          cleanup
  %259 = load ptr, ptr %8, align 8, !tbaa !109
  %260 = icmp eq ptr %259, null
  br i1 %260, label %759, label %261

261:                                              ; preds = %257
  %262 = getelementptr inbounds %"struct.std::_Bvector_base<std::allocator<bool> >::_Bvector_impl_data", ptr %8, i64 0, i32 2
  %263 = load ptr, ptr %262, align 8, !tbaa !111
  %264 = ptrtoint ptr %263 to i64
  %265 = ptrtoint ptr %259 to i64
  %266 = sub i64 %264, %265
  %267 = ashr exact i64 %266, 3
  %268 = sub nsw i64 0, %267
  %269 = getelementptr inbounds i64, ptr %263, i64 %268
  call void @_ZdlPv(ptr noundef %269) #17
  store ptr null, ptr %8, align 8
  %270 = getelementptr inbounds i8, ptr %8, i64 8
  store i32 0, ptr %270, align 8
  %271 = getelementptr inbounds i8, ptr %8, i64 16
  store ptr null, ptr %271, align 8
  %272 = getelementptr inbounds i8, ptr %8, i64 24
  store i32 0, ptr %272, align 8
  store ptr null, ptr %262, align 8
  br label %759

273:                                              ; preds = %243, %240, %195
  call void @llvm.lifetime.start.p0(i64 24, ptr nonnull %9) #19
  call void @llvm.experimental.noalias.scope.decl(metadata !112)
  %274 = load ptr, ptr %139, align 8, !tbaa !105, !noalias !112
  %275 = load ptr, ptr %122, align 8, !tbaa !106, !noalias !112
  %276 = ptrtoint ptr %274 to i64
  %277 = ptrtoint ptr %275 to i64
  %278 = sub i64 %276, %277
  %279 = sdiv exact i64 %278, 40
  %280 = icmp ugt i64 %279, 2305843009213693951
  br i1 %280, label %281, label %283

281:                                              ; preds = %273
  invoke void @_ZSt20__throw_length_errorPKc(ptr noundef nonnull @.str.26) #21
          to label %282 unwind label %411

282:                                              ; preds = %281
  unreachable

283:                                              ; preds = %273
  %284 = icmp eq ptr %274, %275
  br i1 %284, label %285, label %286

285:                                              ; preds = %283
  call void @llvm.memset.p0.i64(ptr noundef nonnull align 8 dereferenceable(24) %9, i8 0, i64 24, i1 false), !alias.scope !112
  br label %329

286:                                              ; preds = %283
  %287 = shl nuw nsw i64 %279, 2
  %288 = invoke noalias noundef nonnull ptr @_Znwm(i64 noundef %287) #20
          to label %289 unwind label %411

289:                                              ; preds = %286
  store ptr %288, ptr %9, align 8, !tbaa !115, !alias.scope !112
  %290 = getelementptr inbounds i32, ptr %288, i64 %279
  %291 = getelementptr inbounds %"struct.std::_Vector_base<unsigned int, std::allocator<unsigned int> >::_Vector_impl_data", ptr %9, i64 0, i32 2
  store ptr %290, ptr %291, align 8, !tbaa !116, !alias.scope !112
  call void @llvm.memset.p0.i64(ptr nonnull align 4 %288, i8 0, i64 %287, i1 false), !tbaa !30, !noalias !112
  %292 = getelementptr inbounds %"struct.std::_Vector_base<unsigned int, std::allocator<unsigned int> >::_Vector_impl_data", ptr %9, i64 0, i32 1
  store ptr %290, ptr %292, align 8, !tbaa !117, !alias.scope !112
  br label %293

293:                                              ; preds = %322, %289
  %294 = phi i64 [ 0, %289 ], [ %327, %322 ]
  %295 = phi i32 [ 0, %289 ], [ %326, %322 ]
  %296 = getelementptr inbounds %"class.std::vector.100", ptr %275, i64 %294
  %297 = load ptr, ptr %296, align 8, !tbaa !109, !noalias !112
  %298 = getelementptr inbounds %"struct.std::_Bvector_base<std::allocator<bool> >::_Bvector_impl_data", ptr %296, i64 0, i32 1
  %299 = load ptr, ptr %298, align 8, !tbaa !109, !noalias !112
  %300 = getelementptr inbounds %"struct.std::_Bvector_base<std::allocator<bool> >::_Bvector_impl_data", ptr %296, i64 0, i32 1, i32 0, i32 1
  %301 = load i32, ptr %300, align 8, !tbaa !118, !noalias !112
  %302 = icmp ne ptr %297, %299
  %303 = icmp ne i32 %301, 0
  %304 = select i1 %302, i1 true, i1 %303
  br i1 %304, label %305, label %322

305:                                              ; preds = %293, %305
  %306 = phi i64 [ %313, %305 ], [ 0, %293 ]
  %307 = phi i32 [ %318, %305 ], [ 0, %293 ]
  %308 = phi ptr [ %317, %305 ], [ %297, %293 ]
  %309 = zext i32 %307 to i64
  %310 = load i64, ptr %308, align 8, !tbaa !110, !noalias !112
  %311 = lshr i64 %310, %309
  %312 = and i64 %311, 1
  %313 = add nuw nsw i64 %312, %306
  %314 = add i32 %307, 1
  %315 = icmp eq i32 %307, 63
  %316 = zext i1 %315 to i64
  %317 = getelementptr inbounds i64, ptr %308, i64 %316
  %318 = select i1 %315, i32 0, i32 %314
  %319 = icmp ne ptr %317, %299
  %320 = icmp ne i32 %318, %301
  %321 = select i1 %319, i1 true, i1 %320
  br i1 %321, label %305, label %322

322:                                              ; preds = %305, %293
  %323 = phi i64 [ 0, %293 ], [ %313, %305 ]
  %324 = trunc i64 %323 to i32
  %325 = getelementptr inbounds i32, ptr %288, i64 %294
  store i32 %324, ptr %325, align 4, !tbaa !30, !noalias !112
  %326 = add i32 %295, 1
  %327 = zext i32 %326 to i64
  %328 = icmp ugt i64 %279, %327
  br i1 %328, label %293, label %329

329:                                              ; preds = %322, %285
  %330 = invoke noundef nonnull align 8 dereferenceable(24) ptr @_ZNSt6vectorIjSaIjEEaSERKS1_(ptr noundef nonnull align 8 dereferenceable(24) %151, ptr noundef nonnull align 8 dereferenceable(24) %9)
          to label %331 unwind label %413

331:                                              ; preds = %329
  %332 = load ptr, ptr %9, align 8, !tbaa !115
  %333 = icmp eq ptr %332, null
  br i1 %333, label %335, label %334

334:                                              ; preds = %331
  call void @_ZdlPv(ptr noundef nonnull %332) #17
  br label %335

335:                                              ; preds = %331, %334
  call void @llvm.lifetime.end.p0(i64 24, ptr nonnull %9) #19
  %336 = load ptr, ptr %151, align 8, !tbaa !13
  %337 = getelementptr inbounds %"class.dealii::FiniteElement", ptr %0, i64 0, i32 20, i32 0, i32 0, i32 0, i32 1
  %338 = load ptr, ptr %337, align 8, !tbaa !13
  %339 = ptrtoint ptr %338 to i64
  %340 = ptrtoint ptr %336 to i64
  %341 = sub i64 %339, %340
  %342 = icmp sgt i64 %341, 15
  br i1 %342, label %343, label %369

343:                                              ; preds = %335
  %344 = lshr i64 %341, 4
  br label %345

345:                                              ; preds = %362, %343
  %346 = phi i64 [ %364, %362 ], [ %344, %343 ]
  %347 = phi ptr [ %363, %362 ], [ %336, %343 ]
  %348 = load i32, ptr %347, align 4, !tbaa !30
  %349 = icmp eq i32 %348, 1
  br i1 %349, label %350, label %395

350:                                              ; preds = %345
  %351 = getelementptr inbounds i32, ptr %347, i64 1
  %352 = load i32, ptr %351, align 4, !tbaa !30
  %353 = icmp eq i32 %352, 1
  br i1 %353, label %354, label %389

354:                                              ; preds = %350
  %355 = getelementptr inbounds i32, ptr %347, i64 2
  %356 = load i32, ptr %355, align 4, !tbaa !30
  %357 = icmp eq i32 %356, 1
  br i1 %357, label %358, label %391

358:                                              ; preds = %354
  %359 = getelementptr inbounds i32, ptr %347, i64 3
  %360 = load i32, ptr %359, align 4, !tbaa !30
  %361 = icmp eq i32 %360, 1
  br i1 %361, label %362, label %393

362:                                              ; preds = %358
  %363 = getelementptr inbounds i32, ptr %347, i64 4
  %364 = add nsw i64 %346, -1
  %365 = icmp sgt i64 %346, 1
  br i1 %365, label %345, label %366

366:                                              ; preds = %362
  %367 = ptrtoint ptr %363 to i64
  %368 = sub i64 %339, %367
  br label %369

369:                                              ; preds = %366, %335
  %370 = phi i64 [ %368, %366 ], [ %341, %335 ]
  %371 = phi ptr [ %363, %366 ], [ %336, %335 ]
  %372 = ashr exact i64 %370, 2
  switch i64 %372, label %395 [
    i64 3, label %373
    i64 2, label %378
    i64 1, label %384
  ]

373:                                              ; preds = %369
  %374 = load i32, ptr %371, align 4, !tbaa !30
  %375 = icmp eq i32 %374, 1
  br i1 %375, label %376, label %395

376:                                              ; preds = %373
  %377 = getelementptr inbounds i32, ptr %371, i64 1
  br label %378

378:                                              ; preds = %376, %369
  %379 = phi ptr [ %371, %369 ], [ %377, %376 ]
  %380 = load i32, ptr %379, align 4, !tbaa !30
  %381 = icmp eq i32 %380, 1
  br i1 %381, label %382, label %395

382:                                              ; preds = %378
  %383 = getelementptr inbounds i32, ptr %379, i64 1
  br label %384

384:                                              ; preds = %382, %369
  %385 = phi ptr [ %371, %369 ], [ %383, %382 ]
  %386 = load i32, ptr %385, align 4, !tbaa !30
  %387 = icmp eq i32 %386, 1
  %388 = select i1 %387, ptr %338, ptr %385
  br label %395

389:                                              ; preds = %350
  %390 = getelementptr inbounds i32, ptr %347, i64 1
  br label %395

391:                                              ; preds = %354
  %392 = getelementptr inbounds i32, ptr %347, i64 2
  br label %395

393:                                              ; preds = %358
  %394 = getelementptr inbounds i32, ptr %347, i64 3
  br label %395

395:                                              ; preds = %345, %389, %391, %393, %369, %373, %378, %384
  %396 = phi ptr [ %371, %373 ], [ %379, %378 ], [ %338, %369 ], [ %388, %384 ], [ %390, %389 ], [ %392, %391 ], [ %394, %393 ], [ %347, %345 ]
  %397 = icmp eq ptr %396, %338
  %398 = zext i1 %397 to i8
  store i8 %398, ptr %17, align 4, !tbaa !34
  %399 = load ptr, ptr %139, align 8, !tbaa !105
  %400 = load ptr, ptr %122, align 8, !tbaa !106
  %401 = ptrtoint ptr %399 to i64
  %402 = ptrtoint ptr %400 to i64
  %403 = sub i64 %401, %402
  %404 = sdiv exact i64 %403, 40
  br label %405

405:                                              ; preds = %405, %395
  %406 = phi i32 [ 0, %395 ], [ %409, %405 ]
  %407 = zext i32 %406 to i64
  %408 = icmp ugt i64 %404, %407
  %409 = add i32 %406, 1
  br i1 %408, label %405, label %410

410:                                              ; preds = %405
  br i1 %397, label %420, label %490

411:                                              ; preds = %286, %281
  %412 = landingpad { ptr, i32 }
          cleanup
  br label %418

413:                                              ; preds = %329
  %414 = landingpad { ptr, i32 }
          cleanup
  %415 = load ptr, ptr %9, align 8, !tbaa !115
  %416 = icmp eq ptr %415, null
  br i1 %416, label %418, label %417

417:                                              ; preds = %413
  call void @_ZdlPv(ptr noundef nonnull %415) #17
  br label %418

418:                                              ; preds = %417, %413, %411
  %419 = phi { ptr, i32 } [ %412, %411 ], [ %414, %413 ], [ %414, %417 ]
  call void @llvm.lifetime.end.p0(i64 24, ptr nonnull %9) #19
  br label %759

420:                                              ; preds = %410
  %421 = load i32, ptr %66, align 8, !tbaa !99
  %422 = zext i32 %421 to i64
  call void @llvm.lifetime.start.p0(i64 8, ptr nonnull %7)
  store i64 0, ptr %7, align 8
  %423 = getelementptr inbounds %"class.dealii::FiniteElement", ptr %0, i64 0, i32 12, i32 0, i32 0, i32 0, i32 1
  %424 = load ptr, ptr %423, align 8, !tbaa !13
  %425 = load ptr, ptr %63, align 8, !tbaa !119
  %426 = ptrtoint ptr %424 to i64
  %427 = ptrtoint ptr %425 to i64
  %428 = sub i64 %426, %427
  %429 = ashr exact i64 %428, 3
  %430 = icmp ult i64 %429, %422
  br i1 %430, label %431, label %433

431:                                              ; preds = %420
  %432 = sub nsw i64 %422, %429
  invoke void @_ZNSt6vectorISt4pairIjjESaIS1_EE14_M_fill_insertEN9__gnu_cxx17__normal_iteratorIPS1_S3_EEmRKS1_(ptr noundef nonnull align 8 dereferenceable(24) %63, ptr %424, i64 noundef %432, ptr noundef nonnull align 4 dereferenceable(8) %7)
          to label %439 unwind label %191

433:                                              ; preds = %420
  %434 = icmp ugt i64 %429, %422
  br i1 %434, label %435, label %439

435:                                              ; preds = %433
  %436 = getelementptr inbounds %"struct.std::pair.109", ptr %425, i64 %422
  %437 = icmp eq ptr %424, %436
  br i1 %437, label %439, label %438

438:                                              ; preds = %435
  store ptr %436, ptr %423, align 8, !tbaa !120
  br label %439

439:                                              ; preds = %438, %435, %433, %431
  call void @llvm.lifetime.end.p0(i64 8, ptr nonnull %7)
  %440 = load i32, ptr %84, align 4, !tbaa !103
  %441 = zext i32 %440 to i64
  call void @llvm.lifetime.start.p0(i64 8, ptr nonnull %6)
  store i64 0, ptr %6, align 8
  %442 = getelementptr inbounds %"class.dealii::FiniteElement", ptr %0, i64 0, i32 13, i32 0, i32 0, i32 0, i32 1
  %443 = load ptr, ptr %442, align 8, !tbaa !13
  %444 = load ptr, ptr %64, align 8, !tbaa !119
  %445 = ptrtoint ptr %443 to i64
  %446 = ptrtoint ptr %444 to i64
  %447 = sub i64 %445, %446
  %448 = ashr exact i64 %447, 3
  %449 = icmp ult i64 %448, %441
  br i1 %449, label %450, label %452

450:                                              ; preds = %439
  %451 = sub nsw i64 %441, %448
  invoke void @_ZNSt6vectorISt4pairIjjESaIS1_EE14_M_fill_insertEN9__gnu_cxx17__normal_iteratorIPS1_S3_EEmRKS1_(ptr noundef nonnull align 8 dereferenceable(24) %64, ptr %443, i64 noundef %451, ptr noundef nonnull align 4 dereferenceable(8) %6)
          to label %458 unwind label %191

452:                                              ; preds = %439
  %453 = icmp ugt i64 %448, %441
  br i1 %453, label %454, label %458

454:                                              ; preds = %452
  %455 = getelementptr inbounds %"struct.std::pair.109", ptr %444, i64 %441
  %456 = icmp eq ptr %443, %455
  br i1 %456, label %458, label %457

457:                                              ; preds = %454
  store ptr %455, ptr %442, align 8, !tbaa !120
  br label %458

458:                                              ; preds = %457, %454, %452, %450
  call void @llvm.lifetime.end.p0(i64 8, ptr nonnull %6)
  %459 = load i32, ptr %66, align 8, !tbaa !99
  %460 = icmp eq i32 %459, 0
  br i1 %460, label %461, label %464

461:                                              ; preds = %464, %458
  %462 = load i32, ptr %84, align 4, !tbaa !103
  %463 = icmp eq i32 %462, 0
  br i1 %463, label %490, label %477

464:                                              ; preds = %458, %464
  %465 = phi i64 [ %473, %464 ], [ 0, %458 ]
  %466 = load ptr, ptr %63, align 8, !tbaa !119
  %467 = getelementptr inbounds %"struct.std::pair.109", ptr %466, i64 %465
  %468 = shl nuw i64 %465, 32
  store i64 %468, ptr %467, align 4
  %469 = load ptr, ptr %65, align 8, !tbaa !100
  %470 = getelementptr inbounds %"struct.std::pair", ptr %469, i64 %465
  store i64 0, ptr %470, align 4
  %471 = getelementptr inbounds i8, ptr %470, i64 8
  %472 = trunc i64 %465 to i32
  store i32 %472, ptr %471, align 4
  %473 = add nuw nsw i64 %465, 1
  %474 = load i32, ptr %66, align 8, !tbaa !99
  %475 = zext i32 %474 to i64
  %476 = icmp ult i64 %473, %475
  br i1 %476, label %464, label %461

477:                                              ; preds = %461, %477
  %478 = phi i64 [ %486, %477 ], [ 0, %461 ]
  %479 = load ptr, ptr %64, align 8, !tbaa !119
  %480 = getelementptr inbounds %"struct.std::pair.109", ptr %479, i64 %478
  %481 = shl nuw i64 %478, 32
  store i64 %481, ptr %480, align 4
  %482 = load ptr, ptr %83, align 8, !tbaa !100
  %483 = getelementptr inbounds %"struct.std::pair", ptr %482, i64 %478
  store i64 0, ptr %483, align 4
  %484 = getelementptr inbounds i8, ptr %483, i64 8
  %485 = trunc i64 %478 to i32
  store i32 %485, ptr %484, align 4
  %486 = add nuw nsw i64 %478, 1
  %487 = load i32, ptr %84, align 4, !tbaa !103
  %488 = zext i32 %487 to i64
  %489 = icmp ult i64 %486, %488
  br i1 %489, label %477, label %490

490:                                              ; preds = %477, %461, %410
  call void @llvm.lifetime.start.p0(i64 4, ptr nonnull %5)
  store i32 0, ptr %5, align 4, !tbaa !30
  %491 = getelementptr inbounds %"class.dealii::FiniteElement", ptr %0, i64 0, i32 16, i32 0, i32 0, i32 0, i32 1
  %492 = load ptr, ptr %491, align 8, !tbaa !13
  %493 = load ptr, ptr %101, align 8, !tbaa !115
  %494 = ptrtoint ptr %492 to i64
  %495 = ptrtoint ptr %493 to i64
  %496 = sub i64 %494, %495
  %497 = icmp eq ptr %492, %493
  br i1 %497, label %498, label %501

498:                                              ; preds = %490
  %499 = ashr exact i64 %496, 2
  %500 = sub nuw nsw i64 1, %499
  invoke void @_ZNSt6vectorIjSaIjEE14_M_fill_insertEN9__gnu_cxx17__normal_iteratorIPjS1_EEmRKj(ptr noundef nonnull align 8 dereferenceable(24) %101, ptr %492, i64 noundef %500, ptr noundef nonnull align 4 dereferenceable(4) %5)
          to label %507 unwind label %191

501:                                              ; preds = %490
  %502 = icmp ugt i64 %496, 4
  br i1 %502, label %503, label %507

503:                                              ; preds = %501
  %504 = getelementptr inbounds i32, ptr %493, i64 1
  %505 = icmp eq ptr %492, %504
  br i1 %505, label %507, label %506

506:                                              ; preds = %503
  store ptr %504, ptr %491, align 8, !tbaa !117
  br label %507

507:                                              ; preds = %498, %501, %503, %506
  call void @llvm.lifetime.end.p0(i64 4, ptr nonnull %5)
  call void @llvm.memset.p0.i64(ptr noundef nonnull align 8 dereferenceable(24) %10, i8 0, i64 24, i1 false)
  %508 = getelementptr inbounds %"class.dealii::FiniteElement", ptr %0, i64 0, i32 4, i32 0, i32 0, i32 0, i32 1
  %509 = load ptr, ptr %508, align 8, !tbaa !13
  %510 = load ptr, ptr %19, align 8, !tbaa !121
  %511 = ptrtoint ptr %509 to i64
  %512 = ptrtoint ptr %510 to i64
  %513 = sub i64 %511, %512
  %514 = sdiv exact i64 %513, 24
  %515 = icmp ult i64 %514, 7
  br i1 %515, label %516, label %518

516:                                              ; preds = %507
  %517 = sub nuw nsw i64 7, %514
  invoke void @_ZNSt6vectorIS_IN6dealii10FullMatrixIdEESaIS2_EESaIS4_EE14_M_fill_insertEN9__gnu_cxx17__normal_iteratorIPS4_S6_EEmRKS4_(ptr noundef nonnull align 8 dereferenceable(24) %19, ptr %509, i64 noundef %517, ptr noundef nonnull align 8 dereferenceable(24) %10)
          to label %551 unwind label %654

518:                                              ; preds = %507
  %519 = icmp eq i64 %513, 168
  br i1 %519, label %551, label %520

520:                                              ; preds = %518
  %521 = getelementptr inbounds %"class.std::vector.112", ptr %510, i64 7
  %522 = icmp eq ptr %509, %521
  br i1 %522, label %551, label %523

523:                                              ; preds = %520, %547
  %524 = phi ptr [ %548, %547 ], [ %521, %520 ]
  %525 = load ptr, ptr %524, align 8, !tbaa !122
  %526 = getelementptr inbounds %"struct.std::_Vector_base<dealii::FullMatrix<double>, std::allocator<dealii::FullMatrix<double> > >::_Vector_impl_data", ptr %524, i64 0, i32 1
  %527 = load ptr, ptr %526, align 8, !tbaa !124
  %528 = icmp eq ptr %525, %527
  br i1 %528, label %538, label %529

529:                                              ; preds = %523, %533
  %530 = phi ptr [ %534, %533 ], [ %525, %523 ]
  %531 = load ptr, ptr %530, align 8, !tbaa !5
  %532 = load ptr, ptr %531, align 8
  invoke void %532(ptr noundef nonnull align 8 dereferenceable(92) %530)
          to label %533 unwind label %542

533:                                              ; preds = %529
  %534 = getelementptr inbounds %"class.dealii::FullMatrix", ptr %530, i64 1
  %535 = icmp eq ptr %534, %527
  br i1 %535, label %536, label %529

536:                                              ; preds = %533
  %537 = load ptr, ptr %524, align 8, !tbaa !122
  br label %538

538:                                              ; preds = %536, %523
  %539 = phi ptr [ %537, %536 ], [ %525, %523 ]
  %540 = icmp eq ptr %539, null
  br i1 %540, label %547, label %541

541:                                              ; preds = %538
  call void @_ZdlPv(ptr noundef nonnull %539) #17
  br label %547

542:                                              ; preds = %529
  %543 = landingpad { ptr, i32 }
          cleanup
  %544 = load ptr, ptr %524, align 8, !tbaa !122
  %545 = icmp eq ptr %544, null
  br i1 %545, label %656, label %546

546:                                              ; preds = %542
  call void @_ZdlPv(ptr noundef nonnull %544) #17
  br label %656

547:                                              ; preds = %541, %538
  %548 = getelementptr inbounds %"class.std::vector.112", ptr %524, i64 1
  %549 = icmp eq ptr %548, %509
  br i1 %549, label %550, label %523

550:                                              ; preds = %547
  store ptr %521, ptr %508, align 8, !tbaa !125
  br label %551

551:                                              ; preds = %550, %520, %518, %516
  %552 = load ptr, ptr %10, align 8, !tbaa !122
  %553 = getelementptr inbounds %"struct.std::_Vector_base<dealii::FullMatrix<double>, std::allocator<dealii::FullMatrix<double> > >::_Vector_impl_data", ptr %10, i64 0, i32 1
  %554 = load ptr, ptr %553, align 8, !tbaa !124
  %555 = icmp eq ptr %552, %554
  br i1 %555, label %565, label %556

556:                                              ; preds = %551, %560
  %557 = phi ptr [ %561, %560 ], [ %552, %551 ]
  %558 = load ptr, ptr %557, align 8, !tbaa !5
  %559 = load ptr, ptr %558, align 8
  invoke void %559(ptr noundef nonnull align 8 dereferenceable(92) %557)
          to label %560 unwind label %569

560:                                              ; preds = %556
  %561 = getelementptr inbounds %"class.dealii::FullMatrix", ptr %557, i64 1
  %562 = icmp eq ptr %561, %554
  br i1 %562, label %563, label %556

563:                                              ; preds = %560
  %564 = load ptr, ptr %10, align 8, !tbaa !122
  br label %565

565:                                              ; preds = %563, %551
  %566 = phi ptr [ %564, %563 ], [ %552, %551 ]
  %567 = icmp eq ptr %566, null
  br i1 %567, label %574, label %568

568:                                              ; preds = %565
  call void @_ZdlPv(ptr noundef nonnull %566) #17
  br label %574

569:                                              ; preds = %556
  %570 = landingpad { ptr, i32 }
          cleanup
  %571 = load ptr, ptr %10, align 8, !tbaa !122
  %572 = icmp eq ptr %571, null
  br i1 %572, label %759, label %573

573:                                              ; preds = %569
  call void @_ZdlPv(ptr noundef nonnull %571) #17
  br label %759

574:                                              ; preds = %565, %568
  call void @llvm.memset.p0.i64(ptr noundef nonnull align 8 dereferenceable(24) %11, i8 0, i64 24, i1 false)
  %575 = getelementptr inbounds %"class.dealii::FiniteElement", ptr %0, i64 0, i32 3, i32 0, i32 0, i32 0, i32 1
  %576 = load ptr, ptr %575, align 8, !tbaa !13
  %577 = load ptr, ptr %18, align 8, !tbaa !121
  %578 = ptrtoint ptr %576 to i64
  %579 = ptrtoint ptr %577 to i64
  %580 = sub i64 %578, %579
  %581 = sdiv exact i64 %580, 24
  %582 = icmp ult i64 %581, 7
  br i1 %582, label %583, label %585

583:                                              ; preds = %574
  %584 = sub nuw nsw i64 7, %581
  invoke void @_ZNSt6vectorIS_IN6dealii10FullMatrixIdEESaIS2_EESaIS4_EE14_M_fill_insertEN9__gnu_cxx17__normal_iteratorIPS4_S6_EEmRKS4_(ptr noundef nonnull align 8 dereferenceable(24) %18, ptr %576, i64 noundef %584, ptr noundef nonnull align 8 dereferenceable(24) %11)
          to label %618 unwind label %658

585:                                              ; preds = %574
  %586 = icmp eq i64 %580, 168
  br i1 %586, label %618, label %587

587:                                              ; preds = %585
  %588 = getelementptr inbounds %"class.std::vector.112", ptr %577, i64 7
  %589 = icmp eq ptr %576, %588
  br i1 %589, label %618, label %590

590:                                              ; preds = %587, %614
  %591 = phi ptr [ %615, %614 ], [ %588, %587 ]
  %592 = load ptr, ptr %591, align 8, !tbaa !122
  %593 = getelementptr inbounds %"struct.std::_Vector_base<dealii::FullMatrix<double>, std::allocator<dealii::FullMatrix<double> > >::_Vector_impl_data", ptr %591, i64 0, i32 1
  %594 = load ptr, ptr %593, align 8, !tbaa !124
  %595 = icmp eq ptr %592, %594
  br i1 %595, label %605, label %596

596:                                              ; preds = %590, %600
  %597 = phi ptr [ %601, %600 ], [ %592, %590 ]
  %598 = load ptr, ptr %597, align 8, !tbaa !5
  %599 = load ptr, ptr %598, align 8
  invoke void %599(ptr noundef nonnull align 8 dereferenceable(92) %597)
          to label %600 unwind label %609

600:                                              ; preds = %596
  %601 = getelementptr inbounds %"class.dealii::FullMatrix", ptr %597, i64 1
  %602 = icmp eq ptr %601, %594
  br i1 %602, label %603, label %596

603:                                              ; preds = %600
  %604 = load ptr, ptr %591, align 8, !tbaa !122
  br label %605

605:                                              ; preds = %603, %590
  %606 = phi ptr [ %604, %603 ], [ %592, %590 ]
  %607 = icmp eq ptr %606, null
  br i1 %607, label %614, label %608

608:                                              ; preds = %605
  call void @_ZdlPv(ptr noundef nonnull %606) #17
  br label %614

609:                                              ; preds = %596
  %610 = landingpad { ptr, i32 }
          cleanup
  %611 = load ptr, ptr %591, align 8, !tbaa !122
  %612 = icmp eq ptr %611, null
  br i1 %612, label %660, label %613

613:                                              ; preds = %609
  call void @_ZdlPv(ptr noundef nonnull %611) #17
  br label %660

614:                                              ; preds = %608, %605
  %615 = getelementptr inbounds %"class.std::vector.112", ptr %591, i64 1
  %616 = icmp eq ptr %615, %576
  br i1 %616, label %617, label %590

617:                                              ; preds = %614
  store ptr %588, ptr %575, align 8, !tbaa !125
  br label %618

618:                                              ; preds = %617, %587, %585, %583
  %619 = load ptr, ptr %11, align 8, !tbaa !122
  %620 = getelementptr inbounds %"struct.std::_Vector_base<dealii::FullMatrix<double>, std::allocator<dealii::FullMatrix<double> > >::_Vector_impl_data", ptr %11, i64 0, i32 1
  %621 = load ptr, ptr %620, align 8, !tbaa !124
  %622 = icmp eq ptr %619, %621
  br i1 %622, label %632, label %623

623:                                              ; preds = %618, %627
  %624 = phi ptr [ %628, %627 ], [ %619, %618 ]
  %625 = load ptr, ptr %624, align 8, !tbaa !5
  %626 = load ptr, ptr %625, align 8
  invoke void %626(ptr noundef nonnull align 8 dereferenceable(92) %624)
          to label %627 unwind label %636

627:                                              ; preds = %623
  %628 = getelementptr inbounds %"class.dealii::FullMatrix", ptr %624, i64 1
  %629 = icmp eq ptr %628, %621
  br i1 %629, label %630, label %623

630:                                              ; preds = %627
  %631 = load ptr, ptr %11, align 8, !tbaa !122
  br label %632

632:                                              ; preds = %630, %618
  %633 = phi ptr [ %631, %630 ], [ %619, %618 ]
  %634 = icmp eq ptr %633, null
  br i1 %634, label %641, label %635

635:                                              ; preds = %632
  call void @_ZdlPv(ptr noundef nonnull %633) #17
  br label %641

636:                                              ; preds = %623
  %637 = landingpad { ptr, i32 }
          cleanup
  %638 = load ptr, ptr %11, align 8, !tbaa !122
  %639 = icmp eq ptr %638, null
  br i1 %639, label %759, label %640

640:                                              ; preds = %636
  call void @_ZdlPv(ptr noundef nonnull %638) #17
  br label %759

641:                                              ; preds = %632, %635
  %642 = getelementptr inbounds %"class.dealii::TableBase", ptr %13, i64 0, i32 1
  %643 = getelementptr inbounds %"class.dealii::TableBase", ptr %15, i64 0, i32 1
  br label %662

644:                                              ; preds = %735
  %645 = load i32, ptr %31, align 4, !tbaa !30
  %646 = getelementptr inbounds %"class.dealii::FiniteElement", ptr %0, i64 0, i32 10, i32 0, i32 3, i32 0, i32 0, i64 1
  %647 = load i32, ptr %646, align 8, !tbaa !30
  %648 = mul i32 %647, %645
  %649 = icmp eq i32 %648, 0
  br i1 %649, label %758, label %650

650:                                              ; preds = %644
  %651 = load ptr, ptr %30, align 8, !tbaa !94
  %652 = zext i32 %648 to i64
  %653 = shl nuw nsw i64 %652, 2
  call void @llvm.memset.p0.i64(ptr align 4 %651, i8 0, i64 %653, i1 false), !tbaa !30
  br label %758

654:                                              ; preds = %516
  %655 = landingpad { ptr, i32 }
          cleanup
  br label %656

656:                                              ; preds = %542, %546, %654
  %657 = phi { ptr, i32 } [ %655, %654 ], [ %543, %546 ], [ %543, %542 ]
  invoke void @_ZNSt6vectorIN6dealii10FullMatrixIdEESaIS2_EED2Ev(ptr noundef nonnull align 8 dereferenceable(24) %10)
          to label %759 unwind label %824

658:                                              ; preds = %583
  %659 = landingpad { ptr, i32 }
          cleanup
  br label %660

660:                                              ; preds = %609, %613, %658
  %661 = phi { ptr, i32 } [ %659, %658 ], [ %610, %613 ], [ %610, %609 ]
  invoke void @_ZNSt6vectorIN6dealii10FullMatrixIdEESaIS2_EED2Ev(ptr noundef nonnull align 8 dereferenceable(24) %11)
          to label %759 unwind label %824

662:                                              ; preds = %641, %735
  %663 = phi i64 [ 1, %641 ], [ %736, %735 ]
  %664 = add nsw i64 %663, -1
  %665 = load ptr, ptr %19, align 8, !tbaa !121
  %666 = getelementptr inbounds %"class.std::vector.112", ptr %665, i64 %664
  call void @llvm.lifetime.start.p0(i64 1, ptr nonnull %12) #19
  %667 = trunc i64 %663 to i8
  store i8 %667, ptr %12, align 1
  %668 = invoke noundef i32 @_ZN6dealii12GeometryInfoILi3EE10n_childrenERKNS_14RefinementCaseILi3EEE(ptr noundef nonnull align 1 dereferenceable(1) %12)
          to label %669 unwind label %738

669:                                              ; preds = %662
  invoke void @_ZN6dealii10FullMatrixIdEC1Ej(ptr noundef nonnull align 8 dereferenceable(92) %13, i32 noundef 0)
          to label %670 unwind label %738

670:                                              ; preds = %669
  %671 = zext i32 %668 to i64
  %672 = getelementptr inbounds %"struct.std::_Vector_base<dealii::FullMatrix<double>, std::allocator<dealii::FullMatrix<double> > >::_Vector_impl_data", ptr %666, i64 0, i32 1
  %673 = load ptr, ptr %672, align 8, !tbaa !13
  %674 = load ptr, ptr %666, align 8, !tbaa !122
  %675 = ptrtoint ptr %673 to i64
  %676 = ptrtoint ptr %674 to i64
  %677 = sub i64 %675, %676
  %678 = sdiv exact i64 %677, 96
  %679 = icmp ult i64 %678, %671
  br i1 %679, label %680, label %682

680:                                              ; preds = %670
  %681 = sub nsw i64 %671, %678
  invoke void @_ZNSt6vectorIN6dealii10FullMatrixIdEESaIS2_EE14_M_fill_insertEN9__gnu_cxx17__normal_iteratorIPS2_S4_EEmRKS2_(ptr noundef nonnull align 8 dereferenceable(24) %666, ptr %673, i64 noundef %681, ptr noundef nonnull align 8 dereferenceable(92) %13)
          to label %695 unwind label %742

682:                                              ; preds = %670
  %683 = icmp ugt i64 %678, %671
  br i1 %683, label %684, label %695

684:                                              ; preds = %682
  %685 = getelementptr inbounds %"class.dealii::FullMatrix", ptr %674, i64 %671
  %686 = icmp eq ptr %673, %685
  br i1 %686, label %695, label %687

687:                                              ; preds = %684, %691
  %688 = phi ptr [ %692, %691 ], [ %685, %684 ]
  %689 = load ptr, ptr %688, align 8, !tbaa !5
  %690 = load ptr, ptr %689, align 8
  invoke void %690(ptr noundef nonnull align 8 dereferenceable(92) %688)
          to label %691 unwind label %740

691:                                              ; preds = %687
  %692 = getelementptr inbounds %"class.dealii::FullMatrix", ptr %688, i64 1
  %693 = icmp eq ptr %692, %673
  br i1 %693, label %694, label %687

694:                                              ; preds = %691
  store ptr %685, ptr %672, align 8, !tbaa !124
  br label %695

695:                                              ; preds = %694, %684, %682, %680
  store ptr getelementptr inbounds ({ [4 x ptr] }, ptr @_ZTVN6dealii9TableBaseILi2EdEE, i64 0, inrange i32 0, i64 2), ptr %13, align 8, !tbaa !5
  %696 = load ptr, ptr %642, align 8, !tbaa !126
  %697 = icmp eq ptr %696, null
  br i1 %697, label %699, label %698

698:                                              ; preds = %695
  call void @_ZdaPv(ptr noundef nonnull %696) #17
  br label %699

699:                                              ; preds = %698, %695
  invoke void @_ZN6dealii11SubscriptorD2Ev(ptr noundef nonnull align 8 dereferenceable(72) %13)
          to label %700 unwind label %738

700:                                              ; preds = %699
  call void @llvm.lifetime.end.p0(i64 1, ptr nonnull %12) #19
  %701 = load ptr, ptr %18, align 8, !tbaa !121
  %702 = getelementptr inbounds %"class.std::vector.112", ptr %701, i64 %664
  call void @llvm.lifetime.start.p0(i64 1, ptr nonnull %14) #19
  store i8 %667, ptr %14, align 1
  %703 = invoke noundef i32 @_ZN6dealii12GeometryInfoILi3EE10n_childrenERKNS_14RefinementCaseILi3EEE(ptr noundef nonnull align 1 dereferenceable(1) %14)
          to label %704 unwind label %748

704:                                              ; preds = %700
  invoke void @_ZN6dealii10FullMatrixIdEC1Ej(ptr noundef nonnull align 8 dereferenceable(92) %15, i32 noundef 0)
          to label %705 unwind label %748

705:                                              ; preds = %704
  %706 = zext i32 %703 to i64
  %707 = getelementptr inbounds %"struct.std::_Vector_base<dealii::FullMatrix<double>, std::allocator<dealii::FullMatrix<double> > >::_Vector_impl_data", ptr %702, i64 0, i32 1
  %708 = load ptr, ptr %707, align 8, !tbaa !13
  %709 = load ptr, ptr %702, align 8, !tbaa !122
  %710 = ptrtoint ptr %708 to i64
  %711 = ptrtoint ptr %709 to i64
  %712 = sub i64 %710, %711
  %713 = sdiv exact i64 %712, 96
  %714 = icmp ult i64 %713, %706
  br i1 %714, label %715, label %717

715:                                              ; preds = %705
  %716 = sub nsw i64 %706, %713
  invoke void @_ZNSt6vectorIN6dealii10FullMatrixIdEESaIS2_EE14_M_fill_insertEN9__gnu_cxx17__normal_iteratorIPS2_S4_EEmRKS2_(ptr noundef nonnull align 8 dereferenceable(24) %702, ptr %708, i64 noundef %716, ptr noundef nonnull align 8 dereferenceable(92) %15)
          to label %730 unwind label %752

717:                                              ; preds = %705
  %718 = icmp ugt i64 %713, %706
  br i1 %718, label %719, label %730

719:                                              ; preds = %717
  %720 = getelementptr inbounds %"class.dealii::FullMatrix", ptr %709, i64 %706
  %721 = icmp eq ptr %708, %720
  br i1 %721, label %730, label %722

722:                                              ; preds = %719, %726
  %723 = phi ptr [ %727, %726 ], [ %720, %719 ]
  %724 = load ptr, ptr %723, align 8, !tbaa !5
  %725 = load ptr, ptr %724, align 8
  invoke void %725(ptr noundef nonnull align 8 dereferenceable(92) %723)
          to label %726 unwind label %750

726:                                              ; preds = %722
  %727 = getelementptr inbounds %"class.dealii::FullMatrix", ptr %723, i64 1
  %728 = icmp eq ptr %727, %708
  br i1 %728, label %729, label %722

729:                                              ; preds = %726
  store ptr %720, ptr %707, align 8, !tbaa !124
  br label %730

730:                                              ; preds = %729, %719, %717, %715
  store ptr getelementptr inbounds ({ [4 x ptr] }, ptr @_ZTVN6dealii9TableBaseILi2EdEE, i64 0, inrange i32 0, i64 2), ptr %15, align 8, !tbaa !5
  %731 = load ptr, ptr %643, align 8, !tbaa !126
  %732 = icmp eq ptr %731, null
  br i1 %732, label %734, label %733

733:                                              ; preds = %730
  call void @_ZdaPv(ptr noundef nonnull %731) #17
  br label %734

734:                                              ; preds = %733, %730
  invoke void @_ZN6dealii11SubscriptorD2Ev(ptr noundef nonnull align 8 dereferenceable(72) %15)
          to label %735 unwind label %748

735:                                              ; preds = %734
  call void @llvm.lifetime.end.p0(i64 1, ptr nonnull %14) #19
  %736 = add nuw nsw i64 %663, 1
  %737 = icmp eq i64 %736, 8
  br i1 %737, label %644, label %662

738:                                              ; preds = %699, %669, %662
  %739 = landingpad { ptr, i32 }
          cleanup
  br label %746

740:                                              ; preds = %687
  %741 = landingpad { ptr, i32 }
          cleanup
  br label %744

742:                                              ; preds = %680
  %743 = landingpad { ptr, i32 }
          cleanup
  br label %744

744:                                              ; preds = %742, %740
  %745 = phi { ptr, i32 } [ %741, %740 ], [ %743, %742 ]
  invoke void @_ZN6dealii9TableBaseILi2EdED2Ev(ptr noundef nonnull align 8 dereferenceable(92) %13)
          to label %746 unwind label %824

746:                                              ; preds = %744, %738
  %747 = phi { ptr, i32 } [ %739, %738 ], [ %745, %744 ]
  call void @llvm.lifetime.end.p0(i64 1, ptr nonnull %12) #19
  br label %759

748:                                              ; preds = %734, %704, %700
  %749 = landingpad { ptr, i32 }
          cleanup
  br label %756

750:                                              ; preds = %722
  %751 = landingpad { ptr, i32 }
          cleanup
  br label %754

752:                                              ; preds = %715
  %753 = landingpad { ptr, i32 }
          cleanup
  br label %754

754:                                              ; preds = %752, %750
  %755 = phi { ptr, i32 } [ %751, %750 ], [ %753, %752 ]
  invoke void @_ZN6dealii9TableBaseILi2EdED2Ev(ptr noundef nonnull align 8 dereferenceable(92) %15)
          to label %756 unwind label %824

756:                                              ; preds = %754, %748
  %757 = phi { ptr, i32 } [ %749, %748 ], [ %755, %754 ]
  call void @llvm.lifetime.end.p0(i64 1, ptr nonnull %14) #19
  br label %759

758:                                              ; preds = %650, %644
  ret void

759:                                              ; preds = %636, %640, %569, %573, %261, %257, %191, %746, %756, %255, %660, %656, %418, %193
  %760 = phi { ptr, i32 } [ %661, %660 ], [ %657, %656 ], [ %419, %418 ], [ %194, %193 ], [ %256, %255 ], [ %757, %756 ], [ %747, %746 ], [ %192, %191 ], [ %258, %257 ], [ %258, %261 ], [ %570, %573 ], [ %570, %569 ], [ %637, %640 ], [ %637, %636 ]
  %761 = load ptr, ptr %151, align 8, !tbaa !115
  %762 = icmp eq ptr %761, null
  br i1 %762, label %764, label %763

763:                                              ; preds = %759
  call void @_ZdlPv(ptr noundef nonnull %761) #17
  br label %764

764:                                              ; preds = %763, %759
  invoke void @_ZNSt6vectorIS_IbSaIbEESaIS1_EED2Ev(ptr noundef nonnull align 8 dereferenceable(24) %122)
          to label %765 unwind label %824

765:                                              ; preds = %189, %149, %145, %764
  %766 = phi { ptr, i32 } [ %760, %764 ], [ %190, %189 ], [ %146, %149 ], [ %146, %145 ]
  invoke void @_ZNSt13_Bvector_baseISaIbEED2Ev(ptr noundef nonnull align 8 dereferenceable(40) %120)
          to label %767 unwind label %824

767:                                              ; preds = %765, %187
  %768 = phi { ptr, i32 } [ %766, %765 ], [ %188, %187 ]
  %769 = load ptr, ptr %102, align 8, !tbaa !100
  %770 = icmp eq ptr %769, null
  br i1 %770, label %772, label %771

771:                                              ; preds = %767
  call void @_ZdlPv(ptr noundef nonnull %769) #17
  br label %772

772:                                              ; preds = %771, %767, %185
  %773 = phi { ptr, i32 } [ %186, %185 ], [ %768, %767 ], [ %768, %771 ]
  %774 = load ptr, ptr %101, align 8, !tbaa !115
  %775 = icmp eq ptr %774, null
  br i1 %775, label %777, label %776

776:                                              ; preds = %772
  call void @_ZdlPv(ptr noundef nonnull %774) #17
  br label %777

777:                                              ; preds = %776, %772
  %778 = load ptr, ptr %83, align 8, !tbaa !100
  %779 = icmp eq ptr %778, null
  br i1 %779, label %781, label %780

780:                                              ; preds = %777
  call void @_ZdlPv(ptr noundef nonnull %778) #17
  br label %781

781:                                              ; preds = %780, %777, %183
  %782 = phi { ptr, i32 } [ %184, %183 ], [ %773, %777 ], [ %773, %780 ]
  %783 = load ptr, ptr %65, align 8, !tbaa !100
  %784 = icmp eq ptr %783, null
  br i1 %784, label %786, label %785

785:                                              ; preds = %781
  call void @_ZdlPv(ptr noundef nonnull %783) #17
  br label %786

786:                                              ; preds = %785, %781, %181
  %787 = phi { ptr, i32 } [ %182, %181 ], [ %782, %781 ], [ %782, %785 ]
  %788 = load ptr, ptr %64, align 8, !tbaa !119
  %789 = icmp eq ptr %788, null
  br i1 %789, label %791, label %790

790:                                              ; preds = %786
  call void @_ZdlPv(ptr noundef nonnull %788) #17
  br label %791

791:                                              ; preds = %790, %786
  %792 = load ptr, ptr %63, align 8, !tbaa !119
  %793 = icmp eq ptr %792, null
  br i1 %793, label %795, label %794

794:                                              ; preds = %791
  call void @_ZdlPv(ptr noundef nonnull %792) #17
  br label %795

795:                                              ; preds = %794, %791
  %796 = load ptr, ptr %49, align 8, !tbaa !96
  %797 = icmp eq ptr %796, null
  br i1 %797, label %799, label %798

798:                                              ; preds = %795
  call void @_ZdlPv(ptr noundef nonnull %796) #17
  br label %799

799:                                              ; preds = %798, %795, %179
  %800 = phi { ptr, i32 } [ %180, %179 ], [ %787, %795 ], [ %787, %798 ]
  invoke void @_ZN6dealii9TableBaseILi2EiED2Ev(ptr noundef nonnull align 8 dereferenceable(92) %26)
          to label %801 unwind label %824

801:                                              ; preds = %177, %43, %799
  %802 = phi { ptr, i32 } [ %800, %799 ], [ %178, %177 ], [ %44, %43 ]
  %803 = load ptr, ptr %25, align 8, !tbaa !127
  %804 = icmp eq ptr %803, null
  br i1 %804, label %806, label %805

805:                                              ; preds = %801
  call void @_ZdlPv(ptr noundef nonnull %803) #17
  br label %806

806:                                              ; preds = %805, %801
  %807 = load ptr, ptr %24, align 8, !tbaa !17
  %808 = icmp eq ptr %807, null
  br i1 %808, label %810, label %809

809:                                              ; preds = %806
  call void @_ZdlPv(ptr noundef nonnull %807) #17
  br label %810

810:                                              ; preds = %809, %806
  %811 = load ptr, ptr %23, align 8, !tbaa !127
  %812 = icmp eq ptr %811, null
  br i1 %812, label %814, label %813

813:                                              ; preds = %810
  call void @_ZdlPv(ptr noundef nonnull %811) #17
  br label %814

814:                                              ; preds = %813, %810
  %815 = load ptr, ptr %22, align 8, !tbaa !17
  %816 = icmp eq ptr %815, null
  br i1 %816, label %818, label %817

817:                                              ; preds = %814
  call void @_ZdlPv(ptr noundef nonnull %815) #17
  br label %818

818:                                              ; preds = %817, %814
  invoke void @_ZN6dealii9TableBaseILi2EdED2Ev(ptr noundef nonnull align 8 dereferenceable(92) %20)
          to label %819 unwind label %824

819:                                              ; preds = %818, %175
  %820 = phi { ptr, i32 } [ %802, %818 ], [ %176, %175 ]
  invoke void @_ZNSt6vectorIS_IN6dealii10FullMatrixIdEESaIS2_EESaIS4_EED2Ev(ptr noundef nonnull align 8 dereferenceable(24) %19)
          to label %821 unwind label %824

821:                                              ; preds = %819
  invoke void @_ZNSt6vectorIS_IN6dealii10FullMatrixIdEESaIS2_EESaIS4_EED2Ev(ptr noundef nonnull align 8 dereferenceable(24) %18)
          to label %822 unwind label %824

822:                                              ; preds = %821
  invoke void @_ZN6dealii11SubscriptorD2Ev(ptr noundef nonnull align 8 dereferenceable(72) %0)
          to label %823 unwind label %824

823:                                              ; preds = %822
  resume { ptr, i32 } %820

824:                                              ; preds = %822, %821, %819, %818, %799, %765, %764, %754, %744, %660, %656
  %825 = landingpad { ptr, i32 }
          catch ptr null
  %826 = extractvalue { ptr, i32 } %825, 0
  call void @__clang_call_terminate(ptr %826) #18
  unreachable
}

declare void @_ZN6dealii11SubscriptorC2Ev(ptr noundef nonnull align 8 dereferenceable(72)) unnamed_addr #3

; Function Attrs: mustprogress nocallback nofree nounwind willreturn memory(argmem: readwrite)
declare void @llvm.memcpy.p0.p0.i64(ptr noalias nocapture writeonly, ptr noalias nocapture readonly, i64, i1 immarg) #6

declare void @_ZN6dealii10FullMatrixIdEC1Ej(ptr noundef nonnull align 8 dereferenceable(92), i32 noundef) unnamed_addr #3

; Function Attrs: sspstrong uwtable
define linkonce_odr dso_local void @_ZNSt6vectorIbSaIbEEC2ERKS1_(ptr noundef nonnull align 8 dereferenceable(40) %0, ptr noundef nonnull align 8 dereferenceable(40) %1) unnamed_addr #0 comdat align 2 personality ptr @__gxx_personality_v0 {
  store ptr null, ptr %0, align 8, !tbaa !109
  %3 = getelementptr inbounds %"struct.std::_Bit_iterator_base", ptr %0, i64 0, i32 1
  store i32 0, ptr %3, align 8, !tbaa !118
  %4 = getelementptr inbounds %"struct.std::_Bvector_base<std::allocator<bool> >::_Bvector_impl_data", ptr %0, i64 0, i32 1
  store ptr null, ptr %4, align 8, !tbaa !109
  %5 = getelementptr inbounds %"struct.std::_Bvector_base<std::allocator<bool> >::_Bvector_impl_data", ptr %0, i64 0, i32 1, i32 0, i32 1
  store i32 0, ptr %5, align 8, !tbaa !118
  %6 = getelementptr inbounds %"struct.std::_Bvector_base<std::allocator<bool> >::_Bvector_impl_data", ptr %0, i64 0, i32 2
  store ptr null, ptr %6, align 8, !tbaa !111
  %7 = load ptr, ptr %1, align 8, !tbaa !109
  %8 = getelementptr inbounds %"struct.std::_Bvector_base<std::allocator<bool> >::_Bvector_impl_data", ptr %1, i64 0, i32 1
  %9 = load ptr, ptr %8, align 8, !tbaa !109
  %10 = getelementptr inbounds %"struct.std::_Bvector_base<std::allocator<bool> >::_Bvector_impl_data", ptr %1, i64 0, i32 1, i32 0, i32 1
  %11 = load i32, ptr %10, align 8, !tbaa !118
  %12 = ptrtoint ptr %9 to i64
  %13 = ptrtoint ptr %7 to i64
  %14 = sub i64 %12, %13
  %15 = shl nsw i64 %14, 3
  %16 = zext i32 %11 to i64
  %17 = add nsw i64 %15, %16
  %18 = icmp eq i64 %17, 0
  br i1 %18, label %36, label %19

19:                                               ; preds = %2
  %20 = add i64 %17, 63
  %21 = lshr i64 %20, 3
  %22 = and i64 %21, 2305843009213693944
  %23 = invoke noalias noundef nonnull ptr @_Znwm(i64 noundef %22) #20
          to label %24 unwind label %84

24:                                               ; preds = %19
  %25 = lshr i64 %20, 6
  %26 = getelementptr inbounds i64, ptr %23, i64 %25
  store ptr %26, ptr %6, align 8, !tbaa !111
  store ptr %23, ptr %0, align 8
  store i32 0, ptr %3, align 8
  %27 = sdiv i64 %17, 64
  %28 = getelementptr inbounds i64, ptr %23, i64 %27
  %29 = srem i64 %17, 64
  %30 = icmp slt i64 %29, 0
  %31 = add nsw i64 %29, 64
  %32 = ashr i64 %29, 63
  %33 = getelementptr inbounds i64, ptr %28, i64 %32
  %34 = select i1 %30, i64 %31, i64 %29
  %35 = trunc i64 %34 to i32
  store ptr %33, ptr %4, align 8
  store i32 %35, ptr %5, align 8
  br label %36

36:                                               ; preds = %2, %24
  %37 = phi ptr [ null, %2 ], [ %23, %24 ]
  %38 = icmp sgt i64 %14, 8
  br i1 %38, label %39, label %40, !prof !128

39:                                               ; preds = %36
  tail call void @llvm.memmove.p0.p0.i64(ptr align 8 %37, ptr align 8 %7, i64 %14, i1 false)
  br label %44

40:                                               ; preds = %36
  %41 = icmp eq i64 %14, 8
  br i1 %41, label %42, label %44

42:                                               ; preds = %40
  %43 = load i64, ptr %7, align 8, !tbaa !110
  store i64 %43, ptr %37, align 8, !tbaa !110
  br label %44

44:                                               ; preds = %42, %40, %39
  %45 = icmp eq i32 %11, 0
  br i1 %45, label %83, label %46

46:                                               ; preds = %44
  %47 = ashr exact i64 %14, 3
  %48 = getelementptr inbounds i64, ptr %37, i64 %47
  br label %49

49:                                               ; preds = %46, %69
  %50 = phi i64 [ %81, %69 ], [ %16, %46 ]
  %51 = phi i32 [ %75, %69 ], [ 0, %46 ]
  %52 = phi ptr [ %74, %69 ], [ %9, %46 ]
  %53 = phi ptr [ %80, %69 ], [ %48, %46 ]
  %54 = phi i32 [ %78, %69 ], [ 0, %46 ]
  %55 = zext i32 %51 to i64
  %56 = shl nuw i64 1, %55
  %57 = load i64, ptr %52, align 8, !tbaa !110
  %58 = and i64 %57, %56
  %59 = icmp eq i64 %58, 0
  %60 = zext i32 %54 to i64
  %61 = shl nuw i64 1, %60
  br i1 %59, label %65, label %62

62:                                               ; preds = %49
  %63 = load i64, ptr %53, align 8, !tbaa !110
  %64 = or i64 %63, %61
  br label %69

65:                                               ; preds = %49
  %66 = xor i64 %61, -1
  %67 = load i64, ptr %53, align 8, !tbaa !110
  %68 = and i64 %67, %66
  br label %69

69:                                               ; preds = %65, %62
  %70 = phi i64 [ %68, %65 ], [ %64, %62 ]
  store i64 %70, ptr %53, align 8, !tbaa !110
  %71 = add i32 %51, 1
  %72 = icmp eq i32 %51, 63
  %73 = zext i1 %72 to i64
  %74 = getelementptr inbounds i64, ptr %52, i64 %73
  %75 = select i1 %72, i32 0, i32 %71
  %76 = add i32 %54, 1
  %77 = icmp eq i32 %54, 63
  %78 = select i1 %77, i32 0, i32 %76
  %79 = zext i1 %77 to i64
  %80 = getelementptr inbounds i64, ptr %53, i64 %79
  %81 = add nsw i64 %50, -1
  %82 = icmp sgt i64 %50, 1
  br i1 %82, label %49, label %83

83:                                               ; preds = %69, %44
  ret void

84:                                               ; preds = %19
  %85 = landingpad { ptr, i32 }
          cleanup
  invoke void @_ZNSt13_Bvector_baseISaIbEED2Ev(ptr noundef nonnull align 8 dereferenceable(40) %0)
          to label %86 unwind label %87

86:                                               ; preds = %84
  resume { ptr, i32 } %85

87:                                               ; preds = %84
  %88 = landingpad { ptr, i32 }
          catch ptr null
  %89 = extractvalue { ptr, i32 } %88, 0
  tail call void @__clang_call_terminate(ptr %89) #18
  unreachable
}

; Function Attrs: sspstrong uwtable
define linkonce_odr dso_local void @_ZNSt13_Bvector_baseISaIbEED2Ev(ptr noundef nonnull align 8 dereferenceable(40) %0) unnamed_addr #0 comdat align 2 personality ptr @__gxx_personality_v0 {
  %2 = load ptr, ptr %0, align 8, !tbaa !109
  %3 = icmp eq ptr %2, null
  br i1 %3, label %16, label %4

4:                                                ; preds = %1
  %5 = getelementptr inbounds %"struct.std::_Bvector_base<std::allocator<bool> >::_Bvector_impl_data", ptr %0, i64 0, i32 2
  %6 = load ptr, ptr %5, align 8, !tbaa !111
  %7 = ptrtoint ptr %6 to i64
  %8 = ptrtoint ptr %2 to i64
  %9 = sub i64 %7, %8
  %10 = ashr exact i64 %9, 3
  %11 = sub nsw i64 0, %10
  %12 = getelementptr inbounds i64, ptr %6, i64 %11
  tail call void @_ZdlPv(ptr noundef %12) #17
  store ptr null, ptr %0, align 8
  %13 = getelementptr inbounds i8, ptr %0, i64 8
  store i32 0, ptr %13, align 8
  %14 = getelementptr inbounds i8, ptr %0, i64 16
  store ptr null, ptr %14, align 8
  %15 = getelementptr inbounds i8, ptr %0, i64 24
  store i32 0, ptr %15, align 8
  store ptr null, ptr %5, align 8
  br label %16

16:                                               ; preds = %4, %1
  ret void
}

; Function Attrs: sspstrong uwtable
define weak_odr dso_local void @_ZN6dealii13FiniteElementILi3ELi3EE28compute_n_nonzero_componentsERKSt6vectorIS2_IbSaIbEESaIS4_EE(ptr noalias sret(%"class.std::vector.54") align 8 %0, ptr noundef nonnull align 8 dereferenceable(24) %1) local_unnamed_addr #0 comdat align 2 personality ptr @__gxx_personality_v0 {
  %3 = getelementptr inbounds %"struct.std::_Vector_base<std::vector<bool>, std::allocator<std::vector<bool> > >::_Vector_impl_data", ptr %1, i64 0, i32 1
  %4 = load ptr, ptr %3, align 8, !tbaa !105
  %5 = load ptr, ptr %1, align 8, !tbaa !106
  %6 = ptrtoint ptr %4 to i64
  %7 = ptrtoint ptr %5 to i64
  %8 = sub i64 %6, %7
  %9 = sdiv exact i64 %8, 40
  %10 = icmp ugt i64 %9, 2305843009213693951
  br i1 %10, label %11, label %12

11:                                               ; preds = %2
  tail call void @_ZSt20__throw_length_errorPKc(ptr noundef nonnull @.str.26) #21
  unreachable

12:                                               ; preds = %2
  tail call void @llvm.memset.p0.i64(ptr noundef nonnull align 8 dereferenceable(24) %0, i8 0, i64 24, i1 false)
  %13 = icmp eq ptr %4, %5
  br i1 %13, label %14, label %15

14:                                               ; preds = %12
  tail call void @llvm.memset.p0.i64(ptr noundef nonnull align 8 dereferenceable(24) %0, i8 0, i64 24, i1 false)
  br label %57

15:                                               ; preds = %12
  %16 = shl nuw nsw i64 %9, 2
  %17 = tail call noalias noundef nonnull ptr @_Znwm(i64 noundef %16) #20
  store ptr %17, ptr %0, align 8, !tbaa !115
  %18 = getelementptr inbounds i32, ptr %17, i64 %9
  %19 = getelementptr inbounds %"struct.std::_Vector_base<unsigned int, std::allocator<unsigned int> >::_Vector_impl_data", ptr %0, i64 0, i32 2
  store ptr %18, ptr %19, align 8, !tbaa !116
  tail call void @llvm.memset.p0.i64(ptr nonnull align 4 %17, i8 0, i64 %16, i1 false), !tbaa !30
  %20 = getelementptr inbounds %"struct.std::_Vector_base<unsigned int, std::allocator<unsigned int> >::_Vector_impl_data", ptr %0, i64 0, i32 1
  store ptr %18, ptr %20, align 8, !tbaa !117
  br label %21

21:                                               ; preds = %15, %50
  %22 = phi i64 [ 0, %15 ], [ %55, %50 ]
  %23 = phi i32 [ 0, %15 ], [ %54, %50 ]
  %24 = getelementptr inbounds %"class.std::vector.100", ptr %5, i64 %22
  %25 = load ptr, ptr %24, align 8, !tbaa !109
  %26 = getelementptr inbounds %"struct.std::_Bvector_base<std::allocator<bool> >::_Bvector_impl_data", ptr %24, i64 0, i32 1
  %27 = load ptr, ptr %26, align 8, !tbaa !109
  %28 = getelementptr inbounds %"struct.std::_Bvector_base<std::allocator<bool> >::_Bvector_impl_data", ptr %24, i64 0, i32 1, i32 0, i32 1
  %29 = load i32, ptr %28, align 8, !tbaa !118
  %30 = icmp ne ptr %25, %27
  %31 = icmp ne i32 %29, 0
  %32 = select i1 %30, i1 true, i1 %31
  br i1 %32, label %33, label %50

33:                                               ; preds = %21, %33
  %34 = phi i64 [ %41, %33 ], [ 0, %21 ]
  %35 = phi i32 [ %46, %33 ], [ 0, %21 ]
  %36 = phi ptr [ %45, %33 ], [ %25, %21 ]
  %37 = zext i32 %35 to i64
  %38 = load i64, ptr %36, align 8, !tbaa !110
  %39 = lshr i64 %38, %37
  %40 = and i64 %39, 1
  %41 = add nuw nsw i64 %40, %34
  %42 = add i32 %35, 1
  %43 = icmp eq i32 %35, 63
  %44 = zext i1 %43 to i64
  %45 = getelementptr inbounds i64, ptr %36, i64 %44
  %46 = select i1 %43, i32 0, i32 %42
  %47 = icmp ne ptr %45, %27
  %48 = icmp ne i32 %46, %29
  %49 = select i1 %47, i1 true, i1 %48
  br i1 %49, label %33, label %50

50:                                               ; preds = %33, %21
  %51 = phi i64 [ 0, %21 ], [ %41, %33 ]
  %52 = trunc i64 %51 to i32
  %53 = getelementptr inbounds i32, ptr %17, i64 %22
  store i32 %52, ptr %53, align 4, !tbaa !30
  %54 = add i32 %23, 1
  %55 = zext i32 %54 to i64
  %56 = icmp ugt i64 %9, %55
  br i1 %56, label %21, label %57

57:                                               ; preds = %50, %14
  ret void
}

; Function Attrs: sspstrong uwtable
define linkonce_odr dso_local noundef nonnull align 8 dereferenceable(24) ptr @_ZNSt6vectorIjSaIjEEaSERKS1_(ptr noundef nonnull align 8 dereferenceable(24) %0, ptr noundef nonnull align 8 dereferenceable(24) %1) local_unnamed_addr #0 comdat align 2 personality ptr @__gxx_personality_v0 {
  %3 = icmp eq ptr %1, %0
  br i1 %3, label %82, label %4

4:                                                ; preds = %2
  %5 = getelementptr inbounds %"struct.std::_Vector_base<unsigned int, std::allocator<unsigned int> >::_Vector_impl_data", ptr %1, i64 0, i32 1
  %6 = load ptr, ptr %5, align 8, !tbaa !13
  %7 = load ptr, ptr %1, align 8, !tbaa !13
  %8 = ptrtoint ptr %6 to i64
  %9 = ptrtoint ptr %7 to i64
  %10 = sub i64 %8, %9
  %11 = ashr exact i64 %10, 2
  %12 = getelementptr inbounds %"struct.std::_Vector_base<unsigned int, std::allocator<unsigned int> >::_Vector_impl_data", ptr %0, i64 0, i32 2
  %13 = load ptr, ptr %12, align 8, !tbaa !116
  %14 = load ptr, ptr %0, align 8, !tbaa !13
  %15 = ptrtoint ptr %13 to i64
  %16 = ptrtoint ptr %14 to i64
  %17 = sub i64 %15, %16
  %18 = ashr exact i64 %17, 2
  %19 = icmp ugt i64 %11, %18
  br i1 %19, label %20, label %36

20:                                               ; preds = %4
  %21 = icmp ugt i64 %10, 9223372036854775804
  br i1 %21, label %22, label %23, !prof !107

22:                                               ; preds = %20
  tail call void @_ZSt28__throw_bad_array_new_lengthv() #21
  unreachable

23:                                               ; preds = %20
  %24 = tail call noalias noundef nonnull ptr @_Znwm(i64 noundef %10) #20
  %25 = icmp ugt i64 %10, 4
  br i1 %25, label %26, label %27, !prof !128

26:                                               ; preds = %23
  tail call void @llvm.memcpy.p0.p0.i64(ptr nonnull align 4 %24, ptr align 4 %7, i64 %10, i1 false)
  br label %31

27:                                               ; preds = %23
  %28 = icmp eq i64 %10, 4
  br i1 %28, label %29, label %31

29:                                               ; preds = %27
  %30 = load i32, ptr %7, align 4, !tbaa !30
  store i32 %30, ptr %24, align 4, !tbaa !30
  br label %31

31:                                               ; preds = %26, %27, %29
  %32 = icmp eq ptr %14, null
  br i1 %32, label %34, label %33

33:                                               ; preds = %31
  tail call void @_ZdlPv(ptr noundef nonnull %14) #17
  br label %34

34:                                               ; preds = %31, %33
  store ptr %24, ptr %0, align 8, !tbaa !115
  %35 = getelementptr inbounds i32, ptr %24, i64 %11
  store ptr %35, ptr %12, align 8, !tbaa !116
  br label %78

36:                                               ; preds = %4
  %37 = getelementptr inbounds %"struct.std::_Vector_base<unsigned int, std::allocator<unsigned int> >::_Vector_impl_data", ptr %0, i64 0, i32 1
  %38 = load ptr, ptr %37, align 8, !tbaa !117
  %39 = ptrtoint ptr %38 to i64
  %40 = sub i64 %39, %16
  %41 = ashr exact i64 %40, 2
  %42 = icmp ult i64 %41, %11
  br i1 %42, label %50, label %43

43:                                               ; preds = %36
  %44 = icmp sgt i64 %10, 4
  br i1 %44, label %45, label %46, !prof !128

45:                                               ; preds = %43
  tail call void @llvm.memmove.p0.p0.i64(ptr align 4 %14, ptr align 4 %7, i64 %10, i1 false)
  br label %78

46:                                               ; preds = %43
  %47 = icmp eq i64 %10, 4
  br i1 %47, label %48, label %78

48:                                               ; preds = %46
  %49 = load i32, ptr %7, align 4, !tbaa !30
  store i32 %49, ptr %14, align 4, !tbaa !30
  br label %78

50:                                               ; preds = %36
  %51 = icmp sgt i64 %40, 4
  br i1 %51, label %52, label %55, !prof !128

52:                                               ; preds = %50
  tail call void @llvm.memmove.p0.p0.i64(ptr align 4 %14, ptr align 4 %7, i64 %40, i1 false)
  %53 = load ptr, ptr %37, align 8, !tbaa !117
  %54 = ptrtoint ptr %53 to i64
  br label %59

55:                                               ; preds = %50
  %56 = icmp eq i64 %40, 4
  br i1 %56, label %57, label %59

57:                                               ; preds = %55
  %58 = load i32, ptr %7, align 4, !tbaa !30
  store i32 %58, ptr %14, align 4, !tbaa !30
  br label %59

59:                                               ; preds = %52, %55, %57
  %60 = phi i64 [ %54, %52 ], [ %39, %55 ], [ %39, %57 ]
  %61 = phi ptr [ %53, %52 ], [ %38, %55 ], [ %38, %57 ]
  %62 = load ptr, ptr %1, align 8, !tbaa !115
  %63 = load ptr, ptr %0, align 8, !tbaa !115
  %64 = ptrtoint ptr %63 to i64
  %65 = sub i64 %60, %64
  %66 = ashr exact i64 %65, 2
  %67 = getelementptr inbounds i32, ptr %62, i64 %66
  %68 = load ptr, ptr %5, align 8, !tbaa !117
  %69 = ptrtoint ptr %68 to i64
  %70 = ptrtoint ptr %67 to i64
  %71 = sub i64 %69, %70
  %72 = icmp sgt i64 %71, 4
  br i1 %72, label %73, label %74, !prof !128

73:                                               ; preds = %59
  tail call void @llvm.memmove.p0.p0.i64(ptr align 4 %61, ptr align 4 %67, i64 %71, i1 false)
  br label %78

74:                                               ; preds = %59
  %75 = icmp eq i64 %71, 4
  br i1 %75, label %76, label %78

76:                                               ; preds = %74
  %77 = load i32, ptr %67, align 4, !tbaa !30
  store i32 %77, ptr %61, align 4, !tbaa !30
  br label %78

78:                                               ; preds = %76, %74, %73, %48, %46, %45, %34
  %79 = load ptr, ptr %0, align 8, !tbaa !115
  %80 = getelementptr inbounds i32, ptr %79, i64 %11
  %81 = getelementptr inbounds %"struct.std::_Vector_base<unsigned int, std::allocator<unsigned int> >::_Vector_impl_data", ptr %0, i64 0, i32 1
  store ptr %80, ptr %81, align 8, !tbaa !117
  br label %82

82:                                               ; preds = %78, %2
  ret ptr %0
}

; Function Attrs: sspstrong uwtable
define linkonce_odr dso_local void @_ZNSt6vectorIN6dealii10FullMatrixIdEESaIS2_EED2Ev(ptr noundef nonnull align 8 dereferenceable(24) %0) unnamed_addr #0 comdat align 2 personality ptr @__gxx_personality_v0 {
  %2 = load ptr, ptr %0, align 8, !tbaa !122
  %3 = getelementptr inbounds %"struct.std::_Vector_base<dealii::FullMatrix<double>, std::allocator<dealii::FullMatrix<double> > >::_Vector_impl_data", ptr %0, i64 0, i32 1
  %4 = load ptr, ptr %3, align 8, !tbaa !124
  %5 = icmp eq ptr %2, %4
  br i1 %5, label %15, label %6

6:                                                ; preds = %1, %10
  %7 = phi ptr [ %11, %10 ], [ %2, %1 ]
  %8 = load ptr, ptr %7, align 8, !tbaa !5
  %9 = load ptr, ptr %8, align 8
  invoke void %9(ptr noundef nonnull align 8 dereferenceable(92) %7)
          to label %10 unwind label %20

10:                                               ; preds = %6
  %11 = getelementptr inbounds %"class.dealii::FullMatrix", ptr %7, i64 1
  %12 = icmp eq ptr %11, %4
  br i1 %12, label %13, label %6

13:                                               ; preds = %10
  %14 = load ptr, ptr %0, align 8, !tbaa !122
  br label %15

15:                                               ; preds = %13, %1
  %16 = phi ptr [ %14, %13 ], [ %2, %1 ]
  %17 = icmp eq ptr %16, null
  br i1 %17, label %19, label %18

18:                                               ; preds = %15
  tail call void @_ZdlPv(ptr noundef nonnull %16) #17
  br label %19

19:                                               ; preds = %15, %18
  ret void

20:                                               ; preds = %6
  %21 = landingpad { ptr, i32 }
          cleanup
  %22 = load ptr, ptr %0, align 8, !tbaa !122
  %23 = icmp eq ptr %22, null
  br i1 %23, label %25, label %24

24:                                               ; preds = %20
  tail call void @_ZdlPv(ptr noundef nonnull %22) #17
  br label %25

25:                                               ; preds = %24, %20
  resume { ptr, i32 } %21
}

declare noundef i32 @_ZN6dealii12GeometryInfoILi3EE10n_childrenERKNS_14RefinementCaseILi3EEE(ptr noundef nonnull align 1 dereferenceable(1)) local_unnamed_addr #3

; Function Attrs: sspstrong uwtable
define linkonce_odr dso_local void @_ZNSt6vectorIS_IbSaIbEESaIS1_EED2Ev(ptr noundef nonnull align 8 dereferenceable(24) %0) unnamed_addr #0 comdat align 2 personality ptr @__gxx_personality_v0 {
  %2 = load ptr, ptr %0, align 8, !tbaa !106
  %3 = getelementptr inbounds %"struct.std::_Vector_base<std::vector<bool>, std::allocator<std::vector<bool> > >::_Vector_impl_data", ptr %0, i64 0, i32 1
  %4 = load ptr, ptr %3, align 8, !tbaa !105
  %5 = icmp eq ptr %2, %4
  br i1 %5, label %27, label %6

6:                                                ; preds = %1, %22
  %7 = phi ptr [ %23, %22 ], [ %2, %1 ]
  %8 = load ptr, ptr %7, align 8, !tbaa !109
  %9 = icmp eq ptr %8, null
  br i1 %9, label %22, label %10

10:                                               ; preds = %6
  %11 = getelementptr inbounds %"struct.std::_Bvector_base<std::allocator<bool> >::_Bvector_impl_data", ptr %7, i64 0, i32 2
  %12 = load ptr, ptr %11, align 8, !tbaa !111
  %13 = ptrtoint ptr %12 to i64
  %14 = ptrtoint ptr %8 to i64
  %15 = sub i64 %13, %14
  %16 = ashr exact i64 %15, 3
  %17 = sub nsw i64 0, %16
  %18 = getelementptr inbounds i64, ptr %12, i64 %17
  tail call void @_ZdlPv(ptr noundef %18) #17
  store ptr null, ptr %7, align 8
  %19 = getelementptr inbounds i8, ptr %7, i64 8
  store i32 0, ptr %19, align 8
  %20 = getelementptr inbounds i8, ptr %7, i64 16
  store ptr null, ptr %20, align 8
  %21 = getelementptr inbounds i8, ptr %7, i64 24
  store i32 0, ptr %21, align 8
  store ptr null, ptr %11, align 8
  br label %22

22:                                               ; preds = %10, %6
  %23 = getelementptr inbounds %"class.std::vector.100", ptr %7, i64 1
  %24 = icmp eq ptr %23, %4
  br i1 %24, label %25, label %6

25:                                               ; preds = %22
  %26 = load ptr, ptr %0, align 8, !tbaa !106
  br label %27

27:                                               ; preds = %25, %1
  %28 = phi ptr [ %26, %25 ], [ %2, %1 ]
  %29 = icmp eq ptr %28, null
  br i1 %29, label %31, label %30

30:                                               ; preds = %27
  tail call void @_ZdlPv(ptr noundef nonnull %28) #17
  br label %31

31:                                               ; preds = %27, %30
  ret void
}

; Function Attrs: sspstrong uwtable
define linkonce_odr dso_local void @_ZNSt6vectorIS_IN6dealii10FullMatrixIdEESaIS2_EESaIS4_EED2Ev(ptr noundef nonnull align 8 dereferenceable(24) %0) unnamed_addr #0 comdat align 2 personality ptr @__gxx_personality_v0 {
  %2 = load ptr, ptr %0, align 8, !tbaa !121
  %3 = getelementptr inbounds %"struct.std::_Vector_base<std::vector<dealii::FullMatrix<double> >, std::allocator<std::vector<dealii::FullMatrix<double> > > >::_Vector_impl_data", ptr %0, i64 0, i32 1
  %4 = load ptr, ptr %3, align 8, !tbaa !125
  %5 = icmp eq ptr %2, %4
  br i1 %5, label %35, label %6

6:                                                ; preds = %1, %30
  %7 = phi ptr [ %31, %30 ], [ %2, %1 ]
  %8 = load ptr, ptr %7, align 8, !tbaa !122
  %9 = getelementptr inbounds %"struct.std::_Vector_base<dealii::FullMatrix<double>, std::allocator<dealii::FullMatrix<double> > >::_Vector_impl_data", ptr %7, i64 0, i32 1
  %10 = load ptr, ptr %9, align 8, !tbaa !124
  %11 = icmp eq ptr %8, %10
  br i1 %11, label %21, label %12

12:                                               ; preds = %6, %16
  %13 = phi ptr [ %17, %16 ], [ %8, %6 ]
  %14 = load ptr, ptr %13, align 8, !tbaa !5
  %15 = load ptr, ptr %14, align 8
  invoke void %15(ptr noundef nonnull align 8 dereferenceable(92) %13)
          to label %16 unwind label %25

16:                                               ; preds = %12
  %17 = getelementptr inbounds %"class.dealii::FullMatrix", ptr %13, i64 1
  %18 = icmp eq ptr %17, %10
  br i1 %18, label %19, label %12

19:                                               ; preds = %16
  %20 = load ptr, ptr %7, align 8, !tbaa !122
  br label %21

21:                                               ; preds = %19, %6
  %22 = phi ptr [ %20, %19 ], [ %8, %6 ]
  %23 = icmp eq ptr %22, null
  br i1 %23, label %30, label %24

24:                                               ; preds = %21
  tail call void @_ZdlPv(ptr noundef nonnull %22) #17
  br label %30

25:                                               ; preds = %12
  %26 = landingpad { ptr, i32 }
          cleanup
  %27 = load ptr, ptr %7, align 8, !tbaa !122
  %28 = icmp eq ptr %27, null
  br i1 %28, label %40, label %29

29:                                               ; preds = %25
  tail call void @_ZdlPv(ptr noundef nonnull %27) #17
  br label %40

30:                                               ; preds = %24, %21
  %31 = getelementptr inbounds %"class.std::vector.112", ptr %7, i64 1
  %32 = icmp eq ptr %31, %4
  br i1 %32, label %33, label %6

33:                                               ; preds = %30
  %34 = load ptr, ptr %0, align 8, !tbaa !121
  br label %35

35:                                               ; preds = %33, %1
  %36 = phi ptr [ %34, %33 ], [ %2, %1 ]
  %37 = icmp eq ptr %36, null
  br i1 %37, label %39, label %38

38:                                               ; preds = %35
  tail call void @_ZdlPv(ptr noundef nonnull %36) #17
  br label %39

39:                                               ; preds = %35, %38
  ret void

40:                                               ; preds = %25, %29
  %41 = load ptr, ptr %0, align 8, !tbaa !121
  %42 = icmp eq ptr %41, null
  br i1 %42, label %44, label %43

43:                                               ; preds = %40
  tail call void @_ZdlPv(ptr noundef nonnull %41) #17
  br label %44

44:                                               ; preds = %43, %40
  resume { ptr, i32 } %26
}

declare void @_ZN6dealii11SubscriptorD2Ev(ptr noundef nonnull align 8 dereferenceable(72)) unnamed_addr #3

; Function Attrs: sspstrong uwtable
define weak_odr dso_local void @_ZN6dealii13FiniteElementILi3ELi3EED2Ev(ptr noundef nonnull align 8 dereferenceable(728) %0) unnamed_addr #0 comdat($_ZN6dealii13FiniteElementILi3ELi3EED5Ev) align 2 personality ptr @__gxx_personality_v0 {
  store ptr getelementptr inbounds ({ [38 x ptr] }, ptr @_ZTVN6dealii13FiniteElementILi3ELi3EEE, i64 0, inrange i32 0, i64 2), ptr %0, align 8, !tbaa !5
  %2 = getelementptr inbounds %"class.dealii::FiniteElement", ptr %0, i64 0, i32 20
  %3 = load ptr, ptr %2, align 8, !tbaa !115
  %4 = icmp eq ptr %3, null
  br i1 %4, label %6, label %5

5:                                                ; preds = %1
  tail call void @_ZdlPv(ptr noundef nonnull %3) #17
  br label %6

6:                                                ; preds = %5, %1
  %7 = getelementptr inbounds %"class.dealii::FiniteElement", ptr %0, i64 0, i32 19
  %8 = load ptr, ptr %7, align 8, !tbaa !106
  %9 = getelementptr inbounds %"class.dealii::FiniteElement", ptr %0, i64 0, i32 19, i32 0, i32 0, i32 0, i32 1
  %10 = load ptr, ptr %9, align 8, !tbaa !105
  %11 = icmp eq ptr %8, %10
  br i1 %11, label %33, label %12

12:                                               ; preds = %6, %28
  %13 = phi ptr [ %29, %28 ], [ %8, %6 ]
  %14 = load ptr, ptr %13, align 8, !tbaa !109
  %15 = icmp eq ptr %14, null
  br i1 %15, label %28, label %16

16:                                               ; preds = %12
  %17 = getelementptr inbounds %"struct.std::_Bvector_base<std::allocator<bool> >::_Bvector_impl_data", ptr %13, i64 0, i32 2
  %18 = load ptr, ptr %17, align 8, !tbaa !111
  %19 = ptrtoint ptr %18 to i64
  %20 = ptrtoint ptr %14 to i64
  %21 = sub i64 %19, %20
  %22 = ashr exact i64 %21, 3
  %23 = sub nsw i64 0, %22
  %24 = getelementptr inbounds i64, ptr %18, i64 %23
  tail call void @_ZdlPv(ptr noundef %24) #17
  store ptr null, ptr %13, align 8
  %25 = getelementptr inbounds i8, ptr %13, i64 8
  store i32 0, ptr %25, align 8
  %26 = getelementptr inbounds i8, ptr %13, i64 16
  store ptr null, ptr %26, align 8
  %27 = getelementptr inbounds i8, ptr %13, i64 24
  store i32 0, ptr %27, align 8
  store ptr null, ptr %17, align 8
  br label %28

28:                                               ; preds = %16, %12
  %29 = getelementptr inbounds %"class.std::vector.100", ptr %13, i64 1
  %30 = icmp eq ptr %29, %10
  br i1 %30, label %31, label %12

31:                                               ; preds = %28
  %32 = load ptr, ptr %7, align 8, !tbaa !106
  br label %33

33:                                               ; preds = %31, %6
  %34 = phi ptr [ %32, %31 ], [ %8, %6 ]
  %35 = icmp eq ptr %34, null
  br i1 %35, label %37, label %36

36:                                               ; preds = %33
  tail call void @_ZdlPv(ptr noundef nonnull %34) #17
  br label %37

37:                                               ; preds = %36, %33
  %38 = getelementptr inbounds %"class.dealii::FiniteElement", ptr %0, i64 0, i32 18
  %39 = load ptr, ptr %38, align 8, !tbaa !109
  %40 = icmp eq ptr %39, null
  br i1 %40, label %53, label %41

41:                                               ; preds = %37
  %42 = getelementptr inbounds %"class.dealii::FiniteElement", ptr %0, i64 0, i32 18, i32 0, i32 0, i32 0, i32 2
  %43 = load ptr, ptr %42, align 8, !tbaa !111
  %44 = ptrtoint ptr %43 to i64
  %45 = ptrtoint ptr %39 to i64
  %46 = sub i64 %44, %45
  %47 = ashr exact i64 %46, 3
  %48 = sub nsw i64 0, %47
  %49 = getelementptr inbounds i64, ptr %43, i64 %48
  tail call void @_ZdlPv(ptr noundef %49) #17
  store ptr null, ptr %38, align 8
  %50 = getelementptr inbounds %"class.dealii::FiniteElement", ptr %0, i64 0, i32 18, i32 0, i32 0, i32 0, i32 0, i32 0, i32 1
  store i32 0, ptr %50, align 8
  %51 = getelementptr inbounds %"class.dealii::FiniteElement", ptr %0, i64 0, i32 18, i32 0, i32 0, i32 0, i32 1
  store ptr null, ptr %51, align 8
  %52 = getelementptr inbounds %"class.dealii::FiniteElement", ptr %0, i64 0, i32 18, i32 0, i32 0, i32 0, i32 1, i32 0, i32 1
  store i32 0, ptr %52, align 8
  store ptr null, ptr %42, align 8
  br label %53

53:                                               ; preds = %41, %37
  %54 = getelementptr inbounds %"class.dealii::FiniteElement", ptr %0, i64 0, i32 17
  %55 = load ptr, ptr %54, align 8, !tbaa !100
  %56 = icmp eq ptr %55, null
  br i1 %56, label %58, label %57

57:                                               ; preds = %53
  tail call void @_ZdlPv(ptr noundef nonnull %55) #17
  br label %58

58:                                               ; preds = %57, %53
  %59 = getelementptr inbounds %"class.dealii::FiniteElement", ptr %0, i64 0, i32 16
  %60 = load ptr, ptr %59, align 8, !tbaa !115
  %61 = icmp eq ptr %60, null
  br i1 %61, label %63, label %62

62:                                               ; preds = %58
  tail call void @_ZdlPv(ptr noundef nonnull %60) #17
  br label %63

63:                                               ; preds = %62, %58
  %64 = getelementptr inbounds %"class.dealii::FiniteElement", ptr %0, i64 0, i32 15
  %65 = load ptr, ptr %64, align 8, !tbaa !100
  %66 = icmp eq ptr %65, null
  br i1 %66, label %68, label %67

67:                                               ; preds = %63
  tail call void @_ZdlPv(ptr noundef nonnull %65) #17
  br label %68

68:                                               ; preds = %67, %63
  %69 = getelementptr inbounds %"class.dealii::FiniteElement", ptr %0, i64 0, i32 14
  %70 = load ptr, ptr %69, align 8, !tbaa !100
  %71 = icmp eq ptr %70, null
  br i1 %71, label %73, label %72

72:                                               ; preds = %68
  tail call void @_ZdlPv(ptr noundef nonnull %70) #17
  br label %73

73:                                               ; preds = %72, %68
  %74 = getelementptr inbounds %"class.dealii::FiniteElement", ptr %0, i64 0, i32 13
  %75 = load ptr, ptr %74, align 8, !tbaa !119
  %76 = icmp eq ptr %75, null
  br i1 %76, label %78, label %77

77:                                               ; preds = %73
  tail call void @_ZdlPv(ptr noundef nonnull %75) #17
  br label %78

78:                                               ; preds = %77, %73
  %79 = getelementptr inbounds %"class.dealii::FiniteElement", ptr %0, i64 0, i32 12
  %80 = load ptr, ptr %79, align 8, !tbaa !119
  %81 = icmp eq ptr %80, null
  br i1 %81, label %83, label %82

82:                                               ; preds = %78
  tail call void @_ZdlPv(ptr noundef nonnull %80) #17
  br label %83

83:                                               ; preds = %82, %78
  %84 = getelementptr inbounds %"class.dealii::FiniteElement", ptr %0, i64 0, i32 11
  %85 = load ptr, ptr %84, align 8, !tbaa !96
  %86 = icmp eq ptr %85, null
  br i1 %86, label %88, label %87

87:                                               ; preds = %83
  tail call void @_ZdlPv(ptr noundef nonnull %85) #17
  br label %88

88:                                               ; preds = %87, %83
  %89 = getelementptr inbounds %"class.dealii::FiniteElement", ptr %0, i64 0, i32 10
  store ptr getelementptr inbounds ({ [4 x ptr] }, ptr @_ZTVN6dealii9TableBaseILi2EiEE, i64 0, inrange i32 0, i64 2), ptr %89, align 8, !tbaa !5
  %90 = getelementptr inbounds %"class.dealii::FiniteElement", ptr %0, i64 0, i32 10, i32 0, i32 1
  %91 = load ptr, ptr %90, align 8, !tbaa !94
  %92 = icmp eq ptr %91, null
  br i1 %92, label %94, label %93

93:                                               ; preds = %88
  tail call void @_ZdaPv(ptr noundef nonnull %91) #17
  br label %94

94:                                               ; preds = %93, %88
  invoke void @_ZN6dealii11SubscriptorD2Ev(ptr noundef nonnull align 8 dereferenceable(72) %89)
          to label %95 unwind label %127

95:                                               ; preds = %94
  %96 = getelementptr inbounds %"class.dealii::FiniteElement", ptr %0, i64 0, i32 9
  %97 = load ptr, ptr %96, align 8, !tbaa !127
  %98 = icmp eq ptr %97, null
  br i1 %98, label %100, label %99

99:                                               ; preds = %95
  tail call void @_ZdlPv(ptr noundef nonnull %97) #17
  br label %100

100:                                              ; preds = %99, %95
  %101 = getelementptr inbounds %"class.dealii::FiniteElement", ptr %0, i64 0, i32 8
  %102 = load ptr, ptr %101, align 8, !tbaa !17
  %103 = icmp eq ptr %102, null
  br i1 %103, label %105, label %104

104:                                              ; preds = %100
  tail call void @_ZdlPv(ptr noundef nonnull %102) #17
  br label %105

105:                                              ; preds = %104, %100
  %106 = getelementptr inbounds %"class.dealii::FiniteElement", ptr %0, i64 0, i32 7
  %107 = load ptr, ptr %106, align 8, !tbaa !127
  %108 = icmp eq ptr %107, null
  br i1 %108, label %110, label %109

109:                                              ; preds = %105
  tail call void @_ZdlPv(ptr noundef nonnull %107) #17
  br label %110

110:                                              ; preds = %109, %105
  %111 = getelementptr inbounds %"class.dealii::FiniteElement", ptr %0, i64 0, i32 6
  %112 = load ptr, ptr %111, align 8, !tbaa !17
  %113 = icmp eq ptr %112, null
  br i1 %113, label %115, label %114

114:                                              ; preds = %110
  tail call void @_ZdlPv(ptr noundef nonnull %112) #17
  br label %115

115:                                              ; preds = %114, %110
  %116 = getelementptr inbounds %"class.dealii::FiniteElement", ptr %0, i64 0, i32 5
  store ptr getelementptr inbounds ({ [4 x ptr] }, ptr @_ZTVN6dealii9TableBaseILi2EdEE, i64 0, inrange i32 0, i64 2), ptr %116, align 8, !tbaa !5
  %117 = getelementptr inbounds %"class.dealii::FiniteElement", ptr %0, i64 0, i32 5, i32 0, i32 0, i32 1
  %118 = load ptr, ptr %117, align 8, !tbaa !126
  %119 = icmp eq ptr %118, null
  br i1 %119, label %121, label %120

120:                                              ; preds = %115
  tail call void @_ZdaPv(ptr noundef nonnull %118) #17
  br label %121

121:                                              ; preds = %120, %115
  invoke void @_ZN6dealii11SubscriptorD2Ev(ptr noundef nonnull align 8 dereferenceable(72) %116)
          to label %122 unwind label %148

122:                                              ; preds = %121
  %123 = getelementptr inbounds %"class.dealii::FiniteElement", ptr %0, i64 0, i32 4
  invoke void @_ZNSt6vectorIS_IN6dealii10FullMatrixIdEESaIS2_EESaIS4_EED2Ev(ptr noundef nonnull align 8 dereferenceable(24) %123)
          to label %124 unwind label %152

124:                                              ; preds = %122
  %125 = getelementptr inbounds %"class.dealii::FiniteElement", ptr %0, i64 0, i32 3
  invoke void @_ZNSt6vectorIS_IN6dealii10FullMatrixIdEESaIS2_EESaIS4_EED2Ev(ptr noundef nonnull align 8 dereferenceable(24) %125)
          to label %126 unwind label %157

126:                                              ; preds = %124
  tail call void @_ZN6dealii11SubscriptorD2Ev(ptr noundef nonnull align 8 dereferenceable(72) %0)
  ret void

127:                                              ; preds = %94
  %128 = landingpad { ptr, i32 }
          cleanup
  %129 = getelementptr inbounds %"class.dealii::FiniteElement", ptr %0, i64 0, i32 9
  %130 = load ptr, ptr %129, align 8, !tbaa !127
  %131 = icmp eq ptr %130, null
  br i1 %131, label %133, label %132

132:                                              ; preds = %127
  tail call void @_ZdlPv(ptr noundef nonnull %130) #17
  br label %133

133:                                              ; preds = %132, %127
  %134 = getelementptr inbounds %"class.dealii::FiniteElement", ptr %0, i64 0, i32 8
  %135 = load ptr, ptr %134, align 8, !tbaa !17
  %136 = icmp eq ptr %135, null
  br i1 %136, label %138, label %137

137:                                              ; preds = %133
  tail call void @_ZdlPv(ptr noundef nonnull %135) #17
  br label %138

138:                                              ; preds = %137, %133
  %139 = getelementptr inbounds %"class.dealii::FiniteElement", ptr %0, i64 0, i32 7
  %140 = load ptr, ptr %139, align 8, !tbaa !127
  %141 = icmp eq ptr %140, null
  br i1 %141, label %143, label %142

142:                                              ; preds = %138
  tail call void @_ZdlPv(ptr noundef nonnull %140) #17
  br label %143

143:                                              ; preds = %142, %138
  %144 = getelementptr inbounds %"class.dealii::FiniteElement", ptr %0, i64 0, i32 6
  %145 = load ptr, ptr %144, align 8, !tbaa !17
  %146 = icmp eq ptr %145, null
  br i1 %146, label %150, label %147

147:                                              ; preds = %143
  tail call void @_ZdlPv(ptr noundef nonnull %145) #17
  br label %150

148:                                              ; preds = %121
  %149 = landingpad { ptr, i32 }
          cleanup
  br label %154

150:                                              ; preds = %147, %143
  %151 = getelementptr inbounds %"class.dealii::FiniteElement", ptr %0, i64 0, i32 5
  invoke void @_ZN6dealii9TableBaseILi2EdED2Ev(ptr noundef nonnull align 8 dereferenceable(92) %151)
          to label %154 unwind label %165

152:                                              ; preds = %122
  %153 = landingpad { ptr, i32 }
          cleanup
  br label %159

154:                                              ; preds = %150, %148
  %155 = phi { ptr, i32 } [ %149, %148 ], [ %128, %150 ]
  %156 = getelementptr inbounds %"class.dealii::FiniteElement", ptr %0, i64 0, i32 4
  invoke void @_ZNSt6vectorIS_IN6dealii10FullMatrixIdEESaIS2_EESaIS4_EED2Ev(ptr noundef nonnull align 8 dereferenceable(24) %156)
          to label %159 unwind label %165

157:                                              ; preds = %124
  %158 = landingpad { ptr, i32 }
          cleanup
  br label %162

159:                                              ; preds = %154, %152
  %160 = phi { ptr, i32 } [ %153, %152 ], [ %155, %154 ]
  %161 = getelementptr inbounds %"class.dealii::FiniteElement", ptr %0, i64 0, i32 3
  invoke void @_ZNSt6vectorIS_IN6dealii10FullMatrixIdEESaIS2_EESaIS4_EED2Ev(ptr noundef nonnull align 8 dereferenceable(24) %161)
          to label %162 unwind label %165

162:                                              ; preds = %159, %157
  %163 = phi { ptr, i32 } [ %158, %157 ], [ %160, %159 ]
  invoke void @_ZN6dealii11SubscriptorD2Ev(ptr noundef nonnull align 8 dereferenceable(72) %0)
          to label %164 unwind label %165

164:                                              ; preds = %162
  resume { ptr, i32 } %163

165:                                              ; preds = %162, %159, %154, %150
  %166 = landingpad { ptr, i32 }
          catch ptr null
  %167 = extractvalue { ptr, i32 } %166, 0
  tail call void @__clang_call_terminate(ptr %167) #18
  unreachable
}

; Function Attrs: nounwind sspstrong uwtable
define weak_odr dso_local void @_ZN6dealii13FiniteElementILi3ELi3EED0Ev(ptr noundef nonnull align 8 dereferenceable(728) %0) unnamed_addr #7 comdat($_ZN6dealii13FiniteElementILi3ELi3EED5Ev) align 2 {
  tail call void @llvm.trap() #18
  unreachable
}

; Function Attrs: cold noreturn nounwind
declare void @llvm.trap() #8

; Function Attrs: inlinehint nounwind sspstrong uwtable
define weak_odr dso_local noundef nonnull align 8 dereferenceable(728) ptr @_ZNK6dealii13FiniteElementILi3ELi3EEixEj(ptr noundef nonnull align 8 dereferenceable(728) %0, i32 noundef %1) local_unnamed_addr #9 comdat align 2 {
  ret ptr %0
}

; Function Attrs: sspstrong uwtable
define weak_odr dso_local noundef double @_ZNK6dealii13FiniteElementILi3ELi3EE11shape_valueEjRKNS_5PointILi3EEE(ptr noundef nonnull align 8 dereferenceable(728) %0, i32 noundef %1, ptr noundef nonnull align 8 dereferenceable(24) %2) unnamed_addr #0 comdat align 2 personality ptr @__gxx_personality_v0 {
  %4 = alloca %"class.dealii::FiniteElement<3, 3>::ExcUnitShapeValuesDoNotExist", align 8
  call void @llvm.memset.p0.i64(ptr noundef nonnull align 8 dereferenceable(64) %4, i8 0, i64 64, i1 false)
  call void @_ZN6dealii13ExceptionBaseC2Ev(ptr noundef nonnull align 8 dereferenceable(60) %4)
  store ptr getelementptr inbounds ({ [6 x ptr] }, ptr @_ZTVN6dealii13FiniteElementILi3ELi3EE28ExcUnitShapeValuesDoNotExistE, i64 0, inrange i32 0, i64 2), ptr %4, align 8, !tbaa !5
  invoke void @_ZN6dealii13ExceptionBase10set_fieldsEPKciS2_S2_S2_(ptr noundef nonnull align 8 dereferenceable(60) %4, ptr noundef nonnull @.str, i32 noundef 246, ptr noundef nonnull @.str.9, ptr noundef nonnull @.str.10, ptr noundef nonnull @.str.11)
          to label %5 unwind label %11

5:                                                ; preds = %3
  %6 = call ptr @__cxa_allocate_exception(i64 64) #19
  invoke void @_ZN6dealii13ExceptionBaseC2ERKS0_(ptr noundef nonnull align 8 dereferenceable(60) %6, ptr noundef nonnull align 8 dereferenceable(60) %4)
          to label %7 unwind label %9

7:                                                ; preds = %5
  store ptr getelementptr inbounds ({ [6 x ptr] }, ptr @_ZTVN6dealii13FiniteElementILi3ELi3EE28ExcUnitShapeValuesDoNotExistE, i64 0, inrange i32 0, i64 2), ptr %6, align 8, !tbaa !5
  invoke void @__cxa_throw(ptr nonnull %6, ptr nonnull @_ZTIN6dealii13FiniteElementILi3ELi3EE28ExcUnitShapeValuesDoNotExistE, ptr nonnull @_ZN6dealii13ExceptionBaseD2Ev) #21
          to label %8 unwind label %11

8:                                                ; preds = %7
  unreachable

9:                                                ; preds = %5
  %10 = landingpad { ptr, i32 }
          cleanup
  call void @__cxa_free_exception(ptr %6) #19
  br label %13

11:                                               ; preds = %7, %3
  %12 = landingpad { ptr, i32 }
          cleanup
  br label %13

13:                                               ; preds = %9, %11
  %14 = phi { ptr, i32 } [ %12, %11 ], [ %10, %9 ]
  call void @_ZN6dealii13ExceptionBaseD2Ev(ptr noundef nonnull align 8 dereferenceable(60) %4) #19
  resume { ptr, i32 } %14
}

; Function Attrs: mustprogress nocallback nofree nounwind willreturn memory(argmem: write)
declare void @llvm.memset.p0.i64(ptr nocapture writeonly, i8, i64, i1 immarg) #10

; Function Attrs: sspstrong uwtable
define weak_odr dso_local noundef double @_ZNK6dealii13FiniteElementILi3ELi3EE21shape_value_componentEjRKNS_5PointILi3EEEj(ptr noundef nonnull align 8 dereferenceable(728) %0, i32 noundef %1, ptr noundef nonnull align 8 dereferenceable(24) %2, i32 noundef %3) unnamed_addr #0 comdat align 2 personality ptr @__gxx_personality_v0 {
  %5 = alloca %"class.dealii::FiniteElement<3, 3>::ExcUnitShapeValuesDoNotExist", align 8
  call void @llvm.memset.p0.i64(ptr noundef nonnull align 8 dereferenceable(64) %5, i8 0, i64 64, i1 false)
  call void @_ZN6dealii13ExceptionBaseC2Ev(ptr noundef nonnull align 8 dereferenceable(60) %5)
  store ptr getelementptr inbounds ({ [6 x ptr] }, ptr @_ZTVN6dealii13FiniteElementILi3ELi3EE28ExcUnitShapeValuesDoNotExistE, i64 0, inrange i32 0, i64 2), ptr %5, align 8, !tbaa !5
  invoke void @_ZN6dealii13ExceptionBase10set_fieldsEPKciS2_S2_S2_(ptr noundef nonnull align 8 dereferenceable(60) %5, ptr noundef nonnull @.str, i32 noundef 258, ptr noundef nonnull @.str.9, ptr noundef nonnull @.str.10, ptr noundef nonnull @.str.11)
          to label %6 unwind label %12

6:                                                ; preds = %4
  %7 = call ptr @__cxa_allocate_exception(i64 64) #19
  invoke void @_ZN6dealii13ExceptionBaseC2ERKS0_(ptr noundef nonnull align 8 dereferenceable(60) %7, ptr noundef nonnull align 8 dereferenceable(60) %5)
          to label %8 unwind label %10

8:                                                ; preds = %6
  store ptr getelementptr inbounds ({ [6 x ptr] }, ptr @_ZTVN6dealii13FiniteElementILi3ELi3EE28ExcUnitShapeValuesDoNotExistE, i64 0, inrange i32 0, i64 2), ptr %7, align 8, !tbaa !5
  invoke void @__cxa_throw(ptr nonnull %7, ptr nonnull @_ZTIN6dealii13FiniteElementILi3ELi3EE28ExcUnitShapeValuesDoNotExistE, ptr nonnull @_ZN6dealii13ExceptionBaseD2Ev) #21
          to label %9 unwind label %12

9:                                                ; preds = %8
  unreachable

10:                                               ; preds = %6
  %11 = landingpad { ptr, i32 }
          cleanup
  call void @__cxa_free_exception(ptr %7) #19
  br label %14

12:                                               ; preds = %8, %4
  %13 = landingpad { ptr, i32 }
          cleanup
  br label %14

14:                                               ; preds = %10, %12
  %15 = phi { ptr, i32 } [ %13, %12 ], [ %11, %10 ]
  call void @_ZN6dealii13ExceptionBaseD2Ev(ptr noundef nonnull align 8 dereferenceable(60) %5) #19
  resume { ptr, i32 } %15
}

; Function Attrs: sspstrong uwtable
define weak_odr dso_local void @_ZNK6dealii13FiniteElementILi3ELi3EE10shape_gradEjRKNS_5PointILi3EEE(ptr noalias sret(%"class.dealii::Tensor") align 8 %0, ptr noundef nonnull align 8 dereferenceable(728) %1, i32 noundef %2, ptr noundef nonnull align 8 dereferenceable(24) %3) unnamed_addr #0 comdat align 2 personality ptr @__gxx_personality_v0 {
  %5 = alloca %"class.dealii::FiniteElement<3, 3>::ExcUnitShapeValuesDoNotExist", align 8
  call void @llvm.memset.p0.i64(ptr noundef nonnull align 8 dereferenceable(64) %5, i8 0, i64 64, i1 false)
  call void @_ZN6dealii13ExceptionBaseC2Ev(ptr noundef nonnull align 8 dereferenceable(60) %5)
  store ptr getelementptr inbounds ({ [6 x ptr] }, ptr @_ZTVN6dealii13FiniteElementILi3ELi3EE28ExcUnitShapeValuesDoNotExistE, i64 0, inrange i32 0, i64 2), ptr %5, align 8, !tbaa !5
  invoke void @_ZN6dealii13ExceptionBase10set_fieldsEPKciS2_S2_S2_(ptr noundef nonnull align 8 dereferenceable(60) %5, ptr noundef nonnull @.str, i32 noundef 269, ptr noundef nonnull @.str.9, ptr noundef nonnull @.str.10, ptr noundef nonnull @.str.11)
          to label %6 unwind label %12

6:                                                ; preds = %4
  %7 = call ptr @__cxa_allocate_exception(i64 64) #19
  invoke void @_ZN6dealii13ExceptionBaseC2ERKS0_(ptr noundef nonnull align 8 dereferenceable(60) %7, ptr noundef nonnull align 8 dereferenceable(60) %5)
          to label %8 unwind label %10

8:                                                ; preds = %6
  store ptr getelementptr inbounds ({ [6 x ptr] }, ptr @_ZTVN6dealii13FiniteElementILi3ELi3EE28ExcUnitShapeValuesDoNotExistE, i64 0, inrange i32 0, i64 2), ptr %7, align 8, !tbaa !5
  invoke void @__cxa_throw(ptr nonnull %7, ptr nonnull @_ZTIN6dealii13FiniteElementILi3ELi3EE28ExcUnitShapeValuesDoNotExistE, ptr nonnull @_ZN6dealii13ExceptionBaseD2Ev) #21
          to label %9 unwind label %12

9:                                                ; preds = %8
  unreachable

10:                                               ; preds = %6
  %11 = landingpad { ptr, i32 }
          cleanup
  call void @__cxa_free_exception(ptr %7) #19
  br label %14

12:                                               ; preds = %8, %4
  %13 = landingpad { ptr, i32 }
          cleanup
  br label %14

14:                                               ; preds = %10, %12
  %15 = phi { ptr, i32 } [ %13, %12 ], [ %11, %10 ]
  call void @_ZN6dealii13ExceptionBaseD2Ev(ptr noundef nonnull align 8 dereferenceable(60) %5) #19
  resume { ptr, i32 } %15
}

; Function Attrs: sspstrong uwtable
define weak_odr dso_local void @_ZNK6dealii13FiniteElementILi3ELi3EE20shape_grad_componentEjRKNS_5PointILi3EEEj(ptr noalias sret(%"class.dealii::Tensor") align 8 %0, ptr noundef nonnull align 8 dereferenceable(728) %1, i32 noundef %2, ptr noundef nonnull align 8 dereferenceable(24) %3, i32 noundef %4) unnamed_addr #0 comdat align 2 personality ptr @__gxx_personality_v0 {
  %6 = alloca %"class.dealii::FiniteElement<3, 3>::ExcUnitShapeValuesDoNotExist", align 8
  call void @llvm.memset.p0.i64(ptr noundef nonnull align 8 dereferenceable(64) %6, i8 0, i64 64, i1 false)
  call void @_ZN6dealii13ExceptionBaseC2Ev(ptr noundef nonnull align 8 dereferenceable(60) %6)
  store ptr getelementptr inbounds ({ [6 x ptr] }, ptr @_ZTVN6dealii13FiniteElementILi3ELi3EE28ExcUnitShapeValuesDoNotExistE, i64 0, inrange i32 0, i64 2), ptr %6, align 8, !tbaa !5
  invoke void @_ZN6dealii13ExceptionBase10set_fieldsEPKciS2_S2_S2_(ptr noundef nonnull align 8 dereferenceable(60) %6, ptr noundef nonnull @.str, i32 noundef 281, ptr noundef nonnull @.str.9, ptr noundef nonnull @.str.10, ptr noundef nonnull @.str.11)
          to label %7 unwind label %13

7:                                                ; preds = %5
  %8 = call ptr @__cxa_allocate_exception(i64 64) #19
  invoke void @_ZN6dealii13ExceptionBaseC2ERKS0_(ptr noundef nonnull align 8 dereferenceable(60) %8, ptr noundef nonnull align 8 dereferenceable(60) %6)
          to label %9 unwind label %11

9:                                                ; preds = %7
  store ptr getelementptr inbounds ({ [6 x ptr] }, ptr @_ZTVN6dealii13FiniteElementILi3ELi3EE28ExcUnitShapeValuesDoNotExistE, i64 0, inrange i32 0, i64 2), ptr %8, align 8, !tbaa !5
  invoke void @__cxa_throw(ptr nonnull %8, ptr nonnull @_ZTIN6dealii13FiniteElementILi3ELi3EE28ExcUnitShapeValuesDoNotExistE, ptr nonnull @_ZN6dealii13ExceptionBaseD2Ev) #21
          to label %10 unwind label %13

10:                                               ; preds = %9
  unreachable

11:                                               ; preds = %7
  %12 = landingpad { ptr, i32 }
          cleanup
  call void @__cxa_free_exception(ptr %8) #19
  br label %15

13:                                               ; preds = %9, %5
  %14 = landingpad { ptr, i32 }
          cleanup
  br label %15

15:                                               ; preds = %11, %13
  %16 = phi { ptr, i32 } [ %14, %13 ], [ %12, %11 ]
  call void @_ZN6dealii13ExceptionBaseD2Ev(ptr noundef nonnull align 8 dereferenceable(60) %6) #19
  resume { ptr, i32 } %16
}

; Function Attrs: sspstrong uwtable
define weak_odr dso_local void @_ZNK6dealii13FiniteElementILi3ELi3EE15shape_grad_gradEjRKNS_5PointILi3EEE(ptr noalias sret(%"class.dealii::Tensor.117") align 8 %0, ptr noundef nonnull align 8 dereferenceable(728) %1, i32 noundef %2, ptr noundef nonnull align 8 dereferenceable(24) %3) unnamed_addr #0 comdat align 2 personality ptr @__gxx_personality_v0 {
  %5 = alloca %"class.dealii::FiniteElement<3, 3>::ExcUnitShapeValuesDoNotExist", align 8
  call void @llvm.memset.p0.i64(ptr noundef nonnull align 8 dereferenceable(64) %5, i8 0, i64 64, i1 false)
  call void @_ZN6dealii13ExceptionBaseC2Ev(ptr noundef nonnull align 8 dereferenceable(60) %5)
  store ptr getelementptr inbounds ({ [6 x ptr] }, ptr @_ZTVN6dealii13FiniteElementILi3ELi3EE28ExcUnitShapeValuesDoNotExistE, i64 0, inrange i32 0, i64 2), ptr %5, align 8, !tbaa !5
  invoke void @_ZN6dealii13ExceptionBase10set_fieldsEPKciS2_S2_S2_(ptr noundef nonnull align 8 dereferenceable(60) %5, ptr noundef nonnull @.str, i32 noundef 292, ptr noundef nonnull @.str.9, ptr noundef nonnull @.str.10, ptr noundef nonnull @.str.11)
          to label %6 unwind label %12

6:                                                ; preds = %4
  %7 = call ptr @__cxa_allocate_exception(i64 64) #19
  invoke void @_ZN6dealii13ExceptionBaseC2ERKS0_(ptr noundef nonnull align 8 dereferenceable(60) %7, ptr noundef nonnull align 8 dereferenceable(60) %5)
          to label %8 unwind label %10

8:                                                ; preds = %6
  store ptr getelementptr inbounds ({ [6 x ptr] }, ptr @_ZTVN6dealii13FiniteElementILi3ELi3EE28ExcUnitShapeValuesDoNotExistE, i64 0, inrange i32 0, i64 2), ptr %7, align 8, !tbaa !5
  invoke void @__cxa_throw(ptr nonnull %7, ptr nonnull @_ZTIN6dealii13FiniteElementILi3ELi3EE28ExcUnitShapeValuesDoNotExistE, ptr nonnull @_ZN6dealii13ExceptionBaseD2Ev) #21
          to label %9 unwind label %12

9:                                                ; preds = %8
  unreachable

10:                                               ; preds = %6
  %11 = landingpad { ptr, i32 }
          cleanup
  call void @__cxa_free_exception(ptr %7) #19
  br label %14

12:                                               ; preds = %8, %4
  %13 = landingpad { ptr, i32 }
          cleanup
  br label %14

14:                                               ; preds = %10, %12
  %15 = phi { ptr, i32 } [ %13, %12 ], [ %11, %10 ]
  call void @_ZN6dealii13ExceptionBaseD2Ev(ptr noundef nonnull align 8 dereferenceable(60) %5) #19
  resume { ptr, i32 } %15
}

; Function Attrs: sspstrong uwtable
define weak_odr dso_local void @_ZNK6dealii13FiniteElementILi3ELi3EE25shape_grad_grad_componentEjRKNS_5PointILi3EEEj(ptr noalias sret(%"class.dealii::Tensor.117") align 8 %0, ptr noundef nonnull align 8 dereferenceable(728) %1, i32 noundef %2, ptr noundef nonnull align 8 dereferenceable(24) %3, i32 noundef %4) unnamed_addr #0 comdat align 2 personality ptr @__gxx_personality_v0 {
  %6 = alloca %"class.dealii::FiniteElement<3, 3>::ExcUnitShapeValuesDoNotExist", align 8
  call void @llvm.memset.p0.i64(ptr noundef nonnull align 8 dereferenceable(64) %6, i8 0, i64 64, i1 false)
  call void @_ZN6dealii13ExceptionBaseC2Ev(ptr noundef nonnull align 8 dereferenceable(60) %6)
  store ptr getelementptr inbounds ({ [6 x ptr] }, ptr @_ZTVN6dealii13FiniteElementILi3ELi3EE28ExcUnitShapeValuesDoNotExistE, i64 0, inrange i32 0, i64 2), ptr %6, align 8, !tbaa !5
  invoke void @_ZN6dealii13ExceptionBase10set_fieldsEPKciS2_S2_S2_(ptr noundef nonnull align 8 dereferenceable(60) %6, ptr noundef nonnull @.str, i32 noundef 304, ptr noundef nonnull @.str.9, ptr noundef nonnull @.str.10, ptr noundef nonnull @.str.11)
          to label %7 unwind label %13

7:                                                ; preds = %5
  %8 = call ptr @__cxa_allocate_exception(i64 64) #19
  invoke void @_ZN6dealii13ExceptionBaseC2ERKS0_(ptr noundef nonnull align 8 dereferenceable(60) %8, ptr noundef nonnull align 8 dereferenceable(60) %6)
          to label %9 unwind label %11

9:                                                ; preds = %7
  store ptr getelementptr inbounds ({ [6 x ptr] }, ptr @_ZTVN6dealii13FiniteElementILi3ELi3EE28ExcUnitShapeValuesDoNotExistE, i64 0, inrange i32 0, i64 2), ptr %8, align 8, !tbaa !5
  invoke void @__cxa_throw(ptr nonnull %8, ptr nonnull @_ZTIN6dealii13FiniteElementILi3ELi3EE28ExcUnitShapeValuesDoNotExistE, ptr nonnull @_ZN6dealii13ExceptionBaseD2Ev) #21
          to label %10 unwind label %13

10:                                               ; preds = %9
  unreachable

11:                                               ; preds = %7
  %12 = landingpad { ptr, i32 }
          cleanup
  call void @__cxa_free_exception(ptr %8) #19
  br label %15

13:                                               ; preds = %9, %5
  %14 = landingpad { ptr, i32 }
          cleanup
  br label %15

15:                                               ; preds = %11, %13
  %16 = phi { ptr, i32 } [ %14, %13 ], [ %12, %11 ]
  call void @_ZN6dealii13ExceptionBaseD2Ev(ptr noundef nonnull align 8 dereferenceable(60) %6) #19
  resume { ptr, i32 } %16
}

; Function Attrs: nounwind sspstrong uwtable
define weak_odr dso_local noundef zeroext i1 @_ZNK6dealii13FiniteElementILi3ELi3EE19has_support_on_faceEjj(ptr noundef nonnull align 8 dereferenceable(728) %0, i32 noundef %1, i32 noundef %2) unnamed_addr #7 comdat align 2 {
  ret i1 true
}

; Function Attrs: sspstrong uwtable
define weak_odr dso_local noundef nonnull align 8 dereferenceable(92) ptr @_ZNK6dealii13FiniteElementILi3ELi3EE22get_restriction_matrixEjRKNS_14RefinementCaseILi3EEE(ptr noundef nonnull align 8 dereferenceable(728) %0, i32 noundef %1, ptr noundef nonnull align 1 dereferenceable(1) %2) local_unnamed_addr #0 comdat align 2 {
  %4 = getelementptr inbounds %"class.dealii::FiniteElement", ptr %0, i64 0, i32 3
  %5 = load i8, ptr %2, align 1
  %6 = and i8 %5, 7
  %7 = zext i8 %6 to i64
  %8 = add nsw i64 %7, -1
  %9 = load ptr, ptr %4, align 8, !tbaa !121
  %10 = getelementptr inbounds %"class.std::vector.112", ptr %9, i64 %8
  %11 = zext i32 %1 to i64
  %12 = load ptr, ptr %10, align 8, !tbaa !122
  %13 = getelementptr inbounds %"class.dealii::FullMatrix", ptr %12, i64 %11
  ret ptr %13
}

; Function Attrs: sspstrong uwtable
define weak_odr dso_local noundef nonnull align 8 dereferenceable(92) ptr @_ZNK6dealii13FiniteElementILi3ELi3EE23get_prolongation_matrixEjRKNS_14RefinementCaseILi3EEE(ptr noundef nonnull align 8 dereferenceable(728) %0, i32 noundef %1, ptr noundef nonnull align 1 dereferenceable(1) %2) local_unnamed_addr #0 comdat align 2 {
  %4 = getelementptr inbounds %"class.dealii::FiniteElement", ptr %0, i64 0, i32 4
  %5 = load i8, ptr %2, align 1
  %6 = and i8 %5, 7
  %7 = zext i8 %6 to i64
  %8 = add nsw i64 %7, -1
  %9 = load ptr, ptr %4, align 8, !tbaa !121
  %10 = getelementptr inbounds %"class.std::vector.112", ptr %9, i64 %8
  %11 = zext i32 %1 to i64
  %12 = load ptr, ptr %10, align 8, !tbaa !122
  %13 = getelementptr inbounds %"class.dealii::FullMatrix", ptr %12, i64 %11
  ret ptr %13
}

; Function Attrs: sspstrong uwtable
define weak_odr dso_local noundef zeroext i1 @_ZNK6dealii13FiniteElementILi3ELi3EE27prolongation_is_implementedEv(ptr noundef nonnull align 8 dereferenceable(728) %0) local_unnamed_addr #0 comdat align 2 {
  %2 = alloca %"class.dealii::RefinementCase", align 1
  %3 = getelementptr inbounds %"class.dealii::FiniteElement", ptr %0, i64 0, i32 4
  call void @llvm.lifetime.start.p0(i64 1, ptr nonnull %2) #19
  store i8 1, ptr %2, align 1
  %4 = call noundef i32 @_ZN6dealii12GeometryInfoILi3EE10n_childrenERKNS_14RefinementCaseILi3EEE(ptr noundef nonnull align 1 dereferenceable(1) %2)
  %5 = icmp eq i32 %4, 0
  call void @llvm.lifetime.end.p0(i64 1, ptr nonnull %2) #19
  br i1 %5, label %23, label %11

6:                                                ; preds = %19
  %7 = add nuw nsw i64 %12, 1
  call void @llvm.lifetime.start.p0(i64 1, ptr nonnull %2) #19
  store i8 1, ptr %2, align 1
  %8 = call noundef i32 @_ZN6dealii12GeometryInfoILi3EE10n_childrenERKNS_14RefinementCaseILi3EEE(ptr noundef nonnull align 1 dereferenceable(1) %2)
  %9 = zext i32 %8 to i64
  %10 = icmp ult i64 %7, %9
  call void @llvm.lifetime.end.p0(i64 1, ptr nonnull %2) #19
  br i1 %10, label %11, label %23

11:                                               ; preds = %1, %6
  %12 = phi i64 [ %7, %6 ], [ 0, %1 ]
  %13 = load ptr, ptr %3, align 8, !tbaa !121
  %14 = load ptr, ptr %13, align 8, !tbaa !122
  %15 = getelementptr inbounds %"class.dealii::FullMatrix", ptr %14, i64 %12
  %16 = getelementptr inbounds %"class.dealii::TableBase", ptr %15, i64 0, i32 3
  %17 = load i32, ptr %16, align 4, !tbaa !30
  %18 = icmp eq i32 %17, 0
  br i1 %18, label %149, label %19

19:                                               ; preds = %11
  %20 = getelementptr inbounds %"class.dealii::TableBase", ptr %15, i64 0, i32 3, i32 0, i32 0, i64 1
  %21 = load i32, ptr %20, align 8, !tbaa !30
  %22 = icmp eq i32 %21, 0
  br i1 %22, label %149, label %6

23:                                               ; preds = %6, %1
  call void @llvm.lifetime.start.p0(i64 1, ptr nonnull %2) #19
  store i8 2, ptr %2, align 1
  %24 = call noundef i32 @_ZN6dealii12GeometryInfoILi3EE10n_childrenERKNS_14RefinementCaseILi3EEE(ptr noundef nonnull align 1 dereferenceable(1) %2)
  %25 = icmp eq i32 %24, 0
  call void @llvm.lifetime.end.p0(i64 1, ptr nonnull %2) #19
  br i1 %25, label %44, label %26

26:                                               ; preds = %23, %39
  %27 = phi i64 [ %40, %39 ], [ 0, %23 ]
  %28 = load ptr, ptr %3, align 8, !tbaa !121
  %29 = getelementptr inbounds %"class.std::vector.112", ptr %28, i64 1
  %30 = load ptr, ptr %29, align 8, !tbaa !122
  %31 = getelementptr inbounds %"class.dealii::FullMatrix", ptr %30, i64 %27
  %32 = getelementptr inbounds %"class.dealii::TableBase", ptr %31, i64 0, i32 3
  %33 = load i32, ptr %32, align 4, !tbaa !30
  %34 = icmp eq i32 %33, 0
  br i1 %34, label %149, label %35

35:                                               ; preds = %26
  %36 = getelementptr inbounds %"class.dealii::TableBase", ptr %31, i64 0, i32 3, i32 0, i32 0, i64 1
  %37 = load i32, ptr %36, align 8, !tbaa !30
  %38 = icmp eq i32 %37, 0
  br i1 %38, label %149, label %39

39:                                               ; preds = %35
  %40 = add nuw nsw i64 %27, 1
  call void @llvm.lifetime.start.p0(i64 1, ptr nonnull %2) #19
  store i8 2, ptr %2, align 1
  %41 = call noundef i32 @_ZN6dealii12GeometryInfoILi3EE10n_childrenERKNS_14RefinementCaseILi3EEE(ptr noundef nonnull align 1 dereferenceable(1) %2)
  %42 = zext i32 %41 to i64
  %43 = icmp ult i64 %40, %42
  call void @llvm.lifetime.end.p0(i64 1, ptr nonnull %2) #19
  br i1 %43, label %26, label %44

44:                                               ; preds = %39, %23
  call void @llvm.lifetime.start.p0(i64 1, ptr nonnull %2) #19
  store i8 3, ptr %2, align 1
  %45 = call noundef i32 @_ZN6dealii12GeometryInfoILi3EE10n_childrenERKNS_14RefinementCaseILi3EEE(ptr noundef nonnull align 1 dereferenceable(1) %2)
  %46 = icmp eq i32 %45, 0
  call void @llvm.lifetime.end.p0(i64 1, ptr nonnull %2) #19
  br i1 %46, label %65, label %47

47:                                               ; preds = %44, %60
  %48 = phi i64 [ %61, %60 ], [ 0, %44 ]
  %49 = load ptr, ptr %3, align 8, !tbaa !121
  %50 = getelementptr inbounds %"class.std::vector.112", ptr %49, i64 2
  %51 = load ptr, ptr %50, align 8, !tbaa !122
  %52 = getelementptr inbounds %"class.dealii::FullMatrix", ptr %51, i64 %48
  %53 = getelementptr inbounds %"class.dealii::TableBase", ptr %52, i64 0, i32 3
  %54 = load i32, ptr %53, align 4, !tbaa !30
  %55 = icmp eq i32 %54, 0
  br i1 %55, label %149, label %56

56:                                               ; preds = %47
  %57 = getelementptr inbounds %"class.dealii::TableBase", ptr %52, i64 0, i32 3, i32 0, i32 0, i64 1
  %58 = load i32, ptr %57, align 8, !tbaa !30
  %59 = icmp eq i32 %58, 0
  br i1 %59, label %149, label %60

60:                                               ; preds = %56
  %61 = add nuw nsw i64 %48, 1
  call void @llvm.lifetime.start.p0(i64 1, ptr nonnull %2) #19
  store i8 3, ptr %2, align 1
  %62 = call noundef i32 @_ZN6dealii12GeometryInfoILi3EE10n_childrenERKNS_14RefinementCaseILi3EEE(ptr noundef nonnull align 1 dereferenceable(1) %2)
  %63 = zext i32 %62 to i64
  %64 = icmp ult i64 %61, %63
  call void @llvm.lifetime.end.p0(i64 1, ptr nonnull %2) #19
  br i1 %64, label %47, label %65

65:                                               ; preds = %60, %44
  call void @llvm.lifetime.start.p0(i64 1, ptr nonnull %2) #19
  store i8 4, ptr %2, align 1
  %66 = call noundef i32 @_ZN6dealii12GeometryInfoILi3EE10n_childrenERKNS_14RefinementCaseILi3EEE(ptr noundef nonnull align 1 dereferenceable(1) %2)
  %67 = icmp eq i32 %66, 0
  call void @llvm.lifetime.end.p0(i64 1, ptr nonnull %2) #19
  br i1 %67, label %86, label %68

68:                                               ; preds = %65, %81
  %69 = phi i64 [ %82, %81 ], [ 0, %65 ]
  %70 = load ptr, ptr %3, align 8, !tbaa !121
  %71 = getelementptr inbounds %"class.std::vector.112", ptr %70, i64 3
  %72 = load ptr, ptr %71, align 8, !tbaa !122
  %73 = getelementptr inbounds %"class.dealii::FullMatrix", ptr %72, i64 %69
  %74 = getelementptr inbounds %"class.dealii::TableBase", ptr %73, i64 0, i32 3
  %75 = load i32, ptr %74, align 4, !tbaa !30
  %76 = icmp eq i32 %75, 0
  br i1 %76, label %149, label %77

77:                                               ; preds = %68
  %78 = getelementptr inbounds %"class.dealii::TableBase", ptr %73, i64 0, i32 3, i32 0, i32 0, i64 1
  %79 = load i32, ptr %78, align 8, !tbaa !30
  %80 = icmp eq i32 %79, 0
  br i1 %80, label %149, label %81

81:                                               ; preds = %77
  %82 = add nuw nsw i64 %69, 1
  call void @llvm.lifetime.start.p0(i64 1, ptr nonnull %2) #19
  store i8 4, ptr %2, align 1
  %83 = call noundef i32 @_ZN6dealii12GeometryInfoILi3EE10n_childrenERKNS_14RefinementCaseILi3EEE(ptr noundef nonnull align 1 dereferenceable(1) %2)
  %84 = zext i32 %83 to i64
  %85 = icmp ult i64 %82, %84
  call void @llvm.lifetime.end.p0(i64 1, ptr nonnull %2) #19
  br i1 %85, label %68, label %86

86:                                               ; preds = %81, %65
  call void @llvm.lifetime.start.p0(i64 1, ptr nonnull %2) #19
  store i8 5, ptr %2, align 1
  %87 = call noundef i32 @_ZN6dealii12GeometryInfoILi3EE10n_childrenERKNS_14RefinementCaseILi3EEE(ptr noundef nonnull align 1 dereferenceable(1) %2)
  %88 = icmp eq i32 %87, 0
  call void @llvm.lifetime.end.p0(i64 1, ptr nonnull %2) #19
  br i1 %88, label %107, label %89

89:                                               ; preds = %86, %102
  %90 = phi i64 [ %103, %102 ], [ 0, %86 ]
  %91 = load ptr, ptr %3, align 8, !tbaa !121
  %92 = getelementptr inbounds %"class.std::vector.112", ptr %91, i64 4
  %93 = load ptr, ptr %92, align 8, !tbaa !122
  %94 = getelementptr inbounds %"class.dealii::FullMatrix", ptr %93, i64 %90
  %95 = getelementptr inbounds %"class.dealii::TableBase", ptr %94, i64 0, i32 3
  %96 = load i32, ptr %95, align 4, !tbaa !30
  %97 = icmp eq i32 %96, 0
  br i1 %97, label %149, label %98

98:                                               ; preds = %89
  %99 = getelementptr inbounds %"class.dealii::TableBase", ptr %94, i64 0, i32 3, i32 0, i32 0, i64 1
  %100 = load i32, ptr %99, align 8, !tbaa !30
  %101 = icmp eq i32 %100, 0
  br i1 %101, label %149, label %102

102:                                              ; preds = %98
  %103 = add nuw nsw i64 %90, 1
  call void @llvm.lifetime.start.p0(i64 1, ptr nonnull %2) #19
  store i8 5, ptr %2, align 1
  %104 = call noundef i32 @_ZN6dealii12GeometryInfoILi3EE10n_childrenERKNS_14RefinementCaseILi3EEE(ptr noundef nonnull align 1 dereferenceable(1) %2)
  %105 = zext i32 %104 to i64
  %106 = icmp ult i64 %103, %105
  call void @llvm.lifetime.end.p0(i64 1, ptr nonnull %2) #19
  br i1 %106, label %89, label %107

107:                                              ; preds = %102, %86
  call void @llvm.lifetime.start.p0(i64 1, ptr nonnull %2) #19
  store i8 6, ptr %2, align 1
  %108 = call noundef i32 @_ZN6dealii12GeometryInfoILi3EE10n_childrenERKNS_14RefinementCaseILi3EEE(ptr noundef nonnull align 1 dereferenceable(1) %2)
  %109 = icmp eq i32 %108, 0
  call void @llvm.lifetime.end.p0(i64 1, ptr nonnull %2) #19
  br i1 %109, label %128, label %110

110:                                              ; preds = %107, %123
  %111 = phi i64 [ %124, %123 ], [ 0, %107 ]
  %112 = load ptr, ptr %3, align 8, !tbaa !121
  %113 = getelementptr inbounds %"class.std::vector.112", ptr %112, i64 5
  %114 = load ptr, ptr %113, align 8, !tbaa !122
  %115 = getelementptr inbounds %"class.dealii::FullMatrix", ptr %114, i64 %111
  %116 = getelementptr inbounds %"class.dealii::TableBase", ptr %115, i64 0, i32 3
  %117 = load i32, ptr %116, align 4, !tbaa !30
  %118 = icmp eq i32 %117, 0
  br i1 %118, label %149, label %119

119:                                              ; preds = %110
  %120 = getelementptr inbounds %"class.dealii::TableBase", ptr %115, i64 0, i32 3, i32 0, i32 0, i64 1
  %121 = load i32, ptr %120, align 8, !tbaa !30
  %122 = icmp eq i32 %121, 0
  br i1 %122, label %149, label %123

123:                                              ; preds = %119
  %124 = add nuw nsw i64 %111, 1
  call void @llvm.lifetime.start.p0(i64 1, ptr nonnull %2) #19
  store i8 6, ptr %2, align 1
  %125 = call noundef i32 @_ZN6dealii12GeometryInfoILi3EE10n_childrenERKNS_14RefinementCaseILi3EEE(ptr noundef nonnull align 1 dereferenceable(1) %2)
  %126 = zext i32 %125 to i64
  %127 = icmp ult i64 %124, %126
  call void @llvm.lifetime.end.p0(i64 1, ptr nonnull %2) #19
  br i1 %127, label %110, label %128

128:                                              ; preds = %123, %107
  call void @llvm.lifetime.start.p0(i64 1, ptr nonnull %2) #19
  store i8 7, ptr %2, align 1
  %129 = call noundef i32 @_ZN6dealii12GeometryInfoILi3EE10n_childrenERKNS_14RefinementCaseILi3EEE(ptr noundef nonnull align 1 dereferenceable(1) %2)
  %130 = icmp eq i32 %129, 0
  call void @llvm.lifetime.end.p0(i64 1, ptr nonnull %2) #19
  br i1 %130, label %149, label %131

131:                                              ; preds = %128, %144
  %132 = phi i64 [ %145, %144 ], [ 0, %128 ]
  %133 = load ptr, ptr %3, align 8, !tbaa !121
  %134 = getelementptr inbounds %"class.std::vector.112", ptr %133, i64 6
  %135 = load ptr, ptr %134, align 8, !tbaa !122
  %136 = getelementptr inbounds %"class.dealii::FullMatrix", ptr %135, i64 %132
  %137 = getelementptr inbounds %"class.dealii::TableBase", ptr %136, i64 0, i32 3
  %138 = load i32, ptr %137, align 4, !tbaa !30
  %139 = icmp eq i32 %138, 0
  br i1 %139, label %149, label %140

140:                                              ; preds = %131
  %141 = getelementptr inbounds %"class.dealii::TableBase", ptr %136, i64 0, i32 3, i32 0, i32 0, i64 1
  %142 = load i32, ptr %141, align 8, !tbaa !30
  %143 = icmp eq i32 %142, 0
  br i1 %143, label %149, label %144

144:                                              ; preds = %140
  %145 = add nuw nsw i64 %132, 1
  call void @llvm.lifetime.start.p0(i64 1, ptr nonnull %2) #19
  store i8 7, ptr %2, align 1
  %146 = call noundef i32 @_ZN6dealii12GeometryInfoILi3EE10n_childrenERKNS_14RefinementCaseILi3EEE(ptr noundef nonnull align 1 dereferenceable(1) %2)
  %147 = zext i32 %146 to i64
  %148 = icmp ult i64 %145, %147
  call void @llvm.lifetime.end.p0(i64 1, ptr nonnull %2) #19
  br i1 %148, label %131, label %149

149:                                              ; preds = %19, %11, %26, %35, %47, %56, %68, %77, %89, %98, %110, %119, %131, %140, %144, %128
  %150 = phi i1 [ true, %128 ], [ false, %131 ], [ false, %140 ], [ true, %144 ], [ false, %119 ], [ false, %110 ], [ false, %98 ], [ false, %89 ], [ false, %77 ], [ false, %68 ], [ false, %56 ], [ false, %47 ], [ false, %35 ], [ false, %26 ], [ false, %11 ], [ false, %19 ]
  ret i1 %150
}

; Function Attrs: sspstrong uwtable
define weak_odr dso_local noundef zeroext i1 @_ZNK6dealii13FiniteElementILi3ELi3EE37isotropic_prolongation_is_implementedEv(ptr noundef nonnull align 8 dereferenceable(728) %0) local_unnamed_addr #0 comdat align 2 {
  %2 = alloca %"class.dealii::RefinementCase", align 1
  %3 = getelementptr inbounds %"class.dealii::FiniteElement", ptr %0, i64 0, i32 4
  call void @llvm.lifetime.start.p0(i64 1, ptr nonnull %2) #19
  store i8 7, ptr %2, align 1
  %4 = call noundef i32 @_ZN6dealii12GeometryInfoILi3EE10n_childrenERKNS_14RefinementCaseILi3EEE(ptr noundef nonnull align 1 dereferenceable(1) %2)
  %5 = icmp eq i32 %4, 0
  call void @llvm.lifetime.end.p0(i64 1, ptr nonnull %2) #19
  br i1 %5, label %24, label %11

6:                                                ; preds = %20
  %7 = add nuw nsw i64 %12, 1
  call void @llvm.lifetime.start.p0(i64 1, ptr nonnull %2) #19
  store i8 7, ptr %2, align 1
  %8 = call noundef i32 @_ZN6dealii12GeometryInfoILi3EE10n_childrenERKNS_14RefinementCaseILi3EEE(ptr noundef nonnull align 1 dereferenceable(1) %2)
  %9 = zext i32 %8 to i64
  %10 = icmp ult i64 %7, %9
  call void @llvm.lifetime.end.p0(i64 1, ptr nonnull %2) #19
  br i1 %10, label %11, label %24

11:                                               ; preds = %1, %6
  %12 = phi i64 [ %7, %6 ], [ 0, %1 ]
  %13 = load ptr, ptr %3, align 8, !tbaa !121
  %14 = getelementptr inbounds %"class.std::vector.112", ptr %13, i64 6
  %15 = load ptr, ptr %14, align 8, !tbaa !122
  %16 = getelementptr inbounds %"class.dealii::FullMatrix", ptr %15, i64 %12
  %17 = getelementptr inbounds %"class.dealii::TableBase", ptr %16, i64 0, i32 3
  %18 = load i32, ptr %17, align 4, !tbaa !30
  %19 = icmp eq i32 %18, 0
  br i1 %19, label %24, label %20

20:                                               ; preds = %11
  %21 = getelementptr inbounds %"class.dealii::TableBase", ptr %16, i64 0, i32 3, i32 0, i32 0, i64 1
  %22 = load i32, ptr %21, align 8, !tbaa !30
  %23 = icmp eq i32 %22, 0
  br i1 %23, label %24, label %6

24:                                               ; preds = %11, %20, %6, %1
  %25 = phi i1 [ true, %1 ], [ true, %6 ], [ false, %20 ], [ false, %11 ]
  ret i1 %25
}

; Function Attrs: sspstrong uwtable
define weak_odr dso_local noundef zeroext i1 @_ZNK6dealii13FiniteElementILi3ELi3EE26restriction_is_implementedEv(ptr noundef nonnull align 8 dereferenceable(728) %0) local_unnamed_addr #0 comdat align 2 {
  %2 = alloca %"class.dealii::RefinementCase", align 1
  %3 = getelementptr inbounds %"class.dealii::FiniteElement", ptr %0, i64 0, i32 3
  call void @llvm.lifetime.start.p0(i64 1, ptr nonnull %2) #19
  store i8 1, ptr %2, align 1
  %4 = call noundef i32 @_ZN6dealii12GeometryInfoILi3EE10n_childrenERKNS_14RefinementCaseILi3EEE(ptr noundef nonnull align 1 dereferenceable(1) %2)
  %5 = icmp eq i32 %4, 0
  call void @llvm.lifetime.end.p0(i64 1, ptr nonnull %2) #19
  br i1 %5, label %23, label %11

6:                                                ; preds = %19
  %7 = add nuw nsw i64 %12, 1
  call void @llvm.lifetime.start.p0(i64 1, ptr nonnull %2) #19
  store i8 1, ptr %2, align 1
  %8 = call noundef i32 @_ZN6dealii12GeometryInfoILi3EE10n_childrenERKNS_14RefinementCaseILi3EEE(ptr noundef nonnull align 1 dereferenceable(1) %2)
  %9 = zext i32 %8 to i64
  %10 = icmp ult i64 %7, %9
  call void @llvm.lifetime.end.p0(i64 1, ptr nonnull %2) #19
  br i1 %10, label %11, label %23

11:                                               ; preds = %1, %6
  %12 = phi i64 [ %7, %6 ], [ 0, %1 ]
  %13 = load ptr, ptr %3, align 8, !tbaa !121
  %14 = load ptr, ptr %13, align 8, !tbaa !122
  %15 = getelementptr inbounds %"class.dealii::FullMatrix", ptr %14, i64 %12
  %16 = getelementptr inbounds %"class.dealii::TableBase", ptr %15, i64 0, i32 3
  %17 = load i32, ptr %16, align 4, !tbaa !30
  %18 = icmp eq i32 %17, 0
  br i1 %18, label %149, label %19

19:                                               ; preds = %11
  %20 = getelementptr inbounds %"class.dealii::TableBase", ptr %15, i64 0, i32 3, i32 0, i32 0, i64 1
  %21 = load i32, ptr %20, align 8, !tbaa !30
  %22 = icmp eq i32 %21, 0
  br i1 %22, label %149, label %6

23:                                               ; preds = %6, %1
  call void @llvm.lifetime.start.p0(i64 1, ptr nonnull %2) #19
  store i8 2, ptr %2, align 1
  %24 = call noundef i32 @_ZN6dealii12GeometryInfoILi3EE10n_childrenERKNS_14RefinementCaseILi3EEE(ptr noundef nonnull align 1 dereferenceable(1) %2)
  %25 = icmp eq i32 %24, 0
  call void @llvm.lifetime.end.p0(i64 1, ptr nonnull %2) #19
  br i1 %25, label %44, label %26

26:                                               ; preds = %23, %39
  %27 = phi i64 [ %40, %39 ], [ 0, %23 ]
  %28 = load ptr, ptr %3, align 8, !tbaa !121
  %29 = getelementptr inbounds %"class.std::vector.112", ptr %28, i64 1
  %30 = load ptr, ptr %29, align 8, !tbaa !122
  %31 = getelementptr inbounds %"class.dealii::FullMatrix", ptr %30, i64 %27
  %32 = getelementptr inbounds %"class.dealii::TableBase", ptr %31, i64 0, i32 3
  %33 = load i32, ptr %32, align 4, !tbaa !30
  %34 = icmp eq i32 %33, 0
  br i1 %34, label %149, label %35

35:                                               ; preds = %26
  %36 = getelementptr inbounds %"class.dealii::TableBase", ptr %31, i64 0, i32 3, i32 0, i32 0, i64 1
  %37 = load i32, ptr %36, align 8, !tbaa !30
  %38 = icmp eq i32 %37, 0
  br i1 %38, label %149, label %39

39:                                               ; preds = %35
  %40 = add nuw nsw i64 %27, 1
  call void @llvm.lifetime.start.p0(i64 1, ptr nonnull %2) #19
  store i8 2, ptr %2, align 1
  %41 = call noundef i32 @_ZN6dealii12GeometryInfoILi3EE10n_childrenERKNS_14RefinementCaseILi3EEE(ptr noundef nonnull align 1 dereferenceable(1) %2)
  %42 = zext i32 %41 to i64
  %43 = icmp ult i64 %40, %42
  call void @llvm.lifetime.end.p0(i64 1, ptr nonnull %2) #19
  br i1 %43, label %26, label %44

44:                                               ; preds = %39, %23
  call void @llvm.lifetime.start.p0(i64 1, ptr nonnull %2) #19
  store i8 3, ptr %2, align 1
  %45 = call noundef i32 @_ZN6dealii12GeometryInfoILi3EE10n_childrenERKNS_14RefinementCaseILi3EEE(ptr noundef nonnull align 1 dereferenceable(1) %2)
  %46 = icmp eq i32 %45, 0
  call void @llvm.lifetime.end.p0(i64 1, ptr nonnull %2) #19
  br i1 %46, label %65, label %47

47:                                               ; preds = %44, %60
  %48 = phi i64 [ %61, %60 ], [ 0, %44 ]
  %49 = load ptr, ptr %3, align 8, !tbaa !121
  %50 = getelementptr inbounds %"class.std::vector.112", ptr %49, i64 2
  %51 = load ptr, ptr %50, align 8, !tbaa !122
  %52 = getelementptr inbounds %"class.dealii::FullMatrix", ptr %51, i64 %48
  %53 = getelementptr inbounds %"class.dealii::TableBase", ptr %52, i64 0, i32 3
  %54 = load i32, ptr %53, align 4, !tbaa !30
  %55 = icmp eq i32 %54, 0
  br i1 %55, label %149, label %56

56:                                               ; preds = %47
  %57 = getelementptr inbounds %"class.dealii::TableBase", ptr %52, i64 0, i32 3, i32 0, i32 0, i64 1
  %58 = load i32, ptr %57, align 8, !tbaa !30
  %59 = icmp eq i32 %58, 0
  br i1 %59, label %149, label %60

60:                                               ; preds = %56
  %61 = add nuw nsw i64 %48, 1
  call void @llvm.lifetime.start.p0(i64 1, ptr nonnull %2) #19
  store i8 3, ptr %2, align 1
  %62 = call noundef i32 @_ZN6dealii12GeometryInfoILi3EE10n_childrenERKNS_14RefinementCaseILi3EEE(ptr noundef nonnull align 1 dereferenceable(1) %2)
  %63 = zext i32 %62 to i64
  %64 = icmp ult i64 %61, %63
  call void @llvm.lifetime.end.p0(i64 1, ptr nonnull %2) #19
  br i1 %64, label %47, label %65

65:                                               ; preds = %60, %44
  call void @llvm.lifetime.start.p0(i64 1, ptr nonnull %2) #19
  store i8 4, ptr %2, align 1
  %66 = call noundef i32 @_ZN6dealii12GeometryInfoILi3EE10n_childrenERKNS_14RefinementCaseILi3EEE(ptr noundef nonnull align 1 dereferenceable(1) %2)
  %67 = icmp eq i32 %66, 0
  call void @llvm.lifetime.end.p0(i64 1, ptr nonnull %2) #19
  br i1 %67, label %86, label %68

68:                                               ; preds = %65, %81
  %69 = phi i64 [ %82, %81 ], [ 0, %65 ]
  %70 = load ptr, ptr %3, align 8, !tbaa !121
  %71 = getelementptr inbounds %"class.std::vector.112", ptr %70, i64 3
  %72 = load ptr, ptr %71, align 8, !tbaa !122
  %73 = getelementptr inbounds %"class.dealii::FullMatrix", ptr %72, i64 %69
  %74 = getelementptr inbounds %"class.dealii::TableBase", ptr %73, i64 0, i32 3
  %75 = load i32, ptr %74, align 4, !tbaa !30
  %76 = icmp eq i32 %75, 0
  br i1 %76, label %149, label %77

77:                                               ; preds = %68
  %78 = getelementptr inbounds %"class.dealii::TableBase", ptr %73, i64 0, i32 3, i32 0, i32 0, i64 1
  %79 = load i32, ptr %78, align 8, !tbaa !30
  %80 = icmp eq i32 %79, 0
  br i1 %80, label %149, label %81

81:                                               ; preds = %77
  %82 = add nuw nsw i64 %69, 1
  call void @llvm.lifetime.start.p0(i64 1, ptr nonnull %2) #19
  store i8 4, ptr %2, align 1
  %83 = call noundef i32 @_ZN6dealii12GeometryInfoILi3EE10n_childrenERKNS_14RefinementCaseILi3EEE(ptr noundef nonnull align 1 dereferenceable(1) %2)
  %84 = zext i32 %83 to i64
  %85 = icmp ult i64 %82, %84
  call void @llvm.lifetime.end.p0(i64 1, ptr nonnull %2) #19
  br i1 %85, label %68, label %86

86:                                               ; preds = %81, %65
  call void @llvm.lifetime.start.p0(i64 1, ptr nonnull %2) #19
  store i8 5, ptr %2, align 1
  %87 = call noundef i32 @_ZN6dealii12GeometryInfoILi3EE10n_childrenERKNS_14RefinementCaseILi3EEE(ptr noundef nonnull align 1 dereferenceable(1) %2)
  %88 = icmp eq i32 %87, 0
  call void @llvm.lifetime.end.p0(i64 1, ptr nonnull %2) #19
  br i1 %88, label %107, label %89

89:                                               ; preds = %86, %102
  %90 = phi i64 [ %103, %102 ], [ 0, %86 ]
  %91 = load ptr, ptr %3, align 8, !tbaa !121
  %92 = getelementptr inbounds %"class.std::vector.112", ptr %91, i64 4
  %93 = load ptr, ptr %92, align 8, !tbaa !122
  %94 = getelementptr inbounds %"class.dealii::FullMatrix", ptr %93, i64 %90
  %95 = getelementptr inbounds %"class.dealii::TableBase", ptr %94, i64 0, i32 3
  %96 = load i32, ptr %95, align 4, !tbaa !30
  %97 = icmp eq i32 %96, 0
  br i1 %97, label %149, label %98

98:                                               ; preds = %89
  %99 = getelementptr inbounds %"class.dealii::TableBase", ptr %94, i64 0, i32 3, i32 0, i32 0, i64 1
  %100 = load i32, ptr %99, align 8, !tbaa !30
  %101 = icmp eq i32 %100, 0
  br i1 %101, label %149, label %102

102:                                              ; preds = %98
  %103 = add nuw nsw i64 %90, 1
  call void @llvm.lifetime.start.p0(i64 1, ptr nonnull %2) #19
  store i8 5, ptr %2, align 1
  %104 = call noundef i32 @_ZN6dealii12GeometryInfoILi3EE10n_childrenERKNS_14RefinementCaseILi3EEE(ptr noundef nonnull align 1 dereferenceable(1) %2)
  %105 = zext i32 %104 to i64
  %106 = icmp ult i64 %103, %105
  call void @llvm.lifetime.end.p0(i64 1, ptr nonnull %2) #19
  br i1 %106, label %89, label %107

107:                                              ; preds = %102, %86
  call void @llvm.lifetime.start.p0(i64 1, ptr nonnull %2) #19
  store i8 6, ptr %2, align 1
  %108 = call noundef i32 @_ZN6dealii12GeometryInfoILi3EE10n_childrenERKNS_14RefinementCaseILi3EEE(ptr noundef nonnull align 1 dereferenceable(1) %2)
  %109 = icmp eq i32 %108, 0
  call void @llvm.lifetime.end.p0(i64 1, ptr nonnull %2) #19
  br i1 %109, label %128, label %110

110:                                              ; preds = %107, %123
  %111 = phi i64 [ %124, %123 ], [ 0, %107 ]
  %112 = load ptr, ptr %3, align 8, !tbaa !121
  %113 = getelementptr inbounds %"class.std::vector.112", ptr %112, i64 5
  %114 = load ptr, ptr %113, align 8, !tbaa !122
  %115 = getelementptr inbounds %"class.dealii::FullMatrix", ptr %114, i64 %111
  %116 = getelementptr inbounds %"class.dealii::TableBase", ptr %115, i64 0, i32 3
  %117 = load i32, ptr %116, align 4, !tbaa !30
  %118 = icmp eq i32 %117, 0
  br i1 %118, label %149, label %119

119:                                              ; preds = %110
  %120 = getelementptr inbounds %"class.dealii::TableBase", ptr %115, i64 0, i32 3, i32 0, i32 0, i64 1
  %121 = load i32, ptr %120, align 8, !tbaa !30
  %122 = icmp eq i32 %121, 0
  br i1 %122, label %149, label %123

123:                                              ; preds = %119
  %124 = add nuw nsw i64 %111, 1
  call void @llvm.lifetime.start.p0(i64 1, ptr nonnull %2) #19
  store i8 6, ptr %2, align 1
  %125 = call noundef i32 @_ZN6dealii12GeometryInfoILi3EE10n_childrenERKNS_14RefinementCaseILi3EEE(ptr noundef nonnull align 1 dereferenceable(1) %2)
  %126 = zext i32 %125 to i64
  %127 = icmp ult i64 %124, %126
  call void @llvm.lifetime.end.p0(i64 1, ptr nonnull %2) #19
  br i1 %127, label %110, label %128

128:                                              ; preds = %123, %107
  call void @llvm.lifetime.start.p0(i64 1, ptr nonnull %2) #19
  store i8 7, ptr %2, align 1
  %129 = call noundef i32 @_ZN6dealii12GeometryInfoILi3EE10n_childrenERKNS_14RefinementCaseILi3EEE(ptr noundef nonnull align 1 dereferenceable(1) %2)
  %130 = icmp eq i32 %129, 0
  call void @llvm.lifetime.end.p0(i64 1, ptr nonnull %2) #19
  br i1 %130, label %149, label %131

131:                                              ; preds = %128, %144
  %132 = phi i64 [ %145, %144 ], [ 0, %128 ]
  %133 = load ptr, ptr %3, align 8, !tbaa !121
  %134 = getelementptr inbounds %"class.std::vector.112", ptr %133, i64 6
  %135 = load ptr, ptr %134, align 8, !tbaa !122
  %136 = getelementptr inbounds %"class.dealii::FullMatrix", ptr %135, i64 %132
  %137 = getelementptr inbounds %"class.dealii::TableBase", ptr %136, i64 0, i32 3
  %138 = load i32, ptr %137, align 4, !tbaa !30
  %139 = icmp eq i32 %138, 0
  br i1 %139, label %149, label %140

140:                                              ; preds = %131
  %141 = getelementptr inbounds %"class.dealii::TableBase", ptr %136, i64 0, i32 3, i32 0, i32 0, i64 1
  %142 = load i32, ptr %141, align 8, !tbaa !30
  %143 = icmp eq i32 %142, 0
  br i1 %143, label %149, label %144

144:                                              ; preds = %140
  %145 = add nuw nsw i64 %132, 1
  call void @llvm.lifetime.start.p0(i64 1, ptr nonnull %2) #19
  store i8 7, ptr %2, align 1
  %146 = call noundef i32 @_ZN6dealii12GeometryInfoILi3EE10n_childrenERKNS_14RefinementCaseILi3EEE(ptr noundef nonnull align 1 dereferenceable(1) %2)
  %147 = zext i32 %146 to i64
  %148 = icmp ult i64 %145, %147
  call void @llvm.lifetime.end.p0(i64 1, ptr nonnull %2) #19
  br i1 %148, label %131, label %149

149:                                              ; preds = %19, %11, %26, %35, %47, %56, %68, %77, %89, %98, %110, %119, %131, %140, %144, %128
  %150 = phi i1 [ true, %128 ], [ false, %131 ], [ false, %140 ], [ true, %144 ], [ false, %119 ], [ false, %110 ], [ false, %98 ], [ false, %89 ], [ false, %77 ], [ false, %68 ], [ false, %56 ], [ false, %47 ], [ false, %35 ], [ false, %26 ], [ false, %11 ], [ false, %19 ]
  ret i1 %150
}

; Function Attrs: sspstrong uwtable
define weak_odr dso_local noundef zeroext i1 @_ZNK6dealii13FiniteElementILi3ELi3EE36isotropic_restriction_is_implementedEv(ptr noundef nonnull align 8 dereferenceable(728) %0) local_unnamed_addr #0 comdat align 2 {
  %2 = alloca %"class.dealii::RefinementCase", align 1
  %3 = getelementptr inbounds %"class.dealii::FiniteElement", ptr %0, i64 0, i32 3
  call void @llvm.lifetime.start.p0(i64 1, ptr nonnull %2) #19
  store i8 7, ptr %2, align 1
  %4 = call noundef i32 @_ZN6dealii12GeometryInfoILi3EE10n_childrenERKNS_14RefinementCaseILi3EEE(ptr noundef nonnull align 1 dereferenceable(1) %2)
  %5 = icmp eq i32 %4, 0
  call void @llvm.lifetime.end.p0(i64 1, ptr nonnull %2) #19
  br i1 %5, label %24, label %11

6:                                                ; preds = %20
  %7 = add nuw nsw i64 %12, 1
  call void @llvm.lifetime.start.p0(i64 1, ptr nonnull %2) #19
  store i8 7, ptr %2, align 1
  %8 = call noundef i32 @_ZN6dealii12GeometryInfoILi3EE10n_childrenERKNS_14RefinementCaseILi3EEE(ptr noundef nonnull align 1 dereferenceable(1) %2)
  %9 = zext i32 %8 to i64
  %10 = icmp ult i64 %7, %9
  call void @llvm.lifetime.end.p0(i64 1, ptr nonnull %2) #19
  br i1 %10, label %11, label %24

11:                                               ; preds = %1, %6
  %12 = phi i64 [ %7, %6 ], [ 0, %1 ]
  %13 = load ptr, ptr %3, align 8, !tbaa !121
  %14 = getelementptr inbounds %"class.std::vector.112", ptr %13, i64 6
  %15 = load ptr, ptr %14, align 8, !tbaa !122
  %16 = getelementptr inbounds %"class.dealii::FullMatrix", ptr %15, i64 %12
  %17 = getelementptr inbounds %"class.dealii::TableBase", ptr %16, i64 0, i32 3
  %18 = load i32, ptr %17, align 4, !tbaa !30
  %19 = icmp eq i32 %18, 0
  br i1 %19, label %24, label %20

20:                                               ; preds = %11
  %21 = getelementptr inbounds %"class.dealii::TableBase", ptr %16, i64 0, i32 3, i32 0, i32 0, i64 1
  %22 = load i32, ptr %21, align 8, !tbaa !30
  %23 = icmp eq i32 %22, 0
  br i1 %23, label %24, label %6

24:                                               ; preds = %11, %20, %6, %1
  %25 = phi i1 [ true, %1 ], [ true, %6 ], [ false, %20 ], [ false, %11 ]
  ret i1 %25
}

; Function Attrs: inlinehint sspstrong uwtable
define weak_odr dso_local noundef zeroext i1 @_ZNK6dealii13FiniteElementILi3ELi3EE23restriction_is_additiveEj(ptr noundef nonnull align 8 dereferenceable(728) %0, i32 noundef %1) local_unnamed_addr #11 comdat align 2 {
  %3 = getelementptr inbounds %"class.dealii::FiniteElement", ptr %0, i64 0, i32 18
  %4 = load ptr, ptr %3, align 8, !tbaa !109
  %5 = lshr i32 %1, 6
  %6 = zext i32 %5 to i64
  %7 = getelementptr inbounds i64, ptr %4, i64 %6
  %8 = and i32 %1, 63
  %9 = zext i32 %8 to i64
  %10 = shl nuw i64 1, %9
  %11 = load i64, ptr %7, align 8, !tbaa !110
  %12 = and i64 %11, %10
  %13 = icmp ne i64 %12, 0
  ret i1 %13
}

; Function Attrs: nounwind sspstrong uwtable
define weak_odr dso_local noundef nonnull align 8 dereferenceable(92) ptr @_ZNK6dealii13FiniteElementILi3ELi3EE11constraintsERKNS_8internal11SubfaceCaseILi3EEE(ptr noundef nonnull align 8 dereferenceable(728) %0, ptr noundef nonnull align 1 dereferenceable(1) %1) local_unnamed_addr #7 comdat align 2 {
  %3 = getelementptr inbounds %"class.dealii::FiniteElement", ptr %0, i64 0, i32 5
  ret ptr %3
}

; Function Attrs: sspstrong uwtable
define weak_odr dso_local noundef zeroext i1 @_ZNK6dealii13FiniteElementILi3ELi3EE27constraints_are_implementedERKNS_8internal11SubfaceCaseILi3EEE(ptr noundef nonnull align 8 dereferenceable(728) %0, ptr noundef nonnull align 1 dereferenceable(1) %1) local_unnamed_addr #0 comdat align 2 {
  %3 = load i8, ptr %1, align 1
  %4 = and i8 %3, 15
  %5 = icmp eq i8 %4, 9
  br i1 %5, label %6, label %14

6:                                                ; preds = %2
  %7 = getelementptr inbounds i8, ptr %0, i64 108
  %8 = load i32, ptr %7, align 4, !tbaa !103
  %9 = icmp eq i32 %8, 0
  br i1 %9, label %14, label %10

10:                                               ; preds = %6
  %11 = getelementptr inbounds %"class.dealii::FiniteElement", ptr %0, i64 0, i32 5, i32 0, i32 0, i32 3
  %12 = load i32, ptr %11, align 4, !tbaa !30
  %13 = icmp ne i32 %12, 0
  br label %14

14:                                               ; preds = %2, %6, %10
  %15 = phi i1 [ true, %6 ], [ %13, %10 ], [ false, %2 ]
  ret i1 %15
}

; Function Attrs: nounwind sspstrong uwtable
define weak_odr dso_local noundef zeroext i1 @_ZNK6dealii13FiniteElementILi3ELi3EE30hp_constraints_are_implementedEv(ptr noundef nonnull align 8 dereferenceable(728) %0) unnamed_addr #7 comdat align 2 {
  ret i1 false
}

; Function Attrs: sspstrong uwtable
define weak_odr dso_local void @_ZNK6dealii13FiniteElementILi3ELi3EE24get_interpolation_matrixERKS1_RNS_10FullMatrixIdEE(ptr noundef nonnull align 8 dereferenceable(728) %0, ptr noundef nonnull align 8 dereferenceable(728) %1, ptr noundef nonnull align 8 dereferenceable(92) %2) unnamed_addr #0 comdat align 2 personality ptr @__gxx_personality_v0 {
  %4 = alloca %"class.dealii::FiniteElement<3, 3>::ExcInterpolationNotImplemented", align 8
  call void @llvm.memset.p0.i64(ptr noundef nonnull align 8 dereferenceable(64) %4, i8 0, i64 64, i1 false)
  call void @_ZN6dealii13ExceptionBaseC2Ev(ptr noundef nonnull align 8 dereferenceable(60) %4)
  store ptr getelementptr inbounds ({ [6 x ptr] }, ptr @_ZTVN6dealii13FiniteElementILi3ELi3EE30ExcInterpolationNotImplementedE, i64 0, inrange i32 0, i64 2), ptr %4, align 8, !tbaa !5
  invoke void @_ZN6dealii13ExceptionBase10set_fieldsEPKciS2_S2_S2_(ptr noundef nonnull align 8 dereferenceable(60) %4, ptr noundef nonnull @.str, i32 noundef 637, ptr noundef nonnull @.str.9, ptr noundef nonnull @.str.10, ptr noundef nonnull @.str.12)
          to label %5 unwind label %11

5:                                                ; preds = %3
  %6 = call ptr @__cxa_allocate_exception(i64 64) #19
  invoke void @_ZN6dealii13ExceptionBaseC2ERKS0_(ptr noundef nonnull align 8 dereferenceable(60) %6, ptr noundef nonnull align 8 dereferenceable(60) %4)
          to label %7 unwind label %9

7:                                                ; preds = %5
  store ptr getelementptr inbounds ({ [6 x ptr] }, ptr @_ZTVN6dealii13FiniteElementILi3ELi3EE30ExcInterpolationNotImplementedE, i64 0, inrange i32 0, i64 2), ptr %6, align 8, !tbaa !5
  invoke void @__cxa_throw(ptr nonnull %6, ptr nonnull @_ZTIN6dealii13FiniteElementILi3ELi3EE30ExcInterpolationNotImplementedE, ptr nonnull @_ZN6dealii13ExceptionBaseD2Ev) #21
          to label %8 unwind label %11

8:                                                ; preds = %7
  unreachable

9:                                                ; preds = %5
  %10 = landingpad { ptr, i32 }
          cleanup
  call void @__cxa_free_exception(ptr %6) #19
  br label %13

11:                                               ; preds = %7, %3
  %12 = landingpad { ptr, i32 }
          cleanup
  br label %13

13:                                               ; preds = %9, %11
  %14 = phi { ptr, i32 } [ %12, %11 ], [ %10, %9 ]
  call void @_ZN6dealii13ExceptionBaseD2Ev(ptr noundef nonnull align 8 dereferenceable(60) %4) #19
  resume { ptr, i32 } %14
}

; Function Attrs: sspstrong uwtable
define weak_odr dso_local void @_ZNK6dealii13FiniteElementILi3ELi3EE29get_face_interpolation_matrixERKS1_RNS_10FullMatrixIdEE(ptr noundef nonnull align 8 dereferenceable(728) %0, ptr noundef nonnull align 8 dereferenceable(728) %1, ptr noundef nonnull align 8 dereferenceable(92) %2) unnamed_addr #0 comdat align 2 personality ptr @__gxx_personality_v0 {
  %4 = alloca %"class.dealii::FiniteElement<3, 3>::ExcInterpolationNotImplemented", align 8
  call void @llvm.memset.p0.i64(ptr noundef nonnull align 8 dereferenceable(64) %4, i8 0, i64 64, i1 false)
  call void @_ZN6dealii13ExceptionBaseC2Ev(ptr noundef nonnull align 8 dereferenceable(60) %4)
