; ModuleID = 'source/fe/fe_poly_tensor.cc'
source_filename = "source/fe/fe_poly_tensor.cc"
target datalayout = "e-m:e-p270:32:32-p271:32:32-p272:64:64-i64:64-f80:128-n8:16:32:64-S128"
target triple = "x86_64-pc-linux-gnu"

module asm ".globl _ZSt21ios_base_library_initv"

%"class.dealii::FE_PolyTensor" = type { %"class.dealii::FiniteElement", i32, [4 x i8], %"class.dealii::PolynomialsRaviartThomas", %"class.dealii::FullMatrix", %"class.dealii::Point", %"class.std::vector.67", %"class.std::vector.72", %"class.std::vector.77" }
%"class.dealii::FiniteElement" = type { %"class.dealii::Subscriptor", %"class.dealii::FiniteElementData", i8, %"class.std::vector", %"class.std::vector", %"class.dealii::FullMatrix", %"class.std::vector.19", %"class.std::vector.24", %"class.std::vector.19", %"class.std::vector.24", %"class.dealii::Table.29", %"class.std::vector.33", %"class.std::vector.38", %"class.std::vector.38", %"class.std::vector.43", %"class.std::vector.43", %"class.std::vector.48", %"class.std::vector.43", %"class.std::vector.53", %"class.std::vector.57", %"class.std::vector.48" }
%"class.dealii::Subscriptor" = type { ptr, i32, %"class.std::map", ptr }
%"class.std::map" = type { %"class.std::_Rb_tree" }
%"class.std::_Rb_tree" = type { %"struct.std::_Rb_tree<const char *, std::pair<const char *const, unsigned int>, std::_Select1st<std::pair<const char *const, unsigned int> >, std::less<const char *> >::_Rb_tree_impl" }
%"struct.std::_Rb_tree<const char *, std::pair<const char *const, unsigned int>, std::_Select1st<std::pair<const char *const, unsigned int> >, std::less<const char *> >::_Rb_tree_impl" = type { %"struct.std::_Rb_tree_key_compare", %"struct.std::_Rb_tree_header" }
%"struct.std::_Rb_tree_key_compare" = type { %"struct.std::less" }
%"struct.std::less" = type { i8 }
%"struct.std::_Rb_tree_header" = type { %"struct.std::_Rb_tree_node_base", i64 }
%"struct.std::_Rb_tree_node_base" = type { i32, ptr, ptr, ptr }
%"class.dealii::FiniteElementData" = type { i32, i32, i32, i32, i32, i32, i32, i32, i32, i32, i32, i32, i32, i32, i32 }
%"class.std::vector" = type { %"struct.std::_Vector_base" }
%"struct.std::_Vector_base" = type { %"struct.std::_Vector_base<std::vector<dealii::FullMatrix<double> >, std::allocator<std::vector<dealii::FullMatrix<double> > > >::_Vector_impl" }
%"struct.std::_Vector_base<std::vector<dealii::FullMatrix<double> >, std::allocator<std::vector<dealii::FullMatrix<double> > > >::_Vector_impl" = type { %"struct.std::_Vector_base<std::vector<dealii::FullMatrix<double> >, std::allocator<std::vector<dealii::FullMatrix<double> > > >::_Vector_impl_data" }
%"struct.std::_Vector_base<std::vector<dealii::FullMatrix<double> >, std::allocator<std::vector<dealii::FullMatrix<double> > > >::_Vector_impl_data" = type { ptr, ptr, ptr }
%"class.std::vector.19" = type { %"struct.std::_Vector_base.20" }
%"struct.std::_Vector_base.20" = type { %"struct.std::_Vector_base<dealii::Point<3>, std::allocator<dealii::Point<3> > >::_Vector_impl" }
%"struct.std::_Vector_base<dealii::Point<3>, std::allocator<dealii::Point<3> > >::_Vector_impl" = type { %"struct.std::_Vector_base<dealii::Point<3>, std::allocator<dealii::Point<3> > >::_Vector_impl_data" }
%"struct.std::_Vector_base<dealii::Point<3>, std::allocator<dealii::Point<3> > >::_Vector_impl_data" = type { ptr, ptr, ptr }
%"class.std::vector.24" = type { %"struct.std::_Vector_base.25" }
%"struct.std::_Vector_base.25" = type { %"struct.std::_Vector_base<dealii::Point<2>, std::allocator<dealii::Point<2> > >::_Vector_impl" }
%"struct.std::_Vector_base<dealii::Point<2>, std::allocator<dealii::Point<2> > >::_Vector_impl" = type { %"struct.std::_Vector_base<dealii::Point<2>, std::allocator<dealii::Point<2> > >::_Vector_impl_data" }
%"struct.std::_Vector_base<dealii::Point<2>, std::allocator<dealii::Point<2> > >::_Vector_impl_data" = type { ptr, ptr, ptr }
%"class.dealii::Table.29" = type { %"class.dealii::TableBase.base.31", [4 x i8] }
%"class.dealii::TableBase.base.31" = type <{ %"class.dealii::Subscriptor", ptr, i32, %"class.dealii::TableIndices" }>
%"class.dealii::TableIndices" = type { %"class.dealii::TableIndicesBase" }
%"class.dealii::TableIndicesBase" = type { [2 x i32] }
%"class.std::vector.33" = type { %"struct.std::_Vector_base.34" }
%"struct.std::_Vector_base.34" = type { %"struct.std::_Vector_base<int, std::allocator<int> >::_Vector_impl" }
%"struct.std::_Vector_base<int, std::allocator<int> >::_Vector_impl" = type { %"struct.std::_Vector_base<int, std::allocator<int> >::_Vector_impl_data" }
%"struct.std::_Vector_base<int, std::allocator<int> >::_Vector_impl_data" = type { ptr, ptr, ptr }
%"class.std::vector.38" = type { %"struct.std::_Vector_base.39" }
%"struct.std::_Vector_base.39" = type { %"struct.std::_Vector_base<std::pair<unsigned int, unsigned int>, std::allocator<std::pair<unsigned int, unsigned int> > >::_Vector_impl" }
%"struct.std::_Vector_base<std::pair<unsigned int, unsigned int>, std::allocator<std::pair<unsigned int, unsigned int> > >::_Vector_impl" = type { %"struct.std::_Vector_base<std::pair<unsigned int, unsigned int>, std::allocator<std::pair<unsigned int, unsigned int> > >::_Vector_impl_data" }
%"struct.std::_Vector_base<std::pair<unsigned int, unsigned int>, std::allocator<std::pair<unsigned int, unsigned int> > >::_Vector_impl_data" = type { ptr, ptr, ptr }
%"class.std::vector.43" = type { %"struct.std::_Vector_base.44" }
%"struct.std::_Vector_base.44" = type { %"struct.std::_Vector_base<std::pair<std::pair<unsigned int, unsigned int>, unsigned int>, std::allocator<std::pair<std::pair<unsigned int, unsigned int>, unsigned int> > >::_Vector_impl" }
%"struct.std::_Vector_base<std::pair<std::pair<unsigned int, unsigned int>, unsigned int>, std::allocator<std::pair<std::pair<unsigned int, unsigned int>, unsigned int> > >::_Vector_impl" = type { %"struct.std::_Vector_base<std::pair<std::pair<unsigned int, unsigned int>, unsigned int>, std::allocator<std::pair<std::pair<unsigned int, unsigned int>, unsigned int> > >::_Vector_impl_data" }
%"struct.std::_Vector_base<std::pair<std::pair<unsigned int, unsigned int>, unsigned int>, std::allocator<std::pair<std::pair<unsigned int, unsigned int>, unsigned int> > >::_Vector_impl_data" = type { ptr, ptr, ptr }
%"class.std::vector.53" = type { %"struct.std::_Bvector_base" }
%"struct.std::_Bvector_base" = type { %"struct.std::_Bvector_base<std::allocator<bool> >::_Bvector_impl" }
%"struct.std::_Bvector_base<std::allocator<bool> >::_Bvector_impl" = type { %"struct.std::_Bvector_base<std::allocator<bool> >::_Bvector_impl_data" }
%"struct.std::_Bvector_base<std::allocator<bool> >::_Bvector_impl_data" = type { %"struct.std::_Bit_iterator", %"struct.std::_Bit_iterator", ptr }
%"struct.std::_Bit_iterator" = type { %"struct.std::_Bit_iterator_base.base", [4 x i8] }
%"struct.std::_Bit_iterator_base.base" = type <{ ptr, i32 }>
%"class.std::vector.57" = type { %"struct.std::_Vector_base.58" }
%"struct.std::_Vector_base.58" = type { %"struct.std::_Vector_base<std::vector<bool>, std::allocator<std::vector<bool> > >::_Vector_impl" }
%"struct.std::_Vector_base<std::vector<bool>, std::allocator<std::vector<bool> > >::_Vector_impl" = type { %"struct.std::_Vector_base<std::vector<bool>, std::allocator<std::vector<bool> > >::_Vector_impl_data" }
%"struct.std::_Vector_base<std::vector<bool>, std::allocator<std::vector<bool> > >::_Vector_impl_data" = type { ptr, ptr, ptr }
%"class.std::vector.48" = type { %"struct.std::_Vector_base.49" }
%"struct.std::_Vector_base.49" = type { %"struct.std::_Vector_base<unsigned int, std::allocator<unsigned int> >::_Vector_impl" }
%"struct.std::_Vector_base<unsigned int, std::allocator<unsigned int> >::_Vector_impl" = type { %"struct.std::_Vector_base<unsigned int, std::allocator<unsigned int> >::_Vector_impl_data" }
%"struct.std::_Vector_base<unsigned int, std::allocator<unsigned int> >::_Vector_impl_data" = type { ptr, ptr, ptr }
%"class.dealii::PolynomialsRaviartThomas" = type { i32, [4 x i8], %"class.dealii::AnisotropicPolynomials", i32, [4 x i8] }
%"class.dealii::AnisotropicPolynomials" = type <{ %"class.std::vector.62", i32, [4 x i8] }>
%"class.std::vector.62" = type { %"struct.std::_Vector_base.63" }
%"struct.std::_Vector_base.63" = type { %"struct.std::_Vector_base<std::vector<dealii::Polynomials::Polynomial<double> >, std::allocator<std::vector<dealii::Polynomials::Polynomial<double> > > >::_Vector_impl" }
%"struct.std::_Vector_base<std::vector<dealii::Polynomials::Polynomial<double> >, std::allocator<std::vector<dealii::Polynomials::Polynomial<double> > > >::_Vector_impl" = type { %"struct.std::_Vector_base<std::vector<dealii::Polynomials::Polynomial<double> >, std::allocator<std::vector<dealii::Polynomials::Polynomial<double> > > >::_Vector_impl_data" }
%"struct.std::_Vector_base<std::vector<dealii::Polynomials::Polynomial<double> >, std::allocator<std::vector<dealii::Polynomials::Polynomial<double> > > >::_Vector_impl_data" = type { ptr, ptr, ptr }
%"class.dealii::FullMatrix" = type { %"class.dealii::Table.base", [4 x i8] }
%"class.dealii::Table.base" = type { %"class.dealii::TableBase.base" }
%"class.dealii::TableBase.base" = type <{ %"class.dealii::Subscriptor", ptr, i32, %"class.dealii::TableIndices" }>
%"class.dealii::Point" = type { %"class.dealii::Tensor" }
%"class.dealii::Tensor" = type { [3 x double] }
%"class.std::vector.67" = type { %"struct.std::_Vector_base.68" }
%"struct.std::_Vector_base.68" = type { %"struct.std::_Vector_base<dealii::Tensor<1, 3>, std::allocator<dealii::Tensor<1, 3> > >::_Vector_impl" }
%"struct.std::_Vector_base<dealii::Tensor<1, 3>, std::allocator<dealii::Tensor<1, 3> > >::_Vector_impl" = type { %"struct.std::_Vector_base<dealii::Tensor<1, 3>, std::allocator<dealii::Tensor<1, 3> > >::_Vector_impl_data" }
%"struct.std::_Vector_base<dealii::Tensor<1, 3>, std::allocator<dealii::Tensor<1, 3> > >::_Vector_impl_data" = type { ptr, ptr, ptr }
%"class.std::vector.72" = type { %"struct.std::_Vector_base.73" }
%"struct.std::_Vector_base.73" = type { %"struct.std::_Vector_base<dealii::Tensor<2, 3>, std::allocator<dealii::Tensor<2, 3> > >::_Vector_impl" }
%"struct.std::_Vector_base<dealii::Tensor<2, 3>, std::allocator<dealii::Tensor<2, 3> > >::_Vector_impl" = type { %"struct.std::_Vector_base<dealii::Tensor<2, 3>, std::allocator<dealii::Tensor<2, 3> > >::_Vector_impl_data" }
%"struct.std::_Vector_base<dealii::Tensor<2, 3>, std::allocator<dealii::Tensor<2, 3> > >::_Vector_impl_data" = type { ptr, ptr, ptr }
%"class.std::vector.77" = type { %"struct.std::_Vector_base.78" }
%"struct.std::_Vector_base.78" = type { %"struct.std::_Vector_base<dealii::Tensor<3, 3>, std::allocator<dealii::Tensor<3, 3> > >::_Vector_impl" }
%"struct.std::_Vector_base<dealii::Tensor<3, 3>, std::allocator<dealii::Tensor<3, 3> > >::_Vector_impl" = type { %"struct.std::_Vector_base<dealii::Tensor<3, 3>, std::allocator<dealii::Tensor<3, 3> > >::_Vector_impl_data" }
%"struct.std::_Vector_base<dealii::Tensor<3, 3>, std::allocator<dealii::Tensor<3, 3> > >::_Vector_impl_data" = type { ptr, ptr, ptr }
%"struct.std::pair" = type { %"struct.std::pair.82", i32 }
%"struct.std::pair.82" = type { i32, i32 }
%"class.dealii::Tensor.84" = type { [3 x %"class.dealii::Tensor"] }
%"class.dealii::Tensor.85" = type { [3 x %"class.dealii::Tensor.84"] }
%"class.dealii::FiniteElement<3, 3>::InternalDataBase" = type { %"class.dealii::Mapping<3, 3>::InternalDataBase.base", %"class.std::vector.91" }
%"class.dealii::Mapping<3, 3>::InternalDataBase.base" = type <{ %"class.dealii::Subscriptor", i32, i32, i32, [4 x i8], %"class.std::vector.86", %"class.std::vector.19", %"class.std::vector.72", %"class.std::vector.72", i8 }>
%"class.std::vector.86" = type { %"struct.std::_Vector_base.87" }
%"struct.std::_Vector_base.87" = type { %"struct.std::_Vector_base<double, std::allocator<double> >::_Vector_impl" }
%"struct.std::_Vector_base<double, std::allocator<double> >::_Vector_impl" = type { %"struct.std::_Vector_base<double, std::allocator<double> >::_Vector_impl_data" }
%"struct.std::_Vector_base<double, std::allocator<double> >::_Vector_impl_data" = type { ptr, ptr, ptr }
%"class.std::vector.91" = type { %"struct.std::_Vector_base.92" }
%"struct.std::_Vector_base.92" = type { %"struct.std::_Vector_base<dealii::FEValues<3, 3> *, std::allocator<dealii::FEValues<3, 3> *> >::_Vector_impl" }
%"struct.std::_Vector_base<dealii::FEValues<3, 3> *, std::allocator<dealii::FEValues<3, 3> *> >::_Vector_impl" = type { %"struct.std::_Vector_base<dealii::FEValues<3, 3> *, std::allocator<dealii::FEValues<3, 3> *> >::_Vector_impl_data" }
%"struct.std::_Vector_base<dealii::FEValues<3, 3> *, std::allocator<dealii::FEValues<3, 3> *> >::_Vector_impl_data" = type { ptr, ptr, ptr }
%"class.dealii::FE_PolyTensor<dealii::PolynomialsRaviartThomas<3>, 3>::InternalData" = type { %"class.dealii::FiniteElement<3, 3>::InternalDataBase", %"class.std::vector.96", %"class.std::vector.101" }
%"class.std::vector.96" = type { %"struct.std::_Vector_base.97" }
%"struct.std::_Vector_base.97" = type { %"struct.std::_Vector_base<std::vector<dealii::Tensor<1, 3> >, std::allocator<std::vector<dealii::Tensor<1, 3> > > >::_Vector_impl" }
%"struct.std::_Vector_base<std::vector<dealii::Tensor<1, 3> >, std::allocator<std::vector<dealii::Tensor<1, 3> > > >::_Vector_impl" = type { %"struct.std::_Vector_base<std::vector<dealii::Tensor<1, 3> >, std::allocator<std::vector<dealii::Tensor<1, 3> > > >::_Vector_impl_data" }
%"struct.std::_Vector_base<std::vector<dealii::Tensor<1, 3> >, std::allocator<std::vector<dealii::Tensor<1, 3> > > >::_Vector_impl_data" = type { ptr, ptr, ptr }
%"class.std::vector.101" = type { %"struct.std::_Vector_base.102" }
%"struct.std::_Vector_base.102" = type { %"struct.std::_Vector_base<std::vector<dealii::Tensor<2, 3> >, std::allocator<std::vector<dealii::Tensor<2, 3> > > >::_Vector_impl" }
%"struct.std::_Vector_base<std::vector<dealii::Tensor<2, 3> >, std::allocator<std::vector<dealii::Tensor<2, 3> > > >::_Vector_impl" = type { %"struct.std::_Vector_base<std::vector<dealii::Tensor<2, 3> >, std::allocator<std::vector<dealii::Tensor<2, 3> > > >::_Vector_impl_data" }
%"struct.std::_Vector_base<std::vector<dealii::Tensor<2, 3> >, std::allocator<std::vector<dealii::Tensor<2, 3> > > >::_Vector_impl_data" = type { ptr, ptr, ptr }
%"class.dealii::Mapping<3, 3>::InternalDataBase" = type <{ %"class.dealii::Subscriptor", i32, i32, i32, [4 x i8], %"class.std::vector.86", %"class.std::vector.19", %"class.std::vector.72", %"class.std::vector.72", i8, [7 x i8] }>
%"class.dealii::Quadrature" = type { %"class.dealii::Subscriptor", i32, %"class.std::vector.19", %"class.std::vector.86" }
%"class.dealii::QProjector<3>::DataSetDescriptor" = type { i32 }
%"class.dealii::FEValuesData" = type <{ %"class.dealii::Table", %"class.std::vector.96", %"class.std::vector.101", %"class.std::vector.86", %"class.std::vector.72", %"class.std::vector.77", %"class.std::vector.72", %"class.std::vector.19", %"class.std::vector.19", %"class.std::vector.19", %"class.std::vector.67", %"class.std::vector.19", %"class.std::vector.101", %"class.std::vector.101", %"class.std::vector.48", i32, [4 x i8] }>
%"class.dealii::Table" = type { %"class.dealii::TableBase.base", [4 x i8] }
%"class.dealii::TableBase" = type <{ %"class.dealii::Subscriptor", ptr, i32, %"class.dealii::TableIndices", [4 x i8] }>
%"class.dealii::Quadrature.110" = type { %"class.dealii::Subscriptor", i32, %"class.std::vector.24", %"class.std::vector.86" }
%"class.dealii::TriaAccessorBase" = type { i32, i32, ptr }
%"class.dealii::Triangulation" = type { %"class.dealii::Subscriptor", %"class.std::vector.150", ptr, %"class.std::vector.19", %"class.std::vector.53", [255 x %"class.dealii::SmartPointer"], [255 x %"class.dealii::SmartPointer"], i8, i32, %"struct.dealii::internal::Triangulation::NumberCache", %"class.std::__cxx11::list" }
%"class.std::vector.150" = type { %"struct.std::_Vector_base.151" }
%"struct.std::_Vector_base.151" = type { %"struct.std::_Vector_base<dealii::internal::Triangulation::TriaLevel<3> *, std::allocator<dealii::internal::Triangulation::TriaLevel<3> *> >::_Vector_impl" }
%"struct.std::_Vector_base<dealii::internal::Triangulation::TriaLevel<3> *, std::allocator<dealii::internal::Triangulation::TriaLevel<3> *> >::_Vector_impl" = type { %"struct.std::_Vector_base<dealii::internal::Triangulation::TriaLevel<3> *, std::allocator<dealii::internal::Triangulation::TriaLevel<3> *> >::_Vector_impl_data" }
%"struct.std::_Vector_base<dealii::internal::Triangulation::TriaLevel<3> *, std::allocator<dealii::internal::Triangulation::TriaLevel<3> *> >::_Vector_impl_data" = type { ptr, ptr, ptr }
%"class.dealii::SmartPointer" = type { ptr, ptr }
%"struct.dealii::internal::Triangulation::NumberCache" = type { %"struct.dealii::internal::Triangulation::NumberCache.155", i32, %"class.std::vector.48", i32, %"class.std::vector.48" }
%"struct.dealii::internal::Triangulation::NumberCache.155" = type { %"struct.dealii::internal::Triangulation::NumberCache.156", i32, %"class.std::vector.48", i32, %"class.std::vector.48" }
%"struct.dealii::internal::Triangulation::NumberCache.156" = type { i32, %"class.std::vector.48", i32, %"class.std::vector.48" }
%"class.std::__cxx11::list" = type { %"class.std::__cxx11::_List_base" }
%"class.std::__cxx11::_List_base" = type { %"struct.std::__cxx11::_List_base<dealii::Triangulation<3, 3>::RefinementListener *, std::allocator<dealii::Triangulation<3, 3>::RefinementListener *> >::_List_impl" }
%"struct.std::__cxx11::_List_base<dealii::Triangulation<3, 3>::RefinementListener *, std::allocator<dealii::Triangulation<3, 3>::RefinementListener *> >::_List_impl" = type { %"struct.std::__detail::_List_node_header" }
%"struct.std::__detail::_List_node_header" = type { %"struct.std::__detail::_List_node_base", i64 }
%"struct.std::__detail::_List_node_base" = type { ptr, ptr }
%"class.dealii::internal::Triangulation::TriaLevel" = type { %"class.std::vector.125", %"class.std::vector.53", %"class.std::vector.130", %"class.std::vector.48", %"class.dealii::internal::Triangulation::TriaObjectsHex" }
%"class.std::vector.125" = type { %"struct.std::_Vector_base.126" }
%"struct.std::_Vector_base.126" = type { %"struct.std::_Vector_base<unsigned char, std::allocator<unsigned char> >::_Vector_impl" }
%"struct.std::_Vector_base<unsigned char, std::allocator<unsigned char> >::_Vector_impl" = type { %"struct.std::_Vector_base<unsigned char, std::allocator<unsigned char> >::_Vector_impl_data" }
%"struct.std::_Vector_base<unsigned char, std::allocator<unsigned char> >::_Vector_impl_data" = type { ptr, ptr, ptr }
%"class.std::vector.130" = type { %"struct.std::_Vector_base.131" }
%"struct.std::_Vector_base.131" = type { %"struct.std::_Vector_base<std::pair<int, int>, std::allocator<std::pair<int, int> > >::_Vector_impl" }
%"struct.std::_Vector_base<std::pair<int, int>, std::allocator<std::pair<int, int> > >::_Vector_impl" = type { %"struct.std::_Vector_base<std::pair<int, int>, std::allocator<std::pair<int, int> > >::_Vector_impl_data" }
%"struct.std::_Vector_base<std::pair<int, int>, std::allocator<std::pair<int, int> > >::_Vector_impl_data" = type { ptr, ptr, ptr }
%"class.dealii::internal::Triangulation::TriaObjectsHex" = type { %"class.dealii::internal::Triangulation::TriaObjects.base", %"class.std::vector.53", %"class.std::vector.53", %"class.std::vector.53" }
%"class.dealii::internal::Triangulation::TriaObjects.base" = type <{ %"class.std::vector.135", %"class.std::vector.33", %"class.std::vector.140", %"class.std::vector.53", %"class.std::vector.53", %"class.std::vector.125", i32, i32, i8, [7 x i8], %"class.std::vector.145", i32 }>
%"class.std::vector.135" = type { %"struct.std::_Vector_base.136" }
%"struct.std::_Vector_base.136" = type { %"struct.std::_Vector_base<dealii::internal::Triangulation::TriaObject<3>, std::allocator<dealii::internal::Triangulation::TriaObject<3> > >::_Vector_impl" }
%"struct.std::_Vector_base<dealii::internal::Triangulation::TriaObject<3>, std::allocator<dealii::internal::Triangulation::TriaObject<3> > >::_Vector_impl" = type { %"struct.std::_Vector_base<dealii::internal::Triangulation::TriaObject<3>, std::allocator<dealii::internal::Triangulation::TriaObject<3> > >::_Vector_impl_data" }
%"struct.std::_Vector_base<dealii::internal::Triangulation::TriaObject<3>, std::allocator<dealii::internal::Triangulation::TriaObject<3> > >::_Vector_impl_data" = type { ptr, ptr, ptr }
%"class.std::vector.140" = type { %"struct.std::_Vector_base.141" }
%"struct.std::_Vector_base.141" = type { %"struct.std::_Vector_base<dealii::RefinementCase<3>, std::allocator<dealii::RefinementCase<3> > >::_Vector_impl" }
%"struct.std::_Vector_base<dealii::RefinementCase<3>, std::allocator<dealii::RefinementCase<3> > >::_Vector_impl" = type { %"struct.std::_Vector_base<dealii::RefinementCase<3>, std::allocator<dealii::RefinementCase<3> > >::_Vector_impl_data" }
%"struct.std::_Vector_base<dealii::RefinementCase<3>, std::allocator<dealii::RefinementCase<3> > >::_Vector_impl_data" = type { ptr, ptr, ptr }
%"class.std::vector.145" = type { %"struct.std::_Vector_base.146" }
%"struct.std::_Vector_base.146" = type { %"struct.std::_Vector_base<dealii::internal::Triangulation::TriaObjects<dealii::internal::Triangulation::TriaObject<3> >::UserData, std::allocator<dealii::internal::Triangulation::TriaObjects<dealii::internal::Triangulation::TriaObject<3> >::UserData> >::_Vector_impl" }
%"struct.std::_Vector_base<dealii::internal::Triangulation::TriaObjects<dealii::internal::Triangulation::TriaObject<3> >::UserData, std::allocator<dealii::internal::Triangulation::TriaObjects<dealii::internal::Triangulation::TriaObject<3> >::UserData> >::_Vector_impl" = type { %"struct.std::_Vector_base<dealii::internal::Triangulation::TriaObjects<dealii::internal::Triangulation::TriaObject<3> >::UserData, std::allocator<dealii::internal::Triangulation::TriaObjects<dealii::internal::Triangulation::TriaObject<3> >::UserData> >::_Vector_impl_data" }
%"struct.std::_Vector_base<dealii::internal::Triangulation::TriaObjects<dealii::internal::Triangulation::TriaObject<3> >::UserData, std::allocator<dealii::internal::Triangulation::TriaObjects<dealii::internal::Triangulation::TriaObject<3> >::UserData> >::_Vector_impl_data" = type { ptr, ptr, ptr }
%"class.dealii::internal::Triangulation::TriaObject" = type { [6 x i32] }
%"class.dealii::internal::Triangulation::TriaObjects.160" = type <{ %"class.std::vector.161", %"class.std::vector.33", %"class.std::vector.166", %"class.std::vector.53", %"class.std::vector.53", %"class.std::vector.125", i32, i32, i8, [7 x i8], %"class.std::vector.171", i32, [4 x i8] }>
%"class.std::vector.161" = type { %"struct.std::_Vector_base.162" }
%"struct.std::_Vector_base.162" = type { %"struct.std::_Vector_base<dealii::internal::Triangulation::TriaObject<2>, std::allocator<dealii::internal::Triangulation::TriaObject<2> > >::_Vector_impl" }
%"struct.std::_Vector_base<dealii::internal::Triangulation::TriaObject<2>, std::allocator<dealii::internal::Triangulation::TriaObject<2> > >::_Vector_impl" = type { %"struct.std::_Vector_base<dealii::internal::Triangulation::TriaObject<2>, std::allocator<dealii::internal::Triangulation::TriaObject<2> > >::_Vector_impl_data" }
%"struct.std::_Vector_base<dealii::internal::Triangulation::TriaObject<2>, std::allocator<dealii::internal::Triangulation::TriaObject<2> > >::_Vector_impl_data" = type { ptr, ptr, ptr }
%"class.std::vector.166" = type { %"struct.std::_Vector_base.167" }
%"struct.std::_Vector_base.167" = type { %"struct.std::_Vector_base<dealii::RefinementCase<2>, std::allocator<dealii::RefinementCase<2> > >::_Vector_impl" }
%"struct.std::_Vector_base<dealii::RefinementCase<2>, std::allocator<dealii::RefinementCase<2> > >::_Vector_impl" = type { %"struct.std::_Vector_base<dealii::RefinementCase<2>, std::allocator<dealii::RefinementCase<2> > >::_Vector_impl_data" }
%"struct.std::_Vector_base<dealii::RefinementCase<2>, std::allocator<dealii::RefinementCase<2> > >::_Vector_impl_data" = type { ptr, ptr, ptr }
%"class.std::vector.171" = type { %"struct.std::_Vector_base.172" }
%"struct.std::_Vector_base.172" = type { %"struct.std::_Vector_base<dealii::internal::Triangulation::TriaObjects<dealii::internal::Triangulation::TriaObject<2> >::UserData, std::allocator<dealii::internal::Triangulation::TriaObjects<dealii::internal::Triangulation::TriaObject<2> >::UserData> >::_Vector_impl" }
%"struct.std::_Vector_base<dealii::internal::Triangulation::TriaObjects<dealii::internal::Triangulation::TriaObject<2> >::UserData, std::allocator<dealii::internal::Triangulation::TriaObjects<dealii::internal::Triangulation::TriaObject<2> >::UserData> >::_Vector_impl" = type { %"struct.std::_Vector_base<dealii::internal::Triangulation::TriaObjects<dealii::internal::Triangulation::TriaObject<2> >::UserData, std::allocator<dealii::internal::Triangulation::TriaObjects<dealii::internal::Triangulation::TriaObject<2> >::UserData> >::_Vector_impl_data" }
%"struct.std::_Vector_base<dealii::internal::Triangulation::TriaObjects<dealii::internal::Triangulation::TriaObject<2> >::UserData, std::allocator<dealii::internal::Triangulation::TriaObjects<dealii::internal::Triangulation::TriaObject<2> >::UserData> >::_Vector_impl_data" = type { ptr, ptr, ptr }
%"class.dealii::RefinementCase" = type { i8 }
%"class.dealii::FE_PolyTensor.111" = type { %"class.dealii::FiniteElement", i32, %"class.dealii::PolynomialsABF", %"class.dealii::FullMatrix", %"class.dealii::Point", %"class.std::vector.67", %"class.std::vector.72", %"class.std::vector.77" }
%"class.dealii::PolynomialsABF" = type { i32, ptr, i32, %"class.std::vector.86", %"class.std::vector.67", %"class.std::vector.72" }
%"class.dealii::FE_PolyTensor<dealii::PolynomialsABF<3>, 3>::InternalData" = type { %"class.dealii::FiniteElement<3, 3>::InternalDataBase", %"class.std::vector.96", %"class.std::vector.101" }
%"class.dealii::FE_PolyTensor.112" = type { %"class.dealii::FiniteElement", i32, %"class.dealii::PolynomialsBDM", %"class.dealii::FullMatrix", %"class.dealii::Point", %"class.std::vector.67", %"class.std::vector.72", %"class.std::vector.77" }
%"class.dealii::PolynomialsBDM" = type { %"class.dealii::PolynomialSpace", %"class.std::vector.113", i32, %"class.std::vector.86", %"class.std::vector.67", %"class.std::vector.72" }
%"class.dealii::PolynomialSpace" = type { %"class.std::vector.113", i32, %"class.std::vector.48", %"class.std::vector.48" }
%"class.std::vector.113" = type { %"struct.std::_Vector_base.114" }
%"struct.std::_Vector_base.114" = type { %"struct.std::_Vector_base<dealii::Polynomials::Polynomial<double>, std::allocator<dealii::Polynomials::Polynomial<double> > >::_Vector_impl" }
%"struct.std::_Vector_base<dealii::Polynomials::Polynomial<double>, std::allocator<dealii::Polynomials::Polynomial<double> > >::_Vector_impl" = type { %"struct.std::_Vector_base<dealii::Polynomials::Polynomial<double>, std::allocator<dealii::Polynomials::Polynomial<double> > >::_Vector_impl_data" }
%"struct.std::_Vector_base<dealii::Polynomials::Polynomial<double>, std::allocator<dealii::Polynomials::Polynomial<double> > >::_Vector_impl_data" = type { ptr, ptr, ptr }
%"class.dealii::Polynomials::Polynomial" = type { %"class.dealii::Subscriptor", %"class.std::vector.86" }
%"class.dealii::FE_PolyTensor<dealii::PolynomialsBDM<3>, 3>::InternalData" = type { %"class.dealii::FiniteElement<3, 3>::InternalDataBase", %"class.std::vector.96", %"class.std::vector.101" }
%"class.dealii::Point.118" = type { %"class.dealii::Tensor.119" }
%"class.dealii::Tensor.119" = type { [2 x double] }

$_ZN6dealii13FE_PolyTensorINS_24PolynomialsRaviartThomasILi3EEELi3ELi3EEC5EjRKNS_17FiniteElementDataILi3EEERKSt6vectorIbSaIbEERKS8_ISA_SaISA_EE = comdat any

$__clang_call_terminate = comdat any

$_ZNK6dealii13FE_PolyTensorINS_24PolynomialsRaviartThomasILi3EEELi3ELi3EE11shape_valueEjRKNS_5PointILi3EEE = comdat any

$_ZNK6dealii13FE_PolyTensorINS_24PolynomialsRaviartThomasILi3EEELi3ELi3EE21shape_value_componentEjRKNS_5PointILi3EEEj = comdat any

$_ZNK6dealii13FE_PolyTensorINS_24PolynomialsRaviartThomasILi3EEELi3ELi3EE10shape_gradEjRKNS_5PointILi3EEE = comdat any

$_ZNK6dealii13FE_PolyTensorINS_24PolynomialsRaviartThomasILi3EEELi3ELi3EE20shape_grad_componentEjRKNS_5PointILi3EEEj = comdat any

$_ZNK6dealii13FE_PolyTensorINS_24PolynomialsRaviartThomasILi3EEELi3ELi3EE15shape_grad_gradEjRKNS_5PointILi3EEE = comdat any

$_ZNK6dealii13FE_PolyTensorINS_24PolynomialsRaviartThomasILi3EEELi3ELi3EE25shape_grad_grad_componentEjRKNS_5PointILi3EEEj = comdat any

$_ZNK6dealii13FE_PolyTensorINS_24PolynomialsRaviartThomasILi3EEELi3ELi3EE15n_base_elementsEv = comdat any

$_ZNK6dealii13FE_PolyTensorINS_24PolynomialsRaviartThomasILi3EEELi3ELi3EE12base_elementEj = comdat any

$_ZNK6dealii13FE_PolyTensorINS_24PolynomialsRaviartThomasILi3EEELi3ELi3EE20element_multiplicityEj = comdat any

$_ZNK6dealii13FE_PolyTensorINS_24PolynomialsRaviartThomasILi3EEELi3ELi3EE11update_onceENS_11UpdateFlagsE = comdat any

$_ZNK6dealii13FE_PolyTensorINS_24PolynomialsRaviartThomasILi3EEELi3ELi3EE11update_eachENS_11UpdateFlagsE = comdat any

$_ZNK6dealii13FE_PolyTensorINS_24PolynomialsRaviartThomasILi3EEELi3ELi3EE8get_dataENS_11UpdateFlagsERKNS_7MappingILi3ELi3EEERKNS_10QuadratureILi3EEE = comdat any

$_ZNK6dealii13FE_PolyTensorINS_24PolynomialsRaviartThomasILi3EEELi3ELi3EE14fill_fe_valuesERKNS_7MappingILi3ELi3EEERKNS_12TriaIteratorINS_12CellAccessorILi3ELi3EEEEERKNS_10QuadratureILi3EEERNS5_16InternalDataBaseESJ_RNS_12FEValuesDataILi3ELi3EEERNS_14CellSimilarity10SimilarityE = comdat any

$_ZNK6dealii13FE_PolyTensorINS_24PolynomialsRaviartThomasILi3EEELi3ELi3EE19fill_fe_face_valuesERKNS_7MappingILi3ELi3EEERKNS_12TriaIteratorINS_12CellAccessorILi3ELi3EEEEEjRKNS_10QuadratureILi2EEERNS5_16InternalDataBaseESJ_RNS_12FEValuesDataILi3ELi3EEE = comdat any

$_ZNK6dealii13FE_PolyTensorINS_24PolynomialsRaviartThomasILi3EEELi3ELi3EE22fill_fe_subface_valuesERKNS_7MappingILi3ELi3EEERKNS_12TriaIteratorINS_12CellAccessorILi3ELi3EEEEEjjRKNS_10QuadratureILi2EEERNS5_16InternalDataBaseESJ_RNS_12FEValuesDataILi3ELi3EEE = comdat any

$_ZN6dealii13FE_PolyTensorINS_14PolynomialsABFILi3EEELi3ELi3EEC5EjRKNS_17FiniteElementDataILi3EEERKSt6vectorIbSaIbEERKS8_ISA_SaISA_EE = comdat any

$_ZNK6dealii13FE_PolyTensorINS_14PolynomialsABFILi3EEELi3ELi3EE11shape_valueEjRKNS_5PointILi3EEE = comdat any

$_ZNK6dealii13FE_PolyTensorINS_14PolynomialsABFILi3EEELi3ELi3EE21shape_value_componentEjRKNS_5PointILi3EEEj = comdat any

$_ZNK6dealii13FE_PolyTensorINS_14PolynomialsABFILi3EEELi3ELi3EE10shape_gradEjRKNS_5PointILi3EEE = comdat any

$_ZNK6dealii13FE_PolyTensorINS_14PolynomialsABFILi3EEELi3ELi3EE20shape_grad_componentEjRKNS_5PointILi3EEEj = comdat any

$_ZNK6dealii13FE_PolyTensorINS_14PolynomialsABFILi3EEELi3ELi3EE15shape_grad_gradEjRKNS_5PointILi3EEE = comdat any

$_ZNK6dealii13FE_PolyTensorINS_14PolynomialsABFILi3EEELi3ELi3EE25shape_grad_grad_componentEjRKNS_5PointILi3EEEj = comdat any

$_ZNK6dealii13FE_PolyTensorINS_14PolynomialsABFILi3EEELi3ELi3EE15n_base_elementsEv = comdat any

$_ZNK6dealii13FE_PolyTensorINS_14PolynomialsABFILi3EEELi3ELi3EE12base_elementEj = comdat any

$_ZNK6dealii13FE_PolyTensorINS_14PolynomialsABFILi3EEELi3ELi3EE20element_multiplicityEj = comdat any

$_ZNK6dealii13FE_PolyTensorINS_14PolynomialsABFILi3EEELi3ELi3EE11update_onceENS_11UpdateFlagsE = comdat any

$_ZNK6dealii13FE_PolyTensorINS_14PolynomialsABFILi3EEELi3ELi3EE11update_eachENS_11UpdateFlagsE = comdat any

$_ZNK6dealii13FE_PolyTensorINS_14PolynomialsABFILi3EEELi3ELi3EE8get_dataENS_11UpdateFlagsERKNS_7MappingILi3ELi3EEERKNS_10QuadratureILi3EEE = comdat any

$_ZNK6dealii13FE_PolyTensorINS_14PolynomialsABFILi3EEELi3ELi3EE14fill_fe_valuesERKNS_7MappingILi3ELi3EEERKNS_12TriaIteratorINS_12CellAccessorILi3ELi3EEEEERKNS_10QuadratureILi3EEERNS5_16InternalDataBaseESJ_RNS_12FEValuesDataILi3ELi3EEERNS_14CellSimilarity10SimilarityE = comdat any

$_ZNK6dealii13FE_PolyTensorINS_14PolynomialsABFILi3EEELi3ELi3EE19fill_fe_face_valuesERKNS_7MappingILi3ELi3EEERKNS_12TriaIteratorINS_12CellAccessorILi3ELi3EEEEEjRKNS_10QuadratureILi2EEERNS5_16InternalDataBaseESJ_RNS_12FEValuesDataILi3ELi3EEE = comdat any

$_ZNK6dealii13FE_PolyTensorINS_14PolynomialsABFILi3EEELi3ELi3EE22fill_fe_subface_valuesERKNS_7MappingILi3ELi3EEERKNS_12TriaIteratorINS_12CellAccessorILi3ELi3EEEEEjjRKNS_10QuadratureILi2EEERNS5_16InternalDataBaseESJ_RNS_12FEValuesDataILi3ELi3EEE = comdat any

$_ZN6dealii13FE_PolyTensorINS_14PolynomialsBDMILi3EEELi3ELi3EEC5EjRKNS_17FiniteElementDataILi3EEERKSt6vectorIbSaIbEERKS8_ISA_SaISA_EE = comdat any

$_ZN6dealii14PolynomialsBDMILi3EED2Ev = comdat any

$_ZNK6dealii13FE_PolyTensorINS_14PolynomialsBDMILi3EEELi3ELi3EE11shape_valueEjRKNS_5PointILi3EEE = comdat any

$_ZNK6dealii13FE_PolyTensorINS_14PolynomialsBDMILi3EEELi3ELi3EE21shape_value_componentEjRKNS_5PointILi3EEEj = comdat any

$_ZNK6dealii13FE_PolyTensorINS_14PolynomialsBDMILi3EEELi3ELi3EE10shape_gradEjRKNS_5PointILi3EEE = comdat any

$_ZNK6dealii13FE_PolyTensorINS_14PolynomialsBDMILi3EEELi3ELi3EE20shape_grad_componentEjRKNS_5PointILi3EEEj = comdat any

$_ZNK6dealii13FE_PolyTensorINS_14PolynomialsBDMILi3EEELi3ELi3EE15shape_grad_gradEjRKNS_5PointILi3EEE = comdat any

$_ZNK6dealii13FE_PolyTensorINS_14PolynomialsBDMILi3EEELi3ELi3EE25shape_grad_grad_componentEjRKNS_5PointILi3EEEj = comdat any

$_ZNK6dealii13FE_PolyTensorINS_14PolynomialsBDMILi3EEELi3ELi3EE15n_base_elementsEv = comdat any

$_ZNK6dealii13FE_PolyTensorINS_14PolynomialsBDMILi3EEELi3ELi3EE12base_elementEj = comdat any

$_ZNK6dealii13FE_PolyTensorINS_14PolynomialsBDMILi3EEELi3ELi3EE20element_multiplicityEj = comdat any

$_ZNK6dealii13FE_PolyTensorINS_14PolynomialsBDMILi3EEELi3ELi3EE11update_onceENS_11UpdateFlagsE = comdat any

$_ZNK6dealii13FE_PolyTensorINS_14PolynomialsBDMILi3EEELi3ELi3EE11update_eachENS_11UpdateFlagsE = comdat any

$_ZNK6dealii13FE_PolyTensorINS_14PolynomialsBDMILi3EEELi3ELi3EE8get_dataENS_11UpdateFlagsERKNS_7MappingILi3ELi3EEERKNS_10QuadratureILi3EEE = comdat any

$_ZNK6dealii13FE_PolyTensorINS_14PolynomialsBDMILi3EEELi3ELi3EE14fill_fe_valuesERKNS_7MappingILi3ELi3EEERKNS_12TriaIteratorINS_12CellAccessorILi3ELi3EEEEERKNS_10QuadratureILi3EEERNS5_16InternalDataBaseESJ_RNS_12FEValuesDataILi3ELi3EEERNS_14CellSimilarity10SimilarityE = comdat any

$_ZNK6dealii13FE_PolyTensorINS_14PolynomialsBDMILi3EEELi3ELi3EE19fill_fe_face_valuesERKNS_7MappingILi3ELi3EEERKNS_12TriaIteratorINS_12CellAccessorILi3ELi3EEEEEjRKNS_10QuadratureILi2EEERNS5_16InternalDataBaseESJ_RNS_12FEValuesDataILi3ELi3EEE = comdat any

$_ZNK6dealii13FE_PolyTensorINS_14PolynomialsBDMILi3EEELi3ELi3EE22fill_fe_subface_valuesERKNS_7MappingILi3ELi3EEERKNS_12TriaIteratorINS_12CellAccessorILi3ELi3EEEEEjjRKNS_10QuadratureILi2EEERNS5_16InternalDataBaseESJ_RNS_12FEValuesDataILi3ELi3EEE = comdat any

$_ZN6dealii13FE_PolyTensorINS_24PolynomialsRaviartThomasILi3EEELi3ELi3EED2Ev = comdat any

$_ZN6dealii13FE_PolyTensorINS_24PolynomialsRaviartThomasILi3EEELi3ELi3EED0Ev = comdat any

$_ZN6dealii13FE_PolyTensorINS_14PolynomialsABFILi3EEELi3ELi3EED2Ev = comdat any

$_ZN6dealii13FE_PolyTensorINS_14PolynomialsABFILi3EEELi3ELi3EED0Ev = comdat any

$_ZN6dealii13FE_PolyTensorINS_14PolynomialsBDMILi3EEELi3ELi3EED2Ev = comdat any

$_ZN6dealii13FE_PolyTensorINS_14PolynomialsBDMILi3EEELi3ELi3EED0Ev = comdat any

$_ZN6dealii9TableBaseILi2EdED2Ev = comdat any

$_ZN6dealii9TableBaseILi2EdED0Ev = comdat any

$_ZNSt6vectorIS_IN6dealii11Polynomials10PolynomialIdEESaIS3_EESaIS5_EED2Ev = comdat any

$_ZN6dealii13FE_PolyTensorINS_24PolynomialsRaviartThomasILi3EEELi3ELi3EE12InternalDataD2Ev = comdat any

$_ZN6dealii13FE_PolyTensorINS_24PolynomialsRaviartThomasILi3EEELi3ELi3EE12InternalDataD0Ev = comdat any

$_ZN6dealii7MappingILi3ELi3EE16InternalDataBase16clear_first_cellEv = comdat any

$_ZN6dealii13FE_PolyTensorINS_14PolynomialsABFILi3EEELi3ELi3EE12InternalDataD2Ev = comdat any

$_ZN6dealii13FE_PolyTensorINS_14PolynomialsABFILi3EEELi3ELi3EE12InternalDataD0Ev = comdat any

$_ZN6dealii15PolynomialSpaceILi3EED2Ev = comdat any

$_ZN6dealii13FE_PolyTensorINS_14PolynomialsBDMILi3EEELi3ELi3EE12InternalDataD2Ev = comdat any

$_ZN6dealii13FE_PolyTensorINS_14PolynomialsBDMILi3EEELi3ELi3EE12InternalDataD0Ev = comdat any

$_ZNSt6vectorIN6dealii6TensorILi1ELi3EEESaIS2_EE14_M_fill_insertEN9__gnu_cxx17__normal_iteratorIPS2_S4_EEmRKS2_ = comdat any

$_ZNSt6vectorIN6dealii6TensorILi2ELi3EEESaIS2_EE14_M_fill_insertEN9__gnu_cxx17__normal_iteratorIPS2_S4_EEmRKS2_ = comdat any

$_ZNSt6vectorIN6dealii6TensorILi3ELi3EEESaIS2_EE14_M_fill_insertEN9__gnu_cxx17__normal_iteratorIPS2_S4_EEmRKS2_ = comdat any

$_ZNSt20__copy_move_backwardILb0ELb0ESt26random_access_iterator_tagE13__copy_move_bIPN6dealii6TensorILi3ELi3EEES6_EET0_T_S8_S7_ = comdat any

$_ZSt18__do_uninit_fill_nIPN6dealii6TensorILi3ELi3EEEmS2_ET_S4_T0_RKT1_ = comdat any

$_ZNSt6vectorIS_IN6dealii6TensorILi1ELi3EEESaIS2_EESaIS4_EE14_M_fill_insertEN9__gnu_cxx17__normal_iteratorIPS4_S6_EEmRKS4_ = comdat any

$_ZSt16__do_uninit_copyIPSt6vectorIN6dealii6TensorILi1ELi3EEESaIS3_EES6_ET0_T_S8_S7_ = comdat any

$_ZNSt6vectorIN6dealii6TensorILi1ELi3EEESaIS2_EEaSERKS4_ = comdat any

$_ZSt18__do_uninit_fill_nIPSt6vectorIN6dealii6TensorILi1ELi3EEESaIS3_EEmS5_ET_S7_T0_RKT1_ = comdat any

$_ZNSt6vectorIS_IN6dealii6TensorILi2ELi3EEESaIS2_EESaIS4_EE14_M_fill_insertEN9__gnu_cxx17__normal_iteratorIPS4_S6_EEmRKS4_ = comdat any

$_ZSt16__do_uninit_copyIPSt6vectorIN6dealii6TensorILi2ELi3EEESaIS3_EES6_ET0_T_S8_S7_ = comdat any

$_ZNSt6vectorIN6dealii6TensorILi2ELi3EEESaIS2_EEaSERKS4_ = comdat any

$_ZSt18__do_uninit_fill_nIPSt6vectorIN6dealii6TensorILi2ELi3EEESaIS3_EEmS5_ET_S7_T0_RKT1_ = comdat any

$_ZTVN6dealii13FE_PolyTensorINS_24PolynomialsRaviartThomasILi3EEELi3ELi3EEE = comdat any

$_ZTVN6dealii13FE_PolyTensorINS_14PolynomialsABFILi3EEELi3ELi3EEE = comdat any

$_ZTVN6dealii13FE_PolyTensorINS_14PolynomialsBDMILi3EEELi3ELi3EEE = comdat any

$_ZTSN6dealii13FE_PolyTensorINS_24PolynomialsRaviartThomasILi3EEELi3ELi3EEE = comdat any

$_ZTSN6dealii13FiniteElementILi3ELi3EEE = comdat any

$_ZTSN6dealii17FiniteElementDataILi3EEE = comdat any

$_ZTIN6dealii17FiniteElementDataILi3EEE = comdat any

$_ZTIN6dealii13FiniteElementILi3ELi3EEE = comdat any

$_ZTIN6dealii13FE_PolyTensorINS_24PolynomialsRaviartThomasILi3EEELi3ELi3EEE = comdat any

$_ZTSN6dealii13FE_PolyTensorINS_14PolynomialsABFILi3EEELi3ELi3EEE = comdat any

$_ZTIN6dealii13FE_PolyTensorINS_14PolynomialsABFILi3EEELi3ELi3EEE = comdat any

$_ZTSN6dealii13FE_PolyTensorINS_14PolynomialsBDMILi3EEELi3ELi3EEE = comdat any

$_ZTIN6dealii13FE_PolyTensorINS_14PolynomialsBDMILi3EEELi3ELi3EEE = comdat any

$_ZTVN6dealii9TableBaseILi2EdEE = comdat any

$_ZTSN6dealii9TableBaseILi2EdEE = comdat any

$_ZTIN6dealii9TableBaseILi2EdEE = comdat any

$_ZTVN6dealii13FE_PolyTensorINS_24PolynomialsRaviartThomasILi3EEELi3ELi3EE12InternalDataE = comdat any

$_ZTSN6dealii13FE_PolyTensorINS_24PolynomialsRaviartThomasILi3EEELi3ELi3EE12InternalDataE = comdat any

$_ZTSN6dealii13FiniteElementILi3ELi3EE16InternalDataBaseE = comdat any

$_ZTSN6dealii7MappingILi3ELi3EE16InternalDataBaseE = comdat any

$_ZTIN6dealii7MappingILi3ELi3EE16InternalDataBaseE = comdat any

$_ZTIN6dealii13FiniteElementILi3ELi3EE16InternalDataBaseE = comdat any

$_ZTIN6dealii13FE_PolyTensorINS_24PolynomialsRaviartThomasILi3EEELi3ELi3EE12InternalDataE = comdat any

$_ZTVN6dealii13FE_PolyTensorINS_14PolynomialsABFILi3EEELi3ELi3EE12InternalDataE = comdat any

$_ZTSN6dealii13FE_PolyTensorINS_14PolynomialsABFILi3EEELi3ELi3EE12InternalDataE = comdat any

$_ZTIN6dealii13FE_PolyTensorINS_14PolynomialsABFILi3EEELi3ELi3EE12InternalDataE = comdat any

$_ZTVN6dealii13FE_PolyTensorINS_14PolynomialsBDMILi3EEELi3ELi3EE12InternalDataE = comdat any

$_ZTSN6dealii13FE_PolyTensorINS_14PolynomialsBDMILi3EEELi3ELi3EE12InternalDataE = comdat any

$_ZTIN6dealii13FE_PolyTensorINS_14PolynomialsBDMILi3EEELi3ELi3EE12InternalDataE = comdat any

@_ZTVN6dealii13FE_PolyTensorINS_24PolynomialsRaviartThomasILi3EEELi3ELi3EEE = weak_odr dso_local unnamed_addr constant { [38 x ptr] } { [38 x ptr] [ptr null, ptr @_ZTIN6dealii13FE_PolyTensorINS_24PolynomialsRaviartThomasILi3EEELi3ELi3EEE, ptr @_ZN6dealii13FE_PolyTensorINS_24PolynomialsRaviartThomasILi3EEELi3ELi3EED2Ev, ptr @_ZN6dealii13FE_PolyTensorINS_24PolynomialsRaviartThomasILi3EEELi3ELi3EED0Ev, ptr @__cxa_pure_virtual, ptr @_ZNK6dealii13FE_PolyTensorINS_24PolynomialsRaviartThomasILi3EEELi3ELi3EE11shape_valueEjRKNS_5PointILi3EEE, ptr @_ZNK6dealii13FE_PolyTensorINS_24PolynomialsRaviartThomasILi3EEELi3ELi3EE21shape_value_componentEjRKNS_5PointILi3EEEj, ptr @_ZNK6dealii13FE_PolyTensorINS_24PolynomialsRaviartThomasILi3EEELi3ELi3EE10shape_gradEjRKNS_5PointILi3EEE, ptr @_ZNK6dealii13FE_PolyTensorINS_24PolynomialsRaviartThomasILi3EEELi3ELi3EE20shape_grad_componentEjRKNS_5PointILi3EEEj, ptr @_ZNK6dealii13FE_PolyTensorINS_24PolynomialsRaviartThomasILi3EEELi3ELi3EE15shape_grad_gradEjRKNS_5PointILi3EEE, ptr @_ZNK6dealii13FE_PolyTensorINS_24PolynomialsRaviartThomasILi3EEELi3ELi3EE25shape_grad_grad_componentEjRKNS_5PointILi3EEEj, ptr @_ZNK6dealii13FiniteElementILi3ELi3EE19has_support_on_faceEjj, ptr @_ZNK6dealii13FiniteElementILi3ELi3EE30hp_constraints_are_implementedEv, ptr @_ZNK6dealii13FiniteElementILi3ELi3EE24get_interpolation_matrixERKS1_RNS_10FullMatrixIdEE, ptr @_ZNK6dealii13FiniteElementILi3ELi3EE29get_face_interpolation_matrixERKS1_RNS_10FullMatrixIdEE, ptr @_ZNK6dealii13FiniteElementILi3ELi3EE32get_subface_interpolation_matrixERKS1_jRNS_10FullMatrixIdEE, ptr @_ZNK6dealii13FiniteElementILi3ELi3EE24hp_vertex_dof_identitiesERKS1_, ptr @_ZNK6dealii13FiniteElementILi3ELi3EE22hp_line_dof_identitiesERKS1_, ptr @_ZNK6dealii13FiniteElementILi3ELi3EE22hp_quad_dof_identitiesERKS1_, ptr @_ZNK6dealii13FiniteElementILi3ELi3EE27compare_for_face_dominationERKS1_, ptr @_ZNK6dealii13FE_PolyTensorINS_24PolynomialsRaviartThomasILi3EEELi3ELi3EE15n_base_elementsEv, ptr @_ZNK6dealii13FE_PolyTensorINS_24PolynomialsRaviartThomasILi3EEELi3ELi3EE12base_elementEj, ptr @_ZNK6dealii13FE_PolyTensorINS_24PolynomialsRaviartThomasILi3EEELi3ELi3EE20element_multiplicityEj, ptr @_ZNK6dealii13FiniteElementILi3ELi3EE18unit_support_pointEj, ptr @_ZNK6dealii13FiniteElementILi3ELi3EE23unit_face_support_pointEj, ptr @_ZNK6dealii13FiniteElementILi3ELi3EE11interpolateERSt6vectorIdSaIdEERKS4_, ptr @_ZNK6dealii13FiniteElementILi3ELi3EE11interpolateERSt6vectorIdSaIdEERKS2_INS_6VectorIdEESaIS7_EEj, ptr @_ZNK6dealii13FiniteElementILi3ELi3EE11interpolateERSt6vectorIdSaIdEERKNS_11VectorSliceIKS2_IS4_SaIS4_EEEE, ptr @_ZNK6dealii13FiniteElementILi3ELi3EE18memory_consumptionEv, ptr @_ZNK6dealii13FE_PolyTensorINS_24PolynomialsRaviartThomasILi3EEELi3ELi3EE11update_onceENS_11UpdateFlagsE, ptr @_ZNK6dealii13FE_PolyTensorINS_24PolynomialsRaviartThomasILi3EEELi3ELi3EE11update_eachENS_11UpdateFlagsE, ptr @__cxa_pure_virtual, ptr @_ZNK6dealii13FE_PolyTensorINS_24PolynomialsRaviartThomasILi3EEELi3ELi3EE8get_dataENS_11UpdateFlagsERKNS_7MappingILi3ELi3EEERKNS_10QuadratureILi3EEE, ptr @_ZNK6dealii13FiniteElementILi3ELi3EE13get_face_dataENS_11UpdateFlagsERKNS_7MappingILi3ELi3EEERKNS_10QuadratureILi2EEE, ptr @_ZNK6dealii13FiniteElementILi3ELi3EE16get_subface_dataENS_11UpdateFlagsERKNS_7MappingILi3ELi3EEERKNS_10QuadratureILi2EEE, ptr @_ZNK6dealii13FE_PolyTensorINS_24PolynomialsRaviartThomasILi3EEELi3ELi3EE14fill_fe_valuesERKNS_7MappingILi3ELi3EEERKNS_12TriaIteratorINS_12CellAccessorILi3ELi3EEEEERKNS_10QuadratureILi3EEERNS5_16InternalDataBaseESJ_RNS_12FEValuesDataILi3ELi3EEERNS_14CellSimilarity10SimilarityE, ptr @_ZNK6dealii13FE_PolyTensorINS_24PolynomialsRaviartThomasILi3EEELi3ELi3EE19fill_fe_face_valuesERKNS_7MappingILi3ELi3EEERKNS_12TriaIteratorINS_12CellAccessorILi3ELi3EEEEEjRKNS_10QuadratureILi2EEERNS5_16InternalDataBaseESJ_RNS_12FEValuesDataILi3ELi3EEE, ptr @_ZNK6dealii13FE_PolyTensorINS_24PolynomialsRaviartThomasILi3EEELi3ELi3EE22fill_fe_subface_valuesERKNS_7MappingILi3ELi3EEERKNS_12TriaIteratorINS_12CellAccessorILi3ELi3EEEEEjjRKNS_10QuadratureILi2EEERNS5_16InternalDataBaseESJ_RNS_12FEValuesDataILi3ELi3EEE] }, comdat, align 8
@_ZTVN6dealii13FE_PolyTensorINS_14PolynomialsABFILi3EEELi3ELi3EEE = weak_odr dso_local unnamed_addr constant { [38 x ptr] } { [38 x ptr] [ptr null, ptr @_ZTIN6dealii13FE_PolyTensorINS_14PolynomialsABFILi3EEELi3ELi3EEE, ptr @_ZN6dealii13FE_PolyTensorINS_14PolynomialsABFILi3EEELi3ELi3EED2Ev, ptr @_ZN6dealii13FE_PolyTensorINS_14PolynomialsABFILi3EEELi3ELi3EED0Ev, ptr @__cxa_pure_virtual, ptr @_ZNK6dealii13FE_PolyTensorINS_14PolynomialsABFILi3EEELi3ELi3EE11shape_valueEjRKNS_5PointILi3EEE, ptr @_ZNK6dealii13FE_PolyTensorINS_14PolynomialsABFILi3EEELi3ELi3EE21shape_value_componentEjRKNS_5PointILi3EEEj, ptr @_ZNK6dealii13FE_PolyTensorINS_14PolynomialsABFILi3EEELi3ELi3EE10shape_gradEjRKNS_5PointILi3EEE, ptr @_ZNK6dealii13FE_PolyTensorINS_14PolynomialsABFILi3EEELi3ELi3EE20shape_grad_componentEjRKNS_5PointILi3EEEj, ptr @_ZNK6dealii13FE_PolyTensorINS_14PolynomialsABFILi3EEELi3ELi3EE15shape_grad_gradEjRKNS_5PointILi3EEE, ptr @_ZNK6dealii13FE_PolyTensorINS_14PolynomialsABFILi3EEELi3ELi3EE25shape_grad_grad_componentEjRKNS_5PointILi3EEEj, ptr @_ZNK6dealii13FiniteElementILi3ELi3EE19has_support_on_faceEjj, ptr @_ZNK6dealii13FiniteElementILi3ELi3EE30hp_constraints_are_implementedEv, ptr @_ZNK6dealii13FiniteElementILi3ELi3EE24get_interpolation_matrixERKS1_RNS_10FullMatrixIdEE, ptr @_ZNK6dealii13FiniteElementILi3ELi3EE29get_face_interpolation_matrixERKS1_RNS_10FullMatrixIdEE, ptr @_ZNK6dealii13FiniteElementILi3ELi3EE32get_subface_interpolation_matrixERKS1_jRNS_10FullMatrixIdEE, ptr @_ZNK6dealii13FiniteElementILi3ELi3EE24hp_vertex_dof_identitiesERKS1_, ptr @_ZNK6dealii13FiniteElementILi3ELi3EE22hp_line_dof_identitiesERKS1_, ptr @_ZNK6dealii13FiniteElementILi3ELi3EE22hp_quad_dof_identitiesERKS1_, ptr @_ZNK6dealii13FiniteElementILi3ELi3EE27compare_for_face_dominationERKS1_, ptr @_ZNK6dealii13FE_PolyTensorINS_14PolynomialsABFILi3EEELi3ELi3EE15n_base_elementsEv, ptr @_ZNK6dealii13FE_PolyTensorINS_14PolynomialsABFILi3EEELi3ELi3EE12base_elementEj, ptr @_ZNK6dealii13FE_PolyTensorINS_14PolynomialsABFILi3EEELi3ELi3EE20element_multiplicityEj, ptr @_ZNK6dealii13FiniteElementILi3ELi3EE18unit_support_pointEj, ptr @_ZNK6dealii13FiniteElementILi3ELi3EE23unit_face_support_pointEj, ptr @_ZNK6dealii13FiniteElementILi3ELi3EE11interpolateERSt6vectorIdSaIdEERKS4_, ptr @_ZNK6dealii13FiniteElementILi3ELi3EE11interpolateERSt6vectorIdSaIdEERKS2_INS_6VectorIdEESaIS7_EEj, ptr @_ZNK6dealii13FiniteElementILi3ELi3EE11interpolateERSt6vectorIdSaIdEERKNS_11VectorSliceIKS2_IS4_SaIS4_EEEE, ptr @_ZNK6dealii13FiniteElementILi3ELi3EE18memory_consumptionEv, ptr @_ZNK6dealii13FE_PolyTensorINS_14PolynomialsABFILi3EEELi3ELi3EE11update_onceENS_11UpdateFlagsE, ptr @_ZNK6dealii13FE_PolyTensorINS_14PolynomialsABFILi3EEELi3ELi3EE11update_eachENS_11UpdateFlagsE, ptr @__cxa_pure_virtual, ptr @_ZNK6dealii13FE_PolyTensorINS_14PolynomialsABFILi3EEELi3ELi3EE8get_dataENS_11UpdateFlagsERKNS_7MappingILi3ELi3EEERKNS_10QuadratureILi3EEE, ptr @_ZNK6dealii13FiniteElementILi3ELi3EE13get_face_dataENS_11UpdateFlagsERKNS_7MappingILi3ELi3EEERKNS_10QuadratureILi2EEE, ptr @_ZNK6dealii13FiniteElementILi3ELi3EE16get_subface_dataENS_11UpdateFlagsERKNS_7MappingILi3ELi3EEERKNS_10QuadratureILi2EEE, ptr @_ZNK6dealii13FE_PolyTensorINS_14PolynomialsABFILi3EEELi3ELi3EE14fill_fe_valuesERKNS_7MappingILi3ELi3EEERKNS_12TriaIteratorINS_12CellAccessorILi3ELi3EEEEERKNS_10QuadratureILi3EEERNS5_16InternalDataBaseESJ_RNS_12FEValuesDataILi3ELi3EEERNS_14CellSimilarity10SimilarityE, ptr @_ZNK6dealii13FE_PolyTensorINS_14PolynomialsABFILi3EEELi3ELi3EE19fill_fe_face_valuesERKNS_7MappingILi3ELi3EEERKNS_12TriaIteratorINS_12CellAccessorILi3ELi3EEEEEjRKNS_10QuadratureILi2EEERNS5_16InternalDataBaseESJ_RNS_12FEValuesDataILi3ELi3EEE, ptr @_ZNK6dealii13FE_PolyTensorINS_14PolynomialsABFILi3EEELi3ELi3EE22fill_fe_subface_valuesERKNS_7MappingILi3ELi3EEERKNS_12TriaIteratorINS_12CellAccessorILi3ELi3EEEEEjjRKNS_10QuadratureILi2EEERNS5_16InternalDataBaseESJ_RNS_12FEValuesDataILi3ELi3EEE] }, comdat, align 8
@_ZTVN6dealii13FE_PolyTensorINS_14PolynomialsBDMILi3EEELi3ELi3EEE = weak_odr dso_local unnamed_addr constant { [38 x ptr] } { [38 x ptr] [ptr null, ptr @_ZTIN6dealii13FE_PolyTensorINS_14PolynomialsBDMILi3EEELi3ELi3EEE, ptr @_ZN6dealii13FE_PolyTensorINS_14PolynomialsBDMILi3EEELi3ELi3EED2Ev, ptr @_ZN6dealii13FE_PolyTensorINS_14PolynomialsBDMILi3EEELi3ELi3EED0Ev, ptr @__cxa_pure_virtual, ptr @_ZNK6dealii13FE_PolyTensorINS_14PolynomialsBDMILi3EEELi3ELi3EE11shape_valueEjRKNS_5PointILi3EEE, ptr @_ZNK6dealii13FE_PolyTensorINS_14PolynomialsBDMILi3EEELi3ELi3EE21shape_value_componentEjRKNS_5PointILi3EEEj, ptr @_ZNK6dealii13FE_PolyTensorINS_14PolynomialsBDMILi3EEELi3ELi3EE10shape_gradEjRKNS_5PointILi3EEE, ptr @_ZNK6dealii13FE_PolyTensorINS_14PolynomialsBDMILi3EEELi3ELi3EE20shape_grad_componentEjRKNS_5PointILi3EEEj, ptr @_ZNK6dealii13FE_PolyTensorINS_14PolynomialsBDMILi3EEELi3ELi3EE15shape_grad_gradEjRKNS_5PointILi3EEE, ptr @_ZNK6dealii13FE_PolyTensorINS_14PolynomialsBDMILi3EEELi3ELi3EE25shape_grad_grad_componentEjRKNS_5PointILi3EEEj, ptr @_ZNK6dealii13FiniteElementILi3ELi3EE19has_support_on_faceEjj, ptr @_ZNK6dealii13FiniteElementILi3ELi3EE30hp_constraints_are_implementedEv, ptr @_ZNK6dealii13FiniteElementILi3ELi3EE24get_interpolation_matrixERKS1_RNS_10FullMatrixIdEE, ptr @_ZNK6dealii13FiniteElementILi3ELi3EE29get_face_interpolation_matrixERKS1_RNS_10FullMatrixIdEE, ptr @_ZNK6dealii13FiniteElementILi3ELi3EE32get_subface_interpolation_matrixERKS1_jRNS_10FullMatrixIdEE, ptr @_ZNK6dealii13FiniteElementILi3ELi3EE24hp_vertex_dof_identitiesERKS1_, ptr @_ZNK6dealii13FiniteElementILi3ELi3EE22hp_line_dof_identitiesERKS1_, ptr @_ZNK6dealii13FiniteElementILi3ELi3EE22hp_quad_dof_identitiesERKS1_, ptr @_ZNK6dealii13FiniteElementILi3ELi3EE27compare_for_face_dominationERKS1_, ptr @_ZNK6dealii13FE_PolyTensorINS_14PolynomialsBDMILi3EEELi3ELi3EE15n_base_elementsEv, ptr @_ZNK6dealii13FE_PolyTensorINS_14PolynomialsBDMILi3EEELi3ELi3EE12base_elementEj, ptr @_ZNK6dealii13FE_PolyTensorINS_14PolynomialsBDMILi3EEELi3ELi3EE20element_multiplicityEj, ptr @_ZNK6dealii13FiniteElementILi3ELi3EE18unit_support_pointEj, ptr @_ZNK6dealii13FiniteElementILi3ELi3EE23unit_face_support_pointEj, ptr @_ZNK6dealii13FiniteElementILi3ELi3EE11interpolateERSt6vectorIdSaIdEERKS4_, ptr @_ZNK6dealii13FiniteElementILi3ELi3EE11interpolateERSt6vectorIdSaIdEERKS2_INS_6VectorIdEESaIS7_EEj, ptr @_ZNK6dealii13FiniteElementILi3ELi3EE11interpolateERSt6vectorIdSaIdEERKNS_11VectorSliceIKS2_IS4_SaIS4_EEEE, ptr @_ZNK6dealii13FiniteElementILi3ELi3EE18memory_consumptionEv, ptr @_ZNK6dealii13FE_PolyTensorINS_14PolynomialsBDMILi3EEELi3ELi3EE11update_onceENS_11UpdateFlagsE, ptr @_ZNK6dealii13FE_PolyTensorINS_14PolynomialsBDMILi3EEELi3ELi3EE11update_eachENS_11UpdateFlagsE, ptr @__cxa_pure_virtual, ptr @_ZNK6dealii13FE_PolyTensorINS_14PolynomialsBDMILi3EEELi3ELi3EE8get_dataENS_11UpdateFlagsERKNS_7MappingILi3ELi3EEERKNS_10QuadratureILi3EEE, ptr @_ZNK6dealii13FiniteElementILi3ELi3EE13get_face_dataENS_11UpdateFlagsERKNS_7MappingILi3ELi3EEERKNS_10QuadratureILi2EEE, ptr @_ZNK6dealii13FiniteElementILi3ELi3EE16get_subface_dataENS_11UpdateFlagsERKNS_7MappingILi3ELi3EEERKNS_10QuadratureILi2EEE, ptr @_ZNK6dealii13FE_PolyTensorINS_14PolynomialsBDMILi3EEELi3ELi3EE14fill_fe_valuesERKNS_7MappingILi3ELi3EEERKNS_12TriaIteratorINS_12CellAccessorILi3ELi3EEEEERKNS_10QuadratureILi3EEERNS5_16InternalDataBaseESJ_RNS_12FEValuesDataILi3ELi3EEERNS_14CellSimilarity10SimilarityE, ptr @_ZNK6dealii13FE_PolyTensorINS_14PolynomialsBDMILi3EEELi3ELi3EE19fill_fe_face_valuesERKNS_7MappingILi3ELi3EEERKNS_12TriaIteratorINS_12CellAccessorILi3ELi3EEEEEjRKNS_10QuadratureILi2EEERNS5_16InternalDataBaseESJ_RNS_12FEValuesDataILi3ELi3EEE, ptr @_ZNK6dealii13FE_PolyTensorINS_14PolynomialsBDMILi3EEELi3ELi3EE22fill_fe_subface_valuesERKNS_7MappingILi3ELi3EEERKNS_12TriaIteratorINS_12CellAccessorILi3ELi3EEEEEjjRKNS_10QuadratureILi2EEERNS5_16InternalDataBaseESJ_RNS_12FEValuesDataILi3ELi3EEE] }, comdat, align 8
@_ZTVN10__cxxabiv120__si_class_type_infoE = external global ptr
@_ZTSN6dealii13FE_PolyTensorINS_24PolynomialsRaviartThomasILi3EEELi3ELi3EEE = weak_odr dso_local constant [71 x i8] c"N6dealii13FE_PolyTensorINS_24PolynomialsRaviartThomasILi3EEELi3ELi3EEE\00", comdat, align 1
@_ZTVN10__cxxabiv121__vmi_class_type_infoE = external global ptr
@_ZTSN6dealii13FiniteElementILi3ELi3EEE = linkonce_odr dso_local constant [35 x i8] c"N6dealii13FiniteElementILi3ELi3EEE\00", comdat, align 1
@_ZTIN6dealii11SubscriptorE = external constant ptr
@_ZTVN10__cxxabiv117__class_type_infoE = external global ptr
@_ZTSN6dealii17FiniteElementDataILi3EEE = linkonce_odr dso_local constant [35 x i8] c"N6dealii17FiniteElementDataILi3EEE\00", comdat, align 1
@_ZTIN6dealii17FiniteElementDataILi3EEE = linkonce_odr dso_local constant { ptr, ptr } { ptr getelementptr inbounds (ptr, ptr @_ZTVN10__cxxabiv117__class_type_infoE, i64 2), ptr @_ZTSN6dealii17FiniteElementDataILi3EEE }, comdat, align 8
@_ZTIN6dealii13FiniteElementILi3ELi3EEE = linkonce_odr dso_local constant { ptr, ptr, i32, i32, ptr, i64, ptr, i64 } { ptr getelementptr inbounds (ptr, ptr @_ZTVN10__cxxabiv121__vmi_class_type_infoE, i64 2), ptr @_ZTSN6dealii13FiniteElementILi3ELi3EEE, i32 0, i32 2, ptr @_ZTIN6dealii11SubscriptorE, i64 2, ptr @_ZTIN6dealii17FiniteElementDataILi3EEE, i64 18434 }, comdat, align 8
@_ZTIN6dealii13FE_PolyTensorINS_24PolynomialsRaviartThomasILi3EEELi3ELi3EEE = weak_odr dso_local constant { ptr, ptr, ptr } { ptr getelementptr inbounds (ptr, ptr @_ZTVN10__cxxabiv120__si_class_type_infoE, i64 2), ptr @_ZTSN6dealii13FE_PolyTensorINS_24PolynomialsRaviartThomasILi3EEELi3ELi3EEE, ptr @_ZTIN6dealii13FiniteElementILi3ELi3EEE }, comdat, align 8
@_ZTSN6dealii13FE_PolyTensorINS_14PolynomialsABFILi3EEELi3ELi3EEE = weak_odr dso_local constant [61 x i8] c"N6dealii13FE_PolyTensorINS_14PolynomialsABFILi3EEELi3ELi3EEE\00", comdat, align 1
@_ZTIN6dealii13FE_PolyTensorINS_14PolynomialsABFILi3EEELi3ELi3EEE = weak_odr dso_local constant { ptr, ptr, ptr } { ptr getelementptr inbounds (ptr, ptr @_ZTVN10__cxxabiv120__si_class_type_infoE, i64 2), ptr @_ZTSN6dealii13FE_PolyTensorINS_14PolynomialsABFILi3EEELi3ELi3EEE, ptr @_ZTIN6dealii13FiniteElementILi3ELi3EEE }, comdat, align 8
@_ZTSN6dealii13FE_PolyTensorINS_14PolynomialsBDMILi3EEELi3ELi3EEE = weak_odr dso_local constant [61 x i8] c"N6dealii13FE_PolyTensorINS_14PolynomialsBDMILi3EEELi3ELi3EEE\00", comdat, align 1
@_ZTIN6dealii13FE_PolyTensorINS_14PolynomialsBDMILi3EEELi3ELi3EEE = weak_odr dso_local constant { ptr, ptr, ptr } { ptr getelementptr inbounds (ptr, ptr @_ZTVN10__cxxabiv120__si_class_type_infoE, i64 2), ptr @_ZTSN6dealii13FE_PolyTensorINS_14PolynomialsBDMILi3EEELi3ELi3EEE, ptr @_ZTIN6dealii13FiniteElementILi3ELi3EEE }, comdat, align 8
@_ZTVN6dealii9TableBaseILi2EdEE = linkonce_odr dso_local unnamed_addr constant { [4 x ptr] } { [4 x ptr] [ptr null, ptr @_ZTIN6dealii9TableBaseILi2EdEE, ptr @_ZN6dealii9TableBaseILi2EdED2Ev, ptr @_ZN6dealii9TableBaseILi2EdED0Ev] }, comdat, align 8
@_ZTSN6dealii9TableBaseILi2EdEE = linkonce_odr dso_local constant [27 x i8] c"N6dealii9TableBaseILi2EdEE\00", comdat, align 1
@_ZTIN6dealii9TableBaseILi2EdEE = linkonce_odr dso_local constant { ptr, ptr, ptr } { ptr getelementptr inbounds (ptr, ptr @_ZTVN10__cxxabiv120__si_class_type_infoE, i64 2), ptr @_ZTSN6dealii9TableBaseILi2EdEE, ptr @_ZTIN6dealii11SubscriptorE }, comdat, align 8
@_ZTVN6dealii13FE_PolyTensorINS_24PolynomialsRaviartThomasILi3EEELi3ELi3EE12InternalDataE = linkonce_odr dso_local unnamed_addr constant { [6 x ptr] } { [6 x ptr] [ptr null, ptr @_ZTIN6dealii13FE_PolyTensorINS_24PolynomialsRaviartThomasILi3EEELi3ELi3EE12InternalDataE, ptr @_ZN6dealii13FE_PolyTensorINS_24PolynomialsRaviartThomasILi3EEELi3ELi3EE12InternalDataD2Ev, ptr @_ZN6dealii13FE_PolyTensorINS_24PolynomialsRaviartThomasILi3EEELi3ELi3EE12InternalDataD0Ev, ptr @_ZN6dealii7MappingILi3ELi3EE16InternalDataBase16clear_first_cellEv, ptr @_ZNK6dealii7MappingILi3ELi3EE16InternalDataBase18memory_consumptionEv] }, comdat, align 8
@_ZTSN6dealii13FE_PolyTensorINS_24PolynomialsRaviartThomasILi3EEELi3ELi3EE12InternalDataE = linkonce_odr dso_local constant [85 x i8] c"N6dealii13FE_PolyTensorINS_24PolynomialsRaviartThomasILi3EEELi3ELi3EE12InternalDataE\00", comdat, align 1
@_ZTSN6dealii13FiniteElementILi3ELi3EE16InternalDataBaseE = linkonce_odr dso_local constant [53 x i8] c"N6dealii13FiniteElementILi3ELi3EE16InternalDataBaseE\00", comdat, align 1
@_ZTSN6dealii7MappingILi3ELi3EE16InternalDataBaseE = linkonce_odr dso_local constant [46 x i8] c"N6dealii7MappingILi3ELi3EE16InternalDataBaseE\00", comdat, align 1
@_ZTIN6dealii7MappingILi3ELi3EE16InternalDataBaseE = linkonce_odr dso_local constant { ptr, ptr, ptr } { ptr getelementptr inbounds (ptr, ptr @_ZTVN10__cxxabiv120__si_class_type_infoE, i64 2), ptr @_ZTSN6dealii7MappingILi3ELi3EE16InternalDataBaseE, ptr @_ZTIN6dealii11SubscriptorE }, comdat, align 8
@_ZTIN6dealii13FiniteElementILi3ELi3EE16InternalDataBaseE = linkonce_odr dso_local constant { ptr, ptr, ptr } { ptr getelementptr inbounds (ptr, ptr @_ZTVN10__cxxabiv120__si_class_type_infoE, i64 2), ptr @_ZTSN6dealii13FiniteElementILi3ELi3EE16InternalDataBaseE, ptr @_ZTIN6dealii7MappingILi3ELi3EE16InternalDataBaseE }, comdat, align 8
@_ZTIN6dealii13FE_PolyTensorINS_24PolynomialsRaviartThomasILi3EEELi3ELi3EE12InternalDataE = linkonce_odr dso_local constant { ptr, ptr, ptr } { ptr getelementptr inbounds (ptr, ptr @_ZTVN10__cxxabiv120__si_class_type_infoE, i64 2), ptr @_ZTSN6dealii13FE_PolyTensorINS_24PolynomialsRaviartThomasILi3EEELi3ELi3EE12InternalDataE, ptr @_ZTIN6dealii13FiniteElementILi3ELi3EE16InternalDataBaseE }, comdat, align 8
@_ZTVN6dealii13FE_PolyTensorINS_14PolynomialsABFILi3EEELi3ELi3EE12InternalDataE = linkonce_odr dso_local unnamed_addr constant { [6 x ptr] } { [6 x ptr] [ptr null, ptr @_ZTIN6dealii13FE_PolyTensorINS_14PolynomialsABFILi3EEELi3ELi3EE12InternalDataE, ptr @_ZN6dealii13FE_PolyTensorINS_14PolynomialsABFILi3EEELi3ELi3EE12InternalDataD2Ev, ptr @_ZN6dealii13FE_PolyTensorINS_14PolynomialsABFILi3EEELi3ELi3EE12InternalDataD0Ev, ptr @_ZN6dealii7MappingILi3ELi3EE16InternalDataBase16clear_first_cellEv, ptr @_ZNK6dealii7MappingILi3ELi3EE16InternalDataBase18memory_consumptionEv] }, comdat, align 8
@_ZTSN6dealii13FE_PolyTensorINS_14PolynomialsABFILi3EEELi3ELi3EE12InternalDataE = linkonce_odr dso_local constant [75 x i8] c"N6dealii13FE_PolyTensorINS_14PolynomialsABFILi3EEELi3ELi3EE12InternalDataE\00", comdat, align 1
@_ZTIN6dealii13FE_PolyTensorINS_14PolynomialsABFILi3EEELi3ELi3EE12InternalDataE = linkonce_odr dso_local constant { ptr, ptr, ptr } { ptr getelementptr inbounds (ptr, ptr @_ZTVN10__cxxabiv120__si_class_type_infoE, i64 2), ptr @_ZTSN6dealii13FE_PolyTensorINS_14PolynomialsABFILi3EEELi3ELi3EE12InternalDataE, ptr @_ZTIN6dealii13FiniteElementILi3ELi3EE16InternalDataBaseE }, comdat, align 8
@_ZTVN6dealii13FE_PolyTensorINS_14PolynomialsBDMILi3EEELi3ELi3EE12InternalDataE = linkonce_odr dso_local unnamed_addr constant { [6 x ptr] } { [6 x ptr] [ptr null, ptr @_ZTIN6dealii13FE_PolyTensorINS_14PolynomialsBDMILi3EEELi3ELi3EE12InternalDataE, ptr @_ZN6dealii13FE_PolyTensorINS_14PolynomialsBDMILi3EEELi3ELi3EE12InternalDataD2Ev, ptr @_ZN6dealii13FE_PolyTensorINS_14PolynomialsBDMILi3EEELi3ELi3EE12InternalDataD0Ev, ptr @_ZN6dealii7MappingILi3ELi3EE16InternalDataBase16clear_first_cellEv, ptr @_ZNK6dealii7MappingILi3ELi3EE16InternalDataBase18memory_consumptionEv] }, comdat, align 8
@_ZTSN6dealii13FE_PolyTensorINS_14PolynomialsBDMILi3EEELi3ELi3EE12InternalDataE = linkonce_odr dso_local constant [75 x i8] c"N6dealii13FE_PolyTensorINS_14PolynomialsBDMILi3EEELi3ELi3EE12InternalDataE\00", comdat, align 1
@_ZTIN6dealii13FE_PolyTensorINS_14PolynomialsBDMILi3EEELi3ELi3EE12InternalDataE = linkonce_odr dso_local constant { ptr, ptr, ptr } { ptr getelementptr inbounds (ptr, ptr @_ZTVN10__cxxabiv120__si_class_type_infoE, i64 2), ptr @_ZTSN6dealii13FE_PolyTensorINS_14PolynomialsBDMILi3EEELi3ELi3EE12InternalDataE, ptr @_ZTIN6dealii13FiniteElementILi3ELi3EE16InternalDataBaseE }, comdat, align 8
@.str.9 = private unnamed_addr constant [23 x i8] c"vector::_M_fill_insert\00", align 1
@llvm.global_ctors = appending global [0 x { i32, ptr, ptr }] zeroinitializer

; Function Attrs: sspstrong uwtable
define weak_odr dso_local void @_ZN6dealii13FE_PolyTensorINS_24PolynomialsRaviartThomasILi3EEELi3ELi3EEC2EjRKNS_17FiniteElementDataILi3EEERKSt6vectorIbSaIbEERKS8_ISA_SaISA_EE(ptr noundef nonnull align 8 dereferenceable(976) %0, i32 noundef %1, ptr noundef nonnull align 4 dereferenceable(60) %2, ptr noundef nonnull align 8 dereferenceable(40) %3, ptr noundef nonnull align 8 dereferenceable(24) %4) unnamed_addr #0 comdat($_ZN6dealii13FE_PolyTensorINS_24PolynomialsRaviartThomasILi3EEELi3ELi3EEC5EjRKNS_17FiniteElementDataILi3EEERKSt6vectorIbSaIbEERKS8_ISA_SaISA_EE) align 2 personality ptr @__gxx_personality_v0 {
  tail call void @_ZN6dealii13FiniteElementILi3ELi3EEC2ERKNS_17FiniteElementDataILi3EEERKSt6vectorIbSaIbEERKS6_IS8_SaIS8_EE(ptr noundef nonnull align 8 dereferenceable(728) %0, ptr noundef nonnull align 4 dereferenceable(60) %2, ptr noundef nonnull align 8 dereferenceable(40) %3, ptr noundef nonnull align 8 dereferenceable(24) %4)
  store ptr getelementptr inbounds ({ [38 x ptr] }, ptr @_ZTVN6dealii13FE_PolyTensorINS_24PolynomialsRaviartThomasILi3EEELi3ELi3EEE, i64 0, inrange i32 0, i64 2), ptr %0, align 8, !tbaa !5
  %6 = getelementptr inbounds %"class.dealii::FE_PolyTensor", ptr %0, i64 0, i32 3
  invoke void @_ZN6dealii24PolynomialsRaviartThomasILi3EEC1Ej(ptr noundef nonnull align 8 dereferenceable(44) %6, i32 noundef %1)
          to label %7 unwind label %35

7:                                                ; preds = %5
  %8 = getelementptr inbounds %"class.dealii::FE_PolyTensor", ptr %0, i64 0, i32 4
  invoke void @_ZN6dealii10FullMatrixIdEC1Ej(ptr noundef nonnull align 8 dereferenceable(92) %8, i32 noundef 0)
          to label %9 unwind label %37

9:                                                ; preds = %7
  %10 = getelementptr inbounds %"class.dealii::FE_PolyTensor", ptr %0, i64 0, i32 5
  %11 = getelementptr inbounds %"class.dealii::FE_PolyTensor", ptr %0, i64 0, i32 5, i32 0, i32 0, i64 1
  tail call void @llvm.memset.p0.i64(ptr noundef nonnull align 8 dereferenceable(88) %11, i8 0, i64 88, i1 false)
  store double -1.000000e+00, ptr %10, align 8, !tbaa !8
  %12 = getelementptr inbounds i8, ptr %0, i64 116
  %13 = load i32, ptr %12, align 4, !tbaa !11
  %14 = icmp eq i32 %13, 0
  br i1 %14, label %34, label %15

15:                                               ; preds = %9
  %16 = getelementptr inbounds %"class.dealii::FiniteElement", ptr %0, i64 0, i32 17
  %17 = load ptr, ptr %16, align 8, !tbaa !15
  %18 = zext i32 %13 to i64
  %19 = and i64 %18, 3
  %20 = icmp ult i32 %13, 4
  br i1 %20, label %23, label %21

21:                                               ; preds = %15
  %22 = and i64 %18, 4294967292
  br label %40

23:                                               ; preds = %40, %15
  %24 = phi i64 [ 0, %15 ], [ %54, %40 ]
  %25 = icmp eq i64 %19, 0
  br i1 %25, label %34, label %26

26:                                               ; preds = %23, %26
  %27 = phi i64 [ %31, %26 ], [ %24, %23 ]
  %28 = phi i64 [ %32, %26 ], [ 0, %23 ]
  %29 = getelementptr inbounds %"struct.std::pair", ptr %17, i64 %27, i32 0, i32 1
  %30 = trunc i64 %27 to i32
  store i32 %30, ptr %29, align 4, !tbaa !18
  %31 = add nuw nsw i64 %27, 1
  %32 = add i64 %28, 1
  %33 = icmp eq i64 %32, %19
  br i1 %33, label %34, label %26, !llvm.loop !21

34:                                               ; preds = %23, %26, %9
  ret void

35:                                               ; preds = %5
  %36 = landingpad { ptr, i32 }
          cleanup
  br label %57

37:                                               ; preds = %7
  %38 = landingpad { ptr, i32 }
          cleanup
  %39 = getelementptr inbounds %"class.dealii::FE_PolyTensor", ptr %0, i64 0, i32 3, i32 2
  invoke void @_ZNSt6vectorIS_IN6dealii11Polynomials10PolynomialIdEESaIS3_EESaIS5_EED2Ev(ptr noundef nonnull align 8 dereferenceable(24) %39)
          to label %57 unwind label %60

40:                                               ; preds = %40, %21
  %41 = phi i64 [ 0, %21 ], [ %54, %40 ]
  %42 = phi i64 [ 0, %21 ], [ %55, %40 ]
  %43 = getelementptr inbounds %"struct.std::pair", ptr %17, i64 %41, i32 0, i32 1
  %44 = trunc i64 %41 to i32
  store i32 %44, ptr %43, align 4, !tbaa !18
  %45 = or i64 %41, 1
  %46 = getelementptr inbounds %"struct.std::pair", ptr %17, i64 %45, i32 0, i32 1
  %47 = trunc i64 %45 to i32
  store i32 %47, ptr %46, align 4, !tbaa !18
  %48 = or i64 %41, 2
  %49 = getelementptr inbounds %"struct.std::pair", ptr %17, i64 %48, i32 0, i32 1
  %50 = trunc i64 %48 to i32
  store i32 %50, ptr %49, align 4, !tbaa !18
  %51 = or i64 %41, 3
  %52 = getelementptr inbounds %"struct.std::pair", ptr %17, i64 %51, i32 0, i32 1
  %53 = trunc i64 %51 to i32
  store i32 %53, ptr %52, align 4, !tbaa !18
  %54 = add nuw nsw i64 %41, 4
  %55 = add i64 %42, 4
  %56 = icmp eq i64 %55, %22
  br i1 %56, label %23, label %40

57:                                               ; preds = %37, %35
  %58 = phi { ptr, i32 } [ %36, %35 ], [ %38, %37 ]
  invoke void @_ZN6dealii13FiniteElementILi3ELi3EED2Ev(ptr noundef nonnull align 8 dereferenceable(728) %0)
          to label %59 unwind label %60

59:                                               ; preds = %57
  resume { ptr, i32 } %58

60:                                               ; preds = %37, %57
  %61 = landingpad { ptr, i32 }
          catch ptr null
  %62 = extractvalue { ptr, i32 } %61, 0
  tail call void @__clang_call_terminate(ptr %62) #14
  unreachable
}

declare void @_ZN6dealii13FiniteElementILi3ELi3EEC2ERKNS_17FiniteElementDataILi3EEERKSt6vectorIbSaIbEERKS6_IS8_SaIS8_EE(ptr noundef nonnull align 8 dereferenceable(728), ptr noundef nonnull align 4 dereferenceable(60), ptr noundef nonnull align 8 dereferenceable(40), ptr noundef nonnull align 8 dereferenceable(24)) unnamed_addr #1

declare void @_ZN6dealii24PolynomialsRaviartThomasILi3EEC1Ej(ptr noundef nonnull align 8 dereferenceable(44), i32 noundef) unnamed_addr #1

declare i32 @__gxx_personality_v0(...)

declare void @_ZN6dealii10FullMatrixIdEC1Ej(ptr noundef nonnull align 8 dereferenceable(92), i32 noundef) unnamed_addr #1

; Function Attrs: mustprogress nocallback nofree nosync nounwind willreturn memory(argmem: readwrite)
declare void @llvm.lifetime.start.p0(i64 immarg, ptr nocapture) #2

; Function Attrs: mustprogress nocallback nofree nosync nounwind willreturn memory(argmem: readwrite)
declare void @llvm.lifetime.end.p0(i64 immarg, ptr nocapture) #2

; Function Attrs: noinline noreturn nounwind sspstrong uwtable
define linkonce_odr hidden void @__clang_call_terminate(ptr noundef %0) local_unnamed_addr #3 comdat {
  %2 = tail call ptr @__cxa_begin_catch(ptr %0) #15
  tail call void @_ZSt9terminatev() #14
  unreachable
}

declare ptr @__cxa_begin_catch(ptr) local_unnamed_addr

declare void @_ZSt9terminatev() local_unnamed_addr

declare void @_ZN6dealii13FiniteElementILi3ELi3EED2Ev(ptr noundef nonnull align 8 dereferenceable(728)) unnamed_addr #1

; Function Attrs: nounwind sspstrong uwtable
define weak_odr dso_local noundef double @_ZNK6dealii13FE_PolyTensorINS_24PolynomialsRaviartThomasILi3EEELi3ELi3EE11shape_valueEjRKNS_5PointILi3EEE(ptr noundef nonnull align 8 dereferenceable(976) %0, i32 noundef %1, ptr noundef nonnull align 8 dereferenceable(24) %2) unnamed_addr #4 comdat align 2 {
  ret double 0.000000e+00
}

; Function Attrs: sspstrong uwtable
define weak_odr dso_local noundef double @_ZNK6dealii13FE_PolyTensorINS_24PolynomialsRaviartThomasILi3EEELi3ELi3EE21shape_value_componentEjRKNS_5PointILi3EEEj(ptr noundef nonnull align 8 dereferenceable(976) %0, i32 noundef %1, ptr noundef nonnull align 8 dereferenceable(24) %2, i32 noundef %3) unnamed_addr #0 comdat align 2 {
  %5 = alloca %"class.dealii::Tensor", align 8
  %6 = getelementptr inbounds %"class.dealii::FE_PolyTensor", ptr %0, i64 0, i32 5
  %7 = load double, ptr %6, align 8, !tbaa !8
  %8 = load double, ptr %2, align 8, !tbaa !8
  %9 = fcmp une double %7, %8
  br i1 %9, label %28, label %10

10:                                               ; preds = %4
  %11 = getelementptr inbounds %"class.dealii::FE_PolyTensor", ptr %0, i64 0, i32 5, i32 0, i32 0, i64 1
  %12 = load double, ptr %11, align 8, !tbaa !8
  %13 = getelementptr inbounds [3 x double], ptr %2, i64 0, i64 1
  %14 = load double, ptr %13, align 8, !tbaa !8
  %15 = fcmp une double %12, %14
  br i1 %15, label %28, label %16

16:                                               ; preds = %10
  %17 = getelementptr inbounds %"class.dealii::FE_PolyTensor", ptr %0, i64 0, i32 5, i32 0, i32 0, i64 2
  %18 = load double, ptr %17, align 8, !tbaa !8
  %19 = getelementptr inbounds [3 x double], ptr %2, i64 0, i64 2
  %20 = load double, ptr %19, align 8, !tbaa !8
  %21 = fcmp une double %18, %20
  br i1 %21, label %28, label %22

22:                                               ; preds = %16
  %23 = getelementptr inbounds %"class.dealii::FE_PolyTensor", ptr %0, i64 0, i32 6
  %24 = getelementptr inbounds %"class.dealii::FE_PolyTensor", ptr %0, i64 0, i32 6, i32 0, i32 0, i32 0, i32 1
  %25 = load ptr, ptr %24, align 8, !tbaa !23
  %26 = load ptr, ptr %23, align 8, !tbaa !25
  %27 = icmp eq ptr %25, %26
  br i1 %27, label %28, label %59

28:                                               ; preds = %16, %10, %4, %22
  store double %8, ptr %6, align 8, !tbaa !8
  %29 = getelementptr inbounds [3 x double], ptr %2, i64 0, i64 1
  %30 = load double, ptr %29, align 8, !tbaa !8
  %31 = getelementptr inbounds %"class.dealii::FE_PolyTensor", ptr %0, i64 0, i32 5, i32 0, i32 0, i64 1
  store double %30, ptr %31, align 8, !tbaa !8
  %32 = getelementptr inbounds [3 x double], ptr %2, i64 0, i64 2
  %33 = load double, ptr %32, align 8, !tbaa !8
  %34 = getelementptr inbounds %"class.dealii::FE_PolyTensor", ptr %0, i64 0, i32 5, i32 0, i32 0, i64 2
  store double %33, ptr %34, align 8, !tbaa !8
  %35 = getelementptr inbounds %"class.dealii::FE_PolyTensor", ptr %0, i64 0, i32 6
  %36 = getelementptr inbounds %"class.dealii::FE_PolyTensor", ptr %0, i64 0, i32 3
  %37 = getelementptr inbounds %"class.dealii::FE_PolyTensor", ptr %0, i64 0, i32 3, i32 3
  %38 = load i32, ptr %37, align 8, !tbaa !26
  %39 = zext i32 %38 to i64
  call void @llvm.memset.p0.i64(ptr noundef nonnull align 8 dereferenceable(24) %5, i8 0, i64 24, i1 false), !tbaa !8
  %40 = getelementptr inbounds %"class.dealii::FE_PolyTensor", ptr %0, i64 0, i32 6, i32 0, i32 0, i32 0, i32 1
  %41 = load ptr, ptr %40, align 8, !tbaa !33
  %42 = load ptr, ptr %35, align 8, !tbaa !25
  %43 = ptrtoint ptr %41 to i64
  %44 = ptrtoint ptr %42 to i64
  %45 = sub i64 %43, %44
  %46 = sdiv exact i64 %45, 24
  %47 = icmp ult i64 %46, %39
  br i1 %47, label %48, label %50

48:                                               ; preds = %28
  %49 = sub nsw i64 %39, %46
  call void @_ZNSt6vectorIN6dealii6TensorILi1ELi3EEESaIS2_EE14_M_fill_insertEN9__gnu_cxx17__normal_iteratorIPS2_S4_EEmRKS2_(ptr noundef nonnull align 8 dereferenceable(24) %35, ptr %41, i64 noundef %49, ptr noundef nonnull align 8 dereferenceable(24) %5)
  br label %56

50:                                               ; preds = %28
  %51 = icmp ugt i64 %46, %39
  br i1 %51, label %52, label %56

52:                                               ; preds = %50
  %53 = getelementptr inbounds %"class.dealii::Tensor", ptr %42, i64 %39
  %54 = icmp eq ptr %41, %53
  br i1 %54, label %56, label %55

55:                                               ; preds = %52
  store ptr %53, ptr %40, align 8, !tbaa !23
  br label %56

56:                                               ; preds = %48, %50, %52, %55
  %57 = getelementptr inbounds %"class.dealii::FE_PolyTensor", ptr %0, i64 0, i32 7
  %58 = getelementptr inbounds %"class.dealii::FE_PolyTensor", ptr %0, i64 0, i32 8
  call void @_ZNK6dealii24PolynomialsRaviartThomasILi3EE7computeERKNS_5PointILi3EEERSt6vectorINS_6TensorILi1ELi3EEESaIS8_EERS6_INS7_ILi2ELi3EEESaISC_EERS6_INS7_ILi3ELi3EEESaISG_EE(ptr noundef nonnull align 8 dereferenceable(44) %36, ptr noundef nonnull align 8 dereferenceable(24) %2, ptr noundef nonnull align 8 dereferenceable(24) %35, ptr noundef nonnull align 8 dereferenceable(24) %57, ptr noundef nonnull align 8 dereferenceable(24) %58)
  br label %59

59:                                               ; preds = %56, %22
  %60 = getelementptr inbounds %"class.dealii::FE_PolyTensor", ptr %0, i64 0, i32 4, i32 0, i32 0, i32 3, i32 0, i32 0, i64 1
  %61 = load i32, ptr %60, align 8, !tbaa !34
  %62 = icmp eq i32 %61, 0
  %63 = zext i32 %3 to i64
  br i1 %62, label %75, label %64

64:                                               ; preds = %59
  %65 = getelementptr inbounds %"class.dealii::FE_PolyTensor", ptr %0, i64 0, i32 4, i32 0, i32 0, i32 1
  %66 = load ptr, ptr %65, align 8, !tbaa !35
  %67 = getelementptr inbounds %"class.dealii::FE_PolyTensor", ptr %0, i64 0, i32 6
  %68 = load ptr, ptr %67, align 8, !tbaa !25
  %69 = getelementptr inbounds [3 x double], ptr %68, i64 0, i64 %63
  %70 = zext i32 %61 to i64
  %71 = and i64 %70, 1
  %72 = icmp eq i32 %61, 1
  br i1 %72, label %108, label %73

73:                                               ; preds = %64
  %74 = and i64 %70, 4294967294
  br label %82

75:                                               ; preds = %59
  %76 = getelementptr inbounds %"class.dealii::FE_PolyTensor", ptr %0, i64 0, i32 6
  %77 = zext i32 %1 to i64
  %78 = load ptr, ptr %76, align 8, !tbaa !25
  %79 = getelementptr inbounds %"class.dealii::Tensor", ptr %78, i64 %77
  %80 = getelementptr inbounds [3 x double], ptr %79, i64 0, i64 %63
  %81 = load double, ptr %80, align 8, !tbaa !8
  br label %123

82:                                               ; preds = %82, %73
  %83 = phi i64 [ 0, %73 ], [ %105, %82 ]
  %84 = phi double [ 0.000000e+00, %73 ], [ %104, %82 ]
  %85 = phi i64 [ 0, %73 ], [ %106, %82 ]
  %86 = trunc i64 %83 to i32
  %87 = mul i32 %61, %86
  %88 = add i32 %87, %1
  %89 = zext i32 %88 to i64
  %90 = getelementptr inbounds double, ptr %66, i64 %89
  %91 = load double, ptr %90, align 8, !tbaa !8
  %92 = getelementptr inbounds %"class.dealii::Tensor", ptr %69, i64 %83
  %93 = load double, ptr %92, align 8, !tbaa !8
  %94 = call double @llvm.fmuladd.f64(double %91, double %93, double %84)
  %95 = or i64 %83, 1
  %96 = trunc i64 %95 to i32
  %97 = mul i32 %61, %96
  %98 = add i32 %97, %1
  %99 = zext i32 %98 to i64
  %100 = getelementptr inbounds double, ptr %66, i64 %99
  %101 = load double, ptr %100, align 8, !tbaa !8
  %102 = getelementptr inbounds %"class.dealii::Tensor", ptr %69, i64 %95
  %103 = load double, ptr %102, align 8, !tbaa !8
  %104 = call double @llvm.fmuladd.f64(double %101, double %103, double %94)
  %105 = add nuw nsw i64 %83, 2
  %106 = add i64 %85, 2
  %107 = icmp eq i64 %106, %74
  br i1 %107, label %108, label %82

108:                                              ; preds = %82, %64
  %109 = phi double [ undef, %64 ], [ %104, %82 ]
  %110 = phi i64 [ 0, %64 ], [ %105, %82 ]
  %111 = phi double [ 0.000000e+00, %64 ], [ %104, %82 ]
  %112 = icmp eq i64 %71, 0
  br i1 %112, label %123, label %113

113:                                              ; preds = %108
  %114 = trunc i64 %110 to i32
  %115 = mul i32 %61, %114
  %116 = add i32 %115, %1
  %117 = zext i32 %116 to i64
  %118 = getelementptr inbounds double, ptr %66, i64 %117
  %119 = load double, ptr %118, align 8, !tbaa !8
  %120 = getelementptr inbounds %"class.dealii::Tensor", ptr %69, i64 %110
  %121 = load double, ptr %120, align 8, !tbaa !8
  %122 = call double @llvm.fmuladd.f64(double %119, double %121, double %111)
  br label %123

123:                                              ; preds = %113, %108, %75
  %124 = phi double [ %81, %75 ], [ %109, %108 ], [ %122, %113 ]
  ret double %124
}

declare void @_ZNK6dealii24PolynomialsRaviartThomasILi3EE7computeERKNS_5PointILi3EEERSt6vectorINS_6TensorILi1ELi3EEESaIS8_EERS6_INS7_ILi2ELi3EEESaISC_EERS6_INS7_ILi3ELi3EEESaISG_EE(ptr noundef nonnull align 8 dereferenceable(44), ptr noundef nonnull align 8 dereferenceable(24), ptr noundef nonnull align 8 dereferenceable(24), ptr noundef nonnull align 8 dereferenceable(24), ptr noundef nonnull align 8 dereferenceable(24)) local_unnamed_addr #1

; Function Attrs: mustprogress nocallback nofree nosync nounwind speculatable willreturn memory(none)
declare double @llvm.fmuladd.f64(double, double, double) #5

; Function Attrs: sspstrong uwtable
define weak_odr dso_local void @_ZNK6dealii13FE_PolyTensorINS_24PolynomialsRaviartThomasILi3EEELi3ELi3EE10shape_gradEjRKNS_5PointILi3EEE(ptr noalias sret(%"class.dealii::Tensor") align 8 %0, ptr noundef nonnull align 8 dereferenceable(976) %1, i32 noundef %2, ptr noundef nonnull align 8 dereferenceable(24) %3) unnamed_addr #0 comdat align 2 {
  tail call void @llvm.memset.p0.i64(ptr noundef nonnull align 8 dereferenceable(24) %0, i8 0, i64 24, i1 false), !tbaa !8
  ret void
}

; Function Attrs: sspstrong uwtable
define weak_odr dso_local void @_ZNK6dealii13FE_PolyTensorINS_24PolynomialsRaviartThomasILi3EEELi3ELi3EE20shape_grad_componentEjRKNS_5PointILi3EEEj(ptr noalias sret(%"class.dealii::Tensor") align 8 %0, ptr noundef nonnull align 8 dereferenceable(976) %1, i32 noundef %2, ptr noundef nonnull align 8 dereferenceable(24) %3, i32 noundef %4) unnamed_addr #0 comdat align 2 {
  %6 = alloca %"class.dealii::Tensor.84", align 8
  %7 = getelementptr inbounds %"class.dealii::FE_PolyTensor", ptr %1, i64 0, i32 5
  %8 = load double, ptr %7, align 8, !tbaa !8
  %9 = load double, ptr %3, align 8, !tbaa !8
  %10 = fcmp une double %8, %9
  br i1 %10, label %29, label %11

11:                                               ; preds = %5
  %12 = getelementptr inbounds %"class.dealii::FE_PolyTensor", ptr %1, i64 0, i32 5, i32 0, i32 0, i64 1
  %13 = load double, ptr %12, align 8, !tbaa !8
  %14 = getelementptr inbounds [3 x double], ptr %3, i64 0, i64 1
  %15 = load double, ptr %14, align 8, !tbaa !8
  %16 = fcmp une double %13, %15
  br i1 %16, label %29, label %17

17:                                               ; preds = %11
  %18 = getelementptr inbounds %"class.dealii::FE_PolyTensor", ptr %1, i64 0, i32 5, i32 0, i32 0, i64 2
  %19 = load double, ptr %18, align 8, !tbaa !8
  %20 = getelementptr inbounds [3 x double], ptr %3, i64 0, i64 2
  %21 = load double, ptr %20, align 8, !tbaa !8
  %22 = fcmp une double %19, %21
  br i1 %22, label %29, label %23

23:                                               ; preds = %17
  %24 = getelementptr inbounds %"class.dealii::FE_PolyTensor", ptr %1, i64 0, i32 7
  %25 = getelementptr inbounds %"class.dealii::FE_PolyTensor", ptr %1, i64 0, i32 7, i32 0, i32 0, i32 0, i32 1
  %26 = load ptr, ptr %25, align 8, !tbaa !49
  %27 = load ptr, ptr %24, align 8, !tbaa !51
  %28 = icmp eq ptr %26, %27
  br i1 %28, label %29, label %60

29:                                               ; preds = %17, %11, %5, %23
  store double %9, ptr %7, align 8, !tbaa !8
  %30 = getelementptr inbounds [3 x double], ptr %3, i64 0, i64 1
  %31 = load double, ptr %30, align 8, !tbaa !8
  %32 = getelementptr inbounds %"class.dealii::FE_PolyTensor", ptr %1, i64 0, i32 5, i32 0, i32 0, i64 1
  store double %31, ptr %32, align 8, !tbaa !8
  %33 = getelementptr inbounds [3 x double], ptr %3, i64 0, i64 2
  %34 = load double, ptr %33, align 8, !tbaa !8
  %35 = getelementptr inbounds %"class.dealii::FE_PolyTensor", ptr %1, i64 0, i32 5, i32 0, i32 0, i64 2
  store double %34, ptr %35, align 8, !tbaa !8
  %36 = getelementptr inbounds %"class.dealii::FE_PolyTensor", ptr %1, i64 0, i32 7
  %37 = getelementptr inbounds %"class.dealii::FE_PolyTensor", ptr %1, i64 0, i32 3
  %38 = getelementptr inbounds %"class.dealii::FE_PolyTensor", ptr %1, i64 0, i32 3, i32 3
  %39 = load i32, ptr %38, align 8, !tbaa !26
  %40 = zext i32 %39 to i64
  call void @llvm.memset.p0.i64(ptr noundef nonnull align 8 dereferenceable(72) %6, i8 0, i64 72, i1 false), !tbaa !8
  %41 = getelementptr inbounds %"class.dealii::FE_PolyTensor", ptr %1, i64 0, i32 7, i32 0, i32 0, i32 0, i32 1
  %42 = load ptr, ptr %41, align 8, !tbaa !33
  %43 = load ptr, ptr %36, align 8, !tbaa !51
  %44 = ptrtoint ptr %42 to i64
  %45 = ptrtoint ptr %43 to i64
  %46 = sub i64 %44, %45
  %47 = sdiv exact i64 %46, 72
  %48 = icmp ult i64 %47, %40
  br i1 %48, label %49, label %51

49:                                               ; preds = %29
  %50 = sub nsw i64 %40, %47
  call void @_ZNSt6vectorIN6dealii6TensorILi2ELi3EEESaIS2_EE14_M_fill_insertEN9__gnu_cxx17__normal_iteratorIPS2_S4_EEmRKS2_(ptr noundef nonnull align 8 dereferenceable(24) %36, ptr %42, i64 noundef %50, ptr noundef nonnull align 8 dereferenceable(72) %6)
  br label %57

51:                                               ; preds = %29
  %52 = icmp ugt i64 %47, %40
  br i1 %52, label %53, label %57

53:                                               ; preds = %51
  %54 = getelementptr inbounds %"class.dealii::Tensor.84", ptr %43, i64 %40
  %55 = icmp eq ptr %42, %54
  br i1 %55, label %57, label %56

56:                                               ; preds = %53
  store ptr %54, ptr %41, align 8, !tbaa !49
  br label %57

57:                                               ; preds = %49, %51, %53, %56
  %58 = getelementptr inbounds %"class.dealii::FE_PolyTensor", ptr %1, i64 0, i32 6
  %59 = getelementptr inbounds %"class.dealii::FE_PolyTensor", ptr %1, i64 0, i32 8
  call void @_ZNK6dealii24PolynomialsRaviartThomasILi3EE7computeERKNS_5PointILi3EEERSt6vectorINS_6TensorILi1ELi3EEESaIS8_EERS6_INS7_ILi2ELi3EEESaISC_EERS6_INS7_ILi3ELi3EEESaISG_EE(ptr noundef nonnull align 8 dereferenceable(44) %37, ptr noundef nonnull align 8 dereferenceable(24) %3, ptr noundef nonnull align 8 dereferenceable(24) %58, ptr noundef nonnull align 8 dereferenceable(24) %36, ptr noundef nonnull align 8 dereferenceable(24) %59)
  br label %60

60:                                               ; preds = %57, %23
  %61 = getelementptr inbounds %"class.dealii::FE_PolyTensor", ptr %1, i64 0, i32 4, i32 0, i32 0, i32 3, i32 0, i32 0, i64 1
  %62 = load i32, ptr %61, align 8, !tbaa !34
  %63 = icmp eq i32 %62, 0
  %64 = zext i32 %4 to i64
  br i1 %63, label %76, label %65

65:                                               ; preds = %60
  %66 = getelementptr inbounds %"class.dealii::FE_PolyTensor", ptr %1, i64 0, i32 4, i32 0, i32 0, i32 1
  %67 = load ptr, ptr %66, align 8, !tbaa !35
  %68 = getelementptr inbounds %"class.dealii::FE_PolyTensor", ptr %1, i64 0, i32 7
  %69 = load ptr, ptr %68, align 8, !tbaa !51
  %70 = getelementptr inbounds [3 x %"class.dealii::Tensor"], ptr %69, i64 0, i64 %64
  %71 = zext i32 %62 to i64
  %72 = and i64 %71, 1
  %73 = icmp eq i32 %62, 1
  br i1 %73, label %85, label %74

74:                                               ; preds = %65
  %75 = and i64 %71, 4294967294
  br label %112

76:                                               ; preds = %60
  %77 = getelementptr inbounds %"class.dealii::FE_PolyTensor", ptr %1, i64 0, i32 7
  %78 = zext i32 %2 to i64
  %79 = load ptr, ptr %77, align 8, !tbaa !51
  %80 = getelementptr inbounds %"class.dealii::Tensor.84", ptr %79, i64 %78
  %81 = getelementptr inbounds [3 x %"class.dealii::Tensor"], ptr %80, i64 0, i64 %64
  %82 = load <2 x double>, ptr %81, align 8, !tbaa !8
  store <2 x double> %82, ptr %0, align 8, !tbaa !8
  %83 = getelementptr inbounds [3 x double], ptr %81, i64 0, i64 2
  %84 = load double, ptr %83, align 8, !tbaa !8
  br label %153

85:                                               ; preds = %112, %65
  %86 = phi <2 x double> [ undef, %65 ], [ %148, %112 ]
  %87 = phi double [ undef, %65 ], [ %149, %112 ]
  %88 = phi i64 [ 0, %65 ], [ %150, %112 ]
  %89 = phi double [ 0.000000e+00, %65 ], [ %149, %112 ]
  %90 = phi <2 x double> [ zeroinitializer, %65 ], [ %148, %112 ]
  %91 = icmp eq i64 %72, 0
  br i1 %91, label %109, label %92

92:                                               ; preds = %85
  %93 = trunc i64 %88 to i32
  %94 = mul i32 %62, %93
  %95 = add i32 %94, %2
  %96 = zext i32 %95 to i64
  %97 = getelementptr inbounds double, ptr %67, i64 %96
  %98 = load double, ptr %97, align 8, !tbaa !8
  %99 = getelementptr inbounds %"class.dealii::Tensor.84", ptr %70, i64 %88
  %100 = load <2 x double>, ptr %99, align 8, !tbaa !8, !noalias !52
  %101 = insertelement <2 x double> poison, double %98, i64 0
  %102 = shufflevector <2 x double> %101, <2 x double> poison, <2 x i32> zeroinitializer
  %103 = fmul <2 x double> %102, %100
  %104 = getelementptr inbounds [3 x double], ptr %99, i64 0, i64 2
  %105 = load double, ptr %104, align 8, !tbaa !8, !noalias !52
  %106 = fmul double %98, %105
  %107 = fadd <2 x double> %90, %103
  %108 = fadd double %89, %106
  br label %109

109:                                              ; preds = %85, %92
  %110 = phi <2 x double> [ %86, %85 ], [ %107, %92 ]
  %111 = phi double [ %87, %85 ], [ %108, %92 ]
  store <2 x double> %110, ptr %0, align 8, !tbaa !8
  br label %153

112:                                              ; preds = %112, %74
  %113 = phi i64 [ 0, %74 ], [ %150, %112 ]
  %114 = phi double [ 0.000000e+00, %74 ], [ %149, %112 ]
  %115 = phi <2 x double> [ zeroinitializer, %74 ], [ %148, %112 ]
  %116 = phi i64 [ 0, %74 ], [ %151, %112 ]
  %117 = trunc i64 %113 to i32
  %118 = mul i32 %62, %117
  %119 = add i32 %118, %2
  %120 = zext i32 %119 to i64
  %121 = getelementptr inbounds double, ptr %67, i64 %120
  %122 = load double, ptr %121, align 8, !tbaa !8
  %123 = getelementptr inbounds %"class.dealii::Tensor.84", ptr %70, i64 %113
  %124 = load <2 x double>, ptr %123, align 8, !tbaa !8, !noalias !52
  %125 = insertelement <2 x double> poison, double %122, i64 0
  %126 = shufflevector <2 x double> %125, <2 x double> poison, <2 x i32> zeroinitializer
  %127 = fmul <2 x double> %126, %124
  %128 = getelementptr inbounds [3 x double], ptr %123, i64 0, i64 2
  %129 = load double, ptr %128, align 8, !tbaa !8, !noalias !52
  %130 = fmul double %122, %129
  %131 = fadd <2 x double> %115, %127
  %132 = fadd double %114, %130
  %133 = or i64 %113, 1
  %134 = trunc i64 %133 to i32
  %135 = mul i32 %62, %134
  %136 = add i32 %135, %2
  %137 = zext i32 %136 to i64
  %138 = getelementptr inbounds double, ptr %67, i64 %137
  %139 = load double, ptr %138, align 8, !tbaa !8
  %140 = getelementptr inbounds %"class.dealii::Tensor.84", ptr %70, i64 %133
  %141 = load <2 x double>, ptr %140, align 8, !tbaa !8, !noalias !52
  %142 = insertelement <2 x double> poison, double %139, i64 0
  %143 = shufflevector <2 x double> %142, <2 x double> poison, <2 x i32> zeroinitializer
  %144 = fmul <2 x double> %143, %141
  %145 = getelementptr inbounds [3 x double], ptr %140, i64 0, i64 2
  %146 = load double, ptr %145, align 8, !tbaa !8, !noalias !52
  %147 = fmul double %139, %146
  %148 = fadd <2 x double> %131, %144
  %149 = fadd double %132, %147
  %150 = add nuw nsw i64 %113, 2
  %151 = add i64 %116, 2
  %152 = icmp eq i64 %151, %75
  br i1 %152, label %85, label %112

153:                                              ; preds = %109, %76
  %154 = phi double [ %111, %109 ], [ %84, %76 ]
  %155 = getelementptr inbounds [3 x double], ptr %0, i64 0, i64 2
  store double %154, ptr %155, align 8, !tbaa !8
  ret void
}

; Function Attrs: sspstrong uwtable
define weak_odr dso_local void @_ZNK6dealii13FE_PolyTensorINS_24PolynomialsRaviartThomasILi3EEELi3ELi3EE15shape_grad_gradEjRKNS_5PointILi3EEE(ptr noalias sret(%"class.dealii::Tensor.84") align 8 %0, ptr noundef nonnull align 8 dereferenceable(976) %1, i32 noundef %2, ptr noundef nonnull align 8 dereferenceable(24) %3) unnamed_addr #0 comdat align 2 {
  tail call void @llvm.memset.p0.i64(ptr noundef nonnull align 8 dereferenceable(72) %0, i8 0, i64 72, i1 false), !tbaa !8
  ret void
}

; Function Attrs: sspstrong uwtable
define weak_odr dso_local void @_ZNK6dealii13FE_PolyTensorINS_24PolynomialsRaviartThomasILi3EEELi3ELi3EE25shape_grad_grad_componentEjRKNS_5PointILi3EEEj(ptr noalias sret(%"class.dealii::Tensor.84") align 8 %0, ptr noundef nonnull align 8 dereferenceable(976) %1, i32 noundef %2, ptr noundef nonnull align 8 dereferenceable(24) %3, i32 noundef %4) unnamed_addr #0 comdat align 2 {
  %6 = alloca %"class.dealii::Tensor.85", align 8
  %7 = getelementptr inbounds %"class.dealii::FE_PolyTensor", ptr %1, i64 0, i32 5
  %8 = load double, ptr %7, align 8, !tbaa !8
  %9 = load double, ptr %3, align 8, !tbaa !8
  %10 = fcmp une double %8, %9
  br i1 %10, label %29, label %11

11:                                               ; preds = %5
  %12 = getelementptr inbounds %"class.dealii::FE_PolyTensor", ptr %1, i64 0, i32 5, i32 0, i32 0, i64 1
  %13 = load double, ptr %12, align 8, !tbaa !8
  %14 = getelementptr inbounds [3 x double], ptr %3, i64 0, i64 1
  %15 = load double, ptr %14, align 8, !tbaa !8
  %16 = fcmp une double %13, %15
  br i1 %16, label %29, label %17

17:                                               ; preds = %11
  %18 = getelementptr inbounds %"class.dealii::FE_PolyTensor", ptr %1, i64 0, i32 5, i32 0, i32 0, i64 2
  %19 = load double, ptr %18, align 8, !tbaa !8
  %20 = getelementptr inbounds [3 x double], ptr %3, i64 0, i64 2
  %21 = load double, ptr %20, align 8, !tbaa !8
  %22 = fcmp une double %19, %21
  br i1 %22, label %29, label %23

23:                                               ; preds = %17
  %24 = getelementptr inbounds %"class.dealii::FE_PolyTensor", ptr %1, i64 0, i32 8
  %25 = getelementptr inbounds %"class.dealii::FE_PolyTensor", ptr %1, i64 0, i32 8, i32 0, i32 0, i32 0, i32 1
  %26 = load ptr, ptr %25, align 8, !tbaa !55
  %27 = load ptr, ptr %24, align 8, !tbaa !57
  %28 = icmp eq ptr %26, %27
  br i1 %28, label %29, label %60

29:                                               ; preds = %17, %11, %5, %23
  store double %9, ptr %7, align 8, !tbaa !8
  %30 = getelementptr inbounds [3 x double], ptr %3, i64 0, i64 1
  %31 = load double, ptr %30, align 8, !tbaa !8
  %32 = getelementptr inbounds %"class.dealii::FE_PolyTensor", ptr %1, i64 0, i32 5, i32 0, i32 0, i64 1
  store double %31, ptr %32, align 8, !tbaa !8
  %33 = getelementptr inbounds [3 x double], ptr %3, i64 0, i64 2
  %34 = load double, ptr %33, align 8, !tbaa !8
  %35 = getelementptr inbounds %"class.dealii::FE_PolyTensor", ptr %1, i64 0, i32 5, i32 0, i32 0, i64 2
  store double %34, ptr %35, align 8, !tbaa !8
  %36 = getelementptr inbounds %"class.dealii::FE_PolyTensor", ptr %1, i64 0, i32 8
  %37 = getelementptr inbounds %"class.dealii::FE_PolyTensor", ptr %1, i64 0, i32 3
  %38 = getelementptr inbounds %"class.dealii::FE_PolyTensor", ptr %1, i64 0, i32 3, i32 3
  %39 = load i32, ptr %38, align 8, !tbaa !26
  %40 = zext i32 %39 to i64
  call void @llvm.memset.p0.i64(ptr noundef nonnull align 8 dereferenceable(216) %6, i8 0, i64 216, i1 false), !tbaa !8
  %41 = getelementptr inbounds %"class.dealii::FE_PolyTensor", ptr %1, i64 0, i32 8, i32 0, i32 0, i32 0, i32 1
  %42 = load ptr, ptr %41, align 8, !tbaa !33
  %43 = load ptr, ptr %36, align 8, !tbaa !57
  %44 = ptrtoint ptr %42 to i64
  %45 = ptrtoint ptr %43 to i64
  %46 = sub i64 %44, %45
  %47 = sdiv exact i64 %46, 216
  %48 = icmp ult i64 %47, %40
  br i1 %48, label %49, label %51

49:                                               ; preds = %29
  %50 = sub nsw i64 %40, %47
  call void @_ZNSt6vectorIN6dealii6TensorILi3ELi3EEESaIS2_EE14_M_fill_insertEN9__gnu_cxx17__normal_iteratorIPS2_S4_EEmRKS2_(ptr noundef nonnull align 8 dereferenceable(24) %36, ptr %42, i64 noundef %50, ptr noundef nonnull align 8 dereferenceable(216) %6)
  br label %57

51:                                               ; preds = %29
  %52 = icmp ugt i64 %47, %40
  br i1 %52, label %53, label %57

53:                                               ; preds = %51
  %54 = getelementptr inbounds %"class.dealii::Tensor.85", ptr %43, i64 %40
  %55 = icmp eq ptr %42, %54
  br i1 %55, label %57, label %56

56:                                               ; preds = %53
  store ptr %54, ptr %41, align 8, !tbaa !55
  br label %57

57:                                               ; preds = %49, %51, %53, %56
  %58 = getelementptr inbounds %"class.dealii::FE_PolyTensor", ptr %1, i64 0, i32 6
  %59 = getelementptr inbounds %"class.dealii::FE_PolyTensor", ptr %1, i64 0, i32 7
  call void @_ZNK6dealii24PolynomialsRaviartThomasILi3EE7computeERKNS_5PointILi3EEERSt6vectorINS_6TensorILi1ELi3EEESaIS8_EERS6_INS7_ILi2ELi3EEESaISC_EERS6_INS7_ILi3ELi3EEESaISG_EE(ptr noundef nonnull align 8 dereferenceable(44) %37, ptr noundef nonnull align 8 dereferenceable(24) %3, ptr noundef nonnull align 8 dereferenceable(24) %58, ptr noundef nonnull align 8 dereferenceable(24) %59, ptr noundef nonnull align 8 dereferenceable(24) %36)
  br label %60

60:                                               ; preds = %57, %23
  %61 = getelementptr inbounds %"class.dealii::FE_PolyTensor", ptr %1, i64 0, i32 4, i32 0, i32 0, i32 3, i32 0, i32 0, i64 1
  %62 = load i32, ptr %61, align 8, !tbaa !34
  %63 = icmp eq i32 %62, 0
  br i1 %63, label %73, label %64

64:                                               ; preds = %60
  %65 = getelementptr inbounds %"class.dealii::FE_PolyTensor", ptr %1, i64 0, i32 4, i32 0, i32 0, i32 1
  %66 = load ptr, ptr %65, align 8, !tbaa !35
  %67 = mul i32 %62, %2
  %68 = getelementptr inbounds %"class.dealii::FE_PolyTensor", ptr %1, i64 0, i32 8
  %69 = load ptr, ptr %68, align 8, !tbaa !57
  %70 = zext i32 %4 to i64
  %71 = getelementptr inbounds [3 x %"class.dealii::Tensor.84"], ptr %69, i64 0, i64 %70
  %72 = zext i32 %62 to i64
  br label %88

73:                                               ; preds = %60
  %74 = getelementptr inbounds %"class.dealii::FE_PolyTensor", ptr %1, i64 0, i32 8
  %75 = zext i32 %2 to i64
  %76 = load ptr, ptr %74, align 8, !tbaa !57
  %77 = getelementptr inbounds %"class.dealii::Tensor.85", ptr %76, i64 %75
  %78 = zext i32 %4 to i64
  %79 = getelementptr inbounds [3 x %"class.dealii::Tensor.84"], ptr %77, i64 0, i64 %78
  %80 = load <4 x double>, ptr %79, align 8, !tbaa !8
  store <4 x double> %80, ptr %0, align 8, !tbaa !8
  %81 = getelementptr inbounds [3 x %"class.dealii::Tensor"], ptr %79, i64 0, i64 1, i32 0, i64 1
  %82 = getelementptr inbounds %"class.dealii::Tensor", ptr %0, i64 1, i32 0, i64 1
  %83 = load <4 x double>, ptr %81, align 8, !tbaa !8
  store <4 x double> %83, ptr %82, align 8, !tbaa !8
  %84 = getelementptr inbounds [3 x %"class.dealii::Tensor"], ptr %79, i64 0, i64 2, i32 0, i64 2
  %85 = load double, ptr %84, align 8, !tbaa !8
  br label %114

86:                                               ; preds = %88
  store <4 x double> %109, ptr %0, align 8, !tbaa !8
  %87 = getelementptr inbounds %"class.dealii::Tensor", ptr %0, i64 1, i32 0, i64 1
  store <4 x double> %110, ptr %87, align 8, !tbaa !8
  br label %114

88:                                               ; preds = %64, %88
  %89 = phi i64 [ 0, %64 ], [ %112, %88 ]
  %90 = phi double [ 0.000000e+00, %64 ], [ %111, %88 ]
  %91 = phi <4 x double> [ zeroinitializer, %64 ], [ %109, %88 ]
  %92 = phi <4 x double> [ zeroinitializer, %64 ], [ %110, %88 ]
  %93 = trunc i64 %89 to i32
  %94 = add i32 %67, %93
  %95 = zext i32 %94 to i64
  %96 = getelementptr inbounds double, ptr %66, i64 %95
  %97 = load double, ptr %96, align 8, !tbaa !8
  %98 = getelementptr inbounds %"class.dealii::Tensor.85", ptr %71, i64 %89
  %99 = getelementptr inbounds [3 x %"class.dealii::Tensor"], ptr %98, i64 0, i64 1, i32 0, i64 1
  %100 = getelementptr inbounds [3 x %"class.dealii::Tensor"], ptr %98, i64 0, i64 2, i32 0, i64 2
  %101 = load double, ptr %100, align 8, !tbaa !8, !noalias !58
  %102 = load <4 x double>, ptr %98, align 8, !tbaa !8, !noalias !58
  %103 = insertelement <4 x double> poison, double %97, i64 0
  %104 = shufflevector <4 x double> %103, <4 x double> poison, <4 x i32> zeroinitializer
  %105 = fmul <4 x double> %104, %102
  %106 = load <4 x double>, ptr %99, align 8, !tbaa !8, !noalias !58
  %107 = fmul <4 x double> %104, %106
  %108 = fmul double %97, %101
  %109 = fadd <4 x double> %91, %105
  %110 = fadd <4 x double> %92, %107
  %111 = fadd double %90, %108
  %112 = add nuw nsw i64 %89, 1
  %113 = icmp eq i64 %112, %72
  br i1 %113, label %86, label %88

114:                                              ; preds = %86, %73
  %115 = phi double [ %111, %86 ], [ %85, %73 ]
  %116 = getelementptr inbounds %"class.dealii::Tensor", ptr %0, i64 2, i32 0, i64 2
  store double %115, ptr %116, align 8, !tbaa !8
  ret void
}

; Function Attrs: nounwind sspstrong uwtable
define weak_odr dso_local noundef i32 @_ZNK6dealii13FE_PolyTensorINS_24PolynomialsRaviartThomasILi3EEELi3ELi3EE15n_base_elementsEv(ptr noundef nonnull align 8 dereferenceable(976) %0) unnamed_addr #4 comdat align 2 {
  ret i32 1
}

; Function Attrs: nounwind sspstrong uwtable
define weak_odr dso_local noundef nonnull align 8 dereferenceable(728) ptr @_ZNK6dealii13FE_PolyTensorINS_24PolynomialsRaviartThomasILi3EEELi3ELi3EE12base_elementEj(ptr noundef nonnull align 8 dereferenceable(976) %0, i32 noundef %1) unnamed_addr #4 comdat align 2 {
  ret ptr %0
}

; Function Attrs: nounwind sspstrong uwtable
define weak_odr dso_local noundef i32 @_ZNK6dealii13FE_PolyTensorINS_24PolynomialsRaviartThomasILi3EEELi3ELi3EE20element_multiplicityEj(ptr noundef nonnull align 8 dereferenceable(976) %0, i32 noundef %1) unnamed_addr #4 comdat align 2 {
  ret i32 1
}

; Function Attrs: sspstrong uwtable
define weak_odr dso_local noundef i32 @_ZNK6dealii13FE_PolyTensorINS_24PolynomialsRaviartThomasILi3EEELi3ELi3EE11update_onceENS_11UpdateFlagsE(ptr noundef nonnull align 8 dereferenceable(976) %0, i32 noundef %1) unnamed_addr #0 comdat align 2 {
  %3 = getelementptr inbounds %"class.dealii::FE_PolyTensor", ptr %0, i64 0, i32 1
  %4 = load i32, ptr %3, align 8, !tbaa !61
  %5 = icmp eq i32 %4, 0
  %6 = and i32 %1, 1
  %7 = icmp ne i32 %6, 0
  %8 = and i1 %7, %5
  %9 = zext i1 %8 to i32
  ret i32 %9
}

; Function Attrs: sspstrong uwtable
define weak_odr dso_local noundef i32 @_ZNK6dealii13FE_PolyTensorINS_24PolynomialsRaviartThomasILi3EEELi3ELi3EE11update_eachENS_11UpdateFlagsE(ptr noundef nonnull align 8 dereferenceable(976) %0, i32 noundef %1) unnamed_addr #0 comdat align 2 {
  %3 = getelementptr inbounds %"class.dealii::FE_PolyTensor", ptr %0, i64 0, i32 1
  %4 = load i32, ptr %3, align 8, !tbaa !61
  %5 = icmp eq i32 %4, 256
  br i1 %5, label %6, label %18

6:                                                ; preds = %2
  %7 = and i32 %1, 1
  %8 = icmp eq i32 %7, 0
  %9 = select i1 %8, i32 0, i32 18433
  %10 = and i32 %1, 2
  %11 = icmp eq i32 %10, 0
  %12 = or i32 %9, 19458
  %13 = select i1 %11, i32 %9, i32 %12
  %14 = and i32 %1, 4
  %15 = icmp eq i32 %14, 0
  %16 = or i32 %13, 19460
  %17 = select i1 %15, i32 %13, i32 %16
  br label %18

18:                                               ; preds = %6, %2
  %19 = phi i32 [ 0, %2 ], [ %17, %6 ]
  ret i32 %19
}

; Function Attrs: sspstrong uwtable
define weak_odr dso_local noundef ptr @_ZNK6dealii13FE_PolyTensorINS_24PolynomialsRaviartThomasILi3EEELi3ELi3EE8get_dataENS_11UpdateFlagsERKNS_7MappingILi3ELi3EEERKNS_10QuadratureILi3EEE(ptr noundef nonnull align 8 dereferenceable(976) %0, i32 noundef %1, ptr noundef nonnull align 8 dereferenceable(72) %2, ptr noundef nonnull align 8 dereferenceable(128) %3) unnamed_addr #0 comdat align 2 personality ptr @__gxx_personality_v0 {
  %5 = alloca %"class.std::vector.67", align 8
  %6 = alloca %"class.std::vector.72", align 8
  %7 = alloca %"class.std::vector.77", align 8
  %8 = alloca %"class.dealii::Tensor", align 8
  %9 = alloca %"class.std::vector.67", align 8
  %10 = alloca %"class.dealii::Tensor", align 8
  %11 = alloca %"class.dealii::Tensor.84", align 8
  %12 = alloca %"class.std::vector.72", align 8
  %13 = alloca %"class.dealii::Tensor.84", align 8
  %14 = tail call noalias noundef nonnull dereferenceable(264) ptr @_Znwm(i64 noundef 264) #16
  invoke void @_ZN6dealii7MappingILi3ELi3EE16InternalDataBaseC2Ev(ptr noundef nonnull align 8 dereferenceable(185) %14)
          to label %15 unwind label %86

15:                                               ; preds = %4
  %16 = getelementptr inbounds %"class.dealii::FiniteElement<3, 3>::InternalDataBase", ptr %14, i64 0, i32 1
  tail call void @llvm.memset.p0.i64(ptr noundef nonnull align 8 dereferenceable(24) %16, i8 0, i64 24, i1 false)
  store ptr getelementptr inbounds ({ [6 x ptr] }, ptr @_ZTVN6dealii13FE_PolyTensorINS_24PolynomialsRaviartThomasILi3EEELi3ELi3EE12InternalDataE, i64 0, inrange i32 0, i64 2), ptr %14, align 8, !tbaa !5
  %17 = getelementptr inbounds %"class.dealii::FE_PolyTensor<dealii::PolynomialsRaviartThomas<3>, 3>::InternalData", ptr %14, i64 0, i32 1
  tail call void @llvm.memset.p0.i64(ptr noundef nonnull align 8 dereferenceable(48) %17, i8 0, i64 48, i1 false)
  %18 = load ptr, ptr %0, align 8, !tbaa !5
  %19 = getelementptr inbounds ptr, ptr %18, i64 27
  %20 = load ptr, ptr %19, align 8
  %21 = tail call noundef i32 %20(ptr noundef nonnull align 8 dereferenceable(976) %0, i32 noundef %1)
  %22 = getelementptr inbounds %"class.dealii::Mapping<3, 3>::InternalDataBase", ptr %14, i64 0, i32 2
  store i32 %21, ptr %22, align 4, !tbaa !118
  %23 = load ptr, ptr %0, align 8, !tbaa !5
  %24 = getelementptr inbounds ptr, ptr %23, i64 28
  %25 = load ptr, ptr %24, align 8
  %26 = tail call noundef i32 %25(ptr noundef nonnull align 8 dereferenceable(976) %0, i32 noundef %1)
  %27 = getelementptr inbounds %"class.dealii::Mapping<3, 3>::InternalDataBase", ptr %14, i64 0, i32 3
  store i32 %26, ptr %27, align 8, !tbaa !125
  %28 = load i32, ptr %22, align 4, !tbaa !118
  %29 = or i32 %28, %26
  %30 = getelementptr inbounds %"class.dealii::Mapping<3, 3>::InternalDataBase", ptr %14, i64 0, i32 1
  store i32 %29, ptr %30, align 8, !tbaa !126
  %31 = getelementptr inbounds %"class.dealii::Quadrature", ptr %3, i64 0, i32 3
  %32 = getelementptr inbounds %"class.dealii::Quadrature", ptr %3, i64 0, i32 3, i32 0, i32 0, i32 0, i32 1
  %33 = load ptr, ptr %32, align 8, !tbaa !127
  %34 = load ptr, ptr %31, align 8, !tbaa !128
  %35 = ptrtoint ptr %33 to i64
  %36 = ptrtoint ptr %34 to i64
  %37 = sub i64 %35, %36
  %38 = lshr exact i64 %37, 3
  call void @llvm.lifetime.start.p0(i64 24, ptr nonnull %5) #15
  call void @llvm.memset.p0.i64(ptr noundef nonnull align 8 dereferenceable(24) %5, i8 0, i64 24, i1 false)
  call void @llvm.lifetime.start.p0(i64 24, ptr nonnull %6) #15
  %39 = getelementptr inbounds %"struct.std::_Vector_base<dealii::Tensor<2, 3>, std::allocator<dealii::Tensor<2, 3> > >::_Vector_impl_data", ptr %6, i64 0, i32 1
  call void @llvm.memset.p0.i64(ptr noundef nonnull align 8 dereferenceable(24) %6, i8 0, i64 24, i1 false)
  call void @llvm.lifetime.start.p0(i64 24, ptr nonnull %7) #15
  %40 = and i32 %29, 1
  %41 = icmp eq i32 %40, 0
  call void @llvm.memset.p0.i64(ptr noundef nonnull align 8 dereferenceable(24) %7, i8 0, i64 24, i1 false)
  br i1 %41, label %125, label %42

42:                                               ; preds = %15
  %43 = getelementptr inbounds i8, ptr %0, i64 112
  %44 = load i32, ptr %43, align 8, !tbaa !129
  call void @llvm.memset.p0.i64(ptr noundef nonnull align 8 dereferenceable(24) %8, i8 0, i64 24, i1 false), !tbaa !8
  %45 = icmp eq i32 %44, 0
  br i1 %45, label %51, label %46

46:                                               ; preds = %42
  %47 = zext i32 %44 to i64
  invoke void @_ZNSt6vectorIN6dealii6TensorILi1ELi3EEESaIS2_EE14_M_fill_insertEN9__gnu_cxx17__normal_iteratorIPS2_S4_EEmRKS2_(ptr noundef nonnull align 8 dereferenceable(24) %5, ptr null, i64 noundef %47, ptr noundef nonnull align 8 dereferenceable(24) %8)
          to label %48 unwind label %88

48:                                               ; preds = %46
  %49 = load i32, ptr %43, align 8, !tbaa !129
  %50 = zext i32 %49 to i64
  br label %51

51:                                               ; preds = %42, %48
  %52 = phi i64 [ %50, %48 ], [ 0, %42 ]
  call void @llvm.memset.p0.i64(ptr noundef nonnull align 8 dereferenceable(24) %9, i8 0, i64 24, i1 false)
  %53 = getelementptr inbounds %"class.dealii::FE_PolyTensor<dealii::PolynomialsRaviartThomas<3>, 3>::InternalData", ptr %14, i64 0, i32 1, i32 0, i32 0, i32 0, i32 1
  %54 = load ptr, ptr %53, align 8, !tbaa !33
  %55 = load ptr, ptr %17, align 8, !tbaa !130
  %56 = ptrtoint ptr %54 to i64
  %57 = ptrtoint ptr %55 to i64
  %58 = sub i64 %56, %57
  %59 = sdiv exact i64 %58, 24
  %60 = icmp ult i64 %59, %52
  br i1 %60, label %61, label %63

61:                                               ; preds = %51
  %62 = sub nsw i64 %52, %59
  invoke void @_ZNSt6vectorIS_IN6dealii6TensorILi1ELi3EEESaIS2_EESaIS4_EE14_M_fill_insertEN9__gnu_cxx17__normal_iteratorIPS4_S6_EEmRKS4_(ptr noundef nonnull align 8 dereferenceable(24) %17, ptr %54, i64 noundef %62, ptr noundef nonnull align 8 dereferenceable(24) %9)
          to label %77 unwind label %90

63:                                               ; preds = %51
  %64 = icmp ugt i64 %59, %52
  br i1 %64, label %65, label %77

65:                                               ; preds = %63
  %66 = getelementptr inbounds %"class.std::vector.67", ptr %55, i64 %52
  %67 = icmp eq ptr %54, %66
  br i1 %67, label %77, label %68

68:                                               ; preds = %65, %73
  %69 = phi ptr [ %74, %73 ], [ %66, %65 ]
  %70 = load ptr, ptr %69, align 8, !tbaa !25
  %71 = icmp eq ptr %70, null
  br i1 %71, label %73, label %72

72:                                               ; preds = %68
  call void @_ZdlPv(ptr noundef nonnull %70) #17
  br label %73

73:                                               ; preds = %72, %68
  %74 = getelementptr inbounds %"class.std::vector.67", ptr %69, i64 1
  %75 = icmp eq ptr %74, %54
  br i1 %75, label %76, label %68

76:                                               ; preds = %73
  store ptr %66, ptr %53, align 8, !tbaa !132
  br label %77

77:                                               ; preds = %76, %65, %63, %61
  %78 = load ptr, ptr %9, align 8, !tbaa !25
  %79 = icmp eq ptr %78, null
  br i1 %79, label %81, label %80

80:                                               ; preds = %77
  call void @_ZdlPv(ptr noundef nonnull %78) #17
  br label %81

81:                                               ; preds = %77, %80
  %82 = load i32, ptr %43, align 8, !tbaa !129
  %83 = icmp eq i32 %82, 0
  br i1 %83, label %125, label %84

84:                                               ; preds = %81
  %85 = and i64 %38, 4294967295
  br label %95

86:                                               ; preds = %4
  %87 = landingpad { ptr, i32 }
          cleanup
  tail call void @_ZdlPv(ptr noundef nonnull %14) #17
  br label %465

88:                                               ; preds = %139, %46, %224
  %89 = landingpad { ptr, i32 }
          cleanup
  br label %446

90:                                               ; preds = %61
  %91 = landingpad { ptr, i32 }
          cleanup
  %92 = load ptr, ptr %9, align 8, !tbaa !25
  %93 = icmp eq ptr %92, null
  br i1 %93, label %446, label %94

94:                                               ; preds = %90
  call void @_ZdlPv(ptr noundef nonnull %92) #17
  br label %446

95:                                               ; preds = %84, %118
  %96 = phi i32 [ %82, %84 ], [ %119, %118 ]
  %97 = phi i64 [ 0, %84 ], [ %120, %118 ]
  %98 = load ptr, ptr %17, align 8, !tbaa !130
  %99 = getelementptr inbounds %"class.std::vector.67", ptr %98, i64 %97
  call void @llvm.memset.p0.i64(ptr noundef nonnull align 8 dereferenceable(24) %10, i8 0, i64 24, i1 false), !tbaa !8
  %100 = getelementptr inbounds %"struct.std::_Vector_base<dealii::Tensor<1, 3>, std::allocator<dealii::Tensor<1, 3> > >::_Vector_impl_data", ptr %99, i64 0, i32 1
  %101 = load ptr, ptr %100, align 8, !tbaa !33
  %102 = load ptr, ptr %99, align 8, !tbaa !25
  %103 = ptrtoint ptr %101 to i64
  %104 = ptrtoint ptr %102 to i64
  %105 = sub i64 %103, %104
  %106 = sdiv exact i64 %105, 24
  %107 = icmp ult i64 %106, %85
  br i1 %107, label %108, label %112

108:                                              ; preds = %95
  %109 = sub nsw i64 %85, %106
  invoke void @_ZNSt6vectorIN6dealii6TensorILi1ELi3EEESaIS2_EE14_M_fill_insertEN9__gnu_cxx17__normal_iteratorIPS2_S4_EEmRKS2_(ptr noundef nonnull align 8 dereferenceable(24) %99, ptr %101, i64 noundef %109, ptr noundef nonnull align 8 dereferenceable(24) %10)
          to label %110 unwind label %123

110:                                              ; preds = %108
  %111 = load i32, ptr %43, align 8, !tbaa !129
  br label %118

112:                                              ; preds = %95
  %113 = icmp ugt i64 %106, %85
  br i1 %113, label %114, label %118

114:                                              ; preds = %112
  %115 = getelementptr inbounds %"class.dealii::Tensor", ptr %102, i64 %85
  %116 = icmp eq ptr %101, %115
  br i1 %116, label %118, label %117

117:                                              ; preds = %114
  store ptr %115, ptr %100, align 8, !tbaa !23
  br label %118

118:                                              ; preds = %110, %117, %114, %112
  %119 = phi i32 [ %111, %110 ], [ %96, %117 ], [ %96, %114 ], [ %96, %112 ]
  %120 = add nuw nsw i64 %97, 1
  %121 = zext i32 %119 to i64
  %122 = icmp ult i64 %120, %121
  br i1 %122, label %95, label %125

123:                                              ; preds = %108
  %124 = landingpad { ptr, i32 }
          cleanup
  br label %446

125:                                              ; preds = %118, %81, %15
  %126 = and i32 %29, 2
  %127 = icmp eq i32 %126, 0
  br i1 %127, label %221, label %128

128:                                              ; preds = %125
  %129 = getelementptr inbounds i8, ptr %0, i64 112
  %130 = load i32, ptr %129, align 8, !tbaa !129
  call void @llvm.memset.p0.i64(ptr noundef nonnull align 8 dereferenceable(72) %11, i8 0, i64 72, i1 false), !tbaa !8
  %131 = zext i32 %130 to i64
  %132 = load ptr, ptr %39, align 8, !tbaa !33
  %133 = load ptr, ptr %6, align 8, !tbaa !51
  %134 = ptrtoint ptr %132 to i64
  %135 = ptrtoint ptr %133 to i64
  %136 = sub i64 %134, %135
  %137 = sdiv exact i64 %136, 72
  %138 = icmp ult i64 %137, %131
  br i1 %138, label %139, label %144

139:                                              ; preds = %128
  %140 = sub nsw i64 %131, %137
  invoke void @_ZNSt6vectorIN6dealii6TensorILi2ELi3EEESaIS2_EE14_M_fill_insertEN9__gnu_cxx17__normal_iteratorIPS2_S4_EEmRKS2_(ptr noundef nonnull align 8 dereferenceable(24) %6, ptr %132, i64 noundef %140, ptr noundef nonnull align 8 dereferenceable(72) %11)
          to label %141 unwind label %88

141:                                              ; preds = %139
  %142 = load i32, ptr %129, align 8, !tbaa !129
  %143 = zext i32 %142 to i64
  br label %150

144:                                              ; preds = %128
  %145 = icmp ugt i64 %137, %131
  br i1 %145, label %146, label %150

146:                                              ; preds = %144
  %147 = getelementptr inbounds %"class.dealii::Tensor.84", ptr %133, i64 %131
  %148 = icmp eq ptr %132, %147
  br i1 %148, label %150, label %149

149:                                              ; preds = %146
  store ptr %147, ptr %39, align 8, !tbaa !49
  br label %150

150:                                              ; preds = %141, %144, %146, %149
  %151 = phi i64 [ %143, %141 ], [ %131, %144 ], [ %131, %146 ], [ %131, %149 ]
  %152 = getelementptr inbounds %"class.dealii::FE_PolyTensor<dealii::PolynomialsRaviartThomas<3>, 3>::InternalData", ptr %14, i64 0, i32 2
  call void @llvm.memset.p0.i64(ptr noundef nonnull align 8 dereferenceable(24) %12, i8 0, i64 24, i1 false)
  %153 = getelementptr inbounds %"class.dealii::FE_PolyTensor<dealii::PolynomialsRaviartThomas<3>, 3>::InternalData", ptr %14, i64 0, i32 2, i32 0, i32 0, i32 0, i32 1
  %154 = load ptr, ptr %153, align 8, !tbaa !33
  %155 = load ptr, ptr %152, align 8, !tbaa !133
  %156 = ptrtoint ptr %154 to i64
  %157 = ptrtoint ptr %155 to i64
  %158 = sub i64 %156, %157
  %159 = sdiv exact i64 %158, 24
  %160 = icmp ult i64 %159, %151
  br i1 %160, label %161, label %163

161:                                              ; preds = %150
  %162 = sub nsw i64 %151, %159
  invoke void @_ZNSt6vectorIS_IN6dealii6TensorILi2ELi3EEESaIS2_EESaIS4_EE14_M_fill_insertEN9__gnu_cxx17__normal_iteratorIPS4_S6_EEmRKS4_(ptr noundef nonnull align 8 dereferenceable(24) %152, ptr %154, i64 noundef %162, ptr noundef nonnull align 8 dereferenceable(24) %12)
          to label %177 unwind label %186

163:                                              ; preds = %150
  %164 = icmp ugt i64 %159, %151
  br i1 %164, label %165, label %177

165:                                              ; preds = %163
  %166 = getelementptr inbounds %"class.std::vector.72", ptr %155, i64 %151
  %167 = icmp eq ptr %154, %166
  br i1 %167, label %177, label %168

168:                                              ; preds = %165, %173
  %169 = phi ptr [ %174, %173 ], [ %166, %165 ]
  %170 = load ptr, ptr %169, align 8, !tbaa !51
  %171 = icmp eq ptr %170, null
  br i1 %171, label %173, label %172

172:                                              ; preds = %168
  call void @_ZdlPv(ptr noundef nonnull %170) #17
  br label %173

173:                                              ; preds = %172, %168
  %174 = getelementptr inbounds %"class.std::vector.72", ptr %169, i64 1
  %175 = icmp eq ptr %174, %154
  br i1 %175, label %176, label %168

176:                                              ; preds = %173
  store ptr %166, ptr %153, align 8, !tbaa !135
  br label %177

177:                                              ; preds = %176, %165, %163, %161
  %178 = load ptr, ptr %12, align 8, !tbaa !51
  %179 = icmp eq ptr %178, null
  br i1 %179, label %181, label %180

180:                                              ; preds = %177
  call void @_ZdlPv(ptr noundef nonnull %178) #17
  br label %181

181:                                              ; preds = %177, %180
  %182 = load i32, ptr %129, align 8, !tbaa !129
  %183 = icmp eq i32 %182, 0
  br i1 %183, label %221, label %184

184:                                              ; preds = %181
  %185 = and i64 %38, 4294967295
  br label %191

186:                                              ; preds = %161
  %187 = landingpad { ptr, i32 }
          cleanup
  %188 = load ptr, ptr %12, align 8, !tbaa !51
  %189 = icmp eq ptr %188, null
  br i1 %189, label %446, label %190

190:                                              ; preds = %186
  call void @_ZdlPv(ptr noundef nonnull %188) #17
  br label %446

191:                                              ; preds = %184, %214
  %192 = phi i32 [ %182, %184 ], [ %215, %214 ]
  %193 = phi i64 [ 0, %184 ], [ %216, %214 ]
  %194 = load ptr, ptr %152, align 8, !tbaa !133
  %195 = getelementptr inbounds %"class.std::vector.72", ptr %194, i64 %193
  call void @llvm.memset.p0.i64(ptr noundef nonnull align 8 dereferenceable(72) %13, i8 0, i64 72, i1 false), !tbaa !8
  %196 = getelementptr inbounds %"struct.std::_Vector_base<dealii::Tensor<2, 3>, std::allocator<dealii::Tensor<2, 3> > >::_Vector_impl_data", ptr %195, i64 0, i32 1
  %197 = load ptr, ptr %196, align 8, !tbaa !33
  %198 = load ptr, ptr %195, align 8, !tbaa !51
  %199 = ptrtoint ptr %197 to i64
  %200 = ptrtoint ptr %198 to i64
  %201 = sub i64 %199, %200
  %202 = sdiv exact i64 %201, 72
  %203 = icmp ult i64 %202, %185
  br i1 %203, label %204, label %208

204:                                              ; preds = %191
  %205 = sub nsw i64 %185, %202
  invoke void @_ZNSt6vectorIN6dealii6TensorILi2ELi3EEESaIS2_EE14_M_fill_insertEN9__gnu_cxx17__normal_iteratorIPS2_S4_EEmRKS2_(ptr noundef nonnull align 8 dereferenceable(24) %195, ptr %197, i64 noundef %205, ptr noundef nonnull align 8 dereferenceable(72) %13)
          to label %206 unwind label %219

206:                                              ; preds = %204
  %207 = load i32, ptr %129, align 8, !tbaa !129
  br label %214

208:                                              ; preds = %191
  %209 = icmp ugt i64 %202, %185
  br i1 %209, label %210, label %214

210:                                              ; preds = %208
  %211 = getelementptr inbounds %"class.dealii::Tensor.84", ptr %198, i64 %185
  %212 = icmp eq ptr %197, %211
  br i1 %212, label %214, label %213

213:                                              ; preds = %210
  store ptr %211, ptr %196, align 8, !tbaa !49
  br label %214

214:                                              ; preds = %206, %213, %210, %208
  %215 = phi i32 [ %207, %206 ], [ %192, %213 ], [ %192, %210 ], [ %192, %208 ]
  %216 = add nuw nsw i64 %193, 1
  %217 = zext i32 %215 to i64
  %218 = icmp ult i64 %216, %217
  br i1 %218, label %191, label %221

219:                                              ; preds = %204
  %220 = landingpad { ptr, i32 }
          cleanup
  br label %446

221:                                              ; preds = %214, %181, %125
  %222 = and i32 %29, 4
  %223 = icmp eq i32 %222, 0
  br i1 %223, label %225, label %224

224:                                              ; preds = %221
  invoke void @_ZN6dealii13FiniteElementILi3ELi3EE16InternalDataBase14initialize_2ndEPKS1_RKNS_7MappingILi3ELi3EEERKNS_10QuadratureILi3EEE(ptr noundef nonnull align 8 dereferenceable(216) %14, ptr noundef nonnull %0, ptr noundef nonnull align 8 dereferenceable(72) %2, ptr noundef nonnull align 8 dereferenceable(128) %3)
          to label %225 unwind label %88

225:                                              ; preds = %224, %221
  %226 = and i32 %29, 3
  %227 = icmp ne i32 %226, 0
  %228 = and i64 %37, 34359738360
  %229 = icmp ne i64 %228, 0
  %230 = select i1 %227, i1 %229, i1 false
  br i1 %230, label %231, label %438

231:                                              ; preds = %225
  %232 = getelementptr inbounds %"class.dealii::Quadrature", ptr %3, i64 0, i32 2
  %233 = getelementptr inbounds %"class.dealii::FE_PolyTensor", ptr %0, i64 0, i32 3
  %234 = getelementptr inbounds %"class.dealii::FE_PolyTensor", ptr %0, i64 0, i32 4, i32 0, i32 0, i32 3, i32 0, i32 0, i64 1
  %235 = getelementptr inbounds i8, ptr %0, i64 112
  %236 = getelementptr inbounds %"class.dealii::FE_PolyTensor", ptr %0, i64 0, i32 4, i32 0, i32 0, i32 1
  %237 = getelementptr inbounds %"class.dealii::FE_PolyTensor<dealii::PolynomialsRaviartThomas<3>, 3>::InternalData", ptr %14, i64 0, i32 2
  %238 = and i64 %38, 4294967295
  br label %239

239:                                              ; preds = %231, %435
  %240 = phi i64 [ 0, %231 ], [ %436, %435 ]
  %241 = load ptr, ptr %232, align 8, !tbaa !136
  %242 = getelementptr inbounds %"class.dealii::Point", ptr %241, i64 %240
  invoke void @_ZNK6dealii24PolynomialsRaviartThomasILi3EE7computeERKNS_5PointILi3EEERSt6vectorINS_6TensorILi1ELi3EEESaIS8_EERS6_INS7_ILi2ELi3EEESaISC_EERS6_INS7_ILi3ELi3EEESaISG_EE(ptr noundef nonnull align 8 dereferenceable(44) %233, ptr noundef nonnull align 8 dereferenceable(24) %242, ptr noundef nonnull align 8 dereferenceable(24) %5, ptr noundef nonnull align 8 dereferenceable(24) %6, ptr noundef nonnull align 8 dereferenceable(24) %7)
          to label %243 unwind label %264

243:                                              ; preds = %239
  br i1 %41, label %344, label %244

244:                                              ; preds = %243
  %245 = load i32, ptr %234, align 8, !tbaa !34
  %246 = icmp eq i32 %245, 0
  %247 = load i32, ptr %235, align 8, !tbaa !129
  %248 = icmp eq i32 %247, 0
  br i1 %246, label %255, label %249

249:                                              ; preds = %244
  br i1 %248, label %344, label %250

250:                                              ; preds = %249
  %251 = load ptr, ptr %236, align 8, !tbaa !35
  %252 = load ptr, ptr %5, align 8, !tbaa !25
  %253 = load ptr, ptr %17, align 8, !tbaa !130
  %254 = zext i32 %247 to i64
  br label %295

255:                                              ; preds = %244
  br i1 %248, label %344, label %256

256:                                              ; preds = %255
  %257 = load ptr, ptr %5, align 8, !tbaa !25
  %258 = load ptr, ptr %17, align 8, !tbaa !130
  %259 = zext i32 %247 to i64
  %260 = and i64 %259, 1
  %261 = icmp eq i32 %247, 1
  br i1 %261, label %329, label %262

262:                                              ; preds = %256
  %263 = and i64 %259, 4294967294
  br label %266

264:                                              ; preds = %239
  %265 = landingpad { ptr, i32 }
          cleanup
  br label %446

266:                                              ; preds = %266, %262
  %267 = phi i64 [ 0, %262 ], [ %292, %266 ]
  %268 = phi i64 [ 0, %262 ], [ %293, %266 ]
  %269 = getelementptr inbounds %"class.dealii::Tensor", ptr %257, i64 %267
  %270 = getelementptr inbounds %"class.std::vector.67", ptr %258, i64 %267
  %271 = load ptr, ptr %270, align 8, !tbaa !25
  %272 = getelementptr inbounds %"class.dealii::Tensor", ptr %271, i64 %240
  %273 = load double, ptr %269, align 8, !tbaa !8
  store double %273, ptr %272, align 8, !tbaa !8
  %274 = getelementptr inbounds [3 x double], ptr %269, i64 0, i64 1
  %275 = load double, ptr %274, align 8, !tbaa !8
  %276 = getelementptr inbounds [3 x double], ptr %272, i64 0, i64 1
  store double %275, ptr %276, align 8, !tbaa !8
  %277 = getelementptr inbounds [3 x double], ptr %269, i64 0, i64 2
  %278 = load double, ptr %277, align 8, !tbaa !8
  %279 = getelementptr inbounds [3 x double], ptr %272, i64 0, i64 2
  store double %278, ptr %279, align 8, !tbaa !8
  %280 = or i64 %267, 1
  %281 = getelementptr inbounds %"class.dealii::Tensor", ptr %257, i64 %280
  %282 = getelementptr inbounds %"class.std::vector.67", ptr %258, i64 %280
  %283 = load ptr, ptr %282, align 8, !tbaa !25
  %284 = getelementptr inbounds %"class.dealii::Tensor", ptr %283, i64 %240
  %285 = load double, ptr %281, align 8, !tbaa !8
  store double %285, ptr %284, align 8, !tbaa !8
  %286 = getelementptr inbounds [3 x double], ptr %281, i64 0, i64 1
  %287 = load double, ptr %286, align 8, !tbaa !8
  %288 = getelementptr inbounds [3 x double], ptr %284, i64 0, i64 1
  store double %287, ptr %288, align 8, !tbaa !8
  %289 = getelementptr inbounds [3 x double], ptr %281, i64 0, i64 2
  %290 = load double, ptr %289, align 8, !tbaa !8
  %291 = getelementptr inbounds [3 x double], ptr %284, i64 0, i64 2
  store double %290, ptr %291, align 8, !tbaa !8
  %292 = add nuw nsw i64 %267, 2
  %293 = add i64 %268, 2
  %294 = icmp eq i64 %293, %263
  br i1 %294, label %329, label %266

295:                                              ; preds = %250, %304
  %296 = phi i64 [ 0, %250 ], [ %305, %304 ]
  %297 = getelementptr inbounds %"class.std::vector.67", ptr %253, i64 %296
  %298 = load ptr, ptr %297, align 8, !tbaa !25
  %299 = getelementptr inbounds %"class.dealii::Tensor", ptr %298, i64 %240
  %300 = getelementptr inbounds [3 x double], ptr %299, i64 0, i64 2
  %301 = load <2 x double>, ptr %299, align 8, !tbaa !8
  %302 = load double, ptr %300, align 8, !tbaa !8
  %303 = trunc i64 %296 to i32
  br label %307

304:                                              ; preds = %307
  %305 = add nuw nsw i64 %296, 1
  %306 = icmp eq i64 %305, %254
  br i1 %306, label %344, label %295

307:                                              ; preds = %295, %307
  %308 = phi i64 [ 0, %295 ], [ %327, %307 ]
  %309 = phi double [ %302, %295 ], [ %326, %307 ]
  %310 = phi <2 x double> [ %301, %295 ], [ %325, %307 ]
  %311 = trunc i64 %308 to i32
  %312 = mul i32 %245, %311
  %313 = add i32 %312, %303
  %314 = zext i32 %313 to i64
  %315 = getelementptr inbounds double, ptr %251, i64 %314
  %316 = load double, ptr %315, align 8, !tbaa !8
  %317 = getelementptr inbounds %"class.dealii::Tensor", ptr %252, i64 %308
  %318 = getelementptr inbounds [3 x double], ptr %317, i64 0, i64 2
  %319 = load double, ptr %318, align 8, !tbaa !8, !noalias !137
  %320 = fmul double %316, %319
  %321 = load <2 x double>, ptr %317, align 8, !tbaa !8, !noalias !137
  %322 = insertelement <2 x double> poison, double %316, i64 0
  %323 = shufflevector <2 x double> %322, <2 x double> poison, <2 x i32> zeroinitializer
  %324 = fmul <2 x double> %323, %321
  %325 = fadd <2 x double> %324, %310
  store <2 x double> %325, ptr %299, align 8, !tbaa !8
  %326 = fadd double %320, %309
  store double %326, ptr %300, align 8, !tbaa !8
  %327 = add nuw nsw i64 %308, 1
  %328 = icmp eq i64 %327, %254
  br i1 %328, label %304, label %307

329:                                              ; preds = %266, %256
  %330 = phi i64 [ 0, %256 ], [ %292, %266 ]
  %331 = icmp eq i64 %260, 0
  br i1 %331, label %344, label %332

332:                                              ; preds = %329
  %333 = getelementptr inbounds %"class.dealii::Tensor", ptr %257, i64 %330
  %334 = getelementptr inbounds %"class.std::vector.67", ptr %258, i64 %330
  %335 = load ptr, ptr %334, align 8, !tbaa !25
  %336 = getelementptr inbounds %"class.dealii::Tensor", ptr %335, i64 %240
  %337 = load double, ptr %333, align 8, !tbaa !8
  store double %337, ptr %336, align 8, !tbaa !8
  %338 = getelementptr inbounds [3 x double], ptr %333, i64 0, i64 1
  %339 = load double, ptr %338, align 8, !tbaa !8
  %340 = getelementptr inbounds [3 x double], ptr %336, i64 0, i64 1
  store double %339, ptr %340, align 8, !tbaa !8
  %341 = getelementptr inbounds [3 x double], ptr %333, i64 0, i64 2
  %342 = load double, ptr %341, align 8, !tbaa !8
  %343 = getelementptr inbounds [3 x double], ptr %336, i64 0, i64 2
  store double %342, ptr %343, align 8, !tbaa !8
  br label %344

344:                                              ; preds = %304, %332, %329, %249, %255, %243
  br i1 %127, label %435, label %345

345:                                              ; preds = %344
  %346 = load i32, ptr %234, align 8, !tbaa !34
  %347 = icmp eq i32 %346, 0
  %348 = load i32, ptr %235, align 8, !tbaa !129
  %349 = icmp eq i32 %348, 0
  br i1 %347, label %356, label %350

350:                                              ; preds = %345
  br i1 %349, label %435, label %351

351:                                              ; preds = %350
  %352 = load ptr, ptr %236, align 8, !tbaa !35
  %353 = load ptr, ptr %6, align 8, !tbaa !51
  %354 = load ptr, ptr %237, align 8, !tbaa !133
  %355 = zext i32 %348 to i64
  br label %394

356:                                              ; preds = %345
  br i1 %349, label %435, label %357

357:                                              ; preds = %356
  %358 = load ptr, ptr %6, align 8, !tbaa !51
  %359 = load ptr, ptr %237, align 8, !tbaa !133
  %360 = zext i32 %348 to i64
  br label %361

361:                                              ; preds = %357, %361
  %362 = phi i64 [ 0, %357 ], [ %392, %361 ]
  %363 = getelementptr inbounds %"class.dealii::Tensor.84", ptr %358, i64 %362
  %364 = getelementptr inbounds %"class.std::vector.72", ptr %359, i64 %362
  %365 = load ptr, ptr %364, align 8, !tbaa !51
  %366 = getelementptr inbounds %"class.dealii::Tensor.84", ptr %365, i64 %240
  %367 = load double, ptr %363, align 8, !tbaa !8
  store double %367, ptr %366, align 8, !tbaa !8
  %368 = getelementptr inbounds [3 x double], ptr %363, i64 0, i64 1
  %369 = load double, ptr %368, align 8, !tbaa !8
  %370 = getelementptr inbounds [3 x double], ptr %366, i64 0, i64 1
  store double %369, ptr %370, align 8, !tbaa !8
  %371 = getelementptr inbounds [3 x double], ptr %363, i64 0, i64 2
  %372 = load double, ptr %371, align 8, !tbaa !8
  %373 = getelementptr inbounds [3 x double], ptr %366, i64 0, i64 2
  store double %372, ptr %373, align 8, !tbaa !8
  %374 = getelementptr inbounds [3 x %"class.dealii::Tensor"], ptr %363, i64 0, i64 1
  %375 = getelementptr inbounds [3 x %"class.dealii::Tensor"], ptr %366, i64 0, i64 1
  %376 = load double, ptr %374, align 8, !tbaa !8
  store double %376, ptr %375, align 8, !tbaa !8
  %377 = getelementptr inbounds [3 x %"class.dealii::Tensor"], ptr %363, i64 0, i64 1, i32 0, i64 1
  %378 = load double, ptr %377, align 8, !tbaa !8
  %379 = getelementptr inbounds [3 x %"class.dealii::Tensor"], ptr %366, i64 0, i64 1, i32 0, i64 1
  store double %378, ptr %379, align 8, !tbaa !8
  %380 = getelementptr inbounds [3 x %"class.dealii::Tensor"], ptr %363, i64 0, i64 1, i32 0, i64 2
  %381 = load double, ptr %380, align 8, !tbaa !8
  %382 = getelementptr inbounds [3 x %"class.dealii::Tensor"], ptr %366, i64 0, i64 1, i32 0, i64 2
  store double %381, ptr %382, align 8, !tbaa !8
  %383 = getelementptr inbounds [3 x %"class.dealii::Tensor"], ptr %363, i64 0, i64 2
  %384 = getelementptr inbounds [3 x %"class.dealii::Tensor"], ptr %366, i64 0, i64 2
  %385 = load double, ptr %383, align 8, !tbaa !8
  store double %385, ptr %384, align 8, !tbaa !8
  %386 = getelementptr inbounds [3 x %"class.dealii::Tensor"], ptr %363, i64 0, i64 2, i32 0, i64 1
  %387 = load double, ptr %386, align 8, !tbaa !8
  %388 = getelementptr inbounds [3 x %"class.dealii::Tensor"], ptr %366, i64 0, i64 2, i32 0, i64 1
  store double %387, ptr %388, align 8, !tbaa !8
  %389 = getelementptr inbounds [3 x %"class.dealii::Tensor"], ptr %363, i64 0, i64 2, i32 0, i64 2
  %390 = load double, ptr %389, align 8, !tbaa !8
  %391 = getelementptr inbounds [3 x %"class.dealii::Tensor"], ptr %366, i64 0, i64 2, i32 0, i64 2
  store double %390, ptr %391, align 8, !tbaa !8
  %392 = add nuw nsw i64 %362, 1
  %393 = icmp eq i64 %392, %360
  br i1 %393, label %435, label %361

394:                                              ; preds = %351, %405
  %395 = phi i64 [ 0, %351 ], [ %406, %405 ]
  %396 = getelementptr inbounds %"class.std::vector.72", ptr %354, i64 %395
  %397 = load ptr, ptr %396, align 8, !tbaa !51
  %398 = getelementptr inbounds %"class.dealii::Tensor.84", ptr %397, i64 %240
  %399 = getelementptr inbounds [3 x %"class.dealii::Tensor"], ptr %398, i64 0, i64 1, i32 0, i64 1
  %400 = getelementptr inbounds [3 x %"class.dealii::Tensor"], ptr %398, i64 0, i64 2, i32 0, i64 2
  %401 = load <4 x double>, ptr %398, align 8, !tbaa !8
  %402 = load <4 x double>, ptr %399, align 8, !tbaa !8
  %403 = load double, ptr %400, align 8, !tbaa !8
  %404 = trunc i64 %395 to i32
  br label %408

405:                                              ; preds = %408
  %406 = add nuw nsw i64 %395, 1
  %407 = icmp eq i64 %406, %355
  br i1 %407, label %435, label %394

408:                                              ; preds = %394, %408
  %409 = phi i64 [ 0, %394 ], [ %433, %408 ]
  %410 = phi double [ %403, %394 ], [ %432, %408 ]
  %411 = phi <4 x double> [ %401, %394 ], [ %428, %408 ]
  %412 = phi <4 x double> [ %402, %394 ], [ %431, %408 ]
  %413 = trunc i64 %409 to i32
  %414 = mul i32 %346, %413
  %415 = add i32 %414, %404
  %416 = zext i32 %415 to i64
  %417 = getelementptr inbounds double, ptr %352, i64 %416
  %418 = load double, ptr %417, align 8, !tbaa !8
  %419 = getelementptr inbounds %"class.dealii::Tensor.84", ptr %353, i64 %409
  %420 = getelementptr inbounds [3 x %"class.dealii::Tensor"], ptr %419, i64 0, i64 1, i32 0, i64 1
  %421 = getelementptr inbounds [3 x %"class.dealii::Tensor"], ptr %419, i64 0, i64 2, i32 0, i64 2
  %422 = load double, ptr %421, align 8, !tbaa !8, !noalias !140
  %423 = fmul double %418, %422
  %424 = load <4 x double>, ptr %419, align 8, !tbaa !8, !noalias !140
  %425 = insertelement <4 x double> poison, double %418, i64 0
  %426 = shufflevector <4 x double> %425, <4 x double> poison, <4 x i32> zeroinitializer
  %427 = fmul <4 x double> %426, %424
  %428 = fadd <4 x double> %427, %411
  %429 = load <4 x double>, ptr %420, align 8, !tbaa !8, !noalias !140
  %430 = fmul <4 x double> %426, %429
  store <4 x double> %428, ptr %398, align 8, !tbaa !8
  %431 = fadd <4 x double> %430, %412
  store <4 x double> %431, ptr %399, align 8, !tbaa !8
  %432 = fadd double %423, %410
  store double %432, ptr %400, align 8, !tbaa !8
  %433 = add nuw nsw i64 %409, 1
  %434 = icmp eq i64 %433, %355
  br i1 %434, label %405, label %408

435:                                              ; preds = %405, %361, %350, %356, %344
  %436 = add nuw nsw i64 %240, 1
  %437 = icmp eq i64 %436, %238
  br i1 %437, label %438, label %239

438:                                              ; preds = %435, %225
  %439 = load ptr, ptr %7, align 8, !tbaa !57
  %440 = icmp eq ptr %439, null
  br i1 %440, label %442, label %441

441:                                              ; preds = %438
  call void @_ZdlPv(ptr noundef nonnull %439) #17
  br label %442

442:                                              ; preds = %441, %438
  call void @llvm.lifetime.end.p0(i64 24, ptr nonnull %7) #15
  %443 = load ptr, ptr %6, align 8, !tbaa !51
  %444 = icmp eq ptr %443, null
  br i1 %444, label %455, label %445

445:                                              ; preds = %442
  call void @_ZdlPv(ptr noundef nonnull %443) #17
  br label %455

446:                                              ; preds = %190, %186, %94, %90, %264, %219, %123, %88
  %447 = phi { ptr, i32 } [ %124, %123 ], [ %220, %219 ], [ %89, %88 ], [ %265, %264 ], [ %91, %90 ], [ %91, %94 ], [ %187, %186 ], [ %187, %190 ]
  %448 = load ptr, ptr %7, align 8, !tbaa !57
  %449 = icmp eq ptr %448, null
  br i1 %449, label %451, label %450

450:                                              ; preds = %446
  call void @_ZdlPv(ptr noundef nonnull %448) #17
  br label %451

451:                                              ; preds = %450, %446
  call void @llvm.lifetime.end.p0(i64 24, ptr nonnull %7) #15
  %452 = load ptr, ptr %6, align 8, !tbaa !51
  %453 = icmp eq ptr %452, null
  br i1 %453, label %460, label %454

454:                                              ; preds = %451
  call void @_ZdlPv(ptr noundef nonnull %452) #17
  br label %460

455:                                              ; preds = %445, %442
  call void @llvm.lifetime.end.p0(i64 24, ptr nonnull %6) #15
  %456 = load ptr, ptr %5, align 8, !tbaa !25
  %457 = icmp eq ptr %456, null
  br i1 %457, label %459, label %458

458:                                              ; preds = %455
  call void @_ZdlPv(ptr noundef nonnull %456) #17
  br label %459

459:                                              ; preds = %455, %458
  call void @llvm.lifetime.end.p0(i64 24, ptr nonnull %5) #15
  ret ptr %14

460:                                              ; preds = %454, %451
  call void @llvm.lifetime.end.p0(i64 24, ptr nonnull %6) #15
  %461 = load ptr, ptr %5, align 8, !tbaa !25
  %462 = icmp eq ptr %461, null
  br i1 %462, label %464, label %463

463:                                              ; preds = %460
  call void @_ZdlPv(ptr noundef nonnull %461) #17
  br label %464

464:                                              ; preds = %463, %460
  call void @llvm.lifetime.end.p0(i64 24, ptr nonnull %5) #15
  br label %465

465:                                              ; preds = %464, %86
  %466 = phi { ptr, i32 } [ %447, %464 ], [ %87, %86 ]
  resume { ptr, i32 } %466
}

; Function Attrs: nobuiltin allocsize(0)
declare noundef nonnull ptr @_Znwm(i64 noundef) local_unnamed_addr #6

; Function Attrs: nobuiltin nounwind
declare void @_ZdlPv(ptr noundef) local_unnamed_addr #7

declare void @_ZN6dealii13FiniteElementILi3ELi3EE16InternalDataBase14initialize_2ndEPKS1_RKNS_7MappingILi3ELi3EEERKNS_10QuadratureILi3EEE(ptr noundef nonnull align 8 dereferenceable(216), ptr noundef, ptr noundef nonnull align 8 dereferenceable(72), ptr noundef nonnull align 8 dereferenceable(128)) local_unnamed_addr #1

; Function Attrs: sspstrong uwtable
define weak_odr dso_local void @_ZNK6dealii13FE_PolyTensorINS_24PolynomialsRaviartThomasILi3EEELi3ELi3EE14fill_fe_valuesERKNS_7MappingILi3ELi3EEERKNS_12TriaIteratorINS_12CellAccessorILi3ELi3EEEEERKNS_10QuadratureILi3EEERNS5_16InternalDataBaseESJ_RNS_12FEValuesDataILi3ELi3EEERNS_14CellSimilarity10SimilarityE(ptr noundef nonnull align 8 dereferenceable(976) %0, ptr noundef nonnull align 8 dereferenceable(72) %1, ptr noundef nonnull align 8 dereferenceable(16) %2, ptr noundef nonnull align 8 dereferenceable(128) %3, ptr noundef nonnull align 8 dereferenceable(185) %4, ptr noundef nonnull align 8 dereferenceable(185) %5, ptr noundef nonnull align 8 dereferenceable(436) %6, ptr noundef nonnull align 4 dereferenceable(4) %7) unnamed_addr #0 comdat align 2 personality ptr @__gxx_personality_v0 {
  %9 = alloca %"class.std::vector.67", align 8
  %10 = alloca %"class.std::vector.67", align 8
  %11 = alloca %"class.std::vector.72", align 8
  %12 = alloca %"class.dealii::QProjector<3>::DataSetDescriptor", align 4
  %13 = alloca %"class.dealii::QProjector<3>::DataSetDescriptor", align 4
  %14 = getelementptr inbounds %"class.dealii::Quadrature", ptr %3, i64 0, i32 3
  %15 = getelementptr inbounds %"class.dealii::Quadrature", ptr %3, i64 0, i32 3, i32 0, i32 0, i32 0, i32 1
  %16 = load ptr, ptr %15, align 8, !tbaa !127
  %17 = load ptr, ptr %14, align 8, !tbaa !128
  %18 = ptrtoint ptr %16 to i64
  %19 = ptrtoint ptr %17 to i64
  %20 = sub i64 %18, %19
  %21 = lshr exact i64 %20, 3
  %22 = getelementptr inbounds %"class.dealii::Mapping<3, 3>::InternalDataBase", ptr %5, i64 0, i32 9
  %23 = load i8, ptr %22, align 8, !tbaa !143, !range !144, !noundef !145
  %24 = icmp eq i8 %23, 0
  %25 = getelementptr inbounds %"class.dealii::Mapping<3, 3>::InternalDataBase", ptr %5, i64 0, i32 1
  %26 = getelementptr inbounds %"class.dealii::Mapping<3, 3>::InternalDataBase", ptr %5, i64 0, i32 3
  %27 = load i32, ptr %26, align 8
  %28 = load i32, ptr %25, align 8
  %29 = select i1 %24, i32 %27, i32 %28
  %30 = getelementptr inbounds i8, ptr %0, i64 112
  %31 = load i32, ptr %30, align 8, !tbaa !129
  %32 = icmp eq i32 %31, 0
  br i1 %32, label %89, label %33

33:                                               ; preds = %8
  %34 = zext i32 %31 to i64
  %35 = shl nuw nsw i64 %34, 3
  %36 = tail call noalias noundef nonnull ptr @_Znwm(i64 noundef %35) #16
  %37 = getelementptr inbounds double, ptr %36, i64 %34
  %38 = add nuw nsw i64 %34, 2305843009213693951
  %39 = and i64 %38, 2305843009213693951
  %40 = add nuw nsw i64 %39, 1
  %41 = icmp ult i64 %39, 15
  br i1 %41, label %57, label %42

42:                                               ; preds = %33
  %43 = and i64 %40, 4611686018427387888
  %44 = shl i64 %43, 3
  %45 = getelementptr i8, ptr %36, i64 %44
  br label %46

46:                                               ; preds = %46, %42
  %47 = phi i64 [ 0, %42 ], [ %53, %46 ]
  %48 = shl i64 %47, 3
  %49 = getelementptr i8, ptr %36, i64 %48
  store <4 x double> <double 1.000000e+00, double 1.000000e+00, double 1.000000e+00, double 1.000000e+00>, ptr %49, align 8, !tbaa !8
  %50 = getelementptr double, ptr %49, i64 4
  store <4 x double> <double 1.000000e+00, double 1.000000e+00, double 1.000000e+00, double 1.000000e+00>, ptr %50, align 8, !tbaa !8
  %51 = getelementptr double, ptr %49, i64 8
  store <4 x double> <double 1.000000e+00, double 1.000000e+00, double 1.000000e+00, double 1.000000e+00>, ptr %51, align 8, !tbaa !8
  %52 = getelementptr double, ptr %49, i64 12
  store <4 x double> <double 1.000000e+00, double 1.000000e+00, double 1.000000e+00, double 1.000000e+00>, ptr %52, align 8, !tbaa !8
  %53 = add nuw i64 %47, 16
  %54 = icmp eq i64 %53, %43
  br i1 %54, label %55, label %46, !llvm.loop !146

55:                                               ; preds = %46
  %56 = icmp eq i64 %40, %43
  br i1 %56, label %63, label %57

57:                                               ; preds = %33, %55
  %58 = phi ptr [ %36, %33 ], [ %45, %55 ]
  br label %59

59:                                               ; preds = %57, %59
  %60 = phi ptr [ %61, %59 ], [ %58, %57 ]
  store double 1.000000e+00, ptr %60, align 8, !tbaa !8
  %61 = getelementptr inbounds double, ptr %60, i64 1
  %62 = icmp eq ptr %61, %37
  br i1 %62, label %63, label %59, !llvm.loop !149

63:                                               ; preds = %59, %55
  %64 = add nuw nsw i64 %34, 2305843009213693951
  %65 = and i64 %64, 2305843009213693951
  %66 = add nuw nsw i64 %65, 1
  %67 = icmp ult i64 %65, 15
  br i1 %67, label %83, label %68

68:                                               ; preds = %63
  %69 = and i64 %66, 4611686018427387888
  %70 = shl i64 %69, 3
  %71 = getelementptr i8, ptr %36, i64 %70
  br label %72

72:                                               ; preds = %72, %68
  %73 = phi i64 [ 0, %68 ], [ %79, %72 ]
  %74 = shl i64 %73, 3
  %75 = getelementptr i8, ptr %36, i64 %74
  store <4 x double> <double 1.000000e+00, double 1.000000e+00, double 1.000000e+00, double 1.000000e+00>, ptr %75, align 8, !tbaa !8
  %76 = getelementptr double, ptr %75, i64 4
  store <4 x double> <double 1.000000e+00, double 1.000000e+00, double 1.000000e+00, double 1.000000e+00>, ptr %76, align 8, !tbaa !8
  %77 = getelementptr double, ptr %75, i64 8
  store <4 x double> <double 1.000000e+00, double 1.000000e+00, double 1.000000e+00, double 1.000000e+00>, ptr %77, align 8, !tbaa !8
  %78 = getelementptr double, ptr %75, i64 12
  store <4 x double> <double 1.000000e+00, double 1.000000e+00, double 1.000000e+00, double 1.000000e+00>, ptr %78, align 8, !tbaa !8
  %79 = add nuw i64 %73, 16
  %80 = icmp eq i64 %79, %69
  br i1 %80, label %81, label %72, !llvm.loop !150

81:                                               ; preds = %72
  %82 = icmp eq i64 %66, %69
  br i1 %82, label %89, label %83

83:                                               ; preds = %63, %81
  %84 = phi ptr [ %36, %63 ], [ %71, %81 ]
  br label %85

85:                                               ; preds = %83, %85
  %86 = phi ptr [ %87, %85 ], [ %84, %83 ]
  store double 1.000000e+00, ptr %86, align 8, !tbaa !8
  %87 = getelementptr inbounds double, ptr %86, i64 1
  %88 = icmp eq ptr %87, %37
  br i1 %88, label %89, label %85, !llvm.loop !151

89:                                               ; preds = %85, %81, %8
  %90 = phi ptr [ null, %8 ], [ %36, %81 ], [ %36, %85 ]
  %91 = getelementptr inbounds %"class.dealii::FE_PolyTensor", ptr %0, i64 0, i32 1
  %92 = load i32, ptr %91, align 8, !tbaa !61
  %93 = icmp eq i32 %92, 256
  %94 = load i32, ptr %7, align 4
  %95 = icmp eq i32 %94, 1
  %96 = select i1 %93, i1 %95, i1 false
  br i1 %96, label %97, label %98

97:                                               ; preds = %89
  store i32 0, ptr %7, align 4, !tbaa !152
  br label %98

98:                                               ; preds = %97, %89
  %99 = phi i32 [ 0, %97 ], [ %94, %89 ]
  br i1 %32, label %168, label %100

100:                                              ; preds = %98
  %101 = getelementptr inbounds %"class.dealii::FEValuesData", ptr %6, i64 0, i32 14
  %102 = and i32 %29, 1
  %103 = icmp eq i32 %102, 0
  %104 = and i64 %21, 4294967295
  %105 = icmp eq i64 %104, 0
  %106 = mul nuw nsw i64 %104, 24
  %107 = getelementptr inbounds %"struct.std::_Vector_base<dealii::Tensor<1, 3>, std::allocator<dealii::Tensor<1, 3> > >::_Vector_impl_data", ptr %10, i64 0, i32 2
  %108 = getelementptr inbounds %"struct.std::_Vector_base<dealii::Tensor<1, 3>, std::allocator<dealii::Tensor<1, 3> > >::_Vector_impl_data", ptr %10, i64 0, i32 1
  %109 = getelementptr inbounds %"class.dealii::FE_PolyTensor<dealii::PolynomialsRaviartThomas<3>, 3>::InternalData", ptr %5, i64 0, i32 1
  %110 = and i64 %20, 34359738360
  %111 = icmp eq i64 %110, 0
  %112 = getelementptr inbounds %"class.dealii::TableBase", ptr %6, i64 0, i32 1
  %113 = getelementptr inbounds %"class.dealii::TableBase", ptr %6, i64 0, i32 3, i32 0, i32 0, i64 1
  %114 = getelementptr inbounds %"struct.std::_Vector_base<dealii::Tensor<1, 3>, std::allocator<dealii::Tensor<1, 3> > >::_Vector_impl_data", ptr %9, i64 0, i32 2
  %115 = getelementptr inbounds %"struct.std::_Vector_base<dealii::Tensor<1, 3>, std::allocator<dealii::Tensor<1, 3> > >::_Vector_impl_data", ptr %9, i64 0, i32 1
  %116 = and i32 %29, 2
  %117 = icmp eq i32 %116, 0
  %118 = mul nuw nsw i64 %104, 72
  %119 = getelementptr inbounds %"struct.std::_Vector_base<dealii::Tensor<2, 3>, std::allocator<dealii::Tensor<2, 3> > >::_Vector_impl_data", ptr %11, i64 0, i32 2
  %120 = getelementptr inbounds %"struct.std::_Vector_base<dealii::Tensor<2, 3>, std::allocator<dealii::Tensor<2, 3> > >::_Vector_impl_data", ptr %11, i64 0, i32 1
  %121 = getelementptr inbounds %"class.dealii::FE_PolyTensor<dealii::PolynomialsRaviartThomas<3>, 3>::InternalData", ptr %5, i64 0, i32 2
  %122 = getelementptr inbounds %"class.dealii::FEValuesData", ptr %6, i64 0, i32 1
  %123 = and i64 %21, 4294967295
  %124 = and i64 %21, 4294967295
  %125 = and i64 %21, 4294967295
  %126 = and i64 %21, 4294967295
  %127 = and i64 %21, 4294967295
  %128 = and i64 %21, 4294967295
  %129 = and i64 %21, 4294967295
  %130 = add nsw i64 %123, -1
  %131 = mul nuw nsw i64 %123, 24
  %132 = add nsw i64 %131, -16
  %133 = add nsw i64 %131, -8
  %134 = add nsw i64 %123, -1
  %135 = mul nuw nsw i64 %123, 24
  %136 = add nsw i64 %135, -16
  %137 = add nsw i64 %135, -8
  %138 = add nsw i64 %123, -1
  %139 = mul nuw nsw i64 %123, 24
  %140 = add nsw i64 %139, -16
  %141 = add nsw i64 %139, -8
  %142 = icmp ult i64 %123, 40
  %143 = trunc i64 %138 to i32
  %144 = trunc i64 %138 to i32
  %145 = icmp ugt i64 %138, 4294967295
  %146 = trunc i64 %138 to i32
  %147 = and i64 %21, 3
  %148 = sub nsw i64 %123, %147
  %149 = icmp eq i64 %147, 0
  %150 = icmp ult i64 %123, 60
  %151 = trunc i64 %134 to i32
  %152 = trunc i64 %134 to i32
  %153 = icmp ugt i64 %134, 4294967295
  %154 = trunc i64 %134 to i32
  %155 = and i64 %21, 3
  %156 = sub nsw i64 %123, %155
  %157 = icmp eq i64 %155, 0
  %158 = icmp ult i64 %123, 60
  %159 = trunc i64 %130 to i32
  %160 = trunc i64 %130 to i32
  %161 = icmp ugt i64 %130, 4294967295
  %162 = trunc i64 %130 to i32
  %163 = and i64 %21, 3
  %164 = sub nsw i64 %123, %163
  %165 = icmp eq i64 %163, 0
  br label %174

166:                                              ; preds = %1100
  %167 = load i32, ptr %7, align 4
  br label %168

168:                                              ; preds = %166, %98
  %169 = phi i32 [ %167, %166 ], [ %99, %98 ]
  %170 = and i32 %29, 4
  %171 = icmp eq i32 %170, 0
  %172 = icmp eq i32 %169, 1
  %173 = select i1 %171, i1 true, i1 %172
  br i1 %173, label %1114, label %1105

174:                                              ; preds = %100, %1100
  %175 = phi i64 [ 0, %100 ], [ %1101, %1100 ]
  %176 = shl nuw nsw i64 %175, 3
  %177 = getelementptr i8, ptr %90, i64 %176
  %178 = add nuw i64 %176, 8
  %179 = getelementptr i8, ptr %90, i64 %178
  %180 = load ptr, ptr %101, align 8, !tbaa !154
  %181 = getelementptr inbounds i32, ptr %180, i64 %175
  %182 = load i32, ptr %181, align 4, !tbaa !34
  %183 = load i32, ptr %7, align 4
  %184 = icmp eq i32 %183, 1
  %185 = select i1 %103, i1 true, i1 %184
  br i1 %185, label %793, label %186

186:                                              ; preds = %174
  %187 = load i32, ptr %91, align 8, !tbaa !61
  switch i32 %187, label %793 [
    i32 0, label %188
    i32 1, label %353
    i32 2, label %353
    i32 256, label %557
  ]

188:                                              ; preds = %186
  br i1 %111, label %793, label %189

189:                                              ; preds = %188
  %190 = load ptr, ptr %109, align 8, !tbaa !130
  %191 = getelementptr inbounds %"class.std::vector.67", ptr %190, i64 %175
  %192 = load ptr, ptr %191, align 8, !tbaa !25
  %193 = load ptr, ptr %112, align 8, !tbaa !35
  %194 = load i32, ptr %113, align 8, !tbaa !34
  %195 = mul i32 %194, %182
  %196 = add i32 %182, 1
  %197 = mul i32 %194, %196
  %198 = add i32 %182, 2
  %199 = mul i32 %194, %198
  br i1 %158, label %331, label %200

200:                                              ; preds = %189
  %201 = xor i32 %195, -1
  %202 = icmp ult i32 %201, %159
  %203 = xor i32 %197, -1
  %204 = icmp ult i32 %203, %160
  %205 = or i1 %204, %161
  %206 = xor i32 %199, -1
  %207 = icmp ult i32 %206, %162
  %208 = or i1 %202, %205
  %209 = or i1 %207, %208
  br i1 %209, label %331, label %210

210:                                              ; preds = %200
  %211 = zext i32 %195 to i64
  %212 = shl nuw nsw i64 %211, 3
  %213 = getelementptr i8, ptr %193, i64 %212
  %214 = getelementptr i8, ptr %193, i64 %110
  %215 = getelementptr i8, ptr %214, i64 %212
  %216 = zext i32 %197 to i64
  %217 = shl nuw nsw i64 %216, 3
  %218 = getelementptr i8, ptr %193, i64 %217
  %219 = getelementptr i8, ptr %214, i64 %217
  %220 = zext i32 %199 to i64
  %221 = shl nuw nsw i64 %220, 3
  %222 = getelementptr i8, ptr %193, i64 %221
  %223 = getelementptr i8, ptr %193, i64 %110
  %224 = getelementptr i8, ptr %223, i64 %221
  %225 = getelementptr i8, ptr %192, i64 %132
  %226 = getelementptr i8, ptr %192, i64 8
  %227 = getelementptr i8, ptr %192, i64 %133
  %228 = getelementptr i8, ptr %192, i64 16
  %229 = getelementptr i8, ptr %192, i64 %131
  %230 = icmp ult ptr %213, %219
  %231 = icmp ult ptr %218, %215
  %232 = and i1 %230, %231
  %233 = icmp ult ptr %213, %224
  %234 = icmp ult ptr %222, %215
  %235 = and i1 %233, %234
  %236 = or i1 %232, %235
  %237 = icmp ult ptr %213, %225
  %238 = icmp ult ptr %192, %215
  %239 = and i1 %237, %238
  %240 = or i1 %236, %239
  %241 = icmp ult ptr %213, %227
  %242 = icmp ult ptr %226, %215
  %243 = and i1 %241, %242
  %244 = or i1 %240, %243
  %245 = icmp ult ptr %213, %229
  %246 = icmp ult ptr %228, %215
  %247 = and i1 %245, %246
  %248 = or i1 %244, %247
  %249 = icmp ult ptr %218, %224
  %250 = icmp ult ptr %222, %219
  %251 = and i1 %249, %250
  %252 = or i1 %248, %251
  %253 = icmp ult ptr %218, %225
  %254 = icmp ult ptr %192, %219
  %255 = and i1 %253, %254
  %256 = or i1 %252, %255
  %257 = icmp ult ptr %218, %227
  %258 = icmp ult ptr %226, %219
  %259 = and i1 %257, %258
  %260 = or i1 %256, %259
  %261 = icmp ult ptr %218, %229
  %262 = icmp ult ptr %228, %219
  %263 = and i1 %261, %262
  %264 = or i1 %260, %263
  %265 = icmp ult ptr %222, %225
  %266 = icmp ult ptr %192, %224
  %267 = and i1 %265, %266
  %268 = or i1 %264, %267
  %269 = icmp ult ptr %222, %227
  %270 = icmp ult ptr %226, %224
  %271 = and i1 %269, %270
  %272 = or i1 %268, %271
  %273 = icmp ult ptr %222, %229
  %274 = icmp ult ptr %228, %224
  %275 = and i1 %273, %274
  %276 = or i1 %272, %275
  br i1 %276, label %331, label %277

277:                                              ; preds = %210, %277
  %278 = phi i64 [ %328, %277 ], [ 0, %210 ]
  %279 = trunc i64 %278 to i32
  %280 = or i64 %278, 1
  %281 = or i64 %278, 2
  %282 = or i64 %278, 3
  %283 = getelementptr inbounds %"class.dealii::Tensor", ptr %192, i64 %278
  %284 = getelementptr inbounds %"class.dealii::Tensor", ptr %192, i64 %280
  %285 = getelementptr inbounds %"class.dealii::Tensor", ptr %192, i64 %281
  %286 = getelementptr inbounds %"class.dealii::Tensor", ptr %192, i64 %282
  %287 = load double, ptr %283, align 8, !tbaa !8, !alias.scope !155
  %288 = load double, ptr %284, align 8, !tbaa !8, !alias.scope !155
  %289 = load double, ptr %285, align 8, !tbaa !8, !alias.scope !155
  %290 = load double, ptr %286, align 8, !tbaa !8, !alias.scope !155
  %291 = insertelement <4 x double> poison, double %287, i64 0
  %292 = insertelement <4 x double> %291, double %288, i64 1
  %293 = insertelement <4 x double> %292, double %289, i64 2
  %294 = insertelement <4 x double> %293, double %290, i64 3
  %295 = add i32 %195, %279
  %296 = zext i32 %295 to i64
  %297 = getelementptr inbounds double, ptr %193, i64 %296
  store <4 x double> %294, ptr %297, align 8, !tbaa !8, !alias.scope !158, !noalias !160
  %298 = getelementptr inbounds [3 x double], ptr %283, i64 0, i64 1
  %299 = getelementptr inbounds [3 x double], ptr %284, i64 0, i64 1
  %300 = getelementptr inbounds [3 x double], ptr %285, i64 0, i64 1
  %301 = getelementptr inbounds [3 x double], ptr %286, i64 0, i64 1
  %302 = load double, ptr %298, align 8, !tbaa !8, !alias.scope !165
  %303 = load double, ptr %299, align 8, !tbaa !8, !alias.scope !165
  %304 = load double, ptr %300, align 8, !tbaa !8, !alias.scope !165
  %305 = load double, ptr %301, align 8, !tbaa !8, !alias.scope !165
  %306 = insertelement <4 x double> poison, double %302, i64 0
  %307 = insertelement <4 x double> %306, double %303, i64 1
  %308 = insertelement <4 x double> %307, double %304, i64 2
  %309 = insertelement <4 x double> %308, double %305, i64 3
  %310 = add i32 %197, %279
  %311 = zext i32 %310 to i64
  %312 = getelementptr inbounds double, ptr %193, i64 %311
  store <4 x double> %309, ptr %312, align 8, !tbaa !8, !alias.scope !166, !noalias !167
  %313 = getelementptr inbounds [3 x double], ptr %283, i64 0, i64 2
  %314 = getelementptr inbounds [3 x double], ptr %284, i64 0, i64 2
  %315 = getelementptr inbounds [3 x double], ptr %285, i64 0, i64 2
  %316 = getelementptr inbounds [3 x double], ptr %286, i64 0, i64 2
  %317 = load double, ptr %313, align 8, !tbaa !8, !alias.scope !168
  %318 = load double, ptr %314, align 8, !tbaa !8, !alias.scope !168
  %319 = load double, ptr %315, align 8, !tbaa !8, !alias.scope !168
  %320 = load double, ptr %316, align 8, !tbaa !8, !alias.scope !168
  %321 = insertelement <4 x double> poison, double %317, i64 0
  %322 = insertelement <4 x double> %321, double %318, i64 1
  %323 = insertelement <4 x double> %322, double %319, i64 2
  %324 = insertelement <4 x double> %323, double %320, i64 3
  %325 = add i32 %199, %279
  %326 = zext i32 %325 to i64
  %327 = getelementptr inbounds double, ptr %193, i64 %326
  store <4 x double> %324, ptr %327, align 8, !tbaa !8, !alias.scope !169, !noalias !170
  %328 = add nuw i64 %278, 4
  %329 = icmp eq i64 %328, %164
  br i1 %329, label %330, label %277, !llvm.loop !171

330:                                              ; preds = %277
  br i1 %165, label %793, label %331

331:                                              ; preds = %210, %200, %189, %330
  %332 = phi i64 [ 0, %210 ], [ 0, %200 ], [ 0, %189 ], [ %164, %330 ]
  br label %333

333:                                              ; preds = %331, %333
  %334 = phi i64 [ %351, %333 ], [ %332, %331 ]
  %335 = getelementptr inbounds %"class.dealii::Tensor", ptr %192, i64 %334
  %336 = load double, ptr %335, align 8, !tbaa !8
  %337 = trunc i64 %334 to i32
  %338 = add i32 %195, %337
  %339 = zext i32 %338 to i64
  %340 = getelementptr inbounds double, ptr %193, i64 %339
  store double %336, ptr %340, align 8, !tbaa !8
  %341 = getelementptr inbounds [3 x double], ptr %335, i64 0, i64 1
  %342 = load double, ptr %341, align 8, !tbaa !8
  %343 = add i32 %197, %337
  %344 = zext i32 %343 to i64
  %345 = getelementptr inbounds double, ptr %193, i64 %344
  store double %342, ptr %345, align 8, !tbaa !8
  %346 = getelementptr inbounds [3 x double], ptr %335, i64 0, i64 2
  %347 = load double, ptr %346, align 8, !tbaa !8
  %348 = add i32 %199, %337
  %349 = zext i32 %348 to i64
  %350 = getelementptr inbounds double, ptr %193, i64 %349
  store double %347, ptr %350, align 8, !tbaa !8
  %351 = add nuw nsw i64 %334, 1
  %352 = icmp eq i64 %351, %125
  br i1 %352, label %793, label %333, !llvm.loop !172

353:                                              ; preds = %186, %186
  call void @llvm.lifetime.start.p0(i64 24, ptr nonnull %9) #15
  br i1 %105, label %354, label %355

354:                                              ; preds = %353
  call void @llvm.memset.p0.i64(ptr noundef nonnull align 8 dereferenceable(24) %9, i8 0, i64 24, i1 false)
  br label %360

355:                                              ; preds = %353
  %356 = invoke noalias noundef nonnull ptr @_Znwm(i64 noundef %106) #16
          to label %357 unwind label %547

357:                                              ; preds = %355
  store ptr %356, ptr %9, align 8, !tbaa !25
  %358 = getelementptr inbounds %"class.dealii::Tensor", ptr %356, i64 %104
  store ptr %358, ptr %114, align 8, !tbaa !173
  call void @llvm.memset.p0.i64(ptr nonnull align 8 %356, i8 0, i64 %106, i1 false), !tbaa !8
  %359 = getelementptr i8, ptr %356, i64 %106
  br label %360

360:                                              ; preds = %357, %354
  %361 = phi ptr [ null, %354 ], [ %356, %357 ]
  %362 = phi ptr [ null, %354 ], [ %359, %357 ]
  store ptr %362, ptr %115, align 8, !tbaa !23
  %363 = load ptr, ptr %109, align 8, !tbaa !130
  %364 = getelementptr inbounds %"class.std::vector.67", ptr %363, i64 %175
  %365 = getelementptr inbounds %"struct.std::_Vector_base<dealii::Tensor<1, 3>, std::allocator<dealii::Tensor<1, 3> > >::_Vector_impl_data", ptr %364, i64 0, i32 1
  %366 = load ptr, ptr %365, align 8, !tbaa !23
  %367 = load ptr, ptr %364, align 8, !tbaa !25
  %368 = ptrtoint ptr %366 to i64
  %369 = ptrtoint ptr %367 to i64
  %370 = sub i64 %368, %369
  %371 = sdiv exact i64 %370, 24
  %372 = ptrtoint ptr %362 to i64
  %373 = ptrtoint ptr %361 to i64
  %374 = sub i64 %372, %373
  %375 = sdiv exact i64 %374, 24
  %376 = shl i64 %371, 32
  %377 = shl i64 %375, 32
  %378 = load ptr, ptr %1, align 8, !tbaa !5
  %379 = getelementptr inbounds ptr, ptr %378, i64 4
  %380 = load ptr, ptr %379, align 8
  invoke void %380(ptr noundef nonnull align 8 dereferenceable(72) %1, ptr nonnull %364, i64 %376, ptr nonnull %9, i64 %377, ptr noundef nonnull align 8 dereferenceable(185) %4, i32 noundef %187)
          to label %381 unwind label %549

381:                                              ; preds = %360
  %382 = load ptr, ptr %9, align 8, !tbaa !25
  br i1 %111, label %544, label %383

383:                                              ; preds = %381
  %384 = load ptr, ptr %112, align 8, !tbaa !35
  %385 = load i32, ptr %113, align 8, !tbaa !34
  %386 = mul i32 %385, %182
  %387 = add i32 %182, 1
  %388 = mul i32 %385, %387
  %389 = add i32 %182, 2
  %390 = mul i32 %385, %389
  br i1 %150, label %522, label %391

391:                                              ; preds = %383
  %392 = xor i32 %386, -1
  %393 = icmp ult i32 %392, %151
  %394 = xor i32 %388, -1
  %395 = icmp ult i32 %394, %152
  %396 = or i1 %395, %153
  %397 = xor i32 %390, -1
  %398 = icmp ult i32 %397, %154
  %399 = or i1 %393, %396
  %400 = or i1 %398, %399
  br i1 %400, label %522, label %401

401:                                              ; preds = %391
  %402 = zext i32 %386 to i64
  %403 = shl nuw nsw i64 %402, 3
  %404 = getelementptr i8, ptr %384, i64 %403
  %405 = getelementptr i8, ptr %384, i64 %110
  %406 = getelementptr i8, ptr %405, i64 %403
  %407 = zext i32 %388 to i64
  %408 = shl nuw nsw i64 %407, 3
  %409 = getelementptr i8, ptr %384, i64 %408
  %410 = getelementptr i8, ptr %405, i64 %408
  %411 = zext i32 %390 to i64
  %412 = shl nuw nsw i64 %411, 3
  %413 = getelementptr i8, ptr %384, i64 %412
  %414 = getelementptr i8, ptr %384, i64 %110
  %415 = getelementptr i8, ptr %414, i64 %412
  %416 = getelementptr i8, ptr %382, i64 %136
  %417 = getelementptr i8, ptr %382, i64 8
  %418 = getelementptr i8, ptr %382, i64 %137
  %419 = getelementptr i8, ptr %382, i64 16
  %420 = getelementptr i8, ptr %382, i64 %135
  %421 = icmp ult ptr %404, %410
  %422 = icmp ult ptr %409, %406
  %423 = and i1 %421, %422
  %424 = icmp ult ptr %404, %415
  %425 = icmp ult ptr %413, %406
  %426 = and i1 %424, %425
  %427 = or i1 %423, %426
  %428 = icmp ult ptr %404, %416
  %429 = icmp ult ptr %382, %406
  %430 = and i1 %428, %429
  %431 = or i1 %427, %430
  %432 = icmp ult ptr %404, %418
  %433 = icmp ult ptr %417, %406
  %434 = and i1 %432, %433
  %435 = or i1 %431, %434
  %436 = icmp ult ptr %404, %420
  %437 = icmp ult ptr %419, %406
  %438 = and i1 %436, %437
  %439 = or i1 %435, %438
  %440 = icmp ult ptr %409, %415
  %441 = icmp ult ptr %413, %410
  %442 = and i1 %440, %441
  %443 = or i1 %439, %442
  %444 = icmp ult ptr %409, %416
  %445 = icmp ult ptr %382, %410
  %446 = and i1 %444, %445
  %447 = or i1 %443, %446
  %448 = icmp ult ptr %409, %418
  %449 = icmp ult ptr %417, %410
  %450 = and i1 %448, %449
  %451 = or i1 %447, %450
  %452 = icmp ult ptr %409, %420
  %453 = icmp ult ptr %419, %410
  %454 = and i1 %452, %453
  %455 = or i1 %451, %454
  %456 = icmp ult ptr %413, %416
  %457 = icmp ult ptr %382, %415
  %458 = and i1 %456, %457
  %459 = or i1 %455, %458
  %460 = icmp ult ptr %413, %418
  %461 = icmp ult ptr %417, %415
  %462 = and i1 %460, %461
  %463 = or i1 %459, %462
  %464 = icmp ult ptr %413, %420
  %465 = icmp ult ptr %419, %415
  %466 = and i1 %464, %465
  %467 = or i1 %463, %466
  br i1 %467, label %522, label %468

468:                                              ; preds = %401, %468
  %469 = phi i64 [ %519, %468 ], [ 0, %401 ]
  %470 = trunc i64 %469 to i32
  %471 = or i64 %469, 1
  %472 = or i64 %469, 2
  %473 = or i64 %469, 3
  %474 = getelementptr inbounds %"class.dealii::Tensor", ptr %382, i64 %469
  %475 = getelementptr inbounds %"class.dealii::Tensor", ptr %382, i64 %471
  %476 = getelementptr inbounds %"class.dealii::Tensor", ptr %382, i64 %472
  %477 = getelementptr inbounds %"class.dealii::Tensor", ptr %382, i64 %473
  %478 = load double, ptr %474, align 8, !tbaa !8, !alias.scope !174
  %479 = load double, ptr %475, align 8, !tbaa !8, !alias.scope !174
  %480 = load double, ptr %476, align 8, !tbaa !8, !alias.scope !174
  %481 = load double, ptr %477, align 8, !tbaa !8, !alias.scope !174
  %482 = insertelement <4 x double> poison, double %478, i64 0
  %483 = insertelement <4 x double> %482, double %479, i64 1
  %484 = insertelement <4 x double> %483, double %480, i64 2
  %485 = insertelement <4 x double> %484, double %481, i64 3
  %486 = add i32 %386, %470
  %487 = zext i32 %486 to i64
  %488 = getelementptr inbounds double, ptr %384, i64 %487
  store <4 x double> %485, ptr %488, align 8, !tbaa !8, !alias.scope !177, !noalias !179
  %489 = getelementptr inbounds [3 x double], ptr %474, i64 0, i64 1
  %490 = getelementptr inbounds [3 x double], ptr %475, i64 0, i64 1
  %491 = getelementptr inbounds [3 x double], ptr %476, i64 0, i64 1
  %492 = getelementptr inbounds [3 x double], ptr %477, i64 0, i64 1
  %493 = load double, ptr %489, align 8, !tbaa !8, !alias.scope !184
  %494 = load double, ptr %490, align 8, !tbaa !8, !alias.scope !184
  %495 = load double, ptr %491, align 8, !tbaa !8, !alias.scope !184
  %496 = load double, ptr %492, align 8, !tbaa !8, !alias.scope !184
  %497 = insertelement <4 x double> poison, double %493, i64 0
  %498 = insertelement <4 x double> %497, double %494, i64 1
  %499 = insertelement <4 x double> %498, double %495, i64 2
  %500 = insertelement <4 x double> %499, double %496, i64 3
  %501 = add i32 %388, %470
  %502 = zext i32 %501 to i64
  %503 = getelementptr inbounds double, ptr %384, i64 %502
  store <4 x double> %500, ptr %503, align 8, !tbaa !8, !alias.scope !185, !noalias !186
  %504 = getelementptr inbounds [3 x double], ptr %474, i64 0, i64 2
  %505 = getelementptr inbounds [3 x double], ptr %475, i64 0, i64 2
  %506 = getelementptr inbounds [3 x double], ptr %476, i64 0, i64 2
  %507 = getelementptr inbounds [3 x double], ptr %477, i64 0, i64 2
  %508 = load double, ptr %504, align 8, !tbaa !8, !alias.scope !187
  %509 = load double, ptr %505, align 8, !tbaa !8, !alias.scope !187
  %510 = load double, ptr %506, align 8, !tbaa !8, !alias.scope !187
  %511 = load double, ptr %507, align 8, !tbaa !8, !alias.scope !187
  %512 = insertelement <4 x double> poison, double %508, i64 0
  %513 = insertelement <4 x double> %512, double %509, i64 1
  %514 = insertelement <4 x double> %513, double %510, i64 2
  %515 = insertelement <4 x double> %514, double %511, i64 3
  %516 = add i32 %390, %470
  %517 = zext i32 %516 to i64
  %518 = getelementptr inbounds double, ptr %384, i64 %517
  store <4 x double> %515, ptr %518, align 8, !tbaa !8, !alias.scope !188, !noalias !189
  %519 = add nuw i64 %469, 4
  %520 = icmp eq i64 %519, %156
  br i1 %520, label %521, label %468, !llvm.loop !190

521:                                              ; preds = %468
  br i1 %157, label %546, label %522

522:                                              ; preds = %401, %391, %383, %521
  %523 = phi i64 [ 0, %401 ], [ 0, %391 ], [ 0, %383 ], [ %156, %521 ]
  br label %524

524:                                              ; preds = %522, %524
  %525 = phi i64 [ %542, %524 ], [ %523, %522 ]
  %526 = getelementptr inbounds %"class.dealii::Tensor", ptr %382, i64 %525
  %527 = load double, ptr %526, align 8, !tbaa !8
  %528 = trunc i64 %525 to i32
  %529 = add i32 %386, %528
  %530 = zext i32 %529 to i64
  %531 = getelementptr inbounds double, ptr %384, i64 %530
  store double %527, ptr %531, align 8, !tbaa !8
  %532 = getelementptr inbounds [3 x double], ptr %526, i64 0, i64 1
  %533 = load double, ptr %532, align 8, !tbaa !8
  %534 = add i32 %388, %528
  %535 = zext i32 %534 to i64
  %536 = getelementptr inbounds double, ptr %384, i64 %535
  store double %533, ptr %536, align 8, !tbaa !8
  %537 = getelementptr inbounds [3 x double], ptr %526, i64 0, i64 2
  %538 = load double, ptr %537, align 8, !tbaa !8
  %539 = add i32 %390, %528
  %540 = zext i32 %539 to i64
  %541 = getelementptr inbounds double, ptr %384, i64 %540
  store double %538, ptr %541, align 8, !tbaa !8
  %542 = add nuw nsw i64 %525, 1
  %543 = icmp eq i64 %542, %124
  br i1 %543, label %546, label %524, !llvm.loop !191

544:                                              ; preds = %381
  %545 = icmp eq ptr %382, null
  br i1 %545, label %554, label %546

546:                                              ; preds = %524, %521, %544
  call void @_ZdlPv(ptr noundef nonnull %382) #17
  br label %554

547:                                              ; preds = %355
  %548 = landingpad { ptr, i32 }
          cleanup
  br label %555

549:                                              ; preds = %360
  %550 = landingpad { ptr, i32 }
          cleanup
  %551 = load ptr, ptr %9, align 8, !tbaa !25
  %552 = icmp eq ptr %551, null
  br i1 %552, label %555, label %553

553:                                              ; preds = %549
  call void @_ZdlPv(ptr noundef nonnull %551) #17
  br label %555

554:                                              ; preds = %546, %544
  call void @llvm.lifetime.end.p0(i64 24, ptr nonnull %9) #15
  br label %793

555:                                              ; preds = %553, %549, %547
  %556 = phi { ptr, i32 } [ %548, %547 ], [ %550, %549 ], [ %550, %553 ]
  call void @llvm.lifetime.end.p0(i64 24, ptr nonnull %9) #15
  br label %1118

557:                                              ; preds = %186
  call void @llvm.lifetime.start.p0(i64 24, ptr nonnull %10) #15
  br i1 %105, label %558, label %559

558:                                              ; preds = %557
  call void @llvm.memset.p0.i64(ptr noundef nonnull align 8 dereferenceable(24) %10, i8 0, i64 24, i1 false)
  br label %564

559:                                              ; preds = %557
  %560 = invoke noalias noundef nonnull ptr @_Znwm(i64 noundef %106) #16
          to label %561 unwind label %783

561:                                              ; preds = %559
  store ptr %560, ptr %10, align 8, !tbaa !25
  %562 = getelementptr inbounds %"class.dealii::Tensor", ptr %560, i64 %104
  store ptr %562, ptr %107, align 8, !tbaa !173
  call void @llvm.memset.p0.i64(ptr nonnull align 8 %560, i8 0, i64 %106, i1 false), !tbaa !8
  %563 = getelementptr i8, ptr %560, i64 %106
  br label %564

564:                                              ; preds = %561, %558
  %565 = phi ptr [ null, %558 ], [ %560, %561 ]
  %566 = phi ptr [ null, %558 ], [ %563, %561 ]
  store ptr %566, ptr %108, align 8, !tbaa !23
  %567 = load ptr, ptr %109, align 8, !tbaa !130
  %568 = getelementptr inbounds %"class.std::vector.67", ptr %567, i64 %175
  %569 = getelementptr inbounds %"struct.std::_Vector_base<dealii::Tensor<1, 3>, std::allocator<dealii::Tensor<1, 3> > >::_Vector_impl_data", ptr %568, i64 0, i32 1
  %570 = load ptr, ptr %569, align 8, !tbaa !23
  %571 = load ptr, ptr %568, align 8, !tbaa !25
  %572 = ptrtoint ptr %570 to i64
  %573 = ptrtoint ptr %571 to i64
  %574 = sub i64 %572, %573
  %575 = sdiv exact i64 %574, 24
  %576 = ptrtoint ptr %566 to i64
  %577 = ptrtoint ptr %565 to i64
  %578 = sub i64 %576, %577
  %579 = sdiv exact i64 %578, 24
  %580 = shl i64 %575, 32
  %581 = shl i64 %579, 32
  %582 = load ptr, ptr %1, align 8, !tbaa !5
  %583 = getelementptr inbounds ptr, ptr %582, i64 4
  %584 = load ptr, ptr %583, align 8
  invoke void %584(ptr noundef nonnull align 8 dereferenceable(72) %1, ptr nonnull %568, i64 %580, ptr nonnull %10, i64 %581, ptr noundef nonnull align 8 dereferenceable(185) %4, i32 noundef 256)
          to label %585 unwind label %785

585:                                              ; preds = %564
  %586 = load ptr, ptr %10, align 8, !tbaa !25
  br i1 %111, label %780, label %587

587:                                              ; preds = %585
  %588 = getelementptr inbounds double, ptr %90, i64 %175
  %589 = load ptr, ptr %112, align 8, !tbaa !35
  %590 = load i32, ptr %113, align 8, !tbaa !34
  %591 = mul i32 %590, %182
  %592 = add i32 %182, 1
  %593 = mul i32 %590, %592
  %594 = add i32 %182, 2
  %595 = mul i32 %590, %594
  br i1 %142, label %752, label %596

596:                                              ; preds = %587
  %597 = xor i32 %591, -1
  %598 = icmp ult i32 %597, %143
  %599 = xor i32 %593, -1
  %600 = icmp ult i32 %599, %144
  %601 = or i1 %600, %145
  %602 = xor i32 %595, -1
  %603 = icmp ult i32 %602, %146
  %604 = or i1 %598, %601
  %605 = or i1 %603, %604
  br i1 %605, label %752, label %606

606:                                              ; preds = %596
  %607 = zext i32 %591 to i64
  %608 = shl nuw nsw i64 %607, 3
  %609 = getelementptr i8, ptr %589, i64 %608
  %610 = getelementptr i8, ptr %589, i64 %110
  %611 = getelementptr i8, ptr %610, i64 %608
  %612 = zext i32 %593 to i64
  %613 = shl nuw nsw i64 %612, 3
  %614 = getelementptr i8, ptr %589, i64 %613
  %615 = getelementptr i8, ptr %610, i64 %613
  %616 = zext i32 %595 to i64
  %617 = shl nuw nsw i64 %616, 3
  %618 = getelementptr i8, ptr %589, i64 %617
  %619 = getelementptr i8, ptr %589, i64 %110
  %620 = getelementptr i8, ptr %619, i64 %617
  %621 = getelementptr i8, ptr %586, i64 %140
  %622 = getelementptr i8, ptr %586, i64 8
  %623 = getelementptr i8, ptr %586, i64 %141
  %624 = getelementptr i8, ptr %586, i64 16
  %625 = getelementptr i8, ptr %586, i64 %139
  %626 = icmp ult ptr %609, %615
  %627 = icmp ult ptr %614, %611
  %628 = and i1 %626, %627
  %629 = icmp ult ptr %609, %620
  %630 = icmp ult ptr %618, %611
  %631 = and i1 %629, %630
  %632 = or i1 %628, %631
  %633 = icmp ult ptr %609, %179
  %634 = icmp ult ptr %177, %611
  %635 = and i1 %633, %634
  %636 = or i1 %632, %635
  %637 = icmp ult ptr %609, %621
  %638 = icmp ult ptr %586, %611
  %639 = and i1 %637, %638
  %640 = or i1 %636, %639
  %641 = icmp ult ptr %609, %623
  %642 = icmp ult ptr %622, %611
  %643 = and i1 %641, %642
  %644 = or i1 %640, %643
  %645 = icmp ult ptr %609, %625
  %646 = icmp ult ptr %624, %611
  %647 = and i1 %645, %646
  %648 = or i1 %644, %647
  %649 = icmp ult ptr %614, %620
  %650 = icmp ult ptr %618, %615
  %651 = and i1 %649, %650
  %652 = or i1 %648, %651
  %653 = icmp ult ptr %614, %179
  %654 = icmp ult ptr %177, %615
  %655 = and i1 %653, %654
  %656 = or i1 %652, %655
  %657 = icmp ult ptr %614, %621
  %658 = icmp ult ptr %586, %615
  %659 = and i1 %657, %658
  %660 = or i1 %656, %659
  %661 = icmp ult ptr %614, %623
  %662 = icmp ult ptr %622, %615
  %663 = and i1 %661, %662
  %664 = or i1 %660, %663
  %665 = icmp ult ptr %614, %625
  %666 = icmp ult ptr %624, %615
  %667 = and i1 %665, %666
  %668 = or i1 %664, %667
  %669 = icmp ult ptr %618, %179
  %670 = icmp ult ptr %177, %620
  %671 = and i1 %669, %670
  %672 = or i1 %668, %671
  %673 = icmp ult ptr %618, %621
  %674 = icmp ult ptr %586, %620
  %675 = and i1 %673, %674
  %676 = or i1 %672, %675
  %677 = icmp ult ptr %618, %623
  %678 = icmp ult ptr %622, %620
  %679 = and i1 %677, %678
  %680 = or i1 %676, %679
  %681 = icmp ult ptr %618, %625
  %682 = icmp ult ptr %624, %620
  %683 = and i1 %681, %682
  %684 = or i1 %680, %683
  br i1 %684, label %752, label %685

685:                                              ; preds = %606
  %686 = load double, ptr %588, align 8, !tbaa !8, !alias.scope !192
  %687 = insertelement <4 x double> poison, double %686, i64 0
  %688 = shufflevector <4 x double> %687, <4 x double> poison, <4 x i32> zeroinitializer
  %689 = load double, ptr %588, align 8, !tbaa !8, !alias.scope !192
  %690 = insertelement <4 x double> poison, double %689, i64 0
  %691 = shufflevector <4 x double> %690, <4 x double> poison, <4 x i32> zeroinitializer
  %692 = load double, ptr %588, align 8, !tbaa !8, !alias.scope !192
  %693 = insertelement <4 x double> poison, double %692, i64 0
  %694 = shufflevector <4 x double> %693, <4 x double> poison, <4 x i32> zeroinitializer
  br label %695

695:                                              ; preds = %695, %685
  %696 = phi i64 [ 0, %685 ], [ %749, %695 ]
  %697 = trunc i64 %696 to i32
  %698 = or i64 %696, 1
  %699 = or i64 %696, 2
  %700 = or i64 %696, 3
  %701 = getelementptr inbounds %"class.dealii::Tensor", ptr %586, i64 %696
  %702 = getelementptr inbounds %"class.dealii::Tensor", ptr %586, i64 %698
  %703 = getelementptr inbounds %"class.dealii::Tensor", ptr %586, i64 %699
  %704 = getelementptr inbounds %"class.dealii::Tensor", ptr %586, i64 %700
  %705 = load double, ptr %701, align 8, !tbaa !8, !alias.scope !195
  %706 = load double, ptr %702, align 8, !tbaa !8, !alias.scope !195
  %707 = load double, ptr %703, align 8, !tbaa !8, !alias.scope !195
  %708 = load double, ptr %704, align 8, !tbaa !8, !alias.scope !195
  %709 = insertelement <4 x double> poison, double %705, i64 0
  %710 = insertelement <4 x double> %709, double %706, i64 1
  %711 = insertelement <4 x double> %710, double %707, i64 2
  %712 = insertelement <4 x double> %711, double %708, i64 3
  %713 = fmul <4 x double> %688, %712
  %714 = add i32 %591, %697
  %715 = zext i32 %714 to i64
  %716 = getelementptr inbounds double, ptr %589, i64 %715
  store <4 x double> %713, ptr %716, align 8, !tbaa !8, !alias.scope !197, !noalias !199
  %717 = getelementptr inbounds [3 x double], ptr %701, i64 0, i64 1
  %718 = getelementptr inbounds [3 x double], ptr %702, i64 0, i64 1
  %719 = getelementptr inbounds [3 x double], ptr %703, i64 0, i64 1
  %720 = getelementptr inbounds [3 x double], ptr %704, i64 0, i64 1
  %721 = load double, ptr %717, align 8, !tbaa !8, !alias.scope !204
  %722 = load double, ptr %718, align 8, !tbaa !8, !alias.scope !204
  %723 = load double, ptr %719, align 8, !tbaa !8, !alias.scope !204
  %724 = load double, ptr %720, align 8, !tbaa !8, !alias.scope !204
  %725 = insertelement <4 x double> poison, double %721, i64 0
  %726 = insertelement <4 x double> %725, double %722, i64 1
  %727 = insertelement <4 x double> %726, double %723, i64 2
  %728 = insertelement <4 x double> %727, double %724, i64 3
  %729 = fmul <4 x double> %691, %728
  %730 = add i32 %593, %697
  %731 = zext i32 %730 to i64
  %732 = getelementptr inbounds double, ptr %589, i64 %731
  store <4 x double> %729, ptr %732, align 8, !tbaa !8, !alias.scope !205, !noalias !206
  %733 = getelementptr inbounds [3 x double], ptr %701, i64 0, i64 2
  %734 = getelementptr inbounds [3 x double], ptr %702, i64 0, i64 2
  %735 = getelementptr inbounds [3 x double], ptr %703, i64 0, i64 2
  %736 = getelementptr inbounds [3 x double], ptr %704, i64 0, i64 2
  %737 = load double, ptr %733, align 8, !tbaa !8, !alias.scope !207
  %738 = load double, ptr %734, align 8, !tbaa !8, !alias.scope !207
  %739 = load double, ptr %735, align 8, !tbaa !8, !alias.scope !207
  %740 = load double, ptr %736, align 8, !tbaa !8, !alias.scope !207
  %741 = insertelement <4 x double> poison, double %737, i64 0
  %742 = insertelement <4 x double> %741, double %738, i64 1
  %743 = insertelement <4 x double> %742, double %739, i64 2
  %744 = insertelement <4 x double> %743, double %740, i64 3
  %745 = fmul <4 x double> %694, %744
  %746 = add i32 %595, %697
  %747 = zext i32 %746 to i64
  %748 = getelementptr inbounds double, ptr %589, i64 %747
  store <4 x double> %745, ptr %748, align 8, !tbaa !8, !alias.scope !208, !noalias !209
  %749 = add nuw i64 %696, 4
  %750 = icmp eq i64 %749, %148
  br i1 %750, label %751, label %695, !llvm.loop !210

751:                                              ; preds = %695
  br i1 %149, label %782, label %752

752:                                              ; preds = %606, %596, %587, %751
  %753 = phi i64 [ 0, %606 ], [ 0, %596 ], [ 0, %587 ], [ %148, %751 ]
  br label %754

754:                                              ; preds = %752, %754
  %755 = phi i64 [ %778, %754 ], [ %753, %752 ]
  %756 = getelementptr inbounds %"class.dealii::Tensor", ptr %586, i64 %755
  %757 = load double, ptr %588, align 8, !tbaa !8
  %758 = load double, ptr %756, align 8, !tbaa !8
  %759 = fmul double %757, %758
  %760 = trunc i64 %755 to i32
  %761 = add i32 %591, %760
  %762 = zext i32 %761 to i64
  %763 = getelementptr inbounds double, ptr %589, i64 %762
  store double %759, ptr %763, align 8, !tbaa !8
  %764 = load double, ptr %588, align 8, !tbaa !8
  %765 = getelementptr inbounds [3 x double], ptr %756, i64 0, i64 1
  %766 = load double, ptr %765, align 8, !tbaa !8
  %767 = fmul double %764, %766
  %768 = add i32 %593, %760
  %769 = zext i32 %768 to i64
  %770 = getelementptr inbounds double, ptr %589, i64 %769
  store double %767, ptr %770, align 8, !tbaa !8
  %771 = load double, ptr %588, align 8, !tbaa !8
  %772 = getelementptr inbounds [3 x double], ptr %756, i64 0, i64 2
  %773 = load double, ptr %772, align 8, !tbaa !8
  %774 = fmul double %771, %773
  %775 = add i32 %595, %760
  %776 = zext i32 %775 to i64
  %777 = getelementptr inbounds double, ptr %589, i64 %776
  store double %774, ptr %777, align 8, !tbaa !8
  %778 = add nuw nsw i64 %755, 1
  %779 = icmp eq i64 %778, %123
  br i1 %779, label %782, label %754, !llvm.loop !211

780:                                              ; preds = %585
  %781 = icmp eq ptr %586, null
  br i1 %781, label %790, label %782

782:                                              ; preds = %754, %751, %780
  call void @_ZdlPv(ptr noundef nonnull %586) #17
  br label %790

783:                                              ; preds = %559
  %784 = landingpad { ptr, i32 }
          cleanup
  br label %791

785:                                              ; preds = %564
  %786 = landingpad { ptr, i32 }
          cleanup
  %787 = load ptr, ptr %10, align 8, !tbaa !25
  %788 = icmp eq ptr %787, null
  br i1 %788, label %791, label %789

789:                                              ; preds = %785
  call void @_ZdlPv(ptr noundef nonnull %787) #17
  br label %791

790:                                              ; preds = %782, %780
  call void @llvm.lifetime.end.p0(i64 24, ptr nonnull %10) #15
  br label %793

791:                                              ; preds = %789, %785, %783
  %792 = phi { ptr, i32 } [ %784, %783 ], [ %786, %785 ], [ %786, %789 ]
  call void @llvm.lifetime.end.p0(i64 24, ptr nonnull %10) #15
  br label %1118

793:                                              ; preds = %333, %330, %188, %554, %790, %186, %174
  %794 = load i32, ptr %7, align 4
  %795 = icmp eq i32 %794, 1
  %796 = select i1 %117, i1 true, i1 %795
  br i1 %796, label %1100, label %797

797:                                              ; preds = %793
  call void @llvm.lifetime.start.p0(i64 24, ptr nonnull %11) #15
  br i1 %105, label %798, label %799

798:                                              ; preds = %797
  call void @llvm.memset.p0.i64(ptr noundef nonnull align 8 dereferenceable(24) %11, i8 0, i64 24, i1 false)
  br label %806

799:                                              ; preds = %797
  %800 = invoke noalias noundef nonnull ptr @_Znwm(i64 noundef %118) #16
          to label %801 unwind label %811

801:                                              ; preds = %799
  store ptr %800, ptr %11, align 8, !tbaa !51
  %802 = getelementptr inbounds %"class.dealii::Tensor.84", ptr %800, i64 %104
  store ptr %802, ptr %119, align 8, !tbaa !212
  call void @llvm.memset.p0.i64(ptr nonnull align 8 %800, i8 0, i64 %118, i1 false), !tbaa !8
  %803 = getelementptr i8, ptr %800, i64 %118
  store ptr %803, ptr %120, align 8, !tbaa !49
  %804 = invoke noalias noundef nonnull ptr @_Znwm(i64 noundef %118) #16
          to label %805 unwind label %813

805:                                              ; preds = %801
  call void @llvm.memset.p0.i64(ptr nonnull align 8 %804, i8 0, i64 %118, i1 false), !tbaa !8
  br label %806

806:                                              ; preds = %805, %798
  %807 = phi ptr [ null, %798 ], [ %800, %805 ]
  %808 = phi ptr [ null, %798 ], [ %803, %805 ]
  %809 = phi ptr [ null, %798 ], [ %804, %805 ]
  %810 = load i32, ptr %91, align 8, !tbaa !61
  switch i32 %810, label %1084 [
    i32 0, label %815
    i32 1, label %883
    i32 2, label %948
    i32 256, label %1012
  ]

811:                                              ; preds = %799
  %812 = landingpad { ptr, i32 }
          cleanup
  br label %1098

813:                                              ; preds = %801
  %814 = landingpad { ptr, i32 }
          cleanup
  br label %1093

815:                                              ; preds = %806
  %816 = load ptr, ptr %121, align 8, !tbaa !133
  %817 = getelementptr inbounds %"class.std::vector.72", ptr %816, i64 %175
  %818 = getelementptr inbounds %"struct.std::_Vector_base<dealii::Tensor<2, 3>, std::allocator<dealii::Tensor<2, 3> > >::_Vector_impl_data", ptr %817, i64 0, i32 1
  %819 = load ptr, ptr %818, align 8, !tbaa !49
  %820 = load ptr, ptr %817, align 8, !tbaa !51
  %821 = ptrtoint ptr %819 to i64
  %822 = ptrtoint ptr %820 to i64
  %823 = sub i64 %821, %822
  %824 = sdiv exact i64 %823, 72
  %825 = ptrtoint ptr %808 to i64
  %826 = ptrtoint ptr %807 to i64
  %827 = sub i64 %825, %826
  %828 = sdiv exact i64 %827, 72
  %829 = shl i64 %824, 32
  %830 = shl i64 %828, 32
  %831 = load ptr, ptr %1, align 8, !tbaa !5
  %832 = getelementptr inbounds ptr, ptr %831, i64 5
  %833 = load ptr, ptr %832, align 8
  invoke void %833(ptr noundef nonnull align 8 dereferenceable(72) %1, ptr nonnull %817, i64 %829, ptr nonnull %11, i64 %830, ptr noundef nonnull align 8 dereferenceable(185) %4, i32 noundef 1)
          to label %834 unwind label %880

834:                                              ; preds = %815
  br i1 %111, label %1084, label %835

835:                                              ; preds = %834
  %836 = load ptr, ptr %11, align 8, !tbaa !51
  %837 = load ptr, ptr %122, align 8, !tbaa !130
  %838 = zext i32 %182 to i64
  %839 = getelementptr inbounds %"class.std::vector.67", ptr %837, i64 %838
  %840 = load ptr, ptr %839, align 8, !tbaa !25
  %841 = add i32 %182, 1
  %842 = zext i32 %841 to i64
  %843 = getelementptr inbounds %"class.std::vector.67", ptr %837, i64 %842
  %844 = load ptr, ptr %843, align 8, !tbaa !25
  %845 = add i32 %182, 2
  %846 = zext i32 %845 to i64
  %847 = getelementptr inbounds %"class.std::vector.67", ptr %837, i64 %846
  %848 = load ptr, ptr %847, align 8, !tbaa !25
  br label %849

849:                                              ; preds = %835, %849
  %850 = phi i64 [ 0, %835 ], [ %878, %849 ]
  %851 = getelementptr inbounds %"class.dealii::Tensor.84", ptr %836, i64 %850
  %852 = getelementptr inbounds %"class.dealii::Tensor", ptr %840, i64 %850
  %853 = load double, ptr %851, align 8, !tbaa !8
  store double %853, ptr %852, align 8, !tbaa !8
  %854 = getelementptr inbounds [3 x double], ptr %851, i64 0, i64 1
  %855 = load double, ptr %854, align 8, !tbaa !8
  %856 = getelementptr inbounds [3 x double], ptr %852, i64 0, i64 1
  store double %855, ptr %856, align 8, !tbaa !8
  %857 = getelementptr inbounds [3 x double], ptr %851, i64 0, i64 2
  %858 = load double, ptr %857, align 8, !tbaa !8
  %859 = getelementptr inbounds [3 x double], ptr %852, i64 0, i64 2
  store double %858, ptr %859, align 8, !tbaa !8
  %860 = getelementptr inbounds [3 x %"class.dealii::Tensor"], ptr %851, i64 0, i64 1
  %861 = getelementptr inbounds %"class.dealii::Tensor", ptr %844, i64 %850
  %862 = load double, ptr %860, align 8, !tbaa !8
  store double %862, ptr %861, align 8, !tbaa !8
  %863 = getelementptr inbounds [3 x %"class.dealii::Tensor"], ptr %851, i64 0, i64 1, i32 0, i64 1
  %864 = load double, ptr %863, align 8, !tbaa !8
  %865 = getelementptr inbounds [3 x double], ptr %861, i64 0, i64 1
  store double %864, ptr %865, align 8, !tbaa !8
  %866 = getelementptr inbounds [3 x %"class.dealii::Tensor"], ptr %851, i64 0, i64 1, i32 0, i64 2
  %867 = load double, ptr %866, align 8, !tbaa !8
  %868 = getelementptr inbounds [3 x double], ptr %861, i64 0, i64 2
  store double %867, ptr %868, align 8, !tbaa !8
  %869 = getelementptr inbounds [3 x %"class.dealii::Tensor"], ptr %851, i64 0, i64 2
  %870 = getelementptr inbounds %"class.dealii::Tensor", ptr %848, i64 %850
  %871 = load double, ptr %869, align 8, !tbaa !8
  store double %871, ptr %870, align 8, !tbaa !8
  %872 = getelementptr inbounds [3 x %"class.dealii::Tensor"], ptr %851, i64 0, i64 2, i32 0, i64 1
  %873 = load double, ptr %872, align 8, !tbaa !8
  %874 = getelementptr inbounds [3 x double], ptr %870, i64 0, i64 1
  store double %873, ptr %874, align 8, !tbaa !8
  %875 = getelementptr inbounds [3 x %"class.dealii::Tensor"], ptr %851, i64 0, i64 2, i32 0, i64 2
  %876 = load double, ptr %875, align 8, !tbaa !8
  %877 = getelementptr inbounds [3 x double], ptr %870, i64 0, i64 2
  store double %876, ptr %877, align 8, !tbaa !8
  %878 = add nuw nsw i64 %850, 1
  %879 = icmp eq i64 %878, %129
  br i1 %879, label %1084, label %849

880:                                              ; preds = %1012, %948, %883, %815
  %881 = landingpad { ptr, i32 }
          cleanup
  %882 = icmp eq ptr %809, null
  br i1 %882, label %1093, label %1092

883:                                              ; preds = %806
  %884 = load ptr, ptr %121, align 8, !tbaa !133
  %885 = getelementptr inbounds %"class.std::vector.72", ptr %884, i64 %175
  %886 = getelementptr inbounds %"struct.std::_Vector_base<dealii::Tensor<2, 3>, std::allocator<dealii::Tensor<2, 3> > >::_Vector_impl_data", ptr %885, i64 0, i32 1
  %887 = load ptr, ptr %886, align 8, !tbaa !49
  %888 = load ptr, ptr %885, align 8, !tbaa !51
  %889 = ptrtoint ptr %887 to i64
  %890 = ptrtoint ptr %888 to i64
  %891 = sub i64 %889, %890
  %892 = sdiv exact i64 %891, 72
  %893 = ptrtoint ptr %808 to i64
  %894 = ptrtoint ptr %807 to i64
  %895 = sub i64 %893, %894
  %896 = sdiv exact i64 %895, 72
  %897 = shl i64 %892, 32
  %898 = shl i64 %896, 32
  %899 = load ptr, ptr %1, align 8, !tbaa !5
  %900 = getelementptr inbounds ptr, ptr %899, i64 5
  %901 = load ptr, ptr %900, align 8
  invoke void %901(ptr noundef nonnull align 8 dereferenceable(72) %1, ptr nonnull %885, i64 %897, ptr nonnull %11, i64 %898, ptr noundef nonnull align 8 dereferenceable(185) %4, i32 noundef 3)
          to label %902 unwind label %880

902:                                              ; preds = %883
  br i1 %111, label %1084, label %903

903:                                              ; preds = %902
  %904 = load ptr, ptr %11, align 8, !tbaa !51
  %905 = load ptr, ptr %122, align 8, !tbaa !130
  %906 = zext i32 %182 to i64
  %907 = getelementptr inbounds %"class.std::vector.67", ptr %905, i64 %906
  %908 = load ptr, ptr %907, align 8, !tbaa !25
  %909 = add i32 %182, 1
  %910 = zext i32 %909 to i64
  %911 = getelementptr inbounds %"class.std::vector.67", ptr %905, i64 %910
  %912 = load ptr, ptr %911, align 8, !tbaa !25
  %913 = add i32 %182, 2
  %914 = zext i32 %913 to i64
  %915 = getelementptr inbounds %"class.std::vector.67", ptr %905, i64 %914
  %916 = load ptr, ptr %915, align 8, !tbaa !25
  br label %917

917:                                              ; preds = %903, %917
  %918 = phi i64 [ 0, %903 ], [ %946, %917 ]
  %919 = getelementptr inbounds %"class.dealii::Tensor.84", ptr %904, i64 %918
  %920 = getelementptr inbounds %"class.dealii::Tensor", ptr %908, i64 %918
  %921 = load double, ptr %919, align 8, !tbaa !8
  store double %921, ptr %920, align 8, !tbaa !8
  %922 = getelementptr inbounds [3 x double], ptr %919, i64 0, i64 1
  %923 = load double, ptr %922, align 8, !tbaa !8
  %924 = getelementptr inbounds [3 x double], ptr %920, i64 0, i64 1
  store double %923, ptr %924, align 8, !tbaa !8
  %925 = getelementptr inbounds [3 x double], ptr %919, i64 0, i64 2
  %926 = load double, ptr %925, align 8, !tbaa !8
  %927 = getelementptr inbounds [3 x double], ptr %920, i64 0, i64 2
  store double %926, ptr %927, align 8, !tbaa !8
  %928 = getelementptr inbounds [3 x %"class.dealii::Tensor"], ptr %919, i64 0, i64 1
  %929 = getelementptr inbounds %"class.dealii::Tensor", ptr %912, i64 %918
  %930 = load double, ptr %928, align 8, !tbaa !8
  store double %930, ptr %929, align 8, !tbaa !8
  %931 = getelementptr inbounds [3 x %"class.dealii::Tensor"], ptr %919, i64 0, i64 1, i32 0, i64 1
  %932 = load double, ptr %931, align 8, !tbaa !8
  %933 = getelementptr inbounds [3 x double], ptr %929, i64 0, i64 1
  store double %932, ptr %933, align 8, !tbaa !8
  %934 = getelementptr inbounds [3 x %"class.dealii::Tensor"], ptr %919, i64 0, i64 1, i32 0, i64 2
  %935 = load double, ptr %934, align 8, !tbaa !8
  %936 = getelementptr inbounds [3 x double], ptr %929, i64 0, i64 2
  store double %935, ptr %936, align 8, !tbaa !8
  %937 = getelementptr inbounds [3 x %"class.dealii::Tensor"], ptr %919, i64 0, i64 2
  %938 = getelementptr inbounds %"class.dealii::Tensor", ptr %916, i64 %918
  %939 = load double, ptr %937, align 8, !tbaa !8
  store double %939, ptr %938, align 8, !tbaa !8
  %940 = getelementptr inbounds [3 x %"class.dealii::Tensor"], ptr %919, i64 0, i64 2, i32 0, i64 1
  %941 = load double, ptr %940, align 8, !tbaa !8
  %942 = getelementptr inbounds [3 x double], ptr %938, i64 0, i64 1
  store double %941, ptr %942, align 8, !tbaa !8
  %943 = getelementptr inbounds [3 x %"class.dealii::Tensor"], ptr %919, i64 0, i64 2, i32 0, i64 2
  %944 = load double, ptr %943, align 8, !tbaa !8
  %945 = getelementptr inbounds [3 x double], ptr %938, i64 0, i64 2
  store double %944, ptr %945, align 8, !tbaa !8
  %946 = add nuw nsw i64 %918, 1
  %947 = icmp eq i64 %946, %128
  br i1 %947, label %1084, label %917

948:                                              ; preds = %806
  %949 = load ptr, ptr %121, align 8, !tbaa !133
  %950 = getelementptr inbounds %"class.std::vector.72", ptr %949, i64 %175
  %951 = getelementptr inbounds %"struct.std::_Vector_base<dealii::Tensor<2, 3>, std::allocator<dealii::Tensor<2, 3> > >::_Vector_impl_data", ptr %950, i64 0, i32 1
  %952 = load ptr, ptr %951, align 8, !tbaa !49
  %953 = load ptr, ptr %950, align 8, !tbaa !51
  %954 = ptrtoint ptr %952 to i64
  %955 = ptrtoint ptr %953 to i64
  %956 = sub i64 %954, %955
  %957 = sdiv exact i64 %956, 72
  %958 = ptrtoint ptr %808 to i64
  %959 = ptrtoint ptr %807 to i64
  %960 = sub i64 %958, %959
  %961 = sdiv exact i64 %960, 72
  %962 = shl i64 %957, 32
  %963 = shl i64 %961, 32
  %964 = load ptr, ptr %1, align 8, !tbaa !5
  %965 = getelementptr inbounds ptr, ptr %964, i64 5
  %966 = load ptr, ptr %965, align 8
  invoke void %966(ptr noundef nonnull align 8 dereferenceable(72) %1, ptr nonnull %950, i64 %962, ptr nonnull %11, i64 %963, ptr noundef nonnull align 8 dereferenceable(185) %4, i32 noundef 4)
          to label %967 unwind label %880

967:                                              ; preds = %948
  br i1 %111, label %1084, label %968

968:                                              ; preds = %967
  %969 = load ptr, ptr %122, align 8, !tbaa !130
  %970 = zext i32 %182 to i64
  %971 = getelementptr inbounds %"class.std::vector.67", ptr %969, i64 %970
  %972 = load ptr, ptr %971, align 8, !tbaa !25
  %973 = add i32 %182, 1
  %974 = zext i32 %973 to i64
  %975 = getelementptr inbounds %"class.std::vector.67", ptr %969, i64 %974
  %976 = load ptr, ptr %975, align 8, !tbaa !25
  %977 = add i32 %182, 2
  %978 = zext i32 %977 to i64
  %979 = getelementptr inbounds %"class.std::vector.67", ptr %969, i64 %978
  %980 = load ptr, ptr %979, align 8, !tbaa !25
  br label %981

981:                                              ; preds = %968, %981
  %982 = phi i64 [ 0, %968 ], [ %1010, %981 ]
  %983 = getelementptr inbounds %"class.dealii::Tensor.84", ptr %809, i64 %982
  %984 = getelementptr inbounds %"class.dealii::Tensor", ptr %972, i64 %982
  %985 = load double, ptr %983, align 8, !tbaa !8
  store double %985, ptr %984, align 8, !tbaa !8
  %986 = getelementptr inbounds [3 x double], ptr %983, i64 0, i64 1
  %987 = load double, ptr %986, align 8, !tbaa !8
  %988 = getelementptr inbounds [3 x double], ptr %984, i64 0, i64 1
  store double %987, ptr %988, align 8, !tbaa !8
  %989 = getelementptr inbounds [3 x double], ptr %983, i64 0, i64 2
  %990 = load double, ptr %989, align 8, !tbaa !8
  %991 = getelementptr inbounds [3 x double], ptr %984, i64 0, i64 2
  store double %990, ptr %991, align 8, !tbaa !8
  %992 = getelementptr inbounds [3 x %"class.dealii::Tensor"], ptr %983, i64 0, i64 1
  %993 = getelementptr inbounds %"class.dealii::Tensor", ptr %976, i64 %982
  %994 = load double, ptr %992, align 8, !tbaa !8
  store double %994, ptr %993, align 8, !tbaa !8
  %995 = getelementptr inbounds [3 x %"class.dealii::Tensor"], ptr %983, i64 0, i64 1, i32 0, i64 1
  %996 = load double, ptr %995, align 8, !tbaa !8
  %997 = getelementptr inbounds [3 x double], ptr %993, i64 0, i64 1
  store double %996, ptr %997, align 8, !tbaa !8
  %998 = getelementptr inbounds [3 x %"class.dealii::Tensor"], ptr %983, i64 0, i64 1, i32 0, i64 2
  %999 = load double, ptr %998, align 8, !tbaa !8
  %1000 = getelementptr inbounds [3 x double], ptr %993, i64 0, i64 2
  store double %999, ptr %1000, align 8, !tbaa !8
  %1001 = getelementptr inbounds [3 x %"class.dealii::Tensor"], ptr %983, i64 0, i64 2
  %1002 = getelementptr inbounds %"class.dealii::Tensor", ptr %980, i64 %982
  %1003 = load double, ptr %1001, align 8, !tbaa !8
  store double %1003, ptr %1002, align 8, !tbaa !8
  %1004 = getelementptr inbounds [3 x %"class.dealii::Tensor"], ptr %983, i64 0, i64 2, i32 0, i64 1
  %1005 = load double, ptr %1004, align 8, !tbaa !8
  %1006 = getelementptr inbounds [3 x double], ptr %1002, i64 0, i64 1
  store double %1005, ptr %1006, align 8, !tbaa !8
  %1007 = getelementptr inbounds [3 x %"class.dealii::Tensor"], ptr %983, i64 0, i64 2, i32 0, i64 2
  %1008 = load double, ptr %1007, align 8, !tbaa !8
  %1009 = getelementptr inbounds [3 x double], ptr %1002, i64 0, i64 2
  store double %1008, ptr %1009, align 8, !tbaa !8
  %1010 = add nuw nsw i64 %982, 1
  %1011 = icmp eq i64 %1010, %127
  br i1 %1011, label %1086, label %981

1012:                                             ; preds = %806
  %1013 = load ptr, ptr %121, align 8, !tbaa !133
  %1014 = getelementptr inbounds %"class.std::vector.72", ptr %1013, i64 %175
  %1015 = getelementptr inbounds %"struct.std::_Vector_base<dealii::Tensor<2, 3>, std::allocator<dealii::Tensor<2, 3> > >::_Vector_impl_data", ptr %1014, i64 0, i32 1
  %1016 = load ptr, ptr %1015, align 8, !tbaa !49
  %1017 = load ptr, ptr %1014, align 8, !tbaa !51
  %1018 = ptrtoint ptr %1016 to i64
  %1019 = ptrtoint ptr %1017 to i64
  %1020 = sub i64 %1018, %1019
  %1021 = sdiv exact i64 %1020, 72
  %1022 = ptrtoint ptr %808 to i64
  %1023 = ptrtoint ptr %807 to i64
  %1024 = sub i64 %1022, %1023
  %1025 = sdiv exact i64 %1024, 72
  %1026 = shl i64 %1021, 32
  %1027 = shl i64 %1025, 32
  %1028 = load ptr, ptr %1, align 8, !tbaa !5
  %1029 = getelementptr inbounds ptr, ptr %1028, i64 5
  %1030 = load ptr, ptr %1029, align 8
  invoke void %1030(ptr noundef nonnull align 8 dereferenceable(72) %1, ptr nonnull %1014, i64 %1026, ptr nonnull %11, i64 %1027, ptr noundef nonnull align 8 dereferenceable(185) %4, i32 noundef 256)
          to label %1031 unwind label %880

1031:                                             ; preds = %1012
  br i1 %111, label %1084, label %1032

1032:                                             ; preds = %1031
  %1033 = getelementptr inbounds double, ptr %90, i64 %175
  %1034 = load ptr, ptr %11, align 8, !tbaa !51
  %1035 = load ptr, ptr %122, align 8, !tbaa !130
  %1036 = zext i32 %182 to i64
  %1037 = getelementptr inbounds %"class.std::vector.67", ptr %1035, i64 %1036
  %1038 = load ptr, ptr %1037, align 8, !tbaa !25
  %1039 = add i32 %182, 1
  %1040 = zext i32 %1039 to i64
  %1041 = getelementptr inbounds %"class.std::vector.67", ptr %1035, i64 %1040
  %1042 = load ptr, ptr %1041, align 8, !tbaa !25
  %1043 = add i32 %182, 2
  %1044 = zext i32 %1043 to i64
  %1045 = getelementptr inbounds %"class.std::vector.67", ptr %1035, i64 %1044
  %1046 = load ptr, ptr %1045, align 8, !tbaa !25
  br label %1047

1047:                                             ; preds = %1032, %1047
  %1048 = phi i64 [ 0, %1032 ], [ %1082, %1047 ]
  %1049 = getelementptr inbounds %"class.dealii::Tensor.84", ptr %1034, i64 %1048
  %1050 = load double, ptr %1033, align 8, !tbaa !8
  %1051 = getelementptr inbounds [3 x double], ptr %1049, i64 0, i64 2
  %1052 = load double, ptr %1051, align 8, !tbaa !8, !noalias !213
  %1053 = fmul double %1050, %1052
  %1054 = getelementptr inbounds %"class.dealii::Tensor", ptr %1038, i64 %1048
  %1055 = load <2 x double>, ptr %1049, align 8, !tbaa !8, !noalias !213
  %1056 = insertelement <2 x double> poison, double %1050, i64 0
  %1057 = shufflevector <2 x double> %1056, <2 x double> poison, <2 x i32> zeroinitializer
  %1058 = fmul <2 x double> %1057, %1055
  store <2 x double> %1058, ptr %1054, align 8, !tbaa !8
  %1059 = getelementptr inbounds [3 x double], ptr %1054, i64 0, i64 2
  store double %1053, ptr %1059, align 8, !tbaa !8
  %1060 = load double, ptr %1033, align 8, !tbaa !8
  %1061 = getelementptr inbounds [3 x %"class.dealii::Tensor"], ptr %1049, i64 0, i64 1
  %1062 = getelementptr inbounds [3 x %"class.dealii::Tensor"], ptr %1049, i64 0, i64 1, i32 0, i64 2
  %1063 = load double, ptr %1062, align 8, !tbaa !8, !noalias !213
  %1064 = fmul double %1060, %1063
  %1065 = getelementptr inbounds %"class.dealii::Tensor", ptr %1042, i64 %1048
  %1066 = load <2 x double>, ptr %1061, align 8, !tbaa !8, !noalias !213
  %1067 = insertelement <2 x double> poison, double %1060, i64 0
  %1068 = shufflevector <2 x double> %1067, <2 x double> poison, <2 x i32> zeroinitializer
  %1069 = fmul <2 x double> %1068, %1066
  store <2 x double> %1069, ptr %1065, align 8, !tbaa !8
  %1070 = getelementptr inbounds [3 x double], ptr %1065, i64 0, i64 2
  store double %1064, ptr %1070, align 8, !tbaa !8
  %1071 = load double, ptr %1033, align 8, !tbaa !8
  %1072 = getelementptr inbounds [3 x %"class.dealii::Tensor"], ptr %1049, i64 0, i64 2
  %1073 = getelementptr inbounds [3 x %"class.dealii::Tensor"], ptr %1049, i64 0, i64 2, i32 0, i64 2
  %1074 = load double, ptr %1073, align 8, !tbaa !8, !noalias !213
  %1075 = fmul double %1071, %1074
  %1076 = getelementptr inbounds %"class.dealii::Tensor", ptr %1046, i64 %1048
  %1077 = load <2 x double>, ptr %1072, align 8, !tbaa !8, !noalias !213
  %1078 = insertelement <2 x double> poison, double %1071, i64 0
  %1079 = shufflevector <2 x double> %1078, <2 x double> poison, <2 x i32> zeroinitializer
  %1080 = fmul <2 x double> %1079, %1077
  store <2 x double> %1080, ptr %1076, align 8, !tbaa !8
  %1081 = getelementptr inbounds [3 x double], ptr %1076, i64 0, i64 2
  store double %1075, ptr %1081, align 8, !tbaa !8
  %1082 = add nuw nsw i64 %1048, 1
  %1083 = icmp eq i64 %1082, %126
  br i1 %1083, label %1084, label %1047

1084:                                             ; preds = %1047, %917, %849, %1031, %967, %902, %834, %806
  %1085 = icmp eq ptr %809, null
  br i1 %1085, label %1087, label %1086

1086:                                             ; preds = %981, %1084
  call void @_ZdlPv(ptr noundef nonnull %809) #17
  br label %1087

1087:                                             ; preds = %1086, %1084
  %1088 = load ptr, ptr %11, align 8, !tbaa !51
  %1089 = icmp eq ptr %1088, null
  br i1 %1089, label %1091, label %1090

1090:                                             ; preds = %1087
  call void @_ZdlPv(ptr noundef nonnull %1088) #17
  br label %1091

1091:                                             ; preds = %1090, %1087
  call void @llvm.lifetime.end.p0(i64 24, ptr nonnull %11) #15
  br label %1100

1092:                                             ; preds = %880
  call void @_ZdlPv(ptr noundef nonnull %809) #17
  br label %1093

1093:                                             ; preds = %1092, %880, %813
  %1094 = phi { ptr, i32 } [ %814, %813 ], [ %881, %880 ], [ %881, %1092 ]
  %1095 = load ptr, ptr %11, align 8, !tbaa !51
  %1096 = icmp eq ptr %1095, null
  br i1 %1096, label %1098, label %1097

1097:                                             ; preds = %1093
  call void @_ZdlPv(ptr noundef nonnull %1095) #17
  br label %1098

1098:                                             ; preds = %1097, %1093, %811
  %1099 = phi { ptr, i32 } [ %812, %811 ], [ %1094, %1093 ], [ %1094, %1097 ]
  call void @llvm.lifetime.end.p0(i64 24, ptr nonnull %11) #15
  br label %1118

1100:                                             ; preds = %1091, %793
  %1101 = add nuw nsw i64 %175, 1
  %1102 = load i32, ptr %30, align 8, !tbaa !129
  %1103 = zext i32 %1102 to i64
  %1104 = icmp ult i64 %1101, %1103
  br i1 %1104, label %174, label %166

1105:                                             ; preds = %168
  call void @llvm.lifetime.start.p0(i64 4, ptr nonnull %12) #15
  invoke void @_ZN6dealii10QProjectorILi3EE17DataSetDescriptorC1Ev(ptr noundef nonnull align 4 dereferenceable(4) %13)
          to label %1106 unwind label %1112

1106:                                             ; preds = %1105
  %1107 = invoke i32 @_ZN6dealii10QProjectorILi3EE17DataSetDescriptor4cellEv()
          to label %1108 unwind label %1112

1108:                                             ; preds = %1106
  store i32 %1107, ptr %12, align 4
  %1109 = invoke noundef i32 @_ZNK6dealii10QProjectorILi3EE17DataSetDescriptorcvjEv(ptr noundef nonnull align 4 dereferenceable(4) %12)
          to label %1110 unwind label %1112

1110:                                             ; preds = %1108
  invoke void @_ZNK6dealii13FiniteElementILi3ELi3EE11compute_2ndERKNS_7MappingILi3ELi3EEERKNS_12TriaIteratorINS_12CellAccessorILi3ELi3EEEEEjRNS3_16InternalDataBaseERNS1_16InternalDataBaseERNS_12FEValuesDataILi3ELi3EEE(ptr noundef nonnull align 8 dereferenceable(728) %0, ptr noundef nonnull align 8 dereferenceable(72) %1, ptr noundef nonnull align 8 dereferenceable(16) %2, i32 noundef %1109, ptr noundef nonnull align 8 dereferenceable(185) %4, ptr noundef nonnull align 8 dereferenceable(216) %5, ptr noundef nonnull align 8 dereferenceable(436) %6)
          to label %1111 unwind label %1112

1111:                                             ; preds = %1110
  call void @llvm.lifetime.end.p0(i64 4, ptr nonnull %12) #15
  br label %1114

1112:                                             ; preds = %1110, %1108, %1106, %1105
  %1113 = landingpad { ptr, i32 }
          cleanup
  call void @llvm.lifetime.end.p0(i64 4, ptr nonnull %12) #15
  br label %1118

1114:                                             ; preds = %1111, %168
  %1115 = icmp eq ptr %90, null
  br i1 %1115, label %1117, label %1116

1116:                                             ; preds = %1114
  call void @_ZdlPv(ptr noundef nonnull %90) #17
  br label %1117

1117:                                             ; preds = %1114, %1116
  ret void

1118:                                             ; preds = %555, %791, %1098, %1112
  %1119 = phi { ptr, i32 } [ %1113, %1112 ], [ %1099, %1098 ], [ %792, %791 ], [ %556, %555 ]
  %1120 = icmp eq ptr %90, null
  br i1 %1120, label %1122, label %1121

1121:                                             ; preds = %1118
  call void @_ZdlPv(ptr noundef nonnull %90) #17
  br label %1122

1122:                                             ; preds = %1121, %1118
  resume { ptr, i32 } %1119
}

declare void @_ZNK6dealii13FiniteElementILi3ELi3EE11compute_2ndERKNS_7MappingILi3ELi3EEERKNS_12TriaIteratorINS_12CellAccessorILi3ELi3EEEEEjRNS3_16InternalDataBaseERNS1_16InternalDataBaseERNS_12FEValuesDataILi3ELi3EEE(ptr noundef nonnull align 8 dereferenceable(728), ptr noundef nonnull align 8 dereferenceable(72), ptr noundef nonnull align 8 dereferenceable(16), i32 noundef, ptr noundef nonnull align 8 dereferenceable(185), ptr noundef nonnull align 8 dereferenceable(216), ptr noundef nonnull align 8 dereferenceable(436)) local_unnamed_addr #1

declare void @_ZN6dealii10QProjectorILi3EE17DataSetDescriptorC1Ev(ptr noundef nonnull align 4 dereferenceable(4)) unnamed_addr #1

declare i32 @_ZN6dealii10QProjectorILi3EE17DataSetDescriptor4cellEv() local_unnamed_addr #1

declare noundef i32 @_ZNK6dealii10QProjectorILi3EE17DataSetDescriptorcvjEv(ptr noundef nonnull align 4 dereferenceable(4)) local_unnamed_addr #1

; Function Attrs: sspstrong uwtable
define weak_odr dso_local void @_ZNK6dealii13FE_PolyTensorINS_24PolynomialsRaviartThomasILi3EEELi3ELi3EE19fill_fe_face_valuesERKNS_7MappingILi3ELi3EEERKNS_12TriaIteratorINS_12CellAccessorILi3ELi3EEEEEjRKNS_10QuadratureILi2EEERNS5_16InternalDataBaseESJ_RNS_12FEValuesDataILi3ELi3EEE(ptr noundef nonnull align 8 dereferenceable(976) %0, ptr noundef nonnull align 8 dereferenceable(72) %1, ptr noundef nonnull align 8 dereferenceable(16) %2, i32 noundef %3, ptr noundef nonnull align 8 dereferenceable(128) %4, ptr noundef nonnull align 8 dereferenceable(185) %5, ptr noundef nonnull align 8 dereferenceable(185) %6, ptr noundef nonnull align 8 dereferenceable(436) %7) unnamed_addr #0 comdat align 2 personality ptr @__gxx_personality_v0 {
  %9 = alloca %"class.dealii::QProjector<3>::DataSetDescriptor", align 4
  %10 = alloca %"class.dealii::QProjector<3>::DataSetDescriptor", align 4
  %11 = alloca %"class.std::vector.67", align 8
  %12 = alloca %"class.std::vector.67", align 8
  %13 = alloca %"class.std::vector.72", align 8
  %14 = getelementptr inbounds %"class.dealii::Quadrature.110", ptr %4, i64 0, i32 3
  %15 = getelementptr inbounds %"class.dealii::Quadrature.110", ptr %4, i64 0, i32 3, i32 0, i32 0, i32 0, i32 1
  %16 = load ptr, ptr %15, align 8, !tbaa !127
  %17 = load ptr, ptr %14, align 8, !tbaa !128
  %18 = ptrtoint ptr %16 to i64
  %19 = ptrtoint ptr %17 to i64
  %20 = sub i64 %18, %19
  %21 = lshr exact i64 %20, 3
  %22 = trunc i64 %21 to i32
  call void @llvm.lifetime.start.p0(i64 4, ptr nonnull %9) #15
  call void @_ZN6dealii10QProjectorILi3EE17DataSetDescriptorC1Ev(ptr noundef nonnull align 4 dereferenceable(4) %9)
  call void @llvm.lifetime.start.p0(i64 4, ptr nonnull %10) #15
  %23 = getelementptr inbounds %"class.dealii::TriaAccessorBase", ptr %2, i64 0, i32 2
  %24 = load ptr, ptr %23, align 8, !tbaa !216
  %25 = getelementptr inbounds %"class.dealii::Triangulation", ptr %24, i64 0, i32 1
  %26 = load i32, ptr %2, align 8, !tbaa !218
  %27 = sext i32 %26 to i64
  %28 = load ptr, ptr %25, align 8, !tbaa !219
  %29 = getelementptr inbounds ptr, ptr %28, i64 %27
  %30 = load ptr, ptr %29, align 8, !tbaa !33
  %31 = getelementptr inbounds %"class.dealii::TriaAccessorBase", ptr %2, i64 0, i32 1
  %32 = load i32, ptr %31, align 4, !tbaa !221
  %33 = getelementptr inbounds %"class.dealii::internal::Triangulation::TriaLevel", ptr %30, i64 0, i32 4, i32 1
  %34 = mul i32 %32, 6
  %35 = add i32 %34, %3
  %36 = load ptr, ptr %33, align 8, !tbaa !222
  %37 = lshr i32 %35, 6
  %38 = zext i32 %37 to i64
  %39 = getelementptr inbounds i64, ptr %36, i64 %38
  %40 = and i32 %35, 63
  %41 = zext i32 %40 to i64
  %42 = shl nuw i64 1, %41
  %43 = load i64, ptr %39, align 8, !tbaa !223
  %44 = and i64 %42, %43
  %45 = icmp ne i64 %44, 0
  %46 = getelementptr inbounds %"class.dealii::internal::Triangulation::TriaLevel", ptr %30, i64 0, i32 4, i32 2
  %47 = load ptr, ptr %46, align 8, !tbaa !222
  %48 = getelementptr inbounds i64, ptr %47, i64 %38
  %49 = load i64, ptr %48, align 8, !tbaa !223
  %50 = and i64 %42, %49
  %51 = icmp ne i64 %50, 0
  %52 = getelementptr inbounds %"class.dealii::internal::Triangulation::TriaLevel", ptr %30, i64 0, i32 4, i32 3
  %53 = load ptr, ptr %52, align 8, !tbaa !222
  %54 = getelementptr inbounds i64, ptr %53, i64 %38
  %55 = load i64, ptr %54, align 8, !tbaa !223
  %56 = and i64 %55, %42
  %57 = icmp ne i64 %56, 0
  %58 = call i32 @_ZN6dealii10QProjectorILi3EE17DataSetDescriptor4faceEjbbbj(i32 noundef %3, i1 noundef zeroext %45, i1 noundef zeroext %51, i1 noundef zeroext %57, i32 noundef %22)
  store i32 %58, ptr %10, align 4
  %59 = getelementptr inbounds %"class.dealii::Mapping<3, 3>::InternalDataBase", ptr %6, i64 0, i32 2
  %60 = load i32, ptr %59, align 4, !tbaa !118
  %61 = getelementptr inbounds %"class.dealii::Mapping<3, 3>::InternalDataBase", ptr %6, i64 0, i32 3
  %62 = load i32, ptr %61, align 8, !tbaa !125
  %63 = or i32 %62, %60
  %64 = getelementptr inbounds i8, ptr %0, i64 112
  %65 = load i32, ptr %64, align 8, !tbaa !129
  %66 = icmp eq i32 %65, 0
  br i1 %66, label %180, label %67

67:                                               ; preds = %8
  %68 = zext i32 %65 to i64
  %69 = shl nuw nsw i64 %68, 3
  %70 = call noalias noundef nonnull ptr @_Znwm(i64 noundef %69) #16
  %71 = getelementptr inbounds double, ptr %70, i64 %68
  %72 = add nuw nsw i64 %68, 2305843009213693951
  %73 = and i64 %72, 2305843009213693951
  %74 = add nuw nsw i64 %73, 1
  %75 = icmp ult i64 %73, 15
  br i1 %75, label %91, label %76

76:                                               ; preds = %67
  %77 = and i64 %74, 4611686018427387888
  %78 = shl i64 %77, 3
  %79 = getelementptr i8, ptr %70, i64 %78
  br label %80

80:                                               ; preds = %80, %76
  %81 = phi i64 [ 0, %76 ], [ %87, %80 ]
  %82 = shl i64 %81, 3
  %83 = getelementptr i8, ptr %70, i64 %82
  store <4 x double> <double 1.000000e+00, double 1.000000e+00, double 1.000000e+00, double 1.000000e+00>, ptr %83, align 8, !tbaa !8
  %84 = getelementptr double, ptr %83, i64 4
  store <4 x double> <double 1.000000e+00, double 1.000000e+00, double 1.000000e+00, double 1.000000e+00>, ptr %84, align 8, !tbaa !8
  %85 = getelementptr double, ptr %83, i64 8
  store <4 x double> <double 1.000000e+00, double 1.000000e+00, double 1.000000e+00, double 1.000000e+00>, ptr %85, align 8, !tbaa !8
  %86 = getelementptr double, ptr %83, i64 12
  store <4 x double> <double 1.000000e+00, double 1.000000e+00, double 1.000000e+00, double 1.000000e+00>, ptr %86, align 8, !tbaa !8
  %87 = add nuw i64 %81, 16
  %88 = icmp eq i64 %87, %77
  br i1 %88, label %89, label %80, !llvm.loop !224

89:                                               ; preds = %80
  %90 = icmp eq i64 %74, %77
  br i1 %90, label %97, label %91

91:                                               ; preds = %67, %89
  %92 = phi ptr [ %70, %67 ], [ %79, %89 ]
  br label %93

93:                                               ; preds = %91, %93
  %94 = phi ptr [ %95, %93 ], [ %92, %91 ]
  store double 1.000000e+00, ptr %94, align 8, !tbaa !8
  %95 = getelementptr inbounds double, ptr %94, i64 1
  %96 = icmp eq ptr %95, %71
  br i1 %96, label %97, label %93, !llvm.loop !225

97:                                               ; preds = %93, %89
  %98 = add nuw nsw i64 %68, 2305843009213693951
  %99 = and i64 %98, 2305843009213693951
  %100 = add nuw nsw i64 %99, 1
  %101 = icmp ult i64 %99, 15
  br i1 %101, label %117, label %102

102:                                              ; preds = %97
  %103 = and i64 %100, 4611686018427387888
  %104 = shl i64 %103, 3
  %105 = getelementptr i8, ptr %70, i64 %104
  br label %106

106:                                              ; preds = %106, %102
  %107 = phi i64 [ 0, %102 ], [ %113, %106 ]
  %108 = shl i64 %107, 3
  %109 = getelementptr i8, ptr %70, i64 %108
  store <4 x double> <double 1.000000e+00, double 1.000000e+00, double 1.000000e+00, double 1.000000e+00>, ptr %109, align 8, !tbaa !8
  %110 = getelementptr double, ptr %109, i64 4
  store <4 x double> <double 1.000000e+00, double 1.000000e+00, double 1.000000e+00, double 1.000000e+00>, ptr %110, align 8, !tbaa !8
  %111 = getelementptr double, ptr %109, i64 8
  store <4 x double> <double 1.000000e+00, double 1.000000e+00, double 1.000000e+00, double 1.000000e+00>, ptr %111, align 8, !tbaa !8
  %112 = getelementptr double, ptr %109, i64 12
  store <4 x double> <double 1.000000e+00, double 1.000000e+00, double 1.000000e+00, double 1.000000e+00>, ptr %112, align 8, !tbaa !8
  %113 = add nuw i64 %107, 16
  %114 = icmp eq i64 %113, %103
  br i1 %114, label %115, label %106, !llvm.loop !226

115:                                              ; preds = %106
  %116 = icmp eq i64 %100, %103
  br i1 %116, label %123, label %117

117:                                              ; preds = %97, %115
  %118 = phi ptr [ %70, %97 ], [ %105, %115 ]
  br label %119

119:                                              ; preds = %117, %119
  %120 = phi ptr [ %121, %119 ], [ %118, %117 ]
  store double 1.000000e+00, ptr %120, align 8, !tbaa !8
  %121 = getelementptr inbounds double, ptr %120, i64 1
  %122 = icmp eq ptr %121, %71
  br i1 %122, label %123, label %119, !llvm.loop !227

123:                                              ; preds = %119, %115
  br i1 %66, label %180, label %124

124:                                              ; preds = %123
  %125 = getelementptr inbounds %"class.dealii::FEValuesData", ptr %7, i64 0, i32 14
  %126 = and i32 %63, 1
  %127 = icmp eq i32 %126, 0
  %128 = getelementptr inbounds %"class.dealii::FE_PolyTensor", ptr %0, i64 0, i32 1
  %129 = and i64 %21, 4294967295
  %130 = icmp eq i64 %129, 0
  %131 = mul nuw nsw i64 %129, 24
  %132 = getelementptr inbounds %"struct.std::_Vector_base<dealii::Tensor<1, 3>, std::allocator<dealii::Tensor<1, 3> > >::_Vector_impl_data", ptr %12, i64 0, i32 2
  %133 = getelementptr inbounds %"struct.std::_Vector_base<dealii::Tensor<1, 3>, std::allocator<dealii::Tensor<1, 3> > >::_Vector_impl_data", ptr %12, i64 0, i32 1
  %134 = getelementptr inbounds %"class.dealii::FE_PolyTensor<dealii::PolynomialsRaviartThomas<3>, 3>::InternalData", ptr %6, i64 0, i32 1
  %135 = shl nuw i64 %129, 32
  %136 = icmp eq i32 %22, 0
  %137 = getelementptr inbounds %"class.dealii::TableBase", ptr %7, i64 0, i32 1
  %138 = getelementptr inbounds %"class.dealii::TableBase", ptr %7, i64 0, i32 3, i32 0, i32 0, i64 1
  %139 = getelementptr inbounds %"struct.std::_Vector_base<dealii::Tensor<1, 3>, std::allocator<dealii::Tensor<1, 3> > >::_Vector_impl_data", ptr %11, i64 0, i32 2
  %140 = getelementptr inbounds %"struct.std::_Vector_base<dealii::Tensor<1, 3>, std::allocator<dealii::Tensor<1, 3> > >::_Vector_impl_data", ptr %11, i64 0, i32 1
  %141 = and i32 %63, 2
  %142 = icmp eq i32 %141, 0
  %143 = mul nuw nsw i64 %129, 72
  %144 = getelementptr inbounds %"struct.std::_Vector_base<dealii::Tensor<2, 3>, std::allocator<dealii::Tensor<2, 3> > >::_Vector_impl_data", ptr %13, i64 0, i32 2
  %145 = getelementptr inbounds %"struct.std::_Vector_base<dealii::Tensor<2, 3>, std::allocator<dealii::Tensor<2, 3> > >::_Vector_impl_data", ptr %13, i64 0, i32 1
  %146 = getelementptr inbounds %"class.dealii::FE_PolyTensor<dealii::PolynomialsRaviartThomas<3>, 3>::InternalData", ptr %6, i64 0, i32 2
  %147 = getelementptr inbounds %"class.dealii::FEValuesData", ptr %7, i64 0, i32 1
  %148 = and i64 %21, 4294967295
  %149 = and i64 %21, 4294967295
  %150 = and i64 %21, 4294967295
  %151 = and i64 %21, 4294967295
  %152 = and i64 %21, 4294967295
  %153 = and i64 %21, 4294967295
  %154 = add nsw i64 %148, -1
  %155 = shl nuw nsw i64 %148, 3
  %156 = mul nuw nsw i64 %148, 24
  %157 = add nsw i64 %156, -16
  %158 = add nsw i64 %156, -8
  %159 = add nsw i64 %148, -1
  %160 = shl nuw nsw i64 %148, 3
  %161 = mul nuw nsw i64 %148, 24
  %162 = add nsw i64 %161, -16
  %163 = add nsw i64 %161, -8
  %164 = icmp ult i64 %148, 40
  %165 = trunc i64 %159 to i32
  %166 = trunc i64 %159 to i32
  %167 = icmp ugt i64 %159, 4294967295
  %168 = trunc i64 %159 to i32
  %169 = and i64 %21, 3
  %170 = sub nsw i64 %148, %169
  %171 = icmp eq i64 %169, 0
  %172 = icmp ult i64 %148, 60
  %173 = trunc i64 %154 to i32
  %174 = trunc i64 %154 to i32
  %175 = icmp ugt i64 %154, 4294967295
  %176 = trunc i64 %154 to i32
  %177 = and i64 %21, 3
  %178 = sub nsw i64 %148, %177
  %179 = icmp eq i64 %177, 0
  br label %184

180:                                              ; preds = %980, %8, %123
  %181 = phi ptr [ %70, %123 ], [ null, %8 ], [ %70, %980 ]
  %182 = and i32 %63, 4
  %183 = icmp eq i32 %182, 0
  br i1 %183, label %988, label %985

184:                                              ; preds = %124, %980
  %185 = phi i64 [ 0, %124 ], [ %981, %980 ]
  %186 = shl nuw nsw i64 %185, 3
  %187 = getelementptr i8, ptr %70, i64 %186
  %188 = add nuw i64 %186, 8
  %189 = getelementptr i8, ptr %70, i64 %188
  %190 = load ptr, ptr %125, align 8, !tbaa !154
  %191 = getelementptr inbounds i32, ptr %190, i64 %185
  %192 = load i32, ptr %191, align 4, !tbaa !34
  br i1 %127, label %685, label %193

193:                                              ; preds = %184
  %194 = load i32, ptr %128, align 8, !tbaa !61
  switch i32 %194, label %685 [
    i32 0, label %195
    i32 1, label %250
    i32 2, label %250
    i32 256, label %452
  ]

195:                                              ; preds = %193
  br i1 %136, label %685, label %196

196:                                              ; preds = %195
  %197 = add i32 %192, 1
  %198 = add i32 %192, 2
  br label %199

199:                                              ; preds = %196, %233
  %200 = phi i32 [ %246, %233 ], [ 0, %196 ]
  %201 = load ptr, ptr %134, align 8, !tbaa !130
  %202 = invoke noundef i32 @_ZNK6dealii10QProjectorILi3EE17DataSetDescriptorcvjEv(ptr noundef nonnull align 4 dereferenceable(4) %10)
          to label %203 unwind label %248

203:                                              ; preds = %199
  %204 = getelementptr inbounds %"class.std::vector.67", ptr %201, i64 %185
  %205 = add i32 %202, %200
  %206 = zext i32 %205 to i64
  %207 = load ptr, ptr %204, align 8, !tbaa !25
  %208 = getelementptr inbounds %"class.dealii::Tensor", ptr %207, i64 %206
  %209 = load double, ptr %208, align 8, !tbaa !8
  %210 = load ptr, ptr %137, align 8, !tbaa !35
  %211 = load i32, ptr %138, align 8, !tbaa !34
  %212 = mul i32 %211, %192
  %213 = add i32 %212, %200
  %214 = zext i32 %213 to i64
  %215 = getelementptr inbounds double, ptr %210, i64 %214
  store double %209, ptr %215, align 8, !tbaa !8
  %216 = load ptr, ptr %134, align 8, !tbaa !130
  %217 = invoke noundef i32 @_ZNK6dealii10QProjectorILi3EE17DataSetDescriptorcvjEv(ptr noundef nonnull align 4 dereferenceable(4) %10)
          to label %218 unwind label %248

218:                                              ; preds = %203
  %219 = getelementptr inbounds %"class.std::vector.67", ptr %216, i64 %185
  %220 = add i32 %217, %200
  %221 = zext i32 %220 to i64
  %222 = load ptr, ptr %219, align 8, !tbaa !25
  %223 = getelementptr inbounds %"class.dealii::Tensor", ptr %222, i64 %221, i32 0, i64 1
  %224 = load double, ptr %223, align 8, !tbaa !8
  %225 = load ptr, ptr %137, align 8, !tbaa !35
  %226 = load i32, ptr %138, align 8, !tbaa !34
  %227 = mul i32 %226, %197
  %228 = add i32 %227, %200
  %229 = zext i32 %228 to i64
  %230 = getelementptr inbounds double, ptr %225, i64 %229
  store double %224, ptr %230, align 8, !tbaa !8
  %231 = load ptr, ptr %134, align 8, !tbaa !130
  %232 = invoke noundef i32 @_ZNK6dealii10QProjectorILi3EE17DataSetDescriptorcvjEv(ptr noundef nonnull align 4 dereferenceable(4) %10)
          to label %233 unwind label %248

233:                                              ; preds = %218
  %234 = getelementptr inbounds %"class.std::vector.67", ptr %231, i64 %185
  %235 = add i32 %232, %200
  %236 = zext i32 %235 to i64
  %237 = load ptr, ptr %234, align 8, !tbaa !25
  %238 = getelementptr inbounds %"class.dealii::Tensor", ptr %237, i64 %236, i32 0, i64 2
  %239 = load double, ptr %238, align 8, !tbaa !8
  %240 = load ptr, ptr %137, align 8, !tbaa !35
  %241 = load i32, ptr %138, align 8, !tbaa !34
  %242 = mul i32 %241, %198
  %243 = add i32 %242, %200
  %244 = zext i32 %243 to i64
  %245 = getelementptr inbounds double, ptr %240, i64 %244
  store double %239, ptr %245, align 8, !tbaa !8
  %246 = add nuw i32 %200, 1
  %247 = icmp eq i32 %246, %22
  br i1 %247, label %685, label %199

248:                                              ; preds = %218, %203, %199
  %249 = landingpad { ptr, i32 }
          cleanup
  br label %995

250:                                              ; preds = %193, %193
  call void @llvm.lifetime.start.p0(i64 24, ptr nonnull %11) #15
  br i1 %130, label %251, label %252

251:                                              ; preds = %250
  call void @llvm.memset.p0.i64(ptr noundef nonnull align 8 dereferenceable(24) %11, i8 0, i64 24, i1 false)
  br label %257

252:                                              ; preds = %250
  %253 = invoke noalias noundef nonnull ptr @_Znwm(i64 noundef %131) #16
          to label %254 unwind label %442

254:                                              ; preds = %252
  store ptr %253, ptr %11, align 8, !tbaa !25
  %255 = getelementptr inbounds %"class.dealii::Tensor", ptr %253, i64 %129
  store ptr %255, ptr %139, align 8, !tbaa !173
  call void @llvm.memset.p0.i64(ptr nonnull align 8 %253, i8 0, i64 %131, i1 false), !tbaa !8
  %256 = getelementptr i8, ptr %253, i64 %131
  br label %257

257:                                              ; preds = %254, %251
  %258 = phi ptr [ null, %251 ], [ %256, %254 ]
  store ptr %258, ptr %140, align 8, !tbaa !23
  %259 = load ptr, ptr %134, align 8, !tbaa !130
  %260 = invoke noundef i32 @_ZNK6dealii10QProjectorILi3EE17DataSetDescriptorcvjEv(ptr noundef nonnull align 4 dereferenceable(4) %10)
          to label %261 unwind label %444

261:                                              ; preds = %257
  %262 = getelementptr inbounds %"class.std::vector.67", ptr %259, i64 %185
  %263 = zext i32 %260 to i64
  %264 = or i64 %135, %263
  %265 = load ptr, ptr %140, align 8, !tbaa !23
  %266 = load ptr, ptr %11, align 8, !tbaa !25
  %267 = ptrtoint ptr %265 to i64
  %268 = ptrtoint ptr %266 to i64
  %269 = sub i64 %267, %268
  %270 = sdiv exact i64 %269, 24
  %271 = load i32, ptr %128, align 8, !tbaa !61
  %272 = shl i64 %270, 32
  %273 = load ptr, ptr %1, align 8, !tbaa !5
  %274 = getelementptr inbounds ptr, ptr %273, i64 4
  %275 = load ptr, ptr %274, align 8
  invoke void %275(ptr noundef nonnull align 8 dereferenceable(72) %1, ptr %262, i64 %264, ptr nonnull %11, i64 %272, ptr noundef nonnull align 8 dereferenceable(185) %5, i32 noundef %271)
          to label %276 unwind label %444

276:                                              ; preds = %261
  %277 = load ptr, ptr %11, align 8, !tbaa !25
  br i1 %136, label %439, label %278

278:                                              ; preds = %276
  %279 = load ptr, ptr %137, align 8, !tbaa !35
  %280 = load i32, ptr %138, align 8, !tbaa !34
  %281 = mul i32 %280, %192
  %282 = add i32 %192, 1
  %283 = mul i32 %280, %282
  %284 = add i32 %192, 2
  %285 = mul i32 %280, %284
  br i1 %172, label %417, label %286

286:                                              ; preds = %278
  %287 = xor i32 %281, -1
  %288 = icmp ult i32 %287, %173
  %289 = xor i32 %283, -1
  %290 = icmp ult i32 %289, %174
  %291 = or i1 %290, %175
  %292 = xor i32 %285, -1
  %293 = icmp ult i32 %292, %176
  %294 = or i1 %288, %291
  %295 = or i1 %293, %294
  br i1 %295, label %417, label %296

296:                                              ; preds = %286
  %297 = zext i32 %281 to i64
  %298 = shl nuw nsw i64 %297, 3
  %299 = getelementptr i8, ptr %279, i64 %298
  %300 = getelementptr i8, ptr %279, i64 %155
  %301 = getelementptr i8, ptr %300, i64 %298
  %302 = zext i32 %283 to i64
  %303 = shl nuw nsw i64 %302, 3
  %304 = getelementptr i8, ptr %279, i64 %303
  %305 = getelementptr i8, ptr %300, i64 %303
  %306 = zext i32 %285 to i64
  %307 = shl nuw nsw i64 %306, 3
  %308 = getelementptr i8, ptr %279, i64 %307
  %309 = getelementptr i8, ptr %279, i64 %155
  %310 = getelementptr i8, ptr %309, i64 %307
  %311 = getelementptr i8, ptr %277, i64 %157
  %312 = getelementptr i8, ptr %277, i64 8
  %313 = getelementptr i8, ptr %277, i64 %158
  %314 = getelementptr i8, ptr %277, i64 16
  %315 = getelementptr i8, ptr %277, i64 %156
  %316 = icmp ult ptr %299, %305
  %317 = icmp ult ptr %304, %301
  %318 = and i1 %316, %317
  %319 = icmp ult ptr %299, %310
  %320 = icmp ult ptr %308, %301
  %321 = and i1 %319, %320
  %322 = or i1 %318, %321
  %323 = icmp ult ptr %299, %311
  %324 = icmp ult ptr %277, %301
  %325 = and i1 %323, %324
  %326 = or i1 %322, %325
  %327 = icmp ult ptr %299, %313
  %328 = icmp ult ptr %312, %301
  %329 = and i1 %327, %328
  %330 = or i1 %326, %329
  %331 = icmp ult ptr %299, %315
  %332 = icmp ult ptr %314, %301
  %333 = and i1 %331, %332
  %334 = or i1 %330, %333
  %335 = icmp ult ptr %304, %310
  %336 = icmp ult ptr %308, %305
  %337 = and i1 %335, %336
  %338 = or i1 %334, %337
  %339 = icmp ult ptr %304, %311
  %340 = icmp ult ptr %277, %305
  %341 = and i1 %339, %340
  %342 = or i1 %338, %341
  %343 = icmp ult ptr %304, %313
  %344 = icmp ult ptr %312, %305
  %345 = and i1 %343, %344
  %346 = or i1 %342, %345
  %347 = icmp ult ptr %304, %315
  %348 = icmp ult ptr %314, %305
  %349 = and i1 %347, %348
  %350 = or i1 %346, %349
  %351 = icmp ult ptr %308, %311
  %352 = icmp ult ptr %277, %310
  %353 = and i1 %351, %352
  %354 = or i1 %350, %353
  %355 = icmp ult ptr %308, %313
  %356 = icmp ult ptr %312, %310
  %357 = and i1 %355, %356
  %358 = or i1 %354, %357
  %359 = icmp ult ptr %308, %315
  %360 = icmp ult ptr %314, %310
  %361 = and i1 %359, %360
  %362 = or i1 %358, %361
  br i1 %362, label %417, label %363

363:                                              ; preds = %296, %363
  %364 = phi i64 [ %414, %363 ], [ 0, %296 ]
  %365 = trunc i64 %364 to i32
  %366 = or i64 %364, 1
  %367 = or i64 %364, 2
  %368 = or i64 %364, 3
  %369 = getelementptr inbounds %"class.dealii::Tensor", ptr %277, i64 %364
  %370 = getelementptr inbounds %"class.dealii::Tensor", ptr %277, i64 %366
  %371 = getelementptr inbounds %"class.dealii::Tensor", ptr %277, i64 %367
  %372 = getelementptr inbounds %"class.dealii::Tensor", ptr %277, i64 %368
  %373 = load double, ptr %369, align 8, !tbaa !8, !alias.scope !228
  %374 = load double, ptr %370, align 8, !tbaa !8, !alias.scope !228
  %375 = load double, ptr %371, align 8, !tbaa !8, !alias.scope !228
  %376 = load double, ptr %372, align 8, !tbaa !8, !alias.scope !228
  %377 = insertelement <4 x double> poison, double %373, i64 0
  %378 = insertelement <4 x double> %377, double %374, i64 1
  %379 = insertelement <4 x double> %378, double %375, i64 2
  %380 = insertelement <4 x double> %379, double %376, i64 3
  %381 = add i32 %281, %365
  %382 = zext i32 %381 to i64
  %383 = getelementptr inbounds double, ptr %279, i64 %382
  store <4 x double> %380, ptr %383, align 8, !tbaa !8, !alias.scope !231, !noalias !233
  %384 = getelementptr inbounds [3 x double], ptr %369, i64 0, i64 1
  %385 = getelementptr inbounds [3 x double], ptr %370, i64 0, i64 1
  %386 = getelementptr inbounds [3 x double], ptr %371, i64 0, i64 1
  %387 = getelementptr inbounds [3 x double], ptr %372, i64 0, i64 1
  %388 = load double, ptr %384, align 8, !tbaa !8, !alias.scope !238
  %389 = load double, ptr %385, align 8, !tbaa !8, !alias.scope !238
  %390 = load double, ptr %386, align 8, !tbaa !8, !alias.scope !238
  %391 = load double, ptr %387, align 8, !tbaa !8, !alias.scope !238
  %392 = insertelement <4 x double> poison, double %388, i64 0
  %393 = insertelement <4 x double> %392, double %389, i64 1
  %394 = insertelement <4 x double> %393, double %390, i64 2
  %395 = insertelement <4 x double> %394, double %391, i64 3
  %396 = add i32 %283, %365
  %397 = zext i32 %396 to i64
  %398 = getelementptr inbounds double, ptr %279, i64 %397
  store <4 x double> %395, ptr %398, align 8, !tbaa !8, !alias.scope !239, !noalias !240
  %399 = getelementptr inbounds [3 x double], ptr %369, i64 0, i64 2
  %400 = getelementptr inbounds [3 x double], ptr %370, i64 0, i64 2
  %401 = getelementptr inbounds [3 x double], ptr %371, i64 0, i64 2
  %402 = getelementptr inbounds [3 x double], ptr %372, i64 0, i64 2
  %403 = load double, ptr %399, align 8, !tbaa !8, !alias.scope !241
  %404 = load double, ptr %400, align 8, !tbaa !8, !alias.scope !241
  %405 = load double, ptr %401, align 8, !tbaa !8, !alias.scope !241
  %406 = load double, ptr %402, align 8, !tbaa !8, !alias.scope !241
  %407 = insertelement <4 x double> poison, double %403, i64 0
  %408 = insertelement <4 x double> %407, double %404, i64 1
  %409 = insertelement <4 x double> %408, double %405, i64 2
  %410 = insertelement <4 x double> %409, double %406, i64 3
  %411 = add i32 %285, %365
  %412 = zext i32 %411 to i64
  %413 = getelementptr inbounds double, ptr %279, i64 %412
  store <4 x double> %410, ptr %413, align 8, !tbaa !8, !alias.scope !242, !noalias !243
  %414 = add nuw i64 %364, 4
  %415 = icmp eq i64 %414, %178
  br i1 %415, label %416, label %363, !llvm.loop !244

416:                                              ; preds = %363
  br i1 %179, label %441, label %417

417:                                              ; preds = %296, %286, %278, %416
  %418 = phi i64 [ 0, %296 ], [ 0, %286 ], [ 0, %278 ], [ %178, %416 ]
  br label %419

419:                                              ; preds = %417, %419
  %420 = phi i64 [ %437, %419 ], [ %418, %417 ]
  %421 = getelementptr inbounds %"class.dealii::Tensor", ptr %277, i64 %420
  %422 = load double, ptr %421, align 8, !tbaa !8
  %423 = trunc i64 %420 to i32
  %424 = add i32 %281, %423
  %425 = zext i32 %424 to i64
  %426 = getelementptr inbounds double, ptr %279, i64 %425
  store double %422, ptr %426, align 8, !tbaa !8
  %427 = getelementptr inbounds [3 x double], ptr %421, i64 0, i64 1
  %428 = load double, ptr %427, align 8, !tbaa !8
  %429 = add i32 %283, %423
  %430 = zext i32 %429 to i64
  %431 = getelementptr inbounds double, ptr %279, i64 %430
  store double %428, ptr %431, align 8, !tbaa !8
  %432 = getelementptr inbounds [3 x double], ptr %421, i64 0, i64 2
  %433 = load double, ptr %432, align 8, !tbaa !8
  %434 = add i32 %285, %423
  %435 = zext i32 %434 to i64
  %436 = getelementptr inbounds double, ptr %279, i64 %435
  store double %433, ptr %436, align 8, !tbaa !8
  %437 = add nuw nsw i64 %420, 1
  %438 = icmp eq i64 %437, %149
  br i1 %438, label %441, label %419, !llvm.loop !245

439:                                              ; preds = %276
  %440 = icmp eq ptr %277, null
  br i1 %440, label %449, label %441

441:                                              ; preds = %419, %416, %439
  call void @_ZdlPv(ptr noundef nonnull %277) #17
  br label %449

442:                                              ; preds = %252
  %443 = landingpad { ptr, i32 }
          cleanup
  br label %450

444:                                              ; preds = %261, %257
  %445 = landingpad { ptr, i32 }
          cleanup
  %446 = load ptr, ptr %11, align 8, !tbaa !25
  %447 = icmp eq ptr %446, null
  br i1 %447, label %450, label %448

448:                                              ; preds = %444
  call void @_ZdlPv(ptr noundef nonnull %446) #17
  br label %450

449:                                              ; preds = %441, %439
  call void @llvm.lifetime.end.p0(i64 24, ptr nonnull %11) #15
  br label %685

450:                                              ; preds = %448, %444, %442
  %451 = phi { ptr, i32 } [ %443, %442 ], [ %445, %444 ], [ %445, %448 ]
  call void @llvm.lifetime.end.p0(i64 24, ptr nonnull %11) #15
  br label %995

452:                                              ; preds = %193
  call void @llvm.lifetime.start.p0(i64 24, ptr nonnull %12) #15
  br i1 %130, label %453, label %454

453:                                              ; preds = %452
  call void @llvm.memset.p0.i64(ptr noundef nonnull align 8 dereferenceable(24) %12, i8 0, i64 24, i1 false)
  br label %459

454:                                              ; preds = %452
  %455 = invoke noalias noundef nonnull ptr @_Znwm(i64 noundef %131) #16
          to label %456 unwind label %675

456:                                              ; preds = %454
  store ptr %455, ptr %12, align 8, !tbaa !25
  %457 = getelementptr inbounds %"class.dealii::Tensor", ptr %455, i64 %129
  store ptr %457, ptr %132, align 8, !tbaa !173
  call void @llvm.memset.p0.i64(ptr nonnull align 8 %455, i8 0, i64 %131, i1 false), !tbaa !8
  %458 = getelementptr i8, ptr %455, i64 %131
  br label %459

459:                                              ; preds = %456, %453
  %460 = phi ptr [ null, %453 ], [ %458, %456 ]
  store ptr %460, ptr %133, align 8, !tbaa !23
  %461 = load ptr, ptr %134, align 8, !tbaa !130
  %462 = invoke noundef i32 @_ZNK6dealii10QProjectorILi3EE17DataSetDescriptorcvjEv(ptr noundef nonnull align 4 dereferenceable(4) %10)
          to label %463 unwind label %677

463:                                              ; preds = %459
  %464 = getelementptr inbounds %"class.std::vector.67", ptr %461, i64 %185
  %465 = zext i32 %462 to i64
  %466 = or i64 %135, %465
  %467 = load ptr, ptr %133, align 8, !tbaa !23
  %468 = load ptr, ptr %12, align 8, !tbaa !25
  %469 = ptrtoint ptr %467 to i64
  %470 = ptrtoint ptr %468 to i64
  %471 = sub i64 %469, %470
  %472 = sdiv exact i64 %471, 24
  %473 = shl i64 %472, 32
  %474 = load ptr, ptr %1, align 8, !tbaa !5
  %475 = getelementptr inbounds ptr, ptr %474, i64 4
  %476 = load ptr, ptr %475, align 8
  invoke void %476(ptr noundef nonnull align 8 dereferenceable(72) %1, ptr %464, i64 %466, ptr nonnull %12, i64 %473, ptr noundef nonnull align 8 dereferenceable(185) %5, i32 noundef 256)
          to label %477 unwind label %677

477:                                              ; preds = %463
  %478 = load ptr, ptr %12, align 8, !tbaa !25
  br i1 %136, label %672, label %479

479:                                              ; preds = %477
  %480 = getelementptr inbounds double, ptr %70, i64 %185
  %481 = load ptr, ptr %137, align 8, !tbaa !35
  %482 = load i32, ptr %138, align 8, !tbaa !34
  %483 = mul i32 %482, %192
  %484 = add i32 %192, 1
  %485 = mul i32 %482, %484
  %486 = add i32 %192, 2
  %487 = mul i32 %482, %486
  br i1 %164, label %644, label %488

488:                                              ; preds = %479
  %489 = xor i32 %483, -1
  %490 = icmp ult i32 %489, %165
  %491 = xor i32 %485, -1
  %492 = icmp ult i32 %491, %166
  %493 = or i1 %492, %167
  %494 = xor i32 %487, -1
  %495 = icmp ult i32 %494, %168
  %496 = or i1 %490, %493
  %497 = or i1 %495, %496
  br i1 %497, label %644, label %498

498:                                              ; preds = %488
  %499 = zext i32 %483 to i64
  %500 = shl nuw nsw i64 %499, 3
  %501 = getelementptr i8, ptr %481, i64 %500
  %502 = getelementptr i8, ptr %481, i64 %160
  %503 = getelementptr i8, ptr %502, i64 %500
  %504 = zext i32 %485 to i64
  %505 = shl nuw nsw i64 %504, 3
  %506 = getelementptr i8, ptr %481, i64 %505
  %507 = getelementptr i8, ptr %502, i64 %505
  %508 = zext i32 %487 to i64
  %509 = shl nuw nsw i64 %508, 3
  %510 = getelementptr i8, ptr %481, i64 %509
  %511 = getelementptr i8, ptr %481, i64 %160
  %512 = getelementptr i8, ptr %511, i64 %509
  %513 = getelementptr i8, ptr %478, i64 %162
  %514 = getelementptr i8, ptr %478, i64 8
  %515 = getelementptr i8, ptr %478, i64 %163
  %516 = getelementptr i8, ptr %478, i64 16
  %517 = getelementptr i8, ptr %478, i64 %161
  %518 = icmp ult ptr %501, %507
  %519 = icmp ult ptr %506, %503
  %520 = and i1 %518, %519
  %521 = icmp ult ptr %501, %512
  %522 = icmp ult ptr %510, %503
  %523 = and i1 %521, %522
  %524 = or i1 %520, %523
  %525 = icmp ult ptr %501, %189
  %526 = icmp ult ptr %187, %503
  %527 = and i1 %525, %526
  %528 = or i1 %524, %527
  %529 = icmp ult ptr %501, %513
  %530 = icmp ult ptr %478, %503
  %531 = and i1 %529, %530
  %532 = or i1 %528, %531
  %533 = icmp ult ptr %501, %515
  %534 = icmp ult ptr %514, %503
  %535 = and i1 %533, %534
  %536 = or i1 %532, %535
  %537 = icmp ult ptr %501, %517
  %538 = icmp ult ptr %516, %503
  %539 = and i1 %537, %538
  %540 = or i1 %536, %539
  %541 = icmp ult ptr %506, %512
  %542 = icmp ult ptr %510, %507
  %543 = and i1 %541, %542
  %544 = or i1 %540, %543
  %545 = icmp ult ptr %506, %189
  %546 = icmp ult ptr %187, %507
  %547 = and i1 %545, %546
  %548 = or i1 %544, %547
  %549 = icmp ult ptr %506, %513
  %550 = icmp ult ptr %478, %507
  %551 = and i1 %549, %550
  %552 = or i1 %548, %551
  %553 = icmp ult ptr %506, %515
  %554 = icmp ult ptr %514, %507
  %555 = and i1 %553, %554
  %556 = or i1 %552, %555
  %557 = icmp ult ptr %506, %517
  %558 = icmp ult ptr %516, %507
  %559 = and i1 %557, %558
  %560 = or i1 %556, %559
  %561 = icmp ult ptr %510, %189
  %562 = icmp ult ptr %187, %512
  %563 = and i1 %561, %562
  %564 = or i1 %560, %563
  %565 = icmp ult ptr %510, %513
  %566 = icmp ult ptr %478, %512
  %567 = and i1 %565, %566
  %568 = or i1 %564, %567
  %569 = icmp ult ptr %510, %515
  %570 = icmp ult ptr %514, %512
  %571 = and i1 %569, %570
  %572 = or i1 %568, %571
  %573 = icmp ult ptr %510, %517
  %574 = icmp ult ptr %516, %512
  %575 = and i1 %573, %574
  %576 = or i1 %572, %575
  br i1 %576, label %644, label %577

577:                                              ; preds = %498
  %578 = load double, ptr %480, align 8, !tbaa !8, !alias.scope !246
  %579 = insertelement <4 x double> poison, double %578, i64 0
  %580 = shufflevector <4 x double> %579, <4 x double> poison, <4 x i32> zeroinitializer
  %581 = load double, ptr %480, align 8, !tbaa !8, !alias.scope !246
  %582 = insertelement <4 x double> poison, double %581, i64 0
  %583 = shufflevector <4 x double> %582, <4 x double> poison, <4 x i32> zeroinitializer
  %584 = load double, ptr %480, align 8, !tbaa !8, !alias.scope !246
  %585 = insertelement <4 x double> poison, double %584, i64 0
  %586 = shufflevector <4 x double> %585, <4 x double> poison, <4 x i32> zeroinitializer
  br label %587

587:                                              ; preds = %587, %577
  %588 = phi i64 [ 0, %577 ], [ %641, %587 ]
  %589 = trunc i64 %588 to i32
  %590 = or i64 %588, 1
  %591 = or i64 %588, 2
  %592 = or i64 %588, 3
  %593 = getelementptr inbounds %"class.dealii::Tensor", ptr %478, i64 %588
  %594 = getelementptr inbounds %"class.dealii::Tensor", ptr %478, i64 %590
  %595 = getelementptr inbounds %"class.dealii::Tensor", ptr %478, i64 %591
  %596 = getelementptr inbounds %"class.dealii::Tensor", ptr %478, i64 %592
  %597 = load double, ptr %593, align 8, !tbaa !8, !alias.scope !249
  %598 = load double, ptr %594, align 8, !tbaa !8, !alias.scope !249
  %599 = load double, ptr %595, align 8, !tbaa !8, !alias.scope !249
  %600 = load double, ptr %596, align 8, !tbaa !8, !alias.scope !249
  %601 = insertelement <4 x double> poison, double %597, i64 0
  %602 = insertelement <4 x double> %601, double %598, i64 1
  %603 = insertelement <4 x double> %602, double %599, i64 2
  %604 = insertelement <4 x double> %603, double %600, i64 3
  %605 = fmul <4 x double> %580, %604
  %606 = add i32 %483, %589
  %607 = zext i32 %606 to i64
  %608 = getelementptr inbounds double, ptr %481, i64 %607
  store <4 x double> %605, ptr %608, align 8, !tbaa !8, !alias.scope !251, !noalias !253
  %609 = getelementptr inbounds [3 x double], ptr %593, i64 0, i64 1
  %610 = getelementptr inbounds [3 x double], ptr %594, i64 0, i64 1
  %611 = getelementptr inbounds [3 x double], ptr %595, i64 0, i64 1
  %612 = getelementptr inbounds [3 x double], ptr %596, i64 0, i64 1
  %613 = load double, ptr %609, align 8, !tbaa !8, !alias.scope !258
  %614 = load double, ptr %610, align 8, !tbaa !8, !alias.scope !258
  %615 = load double, ptr %611, align 8, !tbaa !8, !alias.scope !258
  %616 = load double, ptr %612, align 8, !tbaa !8, !alias.scope !258
  %617 = insertelement <4 x double> poison, double %613, i64 0
  %618 = insertelement <4 x double> %617, double %614, i64 1
  %619 = insertelement <4 x double> %618, double %615, i64 2
  %620 = insertelement <4 x double> %619, double %616, i64 3
  %621 = fmul <4 x double> %583, %620
  %622 = add i32 %485, %589
  %623 = zext i32 %622 to i64
  %624 = getelementptr inbounds double, ptr %481, i64 %623
  store <4 x double> %621, ptr %624, align 8, !tbaa !8, !alias.scope !259, !noalias !260
  %625 = getelementptr inbounds [3 x double], ptr %593, i64 0, i64 2
  %626 = getelementptr inbounds [3 x double], ptr %594, i64 0, i64 2
  %627 = getelementptr inbounds [3 x double], ptr %595, i64 0, i64 2
  %628 = getelementptr inbounds [3 x double], ptr %596, i64 0, i64 2
  %629 = load double, ptr %625, align 8, !tbaa !8, !alias.scope !261
  %630 = load double, ptr %626, align 8, !tbaa !8, !alias.scope !261
  %631 = load double, ptr %627, align 8, !tbaa !8, !alias.scope !261
  %632 = load double, ptr %628, align 8, !tbaa !8, !alias.scope !261
  %633 = insertelement <4 x double> poison, double %629, i64 0
  %634 = insertelement <4 x double> %633, double %630, i64 1
  %635 = insertelement <4 x double> %634, double %631, i64 2
  %636 = insertelement <4 x double> %635, double %632, i64 3
  %637 = fmul <4 x double> %586, %636
  %638 = add i32 %487, %589
  %639 = zext i32 %638 to i64
  %640 = getelementptr inbounds double, ptr %481, i64 %639
  store <4 x double> %637, ptr %640, align 8, !tbaa !8, !alias.scope !262, !noalias !263
  %641 = add nuw i64 %588, 4
  %642 = icmp eq i64 %641, %170
  br i1 %642, label %643, label %587, !llvm.loop !264

643:                                              ; preds = %587
  br i1 %171, label %674, label %644

644:                                              ; preds = %498, %488, %479, %643
  %645 = phi i64 [ 0, %498 ], [ 0, %488 ], [ 0, %479 ], [ %170, %643 ]
  br label %646

646:                                              ; preds = %644, %646
  %647 = phi i64 [ %670, %646 ], [ %645, %644 ]
  %648 = getelementptr inbounds %"class.dealii::Tensor", ptr %478, i64 %647
  %649 = load double, ptr %480, align 8, !tbaa !8
  %650 = load double, ptr %648, align 8, !tbaa !8
  %651 = fmul double %649, %650
  %652 = trunc i64 %647 to i32
  %653 = add i32 %483, %652
  %654 = zext i32 %653 to i64
  %655 = getelementptr inbounds double, ptr %481, i64 %654
  store double %651, ptr %655, align 8, !tbaa !8
  %656 = load double, ptr %480, align 8, !tbaa !8
  %657 = getelementptr inbounds [3 x double], ptr %648, i64 0, i64 1
  %658 = load double, ptr %657, align 8, !tbaa !8
  %659 = fmul double %656, %658
  %660 = add i32 %485, %652
  %661 = zext i32 %660 to i64
  %662 = getelementptr inbounds double, ptr %481, i64 %661
  store double %659, ptr %662, align 8, !tbaa !8
  %663 = load double, ptr %480, align 8, !tbaa !8
  %664 = getelementptr inbounds [3 x double], ptr %648, i64 0, i64 2
  %665 = load double, ptr %664, align 8, !tbaa !8
  %666 = fmul double %663, %665
  %667 = add i32 %487, %652
  %668 = zext i32 %667 to i64
  %669 = getelementptr inbounds double, ptr %481, i64 %668
  store double %666, ptr %669, align 8, !tbaa !8
  %670 = add nuw nsw i64 %647, 1
  %671 = icmp eq i64 %670, %148
  br i1 %671, label %674, label %646, !llvm.loop !265

672:                                              ; preds = %477
  %673 = icmp eq ptr %478, null
  br i1 %673, label %682, label %674

674:                                              ; preds = %646, %643, %672
  call void @_ZdlPv(ptr noundef nonnull %478) #17
  br label %682

675:                                              ; preds = %454
  %676 = landingpad { ptr, i32 }
          cleanup
  br label %683

677:                                              ; preds = %463, %459
  %678 = landingpad { ptr, i32 }
          cleanup
  %679 = load ptr, ptr %12, align 8, !tbaa !25
  %680 = icmp eq ptr %679, null
  br i1 %680, label %683, label %681

681:                                              ; preds = %677
  call void @_ZdlPv(ptr noundef nonnull %679) #17
  br label %683

682:                                              ; preds = %674, %672
  call void @llvm.lifetime.end.p0(i64 24, ptr nonnull %12) #15
  br label %685

683:                                              ; preds = %681, %677, %675
  %684 = phi { ptr, i32 } [ %676, %675 ], [ %678, %677 ], [ %678, %681 ]
  call void @llvm.lifetime.end.p0(i64 24, ptr nonnull %12) #15
  br label %995

685:                                              ; preds = %233, %195, %449, %682, %193, %184
  br i1 %142, label %980, label %686

686:                                              ; preds = %685
  call void @llvm.lifetime.start.p0(i64 24, ptr nonnull %13) #15
  br i1 %130, label %687, label %688

687:                                              ; preds = %686
  call void @llvm.memset.p0.i64(ptr noundef nonnull align 8 dereferenceable(24) %13, i8 0, i64 24, i1 false)
  br label %695

688:                                              ; preds = %686
  %689 = invoke noalias noundef nonnull ptr @_Znwm(i64 noundef %143) #16
          to label %690 unwind label %698

690:                                              ; preds = %688
  store ptr %689, ptr %13, align 8, !tbaa !51
  %691 = getelementptr inbounds %"class.dealii::Tensor.84", ptr %689, i64 %129
  store ptr %691, ptr %144, align 8, !tbaa !212
  call void @llvm.memset.p0.i64(ptr nonnull align 8 %689, i8 0, i64 %143, i1 false), !tbaa !8
  %692 = getelementptr i8, ptr %689, i64 %143
  store ptr %692, ptr %145, align 8, !tbaa !49
  %693 = invoke noalias noundef nonnull ptr @_Znwm(i64 noundef %143) #16
          to label %694 unwind label %700

694:                                              ; preds = %690
  call void @llvm.memset.p0.i64(ptr nonnull align 8 %693, i8 0, i64 %143, i1 false), !tbaa !8
  br label %695

695:                                              ; preds = %694, %687
  %696 = phi ptr [ null, %687 ], [ %693, %694 ]
  %697 = load i32, ptr %128, align 8, !tbaa !61
  switch i32 %697, label %964 [
    i32 0, label %702
    i32 1, label %768
    i32 2, label %831
    i32 256, label %894
  ]

698:                                              ; preds = %688
  %699 = landingpad { ptr, i32 }
          cleanup
  br label %978

700:                                              ; preds = %690
  %701 = landingpad { ptr, i32 }
          cleanup
  br label %973

702:                                              ; preds = %695
  %703 = load ptr, ptr %146, align 8, !tbaa !133
  %704 = invoke noundef i32 @_ZNK6dealii10QProjectorILi3EE17DataSetDescriptorcvjEv(ptr noundef nonnull align 4 dereferenceable(4) %10)
          to label %705 unwind label %765

705:                                              ; preds = %702
  %706 = getelementptr inbounds %"class.std::vector.72", ptr %703, i64 %185
  %707 = zext i32 %704 to i64
  %708 = or i64 %135, %707
  %709 = load ptr, ptr %145, align 8, !tbaa !49
  %710 = load ptr, ptr %13, align 8, !tbaa !51
  %711 = ptrtoint ptr %709 to i64
  %712 = ptrtoint ptr %710 to i64
  %713 = sub i64 %711, %712
  %714 = sdiv exact i64 %713, 72
  %715 = shl i64 %714, 32
  %716 = load ptr, ptr %1, align 8, !tbaa !5
  %717 = getelementptr inbounds ptr, ptr %716, i64 5
  %718 = load ptr, ptr %717, align 8
  invoke void %718(ptr noundef nonnull align 8 dereferenceable(72) %1, ptr %706, i64 %708, ptr nonnull %13, i64 %715, ptr noundef nonnull align 8 dereferenceable(185) %5, i32 noundef 1)
          to label %719 unwind label %765

719:                                              ; preds = %705
  br i1 %136, label %964, label %720

720:                                              ; preds = %719
  %721 = load ptr, ptr %13, align 8, !tbaa !51
  %722 = load ptr, ptr %147, align 8, !tbaa !130
  %723 = zext i32 %192 to i64
  %724 = getelementptr inbounds %"class.std::vector.67", ptr %722, i64 %723
  %725 = load ptr, ptr %724, align 8, !tbaa !25
  %726 = add i32 %192, 1
  %727 = zext i32 %726 to i64
  %728 = getelementptr inbounds %"class.std::vector.67", ptr %722, i64 %727
  %729 = load ptr, ptr %728, align 8, !tbaa !25
  %730 = add i32 %192, 2
  %731 = zext i32 %730 to i64
  %732 = getelementptr inbounds %"class.std::vector.67", ptr %722, i64 %731
  %733 = load ptr, ptr %732, align 8, !tbaa !25
  br label %734

734:                                              ; preds = %720, %734
  %735 = phi i64 [ 0, %720 ], [ %763, %734 ]
  %736 = getelementptr inbounds %"class.dealii::Tensor.84", ptr %721, i64 %735
  %737 = getelementptr inbounds %"class.dealii::Tensor", ptr %725, i64 %735
  %738 = load double, ptr %736, align 8, !tbaa !8
  store double %738, ptr %737, align 8, !tbaa !8
  %739 = getelementptr inbounds [3 x double], ptr %736, i64 0, i64 1
  %740 = load double, ptr %739, align 8, !tbaa !8
  %741 = getelementptr inbounds [3 x double], ptr %737, i64 0, i64 1
  store double %740, ptr %741, align 8, !tbaa !8
  %742 = getelementptr inbounds [3 x double], ptr %736, i64 0, i64 2
  %743 = load double, ptr %742, align 8, !tbaa !8
  %744 = getelementptr inbounds [3 x double], ptr %737, i64 0, i64 2
  store double %743, ptr %744, align 8, !tbaa !8
  %745 = getelementptr inbounds [3 x %"class.dealii::Tensor"], ptr %736, i64 0, i64 1
  %746 = getelementptr inbounds %"class.dealii::Tensor", ptr %729, i64 %735
  %747 = load double, ptr %745, align 8, !tbaa !8
  store double %747, ptr %746, align 8, !tbaa !8
