; ModuleID = 'source/fe/fe_q_hierarchical.cc'
source_filename = "source/fe/fe_q_hierarchical.cc"
target datalayout = "e-m:e-p270:32:32-p271:32:32-p272:64:64-i64:64-f80:128-n8:16:32:64-S128"
target triple = "x86_64-pc-linux-gnu"

module asm ".globl _ZSt21ios_base_library_initv"

%"class.dealii::Point.79" = type { %"class.dealii::Tensor.80" }
%"class.dealii::Tensor.80" = type { [2 x double] }
%"class.dealii::TensorProductPolynomials" = type { %"class.std::vector.62", i32, %"class.std::vector.48", %"class.std::vector.48" }
%"class.std::vector.62" = type { %"struct.std::_Vector_base.63" }
%"struct.std::_Vector_base.63" = type { %"struct.std::_Vector_base<dealii::Polynomials::Polynomial<double>, std::allocator<dealii::Polynomials::Polynomial<double> > >::_Vector_impl" }
%"struct.std::_Vector_base<dealii::Polynomials::Polynomial<double>, std::allocator<dealii::Polynomials::Polynomial<double> > >::_Vector_impl" = type { %"struct.std::_Vector_base<dealii::Polynomials::Polynomial<double>, std::allocator<dealii::Polynomials::Polynomial<double> > >::_Vector_impl_data" }
%"struct.std::_Vector_base<dealii::Polynomials::Polynomial<double>, std::allocator<dealii::Polynomials::Polynomial<double> > >::_Vector_impl_data" = type { ptr, ptr, ptr }
%"class.std::vector.48" = type { %"struct.std::_Vector_base.49" }
%"struct.std::_Vector_base.49" = type { %"struct.std::_Vector_base<unsigned int, std::allocator<unsigned int> >::_Vector_impl" }
%"struct.std::_Vector_base<unsigned int, std::allocator<unsigned int> >::_Vector_impl" = type { %"struct.std::_Vector_base<unsigned int, std::allocator<unsigned int> >::_Vector_impl_data" }
%"struct.std::_Vector_base<unsigned int, std::allocator<unsigned int> >::_Vector_impl_data" = type { ptr, ptr, ptr }
%"class.dealii::FiniteElementData" = type { i32, i32, i32, i32, i32, i32, i32, i32, i32, i32, i32, i32, i32, i32, i32 }
%"class.std::vector.53" = type { %"struct.std::_Bvector_base" }
%"struct.std::_Bvector_base" = type { %"struct.std::_Bvector_base<std::allocator<bool> >::_Bvector_impl" }
%"struct.std::_Bvector_base<std::allocator<bool> >::_Bvector_impl" = type { %"struct.std::_Bvector_base<std::allocator<bool> >::_Bvector_impl_data" }
%"struct.std::_Bvector_base<std::allocator<bool> >::_Bvector_impl_data" = type { %"struct.std::_Bit_iterator", %"struct.std::_Bit_iterator", ptr }
%"struct.std::_Bit_iterator" = type { %"struct.std::_Bit_iterator_base.base", [4 x i8] }
%"struct.std::_Bit_iterator_base.base" = type <{ ptr, i32 }>
%"class.std::vector.57" = type { %"struct.std::_Vector_base.58" }
%"struct.std::_Vector_base.58" = type { %"struct.std::_Vector_base<std::vector<bool>, std::allocator<std::vector<bool> > >::_Vector_impl" }
%"struct.std::_Vector_base<std::vector<bool>, std::allocator<std::vector<bool> > >::_Vector_impl" = type { %"struct.std::_Vector_base<std::vector<bool>, std::allocator<std::vector<bool> > >::_Vector_impl_data" }
%"struct.std::_Vector_base<std::vector<bool>, std::allocator<std::vector<bool> > >::_Vector_impl_data" = type { ptr, ptr, ptr }
%"class.std::vector.70" = type { %"struct.std::_Vector_base.71" }
%"struct.std::_Vector_base.71" = type { %"struct.std::_Vector_base<dealii::FullMatrix<double>, std::allocator<dealii::FullMatrix<double> > >::_Vector_impl" }
%"struct.std::_Vector_base<dealii::FullMatrix<double>, std::allocator<dealii::FullMatrix<double> > >::_Vector_impl" = type { %"struct.std::_Vector_base<dealii::FullMatrix<double>, std::allocator<dealii::FullMatrix<double> > >::_Vector_impl_data" }
%"struct.std::_Vector_base<dealii::FullMatrix<double>, std::allocator<dealii::FullMatrix<double> > >::_Vector_impl_data" = type { ptr, ptr, ptr }
%"class.dealii::FullMatrix" = type { %"class.dealii::Table.base", [4 x i8] }
%"class.dealii::Table.base" = type { %"class.dealii::TableBase.base" }
%"class.dealii::TableBase.base" = type <{ %"class.dealii::Subscriptor", ptr, i32, %"class.dealii::TableIndices" }>
%"class.dealii::Subscriptor" = type { ptr, i32, %"class.std::map", ptr }
%"class.std::map" = type { %"class.std::_Rb_tree" }
%"class.std::_Rb_tree" = type { %"struct.std::_Rb_tree<const char *, std::pair<const char *const, unsigned int>, std::_Select1st<std::pair<const char *const, unsigned int> >, std::less<const char *> >::_Rb_tree_impl" }
%"struct.std::_Rb_tree<const char *, std::pair<const char *const, unsigned int>, std::_Select1st<std::pair<const char *const, unsigned int> >, std::less<const char *> >::_Rb_tree_impl" = type { %"struct.std::_Rb_tree_key_compare", %"struct.std::_Rb_tree_header" }
%"struct.std::_Rb_tree_key_compare" = type { %"struct.std::less" }
%"struct.std::less" = type { i8 }
%"struct.std::_Rb_tree_header" = type { %"struct.std::_Rb_tree_node_base", i64 }
%"struct.std::_Rb_tree_node_base" = type { i32, ptr, ptr, ptr }
%"class.dealii::TableIndices" = type { %"class.dealii::TableIndicesBase" }
%"class.dealii::TableIndicesBase" = type { [2 x i32] }
%"class.std::allocator.72" = type { i8 }
%"struct.std::_Bit_iterator_base" = type <{ ptr, i32, [4 x i8] }>
%"class.dealii::Polynomials::Polynomial" = type { %"class.dealii::Subscriptor", %"class.std::vector.92" }
%"class.std::vector.92" = type { %"struct.std::_Vector_base.93" }
%"struct.std::_Vector_base.93" = type { %"struct.std::_Vector_base<double, std::allocator<double> >::_Vector_impl" }
%"struct.std::_Vector_base<double, std::allocator<double> >::_Vector_impl" = type { %"struct.std::_Vector_base<double, std::allocator<double> >::_Vector_impl_data" }
%"struct.std::_Vector_base<double, std::allocator<double> >::_Vector_impl_data" = type { ptr, ptr, ptr }
%"class.dealii::FE_Q_Hierarchical" = type { %"class.dealii::FE_Poly", %"class.std::vector.48" }
%"class.dealii::FE_Poly" = type { %"class.dealii::FiniteElement", %"class.dealii::TensorProductPolynomials" }
%"class.dealii::FiniteElement" = type { %"class.dealii::Subscriptor", %"class.dealii::FiniteElementData", i8, %"class.std::vector", %"class.std::vector", %"class.dealii::FullMatrix", %"class.std::vector.19", %"class.std::vector.24", %"class.std::vector.19", %"class.std::vector.24", %"class.dealii::Table.29", %"class.std::vector.33", %"class.std::vector.38", %"class.std::vector.38", %"class.std::vector.43", %"class.std::vector.43", %"class.std::vector.48", %"class.std::vector.43", %"class.std::vector.53", %"class.std::vector.57", %"class.std::vector.48" }
%"class.std::vector" = type { %"struct.std::_Vector_base" }
%"struct.std::_Vector_base" = type { %"struct.std::_Vector_base<std::vector<dealii::FullMatrix<double> >, std::allocator<std::vector<dealii::FullMatrix<double> > > >::_Vector_impl" }
%"struct.std::_Vector_base<std::vector<dealii::FullMatrix<double> >, std::allocator<std::vector<dealii::FullMatrix<double> > > >::_Vector_impl" = type { %"struct.std::_Vector_base<std::vector<dealii::FullMatrix<double> >, std::allocator<std::vector<dealii::FullMatrix<double> > > >::_Vector_impl_data" }
%"struct.std::_Vector_base<std::vector<dealii::FullMatrix<double> >, std::allocator<std::vector<dealii::FullMatrix<double> > > >::_Vector_impl_data" = type { ptr, ptr, ptr }
%"class.std::vector.19" = type { %"struct.std::_Vector_base.20" }
%"struct.std::_Vector_base.20" = type { %"struct.std::_Vector_base<dealii::Point<3>, std::allocator<dealii::Point<3> > >::_Vector_impl" }
%"struct.std::_Vector_base<dealii::Point<3>, std::allocator<dealii::Point<3> > >::_Vector_impl" = type { %"struct.std::_Vector_base<dealii::Point<3>, std::allocator<dealii::Point<3> > >::_Vector_impl_data" }
%"struct.std::_Vector_base<dealii::Point<3>, std::allocator<dealii::Point<3> > >::_Vector_impl_data" = type { ptr, ptr, ptr }
%"class.std::vector.24" = type { %"struct.std::_Vector_base.25" }
%"struct.std::_Vector_base.25" = type { %"struct.std::_Vector_base<dealii::Point<2>, std::allocator<dealii::Point<2> > >::_Vector_impl" }
%"struct.std::_Vector_base<dealii::Point<2>, std::allocator<dealii::Point<2> > >::_Vector_impl" = type { %"struct.std::_Vector_base<dealii::Point<2>, std::allocator<dealii::Point<2> > >::_Vector_impl_data" }
%"struct.std::_Vector_base<dealii::Point<2>, std::allocator<dealii::Point<2> > >::_Vector_impl_data" = type { ptr, ptr, ptr }
%"class.dealii::Table.29" = type { %"class.dealii::TableBase.base.31", [4 x i8] }
%"class.dealii::TableBase.base.31" = type <{ %"class.dealii::Subscriptor", ptr, i32, %"class.dealii::TableIndices" }>
%"class.std::vector.33" = type { %"struct.std::_Vector_base.34" }
%"struct.std::_Vector_base.34" = type { %"struct.std::_Vector_base<int, std::allocator<int> >::_Vector_impl" }
%"struct.std::_Vector_base<int, std::allocator<int> >::_Vector_impl" = type { %"struct.std::_Vector_base<int, std::allocator<int> >::_Vector_impl_data" }
%"struct.std::_Vector_base<int, std::allocator<int> >::_Vector_impl_data" = type { ptr, ptr, ptr }
%"class.std::vector.38" = type { %"struct.std::_Vector_base.39" }
%"struct.std::_Vector_base.39" = type { %"struct.std::_Vector_base<std::pair<unsigned int, unsigned int>, std::allocator<std::pair<unsigned int, unsigned int> > >::_Vector_impl" }
%"struct.std::_Vector_base<std::pair<unsigned int, unsigned int>, std::allocator<std::pair<unsigned int, unsigned int> > >::_Vector_impl" = type { %"struct.std::_Vector_base<std::pair<unsigned int, unsigned int>, std::allocator<std::pair<unsigned int, unsigned int> > >::_Vector_impl_data" }
%"struct.std::_Vector_base<std::pair<unsigned int, unsigned int>, std::allocator<std::pair<unsigned int, unsigned int> > >::_Vector_impl_data" = type { ptr, ptr, ptr }
%"class.std::vector.43" = type { %"struct.std::_Vector_base.44" }
%"struct.std::_Vector_base.44" = type { %"struct.std::_Vector_base<std::pair<std::pair<unsigned int, unsigned int>, unsigned int>, std::allocator<std::pair<std::pair<unsigned int, unsigned int>, unsigned int> > >::_Vector_impl" }
%"struct.std::_Vector_base<std::pair<std::pair<unsigned int, unsigned int>, unsigned int>, std::allocator<std::pair<std::pair<unsigned int, unsigned int>, unsigned int> > >::_Vector_impl" = type { %"struct.std::_Vector_base<std::pair<std::pair<unsigned int, unsigned int>, unsigned int>, std::allocator<std::pair<std::pair<unsigned int, unsigned int>, unsigned int> > >::_Vector_impl_data" }
%"struct.std::_Vector_base<std::pair<std::pair<unsigned int, unsigned int>, unsigned int>, std::allocator<std::pair<std::pair<unsigned int, unsigned int>, unsigned int> > >::_Vector_impl_data" = type { ptr, ptr, ptr }
%"class.dealii::TableBase" = type <{ %"class.dealii::Subscriptor", ptr, i32, %"class.dealii::TableIndices", [4 x i8] }>
%"class.dealii::FiniteElementData.78" = type { i32, i32, i32, i32, i32, i32, i32, i32, i32, i32, i32, i32, i32, i32, i32 }
%"class.dealii::Point" = type { %"class.dealii::Tensor" }
%"class.dealii::Tensor" = type { [3 x double] }
%"class.std::__cxx11::basic_string" = type { %"struct.std::__cxx11::basic_string<char>::_Alloc_hider", i64, %union.anon }
%"struct.std::__cxx11::basic_string<char>::_Alloc_hider" = type { ptr }
%union.anon = type { i64, [8 x i8] }
%"class.std::__cxx11::basic_ostringstream" = type { %"class.std::basic_ostream.base", %"class.std::__cxx11::basic_stringbuf", %"class.std::basic_ios" }
%"class.std::basic_ostream.base" = type { ptr }
%"class.std::__cxx11::basic_stringbuf" = type { %"class.std::basic_streambuf", i32, %"class.std::__cxx11::basic_string" }
%"class.std::basic_streambuf" = type { ptr, ptr, ptr, ptr, ptr, ptr, ptr, %"class.std::locale" }
%"class.std::locale" = type { ptr }
%"class.std::basic_ios" = type { %"class.std::ios_base", ptr, i8, i8, ptr, ptr, ptr, ptr }
%"class.std::ios_base" = type { ptr, i64, i64, i32, i32, i32, ptr, %"struct.std::ios_base::_Words", [8 x %"struct.std::ios_base::_Words"], i32, ptr, %"class.std::locale" }
%"struct.std::ios_base::_Words" = type { ptr, i64 }
%"class.dealii::Tensor.81" = type { [3 x %"class.dealii::Tensor"] }
%"struct.std::pair" = type { i32, i32 }
%"struct.std::pair.88" = type { %"struct.std::pair", i32 }
%"class.dealii::TableBase.30" = type <{ %"class.dealii::Subscriptor", ptr, i32, %"class.dealii::TableIndices", [4 x i8] }>

$_ZN6dealii17FE_Q_HierarchicalILi3EEC5Ej = comdat any

$_ZN6dealii24TensorProductPolynomialsILi3EEC2INS_11Polynomials10PolynomialIdEEEERKSt6vectorIT_SaIS7_EE = comdat any

$_ZN6dealii17FE_Q_HierarchicalILi3EE14get_dpo_vectorEj = comdat any

$_ZNSt6vectorIS_IbSaIbEESaIS1_EED2Ev = comdat any

$__clang_call_terminate = comdat any

$_ZNSt13_Bvector_baseISaIbEED2Ev = comdat any

$_ZN6dealii24TensorProductPolynomialsILi3EED2Ev = comdat any

$_ZNSt6vectorIN6dealii11Polynomials10PolynomialIdEESaIS3_EED2Ev = comdat any

$_ZN6dealii17FE_Q_HierarchicalILi3EE46face_fe_q_hierarchical_to_hierarchic_numberingEj = comdat any

$_ZN6dealii17FE_Q_HierarchicalILi3EE41hierarchic_to_fe_q_hierarchical_numberingERKNS_17FiniteElementDataILi3EEE = comdat any

$_ZNSt6vectorIN6dealii10FullMatrixIdEESaIS2_EEC2EmRKS2_RKS3_ = comdat any

$_ZNK6dealii17FE_Q_HierarchicalILi3EE15build_dofs_cellERSt6vectorINS_10FullMatrixIdEESaIS4_EES7_ = comdat any

$_ZN6dealii17FE_Q_HierarchicalILi3EE22initialize_constraintsERKSt6vectorINS_10FullMatrixIdEESaIS4_EE = comdat any

$_ZN6dealii17FE_Q_HierarchicalILi3EE36initialize_embedding_and_restrictionERKSt6vectorINS_10FullMatrixIdEESaIS4_EES8_ = comdat any

$_ZN6dealii17FE_Q_HierarchicalILi3EE30initialize_unit_support_pointsEv = comdat any

$_ZN6dealii17FE_Q_HierarchicalILi3EE35initialize_unit_face_support_pointsEv = comdat any

$_ZNSt6vectorIN6dealii10FullMatrixIdEESaIS2_EED2Ev = comdat any

$_ZNK6dealii17FE_Q_HierarchicalILi3EE8get_nameB5cxx11Ev = comdat any

$_ZNK6dealii17FE_Q_HierarchicalILi3EE19has_support_on_faceEjj = comdat any

$_ZNK6dealii17FE_Q_HierarchicalILi3EE18memory_consumptionEv = comdat any

$_ZNK6dealii17FE_Q_HierarchicalILi3EE18get_embedding_dofsEj = comdat any

$_ZNK6dealii17FE_Q_HierarchicalILi3EE5cloneEv = comdat any

$_ZN6dealii17FE_Q_HierarchicalILi3EEC2ERKS1_ = comdat any

$_ZN6dealii17FE_Q_HierarchicalILi2EE41hierarchic_to_fe_q_hierarchical_numberingERKNS_17FiniteElementDataILi2EEE = comdat any

$_ZN6dealii17FE_Q_HierarchicalILi3EED2Ev = comdat any

$_ZN6dealii17FE_Q_HierarchicalILi3EED0Ev = comdat any

$_ZN6dealii9TableBaseILi2EdED2Ev = comdat any

$_ZN6dealii9TableBaseILi2EdED0Ev = comdat any

$_ZN6dealii7FE_PolyINS_24TensorProductPolynomialsILi3EEELi3ELi3EED2Ev = comdat any

$_ZN6dealii7FE_PolyINS_24TensorProductPolynomialsILi3EEELi3ELi3EED0Ev = comdat any

$_ZN6dealii13FiniteElementILi3ELi3EEC2ERKS1_ = comdat any

$_ZN6dealii24TensorProductPolynomialsILi3EEC2ERKS1_ = comdat any

$_ZNSt6vectorIbSaIbEEC2ERKS1_ = comdat any

$_ZN6dealii9TableBaseILi2EiED2Ev = comdat any

$_ZNSt6vectorIS_IN6dealii10FullMatrixIdEESaIS2_EESaIS4_EED2Ev = comdat any

$_ZNSt20__uninitialized_copyILb0EE13__uninit_copyIN9__gnu_cxx17__normal_iteratorIPKSt6vectorIN6dealii10FullMatrixIdEESaIS7_EES4_IS9_SaIS9_EEEEPS9_EET0_T_SH_SG_ = comdat any

$_ZNSt6vectorIN6dealii10FullMatrixIdEESaIS2_EEC2ERKS4_ = comdat any

$_ZN6dealii9TableBaseILi2EiEC2ERKS1_ = comdat any

$_ZN6dealii5TableILi2EiED0Ev = comdat any

$_ZN6dealii9TableBaseILi2EiED0Ev = comdat any

$_ZNSt20__uninitialized_copyILb0EE13__uninit_copyIN9__gnu_cxx17__normal_iteratorIPKSt6vectorIbSaIbEES4_IS6_SaIS6_EEEEPS6_EET0_T_SE_SD_ = comdat any

$_ZSt16__do_uninit_copyIN9__gnu_cxx17__normal_iteratorIPKN6dealii11Polynomials10PolynomialIdEESt6vectorIS5_SaIS5_EEEEPS5_ET0_T_SE_SD_ = comdat any

$_ZN6dealii11Polynomials10PolynomialIdED2Ev = comdat any

$_ZN6dealii11Polynomials10PolynomialIdED0Ev = comdat any

$_ZNSt22__uninitialized_fill_nILb0EE15__uninit_fill_nIPSt6vectorIbSaIbEEmS4_EET_S6_T0_RKT1_ = comdat any

$_ZNSt6vectorIN6dealii5PointILi3EEESaIS2_EE14_M_fill_insertEN9__gnu_cxx17__normal_iteratorIPS2_S4_EEmRKS2_ = comdat any

$_ZNSt6vectorIN6dealii5PointILi2EEESaIS2_EE14_M_fill_insertEN9__gnu_cxx17__normal_iteratorIPS2_S4_EEmRKS2_ = comdat any

$_ZTVN6dealii17FE_Q_HierarchicalILi3EEE = comdat any

$_ZTSN6dealii17FE_Q_HierarchicalILi3EEE = comdat any

$_ZTSN6dealii7FE_PolyINS_24TensorProductPolynomialsILi3EEELi3ELi3EEE = comdat any

$_ZTSN6dealii13FiniteElementILi3ELi3EEE = comdat any

$_ZTSN6dealii17FiniteElementDataILi3EEE = comdat any

$_ZTIN6dealii17FiniteElementDataILi3EEE = comdat any

$_ZTIN6dealii13FiniteElementILi3ELi3EEE = comdat any

$_ZTIN6dealii7FE_PolyINS_24TensorProductPolynomialsILi3EEELi3ELi3EEE = comdat any

$_ZTIN6dealii17FE_Q_HierarchicalILi3EEE = comdat any

$_ZTVN6dealii9TableBaseILi2EdEE = comdat any

$_ZTSN6dealii9TableBaseILi2EdEE = comdat any

$_ZTIN6dealii9TableBaseILi2EdEE = comdat any

$_ZTVN6dealii7FE_PolyINS_24TensorProductPolynomialsILi3EEELi3ELi3EEE = comdat any

$_ZTVN6dealii13FiniteElementILi3ELi3EEE = comdat any

$_ZTVN6dealii5TableILi2EiEE = comdat any

$_ZTSN6dealii5TableILi2EiEE = comdat any

$_ZTSN6dealii9TableBaseILi2EiEE = comdat any

$_ZTIN6dealii9TableBaseILi2EiEE = comdat any

$_ZTIN6dealii5TableILi2EiEE = comdat any

$_ZTVN6dealii9TableBaseILi2EiEE = comdat any

$_ZTVN6dealii11Polynomials10PolynomialIdEE = comdat any

$_ZTSN6dealii11Polynomials10PolynomialIdEE = comdat any

$_ZTIN6dealii11Polynomials10PolynomialIdEE = comdat any

@_ZTVN6dealii17FE_Q_HierarchicalILi3EEE = weak_odr dso_local unnamed_addr constant { [38 x ptr] } { [38 x ptr] [ptr null, ptr @_ZTIN6dealii17FE_Q_HierarchicalILi3EEE, ptr @_ZN6dealii17FE_Q_HierarchicalILi3EED2Ev, ptr @_ZN6dealii17FE_Q_HierarchicalILi3EED0Ev, ptr @_ZNK6dealii17FE_Q_HierarchicalILi3EE8get_nameB5cxx11Ev, ptr @_ZNK6dealii7FE_PolyINS_24TensorProductPolynomialsILi3EEELi3ELi3EE11shape_valueEjRKNS_5PointILi3EEE, ptr @_ZNK6dealii7FE_PolyINS_24TensorProductPolynomialsILi3EEELi3ELi3EE21shape_value_componentEjRKNS_5PointILi3EEEj, ptr @_ZNK6dealii7FE_PolyINS_24TensorProductPolynomialsILi3EEELi3ELi3EE10shape_gradEjRKNS_5PointILi3EEE, ptr @_ZNK6dealii7FE_PolyINS_24TensorProductPolynomialsILi3EEELi3ELi3EE20shape_grad_componentEjRKNS_5PointILi3EEEj, ptr @_ZNK6dealii7FE_PolyINS_24TensorProductPolynomialsILi3EEELi3ELi3EE15shape_grad_gradEjRKNS_5PointILi3EEE, ptr @_ZNK6dealii7FE_PolyINS_24TensorProductPolynomialsILi3EEELi3ELi3EE25shape_grad_grad_componentEjRKNS_5PointILi3EEEj, ptr @_ZNK6dealii17FE_Q_HierarchicalILi3EE19has_support_on_faceEjj, ptr @_ZNK6dealii13FiniteElementILi3ELi3EE30hp_constraints_are_implementedEv, ptr @_ZNK6dealii13FiniteElementILi3ELi3EE24get_interpolation_matrixERKS1_RNS_10FullMatrixIdEE, ptr @_ZNK6dealii13FiniteElementILi3ELi3EE29get_face_interpolation_matrixERKS1_RNS_10FullMatrixIdEE, ptr @_ZNK6dealii13FiniteElementILi3ELi3EE32get_subface_interpolation_matrixERKS1_jRNS_10FullMatrixIdEE, ptr @_ZNK6dealii13FiniteElementILi3ELi3EE24hp_vertex_dof_identitiesERKS1_, ptr @_ZNK6dealii13FiniteElementILi3ELi3EE22hp_line_dof_identitiesERKS1_, ptr @_ZNK6dealii13FiniteElementILi3ELi3EE22hp_quad_dof_identitiesERKS1_, ptr @_ZNK6dealii13FiniteElementILi3ELi3EE27compare_for_face_dominationERKS1_, ptr @_ZNK6dealii7FE_PolyINS_24TensorProductPolynomialsILi3EEELi3ELi3EE15n_base_elementsEv, ptr @_ZNK6dealii7FE_PolyINS_24TensorProductPolynomialsILi3EEELi3ELi3EE12base_elementEj, ptr @_ZNK6dealii7FE_PolyINS_24TensorProductPolynomialsILi3EEELi3ELi3EE20element_multiplicityEj, ptr @_ZNK6dealii13FiniteElementILi3ELi3EE18unit_support_pointEj, ptr @_ZNK6dealii13FiniteElementILi3ELi3EE23unit_face_support_pointEj, ptr @_ZNK6dealii13FiniteElementILi3ELi3EE11interpolateERSt6vectorIdSaIdEERKS4_, ptr @_ZNK6dealii13FiniteElementILi3ELi3EE11interpolateERSt6vectorIdSaIdEERKS2_INS_6VectorIdEESaIS7_EEj, ptr @_ZNK6dealii13FiniteElementILi3ELi3EE11interpolateERSt6vectorIdSaIdEERKNS_11VectorSliceIKS2_IS4_SaIS4_EEEE, ptr @_ZNK6dealii17FE_Q_HierarchicalILi3EE18memory_consumptionEv, ptr @_ZNK6dealii7FE_PolyINS_24TensorProductPolynomialsILi3EEELi3ELi3EE11update_onceENS_11UpdateFlagsE, ptr @_ZNK6dealii7FE_PolyINS_24TensorProductPolynomialsILi3EEELi3ELi3EE11update_eachENS_11UpdateFlagsE, ptr @_ZNK6dealii17FE_Q_HierarchicalILi3EE5cloneEv, ptr @_ZNK6dealii7FE_PolyINS_24TensorProductPolynomialsILi3EEELi3ELi3EE8get_dataENS_11UpdateFlagsERKNS_7MappingILi3ELi3EEERKNS_10QuadratureILi3EEE, ptr @_ZNK6dealii13FiniteElementILi3ELi3EE13get_face_dataENS_11UpdateFlagsERKNS_7MappingILi3ELi3EEERKNS_10QuadratureILi2EEE, ptr @_ZNK6dealii13FiniteElementILi3ELi3EE16get_subface_dataENS_11UpdateFlagsERKNS_7MappingILi3ELi3EEERKNS_10QuadratureILi2EEE, ptr @_ZNK6dealii7FE_PolyINS_24TensorProductPolynomialsILi3EEELi3ELi3EE14fill_fe_valuesERKNS_7MappingILi3ELi3EEERKNS_12TriaIteratorINS_12CellAccessorILi3ELi3EEEEERKNS_10QuadratureILi3EEERNS5_16InternalDataBaseESJ_RNS_12FEValuesDataILi3ELi3EEERNS_14CellSimilarity10SimilarityE, ptr @_ZNK6dealii7FE_PolyINS_24TensorProductPolynomialsILi3EEELi3ELi3EE19fill_fe_face_valuesERKNS_7MappingILi3ELi3EEERKNS_12TriaIteratorINS_12CellAccessorILi3ELi3EEEEEjRKNS_10QuadratureILi2EEERNS5_16InternalDataBaseESJ_RNS_12FEValuesDataILi3ELi3EEE, ptr @_ZNK6dealii7FE_PolyINS_24TensorProductPolynomialsILi3EEELi3ELi3EE22fill_fe_subface_valuesERKNS_7MappingILi3ELi3EEERKNS_12TriaIteratorINS_12CellAccessorILi3ELi3EEEEEjjRKNS_10QuadratureILi2EEERNS5_16InternalDataBaseESJ_RNS_12FEValuesDataILi3ELi3EEE] }, comdat, align 8
@.str = private unnamed_addr constant [19 x i8] c"FE_Q_Hierarchical<\00", align 1
@.str.9 = private unnamed_addr constant [3 x i8] c">(\00", align 1
@.str.10 = private unnamed_addr constant [2 x i8] c")\00", align 1
@_ZTVN10__cxxabiv120__si_class_type_infoE = external global ptr
@_ZTSN6dealii17FE_Q_HierarchicalILi3EEE = weak_odr dso_local constant [35 x i8] c"N6dealii17FE_Q_HierarchicalILi3EEE\00", comdat, align 1
@_ZTSN6dealii7FE_PolyINS_24TensorProductPolynomialsILi3EEELi3ELi3EEE = linkonce_odr dso_local constant [64 x i8] c"N6dealii7FE_PolyINS_24TensorProductPolynomialsILi3EEELi3ELi3EEE\00", comdat, align 1
@_ZTVN10__cxxabiv121__vmi_class_type_infoE = external global ptr
@_ZTSN6dealii13FiniteElementILi3ELi3EEE = linkonce_odr dso_local constant [35 x i8] c"N6dealii13FiniteElementILi3ELi3EEE\00", comdat, align 1
@_ZTIN6dealii11SubscriptorE = external constant ptr
@_ZTVN10__cxxabiv117__class_type_infoE = external global ptr
@_ZTSN6dealii17FiniteElementDataILi3EEE = linkonce_odr dso_local constant [35 x i8] c"N6dealii17FiniteElementDataILi3EEE\00", comdat, align 1
@_ZTIN6dealii17FiniteElementDataILi3EEE = linkonce_odr dso_local constant { ptr, ptr } { ptr getelementptr inbounds (ptr, ptr @_ZTVN10__cxxabiv117__class_type_infoE, i64 2), ptr @_ZTSN6dealii17FiniteElementDataILi3EEE }, comdat, align 8
@_ZTIN6dealii13FiniteElementILi3ELi3EEE = linkonce_odr dso_local constant { ptr, ptr, i32, i32, ptr, i64, ptr, i64 } { ptr getelementptr inbounds (ptr, ptr @_ZTVN10__cxxabiv121__vmi_class_type_infoE, i64 2), ptr @_ZTSN6dealii13FiniteElementILi3ELi3EEE, i32 0, i32 2, ptr @_ZTIN6dealii11SubscriptorE, i64 2, ptr @_ZTIN6dealii17FiniteElementDataILi3EEE, i64 18434 }, comdat, align 8
@_ZTIN6dealii7FE_PolyINS_24TensorProductPolynomialsILi3EEELi3ELi3EEE = linkonce_odr dso_local constant { ptr, ptr, ptr } { ptr getelementptr inbounds (ptr, ptr @_ZTVN10__cxxabiv120__si_class_type_infoE, i64 2), ptr @_ZTSN6dealii7FE_PolyINS_24TensorProductPolynomialsILi3EEELi3ELi3EEE, ptr @_ZTIN6dealii13FiniteElementILi3ELi3EEE }, comdat, align 8
@_ZTIN6dealii17FE_Q_HierarchicalILi3EEE = weak_odr dso_local constant { ptr, ptr, ptr } { ptr getelementptr inbounds (ptr, ptr @_ZTVN10__cxxabiv120__si_class_type_infoE, i64 2), ptr @_ZTSN6dealii17FE_Q_HierarchicalILi3EEE, ptr @_ZTIN6dealii7FE_PolyINS_24TensorProductPolynomialsILi3EEELi3ELi3EEE }, comdat, align 8
@_ZTVN6dealii9TableBaseILi2EdEE = linkonce_odr dso_local unnamed_addr constant { [4 x ptr] } { [4 x ptr] [ptr null, ptr @_ZTIN6dealii9TableBaseILi2EdEE, ptr @_ZN6dealii9TableBaseILi2EdED2Ev, ptr @_ZN6dealii9TableBaseILi2EdED0Ev] }, comdat, align 8
@_ZTSN6dealii9TableBaseILi2EdEE = linkonce_odr dso_local constant [27 x i8] c"N6dealii9TableBaseILi2EdEE\00", comdat, align 1
@_ZTIN6dealii9TableBaseILi2EdEE = linkonce_odr dso_local constant { ptr, ptr, ptr } { ptr getelementptr inbounds (ptr, ptr @_ZTVN10__cxxabiv120__si_class_type_infoE, i64 2), ptr @_ZTSN6dealii9TableBaseILi2EdEE, ptr @_ZTIN6dealii11SubscriptorE }, comdat, align 8
@_ZTVN6dealii7FE_PolyINS_24TensorProductPolynomialsILi3EEELi3ELi3EEE = linkonce_odr dso_local unnamed_addr constant { [38 x ptr] } { [38 x ptr] [ptr null, ptr @_ZTIN6dealii7FE_PolyINS_24TensorProductPolynomialsILi3EEELi3ELi3EEE, ptr @_ZN6dealii7FE_PolyINS_24TensorProductPolynomialsILi3EEELi3ELi3EED2Ev, ptr @_ZN6dealii7FE_PolyINS_24TensorProductPolynomialsILi3EEELi3ELi3EED0Ev, ptr @__cxa_pure_virtual, ptr @_ZNK6dealii7FE_PolyINS_24TensorProductPolynomialsILi3EEELi3ELi3EE11shape_valueEjRKNS_5PointILi3EEE, ptr @_ZNK6dealii7FE_PolyINS_24TensorProductPolynomialsILi3EEELi3ELi3EE21shape_value_componentEjRKNS_5PointILi3EEEj, ptr @_ZNK6dealii7FE_PolyINS_24TensorProductPolynomialsILi3EEELi3ELi3EE10shape_gradEjRKNS_5PointILi3EEE, ptr @_ZNK6dealii7FE_PolyINS_24TensorProductPolynomialsILi3EEELi3ELi3EE20shape_grad_componentEjRKNS_5PointILi3EEEj, ptr @_ZNK6dealii7FE_PolyINS_24TensorProductPolynomialsILi3EEELi3ELi3EE15shape_grad_gradEjRKNS_5PointILi3EEE, ptr @_ZNK6dealii7FE_PolyINS_24TensorProductPolynomialsILi3EEELi3ELi3EE25shape_grad_grad_componentEjRKNS_5PointILi3EEEj, ptr @_ZNK6dealii13FiniteElementILi3ELi3EE19has_support_on_faceEjj, ptr @_ZNK6dealii13FiniteElementILi3ELi3EE30hp_constraints_are_implementedEv, ptr @_ZNK6dealii13FiniteElementILi3ELi3EE24get_interpolation_matrixERKS1_RNS_10FullMatrixIdEE, ptr @_ZNK6dealii13FiniteElementILi3ELi3EE29get_face_interpolation_matrixERKS1_RNS_10FullMatrixIdEE, ptr @_ZNK6dealii13FiniteElementILi3ELi3EE32get_subface_interpolation_matrixERKS1_jRNS_10FullMatrixIdEE, ptr @_ZNK6dealii13FiniteElementILi3ELi3EE24hp_vertex_dof_identitiesERKS1_, ptr @_ZNK6dealii13FiniteElementILi3ELi3EE22hp_line_dof_identitiesERKS1_, ptr @_ZNK6dealii13FiniteElementILi3ELi3EE22hp_quad_dof_identitiesERKS1_, ptr @_ZNK6dealii13FiniteElementILi3ELi3EE27compare_for_face_dominationERKS1_, ptr @_ZNK6dealii7FE_PolyINS_24TensorProductPolynomialsILi3EEELi3ELi3EE15n_base_elementsEv, ptr @_ZNK6dealii7FE_PolyINS_24TensorProductPolynomialsILi3EEELi3ELi3EE12base_elementEj, ptr @_ZNK6dealii7FE_PolyINS_24TensorProductPolynomialsILi3EEELi3ELi3EE20element_multiplicityEj, ptr @_ZNK6dealii13FiniteElementILi3ELi3EE18unit_support_pointEj, ptr @_ZNK6dealii13FiniteElementILi3ELi3EE23unit_face_support_pointEj, ptr @_ZNK6dealii13FiniteElementILi3ELi3EE11interpolateERSt6vectorIdSaIdEERKS4_, ptr @_ZNK6dealii13FiniteElementILi3ELi3EE11interpolateERSt6vectorIdSaIdEERKS2_INS_6VectorIdEESaIS7_EEj, ptr @_ZNK6dealii13FiniteElementILi3ELi3EE11interpolateERSt6vectorIdSaIdEERKNS_11VectorSliceIKS2_IS4_SaIS4_EEEE, ptr @_ZNK6dealii13FiniteElementILi3ELi3EE18memory_consumptionEv, ptr @_ZNK6dealii7FE_PolyINS_24TensorProductPolynomialsILi3EEELi3ELi3EE11update_onceENS_11UpdateFlagsE, ptr @_ZNK6dealii7FE_PolyINS_24TensorProductPolynomialsILi3EEELi3ELi3EE11update_eachENS_11UpdateFlagsE, ptr @__cxa_pure_virtual, ptr @_ZNK6dealii7FE_PolyINS_24TensorProductPolynomialsILi3EEELi3ELi3EE8get_dataENS_11UpdateFlagsERKNS_7MappingILi3ELi3EEERKNS_10QuadratureILi3EEE, ptr @_ZNK6dealii13FiniteElementILi3ELi3EE13get_face_dataENS_11UpdateFlagsERKNS_7MappingILi3ELi3EEERKNS_10QuadratureILi2EEE, ptr @_ZNK6dealii13FiniteElementILi3ELi3EE16get_subface_dataENS_11UpdateFlagsERKNS_7MappingILi3ELi3EEERKNS_10QuadratureILi2EEE, ptr @_ZNK6dealii7FE_PolyINS_24TensorProductPolynomialsILi3EEELi3ELi3EE14fill_fe_valuesERKNS_7MappingILi3ELi3EEERKNS_12TriaIteratorINS_12CellAccessorILi3ELi3EEEEERKNS_10QuadratureILi3EEERNS5_16InternalDataBaseESJ_RNS_12FEValuesDataILi3ELi3EEERNS_14CellSimilarity10SimilarityE, ptr @_ZNK6dealii7FE_PolyINS_24TensorProductPolynomialsILi3EEELi3ELi3EE19fill_fe_face_valuesERKNS_7MappingILi3ELi3EEERKNS_12TriaIteratorINS_12CellAccessorILi3ELi3EEEEEjRKNS_10QuadratureILi2EEERNS5_16InternalDataBaseESJ_RNS_12FEValuesDataILi3ELi3EEE, ptr @_ZNK6dealii7FE_PolyINS_24TensorProductPolynomialsILi3EEELi3ELi3EE22fill_fe_subface_valuesERKNS_7MappingILi3ELi3EEERKNS_12TriaIteratorINS_12CellAccessorILi3ELi3EEEEEjjRKNS_10QuadratureILi2EEERNS5_16InternalDataBaseESJ_RNS_12FEValuesDataILi3ELi3EEE] }, comdat, align 8
@_ZTVN6dealii13FiniteElementILi3ELi3EEE = linkonce_odr dso_local unnamed_addr constant { [38 x ptr] } { [38 x ptr] [ptr null, ptr @_ZTIN6dealii13FiniteElementILi3ELi3EEE, ptr @_ZN6dealii13FiniteElementILi3ELi3EED1Ev, ptr @_ZN6dealii13FiniteElementILi3ELi3EED0Ev, ptr @__cxa_pure_virtual, ptr @_ZNK6dealii13FiniteElementILi3ELi3EE11shape_valueEjRKNS_5PointILi3EEE, ptr @_ZNK6dealii13FiniteElementILi3ELi3EE21shape_value_componentEjRKNS_5PointILi3EEEj, ptr @_ZNK6dealii13FiniteElementILi3ELi3EE10shape_gradEjRKNS_5PointILi3EEE, ptr @_ZNK6dealii13FiniteElementILi3ELi3EE20shape_grad_componentEjRKNS_5PointILi3EEEj, ptr @_ZNK6dealii13FiniteElementILi3ELi3EE15shape_grad_gradEjRKNS_5PointILi3EEE, ptr @_ZNK6dealii13FiniteElementILi3ELi3EE25shape_grad_grad_componentEjRKNS_5PointILi3EEEj, ptr @_ZNK6dealii13FiniteElementILi3ELi3EE19has_support_on_faceEjj, ptr @_ZNK6dealii13FiniteElementILi3ELi3EE30hp_constraints_are_implementedEv, ptr @_ZNK6dealii13FiniteElementILi3ELi3EE24get_interpolation_matrixERKS1_RNS_10FullMatrixIdEE, ptr @_ZNK6dealii13FiniteElementILi3ELi3EE29get_face_interpolation_matrixERKS1_RNS_10FullMatrixIdEE, ptr @_ZNK6dealii13FiniteElementILi3ELi3EE32get_subface_interpolation_matrixERKS1_jRNS_10FullMatrixIdEE, ptr @_ZNK6dealii13FiniteElementILi3ELi3EE24hp_vertex_dof_identitiesERKS1_, ptr @_ZNK6dealii13FiniteElementILi3ELi3EE22hp_line_dof_identitiesERKS1_, ptr @_ZNK6dealii13FiniteElementILi3ELi3EE22hp_quad_dof_identitiesERKS1_, ptr @_ZNK6dealii13FiniteElementILi3ELi3EE27compare_for_face_dominationERKS1_, ptr @__cxa_pure_virtual, ptr @__cxa_pure_virtual, ptr @__cxa_pure_virtual, ptr @_ZNK6dealii13FiniteElementILi3ELi3EE18unit_support_pointEj, ptr @_ZNK6dealii13FiniteElementILi3ELi3EE23unit_face_support_pointEj, ptr @_ZNK6dealii13FiniteElementILi3ELi3EE11interpolateERSt6vectorIdSaIdEERKS4_, ptr @_ZNK6dealii13FiniteElementILi3ELi3EE11interpolateERSt6vectorIdSaIdEERKS2_INS_6VectorIdEESaIS7_EEj, ptr @_ZNK6dealii13FiniteElementILi3ELi3EE11interpolateERSt6vectorIdSaIdEERKNS_11VectorSliceIKS2_IS4_SaIS4_EEEE, ptr @_ZNK6dealii13FiniteElementILi3ELi3EE18memory_consumptionEv, ptr @__cxa_pure_virtual, ptr @__cxa_pure_virtual, ptr @__cxa_pure_virtual, ptr @__cxa_pure_virtual, ptr @_ZNK6dealii13FiniteElementILi3ELi3EE13get_face_dataENS_11UpdateFlagsERKNS_7MappingILi3ELi3EEERKNS_10QuadratureILi2EEE, ptr @_ZNK6dealii13FiniteElementILi3ELi3EE16get_subface_dataENS_11UpdateFlagsERKNS_7MappingILi3ELi3EEERKNS_10QuadratureILi2EEE, ptr @__cxa_pure_virtual, ptr @__cxa_pure_virtual, ptr @__cxa_pure_virtual] }, comdat, align 8
@_ZTVN6dealii5TableILi2EiEE = linkonce_odr dso_local unnamed_addr constant { [4 x ptr] } { [4 x ptr] [ptr null, ptr @_ZTIN6dealii5TableILi2EiEE, ptr @_ZN6dealii9TableBaseILi2EiED2Ev, ptr @_ZN6dealii5TableILi2EiED0Ev] }, comdat, align 8
@_ZTSN6dealii5TableILi2EiEE = linkonce_odr dso_local constant [23 x i8] c"N6dealii5TableILi2EiEE\00", comdat, align 1
@_ZTSN6dealii9TableBaseILi2EiEE = linkonce_odr dso_local constant [27 x i8] c"N6dealii9TableBaseILi2EiEE\00", comdat, align 1
@_ZTIN6dealii9TableBaseILi2EiEE = linkonce_odr dso_local constant { ptr, ptr, ptr } { ptr getelementptr inbounds (ptr, ptr @_ZTVN10__cxxabiv120__si_class_type_infoE, i64 2), ptr @_ZTSN6dealii9TableBaseILi2EiEE, ptr @_ZTIN6dealii11SubscriptorE }, comdat, align 8
@_ZTIN6dealii5TableILi2EiEE = linkonce_odr dso_local constant { ptr, ptr, ptr } { ptr getelementptr inbounds (ptr, ptr @_ZTVN10__cxxabiv120__si_class_type_infoE, i64 2), ptr @_ZTSN6dealii5TableILi2EiEE, ptr @_ZTIN6dealii9TableBaseILi2EiEE }, comdat, align 8
@_ZTVN6dealii9TableBaseILi2EiEE = linkonce_odr dso_local unnamed_addr constant { [4 x ptr] } { [4 x ptr] [ptr null, ptr @_ZTIN6dealii9TableBaseILi2EiEE, ptr @_ZN6dealii9TableBaseILi2EiED2Ev, ptr @_ZN6dealii9TableBaseILi2EiED0Ev] }, comdat, align 8
@_ZTVN6dealii11Polynomials10PolynomialIdEE = linkonce_odr dso_local unnamed_addr constant { [4 x ptr] } { [4 x ptr] [ptr null, ptr @_ZTIN6dealii11Polynomials10PolynomialIdEE, ptr @_ZN6dealii11Polynomials10PolynomialIdED2Ev, ptr @_ZN6dealii11Polynomials10PolynomialIdED0Ev] }, comdat, align 8
@_ZTSN6dealii11Polynomials10PolynomialIdEE = linkonce_odr dso_local constant [38 x i8] c"N6dealii11Polynomials10PolynomialIdEE\00", comdat, align 1
@_ZTIN6dealii11Polynomials10PolynomialIdEE = linkonce_odr dso_local constant { ptr, ptr, ptr } { ptr getelementptr inbounds (ptr, ptr @_ZTVN10__cxxabiv120__si_class_type_infoE, i64 2), ptr @_ZTSN6dealii11Polynomials10PolynomialIdEE, ptr @_ZTIN6dealii11SubscriptorE }, comdat, align 8
@.str.11 = private unnamed_addr constant [49 x i8] c"cannot create std::vector larger than max_size()\00", align 1
@_ZTTNSt7__cxx1119basic_ostringstreamIcSt11char_traitsIcESaIcEEE = external unnamed_addr constant [4 x ptr], align 8
@_ZTVNSt7__cxx1115basic_stringbufIcSt11char_traitsIcESaIcEEE = external unnamed_addr constant { [16 x ptr] }, align 8
@_ZTVSt15basic_streambufIcSt11char_traitsIcEE = external unnamed_addr constant { [16 x ptr] }, align 8
@.str.14 = private unnamed_addr constant [23 x i8] c"vector::_M_fill_insert\00", align 1
@llvm.global_ctors = appending global [0 x { i32, ptr, ptr }] zeroinitializer

@_ZN6dealii17FE_Q_HierarchicalILi3EEC1Ej = weak_odr dso_local unnamed_addr alias void (ptr, i32), ptr @_ZN6dealii17FE_Q_HierarchicalILi3EEC2Ej

; Function Attrs: sspstrong uwtable
define weak_odr dso_local void @_ZN6dealii17FE_Q_HierarchicalILi3EEC2Ej(ptr noundef nonnull align 8 dereferenceable(832) %0, i32 noundef %1) unnamed_addr #0 comdat($_ZN6dealii17FE_Q_HierarchicalILi3EEC5Ej) align 2 personality ptr @__gxx_personality_v0 {
  %3 = alloca %"class.dealii::Point.79", align 8
  %4 = alloca %"class.dealii::TensorProductPolynomials", align 8
  %5 = alloca %"class.std::vector.62", align 8
  %6 = alloca %"class.dealii::FiniteElementData", align 4
  %7 = alloca %"class.std::vector.48", align 8
  %8 = alloca %"class.std::vector.53", align 8
  %9 = alloca %"class.dealii::FiniteElementData", align 4
  %10 = alloca %"class.std::vector.48", align 8
  %11 = alloca %"class.std::vector.57", align 8
  %12 = alloca %"class.dealii::FiniteElementData", align 4
  %13 = alloca %"class.std::vector.48", align 8
  %14 = alloca %"class.std::vector.53", align 8
  %15 = alloca %"class.std::vector.48", align 8
  %16 = alloca %"class.std::vector.70", align 8
  %17 = alloca %"class.dealii::FullMatrix", align 8
  %18 = alloca %"class.std::allocator.72", align 1
  %19 = alloca %"class.std::vector.70", align 8
  %20 = alloca %"class.dealii::FullMatrix", align 8
  %21 = alloca %"class.std::allocator.72", align 1
  call void @llvm.lifetime.start.p0(i64 80, ptr nonnull %4) #16
  call void @llvm.lifetime.start.p0(i64 24, ptr nonnull %5) #16
  call void @_ZN6dealii11Polynomials12Hierarchical23generate_complete_basisEj(ptr nonnull sret(%"class.std::vector.62") align 8 %5, i32 noundef %1)
  invoke void @_ZN6dealii24TensorProductPolynomialsILi3EEC2INS_11Polynomials10PolynomialIdEEEERKSt6vectorIT_SaIS7_EE(ptr noundef nonnull align 8 dereferenceable(80) %4, ptr noundef nonnull align 8 dereferenceable(24) %5)
          to label %22 unwind label %368

22:                                               ; preds = %2
  call void @llvm.lifetime.start.p0(i64 60, ptr nonnull %6) #16
  call void @llvm.lifetime.start.p0(i64 24, ptr nonnull %7) #16
  call void @llvm.experimental.noalias.scope.decl(metadata !5)
  %23 = invoke noalias noundef nonnull dereferenceable(16) ptr @_Znwm(i64 noundef 16) #17
          to label %24 unwind label %370

24:                                               ; preds = %22
  store ptr %23, ptr %7, align 8, !tbaa !8, !alias.scope !5
  %25 = getelementptr inbounds i32, ptr %23, i64 4
  %26 = getelementptr inbounds %"struct.std::_Vector_base<unsigned int, std::allocator<unsigned int> >::_Vector_impl_data", ptr %7, i64 0, i32 2
  store ptr %25, ptr %26, align 8, !tbaa !13, !alias.scope !5
  store i32 1, ptr %23, align 4, !tbaa !14, !noalias !5
  %27 = getelementptr inbounds i32, ptr %23, i64 1
  %28 = getelementptr inbounds i32, ptr %23, i64 2
  %29 = getelementptr inbounds i32, ptr %23, i64 3
  %30 = getelementptr inbounds %"struct.std::_Vector_base<unsigned int, std::allocator<unsigned int> >::_Vector_impl_data", ptr %7, i64 0, i32 1
  store ptr %25, ptr %30, align 8, !tbaa !16, !alias.scope !5
  %31 = add i32 %1, -1
  store i32 %31, ptr %27, align 4, !tbaa !14, !noalias !5
  %32 = mul i32 %31, %31
  store i32 %32, ptr %28, align 4, !tbaa !14, !noalias !5
  %33 = mul i32 %32, %31
  store i32 %33, ptr %29, align 4, !tbaa !14, !noalias !5
  invoke void @_ZN6dealii17FiniteElementDataILi3EEC1ERKSt6vectorIjSaIjEEjjNS1_10ConformityEj(ptr noundef nonnull align 4 dereferenceable(60) %6, ptr noundef nonnull align 8 dereferenceable(24) %7, i32 noundef 1, i32 noundef %1, i32 noundef 6, i32 noundef -1)
          to label %34 unwind label %372

34:                                               ; preds = %24
  call void @llvm.lifetime.start.p0(i64 40, ptr nonnull %8) #16
  call void @llvm.lifetime.start.p0(i64 24, ptr nonnull %10) #16
  call void @llvm.experimental.noalias.scope.decl(metadata !17)
  %35 = invoke noalias noundef nonnull dereferenceable(16) ptr @_Znwm(i64 noundef 16) #17
          to label %36 unwind label %374

36:                                               ; preds = %34
  store ptr %35, ptr %10, align 8, !tbaa !8, !alias.scope !17
  %37 = getelementptr inbounds i32, ptr %35, i64 4
  %38 = getelementptr inbounds %"struct.std::_Vector_base<unsigned int, std::allocator<unsigned int> >::_Vector_impl_data", ptr %10, i64 0, i32 2
  store ptr %37, ptr %38, align 8, !tbaa !13, !alias.scope !17
  store i32 1, ptr %35, align 4, !tbaa !14, !noalias !17
  %39 = getelementptr inbounds i32, ptr %35, i64 1
  %40 = getelementptr inbounds i32, ptr %35, i64 2
  %41 = getelementptr inbounds i32, ptr %35, i64 3
  %42 = getelementptr inbounds %"struct.std::_Vector_base<unsigned int, std::allocator<unsigned int> >::_Vector_impl_data", ptr %10, i64 0, i32 1
  store ptr %37, ptr %42, align 8, !tbaa !16, !alias.scope !17
  store i32 %31, ptr %39, align 4, !tbaa !14, !noalias !17
  store i32 %32, ptr %40, align 4, !tbaa !14, !noalias !17
  store i32 %33, ptr %41, align 4, !tbaa !14, !noalias !17
  invoke void @_ZN6dealii17FiniteElementDataILi3EEC1ERKSt6vectorIjSaIjEEjjNS1_10ConformityEj(ptr noundef nonnull align 4 dereferenceable(60) %9, ptr noundef nonnull align 8 dereferenceable(24) %10, i32 noundef 1, i32 noundef %1, i32 noundef 0, i32 noundef -1)
          to label %43 unwind label %376

43:                                               ; preds = %36
  %44 = getelementptr inbounds %"class.dealii::FiniteElementData", ptr %9, i64 0, i32 10
  %45 = load i32, ptr %44, align 4, !tbaa !20
  store ptr null, ptr %8, align 8, !tbaa !23
  %46 = getelementptr inbounds %"struct.std::_Bit_iterator_base", ptr %8, i64 0, i32 1
  store i32 0, ptr %46, align 8, !tbaa !25
  %47 = getelementptr inbounds %"struct.std::_Bvector_base<std::allocator<bool> >::_Bvector_impl_data", ptr %8, i64 0, i32 1
  store ptr null, ptr %47, align 8, !tbaa !23
  %48 = getelementptr inbounds %"struct.std::_Bvector_base<std::allocator<bool> >::_Bvector_impl_data", ptr %8, i64 0, i32 1, i32 0, i32 1
  store i32 0, ptr %48, align 8, !tbaa !25
  %49 = getelementptr inbounds %"struct.std::_Bvector_base<std::allocator<bool> >::_Bvector_impl_data", ptr %8, i64 0, i32 2
  store ptr null, ptr %49, align 8, !tbaa !26
  %50 = icmp eq i32 %45, 0
  br i1 %50, label %67, label %51

51:                                               ; preds = %43
  %52 = zext i32 %45 to i64
  %53 = add nuw nsw i64 %52, 63
  %54 = lshr i64 %53, 3
  %55 = and i64 %54, 1073741816
  %56 = invoke noalias noundef nonnull ptr @_Znwm(i64 noundef %55) #17
          to label %57 unwind label %65

57:                                               ; preds = %51
  %58 = lshr i64 %53, 6
  %59 = getelementptr inbounds i64, ptr %56, i64 %58
  store ptr %59, ptr %49, align 8, !tbaa !26
  store ptr %56, ptr %8, align 8
  store i32 0, ptr %46, align 8
  %60 = lshr i32 %45, 6
  %61 = zext i32 %60 to i64
  %62 = getelementptr inbounds i64, ptr %56, i64 %61
  %63 = and i32 %45, 63
  store ptr %62, ptr %47, align 8
  store i32 %63, ptr %48, align 8
  %64 = shl nuw nsw i64 %58, 3
  call void @llvm.memset.p0.i64(ptr nonnull align 8 %56, i8 0, i64 %64, i1 false)
  br label %67

65:                                               ; preds = %51
  %66 = landingpad { ptr, i32 }
          cleanup
  br label %417

67:                                               ; preds = %57, %43
  call void @llvm.lifetime.start.p0(i64 24, ptr nonnull %11) #16
  call void @llvm.lifetime.start.p0(i64 24, ptr nonnull %13) #16
  call void @llvm.experimental.noalias.scope.decl(metadata !29)
  %68 = invoke noalias noundef nonnull dereferenceable(16) ptr @_Znwm(i64 noundef 16) #17
          to label %69 unwind label %378

69:                                               ; preds = %67
  store ptr %68, ptr %13, align 8, !tbaa !8, !alias.scope !29
  %70 = getelementptr inbounds i32, ptr %68, i64 4
  %71 = getelementptr inbounds %"struct.std::_Vector_base<unsigned int, std::allocator<unsigned int> >::_Vector_impl_data", ptr %13, i64 0, i32 2
  store ptr %70, ptr %71, align 8, !tbaa !13, !alias.scope !29
  store i32 1, ptr %68, align 4, !tbaa !14, !noalias !29
  %72 = getelementptr inbounds i32, ptr %68, i64 1
  %73 = getelementptr inbounds i32, ptr %68, i64 2
  %74 = getelementptr inbounds i32, ptr %68, i64 3
  %75 = getelementptr inbounds %"struct.std::_Vector_base<unsigned int, std::allocator<unsigned int> >::_Vector_impl_data", ptr %13, i64 0, i32 1
  store ptr %70, ptr %75, align 8, !tbaa !16, !alias.scope !29
  store i32 %31, ptr %72, align 4, !tbaa !14, !noalias !29
  store i32 %32, ptr %73, align 4, !tbaa !14, !noalias !29
  store i32 %33, ptr %74, align 4, !tbaa !14, !noalias !29
  invoke void @_ZN6dealii17FiniteElementDataILi3EEC1ERKSt6vectorIjSaIjEEjjNS1_10ConformityEj(ptr noundef nonnull align 4 dereferenceable(60) %12, ptr noundef nonnull align 8 dereferenceable(24) %13, i32 noundef 1, i32 noundef %1, i32 noundef 0, i32 noundef -1)
          to label %76 unwind label %380

76:                                               ; preds = %69
  %77 = getelementptr inbounds %"class.dealii::FiniteElementData", ptr %12, i64 0, i32 10
  %78 = load i32, ptr %77, align 4, !tbaa !20
  call void @llvm.lifetime.start.p0(i64 40, ptr nonnull %14) #16
  %79 = getelementptr inbounds %"struct.std::_Bvector_base<std::allocator<bool> >::_Bvector_impl_data", ptr %14, i64 0, i32 2
  %80 = invoke noalias noundef nonnull dereferenceable(8) ptr @_Znwm(i64 noundef 8) #17
          to label %83 unwind label %81

81:                                               ; preds = %76
  %82 = landingpad { ptr, i32 }
          cleanup
  br label %398

83:                                               ; preds = %76
  %84 = getelementptr inbounds %"struct.std::_Bvector_base<std::allocator<bool> >::_Bvector_impl_data", ptr %14, i64 0, i32 1, i32 0, i32 1
  %85 = getelementptr inbounds %"struct.std::_Bvector_base<std::allocator<bool> >::_Bvector_impl_data", ptr %14, i64 0, i32 1
  %86 = getelementptr inbounds %"struct.std::_Bit_iterator_base", ptr %14, i64 0, i32 1
  %87 = getelementptr inbounds i64, ptr %80, i64 1
  store ptr %87, ptr %79, align 8, !tbaa !26
  store ptr %80, ptr %14, align 8
  store i32 0, ptr %86, align 8
  store ptr %80, ptr %85, align 8
  store i32 1, ptr %84, align 8
  store i64 -1, ptr %80, align 8
  %88 = zext i32 %78 to i64
  call void @llvm.memset.p0.i64(ptr noundef nonnull align 8 dereferenceable(24) %11, i8 0, i64 24, i1 false)
  %89 = icmp eq i32 %78, 0
  br i1 %89, label %93, label %90

90:                                               ; preds = %83
  %91 = mul nuw nsw i64 %88, 40
  %92 = invoke noalias noundef nonnull ptr @_Znwm(i64 noundef %91) #17
          to label %93 unwind label %382

93:                                               ; preds = %90, %83
  %94 = phi ptr [ null, %83 ], [ %92, %90 ]
  store ptr %94, ptr %11, align 8, !tbaa !32
  %95 = getelementptr inbounds %"struct.std::_Vector_base<std::vector<bool>, std::allocator<std::vector<bool> > >::_Vector_impl_data", ptr %11, i64 0, i32 1
  store ptr %94, ptr %95, align 8, !tbaa !34
  %96 = getelementptr inbounds %"class.std::vector.53", ptr %94, i64 %88
  %97 = getelementptr inbounds %"struct.std::_Vector_base<std::vector<bool>, std::allocator<std::vector<bool> > >::_Vector_impl_data", ptr %11, i64 0, i32 2
  store ptr %96, ptr %97, align 8, !tbaa !35
  %98 = invoke noundef ptr @_ZNSt22__uninitialized_fill_nILb0EE15__uninit_fill_nIPSt6vectorIbSaIbEEmS4_EET_S6_T0_RKT1_(ptr noundef %94, i64 noundef %88, ptr noundef nonnull align 8 dereferenceable(40) %14)
          to label %104 unwind label %99

99:                                               ; preds = %93
  %100 = landingpad { ptr, i32 }
          cleanup
  %101 = load ptr, ptr %11, align 8, !tbaa !32
  %102 = icmp eq ptr %101, null
  br i1 %102, label %386, label %103

103:                                              ; preds = %99
  call void @_ZdlPv(ptr noundef nonnull %101) #18
  br label %386

104:                                              ; preds = %93
  store ptr %98, ptr %95, align 8, !tbaa !34
  invoke void @_ZN6dealii7FE_PolyINS_24TensorProductPolynomialsILi3EEELi3ELi3EEC2ERKS2_RKNS_17FiniteElementDataILi3EEERKSt6vectorIbSaIbEERKSA_ISC_SaISC_EE(ptr noundef nonnull align 8 dereferenceable(808) %0, ptr noundef nonnull align 8 dereferenceable(80) %4, ptr noundef nonnull align 4 dereferenceable(60) %6, ptr noundef nonnull align 8 dereferenceable(40) %8, ptr noundef nonnull align 8 dereferenceable(24) %11)
          to label %105 unwind label %384

105:                                              ; preds = %104
  %106 = load ptr, ptr %11, align 8, !tbaa !32
  %107 = load ptr, ptr %95, align 8, !tbaa !34
  %108 = icmp eq ptr %106, %107
  br i1 %108, label %130, label %109

109:                                              ; preds = %105, %125
  %110 = phi ptr [ %126, %125 ], [ %106, %105 ]
  %111 = load ptr, ptr %110, align 8, !tbaa !23
  %112 = icmp eq ptr %111, null
  br i1 %112, label %125, label %113

113:                                              ; preds = %109
  %114 = getelementptr inbounds %"struct.std::_Bvector_base<std::allocator<bool> >::_Bvector_impl_data", ptr %110, i64 0, i32 2
  %115 = load ptr, ptr %114, align 8, !tbaa !26
  %116 = ptrtoint ptr %115 to i64
  %117 = ptrtoint ptr %111 to i64
  %118 = sub i64 %116, %117
  %119 = ashr exact i64 %118, 3
  %120 = sub nsw i64 0, %119
  %121 = getelementptr inbounds i64, ptr %115, i64 %120
  call void @_ZdlPv(ptr noundef %121) #18
  store ptr null, ptr %110, align 8
  %122 = getelementptr inbounds i8, ptr %110, i64 8
  store i32 0, ptr %122, align 8
  %123 = getelementptr inbounds i8, ptr %110, i64 16
  store ptr null, ptr %123, align 8
  %124 = getelementptr inbounds i8, ptr %110, i64 24
  store i32 0, ptr %124, align 8
  store ptr null, ptr %114, align 8
  br label %125

125:                                              ; preds = %113, %109
  %126 = getelementptr inbounds %"class.std::vector.53", ptr %110, i64 1
  %127 = icmp eq ptr %126, %107
  br i1 %127, label %128, label %109

128:                                              ; preds = %125
  %129 = load ptr, ptr %11, align 8, !tbaa !32
  br label %130

130:                                              ; preds = %128, %105
  %131 = phi ptr [ %129, %128 ], [ %106, %105 ]
  %132 = icmp eq ptr %131, null
  br i1 %132, label %134, label %133

133:                                              ; preds = %130
  call void @_ZdlPv(ptr noundef nonnull %131) #18
  br label %134

134:                                              ; preds = %133, %130
  %135 = load ptr, ptr %14, align 8, !tbaa !23
  %136 = icmp eq ptr %135, null
  br i1 %136, label %145, label %137

137:                                              ; preds = %134
  %138 = load ptr, ptr %79, align 8, !tbaa !26
  %139 = ptrtoint ptr %138 to i64
  %140 = ptrtoint ptr %135 to i64
  %141 = sub i64 %139, %140
  %142 = ashr exact i64 %141, 3
  %143 = sub nsw i64 0, %142
  %144 = getelementptr inbounds i64, ptr %138, i64 %143
  call void @_ZdlPv(ptr noundef %144) #18
  br label %145

145:                                              ; preds = %137, %134
  call void @llvm.lifetime.end.p0(i64 40, ptr nonnull %14) #16
  %146 = load ptr, ptr %13, align 8, !tbaa !8
  %147 = icmp eq ptr %146, null
  br i1 %147, label %149, label %148

148:                                              ; preds = %145
  call void @_ZdlPv(ptr noundef nonnull %146) #18
  br label %149

149:                                              ; preds = %148, %145
  call void @llvm.lifetime.end.p0(i64 24, ptr nonnull %13) #16
  call void @llvm.lifetime.end.p0(i64 24, ptr nonnull %11) #16
  %150 = load ptr, ptr %8, align 8, !tbaa !23
  %151 = icmp eq ptr %150, null
  br i1 %151, label %160, label %152

152:                                              ; preds = %149
  %153 = load ptr, ptr %49, align 8, !tbaa !26
  %154 = ptrtoint ptr %153 to i64
  %155 = ptrtoint ptr %150 to i64
  %156 = sub i64 %154, %155
  %157 = ashr exact i64 %156, 3
  %158 = sub nsw i64 0, %157
  %159 = getelementptr inbounds i64, ptr %153, i64 %158
  call void @_ZdlPv(ptr noundef %159) #18
  store ptr null, ptr %8, align 8
  store i32 0, ptr %46, align 8
  store ptr null, ptr %47, align 8
  store i32 0, ptr %48, align 8
  store ptr null, ptr %49, align 8
  br label %160

160:                                              ; preds = %152, %149
  %161 = load ptr, ptr %10, align 8, !tbaa !8
  %162 = icmp eq ptr %161, null
  br i1 %162, label %164, label %163

163:                                              ; preds = %160
  call void @_ZdlPv(ptr noundef nonnull %161) #18
  br label %164

164:                                              ; preds = %163, %160
  call void @llvm.lifetime.end.p0(i64 24, ptr nonnull %10) #16
  call void @llvm.lifetime.end.p0(i64 40, ptr nonnull %8) #16
  %165 = load ptr, ptr %7, align 8, !tbaa !8
  %166 = icmp eq ptr %165, null
  br i1 %166, label %168, label %167

167:                                              ; preds = %164
  call void @_ZdlPv(ptr noundef nonnull %165) #18
  br label %168

168:                                              ; preds = %167, %164
  call void @llvm.lifetime.end.p0(i64 24, ptr nonnull %7) #16
  call void @llvm.lifetime.end.p0(i64 60, ptr nonnull %6) #16
  %169 = getelementptr inbounds %"class.dealii::TensorProductPolynomials", ptr %4, i64 0, i32 3
  %170 = load ptr, ptr %169, align 8, !tbaa !8
  %171 = icmp eq ptr %170, null
  br i1 %171, label %173, label %172

172:                                              ; preds = %168
  call void @_ZdlPv(ptr noundef nonnull %170) #18
  br label %173

173:                                              ; preds = %172, %168
  %174 = getelementptr inbounds %"class.dealii::TensorProductPolynomials", ptr %4, i64 0, i32 2
  %175 = load ptr, ptr %174, align 8, !tbaa !8
  %176 = icmp eq ptr %175, null
  br i1 %176, label %178, label %177

177:                                              ; preds = %173
  call void @_ZdlPv(ptr noundef nonnull %175) #18
  br label %178

178:                                              ; preds = %177, %173
  %179 = load ptr, ptr %4, align 8, !tbaa !36
  %180 = getelementptr inbounds %"struct.std::_Vector_base<dealii::Polynomials::Polynomial<double>, std::allocator<dealii::Polynomials::Polynomial<double> > >::_Vector_impl_data", ptr %4, i64 0, i32 1
  %181 = load ptr, ptr %180, align 8, !tbaa !38
  %182 = icmp eq ptr %179, %181
  br i1 %182, label %192, label %183

183:                                              ; preds = %178, %187
  %184 = phi ptr [ %188, %187 ], [ %179, %178 ]
  %185 = load ptr, ptr %184, align 8, !tbaa !39
  %186 = load ptr, ptr %185, align 8
  invoke void %186(ptr noundef nonnull align 8 dereferenceable(96) %184)
          to label %187 unwind label %196

187:                                              ; preds = %183
  %188 = getelementptr inbounds %"class.dealii::Polynomials::Polynomial", ptr %184, i64 1
  %189 = icmp eq ptr %188, %181
  br i1 %189, label %190, label %183

190:                                              ; preds = %187
  %191 = load ptr, ptr %4, align 8, !tbaa !36
  br label %192

192:                                              ; preds = %190, %178
  %193 = phi ptr [ %191, %190 ], [ %179, %178 ]
  %194 = icmp eq ptr %193, null
  br i1 %194, label %201, label %195

195:                                              ; preds = %192
  call void @_ZdlPv(ptr noundef nonnull %193) #18
  br label %201

196:                                              ; preds = %183
  %197 = landingpad { ptr, i32 }
          cleanup
  %198 = load ptr, ptr %4, align 8, !tbaa !36
  %199 = icmp eq ptr %198, null
  br i1 %199, label %431, label %200

200:                                              ; preds = %196
  call void @_ZdlPv(ptr noundef nonnull %198) #18
  br label %431

201:                                              ; preds = %195, %192
  %202 = load ptr, ptr %5, align 8, !tbaa !36
  %203 = getelementptr inbounds %"struct.std::_Vector_base<dealii::Polynomials::Polynomial<double>, std::allocator<dealii::Polynomials::Polynomial<double> > >::_Vector_impl_data", ptr %5, i64 0, i32 1
  %204 = load ptr, ptr %203, align 8, !tbaa !38
  %205 = icmp eq ptr %202, %204
  br i1 %205, label %215, label %206

206:                                              ; preds = %201, %210
  %207 = phi ptr [ %211, %210 ], [ %202, %201 ]
  %208 = load ptr, ptr %207, align 8, !tbaa !39
  %209 = load ptr, ptr %208, align 8
  invoke void %209(ptr noundef nonnull align 8 dereferenceable(96) %207)
          to label %210 unwind label %219

210:                                              ; preds = %206
  %211 = getelementptr inbounds %"class.dealii::Polynomials::Polynomial", ptr %207, i64 1
  %212 = icmp eq ptr %211, %204
  br i1 %212, label %213, label %206

213:                                              ; preds = %210
  %214 = load ptr, ptr %5, align 8, !tbaa !36
  br label %215

215:                                              ; preds = %213, %201
  %216 = phi ptr [ %214, %213 ], [ %202, %201 ]
  %217 = icmp eq ptr %216, null
  br i1 %217, label %226, label %218

218:                                              ; preds = %215
  call void @_ZdlPv(ptr noundef nonnull %216) #18
  br label %226

219:                                              ; preds = %206
  %220 = landingpad { ptr, i32 }
          cleanup
  %221 = load ptr, ptr %5, align 8, !tbaa !36
  %222 = icmp eq ptr %221, null
  br i1 %222, label %224, label %223

223:                                              ; preds = %219
  call void @_ZdlPv(ptr noundef nonnull %221) #18
  br label %224

224:                                              ; preds = %433, %468, %219, %223
  %225 = phi { ptr, i32 } [ %220, %223 ], [ %220, %219 ], [ %469, %468 ], [ %432, %433 ]
  resume { ptr, i32 } %225

226:                                              ; preds = %215, %218
  call void @llvm.lifetime.end.p0(i64 24, ptr nonnull %5) #16
  call void @llvm.lifetime.end.p0(i64 80, ptr nonnull %4) #16
  store ptr getelementptr inbounds ({ [38 x ptr] }, ptr @_ZTVN6dealii17FE_Q_HierarchicalILi3EEE, i64 0, inrange i32 0, i64 2), ptr %0, align 8, !tbaa !39
  %227 = getelementptr inbounds %"class.dealii::FE_Q_Hierarchical", ptr %0, i64 0, i32 1
  invoke void @_ZN6dealii17FE_Q_HierarchicalILi3EE46face_fe_q_hierarchical_to_hierarchic_numberingEj(ptr nonnull sret(%"class.std::vector.48") align 8 %227, i32 noundef %1)
          to label %228 unwind label %434

228:                                              ; preds = %226
  call void @llvm.lifetime.start.p0(i64 24, ptr nonnull %15) #16
  %229 = getelementptr inbounds i8, ptr %0, i64 72
  invoke void @_ZN6dealii17FE_Q_HierarchicalILi3EE41hierarchic_to_fe_q_hierarchical_numberingERKNS_17FiniteElementDataILi3EEE(ptr nonnull sret(%"class.std::vector.48") align 8 %15, ptr noundef nonnull align 4 dereferenceable(60) %229)
          to label %230 unwind label %436

230:                                              ; preds = %228
  %231 = getelementptr inbounds %"class.dealii::FE_Poly", ptr %0, i64 0, i32 1
  invoke void @_ZN6dealii24TensorProductPolynomialsILi3EE13set_numberingERKSt6vectorIjSaIjEE(ptr noundef nonnull align 8 dereferenceable(80) %231, ptr noundef nonnull align 8 dereferenceable(24) %15)
          to label %232 unwind label %438

232:                                              ; preds = %230
  %233 = load ptr, ptr %15, align 8, !tbaa !8
  %234 = icmp eq ptr %233, null
  br i1 %234, label %236, label %235

235:                                              ; preds = %232
  call void @_ZdlPv(ptr noundef nonnull %233) #18
  br label %236

236:                                              ; preds = %235, %232
  call void @llvm.lifetime.end.p0(i64 24, ptr nonnull %15) #16
  call void @llvm.lifetime.start.p0(i64 24, ptr nonnull %16) #16
  call void @llvm.lifetime.start.p0(i64 96, ptr nonnull %17) #16
  %237 = load i32, ptr %229, align 8, !tbaa !41
  %238 = shl i32 %237, 1
  %239 = getelementptr inbounds i8, ptr %0, i64 76
  %240 = load i32, ptr %239, align 4, !tbaa !42
  %241 = add i32 %238, %240
  invoke void @_ZN6dealii10FullMatrixIdEC1Ejj(ptr noundef nonnull align 8 dereferenceable(92) %17, i32 noundef %241, i32 noundef %241)
          to label %242 unwind label %445

242:                                              ; preds = %236
  call void @llvm.lifetime.start.p0(i64 1, ptr nonnull %18) #16
  invoke void @_ZNSt6vectorIN6dealii10FullMatrixIdEESaIS2_EEC2EmRKS2_RKS3_(ptr noundef nonnull align 8 dereferenceable(24) %16, i64 noundef 2, ptr noundef nonnull align 8 dereferenceable(92) %17, ptr noundef nonnull align 1 dereferenceable(1) %18)
          to label %243 unwind label %447

243:                                              ; preds = %242
  call void @llvm.lifetime.end.p0(i64 1, ptr nonnull %18) #16
  store ptr getelementptr inbounds ({ [4 x ptr] }, ptr @_ZTVN6dealii9TableBaseILi2EdEE, i64 0, inrange i32 0, i64 2), ptr %17, align 8, !tbaa !39
  %244 = getelementptr inbounds %"class.dealii::TableBase", ptr %17, i64 0, i32 1
  %245 = load ptr, ptr %244, align 8, !tbaa !43
  %246 = icmp eq ptr %245, null
  br i1 %246, label %248, label %247

247:                                              ; preds = %243
  call void @_ZdaPv(ptr noundef nonnull %245) #18
  br label %248

248:                                              ; preds = %247, %243
  invoke void @_ZN6dealii11SubscriptorD2Ev(ptr noundef nonnull align 8 dereferenceable(72) %17)
          to label %249 unwind label %445

249:                                              ; preds = %248
  call void @llvm.lifetime.end.p0(i64 96, ptr nonnull %17) #16
  call void @llvm.lifetime.start.p0(i64 24, ptr nonnull %19) #16
  call void @llvm.lifetime.start.p0(i64 96, ptr nonnull %20) #16
  %250 = load i32, ptr %229, align 8, !tbaa !41
  %251 = shl i32 %250, 1
  %252 = load i32, ptr %239, align 4, !tbaa !42
  %253 = add i32 %251, %252
  invoke void @_ZN6dealii10FullMatrixIdEC1Ejj(ptr noundef nonnull align 8 dereferenceable(92) %20, i32 noundef %253, i32 noundef %253)
          to label %254 unwind label %451

254:                                              ; preds = %249
  call void @llvm.lifetime.start.p0(i64 1, ptr nonnull %21) #16
  invoke void @_ZNSt6vectorIN6dealii10FullMatrixIdEESaIS2_EEC2EmRKS2_RKS3_(ptr noundef nonnull align 8 dereferenceable(24) %19, i64 noundef 2, ptr noundef nonnull align 8 dereferenceable(92) %20, ptr noundef nonnull align 1 dereferenceable(1) %21)
          to label %255 unwind label %453

255:                                              ; preds = %254
  call void @llvm.lifetime.end.p0(i64 1, ptr nonnull %21) #16
  store ptr getelementptr inbounds ({ [4 x ptr] }, ptr @_ZTVN6dealii9TableBaseILi2EdEE, i64 0, inrange i32 0, i64 2), ptr %20, align 8, !tbaa !39
  %256 = getelementptr inbounds %"class.dealii::TableBase", ptr %20, i64 0, i32 1
  %257 = load ptr, ptr %256, align 8, !tbaa !43
  %258 = icmp eq ptr %257, null
  br i1 %258, label %260, label %259

259:                                              ; preds = %255
  call void @_ZdaPv(ptr noundef nonnull %257) #18
  br label %260

260:                                              ; preds = %259, %255
  invoke void @_ZN6dealii11SubscriptorD2Ev(ptr noundef nonnull align 8 dereferenceable(72) %20)
          to label %261 unwind label %451

261:                                              ; preds = %260
  call void @llvm.lifetime.end.p0(i64 96, ptr nonnull %20) #16
  invoke void @_ZNK6dealii17FE_Q_HierarchicalILi3EE15build_dofs_cellERSt6vectorINS_10FullMatrixIdEESaIS4_EES7_(ptr noundef nonnull align 8 dereferenceable(832) %0, ptr noundef nonnull align 8 dereferenceable(24) %16, ptr noundef nonnull align 8 dereferenceable(24) %19)
          to label %262 unwind label %457

262:                                              ; preds = %261
  invoke void @_ZN6dealii17FE_Q_HierarchicalILi3EE22initialize_constraintsERKSt6vectorINS_10FullMatrixIdEESaIS4_EE(ptr noundef nonnull align 8 dereferenceable(832) %0, ptr noundef nonnull align 8 dereferenceable(24) %19)
          to label %263 unwind label %457

263:                                              ; preds = %262
  invoke void @_ZN6dealii17FE_Q_HierarchicalILi3EE36initialize_embedding_and_restrictionERKSt6vectorINS_10FullMatrixIdEESaIS4_EES8_(ptr noundef nonnull align 8 dereferenceable(832) %0, ptr noundef nonnull align 8 dereferenceable(24) %16, ptr noundef nonnull align 8 dereferenceable(24) %19)
          to label %264 unwind label %457

264:                                              ; preds = %263
  invoke void @_ZN6dealii17FE_Q_HierarchicalILi3EE30initialize_unit_support_pointsEv(ptr noundef nonnull align 8 dereferenceable(832) %0)
          to label %265 unwind label %457

265:                                              ; preds = %264
  call void @llvm.lifetime.start.p0(i64 16, ptr nonnull %3)
  %266 = getelementptr inbounds i8, ptr %0, i64 124
  %267 = load i32, ptr %266, align 4, !tbaa !57
  %268 = add i32 %267, 1
  %269 = mul i32 %268, %268
  %270 = getelementptr inbounds %"class.dealii::FiniteElement", ptr %0, i64 0, i32 7
  %271 = zext i32 %269 to i64
  call void @llvm.memset.p0.i64(ptr noundef nonnull align 8 dereferenceable(16) %3, i8 0, i64 16, i1 false), !tbaa !58
  %272 = getelementptr inbounds %"class.dealii::FiniteElement", ptr %0, i64 0, i32 7, i32 0, i32 0, i32 0, i32 1
  %273 = load ptr, ptr %272, align 8, !tbaa !60
  %274 = load ptr, ptr %270, align 8, !tbaa !61
  %275 = ptrtoint ptr %273 to i64
  %276 = ptrtoint ptr %274 to i64
  %277 = sub i64 %275, %276
  %278 = ashr exact i64 %277, 4
  %279 = icmp ult i64 %278, %271
  br i1 %279, label %280, label %285

280:                                              ; preds = %265
  %281 = sub nsw i64 %271, %278
  invoke void @_ZNSt6vectorIN6dealii5PointILi2EEESaIS2_EE14_M_fill_insertEN9__gnu_cxx17__normal_iteratorIPS2_S4_EEmRKS2_(ptr noundef nonnull align 8 dereferenceable(24) %270, ptr %273, i64 noundef %281, ptr noundef nonnull align 8 dereferenceable(16) %3)
          to label %282 unwind label %457

282:                                              ; preds = %280
  %283 = load i32, ptr %266, align 4, !tbaa !57
  %284 = load ptr, ptr %270, align 8, !tbaa !61
  br label %291

285:                                              ; preds = %265
  %286 = icmp ugt i64 %278, %271
  br i1 %286, label %287, label %291

287:                                              ; preds = %285
  %288 = getelementptr inbounds %"class.dealii::Point.79", ptr %274, i64 %271
  %289 = icmp eq ptr %273, %288
  br i1 %289, label %291, label %290

290:                                              ; preds = %287
  store ptr %288, ptr %272, align 8, !tbaa !63
  br label %291

291:                                              ; preds = %290, %287, %285, %282
  %292 = phi ptr [ %284, %282 ], [ %274, %285 ], [ %274, %287 ], [ %274, %290 ]
  %293 = phi i32 [ %283, %282 ], [ %267, %285 ], [ %267, %287 ], [ %267, %290 ]
  %294 = load ptr, ptr %227, align 8, !tbaa !8
  br label %295

295:                                              ; preds = %302, %291
  %296 = phi i32 [ 0, %291 ], [ %303, %302 ]
  %297 = phi i32 [ 0, %291 ], [ %312, %302 ]
  %298 = icmp eq i32 %296, 1
  %299 = select i1 %298, double 1.000000e+00, double 5.000000e-01
  %300 = icmp eq i32 %296, 0
  %301 = select i1 %300, double 0.000000e+00, double %299
  br label %305

302:                                              ; preds = %305
  %303 = add i32 %296, 1
  %304 = icmp ugt i32 %303, %293
  br i1 %304, label %321, label %295

305:                                              ; preds = %305, %295
  %306 = phi i32 [ 0, %295 ], [ %319, %305 ]
  %307 = phi i32 [ %297, %295 ], [ %312, %305 ]
  %308 = icmp eq i32 %306, 1
  %309 = select i1 %308, double 1.000000e+00, double 5.000000e-01
  %310 = icmp eq i32 %306, 0
  %311 = select i1 %310, double 0.000000e+00, double %309
  %312 = add i32 %307, 1
  %313 = zext i32 %307 to i64
  %314 = getelementptr inbounds i32, ptr %294, i64 %313
  %315 = load i32, ptr %314, align 4, !tbaa !14
  %316 = zext i32 %315 to i64
  %317 = getelementptr inbounds %"class.dealii::Point.79", ptr %292, i64 %316
  store double %311, ptr %317, align 8, !tbaa !58
  %318 = getelementptr inbounds [2 x double], ptr %317, i64 0, i64 1
  store double %301, ptr %318, align 8, !tbaa !58
  %319 = add i32 %306, 1
  %320 = icmp ugt i32 %319, %293
  br i1 %320, label %302, label %305

321:                                              ; preds = %302
  call void @llvm.lifetime.end.p0(i64 16, ptr nonnull %3)
  %322 = load ptr, ptr %19, align 8, !tbaa !64
  %323 = getelementptr inbounds %"struct.std::_Vector_base<dealii::FullMatrix<double>, std::allocator<dealii::FullMatrix<double> > >::_Vector_impl_data", ptr %19, i64 0, i32 1
  %324 = load ptr, ptr %323, align 8, !tbaa !66
  %325 = icmp eq ptr %322, %324
  br i1 %325, label %335, label %326

326:                                              ; preds = %321, %330
  %327 = phi ptr [ %331, %330 ], [ %322, %321 ]
  %328 = load ptr, ptr %327, align 8, !tbaa !39
  %329 = load ptr, ptr %328, align 8
  invoke void %329(ptr noundef nonnull align 8 dereferenceable(92) %327)
          to label %330 unwind label %339

330:                                              ; preds = %326
  %331 = getelementptr inbounds %"class.dealii::FullMatrix", ptr %327, i64 1
  %332 = icmp eq ptr %331, %324
  br i1 %332, label %333, label %326

333:                                              ; preds = %330
  %334 = load ptr, ptr %19, align 8, !tbaa !64
  br label %335

335:                                              ; preds = %333, %321
  %336 = phi ptr [ %334, %333 ], [ %322, %321 ]
  %337 = icmp eq ptr %336, null
  br i1 %337, label %344, label %338

338:                                              ; preds = %335
  call void @_ZdlPv(ptr noundef nonnull %336) #18
  br label %344

339:                                              ; preds = %326
  %340 = landingpad { ptr, i32 }
          cleanup
  %341 = load ptr, ptr %19, align 8, !tbaa !64
  %342 = icmp eq ptr %341, null
  br i1 %342, label %459, label %343

343:                                              ; preds = %339
  call void @_ZdlPv(ptr noundef nonnull %341) #18
  br label %459

344:                                              ; preds = %338, %335
  call void @llvm.lifetime.end.p0(i64 24, ptr nonnull %19) #16
  %345 = load ptr, ptr %16, align 8, !tbaa !64
  %346 = getelementptr inbounds %"struct.std::_Vector_base<dealii::FullMatrix<double>, std::allocator<dealii::FullMatrix<double> > >::_Vector_impl_data", ptr %16, i64 0, i32 1
  %347 = load ptr, ptr %346, align 8, !tbaa !66
  %348 = icmp eq ptr %345, %347
  br i1 %348, label %358, label %349

349:                                              ; preds = %344, %353
  %350 = phi ptr [ %354, %353 ], [ %345, %344 ]
  %351 = load ptr, ptr %350, align 8, !tbaa !39
  %352 = load ptr, ptr %351, align 8
  invoke void %352(ptr noundef nonnull align 8 dereferenceable(92) %350)
          to label %353 unwind label %362

353:                                              ; preds = %349
  %354 = getelementptr inbounds %"class.dealii::FullMatrix", ptr %350, i64 1
  %355 = icmp eq ptr %354, %347
  br i1 %355, label %356, label %349

356:                                              ; preds = %353
  %357 = load ptr, ptr %16, align 8, !tbaa !64
  br label %358

358:                                              ; preds = %356, %344
  %359 = phi ptr [ %357, %356 ], [ %345, %344 ]
  %360 = icmp eq ptr %359, null
  br i1 %360, label %367, label %361

361:                                              ; preds = %358
  call void @_ZdlPv(ptr noundef nonnull %359) #18
  br label %367

362:                                              ; preds = %349
  %363 = landingpad { ptr, i32 }
          cleanup
  %364 = load ptr, ptr %16, align 8, !tbaa !64
  %365 = icmp eq ptr %364, null
  br i1 %365, label %461, label %366

366:                                              ; preds = %362
  call void @_ZdlPv(ptr noundef nonnull %364) #18
  br label %461

367:                                              ; preds = %361, %358
  call void @llvm.lifetime.end.p0(i64 24, ptr nonnull %16) #16
  ret void

368:                                              ; preds = %2
  %369 = landingpad { ptr, i32 }
          cleanup
  br label %431

370:                                              ; preds = %22
  %371 = landingpad { ptr, i32 }
          cleanup
  br label %429

372:                                              ; preds = %24
  %373 = landingpad { ptr, i32 }
          cleanup
  br label %424

374:                                              ; preds = %34
  %375 = landingpad { ptr, i32 }
          cleanup
  br label %422

376:                                              ; preds = %36
  %377 = landingpad { ptr, i32 }
          cleanup
  br label %417

378:                                              ; preds = %67
  %379 = landingpad { ptr, i32 }
          cleanup
  br label %405

380:                                              ; preds = %69
  %381 = landingpad { ptr, i32 }
          cleanup
  br label %400

382:                                              ; preds = %90
  %383 = landingpad { ptr, i32 }
          cleanup
  br label %386

384:                                              ; preds = %104
  %385 = landingpad { ptr, i32 }
          cleanup
  invoke void @_ZNSt6vectorIS_IbSaIbEESaIS1_EED2Ev(ptr noundef nonnull align 8 dereferenceable(24) %11)
          to label %386 unwind label %470

386:                                              ; preds = %382, %103, %99, %384
  %387 = phi { ptr, i32 } [ %385, %384 ], [ %383, %382 ], [ %100, %103 ], [ %100, %99 ]
  %388 = load ptr, ptr %14, align 8, !tbaa !23
  %389 = icmp eq ptr %388, null
  br i1 %389, label %398, label %390

390:                                              ; preds = %386
  %391 = load ptr, ptr %79, align 8, !tbaa !26
  %392 = ptrtoint ptr %391 to i64
  %393 = ptrtoint ptr %388 to i64
  %394 = sub i64 %392, %393
  %395 = ashr exact i64 %394, 3
  %396 = sub nsw i64 0, %395
  %397 = getelementptr inbounds i64, ptr %391, i64 %396
  call void @_ZdlPv(ptr noundef %397) #18
  store ptr null, ptr %14, align 8
  br label %398

398:                                              ; preds = %390, %386, %81
  %399 = phi { ptr, i32 } [ %82, %81 ], [ %387, %386 ], [ %387, %390 ]
  call void @llvm.lifetime.end.p0(i64 40, ptr nonnull %14) #16
  br label %400

400:                                              ; preds = %398, %380
  %401 = phi { ptr, i32 } [ %399, %398 ], [ %381, %380 ]
  %402 = load ptr, ptr %13, align 8, !tbaa !8
  %403 = icmp eq ptr %402, null
  br i1 %403, label %405, label %404

404:                                              ; preds = %400
  call void @_ZdlPv(ptr noundef nonnull %402) #18
  br label %405

405:                                              ; preds = %404, %400, %378
  %406 = phi { ptr, i32 } [ %379, %378 ], [ %401, %400 ], [ %401, %404 ]
  call void @llvm.lifetime.end.p0(i64 24, ptr nonnull %13) #16
  call void @llvm.lifetime.end.p0(i64 24, ptr nonnull %11) #16
  %407 = load ptr, ptr %8, align 8, !tbaa !23
  %408 = icmp eq ptr %407, null
  br i1 %408, label %417, label %409

409:                                              ; preds = %405
  %410 = load ptr, ptr %49, align 8, !tbaa !26
  %411 = ptrtoint ptr %410 to i64
  %412 = ptrtoint ptr %407 to i64
  %413 = sub i64 %411, %412
  %414 = ashr exact i64 %413, 3
  %415 = sub nsw i64 0, %414
  %416 = getelementptr inbounds i64, ptr %410, i64 %415
  call void @_ZdlPv(ptr noundef %416) #18
  store ptr null, ptr %8, align 8
  store i32 0, ptr %46, align 8
  store ptr null, ptr %47, align 8
  store i32 0, ptr %48, align 8
  store ptr null, ptr %49, align 8
  br label %417

417:                                              ; preds = %65, %405, %409, %376
  %418 = phi { ptr, i32 } [ %377, %376 ], [ %66, %65 ], [ %406, %405 ], [ %406, %409 ]
  %419 = load ptr, ptr %10, align 8, !tbaa !8
  %420 = icmp eq ptr %419, null
  br i1 %420, label %422, label %421

421:                                              ; preds = %417
  call void @_ZdlPv(ptr noundef nonnull %419) #18
  br label %422

422:                                              ; preds = %421, %417, %374
  %423 = phi { ptr, i32 } [ %375, %374 ], [ %418, %417 ], [ %418, %421 ]
  call void @llvm.lifetime.end.p0(i64 24, ptr nonnull %10) #16
  call void @llvm.lifetime.end.p0(i64 40, ptr nonnull %8) #16
  br label %424

424:                                              ; preds = %422, %372
  %425 = phi { ptr, i32 } [ %423, %422 ], [ %373, %372 ]
  %426 = load ptr, ptr %7, align 8, !tbaa !8
  %427 = icmp eq ptr %426, null
  br i1 %427, label %429, label %428

428:                                              ; preds = %424
  call void @_ZdlPv(ptr noundef nonnull %426) #18
  br label %429

429:                                              ; preds = %428, %424, %370
  %430 = phi { ptr, i32 } [ %371, %370 ], [ %425, %424 ], [ %425, %428 ]
  call void @llvm.lifetime.end.p0(i64 24, ptr nonnull %7) #16
  call void @llvm.lifetime.end.p0(i64 60, ptr nonnull %6) #16
  invoke void @_ZN6dealii24TensorProductPolynomialsILi3EED2Ev(ptr noundef nonnull align 8 dereferenceable(80) %4)
          to label %431 unwind label %470

431:                                              ; preds = %368, %200, %196, %429
  %432 = phi { ptr, i32 } [ %430, %429 ], [ %369, %368 ], [ %197, %200 ], [ %197, %196 ]
  invoke void @_ZNSt6vectorIN6dealii11Polynomials10PolynomialIdEESaIS3_EED2Ev(ptr noundef nonnull align 8 dereferenceable(24) %5)
          to label %433 unwind label %470

433:                                              ; preds = %431
  call void @llvm.lifetime.end.p0(i64 24, ptr nonnull %5) #16
  call void @llvm.lifetime.end.p0(i64 80, ptr nonnull %4) #16
  br label %224

434:                                              ; preds = %226
  %435 = landingpad { ptr, i32 }
          cleanup
  br label %468

436:                                              ; preds = %228
  %437 = landingpad { ptr, i32 }
          cleanup
  br label %443

438:                                              ; preds = %230
  %439 = landingpad { ptr, i32 }
          cleanup
  %440 = load ptr, ptr %15, align 8, !tbaa !8
  %441 = icmp eq ptr %440, null
  br i1 %441, label %443, label %442

442:                                              ; preds = %438
  call void @_ZdlPv(ptr noundef nonnull %440) #18
  br label %443

443:                                              ; preds = %442, %438, %436
  %444 = phi { ptr, i32 } [ %437, %436 ], [ %439, %438 ], [ %439, %442 ]
  call void @llvm.lifetime.end.p0(i64 24, ptr nonnull %15) #16
  br label %463

445:                                              ; preds = %248, %236
  %446 = landingpad { ptr, i32 }
          cleanup
  br label %449

447:                                              ; preds = %242
  %448 = landingpad { ptr, i32 }
          cleanup
  call void @llvm.lifetime.end.p0(i64 1, ptr nonnull %18) #16
  invoke void @_ZN6dealii9TableBaseILi2EdED2Ev(ptr noundef nonnull align 8 dereferenceable(92) %17)
          to label %449 unwind label %470

449:                                              ; preds = %447, %445
  %450 = phi { ptr, i32 } [ %446, %445 ], [ %448, %447 ]
  call void @llvm.lifetime.end.p0(i64 96, ptr nonnull %17) #16
  br label %461

451:                                              ; preds = %260, %249
  %452 = landingpad { ptr, i32 }
          cleanup
  br label %455

453:                                              ; preds = %254
  %454 = landingpad { ptr, i32 }
          cleanup
  call void @llvm.lifetime.end.p0(i64 1, ptr nonnull %21) #16
  invoke void @_ZN6dealii9TableBaseILi2EdED2Ev(ptr noundef nonnull align 8 dereferenceable(92) %20)
          to label %455 unwind label %470

455:                                              ; preds = %453, %451
  %456 = phi { ptr, i32 } [ %452, %451 ], [ %454, %453 ]
  call void @llvm.lifetime.end.p0(i64 96, ptr nonnull %20) #16
  br label %459

457:                                              ; preds = %280, %264, %263, %262, %261
  %458 = landingpad { ptr, i32 }
          cleanup
  invoke void @_ZNSt6vectorIN6dealii10FullMatrixIdEESaIS2_EED2Ev(ptr noundef nonnull align 8 dereferenceable(24) %19)
          to label %459 unwind label %470

459:                                              ; preds = %343, %339, %457, %455
  %460 = phi { ptr, i32 } [ %458, %457 ], [ %456, %455 ], [ %340, %343 ], [ %340, %339 ]
  call void @llvm.lifetime.end.p0(i64 24, ptr nonnull %19) #16
  invoke void @_ZNSt6vectorIN6dealii10FullMatrixIdEESaIS2_EED2Ev(ptr noundef nonnull align 8 dereferenceable(24) %16)
          to label %461 unwind label %470

461:                                              ; preds = %366, %362, %459, %449
  %462 = phi { ptr, i32 } [ %460, %459 ], [ %450, %449 ], [ %363, %366 ], [ %363, %362 ]
  call void @llvm.lifetime.end.p0(i64 24, ptr nonnull %16) #16
  br label %463

463:                                              ; preds = %461, %443
  %464 = phi { ptr, i32 } [ %462, %461 ], [ %444, %443 ]
  %465 = load ptr, ptr %227, align 8, !tbaa !8
  %466 = icmp eq ptr %465, null
  br i1 %466, label %468, label %467

467:                                              ; preds = %463
  call void @_ZdlPv(ptr noundef nonnull %465) #18
  br label %468

468:                                              ; preds = %467, %463, %434
  %469 = phi { ptr, i32 } [ %435, %434 ], [ %464, %463 ], [ %464, %467 ]
  invoke void @_ZN6dealii7FE_PolyINS_24TensorProductPolynomialsILi3EEELi3ELi3EED2Ev(ptr noundef nonnull align 8 dereferenceable(808) %0)
          to label %224 unwind label %470

470:                                              ; preds = %468, %459, %457, %453, %447, %431, %429, %384
  %471 = landingpad { ptr, i32 }
          catch ptr null
  %472 = extractvalue { ptr, i32 } %471, 0
  call void @__clang_call_terminate(ptr %472) #19
  unreachable
}

; Function Attrs: mustprogress nocallback nofree nosync nounwind willreturn memory(argmem: readwrite)
declare void @llvm.lifetime.start.p0(i64 immarg, ptr nocapture) #1

declare void @_ZN6dealii11Polynomials12Hierarchical23generate_complete_basisEj(ptr sret(%"class.std::vector.62") align 8, i32 noundef) local_unnamed_addr #2

; Function Attrs: sspstrong uwtable
define linkonce_odr dso_local void @_ZN6dealii24TensorProductPolynomialsILi3EEC2INS_11Polynomials10PolynomialIdEEEERKSt6vectorIT_SaIS7_EE(ptr noundef nonnull align 8 dereferenceable(80) %0, ptr noundef nonnull align 8 dereferenceable(24) %1) unnamed_addr #0 comdat align 2 personality ptr @__gxx_personality_v0 {
  %3 = load ptr, ptr %1, align 8, !tbaa !60
  %4 = getelementptr inbounds %"struct.std::_Vector_base<dealii::Polynomials::Polynomial<double>, std::allocator<dealii::Polynomials::Polynomial<double> > >::_Vector_impl_data", ptr %1, i64 0, i32 1
  %5 = load ptr, ptr %4, align 8, !tbaa !60
  tail call void @llvm.memset.p0.i64(ptr noundef nonnull align 8 dereferenceable(24) %0, i8 0, i64 24, i1 false)
  %6 = ptrtoint ptr %5 to i64
  %7 = ptrtoint ptr %3 to i64
  %8 = sub i64 %6, %7
  %9 = sdiv exact i64 %8, 96
  %10 = icmp ugt i64 %9, 96076792050570581
  br i1 %10, label %11, label %13

11:                                               ; preds = %2
  invoke void @_ZSt20__throw_length_errorPKc(ptr noundef nonnull @.str.11) #20
          to label %12 unwind label %22

12:                                               ; preds = %11
  unreachable

13:                                               ; preds = %2
  %14 = icmp eq ptr %5, %3
  br i1 %14, label %17, label %15

15:                                               ; preds = %13
  %16 = invoke noalias noundef nonnull ptr @_Znwm(i64 noundef %8) #17
          to label %17 unwind label %22

17:                                               ; preds = %15, %13
  %18 = phi ptr [ null, %13 ], [ %16, %15 ]
  store ptr %18, ptr %0, align 8, !tbaa !36
  %19 = getelementptr inbounds %"class.dealii::Polynomials::Polynomial", ptr %18, i64 %9
  %20 = getelementptr inbounds %"struct.std::_Vector_base<dealii::Polynomials::Polynomial<double>, std::allocator<dealii::Polynomials::Polynomial<double> > >::_Vector_impl_data", ptr %0, i64 0, i32 2
  store ptr %19, ptr %20, align 8, !tbaa !67
  %21 = invoke noundef ptr @_ZSt16__do_uninit_copyIN9__gnu_cxx17__normal_iteratorIPKN6dealii11Polynomials10PolynomialIdEESt6vectorIS5_SaIS5_EEEEPS5_ET0_T_SE_SD_(ptr %3, ptr %5, ptr noundef %18)
          to label %27 unwind label %22

22:                                               ; preds = %17, %15, %11
  %23 = landingpad { ptr, i32 }
          cleanup
  %24 = load ptr, ptr %0, align 8, !tbaa !36
  %25 = icmp eq ptr %24, null
  br i1 %25, label %94, label %26

26:                                               ; preds = %22
  tail call void @_ZdlPv(ptr noundef nonnull %24) #18
  br label %94

27:                                               ; preds = %17
  %28 = getelementptr inbounds %"struct.std::_Vector_base<dealii::Polynomials::Polynomial<double>, std::allocator<dealii::Polynomials::Polynomial<double> > >::_Vector_impl_data", ptr %0, i64 0, i32 1
  store ptr %21, ptr %28, align 8, !tbaa !38
  %29 = getelementptr inbounds %"class.dealii::TensorProductPolynomials", ptr %0, i64 0, i32 1
  %30 = load ptr, ptr %4, align 8, !tbaa !38
  %31 = load ptr, ptr %1, align 8, !tbaa !36
  %32 = ptrtoint ptr %30 to i64
  %33 = ptrtoint ptr %31 to i64
  %34 = sub i64 %32, %33
  %35 = sdiv exact i64 %34, 96
  %36 = trunc i64 %35 to i32
  %37 = mul i32 %36, %36
  %38 = mul i32 %37, %36
  store i32 %38, ptr %29, align 8, !tbaa !68
  %39 = getelementptr inbounds %"class.dealii::TensorProductPolynomials", ptr %0, i64 0, i32 2
  %40 = zext i32 %38 to i64
  tail call void @llvm.memset.p0.i64(ptr noundef nonnull align 8 dereferenceable(24) %39, i8 0, i64 24, i1 false)
  %41 = icmp eq i32 %38, 0
  br i1 %41, label %42, label %43

42:                                               ; preds = %27
  tail call void @llvm.memset.p0.i64(ptr noundef nonnull align 8 dereferenceable(48) %39, i8 0, i64 48, i1 false)
  br label %80

43:                                               ; preds = %27
  %44 = shl nuw nsw i64 %40, 2
  %45 = invoke noalias noundef nonnull ptr @_Znwm(i64 noundef %44) #17
          to label %46 unwind label %81

46:                                               ; preds = %43
  store ptr %45, ptr %39, align 8, !tbaa !8
  %47 = getelementptr inbounds i32, ptr %45, i64 %40
  %48 = getelementptr inbounds %"class.dealii::TensorProductPolynomials", ptr %0, i64 0, i32 2, i32 0, i32 0, i32 0, i32 2
  store ptr %47, ptr %48, align 8, !tbaa !13
  tail call void @llvm.memset.p0.i64(ptr nonnull align 4 %45, i8 0, i64 %44, i1 false), !tbaa !14
  %49 = getelementptr inbounds %"class.dealii::TensorProductPolynomials", ptr %0, i64 0, i32 2, i32 0, i32 0, i32 0, i32 1
  store ptr %47, ptr %49, align 8, !tbaa !16
  %50 = getelementptr inbounds %"class.dealii::TensorProductPolynomials", ptr %0, i64 0, i32 3
  tail call void @llvm.memset.p0.i64(ptr noundef nonnull align 8 dereferenceable(24) %50, i8 0, i64 24, i1 false)
  %51 = invoke noalias noundef nonnull ptr @_Znwm(i64 noundef %44) #17
          to label %52 unwind label %83

52:                                               ; preds = %46
  store ptr %51, ptr %50, align 8, !tbaa !8
  %53 = getelementptr inbounds i32, ptr %51, i64 %40
  %54 = getelementptr inbounds %"class.dealii::TensorProductPolynomials", ptr %0, i64 0, i32 3, i32 0, i32 0, i32 0, i32 2
  store ptr %53, ptr %54, align 8, !tbaa !13
  tail call void @llvm.memset.p0.i64(ptr nonnull align 4 %51, i8 0, i64 %44, i1 false), !tbaa !14
  %55 = getelementptr inbounds %"class.dealii::TensorProductPolynomials", ptr %0, i64 0, i32 3, i32 0, i32 0, i32 0, i32 1
  store ptr %53, ptr %55, align 8, !tbaa !16
  %56 = icmp ult i32 %38, 32
  br i1 %56, label %78, label %57

57:                                               ; preds = %52
  %58 = and i64 %40, 4294967264
  br label %59

59:                                               ; preds = %59, %57
  %60 = phi i64 [ 0, %57 ], [ %73, %59 ]
  %61 = phi <8 x i32> [ <i32 0, i32 1, i32 2, i32 3, i32 4, i32 5, i32 6, i32 7>, %57 ], [ %74, %59 ]
  %62 = add <8 x i32> %61, <i32 8, i32 8, i32 8, i32 8, i32 8, i32 8, i32 8, i32 8>
  %63 = add <8 x i32> %61, <i32 16, i32 16, i32 16, i32 16, i32 16, i32 16, i32 16, i32 16>
  %64 = add <8 x i32> %61, <i32 24, i32 24, i32 24, i32 24, i32 24, i32 24, i32 24, i32 24>
  %65 = getelementptr inbounds i32, ptr %45, i64 %60
  store <8 x i32> %61, ptr %65, align 4, !tbaa !14
  %66 = getelementptr inbounds i32, ptr %65, i64 8
  store <8 x i32> %62, ptr %66, align 4, !tbaa !14
  %67 = getelementptr inbounds i32, ptr %65, i64 16
  store <8 x i32> %63, ptr %67, align 4, !tbaa !14
  %68 = getelementptr inbounds i32, ptr %65, i64 24
  store <8 x i32> %64, ptr %68, align 4, !tbaa !14
  %69 = getelementptr inbounds i32, ptr %51, i64 %60
  store <8 x i32> %61, ptr %69, align 4, !tbaa !14
  %70 = getelementptr inbounds i32, ptr %69, i64 8
  store <8 x i32> %62, ptr %70, align 4, !tbaa !14
  %71 = getelementptr inbounds i32, ptr %69, i64 16
  store <8 x i32> %63, ptr %71, align 4, !tbaa !14
  %72 = getelementptr inbounds i32, ptr %69, i64 24
  store <8 x i32> %64, ptr %72, align 4, !tbaa !14
  %73 = add nuw i64 %60, 32
  %74 = add <8 x i32> %61, <i32 32, i32 32, i32 32, i32 32, i32 32, i32 32, i32 32, i32 32>
  %75 = icmp eq i64 %73, %58
  br i1 %75, label %76, label %59, !llvm.loop !76

76:                                               ; preds = %59
  %77 = icmp eq i64 %58, %40
  br i1 %77, label %80, label %78

78:                                               ; preds = %52, %76
  %79 = phi i64 [ 0, %52 ], [ %58, %76 ]
  br label %85

80:                                               ; preds = %85, %76, %42
  ret void

81:                                               ; preds = %43
  %82 = landingpad { ptr, i32 }
          cleanup
  br label %92

83:                                               ; preds = %46
  %84 = landingpad { ptr, i32 }
          cleanup
  tail call void @_ZdlPv(ptr noundef nonnull %45) #18
  br label %92

85:                                               ; preds = %78, %85
  %86 = phi i64 [ %90, %85 ], [ %79, %78 ]
  %87 = getelementptr inbounds i32, ptr %45, i64 %86
  %88 = trunc i64 %86 to i32
  store i32 %88, ptr %87, align 4, !tbaa !14
  %89 = getelementptr inbounds i32, ptr %51, i64 %86
  store i32 %88, ptr %89, align 4, !tbaa !14
  %90 = add nuw nsw i64 %86, 1
  %91 = icmp ult i64 %90, %40
  br i1 %91, label %85, label %80, !llvm.loop !79

92:                                               ; preds = %83, %81
  %93 = phi { ptr, i32 } [ %82, %81 ], [ %84, %83 ]
  invoke void @_ZNSt6vectorIN6dealii11Polynomials10PolynomialIdEESaIS3_EED2Ev(ptr noundef nonnull align 8 dereferenceable(24) %0)
          to label %94 unwind label %96

94:                                               ; preds = %26, %22, %92
  %95 = phi { ptr, i32 } [ %93, %92 ], [ %23, %26 ], [ %23, %22 ]
  resume { ptr, i32 } %95

96:                                               ; preds = %92
  %97 = landingpad { ptr, i32 }
          catch ptr null
  %98 = extractvalue { ptr, i32 } %97, 0
  tail call void @__clang_call_terminate(ptr %98) #19
  unreachable
}

declare i32 @__gxx_personality_v0(...)

; Function Attrs: sspstrong uwtable
define weak_odr dso_local void @_ZN6dealii17FE_Q_HierarchicalILi3EE14get_dpo_vectorEj(ptr noalias sret(%"class.std::vector.48") align 8 %0, i32 noundef %1) local_unnamed_addr #0 comdat align 2 personality ptr @__gxx_personality_v0 {
  tail call void @llvm.memset.p0.i64(ptr noundef nonnull align 8 dereferenceable(24) %0, i8 0, i64 24, i1 false)
  %3 = tail call noalias noundef nonnull dereferenceable(16) ptr @_Znwm(i64 noundef 16) #17
  store ptr %3, ptr %0, align 8, !tbaa !8
  %4 = getelementptr inbounds i32, ptr %3, i64 4
  %5 = getelementptr inbounds %"struct.std::_Vector_base<unsigned int, std::allocator<unsigned int> >::_Vector_impl_data", ptr %0, i64 0, i32 2
  store ptr %4, ptr %5, align 8, !tbaa !13
  store i32 1, ptr %3, align 4, !tbaa !14
  %6 = getelementptr inbounds i32, ptr %3, i64 1
  %7 = getelementptr inbounds i32, ptr %3, i64 2
  %8 = getelementptr inbounds i32, ptr %3, i64 3
  %9 = getelementptr inbounds %"struct.std::_Vector_base<unsigned int, std::allocator<unsigned int> >::_Vector_impl_data", ptr %0, i64 0, i32 1
  store ptr %4, ptr %9, align 8, !tbaa !16
  %10 = add i32 %1, -1
  store i32 %10, ptr %6, align 4, !tbaa !14
  %11 = mul i32 %10, %10
  store i32 %11, ptr %7, align 4, !tbaa !14
  %12 = mul i32 %11, %10
  store i32 %12, ptr %8, align 4, !tbaa !14
  ret void
}

declare void @_ZN6dealii17FiniteElementDataILi3EEC1ERKSt6vectorIjSaIjEEjjNS1_10ConformityEj(ptr noundef nonnull align 4 dereferenceable(60), ptr noundef nonnull align 8 dereferenceable(24), i32 noundef, i32 noundef, i32 noundef, i32 noundef) unnamed_addr #2

declare void @_ZN6dealii7FE_PolyINS_24TensorProductPolynomialsILi3EEELi3ELi3EEC2ERKS2_RKNS_17FiniteElementDataILi3EEERKSt6vectorIbSaIbEERKSA_ISC_SaISC_EE(ptr noundef nonnull align 8 dereferenceable(808), ptr noundef nonnull align 8 dereferenceable(80), ptr noundef nonnull align 4 dereferenceable(60), ptr noundef nonnull align 8 dereferenceable(40), ptr noundef nonnull align 8 dereferenceable(24)) unnamed_addr #2

; Function Attrs: sspstrong uwtable
define linkonce_odr dso_local void @_ZNSt6vectorIS_IbSaIbEESaIS1_EED2Ev(ptr noundef nonnull align 8 dereferenceable(24) %0) unnamed_addr #0 comdat align 2 personality ptr @__gxx_personality_v0 {
  %2 = load ptr, ptr %0, align 8, !tbaa !32
  %3 = getelementptr inbounds %"struct.std::_Vector_base<std::vector<bool>, std::allocator<std::vector<bool> > >::_Vector_impl_data", ptr %0, i64 0, i32 1
  %4 = load ptr, ptr %3, align 8, !tbaa !34
  %5 = icmp eq ptr %2, %4
  br i1 %5, label %27, label %6

6:                                                ; preds = %1, %22
  %7 = phi ptr [ %23, %22 ], [ %2, %1 ]
  %8 = load ptr, ptr %7, align 8, !tbaa !23
  %9 = icmp eq ptr %8, null
  br i1 %9, label %22, label %10

10:                                               ; preds = %6
  %11 = getelementptr inbounds %"struct.std::_Bvector_base<std::allocator<bool> >::_Bvector_impl_data", ptr %7, i64 0, i32 2
  %12 = load ptr, ptr %11, align 8, !tbaa !26
  %13 = ptrtoint ptr %12 to i64
  %14 = ptrtoint ptr %8 to i64
  %15 = sub i64 %13, %14
  %16 = ashr exact i64 %15, 3
  %17 = sub nsw i64 0, %16
  %18 = getelementptr inbounds i64, ptr %12, i64 %17
  tail call void @_ZdlPv(ptr noundef %18) #18
  store ptr null, ptr %7, align 8
  %19 = getelementptr inbounds i8, ptr %7, i64 8
  store i32 0, ptr %19, align 8
  %20 = getelementptr inbounds i8, ptr %7, i64 16
  store ptr null, ptr %20, align 8
  %21 = getelementptr inbounds i8, ptr %7, i64 24
  store i32 0, ptr %21, align 8
  store ptr null, ptr %11, align 8
  br label %22

22:                                               ; preds = %10, %6
  %23 = getelementptr inbounds %"class.std::vector.53", ptr %7, i64 1
  %24 = icmp eq ptr %23, %4
  br i1 %24, label %25, label %6

25:                                               ; preds = %22
  %26 = load ptr, ptr %0, align 8, !tbaa !32
  br label %27

27:                                               ; preds = %25, %1
  %28 = phi ptr [ %26, %25 ], [ %2, %1 ]
  %29 = icmp eq ptr %28, null
  br i1 %29, label %31, label %30

30:                                               ; preds = %27
  tail call void @_ZdlPv(ptr noundef nonnull %28) #18
  br label %31

31:                                               ; preds = %27, %30
  ret void
}

; Function Attrs: noinline noreturn nounwind sspstrong uwtable
define linkonce_odr hidden void @__clang_call_terminate(ptr noundef %0) local_unnamed_addr #3 comdat {
  %2 = tail call ptr @__cxa_begin_catch(ptr %0) #16
  tail call void @_ZSt9terminatev() #19
  unreachable
}

declare ptr @__cxa_begin_catch(ptr) local_unnamed_addr

declare void @_ZSt9terminatev() local_unnamed_addr

; Function Attrs: mustprogress nocallback nofree nosync nounwind willreturn memory(argmem: readwrite)
declare void @llvm.lifetime.end.p0(i64 immarg, ptr nocapture) #1

; Function Attrs: sspstrong uwtable
define linkonce_odr dso_local void @_ZNSt13_Bvector_baseISaIbEED2Ev(ptr noundef nonnull align 8 dereferenceable(40) %0) unnamed_addr #0 comdat align 2 personality ptr @__gxx_personality_v0 {
  %2 = load ptr, ptr %0, align 8, !tbaa !23
  %3 = icmp eq ptr %2, null
  br i1 %3, label %16, label %4

4:                                                ; preds = %1
  %5 = getelementptr inbounds %"struct.std::_Bvector_base<std::allocator<bool> >::_Bvector_impl_data", ptr %0, i64 0, i32 2
  %6 = load ptr, ptr %5, align 8, !tbaa !26
  %7 = ptrtoint ptr %6 to i64
  %8 = ptrtoint ptr %2 to i64
  %9 = sub i64 %7, %8
  %10 = ashr exact i64 %9, 3
  %11 = sub nsw i64 0, %10
  %12 = getelementptr inbounds i64, ptr %6, i64 %11
  tail call void @_ZdlPv(ptr noundef %12) #18
  store ptr null, ptr %0, align 8
  %13 = getelementptr inbounds i8, ptr %0, i64 8
  store i32 0, ptr %13, align 8
  %14 = getelementptr inbounds i8, ptr %0, i64 16
  store ptr null, ptr %14, align 8
  %15 = getelementptr inbounds i8, ptr %0, i64 24
  store i32 0, ptr %15, align 8
  store ptr null, ptr %5, align 8
  br label %16

16:                                               ; preds = %4, %1
  ret void
}

; Function Attrs: inlinehint sspstrong uwtable
define linkonce_odr dso_local void @_ZN6dealii24TensorProductPolynomialsILi3EED2Ev(ptr noundef nonnull align 8 dereferenceable(80) %0) unnamed_addr #4 comdat align 2 personality ptr @__gxx_personality_v0 {
  %2 = getelementptr inbounds %"class.dealii::TensorProductPolynomials", ptr %0, i64 0, i32 3
  %3 = load ptr, ptr %2, align 8, !tbaa !8
  %4 = icmp eq ptr %3, null
  br i1 %4, label %6, label %5

5:                                                ; preds = %1
  tail call void @_ZdlPv(ptr noundef nonnull %3) #18
  br label %6

6:                                                ; preds = %5, %1
  %7 = getelementptr inbounds %"class.dealii::TensorProductPolynomials", ptr %0, i64 0, i32 2
  %8 = load ptr, ptr %7, align 8, !tbaa !8
  %9 = icmp eq ptr %8, null
  br i1 %9, label %11, label %10

10:                                               ; preds = %6
  tail call void @_ZdlPv(ptr noundef nonnull %8) #18
  br label %11

11:                                               ; preds = %10, %6
  %12 = load ptr, ptr %0, align 8, !tbaa !36
  %13 = getelementptr inbounds %"struct.std::_Vector_base<dealii::Polynomials::Polynomial<double>, std::allocator<dealii::Polynomials::Polynomial<double> > >::_Vector_impl_data", ptr %0, i64 0, i32 1
  %14 = load ptr, ptr %13, align 8, !tbaa !38
  %15 = icmp eq ptr %12, %14
  br i1 %15, label %25, label %16

16:                                               ; preds = %11, %20
  %17 = phi ptr [ %21, %20 ], [ %12, %11 ]
  %18 = load ptr, ptr %17, align 8, !tbaa !39
  %19 = load ptr, ptr %18, align 8
  invoke void %19(ptr noundef nonnull align 8 dereferenceable(96) %17)
          to label %20 unwind label %29

20:                                               ; preds = %16
  %21 = getelementptr inbounds %"class.dealii::Polynomials::Polynomial", ptr %17, i64 1
  %22 = icmp eq ptr %21, %14
  br i1 %22, label %23, label %16

23:                                               ; preds = %20
  %24 = load ptr, ptr %0, align 8, !tbaa !36
  br label %25

25:                                               ; preds = %23, %11
  %26 = phi ptr [ %24, %23 ], [ %12, %11 ]
  %27 = icmp eq ptr %26, null
  br i1 %27, label %35, label %28

28:                                               ; preds = %25
  tail call void @_ZdlPv(ptr noundef nonnull %26) #18
  br label %35

29:                                               ; preds = %16
  %30 = landingpad { ptr, i32 }
          cleanup
  %31 = load ptr, ptr %0, align 8, !tbaa !36
  %32 = icmp eq ptr %31, null
  br i1 %32, label %34, label %33

33:                                               ; preds = %29
  tail call void @_ZdlPv(ptr noundef nonnull %31) #18
  br label %34

34:                                               ; preds = %33, %29
  resume { ptr, i32 } %30

35:                                               ; preds = %25, %28
  ret void
}

; Function Attrs: sspstrong uwtable
define linkonce_odr dso_local void @_ZNSt6vectorIN6dealii11Polynomials10PolynomialIdEESaIS3_EED2Ev(ptr noundef nonnull align 8 dereferenceable(24) %0) unnamed_addr #0 comdat align 2 personality ptr @__gxx_personality_v0 {
  %2 = load ptr, ptr %0, align 8, !tbaa !36
  %3 = getelementptr inbounds %"struct.std::_Vector_base<dealii::Polynomials::Polynomial<double>, std::allocator<dealii::Polynomials::Polynomial<double> > >::_Vector_impl_data", ptr %0, i64 0, i32 1
  %4 = load ptr, ptr %3, align 8, !tbaa !38
  %5 = icmp eq ptr %2, %4
  br i1 %5, label %15, label %6

6:                                                ; preds = %1, %10
  %7 = phi ptr [ %11, %10 ], [ %2, %1 ]
  %8 = load ptr, ptr %7, align 8, !tbaa !39
  %9 = load ptr, ptr %8, align 8
  invoke void %9(ptr noundef nonnull align 8 dereferenceable(96) %7)
          to label %10 unwind label %20

10:                                               ; preds = %6
  %11 = getelementptr inbounds %"class.dealii::Polynomials::Polynomial", ptr %7, i64 1
  %12 = icmp eq ptr %11, %4
  br i1 %12, label %13, label %6

13:                                               ; preds = %10
  %14 = load ptr, ptr %0, align 8, !tbaa !36
  br label %15

15:                                               ; preds = %13, %1
  %16 = phi ptr [ %14, %13 ], [ %2, %1 ]
  %17 = icmp eq ptr %16, null
  br i1 %17, label %19, label %18

18:                                               ; preds = %15
  tail call void @_ZdlPv(ptr noundef nonnull %16) #18
  br label %19

19:                                               ; preds = %15, %18
  ret void

20:                                               ; preds = %6
  %21 = landingpad { ptr, i32 }
          cleanup
  %22 = load ptr, ptr %0, align 8, !tbaa !36
  %23 = icmp eq ptr %22, null
  br i1 %23, label %25, label %24

24:                                               ; preds = %20
  tail call void @_ZdlPv(ptr noundef nonnull %22) #18
  br label %25

25:                                               ; preds = %24, %20
  resume { ptr, i32 } %21
}

; Function Attrs: sspstrong uwtable
define weak_odr dso_local void @_ZN6dealii17FE_Q_HierarchicalILi3EE46face_fe_q_hierarchical_to_hierarchic_numberingEj(ptr noalias sret(%"class.std::vector.48") align 8 %0, i32 noundef %1) local_unnamed_addr #0 comdat align 2 personality ptr @__gxx_personality_v0 {
  %3 = alloca %"class.dealii::FiniteElementData.78", align 4
  %4 = alloca %"class.std::vector.48", align 8
  %5 = alloca %"class.std::vector.48", align 8
  call void @llvm.lifetime.start.p0(i64 60, ptr nonnull %3) #16
  call void @llvm.lifetime.start.p0(i64 24, ptr nonnull %4) #16
  tail call void @llvm.experimental.noalias.scope.decl(metadata !80)
  %6 = tail call noalias noundef nonnull dereferenceable(12) ptr @_Znwm(i64 noundef 12) #17, !noalias !80
  store ptr %6, ptr %4, align 8, !tbaa !8, !alias.scope !80
  %7 = getelementptr inbounds i32, ptr %6, i64 3
  %8 = getelementptr inbounds %"struct.std::_Vector_base<unsigned int, std::allocator<unsigned int> >::_Vector_impl_data", ptr %4, i64 0, i32 2
  store ptr %7, ptr %8, align 8, !tbaa !13, !alias.scope !80
  store i32 1, ptr %6, align 4, !tbaa !14, !noalias !80
  %9 = getelementptr inbounds i32, ptr %6, i64 1
  %10 = getelementptr inbounds i32, ptr %6, i64 2
  %11 = getelementptr inbounds %"struct.std::_Vector_base<unsigned int, std::allocator<unsigned int> >::_Vector_impl_data", ptr %4, i64 0, i32 1
  store ptr %7, ptr %11, align 8, !tbaa !16, !alias.scope !80
  %12 = add i32 %1, -1
  store i32 %12, ptr %9, align 4, !tbaa !14, !noalias !80
  %13 = mul i32 %12, %12
  store i32 %13, ptr %10, align 4, !tbaa !14, !noalias !80
  invoke void @_ZN6dealii17FiniteElementDataILi2EEC1ERKSt6vectorIjSaIjEEjjNS1_10ConformityEj(ptr noundef nonnull align 4 dereferenceable(60) %3, ptr noundef nonnull align 8 dereferenceable(24) %4, i32 noundef 1, i32 noundef %1, i32 noundef 0, i32 noundef -1)
          to label %14 unwind label %52

14:                                               ; preds = %2
  %15 = load ptr, ptr %4, align 8, !tbaa !8
  %16 = icmp eq ptr %15, null
  br i1 %16, label %18, label %17

17:                                               ; preds = %14
  call void @_ZdlPv(ptr noundef nonnull %15) #18
  br label %18

18:                                               ; preds = %14, %17
  call void @llvm.lifetime.end.p0(i64 24, ptr nonnull %4) #16
  call void @llvm.lifetime.start.p0(i64 24, ptr nonnull %5) #16
  call void @_ZN6dealii17FE_Q_HierarchicalILi2EE41hierarchic_to_fe_q_hierarchical_numberingERKNS_17FiniteElementDataILi2EEE(ptr nonnull sret(%"class.std::vector.48") align 8 %5, ptr noundef nonnull align 4 dereferenceable(60) %3)
  %19 = load ptr, ptr %5, align 8, !tbaa !8
  %20 = getelementptr inbounds i8, ptr %5, i64 8
  %21 = load ptr, ptr %20, align 8, !tbaa !16
  call void @llvm.experimental.noalias.scope.decl(metadata !83)
  %22 = ptrtoint ptr %21 to i64
  %23 = ptrtoint ptr %19 to i64
  %24 = sub i64 %22, %23
  %25 = ashr i64 %24, 2
  %26 = icmp ugt i64 %24, 9223372036854775804
  br i1 %26, label %27, label %29

27:                                               ; preds = %18
  invoke void @_ZSt20__throw_length_errorPKc(ptr noundef nonnull @.str.11) #20
          to label %28 unwind label %58

28:                                               ; preds = %27
  unreachable

29:                                               ; preds = %18
  call void @llvm.memset.p0.i64(ptr noundef nonnull align 8 dereferenceable(24) %0, i8 0, i64 24, i1 false), !alias.scope !83
  %30 = icmp eq ptr %21, %19
  br i1 %30, label %48, label %31

31:                                               ; preds = %29
  %32 = invoke noalias noundef nonnull ptr @_Znwm(i64 noundef %24) #17
          to label %33 unwind label %58

33:                                               ; preds = %31
  store ptr %32, ptr %0, align 8, !tbaa !8, !alias.scope !83
  %34 = getelementptr inbounds i32, ptr %32, i64 %25
  %35 = getelementptr inbounds %"struct.std::_Vector_base<unsigned int, std::allocator<unsigned int> >::_Vector_impl_data", ptr %0, i64 0, i32 2
  store ptr %34, ptr %35, align 8, !tbaa !13, !alias.scope !83
  %36 = and i64 %24, -4
  call void @llvm.memset.p0.i64(ptr nonnull align 4 %32, i8 0, i64 %36, i1 false), !tbaa !14, !noalias !83
  %37 = getelementptr inbounds %"struct.std::_Vector_base<unsigned int, std::allocator<unsigned int> >::_Vector_impl_data", ptr %0, i64 0, i32 1
  store ptr %34, ptr %37, align 8, !tbaa !16, !alias.scope !83
  br label %38

38:                                               ; preds = %38, %33
  %39 = phi i64 [ 0, %33 ], [ %46, %38 ]
  %40 = phi i32 [ 0, %33 ], [ %45, %38 ]
  %41 = getelementptr inbounds i32, ptr %19, i64 %39
  %42 = load i32, ptr %41, align 4, !tbaa !14, !noalias !83
  %43 = zext i32 %42 to i64
  %44 = getelementptr inbounds i32, ptr %32, i64 %43
  store i32 %40, ptr %44, align 4, !tbaa !14, !noalias !83
  %45 = add i32 %40, 1
  %46 = zext i32 %45 to i64
  %47 = icmp ugt i64 %25, %46
  br i1 %47, label %38, label %50

48:                                               ; preds = %29
  %49 = icmp eq ptr %19, null
  br i1 %49, label %51, label %50

50:                                               ; preds = %38, %48
  call void @_ZdlPv(ptr noundef nonnull %19) #18
  br label %51

51:                                               ; preds = %48, %50
  call void @llvm.lifetime.end.p0(i64 24, ptr nonnull %5) #16
  call void @llvm.lifetime.end.p0(i64 60, ptr nonnull %3) #16
  ret void

52:                                               ; preds = %2
  %53 = landingpad { ptr, i32 }
          cleanup
  %54 = load ptr, ptr %4, align 8, !tbaa !8
  %55 = icmp eq ptr %54, null
  br i1 %55, label %57, label %56

56:                                               ; preds = %52
  call void @_ZdlPv(ptr noundef nonnull %54) #18
  br label %57

57:                                               ; preds = %56, %52
  call void @llvm.lifetime.end.p0(i64 24, ptr nonnull %4) #16
  br label %64

58:                                               ; preds = %31, %27
  %59 = landingpad { ptr, i32 }
          cleanup
  %60 = load ptr, ptr %5, align 8, !tbaa !8
  %61 = icmp eq ptr %60, null
  br i1 %61, label %63, label %62

62:                                               ; preds = %58
  call void @_ZdlPv(ptr noundef nonnull %60) #18
  br label %63

63:                                               ; preds = %62, %58
  call void @llvm.lifetime.end.p0(i64 24, ptr nonnull %5) #16
  br label %64

64:                                               ; preds = %63, %57
  %65 = phi { ptr, i32 } [ %59, %63 ], [ %53, %57 ]
  call void @llvm.lifetime.end.p0(i64 60, ptr nonnull %3) #16
  resume { ptr, i32 } %65
}

declare void @_ZN6dealii24TensorProductPolynomialsILi3EE13set_numberingERKSt6vectorIjSaIjEE(ptr noundef nonnull align 8 dereferenceable(80), ptr noundef nonnull align 8 dereferenceable(24)) local_unnamed_addr #2

; Function Attrs: sspstrong uwtable
define weak_odr dso_local void @_ZN6dealii17FE_Q_HierarchicalILi3EE41hierarchic_to_fe_q_hierarchical_numberingERKNS_17FiniteElementDataILi3EEE(ptr noalias sret(%"class.std::vector.48") align 8 %0, ptr noundef nonnull align 4 dereferenceable(60) %1) local_unnamed_addr #0 comdat align 2 personality ptr @__gxx_personality_v0 {
  %3 = getelementptr inbounds %"class.dealii::FiniteElementData", ptr %1, i64 0, i32 10
  %4 = load i32, ptr %3, align 4, !tbaa !20
  tail call void @llvm.memset.p0.i64(ptr noundef nonnull align 8 dereferenceable(24) %0, i8 0, i64 24, i1 false)
  %5 = icmp ne i32 %4, 0
  tail call void @llvm.assume(i1 %5)
  %6 = zext i32 %4 to i64
  %7 = shl nuw nsw i64 %6, 2
  %8 = tail call noalias noundef nonnull ptr @_Znwm(i64 noundef %7) #17
  store ptr %8, ptr %0, align 8, !tbaa !8
  %9 = getelementptr inbounds i32, ptr %8, i64 %6
  %10 = getelementptr inbounds %"struct.std::_Vector_base<unsigned int, std::allocator<unsigned int> >::_Vector_impl_data", ptr %0, i64 0, i32 2
  store ptr %9, ptr %10, align 8, !tbaa !13
  tail call void @llvm.memset.p0.i64(ptr nonnull align 4 %8, i8 0, i64 %7, i1 false), !tbaa !14
  %11 = getelementptr inbounds %"struct.std::_Vector_base<unsigned int, std::allocator<unsigned int> >::_Vector_impl_data", ptr %0, i64 0, i32 1
  store ptr %9, ptr %11, align 8, !tbaa !16
  %12 = getelementptr inbounds %"class.dealii::FiniteElementData", ptr %1, i64 0, i32 1
  %13 = load i32, ptr %12, align 4, !tbaa !42
  store i32 0, ptr %8, align 4, !tbaa !14
  %14 = getelementptr inbounds i32, ptr %8, i64 1
  store i32 1, ptr %14, align 4, !tbaa !14
  %15 = getelementptr inbounds i32, ptr %8, i64 2
  %16 = insertelement <2 x i32> poison, i32 %13, i64 0
  %17 = shufflevector <2 x i32> %16, <2 x i32> poison, <2 x i32> zeroinitializer
  %18 = add <2 x i32> %17, <i32 2, i32 3>
  %19 = extractelement <2 x i32> %18, i64 0
  %20 = mul i32 %19, %19
  store <2 x i32> %18, ptr %15, align 4, !tbaa !14
  %21 = getelementptr inbounds i32, ptr %8, i64 4
  store i32 %20, ptr %21, align 4, !tbaa !14
  %22 = add i32 %20, 1
  %23 = getelementptr inbounds i32, ptr %8, i64 5
  store i32 %22, ptr %23, align 4, !tbaa !14
  %24 = add i32 %20, %19
  %25 = getelementptr inbounds i32, ptr %8, i64 6
  store i32 %24, ptr %25, align 4, !tbaa !14
  %26 = add i32 %24, 1
  %27 = getelementptr inbounds i32, ptr %8, i64 7
  store i32 %26, ptr %27, align 4, !tbaa !14
  %28 = icmp eq i32 %13, 0
  br i1 %28, label %1086, label %29

29:                                               ; preds = %2
  %30 = add i32 %13, 7
  %31 = icmp ult i32 %30, 23
  br i1 %31, label %58, label %32

32:                                               ; preds = %29
  %33 = and i32 %13, -16
  %34 = or i32 %33, 8
  %35 = shufflevector <2 x i32> %18, <2 x i32> poison, <4 x i32> zeroinitializer
  br label %36

36:                                               ; preds = %36, %32
  %37 = phi i32 [ 0, %32 ], [ %53, %36 ]
  %38 = phi <4 x i32> [ <i32 0, i32 1, i32 2, i32 3>, %32 ], [ %54, %36 ]
  %39 = or i32 %37, 8
  %40 = add <4 x i32> %38, <i32 2, i32 2, i32 2, i32 2>
  %41 = add <4 x i32> %38, <i32 6, i32 6, i32 6, i32 6>
  %42 = add <4 x i32> %38, <i32 10, i32 10, i32 10, i32 10>
  %43 = add <4 x i32> %38, <i32 14, i32 14, i32 14, i32 14>
  %44 = mul <4 x i32> %40, %35
  %45 = mul <4 x i32> %41, %35
  %46 = mul <4 x i32> %42, %35
  %47 = mul <4 x i32> %43, %35
  %48 = zext i32 %39 to i64
  %49 = getelementptr inbounds i32, ptr %8, i64 %48
  store <4 x i32> %44, ptr %49, align 4, !tbaa !14
  %50 = getelementptr inbounds i32, ptr %49, i64 4
  store <4 x i32> %45, ptr %50, align 4, !tbaa !14
  %51 = getelementptr inbounds i32, ptr %49, i64 8
  store <4 x i32> %46, ptr %51, align 4, !tbaa !14
  %52 = getelementptr inbounds i32, ptr %49, i64 12
  store <4 x i32> %47, ptr %52, align 4, !tbaa !14
  %53 = add nuw i32 %37, 16
  %54 = add <4 x i32> %38, <i32 16, i32 16, i32 16, i32 16>
  %55 = icmp eq i32 %53, %33
  br i1 %55, label %56, label %36, !llvm.loop !86

56:                                               ; preds = %36
  %57 = icmp eq i32 %13, %33
  br i1 %57, label %71, label %58

58:                                               ; preds = %29, %56
  %59 = phi i32 [ 0, %29 ], [ %33, %56 ]
  %60 = phi i32 [ 8, %29 ], [ %34, %56 ]
  br label %61

61:                                               ; preds = %58, %61
  %62 = phi i32 [ %69, %61 ], [ %59, %58 ]
  %63 = phi i32 [ %66, %61 ], [ %60, %58 ]
  %64 = add i32 %62, 2
  %65 = mul i32 %64, %19
  %66 = add i32 %63, 1
  %67 = zext i32 %63 to i64
  %68 = getelementptr inbounds i32, ptr %8, i64 %67
  store i32 %65, ptr %68, align 4, !tbaa !14
  %69 = add nuw i32 %62, 1
  %70 = icmp ult i32 %69, %13
  br i1 %70, label %61, label %71, !llvm.loop !87

71:                                               ; preds = %61, %56
  %72 = phi i32 [ %34, %56 ], [ %66, %61 ]
  %73 = icmp ult i32 %13, 16
  br i1 %73, label %108, label %74

74:                                               ; preds = %71
  %75 = add i32 %13, -1
  %76 = xor i32 %72, -1
  %77 = icmp ugt i32 %75, %76
  br i1 %77, label %108, label %78

78:                                               ; preds = %74
  %79 = and i32 %13, -16
  %80 = add i32 %72, %79
  %81 = shufflevector <2 x i32> %18, <2 x i32> poison, <4 x i32> zeroinitializer
  br label %82

82:                                               ; preds = %82, %78
  %83 = phi i32 [ 0, %78 ], [ %103, %82 ]
  %84 = phi <4 x i32> [ <i32 0, i32 1, i32 2, i32 3>, %78 ], [ %104, %82 ]
  %85 = add i32 %72, %83
  %86 = add <4 x i32> %84, <i32 2, i32 2, i32 2, i32 2>
  %87 = add <4 x i32> %84, <i32 6, i32 6, i32 6, i32 6>
  %88 = add <4 x i32> %84, <i32 10, i32 10, i32 10, i32 10>
  %89 = add <4 x i32> %84, <i32 14, i32 14, i32 14, i32 14>
  %90 = mul <4 x i32> %86, %81
  %91 = mul <4 x i32> %87, %81
  %92 = mul <4 x i32> %88, %81
  %93 = mul <4 x i32> %89, %81
  %94 = add <4 x i32> %90, <i32 1, i32 1, i32 1, i32 1>
  %95 = add <4 x i32> %91, <i32 1, i32 1, i32 1, i32 1>
  %96 = add <4 x i32> %92, <i32 1, i32 1, i32 1, i32 1>
  %97 = add <4 x i32> %93, <i32 1, i32 1, i32 1, i32 1>
  %98 = zext i32 %85 to i64
  %99 = getelementptr inbounds i32, ptr %8, i64 %98
  store <4 x i32> %94, ptr %99, align 4, !tbaa !14
  %100 = getelementptr inbounds i32, ptr %99, i64 4
  store <4 x i32> %95, ptr %100, align 4, !tbaa !14
  %101 = getelementptr inbounds i32, ptr %99, i64 8
  store <4 x i32> %96, ptr %101, align 4, !tbaa !14
  %102 = getelementptr inbounds i32, ptr %99, i64 12
  store <4 x i32> %97, ptr %102, align 4, !tbaa !14
  %103 = add nuw i32 %83, 16
  %104 = add <4 x i32> %84, <i32 16, i32 16, i32 16, i32 16>
  %105 = icmp eq i32 %103, %79
  br i1 %105, label %106, label %82, !llvm.loop !88

106:                                              ; preds = %82
  %107 = icmp eq i32 %13, %79
  br i1 %107, label %122, label %108

108:                                              ; preds = %74, %71, %106
  %109 = phi i32 [ 0, %74 ], [ 0, %71 ], [ %79, %106 ]
  %110 = phi i32 [ %72, %74 ], [ %72, %71 ], [ %80, %106 ]
  br label %111

111:                                              ; preds = %108, %111
  %112 = phi i32 [ %120, %111 ], [ %109, %108 ]
  %113 = phi i32 [ %117, %111 ], [ %110, %108 ]
  %114 = add i32 %112, 2
  %115 = mul i32 %114, %19
  %116 = add i32 %115, 1
  %117 = add i32 %113, 1
  %118 = zext i32 %113 to i64
  %119 = getelementptr inbounds i32, ptr %8, i64 %118
  store i32 %116, ptr %119, align 4, !tbaa !14
  %120 = add nuw i32 %112, 1
  %121 = icmp ult i32 %120, %13
  br i1 %121, label %111, label %122, !llvm.loop !89

122:                                              ; preds = %111, %106
  %123 = phi i32 [ %80, %106 ], [ %117, %111 ]
  %124 = icmp ult i32 %13, 16
  br i1 %124, label %150, label %125

125:                                              ; preds = %122
  %126 = add i32 %13, -1
  %127 = xor i32 %123, -1
  %128 = icmp ugt i32 %126, %127
  br i1 %128, label %150, label %129

129:                                              ; preds = %125
  %130 = and i32 %13, -16
  %131 = add i32 %123, %130
  br label %132

132:                                              ; preds = %132, %129
  %133 = phi i32 [ 0, %129 ], [ %145, %132 ]
  %134 = phi <4 x i32> [ <i32 0, i32 1, i32 2, i32 3>, %129 ], [ %146, %132 ]
  %135 = add i32 %123, %133
  %136 = add <4 x i32> %134, <i32 2, i32 2, i32 2, i32 2>
  %137 = add <4 x i32> %134, <i32 6, i32 6, i32 6, i32 6>
  %138 = add <4 x i32> %134, <i32 10, i32 10, i32 10, i32 10>
  %139 = add <4 x i32> %134, <i32 14, i32 14, i32 14, i32 14>
  %140 = zext i32 %135 to i64
  %141 = getelementptr inbounds i32, ptr %8, i64 %140
  store <4 x i32> %136, ptr %141, align 4, !tbaa !14
  %142 = getelementptr inbounds i32, ptr %141, i64 4
  store <4 x i32> %137, ptr %142, align 4, !tbaa !14
  %143 = getelementptr inbounds i32, ptr %141, i64 8
  store <4 x i32> %138, ptr %143, align 4, !tbaa !14
  %144 = getelementptr inbounds i32, ptr %141, i64 12
  store <4 x i32> %139, ptr %144, align 4, !tbaa !14
  %145 = add nuw i32 %133, 16
  %146 = add <4 x i32> %134, <i32 16, i32 16, i32 16, i32 16>
  %147 = icmp eq i32 %145, %130
  br i1 %147, label %148, label %132, !llvm.loop !90

148:                                              ; preds = %132
  %149 = icmp eq i32 %13, %130
  br i1 %149, label %153, label %150

150:                                              ; preds = %125, %122, %148
  %151 = phi i32 [ 0, %125 ], [ 0, %122 ], [ %130, %148 ]
  %152 = phi i32 [ %123, %125 ], [ %123, %122 ], [ %131, %148 ]
  br label %196

153:                                              ; preds = %196, %148
  %154 = phi i32 [ %131, %148 ], [ %200, %196 ]
  %155 = add i32 %13, 4
  %156 = icmp ult i32 %13, 16
  br i1 %156, label %193, label %157

157:                                              ; preds = %153
  %158 = add i32 %13, -1
  %159 = xor i32 %154, -1
  %160 = icmp ugt i32 %158, %159
  br i1 %160, label %193, label %161

161:                                              ; preds = %157
  %162 = and i32 %13, -16
  %163 = add i32 %154, %162
  %164 = insertelement <4 x i32> poison, i32 %155, i64 0
  %165 = shufflevector <4 x i32> %164, <4 x i32> poison, <4 x i32> zeroinitializer
  %166 = add i32 %13, 8
  %167 = insertelement <4 x i32> poison, i32 %166, i64 0
  %168 = shufflevector <4 x i32> %167, <4 x i32> poison, <4 x i32> zeroinitializer
  %169 = add i32 %13, 12
  %170 = insertelement <4 x i32> poison, i32 %169, i64 0
  %171 = shufflevector <4 x i32> %170, <4 x i32> poison, <4 x i32> zeroinitializer
  %172 = add i32 %13, 16
  %173 = insertelement <4 x i32> poison, i32 %172, i64 0
  %174 = shufflevector <4 x i32> %173, <4 x i32> poison, <4 x i32> zeroinitializer
  br label %175

175:                                              ; preds = %175, %161
  %176 = phi i32 [ 0, %161 ], [ %188, %175 ]
  %177 = phi <4 x i32> [ <i32 0, i32 1, i32 2, i32 3>, %161 ], [ %189, %175 ]
  %178 = add i32 %154, %176
  %179 = add <4 x i32> %165, %177
  %180 = add <4 x i32> %168, %177
  %181 = add <4 x i32> %171, %177
  %182 = add <4 x i32> %174, %177
  %183 = zext i32 %178 to i64
  %184 = getelementptr inbounds i32, ptr %8, i64 %183
  store <4 x i32> %179, ptr %184, align 4, !tbaa !14
  %185 = getelementptr inbounds i32, ptr %184, i64 4
  store <4 x i32> %180, ptr %185, align 4, !tbaa !14
  %186 = getelementptr inbounds i32, ptr %184, i64 8
  store <4 x i32> %181, ptr %186, align 4, !tbaa !14
  %187 = getelementptr inbounds i32, ptr %184, i64 12
  store <4 x i32> %182, ptr %187, align 4, !tbaa !14
  %188 = add nuw i32 %176, 16
  %189 = add <4 x i32> %177, <i32 16, i32 16, i32 16, i32 16>
  %190 = icmp eq i32 %188, %162
  br i1 %190, label %191, label %175, !llvm.loop !91

191:                                              ; preds = %175
  %192 = icmp eq i32 %13, %162
  br i1 %192, label %205, label %193

193:                                              ; preds = %157, %153, %191
  %194 = phi i32 [ 0, %157 ], [ 0, %153 ], [ %162, %191 ]
  %195 = phi i32 [ %154, %157 ], [ %154, %153 ], [ %163, %191 ]
  br label %250

196:                                              ; preds = %150, %196
  %197 = phi i32 [ %203, %196 ], [ %151, %150 ]
  %198 = phi i32 [ %200, %196 ], [ %152, %150 ]
  %199 = add i32 %197, 2
  %200 = add i32 %198, 1
  %201 = zext i32 %198 to i64
  %202 = getelementptr inbounds i32, ptr %8, i64 %201
  store i32 %199, ptr %202, align 4, !tbaa !14
  %203 = add nuw i32 %197, 1
  %204 = icmp ult i32 %203, %13
  br i1 %204, label %196, label %153, !llvm.loop !92

205:                                              ; preds = %250, %191
  %206 = phi i32 [ %163, %191 ], [ %254, %250 ]
  %207 = add i32 %13, 4
  %208 = icmp ult i32 %13, 16
  br i1 %208, label %247, label %209

209:                                              ; preds = %205
  %210 = add i32 %13, -1
  %211 = xor i32 %206, -1
  %212 = icmp ugt i32 %210, %211
  br i1 %212, label %247, label %213

213:                                              ; preds = %209
  %214 = and i32 %13, -16
  %215 = add i32 %206, %214
  %216 = insertelement <4 x i32> poison, i32 %207, i64 0
  %217 = shufflevector <4 x i32> %216, <4 x i32> poison, <4 x i32> zeroinitializer
  %218 = shufflevector <2 x i32> %18, <2 x i32> poison, <4 x i32> zeroinitializer
  %219 = add <4 x i32> %216, <i32 4, i32 poison, i32 poison, i32 poison>
  %220 = shufflevector <4 x i32> %219, <4 x i32> poison, <4 x i32> zeroinitializer
  %221 = add <4 x i32> %216, <i32 8, i32 poison, i32 poison, i32 poison>
  %222 = shufflevector <4 x i32> %221, <4 x i32> poison, <4 x i32> zeroinitializer
  %223 = add <4 x i32> %216, <i32 12, i32 poison, i32 poison, i32 poison>
  %224 = shufflevector <4 x i32> %223, <4 x i32> poison, <4 x i32> zeroinitializer
  br label %225

225:                                              ; preds = %225, %213
  %226 = phi i32 [ 0, %213 ], [ %242, %225 ]
  %227 = phi <4 x i32> [ <i32 0, i32 1, i32 2, i32 3>, %213 ], [ %243, %225 ]
  %228 = add i32 %206, %226
  %229 = add <4 x i32> %217, %227
  %230 = add <4 x i32> %220, %227
  %231 = add <4 x i32> %222, %227
  %232 = add <4 x i32> %224, %227
  %233 = mul <4 x i32> %229, %218
  %234 = mul <4 x i32> %230, %218
  %235 = mul <4 x i32> %231, %218
  %236 = mul <4 x i32> %232, %218
  %237 = zext i32 %228 to i64
  %238 = getelementptr inbounds i32, ptr %8, i64 %237
  store <4 x i32> %233, ptr %238, align 4, !tbaa !14
  %239 = getelementptr inbounds i32, ptr %238, i64 4
  store <4 x i32> %234, ptr %239, align 4, !tbaa !14
  %240 = getelementptr inbounds i32, ptr %238, i64 8
  store <4 x i32> %235, ptr %240, align 4, !tbaa !14
  %241 = getelementptr inbounds i32, ptr %238, i64 12
  store <4 x i32> %236, ptr %241, align 4, !tbaa !14
  %242 = add nuw i32 %226, 16
  %243 = add <4 x i32> %227, <i32 16, i32 16, i32 16, i32 16>
  %244 = icmp eq i32 %242, %214
  br i1 %244, label %245, label %225, !llvm.loop !93

245:                                              ; preds = %225
  %246 = icmp eq i32 %13, %214
  br i1 %246, label %259, label %247

247:                                              ; preds = %209, %205, %245
  %248 = phi i32 [ 0, %209 ], [ 0, %205 ], [ %214, %245 ]
  %249 = phi i32 [ %206, %209 ], [ %206, %205 ], [ %215, %245 ]
  br label %308

250:                                              ; preds = %193, %250
  %251 = phi i32 [ %257, %250 ], [ %194, %193 ]
  %252 = phi i32 [ %254, %250 ], [ %195, %193 ]
  %253 = add i32 %155, %251
  %254 = add i32 %252, 1
  %255 = zext i32 %252 to i64
  %256 = getelementptr inbounds i32, ptr %8, i64 %255
  store i32 %253, ptr %256, align 4, !tbaa !14
  %257 = add nuw i32 %251, 1
  %258 = icmp ult i32 %257, %13
  br i1 %258, label %250, label %205, !llvm.loop !94

259:                                              ; preds = %308, %245
  %260 = phi i32 [ %215, %245 ], [ %313, %308 ]
  %261 = add i32 %13, 4
  %262 = icmp ult i32 %13, 16
  br i1 %262, label %305, label %263

263:                                              ; preds = %259
  %264 = add i32 %13, -1
  %265 = xor i32 %260, -1
  %266 = icmp ugt i32 %264, %265
  br i1 %266, label %305, label %267

267:                                              ; preds = %263
  %268 = and i32 %13, -16
  %269 = add i32 %260, %268
  %270 = insertelement <4 x i32> poison, i32 %261, i64 0
  %271 = shufflevector <4 x i32> %270, <4 x i32> poison, <4 x i32> zeroinitializer
  %272 = shufflevector <2 x i32> %18, <2 x i32> poison, <4 x i32> zeroinitializer
  %273 = add <4 x i32> %270, <i32 4, i32 poison, i32 poison, i32 poison>
  %274 = shufflevector <4 x i32> %273, <4 x i32> poison, <4 x i32> zeroinitializer
  %275 = add <4 x i32> %270, <i32 8, i32 poison, i32 poison, i32 poison>
  %276 = shufflevector <4 x i32> %275, <4 x i32> poison, <4 x i32> zeroinitializer
  %277 = add <4 x i32> %270, <i32 12, i32 poison, i32 poison, i32 poison>
  %278 = shufflevector <4 x i32> %277, <4 x i32> poison, <4 x i32> zeroinitializer
  br label %279

279:                                              ; preds = %279, %267
  %280 = phi i32 [ 0, %267 ], [ %300, %279 ]
  %281 = phi <4 x i32> [ <i32 0, i32 1, i32 2, i32 3>, %267 ], [ %301, %279 ]
  %282 = add i32 %260, %280
  %283 = add <4 x i32> %271, %281
  %284 = add <4 x i32> %274, %281
  %285 = add <4 x i32> %276, %281
  %286 = add <4 x i32> %278, %281
  %287 = mul <4 x i32> %283, %272
  %288 = mul <4 x i32> %284, %272
  %289 = mul <4 x i32> %285, %272
  %290 = mul <4 x i32> %286, %272
  %291 = add <4 x i32> %287, <i32 1, i32 1, i32 1, i32 1>
  %292 = add <4 x i32> %288, <i32 1, i32 1, i32 1, i32 1>
  %293 = add <4 x i32> %289, <i32 1, i32 1, i32 1, i32 1>
  %294 = add <4 x i32> %290, <i32 1, i32 1, i32 1, i32 1>
  %295 = zext i32 %282 to i64
  %296 = getelementptr inbounds i32, ptr %8, i64 %295
  store <4 x i32> %291, ptr %296, align 4, !tbaa !14
  %297 = getelementptr inbounds i32, ptr %296, i64 4
  store <4 x i32> %292, ptr %297, align 4, !tbaa !14
  %298 = getelementptr inbounds i32, ptr %296, i64 8
  store <4 x i32> %293, ptr %298, align 4, !tbaa !14
  %299 = getelementptr inbounds i32, ptr %296, i64 12
  store <4 x i32> %294, ptr %299, align 4, !tbaa !14
  %300 = add nuw i32 %280, 16
  %301 = add <4 x i32> %281, <i32 16, i32 16, i32 16, i32 16>
  %302 = icmp eq i32 %300, %268
  br i1 %302, label %303, label %279, !llvm.loop !95

303:                                              ; preds = %279
  %304 = icmp eq i32 %13, %268
  br i1 %304, label %318, label %305

305:                                              ; preds = %263, %259, %303
  %306 = phi i32 [ 0, %263 ], [ 0, %259 ], [ %268, %303 ]
  %307 = phi i32 [ %260, %263 ], [ %260, %259 ], [ %269, %303 ]
  br label %361

308:                                              ; preds = %247, %308
  %309 = phi i32 [ %316, %308 ], [ %248, %247 ]
  %310 = phi i32 [ %313, %308 ], [ %249, %247 ]
  %311 = add i32 %207, %309
  %312 = mul i32 %311, %19
  %313 = add i32 %310, 1
  %314 = zext i32 %310 to i64
  %315 = getelementptr inbounds i32, ptr %8, i64 %314
  store i32 %312, ptr %315, align 4, !tbaa !14
  %316 = add nuw i32 %309, 1
  %317 = icmp ult i32 %316, %13
  br i1 %317, label %308, label %259, !llvm.loop !96

318:                                              ; preds = %361, %303
  %319 = phi i32 [ %269, %303 ], [ %367, %361 ]
  %320 = add i32 %20, 2
  %321 = icmp ult i32 %13, 16
  br i1 %321, label %358, label %322

322:                                              ; preds = %318
  %323 = add i32 %13, -1
  %324 = xor i32 %319, -1
  %325 = icmp ugt i32 %323, %324
  br i1 %325, label %358, label %326

326:                                              ; preds = %322
  %327 = and i32 %13, -16
  %328 = add i32 %319, %327
  %329 = insertelement <4 x i32> poison, i32 %320, i64 0
  %330 = shufflevector <4 x i32> %329, <4 x i32> poison, <4 x i32> zeroinitializer
  %331 = add i32 %20, 6
  %332 = insertelement <4 x i32> poison, i32 %331, i64 0
  %333 = shufflevector <4 x i32> %332, <4 x i32> poison, <4 x i32> zeroinitializer
  %334 = add i32 %20, 10
  %335 = insertelement <4 x i32> poison, i32 %334, i64 0
  %336 = shufflevector <4 x i32> %335, <4 x i32> poison, <4 x i32> zeroinitializer
  %337 = add i32 %20, 14
  %338 = insertelement <4 x i32> poison, i32 %337, i64 0
  %339 = shufflevector <4 x i32> %338, <4 x i32> poison, <4 x i32> zeroinitializer
  br label %340

340:                                              ; preds = %340, %326
  %341 = phi i32 [ 0, %326 ], [ %353, %340 ]
  %342 = phi <4 x i32> [ <i32 0, i32 1, i32 2, i32 3>, %326 ], [ %354, %340 ]
  %343 = add i32 %319, %341
  %344 = add <4 x i32> %330, %342
  %345 = add <4 x i32> %333, %342
  %346 = add <4 x i32> %336, %342
  %347 = add <4 x i32> %339, %342
  %348 = zext i32 %343 to i64
  %349 = getelementptr inbounds i32, ptr %8, i64 %348
  store <4 x i32> %344, ptr %349, align 4, !tbaa !14
  %350 = getelementptr inbounds i32, ptr %349, i64 4
  store <4 x i32> %345, ptr %350, align 4, !tbaa !14
  %351 = getelementptr inbounds i32, ptr %349, i64 8
  store <4 x i32> %346, ptr %351, align 4, !tbaa !14
  %352 = getelementptr inbounds i32, ptr %349, i64 12
  store <4 x i32> %347, ptr %352, align 4, !tbaa !14
  %353 = add nuw i32 %341, 16
  %354 = add <4 x i32> %342, <i32 16, i32 16, i32 16, i32 16>
  %355 = icmp eq i32 %353, %327
  br i1 %355, label %356, label %340, !llvm.loop !97

356:                                              ; preds = %340
  %357 = icmp eq i32 %13, %327
  br i1 %357, label %372, label %358

358:                                              ; preds = %322, %318, %356
  %359 = phi i32 [ 0, %322 ], [ 0, %318 ], [ %327, %356 ]
  %360 = phi i32 [ %319, %322 ], [ %319, %318 ], [ %328, %356 ]
  br label %415

361:                                              ; preds = %305, %361
  %362 = phi i32 [ %370, %361 ], [ %306, %305 ]
  %363 = phi i32 [ %367, %361 ], [ %307, %305 ]
  %364 = add i32 %261, %362
  %365 = mul i32 %364, %19
  %366 = add i32 %365, 1
  %367 = add i32 %363, 1
  %368 = zext i32 %363 to i64
  %369 = getelementptr inbounds i32, ptr %8, i64 %368
  store i32 %366, ptr %369, align 4, !tbaa !14
  %370 = add nuw i32 %362, 1
  %371 = icmp ult i32 %370, %13
  br i1 %371, label %361, label %318, !llvm.loop !98

372:                                              ; preds = %415, %356
  %373 = phi i32 [ %328, %356 ], [ %419, %415 ]
  %374 = add i32 %24, 2
  %375 = icmp ult i32 %13, 16
  br i1 %375, label %412, label %376

376:                                              ; preds = %372
  %377 = add i32 %13, -1
  %378 = xor i32 %373, -1
  %379 = icmp ugt i32 %377, %378
  br i1 %379, label %412, label %380

380:                                              ; preds = %376
  %381 = and i32 %13, -16
  %382 = add i32 %373, %381
  %383 = insertelement <4 x i32> poison, i32 %374, i64 0
  %384 = shufflevector <4 x i32> %383, <4 x i32> poison, <4 x i32> zeroinitializer
  %385 = add i32 %24, 6
  %386 = insertelement <4 x i32> poison, i32 %385, i64 0
  %387 = shufflevector <4 x i32> %386, <4 x i32> poison, <4 x i32> zeroinitializer
  %388 = add i32 %24, 10
  %389 = insertelement <4 x i32> poison, i32 %388, i64 0
  %390 = shufflevector <4 x i32> %389, <4 x i32> poison, <4 x i32> zeroinitializer
  %391 = add i32 %24, 14
  %392 = insertelement <4 x i32> poison, i32 %391, i64 0
  %393 = shufflevector <4 x i32> %392, <4 x i32> poison, <4 x i32> zeroinitializer
  br label %394

394:                                              ; preds = %394, %380
  %395 = phi i32 [ 0, %380 ], [ %407, %394 ]
  %396 = phi <4 x i32> [ <i32 0, i32 1, i32 2, i32 3>, %380 ], [ %408, %394 ]
  %397 = add i32 %373, %395
  %398 = add <4 x i32> %384, %396
  %399 = add <4 x i32> %387, %396
  %400 = add <4 x i32> %390, %396
  %401 = add <4 x i32> %393, %396
  %402 = zext i32 %397 to i64
  %403 = getelementptr inbounds i32, ptr %8, i64 %402
  store <4 x i32> %398, ptr %403, align 4, !tbaa !14
  %404 = getelementptr inbounds i32, ptr %403, i64 4
  store <4 x i32> %399, ptr %404, align 4, !tbaa !14
  %405 = getelementptr inbounds i32, ptr %403, i64 8
  store <4 x i32> %400, ptr %405, align 4, !tbaa !14
  %406 = getelementptr inbounds i32, ptr %403, i64 12
  store <4 x i32> %401, ptr %406, align 4, !tbaa !14
  %407 = add nuw i32 %395, 16
  %408 = add <4 x i32> %396, <i32 16, i32 16, i32 16, i32 16>
  %409 = icmp eq i32 %407, %381
  br i1 %409, label %410, label %394, !llvm.loop !99

410:                                              ; preds = %394
  %411 = icmp eq i32 %13, %381
  br i1 %411, label %433, label %412

412:                                              ; preds = %376, %372, %410
  %413 = phi i32 [ 0, %376 ], [ 0, %372 ], [ %381, %410 ]
  %414 = phi i32 [ %373, %376 ], [ %373, %372 ], [ %382, %410 ]
  br label %424

415:                                              ; preds = %358, %415
  %416 = phi i32 [ %422, %415 ], [ %359, %358 ]
  %417 = phi i32 [ %419, %415 ], [ %360, %358 ]
  %418 = add i32 %320, %416
  %419 = add i32 %417, 1
  %420 = zext i32 %417 to i64
  %421 = getelementptr inbounds i32, ptr %8, i64 %420
  store i32 %418, ptr %421, align 4, !tbaa !14
  %422 = add nuw i32 %416, 1
  %423 = icmp ult i32 %422, %13
  br i1 %423, label %415, label %372, !llvm.loop !100

424:                                              ; preds = %412, %424
  %425 = phi i32 [ %431, %424 ], [ %413, %412 ]
  %426 = phi i32 [ %428, %424 ], [ %414, %412 ]
  %427 = add i32 %374, %425
  %428 = add i32 %426, 1
  %429 = zext i32 %426 to i64
  %430 = getelementptr inbounds i32, ptr %8, i64 %429
  store i32 %427, ptr %430, align 4, !tbaa !14
  %431 = add nuw i32 %425, 1
  %432 = icmp ult i32 %431, %13
  br i1 %432, label %424, label %433, !llvm.loop !101

433:                                              ; preds = %424, %410
  %434 = phi i32 [ %382, %410 ], [ %428, %424 ]
  %435 = icmp ult i32 %13, 16
  br i1 %435, label %473, label %436

436:                                              ; preds = %433
  %437 = add i32 %13, -1
  %438 = xor i32 %434, -1
  %439 = icmp ugt i32 %437, %438
  br i1 %439, label %473, label %440

440:                                              ; preds = %436
  %441 = and i32 %13, -16
  %442 = add i32 %434, %441
  %443 = insertelement <4 x i32> poison, i32 %20, i64 0
  %444 = shufflevector <4 x i32> %443, <4 x i32> poison, <4 x i32> zeroinitializer
  %445 = insertelement <4 x i32> poison, i32 %20, i64 0
  %446 = shufflevector <4 x i32> %445, <4 x i32> poison, <4 x i32> zeroinitializer
  %447 = insertelement <4 x i32> poison, i32 %20, i64 0
  %448 = shufflevector <4 x i32> %447, <4 x i32> poison, <4 x i32> zeroinitializer
  %449 = insertelement <4 x i32> poison, i32 %20, i64 0
  %450 = shufflevector <4 x i32> %449, <4 x i32> poison, <4 x i32> zeroinitializer
  br label %451

451:                                              ; preds = %451, %440
  %452 = phi i32 [ 0, %440 ], [ %468, %451 ]
  %453 = phi <4 x i32> [ <i32 0, i32 1, i32 2, i32 3>, %440 ], [ %469, %451 ]
  %454 = add i32 %434, %452
  %455 = add <4 x i32> %453, <i32 2, i32 2, i32 2, i32 2>
  %456 = add <4 x i32> %453, <i32 6, i32 6, i32 6, i32 6>
  %457 = add <4 x i32> %453, <i32 10, i32 10, i32 10, i32 10>
  %458 = add <4 x i32> %453, <i32 14, i32 14, i32 14, i32 14>
  %459 = mul <4 x i32> %455, %444
  %460 = mul <4 x i32> %456, %446
  %461 = mul <4 x i32> %457, %448
  %462 = mul <4 x i32> %458, %450
  %463 = zext i32 %454 to i64
  %464 = getelementptr inbounds i32, ptr %8, i64 %463
  store <4 x i32> %459, ptr %464, align 4, !tbaa !14
  %465 = getelementptr inbounds i32, ptr %464, i64 4
  store <4 x i32> %460, ptr %465, align 4, !tbaa !14
  %466 = getelementptr inbounds i32, ptr %464, i64 8
  store <4 x i32> %461, ptr %466, align 4, !tbaa !14
  %467 = getelementptr inbounds i32, ptr %464, i64 12
  store <4 x i32> %462, ptr %467, align 4, !tbaa !14
  %468 = add nuw i32 %452, 16
  %469 = add <4 x i32> %453, <i32 16, i32 16, i32 16, i32 16>
  %470 = icmp eq i32 %468, %441
  br i1 %470, label %471, label %451, !llvm.loop !102

471:                                              ; preds = %451
  %472 = icmp eq i32 %13, %441
  br i1 %472, label %486, label %473

473:                                              ; preds = %436, %433, %471
  %474 = phi i32 [ 0, %436 ], [ 0, %433 ], [ %441, %471 ]
  %475 = phi i32 [ %434, %436 ], [ %434, %433 ], [ %442, %471 ]
  br label %476

476:                                              ; preds = %473, %476
  %477 = phi i32 [ %484, %476 ], [ %474, %473 ]
  %478 = phi i32 [ %481, %476 ], [ %475, %473 ]
  %479 = add i32 %477, 2
  %480 = mul i32 %479, %20
  %481 = add i32 %478, 1
  %482 = zext i32 %478 to i64
  %483 = getelementptr inbounds i32, ptr %8, i64 %482
  store i32 %480, ptr %483, align 4, !tbaa !14
  %484 = add nuw i32 %477, 1
  %485 = icmp ult i32 %484, %13
  br i1 %485, label %476, label %486, !llvm.loop !103

486:                                              ; preds = %476, %471
  %487 = phi i32 [ %442, %471 ], [ %481, %476 ]
  %488 = icmp ult i32 %13, 16
  br i1 %488, label %530, label %489

489:                                              ; preds = %486
  %490 = add i32 %13, -1
  %491 = xor i32 %487, -1
  %492 = icmp ugt i32 %490, %491
  br i1 %492, label %530, label %493

493:                                              ; preds = %489
  %494 = and i32 %13, -16
  %495 = add i32 %487, %494
  %496 = insertelement <4 x i32> poison, i32 %20, i64 0
  %497 = shufflevector <4 x i32> %496, <4 x i32> poison, <4 x i32> zeroinitializer
  %498 = insertelement <4 x i32> poison, i32 %20, i64 0
  %499 = shufflevector <4 x i32> %498, <4 x i32> poison, <4 x i32> zeroinitializer
  %500 = insertelement <4 x i32> poison, i32 %20, i64 0
  %501 = shufflevector <4 x i32> %500, <4 x i32> poison, <4 x i32> zeroinitializer
  %502 = insertelement <4 x i32> poison, i32 %20, i64 0
  %503 = shufflevector <4 x i32> %502, <4 x i32> poison, <4 x i32> zeroinitializer
  br label %504

504:                                              ; preds = %504, %493
  %505 = phi i32 [ 0, %493 ], [ %525, %504 ]
  %506 = phi <4 x i32> [ <i32 0, i32 1, i32 2, i32 3>, %493 ], [ %526, %504 ]
  %507 = add i32 %487, %505
  %508 = add <4 x i32> %506, <i32 2, i32 2, i32 2, i32 2>
  %509 = add <4 x i32> %506, <i32 6, i32 6, i32 6, i32 6>
  %510 = add <4 x i32> %506, <i32 10, i32 10, i32 10, i32 10>
  %511 = add <4 x i32> %506, <i32 14, i32 14, i32 14, i32 14>
  %512 = mul <4 x i32> %508, %497
  %513 = mul <4 x i32> %509, %499
  %514 = mul <4 x i32> %510, %501
  %515 = mul <4 x i32> %511, %503
  %516 = add <4 x i32> %512, <i32 1, i32 1, i32 1, i32 1>
  %517 = add <4 x i32> %513, <i32 1, i32 1, i32 1, i32 1>
  %518 = add <4 x i32> %514, <i32 1, i32 1, i32 1, i32 1>
  %519 = add <4 x i32> %515, <i32 1, i32 1, i32 1, i32 1>
  %520 = zext i32 %507 to i64
  %521 = getelementptr inbounds i32, ptr %8, i64 %520
  store <4 x i32> %516, ptr %521, align 4, !tbaa !14
  %522 = getelementptr inbounds i32, ptr %521, i64 4
  store <4 x i32> %517, ptr %522, align 4, !tbaa !14
  %523 = getelementptr inbounds i32, ptr %521, i64 8
  store <4 x i32> %518, ptr %523, align 4, !tbaa !14
  %524 = getelementptr inbounds i32, ptr %521, i64 12
  store <4 x i32> %519, ptr %524, align 4, !tbaa !14
  %525 = add nuw i32 %505, 16
  %526 = add <4 x i32> %506, <i32 16, i32 16, i32 16, i32 16>
  %527 = icmp eq i32 %525, %494
  br i1 %527, label %528, label %504, !llvm.loop !104

528:                                              ; preds = %504
  %529 = icmp eq i32 %13, %494
  br i1 %529, label %544, label %530

530:                                              ; preds = %489, %486, %528
  %531 = phi i32 [ 0, %489 ], [ 0, %486 ], [ %494, %528 ]
  %532 = phi i32 [ %487, %489 ], [ %487, %486 ], [ %495, %528 ]
  br label %533

533:                                              ; preds = %530, %533
  %534 = phi i32 [ %542, %533 ], [ %531, %530 ]
  %535 = phi i32 [ %539, %533 ], [ %532, %530 ]
  %536 = add i32 %534, 2
  %537 = mul i32 %536, %20
  %538 = add i32 %537, 1
  %539 = add i32 %535, 1
  %540 = zext i32 %535 to i64
  %541 = getelementptr inbounds i32, ptr %8, i64 %540
  store i32 %538, ptr %541, align 4, !tbaa !14
  %542 = add nuw i32 %534, 1
  %543 = icmp ult i32 %542, %13
  br i1 %543, label %533, label %544, !llvm.loop !105

544:                                              ; preds = %533, %528
  %545 = phi i32 [ %495, %528 ], [ %539, %533 ]
  %546 = icmp ult i32 %13, 16
  br i1 %546, label %583, label %547

547:                                              ; preds = %544
  %548 = add i32 %13, -1
  %549 = xor i32 %545, -1
  %550 = icmp ugt i32 %548, %549
  br i1 %550, label %583, label %551

551:                                              ; preds = %547
  %552 = and i32 %13, -16
  %553 = add i32 %545, %552
  %554 = insertelement <4 x i32> poison, i32 %20, i64 0
  %555 = shufflevector <4 x i32> %554, <4 x i32> poison, <4 x i32> zeroinitializer
  %556 = shufflevector <2 x i32> %18, <2 x i32> poison, <4 x i32> zeroinitializer
  br label %557

557:                                              ; preds = %557, %551
  %558 = phi i32 [ 0, %551 ], [ %578, %557 ]
  %559 = phi <4 x i32> [ <i32 0, i32 1, i32 2, i32 3>, %551 ], [ %579, %557 ]
  %560 = add i32 %545, %558
  %561 = add <4 x i32> %559, <i32 2, i32 2, i32 2, i32 2>
  %562 = add <4 x i32> %559, <i32 6, i32 6, i32 6, i32 6>
  %563 = add <4 x i32> %559, <i32 10, i32 10, i32 10, i32 10>
  %564 = add <4 x i32> %559, <i32 14, i32 14, i32 14, i32 14>
  %565 = mul <4 x i32> %561, %555
  %566 = mul <4 x i32> %562, %555
  %567 = mul <4 x i32> %563, %555
  %568 = mul <4 x i32> %564, %555
  %569 = add <4 x i32> %565, %556
  %570 = add <4 x i32> %566, %556
  %571 = add <4 x i32> %567, %556
  %572 = add <4 x i32> %568, %556
  %573 = zext i32 %560 to i64
  %574 = getelementptr inbounds i32, ptr %8, i64 %573
  store <4 x i32> %569, ptr %574, align 4, !tbaa !14
  %575 = getelementptr inbounds i32, ptr %574, i64 4
  store <4 x i32> %570, ptr %575, align 4, !tbaa !14
  %576 = getelementptr inbounds i32, ptr %574, i64 8
  store <4 x i32> %571, ptr %576, align 4, !tbaa !14
  %577 = getelementptr inbounds i32, ptr %574, i64 12
  store <4 x i32> %572, ptr %577, align 4, !tbaa !14
  %578 = add nuw i32 %558, 16
  %579 = add <4 x i32> %559, <i32 16, i32 16, i32 16, i32 16>
  %580 = icmp eq i32 %578, %552
  br i1 %580, label %581, label %557, !llvm.loop !106

581:                                              ; preds = %557
  %582 = icmp eq i32 %13, %552
  br i1 %582, label %597, label %583

583:                                              ; preds = %547, %544, %581
  %584 = phi i32 [ 0, %547 ], [ 0, %544 ], [ %552, %581 ]
  %585 = phi i32 [ %545, %547 ], [ %545, %544 ], [ %553, %581 ]
  br label %586

586:                                              ; preds = %583, %586
  %587 = phi i32 [ %595, %586 ], [ %584, %583 ]
  %588 = phi i32 [ %592, %586 ], [ %585, %583 ]
  %589 = add i32 %587, 2
  %590 = mul i32 %589, %20
  %591 = add i32 %590, %19
  %592 = add i32 %588, 1
  %593 = zext i32 %588 to i64
  %594 = getelementptr inbounds i32, ptr %8, i64 %593
  store i32 %591, ptr %594, align 4, !tbaa !14
  %595 = add nuw i32 %587, 1
  %596 = icmp ult i32 %595, %13
  br i1 %596, label %586, label %597, !llvm.loop !107

597:                                              ; preds = %586, %581
  %598 = phi i32 [ %553, %581 ], [ %592, %586 ]
  %599 = icmp ult i32 %13, 16
  br i1 %599, label %636, label %600

600:                                              ; preds = %597
  %601 = add i32 %13, -1
  %602 = xor i32 %598, -1
  %603 = icmp ugt i32 %601, %602
  br i1 %603, label %636, label %604

604:                                              ; preds = %600
  %605 = and i32 %13, -16
  %606 = add i32 %598, %605
  %607 = insertelement <4 x i32> poison, i32 %20, i64 0
  %608 = shufflevector <4 x i32> %607, <4 x i32> poison, <4 x i32> zeroinitializer
  %609 = shufflevector <2 x i32> %18, <2 x i32> poison, <4 x i32> <i32 1, i32 1, i32 1, i32 1>
  br label %610

610:                                              ; preds = %610, %604
  %611 = phi i32 [ 0, %604 ], [ %631, %610 ]
  %612 = phi <4 x i32> [ <i32 0, i32 1, i32 2, i32 3>, %604 ], [ %632, %610 ]
  %613 = add i32 %598, %611
  %614 = add <4 x i32> %612, <i32 2, i32 2, i32 2, i32 2>
  %615 = add <4 x i32> %612, <i32 6, i32 6, i32 6, i32 6>
  %616 = add <4 x i32> %612, <i32 10, i32 10, i32 10, i32 10>
  %617 = add <4 x i32> %612, <i32 14, i32 14, i32 14, i32 14>
  %618 = mul <4 x i32> %614, %608
  %619 = mul <4 x i32> %615, %608
  %620 = mul <4 x i32> %616, %608
  %621 = mul <4 x i32> %617, %608
  %622 = add <4 x i32> %609, %618
  %623 = add <4 x i32> %609, %619
  %624 = add <4 x i32> %609, %620
  %625 = add <4 x i32> %609, %621
  %626 = zext i32 %613 to i64
  %627 = getelementptr inbounds i32, ptr %8, i64 %626
  store <4 x i32> %622, ptr %627, align 4, !tbaa !14
  %628 = getelementptr inbounds i32, ptr %627, i64 4
  store <4 x i32> %623, ptr %628, align 4, !tbaa !14
  %629 = getelementptr inbounds i32, ptr %627, i64 8
  store <4 x i32> %624, ptr %629, align 4, !tbaa !14
  %630 = getelementptr inbounds i32, ptr %627, i64 12
  store <4 x i32> %625, ptr %630, align 4, !tbaa !14
  %631 = add nuw i32 %611, 16
  %632 = add <4 x i32> %612, <i32 16, i32 16, i32 16, i32 16>
  %633 = icmp eq i32 %631, %605
  br i1 %633, label %634, label %610, !llvm.loop !108

634:                                              ; preds = %610
  %635 = icmp eq i32 %13, %605
  br i1 %635, label %651, label %636

636:                                              ; preds = %600, %597, %634
  %637 = phi i32 [ 0, %600 ], [ 0, %597 ], [ %605, %634 ]
  %638 = phi i32 [ %598, %600 ], [ %598, %597 ], [ %606, %634 ]
  %639 = extractelement <2 x i32> %18, i64 1
  br label %640

640:                                              ; preds = %636, %640
  %641 = phi i32 [ %649, %640 ], [ %637, %636 ]
  %642 = phi i32 [ %646, %640 ], [ %638, %636 ]
  %643 = add i32 %641, 2
  %644 = mul i32 %643, %20
  %645 = add i32 %639, %644
  %646 = add i32 %642, 1
  %647 = zext i32 %642 to i64
  %648 = getelementptr inbounds i32, ptr %8, i64 %647
  store i32 %645, ptr %648, align 4, !tbaa !14
  %649 = add nuw i32 %641, 1
  %650 = icmp ult i32 %649, %13
  br i1 %650, label %640, label %651, !llvm.loop !109

651:                                              ; preds = %640, %634
  %652 = phi i32 [ %606, %634 ], [ %646, %640 ]
  %653 = add i32 %13, -1
  %654 = icmp ult i32 %13, 16
  %655 = and i32 %13, -16
  %656 = shufflevector <2 x i32> %18, <2 x i32> poison, <4 x i32> zeroinitializer
  %657 = icmp eq i32 %13, %655
  br label %658

658:                                              ; preds = %651, %698
  %659 = phi i32 [ %700, %698 ], [ 0, %651 ]
  %660 = phi i32 [ %699, %698 ], [ %652, %651 ]
  %661 = add i32 %659, 2
  %662 = mul i32 %661, %20
  %663 = xor i32 %660, -1
  %664 = icmp ugt i32 %653, %663
  %665 = select i1 %654, i1 true, i1 %664
  br i1 %665, label %695, label %666

666:                                              ; preds = %658
  %667 = add i32 %660, %655
  %668 = insertelement <4 x i32> poison, i32 %662, i64 0
  %669 = shufflevector <4 x i32> %668, <4 x i32> poison, <4 x i32> zeroinitializer
  br label %670

670:                                              ; preds = %670, %666
  %671 = phi i32 [ 0, %666 ], [ %691, %670 ]
  %672 = phi <4 x i32> [ <i32 0, i32 1, i32 2, i32 3>, %666 ], [ %692, %670 ]
  %673 = add i32 %660, %671
  %674 = add <4 x i32> %672, <i32 2, i32 2, i32 2, i32 2>
  %675 = add <4 x i32> %672, <i32 6, i32 6, i32 6, i32 6>
  %676 = add <4 x i32> %672, <i32 10, i32 10, i32 10, i32 10>
  %677 = add <4 x i32> %672, <i32 14, i32 14, i32 14, i32 14>
  %678 = mul <4 x i32> %674, %656
  %679 = mul <4 x i32> %675, %656
  %680 = mul <4 x i32> %676, %656
  %681 = mul <4 x i32> %677, %656
  %682 = add <4 x i32> %678, %669
  %683 = add <4 x i32> %679, %669
  %684 = add <4 x i32> %680, %669
  %685 = add <4 x i32> %681, %669
  %686 = zext i32 %673 to i64
  %687 = getelementptr inbounds i32, ptr %8, i64 %686
  store <4 x i32> %682, ptr %687, align 4, !tbaa !14
  %688 = getelementptr inbounds i32, ptr %687, i64 4
  store <4 x i32> %683, ptr %688, align 4, !tbaa !14
  %689 = getelementptr inbounds i32, ptr %687, i64 8
  store <4 x i32> %684, ptr %689, align 4, !tbaa !14
  %690 = getelementptr inbounds i32, ptr %687, i64 12
  store <4 x i32> %685, ptr %690, align 4, !tbaa !14
  %691 = add nuw i32 %671, 16
  %692 = add <4 x i32> %672, <i32 16, i32 16, i32 16, i32 16>
  %693 = icmp eq i32 %691, %655
  br i1 %693, label %694, label %670, !llvm.loop !110

694:                                              ; preds = %670
  br i1 %657, label %698, label %695

695:                                              ; preds = %658, %694
  %696 = phi i32 [ 0, %658 ], [ %655, %694 ]
  %697 = phi i32 [ %660, %658 ], [ %667, %694 ]
  br label %708

698:                                              ; preds = %708, %694
  %699 = phi i32 [ %667, %694 ], [ %714, %708 ]
  %700 = add nuw i32 %659, 1
  %701 = icmp ult i32 %700, %13
  br i1 %701, label %658, label %702

702:                                              ; preds = %698
  %703 = add i32 %13, -1
  %704 = icmp ult i32 %13, 16
  %705 = and i32 %13, -16
  %706 = shufflevector <2 x i32> %18, <2 x i32> poison, <4 x i32> zeroinitializer
  %707 = icmp eq i32 %13, %705
  br label %719

708:                                              ; preds = %695, %708
  %709 = phi i32 [ %717, %708 ], [ %696, %695 ]
  %710 = phi i32 [ %714, %708 ], [ %697, %695 ]
  %711 = add i32 %709, 2
  %712 = mul i32 %711, %19
  %713 = add i32 %712, %662
  %714 = add i32 %710, 1
  %715 = zext i32 %710 to i64
  %716 = getelementptr inbounds i32, ptr %8, i64 %715
  store i32 %713, ptr %716, align 4, !tbaa !14
  %717 = add nuw i32 %709, 1
  %718 = icmp ult i32 %717, %13
  br i1 %718, label %708, label %698, !llvm.loop !111

719:                                              ; preds = %702, %760
  %720 = phi i32 [ %762, %760 ], [ 0, %702 ]
  %721 = phi i32 [ %761, %760 ], [ %699, %702 ]
  %722 = add i32 %720, 2
  %723 = mul i32 %722, %20
  %724 = add i32 %723, 1
  %725 = xor i32 %721, -1
  %726 = icmp ugt i32 %703, %725
  %727 = select i1 %704, i1 true, i1 %726
  br i1 %727, label %757, label %728

728:                                              ; preds = %719
  %729 = add i32 %721, %705
  %730 = insertelement <4 x i32> poison, i32 %724, i64 0
  %731 = shufflevector <4 x i32> %730, <4 x i32> poison, <4 x i32> zeroinitializer
  br label %732

732:                                              ; preds = %732, %728
  %733 = phi i32 [ 0, %728 ], [ %753, %732 ]
  %734 = phi <4 x i32> [ <i32 0, i32 1, i32 2, i32 3>, %728 ], [ %754, %732 ]
  %735 = add i32 %721, %733
  %736 = add <4 x i32> %734, <i32 2, i32 2, i32 2, i32 2>
  %737 = add <4 x i32> %734, <i32 6, i32 6, i32 6, i32 6>
  %738 = add <4 x i32> %734, <i32 10, i32 10, i32 10, i32 10>
  %739 = add <4 x i32> %734, <i32 14, i32 14, i32 14, i32 14>
  %740 = mul <4 x i32> %736, %706
  %741 = mul <4 x i32> %737, %706
  %742 = mul <4 x i32> %738, %706
  %743 = mul <4 x i32> %739, %706
  %744 = add <4 x i32> %731, %740
  %745 = add <4 x i32> %731, %741
  %746 = add <4 x i32> %731, %742
  %747 = add <4 x i32> %731, %743
  %748 = zext i32 %735 to i64
  %749 = getelementptr inbounds i32, ptr %8, i64 %748
  store <4 x i32> %744, ptr %749, align 4, !tbaa !14
  %750 = getelementptr inbounds i32, ptr %749, i64 4
  store <4 x i32> %745, ptr %750, align 4, !tbaa !14
  %751 = getelementptr inbounds i32, ptr %749, i64 8
  store <4 x i32> %746, ptr %751, align 4, !tbaa !14
  %752 = getelementptr inbounds i32, ptr %749, i64 12
  store <4 x i32> %747, ptr %752, align 4, !tbaa !14
  %753 = add nuw i32 %733, 16
  %754 = add <4 x i32> %734, <i32 16, i32 16, i32 16, i32 16>
  %755 = icmp eq i32 %753, %705
  br i1 %755, label %756, label %732, !llvm.loop !112

756:                                              ; preds = %732
  br i1 %707, label %760, label %757

757:                                              ; preds = %719, %756
  %758 = phi i32 [ 0, %719 ], [ %705, %756 ]
  %759 = phi i32 [ %721, %719 ], [ %729, %756 ]
  br label %769

760:                                              ; preds = %769, %756
  %761 = phi i32 [ %729, %756 ], [ %775, %769 ]
  %762 = add nuw i32 %720, 1
  %763 = icmp ult i32 %762, %13
  br i1 %763, label %719, label %764

764:                                              ; preds = %760
  %765 = add i32 %13, -1
  %766 = icmp ult i32 %13, 16
  %767 = and i32 %13, -16
  %768 = icmp eq i32 %13, %767
  br label %780

769:                                              ; preds = %757, %769
  %770 = phi i32 [ %778, %769 ], [ %758, %757 ]
  %771 = phi i32 [ %775, %769 ], [ %759, %757 ]
  %772 = add i32 %770, 2
  %773 = mul i32 %772, %19
  %774 = add i32 %724, %773
  %775 = add i32 %771, 1
  %776 = zext i32 %771 to i64
  %777 = getelementptr inbounds i32, ptr %8, i64 %776
  store i32 %774, ptr %777, align 4, !tbaa !14
  %778 = add nuw i32 %770, 1
  %779 = icmp ult i32 %778, %13
  br i1 %779, label %769, label %760, !llvm.loop !113

780:                                              ; preds = %764, %828
  %781 = phi i32 [ %830, %828 ], [ 0, %764 ]
  %782 = phi i32 [ %829, %828 ], [ %761, %764 ]
  %783 = add i32 %781, 2
  %784 = mul i32 %783, %20
  %785 = add i32 %784, 2
  %786 = xor i32 %782, -1
  %787 = icmp ugt i32 %765, %786
  %788 = select i1 %766, i1 true, i1 %787
  br i1 %788, label %819, label %789

789:                                              ; preds = %780
  %790 = add i32 %782, %767
  %791 = insertelement <4 x i32> poison, i32 %785, i64 0
  %792 = shufflevector <4 x i32> %791, <4 x i32> poison, <4 x i32> zeroinitializer
  %793 = add i32 %784, 6
  %794 = insertelement <4 x i32> poison, i32 %793, i64 0
  %795 = shufflevector <4 x i32> %794, <4 x i32> poison, <4 x i32> zeroinitializer
  %796 = add i32 %784, 10
  %797 = insertelement <4 x i32> poison, i32 %796, i64 0
  %798 = shufflevector <4 x i32> %797, <4 x i32> poison, <4 x i32> zeroinitializer
  %799 = add i32 %784, 14
  %800 = insertelement <4 x i32> poison, i32 %799, i64 0
  %801 = shufflevector <4 x i32> %800, <4 x i32> poison, <4 x i32> zeroinitializer
  br label %802

802:                                              ; preds = %802, %789
  %803 = phi i32 [ 0, %789 ], [ %815, %802 ]
  %804 = phi <4 x i32> [ <i32 0, i32 1, i32 2, i32 3>, %789 ], [ %816, %802 ]
  %805 = add i32 %782, %803
  %806 = add <4 x i32> %792, %804
  %807 = add <4 x i32> %795, %804
  %808 = add <4 x i32> %798, %804
  %809 = add <4 x i32> %801, %804
  %810 = zext i32 %805 to i64
  %811 = getelementptr inbounds i32, ptr %8, i64 %810
  store <4 x i32> %806, ptr %811, align 4, !tbaa !14
  %812 = getelementptr inbounds i32, ptr %811, i64 4
  store <4 x i32> %807, ptr %812, align 4, !tbaa !14
  %813 = getelementptr inbounds i32, ptr %811, i64 8
  store <4 x i32> %808, ptr %813, align 4, !tbaa !14
  %814 = getelementptr inbounds i32, ptr %811, i64 12
  store <4 x i32> %809, ptr %814, align 4, !tbaa !14
  %815 = add nuw i32 %803, 16
  %816 = add <4 x i32> %804, <i32 16, i32 16, i32 16, i32 16>
  %817 = icmp eq i32 %815, %767
  br i1 %817, label %818, label %802, !llvm.loop !114

818:                                              ; preds = %802
  br i1 %768, label %828, label %819

819:                                              ; preds = %780, %818
  %820 = phi i32 [ 0, %780 ], [ %767, %818 ]
  %821 = phi i32 [ %782, %780 ], [ %790, %818 ]
  br label %832

822:                                              ; preds = %828
  %823 = add i32 %13, 4
  %824 = add i32 %13, -1
  %825 = icmp ult i32 %13, 16
  %826 = and i32 %13, -16
  %827 = icmp eq i32 %13, %826
  br label %841

828:                                              ; preds = %832, %818
  %829 = phi i32 [ %790, %818 ], [ %836, %832 ]
  %830 = add nuw i32 %781, 1
  %831 = icmp ult i32 %830, %13
  br i1 %831, label %780, label %822

832:                                              ; preds = %819, %832
  %833 = phi i32 [ %839, %832 ], [ %820, %819 ]
  %834 = phi i32 [ %836, %832 ], [ %821, %819 ]
  %835 = add i32 %785, %833
  %836 = add i32 %834, 1
  %837 = zext i32 %834 to i64
  %838 = getelementptr inbounds i32, ptr %8, i64 %837
  store i32 %835, ptr %838, align 4, !tbaa !14
  %839 = add nuw i32 %833, 1
  %840 = icmp ult i32 %839, %13
  br i1 %840, label %832, label %828, !llvm.loop !115

841:                                              ; preds = %883, %822
  %842 = phi i32 [ 0, %822 ], [ %885, %883 ]
  %843 = phi i32 [ %829, %822 ], [ %884, %883 ]
  %844 = add i32 %842, 2
  %845 = mul i32 %844, %20
  %846 = add i32 %823, %845
  %847 = xor i32 %843, -1
  %848 = icmp ugt i32 %824, %847
  %849 = select i1 %825, i1 true, i1 %848
  br i1 %849, label %880, label %850

850:                                              ; preds = %841
  %851 = add i32 %843, %826
  %852 = insertelement <4 x i32> poison, i32 %846, i64 0
  %853 = shufflevector <4 x i32> %852, <4 x i32> poison, <4 x i32> zeroinitializer
  %854 = add i32 %846, 4
  %855 = insertelement <4 x i32> poison, i32 %854, i64 0
  %856 = shufflevector <4 x i32> %855, <4 x i32> poison, <4 x i32> zeroinitializer
  %857 = add i32 %846, 8
  %858 = insertelement <4 x i32> poison, i32 %857, i64 0
  %859 = shufflevector <4 x i32> %858, <4 x i32> poison, <4 x i32> zeroinitializer
  %860 = add i32 %846, 12
  %861 = insertelement <4 x i32> poison, i32 %860, i64 0
  %862 = shufflevector <4 x i32> %861, <4 x i32> poison, <4 x i32> zeroinitializer
  br label %863

863:                                              ; preds = %863, %850
  %864 = phi i32 [ 0, %850 ], [ %876, %863 ]
  %865 = phi <4 x i32> [ <i32 0, i32 1, i32 2, i32 3>, %850 ], [ %877, %863 ]
  %866 = add i32 %843, %864
  %867 = add <4 x i32> %853, %865
  %868 = add <4 x i32> %856, %865
  %869 = add <4 x i32> %859, %865
  %870 = add <4 x i32> %862, %865
  %871 = zext i32 %866 to i64
  %872 = getelementptr inbounds i32, ptr %8, i64 %871
  store <4 x i32> %867, ptr %872, align 4, !tbaa !14
  %873 = getelementptr inbounds i32, ptr %872, i64 4
  store <4 x i32> %868, ptr %873, align 4, !tbaa !14
  %874 = getelementptr inbounds i32, ptr %872, i64 8
  store <4 x i32> %869, ptr %874, align 4, !tbaa !14
  %875 = getelementptr inbounds i32, ptr %872, i64 12
  store <4 x i32> %870, ptr %875, align 4, !tbaa !14
  %876 = add nuw i32 %864, 16
  %877 = add <4 x i32> %865, <i32 16, i32 16, i32 16, i32 16>
  %878 = icmp eq i32 %876, %826
  br i1 %878, label %879, label %863, !llvm.loop !116

879:                                              ; preds = %863
  br i1 %827, label %883, label %880

880:                                              ; preds = %841, %879
  %881 = phi i32 [ 0, %841 ], [ %826, %879 ]
  %882 = phi i32 [ %843, %841 ], [ %851, %879 ]
  br label %892

883:                                              ; preds = %892, %879
  %884 = phi i32 [ %851, %879 ], [ %896, %892 ]
  %885 = add nuw i32 %842, 1
  %886 = icmp ult i32 %885, %13
  br i1 %886, label %841, label %887

887:                                              ; preds = %883
  %888 = add i32 %13, -1
  %889 = icmp ult i32 %13, 16
  %890 = and i32 %13, -16
  %891 = icmp eq i32 %13, %890
  br label %901

892:                                              ; preds = %880, %892
  %893 = phi i32 [ %899, %892 ], [ %881, %880 ]
  %894 = phi i32 [ %896, %892 ], [ %882, %880 ]
  %895 = add i32 %846, %893
  %896 = add i32 %894, 1
  %897 = zext i32 %894 to i64
  %898 = getelementptr inbounds i32, ptr %8, i64 %897
  store i32 %895, ptr %898, align 4, !tbaa !14
  %899 = add nuw i32 %893, 1
  %900 = icmp ult i32 %899, %13
  br i1 %900, label %892, label %883, !llvm.loop !117

901:                                              ; preds = %887, %949
  %902 = phi i32 [ %951, %949 ], [ 0, %887 ]
  %903 = phi i32 [ %950, %949 ], [ %884, %887 ]
  %904 = add i32 %902, 2
  %905 = mul i32 %904, %19
  %906 = add i32 %905, 2
  %907 = xor i32 %903, -1
  %908 = icmp ugt i32 %888, %907
  %909 = select i1 %889, i1 true, i1 %908
  br i1 %909, label %940, label %910

910:                                              ; preds = %901
  %911 = add i32 %903, %890
  %912 = insertelement <4 x i32> poison, i32 %906, i64 0
  %913 = shufflevector <4 x i32> %912, <4 x i32> poison, <4 x i32> zeroinitializer
  %914 = add i32 %905, 6
  %915 = insertelement <4 x i32> poison, i32 %914, i64 0
  %916 = shufflevector <4 x i32> %915, <4 x i32> poison, <4 x i32> zeroinitializer
  %917 = add i32 %905, 10
  %918 = insertelement <4 x i32> poison, i32 %917, i64 0
  %919 = shufflevector <4 x i32> %918, <4 x i32> poison, <4 x i32> zeroinitializer
  %920 = add i32 %905, 14
  %921 = insertelement <4 x i32> poison, i32 %920, i64 0
  %922 = shufflevector <4 x i32> %921, <4 x i32> poison, <4 x i32> zeroinitializer
  br label %923

923:                                              ; preds = %923, %910
  %924 = phi i32 [ 0, %910 ], [ %936, %923 ]
  %925 = phi <4 x i32> [ <i32 0, i32 1, i32 2, i32 3>, %910 ], [ %937, %923 ]
  %926 = add i32 %903, %924
  %927 = add <4 x i32> %913, %925
  %928 = add <4 x i32> %916, %925
  %929 = add <4 x i32> %919, %925
  %930 = add <4 x i32> %922, %925
  %931 = zext i32 %926 to i64
  %932 = getelementptr inbounds i32, ptr %8, i64 %931
  store <4 x i32> %927, ptr %932, align 4, !tbaa !14
  %933 = getelementptr inbounds i32, ptr %932, i64 4
  store <4 x i32> %928, ptr %933, align 4, !tbaa !14
  %934 = getelementptr inbounds i32, ptr %932, i64 8
  store <4 x i32> %929, ptr %934, align 4, !tbaa !14
  %935 = getelementptr inbounds i32, ptr %932, i64 12
  store <4 x i32> %930, ptr %935, align 4, !tbaa !14
  %936 = add nuw i32 %924, 16
  %937 = add <4 x i32> %925, <i32 16, i32 16, i32 16, i32 16>
  %938 = icmp eq i32 %936, %890
  br i1 %938, label %939, label %923, !llvm.loop !118

939:                                              ; preds = %923
  br i1 %891, label %949, label %940

940:                                              ; preds = %901, %939
  %941 = phi i32 [ 0, %901 ], [ %890, %939 ]
  %942 = phi i32 [ %903, %901 ], [ %911, %939 ]
  br label %953

943:                                              ; preds = %949
  %944 = add i32 %13, 4
  %945 = add i32 %13, -1
  %946 = icmp ult i32 %13, 16
  %947 = and i32 %13, -16
  %948 = icmp eq i32 %13, %947
  br label %962

949:                                              ; preds = %953, %939
  %950 = phi i32 [ %911, %939 ], [ %957, %953 ]
  %951 = add nuw i32 %902, 1
  %952 = icmp ult i32 %951, %13
  br i1 %952, label %901, label %943

953:                                              ; preds = %940, %953
  %954 = phi i32 [ %960, %953 ], [ %941, %940 ]
  %955 = phi i32 [ %957, %953 ], [ %942, %940 ]
  %956 = add i32 %906, %954
  %957 = add i32 %955, 1
  %958 = zext i32 %955 to i64
  %959 = getelementptr inbounds i32, ptr %8, i64 %958
  store i32 %956, ptr %959, align 4, !tbaa !14
  %960 = add nuw i32 %954, 1
  %961 = icmp ult i32 %960, %13
  br i1 %961, label %953, label %949, !llvm.loop !119

962:                                              ; preds = %1004, %943
  %963 = phi i32 [ 0, %943 ], [ %1006, %1004 ]
  %964 = phi i32 [ %950, %943 ], [ %1005, %1004 ]
  %965 = add i32 %944, %963
  %966 = mul i32 %965, %19
  %967 = add i32 %966, 2
  %968 = xor i32 %964, -1
  %969 = icmp ugt i32 %945, %968
  %970 = select i1 %946, i1 true, i1 %969
  br i1 %970, label %1001, label %971

971:                                              ; preds = %962
  %972 = add i32 %964, %947
  %973 = insertelement <4 x i32> poison, i32 %967, i64 0
  %974 = shufflevector <4 x i32> %973, <4 x i32> poison, <4 x i32> zeroinitializer
  %975 = add i32 %966, 6
  %976 = insertelement <4 x i32> poison, i32 %975, i64 0
  %977 = shufflevector <4 x i32> %976, <4 x i32> poison, <4 x i32> zeroinitializer
  %978 = add i32 %966, 10
  %979 = insertelement <4 x i32> poison, i32 %978, i64 0
  %980 = shufflevector <4 x i32> %979, <4 x i32> poison, <4 x i32> zeroinitializer
  %981 = add i32 %966, 14
  %982 = insertelement <4 x i32> poison, i32 %981, i64 0
  %983 = shufflevector <4 x i32> %982, <4 x i32> poison, <4 x i32> zeroinitializer
  br label %984

984:                                              ; preds = %984, %971
  %985 = phi i32 [ 0, %971 ], [ %997, %984 ]
  %986 = phi <4 x i32> [ <i32 0, i32 1, i32 2, i32 3>, %971 ], [ %998, %984 ]
  %987 = add i32 %964, %985
  %988 = add <4 x i32> %974, %986
  %989 = add <4 x i32> %977, %986
  %990 = add <4 x i32> %980, %986
  %991 = add <4 x i32> %983, %986
  %992 = zext i32 %987 to i64
  %993 = getelementptr inbounds i32, ptr %8, i64 %992
  store <4 x i32> %988, ptr %993, align 4, !tbaa !14
  %994 = getelementptr inbounds i32, ptr %993, i64 4
  store <4 x i32> %989, ptr %994, align 4, !tbaa !14
  %995 = getelementptr inbounds i32, ptr %993, i64 8
  store <4 x i32> %990, ptr %995, align 4, !tbaa !14
  %996 = getelementptr inbounds i32, ptr %993, i64 12
  store <4 x i32> %991, ptr %996, align 4, !tbaa !14
  %997 = add nuw i32 %985, 16
  %998 = add <4 x i32> %986, <i32 16, i32 16, i32 16, i32 16>
  %999 = icmp eq i32 %997, %947
  br i1 %999, label %1000, label %984, !llvm.loop !120

1000:                                             ; preds = %984
  br i1 %948, label %1004, label %1001

1001:                                             ; preds = %962, %1000
  %1002 = phi i32 [ 0, %962 ], [ %947, %1000 ]
  %1003 = phi i32 [ %964, %962 ], [ %972, %1000 ]
  br label %1013

1004:                                             ; preds = %1013, %1000
  %1005 = phi i32 [ %972, %1000 ], [ %1017, %1013 ]
  %1006 = add nuw i32 %963, 1
  %1007 = icmp ult i32 %1006, %13
  br i1 %1007, label %962, label %1008

1008:                                             ; preds = %1004
  %1009 = add i32 %13, -1
  %1010 = icmp ult i32 %13, 16
  %1011 = and i32 %13, -16
  %1012 = icmp eq i32 %13, %1011
  br label %1022

1013:                                             ; preds = %1001, %1013
  %1014 = phi i32 [ %1020, %1013 ], [ %1002, %1001 ]
  %1015 = phi i32 [ %1017, %1013 ], [ %1003, %1001 ]
  %1016 = add i32 %967, %1014
  %1017 = add i32 %1015, 1
  %1018 = zext i32 %1015 to i64
  %1019 = getelementptr inbounds i32, ptr %8, i64 %1018
  store i32 %1016, ptr %1019, align 4, !tbaa !14
  %1020 = add nuw i32 %1014, 1
  %1021 = icmp ult i32 %1020, %13
  br i1 %1021, label %1013, label %1004, !llvm.loop !121

1022:                                             ; preds = %1008, %1070
  %1023 = phi i32 [ %1071, %1070 ], [ 0, %1008 ]
  %1024 = phi i32 [ %1074, %1070 ], [ %1005, %1008 ]
  %1025 = add i32 %1023, 2
  %1026 = mul i32 %1025, %20
  %1027 = add i32 %1026, 2
  br label %1028

1028:                                             ; preds = %1073, %1022
  %1029 = phi i32 [ %1075, %1073 ], [ 0, %1022 ]
  %1030 = phi i32 [ %1074, %1073 ], [ %1024, %1022 ]
  %1031 = add i32 %1029, 2
  %1032 = mul i32 %1031, %19
  %1033 = add i32 %1027, %1032
  %1034 = xor i32 %1030, -1
  %1035 = icmp ugt i32 %1009, %1034
  %1036 = select i1 %1010, i1 true, i1 %1035
  br i1 %1036, label %1067, label %1037

1037:                                             ; preds = %1028
  %1038 = add i32 %1030, %1011
  %1039 = insertelement <4 x i32> poison, i32 %1033, i64 0
  %1040 = shufflevector <4 x i32> %1039, <4 x i32> poison, <4 x i32> zeroinitializer
  %1041 = add i32 %1033, 4
  %1042 = insertelement <4 x i32> poison, i32 %1041, i64 0
  %1043 = shufflevector <4 x i32> %1042, <4 x i32> poison, <4 x i32> zeroinitializer
  %1044 = add i32 %1033, 8
  %1045 = insertelement <4 x i32> poison, i32 %1044, i64 0
  %1046 = shufflevector <4 x i32> %1045, <4 x i32> poison, <4 x i32> zeroinitializer
  %1047 = add i32 %1033, 12
  %1048 = insertelement <4 x i32> poison, i32 %1047, i64 0
  %1049 = shufflevector <4 x i32> %1048, <4 x i32> poison, <4 x i32> zeroinitializer
  br label %1050

1050:                                             ; preds = %1050, %1037
  %1051 = phi i32 [ 0, %1037 ], [ %1063, %1050 ]
  %1052 = phi <4 x i32> [ <i32 0, i32 1, i32 2, i32 3>, %1037 ], [ %1064, %1050 ]
  %1053 = add i32 %1030, %1051
  %1054 = add <4 x i32> %1040, %1052
  %1055 = add <4 x i32> %1043, %1052
  %1056 = add <4 x i32> %1046, %1052
  %1057 = add <4 x i32> %1049, %1052
  %1058 = zext i32 %1053 to i64
  %1059 = getelementptr inbounds i32, ptr %8, i64 %1058
  store <4 x i32> %1054, ptr %1059, align 4, !tbaa !14
  %1060 = getelementptr inbounds i32, ptr %1059, i64 4
  store <4 x i32> %1055, ptr %1060, align 4, !tbaa !14
  %1061 = getelementptr inbounds i32, ptr %1059, i64 8
  store <4 x i32> %1056, ptr %1061, align 4, !tbaa !14
  %1062 = getelementptr inbounds i32, ptr %1059, i64 12
  store <4 x i32> %1057, ptr %1062, align 4, !tbaa !14
  %1063 = add nuw i32 %1051, 16
  %1064 = add <4 x i32> %1052, <i32 16, i32 16, i32 16, i32 16>
  %1065 = icmp eq i32 %1063, %1011
  br i1 %1065, label %1066, label %1050, !llvm.loop !122

1066:                                             ; preds = %1050
  br i1 %1012, label %1073, label %1067

1067:                                             ; preds = %1028, %1066
  %1068 = phi i32 [ 0, %1028 ], [ %1011, %1066 ]
  %1069 = phi i32 [ %1030, %1028 ], [ %1038, %1066 ]
  br label %1077

1070:                                             ; preds = %1073
  %1071 = add nuw i32 %1023, 1
  %1072 = icmp ult i32 %1071, %13
  br i1 %1072, label %1022, label %1086

1073:                                             ; preds = %1077, %1066
  %1074 = phi i32 [ %1038, %1066 ], [ %1081, %1077 ]
  %1075 = add nuw i32 %1029, 1
  %1076 = icmp ult i32 %1075, %13
  br i1 %1076, label %1028, label %1070, !llvm.loop !123

1077:                                             ; preds = %1067, %1077
  %1078 = phi i32 [ %1084, %1077 ], [ %1068, %1067 ]
  %1079 = phi i32 [ %1081, %1077 ], [ %1069, %1067 ]
  %1080 = add i32 %1033, %1078
  %1081 = add i32 %1079, 1
  %1082 = zext i32 %1079 to i64
  %1083 = getelementptr inbounds i32, ptr %8, i64 %1082
  store i32 %1080, ptr %1083, align 4, !tbaa !14
  %1084 = add nuw i32 %1078, 1
  %1085 = icmp ult i32 %1084, %13
  br i1 %1085, label %1077, label %1073, !llvm.loop !125

1086:                                             ; preds = %1070, %2
  ret void
}

declare void @_ZN6dealii10FullMatrixIdEC1Ejj(ptr noundef nonnull align 8 dereferenceable(92), i32 noundef, i32 noundef) unnamed_addr #2

; Function Attrs: sspstrong uwtable
define linkonce_odr dso_local void @_ZNSt6vectorIN6dealii10FullMatrixIdEESaIS2_EEC2EmRKS2_RKS3_(ptr noundef nonnull align 8 dereferenceable(24) %0, i64 noundef %1, ptr noundef nonnull align 8 dereferenceable(92) %2, ptr noundef nonnull align 1 dereferenceable(1) %3) unnamed_addr #0 comdat align 2 personality ptr @__gxx_personality_v0 {
  %5 = icmp ugt i64 %1, 96076792050570581
  br i1 %5, label %6, label %7

6:                                                ; preds = %4
  tail call void @_ZSt20__throw_length_errorPKc(ptr noundef nonnull @.str.11) #20
  unreachable

7:                                                ; preds = %4
  tail call void @llvm.memset.p0.i64(ptr noundef nonnull align 8 dereferenceable(24) %0, i8 0, i64 24, i1 false)
  %8 = icmp eq i64 %1, 0
  br i1 %8, label %9, label %11

9:                                                ; preds = %7
  %10 = getelementptr inbounds %"struct.std::_Vector_base<dealii::FullMatrix<double>, std::allocator<dealii::FullMatrix<double> > >::_Vector_impl_data", ptr %0, i64 0, i32 1
  tail call void @llvm.memset.p0.i64(ptr noundef nonnull align 8 dereferenceable(24) %0, i8 0, i64 24, i1 false)
  br label %47

11:                                               ; preds = %7
  %12 = mul nuw nsw i64 %1, 96
  %13 = tail call noalias noundef nonnull ptr @_Znwm(i64 noundef %12) #17
  store ptr %13, ptr %0, align 8, !tbaa !64
  %14 = getelementptr inbounds %"struct.std::_Vector_base<dealii::FullMatrix<double>, std::allocator<dealii::FullMatrix<double> > >::_Vector_impl_data", ptr %0, i64 0, i32 1
  store ptr %13, ptr %14, align 8, !tbaa !66
  %15 = getelementptr inbounds %"class.dealii::FullMatrix", ptr %13, i64 %1
  %16 = getelementptr inbounds %"struct.std::_Vector_base<dealii::FullMatrix<double>, std::allocator<dealii::FullMatrix<double> > >::_Vector_impl_data", ptr %0, i64 0, i32 2
  store ptr %15, ptr %16, align 8, !tbaa !126
  br label %17

17:                                               ; preds = %11, %20
  %18 = phi ptr [ %22, %20 ], [ %13, %11 ]
  %19 = phi i64 [ %21, %20 ], [ %1, %11 ]
  invoke void @_ZN6dealii10FullMatrixIdEC1ERKS1_(ptr noundef nonnull align 8 dereferenceable(92) %18, ptr noundef nonnull align 8 dereferenceable(92) %2)
          to label %20 unwind label %24

20:                                               ; preds = %17
  %21 = add i64 %19, -1
  %22 = getelementptr inbounds %"class.dealii::FullMatrix", ptr %18, i64 1
  %23 = icmp eq i64 %21, 0
  br i1 %23, label %47, label %17

24:                                               ; preds = %17
  %25 = landingpad { ptr, i32 }
          catch ptr null
  %26 = extractvalue { ptr, i32 } %25, 0
  %27 = tail call ptr @__cxa_begin_catch(ptr %26) #16
  %28 = icmp eq ptr %18, %13
  br i1 %28, label %36, label %29

29:                                               ; preds = %24, %33
  %30 = phi ptr [ %34, %33 ], [ %13, %24 ]
  %31 = load ptr, ptr %30, align 8, !tbaa !39
  %32 = load ptr, ptr %31, align 8
  invoke void %32(ptr noundef nonnull align 8 dereferenceable(92) %30)
          to label %33 unwind label %37

33:                                               ; preds = %29
  %34 = getelementptr inbounds %"class.dealii::FullMatrix", ptr %30, i64 1
  %35 = icmp eq ptr %34, %18
  br i1 %35, label %36, label %29

36:                                               ; preds = %33, %24
  invoke void @__cxa_rethrow() #20
          to label %46 unwind label %39

37:                                               ; preds = %29
  %38 = landingpad { ptr, i32 }
          cleanup
  br label %41

39:                                               ; preds = %36
  %40 = landingpad { ptr, i32 }
          cleanup
  br label %41

41:                                               ; preds = %39, %37
  %42 = phi { ptr, i32 } [ %38, %37 ], [ %40, %39 ]
  invoke void @__cxa_end_catch()
          to label %50 unwind label %43

43:                                               ; preds = %41
  %44 = landingpad { ptr, i32 }
          catch ptr null
  %45 = extractvalue { ptr, i32 } %44, 0
  tail call void @__clang_call_terminate(ptr %45) #19
  unreachable

46:                                               ; preds = %36
  unreachable

47:                                               ; preds = %20, %9
  %48 = phi ptr [ %10, %9 ], [ %14, %20 ]
  %49 = phi ptr [ null, %9 ], [ %22, %20 ]
  store ptr %49, ptr %48, align 8, !tbaa !66
  ret void

50:                                               ; preds = %41
  %51 = load ptr, ptr %0, align 8, !tbaa !64
  %52 = icmp eq ptr %51, null
  br i1 %52, label %54, label %53

53:                                               ; preds = %50
  tail call void @_ZdlPv(ptr noundef nonnull %51) #18
  br label %54

54:                                               ; preds = %53, %50
  resume { ptr, i32 } %42
}

; Function Attrs: sspstrong uwtable
define weak_odr dso_local void @_ZNK6dealii17FE_Q_HierarchicalILi3EE15build_dofs_cellERSt6vectorINS_10FullMatrixIdEESaIS4_EES7_(ptr noundef nonnull align 8 dereferenceable(832) %0, ptr noundef nonnull align 8 dereferenceable(24) %1, ptr noundef nonnull align 8 dereferenceable(24) %2) local_unnamed_addr #0 comdat align 2 {
  %4 = getelementptr inbounds i8, ptr %0, i64 72
  %5 = load i32, ptr %4, align 8, !tbaa !41
  %6 = shl i32 %5, 1
  %7 = getelementptr inbounds i8, ptr %0, i64 76
  %8 = load i32, ptr %7, align 4, !tbaa !42
  %9 = add i32 %6, %8
  %10 = icmp eq i32 %9, 0
  br i1 %10, label %225, label %11

11:                                               ; preds = %3, %224
  %12 = phi i1 [ false, %224 ], [ true, %3 ]
  %13 = phi i1 [ true, %224 ], [ false, %3 ]
  %14 = phi i64 [ 1, %224 ], [ 0, %3 ]
  %15 = trunc i64 %14 to i32
  br label %208

16:                                               ; preds = %203
  %17 = add nuw i32 %209, 1
  %18 = icmp eq i32 %17, %9
  br i1 %18, label %224, label %208

19:                                               ; preds = %208, %203
  %20 = phi i32 [ 0, %208 ], [ %204, %203 ]
  %21 = or i32 %20, %209
  %22 = icmp ult i32 %21, 2
  br i1 %22, label %158, label %23

23:                                               ; preds = %19
  %24 = icmp ugt i32 %20, 1
  %25 = and i1 %210, %24
  br i1 %25, label %138, label %26

26:                                               ; preds = %23
  %27 = icmp ule i32 %209, %20
  %28 = and i1 %211, %27
  %29 = and i1 %24, %28
  br i1 %29, label %206, label %203

30:                                               ; preds = %206, %30
  %31 = phi i32 [ %57, %30 ], [ 1, %206 ]
  %32 = phi double [ %56, %30 ], [ 1.000000e+00, %206 ]
  %33 = phi i32 [ %58, %30 ], [ 0, %206 ]
  %34 = sub i32 %207, %31
  %35 = uitofp i32 %34 to double
  %36 = uitofp i32 %31 to double
  %37 = fdiv double %35, %36
  %38 = fmul double %32, %37
  %39 = add nuw nsw i32 %31, 1
  %40 = sub i32 %207, %39
  %41 = uitofp i32 %40 to double
  %42 = uitofp i32 %39 to double
  %43 = fdiv double %41, %42
  %44 = fmul double %38, %43
  %45 = add nuw nsw i32 %31, 2
  %46 = sub i32 %207, %45
  %47 = uitofp i32 %46 to double
  %48 = uitofp i32 %45 to double
  %49 = fdiv double %47, %48
  %50 = fmul double %44, %49
  %51 = add nuw i32 %31, 3
  %52 = sub i32 %207, %51
  %53 = uitofp i32 %52 to double
  %54 = uitofp i32 %51 to double
  %55 = fdiv double %53, %54
  %56 = fmul double %50, %55
  %57 = add nuw i32 %31, 4
  %58 = add i32 %33, 4
  %59 = icmp eq i32 %58, %222
  br i1 %59, label %60, label %30

60:                                               ; preds = %30, %206
  %61 = phi double [ undef, %206 ], [ %56, %30 ]
  %62 = phi i32 [ 1, %206 ], [ %57, %30 ]
  %63 = phi double [ 1.000000e+00, %206 ], [ %56, %30 ]
  br i1 %223, label %76, label %64

64:                                               ; preds = %60, %64
  %65 = phi i32 [ %73, %64 ], [ %62, %60 ]
  %66 = phi double [ %72, %64 ], [ %63, %60 ]
  %67 = phi i32 [ %74, %64 ], [ 0, %60 ]
  %68 = sub i32 %207, %65
  %69 = uitofp i32 %68 to double
  %70 = uitofp i32 %65 to double
  %71 = fdiv double %69, %70
  %72 = fmul double %66, %71
  %73 = add nuw i32 %65, 1
  %74 = add i32 %67, 1
  %75 = icmp eq i32 %74, %220
  br i1 %75, label %76, label %64, !llvm.loop !127

76:                                               ; preds = %64, %60
  %77 = phi double [ %61, %60 ], [ %72, %64 ]
  br i1 %12, label %108, label %78

78:                                               ; preds = %76
  %79 = uitofp i32 %20 to double
  %80 = fneg double %79
  %81 = tail call double @exp2(double %80)
  %82 = fmul double %77, %81
  %83 = load ptr, ptr %2, align 8, !tbaa !64
  %84 = getelementptr inbounds %"class.dealii::FullMatrix", ptr %83, i64 1, i32 0, i32 0, i32 1
  %85 = load ptr, ptr %84, align 8, !tbaa !43
  %86 = getelementptr inbounds %"class.dealii::FullMatrix", ptr %83, i64 1, i32 0, i32 0, i32 3, i32 0, i32 0, i64 1
  %87 = load i32, ptr %86, align 8, !tbaa !14
  %88 = mul i32 %87, %209
  %89 = add i32 %88, %20
  %90 = zext i32 %89 to i64
  %91 = getelementptr inbounds double, ptr %85, i64 %90
  store double %82, ptr %91, align 8, !tbaa !58
  %92 = add i32 %20, %209
  %93 = and i32 %92, 1
  %94 = icmp eq i32 %93, 0
  %95 = tail call double @exp2(double %212)
  %96 = fneg double %95
  %97 = select i1 %94, double %95, double %96
  %98 = fmul double %77, %97
  %99 = load ptr, ptr %1, align 8, !tbaa !64
  %100 = getelementptr inbounds %"class.dealii::FullMatrix", ptr %99, i64 1, i32 0, i32 0, i32 1
  %101 = load ptr, ptr %100, align 8, !tbaa !43
  %102 = getelementptr inbounds %"class.dealii::FullMatrix", ptr %99, i64 1, i32 0, i32 0, i32 3, i32 0, i32 0, i64 1
  %103 = load i32, ptr %102, align 8, !tbaa !14
  %104 = mul i32 %103, %209
  %105 = add i32 %104, %20
  %106 = zext i32 %105 to i64
  %107 = getelementptr inbounds double, ptr %101, i64 %106
  store double %98, ptr %107, align 8, !tbaa !58
  br label %203

108:                                              ; preds = %76
  %109 = add i32 %20, %209
  %110 = and i32 %109, 1
  %111 = icmp eq i32 %110, 0
  %112 = uitofp i32 %20 to double
  %113 = fneg double %112
  %114 = tail call double @exp2(double %113)
  %115 = fneg double %114
  %116 = select i1 %111, double %114, double %115
  %117 = fmul double %77, %116
  %118 = load ptr, ptr %2, align 8, !tbaa !64
  %119 = getelementptr inbounds %"class.dealii::TableBase", ptr %118, i64 0, i32 1
  %120 = load ptr, ptr %119, align 8, !tbaa !43
  %121 = getelementptr inbounds %"class.dealii::TableBase", ptr %118, i64 0, i32 3, i32 0, i32 0, i64 1
  %122 = load i32, ptr %121, align 8, !tbaa !14
  %123 = mul i32 %122, %209
  %124 = add i32 %123, %20
  %125 = zext i32 %124 to i64
  %126 = getelementptr inbounds double, ptr %120, i64 %125
  store double %117, ptr %126, align 8, !tbaa !58
  %127 = tail call double @exp2(double %212)
  %128 = fmul double %77, %127
  %129 = load ptr, ptr %1, align 8, !tbaa !64
  %130 = getelementptr inbounds %"class.dealii::TableBase", ptr %129, i64 0, i32 1
  %131 = load ptr, ptr %130, align 8, !tbaa !43
  %132 = getelementptr inbounds %"class.dealii::TableBase", ptr %129, i64 0, i32 3, i32 0, i32 0, i64 1
  %133 = load i32, ptr %132, align 8, !tbaa !14
  %134 = mul i32 %133, %209
  %135 = add i32 %134, %20
  %136 = zext i32 %135 to i64
  %137 = getelementptr inbounds double, ptr %131, i64 %136
  store double %128, ptr %137, align 8, !tbaa !58
  br label %203

138:                                              ; preds = %23
  %139 = and i32 %20, 1
  %140 = or i32 %139, %15
  %141 = icmp eq i32 %140, 0
  %142 = and i1 %213, %141
  br i1 %142, label %147, label %143

143:                                              ; preds = %138
  %144 = or i32 %139, %209
  %145 = icmp eq i32 %144, 0
  %146 = and i1 %13, %145
  br i1 %146, label %147, label %203

147:                                              ; preds = %143, %138
  %148 = load ptr, ptr %2, align 8, !tbaa !64
  %149 = getelementptr inbounds %"class.dealii::FullMatrix", ptr %148, i64 %14
  %150 = getelementptr inbounds %"class.dealii::TableBase", ptr %149, i64 0, i32 1
  %151 = load ptr, ptr %150, align 8, !tbaa !43
  %152 = getelementptr inbounds %"class.dealii::TableBase", ptr %149, i64 0, i32 3, i32 0, i32 0, i64 1
  %153 = load i32, ptr %152, align 8, !tbaa !14
  %154 = mul nuw nsw i32 %153, %209
  %155 = add i32 %154, %20
  %156 = zext i32 %155 to i64
  %157 = getelementptr inbounds double, ptr %151, i64 %156
  store double -1.000000e+00, ptr %157, align 8, !tbaa !58
  br label %203

158:                                              ; preds = %19
  %159 = or i32 %215, %20
  %160 = icmp eq i32 %159, 0
  %161 = icmp eq i32 %20, 1
  %162 = and i1 %216, %161
  %163 = or i1 %160, %162
  %164 = load ptr, ptr %1, align 8, !tbaa !64
  %165 = getelementptr inbounds %"class.dealii::FullMatrix", ptr %164, i64 %14
  %166 = getelementptr inbounds %"class.dealii::TableBase", ptr %165, i64 0, i32 1
  %167 = load ptr, ptr %166, align 8, !tbaa !43
  %168 = getelementptr inbounds %"class.dealii::TableBase", ptr %165, i64 0, i32 3, i32 0, i32 0, i64 1
  %169 = load i32, ptr %168, align 8, !tbaa !14
  %170 = mul nuw nsw i32 %169, %209
  %171 = add i32 %170, %20
  %172 = zext i32 %171 to i64
  %173 = getelementptr inbounds double, ptr %167, i64 %172
  %174 = select i1 %163, double 1.000000e+00, double 0.000000e+00
  store double %174, ptr %173, align 8, !tbaa !58
  br i1 %219, label %192, label %175

175:                                              ; preds = %158
  %176 = or i32 %20, %15
  %177 = icmp eq i32 %176, 0
  %178 = and i1 %13, %161
  %179 = or i1 %177, %178
  %180 = load ptr, ptr %2, align 8, !tbaa !64
  %181 = getelementptr inbounds %"class.dealii::FullMatrix", ptr %180, i64 %14
  %182 = getelementptr inbounds %"class.dealii::TableBase", ptr %181, i64 0, i32 1
  %183 = load ptr, ptr %182, align 8, !tbaa !43
  %184 = getelementptr inbounds %"class.dealii::TableBase", ptr %181, i64 0, i32 3, i32 0, i32 0, i64 1
  %185 = load i32, ptr %184, align 8, !tbaa !14
  %186 = mul nuw nsw i32 %185, %209
  %187 = add i32 %186, %20
  %188 = zext i32 %187 to i64
  %189 = getelementptr inbounds double, ptr %183, i64 %188
  br i1 %179, label %191, label %190

190:                                              ; preds = %175
  store double 0.000000e+00, ptr %189, align 8, !tbaa !58
  br label %203

191:                                              ; preds = %175
  store double 1.000000e+00, ptr %189, align 8, !tbaa !58
  br label %203

192:                                              ; preds = %158
  %193 = load ptr, ptr %2, align 8, !tbaa !64
  %194 = getelementptr inbounds %"class.dealii::FullMatrix", ptr %193, i64 %14
  %195 = getelementptr inbounds %"class.dealii::TableBase", ptr %194, i64 0, i32 1
  %196 = load ptr, ptr %195, align 8, !tbaa !43
  %197 = getelementptr inbounds %"class.dealii::TableBase", ptr %194, i64 0, i32 3, i32 0, i32 0, i64 1
  %198 = load i32, ptr %197, align 8, !tbaa !14
  %199 = mul nuw nsw i32 %198, %209
  %200 = add i32 %199, %20
  %201 = zext i32 %200 to i64
  %202 = getelementptr inbounds double, ptr %196, i64 %201
  store double 5.000000e-01, ptr %202, align 8, !tbaa !58
  br label %203

203:                                              ; preds = %192, %191, %190, %147, %143, %108, %78, %26
  %204 = add nuw i32 %20, 1
  %205 = icmp eq i32 %204, %9
  br i1 %205, label %16, label %19

206:                                              ; preds = %26
  %207 = add nuw i32 %20, 1
  br i1 %221, label %60, label %30

208:                                              ; preds = %11, %16
  %209 = phi i32 [ 0, %11 ], [ %17, %16 ]
  %210 = icmp ult i32 %209, 2
  %211 = icmp ugt i32 %209, 1
  %212 = uitofp i32 %209 to double
  %213 = icmp eq i32 %209, 1
  %214 = icmp eq i32 %209, 0
  %215 = or i32 %209, %15
  %216 = and i1 %13, %213
  %217 = and i1 %12, %213
  %218 = and i1 %13, %214
  %219 = or i1 %217, %218
  %220 = and i32 %209, 3
  %221 = icmp ult i32 %209, 4
  %222 = and i32 %209, -4
  %223 = icmp eq i32 %220, 0
  br label %19

224:                                              ; preds = %16
  br i1 %12, label %11, label %225

225:                                              ; preds = %224, %3
  ret void
}

; Function Attrs: sspstrong uwtable
define weak_odr dso_local void @_ZN6dealii17FE_Q_HierarchicalILi3EE22initialize_constraintsERKSt6vectorINS_10FullMatrixIdEESaIS4_EE(ptr noundef nonnull align 8 dereferenceable(832) %0, ptr noundef nonnull align 8 dereferenceable(24) %1) local_unnamed_addr #0 comdat align 2 {
  %3 = getelementptr inbounds i8, ptr %0, i64 72
  %4 = load i32, ptr %3, align 8, !tbaa !41
  %5 = shl i32 %4, 1
  %6 = getelementptr inbounds i8, ptr %0, i64 76
  %7 = load i32, ptr %6, align 4, !tbaa !42
  %8 = add i32 %5, %7
  %9 = getelementptr inbounds i8, ptr %0, i64 124
  %10 = load i32, ptr %9, align 4, !tbaa !57
  %11 = tail call i64 @_ZNK6dealii13FiniteElementILi3ELi3EE26interface_constraints_sizeEv(ptr noundef nonnull align 8 dereferenceable(728) %0)
  %12 = getelementptr inbounds %"class.dealii::FiniteElement", ptr %0, i64 0, i32 5, i32 0, i32 0, i32 3
  store i64 %11, ptr %12, align 4
  %13 = trunc i64 %11 to i32
  %14 = getelementptr inbounds %"class.dealii::FiniteElement", ptr %0, i64 0, i32 5, i32 0, i32 0, i32 3, i32 0, i32 0, i64 1
  %15 = lshr i64 %11, 32
  %16 = trunc i64 %15 to i32
  %17 = mul i32 %16, %13
  %18 = icmp eq i32 %17, 0
  br i1 %18, label %19, label %25

19:                                               ; preds = %2
  %20 = getelementptr inbounds %"class.dealii::FiniteElement", ptr %0, i64 0, i32 5, i32 0, i32 0, i32 1
  %21 = load ptr, ptr %20, align 8, !tbaa !43
  %22 = icmp eq ptr %21, null
  br i1 %22, label %24, label %23

23:                                               ; preds = %19
  tail call void @_ZdaPv(ptr noundef nonnull %21) #18
  br label %24

24:                                               ; preds = %23, %19
  tail call void @llvm.memset.p0.i64(ptr noundef nonnull align 8 dereferenceable(20) %20, i8 0, i64 20, i1 false)
  br label %50

25:                                               ; preds = %2
  %26 = getelementptr inbounds %"class.dealii::FiniteElement", ptr %0, i64 0, i32 5, i32 0, i32 0, i32 2
  %27 = load i32, ptr %26, align 8, !tbaa !129
  %28 = icmp ult i32 %27, %17
  %29 = getelementptr inbounds %"class.dealii::FiniteElement", ptr %0, i64 0, i32 5, i32 0, i32 0, i32 1
  %30 = load ptr, ptr %29, align 8, !tbaa !43
  br i1 %28, label %31, label %44

31:                                               ; preds = %25
  %32 = icmp eq ptr %30, null
  br i1 %32, label %37, label %33

33:                                               ; preds = %31
  tail call void @_ZdaPv(ptr noundef nonnull %30) #18
  %34 = load i32, ptr %12, align 4, !tbaa !14
  %35 = load i32, ptr %14, align 8, !tbaa !14
  %36 = mul i32 %35, %34
  br label %37

37:                                               ; preds = %33, %31
  %38 = phi i32 [ %35, %33 ], [ %16, %31 ]
  %39 = phi i32 [ %36, %33 ], [ %17, %31 ]
  store i32 %17, ptr %26, align 8, !tbaa !129
  %40 = zext i32 %17 to i64
  %41 = shl nuw nsw i64 %40, 3
  %42 = tail call noalias noundef nonnull ptr @_Znam(i64 noundef %41) #17
  store ptr %42, ptr %29, align 8, !tbaa !43
  %43 = icmp eq i32 %39, 0
  br i1 %43, label %50, label %44

44:                                               ; preds = %25, %37
  %45 = phi i32 [ %38, %37 ], [ %16, %25 ]
  %46 = phi ptr [ %42, %37 ], [ %30, %25 ]
  %47 = phi i32 [ %39, %37 ], [ %17, %25 ]
  %48 = zext i32 %47 to i64
  %49 = shl nuw nsw i64 %48, 3
  tail call void @llvm.memset.p0.i64(ptr align 8 %46, i8 0, i64 %49, i1 false), !tbaa !58
  br label %50

50:                                               ; preds = %24, %37, %44
  %51 = phi i32 [ 0, %24 ], [ %38, %37 ], [ %45, %44 ]
  %52 = phi ptr [ null, %24 ], [ %42, %37 ], [ %46, %44 ]
  %53 = mul i32 %8, %8
  %54 = icmp eq i32 %53, 0
  br i1 %54, label %199, label %55

55:                                               ; preds = %50
  %56 = load ptr, ptr %1, align 8, !tbaa !64
  %57 = getelementptr inbounds %"class.dealii::TableBase", ptr %56, i64 0, i32 1
  %58 = load ptr, ptr %57, align 8, !tbaa !43
  %59 = getelementptr inbounds %"class.dealii::TableBase", ptr %56, i64 0, i32 3, i32 0, i32 0, i64 1
  %60 = load i32, ptr %59, align 8, !tbaa !14
  %61 = getelementptr inbounds %"class.dealii::FE_Q_Hierarchical", ptr %0, i64 0, i32 1
  %62 = load ptr, ptr %61, align 8, !tbaa !8
  %63 = getelementptr inbounds %"class.dealii::FullMatrix", ptr %56, i64 1, i32 0, i32 0, i32 1
  %64 = load ptr, ptr %63, align 8, !tbaa !43
  %65 = getelementptr inbounds %"class.dealii::FullMatrix", ptr %56, i64 1, i32 0, i32 0, i32 3, i32 0, i32 0, i64 1
  %66 = load i32, ptr %65, align 8, !tbaa !14
  %67 = shl i32 %51, 1
  %68 = mul i32 %51, 3
  %69 = shl i32 %51, 2
  %70 = add i32 %10, -1
  %71 = icmp eq i32 %70, 0
  %72 = add i32 %10, 4
  %73 = shl i32 %70, 1
  %74 = add i32 %73, 5
  %75 = mul i32 %70, 3
  %76 = add i32 %75, 5
  %77 = shl i32 %70, 2
  %78 = add i32 %77, 5
  %79 = add i32 %78, %70
  %80 = add i32 %78, %73
  %81 = add i32 %78, %75
  %82 = add i32 %78, %77
  %83 = mul i32 %70, 5
  %84 = add i32 %78, %83
  %85 = mul i32 %70, 6
  %86 = add i32 %78, %85
  %87 = mul i32 %70, 7
  %88 = add i32 %78, %87
  %89 = mul i32 %70, %70
  %90 = shl i32 %89, 1
  %91 = mul i32 %75, %70
  %92 = zext i32 %53 to i64
  %93 = zext i32 %70 to i64
  %94 = zext i32 %70 to i64
  %95 = zext i32 %70 to i64
  %96 = add nsw i64 %93, -1
  %97 = shl i32 %10, 2
  %98 = or i32 %97, 1
  %99 = mul i32 %10, 5
  %100 = insertelement <4 x i32> poison, i32 %10, i64 0
  %101 = shufflevector <4 x i32> %100, <4 x i32> poison, <4 x i32> zeroinitializer
  %102 = mul <4 x i32> %101, <i32 6, i32 7, i32 8, i32 9>
  %103 = add <4 x i32> %102, <i32 -1, i32 -2, i32 -3, i32 -4>
  %104 = mul i32 %10, 10
  %105 = add i32 %104, -5
  %106 = mul i32 %10, 11
  %107 = add i32 %106, -6
  %108 = shl i32 %10, 2
  %109 = or i32 %108, 1
  %110 = shl nuw nsw i64 %93, 3
  %111 = getelementptr i8, ptr %52, i64 %110
  %112 = mul i32 %10, 5
  %113 = getelementptr i8, ptr %52, i64 %110
  %114 = mul i32 %10, 6
  %115 = add i32 %114, -1
  %116 = getelementptr i8, ptr %52, i64 %110
  %117 = mul i32 %10, 7
  %118 = add i32 %117, -2
  %119 = getelementptr i8, ptr %52, i64 %110
  %120 = shl i32 %10, 3
  %121 = add i32 %120, -3
  %122 = getelementptr i8, ptr %52, i64 %110
  %123 = mul i32 %10, 9
  %124 = add i32 %123, -4
  %125 = getelementptr i8, ptr %52, i64 %110
  %126 = mul i32 %10, 10
  %127 = add i32 %126, -5
  %128 = getelementptr i8, ptr %52, i64 %110
  %129 = mul i32 %10, 11
  %130 = add i32 %129, -6
  %131 = getelementptr i8, ptr %52, i64 %110
  %132 = zext i32 %8 to i64
  %133 = mul nsw i64 %132, -8
  %134 = getelementptr i8, ptr %58, i64 %110
  %135 = getelementptr i8, ptr %64, i64 %110
  %136 = getelementptr i8, ptr %64, i64 8
  %137 = getelementptr i8, ptr %58, i64 %110
  %138 = getelementptr i8, ptr %58, i64 8
  %139 = getelementptr i8, ptr %64, i64 %110
  %140 = getelementptr i8, ptr %64, i64 8
  %141 = getelementptr i8, ptr %64, i64 16
  %142 = add nsw i64 %93, -1
  %143 = add i32 %10, 4
  %144 = shl i32 %10, 1
  %145 = add i32 %144, 3
  %146 = mul i32 %10, 3
  %147 = add i32 %146, 2
  %148 = shl nuw nsw i64 %93, 3
  %149 = getelementptr i8, ptr %52, i64 %148
  %150 = add i32 %10, 4
  %151 = getelementptr i8, ptr %52, i64 %148
  %152 = shl i32 %10, 1
  %153 = add i32 %152, 3
  %154 = getelementptr i8, ptr %52, i64 %148
  %155 = mul i32 %10, 3
  %156 = add i32 %155, 2
  %157 = getelementptr i8, ptr %52, i64 %148
  %158 = getelementptr i8, ptr %58, i64 8
  %159 = getelementptr i8, ptr %58, i64 %148
  %160 = getelementptr i8, ptr %64, i64 %148
  %161 = getelementptr i8, ptr %58, i64 %148
  %162 = getelementptr i8, ptr %64, i64 8
  %163 = getelementptr i8, ptr %64, i64 %148
  %164 = getelementptr i8, ptr %58, i64 8
  %165 = getelementptr i8, ptr %58, i64 16
  %166 = icmp ult i32 %70, 56
  %167 = icmp ne i32 %51, 1
  %168 = icmp ne i32 %60, 1
  %169 = icmp ne i32 %66, 1
  %170 = trunc i64 %142 to i32
  %171 = icmp ugt i64 %142, 4294967295
  %172 = trunc i64 %142 to i32
  %173 = trunc i64 %142 to i32
  %174 = trunc i64 %142 to i32
  %175 = trunc i64 %142 to i32
  %176 = trunc i64 %142 to i32
  %177 = or i1 %167, %168
  %178 = or i1 %177, %169
  %179 = and i64 %93, 4294967292
  %180 = icmp eq i64 %179, %93
  %181 = icmp ult i32 %70, 76
  %182 = icmp ne i32 %60, 1
  %183 = icmp ne i32 %66, 1
  %184 = icmp ne i32 %51, 1
  %185 = trunc i64 %96 to i32
  %186 = trunc i64 %96 to i32
  %187 = trunc i64 %96 to i32
  %188 = insertelement <4 x i32> undef, i32 %187, i64 0
  %189 = shufflevector <4 x i32> %188, <4 x i32> poison, <4 x i32> zeroinitializer
  %190 = trunc i64 %96 to i32
  %191 = trunc i64 %96 to i32
  %192 = trunc i64 %96 to i32
  %193 = icmp ugt i64 %96, 4294967295
  %194 = trunc i64 %96 to i32
  %195 = or i1 %182, %184
  %196 = or i1 %195, %193
  %197 = and i64 %93, 4294967292
  %198 = icmp eq i64 %197, %93
  br label %200

199:                                              ; preds = %1245, %50
  ret void

200:                                              ; preds = %55, %1245
  %201 = phi i64 [ 0, %55 ], [ %1246, %1245 ]
  %202 = trunc i64 %201 to i32
  %203 = add i32 %202, 1
  %204 = trunc i64 %201 to i32
  %205 = add i32 %204, 2
  %206 = trunc i64 %201 to i32
  %207 = shl nuw nsw i64 %201, 3
  %208 = add nuw i64 %207, 8
  %209 = getelementptr i8, ptr %58, i64 %208
  %210 = trunc i64 %201 to i32
  %211 = add i32 %210, 1
  %212 = trunc i64 %201 to i32
  %213 = add i32 %212, 2
  %214 = trunc i64 %201 to i32
  %215 = trunc i64 %201 to i32
  %216 = urem i32 %215, %8
  %217 = add i32 %60, %216
  %218 = zext i32 %217 to i64
  %219 = getelementptr inbounds double, ptr %58, i64 %218
  %220 = load double, ptr %219, align 8, !tbaa !58
  %221 = udiv i32 %215, %8
  %222 = add i32 %221, %60
  %223 = zext i32 %222 to i64
  %224 = getelementptr inbounds double, ptr %58, i64 %223
  %225 = load double, ptr %224, align 8, !tbaa !58
  %226 = fmul double %220, %225
  %227 = getelementptr inbounds i32, ptr %62, i64 %201
  %228 = load i32, ptr %227, align 4, !tbaa !14
  %229 = zext i32 %228 to i64
  %230 = getelementptr inbounds double, ptr %52, i64 %229
  store double %226, ptr %230, align 8, !tbaa !58
  %231 = zext i32 %216 to i64
  %232 = getelementptr inbounds double, ptr %58, i64 %231
  %233 = load double, ptr %232, align 8, !tbaa !58
  %234 = load double, ptr %224, align 8, !tbaa !58
  %235 = fmul double %233, %234
  %236 = add i32 %51, %228
  %237 = zext i32 %236 to i64
  %238 = getelementptr inbounds double, ptr %52, i64 %237
  store double %235, ptr %238, align 8, !tbaa !58
  %239 = add i32 %66, %216
  %240 = zext i32 %239 to i64
  %241 = getelementptr inbounds double, ptr %64, i64 %240
  %242 = load double, ptr %241, align 8, !tbaa !58
  %243 = load double, ptr %224, align 8, !tbaa !58
  %244 = fmul double %242, %243
  %245 = add i32 %67, %228
  %246 = zext i32 %245 to i64
  %247 = getelementptr inbounds double, ptr %52, i64 %246
  store double %244, ptr %247, align 8, !tbaa !58
  %248 = load double, ptr %219, align 8, !tbaa !58
  %249 = zext i32 %221 to i64
  %250 = getelementptr inbounds double, ptr %58, i64 %249
  %251 = load double, ptr %250, align 8, !tbaa !58
  %252 = fmul double %248, %251
  %253 = add i32 %68, %228
  %254 = zext i32 %253 to i64
  %255 = getelementptr inbounds double, ptr %52, i64 %254
  store double %252, ptr %255, align 8, !tbaa !58
  %256 = getelementptr inbounds double, ptr %64, i64 %231
  %257 = load double, ptr %256, align 8, !tbaa !58
  %258 = add i32 %66, %221
  %259 = zext i32 %258 to i64
  %260 = getelementptr inbounds double, ptr %64, i64 %259
  %261 = load double, ptr %260, align 8, !tbaa !58
  %262 = fmul double %257, %261
  %263 = add i32 %69, %228
  %264 = zext i32 %263 to i64
  %265 = getelementptr inbounds double, ptr %52, i64 %264
  store double %262, ptr %265, align 8, !tbaa !58
  br i1 %71, label %1245, label %266

266:                                              ; preds = %200
  %267 = getelementptr double, ptr %64, i64 %249
  br i1 %166, label %529, label %268

268:                                              ; preds = %266
  %269 = sub i32 -6, %228
  %270 = icmp ult i32 %269, %170
  %271 = or i1 %270, %171
  %272 = add i32 %143, %228
  %273 = xor i32 %272, -1
  %274 = icmp ult i32 %273, %172
  %275 = add i32 %145, %228
  %276 = xor i32 %275, -1
  %277 = icmp ult i32 %276, %173
  %278 = add i32 %147, %228
  %279 = xor i32 %278, -1
  %280 = icmp ult i32 %279, %174
  %281 = sub i32 -3, %221
  %282 = icmp ult i32 %281, %175
  %283 = mul nuw i32 %8, %221
  %284 = sub i32 %283, %206
  %285 = add i32 %284, -3
  %286 = icmp ult i32 %285, %176
  %287 = or i1 %178, %271
  %288 = or i1 %274, %287
  %289 = or i1 %277, %288
  %290 = or i1 %280, %289
  %291 = or i1 %282, %290
  %292 = or i1 %286, %291
  br i1 %292, label %529, label %293

293:                                              ; preds = %268
  %294 = add i32 %228, 5
  %295 = zext i32 %294 to i64
  %296 = shl nuw nsw i64 %295, 3
  %297 = getelementptr i8, ptr %52, i64 %296
  %298 = getelementptr i8, ptr %149, i64 %296
  %299 = add i32 %150, %228
  %300 = zext i32 %299 to i64
  %301 = shl nuw nsw i64 %300, 3
  %302 = getelementptr i8, ptr %52, i64 %301
  %303 = getelementptr i8, ptr %151, i64 %301
  %304 = add i32 %153, %228
  %305 = zext i32 %304 to i64
  %306 = shl nuw nsw i64 %305, 3
  %307 = getelementptr i8, ptr %52, i64 %306
  %308 = getelementptr i8, ptr %154, i64 %306
  %309 = add i32 %156, %228
  %310 = zext i32 %309 to i64
  %311 = shl nuw nsw i64 %310, 3
  %312 = getelementptr i8, ptr %52, i64 %311
  %313 = getelementptr i8, ptr %157, i64 %311
  %314 = mul nuw i32 %8, %221
  %315 = sub i32 %203, %314
  %316 = zext i32 %315 to i64
  %317 = shl nuw nsw i64 %316, 3
  %318 = getelementptr i8, ptr %58, i64 %317
  %319 = getelementptr i8, ptr %158, i64 %317
  %320 = add i32 %221, 2
  %321 = zext i32 %320 to i64
  %322 = shl nuw nsw i64 %321, 3
  %323 = getelementptr i8, ptr %58, i64 %322
  %324 = getelementptr i8, ptr %159, i64 %322
  %325 = getelementptr i8, ptr %64, i64 %322
  %326 = getelementptr i8, ptr %160, i64 %322
  %327 = sub i32 %205, %314
  %328 = zext i32 %327 to i64
  %329 = shl nuw nsw i64 %328, 3
  %330 = getelementptr i8, ptr %58, i64 %329
  %331 = getelementptr i8, ptr %161, i64 %329
  %332 = shl nuw nsw i64 %249, 3
  %333 = getelementptr i8, ptr %162, i64 %332
  %334 = getelementptr i8, ptr %64, i64 %329
  %335 = getelementptr i8, ptr %163, i64 %329
  %336 = getelementptr i8, ptr %164, i64 %332
  %337 = getelementptr i8, ptr %165, i64 %332
  %338 = icmp ult ptr %297, %303
  %339 = icmp ult ptr %302, %298
  %340 = and i1 %338, %339
  %341 = icmp ult ptr %297, %308
  %342 = icmp ult ptr %307, %298
  %343 = and i1 %341, %342
  %344 = or i1 %340, %343
  %345 = icmp ult ptr %297, %313
  %346 = icmp ult ptr %312, %298
  %347 = and i1 %345, %346
  %348 = or i1 %344, %347
  %349 = icmp ult ptr %297, %319
  %350 = icmp ult ptr %318, %298
  %351 = and i1 %349, %350
  %352 = or i1 %348, %351
  %353 = icmp ult ptr %297, %324
  %354 = icmp ult ptr %323, %298
  %355 = and i1 %353, %354
  %356 = or i1 %352, %355
  %357 = icmp ult ptr %297, %326
  %358 = icmp ult ptr %325, %298
  %359 = and i1 %357, %358
  %360 = or i1 %356, %359
  %361 = icmp ult ptr %297, %331
  %362 = icmp ult ptr %330, %298
  %363 = and i1 %361, %362
  %364 = or i1 %360, %363
  %365 = icmp ult ptr %297, %333
  %366 = icmp ult ptr %267, %298
  %367 = and i1 %365, %366
  %368 = or i1 %364, %367
  %369 = icmp ult ptr %297, %335
  %370 = icmp ult ptr %334, %298
  %371 = and i1 %369, %370
  %372 = or i1 %368, %371
  %373 = icmp ult ptr %297, %337
  %374 = icmp ult ptr %336, %298
  %375 = and i1 %373, %374
  %376 = or i1 %372, %375
  %377 = icmp ult ptr %302, %308
  %378 = icmp ult ptr %307, %303
  %379 = and i1 %377, %378
  %380 = or i1 %376, %379
  %381 = icmp ult ptr %302, %313
  %382 = icmp ult ptr %312, %303
  %383 = and i1 %381, %382
  %384 = or i1 %380, %383
  %385 = icmp ult ptr %302, %319
  %386 = icmp ult ptr %318, %303
  %387 = and i1 %385, %386
  %388 = or i1 %384, %387
  %389 = icmp ult ptr %302, %324
  %390 = icmp ult ptr %323, %303
  %391 = and i1 %389, %390
  %392 = or i1 %388, %391
  %393 = icmp ult ptr %302, %326
  %394 = icmp ult ptr %325, %303
  %395 = and i1 %393, %394
  %396 = or i1 %392, %395
  %397 = icmp ult ptr %302, %331
  %398 = icmp ult ptr %330, %303
  %399 = and i1 %397, %398
  %400 = or i1 %396, %399
  %401 = icmp ult ptr %302, %333
  %402 = icmp ult ptr %267, %303
  %403 = and i1 %401, %402
  %404 = or i1 %400, %403
  %405 = icmp ult ptr %302, %335
  %406 = icmp ult ptr %334, %303
  %407 = and i1 %405, %406
  %408 = or i1 %404, %407
  %409 = icmp ult ptr %302, %337
  %410 = icmp ult ptr %336, %303
  %411 = and i1 %409, %410
  %412 = or i1 %408, %411
  %413 = icmp ult ptr %307, %313
  %414 = icmp ult ptr %312, %308
  %415 = and i1 %413, %414
  %416 = or i1 %412, %415
  %417 = icmp ult ptr %307, %319
  %418 = icmp ult ptr %318, %308
  %419 = and i1 %417, %418
  %420 = or i1 %416, %419
  %421 = icmp ult ptr %307, %324
  %422 = icmp ult ptr %323, %308
  %423 = and i1 %421, %422
  %424 = or i1 %420, %423
  %425 = icmp ult ptr %307, %326
  %426 = icmp ult ptr %325, %308
  %427 = and i1 %425, %426
  %428 = or i1 %424, %427
  %429 = icmp ult ptr %307, %331
  %430 = icmp ult ptr %330, %308
  %431 = and i1 %429, %430
  %432 = or i1 %428, %431
  %433 = icmp ult ptr %307, %333
  %434 = icmp ult ptr %267, %308
  %435 = and i1 %433, %434
  %436 = or i1 %432, %435
  %437 = icmp ult ptr %307, %335
  %438 = icmp ult ptr %334, %308
  %439 = and i1 %437, %438
  %440 = or i1 %436, %439
  %441 = icmp ult ptr %307, %337
  %442 = icmp ult ptr %336, %308
  %443 = and i1 %441, %442
  %444 = or i1 %440, %443
  %445 = icmp ult ptr %312, %319
  %446 = icmp ult ptr %318, %313
  %447 = and i1 %445, %446
  %448 = or i1 %444, %447
  %449 = icmp ult ptr %312, %324
  %450 = icmp ult ptr %323, %313
  %451 = and i1 %449, %450
  %452 = or i1 %448, %451
  %453 = icmp ult ptr %312, %326
  %454 = icmp ult ptr %325, %313
  %455 = and i1 %453, %454
  %456 = or i1 %452, %455
  %457 = icmp ult ptr %312, %331
  %458 = icmp ult ptr %330, %313
  %459 = and i1 %457, %458
  %460 = or i1 %456, %459
  %461 = icmp ult ptr %312, %333
  %462 = icmp ult ptr %267, %313
  %463 = and i1 %461, %462
  %464 = or i1 %460, %463
  %465 = icmp ult ptr %312, %335
  %466 = icmp ult ptr %334, %313
  %467 = and i1 %465, %466
  %468 = or i1 %464, %467
  %469 = icmp ult ptr %312, %337
  %470 = icmp ult ptr %336, %313
  %471 = and i1 %469, %470
  %472 = or i1 %468, %471
  br i1 %472, label %529, label %473

473:                                              ; preds = %293
  %474 = load double, ptr %219, align 8, !tbaa !58, !alias.scope !130
  %475 = insertelement <4 x double> poison, double %474, i64 0
  %476 = shufflevector <4 x double> %475, <4 x double> poison, <4 x i32> zeroinitializer
  %477 = load double, ptr %219, align 8, !tbaa !58, !alias.scope !130
  %478 = insertelement <4 x double> poison, double %477, i64 0
  %479 = shufflevector <4 x double> %478, <4 x double> poison, <4 x i32> zeroinitializer
  %480 = load double, ptr %267, align 8, !tbaa !58, !alias.scope !133
  %481 = insertelement <4 x double> poison, double %480, i64 0
  %482 = shufflevector <4 x double> %481, <4 x double> poison, <4 x i32> zeroinitializer
  %483 = load double, ptr %224, align 8, !tbaa !58, !alias.scope !135
  %484 = insertelement <4 x double> poison, double %483, i64 0
  %485 = shufflevector <4 x double> %484, <4 x double> poison, <4 x i32> zeroinitializer
  br label %486

486:                                              ; preds = %486, %473
  %487 = phi i64 [ 0, %473 ], [ %526, %486 ]
  %488 = trunc i64 %487 to i32
  %489 = or i32 %488, 2
  %490 = add i32 %489, %221
  %491 = zext i32 %490 to i64
  %492 = getelementptr inbounds double, ptr %58, i64 %491
  %493 = load <4 x double>, ptr %492, align 8, !tbaa !58, !alias.scope !137
  %494 = fmul <4 x double> %476, %493
  %495 = add i32 %488, 5
  %496 = add i32 %495, %228
  %497 = zext i32 %496 to i64
  %498 = getelementptr inbounds double, ptr %52, i64 %497
  store <4 x double> %494, ptr %498, align 8, !tbaa !58, !alias.scope !139, !noalias !141
  %499 = add i32 %489, %221
  %500 = zext i32 %499 to i64
  %501 = getelementptr inbounds double, ptr %64, i64 %500
  %502 = load <4 x double>, ptr %501, align 8, !tbaa !58, !alias.scope !148
  %503 = fmul <4 x double> %479, %502
  %504 = add i32 %72, %488
  %505 = add i32 %504, %228
  %506 = zext i32 %505 to i64
  %507 = getelementptr inbounds double, ptr %52, i64 %506
  store <4 x double> %503, ptr %507, align 8, !tbaa !58, !alias.scope !149, !noalias !150
  %508 = add i32 %489, %216
  %509 = zext i32 %508 to i64
  %510 = getelementptr inbounds double, ptr %58, i64 %509
  %511 = load <4 x double>, ptr %510, align 8, !tbaa !58, !alias.scope !151
  %512 = fmul <4 x double> %511, %482
  %513 = add i32 %74, %488
  %514 = add i32 %513, %228
  %515 = zext i32 %514 to i64
  %516 = getelementptr inbounds double, ptr %52, i64 %515
  store <4 x double> %512, ptr %516, align 8, !tbaa !58, !alias.scope !152, !noalias !153
  %517 = add i32 %489, %216
  %518 = zext i32 %517 to i64
  %519 = getelementptr inbounds double, ptr %64, i64 %518
  %520 = load <4 x double>, ptr %519, align 8, !tbaa !58, !alias.scope !154
  %521 = fmul <4 x double> %520, %485
  %522 = add i32 %76, %488
  %523 = add i32 %522, %228
  %524 = zext i32 %523 to i64
  %525 = getelementptr inbounds double, ptr %52, i64 %524
  store <4 x double> %521, ptr %525, align 8, !tbaa !58, !alias.scope !155, !noalias !156
  %526 = add nuw i64 %487, 4
  %527 = icmp eq i64 %526, %179
  br i1 %527, label %528, label %486, !llvm.loop !157

528:                                              ; preds = %486
  br i1 %180, label %531, label %529

529:                                              ; preds = %293, %268, %266, %528
  %530 = phi i64 [ 0, %293 ], [ 0, %268 ], [ 0, %266 ], [ %179, %528 ]
  br label %1095

531:                                              ; preds = %1095, %528
  br i1 %71, label %1245, label %532

532:                                              ; preds = %531
  br i1 %181, label %1093, label %533

533:                                              ; preds = %532
  %534 = add i32 %98, %228
  %535 = xor i32 %534, -1
  %536 = icmp ult i32 %535, %185
  %537 = add i32 %99, %228
  %538 = xor i32 %537, -1
  %539 = icmp ult i32 %538, %186
  %540 = insertelement <4 x i32> poison, i32 %228, i64 0
  %541 = shufflevector <4 x i32> %540, <4 x i32> poison, <4 x i32> zeroinitializer
  %542 = add <4 x i32> %103, %541
  %543 = xor <4 x i32> %542, <i32 -1, i32 -1, i32 -1, i32 -1>
  %544 = icmp ugt <4 x i32> %189, %543
  %545 = add i32 %105, %228
  %546 = xor i32 %545, -1
  %547 = icmp ult i32 %546, %190
  %548 = add i32 %107, %228
  %549 = xor i32 %548, -1
  %550 = icmp ult i32 %549, %191
  %551 = sub i32 -3, %221
  %552 = icmp ult i32 %551, %192
  %553 = mul nuw i32 %8, %221
  %554 = sub i32 %553, %214
  %555 = add i32 %554, -3
  %556 = icmp ult i32 %555, %194
  %557 = bitcast <4 x i1> %544 to i4
  %558 = icmp ne i4 %557, 0
  %559 = or i1 %558, %552
  %560 = or i1 %536, %539
  %561 = or i1 %547, %550
  %562 = or i1 %556, %183
  %563 = or i1 %559, %560
  %564 = or i1 %561, %562
  %565 = or i1 %563, %564
  %566 = or i1 %565, %196
  br i1 %566, label %1093, label %567

567:                                              ; preds = %533
  %568 = add i32 %109, %228
  %569 = zext i32 %568 to i64
  %570 = shl nuw nsw i64 %569, 3
  %571 = getelementptr i8, ptr %52, i64 %570
  %572 = getelementptr i8, ptr %111, i64 %570
  %573 = add i32 %112, %228
  %574 = zext i32 %573 to i64
  %575 = shl nuw nsw i64 %574, 3
  %576 = getelementptr i8, ptr %52, i64 %575
  %577 = getelementptr i8, ptr %113, i64 %575
  %578 = add i32 %115, %228
  %579 = zext i32 %578 to i64
  %580 = shl nuw nsw i64 %579, 3
  %581 = getelementptr i8, ptr %52, i64 %580
  %582 = getelementptr i8, ptr %116, i64 %580
  %583 = add i32 %118, %228
  %584 = zext i32 %583 to i64
  %585 = shl nuw nsw i64 %584, 3
  %586 = getelementptr i8, ptr %52, i64 %585
  %587 = getelementptr i8, ptr %119, i64 %585
  %588 = add i32 %121, %228
  %589 = zext i32 %588 to i64
  %590 = shl nuw nsw i64 %589, 3
  %591 = getelementptr i8, ptr %52, i64 %590
  %592 = getelementptr i8, ptr %122, i64 %590
  %593 = add i32 %124, %228
  %594 = zext i32 %593 to i64
  %595 = shl nuw nsw i64 %594, 3
  %596 = getelementptr i8, ptr %52, i64 %595
  %597 = getelementptr i8, ptr %125, i64 %595
  %598 = add i32 %127, %228
  %599 = zext i32 %598 to i64
  %600 = shl nuw nsw i64 %599, 3
  %601 = getelementptr i8, ptr %52, i64 %600
  %602 = getelementptr i8, ptr %128, i64 %600
  %603 = add i32 %130, %228
  %604 = zext i32 %603 to i64
  %605 = shl nuw nsw i64 %604, 3
  %606 = getelementptr i8, ptr %52, i64 %605
  %607 = getelementptr i8, ptr %131, i64 %605
  %608 = mul i64 %133, %249
  %609 = getelementptr i8, ptr %209, i64 %608
  %610 = add i32 %221, 2
  %611 = zext i32 %610 to i64
  %612 = shl nuw nsw i64 %611, 3
  %613 = getelementptr i8, ptr %58, i64 %612
  %614 = getelementptr i8, ptr %134, i64 %612
  %615 = getelementptr i8, ptr %64, i64 %612
  %616 = getelementptr i8, ptr %135, i64 %612
  %617 = mul nuw i32 %8, %221
  %618 = sub i32 %211, %617
  %619 = zext i32 %618 to i64
  %620 = shl nuw nsw i64 %619, 3
  %621 = getelementptr i8, ptr %64, i64 %620
  %622 = getelementptr i8, ptr %136, i64 %620
  %623 = sub i32 %213, %617
  %624 = zext i32 %623 to i64
  %625 = shl nuw nsw i64 %624, 3
  %626 = getelementptr i8, ptr %58, i64 %625
  %627 = getelementptr i8, ptr %137, i64 %625
  %628 = shl nuw nsw i64 %249, 3
  %629 = getelementptr i8, ptr %138, i64 %628
  %630 = getelementptr i8, ptr %64, i64 %625
  %631 = getelementptr i8, ptr %139, i64 %625
  %632 = getelementptr i8, ptr %140, i64 %628
  %633 = getelementptr i8, ptr %141, i64 %628
  %634 = icmp ult ptr %571, %577
  %635 = icmp ult ptr %576, %572
  %636 = and i1 %634, %635
  %637 = icmp ult ptr %571, %582
  %638 = icmp ult ptr %581, %572
  %639 = and i1 %637, %638
  %640 = or i1 %636, %639
  %641 = icmp ult ptr %571, %587
  %642 = icmp ult ptr %586, %572
  %643 = and i1 %641, %642
  %644 = or i1 %640, %643
  %645 = icmp ult ptr %571, %592
  %646 = icmp ult ptr %591, %572
  %647 = and i1 %645, %646
  %648 = or i1 %644, %647
  %649 = icmp ult ptr %571, %597
  %650 = icmp ult ptr %596, %572
  %651 = and i1 %649, %650
  %652 = or i1 %648, %651
  %653 = icmp ult ptr %571, %602
  %654 = icmp ult ptr %601, %572
  %655 = and i1 %653, %654
  %656 = or i1 %652, %655
  %657 = icmp ult ptr %571, %607
  %658 = icmp ult ptr %606, %572
  %659 = and i1 %657, %658
  %660 = or i1 %656, %659
  %661 = icmp ult ptr %571, %609
  %662 = icmp ult ptr %232, %572
  %663 = and i1 %661, %662
  %664 = or i1 %660, %663
  %665 = icmp ult ptr %571, %614
  %666 = icmp ult ptr %613, %572
  %667 = and i1 %665, %666
  %668 = or i1 %664, %667
  %669 = icmp ult ptr %571, %616
  %670 = icmp ult ptr %615, %572
  %671 = and i1 %669, %670
  %672 = or i1 %668, %671
  %673 = icmp ult ptr %571, %622
  %674 = icmp ult ptr %621, %572
  %675 = and i1 %673, %674
  %676 = or i1 %672, %675
  %677 = icmp ult ptr %571, %627
  %678 = icmp ult ptr %626, %572
  %679 = and i1 %677, %678
  %680 = or i1 %676, %679
  %681 = icmp ult ptr %571, %629
  %682 = icmp ult ptr %250, %572
  %683 = and i1 %681, %682
  %684 = or i1 %680, %683
  %685 = icmp ult ptr %571, %631
  %686 = icmp ult ptr %630, %572
  %687 = and i1 %685, %686
  %688 = or i1 %684, %687
  %689 = icmp ult ptr %571, %633
  %690 = icmp ult ptr %632, %572
  %691 = and i1 %689, %690
  %692 = or i1 %688, %691
  %693 = icmp ult ptr %576, %582
  %694 = icmp ult ptr %581, %577
  %695 = and i1 %693, %694
  %696 = or i1 %692, %695
  %697 = icmp ult ptr %576, %587
  %698 = icmp ult ptr %586, %577
  %699 = and i1 %697, %698
  %700 = or i1 %696, %699
  %701 = icmp ult ptr %576, %592
  %702 = icmp ult ptr %591, %577
  %703 = and i1 %701, %702
  %704 = or i1 %700, %703
  %705 = icmp ult ptr %576, %597
  %706 = icmp ult ptr %596, %577
  %707 = and i1 %705, %706
  %708 = or i1 %704, %707
  %709 = icmp ult ptr %576, %602
  %710 = icmp ult ptr %601, %577
  %711 = and i1 %709, %710
  %712 = or i1 %708, %711
  %713 = icmp ult ptr %576, %607
  %714 = icmp ult ptr %606, %577
  %715 = and i1 %713, %714
  %716 = or i1 %712, %715
  %717 = icmp ult ptr %576, %609
  %718 = icmp ult ptr %232, %577
  %719 = and i1 %717, %718
  %720 = or i1 %716, %719
  %721 = icmp ult ptr %576, %614
  %722 = icmp ult ptr %613, %577
  %723 = and i1 %721, %722
  %724 = or i1 %720, %723
  %725 = icmp ult ptr %576, %616
  %726 = icmp ult ptr %615, %577
  %727 = and i1 %725, %726
  %728 = or i1 %724, %727
  %729 = icmp ult ptr %576, %622
  %730 = icmp ult ptr %621, %577
  %731 = and i1 %729, %730
  %732 = or i1 %728, %731
  %733 = icmp ult ptr %576, %627
  %734 = icmp ult ptr %626, %577
  %735 = and i1 %733, %734
  %736 = or i1 %732, %735
  %737 = icmp ult ptr %576, %629
  %738 = icmp ult ptr %250, %577
  %739 = and i1 %737, %738
  %740 = or i1 %736, %739
  %741 = icmp ult ptr %576, %631
  %742 = icmp ult ptr %630, %577
  %743 = and i1 %741, %742
  %744 = or i1 %740, %743
  %745 = icmp ult ptr %576, %633
  %746 = icmp ult ptr %632, %577
  %747 = and i1 %745, %746
  %748 = or i1 %744, %747
  %749 = icmp ult ptr %581, %587
  %750 = icmp ult ptr %586, %582
  %751 = and i1 %749, %750
  %752 = or i1 %748, %751
  %753 = icmp ult ptr %581, %592
  %754 = icmp ult ptr %591, %582
  %755 = and i1 %753, %754
  %756 = or i1 %752, %755
  %757 = icmp ult ptr %581, %597
  %758 = icmp ult ptr %596, %582
  %759 = and i1 %757, %758
  %760 = or i1 %756, %759
  %761 = icmp ult ptr %581, %602
  %762 = icmp ult ptr %601, %582
  %763 = and i1 %761, %762
  %764 = or i1 %760, %763
  %765 = icmp ult ptr %581, %607
  %766 = icmp ult ptr %606, %582
  %767 = and i1 %765, %766
  %768 = or i1 %764, %767
  %769 = icmp ult ptr %581, %609
  %770 = icmp ult ptr %232, %582
  %771 = and i1 %769, %770
  %772 = or i1 %768, %771
  %773 = icmp ult ptr %581, %614
  %774 = icmp ult ptr %613, %582
  %775 = and i1 %773, %774
  %776 = or i1 %772, %775
  %777 = icmp ult ptr %581, %616
  %778 = icmp ult ptr %615, %582
  %779 = and i1 %777, %778
  %780 = or i1 %776, %779
  %781 = icmp ult ptr %581, %622
  %782 = icmp ult ptr %621, %582
  %783 = and i1 %781, %782
  %784 = or i1 %780, %783
  %785 = icmp ult ptr %581, %627
  %786 = icmp ult ptr %626, %582
  %787 = and i1 %785, %786
  %788 = or i1 %784, %787
  %789 = icmp ult ptr %581, %629
  %790 = icmp ult ptr %250, %582
  %791 = and i1 %789, %790
  %792 = or i1 %788, %791
  %793 = icmp ult ptr %581, %631
  %794 = icmp ult ptr %630, %582
  %795 = and i1 %793, %794
  %796 = or i1 %792, %795
  %797 = icmp ult ptr %581, %633
  %798 = icmp ult ptr %632, %582
  %799 = and i1 %797, %798
  %800 = or i1 %796, %799
  %801 = icmp ult ptr %586, %592
  %802 = icmp ult ptr %591, %587
  %803 = and i1 %801, %802
  %804 = or i1 %800, %803
  %805 = icmp ult ptr %586, %597
  %806 = icmp ult ptr %596, %587
  %807 = and i1 %805, %806
  %808 = or i1 %804, %807
  %809 = icmp ult ptr %586, %602
  %810 = icmp ult ptr %601, %587
  %811 = and i1 %809, %810
  %812 = or i1 %808, %811
  %813 = icmp ult ptr %586, %607
  %814 = icmp ult ptr %606, %587
  %815 = and i1 %813, %814
  %816 = or i1 %812, %815
  %817 = icmp ult ptr %586, %609
  %818 = icmp ult ptr %232, %587
  %819 = and i1 %817, %818
  %820 = or i1 %816, %819
  %821 = icmp ult ptr %586, %614
  %822 = icmp ult ptr %613, %587
  %823 = and i1 %821, %822
  %824 = or i1 %820, %823
  %825 = icmp ult ptr %586, %616
  %826 = icmp ult ptr %615, %587
  %827 = and i1 %825, %826
  %828 = or i1 %824, %827
  %829 = icmp ult ptr %586, %622
  %830 = icmp ult ptr %621, %587
  %831 = and i1 %829, %830
  %832 = or i1 %828, %831
  %833 = icmp ult ptr %586, %627
  %834 = icmp ult ptr %626, %587
  %835 = and i1 %833, %834
  %836 = or i1 %832, %835
  %837 = icmp ult ptr %586, %629
  %838 = icmp ult ptr %250, %587
  %839 = and i1 %837, %838
  %840 = or i1 %836, %839
  %841 = icmp ult ptr %586, %631
  %842 = icmp ult ptr %630, %587
  %843 = and i1 %841, %842
  %844 = or i1 %840, %843
  %845 = icmp ult ptr %586, %633
  %846 = icmp ult ptr %632, %587
  %847 = and i1 %845, %846
  %848 = or i1 %844, %847
  %849 = icmp ult ptr %591, %597
  %850 = icmp ult ptr %596, %592
  %851 = and i1 %849, %850
  %852 = or i1 %848, %851
  %853 = icmp ult ptr %591, %602
  %854 = icmp ult ptr %601, %592
  %855 = and i1 %853, %854
  %856 = or i1 %852, %855
  %857 = icmp ult ptr %591, %607
  %858 = icmp ult ptr %606, %592
  %859 = and i1 %857, %858
  %860 = or i1 %856, %859
  %861 = icmp ult ptr %591, %609
  %862 = icmp ult ptr %232, %592
  %863 = and i1 %861, %862
  %864 = or i1 %860, %863
  %865 = icmp ult ptr %591, %614
  %866 = icmp ult ptr %613, %592
  %867 = and i1 %865, %866
  %868 = or i1 %864, %867
  %869 = icmp ult ptr %591, %616
  %870 = icmp ult ptr %615, %592
  %871 = and i1 %869, %870
  %872 = or i1 %868, %871
  %873 = icmp ult ptr %591, %622
  %874 = icmp ult ptr %621, %592
  %875 = and i1 %873, %874
  %876 = or i1 %872, %875
  %877 = icmp ult ptr %591, %627
  %878 = icmp ult ptr %626, %592
  %879 = and i1 %877, %878
  %880 = or i1 %876, %879
  %881 = icmp ult ptr %591, %629
  %882 = icmp ult ptr %250, %592
  %883 = and i1 %881, %882
  %884 = or i1 %880, %883
  %885 = icmp ult ptr %591, %631
  %886 = icmp ult ptr %630, %592
  %887 = and i1 %885, %886
  %888 = or i1 %884, %887
  %889 = icmp ult ptr %591, %633
  %890 = icmp ult ptr %632, %592
  %891 = and i1 %889, %890
  %892 = or i1 %888, %891
  %893 = icmp ult ptr %596, %602
  %894 = icmp ult ptr %601, %597
  %895 = and i1 %893, %894
  %896 = or i1 %892, %895
  %897 = icmp ult ptr %596, %607
  %898 = icmp ult ptr %606, %597
  %899 = and i1 %897, %898
  %900 = or i1 %896, %899
  %901 = icmp ult ptr %596, %609
  %902 = icmp ult ptr %232, %597
  %903 = and i1 %901, %902
  %904 = or i1 %900, %903
  %905 = icmp ult ptr %596, %614
  %906 = icmp ult ptr %613, %597
  %907 = and i1 %905, %906
  %908 = or i1 %904, %907
  %909 = icmp ult ptr %596, %616
  %910 = icmp ult ptr %615, %597
  %911 = and i1 %909, %910
  %912 = or i1 %908, %911
  %913 = icmp ult ptr %596, %622
  %914 = icmp ult ptr %621, %597
  %915 = and i1 %913, %914
  %916 = or i1 %912, %915
  %917 = icmp ult ptr %596, %627
  %918 = icmp ult ptr %626, %597
  %919 = and i1 %917, %918
  %920 = or i1 %916, %919
  %921 = icmp ult ptr %596, %629
  %922 = icmp ult ptr %250, %597
  %923 = and i1 %921, %922
  %924 = or i1 %920, %923
  %925 = icmp ult ptr %596, %631
  %926 = icmp ult ptr %630, %597
  %927 = and i1 %925, %926
  %928 = or i1 %924, %927
  %929 = icmp ult ptr %596, %633
  %930 = icmp ult ptr %632, %597
  %931 = and i1 %929, %930
  %932 = or i1 %928, %931
  %933 = icmp ult ptr %601, %607
  %934 = icmp ult ptr %606, %602
  %935 = and i1 %933, %934
  %936 = or i1 %932, %935
  %937 = icmp ult ptr %601, %609
  %938 = icmp ult ptr %232, %602
  %939 = and i1 %937, %938
  %940 = or i1 %936, %939
  %941 = icmp ult ptr %601, %614
  %942 = icmp ult ptr %613, %602
  %943 = and i1 %941, %942
  %944 = or i1 %940, %943
  %945 = icmp ult ptr %601, %616
  %946 = icmp ult ptr %615, %602
  %947 = and i1 %945, %946
  %948 = or i1 %944, %947
  %949 = icmp ult ptr %601, %622
  %950 = icmp ult ptr %621, %602
  %951 = and i1 %949, %950
  %952 = or i1 %948, %951
  %953 = icmp ult ptr %601, %627
  %954 = icmp ult ptr %626, %602
  %955 = and i1 %953, %954
  %956 = or i1 %952, %955
  %957 = icmp ult ptr %601, %629
  %958 = icmp ult ptr %250, %602
  %959 = and i1 %957, %958
  %960 = or i1 %956, %959
  %961 = icmp ult ptr %601, %631
  %962 = icmp ult ptr %630, %602
  %963 = and i1 %961, %962
  %964 = or i1 %960, %963
  %965 = icmp ult ptr %601, %633
  %966 = icmp ult ptr %632, %602
  %967 = and i1 %965, %966
  %968 = or i1 %964, %967
  %969 = icmp ult ptr %606, %609
  %970 = icmp ult ptr %232, %607
  %971 = and i1 %969, %970
  %972 = or i1 %968, %971
  %973 = icmp ult ptr %606, %614
  %974 = icmp ult ptr %613, %607
  %975 = and i1 %973, %974
  %976 = or i1 %972, %975
  %977 = icmp ult ptr %606, %616
  %978 = icmp ult ptr %615, %607
  %979 = and i1 %977, %978
  %980 = or i1 %976, %979
  %981 = icmp ult ptr %606, %622
  %982 = icmp ult ptr %621, %607
  %983 = and i1 %981, %982
  %984 = or i1 %980, %983
  %985 = icmp ult ptr %606, %627
  %986 = icmp ult ptr %626, %607
  %987 = and i1 %985, %986
  %988 = or i1 %984, %987
  %989 = icmp ult ptr %606, %629
  %990 = icmp ult ptr %250, %607
  %991 = and i1 %989, %990
  %992 = or i1 %988, %991
  %993 = icmp ult ptr %606, %631
  %994 = icmp ult ptr %630, %607
  %995 = and i1 %993, %994
  %996 = or i1 %992, %995
  %997 = icmp ult ptr %606, %633
  %998 = icmp ult ptr %632, %607
  %999 = and i1 %997, %998
  %1000 = or i1 %996, %999
  br i1 %1000, label %1093, label %1001

1001:                                             ; preds = %567
  %1002 = load double, ptr %232, align 8, !tbaa !58, !alias.scope !158
  %1003 = insertelement <4 x double> poison, double %1002, i64 0
  %1004 = shufflevector <4 x double> %1003, <4 x double> poison, <4 x i32> zeroinitializer
  %1005 = load double, ptr %232, align 8, !tbaa !58, !alias.scope !158
  %1006 = insertelement <4 x double> poison, double %1005, i64 0
  %1007 = shufflevector <4 x double> %1006, <4 x double> poison, <4 x i32> zeroinitializer
  %1008 = load double, ptr %241, align 8, !tbaa !58, !alias.scope !161
  %1009 = insertelement <4 x double> poison, double %1008, i64 0
  %1010 = shufflevector <4 x double> %1009, <4 x double> poison, <4 x i32> zeroinitializer
  %1011 = load double, ptr %241, align 8, !tbaa !58, !alias.scope !161
  %1012 = insertelement <4 x double> poison, double %1011, i64 0
  %1013 = shufflevector <4 x double> %1012, <4 x double> poison, <4 x i32> zeroinitializer
  %1014 = load double, ptr %250, align 8, !tbaa !58, !alias.scope !163
  %1015 = insertelement <4 x double> poison, double %1014, i64 0
  %1016 = shufflevector <4 x double> %1015, <4 x double> poison, <4 x i32> zeroinitializer
  %1017 = load double, ptr %250, align 8, !tbaa !58, !alias.scope !163
  %1018 = insertelement <4 x double> poison, double %1017, i64 0
  %1019 = shufflevector <4 x double> %1018, <4 x double> poison, <4 x i32> zeroinitializer
  %1020 = load double, ptr %260, align 8, !tbaa !58, !alias.scope !165
  %1021 = insertelement <4 x double> poison, double %1020, i64 0
  %1022 = shufflevector <4 x double> %1021, <4 x double> poison, <4 x i32> zeroinitializer
  %1023 = load double, ptr %260, align 8, !tbaa !58, !alias.scope !165
  %1024 = insertelement <4 x double> poison, double %1023, i64 0
  %1025 = shufflevector <4 x double> %1024, <4 x double> poison, <4 x i32> zeroinitializer
  br label %1026

1026:                                             ; preds = %1026, %1001
  %1027 = phi i64 [ 0, %1001 ], [ %1090, %1026 ]
  %1028 = trunc i64 %1027 to i32
  %1029 = or i32 %1028, 2
  %1030 = add i32 %1029, %221
  %1031 = zext i32 %1030 to i64
  %1032 = getelementptr inbounds double, ptr %58, i64 %1031
  %1033 = load <4 x double>, ptr %1032, align 8, !tbaa !58, !alias.scope !167
  %1034 = fmul <4 x double> %1004, %1033
  %1035 = add i32 %78, %1028
  %1036 = add i32 %1035, %228
  %1037 = zext i32 %1036 to i64
  %1038 = getelementptr inbounds double, ptr %52, i64 %1037
  store <4 x double> %1034, ptr %1038, align 8, !tbaa !58, !alias.scope !169, !noalias !171
  %1039 = add i32 %1029, %221
  %1040 = zext i32 %1039 to i64
  %1041 = getelementptr inbounds double, ptr %64, i64 %1040
  %1042 = load <4 x double>, ptr %1041, align 8, !tbaa !58, !alias.scope !182
  %1043 = fmul <4 x double> %1007, %1042
  %1044 = add i32 %79, %1028
  %1045 = add i32 %1044, %228
  %1046 = zext i32 %1045 to i64
  %1047 = getelementptr inbounds double, ptr %52, i64 %1046
  store <4 x double> %1043, ptr %1047, align 8, !tbaa !58, !alias.scope !183, !noalias !184
  %1048 = load <4 x double>, ptr %1032, align 8, !tbaa !58, !alias.scope !167
  %1049 = fmul <4 x double> %1010, %1048
  %1050 = add i32 %80, %1028
  %1051 = add i32 %1050, %228
  %1052 = zext i32 %1051 to i64
  %1053 = getelementptr inbounds double, ptr %52, i64 %1052
  store <4 x double> %1049, ptr %1053, align 8, !tbaa !58, !alias.scope !185, !noalias !186
  %1054 = load <4 x double>, ptr %1041, align 8, !tbaa !58, !alias.scope !182
  %1055 = fmul <4 x double> %1013, %1054
  %1056 = add i32 %81, %1028
  %1057 = add i32 %1056, %228
  %1058 = zext i32 %1057 to i64
  %1059 = getelementptr inbounds double, ptr %52, i64 %1058
  store <4 x double> %1055, ptr %1059, align 8, !tbaa !58, !alias.scope !187, !noalias !188
  %1060 = add i32 %1029, %216
  %1061 = zext i32 %1060 to i64
  %1062 = getelementptr inbounds double, ptr %58, i64 %1061
  %1063 = load <4 x double>, ptr %1062, align 8, !tbaa !58, !alias.scope !189
  %1064 = fmul <4 x double> %1063, %1016
  %1065 = add i32 %82, %1028
  %1066 = add i32 %1065, %228
  %1067 = zext i32 %1066 to i64
  %1068 = getelementptr inbounds double, ptr %52, i64 %1067
  store <4 x double> %1064, ptr %1068, align 8, !tbaa !58, !alias.scope !190, !noalias !191
  %1069 = add i32 %1029, %216
  %1070 = zext i32 %1069 to i64
  %1071 = getelementptr inbounds double, ptr %64, i64 %1070
  %1072 = load <4 x double>, ptr %1071, align 8, !tbaa !58, !alias.scope !192
  %1073 = fmul <4 x double> %1072, %1019
  %1074 = add i32 %84, %1028
  %1075 = add i32 %1074, %228
  %1076 = zext i32 %1075 to i64
  %1077 = getelementptr inbounds double, ptr %52, i64 %1076
  store <4 x double> %1073, ptr %1077, align 8, !tbaa !58, !alias.scope !193, !noalias !194
  %1078 = load <4 x double>, ptr %1062, align 8, !tbaa !58, !alias.scope !189
  %1079 = fmul <4 x double> %1078, %1022
  %1080 = add i32 %86, %1028
  %1081 = add i32 %1080, %228
  %1082 = zext i32 %1081 to i64
  %1083 = getelementptr inbounds double, ptr %52, i64 %1082
  store <4 x double> %1079, ptr %1083, align 8, !tbaa !58, !alias.scope !195, !noalias !196
  %1084 = load <4 x double>, ptr %1071, align 8, !tbaa !58, !alias.scope !192
  %1085 = fmul <4 x double> %1084, %1025
  %1086 = add i32 %88, %1028
  %1087 = add i32 %1086, %228
  %1088 = zext i32 %1087 to i64
  %1089 = getelementptr inbounds double, ptr %52, i64 %1088
  store <4 x double> %1085, ptr %1089, align 8, !tbaa !58, !alias.scope !197, !noalias !198
  %1090 = add nuw i64 %1027, 4
  %1091 = icmp eq i64 %1090, %197
  br i1 %1091, label %1092, label %1026, !llvm.loop !199

1092:                                             ; preds = %1026
  br i1 %198, label %1147, label %1093

1093:                                             ; preds = %567, %533, %532, %1092
  %1094 = phi i64 [ 0, %567 ], [ 0, %533 ], [ 0, %532 ], [ %197, %1092 ]
  br label %1148

1095:                                             ; preds = %529, %1095
  %1096 = phi i64 [ %1145, %1095 ], [ %530, %529 ]
  %1097 = load double, ptr %219, align 8, !tbaa !58
  %1098 = trunc i64 %1096 to i32
  %1099 = add i32 %1098, 2
  %1100 = mul i32 %1099, %60
  %1101 = add i32 %1100, %221
  %1102 = zext i32 %1101 to i64
  %1103 = getelementptr inbounds double, ptr %58, i64 %1102
  %1104 = load double, ptr %1103, align 8, !tbaa !58
  %1105 = fmul double %1097, %1104
  %1106 = add i32 %1098, 5
  %1107 = mul i32 %1106, %51
  %1108 = add i32 %1107, %228
  %1109 = zext i32 %1108 to i64
  %1110 = getelementptr inbounds double, ptr %52, i64 %1109
  store double %1105, ptr %1110, align 8, !tbaa !58
  %1111 = load double, ptr %219, align 8, !tbaa !58
  %1112 = mul i32 %1099, %66
  %1113 = add i32 %1112, %221
  %1114 = zext i32 %1113 to i64
  %1115 = getelementptr inbounds double, ptr %64, i64 %1114
  %1116 = load double, ptr %1115, align 8, !tbaa !58
  %1117 = fmul double %1111, %1116
  %1118 = add i32 %72, %1098
  %1119 = mul i32 %1118, %51
  %1120 = add i32 %1119, %228
  %1121 = zext i32 %1120 to i64
  %1122 = getelementptr inbounds double, ptr %52, i64 %1121
  store double %1117, ptr %1122, align 8, !tbaa !58
  %1123 = add i32 %1100, %216
  %1124 = zext i32 %1123 to i64
  %1125 = getelementptr inbounds double, ptr %58, i64 %1124
  %1126 = load double, ptr %1125, align 8, !tbaa !58
  %1127 = load double, ptr %267, align 8, !tbaa !58
  %1128 = fmul double %1126, %1127
  %1129 = add i32 %74, %1098
  %1130 = mul i32 %1129, %51
  %1131 = add i32 %1130, %228
  %1132 = zext i32 %1131 to i64
  %1133 = getelementptr inbounds double, ptr %52, i64 %1132
  store double %1128, ptr %1133, align 8, !tbaa !58
  %1134 = add i32 %1112, %216
  %1135 = zext i32 %1134 to i64
  %1136 = getelementptr inbounds double, ptr %64, i64 %1135
  %1137 = load double, ptr %1136, align 8, !tbaa !58
  %1138 = load double, ptr %224, align 8, !tbaa !58
  %1139 = fmul double %1137, %1138
  %1140 = add i32 %76, %1098
  %1141 = mul i32 %1140, %51
  %1142 = add i32 %1141, %228
  %1143 = zext i32 %1142 to i64
  %1144 = getelementptr inbounds double, ptr %52, i64 %1143
  store double %1139, ptr %1144, align 8, !tbaa !58
  %1145 = add nuw nsw i64 %1096, 1
  %1146 = icmp eq i64 %1145, %93
  br i1 %1146, label %531, label %1095, !llvm.loop !200

1147:                                             ; preds = %1148, %1092
  br i1 %71, label %1245, label %1232

1148:                                             ; preds = %1093, %1148
  %1149 = phi i64 [ %1230, %1148 ], [ %1094, %1093 ]
  %1150 = load double, ptr %232, align 8, !tbaa !58
  %1151 = trunc i64 %1149 to i32
  %1152 = add i32 %1151, 2
  %1153 = mul i32 %1152, %60
  %1154 = add i32 %1153, %221
  %1155 = zext i32 %1154 to i64
  %1156 = getelementptr inbounds double, ptr %58, i64 %1155
  %1157 = load double, ptr %1156, align 8, !tbaa !58
  %1158 = fmul double %1150, %1157
  %1159 = add i32 %78, %1151
  %1160 = mul i32 %1159, %51
  %1161 = add i32 %1160, %228
  %1162 = zext i32 %1161 to i64
  %1163 = getelementptr inbounds double, ptr %52, i64 %1162
  store double %1158, ptr %1163, align 8, !tbaa !58
  %1164 = load double, ptr %232, align 8, !tbaa !58
  %1165 = mul i32 %1152, %66
  %1166 = add i32 %1165, %221
  %1167 = zext i32 %1166 to i64
  %1168 = getelementptr inbounds double, ptr %64, i64 %1167
  %1169 = load double, ptr %1168, align 8, !tbaa !58
  %1170 = fmul double %1164, %1169
  %1171 = add i32 %79, %1151
  %1172 = mul i32 %1171, %51
  %1173 = add i32 %1172, %228
  %1174 = zext i32 %1173 to i64
  %1175 = getelementptr inbounds double, ptr %52, i64 %1174
  store double %1170, ptr %1175, align 8, !tbaa !58
  %1176 = load double, ptr %241, align 8, !tbaa !58
  %1177 = load double, ptr %1156, align 8, !tbaa !58
  %1178 = fmul double %1176, %1177
  %1179 = add i32 %80, %1151
  %1180 = mul i32 %1179, %51
  %1181 = add i32 %1180, %228
  %1182 = zext i32 %1181 to i64
  %1183 = getelementptr inbounds double, ptr %52, i64 %1182
  store double %1178, ptr %1183, align 8, !tbaa !58
  %1184 = load double, ptr %241, align 8, !tbaa !58
  %1185 = load double, ptr %1168, align 8, !tbaa !58
  %1186 = fmul double %1184, %1185
  %1187 = add i32 %81, %1151
  %1188 = mul i32 %1187, %51
  %1189 = add i32 %1188, %228
  %1190 = zext i32 %1189 to i64
  %1191 = getelementptr inbounds double, ptr %52, i64 %1190
  store double %1186, ptr %1191, align 8, !tbaa !58
  %1192 = add i32 %1153, %216
  %1193 = zext i32 %1192 to i64
  %1194 = getelementptr inbounds double, ptr %58, i64 %1193
  %1195 = load double, ptr %1194, align 8, !tbaa !58
  %1196 = load double, ptr %250, align 8, !tbaa !58
  %1197 = fmul double %1195, %1196
  %1198 = add i32 %82, %1151
  %1199 = mul i32 %1198, %51
  %1200 = add i32 %1199, %228
  %1201 = zext i32 %1200 to i64
  %1202 = getelementptr inbounds double, ptr %52, i64 %1201
  store double %1197, ptr %1202, align 8, !tbaa !58
  %1203 = add i32 %1165, %216
  %1204 = zext i32 %1203 to i64
  %1205 = getelementptr inbounds double, ptr %64, i64 %1204
  %1206 = load double, ptr %1205, align 8, !tbaa !58
  %1207 = load double, ptr %250, align 8, !tbaa !58
  %1208 = fmul double %1206, %1207
  %1209 = add i32 %84, %1151
  %1210 = mul i32 %1209, %51
  %1211 = add i32 %1210, %228
  %1212 = zext i32 %1211 to i64
  %1213 = getelementptr inbounds double, ptr %52, i64 %1212
  store double %1208, ptr %1213, align 8, !tbaa !58
  %1214 = load double, ptr %1194, align 8, !tbaa !58
  %1215 = load double, ptr %260, align 8, !tbaa !58
  %1216 = fmul double %1214, %1215
  %1217 = add i32 %86, %1151
  %1218 = mul i32 %1217, %51
  %1219 = add i32 %1218, %228
  %1220 = zext i32 %1219 to i64
  %1221 = getelementptr inbounds double, ptr %52, i64 %1220
  store double %1216, ptr %1221, align 8, !tbaa !58
  %1222 = load double, ptr %1205, align 8, !tbaa !58
  %1223 = load double, ptr %260, align 8, !tbaa !58
  %1224 = fmul double %1222, %1223
  %1225 = add i32 %88, %1151
  %1226 = mul i32 %1225, %51
  %1227 = add i32 %1226, %228
  %1228 = zext i32 %1227 to i64
  %1229 = getelementptr inbounds double, ptr %52, i64 %1228
  store double %1224, ptr %1229, align 8, !tbaa !58
  %1230 = add nuw nsw i64 %1149, 1
  %1231 = icmp eq i64 %1230, %94
  br i1 %1231, label %1147, label %1148, !llvm.loop !201

1232:                                             ; preds = %1147, %1248
  %1233 = phi i64 [ %1249, %1248 ], [ 0, %1147 ]
  %1234 = trunc i64 %1233 to i32
  %1235 = add i32 %1234, 2
  %1236 = mul i32 %1235, %60
  %1237 = add i32 %1236, %216
  %1238 = zext i32 %1237 to i64
  %1239 = getelementptr inbounds double, ptr %58, i64 %1238
  %1240 = add i32 %1234, 5
  %1241 = mul i32 %1235, %66
  %1242 = add i32 %1241, %216
  %1243 = zext i32 %1242 to i64
  %1244 = getelementptr inbounds double, ptr %64, i64 %1243
  br label %1251

1245:                                             ; preds = %1248, %200, %531, %1147
  %1246 = add nuw nsw i64 %201, 1
  %1247 = icmp eq i64 %1246, %92
  br i1 %1247, label %199, label %200

1248:                                             ; preds = %1251
  %1249 = add nuw nsw i64 %1233, 1
  %1250 = icmp eq i64 %1249, %95
  br i1 %1250, label %1245, label %1232

1251:                                             ; preds = %1232, %1251
  %1252 = phi i64 [ 0, %1232 ], [ %1297, %1251 ]
  %1253 = load double, ptr %1239, align 8, !tbaa !58
  %1254 = trunc i64 %1252 to i32
  %1255 = add i32 %1254, 2
  %1256 = mul i32 %1255, %60
  %1257 = add i32 %1256, %221
  %1258 = zext i32 %1257 to i64
  %1259 = getelementptr inbounds double, ptr %58, i64 %1258
  %1260 = load double, ptr %1259, align 8, !tbaa !58
  %1261 = fmul double %1253, %1260
  %1262 = add i32 %1254, 12
  %1263 = mul i32 %1262, %70
  %1264 = add i32 %1240, %1263
  %1265 = mul i32 %1264, %51
  %1266 = add i32 %1265, %228
  %1267 = zext i32 %1266 to i64
  %1268 = getelementptr inbounds double, ptr %52, i64 %1267
  store double %1261, ptr %1268, align 8, !tbaa !58
  %1269 = load double, ptr %1244, align 8, !tbaa !58
  %1270 = load double, ptr %1259, align 8, !tbaa !58
  %1271 = fmul double %1269, %1270
  %1272 = add i32 %1264, %89
  %1273 = mul i32 %1272, %51
  %1274 = add i32 %1273, %228
  %1275 = zext i32 %1274 to i64
  %1276 = getelementptr inbounds double, ptr %52, i64 %1275
  store double %1271, ptr %1276, align 8, !tbaa !58
  %1277 = load double, ptr %1239, align 8, !tbaa !58
  %1278 = mul i32 %1255, %66
  %1279 = add i32 %1278, %221
  %1280 = zext i32 %1279 to i64
  %1281 = getelementptr inbounds double, ptr %64, i64 %1280
  %1282 = load double, ptr %1281, align 8, !tbaa !58
  %1283 = fmul double %1277, %1282
  %1284 = add i32 %1264, %90
  %1285 = mul i32 %1284, %51
  %1286 = add i32 %1285, %228
  %1287 = zext i32 %1286 to i64
  %1288 = getelementptr inbounds double, ptr %52, i64 %1287
  store double %1283, ptr %1288, align 8, !tbaa !58
  %1289 = load double, ptr %1244, align 8, !tbaa !58
  %1290 = load double, ptr %1281, align 8, !tbaa !58
  %1291 = fmul double %1289, %1290
  %1292 = add i32 %1264, %91
  %1293 = mul i32 %1292, %51
  %1294 = add i32 %1293, %228
  %1295 = zext i32 %1294 to i64
  %1296 = getelementptr inbounds double, ptr %52, i64 %1295
  store double %1291, ptr %1296, align 8, !tbaa !58
  %1297 = add nuw nsw i64 %1252, 1
  %1298 = icmp eq i64 %1297, %95
  br i1 %1298, label %1248, label %1251
}

; Function Attrs: sspstrong uwtable
define weak_odr dso_local void @_ZN6dealii17FE_Q_HierarchicalILi3EE36initialize_embedding_and_restrictionERKSt6vectorINS_10FullMatrixIdEESaIS4_EES8_(ptr noundef nonnull align 8 dereferenceable(832) %0, ptr noundef nonnull align 8 dereferenceable(24) %1, ptr noundef nonnull align 8 dereferenceable(24) %2) local_unnamed_addr #0 comdat align 2 {
  %4 = getelementptr inbounds i8, ptr %0, i64 72
  %5 = load i32, ptr %4, align 8, !tbaa !41
  %6 = shl i32 %5, 1
  %7 = getelementptr inbounds i8, ptr %0, i64 76
  %8 = load i32, ptr %7, align 4, !tbaa !42
  %9 = add i32 %6, %8
  %10 = getelementptr inbounds %"class.dealii::FiniteElement", ptr %0, i64 0, i32 4
  %11 = getelementptr inbounds i8, ptr %0, i64 112
  %12 = getelementptr inbounds %"class.dealii::FiniteElement", ptr %0, i64 0, i32 3
  br label %28

13:                                               ; preds = %113
  %14 = load i32, ptr %11, align 8, !tbaa !20
  %15 = icmp eq i32 %14, 0
  br i1 %15, label %125, label %16

16:                                               ; preds = %13
  %17 = getelementptr inbounds %"class.dealii::FE_Poly", ptr %0, i64 0, i32 1, i32 2
  %18 = load ptr, ptr %2, align 8, !tbaa !64
  %19 = load ptr, ptr %17, align 8, !tbaa !8
  %20 = load ptr, ptr %10, align 8, !tbaa !202
  %21 = getelementptr inbounds %"class.std::vector.70", ptr %20, i64 6
  %22 = load ptr, ptr %21, align 8, !tbaa !64
  %23 = load ptr, ptr %1, align 8, !tbaa !64
  %24 = load ptr, ptr %12, align 8, !tbaa !202
  %25 = getelementptr inbounds %"class.std::vector.70", ptr %24, i64 6
  %26 = load ptr, ptr %25, align 8, !tbaa !64
  %27 = zext i32 %14 to i64
  br label %116

28:                                               ; preds = %3, %113
  %29 = phi i64 [ 0, %3 ], [ %114, %113 ]
  %30 = load ptr, ptr %10, align 8, !tbaa !202
  %31 = getelementptr inbounds %"class.std::vector.70", ptr %30, i64 6
  %32 = load ptr, ptr %31, align 8, !tbaa !64
  %33 = getelementptr inbounds %"class.dealii::FullMatrix", ptr %32, i64 %29
  %34 = load i32, ptr %11, align 8, !tbaa !20
  %35 = getelementptr inbounds %"class.dealii::TableBase", ptr %33, i64 0, i32 3
  %36 = zext i32 %34 to i64
  %37 = shl nuw i64 %36, 32
  %38 = or i64 %37, %36
  store i64 %38, ptr %35, align 4
  %39 = getelementptr inbounds %"class.dealii::TableBase", ptr %33, i64 0, i32 3, i32 0, i32 0, i64 1
  %40 = mul i32 %34, %34
  %41 = icmp eq i32 %40, 0
  br i1 %41, label %42, label %48

42:                                               ; preds = %28
  %43 = getelementptr inbounds %"class.dealii::TableBase", ptr %33, i64 0, i32 1
  %44 = load ptr, ptr %43, align 8, !tbaa !43
  %45 = icmp eq ptr %44, null
  br i1 %45, label %47, label %46

46:                                               ; preds = %42
  tail call void @_ZdaPv(ptr noundef nonnull %44) #18
  br label %47

47:                                               ; preds = %46, %42
  tail call void @llvm.memset.p0.i64(ptr noundef nonnull align 8 dereferenceable(20) %43, i8 0, i64 20, i1 false)
  br label %71

48:                                               ; preds = %28
  %49 = getelementptr inbounds %"class.dealii::TableBase", ptr %33, i64 0, i32 2
  %50 = load i32, ptr %49, align 8, !tbaa !129
  %51 = icmp ult i32 %50, %40
  %52 = getelementptr inbounds %"class.dealii::TableBase", ptr %33, i64 0, i32 1
  %53 = load ptr, ptr %52, align 8, !tbaa !43
  br i1 %51, label %54, label %66

54:                                               ; preds = %48
  %55 = icmp eq ptr %53, null
  br i1 %55, label %60, label %56

56:                                               ; preds = %54
  tail call void @_ZdaPv(ptr noundef nonnull %53) #18
  %57 = load i32, ptr %35, align 4, !tbaa !14
  %58 = load i32, ptr %39, align 8, !tbaa !14
  %59 = mul i32 %58, %57
  br label %60

60:                                               ; preds = %56, %54
  %61 = phi i32 [ %59, %56 ], [ %40, %54 ]
  store i32 %40, ptr %49, align 8, !tbaa !129
  %62 = zext i32 %40 to i64
  %63 = shl nuw nsw i64 %62, 3
  %64 = tail call noalias noundef nonnull ptr @_Znam(i64 noundef %63) #17
  store ptr %64, ptr %52, align 8, !tbaa !43
  %65 = icmp eq i32 %61, 0
  br i1 %65, label %71, label %66

66:                                               ; preds = %60, %48
  %67 = phi ptr [ %64, %60 ], [ %53, %48 ]
  %68 = phi i32 [ %61, %60 ], [ %40, %48 ]
  %69 = zext i32 %68 to i64
  %70 = shl nuw nsw i64 %69, 3
  tail call void @llvm.memset.p0.i64(ptr align 8 %67, i8 0, i64 %70, i1 false), !tbaa !58
  br label %71

71:                                               ; preds = %47, %60, %66
  %72 = load ptr, ptr %12, align 8, !tbaa !202
  %73 = getelementptr inbounds %"class.std::vector.70", ptr %72, i64 6
  %74 = load ptr, ptr %73, align 8, !tbaa !64
  %75 = getelementptr inbounds %"class.dealii::FullMatrix", ptr %74, i64 %29
  %76 = load i32, ptr %11, align 8, !tbaa !20
  %77 = getelementptr inbounds %"class.dealii::TableBase", ptr %75, i64 0, i32 3
  %78 = zext i32 %76 to i64
  %79 = shl nuw i64 %78, 32
  %80 = or i64 %79, %78
  store i64 %80, ptr %77, align 4
  %81 = getelementptr inbounds %"class.dealii::TableBase", ptr %75, i64 0, i32 3, i32 0, i32 0, i64 1
  %82 = mul i32 %76, %76
  %83 = icmp eq i32 %82, 0
  br i1 %83, label %84, label %90

84:                                               ; preds = %71
  %85 = getelementptr inbounds %"class.dealii::TableBase", ptr %75, i64 0, i32 1
  %86 = load ptr, ptr %85, align 8, !tbaa !43
  %87 = icmp eq ptr %86, null
  br i1 %87, label %89, label %88

88:                                               ; preds = %84
  tail call void @_ZdaPv(ptr noundef nonnull %86) #18
  br label %89

89:                                               ; preds = %88, %84
  tail call void @llvm.memset.p0.i64(ptr noundef nonnull align 8 dereferenceable(20) %85, i8 0, i64 20, i1 false)
  br label %113

90:                                               ; preds = %71
  %91 = getelementptr inbounds %"class.dealii::TableBase", ptr %75, i64 0, i32 2
  %92 = load i32, ptr %91, align 8, !tbaa !129
  %93 = icmp ult i32 %92, %82
  %94 = getelementptr inbounds %"class.dealii::TableBase", ptr %75, i64 0, i32 1
  %95 = load ptr, ptr %94, align 8, !tbaa !43
  br i1 %93, label %96, label %108

96:                                               ; preds = %90
  %97 = icmp eq ptr %95, null
  br i1 %97, label %102, label %98

98:                                               ; preds = %96
  tail call void @_ZdaPv(ptr noundef nonnull %95) #18
  %99 = load i32, ptr %77, align 4, !tbaa !14
  %100 = load i32, ptr %81, align 8, !tbaa !14
  %101 = mul i32 %100, %99
  br label %102

102:                                              ; preds = %98, %96
  %103 = phi i32 [ %101, %98 ], [ %82, %96 ]
  store i32 %82, ptr %91, align 8, !tbaa !129
  %104 = zext i32 %82 to i64
  %105 = shl nuw nsw i64 %104, 3
  %106 = tail call noalias noundef nonnull ptr @_Znam(i64 noundef %105) #17
  store ptr %106, ptr %94, align 8, !tbaa !43
  %107 = icmp eq i32 %103, 0
  br i1 %107, label %113, label %108

108:                                              ; preds = %102, %90
  %109 = phi ptr [ %106, %102 ], [ %95, %90 ]
  %110 = phi i32 [ %103, %102 ], [ %82, %90 ]
  %111 = zext i32 %110 to i64
  %112 = shl nuw nsw i64 %111, 3
  tail call void @llvm.memset.p0.i64(ptr align 8 %109, i8 0, i64 %112, i1 false), !tbaa !58
  br label %113

113:                                              ; preds = %89, %102, %108
  %114 = add nuw nsw i64 %29, 1
  %115 = icmp eq i64 %114, 8
  br i1 %115, label %13, label %28

116:                                              ; preds = %16, %135
  %117 = phi i64 [ 0, %16 ], [ %136, %135 ]
  %118 = getelementptr inbounds i32, ptr %19, i64 %117
  %119 = load i32, ptr %118, align 4, !tbaa !14
  %120 = urem i32 %119, %9
  %121 = udiv i32 %119, %9
  %122 = urem i32 %121, %9
  %123 = udiv i32 %121, %9
  %124 = trunc i64 %117 to i32
  br label %126

125:                                              ; preds = %135, %13
  ret void

126:                                              ; preds = %116, %138
  %127 = phi i64 [ 0, %116 ], [ %139, %138 ]
  %128 = getelementptr inbounds i32, ptr %19, i64 %127
  %129 = load i32, ptr %128, align 4, !tbaa !14
  %130 = urem i32 %129, %9
  %131 = udiv i32 %129, %9
  %132 = urem i32 %131, %9
  %133 = udiv i32 %131, %9
  %134 = trunc i64 %127 to i32
  br label %141

135:                                              ; preds = %138
  %136 = add nuw nsw i64 %117, 1
  %137 = icmp eq i64 %136, %27
  br i1 %137, label %125, label %116

138:                                              ; preds = %141
  %139 = add nuw nsw i64 %127, 1
  %140 = icmp eq i64 %139, %27
  br i1 %140, label %135, label %126

141:                                              ; preds = %126, %141
  %142 = phi i64 [ 0, %126 ], [ %230, %141 ]
  %143 = and i64 %142, 1
  %144 = lshr i64 %142, 1
  %145 = and i64 %144, 1
  %146 = lshr i64 %142, 2
  %147 = getelementptr inbounds %"class.dealii::FullMatrix", ptr %18, i64 %143
  %148 = getelementptr inbounds %"class.dealii::TableBase", ptr %147, i64 0, i32 1
  %149 = load ptr, ptr %148, align 8, !tbaa !43
  %150 = getelementptr inbounds %"class.dealii::TableBase", ptr %147, i64 0, i32 3, i32 0, i32 0, i64 1
  %151 = load i32, ptr %150, align 8, !tbaa !14
  %152 = mul i32 %151, %120
  %153 = add i32 %152, %130
  %154 = zext i32 %153 to i64
  %155 = getelementptr inbounds double, ptr %149, i64 %154
  %156 = load double, ptr %155, align 8, !tbaa !58
  %157 = getelementptr inbounds %"class.dealii::FullMatrix", ptr %18, i64 %145
  %158 = getelementptr inbounds %"class.dealii::TableBase", ptr %157, i64 0, i32 1
  %159 = load ptr, ptr %158, align 8, !tbaa !43
  %160 = getelementptr inbounds %"class.dealii::TableBase", ptr %157, i64 0, i32 3, i32 0, i32 0, i64 1
  %161 = load i32, ptr %160, align 8, !tbaa !14
  %162 = mul i32 %161, %122
  %163 = add i32 %162, %132
  %164 = zext i32 %163 to i64
  %165 = getelementptr inbounds double, ptr %159, i64 %164
  %166 = load double, ptr %165, align 8, !tbaa !58
  %167 = fmul double %156, %166
  %168 = and i64 %146, 1073741823
  %169 = getelementptr inbounds %"class.dealii::FullMatrix", ptr %18, i64 %168
  %170 = getelementptr inbounds %"class.dealii::TableBase", ptr %169, i64 0, i32 1
  %171 = load ptr, ptr %170, align 8, !tbaa !43
  %172 = getelementptr inbounds %"class.dealii::TableBase", ptr %169, i64 0, i32 3, i32 0, i32 0, i64 1
  %173 = load i32, ptr %172, align 8, !tbaa !14
  %174 = mul i32 %173, %123
  %175 = add i32 %174, %133
  %176 = zext i32 %175 to i64
  %177 = getelementptr inbounds double, ptr %171, i64 %176
  %178 = load double, ptr %177, align 8, !tbaa !58
  %179 = fmul double %167, %178
  %180 = getelementptr inbounds %"class.dealii::FullMatrix", ptr %22, i64 %142
  %181 = getelementptr inbounds %"class.dealii::TableBase", ptr %180, i64 0, i32 1
  %182 = load ptr, ptr %181, align 8, !tbaa !43
  %183 = getelementptr inbounds %"class.dealii::TableBase", ptr %180, i64 0, i32 3, i32 0, i32 0, i64 1
  %184 = load i32, ptr %183, align 8, !tbaa !14
  %185 = mul i32 %184, %124
  %186 = add i32 %185, %134
  %187 = zext i32 %186 to i64
  %188 = getelementptr inbounds double, ptr %182, i64 %187
  store double %179, ptr %188, align 8, !tbaa !58
  %189 = getelementptr inbounds %"class.dealii::FullMatrix", ptr %23, i64 %143
  %190 = getelementptr inbounds %"class.dealii::TableBase", ptr %189, i64 0, i32 1
  %191 = load ptr, ptr %190, align 8, !tbaa !43
  %192 = getelementptr inbounds %"class.dealii::TableBase", ptr %189, i64 0, i32 3, i32 0, i32 0, i64 1
  %193 = load i32, ptr %192, align 8, !tbaa !14
  %194 = mul i32 %193, %120
  %195 = add i32 %194, %130
  %196 = zext i32 %195 to i64
  %197 = getelementptr inbounds double, ptr %191, i64 %196
  %198 = load double, ptr %197, align 8, !tbaa !58
  %199 = getelementptr inbounds %"class.dealii::FullMatrix", ptr %23, i64 %145
  %200 = getelementptr inbounds %"class.dealii::TableBase", ptr %199, i64 0, i32 1
  %201 = load ptr, ptr %200, align 8, !tbaa !43
  %202 = getelementptr inbounds %"class.dealii::TableBase", ptr %199, i64 0, i32 3, i32 0, i32 0, i64 1
  %203 = load i32, ptr %202, align 8, !tbaa !14
  %204 = mul i32 %203, %122
  %205 = add i32 %204, %132
  %206 = zext i32 %205 to i64
  %207 = getelementptr inbounds double, ptr %201, i64 %206
  %208 = load double, ptr %207, align 8, !tbaa !58
  %209 = fmul double %198, %208
  %210 = getelementptr inbounds %"class.dealii::FullMatrix", ptr %23, i64 %168
  %211 = getelementptr inbounds %"class.dealii::TableBase", ptr %210, i64 0, i32 1
  %212 = load ptr, ptr %211, align 8, !tbaa !43
  %213 = getelementptr inbounds %"class.dealii::TableBase", ptr %210, i64 0, i32 3, i32 0, i32 0, i64 1
  %214 = load i32, ptr %213, align 8, !tbaa !14
  %215 = mul i32 %214, %123
  %216 = add i32 %215, %133
  %217 = zext i32 %216 to i64
  %218 = getelementptr inbounds double, ptr %212, i64 %217
  %219 = load double, ptr %218, align 8, !tbaa !58
  %220 = fmul double %209, %219
  %221 = getelementptr inbounds %"class.dealii::FullMatrix", ptr %26, i64 %142
  %222 = getelementptr inbounds %"class.dealii::TableBase", ptr %221, i64 0, i32 1
  %223 = load ptr, ptr %222, align 8, !tbaa !43
  %224 = getelementptr inbounds %"class.dealii::TableBase", ptr %221, i64 0, i32 3, i32 0, i32 0, i64 1
  %225 = load i32, ptr %224, align 8, !tbaa !14
