; ModuleID = 'source/fe/fe_raviart_thomas.cc'
source_filename = "source/fe/fe_raviart_thomas.cc"
target datalayout = "e-m:e-p270:32:32-p271:32:32-p272:64:64-i64:64-f80:128-n8:16:32:64-S128"
target triple = "x86_64-pc-linux-gnu"

module asm ".globl _ZSt21ios_base_library_initv"

%"class.dealii::FiniteElementData" = type { i32, i32, i32, i32, i32, i32, i32, i32, i32, i32, i32, i32, i32, i32, i32 }
%"class.std::vector.48" = type { %"struct.std::_Vector_base.49" }
%"struct.std::_Vector_base.49" = type { %"struct.std::_Vector_base<unsigned int, std::allocator<unsigned int> >::_Vector_impl" }
%"struct.std::_Vector_base<unsigned int, std::allocator<unsigned int> >::_Vector_impl" = type { %"struct.std::_Vector_base<unsigned int, std::allocator<unsigned int> >::_Vector_impl_data" }
%"struct.std::_Vector_base<unsigned int, std::allocator<unsigned int> >::_Vector_impl_data" = type { ptr, ptr, ptr }
%"class.std::vector.53" = type { %"struct.std::_Bvector_base" }
%"struct.std::_Bvector_base" = type { %"struct.std::_Bvector_base<std::allocator<bool> >::_Bvector_impl" }
%"struct.std::_Bvector_base<std::allocator<bool> >::_Bvector_impl" = type { %"struct.std::_Bvector_base<std::allocator<bool> >::_Bvector_impl_data" }
%"struct.std::_Bvector_base<std::allocator<bool> >::_Bvector_impl_data" = type { %"struct.std::_Bit_iterator", %"struct.std::_Bit_iterator", ptr }
%"struct.std::_Bit_iterator" = type { %"struct.std::_Bit_iterator_base.base", [4 x i8] }
%"struct.std::_Bit_iterator_base.base" = type <{ ptr, i32 }>
%"class.std::vector.57" = type { %"struct.std::_Vector_base.58" }
%"struct.std::_Vector_base.58" = type { %"struct.std::_Vector_base<std::vector<bool>, std::allocator<std::vector<bool> > >::_Vector_impl" }
%"struct.std::_Vector_base<std::vector<bool>, std::allocator<std::vector<bool> > >::_Vector_impl" = type { %"struct.std::_Vector_base<std::vector<bool>, std::allocator<std::vector<bool> > >::_Vector_impl_data" }
%"struct.std::_Vector_base<std::vector<bool>, std::allocator<std::vector<bool> > >::_Vector_impl_data" = type { ptr, ptr, ptr }
%"class.dealii::FullMatrix" = type { %"class.dealii::Table.base", [4 x i8] }
%"class.dealii::Table.base" = type { %"class.dealii::TableBase.base" }
%"class.dealii::TableBase.base" = type <{ %"class.dealii::Subscriptor", ptr, i32, %"class.dealii::TableIndices" }>
%"class.dealii::Subscriptor" = type { ptr, i32, %"class.std::map", ptr }
%"class.std::map" = type { %"class.std::_Rb_tree" }
%"class.std::_Rb_tree" = type { %"struct.std::_Rb_tree<const char *, std::pair<const char *const, unsigned int>, std::_Select1st<std::pair<const char *const, unsigned int> >, std::less<const char *> >::_Rb_tree_impl" }
%"struct.std::_Rb_tree<const char *, std::pair<const char *const, unsigned int>, std::_Select1st<std::pair<const char *const, unsigned int> >, std::less<const char *> >::_Rb_tree_impl" = type { %"struct.std::_Rb_tree_key_compare", %"struct.std::_Rb_tree_header" }
%"struct.std::_Rb_tree_key_compare" = type { %"struct.std::less" }
%"struct.std::less" = type { i8 }
%"struct.std::_Rb_tree_header" = type { %"struct.std::_Rb_tree_node_base", i64 }
%"struct.std::_Rb_tree_node_base" = type { i32, ptr, ptr, ptr }
%"class.dealii::TableIndices" = type { %"class.dealii::TableIndicesBase" }
%"class.dealii::TableIndicesBase" = type { [2 x i32] }
%"struct.std::_Bit_iterator_base" = type <{ ptr, i32, [4 x i8] }>
%"class.dealii::FE_RaviartThomas" = type { %"class.dealii::FE_PolyTensor", %"class.dealii::Table", %"class.dealii::Table.82" }
%"class.dealii::FE_PolyTensor" = type { %"class.dealii::FiniteElement", i32, [4 x i8], %"class.dealii::PolynomialsRaviartThomas", %"class.dealii::FullMatrix", %"class.dealii::Point", %"class.std::vector.67", %"class.std::vector.72", %"class.std::vector.77" }
%"class.dealii::FiniteElement" = type { %"class.dealii::Subscriptor", %"class.dealii::FiniteElementData", i8, %"class.std::vector", %"class.std::vector", %"class.dealii::FullMatrix", %"class.std::vector.19", %"class.std::vector.24", %"class.std::vector.19", %"class.std::vector.24", %"class.dealii::Table.29", %"class.std::vector.33", %"class.std::vector.38", %"class.std::vector.38", %"class.std::vector.43", %"class.std::vector.43", %"class.std::vector.48", %"class.std::vector.43", %"class.std::vector.53", %"class.std::vector.57", %"class.std::vector.48" }
%"class.std::vector" = type { %"struct.std::_Vector_base" }
%"struct.std::_Vector_base" = type { %"struct.std::_Vector_base<std::vector<dealii::FullMatrix<double> >, std::allocator<std::vector<dealii::FullMatrix<double> > > >::_Vector_impl" }
%"struct.std::_Vector_base<std::vector<dealii::FullMatrix<double> >, std::allocator<std::vector<dealii::FullMatrix<double> > > >::_Vector_impl" = type { %"struct.std::_Vector_base<std::vector<dealii::FullMatrix<double> >, std::allocator<std::vector<dealii::FullMatrix<double> > > >::_Vector_impl_data" }
%"struct.std::_Vector_base<std::vector<dealii::FullMatrix<double> >, std::allocator<std::vector<dealii::FullMatrix<double> > > >::_Vector_impl_data" = type { ptr, ptr, ptr }
%"class.std::vector.19" = type { %"struct.std::_Vector_base.20" }
%"struct.std::_Vector_base.20" = type { %"struct.std::_Vector_base<dealii::Point<3>, std::allocator<dealii::Point<3> > >::_Vector_impl" }
%"struct.std::_Vector_base<dealii::Point<3>, std::allocator<dealii::Point<3> > >::_Vector_impl" = type { %"struct.std::_Vector_base<dealii::Point<3>, std::allocator<dealii::Point<3> > >::_Vector_impl_data" }
%"struct.std::_Vector_base<dealii::Point<3>, std::allocator<dealii::Point<3> > >::_Vector_impl_data" = type { ptr, ptr, ptr }
%"class.std::vector.24" = type { %"struct.std::_Vector_base.25" }
%"struct.std::_Vector_base.25" = type { %"struct.std::_Vector_base<dealii::Point<2>, std::allocator<dealii::Point<2> > >::_Vector_impl" }
%"struct.std::_Vector_base<dealii::Point<2>, std::allocator<dealii::Point<2> > >::_Vector_impl" = type { %"struct.std::_Vector_base<dealii::Point<2>, std::allocator<dealii::Point<2> > >::_Vector_impl_data" }
%"struct.std::_Vector_base<dealii::Point<2>, std::allocator<dealii::Point<2> > >::_Vector_impl_data" = type { ptr, ptr, ptr }
%"class.dealii::Table.29" = type { %"class.dealii::TableBase.base.31", [4 x i8] }
%"class.dealii::TableBase.base.31" = type <{ %"class.dealii::Subscriptor", ptr, i32, %"class.dealii::TableIndices" }>
%"class.std::vector.33" = type { %"struct.std::_Vector_base.34" }
%"struct.std::_Vector_base.34" = type { %"struct.std::_Vector_base<int, std::allocator<int> >::_Vector_impl" }
%"struct.std::_Vector_base<int, std::allocator<int> >::_Vector_impl" = type { %"struct.std::_Vector_base<int, std::allocator<int> >::_Vector_impl_data" }
%"struct.std::_Vector_base<int, std::allocator<int> >::_Vector_impl_data" = type { ptr, ptr, ptr }
%"class.std::vector.38" = type { %"struct.std::_Vector_base.39" }
%"struct.std::_Vector_base.39" = type { %"struct.std::_Vector_base<std::pair<unsigned int, unsigned int>, std::allocator<std::pair<unsigned int, unsigned int> > >::_Vector_impl" }
%"struct.std::_Vector_base<std::pair<unsigned int, unsigned int>, std::allocator<std::pair<unsigned int, unsigned int> > >::_Vector_impl" = type { %"struct.std::_Vector_base<std::pair<unsigned int, unsigned int>, std::allocator<std::pair<unsigned int, unsigned int> > >::_Vector_impl_data" }
%"struct.std::_Vector_base<std::pair<unsigned int, unsigned int>, std::allocator<std::pair<unsigned int, unsigned int> > >::_Vector_impl_data" = type { ptr, ptr, ptr }
%"class.std::vector.43" = type { %"struct.std::_Vector_base.44" }
%"struct.std::_Vector_base.44" = type { %"struct.std::_Vector_base<std::pair<std::pair<unsigned int, unsigned int>, unsigned int>, std::allocator<std::pair<std::pair<unsigned int, unsigned int>, unsigned int> > >::_Vector_impl" }
%"struct.std::_Vector_base<std::pair<std::pair<unsigned int, unsigned int>, unsigned int>, std::allocator<std::pair<std::pair<unsigned int, unsigned int>, unsigned int> > >::_Vector_impl" = type { %"struct.std::_Vector_base<std::pair<std::pair<unsigned int, unsigned int>, unsigned int>, std::allocator<std::pair<std::pair<unsigned int, unsigned int>, unsigned int> > >::_Vector_impl_data" }
%"struct.std::_Vector_base<std::pair<std::pair<unsigned int, unsigned int>, unsigned int>, std::allocator<std::pair<std::pair<unsigned int, unsigned int>, unsigned int> > >::_Vector_impl_data" = type { ptr, ptr, ptr }
%"class.dealii::PolynomialsRaviartThomas" = type { i32, [4 x i8], %"class.dealii::AnisotropicPolynomials", i32, [4 x i8] }
%"class.dealii::AnisotropicPolynomials" = type <{ %"class.std::vector.62", i32, [4 x i8] }>
%"class.std::vector.62" = type { %"struct.std::_Vector_base.63" }
%"struct.std::_Vector_base.63" = type { %"struct.std::_Vector_base<std::vector<dealii::Polynomials::Polynomial<double> >, std::allocator<std::vector<dealii::Polynomials::Polynomial<double> > > >::_Vector_impl" }
%"struct.std::_Vector_base<std::vector<dealii::Polynomials::Polynomial<double> >, std::allocator<std::vector<dealii::Polynomials::Polynomial<double> > > >::_Vector_impl" = type { %"struct.std::_Vector_base<std::vector<dealii::Polynomials::Polynomial<double> >, std::allocator<std::vector<dealii::Polynomials::Polynomial<double> > > >::_Vector_impl_data" }
%"struct.std::_Vector_base<std::vector<dealii::Polynomials::Polynomial<double> >, std::allocator<std::vector<dealii::Polynomials::Polynomial<double> > > >::_Vector_impl_data" = type { ptr, ptr, ptr }
%"class.dealii::Point" = type { %"class.dealii::Tensor" }
%"class.dealii::Tensor" = type { [3 x double] }
%"class.std::vector.67" = type { %"struct.std::_Vector_base.68" }
%"struct.std::_Vector_base.68" = type { %"struct.std::_Vector_base<dealii::Tensor<1, 3>, std::allocator<dealii::Tensor<1, 3> > >::_Vector_impl" }
%"struct.std::_Vector_base<dealii::Tensor<1, 3>, std::allocator<dealii::Tensor<1, 3> > >::_Vector_impl" = type { %"struct.std::_Vector_base<dealii::Tensor<1, 3>, std::allocator<dealii::Tensor<1, 3> > >::_Vector_impl_data" }
%"struct.std::_Vector_base<dealii::Tensor<1, 3>, std::allocator<dealii::Tensor<1, 3> > >::_Vector_impl_data" = type { ptr, ptr, ptr }
%"class.std::vector.72" = type { %"struct.std::_Vector_base.73" }
%"struct.std::_Vector_base.73" = type { %"struct.std::_Vector_base<dealii::Tensor<2, 3>, std::allocator<dealii::Tensor<2, 3> > >::_Vector_impl" }
%"struct.std::_Vector_base<dealii::Tensor<2, 3>, std::allocator<dealii::Tensor<2, 3> > >::_Vector_impl" = type { %"struct.std::_Vector_base<dealii::Tensor<2, 3>, std::allocator<dealii::Tensor<2, 3> > >::_Vector_impl_data" }
%"struct.std::_Vector_base<dealii::Tensor<2, 3>, std::allocator<dealii::Tensor<2, 3> > >::_Vector_impl_data" = type { ptr, ptr, ptr }
%"class.std::vector.77" = type { %"struct.std::_Vector_base.78" }
%"struct.std::_Vector_base.78" = type { %"struct.std::_Vector_base<dealii::Tensor<3, 3>, std::allocator<dealii::Tensor<3, 3> > >::_Vector_impl" }
%"struct.std::_Vector_base<dealii::Tensor<3, 3>, std::allocator<dealii::Tensor<3, 3> > >::_Vector_impl" = type { %"struct.std::_Vector_base<dealii::Tensor<3, 3>, std::allocator<dealii::Tensor<3, 3> > >::_Vector_impl_data" }
%"struct.std::_Vector_base<dealii::Tensor<3, 3>, std::allocator<dealii::Tensor<3, 3> > >::_Vector_impl_data" = type { ptr, ptr, ptr }
%"class.dealii::Table" = type { %"class.dealii::TableBase.base", [4 x i8] }
%"class.dealii::Table.82" = type { %"class.dealii::TableBase.83" }
%"class.dealii::TableBase.83" = type { %"class.dealii::Subscriptor", ptr, i32, %"class.dealii::TableIndices.84" }
%"class.dealii::TableIndices.84" = type { %"class.dealii::TableIndicesBase.85" }
%"class.dealii::TableIndicesBase.85" = type { [3 x i32] }
%"class.dealii::TableBase" = type <{ %"class.dealii::Subscriptor", ptr, i32, %"class.dealii::TableIndices", [4 x i8] }>
%"class.dealii::QGauss" = type { %"class.dealii::Quadrature" }
%"class.dealii::Quadrature" = type { %"class.dealii::Subscriptor", i32, %"class.std::vector.19", %"class.std::vector.92" }
%"class.std::vector.92" = type { %"struct.std::_Vector_base.93" }
%"struct.std::_Vector_base.93" = type { %"struct.std::_Vector_base<double, std::allocator<double> >::_Vector_impl" }
%"struct.std::_Vector_base<double, std::allocator<double> >::_Vector_impl" = type { %"struct.std::_Vector_base<double, std::allocator<double> >::_Vector_impl_data" }
%"struct.std::_Vector_base<double, std::allocator<double> >::_Vector_impl_data" = type { ptr, ptr, ptr }
%"class.dealii::Point.102" = type { %"class.dealii::Tensor.103" }
%"class.dealii::Tensor.103" = type { [2 x double] }
%"class.dealii::QGauss.104" = type { %"class.dealii::Quadrature.105" }
%"class.dealii::Quadrature.105" = type { %"class.dealii::Subscriptor", i32, %"class.std::vector.24", %"class.std::vector.92" }
%"class.dealii::TensorProductPolynomials" = type { %"class.std::vector.106", i32, %"class.std::vector.48", %"class.std::vector.48" }
%"class.std::vector.106" = type { %"struct.std::_Vector_base.107" }
%"struct.std::_Vector_base.107" = type { %"struct.std::_Vector_base<dealii::Polynomials::Polynomial<double>, std::allocator<dealii::Polynomials::Polynomial<double> > >::_Vector_impl" }
%"struct.std::_Vector_base<dealii::Polynomials::Polynomial<double>, std::allocator<dealii::Polynomials::Polynomial<double> > >::_Vector_impl" = type { %"struct.std::_Vector_base<dealii::Polynomials::Polynomial<double>, std::allocator<dealii::Polynomials::Polynomial<double> > >::_Vector_impl_data" }
%"struct.std::_Vector_base<dealii::Polynomials::Polynomial<double>, std::allocator<dealii::Polynomials::Polynomial<double> > >::_Vector_impl_data" = type { ptr, ptr, ptr }
%"class.dealii::QProjector<3>::DataSetDescriptor" = type { i32 }
%"class.dealii::Polynomials::Polynomial" = type { %"class.dealii::Subscriptor", %"class.std::vector.92" }
%"class.dealii::RefinementCase" = type { i8 }
%"class.dealii::RefinementCase.116" = type { i8 }
%"class.std::vector.118" = type { %"struct.std::_Vector_base.119" }
%"struct.std::_Vector_base.119" = type { %"struct.std::_Vector_base<dealii::FullMatrix<double>, std::allocator<dealii::FullMatrix<double> > >::_Vector_impl" }
%"struct.std::_Vector_base<dealii::FullMatrix<double>, std::allocator<dealii::FullMatrix<double> > >::_Vector_impl" = type { %"struct.std::_Vector_base<dealii::FullMatrix<double>, std::allocator<dealii::FullMatrix<double> > >::_Vector_impl_data" }
%"struct.std::_Vector_base<dealii::FullMatrix<double>, std::allocator<dealii::FullMatrix<double> > >::_Vector_impl_data" = type { ptr, ptr, ptr }
%"class.std::__cxx11::basic_string" = type { %"struct.std::__cxx11::basic_string<char>::_Alloc_hider", i64, %union.anon }
%"struct.std::__cxx11::basic_string<char>::_Alloc_hider" = type { ptr }
%union.anon = type { i64, [8 x i8] }
%"class.std::__cxx11::basic_ostringstream" = type { %"class.std::basic_ostream.base", %"class.std::__cxx11::basic_stringbuf", %"class.std::basic_ios" }
%"class.std::basic_ostream.base" = type { ptr }
%"class.std::__cxx11::basic_stringbuf" = type { %"class.std::basic_streambuf", i32, %"class.std::__cxx11::basic_string" }
%"class.std::basic_streambuf" = type { ptr, ptr, ptr, ptr, ptr, ptr, ptr, %"class.std::locale" }
%"class.std::locale" = type { ptr }
%"class.std::basic_ios" = type { %"class.std::ios_base", ptr, i8, i8, ptr, ptr, ptr, ptr }
%"class.std::ios_base" = type { ptr, i64, i64, i32, i32, i32, ptr, %"struct.std::ios_base::_Words", [8 x %"struct.std::ios_base::_Words"], i32, ptr, %"class.std::locale" }
%"struct.std::ios_base::_Words" = type { ptr, i64 }
%"class.dealii::Vector" = type { %"class.dealii::Subscriptor", i32, i32, ptr }
%"class.dealii::VectorSlice" = type { ptr, i32, i32 }
%"class.dealii::Tensor.123" = type { [3 x %"class.dealii::Tensor"] }
%"class.dealii::FE_RaviartThomas<3>::InternalData" = type { %"class.dealii::FiniteElement<3, 3>::InternalDataBase", %"class.std::vector.147", %"class.std::vector.152" }
%"class.dealii::FiniteElement<3, 3>::InternalDataBase" = type { %"class.dealii::Mapping<3, 3>::InternalDataBase.base", %"class.std::vector.142" }
%"class.dealii::Mapping<3, 3>::InternalDataBase.base" = type <{ %"class.dealii::Subscriptor", i32, i32, i32, [4 x i8], %"class.std::vector.92", %"class.std::vector.19", %"class.std::vector.72", %"class.std::vector.72", i8 }>
%"class.std::vector.142" = type { %"struct.std::_Vector_base.143" }
%"struct.std::_Vector_base.143" = type { %"struct.std::_Vector_base<dealii::FEValues<3, 3> *, std::allocator<dealii::FEValues<3, 3> *> >::_Vector_impl" }
%"struct.std::_Vector_base<dealii::FEValues<3, 3> *, std::allocator<dealii::FEValues<3, 3> *> >::_Vector_impl" = type { %"struct.std::_Vector_base<dealii::FEValues<3, 3> *, std::allocator<dealii::FEValues<3, 3> *> >::_Vector_impl_data" }
%"struct.std::_Vector_base<dealii::FEValues<3, 3> *, std::allocator<dealii::FEValues<3, 3> *> >::_Vector_impl_data" = type { ptr, ptr, ptr }
%"class.std::vector.147" = type { %"struct.std::_Vector_base.148" }
%"struct.std::_Vector_base.148" = type { %"struct.std::_Vector_base<std::vector<dealii::Tensor<1, 3> >, std::allocator<std::vector<dealii::Tensor<1, 3> > > >::_Vector_impl" }
%"struct.std::_Vector_base<std::vector<dealii::Tensor<1, 3> >, std::allocator<std::vector<dealii::Tensor<1, 3> > > >::_Vector_impl" = type { %"struct.std::_Vector_base<std::vector<dealii::Tensor<1, 3> >, std::allocator<std::vector<dealii::Tensor<1, 3> > > >::_Vector_impl_data" }
%"struct.std::_Vector_base<std::vector<dealii::Tensor<1, 3> >, std::allocator<std::vector<dealii::Tensor<1, 3> > > >::_Vector_impl_data" = type { ptr, ptr, ptr }
%"class.std::vector.152" = type { %"struct.std::_Vector_base.153" }
%"struct.std::_Vector_base.153" = type { %"struct.std::_Vector_base<std::vector<dealii::Tensor<2, 3> >, std::allocator<std::vector<dealii::Tensor<2, 3> > > >::_Vector_impl" }
%"struct.std::_Vector_base<std::vector<dealii::Tensor<2, 3> >, std::allocator<std::vector<dealii::Tensor<2, 3> > > >::_Vector_impl" = type { %"struct.std::_Vector_base<std::vector<dealii::Tensor<2, 3> >, std::allocator<std::vector<dealii::Tensor<2, 3> > > >::_Vector_impl_data" }
%"struct.std::_Vector_base<std::vector<dealii::Tensor<2, 3> >, std::allocator<std::vector<dealii::Tensor<2, 3> > > >::_Vector_impl_data" = type { ptr, ptr, ptr }
%"class.dealii::Mapping<3, 3>::InternalDataBase" = type <{ %"class.dealii::Subscriptor", i32, i32, i32, [4 x i8], %"class.std::vector.92", %"class.std::vector.19", %"class.std::vector.72", %"class.std::vector.72", i8, [7 x i8] }>
%"struct.std::pair" = type { i32, i32 }
%"struct.std::pair.131" = type { %"struct.std::pair", i32 }
%"class.dealii::Tensor.141" = type { [3 x %"class.dealii::Tensor.123"] }
%"class.dealii::TableBase.30" = type <{ %"class.dealii::Subscriptor", ptr, i32, %"class.dealii::TableIndices", [4 x i8] }>

$_ZN6dealii16FE_RaviartThomasILi3EEC5Ej = comdat any

$_ZN6dealii16FE_RaviartThomasILi3EE14get_dpo_vectorEj = comdat any

$_ZNSt6vectorIS_IbSaIbEESaIS1_EED2Ev = comdat any

$__clang_call_terminate = comdat any

$_ZNSt13_Bvector_baseISaIbEED2Ev = comdat any

$_ZN6dealii16FE_RaviartThomasILi3EE25initialize_support_pointsEj = comdat any

$_ZN6dealii16FE_RaviartThomasILi3EE22initialize_restrictionEv = comdat any

$_ZN6dealii9TableBaseILi2EdED2Ev = comdat any

$_ZNK6dealii16FE_RaviartThomasILi3EE8get_nameB5cxx11Ev = comdat any

$_ZNK6dealii16FE_RaviartThomasILi3EE19has_support_on_faceEjj = comdat any

$_ZNK6dealii16FE_RaviartThomasILi3EE11interpolateERSt6vectorIdSaIdEERKS4_ = comdat any

$_ZNK6dealii16FE_RaviartThomasILi3EE11interpolateERSt6vectorIdSaIdEERKS2_INS_6VectorIdEESaIS7_EEj = comdat any

$_ZNK6dealii16FE_RaviartThomasILi3EE11interpolateERSt6vectorIdSaIdEERKNS_11VectorSliceIKS2_IS4_SaIS4_EEEE = comdat any

$_ZNK6dealii16FE_RaviartThomasILi3EE18memory_consumptionEv = comdat any

$_ZNK6dealii16FE_RaviartThomasILi3EE5cloneEv = comdat any

$_ZN6dealii24TensorProductPolynomialsILi2EEC2INS_11Polynomials10PolynomialIdEEEERKSt6vectorIT_SaIS7_EE = comdat any

$_ZNSt6vectorIN6dealii11Polynomials10PolynomialIdEESaIS3_EED2Ev = comdat any

$_ZN6dealii24TensorProductPolynomialsILi2EED2Ev = comdat any

$_ZNSt6vectorIN6dealii11Polynomials10PolynomialIdEESaIS3_EEaSERKS5_ = comdat any

$_ZNSt6vectorIS_IN6dealii11Polynomials10PolynomialIdEESaIS3_EESaIS5_EED2Ev = comdat any

$_ZN6dealii16FE_RaviartThomasILi3EED2Ev = comdat any

$_ZN6dealii16FE_RaviartThomasILi3EED0Ev = comdat any

$_ZN6dealii16FE_RaviartThomasILi3EE12InternalDataD2Ev = comdat any

$_ZN6dealii16FE_RaviartThomasILi3EE12InternalDataD0Ev = comdat any

$_ZN6dealii7MappingILi3ELi3EE16InternalDataBase16clear_first_cellEv = comdat any

$_ZN6dealii9TableBaseILi2EdED0Ev = comdat any

$_ZN6dealii9TableBaseILi3EdED2Ev = comdat any

$_ZN6dealii9TableBaseILi3EdED0Ev = comdat any

$_ZN6dealii13FE_PolyTensorINS_24PolynomialsRaviartThomasILi3EEELi3ELi3EED2Ev = comdat any

$_ZN6dealii13FE_PolyTensorINS_24PolynomialsRaviartThomasILi3EEELi3ELi3EED0Ev = comdat any

$_ZN6dealii13FE_PolyTensorINS_24PolynomialsRaviartThomasILi3EEELi3ELi3EEC2ERKS3_ = comdat any

$_ZN6dealii13FiniteElementILi3ELi3EEC2ERKS1_ = comdat any

$_ZNSt6vectorIN6dealii6TensorILi3ELi3EEESaIS2_EEC2ERKS4_ = comdat any

$_ZNSt6vectorIbSaIbEEC2ERKS1_ = comdat any

$_ZN6dealii9TableBaseILi2EiED2Ev = comdat any

$_ZNSt6vectorIS_IN6dealii10FullMatrixIdEESaIS2_EESaIS4_EED2Ev = comdat any

$_ZNSt20__uninitialized_copyILb0EE13__uninit_copyIN9__gnu_cxx17__normal_iteratorIPKSt6vectorIN6dealii10FullMatrixIdEESaIS7_EES4_IS9_SaIS9_EEEEPS9_EET0_T_SH_SG_ = comdat any

$_ZNSt6vectorIN6dealii10FullMatrixIdEESaIS2_EEC2ERKS4_ = comdat any

$_ZN6dealii9TableBaseILi2EiEC2ERKS1_ = comdat any

$_ZN6dealii5TableILi2EiED0Ev = comdat any

$_ZN6dealii9TableBaseILi2EiED0Ev = comdat any

$_ZNSt20__uninitialized_copyILb0EE13__uninit_copyIN9__gnu_cxx17__normal_iteratorIPKSt6vectorIbSaIbEES4_IS6_SaIS6_EEEEPS6_EET0_T_SE_SD_ = comdat any

$_ZSt16__do_uninit_copyIN9__gnu_cxx17__normal_iteratorIPKSt6vectorIN6dealii11Polynomials10PolynomialIdEESaIS6_EES2_IS8_SaIS8_EEEEPS8_ET0_T_SG_SF_ = comdat any

$_ZSt8_DestroyIPSt6vectorIN6dealii11Polynomials10PolynomialIdEESaIS4_EEEvT_S8_ = comdat any

$_ZSt16__do_uninit_copyIN9__gnu_cxx17__normal_iteratorIPKN6dealii11Polynomials10PolynomialIdEESt6vectorIS5_SaIS5_EEEEPS5_ET0_T_SE_SD_ = comdat any

$_ZN6dealii11Polynomials10PolynomialIdED2Ev = comdat any

$_ZN6dealii11Polynomials10PolynomialIdED0Ev = comdat any

$_ZN6dealii9TableBaseILi2EdEC2ERKS1_ = comdat any

$_ZN6dealii5TableILi2EdED0Ev = comdat any

$_ZN6dealii9TableBaseILi3EdEC2ERKS1_ = comdat any

$_ZN6dealii5TableILi3EdED0Ev = comdat any

$_ZNSt22__uninitialized_fill_nILb0EE15__uninit_fill_nIPSt6vectorIbSaIbEEmS4_EET_S6_T0_RKT1_ = comdat any

$_ZNSt6vectorIN6dealii5PointILi3EEESaIS2_EE14_M_fill_insertEN9__gnu_cxx17__normal_iteratorIPS2_S4_EEmRKS2_ = comdat any

$_ZNSt6vectorIN6dealii5PointILi2EEESaIS2_EE14_M_fill_insertEN9__gnu_cxx17__normal_iteratorIPS2_S4_EEmRKS2_ = comdat any

$_ZSt18__do_uninit_fill_nIPSt6vectorIN6dealii11Polynomials10PolynomialIdEESaIS4_EEmS6_ET_S8_T0_RKT1_ = comdat any

$_ZNSt6vectorIN6dealii11Polynomials10PolynomialIdEESaIS3_EE20_M_allocate_and_copyIN9__gnu_cxx17__normal_iteratorIPKS3_S5_EEEEPS3_mT_SD_ = comdat any

$_ZNSt6vectorIdSaIdEEaSERKS1_ = comdat any

$_ZSt16__do_uninit_copyIPN6dealii11Polynomials10PolynomialIdEES4_ET0_T_S6_S5_ = comdat any

$_ZTVN6dealii16FE_RaviartThomasILi3EEE = comdat any

$_ZTSN6dealii16FE_RaviartThomasILi3EEE = comdat any

$_ZTSN6dealii13FE_PolyTensorINS_24PolynomialsRaviartThomasILi3EEELi3ELi3EEE = comdat any

$_ZTSN6dealii13FiniteElementILi3ELi3EEE = comdat any

$_ZTSN6dealii17FiniteElementDataILi3EEE = comdat any

$_ZTIN6dealii17FiniteElementDataILi3EEE = comdat any

$_ZTIN6dealii13FiniteElementILi3ELi3EEE = comdat any

$_ZTIN6dealii13FE_PolyTensorINS_24PolynomialsRaviartThomasILi3EEELi3ELi3EEE = comdat any

$_ZTIN6dealii16FE_RaviartThomasILi3EEE = comdat any

$_ZTVN6dealii16FE_RaviartThomasILi3EE12InternalDataE = comdat any

$_ZTSN6dealii16FE_RaviartThomasILi3EE12InternalDataE = comdat any

$_ZTSN6dealii13FiniteElementILi3ELi3EE16InternalDataBaseE = comdat any

$_ZTSN6dealii7MappingILi3ELi3EE16InternalDataBaseE = comdat any

$_ZTIN6dealii7MappingILi3ELi3EE16InternalDataBaseE = comdat any

$_ZTIN6dealii13FiniteElementILi3ELi3EE16InternalDataBaseE = comdat any

$_ZTIN6dealii16FE_RaviartThomasILi3EE12InternalDataE = comdat any

$_ZTVN6dealii9TableBaseILi2EdEE = comdat any

$_ZTSN6dealii9TableBaseILi2EdEE = comdat any

$_ZTIN6dealii9TableBaseILi2EdEE = comdat any

$_ZTVN6dealii9TableBaseILi3EdEE = comdat any

$_ZTSN6dealii9TableBaseILi3EdEE = comdat any

$_ZTIN6dealii9TableBaseILi3EdEE = comdat any

$_ZTVN6dealii13FE_PolyTensorINS_24PolynomialsRaviartThomasILi3EEELi3ELi3EEE = comdat any

$_ZTVN6dealii13FiniteElementILi3ELi3EEE = comdat any

$_ZTVN6dealii5TableILi2EiEE = comdat any

$_ZTSN6dealii5TableILi2EiEE = comdat any

$_ZTSN6dealii9TableBaseILi2EiEE = comdat any

$_ZTIN6dealii9TableBaseILi2EiEE = comdat any

$_ZTIN6dealii5TableILi2EiEE = comdat any

$_ZTVN6dealii9TableBaseILi2EiEE = comdat any

$_ZTVN6dealii11Polynomials10PolynomialIdEE = comdat any

$_ZTSN6dealii11Polynomials10PolynomialIdEE = comdat any

$_ZTIN6dealii11Polynomials10PolynomialIdEE = comdat any

$_ZTVN6dealii5TableILi2EdEE = comdat any

$_ZTSN6dealii5TableILi2EdEE = comdat any

$_ZTIN6dealii5TableILi2EdEE = comdat any

$_ZTVN6dealii5TableILi3EdEE = comdat any

$_ZTSN6dealii5TableILi3EdEE = comdat any

$_ZTIN6dealii5TableILi3EdEE = comdat any

@_ZTVN6dealii16FE_RaviartThomasILi3EEE = weak_odr dso_local unnamed_addr constant { [38 x ptr] } { [38 x ptr] [ptr null, ptr @_ZTIN6dealii16FE_RaviartThomasILi3EEE, ptr @_ZN6dealii16FE_RaviartThomasILi3EED2Ev, ptr @_ZN6dealii16FE_RaviartThomasILi3EED0Ev, ptr @_ZNK6dealii16FE_RaviartThomasILi3EE8get_nameB5cxx11Ev, ptr @_ZNK6dealii13FE_PolyTensorINS_24PolynomialsRaviartThomasILi3EEELi3ELi3EE11shape_valueEjRKNS_5PointILi3EEE, ptr @_ZNK6dealii13FE_PolyTensorINS_24PolynomialsRaviartThomasILi3EEELi3ELi3EE21shape_value_componentEjRKNS_5PointILi3EEEj, ptr @_ZNK6dealii13FE_PolyTensorINS_24PolynomialsRaviartThomasILi3EEELi3ELi3EE10shape_gradEjRKNS_5PointILi3EEE, ptr @_ZNK6dealii13FE_PolyTensorINS_24PolynomialsRaviartThomasILi3EEELi3ELi3EE20shape_grad_componentEjRKNS_5PointILi3EEEj, ptr @_ZNK6dealii13FE_PolyTensorINS_24PolynomialsRaviartThomasILi3EEELi3ELi3EE15shape_grad_gradEjRKNS_5PointILi3EEE, ptr @_ZNK6dealii13FE_PolyTensorINS_24PolynomialsRaviartThomasILi3EEELi3ELi3EE25shape_grad_grad_componentEjRKNS_5PointILi3EEEj, ptr @_ZNK6dealii16FE_RaviartThomasILi3EE19has_support_on_faceEjj, ptr @_ZNK6dealii13FiniteElementILi3ELi3EE30hp_constraints_are_implementedEv, ptr @_ZNK6dealii13FiniteElementILi3ELi3EE24get_interpolation_matrixERKS1_RNS_10FullMatrixIdEE, ptr @_ZNK6dealii13FiniteElementILi3ELi3EE29get_face_interpolation_matrixERKS1_RNS_10FullMatrixIdEE, ptr @_ZNK6dealii13FiniteElementILi3ELi3EE32get_subface_interpolation_matrixERKS1_jRNS_10FullMatrixIdEE, ptr @_ZNK6dealii13FiniteElementILi3ELi3EE24hp_vertex_dof_identitiesERKS1_, ptr @_ZNK6dealii13FiniteElementILi3ELi3EE22hp_line_dof_identitiesERKS1_, ptr @_ZNK6dealii13FiniteElementILi3ELi3EE22hp_quad_dof_identitiesERKS1_, ptr @_ZNK6dealii13FiniteElementILi3ELi3EE27compare_for_face_dominationERKS1_, ptr @_ZNK6dealii13FE_PolyTensorINS_24PolynomialsRaviartThomasILi3EEELi3ELi3EE15n_base_elementsEv, ptr @_ZNK6dealii13FE_PolyTensorINS_24PolynomialsRaviartThomasILi3EEELi3ELi3EE12base_elementEj, ptr @_ZNK6dealii13FE_PolyTensorINS_24PolynomialsRaviartThomasILi3EEELi3ELi3EE20element_multiplicityEj, ptr @_ZNK6dealii13FiniteElementILi3ELi3EE18unit_support_pointEj, ptr @_ZNK6dealii13FiniteElementILi3ELi3EE23unit_face_support_pointEj, ptr @_ZNK6dealii16FE_RaviartThomasILi3EE11interpolateERSt6vectorIdSaIdEERKS4_, ptr @_ZNK6dealii16FE_RaviartThomasILi3EE11interpolateERSt6vectorIdSaIdEERKS2_INS_6VectorIdEESaIS7_EEj, ptr @_ZNK6dealii16FE_RaviartThomasILi3EE11interpolateERSt6vectorIdSaIdEERKNS_11VectorSliceIKS2_IS4_SaIS4_EEEE, ptr @_ZNK6dealii16FE_RaviartThomasILi3EE18memory_consumptionEv, ptr @_ZNK6dealii13FE_PolyTensorINS_24PolynomialsRaviartThomasILi3EEELi3ELi3EE11update_onceENS_11UpdateFlagsE, ptr @_ZNK6dealii13FE_PolyTensorINS_24PolynomialsRaviartThomasILi3EEELi3ELi3EE11update_eachENS_11UpdateFlagsE, ptr @_ZNK6dealii16FE_RaviartThomasILi3EE5cloneEv, ptr @_ZNK6dealii13FE_PolyTensorINS_24PolynomialsRaviartThomasILi3EEELi3ELi3EE8get_dataENS_11UpdateFlagsERKNS_7MappingILi3ELi3EEERKNS_10QuadratureILi3EEE, ptr @_ZNK6dealii13FiniteElementILi3ELi3EE13get_face_dataENS_11UpdateFlagsERKNS_7MappingILi3ELi3EEERKNS_10QuadratureILi2EEE, ptr @_ZNK6dealii13FiniteElementILi3ELi3EE16get_subface_dataENS_11UpdateFlagsERKNS_7MappingILi3ELi3EEERKNS_10QuadratureILi2EEE, ptr @_ZNK6dealii13FE_PolyTensorINS_24PolynomialsRaviartThomasILi3EEELi3ELi3EE14fill_fe_valuesERKNS_7MappingILi3ELi3EEERKNS_12TriaIteratorINS_12CellAccessorILi3ELi3EEEEERKNS_10QuadratureILi3EEERNS5_16InternalDataBaseESJ_RNS_12FEValuesDataILi3ELi3EEERNS_14CellSimilarity10SimilarityE, ptr @_ZNK6dealii13FE_PolyTensorINS_24PolynomialsRaviartThomasILi3EEELi3ELi3EE19fill_fe_face_valuesERKNS_7MappingILi3ELi3EEERKNS_12TriaIteratorINS_12CellAccessorILi3ELi3EEEEEjRKNS_10QuadratureILi2EEERNS5_16InternalDataBaseESJ_RNS_12FEValuesDataILi3ELi3EEE, ptr @_ZNK6dealii13FE_PolyTensorINS_24PolynomialsRaviartThomasILi3EEELi3ELi3EE22fill_fe_subface_valuesERKNS_7MappingILi3ELi3EEERKNS_12TriaIteratorINS_12CellAccessorILi3ELi3EEEEEjjRKNS_10QuadratureILi2EEERNS5_16InternalDataBaseESJ_RNS_12FEValuesDataILi3ELi3EEE] }, comdat, align 8
@.str = private unnamed_addr constant [18 x i8] c"FE_RaviartThomas<\00", align 1
@.str.9 = private unnamed_addr constant [3 x i8] c">(\00", align 1
@.str.10 = private unnamed_addr constant [2 x i8] c")\00", align 1
@_ZN6dealii12GeometryInfoILi3EE21unit_normal_directionE = external local_unnamed_addr constant [6 x i32], align 16
@_ZTVN10__cxxabiv120__si_class_type_infoE = external global ptr
@_ZTSN6dealii16FE_RaviartThomasILi3EEE = weak_odr dso_local constant [34 x i8] c"N6dealii16FE_RaviartThomasILi3EEE\00", comdat, align 1
@_ZTSN6dealii13FE_PolyTensorINS_24PolynomialsRaviartThomasILi3EEELi3ELi3EEE = linkonce_odr dso_local constant [71 x i8] c"N6dealii13FE_PolyTensorINS_24PolynomialsRaviartThomasILi3EEELi3ELi3EEE\00", comdat, align 1
@_ZTVN10__cxxabiv121__vmi_class_type_infoE = external global ptr
@_ZTSN6dealii13FiniteElementILi3ELi3EEE = linkonce_odr dso_local constant [35 x i8] c"N6dealii13FiniteElementILi3ELi3EEE\00", comdat, align 1
@_ZTIN6dealii11SubscriptorE = external constant ptr
@_ZTVN10__cxxabiv117__class_type_infoE = external global ptr
@_ZTSN6dealii17FiniteElementDataILi3EEE = linkonce_odr dso_local constant [35 x i8] c"N6dealii17FiniteElementDataILi3EEE\00", comdat, align 1
@_ZTIN6dealii17FiniteElementDataILi3EEE = linkonce_odr dso_local constant { ptr, ptr } { ptr getelementptr inbounds (ptr, ptr @_ZTVN10__cxxabiv117__class_type_infoE, i64 2), ptr @_ZTSN6dealii17FiniteElementDataILi3EEE }, comdat, align 8
@_ZTIN6dealii13FiniteElementILi3ELi3EEE = linkonce_odr dso_local constant { ptr, ptr, i32, i32, ptr, i64, ptr, i64 } { ptr getelementptr inbounds (ptr, ptr @_ZTVN10__cxxabiv121__vmi_class_type_infoE, i64 2), ptr @_ZTSN6dealii13FiniteElementILi3ELi3EEE, i32 0, i32 2, ptr @_ZTIN6dealii11SubscriptorE, i64 2, ptr @_ZTIN6dealii17FiniteElementDataILi3EEE, i64 18434 }, comdat, align 8
@_ZTIN6dealii13FE_PolyTensorINS_24PolynomialsRaviartThomasILi3EEELi3ELi3EEE = linkonce_odr dso_local constant { ptr, ptr, ptr } { ptr getelementptr inbounds (ptr, ptr @_ZTVN10__cxxabiv120__si_class_type_infoE, i64 2), ptr @_ZTSN6dealii13FE_PolyTensorINS_24PolynomialsRaviartThomasILi3EEELi3ELi3EEE, ptr @_ZTIN6dealii13FiniteElementILi3ELi3EEE }, comdat, align 8
@_ZTIN6dealii16FE_RaviartThomasILi3EEE = weak_odr dso_local constant { ptr, ptr, ptr } { ptr getelementptr inbounds (ptr, ptr @_ZTVN10__cxxabiv120__si_class_type_infoE, i64 2), ptr @_ZTSN6dealii16FE_RaviartThomasILi3EEE, ptr @_ZTIN6dealii13FE_PolyTensorINS_24PolynomialsRaviartThomasILi3EEELi3ELi3EEE }, comdat, align 8
@_ZTVN6dealii16FE_RaviartThomasILi3EE12InternalDataE = weak_odr dso_local unnamed_addr constant { [6 x ptr] } { [6 x ptr] [ptr null, ptr @_ZTIN6dealii16FE_RaviartThomasILi3EE12InternalDataE, ptr @_ZN6dealii16FE_RaviartThomasILi3EE12InternalDataD2Ev, ptr @_ZN6dealii16FE_RaviartThomasILi3EE12InternalDataD0Ev, ptr @_ZN6dealii7MappingILi3ELi3EE16InternalDataBase16clear_first_cellEv, ptr @_ZNK6dealii7MappingILi3ELi3EE16InternalDataBase18memory_consumptionEv] }, comdat, align 8
@_ZTSN6dealii16FE_RaviartThomasILi3EE12InternalDataE = weak_odr dso_local constant [48 x i8] c"N6dealii16FE_RaviartThomasILi3EE12InternalDataE\00", comdat, align 1
@_ZTSN6dealii13FiniteElementILi3ELi3EE16InternalDataBaseE = linkonce_odr dso_local constant [53 x i8] c"N6dealii13FiniteElementILi3ELi3EE16InternalDataBaseE\00", comdat, align 1
@_ZTSN6dealii7MappingILi3ELi3EE16InternalDataBaseE = linkonce_odr dso_local constant [46 x i8] c"N6dealii7MappingILi3ELi3EE16InternalDataBaseE\00", comdat, align 1
@_ZTIN6dealii7MappingILi3ELi3EE16InternalDataBaseE = linkonce_odr dso_local constant { ptr, ptr, ptr } { ptr getelementptr inbounds (ptr, ptr @_ZTVN10__cxxabiv120__si_class_type_infoE, i64 2), ptr @_ZTSN6dealii7MappingILi3ELi3EE16InternalDataBaseE, ptr @_ZTIN6dealii11SubscriptorE }, comdat, align 8
@_ZTIN6dealii13FiniteElementILi3ELi3EE16InternalDataBaseE = linkonce_odr dso_local constant { ptr, ptr, ptr } { ptr getelementptr inbounds (ptr, ptr @_ZTVN10__cxxabiv120__si_class_type_infoE, i64 2), ptr @_ZTSN6dealii13FiniteElementILi3ELi3EE16InternalDataBaseE, ptr @_ZTIN6dealii7MappingILi3ELi3EE16InternalDataBaseE }, comdat, align 8
@_ZTIN6dealii16FE_RaviartThomasILi3EE12InternalDataE = weak_odr dso_local constant { ptr, ptr, ptr } { ptr getelementptr inbounds (ptr, ptr @_ZTVN10__cxxabiv120__si_class_type_infoE, i64 2), ptr @_ZTSN6dealii16FE_RaviartThomasILi3EE12InternalDataE, ptr @_ZTIN6dealii13FiniteElementILi3ELi3EE16InternalDataBaseE }, comdat, align 8
@_ZTVN6dealii9TableBaseILi2EdEE = linkonce_odr dso_local unnamed_addr constant { [4 x ptr] } { [4 x ptr] [ptr null, ptr @_ZTIN6dealii9TableBaseILi2EdEE, ptr @_ZN6dealii9TableBaseILi2EdED2Ev, ptr @_ZN6dealii9TableBaseILi2EdED0Ev] }, comdat, align 8
@_ZTSN6dealii9TableBaseILi2EdEE = linkonce_odr dso_local constant [27 x i8] c"N6dealii9TableBaseILi2EdEE\00", comdat, align 1
@_ZTIN6dealii9TableBaseILi2EdEE = linkonce_odr dso_local constant { ptr, ptr, ptr } { ptr getelementptr inbounds (ptr, ptr @_ZTVN10__cxxabiv120__si_class_type_infoE, i64 2), ptr @_ZTSN6dealii9TableBaseILi2EdEE, ptr @_ZTIN6dealii11SubscriptorE }, comdat, align 8
@_ZTVN6dealii9TableBaseILi3EdEE = linkonce_odr dso_local unnamed_addr constant { [4 x ptr] } { [4 x ptr] [ptr null, ptr @_ZTIN6dealii9TableBaseILi3EdEE, ptr @_ZN6dealii9TableBaseILi3EdED2Ev, ptr @_ZN6dealii9TableBaseILi3EdED0Ev] }, comdat, align 8
@_ZTSN6dealii9TableBaseILi3EdEE = linkonce_odr dso_local constant [27 x i8] c"N6dealii9TableBaseILi3EdEE\00", comdat, align 1
@_ZTIN6dealii9TableBaseILi3EdEE = linkonce_odr dso_local constant { ptr, ptr, ptr } { ptr getelementptr inbounds (ptr, ptr @_ZTVN10__cxxabiv120__si_class_type_infoE, i64 2), ptr @_ZTSN6dealii9TableBaseILi3EdEE, ptr @_ZTIN6dealii11SubscriptorE }, comdat, align 8
@_ZTVN6dealii13FE_PolyTensorINS_24PolynomialsRaviartThomasILi3EEELi3ELi3EEE = linkonce_odr dso_local unnamed_addr constant { [38 x ptr] } { [38 x ptr] [ptr null, ptr @_ZTIN6dealii13FE_PolyTensorINS_24PolynomialsRaviartThomasILi3EEELi3ELi3EEE, ptr @_ZN6dealii13FE_PolyTensorINS_24PolynomialsRaviartThomasILi3EEELi3ELi3EED2Ev, ptr @_ZN6dealii13FE_PolyTensorINS_24PolynomialsRaviartThomasILi3EEELi3ELi3EED0Ev, ptr @__cxa_pure_virtual, ptr @_ZNK6dealii13FE_PolyTensorINS_24PolynomialsRaviartThomasILi3EEELi3ELi3EE11shape_valueEjRKNS_5PointILi3EEE, ptr @_ZNK6dealii13FE_PolyTensorINS_24PolynomialsRaviartThomasILi3EEELi3ELi3EE21shape_value_componentEjRKNS_5PointILi3EEEj, ptr @_ZNK6dealii13FE_PolyTensorINS_24PolynomialsRaviartThomasILi3EEELi3ELi3EE10shape_gradEjRKNS_5PointILi3EEE, ptr @_ZNK6dealii13FE_PolyTensorINS_24PolynomialsRaviartThomasILi3EEELi3ELi3EE20shape_grad_componentEjRKNS_5PointILi3EEEj, ptr @_ZNK6dealii13FE_PolyTensorINS_24PolynomialsRaviartThomasILi3EEELi3ELi3EE15shape_grad_gradEjRKNS_5PointILi3EEE, ptr @_ZNK6dealii13FE_PolyTensorINS_24PolynomialsRaviartThomasILi3EEELi3ELi3EE25shape_grad_grad_componentEjRKNS_5PointILi3EEEj, ptr @_ZNK6dealii13FiniteElementILi3ELi3EE19has_support_on_faceEjj, ptr @_ZNK6dealii13FiniteElementILi3ELi3EE30hp_constraints_are_implementedEv, ptr @_ZNK6dealii13FiniteElementILi3ELi3EE24get_interpolation_matrixERKS1_RNS_10FullMatrixIdEE, ptr @_ZNK6dealii13FiniteElementILi3ELi3EE29get_face_interpolation_matrixERKS1_RNS_10FullMatrixIdEE, ptr @_ZNK6dealii13FiniteElementILi3ELi3EE32get_subface_interpolation_matrixERKS1_jRNS_10FullMatrixIdEE, ptr @_ZNK6dealii13FiniteElementILi3ELi3EE24hp_vertex_dof_identitiesERKS1_, ptr @_ZNK6dealii13FiniteElementILi3ELi3EE22hp_line_dof_identitiesERKS1_, ptr @_ZNK6dealii13FiniteElementILi3ELi3EE22hp_quad_dof_identitiesERKS1_, ptr @_ZNK6dealii13FiniteElementILi3ELi3EE27compare_for_face_dominationERKS1_, ptr @_ZNK6dealii13FE_PolyTensorINS_24PolynomialsRaviartThomasILi3EEELi3ELi3EE15n_base_elementsEv, ptr @_ZNK6dealii13FE_PolyTensorINS_24PolynomialsRaviartThomasILi3EEELi3ELi3EE12base_elementEj, ptr @_ZNK6dealii13FE_PolyTensorINS_24PolynomialsRaviartThomasILi3EEELi3ELi3EE20element_multiplicityEj, ptr @_ZNK6dealii13FiniteElementILi3ELi3EE18unit_support_pointEj, ptr @_ZNK6dealii13FiniteElementILi3ELi3EE23unit_face_support_pointEj, ptr @_ZNK6dealii13FiniteElementILi3ELi3EE11interpolateERSt6vectorIdSaIdEERKS4_, ptr @_ZNK6dealii13FiniteElementILi3ELi3EE11interpolateERSt6vectorIdSaIdEERKS2_INS_6VectorIdEESaIS7_EEj, ptr @_ZNK6dealii13FiniteElementILi3ELi3EE11interpolateERSt6vectorIdSaIdEERKNS_11VectorSliceIKS2_IS4_SaIS4_EEEE, ptr @_ZNK6dealii13FiniteElementILi3ELi3EE18memory_consumptionEv, ptr @_ZNK6dealii13FE_PolyTensorINS_24PolynomialsRaviartThomasILi3EEELi3ELi3EE11update_onceENS_11UpdateFlagsE, ptr @_ZNK6dealii13FE_PolyTensorINS_24PolynomialsRaviartThomasILi3EEELi3ELi3EE11update_eachENS_11UpdateFlagsE, ptr @__cxa_pure_virtual, ptr @_ZNK6dealii13FE_PolyTensorINS_24PolynomialsRaviartThomasILi3EEELi3ELi3EE8get_dataENS_11UpdateFlagsERKNS_7MappingILi3ELi3EEERKNS_10QuadratureILi3EEE, ptr @_ZNK6dealii13FiniteElementILi3ELi3EE13get_face_dataENS_11UpdateFlagsERKNS_7MappingILi3ELi3EEERKNS_10QuadratureILi2EEE, ptr @_ZNK6dealii13FiniteElementILi3ELi3EE16get_subface_dataENS_11UpdateFlagsERKNS_7MappingILi3ELi3EEERKNS_10QuadratureILi2EEE, ptr @_ZNK6dealii13FE_PolyTensorINS_24PolynomialsRaviartThomasILi3EEELi3ELi3EE14fill_fe_valuesERKNS_7MappingILi3ELi3EEERKNS_12TriaIteratorINS_12CellAccessorILi3ELi3EEEEERKNS_10QuadratureILi3EEERNS5_16InternalDataBaseESJ_RNS_12FEValuesDataILi3ELi3EEERNS_14CellSimilarity10SimilarityE, ptr @_ZNK6dealii13FE_PolyTensorINS_24PolynomialsRaviartThomasILi3EEELi3ELi3EE19fill_fe_face_valuesERKNS_7MappingILi3ELi3EEERKNS_12TriaIteratorINS_12CellAccessorILi3ELi3EEEEEjRKNS_10QuadratureILi2EEERNS5_16InternalDataBaseESJ_RNS_12FEValuesDataILi3ELi3EEE, ptr @_ZNK6dealii13FE_PolyTensorINS_24PolynomialsRaviartThomasILi3EEELi3ELi3EE22fill_fe_subface_valuesERKNS_7MappingILi3ELi3EEERKNS_12TriaIteratorINS_12CellAccessorILi3ELi3EEEEEjjRKNS_10QuadratureILi2EEERNS5_16InternalDataBaseESJ_RNS_12FEValuesDataILi3ELi3EEE] }, comdat, align 8
@_ZTVN6dealii13FiniteElementILi3ELi3EEE = linkonce_odr dso_local unnamed_addr constant { [38 x ptr] } { [38 x ptr] [ptr null, ptr @_ZTIN6dealii13FiniteElementILi3ELi3EEE, ptr @_ZN6dealii13FiniteElementILi3ELi3EED1Ev, ptr @_ZN6dealii13FiniteElementILi3ELi3EED0Ev, ptr @__cxa_pure_virtual, ptr @_ZNK6dealii13FiniteElementILi3ELi3EE11shape_valueEjRKNS_5PointILi3EEE, ptr @_ZNK6dealii13FiniteElementILi3ELi3EE21shape_value_componentEjRKNS_5PointILi3EEEj, ptr @_ZNK6dealii13FiniteElementILi3ELi3EE10shape_gradEjRKNS_5PointILi3EEE, ptr @_ZNK6dealii13FiniteElementILi3ELi3EE20shape_grad_componentEjRKNS_5PointILi3EEEj, ptr @_ZNK6dealii13FiniteElementILi3ELi3EE15shape_grad_gradEjRKNS_5PointILi3EEE, ptr @_ZNK6dealii13FiniteElementILi3ELi3EE25shape_grad_grad_componentEjRKNS_5PointILi3EEEj, ptr @_ZNK6dealii13FiniteElementILi3ELi3EE19has_support_on_faceEjj, ptr @_ZNK6dealii13FiniteElementILi3ELi3EE30hp_constraints_are_implementedEv, ptr @_ZNK6dealii13FiniteElementILi3ELi3EE24get_interpolation_matrixERKS1_RNS_10FullMatrixIdEE, ptr @_ZNK6dealii13FiniteElementILi3ELi3EE29get_face_interpolation_matrixERKS1_RNS_10FullMatrixIdEE, ptr @_ZNK6dealii13FiniteElementILi3ELi3EE32get_subface_interpolation_matrixERKS1_jRNS_10FullMatrixIdEE, ptr @_ZNK6dealii13FiniteElementILi3ELi3EE24hp_vertex_dof_identitiesERKS1_, ptr @_ZNK6dealii13FiniteElementILi3ELi3EE22hp_line_dof_identitiesERKS1_, ptr @_ZNK6dealii13FiniteElementILi3ELi3EE22hp_quad_dof_identitiesERKS1_, ptr @_ZNK6dealii13FiniteElementILi3ELi3EE27compare_for_face_dominationERKS1_, ptr @__cxa_pure_virtual, ptr @__cxa_pure_virtual, ptr @__cxa_pure_virtual, ptr @_ZNK6dealii13FiniteElementILi3ELi3EE18unit_support_pointEj, ptr @_ZNK6dealii13FiniteElementILi3ELi3EE23unit_face_support_pointEj, ptr @_ZNK6dealii13FiniteElementILi3ELi3EE11interpolateERSt6vectorIdSaIdEERKS4_, ptr @_ZNK6dealii13FiniteElementILi3ELi3EE11interpolateERSt6vectorIdSaIdEERKS2_INS_6VectorIdEESaIS7_EEj, ptr @_ZNK6dealii13FiniteElementILi3ELi3EE11interpolateERSt6vectorIdSaIdEERKNS_11VectorSliceIKS2_IS4_SaIS4_EEEE, ptr @_ZNK6dealii13FiniteElementILi3ELi3EE18memory_consumptionEv, ptr @__cxa_pure_virtual, ptr @__cxa_pure_virtual, ptr @__cxa_pure_virtual, ptr @__cxa_pure_virtual, ptr @_ZNK6dealii13FiniteElementILi3ELi3EE13get_face_dataENS_11UpdateFlagsERKNS_7MappingILi3ELi3EEERKNS_10QuadratureILi2EEE, ptr @_ZNK6dealii13FiniteElementILi3ELi3EE16get_subface_dataENS_11UpdateFlagsERKNS_7MappingILi3ELi3EEERKNS_10QuadratureILi2EEE, ptr @__cxa_pure_virtual, ptr @__cxa_pure_virtual, ptr @__cxa_pure_virtual] }, comdat, align 8
@_ZTVN6dealii5TableILi2EiEE = linkonce_odr dso_local unnamed_addr constant { [4 x ptr] } { [4 x ptr] [ptr null, ptr @_ZTIN6dealii5TableILi2EiEE, ptr @_ZN6dealii9TableBaseILi2EiED2Ev, ptr @_ZN6dealii5TableILi2EiED0Ev] }, comdat, align 8
@_ZTSN6dealii5TableILi2EiEE = linkonce_odr dso_local constant [23 x i8] c"N6dealii5TableILi2EiEE\00", comdat, align 1
@_ZTSN6dealii9TableBaseILi2EiEE = linkonce_odr dso_local constant [27 x i8] c"N6dealii9TableBaseILi2EiEE\00", comdat, align 1
@_ZTIN6dealii9TableBaseILi2EiEE = linkonce_odr dso_local constant { ptr, ptr, ptr } { ptr getelementptr inbounds (ptr, ptr @_ZTVN10__cxxabiv120__si_class_type_infoE, i64 2), ptr @_ZTSN6dealii9TableBaseILi2EiEE, ptr @_ZTIN6dealii11SubscriptorE }, comdat, align 8
@_ZTIN6dealii5TableILi2EiEE = linkonce_odr dso_local constant { ptr, ptr, ptr } { ptr getelementptr inbounds (ptr, ptr @_ZTVN10__cxxabiv120__si_class_type_infoE, i64 2), ptr @_ZTSN6dealii5TableILi2EiEE, ptr @_ZTIN6dealii9TableBaseILi2EiEE }, comdat, align 8
@_ZTVN6dealii9TableBaseILi2EiEE = linkonce_odr dso_local unnamed_addr constant { [4 x ptr] } { [4 x ptr] [ptr null, ptr @_ZTIN6dealii9TableBaseILi2EiEE, ptr @_ZN6dealii9TableBaseILi2EiED2Ev, ptr @_ZN6dealii9TableBaseILi2EiED0Ev] }, comdat, align 8
@_ZTVN6dealii11Polynomials10PolynomialIdEE = linkonce_odr dso_local unnamed_addr constant { [4 x ptr] } { [4 x ptr] [ptr null, ptr @_ZTIN6dealii11Polynomials10PolynomialIdEE, ptr @_ZN6dealii11Polynomials10PolynomialIdED2Ev, ptr @_ZN6dealii11Polynomials10PolynomialIdED0Ev] }, comdat, align 8
@_ZTSN6dealii11Polynomials10PolynomialIdEE = linkonce_odr dso_local constant [38 x i8] c"N6dealii11Polynomials10PolynomialIdEE\00", comdat, align 1
@_ZTIN6dealii11Polynomials10PolynomialIdEE = linkonce_odr dso_local constant { ptr, ptr, ptr } { ptr getelementptr inbounds (ptr, ptr @_ZTVN10__cxxabiv120__si_class_type_infoE, i64 2), ptr @_ZTSN6dealii11Polynomials10PolynomialIdEE, ptr @_ZTIN6dealii11SubscriptorE }, comdat, align 8
@_ZTVN6dealii5TableILi2EdEE = linkonce_odr dso_local unnamed_addr constant { [4 x ptr] } { [4 x ptr] [ptr null, ptr @_ZTIN6dealii5TableILi2EdEE, ptr @_ZN6dealii9TableBaseILi2EdED2Ev, ptr @_ZN6dealii5TableILi2EdED0Ev] }, comdat, align 8
@_ZTSN6dealii5TableILi2EdEE = linkonce_odr dso_local constant [23 x i8] c"N6dealii5TableILi2EdEE\00", comdat, align 1
@_ZTIN6dealii5TableILi2EdEE = linkonce_odr dso_local constant { ptr, ptr, ptr } { ptr getelementptr inbounds (ptr, ptr @_ZTVN10__cxxabiv120__si_class_type_infoE, i64 2), ptr @_ZTSN6dealii5TableILi2EdEE, ptr @_ZTIN6dealii9TableBaseILi2EdEE }, comdat, align 8
@_ZTVN6dealii5TableILi3EdEE = linkonce_odr dso_local unnamed_addr constant { [4 x ptr] } { [4 x ptr] [ptr null, ptr @_ZTIN6dealii5TableILi3EdEE, ptr @_ZN6dealii9TableBaseILi3EdED2Ev, ptr @_ZN6dealii5TableILi3EdED0Ev] }, comdat, align 8
@_ZTSN6dealii5TableILi3EdEE = linkonce_odr dso_local constant [23 x i8] c"N6dealii5TableILi3EdEE\00", comdat, align 1
@_ZTIN6dealii5TableILi3EdEE = linkonce_odr dso_local constant { ptr, ptr, ptr } { ptr getelementptr inbounds (ptr, ptr @_ZTVN10__cxxabiv120__si_class_type_infoE, i64 2), ptr @_ZTSN6dealii5TableILi3EdEE, ptr @_ZTIN6dealii9TableBaseILi3EdEE }, comdat, align 8
@.str.11 = private unnamed_addr constant [49 x i8] c"cannot create std::vector larger than max_size()\00", align 1
@_ZTTNSt7__cxx1119basic_ostringstreamIcSt11char_traitsIcESaIcEEE = external unnamed_addr constant [4 x ptr], align 8
@_ZTVNSt7__cxx1115basic_stringbufIcSt11char_traitsIcESaIcEEE = external unnamed_addr constant { [16 x ptr] }, align 8
@_ZTVSt15basic_streambufIcSt11char_traitsIcEE = external unnamed_addr constant { [16 x ptr] }, align 8
@.str.14 = private unnamed_addr constant [23 x i8] c"vector::_M_fill_insert\00", align 1
@llvm.global_ctors = appending global [0 x { i32, ptr, ptr }] zeroinitializer

@_ZN6dealii16FE_RaviartThomasILi3EEC1Ej = weak_odr dso_local unnamed_addr alias void (ptr, i32), ptr @_ZN6dealii16FE_RaviartThomasILi3EEC2Ej

; Function Attrs: sspstrong uwtable
define weak_odr dso_local void @_ZN6dealii16FE_RaviartThomasILi3EEC2Ej(ptr noundef nonnull align 8 dereferenceable(1168) %0, i32 noundef %1) unnamed_addr #0 comdat($_ZN6dealii16FE_RaviartThomasILi3EEC5Ej) align 2 personality ptr @__gxx_personality_v0 {
  %3 = alloca %"class.dealii::FiniteElementData", align 4
  %4 = alloca %"class.std::vector.48", align 8
  %5 = alloca %"class.std::vector.53", align 8
  %6 = alloca %"class.std::vector.57", align 8
  %7 = alloca %"class.std::vector.53", align 8
  %8 = alloca %"class.dealii::FullMatrix", align 8
  %9 = alloca [4 x %"class.dealii::FullMatrix"], align 16
  call void @llvm.lifetime.start.p0(i64 60, ptr nonnull %3) #17
  call void @llvm.lifetime.start.p0(i64 24, ptr nonnull %4) #17
  tail call void @llvm.experimental.noalias.scope.decl(metadata !5)
  %10 = add i32 %1, 1
  %11 = tail call noalias noundef nonnull dereferenceable(16) ptr @_Znwm(i64 noundef 16) #18, !noalias !5
  store ptr %11, ptr %4, align 8, !tbaa !8, !alias.scope !5
  %12 = getelementptr inbounds i32, ptr %11, i64 4
  %13 = getelementptr inbounds %"struct.std::_Vector_base<unsigned int, std::allocator<unsigned int> >::_Vector_impl_data", ptr %4, i64 0, i32 2
  store ptr %12, ptr %13, align 8, !tbaa !13, !alias.scope !5
  store i64 0, ptr %11, align 4, !noalias !5
  %14 = mul i32 %10, %10
  %15 = getelementptr inbounds %"struct.std::_Vector_base<unsigned int, std::allocator<unsigned int> >::_Vector_impl_data", ptr %4, i64 0, i32 1
  store ptr %12, ptr %15, align 8, !tbaa !14, !alias.scope !5
  %16 = mul i32 %1, 3
  %17 = mul i32 %16, %14
  %18 = getelementptr inbounds i32, ptr %11, i64 2
  store i32 %14, ptr %18, align 4, !tbaa !15, !noalias !5
  %19 = getelementptr inbounds i32, ptr %11, i64 3
  store i32 %17, ptr %19, align 4, !tbaa !15, !noalias !5
  invoke void @_ZN6dealii17FiniteElementDataILi3EEC1ERKSt6vectorIjSaIjEEjjNS1_10ConformityEj(ptr noundef nonnull align 4 dereferenceable(60) %3, ptr noundef nonnull align 8 dereferenceable(24) %4, i32 noundef 3, i32 noundef %10, i32 noundef 4, i32 noundef 1)
          to label %20 unwind label %201

20:                                               ; preds = %2
  call void @llvm.lifetime.start.p0(i64 40, ptr nonnull %5) #17
  %21 = invoke noundef i32 @_ZN6dealii24PolynomialsRaviartThomasILi3EE14compute_n_polsEj(i32 noundef %1)
          to label %22 unwind label %203

22:                                               ; preds = %20
  store ptr null, ptr %5, align 8, !tbaa !17
  %23 = getelementptr inbounds %"struct.std::_Bit_iterator_base", ptr %5, i64 0, i32 1
  store i32 0, ptr %23, align 8, !tbaa !19
  %24 = getelementptr inbounds %"struct.std::_Bvector_base<std::allocator<bool> >::_Bvector_impl_data", ptr %5, i64 0, i32 1
  store ptr null, ptr %24, align 8, !tbaa !17
  %25 = getelementptr inbounds %"struct.std::_Bvector_base<std::allocator<bool> >::_Bvector_impl_data", ptr %5, i64 0, i32 1, i32 0, i32 1
  store i32 0, ptr %25, align 8, !tbaa !19
  %26 = getelementptr inbounds %"struct.std::_Bvector_base<std::allocator<bool> >::_Bvector_impl_data", ptr %5, i64 0, i32 2
  store ptr null, ptr %26, align 8, !tbaa !20
  %27 = icmp eq i32 %21, 0
  br i1 %27, label %44, label %28

28:                                               ; preds = %22
  %29 = zext i32 %21 to i64
  %30 = add nuw nsw i64 %29, 63
  %31 = lshr i64 %30, 3
  %32 = and i64 %31, 1073741816
  %33 = invoke noalias noundef nonnull ptr @_Znwm(i64 noundef %32) #18
          to label %34 unwind label %42

34:                                               ; preds = %28
  %35 = lshr i64 %30, 6
  %36 = getelementptr inbounds i64, ptr %33, i64 %35
  store ptr %36, ptr %26, align 8, !tbaa !20
  store ptr %33, ptr %5, align 8
  store i32 0, ptr %23, align 8
  %37 = lshr i32 %21, 6
  %38 = zext i32 %37 to i64
  %39 = getelementptr inbounds i64, ptr %33, i64 %38
  %40 = and i32 %21, 63
  store ptr %39, ptr %24, align 8
  store i32 %40, ptr %25, align 8
  %41 = shl nuw nsw i64 %35, 3
  call void @llvm.memset.p0.i64(ptr nonnull align 8 %33, i8 -1, i64 %41, i1 false)
  br label %44

42:                                               ; preds = %28
  %43 = landingpad { ptr, i32 }
          cleanup
  br label %237

44:                                               ; preds = %34, %22
  call void @llvm.lifetime.start.p0(i64 24, ptr nonnull %6) #17
  %45 = invoke noundef i32 @_ZN6dealii24PolynomialsRaviartThomasILi3EE14compute_n_polsEj(i32 noundef %1)
          to label %46 unwind label %205

46:                                               ; preds = %44
  call void @llvm.lifetime.start.p0(i64 40, ptr nonnull %7) #17
  %47 = getelementptr inbounds %"struct.std::_Bvector_base<std::allocator<bool> >::_Bvector_impl_data", ptr %7, i64 0, i32 2
  %48 = invoke noalias noundef nonnull dereferenceable(8) ptr @_Znwm(i64 noundef 8) #18
          to label %51 unwind label %49

49:                                               ; preds = %46
  %50 = landingpad { ptr, i32 }
          cleanup
  br label %223

51:                                               ; preds = %46
  %52 = getelementptr inbounds %"struct.std::_Bvector_base<std::allocator<bool> >::_Bvector_impl_data", ptr %7, i64 0, i32 1, i32 0, i32 1
  %53 = getelementptr inbounds %"struct.std::_Bvector_base<std::allocator<bool> >::_Bvector_impl_data", ptr %7, i64 0, i32 1
  %54 = getelementptr inbounds %"struct.std::_Bit_iterator_base", ptr %7, i64 0, i32 1
  %55 = getelementptr inbounds i64, ptr %48, i64 1
  store ptr %55, ptr %47, align 8, !tbaa !20
  store ptr %48, ptr %7, align 8
  store i32 0, ptr %54, align 8
  store ptr %48, ptr %53, align 8
  store i32 3, ptr %52, align 8
  store i64 -1, ptr %48, align 8
  %56 = zext i32 %45 to i64
  call void @llvm.memset.p0.i64(ptr noundef nonnull align 8 dereferenceable(24) %6, i8 0, i64 24, i1 false)
  %57 = icmp eq i32 %45, 0
  br i1 %57, label %61, label %58

58:                                               ; preds = %51
  %59 = mul nuw nsw i64 %56, 40
  %60 = invoke noalias noundef nonnull ptr @_Znwm(i64 noundef %59) #18
          to label %61 unwind label %207

61:                                               ; preds = %58, %51
  %62 = phi ptr [ null, %51 ], [ %60, %58 ]
  store ptr %62, ptr %6, align 8, !tbaa !23
  %63 = getelementptr inbounds %"struct.std::_Vector_base<std::vector<bool>, std::allocator<std::vector<bool> > >::_Vector_impl_data", ptr %6, i64 0, i32 1
  store ptr %62, ptr %63, align 8, !tbaa !25
  %64 = getelementptr inbounds %"class.std::vector.53", ptr %62, i64 %56
  %65 = getelementptr inbounds %"struct.std::_Vector_base<std::vector<bool>, std::allocator<std::vector<bool> > >::_Vector_impl_data", ptr %6, i64 0, i32 2
  store ptr %64, ptr %65, align 8, !tbaa !26
  %66 = invoke noundef ptr @_ZNSt22__uninitialized_fill_nILb0EE15__uninit_fill_nIPSt6vectorIbSaIbEEmS4_EET_S6_T0_RKT1_(ptr noundef %62, i64 noundef %56, ptr noundef nonnull align 8 dereferenceable(40) %7)
          to label %72 unwind label %67

67:                                               ; preds = %61
  %68 = landingpad { ptr, i32 }
          cleanup
  %69 = load ptr, ptr %6, align 8, !tbaa !23
  %70 = icmp eq ptr %69, null
  br i1 %70, label %211, label %71

71:                                               ; preds = %67
  call void @_ZdlPv(ptr noundef nonnull %69) #19
  br label %211

72:                                               ; preds = %61
  store ptr %66, ptr %63, align 8, !tbaa !25
  invoke void @_ZN6dealii13FE_PolyTensorINS_24PolynomialsRaviartThomasILi3EEELi3ELi3EEC2EjRKNS_17FiniteElementDataILi3EEERKSt6vectorIbSaIbEERKS8_ISA_SaISA_EE(ptr noundef nonnull align 8 dereferenceable(976) %0, i32 noundef %1, ptr noundef nonnull align 4 dereferenceable(60) %3, ptr noundef nonnull align 8 dereferenceable(40) %5, ptr noundef nonnull align 8 dereferenceable(24) %6)
          to label %73 unwind label %209

73:                                               ; preds = %72
  %74 = load ptr, ptr %6, align 8, !tbaa !23
  %75 = load ptr, ptr %63, align 8, !tbaa !25
  %76 = icmp eq ptr %74, %75
  br i1 %76, label %98, label %77

77:                                               ; preds = %73, %93
  %78 = phi ptr [ %94, %93 ], [ %74, %73 ]
  %79 = load ptr, ptr %78, align 8, !tbaa !17
  %80 = icmp eq ptr %79, null
  br i1 %80, label %93, label %81

81:                                               ; preds = %77
  %82 = getelementptr inbounds %"struct.std::_Bvector_base<std::allocator<bool> >::_Bvector_impl_data", ptr %78, i64 0, i32 2
  %83 = load ptr, ptr %82, align 8, !tbaa !20
  %84 = ptrtoint ptr %83 to i64
  %85 = ptrtoint ptr %79 to i64
  %86 = sub i64 %84, %85
  %87 = ashr exact i64 %86, 3
  %88 = sub nsw i64 0, %87
  %89 = getelementptr inbounds i64, ptr %83, i64 %88
  call void @_ZdlPv(ptr noundef %89) #19
  store ptr null, ptr %78, align 8
  %90 = getelementptr inbounds i8, ptr %78, i64 8
  store i32 0, ptr %90, align 8
  %91 = getelementptr inbounds i8, ptr %78, i64 16
  store ptr null, ptr %91, align 8
  %92 = getelementptr inbounds i8, ptr %78, i64 24
  store i32 0, ptr %92, align 8
  store ptr null, ptr %82, align 8
  br label %93

93:                                               ; preds = %81, %77
  %94 = getelementptr inbounds %"class.std::vector.53", ptr %78, i64 1
  %95 = icmp eq ptr %94, %75
  br i1 %95, label %96, label %77

96:                                               ; preds = %93
  %97 = load ptr, ptr %6, align 8, !tbaa !23
  br label %98

98:                                               ; preds = %96, %73
  %99 = phi ptr [ %97, %96 ], [ %74, %73 ]
  %100 = icmp eq ptr %99, null
  br i1 %100, label %102, label %101

101:                                              ; preds = %98
  call void @_ZdlPv(ptr noundef nonnull %99) #19
  br label %102

102:                                              ; preds = %101, %98
  %103 = load ptr, ptr %7, align 8, !tbaa !17
  %104 = icmp eq ptr %103, null
  br i1 %104, label %113, label %105

105:                                              ; preds = %102
  %106 = load ptr, ptr %47, align 8, !tbaa !20
  %107 = ptrtoint ptr %106 to i64
  %108 = ptrtoint ptr %103 to i64
  %109 = sub i64 %107, %108
  %110 = ashr exact i64 %109, 3
  %111 = sub nsw i64 0, %110
  %112 = getelementptr inbounds i64, ptr %106, i64 %111
  call void @_ZdlPv(ptr noundef %112) #19
  br label %113

113:                                              ; preds = %105, %102
  call void @llvm.lifetime.end.p0(i64 40, ptr nonnull %7) #17
  call void @llvm.lifetime.end.p0(i64 24, ptr nonnull %6) #17
  %114 = load ptr, ptr %5, align 8, !tbaa !17
  %115 = icmp eq ptr %114, null
  br i1 %115, label %124, label %116

116:                                              ; preds = %113
  %117 = load ptr, ptr %26, align 8, !tbaa !20
  %118 = ptrtoint ptr %117 to i64
  %119 = ptrtoint ptr %114 to i64
  %120 = sub i64 %118, %119
  %121 = ashr exact i64 %120, 3
  %122 = sub nsw i64 0, %121
  %123 = getelementptr inbounds i64, ptr %117, i64 %122
  call void @_ZdlPv(ptr noundef %123) #19
  store ptr null, ptr %5, align 8
  store i32 0, ptr %23, align 8
  br label %124

124:                                              ; preds = %116, %113
  call void @llvm.lifetime.end.p0(i64 40, ptr nonnull %5) #17
  %125 = load ptr, ptr %4, align 8, !tbaa !8
  %126 = icmp eq ptr %125, null
  br i1 %126, label %128, label %127

127:                                              ; preds = %124
  call void @_ZdlPv(ptr noundef nonnull %125) #19
  br label %128

128:                                              ; preds = %124, %127
  call void @llvm.lifetime.end.p0(i64 24, ptr nonnull %4) #17
  call void @llvm.lifetime.end.p0(i64 60, ptr nonnull %3) #17
  store ptr getelementptr inbounds ({ [38 x ptr] }, ptr @_ZTVN6dealii16FE_RaviartThomasILi3EEE, i64 0, inrange i32 0, i64 2), ptr %0, align 8, !tbaa !27
  %129 = getelementptr inbounds %"class.dealii::FE_RaviartThomas", ptr %0, i64 0, i32 1
  invoke void @_ZN6dealii11SubscriptorC2Ev(ptr noundef nonnull align 8 dereferenceable(72) %129)
          to label %130 unwind label %245

130:                                              ; preds = %128
  %131 = getelementptr inbounds %"class.dealii::FE_RaviartThomas", ptr %0, i64 0, i32 1, i32 0, i32 1
  call void @llvm.memset.p0.i64(ptr noundef nonnull align 8 dereferenceable(20) %131, i8 0, i64 20, i1 false)
  store ptr getelementptr inbounds ({ [4 x ptr] }, ptr @_ZTVN6dealii5TableILi2EdEE, i64 0, inrange i32 0, i64 2), ptr %129, align 8, !tbaa !27
  %132 = getelementptr inbounds %"class.dealii::FE_RaviartThomas", ptr %0, i64 0, i32 2
  invoke void @_ZN6dealii11SubscriptorC2Ev(ptr noundef nonnull align 8 dereferenceable(72) %132)
          to label %133 unwind label %247

133:                                              ; preds = %130
  %134 = getelementptr inbounds %"class.dealii::FE_RaviartThomas", ptr %0, i64 0, i32 2, i32 0, i32 1
  call void @llvm.memset.p0.i64(ptr noundef nonnull align 8 dereferenceable(24) %134, i8 0, i64 24, i1 false)
  store ptr getelementptr inbounds ({ [4 x ptr] }, ptr @_ZTVN6dealii5TableILi3EdEE, i64 0, inrange i32 0, i64 2), ptr %132, align 8, !tbaa !27
  %135 = getelementptr inbounds i8, ptr %0, i64 112
  %136 = load i32, ptr %135, align 8, !tbaa !29
  %137 = getelementptr inbounds %"class.dealii::FE_PolyTensor", ptr %0, i64 0, i32 1
  store i32 256, ptr %137, align 8, !tbaa !32
  invoke void @_ZN6dealii16FE_RaviartThomasILi3EE25initialize_support_pointsEj(ptr noundef nonnull align 8 dereferenceable(1168) %0, i32 noundef %1)
          to label %138 unwind label %249

138:                                              ; preds = %133
  call void @llvm.lifetime.start.p0(i64 96, ptr nonnull %8) #17
  invoke void @_ZN6dealii10FullMatrixIdEC1Ejj(ptr noundef nonnull align 8 dereferenceable(92) %8, i32 noundef %136, i32 noundef %136)
          to label %139 unwind label %251

139:                                              ; preds = %138
  invoke void @_ZN6dealii7FETools19compute_node_matrixILi3ELi3EEEvRNS_10FullMatrixIdEERKNS_13FiniteElementIXT_EXT0_EEE(ptr noundef nonnull align 8 dereferenceable(92) %8, ptr noundef nonnull align 8 dereferenceable(728) %0)
          to label %140 unwind label %253

140:                                              ; preds = %139
  %141 = getelementptr inbounds %"class.dealii::FE_PolyTensor", ptr %0, i64 0, i32 4
  %142 = getelementptr inbounds %"class.dealii::FE_PolyTensor", ptr %0, i64 0, i32 4, i32 0, i32 0, i32 3
  %143 = zext i32 %136 to i64
  %144 = shl nuw i64 %143, 32
  %145 = or i64 %144, %143
  store i64 %145, ptr %142, align 4
  %146 = getelementptr inbounds %"class.dealii::FE_PolyTensor", ptr %0, i64 0, i32 4, i32 0, i32 0, i32 3, i32 0, i32 0, i64 1
  %147 = mul i32 %136, %136
  %148 = icmp eq i32 %147, 0
  br i1 %148, label %149, label %155

149:                                              ; preds = %140
  %150 = getelementptr inbounds %"class.dealii::FE_PolyTensor", ptr %0, i64 0, i32 4, i32 0, i32 0, i32 1
  %151 = load ptr, ptr %150, align 8, !tbaa !107
  %152 = icmp eq ptr %151, null
  br i1 %152, label %154, label %153

153:                                              ; preds = %149
  call void @_ZdaPv(ptr noundef nonnull %151) #19
  br label %154

154:                                              ; preds = %153, %149
  call void @llvm.memset.p0.i64(ptr noundef nonnull align 8 dereferenceable(20) %150, i8 0, i64 20, i1 false)
  br label %179

155:                                              ; preds = %140
  %156 = getelementptr inbounds %"class.dealii::FE_PolyTensor", ptr %0, i64 0, i32 4, i32 0, i32 0, i32 2
  %157 = load i32, ptr %156, align 8, !tbaa !108
  %158 = icmp ult i32 %157, %147
  %159 = getelementptr inbounds %"class.dealii::FE_PolyTensor", ptr %0, i64 0, i32 4, i32 0, i32 0, i32 1
  %160 = load ptr, ptr %159, align 8, !tbaa !107
  br i1 %158, label %161, label %174

161:                                              ; preds = %155
  %162 = icmp eq ptr %160, null
  br i1 %162, label %167, label %163

163:                                              ; preds = %161
  call void @_ZdaPv(ptr noundef nonnull %160) #19
  %164 = load i32, ptr %142, align 4, !tbaa !15
  %165 = load i32, ptr %146, align 8, !tbaa !15
  %166 = mul i32 %165, %164
  br label %167

167:                                              ; preds = %163, %161
  %168 = phi i32 [ %166, %163 ], [ %147, %161 ]
  store i32 %147, ptr %156, align 8, !tbaa !108
  %169 = zext i32 %147 to i64
  %170 = shl nuw nsw i64 %169, 3
  %171 = invoke noalias noundef nonnull ptr @_Znam(i64 noundef %170) #18
          to label %172 unwind label %253

172:                                              ; preds = %167
  store ptr %171, ptr %159, align 8, !tbaa !107
  %173 = icmp eq i32 %168, 0
  br i1 %173, label %179, label %174

174:                                              ; preds = %172, %155
  %175 = phi ptr [ %171, %172 ], [ %160, %155 ]
  %176 = phi i32 [ %168, %172 ], [ %147, %155 ]
  %177 = zext i32 %176 to i64
  %178 = shl nuw nsw i64 %177, 3
  call void @llvm.memset.p0.i64(ptr align 8 %175, i8 0, i64 %178, i1 false), !tbaa !109
  br label %179

179:                                              ; preds = %174, %172, %154
  invoke void @_ZN6dealii10FullMatrixIdE6invertIdEEvRKNS0_IT_EE(ptr noundef nonnull align 8 dereferenceable(92) %141, ptr noundef nonnull align 8 dereferenceable(92) %8)
          to label %180 unwind label %253

180:                                              ; preds = %179
  invoke void @_ZN6dealii13FiniteElementILi3ELi3EE44reinit_restriction_and_prolongation_matricesEbb(ptr noundef nonnull align 8 dereferenceable(728) %0, i1 noundef zeroext true, i1 noundef zeroext false)
          to label %181 unwind label %253

181:                                              ; preds = %180
  %182 = getelementptr inbounds %"class.dealii::FiniteElement", ptr %0, i64 0, i32 4
  invoke void @_ZN6dealii7FETools26compute_embedding_matricesILi3EdLi3EEEvRKNS_13FiniteElementIXT_EXT1_EEERSt6vectorIS6_INS_10FullMatrixIT0_EESaIS9_EESaISB_EEb(ptr noundef nonnull align 8 dereferenceable(728) %0, ptr noundef nonnull align 8 dereferenceable(24) %182, i1 noundef zeroext false)
          to label %183 unwind label %253

183:                                              ; preds = %181
  invoke void @_ZN6dealii16FE_RaviartThomasILi3EE22initialize_restrictionEv(ptr noundef nonnull align 8 dereferenceable(1168) %0)
          to label %184 unwind label %253

184:                                              ; preds = %183
  call void @llvm.lifetime.start.p0(i64 384, ptr nonnull %9) #17
  invoke void @_ZN6dealii10FullMatrixIdEC1Ej(ptr noundef nonnull align 8 dereferenceable(92) %9, i32 noundef 0)
          to label %185 unwind label %255

185:                                              ; preds = %184
  %186 = getelementptr inbounds %"class.dealii::FullMatrix", ptr %9, i64 1
  invoke void @_ZN6dealii10FullMatrixIdEC1Ej(ptr noundef nonnull align 8 dereferenceable(92) %186, i32 noundef 0)
          to label %187 unwind label %257

187:                                              ; preds = %185
  %188 = getelementptr inbounds %"class.dealii::FullMatrix", ptr %9, i64 2
  invoke void @_ZN6dealii10FullMatrixIdEC1Ej(ptr noundef nonnull align 8 dereferenceable(92) %188, i32 noundef 0)
          to label %189 unwind label %257

189:                                              ; preds = %187
  %190 = getelementptr inbounds %"class.dealii::FullMatrix", ptr %9, i64 3
  invoke void @_ZN6dealii10FullMatrixIdEC1Ej(ptr noundef nonnull align 8 dereferenceable(92) %190, i32 noundef 0)
          to label %191 unwind label %257

191:                                              ; preds = %189
  %192 = getelementptr inbounds i8, ptr %0, i64 108
  %193 = load i32, ptr %192, align 4, !tbaa !111
  %194 = getelementptr inbounds %"class.dealii::TableBase", ptr %9, i64 0, i32 3
  %195 = zext i32 %193 to i64
  %196 = shl nuw i64 %195, 32
  %197 = or i64 %196, %195
  store i64 %197, ptr %194, align 4
  %198 = getelementptr inbounds %"class.dealii::TableBase", ptr %9, i64 0, i32 3, i32 0, i32 0, i64 1
  %199 = mul i32 %193, %193
  %200 = icmp eq i32 %199, 0
  br i1 %200, label %265, label %271

201:                                              ; preds = %2
  %202 = landingpad { ptr, i32 }
          cleanup
  br label %239

203:                                              ; preds = %20
  %204 = landingpad { ptr, i32 }
          cleanup
  br label %237

205:                                              ; preds = %44
  %206 = landingpad { ptr, i32 }
          cleanup
  br label %225

207:                                              ; preds = %58
  %208 = landingpad { ptr, i32 }
          cleanup
  br label %211

209:                                              ; preds = %72
  %210 = landingpad { ptr, i32 }
          cleanup
  invoke void @_ZNSt6vectorIS_IbSaIbEESaIS1_EED2Ev(ptr noundef nonnull align 8 dereferenceable(24) %6)
          to label %211 unwind label %1110

211:                                              ; preds = %207, %71, %67, %209
  %212 = phi { ptr, i32 } [ %210, %209 ], [ %208, %207 ], [ %68, %71 ], [ %68, %67 ]
  %213 = load ptr, ptr %7, align 8, !tbaa !17
  %214 = icmp eq ptr %213, null
  br i1 %214, label %223, label %215

215:                                              ; preds = %211
  %216 = load ptr, ptr %47, align 8, !tbaa !20
  %217 = ptrtoint ptr %216 to i64
  %218 = ptrtoint ptr %213 to i64
  %219 = sub i64 %217, %218
  %220 = ashr exact i64 %219, 3
  %221 = sub nsw i64 0, %220
  %222 = getelementptr inbounds i64, ptr %216, i64 %221
  call void @_ZdlPv(ptr noundef %222) #19
  store ptr null, ptr %7, align 8
  br label %223

223:                                              ; preds = %215, %211, %49
  %224 = phi { ptr, i32 } [ %50, %49 ], [ %212, %211 ], [ %212, %215 ]
  call void @llvm.lifetime.end.p0(i64 40, ptr nonnull %7) #17
  br label %225

225:                                              ; preds = %223, %205
  %226 = phi { ptr, i32 } [ %224, %223 ], [ %206, %205 ]
  call void @llvm.lifetime.end.p0(i64 24, ptr nonnull %6) #17
  %227 = load ptr, ptr %5, align 8, !tbaa !17
  %228 = icmp eq ptr %227, null
  br i1 %228, label %237, label %229

229:                                              ; preds = %225
  %230 = load ptr, ptr %26, align 8, !tbaa !20
  %231 = ptrtoint ptr %230 to i64
  %232 = ptrtoint ptr %227 to i64
  %233 = sub i64 %231, %232
  %234 = ashr exact i64 %233, 3
  %235 = sub nsw i64 0, %234
  %236 = getelementptr inbounds i64, ptr %230, i64 %235
  call void @_ZdlPv(ptr noundef %236) #19
  store ptr null, ptr %5, align 8
  store i32 0, ptr %23, align 8
  store ptr null, ptr %24, align 8
  br label %237

237:                                              ; preds = %42, %225, %229, %203
  %238 = phi { ptr, i32 } [ %204, %203 ], [ %43, %42 ], [ %226, %225 ], [ %226, %229 ]
  call void @llvm.lifetime.end.p0(i64 40, ptr nonnull %5) #17
  br label %239

239:                                              ; preds = %237, %201
  %240 = phi { ptr, i32 } [ %238, %237 ], [ %202, %201 ]
  %241 = load ptr, ptr %4, align 8, !tbaa !8
  %242 = icmp eq ptr %241, null
  br i1 %242, label %244, label %243

243:                                              ; preds = %239
  call void @_ZdlPv(ptr noundef nonnull %241) #19
  br label %244

244:                                              ; preds = %243, %239
  call void @llvm.lifetime.end.p0(i64 24, ptr nonnull %4) #17
  call void @llvm.lifetime.end.p0(i64 60, ptr nonnull %3) #17
  br label %1102

245:                                              ; preds = %128
  %246 = landingpad { ptr, i32 }
          cleanup
  br label %1100

247:                                              ; preds = %130
  %248 = landingpad { ptr, i32 }
          cleanup
  br label %1094

249:                                              ; preds = %133
  %250 = landingpad { ptr, i32 }
          cleanup
  br label %1088

251:                                              ; preds = %1037, %138
  %252 = landingpad { ptr, i32 }
          cleanup
  br label %1086

253:                                              ; preds = %167, %183, %181, %180, %179, %139
  %254 = landingpad { ptr, i32 }
          cleanup
  br label %1079

255:                                              ; preds = %184
  %256 = landingpad { ptr, i32 }
          cleanup
  br label %1077

257:                                              ; preds = %185, %187, %189
  %258 = phi ptr [ %190, %189 ], [ %188, %187 ], [ %186, %185 ]
  %259 = landingpad { ptr, i32 }
          cleanup
  br label %260

260:                                              ; preds = %257, %263
  %261 = phi ptr [ %262, %263 ], [ %258, %257 ]
  %262 = getelementptr inbounds %"class.dealii::FullMatrix", ptr %261, i64 -1
  invoke void @_ZN6dealii9TableBaseILi2EdED2Ev(ptr noundef nonnull align 8 dereferenceable(92) %262)
          to label %263 unwind label %1108

263:                                              ; preds = %260
  %264 = icmp eq ptr %262, %9
  br i1 %264, label %1077, label %260

265:                                              ; preds = %191
  %266 = getelementptr inbounds %"class.dealii::TableBase", ptr %9, i64 0, i32 1
  %267 = load ptr, ptr %266, align 8, !tbaa !107
  %268 = icmp eq ptr %267, null
  br i1 %268, label %270, label %269

269:                                              ; preds = %265
  call void @_ZdaPv(ptr noundef nonnull %267) #19
  br label %270

270:                                              ; preds = %269, %265
  call void @llvm.memset.p0.i64(ptr noundef nonnull align 8 dereferenceable(20) %266, i8 0, i64 20, i1 false)
  br label %295

271:                                              ; preds = %191
  %272 = getelementptr inbounds %"class.dealii::TableBase", ptr %9, i64 0, i32 2
  %273 = load i32, ptr %272, align 16, !tbaa !108
  %274 = icmp ult i32 %273, %199
  %275 = getelementptr inbounds %"class.dealii::TableBase", ptr %9, i64 0, i32 1
  %276 = load ptr, ptr %275, align 8, !tbaa !107
  br i1 %274, label %277, label %290

277:                                              ; preds = %271
  %278 = icmp eq ptr %276, null
  br i1 %278, label %283, label %279

279:                                              ; preds = %277
  call void @_ZdaPv(ptr noundef nonnull %276) #19
  %280 = load i32, ptr %194, align 4, !tbaa !15
  %281 = load i32, ptr %198, align 8, !tbaa !15
  %282 = mul i32 %281, %280
  br label %283

283:                                              ; preds = %279, %277
  %284 = phi i32 [ %282, %279 ], [ %199, %277 ]
  store i32 %199, ptr %272, align 16, !tbaa !108
  %285 = zext i32 %199 to i64
  %286 = shl nuw nsw i64 %285, 3
  %287 = invoke noalias noundef nonnull ptr @_Znam(i64 noundef %286) #18
          to label %288 unwind label %413

288:                                              ; preds = %283
  store ptr %287, ptr %275, align 8, !tbaa !107
  %289 = icmp eq i32 %284, 0
  br i1 %289, label %295, label %290

290:                                              ; preds = %288, %271
  %291 = phi ptr [ %287, %288 ], [ %276, %271 ]
  %292 = phi i32 [ %284, %288 ], [ %199, %271 ]
  %293 = zext i32 %292 to i64
  %294 = shl nuw nsw i64 %293, 3
  call void @llvm.memset.p0.i64(ptr align 8 %291, i8 0, i64 %294, i1 false), !tbaa !109
  br label %295

295:                                              ; preds = %290, %288, %270
  %296 = load i32, ptr %192, align 4, !tbaa !111
  %297 = getelementptr inbounds %"class.dealii::FullMatrix", ptr %9, i64 1, i32 0, i32 0, i32 3
  %298 = zext i32 %296 to i64
  %299 = shl nuw i64 %298, 32
  %300 = or i64 %299, %298
  store i64 %300, ptr %297, align 4
  %301 = getelementptr inbounds %"class.dealii::FullMatrix", ptr %9, i64 1, i32 0, i32 0, i32 3, i32 0, i32 0, i64 1
  %302 = mul i32 %296, %296
  %303 = icmp eq i32 %302, 0
  br i1 %303, label %328, label %304

304:                                              ; preds = %295
  %305 = getelementptr inbounds %"class.dealii::FullMatrix", ptr %9, i64 1, i32 0, i32 0, i32 2
  %306 = load i32, ptr %305, align 16, !tbaa !108
  %307 = icmp ult i32 %306, %302
  %308 = getelementptr inbounds %"class.dealii::FullMatrix", ptr %9, i64 1, i32 0, i32 0, i32 1
  %309 = load ptr, ptr %308, align 8, !tbaa !107
  br i1 %307, label %310, label %323

310:                                              ; preds = %304
  %311 = icmp eq ptr %309, null
  br i1 %311, label %316, label %312

312:                                              ; preds = %310
  call void @_ZdaPv(ptr noundef nonnull %309) #19
  %313 = load i32, ptr %297, align 4, !tbaa !15
  %314 = load i32, ptr %301, align 8, !tbaa !15
  %315 = mul i32 %314, %313
  br label %316

316:                                              ; preds = %312, %310
  %317 = phi i32 [ %315, %312 ], [ %302, %310 ]
  store i32 %302, ptr %305, align 16, !tbaa !108
  %318 = zext i32 %302 to i64
  %319 = shl nuw nsw i64 %318, 3
  %320 = invoke noalias noundef nonnull ptr @_Znam(i64 noundef %319) #18
          to label %321 unwind label %413

321:                                              ; preds = %316
  store ptr %320, ptr %308, align 8, !tbaa !107
  %322 = icmp eq i32 %317, 0
  br i1 %322, label %334, label %323

323:                                              ; preds = %321, %304
  %324 = phi ptr [ %320, %321 ], [ %309, %304 ]
  %325 = phi i32 [ %317, %321 ], [ %302, %304 ]
  %326 = zext i32 %325 to i64
  %327 = shl nuw nsw i64 %326, 3
  call void @llvm.memset.p0.i64(ptr align 8 %324, i8 0, i64 %327, i1 false), !tbaa !109
  br label %334

328:                                              ; preds = %295
  %329 = getelementptr inbounds %"class.dealii::FullMatrix", ptr %9, i64 1, i32 0, i32 0, i32 1
  %330 = load ptr, ptr %329, align 8, !tbaa !107
  %331 = icmp eq ptr %330, null
  br i1 %331, label %333, label %332

332:                                              ; preds = %328
  call void @_ZdaPv(ptr noundef nonnull %330) #19
  br label %333

333:                                              ; preds = %332, %328
  call void @llvm.memset.p0.i64(ptr noundef nonnull align 8 dereferenceable(20) %329, i8 0, i64 20, i1 false)
  br label %334

334:                                              ; preds = %333, %323, %321
  %335 = load i32, ptr %192, align 4, !tbaa !111
  %336 = getelementptr inbounds %"class.dealii::FullMatrix", ptr %9, i64 2, i32 0, i32 0, i32 3
  %337 = zext i32 %335 to i64
  %338 = shl nuw i64 %337, 32
  %339 = or i64 %338, %337
  store i64 %339, ptr %336, align 4
  %340 = getelementptr inbounds %"class.dealii::FullMatrix", ptr %9, i64 2, i32 0, i32 0, i32 3, i32 0, i32 0, i64 1
  %341 = mul i32 %335, %335
  %342 = icmp eq i32 %341, 0
  br i1 %342, label %367, label %343

343:                                              ; preds = %334
  %344 = getelementptr inbounds %"class.dealii::FullMatrix", ptr %9, i64 2, i32 0, i32 0, i32 2
  %345 = load i32, ptr %344, align 16, !tbaa !108
  %346 = icmp ult i32 %345, %341
  %347 = getelementptr inbounds %"class.dealii::FullMatrix", ptr %9, i64 2, i32 0, i32 0, i32 1
  %348 = load ptr, ptr %347, align 8, !tbaa !107
  br i1 %346, label %349, label %362

349:                                              ; preds = %343
  %350 = icmp eq ptr %348, null
  br i1 %350, label %355, label %351

351:                                              ; preds = %349
  call void @_ZdaPv(ptr noundef nonnull %348) #19
  %352 = load i32, ptr %336, align 4, !tbaa !15
  %353 = load i32, ptr %340, align 8, !tbaa !15
  %354 = mul i32 %353, %352
  br label %355

355:                                              ; preds = %351, %349
  %356 = phi i32 [ %354, %351 ], [ %341, %349 ]
  store i32 %341, ptr %344, align 16, !tbaa !108
  %357 = zext i32 %341 to i64
  %358 = shl nuw nsw i64 %357, 3
  %359 = invoke noalias noundef nonnull ptr @_Znam(i64 noundef %358) #18
          to label %360 unwind label %413

360:                                              ; preds = %355
  store ptr %359, ptr %347, align 8, !tbaa !107
  %361 = icmp eq i32 %356, 0
  br i1 %361, label %373, label %362

362:                                              ; preds = %360, %343
  %363 = phi ptr [ %359, %360 ], [ %348, %343 ]
  %364 = phi i32 [ %356, %360 ], [ %341, %343 ]
  %365 = zext i32 %364 to i64
  %366 = shl nuw nsw i64 %365, 3
  call void @llvm.memset.p0.i64(ptr align 8 %363, i8 0, i64 %366, i1 false), !tbaa !109
  br label %373

367:                                              ; preds = %334
  %368 = getelementptr inbounds %"class.dealii::FullMatrix", ptr %9, i64 2, i32 0, i32 0, i32 1
  %369 = load ptr, ptr %368, align 8, !tbaa !107
  %370 = icmp eq ptr %369, null
  br i1 %370, label %372, label %371

371:                                              ; preds = %367
  call void @_ZdaPv(ptr noundef nonnull %369) #19
  br label %372

372:                                              ; preds = %371, %367
  call void @llvm.memset.p0.i64(ptr noundef nonnull align 8 dereferenceable(20) %368, i8 0, i64 20, i1 false)
  br label %373

373:                                              ; preds = %372, %362, %360
  %374 = load i32, ptr %192, align 4, !tbaa !111
  %375 = getelementptr inbounds %"class.dealii::FullMatrix", ptr %9, i64 3, i32 0, i32 0, i32 3
  %376 = zext i32 %374 to i64
  %377 = shl nuw i64 %376, 32
  %378 = or i64 %377, %376
  store i64 %378, ptr %375, align 4
  %379 = getelementptr inbounds %"class.dealii::FullMatrix", ptr %9, i64 3, i32 0, i32 0, i32 3, i32 0, i32 0, i64 1
  %380 = mul i32 %374, %374
  %381 = icmp eq i32 %380, 0
  br i1 %381, label %406, label %382

382:                                              ; preds = %373
  %383 = getelementptr inbounds %"class.dealii::FullMatrix", ptr %9, i64 3, i32 0, i32 0, i32 2
  %384 = load i32, ptr %383, align 16, !tbaa !108
  %385 = icmp ult i32 %384, %380
  %386 = getelementptr inbounds %"class.dealii::FullMatrix", ptr %9, i64 3, i32 0, i32 0, i32 1
  %387 = load ptr, ptr %386, align 8, !tbaa !107
  br i1 %385, label %388, label %401

388:                                              ; preds = %382
  %389 = icmp eq ptr %387, null
  br i1 %389, label %394, label %390

390:                                              ; preds = %388
  call void @_ZdaPv(ptr noundef nonnull %387) #19
  %391 = load i32, ptr %375, align 4, !tbaa !15
  %392 = load i32, ptr %379, align 8, !tbaa !15
  %393 = mul i32 %392, %391
  br label %394

394:                                              ; preds = %390, %388
  %395 = phi i32 [ %393, %390 ], [ %380, %388 ]
  store i32 %380, ptr %383, align 16, !tbaa !108
  %396 = zext i32 %380 to i64
  %397 = shl nuw nsw i64 %396, 3
  %398 = invoke noalias noundef nonnull ptr @_Znam(i64 noundef %397) #18
          to label %399 unwind label %413

399:                                              ; preds = %394
  store ptr %398, ptr %386, align 8, !tbaa !107
  %400 = icmp eq i32 %395, 0
  br i1 %400, label %412, label %401

401:                                              ; preds = %399, %382
  %402 = phi ptr [ %398, %399 ], [ %387, %382 ]
  %403 = phi i32 [ %395, %399 ], [ %380, %382 ]
  %404 = zext i32 %403 to i64
  %405 = shl nuw nsw i64 %404, 3
  call void @llvm.memset.p0.i64(ptr align 8 %402, i8 0, i64 %405, i1 false), !tbaa !109
  br label %412

406:                                              ; preds = %373
  %407 = getelementptr inbounds %"class.dealii::FullMatrix", ptr %9, i64 3, i32 0, i32 0, i32 1
  %408 = load ptr, ptr %407, align 8, !tbaa !107
  %409 = icmp eq ptr %408, null
  br i1 %409, label %411, label %410

410:                                              ; preds = %406
  call void @_ZdaPv(ptr noundef nonnull %408) #19
  br label %411

411:                                              ; preds = %410, %406
  call void @llvm.memset.p0.i64(ptr noundef nonnull align 8 dereferenceable(20) %407, i8 0, i64 20, i1 false)
  br label %412

412:                                              ; preds = %411, %401, %399
  invoke void @_ZN6dealii7FETools31compute_face_embedding_matricesILi3EdLi3EEEvRKNS_13FiniteElementIXT_EXT1_EEERAsr12GeometryInfoIXT_EEE21max_children_per_face_NS_10FullMatrixIT0_EEjj(ptr noundef nonnull align 8 dereferenceable(728) %0, ptr noundef nonnull align 8 dereferenceable(384) %9, i32 noundef 0, i32 noundef 0)
          to label %415 unwind label %589

413:                                              ; preds = %394, %355, %316, %283
  %414 = landingpad { ptr, i32 }
          cleanup
  br label %1049

415:                                              ; preds = %412
  %416 = load i32, ptr %192, align 4, !tbaa !111
  %417 = shl i32 %416, 2
  %418 = getelementptr inbounds %"class.dealii::FiniteElement", ptr %0, i64 0, i32 5, i32 0, i32 0, i32 3
  %419 = zext i32 %416 to i64
  %420 = shl nuw i64 %419, 32
  %421 = zext i32 %417 to i64
  %422 = or i64 %420, %421
  store i64 %422, ptr %418, align 4
  %423 = getelementptr inbounds %"class.dealii::FiniteElement", ptr %0, i64 0, i32 5, i32 0, i32 0, i32 3, i32 0, i32 0, i64 1
  %424 = mul i32 %417, %416
  %425 = icmp eq i32 %424, 0
  br i1 %425, label %426, label %432

426:                                              ; preds = %415
  %427 = getelementptr inbounds %"class.dealii::FiniteElement", ptr %0, i64 0, i32 5, i32 0, i32 0, i32 1
  %428 = load ptr, ptr %427, align 8, !tbaa !107
  %429 = icmp eq ptr %428, null
  br i1 %429, label %431, label %430

430:                                              ; preds = %426
  call void @_ZdaPv(ptr noundef nonnull %428) #19
  br label %431

431:                                              ; preds = %430, %426
  call void @llvm.memset.p0.i64(ptr noundef nonnull align 8 dereferenceable(20) %427, i8 0, i64 20, i1 false)
  br label %456

432:                                              ; preds = %415
  %433 = getelementptr inbounds %"class.dealii::FiniteElement", ptr %0, i64 0, i32 5, i32 0, i32 0, i32 2
  %434 = load i32, ptr %433, align 8, !tbaa !108
  %435 = icmp ult i32 %434, %424
  %436 = getelementptr inbounds %"class.dealii::FiniteElement", ptr %0, i64 0, i32 5, i32 0, i32 0, i32 1
  %437 = load ptr, ptr %436, align 8, !tbaa !107
  br i1 %435, label %438, label %451

438:                                              ; preds = %432
  %439 = icmp eq ptr %437, null
  br i1 %439, label %444, label %440

440:                                              ; preds = %438
  call void @_ZdaPv(ptr noundef nonnull %437) #19
  %441 = load i32, ptr %418, align 4, !tbaa !15
  %442 = load i32, ptr %423, align 8, !tbaa !15
  %443 = mul i32 %442, %441
  br label %444

444:                                              ; preds = %440, %438
  %445 = phi i32 [ %443, %440 ], [ %424, %438 ]
  store i32 %424, ptr %433, align 8, !tbaa !108
  %446 = zext i32 %424 to i64
  %447 = shl nuw nsw i64 %446, 3
  %448 = invoke noalias noundef nonnull ptr @_Znam(i64 noundef %447) #18
          to label %449 unwind label %589

449:                                              ; preds = %444
  store ptr %448, ptr %436, align 8, !tbaa !107
  %450 = icmp eq i32 %445, 0
  br i1 %450, label %456, label %451

451:                                              ; preds = %449, %432
  %452 = phi ptr [ %448, %449 ], [ %437, %432 ]
  %453 = phi i32 [ %445, %449 ], [ %424, %432 ]
  %454 = zext i32 %453 to i64
  %455 = shl nuw nsw i64 %454, 3
  call void @llvm.memset.p0.i64(ptr align 8 %452, i8 0, i64 %455, i1 false), !tbaa !109
  br label %456

456:                                              ; preds = %431, %449, %451
  %457 = getelementptr inbounds %"class.dealii::FiniteElement", ptr %0, i64 0, i32 5, i32 0, i32 0, i32 1
  %458 = load i32, ptr %194, align 4, !tbaa !15
  %459 = icmp eq i32 %458, 0
  br i1 %459, label %591, label %460

460:                                              ; preds = %456
  %461 = load i32, ptr %198, align 8, !tbaa !15
  %462 = icmp eq i32 %461, 0
  %463 = load ptr, ptr %457, align 8
  %464 = ptrtoint ptr %463 to i64
  %465 = load i32, ptr %423, align 8
  br i1 %462, label %591, label %466

466:                                              ; preds = %460
  %467 = getelementptr inbounds %"class.dealii::TableBase", ptr %9, i64 0, i32 1
  %468 = load ptr, ptr %467, align 8, !tbaa !107
  %469 = ptrtoint ptr %468 to i64
  %470 = zext i32 %461 to i64
  %471 = add nsw i64 %470, -1
  %472 = icmp ult i32 %461, 20
  %473 = trunc i64 %471 to i32
  %474 = trunc i64 %471 to i32
  %475 = icmp ugt i64 %471, 4294967295
  %476 = and i64 %470, 4294967280
  %477 = icmp eq i64 %476, %470
  %478 = and i64 %470, 3
  %479 = icmp eq i64 %478, 0
  br label %480

480:                                              ; preds = %586, %466
  %481 = phi i32 [ 0, %466 ], [ %587, %586 ]
  %482 = mul i32 %461, %481
  %483 = mul i32 %465, %481
  br i1 %472, label %526, label %484

484:                                              ; preds = %480
  %485 = mul i32 %461, %481
  %486 = zext i32 %485 to i64
  %487 = shl nuw nsw i64 %486, 3
  %488 = add i64 %487, %469
  %489 = mul i32 %465, %481
  %490 = zext i32 %489 to i64
  %491 = shl nuw nsw i64 %490, 3
  %492 = add i64 %491, %464
  %493 = mul i32 %461, %481
  %494 = mul i32 %465, %481
  %495 = xor i32 %494, -1
  %496 = icmp ult i32 %495, %473
  %497 = xor i32 %493, -1
  %498 = icmp ult i32 %497, %474
  %499 = or i1 %498, %475
  %500 = or i1 %496, %499
  %501 = sub i64 %492, %488
  %502 = icmp ult i64 %501, 128
  %503 = select i1 %500, i1 true, i1 %502
  br i1 %503, label %526, label %504

504:                                              ; preds = %484, %504
  %505 = phi i64 [ %523, %504 ], [ 0, %484 ]
  %506 = trunc i64 %505 to i32
  %507 = add i32 %482, %506
  %508 = zext i32 %507 to i64
  %509 = getelementptr inbounds double, ptr %468, i64 %508
  %510 = load <4 x double>, ptr %509, align 8, !tbaa !109
  %511 = getelementptr inbounds double, ptr %509, i64 4
  %512 = load <4 x double>, ptr %511, align 8, !tbaa !109
  %513 = getelementptr inbounds double, ptr %509, i64 8
  %514 = load <4 x double>, ptr %513, align 8, !tbaa !109
  %515 = getelementptr inbounds double, ptr %509, i64 12
  %516 = load <4 x double>, ptr %515, align 8, !tbaa !109
  %517 = add i32 %483, %506
  %518 = zext i32 %517 to i64
  %519 = getelementptr inbounds double, ptr %463, i64 %518
  store <4 x double> %510, ptr %519, align 8, !tbaa !109
  %520 = getelementptr inbounds double, ptr %519, i64 4
  store <4 x double> %512, ptr %520, align 8, !tbaa !109
  %521 = getelementptr inbounds double, ptr %519, i64 8
  store <4 x double> %514, ptr %521, align 8, !tbaa !109
  %522 = getelementptr inbounds double, ptr %519, i64 12
  store <4 x double> %516, ptr %522, align 8, !tbaa !109
  %523 = add nuw i64 %505, 16
  %524 = icmp eq i64 %523, %476
  br i1 %524, label %525, label %504, !llvm.loop !112

525:                                              ; preds = %504
  br i1 %477, label %586, label %526

526:                                              ; preds = %484, %480, %525
  %527 = phi i64 [ 0, %484 ], [ 0, %480 ], [ %476, %525 ]
  %528 = xor i64 %527, -1
  %529 = add nsw i64 %528, %470
  br i1 %479, label %544, label %530

530:                                              ; preds = %526, %530
  %531 = phi i64 [ %541, %530 ], [ %527, %526 ]
  %532 = phi i64 [ %542, %530 ], [ 0, %526 ]
  %533 = trunc i64 %531 to i32
  %534 = add i32 %482, %533
  %535 = zext i32 %534 to i64
  %536 = getelementptr inbounds double, ptr %468, i64 %535
  %537 = load double, ptr %536, align 8, !tbaa !109
  %538 = add i32 %483, %533
  %539 = zext i32 %538 to i64
  %540 = getelementptr inbounds double, ptr %463, i64 %539
  store double %537, ptr %540, align 8, !tbaa !109
  %541 = add nuw nsw i64 %531, 1
  %542 = add i64 %532, 1
  %543 = icmp eq i64 %542, %478
  br i1 %543, label %544, label %530, !llvm.loop !115

544:                                              ; preds = %530, %526
  %545 = phi i64 [ %527, %526 ], [ %541, %530 ]
  %546 = icmp ult i64 %529, 3
  br i1 %546, label %586, label %547

547:                                              ; preds = %544, %547
  %548 = phi i64 [ %584, %547 ], [ %545, %544 ]
  %549 = trunc i64 %548 to i32
  %550 = add i32 %482, %549
  %551 = zext i32 %550 to i64
  %552 = getelementptr inbounds double, ptr %468, i64 %551
  %553 = load double, ptr %552, align 8, !tbaa !109
  %554 = add i32 %483, %549
  %555 = zext i32 %554 to i64
  %556 = getelementptr inbounds double, ptr %463, i64 %555
  store double %553, ptr %556, align 8, !tbaa !109
  %557 = trunc i64 %548 to i32
  %558 = add i32 %557, 1
  %559 = add i32 %482, %558
  %560 = zext i32 %559 to i64
  %561 = getelementptr inbounds double, ptr %468, i64 %560
  %562 = load double, ptr %561, align 8, !tbaa !109
  %563 = add i32 %483, %558
  %564 = zext i32 %563 to i64
  %565 = getelementptr inbounds double, ptr %463, i64 %564
  store double %562, ptr %565, align 8, !tbaa !109
  %566 = trunc i64 %548 to i32
  %567 = add i32 %566, 2
  %568 = add i32 %482, %567
  %569 = zext i32 %568 to i64
  %570 = getelementptr inbounds double, ptr %468, i64 %569
  %571 = load double, ptr %570, align 8, !tbaa !109
  %572 = add i32 %483, %567
  %573 = zext i32 %572 to i64
  %574 = getelementptr inbounds double, ptr %463, i64 %573
  store double %571, ptr %574, align 8, !tbaa !109
  %575 = trunc i64 %548 to i32
  %576 = add i32 %575, 3
  %577 = add i32 %482, %576
  %578 = zext i32 %577 to i64
  %579 = getelementptr inbounds double, ptr %468, i64 %578
  %580 = load double, ptr %579, align 8, !tbaa !109
  %581 = add i32 %483, %576
  %582 = zext i32 %581 to i64
  %583 = getelementptr inbounds double, ptr %463, i64 %582
  store double %580, ptr %583, align 8, !tbaa !109
  %584 = add nuw nsw i64 %548, 4
  %585 = icmp eq i64 %584, %470
  br i1 %585, label %586, label %547, !llvm.loop !117

586:                                              ; preds = %544, %547, %525
  %587 = add nuw i32 %481, 1
  %588 = icmp eq i32 %587, %458
  br i1 %588, label %591, label %480

589:                                              ; preds = %444, %412
  %590 = landingpad { ptr, i32 }
          cleanup
  br label %1049

591:                                              ; preds = %586, %460, %456
  %592 = load i32, ptr %297, align 4, !tbaa !15
  %593 = icmp eq i32 %592, 0
  br i1 %593, label %729, label %594

594:                                              ; preds = %591
  %595 = load i32, ptr %301, align 8, !tbaa !15
  %596 = icmp eq i32 %595, 0
  %597 = load ptr, ptr %457, align 8
  %598 = ptrtoint ptr %597 to i64
  %599 = load i32, ptr %423, align 8
  br i1 %596, label %727, label %600

600:                                              ; preds = %594
  %601 = getelementptr inbounds %"class.dealii::FullMatrix", ptr %9, i64 1, i32 0, i32 0, i32 1
  %602 = load ptr, ptr %601, align 8, !tbaa !107
  %603 = ptrtoint ptr %602 to i64
  %604 = zext i32 %595 to i64
  %605 = add nsw i64 %604, -1
  %606 = icmp ult i32 %595, 20
  %607 = trunc i64 %605 to i32
  %608 = trunc i64 %605 to i32
  %609 = icmp ugt i64 %605, 4294967295
  %610 = and i64 %604, 4294967280
  %611 = icmp eq i64 %610, %604
  %612 = and i64 %604, 3
  %613 = icmp eq i64 %612, 0
  br label %614

614:                                              ; preds = %723, %600
  %615 = phi i32 [ 0, %600 ], [ %725, %723 ]
  %616 = phi i32 [ %458, %600 ], [ %724, %723 ]
  %617 = mul i32 %595, %615
  %618 = mul i32 %599, %616
  br i1 %606, label %663, label %619

619:                                              ; preds = %614
  %620 = mul i32 %595, %615
  %621 = zext i32 %620 to i64
  %622 = shl nuw nsw i64 %621, 3
  %623 = add i64 %622, %603
  %624 = add i32 %458, %615
  %625 = mul i32 %599, %624
  %626 = zext i32 %625 to i64
  %627 = shl nuw nsw i64 %626, 3
  %628 = add i64 %627, %598
  %629 = mul i32 %595, %615
  %630 = add i32 %458, %615
  %631 = mul i32 %599, %630
  %632 = xor i32 %631, -1
  %633 = icmp ult i32 %632, %607
  %634 = xor i32 %629, -1
  %635 = icmp ult i32 %634, %608
  %636 = or i1 %635, %609
  %637 = or i1 %633, %636
  %638 = sub i64 %628, %623
  %639 = icmp ult i64 %638, 128
  %640 = select i1 %637, i1 true, i1 %639
  br i1 %640, label %663, label %641

641:                                              ; preds = %619, %641
  %642 = phi i64 [ %660, %641 ], [ 0, %619 ]
  %643 = trunc i64 %642 to i32
  %644 = add i32 %617, %643
  %645 = zext i32 %644 to i64
  %646 = getelementptr inbounds double, ptr %602, i64 %645
  %647 = load <4 x double>, ptr %646, align 8, !tbaa !109
  %648 = getelementptr inbounds double, ptr %646, i64 4
  %649 = load <4 x double>, ptr %648, align 8, !tbaa !109
  %650 = getelementptr inbounds double, ptr %646, i64 8
  %651 = load <4 x double>, ptr %650, align 8, !tbaa !109
  %652 = getelementptr inbounds double, ptr %646, i64 12
  %653 = load <4 x double>, ptr %652, align 8, !tbaa !109
  %654 = add i32 %618, %643
  %655 = zext i32 %654 to i64
  %656 = getelementptr inbounds double, ptr %597, i64 %655
  store <4 x double> %647, ptr %656, align 8, !tbaa !109
  %657 = getelementptr inbounds double, ptr %656, i64 4
  store <4 x double> %649, ptr %657, align 8, !tbaa !109
  %658 = getelementptr inbounds double, ptr %656, i64 8
  store <4 x double> %651, ptr %658, align 8, !tbaa !109
  %659 = getelementptr inbounds double, ptr %656, i64 12
  store <4 x double> %653, ptr %659, align 8, !tbaa !109
  %660 = add nuw i64 %642, 16
  %661 = icmp eq i64 %660, %610
  br i1 %661, label %662, label %641, !llvm.loop !118

662:                                              ; preds = %641
  br i1 %611, label %723, label %663

663:                                              ; preds = %619, %614, %662
  %664 = phi i64 [ 0, %619 ], [ 0, %614 ], [ %610, %662 ]
  %665 = xor i64 %664, -1
  %666 = add nsw i64 %665, %604
  br i1 %613, label %681, label %667

667:                                              ; preds = %663, %667
  %668 = phi i64 [ %678, %667 ], [ %664, %663 ]
  %669 = phi i64 [ %679, %667 ], [ 0, %663 ]
  %670 = trunc i64 %668 to i32
  %671 = add i32 %617, %670
  %672 = zext i32 %671 to i64
  %673 = getelementptr inbounds double, ptr %602, i64 %672
  %674 = load double, ptr %673, align 8, !tbaa !109
  %675 = add i32 %618, %670
  %676 = zext i32 %675 to i64
  %677 = getelementptr inbounds double, ptr %597, i64 %676
  store double %674, ptr %677, align 8, !tbaa !109
  %678 = add nuw nsw i64 %668, 1
  %679 = add i64 %669, 1
  %680 = icmp eq i64 %679, %612
  br i1 %680, label %681, label %667, !llvm.loop !119

681:                                              ; preds = %667, %663
  %682 = phi i64 [ %664, %663 ], [ %678, %667 ]
  %683 = icmp ult i64 %666, 3
  br i1 %683, label %723, label %684

684:                                              ; preds = %681, %684
  %685 = phi i64 [ %721, %684 ], [ %682, %681 ]
  %686 = trunc i64 %685 to i32
  %687 = add i32 %617, %686
  %688 = zext i32 %687 to i64
  %689 = getelementptr inbounds double, ptr %602, i64 %688
  %690 = load double, ptr %689, align 8, !tbaa !109
  %691 = add i32 %618, %686
  %692 = zext i32 %691 to i64
  %693 = getelementptr inbounds double, ptr %597, i64 %692
  store double %690, ptr %693, align 8, !tbaa !109
  %694 = trunc i64 %685 to i32
  %695 = add i32 %694, 1
  %696 = add i32 %617, %695
  %697 = zext i32 %696 to i64
  %698 = getelementptr inbounds double, ptr %602, i64 %697
  %699 = load double, ptr %698, align 8, !tbaa !109
  %700 = add i32 %618, %695
  %701 = zext i32 %700 to i64
  %702 = getelementptr inbounds double, ptr %597, i64 %701
  store double %699, ptr %702, align 8, !tbaa !109
  %703 = trunc i64 %685 to i32
  %704 = add i32 %703, 2
  %705 = add i32 %617, %704
  %706 = zext i32 %705 to i64
  %707 = getelementptr inbounds double, ptr %602, i64 %706
  %708 = load double, ptr %707, align 8, !tbaa !109
  %709 = add i32 %618, %704
  %710 = zext i32 %709 to i64
  %711 = getelementptr inbounds double, ptr %597, i64 %710
  store double %708, ptr %711, align 8, !tbaa !109
  %712 = trunc i64 %685 to i32
  %713 = add i32 %712, 3
  %714 = add i32 %617, %713
  %715 = zext i32 %714 to i64
  %716 = getelementptr inbounds double, ptr %602, i64 %715
  %717 = load double, ptr %716, align 8, !tbaa !109
  %718 = add i32 %618, %713
  %719 = zext i32 %718 to i64
  %720 = getelementptr inbounds double, ptr %597, i64 %719
  store double %717, ptr %720, align 8, !tbaa !109
  %721 = add nuw nsw i64 %685, 4
  %722 = icmp eq i64 %721, %604
  br i1 %722, label %723, label %684, !llvm.loop !120

723:                                              ; preds = %681, %684, %662
  %724 = add i32 %616, 1
  %725 = add nuw i32 %615, 1
  %726 = icmp eq i32 %725, %592
  br i1 %726, label %729, label %614

727:                                              ; preds = %594
  %728 = add i32 %458, %592
  br label %729

729:                                              ; preds = %723, %727, %591
  %730 = phi i32 [ %458, %591 ], [ %728, %727 ], [ %724, %723 ]
  %731 = load i32, ptr %336, align 4, !tbaa !15
  %732 = icmp eq i32 %731, 0
  br i1 %732, label %868, label %733

733:                                              ; preds = %729
  %734 = load i32, ptr %340, align 8, !tbaa !15
  %735 = icmp eq i32 %734, 0
  %736 = load ptr, ptr %457, align 8
  %737 = ptrtoint ptr %736 to i64
  %738 = load i32, ptr %423, align 8
  br i1 %735, label %866, label %739

739:                                              ; preds = %733
  %740 = getelementptr inbounds %"class.dealii::FullMatrix", ptr %9, i64 2, i32 0, i32 0, i32 1
  %741 = load ptr, ptr %740, align 8, !tbaa !107
  %742 = ptrtoint ptr %741 to i64
  %743 = zext i32 %734 to i64
  %744 = add nsw i64 %743, -1
  %745 = icmp ult i32 %734, 20
  %746 = trunc i64 %744 to i32
  %747 = trunc i64 %744 to i32
  %748 = icmp ugt i64 %744, 4294967295
  %749 = and i64 %743, 4294967280
  %750 = icmp eq i64 %749, %743
  %751 = and i64 %743, 3
  %752 = icmp eq i64 %751, 0
  br label %753

753:                                              ; preds = %862, %739
  %754 = phi i32 [ 0, %739 ], [ %864, %862 ]
  %755 = phi i32 [ %730, %739 ], [ %863, %862 ]
  %756 = mul i32 %734, %754
  %757 = mul i32 %738, %755
  br i1 %745, label %802, label %758

758:                                              ; preds = %753
  %759 = mul i32 %734, %754
  %760 = zext i32 %759 to i64
  %761 = shl nuw nsw i64 %760, 3
  %762 = add i64 %761, %742
  %763 = add i32 %730, %754
  %764 = mul i32 %763, %738
  %765 = zext i32 %764 to i64
  %766 = shl nuw nsw i64 %765, 3
  %767 = add i64 %766, %737
  %768 = mul i32 %734, %754
  %769 = add i32 %730, %754
  %770 = mul i32 %769, %738
  %771 = xor i32 %770, -1
  %772 = icmp ult i32 %771, %746
  %773 = xor i32 %768, -1
  %774 = icmp ult i32 %773, %747
  %775 = or i1 %774, %748
  %776 = or i1 %772, %775
  %777 = sub i64 %767, %762
  %778 = icmp ult i64 %777, 128
  %779 = select i1 %776, i1 true, i1 %778
  br i1 %779, label %802, label %780

780:                                              ; preds = %758, %780
  %781 = phi i64 [ %799, %780 ], [ 0, %758 ]
  %782 = trunc i64 %781 to i32
  %783 = add i32 %756, %782
  %784 = zext i32 %783 to i64
  %785 = getelementptr inbounds double, ptr %741, i64 %784
  %786 = load <4 x double>, ptr %785, align 8, !tbaa !109
  %787 = getelementptr inbounds double, ptr %785, i64 4
  %788 = load <4 x double>, ptr %787, align 8, !tbaa !109
  %789 = getelementptr inbounds double, ptr %785, i64 8
  %790 = load <4 x double>, ptr %789, align 8, !tbaa !109
  %791 = getelementptr inbounds double, ptr %785, i64 12
  %792 = load <4 x double>, ptr %791, align 8, !tbaa !109
  %793 = add i32 %757, %782
  %794 = zext i32 %793 to i64
  %795 = getelementptr inbounds double, ptr %736, i64 %794
  store <4 x double> %786, ptr %795, align 8, !tbaa !109
  %796 = getelementptr inbounds double, ptr %795, i64 4
  store <4 x double> %788, ptr %796, align 8, !tbaa !109
  %797 = getelementptr inbounds double, ptr %795, i64 8
  store <4 x double> %790, ptr %797, align 8, !tbaa !109
  %798 = getelementptr inbounds double, ptr %795, i64 12
  store <4 x double> %792, ptr %798, align 8, !tbaa !109
  %799 = add nuw i64 %781, 16
  %800 = icmp eq i64 %799, %749
  br i1 %800, label %801, label %780, !llvm.loop !121

801:                                              ; preds = %780
  br i1 %750, label %862, label %802

802:                                              ; preds = %758, %753, %801
  %803 = phi i64 [ 0, %758 ], [ 0, %753 ], [ %749, %801 ]
  %804 = xor i64 %803, -1
  %805 = add nsw i64 %804, %743
  br i1 %752, label %820, label %806

806:                                              ; preds = %802, %806
  %807 = phi i64 [ %817, %806 ], [ %803, %802 ]
  %808 = phi i64 [ %818, %806 ], [ 0, %802 ]
  %809 = trunc i64 %807 to i32
  %810 = add i32 %756, %809
  %811 = zext i32 %810 to i64
  %812 = getelementptr inbounds double, ptr %741, i64 %811
  %813 = load double, ptr %812, align 8, !tbaa !109
  %814 = add i32 %757, %809
  %815 = zext i32 %814 to i64
  %816 = getelementptr inbounds double, ptr %736, i64 %815
  store double %813, ptr %816, align 8, !tbaa !109
  %817 = add nuw nsw i64 %807, 1
  %818 = add i64 %808, 1
  %819 = icmp eq i64 %818, %751
  br i1 %819, label %820, label %806, !llvm.loop !122

820:                                              ; preds = %806, %802
  %821 = phi i64 [ %803, %802 ], [ %817, %806 ]
  %822 = icmp ult i64 %805, 3
  br i1 %822, label %862, label %823

823:                                              ; preds = %820, %823
  %824 = phi i64 [ %860, %823 ], [ %821, %820 ]
  %825 = trunc i64 %824 to i32
  %826 = add i32 %756, %825
  %827 = zext i32 %826 to i64
  %828 = getelementptr inbounds double, ptr %741, i64 %827
  %829 = load double, ptr %828, align 8, !tbaa !109
  %830 = add i32 %757, %825
  %831 = zext i32 %830 to i64
  %832 = getelementptr inbounds double, ptr %736, i64 %831
  store double %829, ptr %832, align 8, !tbaa !109
  %833 = trunc i64 %824 to i32
  %834 = add i32 %833, 1
  %835 = add i32 %756, %834
  %836 = zext i32 %835 to i64
  %837 = getelementptr inbounds double, ptr %741, i64 %836
  %838 = load double, ptr %837, align 8, !tbaa !109
  %839 = add i32 %757, %834
  %840 = zext i32 %839 to i64
  %841 = getelementptr inbounds double, ptr %736, i64 %840
  store double %838, ptr %841, align 8, !tbaa !109
  %842 = trunc i64 %824 to i32
  %843 = add i32 %842, 2
  %844 = add i32 %756, %843
  %845 = zext i32 %844 to i64
  %846 = getelementptr inbounds double, ptr %741, i64 %845
  %847 = load double, ptr %846, align 8, !tbaa !109
  %848 = add i32 %757, %843
  %849 = zext i32 %848 to i64
  %850 = getelementptr inbounds double, ptr %736, i64 %849
  store double %847, ptr %850, align 8, !tbaa !109
  %851 = trunc i64 %824 to i32
  %852 = add i32 %851, 3
  %853 = add i32 %756, %852
  %854 = zext i32 %853 to i64
  %855 = getelementptr inbounds double, ptr %741, i64 %854
  %856 = load double, ptr %855, align 8, !tbaa !109
  %857 = add i32 %757, %852
  %858 = zext i32 %857 to i64
  %859 = getelementptr inbounds double, ptr %736, i64 %858
  store double %856, ptr %859, align 8, !tbaa !109
  %860 = add nuw nsw i64 %824, 4
  %861 = icmp eq i64 %860, %743
  br i1 %861, label %862, label %823, !llvm.loop !123

862:                                              ; preds = %820, %823, %801
  %863 = add i32 %755, 1
  %864 = add nuw i32 %754, 1
  %865 = icmp eq i32 %864, %731
  br i1 %865, label %868, label %753

866:                                              ; preds = %733
  %867 = add i32 %730, %731
  br label %868

868:                                              ; preds = %862, %866, %729
  %869 = phi i32 [ %730, %729 ], [ %867, %866 ], [ %863, %862 ]
  %870 = load i32, ptr %375, align 4, !tbaa !15
  %871 = icmp eq i32 %870, 0
  br i1 %871, label %1005, label %872

872:                                              ; preds = %868
  %873 = load i32, ptr %379, align 8, !tbaa !15
  %874 = icmp eq i32 %873, 0
  %875 = load ptr, ptr %457, align 8
  %876 = ptrtoint ptr %875 to i64
  %877 = load i32, ptr %423, align 8
  br i1 %874, label %1005, label %878

878:                                              ; preds = %872
  %879 = getelementptr inbounds %"class.dealii::FullMatrix", ptr %9, i64 3, i32 0, i32 0, i32 1
  %880 = load ptr, ptr %879, align 8, !tbaa !107
  %881 = ptrtoint ptr %880 to i64
  %882 = zext i32 %873 to i64
  %883 = add nsw i64 %882, -1
  %884 = icmp ult i32 %873, 20
  %885 = trunc i64 %883 to i32
  %886 = trunc i64 %883 to i32
  %887 = icmp ugt i64 %883, 4294967295
  %888 = and i64 %882, 4294967280
  %889 = icmp eq i64 %888, %882
  %890 = and i64 %882, 3
  %891 = icmp eq i64 %890, 0
  br label %892

892:                                              ; preds = %1001, %878
  %893 = phi i32 [ 0, %878 ], [ %1003, %1001 ]
  %894 = phi i32 [ %869, %878 ], [ %1002, %1001 ]
  %895 = mul i32 %873, %893
  %896 = mul i32 %877, %894
  br i1 %884, label %941, label %897

897:                                              ; preds = %892
  %898 = mul i32 %873, %893
  %899 = zext i32 %898 to i64
  %900 = shl nuw nsw i64 %899, 3
  %901 = add i64 %900, %881
  %902 = add i32 %869, %893
  %903 = mul i32 %902, %877
  %904 = zext i32 %903 to i64
  %905 = shl nuw nsw i64 %904, 3
  %906 = add i64 %905, %876
  %907 = mul i32 %873, %893
  %908 = add i32 %869, %893
  %909 = mul i32 %908, %877
  %910 = xor i32 %909, -1
  %911 = icmp ult i32 %910, %885
  %912 = xor i32 %907, -1
  %913 = icmp ult i32 %912, %886
  %914 = or i1 %913, %887
  %915 = or i1 %911, %914
  %916 = sub i64 %906, %901
  %917 = icmp ult i64 %916, 128
  %918 = select i1 %915, i1 true, i1 %917
  br i1 %918, label %941, label %919

919:                                              ; preds = %897, %919
  %920 = phi i64 [ %938, %919 ], [ 0, %897 ]
  %921 = trunc i64 %920 to i32
  %922 = add i32 %895, %921
  %923 = zext i32 %922 to i64
  %924 = getelementptr inbounds double, ptr %880, i64 %923
  %925 = load <4 x double>, ptr %924, align 8, !tbaa !109
  %926 = getelementptr inbounds double, ptr %924, i64 4
  %927 = load <4 x double>, ptr %926, align 8, !tbaa !109
  %928 = getelementptr inbounds double, ptr %924, i64 8
  %929 = load <4 x double>, ptr %928, align 8, !tbaa !109
  %930 = getelementptr inbounds double, ptr %924, i64 12
  %931 = load <4 x double>, ptr %930, align 8, !tbaa !109
  %932 = add i32 %896, %921
  %933 = zext i32 %932 to i64
  %934 = getelementptr inbounds double, ptr %875, i64 %933
  store <4 x double> %925, ptr %934, align 8, !tbaa !109
  %935 = getelementptr inbounds double, ptr %934, i64 4
  store <4 x double> %927, ptr %935, align 8, !tbaa !109
  %936 = getelementptr inbounds double, ptr %934, i64 8
  store <4 x double> %929, ptr %936, align 8, !tbaa !109
  %937 = getelementptr inbounds double, ptr %934, i64 12
  store <4 x double> %931, ptr %937, align 8, !tbaa !109
  %938 = add nuw i64 %920, 16
  %939 = icmp eq i64 %938, %888
  br i1 %939, label %940, label %919, !llvm.loop !124

940:                                              ; preds = %919
  br i1 %889, label %1001, label %941

941:                                              ; preds = %897, %892, %940
  %942 = phi i64 [ 0, %897 ], [ 0, %892 ], [ %888, %940 ]
  %943 = xor i64 %942, -1
  %944 = add nsw i64 %943, %882
  br i1 %891, label %959, label %945

945:                                              ; preds = %941, %945
  %946 = phi i64 [ %956, %945 ], [ %942, %941 ]
  %947 = phi i64 [ %957, %945 ], [ 0, %941 ]
  %948 = trunc i64 %946 to i32
  %949 = add i32 %895, %948
  %950 = zext i32 %949 to i64
  %951 = getelementptr inbounds double, ptr %880, i64 %950
  %952 = load double, ptr %951, align 8, !tbaa !109
  %953 = add i32 %896, %948
  %954 = zext i32 %953 to i64
  %955 = getelementptr inbounds double, ptr %875, i64 %954
  store double %952, ptr %955, align 8, !tbaa !109
  %956 = add nuw nsw i64 %946, 1
  %957 = add i64 %947, 1
  %958 = icmp eq i64 %957, %890
  br i1 %958, label %959, label %945, !llvm.loop !125

959:                                              ; preds = %945, %941
  %960 = phi i64 [ %942, %941 ], [ %956, %945 ]
  %961 = icmp ult i64 %944, 3
  br i1 %961, label %1001, label %962

962:                                              ; preds = %959, %962
  %963 = phi i64 [ %999, %962 ], [ %960, %959 ]
  %964 = trunc i64 %963 to i32
  %965 = add i32 %895, %964
  %966 = zext i32 %965 to i64
  %967 = getelementptr inbounds double, ptr %880, i64 %966
  %968 = load double, ptr %967, align 8, !tbaa !109
  %969 = add i32 %896, %964
  %970 = zext i32 %969 to i64
  %971 = getelementptr inbounds double, ptr %875, i64 %970
  store double %968, ptr %971, align 8, !tbaa !109
  %972 = trunc i64 %963 to i32
  %973 = add i32 %972, 1
  %974 = add i32 %895, %973
  %975 = zext i32 %974 to i64
  %976 = getelementptr inbounds double, ptr %880, i64 %975
  %977 = load double, ptr %976, align 8, !tbaa !109
  %978 = add i32 %896, %973
  %979 = zext i32 %978 to i64
  %980 = getelementptr inbounds double, ptr %875, i64 %979
  store double %977, ptr %980, align 8, !tbaa !109
  %981 = trunc i64 %963 to i32
  %982 = add i32 %981, 2
  %983 = add i32 %895, %982
  %984 = zext i32 %983 to i64
  %985 = getelementptr inbounds double, ptr %880, i64 %984
  %986 = load double, ptr %985, align 8, !tbaa !109
  %987 = add i32 %896, %982
  %988 = zext i32 %987 to i64
  %989 = getelementptr inbounds double, ptr %875, i64 %988
  store double %986, ptr %989, align 8, !tbaa !109
  %990 = trunc i64 %963 to i32
  %991 = add i32 %990, 3
  %992 = add i32 %895, %991
  %993 = zext i32 %992 to i64
  %994 = getelementptr inbounds double, ptr %880, i64 %993
  %995 = load double, ptr %994, align 8, !tbaa !109
  %996 = add i32 %896, %991
  %997 = zext i32 %996 to i64
  %998 = getelementptr inbounds double, ptr %875, i64 %997
  store double %995, ptr %998, align 8, !tbaa !109
  %999 = add nuw nsw i64 %963, 4
  %1000 = icmp eq i64 %999, %882
  br i1 %1000, label %1001, label %962, !llvm.loop !126

1001:                                             ; preds = %959, %962, %940
  %1002 = add i32 %894, 1
  %1003 = add nuw i32 %893, 1
  %1004 = icmp eq i32 %1003, %870
  br i1 %1004, label %1005, label %892

1005:                                             ; preds = %1001, %872, %868
  %1006 = getelementptr inbounds %"class.dealii::FullMatrix", ptr %9, i64 3
  store ptr getelementptr inbounds ({ [4 x ptr] }, ptr @_ZTVN6dealii9TableBaseILi2EdEE, i64 0, inrange i32 0, i64 2), ptr %1006, align 16, !tbaa !27
  %1007 = getelementptr inbounds %"class.dealii::FullMatrix", ptr %9, i64 3, i32 0, i32 0, i32 1
  %1008 = load ptr, ptr %1007, align 8, !tbaa !107
  %1009 = icmp eq ptr %1008, null
  br i1 %1009, label %1011, label %1010

1010:                                             ; preds = %1005
  call void @_ZdaPv(ptr noundef nonnull %1008) #19
  br label %1011

1011:                                             ; preds = %1010, %1005
  invoke void @_ZN6dealii11SubscriptorD2Ev(ptr noundef nonnull align 8 dereferenceable(72) %1006)
          to label %1012 unwind label %1039

1012:                                             ; preds = %1011
  %1013 = getelementptr inbounds %"class.dealii::FullMatrix", ptr %9, i64 2
  store ptr getelementptr inbounds ({ [4 x ptr] }, ptr @_ZTVN6dealii9TableBaseILi2EdEE, i64 0, inrange i32 0, i64 2), ptr %1013, align 16, !tbaa !27
  %1014 = getelementptr inbounds %"class.dealii::FullMatrix", ptr %9, i64 2, i32 0, i32 0, i32 1
  %1015 = load ptr, ptr %1014, align 8, !tbaa !107
  %1016 = icmp eq ptr %1015, null
  br i1 %1016, label %1018, label %1017

1017:                                             ; preds = %1012
  call void @_ZdaPv(ptr noundef nonnull %1015) #19
  br label %1018

1018:                                             ; preds = %1017, %1012
  invoke void @_ZN6dealii11SubscriptorD2Ev(ptr noundef nonnull align 8 dereferenceable(72) %1013)
          to label %1019 unwind label %1039

1019:                                             ; preds = %1018
  %1020 = getelementptr inbounds %"class.dealii::FullMatrix", ptr %9, i64 1
  store ptr getelementptr inbounds ({ [4 x ptr] }, ptr @_ZTVN6dealii9TableBaseILi2EdEE, i64 0, inrange i32 0, i64 2), ptr %1020, align 16, !tbaa !27
  %1021 = getelementptr inbounds %"class.dealii::FullMatrix", ptr %9, i64 1, i32 0, i32 0, i32 1
  %1022 = load ptr, ptr %1021, align 8, !tbaa !107
  %1023 = icmp eq ptr %1022, null
  br i1 %1023, label %1025, label %1024

1024:                                             ; preds = %1019
  call void @_ZdaPv(ptr noundef nonnull %1022) #19
  br label %1025

1025:                                             ; preds = %1024, %1019
  invoke void @_ZN6dealii11SubscriptorD2Ev(ptr noundef nonnull align 8 dereferenceable(72) %1020)
          to label %1026 unwind label %1039

1026:                                             ; preds = %1025
  store ptr getelementptr inbounds ({ [4 x ptr] }, ptr @_ZTVN6dealii9TableBaseILi2EdEE, i64 0, inrange i32 0, i64 2), ptr %9, align 16, !tbaa !27
  %1027 = getelementptr inbounds %"class.dealii::FullMatrix", ptr %9, i64 0, i32 0, i32 0, i32 1
  %1028 = load ptr, ptr %1027, align 8, !tbaa !107
  %1029 = icmp eq ptr %1028, null
  br i1 %1029, label %1031, label %1030

1030:                                             ; preds = %1026
  call void @_ZdaPv(ptr noundef nonnull %1028) #19
  br label %1031

1031:                                             ; preds = %1030, %1026
  invoke void @_ZN6dealii11SubscriptorD2Ev(ptr noundef nonnull align 8 dereferenceable(72) %9)
          to label %1032 unwind label %1042

1032:                                             ; preds = %1031
  call void @llvm.lifetime.end.p0(i64 384, ptr nonnull %9) #17
  store ptr getelementptr inbounds ({ [4 x ptr] }, ptr @_ZTVN6dealii9TableBaseILi2EdEE, i64 0, inrange i32 0, i64 2), ptr %8, align 8, !tbaa !27
  %1033 = getelementptr inbounds %"class.dealii::TableBase", ptr %8, i64 0, i32 1
  %1034 = load ptr, ptr %1033, align 8, !tbaa !107
  %1035 = icmp eq ptr %1034, null
  br i1 %1035, label %1037, label %1036

1036:                                             ; preds = %1032
  call void @_ZdaPv(ptr noundef nonnull %1034) #19
  br label %1037

1037:                                             ; preds = %1036, %1032
  invoke void @_ZN6dealii11SubscriptorD2Ev(ptr noundef nonnull align 8 dereferenceable(72) %8)
          to label %1038 unwind label %251

1038:                                             ; preds = %1037
  call void @llvm.lifetime.end.p0(i64 96, ptr nonnull %8) #17
  ret void

1039:                                             ; preds = %1011, %1018, %1025
  %1040 = phi ptr [ %1020, %1025 ], [ %1013, %1018 ], [ %1006, %1011 ]
  %1041 = landingpad { ptr, i32 }
          cleanup
  br label %1044

1042:                                             ; preds = %1031
  %1043 = landingpad { ptr, i32 }
          cleanup
  br label %1077

1044:                                             ; preds = %1039, %1047
  %1045 = phi ptr [ %1046, %1047 ], [ %1040, %1039 ]
  %1046 = getelementptr inbounds %"class.dealii::FullMatrix", ptr %1045, i64 -1
  invoke void @_ZN6dealii9TableBaseILi2EdED2Ev(ptr noundef nonnull align 8 dereferenceable(92) %1046)
          to label %1047 unwind label %1106

1047:                                             ; preds = %1044
  %1048 = icmp eq ptr %1046, %9
  br i1 %1048, label %1077, label %1044

1049:                                             ; preds = %589, %413
  %1050 = phi { ptr, i32 } [ %414, %413 ], [ %590, %589 ]
  %1051 = getelementptr inbounds %"class.dealii::FullMatrix", ptr %9, i64 3
  store ptr getelementptr inbounds ({ [4 x ptr] }, ptr @_ZTVN6dealii9TableBaseILi2EdEE, i64 0, inrange i32 0, i64 2), ptr %1051, align 16, !tbaa !27
  %1052 = getelementptr inbounds %"class.dealii::FullMatrix", ptr %9, i64 3, i32 0, i32 0, i32 1
  %1053 = load ptr, ptr %1052, align 8, !tbaa !107
  %1054 = icmp eq ptr %1053, null
  br i1 %1054, label %1056, label %1055

1055:                                             ; preds = %1049
  call void @_ZdaPv(ptr noundef nonnull %1053) #19
  br label %1056

1056:                                             ; preds = %1055, %1049
  invoke void @_ZN6dealii11SubscriptorD2Ev(ptr noundef nonnull align 8 dereferenceable(72) %1051)
          to label %1057 unwind label %1104

1057:                                             ; preds = %1056
  %1058 = getelementptr inbounds %"class.dealii::FullMatrix", ptr %9, i64 2
  store ptr getelementptr inbounds ({ [4 x ptr] }, ptr @_ZTVN6dealii9TableBaseILi2EdEE, i64 0, inrange i32 0, i64 2), ptr %1058, align 16, !tbaa !27
  %1059 = getelementptr inbounds %"class.dealii::FullMatrix", ptr %9, i64 2, i32 0, i32 0, i32 1
  %1060 = load ptr, ptr %1059, align 8, !tbaa !107
  %1061 = icmp eq ptr %1060, null
  br i1 %1061, label %1063, label %1062

1062:                                             ; preds = %1057
  call void @_ZdaPv(ptr noundef nonnull %1060) #19
  br label %1063

1063:                                             ; preds = %1062, %1057
  invoke void @_ZN6dealii11SubscriptorD2Ev(ptr noundef nonnull align 8 dereferenceable(72) %1058)
          to label %1064 unwind label %1104

1064:                                             ; preds = %1063
  %1065 = getelementptr inbounds %"class.dealii::FullMatrix", ptr %9, i64 1
  store ptr getelementptr inbounds ({ [4 x ptr] }, ptr @_ZTVN6dealii9TableBaseILi2EdEE, i64 0, inrange i32 0, i64 2), ptr %1065, align 16, !tbaa !27
  %1066 = getelementptr inbounds %"class.dealii::FullMatrix", ptr %9, i64 1, i32 0, i32 0, i32 1
  %1067 = load ptr, ptr %1066, align 8, !tbaa !107
  %1068 = icmp eq ptr %1067, null
  br i1 %1068, label %1070, label %1069

1069:                                             ; preds = %1064
  call void @_ZdaPv(ptr noundef nonnull %1067) #19
  br label %1070

1070:                                             ; preds = %1069, %1064
  invoke void @_ZN6dealii11SubscriptorD2Ev(ptr noundef nonnull align 8 dereferenceable(72) %1065)
          to label %1071 unwind label %1104

1071:                                             ; preds = %1070
  store ptr getelementptr inbounds ({ [4 x ptr] }, ptr @_ZTVN6dealii9TableBaseILi2EdEE, i64 0, inrange i32 0, i64 2), ptr %9, align 16, !tbaa !27
  %1072 = getelementptr inbounds %"class.dealii::FullMatrix", ptr %9, i64 0, i32 0, i32 0, i32 1
  %1073 = load ptr, ptr %1072, align 8, !tbaa !107
  %1074 = icmp eq ptr %1073, null
  br i1 %1074, label %1076, label %1075

1075:                                             ; preds = %1071
  call void @_ZdaPv(ptr noundef nonnull %1073) #19
  br label %1076

1076:                                             ; preds = %1075, %1071
  invoke void @_ZN6dealii11SubscriptorD2Ev(ptr noundef nonnull align 8 dereferenceable(72) %9)
          to label %1077 unwind label %1104

1077:                                             ; preds = %263, %1047, %1042, %1076, %255
  %1078 = phi { ptr, i32 } [ %1043, %1042 ], [ %256, %255 ], [ %1050, %1076 ], [ %1041, %1047 ], [ %259, %263 ]
  call void @llvm.lifetime.end.p0(i64 384, ptr nonnull %9) #17
  br label %1079

1079:                                             ; preds = %1077, %253
  %1080 = phi { ptr, i32 } [ %1078, %1077 ], [ %254, %253 ]
  store ptr getelementptr inbounds ({ [4 x ptr] }, ptr @_ZTVN6dealii9TableBaseILi2EdEE, i64 0, inrange i32 0, i64 2), ptr %8, align 8, !tbaa !27
  %1081 = getelementptr inbounds %"class.dealii::TableBase", ptr %8, i64 0, i32 1
  %1082 = load ptr, ptr %1081, align 8, !tbaa !107
  %1083 = icmp eq ptr %1082, null
  br i1 %1083, label %1085, label %1084

1084:                                             ; preds = %1079
  call void @_ZdaPv(ptr noundef nonnull %1082) #19
  br label %1085

1085:                                             ; preds = %1084, %1079
  invoke void @_ZN6dealii11SubscriptorD2Ev(ptr noundef nonnull align 8 dereferenceable(72) %8)
          to label %1086 unwind label %1110

1086:                                             ; preds = %1085, %251
  %1087 = phi { ptr, i32 } [ %252, %251 ], [ %1080, %1085 ]
  call void @llvm.lifetime.end.p0(i64 96, ptr nonnull %8) #17
  br label %1088

1088:                                             ; preds = %1086, %249
  %1089 = phi { ptr, i32 } [ %1087, %1086 ], [ %250, %249 ]
  store ptr getelementptr inbounds ({ [4 x ptr] }, ptr @_ZTVN6dealii9TableBaseILi3EdEE, i64 0, inrange i32 0, i64 2), ptr %132, align 8, !tbaa !27
  %1090 = load ptr, ptr %134, align 8, !tbaa !127
  %1091 = icmp eq ptr %1090, null
  br i1 %1091, label %1093, label %1092

1092:                                             ; preds = %1088
  call void @_ZdaPv(ptr noundef nonnull %1090) #19
  br label %1093

1093:                                             ; preds = %1092, %1088
  invoke void @_ZN6dealii11SubscriptorD2Ev(ptr noundef nonnull align 8 dereferenceable(72) %132)
          to label %1094 unwind label %1110

1094:                                             ; preds = %1093, %247
  %1095 = phi { ptr, i32 } [ %248, %247 ], [ %1089, %1093 ]
  store ptr getelementptr inbounds ({ [4 x ptr] }, ptr @_ZTVN6dealii9TableBaseILi2EdEE, i64 0, inrange i32 0, i64 2), ptr %129, align 8, !tbaa !27
  %1096 = load ptr, ptr %131, align 8, !tbaa !107
  %1097 = icmp eq ptr %1096, null
  br i1 %1097, label %1099, label %1098

1098:                                             ; preds = %1094
  call void @_ZdaPv(ptr noundef nonnull %1096) #19
  br label %1099

1099:                                             ; preds = %1098, %1094
  invoke void @_ZN6dealii11SubscriptorD2Ev(ptr noundef nonnull align 8 dereferenceable(72) %129)
          to label %1100 unwind label %1110

1100:                                             ; preds = %1099, %245
  %1101 = phi { ptr, i32 } [ %246, %245 ], [ %1095, %1099 ]
  invoke void @_ZN6dealii13FE_PolyTensorINS_24PolynomialsRaviartThomasILi3EEELi3ELi3EED2Ev(ptr noundef nonnull align 8 dereferenceable(976) %0)
          to label %1102 unwind label %1110

1102:                                             ; preds = %1100, %244
  %1103 = phi { ptr, i32 } [ %1101, %1100 ], [ %240, %244 ]
  resume { ptr, i32 } %1103

1104:                                             ; preds = %1076, %1070, %1063, %1056
  %1105 = landingpad { ptr, i32 }
          catch ptr null
  br label %1112

1106:                                             ; preds = %1044
  %1107 = landingpad { ptr, i32 }
          catch ptr null
  br label %1112

1108:                                             ; preds = %260
  %1109 = landingpad { ptr, i32 }
          catch ptr null
  br label %1112

1110:                                             ; preds = %209, %1100, %1085, %1093, %1099
  %1111 = landingpad { ptr, i32 }
          catch ptr null
  br label %1112

1112:                                             ; preds = %1106, %1110, %1108, %1104
  %1113 = phi { ptr, i32 } [ %1105, %1104 ], [ %1107, %1106 ], [ %1109, %1108 ], [ %1111, %1110 ]
  %1114 = extractvalue { ptr, i32 } %1113, 0
  call void @__clang_call_terminate(ptr %1114) #20
  unreachable
}

; Function Attrs: mustprogress nocallback nofree nosync nounwind willreturn memory(argmem: readwrite)
declare void @llvm.lifetime.start.p0(i64 immarg, ptr nocapture) #1

; Function Attrs: sspstrong uwtable
define weak_odr dso_local void @_ZN6dealii16FE_RaviartThomasILi3EE14get_dpo_vectorEj(ptr noalias sret(%"class.std::vector.48") align 8 %0, i32 noundef %1) local_unnamed_addr #0 comdat align 2 personality ptr @__gxx_personality_v0 {
  %3 = add i32 %1, 1
  tail call void @llvm.memset.p0.i64(ptr noundef nonnull align 8 dereferenceable(24) %0, i8 0, i64 24, i1 false)
  %4 = tail call noalias noundef nonnull dereferenceable(16) ptr @_Znwm(i64 noundef 16) #18
  store ptr %4, ptr %0, align 8, !tbaa !8
  %5 = getelementptr inbounds i32, ptr %4, i64 4
  %6 = getelementptr inbounds %"struct.std::_Vector_base<unsigned int, std::allocator<unsigned int> >::_Vector_impl_data", ptr %0, i64 0, i32 2
  store ptr %5, ptr %6, align 8, !tbaa !13
  store i64 0, ptr %4, align 4
  %7 = mul i32 %3, %3
  %8 = getelementptr inbounds %"struct.std::_Vector_base<unsigned int, std::allocator<unsigned int> >::_Vector_impl_data", ptr %0, i64 0, i32 1
  store ptr %5, ptr %8, align 8, !tbaa !14
  %9 = mul i32 %1, 3
  %10 = mul i32 %9, %7
  %11 = getelementptr inbounds i32, ptr %4, i64 2
  store i32 %7, ptr %11, align 4, !tbaa !15
  %12 = getelementptr inbounds i32, ptr %4, i64 3
  store i32 %10, ptr %12, align 4, !tbaa !15
  ret void
}

declare void @_ZN6dealii17FiniteElementDataILi3EEC1ERKSt6vectorIjSaIjEEjjNS1_10ConformityEj(ptr noundef nonnull align 4 dereferenceable(60), ptr noundef nonnull align 8 dereferenceable(24), i32 noundef, i32 noundef, i32 noundef, i32 noundef) unnamed_addr #2

declare i32 @__gxx_personality_v0(...)

declare noundef i32 @_ZN6dealii24PolynomialsRaviartThomasILi3EE14compute_n_polsEj(i32 noundef) local_unnamed_addr #2

declare void @_ZN6dealii13FE_PolyTensorINS_24PolynomialsRaviartThomasILi3EEELi3ELi3EEC2EjRKNS_17FiniteElementDataILi3EEERKSt6vectorIbSaIbEERKS8_ISA_SaISA_EE(ptr noundef nonnull align 8 dereferenceable(976), i32 noundef, ptr noundef nonnull align 4 dereferenceable(60), ptr noundef nonnull align 8 dereferenceable(40), ptr noundef nonnull align 8 dereferenceable(24)) unnamed_addr #2

; Function Attrs: sspstrong uwtable
define linkonce_odr dso_local void @_ZNSt6vectorIS_IbSaIbEESaIS1_EED2Ev(ptr noundef nonnull align 8 dereferenceable(24) %0) unnamed_addr #0 comdat align 2 personality ptr @__gxx_personality_v0 {
  %2 = load ptr, ptr %0, align 8, !tbaa !23
  %3 = getelementptr inbounds %"struct.std::_Vector_base<std::vector<bool>, std::allocator<std::vector<bool> > >::_Vector_impl_data", ptr %0, i64 0, i32 1
  %4 = load ptr, ptr %3, align 8, !tbaa !25
  %5 = icmp eq ptr %2, %4
  br i1 %5, label %27, label %6

6:                                                ; preds = %1, %22
  %7 = phi ptr [ %23, %22 ], [ %2, %1 ]
  %8 = load ptr, ptr %7, align 8, !tbaa !17
  %9 = icmp eq ptr %8, null
  br i1 %9, label %22, label %10

10:                                               ; preds = %6
  %11 = getelementptr inbounds %"struct.std::_Bvector_base<std::allocator<bool> >::_Bvector_impl_data", ptr %7, i64 0, i32 2
  %12 = load ptr, ptr %11, align 8, !tbaa !20
  %13 = ptrtoint ptr %12 to i64
  %14 = ptrtoint ptr %8 to i64
  %15 = sub i64 %13, %14
  %16 = ashr exact i64 %15, 3
  %17 = sub nsw i64 0, %16
  %18 = getelementptr inbounds i64, ptr %12, i64 %17
  tail call void @_ZdlPv(ptr noundef %18) #19
  store ptr null, ptr %7, align 8
  %19 = getelementptr inbounds i8, ptr %7, i64 8
  store i32 0, ptr %19, align 8
  %20 = getelementptr inbounds i8, ptr %7, i64 16
  store ptr null, ptr %20, align 8
  %21 = getelementptr inbounds i8, ptr %7, i64 24
  store i32 0, ptr %21, align 8
  store ptr null, ptr %11, align 8
  br label %22

22:                                               ; preds = %10, %6
  %23 = getelementptr inbounds %"class.std::vector.53", ptr %7, i64 1
  %24 = icmp eq ptr %23, %4
  br i1 %24, label %25, label %6

25:                                               ; preds = %22
  %26 = load ptr, ptr %0, align 8, !tbaa !23
  br label %27

27:                                               ; preds = %25, %1
  %28 = phi ptr [ %26, %25 ], [ %2, %1 ]
  %29 = icmp eq ptr %28, null
  br i1 %29, label %31, label %30

30:                                               ; preds = %27
  tail call void @_ZdlPv(ptr noundef nonnull %28) #19
  br label %31

31:                                               ; preds = %27, %30
  ret void
}

; Function Attrs: noinline noreturn nounwind sspstrong uwtable
define linkonce_odr hidden void @__clang_call_terminate(ptr noundef %0) local_unnamed_addr #3 comdat {
  %2 = tail call ptr @__cxa_begin_catch(ptr %0) #17
  tail call void @_ZSt9terminatev() #20
  unreachable
}

declare ptr @__cxa_begin_catch(ptr) local_unnamed_addr

declare void @_ZSt9terminatev() local_unnamed_addr

; Function Attrs: mustprogress nocallback nofree nosync nounwind willreturn memory(argmem: readwrite)
declare void @llvm.lifetime.end.p0(i64 immarg, ptr nocapture) #1

; Function Attrs: sspstrong uwtable
define linkonce_odr dso_local void @_ZNSt13_Bvector_baseISaIbEED2Ev(ptr noundef nonnull align 8 dereferenceable(40) %0) unnamed_addr #0 comdat align 2 personality ptr @__gxx_personality_v0 {
  %2 = load ptr, ptr %0, align 8, !tbaa !17
  %3 = icmp eq ptr %2, null
  br i1 %3, label %16, label %4

4:                                                ; preds = %1
  %5 = getelementptr inbounds %"struct.std::_Bvector_base<std::allocator<bool> >::_Bvector_impl_data", ptr %0, i64 0, i32 2
  %6 = load ptr, ptr %5, align 8, !tbaa !20
  %7 = ptrtoint ptr %6 to i64
  %8 = ptrtoint ptr %2 to i64
  %9 = sub i64 %7, %8
  %10 = ashr exact i64 %9, 3
  %11 = sub nsw i64 0, %10
  %12 = getelementptr inbounds i64, ptr %6, i64 %11
  tail call void @_ZdlPv(ptr noundef %12) #19
  store ptr null, ptr %0, align 8
  %13 = getelementptr inbounds i8, ptr %0, i64 8
  store i32 0, ptr %13, align 8
  %14 = getelementptr inbounds i8, ptr %0, i64 16
  store ptr null, ptr %14, align 8
  %15 = getelementptr inbounds i8, ptr %0, i64 24
  store i32 0, ptr %15, align 8
  store ptr null, ptr %5, align 8
  br label %16

16:                                               ; preds = %4, %1
  ret void
}

; Function Attrs: sspstrong uwtable
define weak_odr dso_local void @_ZN6dealii16FE_RaviartThomasILi3EE25initialize_support_pointsEj(ptr noundef nonnull align 8 dereferenceable(1168) %0, i32 noundef %1) local_unnamed_addr #0 comdat align 2 personality ptr @__gxx_personality_v0 {
  %3 = alloca %"class.dealii::QGauss", align 8
  %4 = alloca %"class.dealii::Point", align 8
  %5 = alloca %"class.dealii::Point.102", align 8
  %6 = alloca %"class.dealii::QGauss.104", align 8
  %7 = alloca %"class.dealii::TensorProductPolynomials", align 8
  %8 = alloca %"class.std::vector.106", align 8
  %9 = alloca %"class.dealii::Quadrature", align 8
  %10 = alloca %"class.dealii::QProjector<3>::DataSetDescriptor", align 4
  %11 = alloca %"class.std::vector.62", align 8
  %12 = alloca %"class.std::vector.106", align 8
  %13 = alloca %"class.std::vector.106", align 8
  %14 = alloca %"class.std::vector.106", align 8
  call void @llvm.lifetime.start.p0(i64 128, ptr nonnull %3) #17
  %15 = add i32 %1, 1
  call void @_ZN6dealii6QGaussILi3EEC1Ej(ptr noundef nonnull align 8 dereferenceable(128) %3, i32 noundef %15)
  %16 = getelementptr inbounds %"class.dealii::Quadrature", ptr %3, i64 0, i32 3
  %17 = getelementptr inbounds %"class.dealii::Quadrature", ptr %3, i64 0, i32 3, i32 0, i32 0, i32 0, i32 1
  %18 = load ptr, ptr %17, align 8
  %19 = load ptr, ptr %16, align 8
  %20 = ptrtoint ptr %18 to i64
  %21 = ptrtoint ptr %19 to i64
  %22 = sub i64 %20, %21
  %23 = lshr exact i64 %22, 3
  %24 = trunc i64 %23 to i32
  %25 = mul i32 %15, %15
  %26 = icmp eq i32 %1, 0
  %27 = select i1 %26, i32 0, i32 %24
  %28 = getelementptr inbounds %"class.dealii::FiniteElement", ptr %0, i64 0, i32 8
  %29 = mul i32 %25, 6
  call void @llvm.memset.p0.i64(ptr noundef nonnull align 8 dereferenceable(24) %4, i8 0, i64 24, i1 false), !tbaa !109
  %30 = add i32 %29, %27
  %31 = zext i32 %30 to i64
  %32 = getelementptr inbounds %"class.dealii::FiniteElement", ptr %0, i64 0, i32 8, i32 0, i32 0, i32 0, i32 1
  %33 = load ptr, ptr %32, align 8, !tbaa !131
  %34 = load ptr, ptr %28, align 8, !tbaa !132
  %35 = ptrtoint ptr %33 to i64
  %36 = ptrtoint ptr %34 to i64
  %37 = sub i64 %35, %36
  %38 = sdiv exact i64 %37, 24
  %39 = icmp ult i64 %38, %31
  br i1 %39, label %40, label %42

40:                                               ; preds = %2
  %41 = sub nsw i64 %31, %38
  invoke void @_ZNSt6vectorIN6dealii5PointILi3EEESaIS2_EE14_M_fill_insertEN9__gnu_cxx17__normal_iteratorIPS2_S4_EEmRKS2_(ptr noundef nonnull align 8 dereferenceable(24) %28, ptr %33, i64 noundef %41, ptr noundef nonnull align 8 dereferenceable(24) %4)
          to label %48 unwind label %145

42:                                               ; preds = %2
  %43 = icmp ugt i64 %38, %31
  br i1 %43, label %44, label %48

44:                                               ; preds = %42
  %45 = getelementptr inbounds %"class.dealii::Point", ptr %34, i64 %31
  %46 = icmp eq ptr %33, %45
  br i1 %46, label %48, label %47

47:                                               ; preds = %44
  store ptr %45, ptr %32, align 8, !tbaa !133
  br label %48

48:                                               ; preds = %40, %42, %44, %47
  %49 = getelementptr inbounds %"class.dealii::FiniteElement", ptr %0, i64 0, i32 9
  call void @llvm.memset.p0.i64(ptr noundef nonnull align 8 dereferenceable(16) %5, i8 0, i64 16, i1 false), !tbaa !109
  %50 = zext i32 %25 to i64
  %51 = getelementptr inbounds %"class.dealii::FiniteElement", ptr %0, i64 0, i32 9, i32 0, i32 0, i32 0, i32 1
  %52 = load ptr, ptr %51, align 8, !tbaa !131
  %53 = load ptr, ptr %49, align 8, !tbaa !134
  %54 = ptrtoint ptr %52 to i64
  %55 = ptrtoint ptr %53 to i64
  %56 = sub i64 %54, %55
  %57 = ashr exact i64 %56, 4
  %58 = icmp ult i64 %57, %50
  br i1 %58, label %59, label %61

59:                                               ; preds = %48
  %60 = sub nsw i64 %50, %57
  invoke void @_ZNSt6vectorIN6dealii5PointILi2EEESaIS2_EE14_M_fill_insertEN9__gnu_cxx17__normal_iteratorIPS2_S4_EEmRKS2_(ptr noundef nonnull align 8 dereferenceable(24) %49, ptr %52, i64 noundef %60, ptr noundef nonnull align 8 dereferenceable(16) %5)
          to label %67 unwind label %145

61:                                               ; preds = %48
  %62 = icmp ugt i64 %57, %50
  br i1 %62, label %63, label %67

63:                                               ; preds = %61
  %64 = getelementptr inbounds %"class.dealii::Point.102", ptr %53, i64 %50
  %65 = icmp eq ptr %52, %64
  br i1 %65, label %67, label %66

66:                                               ; preds = %63
  store ptr %64, ptr %51, align 8, !tbaa !135
  br label %67

67:                                               ; preds = %66, %63, %61, %59
  call void @llvm.lifetime.start.p0(i64 128, ptr nonnull %6) #17
  invoke void @_ZN6dealii6QGaussILi2EEC1Ej(ptr noundef nonnull align 8 dereferenceable(128) %6, i32 noundef %15)
          to label %68 unwind label %147

68:                                               ; preds = %67
  call void @llvm.lifetime.start.p0(i64 80, ptr nonnull %7) #17
  call void @llvm.lifetime.start.p0(i64 24, ptr nonnull %8) #17
  invoke void @_ZN6dealii11Polynomials8Legendre23generate_complete_basisEj(ptr nonnull sret(%"class.std::vector.106") align 8 %8, i32 noundef %1)
          to label %69 unwind label %149

69:                                               ; preds = %68
  invoke void @_ZN6dealii24TensorProductPolynomialsILi2EEC2INS_11Polynomials10PolynomialIdEEEERKSt6vectorIT_SaIS7_EE(ptr noundef nonnull align 8 dereferenceable(80) %7, ptr noundef nonnull align 8 dereferenceable(24) %8)
          to label %70 unwind label %151

70:                                               ; preds = %69
  %71 = load ptr, ptr %8, align 8, !tbaa !136
  %72 = getelementptr inbounds %"struct.std::_Vector_base<dealii::Polynomials::Polynomial<double>, std::allocator<dealii::Polynomials::Polynomial<double> > >::_Vector_impl_data", ptr %8, i64 0, i32 1
  %73 = load ptr, ptr %72, align 8, !tbaa !138
  %74 = icmp eq ptr %71, %73
  br i1 %74, label %84, label %75

75:                                               ; preds = %70, %79
  %76 = phi ptr [ %80, %79 ], [ %71, %70 ]
  %77 = load ptr, ptr %76, align 8, !tbaa !27
  %78 = load ptr, ptr %77, align 8
  invoke void %78(ptr noundef nonnull align 8 dereferenceable(96) %76)
          to label %79 unwind label %88

79:                                               ; preds = %75
  %80 = getelementptr inbounds %"class.dealii::Polynomials::Polynomial", ptr %76, i64 1
  %81 = icmp eq ptr %80, %73
  br i1 %81, label %82, label %75

82:                                               ; preds = %79
  %83 = load ptr, ptr %8, align 8, !tbaa !136
  br label %84

84:                                               ; preds = %82, %70
  %85 = phi ptr [ %83, %82 ], [ %71, %70 ]
  %86 = icmp eq ptr %85, null
  br i1 %86, label %93, label %87

87:                                               ; preds = %84
  call void @_ZdlPv(ptr noundef nonnull %85) #19
  br label %93

88:                                               ; preds = %75
  %89 = landingpad { ptr, i32 }
          cleanup
  %90 = load ptr, ptr %8, align 8, !tbaa !136
  %91 = icmp eq ptr %90, null
  br i1 %91, label %153, label %92

92:                                               ; preds = %88
  call void @_ZdlPv(ptr noundef nonnull %90) #19
  br label %153

93:                                               ; preds = %87, %84
  call void @llvm.lifetime.end.p0(i64 24, ptr nonnull %8) #17
  %94 = invoke noundef i32 @_ZNK6dealii24TensorProductPolynomialsILi2EE1nEv(ptr noundef nonnull align 8 dereferenceable(80) %7)
          to label %95 unwind label %155

95:                                               ; preds = %93
  %96 = getelementptr inbounds %"class.dealii::FE_RaviartThomas", ptr %0, i64 0, i32 1, i32 0, i32 3
  %97 = zext i32 %94 to i64
  %98 = shl nuw i64 %97, 32
  %99 = or i64 %98, %50
  store i64 %99, ptr %96, align 4
  %100 = getelementptr inbounds %"class.dealii::FE_RaviartThomas", ptr %0, i64 0, i32 1, i32 0, i32 3, i32 0, i32 0, i64 1
  %101 = mul i32 %94, %25
  %102 = icmp eq i32 %101, 0
  br i1 %102, label %103, label %109

103:                                              ; preds = %95
  %104 = getelementptr inbounds %"class.dealii::FE_RaviartThomas", ptr %0, i64 0, i32 1, i32 0, i32 1
  %105 = load ptr, ptr %104, align 8, !tbaa !107
  %106 = icmp eq ptr %105, null
  br i1 %106, label %108, label %107

107:                                              ; preds = %103
  call void @_ZdaPv(ptr noundef nonnull %105) #19
  br label %108

108:                                              ; preds = %107, %103
  call void @llvm.memset.p0.i64(ptr noundef nonnull align 8 dereferenceable(20) %104, i8 0, i64 20, i1 false)
  br label %133

109:                                              ; preds = %95
  %110 = getelementptr inbounds %"class.dealii::FE_RaviartThomas", ptr %0, i64 0, i32 1, i32 0, i32 2
  %111 = load i32, ptr %110, align 8, !tbaa !108
  %112 = icmp ult i32 %111, %101
  %113 = getelementptr inbounds %"class.dealii::FE_RaviartThomas", ptr %0, i64 0, i32 1, i32 0, i32 1
  %114 = load ptr, ptr %113, align 8, !tbaa !107
  br i1 %112, label %115, label %128

115:                                              ; preds = %109
  %116 = icmp eq ptr %114, null
  br i1 %116, label %121, label %117

117:                                              ; preds = %115
  call void @_ZdaPv(ptr noundef nonnull %114) #19
  %118 = load i32, ptr %96, align 4, !tbaa !15
  %119 = load i32, ptr %100, align 8, !tbaa !15
  %120 = mul i32 %119, %118
  br label %121

121:                                              ; preds = %117, %115
  %122 = phi i32 [ %120, %117 ], [ %101, %115 ]
  store i32 %101, ptr %110, align 8, !tbaa !108
  %123 = zext i32 %101 to i64
  %124 = shl nuw nsw i64 %123, 3
  %125 = invoke noalias noundef nonnull ptr @_Znam(i64 noundef %124) #18
          to label %126 unwind label %155

126:                                              ; preds = %121
  store ptr %125, ptr %113, align 8, !tbaa !107
  %127 = icmp eq i32 %122, 0
  br i1 %127, label %133, label %128

128:                                              ; preds = %126, %109
  %129 = phi ptr [ %125, %126 ], [ %114, %109 ]
  %130 = phi i32 [ %122, %126 ], [ %101, %109 ]
  %131 = zext i32 %130 to i64
  %132 = shl nuw nsw i64 %131, 3
  call void @llvm.memset.p0.i64(ptr align 8 %129, i8 0, i64 %132, i1 false), !tbaa !109
  br label %133

133:                                              ; preds = %108, %126, %128
  %134 = icmp eq i32 %25, 0
  br i1 %134, label %139, label %135

135:                                              ; preds = %133
  %136 = getelementptr inbounds %"class.dealii::Quadrature.105", ptr %6, i64 0, i32 2
  %137 = getelementptr inbounds %"class.dealii::Quadrature.105", ptr %6, i64 0, i32 3
  %138 = getelementptr inbounds %"class.dealii::FE_RaviartThomas", ptr %0, i64 0, i32 1, i32 0, i32 1
  br label %157

139:                                              ; preds = %173, %133
  call void @llvm.lifetime.start.p0(i64 128, ptr nonnull %9) #17
  invoke void @_ZN6dealii10QProjectorILi3EE20project_to_all_facesERKNS_10QuadratureILi2EEE(ptr nonnull sret(%"class.dealii::Quadrature") align 8 %9, ptr noundef nonnull align 8 dereferenceable(128) %6)
          to label %140 unwind label %216

140:                                              ; preds = %139
  %141 = icmp eq i32 %29, 0
  br i1 %141, label %220, label %142

142:                                              ; preds = %140
  %143 = getelementptr inbounds %"class.dealii::Quadrature", ptr %9, i64 0, i32 2
  %144 = zext i32 %29 to i64
  br label %194

145:                                              ; preds = %59, %40
  %146 = landingpad { ptr, i32 }
          cleanup
  br label %652

147:                                              ; preds = %254, %67
  %148 = landingpad { ptr, i32 }
          cleanup
  br label %262

149:                                              ; preds = %68
  %150 = landingpad { ptr, i32 }
          cleanup
  br label %153

151:                                              ; preds = %69
  %152 = landingpad { ptr, i32 }
          cleanup
  invoke void @_ZNSt6vectorIN6dealii11Polynomials10PolynomialIdEESaIS3_EED2Ev(ptr noundef nonnull align 8 dereferenceable(24) %8)
          to label %153 unwind label %655

153:                                              ; preds = %149, %92, %88, %151
  %154 = phi { ptr, i32 } [ %152, %151 ], [ %150, %149 ], [ %89, %92 ], [ %89, %88 ]
  call void @llvm.lifetime.end.p0(i64 24, ptr nonnull %8) #17
  br label %260

155:                                              ; preds = %121, %93
  %156 = landingpad { ptr, i32 }
          cleanup
  br label %258

157:                                              ; preds = %135, %173
  %158 = phi i64 [ 0, %135 ], [ %174, %173 ]
  %159 = load ptr, ptr %136, align 8, !tbaa !134
  %160 = getelementptr inbounds %"class.dealii::Point.102", ptr %159, i64 %158
  %161 = load ptr, ptr %49, align 8, !tbaa !134
  %162 = getelementptr inbounds %"class.dealii::Point.102", ptr %161, i64 %158
  %163 = load double, ptr %160, align 8, !tbaa !109
  store double %163, ptr %162, align 8, !tbaa !109
  %164 = getelementptr inbounds [2 x double], ptr %160, i64 0, i64 1
  %165 = load double, ptr %164, align 8, !tbaa !109
  %166 = getelementptr inbounds [2 x double], ptr %162, i64 0, i64 1
  store double %165, ptr %166, align 8, !tbaa !109
  %167 = trunc i64 %158 to i32
  br label %168

168:                                              ; preds = %157, %185
  %169 = phi i32 [ %193, %185 ], [ 0, %157 ]
  %170 = invoke noundef i32 @_ZNK6dealii24TensorProductPolynomialsILi2EE1nEv(ptr noundef nonnull align 8 dereferenceable(80) %7)
          to label %171 unwind label %176

171:                                              ; preds = %168
  %172 = icmp ult i32 %169, %170
  br i1 %172, label %178, label %173

173:                                              ; preds = %171
  %174 = add nuw nsw i64 %158, 1
  %175 = icmp eq i64 %174, %50
  br i1 %175, label %139, label %157

176:                                              ; preds = %178, %168
  %177 = landingpad { ptr, i32 }
          cleanup
  br label %258

178:                                              ; preds = %171
  %179 = load ptr, ptr %137, align 8, !tbaa !139
  %180 = getelementptr inbounds double, ptr %179, i64 %158
  %181 = load double, ptr %180, align 8, !tbaa !109
  %182 = load ptr, ptr %136, align 8, !tbaa !134
  %183 = getelementptr inbounds %"class.dealii::Point.102", ptr %182, i64 %158
  %184 = invoke noundef double @_ZNK6dealii24TensorProductPolynomialsILi2EE13compute_valueEjRKNS_5PointILi2EEE(ptr noundef nonnull align 8 dereferenceable(80) %7, i32 noundef %169, ptr noundef nonnull align 8 dereferenceable(16) %183)
          to label %185 unwind label %176

185:                                              ; preds = %178
  %186 = fmul double %181, %184
  %187 = load ptr, ptr %138, align 8, !tbaa !107
  %188 = load i32, ptr %100, align 8, !tbaa !15
  %189 = mul i32 %188, %167
  %190 = add i32 %189, %169
  %191 = zext i32 %190 to i64
  %192 = getelementptr inbounds double, ptr %187, i64 %191
  store double %186, ptr %192, align 8, !tbaa !109
  %193 = add nuw i32 %169, 1
  br label %168

194:                                              ; preds = %142, %199
  %195 = phi i64 [ 0, %142 ], [ %214, %199 ]
  call void @llvm.lifetime.start.p0(i64 4, ptr nonnull %10) #17
  %196 = invoke i32 @_ZN6dealii10QProjectorILi3EE17DataSetDescriptor4faceEjbbbj(i32 noundef 0, i1 noundef zeroext true, i1 noundef zeroext false, i1 noundef zeroext false, i32 noundef %25)
          to label %197 unwind label %218

197:                                              ; preds = %194
  store i32 %196, ptr %10, align 4
  %198 = invoke noundef i32 @_ZNK6dealii10QProjectorILi3EE17DataSetDescriptorcvjEv(ptr noundef nonnull align 4 dereferenceable(4) %10)
          to label %199 unwind label %218

199:                                              ; preds = %197
  %200 = trunc i64 %195 to i32
  %201 = add i32 %198, %200
  %202 = zext i32 %201 to i64
  %203 = load ptr, ptr %143, align 8, !tbaa !132
  %204 = getelementptr inbounds %"class.dealii::Point", ptr %203, i64 %202
  %205 = load ptr, ptr %28, align 8, !tbaa !132
  %206 = getelementptr inbounds %"class.dealii::Point", ptr %205, i64 %195
  %207 = load double, ptr %204, align 8, !tbaa !109
  store double %207, ptr %206, align 8, !tbaa !109
  %208 = getelementptr inbounds [3 x double], ptr %204, i64 0, i64 1
  %209 = load double, ptr %208, align 8, !tbaa !109
  %210 = getelementptr inbounds [3 x double], ptr %206, i64 0, i64 1
  store double %209, ptr %210, align 8, !tbaa !109
  %211 = getelementptr inbounds [3 x double], ptr %204, i64 0, i64 2
  %212 = load double, ptr %211, align 8, !tbaa !109
  %213 = getelementptr inbounds [3 x double], ptr %206, i64 0, i64 2
  store double %212, ptr %213, align 8, !tbaa !109
  call void @llvm.lifetime.end.p0(i64 4, ptr nonnull %10) #17
  %214 = add nuw nsw i64 %195, 1
  %215 = icmp eq i64 %214, %144
  br i1 %215, label %220, label %194

216:                                              ; preds = %220, %139
  %217 = landingpad { ptr, i32 }
          cleanup
  br label %256

218:                                              ; preds = %197, %194
  %219 = landingpad { ptr, i32 }
          cleanup
  call void @llvm.lifetime.end.p0(i64 4, ptr nonnull %10) #17
  invoke void @_ZN6dealii10QuadratureILi3EED1Ev(ptr noundef nonnull align 8 dereferenceable(128) %9)
          to label %256 unwind label %655

220:                                              ; preds = %199, %140
  invoke void @_ZN6dealii10QuadratureILi3EED1Ev(ptr noundef nonnull align 8 dereferenceable(128) %9)
          to label %221 unwind label %216

221:                                              ; preds = %220
  call void @llvm.lifetime.end.p0(i64 128, ptr nonnull %9) #17
  %222 = getelementptr inbounds %"class.dealii::TensorProductPolynomials", ptr %7, i64 0, i32 3
  %223 = load ptr, ptr %222, align 8, !tbaa !8
  %224 = icmp eq ptr %223, null
  br i1 %224, label %226, label %225

225:                                              ; preds = %221
  call void @_ZdlPv(ptr noundef nonnull %223) #19
  br label %226

226:                                              ; preds = %225, %221
  %227 = getelementptr inbounds %"class.dealii::TensorProductPolynomials", ptr %7, i64 0, i32 2
  %228 = load ptr, ptr %227, align 8, !tbaa !8
  %229 = icmp eq ptr %228, null
  br i1 %229, label %231, label %230

230:                                              ; preds = %226
  call void @_ZdlPv(ptr noundef nonnull %228) #19
  br label %231

231:                                              ; preds = %230, %226
  %232 = load ptr, ptr %7, align 8, !tbaa !136
  %233 = getelementptr inbounds %"struct.std::_Vector_base<dealii::Polynomials::Polynomial<double>, std::allocator<dealii::Polynomials::Polynomial<double> > >::_Vector_impl_data", ptr %7, i64 0, i32 1
  %234 = load ptr, ptr %233, align 8, !tbaa !138
  %235 = icmp eq ptr %232, %234
  br i1 %235, label %245, label %236

236:                                              ; preds = %231, %240
  %237 = phi ptr [ %241, %240 ], [ %232, %231 ]
  %238 = load ptr, ptr %237, align 8, !tbaa !27
  %239 = load ptr, ptr %238, align 8
  invoke void %239(ptr noundef nonnull align 8 dereferenceable(96) %237)
          to label %240 unwind label %249

240:                                              ; preds = %236
  %241 = getelementptr inbounds %"class.dealii::Polynomials::Polynomial", ptr %237, i64 1
  %242 = icmp eq ptr %241, %234
  br i1 %242, label %243, label %236

243:                                              ; preds = %240
  %244 = load ptr, ptr %7, align 8, !tbaa !136
  br label %245

245:                                              ; preds = %243, %231
  %246 = phi ptr [ %244, %243 ], [ %232, %231 ]
  %247 = icmp eq ptr %246, null
  br i1 %247, label %254, label %248

248:                                              ; preds = %245
  call void @_ZdlPv(ptr noundef nonnull %246) #19
  br label %254

249:                                              ; preds = %236
  %250 = landingpad { ptr, i32 }
          cleanup
  %251 = load ptr, ptr %7, align 8, !tbaa !136
  %252 = icmp eq ptr %251, null
  br i1 %252, label %260, label %253

253:                                              ; preds = %249
  call void @_ZdlPv(ptr noundef nonnull %251) #19
  br label %260

254:                                              ; preds = %248, %245
  call void @llvm.lifetime.end.p0(i64 80, ptr nonnull %7) #17
  invoke void @_ZN6dealii10QuadratureILi2EED2Ev(ptr noundef nonnull align 8 dereferenceable(128) %6)
          to label %255 unwind label %147

255:                                              ; preds = %254
  call void @llvm.lifetime.end.p0(i64 128, ptr nonnull %6) #17
  br i1 %26, label %649, label %264

256:                                              ; preds = %218, %216
  %257 = phi { ptr, i32 } [ %219, %218 ], [ %217, %216 ]
  call void @llvm.lifetime.end.p0(i64 128, ptr nonnull %9) #17
  br label %258

258:                                              ; preds = %176, %256, %155
  %259 = phi { ptr, i32 } [ %257, %256 ], [ %156, %155 ], [ %177, %176 ]
  invoke void @_ZN6dealii24TensorProductPolynomialsILi2EED2Ev(ptr noundef nonnull align 8 dereferenceable(80) %7)
          to label %260 unwind label %655

260:                                              ; preds = %253, %249, %258, %153
  %261 = phi { ptr, i32 } [ %259, %258 ], [ %154, %153 ], [ %250, %253 ], [ %250, %249 ]
  call void @llvm.lifetime.end.p0(i64 80, ptr nonnull %7) #17
  invoke void @_ZN6dealii10QuadratureILi2EED2Ev(ptr noundef nonnull align 8 dereferenceable(128) %6)
          to label %262 unwind label %655

262:                                              ; preds = %260, %147
  %263 = phi { ptr, i32 } [ %261, %260 ], [ %148, %147 ]
  call void @llvm.lifetime.end.p0(i64 128, ptr nonnull %6) #17
  br label %652

264:                                              ; preds = %255
  %265 = invoke noalias noundef nonnull dereferenceable(24) ptr @_Znwm(i64 noundef 24) #18
          to label %266 unwind label %276

266:                                              ; preds = %264
  call void @llvm.memset.p0.i64(ptr noundef nonnull align 8 dereferenceable(24) %265, i8 0, i64 24, i1 false), !tbaa !131
  %267 = getelementptr inbounds %"struct.std::_Vector_base<std::vector<dealii::Polynomials::Polynomial<double> >, std::allocator<std::vector<dealii::Polynomials::Polynomial<double> > > >::_Vector_impl_data", ptr %11, i64 0, i32 1
  %268 = getelementptr inbounds %"struct.std::_Vector_base<std::vector<dealii::Polynomials::Polynomial<double> >, std::allocator<std::vector<dealii::Polynomials::Polynomial<double> > > >::_Vector_impl_data", ptr %11, i64 0, i32 2
  %269 = getelementptr inbounds %"struct.std::_Vector_base<dealii::Polynomials::Polynomial<double>, std::allocator<dealii::Polynomials::Polynomial<double> > >::_Vector_impl_data", ptr %12, i64 0, i32 1
  %270 = getelementptr inbounds %"struct.std::_Vector_base<dealii::Polynomials::Polynomial<double>, std::allocator<dealii::Polynomials::Polynomial<double> > >::_Vector_impl_data", ptr %13, i64 0, i32 1
  %271 = add i32 %1, -1
  %272 = getelementptr inbounds %"struct.std::_Vector_base<dealii::Polynomials::Polynomial<double>, std::allocator<dealii::Polynomials::Polynomial<double> > >::_Vector_impl_data", ptr %14, i64 0, i32 1
  br label %278

273:                                              ; preds = %471
  %274 = load ptr, ptr %265, align 8, !tbaa !131
  %275 = invoke noundef i32 @_ZNK6dealii22AnisotropicPolynomialsILi3EE1nEv(ptr noundef nonnull align 8 dereferenceable(28) %274)
          to label %488 unwind label %540

276:                                              ; preds = %264
  %277 = landingpad { ptr, i32 }
          cleanup
  br label %652

278:                                              ; preds = %266, %471
  %279 = phi i64 [ 0, %266 ], [ %472, %471 ]
  call void @llvm.lifetime.start.p0(i64 24, ptr nonnull %11) #17
  call void @llvm.lifetime.start.p0(i64 24, ptr nonnull %12) #17
  call void @llvm.memset.p0.i64(ptr noundef nonnull align 8 dereferenceable(24) %12, i8 0, i64 24, i1 false)
  call void @llvm.memset.p0.i64(ptr noundef nonnull align 8 dereferenceable(24) %11, i8 0, i64 24, i1 false)
  %280 = invoke noalias noundef nonnull dereferenceable(72) ptr @_Znwm(i64 noundef 72) #18
          to label %281 unwind label %312

281:                                              ; preds = %278
  store ptr %280, ptr %11, align 8, !tbaa !141
  store ptr %280, ptr %267, align 8, !tbaa !142
  %282 = getelementptr inbounds %"class.std::vector.106", ptr %280, i64 3
  store ptr %282, ptr %268, align 8, !tbaa !143
  %283 = invoke noundef ptr @_ZSt18__do_uninit_fill_nIPSt6vectorIN6dealii11Polynomials10PolynomialIdEESaIS4_EEmS6_ET_S8_T0_RKT1_(ptr noundef nonnull %280, i64 noundef 3, ptr noundef nonnull align 8 dereferenceable(24) %12)
          to label %289 unwind label %284

284:                                              ; preds = %281
  %285 = landingpad { ptr, i32 }
          cleanup
  %286 = load ptr, ptr %11, align 8, !tbaa !141
  %287 = icmp eq ptr %286, null
  br i1 %287, label %314, label %288

288:                                              ; preds = %284
  call void @_ZdlPv(ptr noundef nonnull %286) #19
  br label %314

289:                                              ; preds = %281
  store ptr %283, ptr %267, align 8, !tbaa !142
  %290 = load ptr, ptr %12, align 8, !tbaa !136
  %291 = load ptr, ptr %269, align 8, !tbaa !138
  %292 = icmp eq ptr %290, %291
  br i1 %292, label %302, label %293

293:                                              ; preds = %289, %297
  %294 = phi ptr [ %298, %297 ], [ %290, %289 ]
  %295 = load ptr, ptr %294, align 8, !tbaa !27
  %296 = load ptr, ptr %295, align 8
  invoke void %296(ptr noundef nonnull align 8 dereferenceable(96) %294)
          to label %297 unwind label %306

297:                                              ; preds = %293
  %298 = getelementptr inbounds %"class.dealii::Polynomials::Polynomial", ptr %294, i64 1
  %299 = icmp eq ptr %298, %291
  br i1 %299, label %300, label %293

300:                                              ; preds = %297
  %301 = load ptr, ptr %12, align 8, !tbaa !136
  br label %302

302:                                              ; preds = %300, %289
  %303 = phi ptr [ %301, %300 ], [ %290, %289 ]
  %304 = icmp eq ptr %303, null
  br i1 %304, label %311, label %305

305:                                              ; preds = %302
  call void @_ZdlPv(ptr noundef nonnull %303) #19
  br label %311

306:                                              ; preds = %293
  %307 = landingpad { ptr, i32 }
          cleanup
  %308 = load ptr, ptr %12, align 8, !tbaa !136
  %309 = icmp eq ptr %308, null
  br i1 %309, label %316, label %310

310:                                              ; preds = %306
  call void @_ZdlPv(ptr noundef nonnull %308) #19
  br label %316

311:                                              ; preds = %305, %302
  call void @llvm.lifetime.end.p0(i64 24, ptr nonnull %12) #17
  call void @llvm.lifetime.start.p0(i64 24, ptr nonnull %13) #17
  invoke void @_ZN6dealii11Polynomials8Legendre23generate_complete_basisEj(ptr nonnull sret(%"class.std::vector.106") align 8 %13, i32 noundef %1)
          to label %318 unwind label %394

312:                                              ; preds = %278
  %313 = landingpad { ptr, i32 }
          cleanup
  br label %314

314:                                              ; preds = %284, %288, %312
  %315 = phi { ptr, i32 } [ %313, %312 ], [ %285, %288 ], [ %285, %284 ]
  invoke void @_ZNSt6vectorIN6dealii11Polynomials10PolynomialIdEESaIS3_EED2Ev(ptr noundef nonnull align 8 dereferenceable(24) %12)
          to label %316 unwind label %655

316:                                              ; preds = %310, %306, %314
  %317 = phi { ptr, i32 } [ %315, %314 ], [ %307, %310 ], [ %307, %306 ]
  call void @llvm.lifetime.end.p0(i64 24, ptr nonnull %12) #17
  br label %486

318:                                              ; preds = %311
  %319 = load ptr, ptr %11, align 8, !tbaa !141
  %320 = invoke noundef nonnull align 8 dereferenceable(24) ptr @_ZNSt6vectorIN6dealii11Polynomials10PolynomialIdEESaIS3_EEaSERKS5_(ptr noundef nonnull align 8 dereferenceable(24) %319, ptr noundef nonnull align 8 dereferenceable(24) %13)
          to label %321 unwind label %396

321:                                              ; preds = %318
  %322 = load ptr, ptr %13, align 8, !tbaa !136
  %323 = load ptr, ptr %270, align 8, !tbaa !138
  %324 = icmp eq ptr %322, %323
  br i1 %324, label %334, label %325

325:                                              ; preds = %321, %329
  %326 = phi ptr [ %330, %329 ], [ %322, %321 ]
  %327 = load ptr, ptr %326, align 8, !tbaa !27
  %328 = load ptr, ptr %327, align 8
  invoke void %328(ptr noundef nonnull align 8 dereferenceable(96) %326)
          to label %329 unwind label %338

329:                                              ; preds = %325
  %330 = getelementptr inbounds %"class.dealii::Polynomials::Polynomial", ptr %326, i64 1
  %331 = icmp eq ptr %330, %323
  br i1 %331, label %332, label %325

332:                                              ; preds = %329
  %333 = load ptr, ptr %13, align 8, !tbaa !136
  br label %334

334:                                              ; preds = %332, %321
  %335 = phi ptr [ %333, %332 ], [ %322, %321 ]
  %336 = icmp eq ptr %335, null
  br i1 %336, label %349, label %337

337:                                              ; preds = %334
  call void @_ZdlPv(ptr noundef nonnull %335) #19
  br label %349

338:                                              ; preds = %325
  %339 = landingpad { ptr, i32 }
          cleanup
  br label %344

340:                                              ; preds = %358
  %341 = landingpad { ptr, i32 }
          cleanup
  br label %344

342:                                              ; preds = %380
  %343 = landingpad { ptr, i32 }
          cleanup
  br label %344

344:                                              ; preds = %340, %342, %338
  %345 = phi { ptr, i32 } [ %339, %338 ], [ %341, %340 ], [ %343, %342 ]
  %346 = load ptr, ptr %13, align 8, !tbaa !136
  %347 = icmp eq ptr %346, null
  br i1 %347, label %398, label %348

348:                                              ; preds = %344
  call void @_ZdlPv(ptr noundef nonnull %346) #19
  br label %398

349:                                              ; preds = %337, %334
  call void @llvm.lifetime.end.p0(i64 24, ptr nonnull %13) #17
  call void @llvm.lifetime.start.p0(i64 24, ptr nonnull %13) #17
  invoke void @_ZN6dealii11Polynomials8Legendre23generate_complete_basisEj(ptr nonnull sret(%"class.std::vector.106") align 8 %13, i32 noundef %1)
          to label %350 unwind label %394

350:                                              ; preds = %349
  %351 = load ptr, ptr %11, align 8, !tbaa !141
  %352 = getelementptr inbounds %"class.std::vector.106", ptr %351, i64 1
  %353 = invoke noundef nonnull align 8 dereferenceable(24) ptr @_ZNSt6vectorIN6dealii11Polynomials10PolynomialIdEESaIS3_EEaSERKS5_(ptr noundef nonnull align 8 dereferenceable(24) %352, ptr noundef nonnull align 8 dereferenceable(24) %13)
          to label %354 unwind label %396

354:                                              ; preds = %350
  %355 = load ptr, ptr %13, align 8, !tbaa !136
  %356 = load ptr, ptr %270, align 8, !tbaa !138
  %357 = icmp eq ptr %355, %356
  br i1 %357, label %367, label %358

358:                                              ; preds = %354, %362
  %359 = phi ptr [ %363, %362 ], [ %355, %354 ]
  %360 = load ptr, ptr %359, align 8, !tbaa !27
  %361 = load ptr, ptr %360, align 8
  invoke void %361(ptr noundef nonnull align 8 dereferenceable(96) %359)
          to label %362 unwind label %340

362:                                              ; preds = %358
  %363 = getelementptr inbounds %"class.dealii::Polynomials::Polynomial", ptr %359, i64 1
  %364 = icmp eq ptr %363, %356
  br i1 %364, label %365, label %358

365:                                              ; preds = %362
  %366 = load ptr, ptr %13, align 8, !tbaa !136
  br label %367

367:                                              ; preds = %365, %354
  %368 = phi ptr [ %366, %365 ], [ %355, %354 ]
  %369 = icmp eq ptr %368, null
  br i1 %369, label %371, label %370

370:                                              ; preds = %367
  call void @_ZdlPv(ptr noundef nonnull %368) #19
  br label %371

371:                                              ; preds = %370, %367
  call void @llvm.lifetime.end.p0(i64 24, ptr nonnull %13) #17
  call void @llvm.lifetime.start.p0(i64 24, ptr nonnull %13) #17
  invoke void @_ZN6dealii11Polynomials8Legendre23generate_complete_basisEj(ptr nonnull sret(%"class.std::vector.106") align 8 %13, i32 noundef %1)
          to label %372 unwind label %394

372:                                              ; preds = %371
  %373 = load ptr, ptr %11, align 8, !tbaa !141
  %374 = getelementptr inbounds %"class.std::vector.106", ptr %373, i64 2
  %375 = invoke noundef nonnull align 8 dereferenceable(24) ptr @_ZNSt6vectorIN6dealii11Polynomials10PolynomialIdEESaIS3_EEaSERKS5_(ptr noundef nonnull align 8 dereferenceable(24) %374, ptr noundef nonnull align 8 dereferenceable(24) %13)
          to label %376 unwind label %396

376:                                              ; preds = %372
  %377 = load ptr, ptr %13, align 8, !tbaa !136
  %378 = load ptr, ptr %270, align 8, !tbaa !138
  %379 = icmp eq ptr %377, %378
  br i1 %379, label %389, label %380

380:                                              ; preds = %376, %384
  %381 = phi ptr [ %385, %384 ], [ %377, %376 ]
  %382 = load ptr, ptr %381, align 8, !tbaa !27
  %383 = load ptr, ptr %382, align 8
  invoke void %383(ptr noundef nonnull align 8 dereferenceable(96) %381)
          to label %384 unwind label %342

384:                                              ; preds = %380
  %385 = getelementptr inbounds %"class.dealii::Polynomials::Polynomial", ptr %381, i64 1
  %386 = icmp eq ptr %385, %378
  br i1 %386, label %387, label %380

387:                                              ; preds = %384
  %388 = load ptr, ptr %13, align 8, !tbaa !136
  br label %389

389:                                              ; preds = %387, %376
  %390 = phi ptr [ %388, %387 ], [ %377, %376 ]
  %391 = icmp eq ptr %390, null
  br i1 %391, label %393, label %392

392:                                              ; preds = %389
  call void @_ZdlPv(ptr noundef nonnull %390) #19
  br label %393

393:                                              ; preds = %392, %389
  call void @llvm.lifetime.end.p0(i64 24, ptr nonnull %13) #17
  call void @llvm.lifetime.start.p0(i64 24, ptr nonnull %14) #17
  invoke void @_ZN6dealii11Polynomials8Legendre23generate_complete_basisEj(ptr nonnull sret(%"class.std::vector.106") align 8 %14, i32 noundef %271)
          to label %400 unwind label %474

394:                                              ; preds = %371, %349, %311
  %395 = landingpad { ptr, i32 }
          cleanup
  br label %398

396:                                              ; preds = %372, %350, %318
  %397 = landingpad { ptr, i32 }
          cleanup
  invoke void @_ZNSt6vectorIN6dealii11Polynomials10PolynomialIdEESaIS3_EED2Ev(ptr noundef nonnull align 8 dereferenceable(24) %13)
          to label %398 unwind label %655

398:                                              ; preds = %394, %348, %344, %396
  %399 = phi { ptr, i32 } [ %397, %396 ], [ %395, %394 ], [ %345, %348 ], [ %345, %344 ]
  call void @llvm.lifetime.end.p0(i64 24, ptr nonnull %13) #17
  br label %484

400:                                              ; preds = %393
  %401 = load ptr, ptr %11, align 8, !tbaa !141
  %402 = getelementptr inbounds %"class.std::vector.106", ptr %401, i64 %279
  %403 = invoke noundef nonnull align 8 dereferenceable(24) ptr @_ZNSt6vectorIN6dealii11Polynomials10PolynomialIdEESaIS3_EEaSERKS5_(ptr noundef nonnull align 8 dereferenceable(24) %402, ptr noundef nonnull align 8 dereferenceable(24) %14)
          to label %404 unwind label %476

404:                                              ; preds = %400
  %405 = load ptr, ptr %14, align 8, !tbaa !136
  %406 = load ptr, ptr %272, align 8, !tbaa !138
  %407 = icmp eq ptr %405, %406
  br i1 %407, label %417, label %408

408:                                              ; preds = %404, %412
  %409 = phi ptr [ %413, %412 ], [ %405, %404 ]
  %410 = load ptr, ptr %409, align 8, !tbaa !27
  %411 = load ptr, ptr %410, align 8
  invoke void %411(ptr noundef nonnull align 8 dereferenceable(96) %409)
          to label %412 unwind label %421

412:                                              ; preds = %408
  %413 = getelementptr inbounds %"class.dealii::Polynomials::Polynomial", ptr %409, i64 1
  %414 = icmp eq ptr %413, %406
  br i1 %414, label %415, label %408

415:                                              ; preds = %412
  %416 = load ptr, ptr %14, align 8, !tbaa !136
  br label %417

417:                                              ; preds = %415, %404
  %418 = phi ptr [ %416, %415 ], [ %405, %404 ]
  %419 = icmp eq ptr %418, null
  br i1 %419, label %426, label %420

420:                                              ; preds = %417
  call void @_ZdlPv(ptr noundef nonnull %418) #19
  br label %426

421:                                              ; preds = %408
  %422 = landingpad { ptr, i32 }
          cleanup
  %423 = load ptr, ptr %14, align 8, !tbaa !136
  %424 = icmp eq ptr %423, null
  br i1 %424, label %478, label %425

425:                                              ; preds = %421
  call void @_ZdlPv(ptr noundef nonnull %423) #19
  br label %478

426:                                              ; preds = %420, %417
  call void @llvm.lifetime.end.p0(i64 24, ptr nonnull %14) #17
  %427 = invoke noalias noundef nonnull dereferenceable(32) ptr @_Znwm(i64 noundef 32) #18
          to label %428 unwind label %480

428:                                              ; preds = %426
  invoke void @_ZN6dealii22AnisotropicPolynomialsILi3EEC1ERKSt6vectorIS2_INS_11Polynomials10PolynomialIdEESaIS5_EESaIS7_EE(ptr noundef nonnull align 8 dereferenceable(28) %427, ptr noundef nonnull align 8 dereferenceable(24) %11)
          to label %429 unwind label %482

429:                                              ; preds = %428
  %430 = getelementptr inbounds ptr, ptr %265, i64 %279
  store ptr %427, ptr %430, align 8, !tbaa !131
  %431 = load ptr, ptr %11, align 8, !tbaa !141
  %432 = load ptr, ptr %267, align 8, !tbaa !142
  %433 = icmp eq ptr %431, %432
  br i1 %433, label %463, label %434

434:                                              ; preds = %429, %458
  %435 = phi ptr [ %459, %458 ], [ %431, %429 ]
  %436 = load ptr, ptr %435, align 8, !tbaa !136
  %437 = getelementptr inbounds %"struct.std::_Vector_base<dealii::Polynomials::Polynomial<double>, std::allocator<dealii::Polynomials::Polynomial<double> > >::_Vector_impl_data", ptr %435, i64 0, i32 1
  %438 = load ptr, ptr %437, align 8, !tbaa !138
  %439 = icmp eq ptr %436, %438
  br i1 %439, label %449, label %440

440:                                              ; preds = %434, %444
  %441 = phi ptr [ %445, %444 ], [ %436, %434 ]
  %442 = load ptr, ptr %441, align 8, !tbaa !27
  %443 = load ptr, ptr %442, align 8
  invoke void %443(ptr noundef nonnull align 8 dereferenceable(96) %441)
          to label %444 unwind label %453

444:                                              ; preds = %440
  %445 = getelementptr inbounds %"class.dealii::Polynomials::Polynomial", ptr %441, i64 1
  %446 = icmp eq ptr %445, %438
  br i1 %446, label %447, label %440

447:                                              ; preds = %444
  %448 = load ptr, ptr %435, align 8, !tbaa !136
  br label %449

449:                                              ; preds = %447, %434
  %450 = phi ptr [ %448, %447 ], [ %436, %434 ]
  %451 = icmp eq ptr %450, null
  br i1 %451, label %458, label %452

452:                                              ; preds = %449
  call void @_ZdlPv(ptr noundef nonnull %450) #19
  br label %458

453:                                              ; preds = %440
  %454 = landingpad { ptr, i32 }
          cleanup
  %455 = load ptr, ptr %435, align 8, !tbaa !136
  %456 = icmp eq ptr %455, null
  br i1 %456, label %467, label %457

457:                                              ; preds = %453
  call void @_ZdlPv(ptr noundef nonnull %455) #19
  br label %467

458:                                              ; preds = %452, %449
  %459 = getelementptr inbounds %"class.std::vector.106", ptr %435, i64 1
  %460 = icmp eq ptr %459, %432
  br i1 %460, label %461, label %434

461:                                              ; preds = %458
  %462 = load ptr, ptr %11, align 8, !tbaa !141
  br label %463

463:                                              ; preds = %461, %429
  %464 = phi ptr [ %462, %461 ], [ %431, %429 ]
  %465 = icmp eq ptr %464, null
  br i1 %465, label %471, label %466

466:                                              ; preds = %463
  call void @_ZdlPv(ptr noundef nonnull %464) #19
  br label %471

467:                                              ; preds = %457, %453
  %468 = load ptr, ptr %11, align 8, !tbaa !141
  %469 = icmp eq ptr %468, null
  br i1 %469, label %486, label %470

470:                                              ; preds = %467
  call void @_ZdlPv(ptr noundef nonnull %468) #19
  br label %486

471:                                              ; preds = %466, %463
  call void @llvm.lifetime.end.p0(i64 24, ptr nonnull %11) #17
  %472 = add nuw nsw i64 %279, 1
  %473 = icmp eq i64 %472, 3
  br i1 %473, label %273, label %278

474:                                              ; preds = %393
  %475 = landingpad { ptr, i32 }
          cleanup
  br label %478

476:                                              ; preds = %400
  %477 = landingpad { ptr, i32 }
          cleanup
  invoke void @_ZNSt6vectorIN6dealii11Polynomials10PolynomialIdEESaIS3_EED2Ev(ptr noundef nonnull align 8 dereferenceable(24) %14)
          to label %478 unwind label %655

478:                                              ; preds = %474, %425, %421, %476
  %479 = phi { ptr, i32 } [ %477, %476 ], [ %475, %474 ], [ %422, %425 ], [ %422, %421 ]
  call void @llvm.lifetime.end.p0(i64 24, ptr nonnull %14) #17
  br label %484

480:                                              ; preds = %426
  %481 = landingpad { ptr, i32 }
          cleanup
  br label %484

482:                                              ; preds = %428
  %483 = landingpad { ptr, i32 }
          cleanup
  call void @_ZdlPv(ptr noundef nonnull %427) #19
  br label %484

484:                                              ; preds = %482, %480, %478, %398
  %485 = phi { ptr, i32 } [ %399, %398 ], [ %483, %482 ], [ %481, %480 ], [ %479, %478 ]
  invoke void @_ZNSt6vectorIS_IN6dealii11Polynomials10PolynomialIdEESaIS3_EESaIS5_EED2Ev(ptr noundef nonnull align 8 dereferenceable(24) %11)
          to label %486 unwind label %655

486:                                              ; preds = %470, %467, %484, %316
  %487 = phi { ptr, i32 } [ %485, %484 ], [ %317, %316 ], [ %454, %470 ], [ %454, %467 ]
  call void @llvm.lifetime.end.p0(i64 24, ptr nonnull %11) #17
  br label %650

488:                                              ; preds = %273
  %489 = getelementptr inbounds %"class.dealii::FE_RaviartThomas", ptr %0, i64 0, i32 2, i32 0, i32 3
  store i32 %27, ptr %489, align 4
  %490 = getelementptr inbounds %"class.dealii::FE_RaviartThomas", ptr %0, i64 0, i32 2, i32 0, i32 3, i32 0, i32 0, i64 1
  store i32 %275, ptr %490, align 8
  %491 = getelementptr inbounds %"class.dealii::FE_RaviartThomas", ptr %0, i64 0, i32 2, i32 0, i32 3, i32 0, i32 0, i64 2
  store i32 3, ptr %491, align 4
  %492 = mul i32 %275, %27
  %493 = mul i32 %492, 3
  %494 = icmp eq i32 %492, 0
  br i1 %494, label %495, label %501

495:                                              ; preds = %488
  %496 = getelementptr inbounds %"class.dealii::FE_RaviartThomas", ptr %0, i64 0, i32 2, i32 0, i32 1
  %497 = load ptr, ptr %496, align 8, !tbaa !127
  %498 = icmp eq ptr %497, null
  br i1 %498, label %500, label %499

499:                                              ; preds = %495
  call void @_ZdaPv(ptr noundef nonnull %497) #19
  br label %500

500:                                              ; preds = %499, %495
  call void @llvm.memset.p0.i64(ptr noundef nonnull align 8 dereferenceable(24) %496, i8 0, i64 24, i1 false)
  br label %527

501:                                              ; preds = %488
  %502 = getelementptr inbounds %"class.dealii::FE_RaviartThomas", ptr %0, i64 0, i32 2, i32 0, i32 2
  %503 = load i32, ptr %502, align 8, !tbaa !144
  %504 = icmp ult i32 %503, %493
  %505 = getelementptr inbounds %"class.dealii::FE_RaviartThomas", ptr %0, i64 0, i32 2, i32 0, i32 1
  %506 = load ptr, ptr %505, align 8, !tbaa !127
  br i1 %504, label %507, label %522

507:                                              ; preds = %501
  %508 = icmp eq ptr %506, null
  br i1 %508, label %515, label %509

509:                                              ; preds = %507
  call void @_ZdaPv(ptr noundef nonnull %506) #19
  %510 = load i32, ptr %489, align 4, !tbaa !15
  %511 = load i32, ptr %490, align 8, !tbaa !15
  %512 = load i32, ptr %491, align 4, !tbaa !15
  %513 = mul i32 %511, %510
  %514 = mul i32 %513, %512
  br label %515

515:                                              ; preds = %509, %507
  %516 = phi i32 [ %514, %509 ], [ %493, %507 ]
  store i32 %493, ptr %502, align 8, !tbaa !144
  %517 = zext i32 %493 to i64
  %518 = shl nuw nsw i64 %517, 3
  %519 = invoke noalias noundef nonnull ptr @_Znam(i64 noundef %518) #18
          to label %520 unwind label %540

520:                                              ; preds = %515
  store ptr %519, ptr %505, align 8, !tbaa !127
  %521 = icmp eq i32 %516, 0
  br i1 %521, label %527, label %522

522:                                              ; preds = %501, %520
  %523 = phi ptr [ %519, %520 ], [ %506, %501 ]
  %524 = phi i32 [ %516, %520 ], [ %493, %501 ]
  %525 = zext i32 %524 to i64
  %526 = shl nuw nsw i64 %525, 3
  call void @llvm.memset.p0.i64(ptr align 8 %523, i8 0, i64 %526, i1 false), !tbaa !109
  br label %527

527:                                              ; preds = %522, %520, %500
  %528 = load ptr, ptr %17, align 8, !tbaa !145
  %529 = load ptr, ptr %16, align 8, !tbaa !139
  %530 = ptrtoint ptr %528 to i64
  %531 = ptrtoint ptr %529 to i64
  %532 = sub i64 %530, %531
  %533 = and i64 %532, 34359738360
  %534 = icmp eq i64 %533, 0
  br i1 %534, label %632, label %535

535:                                              ; preds = %527
  %536 = getelementptr inbounds %"class.dealii::Quadrature", ptr %3, i64 0, i32 2
  %537 = getelementptr inbounds %"class.dealii::FE_RaviartThomas", ptr %0, i64 0, i32 2, i32 0, i32 1
  %538 = getelementptr inbounds ptr, ptr %265, i64 1
  %539 = getelementptr inbounds ptr, ptr %265, i64 2
  br label %542

540:                                              ; preds = %515, %273
  %541 = landingpad { ptr, i32 }
          cleanup
  br label %650

542:                                              ; preds = %535, %571
  %543 = phi i64 [ 0, %535 ], [ %572, %571 ]
  %544 = phi i32 [ %29, %535 ], [ %547, %571 ]
  %545 = load ptr, ptr %536, align 8, !tbaa !132
  %546 = getelementptr inbounds %"class.dealii::Point", ptr %545, i64 %543
  %547 = add i32 %544, 1
  %548 = zext i32 %544 to i64
  %549 = load ptr, ptr %28, align 8, !tbaa !132
  %550 = getelementptr inbounds %"class.dealii::Point", ptr %549, i64 %548
  %551 = load double, ptr %546, align 8, !tbaa !109
  store double %551, ptr %550, align 8, !tbaa !109
  %552 = getelementptr inbounds [3 x double], ptr %546, i64 0, i64 1
  %553 = load double, ptr %552, align 8, !tbaa !109
  %554 = getelementptr inbounds [3 x double], ptr %550, i64 0, i64 1
  store double %553, ptr %554, align 8, !tbaa !109
  %555 = getelementptr inbounds [3 x double], ptr %546, i64 0, i64 2
  %556 = load double, ptr %555, align 8, !tbaa !109
  %557 = getelementptr inbounds [3 x double], ptr %550, i64 0, i64 2
  store double %556, ptr %557, align 8, !tbaa !109
  %558 = trunc i64 %543 to i32
  br label %559

559:                                              ; preds = %542, %618
  %560 = phi i32 [ %629, %618 ], [ 0, %542 ]
  %561 = invoke noundef i32 @_ZNK6dealii22AnisotropicPolynomialsILi3EE1nEv(ptr noundef nonnull align 8 dereferenceable(28) %274)
          to label %562 unwind label %581

562:                                              ; preds = %559
  %563 = icmp ult i32 %560, %561
  br i1 %563, label %564, label %571

564:                                              ; preds = %562
  %565 = load ptr, ptr %16, align 8, !tbaa !139
  %566 = getelementptr inbounds double, ptr %565, i64 %543
  %567 = load double, ptr %566, align 8, !tbaa !109
  %568 = load ptr, ptr %536, align 8, !tbaa !132
  %569 = getelementptr inbounds %"class.dealii::Point", ptr %568, i64 %543
  %570 = invoke noundef double @_ZNK6dealii22AnisotropicPolynomialsILi3EE13compute_valueEjRKNS_5PointILi3EEE(ptr noundef nonnull align 8 dereferenceable(28) %274, i32 noundef %560, ptr noundef nonnull align 8 dereferenceable(24) %569)
          to label %583 unwind label %630

571:                                              ; preds = %562
  %572 = add nuw nsw i64 %543, 1
  %573 = load ptr, ptr %17, align 8, !tbaa !145
  %574 = load ptr, ptr %16, align 8, !tbaa !139
  %575 = ptrtoint ptr %573 to i64
  %576 = ptrtoint ptr %574 to i64
  %577 = sub i64 %575, %576
  %578 = lshr exact i64 %577, 3
  %579 = and i64 %578, 4294967295
  %580 = icmp ult i64 %572, %579
  br i1 %580, label %542, label %632

581:                                              ; preds = %559
  %582 = landingpad { ptr, i32 }
          cleanup
  br label %650

583:                                              ; preds = %564
  %584 = fmul double %567, %570
  %585 = load ptr, ptr %537, align 8, !tbaa !127
  %586 = load i32, ptr %490, align 8, !tbaa !15
  %587 = mul i32 %586, %558
  %588 = add i32 %587, %560
  %589 = load i32, ptr %491, align 4, !tbaa !15
  %590 = mul i32 %588, %589
  %591 = zext i32 %590 to i64
  %592 = getelementptr inbounds double, ptr %585, i64 %591
  store double %584, ptr %592, align 8, !tbaa !109
  %593 = load ptr, ptr %16, align 8, !tbaa !139
  %594 = getelementptr inbounds double, ptr %593, i64 %543
  %595 = load double, ptr %594, align 8, !tbaa !109
  %596 = load ptr, ptr %538, align 8, !tbaa !131
  %597 = load ptr, ptr %536, align 8, !tbaa !132
  %598 = getelementptr inbounds %"class.dealii::Point", ptr %597, i64 %543
  %599 = invoke noundef double @_ZNK6dealii22AnisotropicPolynomialsILi3EE13compute_valueEjRKNS_5PointILi3EEE(ptr noundef nonnull align 8 dereferenceable(28) %596, i32 noundef %560, ptr noundef nonnull align 8 dereferenceable(24) %598)
          to label %600 unwind label %630

600:                                              ; preds = %583
  %601 = fmul double %595, %599
  %602 = load ptr, ptr %537, align 8, !tbaa !127
  %603 = load i32, ptr %490, align 8, !tbaa !15
  %604 = mul i32 %603, %558
  %605 = add i32 %604, %560
  %606 = load i32, ptr %491, align 4, !tbaa !15
  %607 = mul i32 %605, %606
  %608 = add i32 %607, 1
  %609 = zext i32 %608 to i64
  %610 = getelementptr inbounds double, ptr %602, i64 %609
  store double %601, ptr %610, align 8, !tbaa !109
  %611 = load ptr, ptr %16, align 8, !tbaa !139
  %612 = getelementptr inbounds double, ptr %611, i64 %543
  %613 = load double, ptr %612, align 8, !tbaa !109
  %614 = load ptr, ptr %539, align 8, !tbaa !131
  %615 = load ptr, ptr %536, align 8, !tbaa !132
  %616 = getelementptr inbounds %"class.dealii::Point", ptr %615, i64 %543
  %617 = invoke noundef double @_ZNK6dealii22AnisotropicPolynomialsILi3EE13compute_valueEjRKNS_5PointILi3EEE(ptr noundef nonnull align 8 dereferenceable(28) %614, i32 noundef %560, ptr noundef nonnull align 8 dereferenceable(24) %616)
          to label %618 unwind label %630

618:                                              ; preds = %600
  %619 = fmul double %613, %617
  %620 = load ptr, ptr %537, align 8, !tbaa !127
  %621 = load i32, ptr %490, align 8, !tbaa !15
  %622 = mul i32 %621, %558
  %623 = add i32 %622, %560
  %624 = load i32, ptr %491, align 4, !tbaa !15
  %625 = mul i32 %623, %624
  %626 = add i32 %625, 2
  %627 = zext i32 %626 to i64
  %628 = getelementptr inbounds double, ptr %620, i64 %627
  store double %619, ptr %628, align 8, !tbaa !109
  %629 = add nuw i32 %560, 1
  br label %559

630:                                              ; preds = %600, %583, %564
  %631 = landingpad { ptr, i32 }
          cleanup
  br label %650

632:                                              ; preds = %571, %527
  invoke void @_ZNSt6vectorIS_IN6dealii11Polynomials10PolynomialIdEESaIS3_EESaIS5_EED2Ev(ptr noundef nonnull align 8 dereferenceable(24) %274)
          to label %633 unwind label %646

633:                                              ; preds = %632
  call void @_ZdlPv(ptr noundef nonnull %274) #19
  %634 = getelementptr inbounds ptr, ptr %265, i64 1
  %635 = load ptr, ptr %634, align 8, !tbaa !131
  %636 = icmp eq ptr %635, null
  br i1 %636, label %639, label %637

637:                                              ; preds = %633
  invoke void @_ZNSt6vectorIS_IN6dealii11Polynomials10PolynomialIdEESaIS3_EESaIS5_EED2Ev(ptr noundef nonnull align 8 dereferenceable(24) %635)
          to label %638 unwind label %646

638:                                              ; preds = %637
  call void @_ZdlPv(ptr noundef nonnull %635) #19
  br label %639

639:                                              ; preds = %638, %633
  %640 = getelementptr inbounds ptr, ptr %265, i64 2
  %641 = load ptr, ptr %640, align 8, !tbaa !131
  %642 = icmp eq ptr %641, null
  br i1 %642, label %645, label %643

643:                                              ; preds = %639
  invoke void @_ZNSt6vectorIS_IN6dealii11Polynomials10PolynomialIdEESaIS3_EESaIS5_EED2Ev(ptr noundef nonnull align 8 dereferenceable(24) %641)
          to label %644 unwind label %646

644:                                              ; preds = %643
  call void @_ZdlPv(ptr noundef nonnull %641) #19
  br label %645

645:                                              ; preds = %644, %639
  call void @_ZdlPv(ptr noundef nonnull %265) #19
  br label %649

646:                                              ; preds = %643, %637, %632
  %647 = phi ptr [ %274, %632 ], [ %635, %637 ], [ %641, %643 ]
  %648 = landingpad { ptr, i32 }
          cleanup
  call void @_ZdlPv(ptr noundef nonnull %647) #19
  br label %650

649:                                              ; preds = %255, %645
  call void @_ZN6dealii10QuadratureILi3EED2Ev(ptr noundef nonnull align 8 dereferenceable(128) %3)
  call void @llvm.lifetime.end.p0(i64 128, ptr nonnull %3) #17
  ret void

650:                                              ; preds = %630, %581, %646, %540, %486
  %651 = phi { ptr, i32 } [ %487, %486 ], [ %648, %646 ], [ %541, %540 ], [ %631, %630 ], [ %582, %581 ]
  call void @_ZdlPv(ptr noundef nonnull %265) #19
  br label %652

652:                                              ; preds = %276, %650, %262, %145
  %653 = phi { ptr, i32 } [ %146, %145 ], [ %263, %262 ], [ %651, %650 ], [ %277, %276 ]
  invoke void @_ZN6dealii10QuadratureILi3EED2Ev(ptr noundef nonnull align 8 dereferenceable(128) %3)
          to label %654 unwind label %655

654:                                              ; preds = %652
  call void @llvm.lifetime.end.p0(i64 128, ptr nonnull %3) #17
  resume { ptr, i32 } %653

655:                                              ; preds = %652, %484, %476, %396, %314, %260, %258, %218, %151
  %656 = landingpad { ptr, i32 }
          catch ptr null
  %657 = extractvalue { ptr, i32 } %656, 0
  call void @__clang_call_terminate(ptr %657) #20
  unreachable
}

declare void @_ZN6dealii10FullMatrixIdEC1Ejj(ptr noundef nonnull align 8 dereferenceable(92), i32 noundef, i32 noundef) unnamed_addr #2

declare void @_ZN6dealii7FETools19compute_node_matrixILi3ELi3EEEvRNS_10FullMatrixIdEERKNS_13FiniteElementIXT_EXT0_EEE(ptr noundef nonnull align 8 dereferenceable(92), ptr noundef nonnull align 8 dereferenceable(728)) local_unnamed_addr #2

declare void @_ZN6dealii10FullMatrixIdE6invertIdEEvRKNS0_IT_EE(ptr noundef nonnull align 8 dereferenceable(92), ptr noundef nonnull align 8 dereferenceable(92)) local_unnamed_addr #2

declare void @_ZN6dealii13FiniteElementILi3ELi3EE44reinit_restriction_and_prolongation_matricesEbb(ptr noundef nonnull align 8 dereferenceable(728), i1 noundef zeroext, i1 noundef zeroext) local_unnamed_addr #2

declare void @_ZN6dealii7FETools26compute_embedding_matricesILi3EdLi3EEEvRKNS_13FiniteElementIXT_EXT1_EEERSt6vectorIS6_INS_10FullMatrixIT0_EESaIS9_EESaISB_EEb(ptr noundef nonnull align 8 dereferenceable(728), ptr noundef nonnull align 8 dereferenceable(24), i1 noundef zeroext) local_unnamed_addr #2

; Function Attrs: sspstrong uwtable
define weak_odr dso_local void @_ZN6dealii16FE_RaviartThomasILi3EE22initialize_restrictionEv(ptr noundef nonnull align 8 dereferenceable(1168) %0) local_unnamed_addr #0 comdat align 2 personality ptr @__gxx_personality_v0 {
  %2 = alloca %"class.dealii::QGauss.104", align 8
  %3 = alloca %"class.dealii::Quadrature", align 8
  %4 = alloca %"class.dealii::Table", align 8
  %5 = alloca %"class.dealii::Quadrature", align 8
  %6 = alloca %"class.dealii::RefinementCase", align 1
  %7 = alloca %"class.dealii::RefinementCase.116", align 1
  %8 = alloca %"class.dealii::RefinementCase", align 1
  %9 = alloca %"class.std::vector.62", align 8
  %10 = alloca %"class.std::vector.106", align 8
  %11 = alloca %"class.std::vector.106", align 8
  %12 = alloca %"class.std::vector.106", align 8
  %13 = alloca %"class.dealii::QGauss", align 8
  %14 = alloca %"class.dealii::Table.82", align 8
  %15 = alloca %"class.dealii::Quadrature", align 8
  call void @llvm.lifetime.start.p0(i64 128, ptr nonnull %2) #17
  %16 = getelementptr inbounds i8, ptr %0, i64 124
  %17 = load i32, ptr %16, align 4, !tbaa !146
  call void @_ZN6dealii6QGaussILi2EEC1Ej(ptr noundef nonnull align 8 dereferenceable(128) %2, i32 noundef %17)
  %18 = getelementptr inbounds %"class.dealii::Quadrature.105", ptr %2, i64 0, i32 3
  %19 = getelementptr inbounds %"class.dealii::Quadrature.105", ptr %2, i64 0, i32 3, i32 0, i32 0, i32 0, i32 1
  %20 = load ptr, ptr %19, align 8, !tbaa !145
  %21 = load ptr, ptr %18, align 8, !tbaa !139
  %22 = ptrtoint ptr %20 to i64
  %23 = ptrtoint ptr %21 to i64
  %24 = sub i64 %22, %23
  %25 = lshr exact i64 %24, 3
  %26 = getelementptr inbounds i8, ptr %0, i64 112
  %27 = getelementptr inbounds %"class.dealii::Quadrature", ptr %3, i64 0, i32 3
  %28 = getelementptr inbounds %"class.dealii::Quadrature", ptr %3, i64 0, i32 3, i32 0, i32 0, i32 0, i32 1
  %29 = getelementptr inbounds %"class.dealii::TableBase", ptr %4, i64 0, i32 1
  %30 = getelementptr inbounds %"class.dealii::TableBase", ptr %4, i64 0, i32 3
  %31 = getelementptr inbounds %"class.dealii::TableBase", ptr %4, i64 0, i32 2
  %32 = getelementptr inbounds %"class.dealii::Quadrature", ptr %3, i64 0, i32 2
  %33 = getelementptr inbounds %"class.dealii::TableBase", ptr %4, i64 0, i32 3, i32 0, i32 0, i64 1
  %34 = and i64 %24, 34359738360
  %35 = icmp eq i64 %34, 0
  %36 = getelementptr inbounds i8, ptr %0, i64 108
  %37 = getelementptr inbounds %"class.dealii::Quadrature", ptr %5, i64 0, i32 3
  %38 = getelementptr inbounds %"class.dealii::Quadrature", ptr %5, i64 0, i32 2
  %39 = getelementptr inbounds %"class.dealii::FiniteElement", ptr %0, i64 0, i32 3
  %40 = and i64 %25, 4294967295
  br label %44

41:                                               ; preds = %238
  %42 = load i32, ptr %16, align 4, !tbaa !146
  %43 = icmp eq i32 %42, 1
  br i1 %43, label %824, label %251

44:                                               ; preds = %1, %238
  %45 = phi i64 [ 0, %1 ], [ %239, %238 ]
  call void @llvm.lifetime.start.p0(i64 128, ptr nonnull %3) #17
  %46 = trunc i64 %45 to i32
  invoke void @_ZN6dealii10QProjectorILi3EE15project_to_faceERKNS_10QuadratureILi2EEEj(ptr nonnull sret(%"class.dealii::Quadrature") align 8 %3, ptr noundef nonnull align 8 dereferenceable(128) %2, i32 noundef %46)
          to label %47 unwind label %97

47:                                               ; preds = %44
  call void @llvm.lifetime.start.p0(i64 96, ptr nonnull %4) #17
  %48 = load i32, ptr %26, align 8, !tbaa !29
  %49 = load ptr, ptr %28, align 8, !tbaa !145
  %50 = load ptr, ptr %27, align 8, !tbaa !139
  invoke void @_ZN6dealii11SubscriptorC2Ev(ptr noundef nonnull align 8 dereferenceable(72) %4)
          to label %51 unwind label %99

51:                                               ; preds = %47
  %52 = ptrtoint ptr %49 to i64
  %53 = ptrtoint ptr %50 to i64
  %54 = sub i64 %52, %53
  %55 = lshr exact i64 %54, 3
  %56 = trunc i64 %55 to i32
  store ptr getelementptr inbounds ({ [4 x ptr] }, ptr @_ZTVN6dealii9TableBaseILi2EdEE, i64 0, inrange i32 0, i64 2), ptr %4, align 8, !tbaa !27
  store i64 0, ptr %29, align 8
  %57 = shl i64 %54, 29
  %58 = and i64 %57, -4294967296
  %59 = zext i32 %48 to i64
  %60 = or i64 %58, %59
  store i64 %60, ptr %30, align 4
  %61 = mul i32 %48, %56
  %62 = icmp eq i32 %61, 0
  br i1 %62, label %63, label %64

63:                                               ; preds = %51
  call void @llvm.memset.p0.i64(ptr noundef nonnull align 8 dereferenceable(20) %29, i8 0, i64 20, i1 false)
  br label %74

64:                                               ; preds = %51
  store i32 %61, ptr %31, align 8, !tbaa !108
  %65 = zext i32 %61 to i64
  %66 = shl nuw nsw i64 %65, 3
  %67 = invoke noalias noundef nonnull ptr @_Znam(i64 noundef %66) #18
          to label %68 unwind label %69

68:                                               ; preds = %64
  store ptr %67, ptr %29, align 8, !tbaa !107
  call void @llvm.memset.p0.i64(ptr nonnull align 8 %67, i8 0, i64 %66, i1 false), !tbaa !109
  br label %74

69:                                               ; preds = %64
  %70 = landingpad { ptr, i32 }
          cleanup
  invoke void @_ZN6dealii11SubscriptorD2Ev(ptr noundef nonnull align 8 dereferenceable(72) %4)
          to label %247 unwind label %71

71:                                               ; preds = %69
  %72 = landingpad { ptr, i32 }
          catch ptr null
  %73 = extractvalue { ptr, i32 } %72, 0
  call void @__clang_call_terminate(ptr %73) #20
  unreachable

74:                                               ; preds = %63, %68
  store ptr getelementptr inbounds ({ [4 x ptr] }, ptr @_ZTVN6dealii5TableILi2EdEE, i64 0, inrange i32 0, i64 2), ptr %4, align 8, !tbaa !27
  %75 = load ptr, ptr %28, align 8, !tbaa !145
  %76 = load ptr, ptr %27, align 8, !tbaa !139
  %77 = ptrtoint ptr %75 to i64
  %78 = ptrtoint ptr %76 to i64
  %79 = sub i64 %77, %78
  %80 = and i64 %79, 34359738360
  %81 = icmp eq i64 %80, 0
  br i1 %81, label %86, label %82

82:                                               ; preds = %74
  %83 = getelementptr inbounds [6 x i32], ptr @_ZN6dealii12GeometryInfoILi3EE21unit_normal_directionE, i64 0, i64 %45
  %84 = load i32, ptr %26, align 8, !tbaa !29
  %85 = icmp eq i32 %84, 0
  br i1 %85, label %86, label %88

86:                                               ; preds = %104, %82, %74
  %87 = getelementptr inbounds [6 x i32], ptr @_ZN6dealii12GeometryInfoILi3EE21unit_normal_directionE, i64 0, i64 %45
  br label %140

88:                                               ; preds = %82, %104
  %89 = phi ptr [ %105, %104 ], [ %76, %82 ]
  %90 = phi ptr [ %106, %104 ], [ %75, %82 ]
  %91 = phi i32 [ %107, %104 ], [ 1, %82 ]
  %92 = phi i64 [ %108, %104 ], [ 0, %82 ]
  %93 = icmp eq i32 %91, 0
  br i1 %93, label %104, label %94

94:                                               ; preds = %88
  %95 = load i32, ptr %83, align 4, !tbaa !15
  %96 = trunc i64 %92 to i32
  br label %115

97:                                               ; preds = %237, %44
  %98 = landingpad { ptr, i32 }
          cleanup
  br label %249

99:                                               ; preds = %139, %47
  %100 = landingpad { ptr, i32 }
          cleanup
  br label %247

101:                                              ; preds = %123
  %102 = load ptr, ptr %28, align 8, !tbaa !145
  %103 = load ptr, ptr %27, align 8, !tbaa !139
  br label %104

104:                                              ; preds = %101, %88
  %105 = phi ptr [ %103, %101 ], [ %89, %88 ]
  %106 = phi ptr [ %102, %101 ], [ %90, %88 ]
  %107 = phi i32 [ %131, %101 ], [ 0, %88 ]
  %108 = add nuw nsw i64 %92, 1
  %109 = ptrtoint ptr %106 to i64
  %110 = ptrtoint ptr %105 to i64
  %111 = sub i64 %109, %110
  %112 = lshr exact i64 %111, 3
  %113 = and i64 %112, 4294967295
  %114 = icmp ult i64 %108, %113
  br i1 %114, label %88, label %86, !llvm.loop !147

115:                                              ; preds = %94, %123
  %116 = phi i32 [ 0, %94 ], [ %130, %123 ]
  %117 = load ptr, ptr %32, align 8, !tbaa !132
  %118 = getelementptr inbounds %"class.dealii::Point", ptr %117, i64 %92
  %119 = load ptr, ptr %0, align 8, !tbaa !27
  %120 = getelementptr inbounds ptr, ptr %119, i64 4
  %121 = load ptr, ptr %120, align 8
  %122 = invoke noundef double %121(ptr noundef nonnull align 8 dereferenceable(976) %0, i32 noundef %116, ptr noundef nonnull align 8 dereferenceable(24) %118, i32 noundef %95)
          to label %123 unwind label %133

123:                                              ; preds = %115
  %124 = load ptr, ptr %29, align 8, !tbaa !107
  %125 = load i32, ptr %33, align 8, !tbaa !15
  %126 = mul i32 %125, %116
  %127 = add i32 %126, %96
  %128 = zext i32 %127 to i64
  %129 = getelementptr inbounds double, ptr %124, i64 %128
  store double %122, ptr %129, align 8, !tbaa !109
  %130 = add nuw i32 %116, 1
  %131 = load i32, ptr %26, align 8, !tbaa !29
  %132 = icmp ult i32 %130, %131
  br i1 %132, label %115, label %101

133:                                              ; preds = %115
  %134 = landingpad { ptr, i32 }
          cleanup
  br label %241

135:                                              ; preds = %228
  store ptr getelementptr inbounds ({ [4 x ptr] }, ptr @_ZTVN6dealii9TableBaseILi2EdEE, i64 0, inrange i32 0, i64 2), ptr %4, align 8, !tbaa !27
  %136 = load ptr, ptr %29, align 8, !tbaa !107
  %137 = icmp eq ptr %136, null
  br i1 %137, label %139, label %138

138:                                              ; preds = %135
  call void @_ZdaPv(ptr noundef nonnull %136) #19
  br label %139

139:                                              ; preds = %138, %135
  invoke void @_ZN6dealii11SubscriptorD2Ev(ptr noundef nonnull align 8 dereferenceable(72) %4)
          to label %237 unwind label %99

140:                                              ; preds = %86, %228
  %141 = phi i32 [ 0, %86 ], [ %229, %228 ]
  call void @llvm.lifetime.start.p0(i64 128, ptr nonnull %5) #17
  call void @llvm.lifetime.start.p0(i64 1, ptr nonnull %6) #17
  store i8 -1, ptr %6, align 1
  invoke void @_ZN6dealii10QProjectorILi3EE18project_to_subfaceERKNS_10QuadratureILi2EEEjjRKNS_14RefinementCaseILi2EEE(ptr nonnull sret(%"class.dealii::Quadrature") align 8 %5, ptr noundef nonnull align 8 dereferenceable(128) %2, i32 noundef %46, i32 noundef %141, ptr noundef nonnull align 1 dereferenceable(1) %6)
          to label %142 unwind label %160

142:                                              ; preds = %140
  call void @llvm.lifetime.end.p0(i64 1, ptr nonnull %6) #17
  call void @llvm.lifetime.start.p0(i64 1, ptr nonnull %7) #17
  store i8 -1, ptr %7, align 1
  call void @llvm.lifetime.start.p0(i64 1, ptr nonnull %8) #17
  store i8 -1, ptr %8, align 1
  %143 = invoke noundef i32 @_ZN6dealii12GeometryInfoILi3EE18child_cell_on_faceERKNS_14RefinementCaseILi3EEEjjbbbRKNS2_ILi2EEE(ptr noundef nonnull align 1 dereferenceable(1) %7, i32 noundef %46, i32 noundef %141, i1 noundef zeroext true, i1 noundef zeroext false, i1 noundef zeroext false, ptr noundef nonnull align 1 dereferenceable(1) %8)
          to label %144 unwind label %162

144:                                              ; preds = %142
  call void @llvm.lifetime.end.p0(i64 1, ptr nonnull %8) #17
  call void @llvm.lifetime.end.p0(i64 1, ptr nonnull %7) #17
  br i1 %35, label %159, label %145

145:                                              ; preds = %144
  %146 = zext i32 %143 to i64
  %147 = load i32, ptr %26, align 8, !tbaa !29
  %148 = icmp eq i32 %147, 0
  br i1 %148, label %159, label %149

149:                                              ; preds = %145, %171
  %150 = phi i32 [ %172, %171 ], [ %147, %145 ]
  %151 = phi i32 [ %173, %171 ], [ %147, %145 ]
  %152 = phi i64 [ %174, %171 ], [ 0, %145 ]
  %153 = icmp eq i32 %151, 0
  br i1 %153, label %171, label %154

154:                                              ; preds = %149
  %155 = load i32, ptr %36, align 4, !tbaa !111
  %156 = icmp eq i32 %155, 0
  br i1 %156, label %171, label %157

157:                                              ; preds = %154
  %158 = trunc i64 %152 to i32
  br label %164

159:                                              ; preds = %171, %145, %144
  invoke void @_ZN6dealii10QuadratureILi3EED1Ev(ptr noundef nonnull align 8 dereferenceable(128) %5)
          to label %228 unwind label %233

160:                                              ; preds = %140
  %161 = landingpad { ptr, i32 }
          cleanup
  call void @llvm.lifetime.end.p0(i64 1, ptr nonnull %6) #17
  br label %235

162:                                              ; preds = %142
  %163 = landingpad { ptr, i32 }
          cleanup
  call void @llvm.lifetime.end.p0(i64 1, ptr nonnull %8) #17
  call void @llvm.lifetime.end.p0(i64 1, ptr nonnull %7) #17
  br label %231

164:                                              ; preds = %157, %178
  %165 = phi i32 [ %179, %178 ], [ %150, %157 ]
  %166 = phi i32 [ %180, %178 ], [ %155, %157 ]
  %167 = phi i32 [ %181, %178 ], [ 0, %157 ]
  %168 = icmp eq i32 %166, 0
  br i1 %168, label %178, label %169

169:                                              ; preds = %164
  %170 = load i32, ptr %87, align 4, !tbaa !15
  br label %183

171:                                              ; preds = %178, %154, %149
  %172 = phi i32 [ %150, %149 ], [ %150, %154 ], [ %179, %178 ]
  %173 = phi i32 [ 0, %149 ], [ %151, %154 ], [ %179, %178 ]
  %174 = add nuw nsw i64 %152, 1
  %175 = icmp eq i64 %174, %40
  br i1 %175, label %159, label %149, !llvm.loop !149

176:                                              ; preds = %204
  %177 = load i32, ptr %26, align 8, !tbaa !29
  br label %178

178:                                              ; preds = %176, %164
  %179 = phi i32 [ %177, %176 ], [ %165, %164 ]
  %180 = phi i32 [ %211, %176 ], [ 0, %164 ]
  %181 = add nuw i32 %167, 1
  %182 = icmp ult i32 %181, %179
  br i1 %182, label %164, label %171, !llvm.loop !150

183:                                              ; preds = %169, %204
  %184 = phi i32 [ %166, %169 ], [ %211, %204 ]
  %185 = phi i32 [ 0, %169 ], [ %224, %204 ]
  %186 = load ptr, ptr %37, align 8, !tbaa !139
  %187 = getelementptr inbounds double, ptr %186, i64 %152
  %188 = load double, ptr %187, align 8, !tbaa !109
  %189 = load ptr, ptr %29, align 8, !tbaa !107
  %190 = load i32, ptr %33, align 8, !tbaa !15
  %191 = mul i32 %190, %167
  %192 = add i32 %191, %158
  %193 = zext i32 %192 to i64
  %194 = getelementptr inbounds double, ptr %189, i64 %193
  %195 = load double, ptr %194, align 8, !tbaa !109
  %196 = load ptr, ptr %38, align 8, !tbaa !132
  %197 = getelementptr inbounds %"class.dealii::Point", ptr %196, i64 %152
  %198 = mul i32 %184, %46
  %199 = add i32 %198, %185
  %200 = load ptr, ptr %0, align 8, !tbaa !27
  %201 = getelementptr inbounds ptr, ptr %200, i64 4
  %202 = load ptr, ptr %201, align 8
  %203 = invoke noundef double %202(ptr noundef nonnull align 8 dereferenceable(976) %0, i32 noundef %199, ptr noundef nonnull align 8 dereferenceable(24) %197, i32 noundef %170)
          to label %204 unwind label %226

204:                                              ; preds = %183
  %205 = fmul double %188, 2.500000e-01
  %206 = fmul double %205, %195
  %207 = load ptr, ptr %39, align 8, !tbaa !151
  %208 = getelementptr inbounds %"class.std::vector.118", ptr %207, i64 6
  %209 = load ptr, ptr %208, align 8, !tbaa !152
  %210 = getelementptr inbounds %"class.dealii::FullMatrix", ptr %209, i64 %146
  %211 = load i32, ptr %36, align 4, !tbaa !111
  %212 = mul i32 %211, %46
  %213 = add i32 %212, %185
  %214 = getelementptr inbounds %"class.dealii::TableBase", ptr %210, i64 0, i32 1
  %215 = load ptr, ptr %214, align 8, !tbaa !107
  %216 = getelementptr inbounds %"class.dealii::TableBase", ptr %210, i64 0, i32 3, i32 0, i32 0, i64 1
  %217 = load i32, ptr %216, align 8, !tbaa !15
  %218 = mul i32 %217, %213
  %219 = add i32 %218, %167
  %220 = zext i32 %219 to i64
  %221 = getelementptr inbounds double, ptr %215, i64 %220
  %222 = load double, ptr %221, align 8, !tbaa !109
  %223 = call double @llvm.fmuladd.f64(double %206, double %203, double %222)
  store double %223, ptr %221, align 8, !tbaa !109
  %224 = add nuw i32 %185, 1
  %225 = icmp ult i32 %224, %211
  br i1 %225, label %183, label %176

226:                                              ; preds = %183
  %227 = landingpad { ptr, i32 }
          cleanup
  br label %231

228:                                              ; preds = %159
  call void @llvm.lifetime.end.p0(i64 128, ptr nonnull %5) #17
  %229 = add nuw nsw i32 %141, 1
  %230 = icmp eq i32 %229, 4
  br i1 %230, label %135, label %140

231:                                              ; preds = %226, %162
  %232 = phi { ptr, i32 } [ %227, %226 ], [ %163, %162 ]
  invoke void @_ZN6dealii10QuadratureILi3EED1Ev(ptr noundef nonnull align 8 dereferenceable(128) %5)
          to label %235 unwind label %840

233:                                              ; preds = %159
  %234 = landingpad { ptr, i32 }
          cleanup
  br label %235

235:                                              ; preds = %231, %233, %160
  %236 = phi { ptr, i32 } [ %232, %231 ], [ %234, %233 ], [ %161, %160 ]
  call void @llvm.lifetime.end.p0(i64 128, ptr nonnull %5) #17
  br label %241

237:                                              ; preds = %139
  call void @llvm.lifetime.end.p0(i64 96, ptr nonnull %4) #17
  invoke void @_ZN6dealii10QuadratureILi3EED1Ev(ptr noundef nonnull align 8 dereferenceable(128) %3)
          to label %238 unwind label %97

238:                                              ; preds = %237
  call void @llvm.lifetime.end.p0(i64 128, ptr nonnull %3) #17
  %239 = add nuw nsw i64 %45, 1
  %240 = icmp eq i64 %239, 6
  br i1 %240, label %41, label %44

241:                                              ; preds = %235, %133
  %242 = phi { ptr, i32 } [ %134, %133 ], [ %236, %235 ]
  store ptr getelementptr inbounds ({ [4 x ptr] }, ptr @_ZTVN6dealii9TableBaseILi2EdEE, i64 0, inrange i32 0, i64 2), ptr %4, align 8, !tbaa !27
  %243 = load ptr, ptr %29, align 8, !tbaa !107
  %244 = icmp eq ptr %243, null
  br i1 %244, label %246, label %245

245:                                              ; preds = %241
  call void @_ZdaPv(ptr noundef nonnull %243) #19
  br label %246

246:                                              ; preds = %245, %241
  invoke void @_ZN6dealii11SubscriptorD2Ev(ptr noundef nonnull align 8 dereferenceable(72) %4)
          to label %247 unwind label %840

247:                                              ; preds = %246, %99, %69
  %248 = phi { ptr, i32 } [ %100, %99 ], [ %70, %69 ], [ %242, %246 ]
  call void @llvm.lifetime.end.p0(i64 96, ptr nonnull %4) #17
  invoke void @_ZN6dealii10QuadratureILi3EED1Ev(ptr noundef nonnull align 8 dereferenceable(128) %3)
          to label %249 unwind label %840

249:                                              ; preds = %247, %97
  %250 = phi { ptr, i32 } [ %248, %247 ], [ %98, %97 ]
  call void @llvm.lifetime.end.p0(i64 128, ptr nonnull %3) #17
  br label %837

251:                                              ; preds = %41
  %252 = invoke noalias noundef nonnull dereferenceable(24) ptr @_Znwm(i64 noundef 24) #18
          to label %253 unwind label %261

253:                                              ; preds = %251
  call void @llvm.memset.p0.i64(ptr noundef nonnull align 8 dereferenceable(24) %252, i8 0, i64 24, i1 false), !tbaa !131
  %254 = getelementptr inbounds %"struct.std::_Vector_base<std::vector<dealii::Polynomials::Polynomial<double> >, std::allocator<std::vector<dealii::Polynomials::Polynomial<double> > > >::_Vector_impl_data", ptr %9, i64 0, i32 1
  %255 = getelementptr inbounds %"struct.std::_Vector_base<std::vector<dealii::Polynomials::Polynomial<double> >, std::allocator<std::vector<dealii::Polynomials::Polynomial<double> > > >::_Vector_impl_data", ptr %9, i64 0, i32 2
  %256 = getelementptr inbounds %"struct.std::_Vector_base<dealii::Polynomials::Polynomial<double>, std::allocator<dealii::Polynomials::Polynomial<double> > >::_Vector_impl_data", ptr %10, i64 0, i32 1
  %257 = getelementptr inbounds %"struct.std::_Vector_base<dealii::Polynomials::Polynomial<double>, std::allocator<dealii::Polynomials::Polynomial<double> > >::_Vector_impl_data", ptr %11, i64 0, i32 1
  %258 = getelementptr inbounds %"struct.std::_Vector_base<dealii::Polynomials::Polynomial<double>, std::allocator<dealii::Polynomials::Polynomial<double> > >::_Vector_impl_data", ptr %12, i64 0, i32 1
  br label %263

259:                                              ; preds = %464
  call void @llvm.lifetime.start.p0(i64 128, ptr nonnull %13) #17
  %260 = load i32, ptr %16, align 4, !tbaa !146
  invoke void @_ZN6dealii6QGaussILi3EEC1Ej(ptr noundef nonnull align 8 dereferenceable(128) %13, i32 noundef %260)
          to label %481 unwind label %542

261:                                              ; preds = %251
  %262 = landingpad { ptr, i32 }
          cleanup
  br label %837

263:                                              ; preds = %253, %464
  %264 = phi i64 [ 0, %253 ], [ %465, %464 ]
  call void @llvm.lifetime.start.p0(i64 24, ptr nonnull %9) #17
  call void @llvm.lifetime.start.p0(i64 24, ptr nonnull %10) #17
  call void @llvm.memset.p0.i64(ptr noundef nonnull align 8 dereferenceable(24) %10, i8 0, i64 24, i1 false)
  call void @llvm.memset.p0.i64(ptr noundef nonnull align 8 dereferenceable(24) %9, i8 0, i64 24, i1 false)
  %265 = invoke noalias noundef nonnull dereferenceable(72) ptr @_Znwm(i64 noundef 72) #18
          to label %266 unwind label %299

266:                                              ; preds = %263
  store ptr %265, ptr %9, align 8, !tbaa !141
  store ptr %265, ptr %254, align 8, !tbaa !142
  %267 = getelementptr inbounds %"class.std::vector.106", ptr %265, i64 3
  store ptr %267, ptr %255, align 8, !tbaa !143
  %268 = invoke noundef ptr @_ZSt18__do_uninit_fill_nIPSt6vectorIN6dealii11Polynomials10PolynomialIdEESaIS4_EEmS6_ET_S8_T0_RKT1_(ptr noundef nonnull %265, i64 noundef 3, ptr noundef nonnull align 8 dereferenceable(24) %10)
          to label %274 unwind label %269

269:                                              ; preds = %266
  %270 = landingpad { ptr, i32 }
          cleanup
  %271 = load ptr, ptr %9, align 8, !tbaa !141
  %272 = icmp eq ptr %271, null
  br i1 %272, label %301, label %273

273:                                              ; preds = %269
  call void @_ZdlPv(ptr noundef nonnull %271) #19
  br label %301

274:                                              ; preds = %266
  store ptr %268, ptr %254, align 8, !tbaa !142
  %275 = load ptr, ptr %10, align 8, !tbaa !136
  %276 = load ptr, ptr %256, align 8, !tbaa !138
  %277 = icmp eq ptr %275, %276
  br i1 %277, label %287, label %278

278:                                              ; preds = %274, %282
  %279 = phi ptr [ %283, %282 ], [ %275, %274 ]
  %280 = load ptr, ptr %279, align 8, !tbaa !27
  %281 = load ptr, ptr %280, align 8
  invoke void %281(ptr noundef nonnull align 8 dereferenceable(96) %279)
          to label %282 unwind label %291

282:                                              ; preds = %278
  %283 = getelementptr inbounds %"class.dealii::Polynomials::Polynomial", ptr %279, i64 1
  %284 = icmp eq ptr %283, %276
  br i1 %284, label %285, label %278

285:                                              ; preds = %282
  %286 = load ptr, ptr %10, align 8, !tbaa !136
  br label %287

287:                                              ; preds = %285, %274
  %288 = phi ptr [ %286, %285 ], [ %275, %274 ]
  %289 = icmp eq ptr %288, null
  br i1 %289, label %296, label %290

290:                                              ; preds = %287
  call void @_ZdlPv(ptr noundef nonnull %288) #19
  br label %296

291:                                              ; preds = %278
  %292 = landingpad { ptr, i32 }
          cleanup
  %293 = load ptr, ptr %10, align 8, !tbaa !136
  %294 = icmp eq ptr %293, null
  br i1 %294, label %303, label %295

295:                                              ; preds = %291
  call void @_ZdlPv(ptr noundef nonnull %293) #19
  br label %303

296:                                              ; preds = %290, %287
  call void @llvm.lifetime.end.p0(i64 24, ptr nonnull %10) #17
  call void @llvm.lifetime.start.p0(i64 24, ptr nonnull %11) #17
  %297 = load i32, ptr %16, align 4, !tbaa !146
  %298 = add i32 %297, -1
  invoke void @_ZN6dealii11Polynomials8Legendre23generate_complete_basisEj(ptr nonnull sret(%"class.std::vector.106") align 8 %11, i32 noundef %298)
          to label %305 unwind label %387

299:                                              ; preds = %263
  %300 = landingpad { ptr, i32 }
          cleanup
  br label %301

301:                                              ; preds = %269, %273, %299
  %302 = phi { ptr, i32 } [ %300, %299 ], [ %270, %273 ], [ %270, %269 ]
  invoke void @_ZNSt6vectorIN6dealii11Polynomials10PolynomialIdEESaIS3_EED2Ev(ptr noundef nonnull align 8 dereferenceable(24) %10)
          to label %303 unwind label %840

303:                                              ; preds = %295, %291, %301
  %304 = phi { ptr, i32 } [ %302, %301 ], [ %292, %295 ], [ %292, %291 ]
  call void @llvm.lifetime.end.p0(i64 24, ptr nonnull %10) #17
  br label %479

305:                                              ; preds = %296
  %306 = load ptr, ptr %9, align 8, !tbaa !141
  %307 = invoke noundef nonnull align 8 dereferenceable(24) ptr @_ZNSt6vectorIN6dealii11Polynomials10PolynomialIdEESaIS3_EEaSERKS5_(ptr noundef nonnull align 8 dereferenceable(24) %306, ptr noundef nonnull align 8 dereferenceable(24) %11)
          to label %308 unwind label %389

308:                                              ; preds = %305
  %309 = load ptr, ptr %11, align 8, !tbaa !136
  %310 = load ptr, ptr %257, align 8, !tbaa !138
  %311 = icmp eq ptr %309, %310
  br i1 %311, label %321, label %312

312:                                              ; preds = %308, %316
  %313 = phi ptr [ %317, %316 ], [ %309, %308 ]
  %314 = load ptr, ptr %313, align 8, !tbaa !27
  %315 = load ptr, ptr %314, align 8
  invoke void %315(ptr noundef nonnull align 8 dereferenceable(96) %313)
          to label %316 unwind label %325

316:                                              ; preds = %312
  %317 = getelementptr inbounds %"class.dealii::Polynomials::Polynomial", ptr %313, i64 1
  %318 = icmp eq ptr %317, %310
  br i1 %318, label %319, label %312

319:                                              ; preds = %316
  %320 = load ptr, ptr %11, align 8, !tbaa !136
  br label %321

321:                                              ; preds = %319, %308
  %322 = phi ptr [ %320, %319 ], [ %309, %308 ]
  %323 = icmp eq ptr %322, null
  br i1 %323, label %336, label %324

324:                                              ; preds = %321
  call void @_ZdlPv(ptr noundef nonnull %322) #19
  br label %336

325:                                              ; preds = %312
  %326 = landingpad { ptr, i32 }
          cleanup
  br label %331

327:                                              ; preds = %347
  %328 = landingpad { ptr, i32 }
          cleanup
  br label %331

329:                                              ; preds = %371
  %330 = landingpad { ptr, i32 }
          cleanup
  br label %331

331:                                              ; preds = %327, %329, %325
  %332 = phi { ptr, i32 } [ %326, %325 ], [ %328, %327 ], [ %330, %329 ]
  %333 = load ptr, ptr %11, align 8, !tbaa !136
  %334 = icmp eq ptr %333, null
  br i1 %334, label %391, label %335

335:                                              ; preds = %331
  call void @_ZdlPv(ptr noundef nonnull %333) #19
  br label %391

336:                                              ; preds = %324, %321
  call void @llvm.lifetime.end.p0(i64 24, ptr nonnull %11) #17
  call void @llvm.lifetime.start.p0(i64 24, ptr nonnull %11) #17
  %337 = load i32, ptr %16, align 4, !tbaa !146
  %338 = add i32 %337, -1
  invoke void @_ZN6dealii11Polynomials8Legendre23generate_complete_basisEj(ptr nonnull sret(%"class.std::vector.106") align 8 %11, i32 noundef %338)
          to label %339 unwind label %387

339:                                              ; preds = %336
  %340 = load ptr, ptr %9, align 8, !tbaa !141
  %341 = getelementptr inbounds %"class.std::vector.106", ptr %340, i64 1
  %342 = invoke noundef nonnull align 8 dereferenceable(24) ptr @_ZNSt6vectorIN6dealii11Polynomials10PolynomialIdEESaIS3_EEaSERKS5_(ptr noundef nonnull align 8 dereferenceable(24) %341, ptr noundef nonnull align 8 dereferenceable(24) %11)
          to label %343 unwind label %389

343:                                              ; preds = %339
  %344 = load ptr, ptr %11, align 8, !tbaa !136
  %345 = load ptr, ptr %257, align 8, !tbaa !138
  %346 = icmp eq ptr %344, %345
  br i1 %346, label %356, label %347

347:                                              ; preds = %343, %351
  %348 = phi ptr [ %352, %351 ], [ %344, %343 ]
  %349 = load ptr, ptr %348, align 8, !tbaa !27
  %350 = load ptr, ptr %349, align 8
  invoke void %350(ptr noundef nonnull align 8 dereferenceable(96) %348)
          to label %351 unwind label %327

351:                                              ; preds = %347
  %352 = getelementptr inbounds %"class.dealii::Polynomials::Polynomial", ptr %348, i64 1
  %353 = icmp eq ptr %352, %345
  br i1 %353, label %354, label %347

354:                                              ; preds = %351
  %355 = load ptr, ptr %11, align 8, !tbaa !136
  br label %356

356:                                              ; preds = %354, %343
  %357 = phi ptr [ %355, %354 ], [ %344, %343 ]
  %358 = icmp eq ptr %357, null
  br i1 %358, label %360, label %359

359:                                              ; preds = %356
  call void @_ZdlPv(ptr noundef nonnull %357) #19
  br label %360

360:                                              ; preds = %359, %356
  call void @llvm.lifetime.end.p0(i64 24, ptr nonnull %11) #17
  call void @llvm.lifetime.start.p0(i64 24, ptr nonnull %11) #17
  %361 = load i32, ptr %16, align 4, !tbaa !146
  %362 = add i32 %361, -1
  invoke void @_ZN6dealii11Polynomials8Legendre23generate_complete_basisEj(ptr nonnull sret(%"class.std::vector.106") align 8 %11, i32 noundef %362)
          to label %363 unwind label %387

363:                                              ; preds = %360
  %364 = load ptr, ptr %9, align 8, !tbaa !141
  %365 = getelementptr inbounds %"class.std::vector.106", ptr %364, i64 2
  %366 = invoke noundef nonnull align 8 dereferenceable(24) ptr @_ZNSt6vectorIN6dealii11Polynomials10PolynomialIdEESaIS3_EEaSERKS5_(ptr noundef nonnull align 8 dereferenceable(24) %365, ptr noundef nonnull align 8 dereferenceable(24) %11)
          to label %367 unwind label %389

367:                                              ; preds = %363
  %368 = load ptr, ptr %11, align 8, !tbaa !136
  %369 = load ptr, ptr %257, align 8, !tbaa !138
  %370 = icmp eq ptr %368, %369
  br i1 %370, label %380, label %371

371:                                              ; preds = %367, %375
  %372 = phi ptr [ %376, %375 ], [ %368, %367 ]
  %373 = load ptr, ptr %372, align 8, !tbaa !27
  %374 = load ptr, ptr %373, align 8
  invoke void %374(ptr noundef nonnull align 8 dereferenceable(96) %372)
          to label %375 unwind label %329

375:                                              ; preds = %371
  %376 = getelementptr inbounds %"class.dealii::Polynomials::Polynomial", ptr %372, i64 1
  %377 = icmp eq ptr %376, %369
  br i1 %377, label %378, label %371

378:                                              ; preds = %375
  %379 = load ptr, ptr %11, align 8, !tbaa !136
  br label %380

380:                                              ; preds = %378, %367
  %381 = phi ptr [ %379, %378 ], [ %368, %367 ]
  %382 = icmp eq ptr %381, null
  br i1 %382, label %384, label %383

383:                                              ; preds = %380
  call void @_ZdlPv(ptr noundef nonnull %381) #19
  br label %384

384:                                              ; preds = %383, %380
  call void @llvm.lifetime.end.p0(i64 24, ptr nonnull %11) #17
  call void @llvm.lifetime.start.p0(i64 24, ptr nonnull %12) #17
  %385 = load i32, ptr %16, align 4, !tbaa !146
  %386 = add i32 %385, -2
  invoke void @_ZN6dealii11Polynomials8Legendre23generate_complete_basisEj(ptr nonnull sret(%"class.std::vector.106") align 8 %12, i32 noundef %386)
          to label %393 unwind label %467

387:                                              ; preds = %360, %336, %296
  %388 = landingpad { ptr, i32 }
          cleanup
  br label %391

389:                                              ; preds = %363, %339, %305
  %390 = landingpad { ptr, i32 }
          cleanup
  invoke void @_ZNSt6vectorIN6dealii11Polynomials10PolynomialIdEESaIS3_EED2Ev(ptr noundef nonnull align 8 dereferenceable(24) %11)
          to label %391 unwind label %840

391:                                              ; preds = %387, %335, %331, %389
  %392 = phi { ptr, i32 } [ %390, %389 ], [ %388, %387 ], [ %332, %335 ], [ %332, %331 ]
  call void @llvm.lifetime.end.p0(i64 24, ptr nonnull %11) #17
  br label %477

393:                                              ; preds = %384
  %394 = load ptr, ptr %9, align 8, !tbaa !141
  %395 = getelementptr inbounds %"class.std::vector.106", ptr %394, i64 %264
  %396 = invoke noundef nonnull align 8 dereferenceable(24) ptr @_ZNSt6vectorIN6dealii11Polynomials10PolynomialIdEESaIS3_EEaSERKS5_(ptr noundef nonnull align 8 dereferenceable(24) %395, ptr noundef nonnull align 8 dereferenceable(24) %12)
          to label %397 unwind label %469

397:                                              ; preds = %393
  %398 = load ptr, ptr %12, align 8, !tbaa !136
  %399 = load ptr, ptr %258, align 8, !tbaa !138
  %400 = icmp eq ptr %398, %399
  br i1 %400, label %410, label %401

401:                                              ; preds = %397, %405
  %402 = phi ptr [ %406, %405 ], [ %398, %397 ]
  %403 = load ptr, ptr %402, align 8, !tbaa !27
  %404 = load ptr, ptr %403, align 8
  invoke void %404(ptr noundef nonnull align 8 dereferenceable(96) %402)
          to label %405 unwind label %414

405:                                              ; preds = %401
  %406 = getelementptr inbounds %"class.dealii::Polynomials::Polynomial", ptr %402, i64 1
  %407 = icmp eq ptr %406, %399
  br i1 %407, label %408, label %401

408:                                              ; preds = %405
  %409 = load ptr, ptr %12, align 8, !tbaa !136
  br label %410

410:                                              ; preds = %408, %397
  %411 = phi ptr [ %409, %408 ], [ %398, %397 ]
  %412 = icmp eq ptr %411, null
  br i1 %412, label %419, label %413

413:                                              ; preds = %410
  call void @_ZdlPv(ptr noundef nonnull %411) #19
  br label %419

414:                                              ; preds = %401
  %415 = landingpad { ptr, i32 }
          cleanup
  %416 = load ptr, ptr %12, align 8, !tbaa !136
  %417 = icmp eq ptr %416, null
  br i1 %417, label %471, label %418

418:                                              ; preds = %414
  call void @_ZdlPv(ptr noundef nonnull %416) #19
  br label %471

419:                                              ; preds = %413, %410
  call void @llvm.lifetime.end.p0(i64 24, ptr nonnull %12) #17
  %420 = invoke noalias noundef nonnull dereferenceable(32) ptr @_Znwm(i64 noundef 32) #18
          to label %421 unwind label %473

421:                                              ; preds = %419
  invoke void @_ZN6dealii22AnisotropicPolynomialsILi3EEC1ERKSt6vectorIS2_INS_11Polynomials10PolynomialIdEESaIS5_EESaIS7_EE(ptr noundef nonnull align 8 dereferenceable(28) %420, ptr noundef nonnull align 8 dereferenceable(24) %9)
          to label %422 unwind label %475

422:                                              ; preds = %421
  %423 = getelementptr inbounds ptr, ptr %252, i64 %264
  store ptr %420, ptr %423, align 8, !tbaa !131
  %424 = load ptr, ptr %9, align 8, !tbaa !141
  %425 = load ptr, ptr %254, align 8, !tbaa !142
  %426 = icmp eq ptr %424, %425
  br i1 %426, label %456, label %427

427:                                              ; preds = %422, %451
  %428 = phi ptr [ %452, %451 ], [ %424, %422 ]
  %429 = load ptr, ptr %428, align 8, !tbaa !136
  %430 = getelementptr inbounds %"struct.std::_Vector_base<dealii::Polynomials::Polynomial<double>, std::allocator<dealii::Polynomials::Polynomial<double> > >::_Vector_impl_data", ptr %428, i64 0, i32 1
  %431 = load ptr, ptr %430, align 8, !tbaa !138
  %432 = icmp eq ptr %429, %431
  br i1 %432, label %442, label %433

433:                                              ; preds = %427, %437
  %434 = phi ptr [ %438, %437 ], [ %429, %427 ]
  %435 = load ptr, ptr %434, align 8, !tbaa !27
  %436 = load ptr, ptr %435, align 8
  invoke void %436(ptr noundef nonnull align 8 dereferenceable(96) %434)
          to label %437 unwind label %446

437:                                              ; preds = %433
  %438 = getelementptr inbounds %"class.dealii::Polynomials::Polynomial", ptr %434, i64 1
  %439 = icmp eq ptr %438, %431
  br i1 %439, label %440, label %433

440:                                              ; preds = %437
  %441 = load ptr, ptr %428, align 8, !tbaa !136
  br label %442

442:                                              ; preds = %440, %427
  %443 = phi ptr [ %441, %440 ], [ %429, %427 ]
  %444 = icmp eq ptr %443, null
  br i1 %444, label %451, label %445

445:                                              ; preds = %442
  call void @_ZdlPv(ptr noundef nonnull %443) #19
  br label %451

446:                                              ; preds = %433
  %447 = landingpad { ptr, i32 }
          cleanup
  %448 = load ptr, ptr %428, align 8, !tbaa !136
  %449 = icmp eq ptr %448, null
  br i1 %449, label %460, label %450

450:                                              ; preds = %446
  call void @_ZdlPv(ptr noundef nonnull %448) #19
  br label %460

451:                                              ; preds = %445, %442
  %452 = getelementptr inbounds %"class.std::vector.106", ptr %428, i64 1
  %453 = icmp eq ptr %452, %425
  br i1 %453, label %454, label %427

454:                                              ; preds = %451
  %455 = load ptr, ptr %9, align 8, !tbaa !141
  br label %456

456:                                              ; preds = %454, %422
  %457 = phi ptr [ %455, %454 ], [ %424, %422 ]
  %458 = icmp eq ptr %457, null
  br i1 %458, label %464, label %459

459:                                              ; preds = %456
  call void @_ZdlPv(ptr noundef nonnull %457) #19
  br label %464

460:                                              ; preds = %450, %446
  %461 = load ptr, ptr %9, align 8, !tbaa !141
  %462 = icmp eq ptr %461, null
  br i1 %462, label %479, label %463

463:                                              ; preds = %460
  call void @_ZdlPv(ptr noundef nonnull %461) #19
  br label %479

464:                                              ; preds = %459, %456
  call void @llvm.lifetime.end.p0(i64 24, ptr nonnull %9) #17
  %465 = add nuw nsw i64 %264, 1
  %466 = icmp eq i64 %465, 3
  br i1 %466, label %259, label %263

467:                                              ; preds = %384
  %468 = landingpad { ptr, i32 }
          cleanup
  br label %471

469:                                              ; preds = %393
  %470 = landingpad { ptr, i32 }
          cleanup
  invoke void @_ZNSt6vectorIN6dealii11Polynomials10PolynomialIdEESaIS3_EED2Ev(ptr noundef nonnull align 8 dereferenceable(24) %12)
          to label %471 unwind label %840

471:                                              ; preds = %467, %418, %414, %469
  %472 = phi { ptr, i32 } [ %470, %469 ], [ %468, %467 ], [ %415, %418 ], [ %415, %414 ]
  call void @llvm.lifetime.end.p0(i64 24, ptr nonnull %12) #17
  br label %477

473:                                              ; preds = %419
  %474 = landingpad { ptr, i32 }
          cleanup
  br label %477

475:                                              ; preds = %421
  %476 = landingpad { ptr, i32 }
          cleanup
  call void @_ZdlPv(ptr noundef nonnull %420) #19
  br label %477

477:                                              ; preds = %475, %473, %471, %391
  %478 = phi { ptr, i32 } [ %392, %391 ], [ %476, %475 ], [ %474, %473 ], [ %472, %471 ]
  invoke void @_ZNSt6vectorIS_IN6dealii11Polynomials10PolynomialIdEESaIS3_EESaIS5_EED2Ev(ptr noundef nonnull align 8 dereferenceable(24) %9)
          to label %479 unwind label %840

479:                                              ; preds = %463, %460, %477, %303
  %480 = phi { ptr, i32 } [ %478, %477 ], [ %304, %303 ], [ %447, %463 ], [ %447, %460 ]
  call void @llvm.lifetime.end.p0(i64 24, ptr nonnull %9) #17
  br label %835

481:                                              ; preds = %259
  %482 = load i32, ptr %36, align 4, !tbaa !111
  %483 = mul i32 %482, 6
  call void @llvm.lifetime.start.p0(i64 96, ptr nonnull %14) #17
  %484 = load i32, ptr %26, align 8, !tbaa !29
  %485 = getelementptr inbounds %"class.dealii::Quadrature", ptr %13, i64 0, i32 3
  %486 = getelementptr inbounds %"class.dealii::Quadrature", ptr %13, i64 0, i32 3, i32 0, i32 0, i32 0, i32 1
  %487 = load ptr, ptr %486, align 8, !tbaa !145
  %488 = load ptr, ptr %485, align 8, !tbaa !139
  invoke void @_ZN6dealii11SubscriptorC2Ev(ptr noundef nonnull align 8 dereferenceable(72) %14)
          to label %489 unwind label %544

489:                                              ; preds = %481
  %490 = ptrtoint ptr %487 to i64
  %491 = ptrtoint ptr %488 to i64
  %492 = sub i64 %490, %491
  %493 = lshr exact i64 %492, 3
  %494 = trunc i64 %493 to i32
  store ptr getelementptr inbounds ({ [4 x ptr] }, ptr @_ZTVN6dealii9TableBaseILi3EdEE, i64 0, inrange i32 0, i64 2), ptr %14, align 8, !tbaa !27
  %495 = getelementptr inbounds %"class.dealii::TableBase.83", ptr %14, i64 0, i32 1
  %496 = getelementptr inbounds %"class.dealii::TableBase.83", ptr %14, i64 0, i32 3
  store i64 0, ptr %495, align 8
  store i32 %484, ptr %496, align 4
  %497 = getelementptr inbounds %"class.dealii::TableBase.83", ptr %14, i64 0, i32 3, i32 0, i32 0, i64 1
  store i32 %494, ptr %497, align 8
  %498 = getelementptr inbounds %"class.dealii::TableBase.83", ptr %14, i64 0, i32 3, i32 0, i32 0, i64 2
  store i32 3, ptr %498, align 4
  %499 = mul i32 %484, %494
  %500 = icmp eq i32 %499, 0
  br i1 %500, label %501, label %502

501:                                              ; preds = %489
  call void @llvm.memset.p0.i64(ptr noundef nonnull align 8 dereferenceable(24) %495, i8 0, i64 24, i1 false)
  br label %514

502:                                              ; preds = %489
  %503 = mul i32 %499, 3
  %504 = getelementptr inbounds %"class.dealii::TableBase.83", ptr %14, i64 0, i32 2
  store i32 %503, ptr %504, align 8, !tbaa !144
  %505 = zext i32 %503 to i64
  %506 = shl nuw nsw i64 %505, 3
  %507 = invoke noalias noundef nonnull ptr @_Znam(i64 noundef %506) #18
          to label %508 unwind label %509

508:                                              ; preds = %502
  store ptr %507, ptr %495, align 8, !tbaa !127
  call void @llvm.memset.p0.i64(ptr nonnull align 8 %507, i8 0, i64 %506, i1 false), !tbaa !109
  br label %514

509:                                              ; preds = %502
  %510 = landingpad { ptr, i32 }
          cleanup
  invoke void @_ZN6dealii11SubscriptorD2Ev(ptr noundef nonnull align 8 dereferenceable(72) %14)
          to label %831 unwind label %511

511:                                              ; preds = %509
  %512 = landingpad { ptr, i32 }
          catch ptr null
  %513 = extractvalue { ptr, i32 } %512, 0
  call void @__clang_call_terminate(ptr %513) #20
  unreachable

514:                                              ; preds = %501, %508
  store ptr getelementptr inbounds ({ [4 x ptr] }, ptr @_ZTVN6dealii5TableILi3EdEE, i64 0, inrange i32 0, i64 2), ptr %14, align 8, !tbaa !27
  %515 = load ptr, ptr %486, align 8, !tbaa !145
  %516 = load ptr, ptr %485, align 8, !tbaa !139
  %517 = ptrtoint ptr %515 to i64
  %518 = ptrtoint ptr %516 to i64
  %519 = sub i64 %517, %518
  %520 = and i64 %519, 34359738360
  %521 = icmp eq i64 %520, 0
  br i1 %521, label %534, label %522

522:                                              ; preds = %514
  %523 = getelementptr inbounds %"class.dealii::Quadrature", ptr %13, i64 0, i32 2
  %524 = load i32, ptr %26, align 8, !tbaa !29
  %525 = icmp eq i32 %524, 0
  br i1 %525, label %534, label %526

526:                                              ; preds = %522, %557
  %527 = phi ptr [ %558, %557 ], [ %516, %522 ]
  %528 = phi ptr [ %559, %557 ], [ %515, %522 ]
  %529 = phi i32 [ %560, %557 ], [ 1, %522 ]
  %530 = phi i64 [ %561, %557 ], [ 0, %522 ]
  %531 = icmp eq i32 %529, 0
  br i1 %531, label %557, label %532

532:                                              ; preds = %526
  %533 = trunc i64 %530 to i32
  br label %546

534:                                              ; preds = %557, %522, %514
  %535 = getelementptr inbounds %"class.dealii::Quadrature", ptr %15, i64 0, i32 3
  %536 = getelementptr inbounds %"class.dealii::Quadrature", ptr %15, i64 0, i32 3, i32 0, i32 0, i32 0, i32 1
  %537 = getelementptr inbounds %"class.dealii::Quadrature", ptr %15, i64 0, i32 2
  %538 = getelementptr inbounds ptr, ptr %252, i64 1
  %539 = or i32 %483, 1
  %540 = getelementptr inbounds ptr, ptr %252, i64 2
  %541 = add i32 %483, 2
  br label %614

542:                                              ; preds = %822, %259
  %543 = landingpad { ptr, i32 }
          cleanup
  br label %833

544:                                              ; preds = %481, %818
  %545 = landingpad { ptr, i32 }
          cleanup
  br label %831

546:                                              ; preds = %532, %599
  %547 = phi i32 [ 0, %532 ], [ %609, %599 ]
  %548 = load ptr, ptr %523, align 8, !tbaa !132
  %549 = getelementptr inbounds %"class.dealii::Point", ptr %548, i64 %530
  %550 = load ptr, ptr %0, align 8, !tbaa !27
  %551 = getelementptr inbounds ptr, ptr %550, i64 4
  %552 = load ptr, ptr %551, align 8
  %553 = invoke noundef double %552(ptr noundef nonnull align 8 dereferenceable(976) %0, i32 noundef %547, ptr noundef nonnull align 8 dereferenceable(24) %549, i32 noundef 0)
          to label %568 unwind label %612

554:                                              ; preds = %599
  %555 = load ptr, ptr %486, align 8, !tbaa !145
  %556 = load ptr, ptr %485, align 8, !tbaa !139
  br label %557

557:                                              ; preds = %554, %526
  %558 = phi ptr [ %556, %554 ], [ %527, %526 ]
  %559 = phi ptr [ %555, %554 ], [ %528, %526 ]
  %560 = phi i32 [ %610, %554 ], [ 0, %526 ]
  %561 = add nuw nsw i64 %530, 1
  %562 = ptrtoint ptr %559 to i64
  %563 = ptrtoint ptr %558 to i64
  %564 = sub i64 %562, %563
  %565 = lshr exact i64 %564, 3
  %566 = and i64 %565, 4294967295
  %567 = icmp ult i64 %561, %566
  br i1 %567, label %526, label %534, !llvm.loop !154

568:                                              ; preds = %546
  %569 = load ptr, ptr %495, align 8, !tbaa !127
  %570 = load i32, ptr %497, align 8, !tbaa !15
  %571 = mul i32 %570, %547
  %572 = add i32 %571, %533
  %573 = load i32, ptr %498, align 4, !tbaa !15
  %574 = mul i32 %572, %573
  %575 = zext i32 %574 to i64
  %576 = getelementptr inbounds double, ptr %569, i64 %575
  store double %553, ptr %576, align 8, !tbaa !109
  %577 = load ptr, ptr %523, align 8, !tbaa !132
  %578 = getelementptr inbounds %"class.dealii::Point", ptr %577, i64 %530
  %579 = load ptr, ptr %0, align 8, !tbaa !27
  %580 = getelementptr inbounds ptr, ptr %579, i64 4
  %581 = load ptr, ptr %580, align 8
  %582 = invoke noundef double %581(ptr noundef nonnull align 8 dereferenceable(976) %0, i32 noundef %547, ptr noundef nonnull align 8 dereferenceable(24) %578, i32 noundef 1)
          to label %583 unwind label %612

583:                                              ; preds = %568
  %584 = load ptr, ptr %495, align 8, !tbaa !127
  %585 = load i32, ptr %497, align 8, !tbaa !15
  %586 = mul i32 %585, %547
  %587 = add i32 %586, %533
  %588 = load i32, ptr %498, align 4, !tbaa !15
  %589 = mul i32 %587, %588
  %590 = add i32 %589, 1
  %591 = zext i32 %590 to i64
  %592 = getelementptr inbounds double, ptr %584, i64 %591
  store double %582, ptr %592, align 8, !tbaa !109
  %593 = load ptr, ptr %523, align 8, !tbaa !132
  %594 = getelementptr inbounds %"class.dealii::Point", ptr %593, i64 %530
  %595 = load ptr, ptr %0, align 8, !tbaa !27
  %596 = getelementptr inbounds ptr, ptr %595, i64 4
  %597 = load ptr, ptr %596, align 8
  %598 = invoke noundef double %597(ptr noundef nonnull align 8 dereferenceable(976) %0, i32 noundef %547, ptr noundef nonnull align 8 dereferenceable(24) %594, i32 noundef 2)
          to label %599 unwind label %612

599:                                              ; preds = %583
  %600 = load ptr, ptr %495, align 8, !tbaa !127
  %601 = load i32, ptr %497, align 8, !tbaa !15
  %602 = mul i32 %601, %547
  %603 = add i32 %602, %533
  %604 = load i32, ptr %498, align 4, !tbaa !15
  %605 = mul i32 %603, %604
  %606 = add i32 %605, 2
  %607 = zext i32 %606 to i64
  %608 = getelementptr inbounds double, ptr %600, i64 %607
  store double %598, ptr %608, align 8, !tbaa !109
  %609 = add nuw i32 %547, 1
  %610 = load i32, ptr %26, align 8, !tbaa !29
  %611 = icmp ult i32 %609, %610
  br i1 %611, label %546, label %554

612:                                              ; preds = %583, %568, %546
  %613 = landingpad { ptr, i32 }
          cleanup
  br label %825

614:                                              ; preds = %534, %796
  %615 = phi i64 [ 0, %534 ], [ %797, %796 ]
  call void @llvm.lifetime.start.p0(i64 128, ptr nonnull %15) #17
  %616 = trunc i64 %615 to i32
  invoke void @_ZN6dealii10QProjectorILi3EE16project_to_childERKNS_10QuadratureILi3EEEj(ptr nonnull sret(%"class.dealii::Quadrature") align 8 %15, ptr noundef nonnull align 8 dereferenceable(128) %13, i32 noundef %616)
          to label %617 unwind label %640

617:                                              ; preds = %614
  %618 = load ptr, ptr %536, align 8, !tbaa !145
  %619 = load ptr, ptr %535, align 8, !tbaa !139
  %620 = ptrtoint ptr %618 to i64
  %621 = ptrtoint ptr %619 to i64
  %622 = sub i64 %620, %621
  %623 = and i64 %622, 34359738360
  %624 = icmp eq i64 %623, 0
  %625 = load i32, ptr %26, align 8
  %626 = icmp eq i32 %625, 0
  %627 = select i1 %624, i1 true, i1 %626
  br i1 %627, label %639, label %628

628:                                              ; preds = %617, %647
  %629 = phi ptr [ %648, %647 ], [ %619, %617 ]
  %630 = phi ptr [ %649, %647 ], [ %618, %617 ]
  %631 = phi i32 [ %650, %647 ], [ 1, %617 ]
  %632 = phi i64 [ %651, %647 ], [ 0, %617 ]
  %633 = icmp eq i32 %631, 0
  br i1 %633, label %647, label %634

634:                                              ; preds = %628
  %635 = load ptr, ptr %252, align 8, !tbaa !131
  %636 = trunc i64 %632 to i32
  %637 = trunc i64 %632 to i32
  %638 = trunc i64 %632 to i32
  br label %642

639:                                              ; preds = %647, %617
  invoke void @_ZN6dealii10QuadratureILi3EED1Ev(ptr noundef nonnull align 8 dereferenceable(128) %15)
          to label %796 unwind label %640

640:                                              ; preds = %639, %614
  %641 = landingpad { ptr, i32 }
          cleanup
  br label %802

642:                                              ; preds = %634, %713
  %643 = phi i32 [ 0, %634 ], [ %714, %713 ]
  br label %658

644:                                              ; preds = %713
  %645 = load ptr, ptr %536, align 8, !tbaa !145
  %646 = load ptr, ptr %535, align 8, !tbaa !139
  br label %647

647:                                              ; preds = %644, %628
  %648 = phi ptr [ %646, %644 ], [ %629, %628 ]
  %649 = phi ptr [ %645, %644 ], [ %630, %628 ]
  %650 = phi i32 [ %715, %644 ], [ 0, %628 ]
  %651 = add nuw nsw i64 %632, 1
  %652 = ptrtoint ptr %649 to i64
  %653 = ptrtoint ptr %648 to i64
  %654 = sub i64 %652, %653
  %655 = lshr exact i64 %654, 3
  %656 = and i64 %655, 4294967295
  %657 = icmp ult i64 %651, %656
  br i1 %657, label %628, label %639, !llvm.loop !155

658:                                              ; preds = %642, %777
  %659 = phi i32 [ %795, %777 ], [ 0, %642 ]
  %660 = invoke noundef i32 @_ZNK6dealii22AnisotropicPolynomialsILi3EE1nEv(ptr noundef nonnull align 8 dereferenceable(28) %635)
          to label %661 unwind label %753

661:                                              ; preds = %658
  %662 = icmp ult i32 %659, %660
  br i1 %662, label %761, label %663

663:                                              ; preds = %661
  %664 = load ptr, ptr %538, align 8, !tbaa !131
  br label %665

665:                                              ; preds = %689, %663
  %666 = phi i32 [ %707, %689 ], [ 0, %663 ]
  %667 = invoke noundef i32 @_ZNK6dealii22AnisotropicPolynomialsILi3EE1nEv(ptr noundef nonnull align 8 dereferenceable(28) %664)
          to label %668 unwind label %755

668:                                              ; preds = %665
  %669 = icmp ult i32 %666, %667
  br i1 %669, label %672, label %670

670:                                              ; preds = %668
  %671 = load ptr, ptr %540, align 8, !tbaa !131
  br label %708

672:                                              ; preds = %668
  %673 = load ptr, ptr %535, align 8, !tbaa !139
  %674 = getelementptr inbounds double, ptr %673, i64 %632
  %675 = load double, ptr %674, align 8, !tbaa !109
  %676 = load ptr, ptr %495, align 8, !tbaa !127
  %677 = load i32, ptr %497, align 8, !tbaa !15
  %678 = mul i32 %677, %643
  %679 = add i32 %678, %637
  %680 = load i32, ptr %498, align 4, !tbaa !15
  %681 = mul i32 %679, %680
  %682 = add i32 %681, 1
  %683 = zext i32 %682 to i64
  %684 = getelementptr inbounds double, ptr %676, i64 %683
  %685 = load double, ptr %684, align 8, !tbaa !109
  %686 = load ptr, ptr %537, align 8, !tbaa !132
  %687 = getelementptr inbounds %"class.dealii::Point", ptr %686, i64 %632
  %688 = invoke noundef double @_ZNK6dealii22AnisotropicPolynomialsILi3EE13compute_valueEjRKNS_5PointILi3EEE(ptr noundef nonnull align 8 dereferenceable(28) %664, i32 noundef %666, ptr noundef nonnull align 8 dereferenceable(24) %687)
          to label %689 unwind label %755

689:                                              ; preds = %672
  %690 = fmul double %675, %685
  %691 = load ptr, ptr %39, align 8, !tbaa !151
  %692 = getelementptr inbounds %"class.std::vector.118", ptr %691, i64 6
  %693 = load ptr, ptr %692, align 8, !tbaa !152
  %694 = getelementptr inbounds %"class.dealii::FullMatrix", ptr %693, i64 %615
  %695 = mul i32 %666, 3
  %696 = add i32 %539, %695
  %697 = getelementptr inbounds %"class.dealii::TableBase", ptr %694, i64 0, i32 1
  %698 = load ptr, ptr %697, align 8, !tbaa !107
  %699 = getelementptr inbounds %"class.dealii::TableBase", ptr %694, i64 0, i32 3, i32 0, i32 0, i64 1
  %700 = load i32, ptr %699, align 8, !tbaa !15
  %701 = mul i32 %700, %696
  %702 = add i32 %701, %643
  %703 = zext i32 %702 to i64
  %704 = getelementptr inbounds double, ptr %698, i64 %703
  %705 = load double, ptr %704, align 8, !tbaa !109
  %706 = call double @llvm.fmuladd.f64(double %690, double %688, double %705)
  store double %706, ptr %704, align 8, !tbaa !109
  %707 = add nuw i32 %666, 1
  br label %665

708:                                              ; preds = %734, %670
  %709 = phi i32 [ %752, %734 ], [ 0, %670 ]
  %710 = invoke noundef i32 @_ZNK6dealii22AnisotropicPolynomialsILi3EE1nEv(ptr noundef nonnull align 8 dereferenceable(28) %671)
          to label %711 unwind label %757

711:                                              ; preds = %708
  %712 = icmp ult i32 %709, %710
  br i1 %712, label %717, label %713

713:                                              ; preds = %711
  %714 = add nuw i32 %643, 1
  %715 = load i32, ptr %26, align 8, !tbaa !29
  %716 = icmp ult i32 %714, %715
  br i1 %716, label %642, label %644

717:                                              ; preds = %711
  %718 = load ptr, ptr %535, align 8, !tbaa !139
  %719 = getelementptr inbounds double, ptr %718, i64 %632
  %720 = load double, ptr %719, align 8, !tbaa !109
  %721 = load ptr, ptr %495, align 8, !tbaa !127
  %722 = load i32, ptr %497, align 8, !tbaa !15
  %723 = mul i32 %722, %643
  %724 = add i32 %723, %638
  %725 = load i32, ptr %498, align 4, !tbaa !15
  %726 = mul i32 %724, %725
  %727 = add i32 %726, 2
  %728 = zext i32 %727 to i64
  %729 = getelementptr inbounds double, ptr %721, i64 %728
  %730 = load double, ptr %729, align 8, !tbaa !109
  %731 = load ptr, ptr %537, align 8, !tbaa !132
  %732 = getelementptr inbounds %"class.dealii::Point", ptr %731, i64 %632
  %733 = invoke noundef double @_ZNK6dealii22AnisotropicPolynomialsILi3EE13compute_valueEjRKNS_5PointILi3EEE(ptr noundef nonnull align 8 dereferenceable(28) %671, i32 noundef %709, ptr noundef nonnull align 8 dereferenceable(24) %732)
          to label %734 unwind label %757

734:                                              ; preds = %717
  %735 = fmul double %720, %730
  %736 = load ptr, ptr %39, align 8, !tbaa !151
  %737 = getelementptr inbounds %"class.std::vector.118", ptr %736, i64 6
  %738 = load ptr, ptr %737, align 8, !tbaa !152
  %739 = getelementptr inbounds %"class.dealii::FullMatrix", ptr %738, i64 %615
  %740 = mul i32 %709, 3
  %741 = add i32 %541, %740
  %742 = getelementptr inbounds %"class.dealii::TableBase", ptr %739, i64 0, i32 1
  %743 = load ptr, ptr %742, align 8, !tbaa !107
  %744 = getelementptr inbounds %"class.dealii::TableBase", ptr %739, i64 0, i32 3, i32 0, i32 0, i64 1
  %745 = load i32, ptr %744, align 8, !tbaa !15
  %746 = mul i32 %745, %741
  %747 = add i32 %746, %643
  %748 = zext i32 %747 to i64
  %749 = getelementptr inbounds double, ptr %743, i64 %748
  %750 = load double, ptr %749, align 8, !tbaa !109
  %751 = call double @llvm.fmuladd.f64(double %735, double %733, double %750)
  store double %751, ptr %749, align 8, !tbaa !109
  %752 = add nuw i32 %709, 1
  br label %708

753:                                              ; preds = %658, %761
  %754 = landingpad { ptr, i32 }
          cleanup
  br label %759

755:                                              ; preds = %672, %665
  %756 = landingpad { ptr, i32 }
          cleanup
  br label %759

757:                                              ; preds = %717, %708
  %758 = landingpad { ptr, i32 }
          cleanup
  br label %759

759:                                              ; preds = %755, %757, %753
  %760 = phi { ptr, i32 } [ %754, %753 ], [ %756, %755 ], [ %758, %757 ]
  invoke void @_ZN6dealii10QuadratureILi3EED1Ev(ptr noundef nonnull align 8 dereferenceable(128) %15)
          to label %802 unwind label %840

761:                                              ; preds = %661
  %762 = load ptr, ptr %535, align 8, !tbaa !139
  %763 = getelementptr inbounds double, ptr %762, i64 %632
  %764 = load double, ptr %763, align 8, !tbaa !109
  %765 = load ptr, ptr %495, align 8, !tbaa !127
  %766 = load i32, ptr %497, align 8, !tbaa !15
  %767 = mul i32 %766, %643
  %768 = add i32 %767, %636
  %769 = load i32, ptr %498, align 4, !tbaa !15
  %770 = mul i32 %768, %769
  %771 = zext i32 %770 to i64
  %772 = getelementptr inbounds double, ptr %765, i64 %771
  %773 = load double, ptr %772, align 8, !tbaa !109
  %774 = load ptr, ptr %537, align 8, !tbaa !132
  %775 = getelementptr inbounds %"class.dealii::Point", ptr %774, i64 %632
  %776 = invoke noundef double @_ZNK6dealii22AnisotropicPolynomialsILi3EE13compute_valueEjRKNS_5PointILi3EEE(ptr noundef nonnull align 8 dereferenceable(28) %635, i32 noundef %659, ptr noundef nonnull align 8 dereferenceable(24) %775)
          to label %777 unwind label %753

777:                                              ; preds = %761
  %778 = fmul double %764, %773
  %779 = load ptr, ptr %39, align 8, !tbaa !151
  %780 = getelementptr inbounds %"class.std::vector.118", ptr %779, i64 6
  %781 = load ptr, ptr %780, align 8, !tbaa !152
  %782 = getelementptr inbounds %"class.dealii::FullMatrix", ptr %781, i64 %615
  %783 = mul i32 %659, 3
  %784 = add i32 %483, %783
  %785 = getelementptr inbounds %"class.dealii::TableBase", ptr %782, i64 0, i32 1
  %786 = load ptr, ptr %785, align 8, !tbaa !107
  %787 = getelementptr inbounds %"class.dealii::TableBase", ptr %782, i64 0, i32 3, i32 0, i32 0, i64 1
  %788 = load i32, ptr %787, align 8, !tbaa !15
  %789 = mul i32 %788, %784
  %790 = add i32 %789, %643
  %791 = zext i32 %790 to i64
  %792 = getelementptr inbounds double, ptr %786, i64 %791
  %793 = load double, ptr %792, align 8, !tbaa !109
  %794 = call double @llvm.fmuladd.f64(double %778, double %776, double %793)
  store double %794, ptr %792, align 8, !tbaa !109
  %795 = add nuw i32 %659, 1
  br label %658

796:                                              ; preds = %639
  call void @llvm.lifetime.end.p0(i64 128, ptr nonnull %15) #17
  %797 = add nuw nsw i64 %615, 1
  %798 = icmp eq i64 %797, 8
  br i1 %798, label %799, label %614

799:                                              ; preds = %796
  %800 = load ptr, ptr %252, align 8, !tbaa !131
  %801 = icmp eq ptr %800, null
  br i1 %801, label %806, label %804

802:                                              ; preds = %759, %640
  %803 = phi { ptr, i32 } [ %760, %759 ], [ %641, %640 ]
  call void @llvm.lifetime.end.p0(i64 128, ptr nonnull %15) #17
  br label %825

804:                                              ; preds = %799
