; ModuleID = 'source/fe/fe_tools.cc'
source_filename = "source/fe/fe_tools.cc"
target datalayout = "e-m:e-p270:32:32-p271:32:32-p272:64:64-i64:64-f80:128-n8:16:32:64-S128"
target triple = "x86_64-pc-linux-gnu"

module asm ".globl _ZSt21ios_base_library_initv"

%"class.std::map.205" = type { %"class.std::_Rb_tree.206" }
%"class.std::_Rb_tree.206" = type { %"struct.std::_Rb_tree<std::__cxx11::basic_string<char>, std::pair<const std::__cxx11::basic_string<char>, boost::shared_ptr<const dealii::FETools::FEFactoryBase<3> > >, std::_Select1st<std::pair<const std::__cxx11::basic_string<char>, boost::shared_ptr<const dealii::FETools::FEFactoryBase<3> > > >, std::less<std::__cxx11::basic_string<char> > >::_Rb_tree_impl" }
%"struct.std::_Rb_tree<std::__cxx11::basic_string<char>, std::pair<const std::__cxx11::basic_string<char>, boost::shared_ptr<const dealii::FETools::FEFactoryBase<3> > >, std::_Select1st<std::pair<const std::__cxx11::basic_string<char>, boost::shared_ptr<const dealii::FETools::FEFactoryBase<3> > > >, std::less<std::__cxx11::basic_string<char> > >::_Rb_tree_impl" = type { %"struct.std::_Rb_tree_key_compare.210", %"struct.std::_Rb_tree_header" }
%"struct.std::_Rb_tree_key_compare.210" = type { %"struct.std::less.211" }
%"struct.std::less.211" = type { i8 }
%"struct.std::_Rb_tree_header" = type { %"struct.std::_Rb_tree_node_base", i64 }
%"struct.std::_Rb_tree_node_base" = type { i32, ptr, ptr, ptr }
%"struct.dealii::GrowingVectorMemory<>::Pool" = type { ptr }
%"class.dealii::LogStream" = type { %"class.std::stack", ptr, ptr, i32, i32, i8, i8, double, double, i8, ptr, %"class.std::map.310" }
%"class.std::stack" = type { %"class.std::deque" }
%"class.std::deque" = type { %"class.std::_Deque_base" }
%"class.std::_Deque_base" = type { %"struct.std::_Deque_base<std::__cxx11::basic_string<char>, std::allocator<std::__cxx11::basic_string<char> > >::_Deque_impl" }
%"struct.std::_Deque_base<std::__cxx11::basic_string<char>, std::allocator<std::__cxx11::basic_string<char> > >::_Deque_impl" = type { %"struct.std::_Deque_base<std::__cxx11::basic_string<char>, std::allocator<std::__cxx11::basic_string<char> > >::_Deque_impl_data" }
%"struct.std::_Deque_base<std::__cxx11::basic_string<char>, std::allocator<std::__cxx11::basic_string<char> > >::_Deque_impl_data" = type { ptr, i64, %"struct.std::_Deque_iterator", %"struct.std::_Deque_iterator" }
%"struct.std::_Deque_iterator" = type { ptr, ptr, ptr, ptr }
%"class.std::map.310" = type { %"class.std::_Rb_tree.311" }
%"class.std::_Rb_tree.311" = type { %"struct.std::_Rb_tree<unsigned int, std::pair<const unsigned int, boost::shared_ptr<std::__cxx11::basic_ostringstream<char> > >, std::_Select1st<std::pair<const unsigned int, boost::shared_ptr<std::__cxx11::basic_ostringstream<char> > > >, std::less<unsigned int> >::_Rb_tree_impl" }
%"struct.std::_Rb_tree<unsigned int, std::pair<const unsigned int, boost::shared_ptr<std::__cxx11::basic_ostringstream<char> > >, std::_Select1st<std::pair<const unsigned int, boost::shared_ptr<std::__cxx11::basic_ostringstream<char> > > >, std::less<unsigned int> >::_Rb_tree_impl" = type { %"struct.std::_Rb_tree_key_compare.315", %"struct.std::_Rb_tree_header" }
%"struct.std::_Rb_tree_key_compare.315" = type { %"struct.std::less.316" }
%"struct.std::less.316" = type { i8 }
%"class.std::vector.62" = type { %"struct.std::_Vector_base.63" }
%"struct.std::_Vector_base.63" = type { %"struct.std::_Vector_base<std::vector<double>, std::allocator<std::vector<double> > >::_Vector_impl" }
%"struct.std::_Vector_base<std::vector<double>, std::allocator<std::vector<double> > >::_Vector_impl" = type { %"struct.std::_Vector_base<std::vector<double>, std::allocator<std::vector<double> > >::_Vector_impl_data" }
%"struct.std::_Vector_base<std::vector<double>, std::allocator<std::vector<double> > >::_Vector_impl_data" = type { ptr, ptr, ptr }
%"class.std::vector.67" = type { %"struct.std::_Vector_base.68" }
%"struct.std::_Vector_base.68" = type { %"struct.std::_Vector_base<double, std::allocator<double> >::_Vector_impl" }
%"struct.std::_Vector_base<double, std::allocator<double> >::_Vector_impl" = type { %"struct.std::_Vector_base<double, std::allocator<double> >::_Vector_impl_data" }
%"struct.std::_Vector_base<double, std::allocator<double> >::_Vector_impl_data" = type { ptr, ptr, ptr }
%"class.dealii::VectorSlice" = type { ptr, i32, i32 }
%"struct.std::_Vector_base<dealii::Point<3>, std::allocator<dealii::Point<3> > >::_Vector_impl_data" = type { ptr, ptr, ptr }
%"class.dealii::TableBase" = type <{ %"class.dealii::Subscriptor", ptr, i32, %"class.dealii::TableIndices", [4 x i8] }>
%"class.dealii::Subscriptor" = type { ptr, i32, %"class.std::map", ptr }
%"class.std::map" = type { %"class.std::_Rb_tree" }
%"class.std::_Rb_tree" = type { %"struct.std::_Rb_tree<const char *, std::pair<const char *const, unsigned int>, std::_Select1st<std::pair<const char *const, unsigned int> >, std::less<const char *> >::_Rb_tree_impl" }
%"struct.std::_Rb_tree<const char *, std::pair<const char *const, unsigned int>, std::_Select1st<std::pair<const char *const, unsigned int> >, std::less<const char *> >::_Rb_tree_impl" = type { %"struct.std::_Rb_tree_key_compare", %"struct.std::_Rb_tree_header" }
%"struct.std::_Rb_tree_key_compare" = type { %"struct.std::less" }
%"struct.std::less" = type { i8 }
%"class.dealii::TableIndices" = type { %"class.dealii::TableIndicesBase" }
%"class.dealii::TableIndicesBase" = type { [2 x i32] }
%"class.dealii::Point" = type { %"class.dealii::Tensor" }
%"class.dealii::Tensor" = type { [3 x double] }
%"class.std::vector.48" = type { %"struct.std::_Vector_base.49" }
%"struct.std::_Vector_base.49" = type { %"struct.std::_Vector_base<unsigned int, std::allocator<unsigned int> >::_Vector_impl" }
%"struct.std::_Vector_base<unsigned int, std::allocator<unsigned int> >::_Vector_impl" = type { %"struct.std::_Vector_base<unsigned int, std::allocator<unsigned int> >::_Vector_impl_data" }
%"struct.std::_Vector_base<unsigned int, std::allocator<unsigned int> >::_Vector_impl_data" = type { ptr, ptr, ptr }
%"struct.std::_Vector_base<std::vector<unsigned int>, std::allocator<std::vector<unsigned int> > >::_Vector_impl_data" = type { ptr, ptr, ptr }
%"class.dealii::FiniteElement" = type { %"class.dealii::Subscriptor", %"class.dealii::FiniteElementData", i8, %"class.std::vector", %"class.std::vector", %"class.dealii::FullMatrix", %"class.std::vector.19", %"class.std::vector.24", %"class.std::vector.19", %"class.std::vector.24", %"class.dealii::Table.29", %"class.std::vector.33", %"class.std::vector.38", %"class.std::vector.38", %"class.std::vector.43", %"class.std::vector.43", %"class.std::vector.48", %"class.std::vector.43", %"class.std::vector.53", %"class.std::vector.57", %"class.std::vector.48" }
%"class.dealii::FiniteElementData" = type { i32, i32, i32, i32, i32, i32, i32, i32, i32, i32, i32, i32, i32, i32, i32 }
%"class.std::vector" = type { %"struct.std::_Vector_base" }
%"struct.std::_Vector_base" = type { %"struct.std::_Vector_base<std::vector<dealii::FullMatrix<double> >, std::allocator<std::vector<dealii::FullMatrix<double> > > >::_Vector_impl" }
%"struct.std::_Vector_base<std::vector<dealii::FullMatrix<double> >, std::allocator<std::vector<dealii::FullMatrix<double> > > >::_Vector_impl" = type { %"struct.std::_Vector_base<std::vector<dealii::FullMatrix<double> >, std::allocator<std::vector<dealii::FullMatrix<double> > > >::_Vector_impl_data" }
%"struct.std::_Vector_base<std::vector<dealii::FullMatrix<double> >, std::allocator<std::vector<dealii::FullMatrix<double> > > >::_Vector_impl_data" = type { ptr, ptr, ptr }
%"class.dealii::FullMatrix" = type { %"class.dealii::Table.base", [4 x i8] }
%"class.dealii::Table.base" = type { %"class.dealii::TableBase.base" }
%"class.dealii::TableBase.base" = type <{ %"class.dealii::Subscriptor", ptr, i32, %"class.dealii::TableIndices" }>
%"class.std::vector.19" = type { %"struct.std::_Vector_base.20" }
%"struct.std::_Vector_base.20" = type { %"struct.std::_Vector_base<dealii::Point<3>, std::allocator<dealii::Point<3> > >::_Vector_impl" }
%"struct.std::_Vector_base<dealii::Point<3>, std::allocator<dealii::Point<3> > >::_Vector_impl" = type { %"struct.std::_Vector_base<dealii::Point<3>, std::allocator<dealii::Point<3> > >::_Vector_impl_data" }
%"class.std::vector.24" = type { %"struct.std::_Vector_base.25" }
%"struct.std::_Vector_base.25" = type { %"struct.std::_Vector_base<dealii::Point<2>, std::allocator<dealii::Point<2> > >::_Vector_impl" }
%"struct.std::_Vector_base<dealii::Point<2>, std::allocator<dealii::Point<2> > >::_Vector_impl" = type { %"struct.std::_Vector_base<dealii::Point<2>, std::allocator<dealii::Point<2> > >::_Vector_impl_data" }
%"struct.std::_Vector_base<dealii::Point<2>, std::allocator<dealii::Point<2> > >::_Vector_impl_data" = type { ptr, ptr, ptr }
%"class.dealii::Table.29" = type { %"class.dealii::TableBase.base.31", [4 x i8] }
%"class.dealii::TableBase.base.31" = type <{ %"class.dealii::Subscriptor", ptr, i32, %"class.dealii::TableIndices" }>
%"class.std::vector.33" = type { %"struct.std::_Vector_base.34" }
%"struct.std::_Vector_base.34" = type { %"struct.std::_Vector_base<int, std::allocator<int> >::_Vector_impl" }
%"struct.std::_Vector_base<int, std::allocator<int> >::_Vector_impl" = type { %"struct.std::_Vector_base<int, std::allocator<int> >::_Vector_impl_data" }
%"struct.std::_Vector_base<int, std::allocator<int> >::_Vector_impl_data" = type { ptr, ptr, ptr }
%"class.std::vector.38" = type { %"struct.std::_Vector_base.39" }
%"struct.std::_Vector_base.39" = type { %"struct.std::_Vector_base<std::pair<unsigned int, unsigned int>, std::allocator<std::pair<unsigned int, unsigned int> > >::_Vector_impl" }
%"struct.std::_Vector_base<std::pair<unsigned int, unsigned int>, std::allocator<std::pair<unsigned int, unsigned int> > >::_Vector_impl" = type { %"struct.std::_Vector_base<std::pair<unsigned int, unsigned int>, std::allocator<std::pair<unsigned int, unsigned int> > >::_Vector_impl_data" }
%"struct.std::_Vector_base<std::pair<unsigned int, unsigned int>, std::allocator<std::pair<unsigned int, unsigned int> > >::_Vector_impl_data" = type { ptr, ptr, ptr }
%"class.std::vector.43" = type { %"struct.std::_Vector_base.44" }
%"struct.std::_Vector_base.44" = type { %"struct.std::_Vector_base<std::pair<std::pair<unsigned int, unsigned int>, unsigned int>, std::allocator<std::pair<std::pair<unsigned int, unsigned int>, unsigned int> > >::_Vector_impl" }
%"struct.std::_Vector_base<std::pair<std::pair<unsigned int, unsigned int>, unsigned int>, std::allocator<std::pair<std::pair<unsigned int, unsigned int>, unsigned int> > >::_Vector_impl" = type { %"struct.std::_Vector_base<std::pair<std::pair<unsigned int, unsigned int>, unsigned int>, std::allocator<std::pair<std::pair<unsigned int, unsigned int>, unsigned int> > >::_Vector_impl_data" }
%"struct.std::_Vector_base<std::pair<std::pair<unsigned int, unsigned int>, unsigned int>, std::allocator<std::pair<std::pair<unsigned int, unsigned int>, unsigned int> > >::_Vector_impl_data" = type { ptr, ptr, ptr }
%"class.std::vector.53" = type { %"struct.std::_Bvector_base" }
%"struct.std::_Bvector_base" = type { %"struct.std::_Bvector_base<std::allocator<bool> >::_Bvector_impl" }
%"struct.std::_Bvector_base<std::allocator<bool> >::_Bvector_impl" = type { %"struct.std::_Bvector_base<std::allocator<bool> >::_Bvector_impl_data" }
%"struct.std::_Bvector_base<std::allocator<bool> >::_Bvector_impl_data" = type { %"struct.std::_Bit_iterator", %"struct.std::_Bit_iterator", ptr }
%"struct.std::_Bit_iterator" = type { %"struct.std::_Bit_iterator_base.base", [4 x i8] }
%"struct.std::_Bit_iterator_base.base" = type <{ ptr, i32 }>
%"class.std::vector.57" = type { %"struct.std::_Vector_base.58" }
%"struct.std::_Vector_base.58" = type { %"struct.std::_Vector_base<std::vector<bool>, std::allocator<std::vector<bool> > >::_Vector_impl" }
%"struct.std::_Vector_base<std::vector<bool>, std::allocator<std::vector<bool> > >::_Vector_impl" = type { %"struct.std::_Vector_base<std::vector<bool>, std::allocator<std::vector<bool> > >::_Vector_impl_data" }
%"struct.std::_Vector_base<std::vector<bool>, std::allocator<std::vector<bool> > >::_Vector_impl_data" = type { ptr, ptr, ptr }
%"struct.std::pair" = type { %"struct.std::pair.77", i32 }
%"struct.std::pair.77" = type { i32, i32 }
%"class.dealii::TableBase.81" = type <{ %"class.dealii::Subscriptor", ptr, i32, %"class.dealii::TableIndices", [4 x i8] }>
%"class.dealii::FullMatrix.79" = type { %"class.dealii::Table.base.83", [4 x i8] }
%"class.dealii::Table.base.83" = type { %"class.dealii::TableBase.base.82" }
%"class.dealii::TableBase.base.82" = type <{ %"class.dealii::Subscriptor", ptr, i32, %"class.dealii::TableIndices" }>
%"class.dealii::Triangulation" = type { %"class.dealii::Subscriptor", %"class.std::vector.85", ptr, %"class.std::vector.19", %"class.std::vector.53", [255 x %"class.dealii::SmartPointer"], [255 x %"class.dealii::SmartPointer"], i8, i32, %"struct.dealii::internal::Triangulation::NumberCache", %"class.std::__cxx11::list" }
%"class.std::vector.85" = type { %"struct.std::_Vector_base.86" }
%"struct.std::_Vector_base.86" = type { %"struct.std::_Vector_base<dealii::internal::Triangulation::TriaLevel<3> *, std::allocator<dealii::internal::Triangulation::TriaLevel<3> *> >::_Vector_impl" }
%"struct.std::_Vector_base<dealii::internal::Triangulation::TriaLevel<3> *, std::allocator<dealii::internal::Triangulation::TriaLevel<3> *> >::_Vector_impl" = type { %"struct.std::_Vector_base<dealii::internal::Triangulation::TriaLevel<3> *, std::allocator<dealii::internal::Triangulation::TriaLevel<3> *> >::_Vector_impl_data" }
%"struct.std::_Vector_base<dealii::internal::Triangulation::TriaLevel<3> *, std::allocator<dealii::internal::Triangulation::TriaLevel<3> *> >::_Vector_impl_data" = type { ptr, ptr, ptr }
%"class.dealii::SmartPointer" = type { ptr, ptr }
%"struct.dealii::internal::Triangulation::NumberCache" = type { %"struct.dealii::internal::Triangulation::NumberCache.90", i32, %"class.std::vector.48", i32, %"class.std::vector.48" }
%"struct.dealii::internal::Triangulation::NumberCache.90" = type { %"struct.dealii::internal::Triangulation::NumberCache.91", i32, %"class.std::vector.48", i32, %"class.std::vector.48" }
%"struct.dealii::internal::Triangulation::NumberCache.91" = type { i32, %"class.std::vector.48", i32, %"class.std::vector.48" }
%"class.std::__cxx11::list" = type { %"class.std::__cxx11::_List_base" }
%"class.std::__cxx11::_List_base" = type { %"struct.std::__cxx11::_List_base<dealii::Triangulation<3, 3>::RefinementListener *, std::allocator<dealii::Triangulation<3, 3>::RefinementListener *> >::_List_impl" }
%"struct.std::__cxx11::_List_base<dealii::Triangulation<3, 3>::RefinementListener *, std::allocator<dealii::Triangulation<3, 3>::RefinementListener *> >::_List_impl" = type { %"struct.std::__detail::_List_node_header" }
%"struct.std::__detail::_List_node_header" = type { %"struct.std::__detail::_List_node_base", i64 }
%"struct.std::__detail::_List_node_base" = type { ptr, ptr }
%"class.dealii::QGauss" = type { %"class.dealii::Quadrature" }
%"class.dealii::Quadrature" = type { %"class.dealii::Subscriptor", i32, %"class.std::vector.19", %"class.std::vector.67" }
%"class.dealii::FEValues" = type { %"class.dealii::FEValuesBase", %"class.dealii::Quadrature" }
%"class.dealii::FEValuesBase" = type { %"class.dealii::Subscriptor", %"class.dealii::FEValuesData.base", i32, i32, %"class.std::auto_ptr", %"class.dealii::SmartPointer.120", %"class.dealii::SmartPointer.121", %"class.dealii::SmartPointer.122", %"class.dealii::SmartPointer.122", i32, %"struct.dealii::internal::FEValuesViews::Cache" }
%"class.dealii::FEValuesData.base" = type <{ %"class.dealii::Table", %"class.std::vector.95", %"class.std::vector.100", %"class.std::vector.67", %"class.std::vector.105", %"class.std::vector.110", %"class.std::vector.105", %"class.std::vector.19", %"class.std::vector.19", %"class.std::vector.19", %"class.std::vector.115", %"class.std::vector.19", %"class.std::vector.100", %"class.std::vector.100", %"class.std::vector.48", i32 }>
%"class.dealii::Table" = type { %"class.dealii::TableBase.base", [4 x i8] }
%"class.std::vector.95" = type { %"struct.std::_Vector_base.96" }
%"struct.std::_Vector_base.96" = type { %"struct.std::_Vector_base<std::vector<dealii::Tensor<1, 3> >, std::allocator<std::vector<dealii::Tensor<1, 3> > > >::_Vector_impl" }
%"struct.std::_Vector_base<std::vector<dealii::Tensor<1, 3> >, std::allocator<std::vector<dealii::Tensor<1, 3> > > >::_Vector_impl" = type { %"struct.std::_Vector_base<std::vector<dealii::Tensor<1, 3> >, std::allocator<std::vector<dealii::Tensor<1, 3> > > >::_Vector_impl_data" }
%"struct.std::_Vector_base<std::vector<dealii::Tensor<1, 3> >, std::allocator<std::vector<dealii::Tensor<1, 3> > > >::_Vector_impl_data" = type { ptr, ptr, ptr }
%"class.std::vector.110" = type { %"struct.std::_Vector_base.111" }
%"struct.std::_Vector_base.111" = type { %"struct.std::_Vector_base<dealii::Tensor<3, 3>, std::allocator<dealii::Tensor<3, 3> > >::_Vector_impl" }
%"struct.std::_Vector_base<dealii::Tensor<3, 3>, std::allocator<dealii::Tensor<3, 3> > >::_Vector_impl" = type { %"struct.std::_Vector_base<dealii::Tensor<3, 3>, std::allocator<dealii::Tensor<3, 3> > >::_Vector_impl_data" }
%"struct.std::_Vector_base<dealii::Tensor<3, 3>, std::allocator<dealii::Tensor<3, 3> > >::_Vector_impl_data" = type { ptr, ptr, ptr }
%"class.std::vector.105" = type { %"struct.std::_Vector_base.106" }
%"struct.std::_Vector_base.106" = type { %"struct.std::_Vector_base<dealii::Tensor<2, 3>, std::allocator<dealii::Tensor<2, 3> > >::_Vector_impl" }
%"struct.std::_Vector_base<dealii::Tensor<2, 3>, std::allocator<dealii::Tensor<2, 3> > >::_Vector_impl" = type { %"struct.std::_Vector_base<dealii::Tensor<2, 3>, std::allocator<dealii::Tensor<2, 3> > >::_Vector_impl_data" }
%"struct.std::_Vector_base<dealii::Tensor<2, 3>, std::allocator<dealii::Tensor<2, 3> > >::_Vector_impl_data" = type { ptr, ptr, ptr }
%"class.std::vector.115" = type { %"struct.std::_Vector_base.116" }
%"struct.std::_Vector_base.116" = type { %"struct.std::_Vector_base<dealii::Tensor<1, 3>, std::allocator<dealii::Tensor<1, 3> > >::_Vector_impl" }
%"struct.std::_Vector_base<dealii::Tensor<1, 3>, std::allocator<dealii::Tensor<1, 3> > >::_Vector_impl" = type { %"struct.std::_Vector_base<dealii::Tensor<1, 3>, std::allocator<dealii::Tensor<1, 3> > >::_Vector_impl_data" }
%"struct.std::_Vector_base<dealii::Tensor<1, 3>, std::allocator<dealii::Tensor<1, 3> > >::_Vector_impl_data" = type { ptr, ptr, ptr }
%"class.std::vector.100" = type { %"struct.std::_Vector_base.101" }
%"struct.std::_Vector_base.101" = type { %"struct.std::_Vector_base<std::vector<dealii::Tensor<2, 3> >, std::allocator<std::vector<dealii::Tensor<2, 3> > > >::_Vector_impl" }
%"struct.std::_Vector_base<std::vector<dealii::Tensor<2, 3> >, std::allocator<std::vector<dealii::Tensor<2, 3> > > >::_Vector_impl" = type { %"struct.std::_Vector_base<std::vector<dealii::Tensor<2, 3> >, std::allocator<std::vector<dealii::Tensor<2, 3> > > >::_Vector_impl_data" }
%"struct.std::_Vector_base<std::vector<dealii::Tensor<2, 3> >, std::allocator<std::vector<dealii::Tensor<2, 3> > > >::_Vector_impl_data" = type { ptr, ptr, ptr }
%"class.std::auto_ptr" = type { ptr }
%"class.dealii::SmartPointer.120" = type { ptr, ptr }
%"class.dealii::SmartPointer.121" = type { ptr, ptr }
%"class.dealii::SmartPointer.122" = type { ptr, ptr }
%"struct.dealii::internal::FEValuesViews::Cache" = type { %"class.std::vector.123", %"class.std::vector.128" }
%"class.std::vector.123" = type { %"struct.std::_Vector_base.124" }
%"struct.std::_Vector_base.124" = type { %"struct.std::_Vector_base<dealii::FEValuesViews::Scalar<3, 3>, std::allocator<dealii::FEValuesViews::Scalar<3, 3> > >::_Vector_impl" }
%"struct.std::_Vector_base<dealii::FEValuesViews::Scalar<3, 3>, std::allocator<dealii::FEValuesViews::Scalar<3, 3> > >::_Vector_impl" = type { %"struct.std::_Vector_base<dealii::FEValuesViews::Scalar<3, 3>, std::allocator<dealii::FEValuesViews::Scalar<3, 3> > >::_Vector_impl_data" }
%"struct.std::_Vector_base<dealii::FEValuesViews::Scalar<3, 3>, std::allocator<dealii::FEValuesViews::Scalar<3, 3> > >::_Vector_impl_data" = type { ptr, ptr, ptr }
%"class.std::vector.128" = type { %"struct.std::_Vector_base.129" }
%"struct.std::_Vector_base.129" = type { %"struct.std::_Vector_base<dealii::FEValuesViews::Vector<3, 3>, std::allocator<dealii::FEValuesViews::Vector<3, 3> > >::_Vector_impl" }
%"struct.std::_Vector_base<dealii::FEValuesViews::Vector<3, 3>, std::allocator<dealii::FEValuesViews::Vector<3, 3> > >::_Vector_impl" = type { %"struct.std::_Vector_base<dealii::FEValuesViews::Vector<3, 3>, std::allocator<dealii::FEValuesViews::Vector<3, 3> > >::_Vector_impl_data" }
%"struct.std::_Vector_base<dealii::FEValuesViews::Vector<3, 3>, std::allocator<dealii::FEValuesViews::Vector<3, 3> > >::_Vector_impl_data" = type { ptr, ptr, ptr }
%"class.dealii::TriaActiveIterator" = type { %"class.dealii::TriaIterator" }
%"class.dealii::TriaIterator" = type { %"class.dealii::TriaRawIterator" }
%"class.dealii::TriaRawIterator" = type { %"class.dealii::CellAccessor" }
%"class.dealii::CellAccessor" = type { %"class.dealii::TriaAccessor" }
%"class.dealii::TriaAccessor" = type { %"class.dealii::TriaAccessorBase" }
%"class.dealii::TriaAccessorBase" = type { i32, i32, ptr }
%"class.dealii::Vector" = type { %"class.dealii::Subscriptor", i32, i32, ptr }
%"class.dealii::RefinementCase" = type { i8 }
%"class.dealii::MappingCartesian" = type { %"class.dealii::Mapping" }
%"class.dealii::Mapping" = type { %"class.dealii::Subscriptor" }
%"class.dealii::Householder" = type { %"class.dealii::FullMatrix.base", %"class.std::vector.67" }
%"class.dealii::FullMatrix.base" = type { %"class.dealii::Table.base" }
%"class.std::vector.134" = type { %"struct.std::_Vector_base.135" }
%"struct.std::_Vector_base.135" = type { %"struct.std::_Vector_base<dealii::FullMatrix<double>, std::allocator<dealii::FullMatrix<double> > >::_Vector_impl" }
%"struct.std::_Vector_base<dealii::FullMatrix<double>, std::allocator<dealii::FullMatrix<double> > >::_Vector_impl" = type { %"struct.std::_Vector_base<dealii::FullMatrix<double>, std::allocator<dealii::FullMatrix<double> > >::_Vector_impl_data" }
%"struct.std::_Vector_base<dealii::FullMatrix<double>, std::allocator<dealii::FullMatrix<double> > >::_Vector_impl_data" = type { ptr, ptr, ptr }
%"class.dealii::internal::Triangulation::TriaLevel" = type { %"class.std::vector.273", %"class.std::vector.53", %"class.std::vector.278", %"class.std::vector.48", %"class.dealii::internal::Triangulation::TriaObjectsHex" }
%"class.std::vector.273" = type { %"struct.std::_Vector_base.274" }
%"struct.std::_Vector_base.274" = type { %"struct.std::_Vector_base<unsigned char, std::allocator<unsigned char> >::_Vector_impl" }
%"struct.std::_Vector_base<unsigned char, std::allocator<unsigned char> >::_Vector_impl" = type { %"struct.std::_Vector_base<unsigned char, std::allocator<unsigned char> >::_Vector_impl_data" }
%"struct.std::_Vector_base<unsigned char, std::allocator<unsigned char> >::_Vector_impl_data" = type { ptr, ptr, ptr }
%"class.std::vector.278" = type { %"struct.std::_Vector_base.279" }
%"struct.std::_Vector_base.279" = type { %"struct.std::_Vector_base<std::pair<int, int>, std::allocator<std::pair<int, int> > >::_Vector_impl" }
%"struct.std::_Vector_base<std::pair<int, int>, std::allocator<std::pair<int, int> > >::_Vector_impl" = type { %"struct.std::_Vector_base<std::pair<int, int>, std::allocator<std::pair<int, int> > >::_Vector_impl_data" }
%"struct.std::_Vector_base<std::pair<int, int>, std::allocator<std::pair<int, int> > >::_Vector_impl_data" = type { ptr, ptr, ptr }
%"class.dealii::internal::Triangulation::TriaObjectsHex" = type { %"class.dealii::internal::Triangulation::TriaObjects.base", %"class.std::vector.53", %"class.std::vector.53", %"class.std::vector.53" }
%"class.dealii::internal::Triangulation::TriaObjects.base" = type <{ %"class.std::vector.283", %"class.std::vector.33", %"class.std::vector.288", %"class.std::vector.53", %"class.std::vector.53", %"class.std::vector.273", i32, i32, i8, [7 x i8], %"class.std::vector.293", i32 }>
%"class.std::vector.283" = type { %"struct.std::_Vector_base.284" }
%"struct.std::_Vector_base.284" = type { %"struct.std::_Vector_base<dealii::internal::Triangulation::TriaObject<3>, std::allocator<dealii::internal::Triangulation::TriaObject<3> > >::_Vector_impl" }
%"struct.std::_Vector_base<dealii::internal::Triangulation::TriaObject<3>, std::allocator<dealii::internal::Triangulation::TriaObject<3> > >::_Vector_impl" = type { %"struct.std::_Vector_base<dealii::internal::Triangulation::TriaObject<3>, std::allocator<dealii::internal::Triangulation::TriaObject<3> > >::_Vector_impl_data" }
%"struct.std::_Vector_base<dealii::internal::Triangulation::TriaObject<3>, std::allocator<dealii::internal::Triangulation::TriaObject<3> > >::_Vector_impl_data" = type { ptr, ptr, ptr }
%"class.std::vector.288" = type { %"struct.std::_Vector_base.289" }
%"struct.std::_Vector_base.289" = type { %"struct.std::_Vector_base<dealii::RefinementCase<3>, std::allocator<dealii::RefinementCase<3> > >::_Vector_impl" }
%"struct.std::_Vector_base<dealii::RefinementCase<3>, std::allocator<dealii::RefinementCase<3> > >::_Vector_impl" = type { %"struct.std::_Vector_base<dealii::RefinementCase<3>, std::allocator<dealii::RefinementCase<3> > >::_Vector_impl_data" }
%"struct.std::_Vector_base<dealii::RefinementCase<3>, std::allocator<dealii::RefinementCase<3> > >::_Vector_impl_data" = type { ptr, ptr, ptr }
%"class.std::vector.293" = type { %"struct.std::_Vector_base.294" }
%"struct.std::_Vector_base.294" = type { %"struct.std::_Vector_base<dealii::internal::Triangulation::TriaObjects<dealii::internal::Triangulation::TriaObject<3> >::UserData, std::allocator<dealii::internal::Triangulation::TriaObjects<dealii::internal::Triangulation::TriaObject<3> >::UserData> >::_Vector_impl" }
%"struct.std::_Vector_base<dealii::internal::Triangulation::TriaObjects<dealii::internal::Triangulation::TriaObject<3> >::UserData, std::allocator<dealii::internal::Triangulation::TriaObjects<dealii::internal::Triangulation::TriaObject<3> >::UserData> >::_Vector_impl" = type { %"struct.std::_Vector_base<dealii::internal::Triangulation::TriaObjects<dealii::internal::Triangulation::TriaObject<3> >::UserData, std::allocator<dealii::internal::Triangulation::TriaObjects<dealii::internal::Triangulation::TriaObject<3> >::UserData> >::_Vector_impl_data" }
%"struct.std::_Vector_base<dealii::internal::Triangulation::TriaObjects<dealii::internal::Triangulation::TriaObject<3> >::UserData, std::allocator<dealii::internal::Triangulation::TriaObjects<dealii::internal::Triangulation::TriaObject<3> >::UserData> >::_Vector_impl_data" = type { ptr, ptr, ptr }
%"class.dealii::GrowingVectorMemory" = type <{ %"class.dealii::VectorMemory", i32, i32, i8, [7 x i8] }>
%"class.dealii::VectorMemory" = type { %"class.dealii::Subscriptor" }
%"struct.std::_Vector_base<std::pair<bool, dealii::Vector<double> *>, std::allocator<std::pair<bool, dealii::Vector<double> *> > >::_Vector_impl_data" = type { ptr, ptr, ptr }
%"struct.std::pair.304" = type { i8, ptr }
%"class.dealii::QGauss.139" = type { %"class.dealii::Quadrature.140" }
%"class.dealii::Quadrature.140" = type { %"class.dealii::Subscriptor", i32, %"class.std::vector.24", %"class.std::vector.67" }
%"class.dealii::RefinementCase.141" = type { i8 }
%"class.dealii::ConstraintMatrix" = type <{ %"class.dealii::Subscriptor", %"class.std::vector.143", %"class.std::vector.53", i8, %"class.dealii::Threads::DummyThreadMutex", [6 x i8] }>
%"class.std::vector.143" = type { %"struct.std::_Vector_base.144" }
%"struct.std::_Vector_base.144" = type { %"struct.std::_Vector_base<dealii::ConstraintMatrix::ConstraintLine, std::allocator<dealii::ConstraintMatrix::ConstraintLine> >::_Vector_impl" }
%"struct.std::_Vector_base<dealii::ConstraintMatrix::ConstraintLine, std::allocator<dealii::ConstraintMatrix::ConstraintLine> >::_Vector_impl" = type { %"struct.std::_Vector_base<dealii::ConstraintMatrix::ConstraintLine, std::allocator<dealii::ConstraintMatrix::ConstraintLine> >::_Vector_impl_data" }
%"struct.std::_Vector_base<dealii::ConstraintMatrix::ConstraintLine, std::allocator<dealii::ConstraintMatrix::ConstraintLine> >::_Vector_impl_data" = type { ptr, ptr, ptr }
%"class.dealii::Threads::DummyThreadMutex" = type { i8 }
%"struct.dealii::ConstraintMatrix::ConstraintLine" = type { i32, %"class.std::vector.213", double }
%"class.std::vector.213" = type { %"struct.std::_Vector_base.214" }
%"struct.std::_Vector_base.214" = type { %"struct.std::_Vector_base<std::pair<unsigned int, double>, std::allocator<std::pair<unsigned int, double> > >::_Vector_impl" }
%"struct.std::_Vector_base<std::pair<unsigned int, double>, std::allocator<std::pair<unsigned int, double> > >::_Vector_impl" = type { %"struct.std::_Vector_base<std::pair<unsigned int, double>, std::allocator<std::pair<unsigned int, double> > >::_Vector_impl_data" }
%"struct.std::_Vector_base<std::pair<unsigned int, double>, std::allocator<std::pair<unsigned int, double> > >::_Vector_impl_data" = type { ptr, ptr, ptr }
%"class.std::map.154" = type { %"class.std::_Rb_tree.155" }
%"class.std::_Rb_tree.155" = type { %"struct.std::_Rb_tree<const dealii::FiniteElement<3, 3> *, std::pair<const dealii::FiniteElement<3, 3> *const, std::map<const dealii::FiniteElement<3, 3> *, boost::shared_ptr<dealii::FullMatrix<double> > > >, std::_Select1st<std::pair<const dealii::FiniteElement<3, 3> *const, std::map<const dealii::FiniteElement<3, 3> *, boost::shared_ptr<dealii::FullMatrix<double> > > > >, std::less<const dealii::FiniteElement<3, 3> *> >::_Rb_tree_impl" }
%"struct.std::_Rb_tree<const dealii::FiniteElement<3, 3> *, std::pair<const dealii::FiniteElement<3, 3> *const, std::map<const dealii::FiniteElement<3, 3> *, boost::shared_ptr<dealii::FullMatrix<double> > > >, std::_Select1st<std::pair<const dealii::FiniteElement<3, 3> *const, std::map<const dealii::FiniteElement<3, 3> *, boost::shared_ptr<dealii::FullMatrix<double> > > > >, std::less<const dealii::FiniteElement<3, 3> *> >::_Rb_tree_impl" = type { %"struct.std::_Rb_tree_key_compare.159", %"struct.std::_Rb_tree_header" }
%"struct.std::_Rb_tree_key_compare.159" = type { %"struct.std::less.160" }
%"struct.std::less.160" = type { i8 }
%"class.dealii::TriaActiveIterator.162" = type { %"class.dealii::TriaIterator.163" }
%"class.dealii::TriaIterator.163" = type { %"class.dealii::TriaRawIterator.164" }
%"class.dealii::TriaRawIterator.164" = type { %"class.dealii::DoFCellAccessor" }
%"class.dealii::DoFCellAccessor" = type { %"class.dealii::DoFAccessor" }
%"class.dealii::DoFAccessor" = type { %"class.dealii::CellAccessor", ptr }
%"class.boost::shared_ptr" = type { ptr, %"class.boost::detail::shared_count" }
%"class.boost::detail::shared_count" = type { ptr }
%"class.dealii::DoFHandler" = type { %"class.dealii::Subscriptor", %"class.dealii::SmartPointer.148", %"class.dealii::SmartPointer.121", %"class.std::vector.149", ptr, i32, %"class.std::vector.48" }
%"class.dealii::SmartPointer.148" = type { ptr, ptr }
%"class.std::vector.149" = type { %"struct.std::_Vector_base.150" }
%"struct.std::_Vector_base.150" = type { %"struct.std::_Vector_base<dealii::internal::DoFHandler::DoFLevel<3> *, std::allocator<dealii::internal::DoFHandler::DoFLevel<3> *> >::_Vector_impl" }
%"struct.std::_Vector_base<dealii::internal::DoFHandler::DoFLevel<3> *, std::allocator<dealii::internal::DoFHandler::DoFLevel<3> *> >::_Vector_impl" = type { %"struct.std::_Vector_base<dealii::internal::DoFHandler::DoFLevel<3> *, std::allocator<dealii::internal::DoFHandler::DoFLevel<3> *> >::_Vector_impl_data" }
%"struct.std::_Vector_base<dealii::internal::DoFHandler::DoFLevel<3> *, std::allocator<dealii::internal::DoFHandler::DoFLevel<3> *> >::_Vector_impl_data" = type { ptr, ptr, ptr }
%"class.boost::detail::sp_counted_base" = type { ptr, i64, i64 }
%"class.boost::detail::sp_counted_impl_p.326" = type { %"class.boost::detail::sp_counted_base", ptr }
%"struct.std::pair.218" = type { ptr, %"class.std::map.166" }
%"class.std::map.166" = type { %"class.std::_Rb_tree.167" }
%"class.std::_Rb_tree.167" = type { %"struct.std::_Rb_tree<const dealii::FiniteElement<3, 3> *, std::pair<const dealii::FiniteElement<3, 3> *const, boost::shared_ptr<dealii::FullMatrix<double> > >, std::_Select1st<std::pair<const dealii::FiniteElement<3, 3> *const, boost::shared_ptr<dealii::FullMatrix<double> > > >, std::less<const dealii::FiniteElement<3, 3> *> >::_Rb_tree_impl" }
%"struct.std::_Rb_tree<const dealii::FiniteElement<3, 3> *, std::pair<const dealii::FiniteElement<3, 3> *const, boost::shared_ptr<dealii::FullMatrix<double> > >, std::_Select1st<std::pair<const dealii::FiniteElement<3, 3> *const, boost::shared_ptr<dealii::FullMatrix<double> > > >, std::less<const dealii::FiniteElement<3, 3> *> >::_Rb_tree_impl" = type { %"struct.std::_Rb_tree_key_compare.159", %"struct.std::_Rb_tree_header" }
%"struct.std::_Rb_tree_node" = type { %"struct.std::_Rb_tree_node_base", %"struct.std::pair.218" }
%"struct.std::pair.224" = type { ptr, %"class.boost::shared_ptr" }
%"struct.std::_Rb_tree_node.223" = type { %"struct.std::_Rb_tree_node_base", %"struct.std::pair.224" }
%"class.dealii::Vector.171" = type { %"class.dealii::Subscriptor", i32, i32, ptr }
%"class.dealii::BlockVectorBase" = type { %"class.dealii::Subscriptor", %"class.std::vector.172", %"class.dealii::BlockIndices" }
%"class.std::vector.172" = type { %"struct.std::_Vector_base.173" }
%"struct.std::_Vector_base.173" = type { %"struct.std::_Vector_base<dealii::Vector<double>, std::allocator<dealii::Vector<double> > >::_Vector_impl" }
%"struct.std::_Vector_base<dealii::Vector<double>, std::allocator<dealii::Vector<double> > >::_Vector_impl" = type { %"struct.std::_Vector_base<dealii::Vector<double>, std::allocator<dealii::Vector<double> > >::_Vector_impl_data" }
%"struct.std::_Vector_base<dealii::Vector<double>, std::allocator<dealii::Vector<double> > >::_Vector_impl_data" = type { ptr, ptr, ptr }
%"class.dealii::BlockIndices" = type { i32, %"class.std::vector.48" }
%"class.dealii::BlockVector" = type { %"class.dealii::BlockVectorBase" }
%"class.dealii::BlockVectorBase.178" = type { %"class.dealii::Subscriptor", %"class.std::vector.179", %"class.dealii::BlockIndices" }
%"class.std::vector.179" = type { %"struct.std::_Vector_base.180" }
%"struct.std::_Vector_base.180" = type { %"struct.std::_Vector_base<dealii::Vector<float>, std::allocator<dealii::Vector<float> > >::_Vector_impl" }
%"struct.std::_Vector_base<dealii::Vector<float>, std::allocator<dealii::Vector<float> > >::_Vector_impl" = type { %"struct.std::_Vector_base<dealii::Vector<float>, std::allocator<dealii::Vector<float> > >::_Vector_impl_data" }
%"struct.std::_Vector_base<dealii::Vector<float>, std::allocator<dealii::Vector<float> > >::_Vector_impl_data" = type { ptr, ptr, ptr }
%"class.dealii::BlockVector.177" = type { %"class.dealii::BlockVectorBase.178" }
%"class.dealii::TriaActiveIterator.195" = type { %"class.dealii::TriaIterator.196" }
%"class.dealii::TriaIterator.196" = type { %"class.dealii::TriaRawIterator.197" }
%"class.dealii::TriaRawIterator.197" = type { %"class.dealii::DoFCellAccessor.199" }
%"class.dealii::DoFCellAccessor.199" = type { %"class.dealii::DoFAccessor.200" }
%"class.dealii::DoFAccessor.200" = type { %"class.dealii::CellAccessor", ptr }
%"class.dealii::hp::DoFHandler" = type { %"class.dealii::Subscriptor", %"class.dealii::Triangulation<3, 3>::RefinementListener", %"class.dealii::SmartPointer.148", %"class.dealii::SmartPointer.184", %"class.std::vector.185", ptr, i32, %"class.std::vector.48", %"class.std::vector.48", %"class.std::vector.190" }
%"class.dealii::Triangulation<3, 3>::RefinementListener" = type { ptr }
%"class.dealii::SmartPointer.184" = type { ptr, ptr }
%"class.std::vector.185" = type { %"struct.std::_Vector_base.186" }
%"struct.std::_Vector_base.186" = type { %"struct.std::_Vector_base<dealii::internal::hp::DoFLevel<3> *, std::allocator<dealii::internal::hp::DoFLevel<3> *> >::_Vector_impl" }
%"struct.std::_Vector_base<dealii::internal::hp::DoFLevel<3> *, std::allocator<dealii::internal::hp::DoFLevel<3> *> >::_Vector_impl" = type { %"struct.std::_Vector_base<dealii::internal::hp::DoFLevel<3> *, std::allocator<dealii::internal::hp::DoFLevel<3> *> >::_Vector_impl_data" }
%"struct.std::_Vector_base<dealii::internal::hp::DoFLevel<3> *, std::allocator<dealii::internal::hp::DoFLevel<3> *> >::_Vector_impl_data" = type { ptr, ptr, ptr }
%"class.std::vector.190" = type { %"struct.std::_Vector_base.191" }
%"struct.std::_Vector_base.191" = type { %"struct.std::_Vector_base<std::vector<bool> *, std::allocator<std::vector<bool> *> >::_Vector_impl" }
%"struct.std::_Vector_base<std::vector<bool> *, std::allocator<std::vector<bool> *> >::_Vector_impl" = type { %"struct.std::_Vector_base<std::vector<bool> *, std::allocator<std::vector<bool> *> >::_Vector_impl_data" }
%"struct.std::_Vector_base<std::vector<bool> *, std::allocator<std::vector<bool> *> >::_Vector_impl_data" = type { ptr, ptr, ptr }
%"class.dealii::hp::FECollection" = type { %"class.dealii::Subscriptor", %"class.std::vector.330" }
%"class.std::vector.330" = type { %"struct.std::_Vector_base.331" }
%"struct.std::_Vector_base.331" = type { %"struct.std::_Vector_base<boost::shared_ptr<const dealii::FiniteElement<3, 3> >, std::allocator<boost::shared_ptr<const dealii::FiniteElement<3, 3> > > >::_Vector_impl" }
%"struct.std::_Vector_base<boost::shared_ptr<const dealii::FiniteElement<3, 3> >, std::allocator<boost::shared_ptr<const dealii::FiniteElement<3, 3> > > >::_Vector_impl" = type { %"struct.std::_Vector_base<boost::shared_ptr<const dealii::FiniteElement<3, 3> >, std::allocator<boost::shared_ptr<const dealii::FiniteElement<3, 3> > > >::_Vector_impl_data" }
%"struct.std::_Vector_base<boost::shared_ptr<const dealii::FiniteElement<3, 3> >, std::allocator<boost::shared_ptr<const dealii::FiniteElement<3, 3> > > >::_Vector_impl_data" = type { ptr, ptr, ptr }
%"class.boost::shared_ptr.335" = type { ptr, %"class.boost::detail::shared_count" }
%"class.std::__cxx11::basic_string" = type { %"struct.std::__cxx11::basic_string<char>::_Alloc_hider", i64, %union.anon }
%"struct.std::__cxx11::basic_string<char>::_Alloc_hider" = type { ptr }
%union.anon = type { i64, [8 x i8] }
%"class.dealii::FETools::ExcInvalidFEName" = type { %"class.dealii::ExceptionBase.base", %"class.std::__cxx11::basic_string" }
%"class.dealii::ExceptionBase.base" = type <{ %"class.std::exception", ptr, i32, [4 x i8], ptr, ptr, ptr, ptr, i32 }>
%"class.std::exception" = type { ptr }
%"class.std::allocator.201" = type { i8 }
%"class.dealii::StandardExceptions::ExcNotImplemented" = type { %"class.dealii::ExceptionBase.base", [4 x i8] }
%"struct.std::_Rb_tree_node.261" = type { %"struct.std::_Rb_tree_node_base", %"struct.std::pair.262" }
%"struct.std::pair.262" = type { %"class.std::__cxx11::basic_string", %"class.boost::shared_ptr.204" }
%"class.boost::shared_ptr.204" = type { ptr, %"class.boost::detail::shared_count" }
%"class.boost::detail::sp_counted_impl_p.406" = type { %"class.boost::detail::sp_counted_base", ptr }
%"struct.std::_Rb_tree<std::__cxx11::basic_string<char>, std::pair<const std::__cxx11::basic_string<char>, boost::shared_ptr<const dealii::FETools::FEFactoryBase<3> > >, std::_Select1st<std::pair<const std::__cxx11::basic_string<char>, boost::shared_ptr<const dealii::FETools::FEFactoryBase<3> > > >, std::less<std::__cxx11::basic_string<char> > >::_Alloc_node" = type { ptr }
%"class.std::basic_ios" = type { %"class.std::ios_base", ptr, i8, i8, ptr, ptr, ptr, ptr }
%"class.std::ios_base" = type { ptr, i64, i64, i32, i32, i32, ptr, %"struct.std::ios_base::_Words", [8 x %"struct.std::ios_base::_Words"], i32, ptr, %"class.std::locale" }
%"struct.std::ios_base::_Words" = type { ptr, i64 }
%"class.std::locale" = type { ptr }
%"class.std::ctype" = type <{ %"class.std::locale::facet.base", [4 x i8], ptr, i8, [7 x i8], ptr, ptr, ptr, i8, [256 x i8], [256 x i8], i8, [6 x i8] }>
%"class.std::locale::facet.base" = type <{ ptr, i32 }>
%"class.boost::detail::sp_counted_impl_p" = type { %"class.boost::detail::sp_counted_base", ptr }
%"class.boost::detail::sp_counted_impl_p.251" = type { %"class.boost::detail::sp_counted_base", ptr }
%"class.boost::detail::sp_counted_impl_p.252" = type { %"class.boost::detail::sp_counted_base", ptr }
%"class.boost::detail::sp_counted_impl_p.253" = type { %"class.boost::detail::sp_counted_base", ptr }
%"class.boost::detail::sp_counted_impl_p.254" = type { %"class.boost::detail::sp_counted_base", ptr }
%"class.boost::detail::sp_counted_impl_p.256" = type { %"class.boost::detail::sp_counted_base", ptr }
%"class.boost::detail::sp_counted_impl_p.258" = type { %"class.boost::detail::sp_counted_base", ptr }
%"class.boost::detail::sp_counted_impl_p.259" = type { %"class.boost::detail::sp_counted_base", ptr }
%"class.boost::detail::sp_counted_impl_p.260" = type { %"class.boost::detail::sp_counted_base", ptr }
%"class.dealii::StandardExceptions::ExcMemoryLeak" = type { %"class.dealii::ExceptionBase.base", i32 }
%"struct.std::_Rb_tree<const dealii::FiniteElement<3, 3> *, std::pair<const dealii::FiniteElement<3, 3> *const, boost::shared_ptr<dealii::FullMatrix<double> > >, std::_Select1st<std::pair<const dealii::FiniteElement<3, 3> *const, boost::shared_ptr<dealii::FullMatrix<double> > > >, std::less<const dealii::FiniteElement<3, 3> *> >::_Alloc_node" = type { ptr }
%"class.dealii::internal::Triangulation::TriaObject" = type { [6 x i32] }
%"class.dealii::internal::Triangulation::TriaObject.372" = type { [4 x i32] }
%"class.dealii::internal::Triangulation::TriaObjectsQuad3D" = type { %"class.dealii::internal::Triangulation::TriaObjects.base.371", %"class.std::vector.53" }
%"class.dealii::internal::Triangulation::TriaObjects.base.371" = type <{ %"class.std::vector.356", %"class.std::vector.33", %"class.std::vector.361", %"class.std::vector.53", %"class.std::vector.53", %"class.std::vector.273", i32, i32, i8, [7 x i8], %"class.std::vector.366", i32 }>
%"class.std::vector.356" = type { %"struct.std::_Vector_base.357" }
%"struct.std::_Vector_base.357" = type { %"struct.std::_Vector_base<dealii::internal::Triangulation::TriaObject<2>, std::allocator<dealii::internal::Triangulation::TriaObject<2> > >::_Vector_impl" }
%"struct.std::_Vector_base<dealii::internal::Triangulation::TriaObject<2>, std::allocator<dealii::internal::Triangulation::TriaObject<2> > >::_Vector_impl" = type { %"struct.std::_Vector_base<dealii::internal::Triangulation::TriaObject<2>, std::allocator<dealii::internal::Triangulation::TriaObject<2> > >::_Vector_impl_data" }
%"struct.std::_Vector_base<dealii::internal::Triangulation::TriaObject<2>, std::allocator<dealii::internal::Triangulation::TriaObject<2> > >::_Vector_impl_data" = type { ptr, ptr, ptr }
%"class.std::vector.361" = type { %"struct.std::_Vector_base.362" }
%"struct.std::_Vector_base.362" = type { %"struct.std::_Vector_base<dealii::RefinementCase<2>, std::allocator<dealii::RefinementCase<2> > >::_Vector_impl" }
%"struct.std::_Vector_base<dealii::RefinementCase<2>, std::allocator<dealii::RefinementCase<2> > >::_Vector_impl" = type { %"struct.std::_Vector_base<dealii::RefinementCase<2>, std::allocator<dealii::RefinementCase<2> > >::_Vector_impl_data" }
%"struct.std::_Vector_base<dealii::RefinementCase<2>, std::allocator<dealii::RefinementCase<2> > >::_Vector_impl_data" = type { ptr, ptr, ptr }
%"class.std::vector.366" = type { %"struct.std::_Vector_base.367" }
%"struct.std::_Vector_base.367" = type { %"struct.std::_Vector_base<dealii::internal::Triangulation::TriaObjects<dealii::internal::Triangulation::TriaObject<2> >::UserData, std::allocator<dealii::internal::Triangulation::TriaObjects<dealii::internal::Triangulation::TriaObject<2> >::UserData> >::_Vector_impl" }
%"struct.std::_Vector_base<dealii::internal::Triangulation::TriaObjects<dealii::internal::Triangulation::TriaObject<2> >::UserData, std::allocator<dealii::internal::Triangulation::TriaObjects<dealii::internal::Triangulation::TriaObject<2> >::UserData> >::_Vector_impl" = type { %"struct.std::_Vector_base<dealii::internal::Triangulation::TriaObjects<dealii::internal::Triangulation::TriaObject<2> >::UserData, std::allocator<dealii::internal::Triangulation::TriaObjects<dealii::internal::Triangulation::TriaObject<2> >::UserData> >::_Vector_impl_data" }
%"struct.std::_Vector_base<dealii::internal::Triangulation::TriaObjects<dealii::internal::Triangulation::TriaObject<2> >::UserData, std::allocator<dealii::internal::Triangulation::TriaObjects<dealii::internal::Triangulation::TriaObject<2> >::UserData> >::_Vector_impl_data" = type { ptr, ptr, ptr }
%"class.dealii::internal::Triangulation::TriaFaces" = type { %"class.dealii::internal::Triangulation::TriaObjectsQuad3D", %"class.dealii::internal::Triangulation::TriaObjects.373" }
%"class.dealii::internal::Triangulation::TriaObjects.373" = type <{ %"class.std::vector.374", %"class.std::vector.33", %"class.std::vector.379", %"class.std::vector.53", %"class.std::vector.53", %"class.std::vector.273", i32, i32, i8, [7 x i8], %"class.std::vector.384", i32, [4 x i8] }>
%"class.std::vector.374" = type { %"struct.std::_Vector_base.375" }
%"struct.std::_Vector_base.375" = type { %"struct.std::_Vector_base<dealii::internal::Triangulation::TriaObject<1>, std::allocator<dealii::internal::Triangulation::TriaObject<1> > >::_Vector_impl" }
%"struct.std::_Vector_base<dealii::internal::Triangulation::TriaObject<1>, std::allocator<dealii::internal::Triangulation::TriaObject<1> > >::_Vector_impl" = type { %"struct.std::_Vector_base<dealii::internal::Triangulation::TriaObject<1>, std::allocator<dealii::internal::Triangulation::TriaObject<1> > >::_Vector_impl_data" }
%"struct.std::_Vector_base<dealii::internal::Triangulation::TriaObject<1>, std::allocator<dealii::internal::Triangulation::TriaObject<1> > >::_Vector_impl_data" = type { ptr, ptr, ptr }
%"class.std::vector.379" = type { %"struct.std::_Vector_base.380" }
%"struct.std::_Vector_base.380" = type { %"struct.std::_Vector_base<dealii::RefinementCase<1>, std::allocator<dealii::RefinementCase<1> > >::_Vector_impl" }
%"struct.std::_Vector_base<dealii::RefinementCase<1>, std::allocator<dealii::RefinementCase<1> > >::_Vector_impl" = type { %"struct.std::_Vector_base<dealii::RefinementCase<1>, std::allocator<dealii::RefinementCase<1> > >::_Vector_impl_data" }
%"struct.std::_Vector_base<dealii::RefinementCase<1>, std::allocator<dealii::RefinementCase<1> > >::_Vector_impl_data" = type { ptr, ptr, ptr }
%"class.std::vector.384" = type { %"struct.std::_Vector_base.385" }
%"struct.std::_Vector_base.385" = type { %"struct.std::_Vector_base<dealii::internal::Triangulation::TriaObjects<dealii::internal::Triangulation::TriaObject<1> >::UserData, std::allocator<dealii::internal::Triangulation::TriaObjects<dealii::internal::Triangulation::TriaObject<1> >::UserData> >::_Vector_impl" }
%"struct.std::_Vector_base<dealii::internal::Triangulation::TriaObjects<dealii::internal::Triangulation::TriaObject<1> >::UserData, std::allocator<dealii::internal::Triangulation::TriaObjects<dealii::internal::Triangulation::TriaObject<1> >::UserData> >::_Vector_impl" = type { %"struct.std::_Vector_base<dealii::internal::Triangulation::TriaObjects<dealii::internal::Triangulation::TriaObject<1> >::UserData, std::allocator<dealii::internal::Triangulation::TriaObjects<dealii::internal::Triangulation::TriaObject<1> >::UserData> >::_Vector_impl_data" }
%"struct.std::_Vector_base<dealii::internal::Triangulation::TriaObjects<dealii::internal::Triangulation::TriaObject<1> >::UserData, std::allocator<dealii::internal::Triangulation::TriaObjects<dealii::internal::Triangulation::TriaObject<1> >::UserData> >::_Vector_impl_data" = type { ptr, ptr, ptr }
%"class.dealii::internal::Triangulation::TriaObject.390" = type { [2 x i32] }
%"class.dealii::internal::hp::DoFObjects.392" = type { %"class.std::vector.48", %"class.std::vector.48" }
%"class.dealii::internal::hp::DoFFaces" = type { %"class.dealii::internal::hp::DoFObjects.392", %"class.dealii::internal::hp::DoFObjects.393" }
%"class.dealii::internal::hp::DoFObjects.393" = type { %"class.std::vector.48", %"class.std::vector.48" }
%"class.dealii::internal::hp::DoFLevel" = type { %"class.dealii::internal::hp::DoFLevel.336", %"class.dealii::internal::hp::DoFObjects" }
%"class.dealii::internal::hp::DoFLevel.336" = type { %"class.std::vector.48" }
%"class.dealii::internal::hp::DoFObjects" = type { %"class.std::vector.48", %"class.std::vector.48" }

$_ZN6dealii7FETools13FEFactoryBaseILi3ELi3EED5Ev = comdat any

$_ZN6dealii7FETools19compute_node_matrixILi3ELi3EEEvRNS_10FullMatrixIdEERKNS_13FiniteElementIXT_EXT0_EEE = comdat any

$__clang_call_terminate = comdat any

$_ZN6dealii7FETools22compute_component_wiseILi3ELi3EEEvRKNS_13FiniteElementIXT_EXT0_EEERSt6vectorIjSaIjEERS6_IS8_SaIS8_EE = comdat any

$_ZN6dealii7FETools25compute_block_renumberingILi3ELi3EEEvRKNS_13FiniteElementIXT_EXT0_EEERSt6vectorIjSaIjEES9_ = comdat any

$_ZN6dealii7FETools24get_interpolation_matrixILi3EdLi3EEEvRKNS_13FiniteElementIXT_EXT1_EEES5_RNS_10FullMatrixIT0_EE = comdat any

$_ZN6dealii7FETools29get_back_interpolation_matrixILi3EdLi3EEEvRKNS_13FiniteElementIXT_EXT1_EEES5_RNS_10FullMatrixIT0_EE = comdat any

$_ZN6dealii7FETools35get_interpolation_difference_matrixILi3EdLi3EEEvRKNS_13FiniteElementIXT_EXT1_EEES5_RNS_10FullMatrixIT0_EE = comdat any

$_ZN6dealii7FETools24get_interpolation_matrixILi3EfLi3EEEvRKNS_13FiniteElementIXT_EXT1_EEES5_RNS_10FullMatrixIT0_EE = comdat any

$_ZN6dealii7FETools29get_back_interpolation_matrixILi3EfLi3EEEvRKNS_13FiniteElementIXT_EXT1_EEES5_RNS_10FullMatrixIT0_EE = comdat any

$_ZN6dealii7FETools35get_interpolation_difference_matrixILi3EfLi3EEEvRKNS_13FiniteElementIXT_EXT1_EEES5_RNS_10FullMatrixIT0_EE = comdat any

$_ZN6dealii7FETools21get_projection_matrixILi3EdLi3EEEvRKNS_13FiniteElementIXT_EXT1_EEES5_RNS_10FullMatrixIT0_EE = comdat any

$_ZN6dealii6VectorIdED2Ev = comdat any

$_ZN6dealii8FEValuesILi3ELi3EED2Ev = comdat any

$_ZN6dealii7FETools26compute_embedding_matricesILi3EdLi3EEEvRKNS_13FiniteElementIXT_EXT1_EEERSt6vectorIS6_INS_10FullMatrixIT0_EESaIS9_EESaISB_EEb = comdat any

$_ZNK6dealii11HouseholderIdE13least_squaresIdEEdRNS_6VectorIT_EERKS5_ = comdat any

$_ZN6dealii11HouseholderIdED2Ev = comdat any

$_ZN6dealii7FETools31compute_face_embedding_matricesILi3EdLi3EEEvRKNS_13FiniteElementIXT_EXT1_EEERAsr12GeometryInfoIXT_EEE21max_children_per_face_NS_10FullMatrixIT0_EEjj = comdat any

$_ZN6dealii7FETools27compute_projection_matricesILi3EdLi3EEEvRKNS_13FiniteElementIXT_EXT1_EEERSt6vectorIS6_INS_10FullMatrixIT0_EESaIS9_EESaISB_EE = comdat any

$_ZN6dealii7FETools11interpolateILi3ELi3ENS_10DoFHandlerES2_NS_6VectorIdEES4_EEvRKT1_IXT_EXT0_EERKT3_RKT2_IXT_EXT0_EERT4_ = comdat any

$_ZN6dealii7FETools11interpolateILi3ELi3ENS_10DoFHandlerES2_NS_6VectorIdEES4_EEvRKT1_IXT_EXT0_EERKT3_RKT2_IXT_EXT0_EERKNS_16ConstraintMatrixERT4_ = comdat any

$_ZN6dealii16ConstraintMatrixD2Ev = comdat any

$_ZN6dealii6VectorIdE6reinitEjb = comdat any

$_ZNSt3mapIPKN6dealii13FiniteElementILi3ELi3EEES_IS4_N5boost10shared_ptrINS0_10FullMatrixIdEEEESt4lessIS4_ESaISt4pairIKS4_S9_EEESB_SaISC_ISD_SG_EEEixERSD_ = comdat any

$_ZNSt3mapIPKN6dealii13FiniteElementILi3ELi3EEEN5boost10shared_ptrINS0_10FullMatrixIdEEEESt4lessIS4_ESaISt4pairIKS4_S9_EEEixERSD_ = comdat any

$_ZN5boost10shared_ptrIN6dealii10FullMatrixIdEEED2Ev = comdat any

$_ZN6dealii7FETools16back_interpolateILi3ENS_6VectorIdEES3_Li3EEEvRKNS_10DoFHandlerIXT_EXT2_EEERKT0_RKNS_13FiniteElementIXT_EXT2_EEERT1_ = comdat any

$_ZN6dealii7FETools16back_interpolateILi3ENS_6VectorIdEES3_Li3EEEvRKNS_10DoFHandlerIXT_EXT2_EEERKNS_16ConstraintMatrixERKT0_S7_SA_RT1_ = comdat any

$_ZN6dealii7FETools24interpolation_differenceILi3ENS_6VectorIdEES3_Li3EEEvRKNS_10DoFHandlerIXT_EXT2_EEERKT0_RKNS_13FiniteElementIXT_EXT2_EEERT1_ = comdat any

$_ZN6dealii7FETools24interpolation_differenceILi3ENS_6VectorIdEES3_Li3EEEvRKNS_10DoFHandlerIXT_EXT2_EEERKNS_16ConstraintMatrixERKT0_S7_SA_RT1_ = comdat any

$_ZN6dealii7FETools10project_dgILi3ENS_6VectorIdEES3_Li3EEEvRKNS_10DoFHandlerIXT_EXT2_EEERKT0_S7_RT1_ = comdat any

$_ZN6dealii7FETools11extrapolateILi3ENS_6VectorIdEES3_Li3EEEvRKNS_10DoFHandlerIXT_EXT2_EEERKT0_S7_RT1_ = comdat any

$_ZN6dealii7FETools11extrapolateILi3ENS_6VectorIdEES3_Li3EEEvRKNS_10DoFHandlerIXT_EXT2_EEERKT0_S7_RKNS_16ConstraintMatrixERT1_ = comdat any

$_ZN6dealii7FETools11interpolateILi3ELi3ENS_10DoFHandlerES2_NS_6VectorIfEES4_EEvRKT1_IXT_EXT0_EERKT3_RKT2_IXT_EXT0_EERT4_ = comdat any

$_ZN6dealii7FETools11interpolateILi3ELi3ENS_10DoFHandlerES2_NS_6VectorIfEES4_EEvRKT1_IXT_EXT0_EERKT3_RKT2_IXT_EXT0_EERKNS_16ConstraintMatrixERT4_ = comdat any

$_ZN6dealii6VectorIfE6reinitEjb = comdat any

$_ZN6dealii6VectorIfED2Ev = comdat any

$_ZN6dealii7FETools16back_interpolateILi3ENS_6VectorIfEES3_Li3EEEvRKNS_10DoFHandlerIXT_EXT2_EEERKT0_RKNS_13FiniteElementIXT_EXT2_EEERT1_ = comdat any

$_ZN6dealii7FETools16back_interpolateILi3ENS_6VectorIfEES3_Li3EEEvRKNS_10DoFHandlerIXT_EXT2_EEERKNS_16ConstraintMatrixERKT0_S7_SA_RT1_ = comdat any

$_ZN6dealii7FETools24interpolation_differenceILi3ENS_6VectorIfEES3_Li3EEEvRKNS_10DoFHandlerIXT_EXT2_EEERKT0_RKNS_13FiniteElementIXT_EXT2_EEERT1_ = comdat any

$_ZN6dealii7FETools24interpolation_differenceILi3ENS_6VectorIfEES3_Li3EEEvRKNS_10DoFHandlerIXT_EXT2_EEERKNS_16ConstraintMatrixERKT0_S7_SA_RT1_ = comdat any

$_ZN6dealii7FETools10project_dgILi3ENS_6VectorIfEES3_Li3EEEvRKNS_10DoFHandlerIXT_EXT2_EEERKT0_S7_RT1_ = comdat any

$_ZN6dealii7FETools11extrapolateILi3ENS_6VectorIfEES3_Li3EEEvRKNS_10DoFHandlerIXT_EXT2_EEERKT0_S7_RT1_ = comdat any

$_ZN6dealii7FETools11extrapolateILi3ENS_6VectorIfEES3_Li3EEEvRKNS_10DoFHandlerIXT_EXT2_EEERKT0_S7_RKNS_16ConstraintMatrixERT1_ = comdat any

$_ZN6dealii7FETools11interpolateILi3ELi3ENS_10DoFHandlerES2_NS_11BlockVectorIdEES4_EEvRKT1_IXT_EXT0_EERKT3_RKT2_IXT_EXT0_EERT4_ = comdat any

$_ZN6dealii7FETools11interpolateILi3ELi3ENS_10DoFHandlerES2_NS_11BlockVectorIdEES4_EEvRKT1_IXT_EXT0_EERKT3_RKT2_IXT_EXT0_EERKNS_16ConstraintMatrixERT4_ = comdat any

$_ZN6dealii7FETools16back_interpolateILi3ENS_11BlockVectorIdEES3_Li3EEEvRKNS_10DoFHandlerIXT_EXT2_EEERKT0_RKNS_13FiniteElementIXT_EXT2_EEERT1_ = comdat any

$_ZN6dealii7FETools16back_interpolateILi3ENS_11BlockVectorIdEES3_Li3EEEvRKNS_10DoFHandlerIXT_EXT2_EEERKNS_16ConstraintMatrixERKT0_S7_SA_RT1_ = comdat any

$_ZN6dealii7FETools11interpolateILi3ELi3ENS_10DoFHandlerES2_NS_11BlockVectorIdEENS_6VectorIdEEEEvRKT1_IXT_EXT0_EERKT3_RKT2_IXT_EXT0_EERKNS_16ConstraintMatrixERT4_ = comdat any

$_ZN6dealii7FETools11interpolateILi3ELi3ENS_10DoFHandlerES2_NS_6VectorIdEENS_11BlockVectorIdEEEEvRKT1_IXT_EXT0_EERKT3_RKT2_IXT_EXT0_EERKNS_16ConstraintMatrixERT4_ = comdat any

$_ZN6dealii7FETools24interpolation_differenceILi3ENS_11BlockVectorIdEES3_Li3EEEvRKNS_10DoFHandlerIXT_EXT2_EEERKT0_RKNS_13FiniteElementIXT_EXT2_EEERT1_ = comdat any

$_ZN6dealii7FETools24interpolation_differenceILi3ENS_11BlockVectorIdEES3_Li3EEEvRKNS_10DoFHandlerIXT_EXT2_EEERKNS_16ConstraintMatrixERKT0_S7_SA_RT1_ = comdat any

$_ZN6dealii7FETools10project_dgILi3ENS_11BlockVectorIdEES3_Li3EEEvRKNS_10DoFHandlerIXT_EXT2_EEERKT0_S7_RT1_ = comdat any

$_ZN6dealii7FETools11extrapolateILi3ENS_11BlockVectorIdEES3_Li3EEEvRKNS_10DoFHandlerIXT_EXT2_EEERKT0_S7_RT1_ = comdat any

$_ZN6dealii7FETools11extrapolateILi3ENS_11BlockVectorIdEES3_Li3EEEvRKNS_10DoFHandlerIXT_EXT2_EEERKT0_S7_RKNS_16ConstraintMatrixERT1_ = comdat any

$_ZN6dealii7FETools11extrapolateILi3ENS_11BlockVectorIdEENS_6VectorIdEELi3EEEvRKNS_10DoFHandlerIXT_EXT2_EEERKT0_S9_RT1_ = comdat any

$_ZN6dealii7FETools11extrapolateILi3ENS_11BlockVectorIdEENS_6VectorIdEELi3EEEvRKNS_10DoFHandlerIXT_EXT2_EEERKT0_S9_RKNS_16ConstraintMatrixERT1_ = comdat any

$_ZN6dealii7FETools11interpolateILi3ELi3ENS_10DoFHandlerES2_NS_11BlockVectorIfEES4_EEvRKT1_IXT_EXT0_EERKT3_RKT2_IXT_EXT0_EERT4_ = comdat any

$_ZN6dealii7FETools11interpolateILi3ELi3ENS_10DoFHandlerES2_NS_11BlockVectorIfEES4_EEvRKT1_IXT_EXT0_EERKT3_RKT2_IXT_EXT0_EERKNS_16ConstraintMatrixERT4_ = comdat any

$_ZN6dealii7FETools16back_interpolateILi3ENS_11BlockVectorIfEES3_Li3EEEvRKNS_10DoFHandlerIXT_EXT2_EEERKT0_RKNS_13FiniteElementIXT_EXT2_EEERT1_ = comdat any

$_ZN6dealii7FETools16back_interpolateILi3ENS_11BlockVectorIfEES3_Li3EEEvRKNS_10DoFHandlerIXT_EXT2_EEERKNS_16ConstraintMatrixERKT0_S7_SA_RT1_ = comdat any

$_ZN6dealii7FETools11interpolateILi3ELi3ENS_10DoFHandlerES2_NS_11BlockVectorIfEENS_6VectorIfEEEEvRKT1_IXT_EXT0_EERKT3_RKT2_IXT_EXT0_EERKNS_16ConstraintMatrixERT4_ = comdat any

$_ZN6dealii7FETools11interpolateILi3ELi3ENS_10DoFHandlerES2_NS_6VectorIfEENS_11BlockVectorIfEEEEvRKT1_IXT_EXT0_EERKT3_RKT2_IXT_EXT0_EERKNS_16ConstraintMatrixERT4_ = comdat any

$_ZN6dealii7FETools24interpolation_differenceILi3ENS_11BlockVectorIfEES3_Li3EEEvRKNS_10DoFHandlerIXT_EXT2_EEERKT0_RKNS_13FiniteElementIXT_EXT2_EEERT1_ = comdat any

$_ZN6dealii7FETools24interpolation_differenceILi3ENS_11BlockVectorIfEES3_Li3EEEvRKNS_10DoFHandlerIXT_EXT2_EEERKNS_16ConstraintMatrixERKT0_S7_SA_RT1_ = comdat any

$_ZN6dealii7FETools10project_dgILi3ENS_11BlockVectorIfEES3_Li3EEEvRKNS_10DoFHandlerIXT_EXT2_EEERKT0_S7_RT1_ = comdat any

$_ZN6dealii7FETools11extrapolateILi3ENS_11BlockVectorIfEES3_Li3EEEvRKNS_10DoFHandlerIXT_EXT2_EEERKT0_S7_RT1_ = comdat any

$_ZN6dealii7FETools11extrapolateILi3ENS_11BlockVectorIfEES3_Li3EEEvRKNS_10DoFHandlerIXT_EXT2_EEERKT0_S7_RKNS_16ConstraintMatrixERT1_ = comdat any

$_ZN6dealii7FETools11extrapolateILi3ENS_11BlockVectorIfEENS_6VectorIfEELi3EEEvRKNS_10DoFHandlerIXT_EXT2_EEERKT0_S9_RT1_ = comdat any

$_ZN6dealii7FETools11extrapolateILi3ENS_11BlockVectorIfEENS_6VectorIfEELi3EEEvRKNS_10DoFHandlerIXT_EXT2_EEERKT0_S9_RKNS_16ConstraintMatrixERT1_ = comdat any

$_ZN6dealii7FETools11interpolateILi3ELi3ENS_2hp10DoFHandlerES3_NS_6VectorIdEES5_EEvRKT1_IXT_EXT0_EERKT3_RKT2_IXT_EXT0_EERT4_ = comdat any

$_ZN6dealii7FETools11interpolateILi3ELi3ENS_2hp10DoFHandlerES3_NS_6VectorIdEES5_EEvRKT1_IXT_EXT0_EERKT3_RKT2_IXT_EXT0_EERKNS_16ConstraintMatrixERT4_ = comdat any

$_ZN6dealii7FETools11interpolateILi3ELi3ENS_2hp10DoFHandlerES3_NS_6VectorIfEES5_EEvRKT1_IXT_EXT0_EERKT3_RKT2_IXT_EXT0_EERT4_ = comdat any

$_ZN6dealii7FETools11interpolateILi3ELi3ENS_2hp10DoFHandlerES3_NS_6VectorIfEES5_EEvRKT1_IXT_EXT0_EERKT3_RKT2_IXT_EXT0_EERKNS_16ConstraintMatrixERT4_ = comdat any

$_ZN6dealii7FETools16get_fe_from_nameILi3EEEPNS_13FiniteElementIXT_EXT_EEERKNSt7__cxx1112basic_stringIcSt11char_traitsIcESaIcEEE = comdat any

$_ZN6dealii18deal_II_exceptions9internals17issue_error_throwINS_7FETools16ExcInvalidFENameEEEvPKciS6_S6_S6_T_ = comdat any

$_ZStplIcSt11char_traitsIcESaIcEENSt7__cxx1112basic_stringIT_T0_T1_EERKS8_SA_ = comdat any

$_ZN6dealii7FETools16ExcInvalidFENameC2ENSt7__cxx1112basic_stringIcSt11char_traitsIcESaIcEEE = comdat any

$_ZN6dealii7FETools16ExcInvalidFENameD2Ev = comdat any

$_ZN6dealii7FETools11add_fe_nameILi3ELi3EEEvRKNSt7__cxx1112basic_stringIcSt11char_traitsIcESaIcEEEPKNS0_13FEFactoryBaseIXT_EXT0_EEE = comdat any

$_ZNSt3mapINSt7__cxx1112basic_stringIcSt11char_traitsIcESaIcEEEN5boost10shared_ptrIKN6dealii7FETools13FEFactoryBaseILi3ELi3EEEEESt4lessIS5_ESaISt4pairIKS5_SD_EEEixERSH_ = comdat any

$_ZN5boost10shared_ptrIKN6dealii7FETools13FEFactoryBaseILi3ELi3EEEED2Ev = comdat any

$_ZN6dealii7FETools48compute_projection_from_quadrature_points_matrixILi3ELi3EEEvRKNS_13FiniteElementIXT_EXT0_EEERKNS_10QuadratureIXT_EEES9_RNS_10FullMatrixIdEE = comdat any

$_ZN6dealii7FETools49compute_interpolation_to_quadrature_points_matrixILi3ELi3EEEvRKNS_13FiniteElementIXT_EXT0_EEERKNS_10QuadratureIXT_EEERNS_10FullMatrixIdEE = comdat any

$_ZNSt3mapINSt7__cxx1112basic_stringIcSt11char_traitsIcESaIcEEEN5boost10shared_ptrIKN6dealii7FETools13FEFactoryBaseILi3ELi3EEEEESt4lessIS5_ESaISt4pairIKS5_SD_EEED2Ev = comdat any

$_ZN6dealii9TableBaseILi2EdED2Ev = comdat any

$_ZN6dealii9TableBaseILi2EdED0Ev = comdat any

$_ZN6dealii9TableBaseILi2EfED2Ev = comdat any

$_ZN6dealii9TableBaseILi2EfED0Ev = comdat any

$_ZN6dealii8FEValuesILi3ELi3EED0Ev = comdat any

$_ZN6dealii16MappingCartesianILi3ELi3EED0Ev = comdat any

$_ZN6dealii11HouseholderIdED0Ev = comdat any

$_ZN6dealii16ConstraintMatrixD0Ev = comdat any

$_ZNSt8_Rb_treeIPKN6dealii13FiniteElementILi3ELi3EEESt4pairIKS4_St3mapIS4_N5boost10shared_ptrINS0_10FullMatrixIdEEEESt4lessIS4_ESaIS5_IS6_SC_EEEESt10_Select1stISI_ESE_SaISI_EE8_M_eraseEPSt13_Rb_tree_nodeISI_E = comdat any

$_ZNSt8_Rb_treeIPKN6dealii13FiniteElementILi3ELi3EEESt4pairIKS4_N5boost10shared_ptrINS0_10FullMatrixIdEEEEESt10_Select1stISC_ESt4lessIS4_ESaISC_EE8_M_eraseEPSt13_Rb_tree_nodeISC_E = comdat any

$_ZNSt4pairIKPKN6dealii13FiniteElementILi3ELi3EEEN5boost10shared_ptrINS0_10FullMatrixIdEEEEED2Ev = comdat any

$_ZN6dealii7FETools16ExcInvalidFENameD0Ev = comdat any

$_ZNK6dealii7FETools16ExcInvalidFEName10print_infoERSo = comdat any

$_ZNK6dealii7FETools9FEFactoryINS_17FE_Q_HierarchicalILi3EEEE3getEj = comdat any

$_ZN6dealii7FETools9FEFactoryINS_17FE_Q_HierarchicalILi3EEEED0Ev = comdat any

$_ZN5boost6detail17sp_counted_impl_pIN6dealii7FETools9FEFactoryINS2_17FE_Q_HierarchicalILi3EEEEEED0Ev = comdat any

$_ZN5boost6detail17sp_counted_impl_pIN6dealii7FETools9FEFactoryINS2_17FE_Q_HierarchicalILi3EEEEEE7disposeEv = comdat any

$_ZN5boost6detail15sp_counted_base7destroyEv = comdat any

$_ZN5boost6detail17sp_counted_impl_pIN6dealii7FETools9FEFactoryINS2_17FE_Q_HierarchicalILi3EEEEEE11get_deleterERKSt9type_info = comdat any

$_ZNK6dealii7FETools9FEFactoryINS_16FE_RaviartThomasILi3EEEE3getEj = comdat any

$_ZN6dealii7FETools9FEFactoryINS_16FE_RaviartThomasILi3EEEED0Ev = comdat any

$_ZN5boost6detail17sp_counted_impl_pIN6dealii7FETools9FEFactoryINS2_16FE_RaviartThomasILi3EEEEEED0Ev = comdat any

$_ZN5boost6detail17sp_counted_impl_pIN6dealii7FETools9FEFactoryINS2_16FE_RaviartThomasILi3EEEEEE7disposeEv = comdat any

$_ZN5boost6detail17sp_counted_impl_pIN6dealii7FETools9FEFactoryINS2_16FE_RaviartThomasILi3EEEEEE11get_deleterERKSt9type_info = comdat any

$_ZNK6dealii7FETools9FEFactoryINS_21FE_RaviartThomasNodalILi3EEEE3getEj = comdat any

$_ZN6dealii7FETools9FEFactoryINS_21FE_RaviartThomasNodalILi3EEEED0Ev = comdat any

$_ZN5boost6detail17sp_counted_impl_pIN6dealii7FETools9FEFactoryINS2_21FE_RaviartThomasNodalILi3EEEEEED0Ev = comdat any

$_ZN5boost6detail17sp_counted_impl_pIN6dealii7FETools9FEFactoryINS2_21FE_RaviartThomasNodalILi3EEEEEE7disposeEv = comdat any

$_ZN5boost6detail17sp_counted_impl_pIN6dealii7FETools9FEFactoryINS2_21FE_RaviartThomasNodalILi3EEEEEE11get_deleterERKSt9type_info = comdat any

$_ZNK6dealii7FETools9FEFactoryINS_10FE_NedelecILi3ELi3EEEE3getEj = comdat any

$_ZN6dealii7FETools9FEFactoryINS_10FE_NedelecILi3ELi3EEEED0Ev = comdat any

$_ZN5boost6detail17sp_counted_impl_pIN6dealii7FETools9FEFactoryINS2_10FE_NedelecILi3ELi3EEEEEED0Ev = comdat any

$_ZN5boost6detail17sp_counted_impl_pIN6dealii7FETools9FEFactoryINS2_10FE_NedelecILi3ELi3EEEEEE7disposeEv = comdat any

$_ZN5boost6detail17sp_counted_impl_pIN6dealii7FETools9FEFactoryINS2_10FE_NedelecILi3ELi3EEEEEE11get_deleterERKSt9type_info = comdat any

$_ZNK6dealii7FETools9FEFactoryINS_19FE_DGPNonparametricILi3ELi3EEEE3getEj = comdat any

$_ZN6dealii7FETools9FEFactoryINS_19FE_DGPNonparametricILi3ELi3EEEED0Ev = comdat any

$_ZN5boost6detail17sp_counted_impl_pIN6dealii7FETools9FEFactoryINS2_19FE_DGPNonparametricILi3ELi3EEEEEED0Ev = comdat any

$_ZN5boost6detail17sp_counted_impl_pIN6dealii7FETools9FEFactoryINS2_19FE_DGPNonparametricILi3ELi3EEEEEE7disposeEv = comdat any

$_ZN5boost6detail17sp_counted_impl_pIN6dealii7FETools9FEFactoryINS2_19FE_DGPNonparametricILi3ELi3EEEEEE11get_deleterERKSt9type_info = comdat any

$_ZNK6dealii7FETools9FEFactoryINS_6FE_DGPILi3ELi3EEEE3getEj = comdat any

$_ZN6dealii7FETools9FEFactoryINS_6FE_DGPILi3ELi3EEEED0Ev = comdat any

$_ZN5boost6detail17sp_counted_impl_pIN6dealii7FETools9FEFactoryINS2_6FE_DGPILi3ELi3EEEEEED0Ev = comdat any

$_ZN5boost6detail17sp_counted_impl_pIN6dealii7FETools9FEFactoryINS2_6FE_DGPILi3ELi3EEEEEE7disposeEv = comdat any

$_ZN5boost6detail17sp_counted_impl_pIN6dealii7FETools9FEFactoryINS2_6FE_DGPILi3ELi3EEEEEE11get_deleterERKSt9type_info = comdat any

$_ZNK6dealii7FETools9FEFactoryINS_14FE_DGPMonomialILi3EEEE3getEj = comdat any

$_ZN6dealii7FETools9FEFactoryINS_14FE_DGPMonomialILi3EEEED0Ev = comdat any

$_ZN5boost6detail17sp_counted_impl_pIN6dealii7FETools9FEFactoryINS2_14FE_DGPMonomialILi3EEEEEED0Ev = comdat any

$_ZN5boost6detail17sp_counted_impl_pIN6dealii7FETools9FEFactoryINS2_14FE_DGPMonomialILi3EEEEEE7disposeEv = comdat any

$_ZN5boost6detail17sp_counted_impl_pIN6dealii7FETools9FEFactoryINS2_14FE_DGPMonomialILi3EEEEEE11get_deleterERKSt9type_info = comdat any

$_ZNK6dealii7FETools9FEFactoryINS_6FE_DGQILi3ELi3EEEE3getEj = comdat any

$_ZN6dealii7FETools9FEFactoryINS_6FE_DGQILi3ELi3EEEED0Ev = comdat any

$_ZN5boost6detail17sp_counted_impl_pIN6dealii7FETools9FEFactoryINS2_6FE_DGQILi3ELi3EEEEEED0Ev = comdat any

$_ZN5boost6detail17sp_counted_impl_pIN6dealii7FETools9FEFactoryINS2_6FE_DGQILi3ELi3EEEEEE7disposeEv = comdat any

$_ZN5boost6detail17sp_counted_impl_pIN6dealii7FETools9FEFactoryINS2_6FE_DGQILi3ELi3EEEEEE11get_deleterERKSt9type_info = comdat any

$_ZNK6dealii7FETools9FEFactoryINS_4FE_QILi3ELi3EEEE3getEj = comdat any

$_ZN6dealii7FETools9FEFactoryINS_4FE_QILi3ELi3EEEED0Ev = comdat any

$_ZN5boost6detail17sp_counted_impl_pIN6dealii7FETools9FEFactoryINS2_4FE_QILi3ELi3EEEEEED0Ev = comdat any

$_ZN5boost6detail17sp_counted_impl_pIN6dealii7FETools9FEFactoryINS2_4FE_QILi3ELi3EEEEEE7disposeEv = comdat any

$_ZN5boost6detail17sp_counted_impl_pIN6dealii7FETools9FEFactoryINS2_4FE_QILi3ELi3EEEEEE11get_deleterERKSt9type_info = comdat any

$_ZNSt8_Rb_treeINSt7__cxx1112basic_stringIcSt11char_traitsIcESaIcEEESt4pairIKS5_N5boost10shared_ptrIKN6dealii7FETools13FEFactoryBaseILi3ELi3EEEEEESt10_Select1stISG_ESt4lessIS5_ESaISG_EE8_M_eraseEPSt13_Rb_tree_nodeISG_E = comdat any

$_ZNSt4pairIKNSt7__cxx1112basic_stringIcSt11char_traitsIcESaIcEEEN5boost10shared_ptrIKN6dealii7FETools13FEFactoryBaseILi3ELi3EEEEEED2Ev = comdat any

$_ZNSt6vectorIjSaIjEE14_M_fill_insertEN9__gnu_cxx17__normal_iteratorIPjS1_EEmRKj = comdat any

$_ZNSt8_Rb_treeINSt7__cxx1112basic_stringIcSt11char_traitsIcESaIcEEESt4pairIKS5_N5boost10shared_ptrIKN6dealii7FETools13FEFactoryBaseILi3ELi3EEEEEESt10_Select1stISG_ESt4lessIS5_ESaISG_EE17_M_insert_unique_INSM_11_Alloc_nodeEEESt17_Rb_tree_iteratorISG_ESt23_Rb_tree_const_iteratorISG_ERKSG_RT_ = comdat any

$_ZNSt8_Rb_treeINSt7__cxx1112basic_stringIcSt11char_traitsIcESaIcEEESt4pairIKS5_N5boost10shared_ptrIKN6dealii7FETools13FEFactoryBaseILi3ELi3EEEEEESt10_Select1stISG_ESt4lessIS5_ESaISG_EE29_M_get_insert_hint_unique_posESt23_Rb_tree_const_iteratorISG_ERS7_ = comdat any

$_ZNSt8_Rb_treeINSt7__cxx1112basic_stringIcSt11char_traitsIcESaIcEEESt4pairIKS5_N5boost10shared_ptrIKN6dealii7FETools13FEFactoryBaseILi3ELi3EEEEEESt10_Select1stISG_ESt4lessIS5_ESaISG_EE24_M_get_insert_unique_posERS7_ = comdat any

$_ZNSt8_Rb_treeINSt7__cxx1112basic_stringIcSt11char_traitsIcESaIcEEESt4pairIKS5_N5boost10shared_ptrIKN6dealii7FETools13FEFactoryBaseILi3ELi3EEEEEESt10_Select1stISG_ESt4lessIS5_ESaISG_EE17_M_construct_nodeEPSt13_Rb_tree_nodeISG_ERKSG_ = comdat any

$_ZSt18__do_uninit_fill_nIPSt6vectorIdSaIdEEmS2_ET_S4_T0_RKT1_ = comdat any

$_ZNSt6vectorIS_IjSaIjEESaIS1_EE14_M_fill_insertEN9__gnu_cxx17__normal_iteratorIPS1_S3_EEmRKS1_ = comdat any

$_ZSt16__do_uninit_copyIPSt6vectorIjSaIjEES3_ET0_T_S5_S4_ = comdat any

$_ZNSt6vectorIjSaIjEEaSERKS1_ = comdat any

$_ZSt18__do_uninit_fill_nIPSt6vectorIjSaIjEEmS2_ET_S4_T0_RKT1_ = comdat any

$_ZN6dealii6VectorIdED0Ev = comdat any

$_ZN6dealii6VectorIdE4swapERS1_ = comdat any

$_ZN6dealii11HouseholderIdE10initializeIdEEvRKNS_10FullMatrixIT_EE = comdat any

$_ZNSt6vectorIdSaIdEE14_M_fill_insertEN9__gnu_cxx17__normal_iteratorIPdS1_EEmRKd = comdat any

$_ZN6dealii19GrowingVectorMemoryINS_6VectorIdEEE5allocEv = comdat any

$_ZN6dealii19GrowingVectorMemoryINS_6VectorIdEEE4freeEPKS2_ = comdat any

$_ZN6dealii19GrowingVectorMemoryINS_6VectorIdEEED2Ev = comdat any

$_ZN6dealii19GrowingVectorMemoryINS_6VectorIdEEED0Ev = comdat any

$_ZN6dealii18StandardExceptions13ExcMemoryLeakD0Ev = comdat any

$_ZNK6dealii18StandardExceptions13ExcMemoryLeak10print_infoERSo = comdat any

$_ZNSt8_Rb_treeIPKN6dealii13FiniteElementILi3ELi3EEESt4pairIKS4_St3mapIS4_N5boost10shared_ptrINS0_10FullMatrixIdEEEESt4lessIS4_ESaIS5_IS6_SC_EEEESt10_Select1stISI_ESE_SaISI_EE29_M_get_insert_hint_unique_posESt23_Rb_tree_const_iteratorISI_ERS6_ = comdat any

$_ZNSt8_Rb_treeIPKN6dealii13FiniteElementILi3ELi3EEESt4pairIKS4_St3mapIS4_N5boost10shared_ptrINS0_10FullMatrixIdEEEESt4lessIS4_ESaIS5_IS6_SC_EEEESt10_Select1stISI_ESE_SaISI_EE17_M_construct_nodeEPSt13_Rb_tree_nodeISI_ERKSI_ = comdat any

$_ZNSt8_Rb_treeIPKN6dealii13FiniteElementILi3ELi3EEESt4pairIKS4_N5boost10shared_ptrINS0_10FullMatrixIdEEEEESt10_Select1stISC_ESt4lessIS4_ESaISC_EE7_M_copyILb0ENSI_11_Alloc_nodeEEEPSt13_Rb_tree_nodeISC_ESN_PSt18_Rb_tree_node_baseRT0_ = comdat any

$_ZNSt8_Rb_treeIPKN6dealii13FiniteElementILi3ELi3EEESt4pairIKS4_N5boost10shared_ptrINS0_10FullMatrixIdEEEEESt10_Select1stISC_ESt4lessIS4_ESaISC_EE29_M_get_insert_hint_unique_posESt23_Rb_tree_const_iteratorISC_ERS6_ = comdat any

$_ZN5boost6detail17sp_counted_impl_pIN6dealii10FullMatrixIdEEED0Ev = comdat any

$_ZN5boost6detail17sp_counted_impl_pIN6dealii10FullMatrixIdEEE7disposeEv = comdat any

$_ZN5boost6detail17sp_counted_impl_pIN6dealii10FullMatrixIdEEE11get_deleterERKSt9type_info = comdat any

$_ZN6dealii6VectorIfED0Ev = comdat any

$_ZN6dealii6VectorIfE4swapERS1_ = comdat any

$_ZN6dealii8internal15DoFCellAccessor14Implementation14get_dof_valuesILi3ELi3ENS_6VectorIdEEdEEvRKNS_15DoFCellAccessorINS_2hp10DoFHandlerIXT_EXT0_EEEEERKT1_RNS4_IT2_EE = comdat any

$_ZN6dealii8internal11DoFAccessor15get_dof_indicesINS_2hp10DoFHandlerILi3ELi3EEEEEvRKNS_11DoFAccessorILi3ET_EERSt6vectorIjSaIjEEj = comdat any

$_ZN6dealii8internal15DoFCellAccessor14Implementation14get_dof_valuesILi3ELi3ENS_6VectorIfEEfEEvRKNS_15DoFCellAccessorINS_2hp10DoFHandlerIXT_EXT0_EEEEERKT1_RNS4_IT2_EE = comdat any

$_ZN6dealii18StandardExceptions17ExcNotImplementedD0Ev = comdat any

$_ZN6dealii7FETools16ExcInvalidFENameC2ERKS1_ = comdat any

$_ZN5boost6detail15sp_counted_baseD2Ev = comdat any

$_ZN5boost6detail17sp_counted_impl_pIKN6dealii7FETools13FEFactoryBaseILi3ELi3EEEED0Ev = comdat any

$_ZN5boost6detail17sp_counted_impl_pIKN6dealii7FETools13FEFactoryBaseILi3ELi3EEEE7disposeEv = comdat any

$_ZN5boost6detail17sp_counted_impl_pIKN6dealii7FETools13FEFactoryBaseILi3ELi3EEEE11get_deleterERKSt9type_info = comdat any

$_ZTSN6dealii13FiniteElementILi3ELi3EE30ExcInterpolationNotImplementedE = comdat any

$_ZTIN6dealii13FiniteElementILi3ELi3EE30ExcInterpolationNotImplementedE = comdat any

$_ZTSNSt7__cxx1112basic_stringIcSt11char_traitsIcESaIcEEE = comdat any

$_ZTINSt7__cxx1112basic_stringIcSt11char_traitsIcESaIcEEE = comdat any

$_ZTVN6dealii7FETools13FEFactoryBaseILi3ELi3EEE = comdat any

$_ZTSN6dealii7FETools13FEFactoryBaseILi3ELi3EEE = comdat any

$_ZTIN6dealii7FETools13FEFactoryBaseILi3ELi3EEE = comdat any

$_ZTVN6dealii9TableBaseILi2EdEE = comdat any

$_ZTSN6dealii9TableBaseILi2EdEE = comdat any

$_ZTIN6dealii9TableBaseILi2EdEE = comdat any

$_ZTVN6dealii9TableBaseILi2EfEE = comdat any

$_ZTSN6dealii9TableBaseILi2EfEE = comdat any

$_ZTIN6dealii9TableBaseILi2EfEE = comdat any

$_ZTVN6dealii8FEValuesILi3ELi3EEE = comdat any

$_ZTSN6dealii8FEValuesILi3ELi3EEE = comdat any

$_ZTSN6dealii12FEValuesBaseILi3ELi3EEE = comdat any

$_ZTSN6dealii12FEValuesDataILi3ELi3EEE = comdat any

$_ZTIN6dealii12FEValuesDataILi3ELi3EEE = comdat any

$_ZTIN6dealii12FEValuesBaseILi3ELi3EEE = comdat any

$_ZTIN6dealii8FEValuesILi3ELi3EEE = comdat any

$_ZTVN6dealii16MappingCartesianILi3ELi3EEE = comdat any

$_ZTSN6dealii16MappingCartesianILi3ELi3EEE = comdat any

$_ZTSN6dealii7MappingILi3ELi3EEE = comdat any

$_ZTIN6dealii7MappingILi3ELi3EEE = comdat any

$_ZTIN6dealii16MappingCartesianILi3ELi3EEE = comdat any

$_ZTVN6dealii11HouseholderIdEE = comdat any

$_ZTSN6dealii11HouseholderIdEE = comdat any

$_ZTSN6dealii10FullMatrixIdEE = comdat any

$_ZTSN6dealii5TableILi2EdEE = comdat any

$_ZTIN6dealii5TableILi2EdEE = comdat any

$_ZTIN6dealii10FullMatrixIdEE = comdat any

$_ZTIN6dealii11HouseholderIdEE = comdat any

$_ZTVN6dealii16ConstraintMatrixE = comdat any

$_ZTSN6dealii16ConstraintMatrixE = comdat any

$_ZTIN6dealii16ConstraintMatrixE = comdat any

$_ZTVN6dealii7FETools16ExcInvalidFENameE = comdat any

$_ZTSN6dealii7FETools16ExcInvalidFENameE = comdat any

$_ZTIN6dealii7FETools16ExcInvalidFENameE = comdat any

$_ZTVN6dealii7FETools9FEFactoryINS_17FE_Q_HierarchicalILi3EEEEE = comdat any

$_ZTSN6dealii7FETools9FEFactoryINS_17FE_Q_HierarchicalILi3EEEEE = comdat any

$_ZTIN6dealii7FETools9FEFactoryINS_17FE_Q_HierarchicalILi3EEEEE = comdat any

$_ZTVN5boost6detail17sp_counted_impl_pIN6dealii7FETools9FEFactoryINS2_17FE_Q_HierarchicalILi3EEEEEEE = comdat any

$_ZTSN5boost6detail17sp_counted_impl_pIN6dealii7FETools9FEFactoryINS2_17FE_Q_HierarchicalILi3EEEEEEE = comdat any

$_ZTSN5boost6detail15sp_counted_baseE = comdat any

$_ZTIN5boost6detail15sp_counted_baseE = comdat any

$_ZTIN5boost6detail17sp_counted_impl_pIN6dealii7FETools9FEFactoryINS2_17FE_Q_HierarchicalILi3EEEEEEE = comdat any

$_ZTVN6dealii7FETools9FEFactoryINS_16FE_RaviartThomasILi3EEEEE = comdat any

$_ZTSN6dealii7FETools9FEFactoryINS_16FE_RaviartThomasILi3EEEEE = comdat any

$_ZTIN6dealii7FETools9FEFactoryINS_16FE_RaviartThomasILi3EEEEE = comdat any

$_ZTVN5boost6detail17sp_counted_impl_pIN6dealii7FETools9FEFactoryINS2_16FE_RaviartThomasILi3EEEEEEE = comdat any

$_ZTSN5boost6detail17sp_counted_impl_pIN6dealii7FETools9FEFactoryINS2_16FE_RaviartThomasILi3EEEEEEE = comdat any

$_ZTIN5boost6detail17sp_counted_impl_pIN6dealii7FETools9FEFactoryINS2_16FE_RaviartThomasILi3EEEEEEE = comdat any

$_ZTVN6dealii7FETools9FEFactoryINS_21FE_RaviartThomasNodalILi3EEEEE = comdat any

$_ZTSN6dealii7FETools9FEFactoryINS_21FE_RaviartThomasNodalILi3EEEEE = comdat any

$_ZTIN6dealii7FETools9FEFactoryINS_21FE_RaviartThomasNodalILi3EEEEE = comdat any

$_ZTVN5boost6detail17sp_counted_impl_pIN6dealii7FETools9FEFactoryINS2_21FE_RaviartThomasNodalILi3EEEEEEE = comdat any

$_ZTSN5boost6detail17sp_counted_impl_pIN6dealii7FETools9FEFactoryINS2_21FE_RaviartThomasNodalILi3EEEEEEE = comdat any

$_ZTIN5boost6detail17sp_counted_impl_pIN6dealii7FETools9FEFactoryINS2_21FE_RaviartThomasNodalILi3EEEEEEE = comdat any

$_ZTVN6dealii7FETools9FEFactoryINS_10FE_NedelecILi3ELi3EEEEE = comdat any

$_ZTSN6dealii7FETools9FEFactoryINS_10FE_NedelecILi3ELi3EEEEE = comdat any

$_ZTIN6dealii7FETools9FEFactoryINS_10FE_NedelecILi3ELi3EEEEE = comdat any

$_ZTVN5boost6detail17sp_counted_impl_pIN6dealii7FETools9FEFactoryINS2_10FE_NedelecILi3ELi3EEEEEEE = comdat any

$_ZTSN5boost6detail17sp_counted_impl_pIN6dealii7FETools9FEFactoryINS2_10FE_NedelecILi3ELi3EEEEEEE = comdat any

$_ZTIN5boost6detail17sp_counted_impl_pIN6dealii7FETools9FEFactoryINS2_10FE_NedelecILi3ELi3EEEEEEE = comdat any

$_ZTVN6dealii7FETools9FEFactoryINS_19FE_DGPNonparametricILi3ELi3EEEEE = comdat any

$_ZTSN6dealii7FETools9FEFactoryINS_19FE_DGPNonparametricILi3ELi3EEEEE = comdat any

$_ZTIN6dealii7FETools9FEFactoryINS_19FE_DGPNonparametricILi3ELi3EEEEE = comdat any

$_ZTVN5boost6detail17sp_counted_impl_pIN6dealii7FETools9FEFactoryINS2_19FE_DGPNonparametricILi3ELi3EEEEEEE = comdat any

$_ZTSN5boost6detail17sp_counted_impl_pIN6dealii7FETools9FEFactoryINS2_19FE_DGPNonparametricILi3ELi3EEEEEEE = comdat any

$_ZTIN5boost6detail17sp_counted_impl_pIN6dealii7FETools9FEFactoryINS2_19FE_DGPNonparametricILi3ELi3EEEEEEE = comdat any

$_ZTVN6dealii7FETools9FEFactoryINS_6FE_DGPILi3ELi3EEEEE = comdat any

$_ZTSN6dealii7FETools9FEFactoryINS_6FE_DGPILi3ELi3EEEEE = comdat any

$_ZTIN6dealii7FETools9FEFactoryINS_6FE_DGPILi3ELi3EEEEE = comdat any

$_ZTVN5boost6detail17sp_counted_impl_pIN6dealii7FETools9FEFactoryINS2_6FE_DGPILi3ELi3EEEEEEE = comdat any

$_ZTSN5boost6detail17sp_counted_impl_pIN6dealii7FETools9FEFactoryINS2_6FE_DGPILi3ELi3EEEEEEE = comdat any

$_ZTIN5boost6detail17sp_counted_impl_pIN6dealii7FETools9FEFactoryINS2_6FE_DGPILi3ELi3EEEEEEE = comdat any

$_ZTVN6dealii7FETools9FEFactoryINS_14FE_DGPMonomialILi3EEEEE = comdat any

$_ZTSN6dealii7FETools9FEFactoryINS_14FE_DGPMonomialILi3EEEEE = comdat any

$_ZTIN6dealii7FETools9FEFactoryINS_14FE_DGPMonomialILi3EEEEE = comdat any

$_ZTVN5boost6detail17sp_counted_impl_pIN6dealii7FETools9FEFactoryINS2_14FE_DGPMonomialILi3EEEEEEE = comdat any

$_ZTSN5boost6detail17sp_counted_impl_pIN6dealii7FETools9FEFactoryINS2_14FE_DGPMonomialILi3EEEEEEE = comdat any

$_ZTIN5boost6detail17sp_counted_impl_pIN6dealii7FETools9FEFactoryINS2_14FE_DGPMonomialILi3EEEEEEE = comdat any

$_ZTVN6dealii7FETools9FEFactoryINS_6FE_DGQILi3ELi3EEEEE = comdat any

$_ZTSN6dealii7FETools9FEFactoryINS_6FE_DGQILi3ELi3EEEEE = comdat any

$_ZTIN6dealii7FETools9FEFactoryINS_6FE_DGQILi3ELi3EEEEE = comdat any

$_ZTVN5boost6detail17sp_counted_impl_pIN6dealii7FETools9FEFactoryINS2_6FE_DGQILi3ELi3EEEEEEE = comdat any

$_ZTSN5boost6detail17sp_counted_impl_pIN6dealii7FETools9FEFactoryINS2_6FE_DGQILi3ELi3EEEEEEE = comdat any

$_ZTIN5boost6detail17sp_counted_impl_pIN6dealii7FETools9FEFactoryINS2_6FE_DGQILi3ELi3EEEEEEE = comdat any

$_ZTVN6dealii7FETools9FEFactoryINS_4FE_QILi3ELi3EEEEE = comdat any

$_ZTSN6dealii7FETools9FEFactoryINS_4FE_QILi3ELi3EEEEE = comdat any

$_ZTIN6dealii7FETools9FEFactoryINS_4FE_QILi3ELi3EEEEE = comdat any

$_ZTVN5boost6detail17sp_counted_impl_pIN6dealii7FETools9FEFactoryINS2_4FE_QILi3ELi3EEEEEEE = comdat any

$_ZTSN5boost6detail17sp_counted_impl_pIN6dealii7FETools9FEFactoryINS2_4FE_QILi3ELi3EEEEEEE = comdat any

$_ZTIN5boost6detail17sp_counted_impl_pIN6dealii7FETools9FEFactoryINS2_4FE_QILi3ELi3EEEEEEE = comdat any

$_ZTVN6dealii6VectorIdEE = comdat any

$_ZTSN6dealii6VectorIdEE = comdat any

$_ZTIN6dealii6VectorIdEE = comdat any

$_ZTVN6dealii19GrowingVectorMemoryINS_6VectorIdEEEE = comdat any

$_ZTSN6dealii19GrowingVectorMemoryINS_6VectorIdEEEE = comdat any

$_ZTSN6dealii12VectorMemoryINS_6VectorIdEEEE = comdat any

$_ZTIN6dealii12VectorMemoryINS_6VectorIdEEEE = comdat any

$_ZTIN6dealii19GrowingVectorMemoryINS_6VectorIdEEEE = comdat any

$_ZTSN6dealii18StandardExceptions13ExcMemoryLeakE = comdat any

$_ZTIN6dealii18StandardExceptions13ExcMemoryLeakE = comdat any

$_ZTVN6dealii18StandardExceptions13ExcMemoryLeakE = comdat any

$_ZTVN5boost6detail17sp_counted_impl_pIN6dealii10FullMatrixIdEEEE = comdat any

$_ZTSN5boost6detail17sp_counted_impl_pIN6dealii10FullMatrixIdEEEE = comdat any

$_ZTIN5boost6detail17sp_counted_impl_pIN6dealii10FullMatrixIdEEEE = comdat any

$_ZTVN6dealii6VectorIfEE = comdat any

$_ZTSN6dealii6VectorIfEE = comdat any

$_ZTIN6dealii6VectorIfEE = comdat any

$_ZZN6dealii8internal12TriaAccessor14Implementation12vertex_indexILi3ELi3EEEjRKNS_12TriaAccessorILi2EXT_EXT0_EEEjE12switch_table = comdat any

$_ZZN6dealii8internal12TriaAccessor14Implementation10line_indexILi3ELi3EEEjRKNS_12TriaAccessorILi3EXT_EXT0_EEEjE12lookup_table = comdat any

$_ZZN6dealii8internal12TriaAccessor14Implementation16line_orientationILi3ELi3EEEbRKNS_12TriaAccessorILi3EXT_EXT0_EEEjE12lookup_table = comdat any

$_ZZN6dealii8internal12TriaAccessor14Implementation16line_orientationILi3ELi3EEEbRKNS_12TriaAccessorILi3EXT_EXT0_EEEjE10bool_table = comdat any

$_ZTSN6dealii18StandardExceptions17ExcNotImplementedE = comdat any

$_ZTIN6dealii18StandardExceptions17ExcNotImplementedE = comdat any

$_ZTVN6dealii18StandardExceptions17ExcNotImplementedE = comdat any

$_ZTVN5boost6detail17sp_counted_impl_pIKN6dealii7FETools13FEFactoryBaseILi3ELi3EEEEE = comdat any

$_ZTSN5boost6detail17sp_counted_impl_pIKN6dealii7FETools13FEFactoryBaseILi3ELi3EEEEE = comdat any

$_ZTIN5boost6detail17sp_counted_impl_pIKN6dealii7FETools13FEFactoryBaseILi3ELi3EEEEE = comdat any

@_ZTVN10__cxxabiv120__si_class_type_infoE = external global ptr
@_ZTSN6dealii13FiniteElementILi3ELi3EE30ExcInterpolationNotImplementedE = linkonce_odr dso_local constant [67 x i8] c"N6dealii13FiniteElementILi3ELi3EE30ExcInterpolationNotImplementedE\00", comdat, align 1
@_ZTIN6dealii13ExceptionBaseE = external constant ptr
@_ZTIN6dealii13FiniteElementILi3ELi3EE30ExcInterpolationNotImplementedE = linkonce_odr dso_local constant { ptr, ptr, ptr } { ptr getelementptr inbounds (ptr, ptr @_ZTVN10__cxxabiv120__si_class_type_infoE, i64 2), ptr @_ZTSN6dealii13FiniteElementILi3ELi3EE30ExcInterpolationNotImplementedE, ptr @_ZTIN6dealii13ExceptionBaseE }, comdat, align 8
@.str = private unnamed_addr constant [5 x i8] c"^dim\00", align 1
@.str.9 = private unnamed_addr constant [3 x i8] c"^d\00", align 1
@_ZTVN10__cxxabiv117__class_type_infoE = external global ptr
@_ZTSNSt7__cxx1112basic_stringIcSt11char_traitsIcESaIcEEE = linkonce_odr dso_local constant [53 x i8] c"NSt7__cxx1112basic_stringIcSt11char_traitsIcESaIcEEE\00", comdat, align 1
@_ZTINSt7__cxx1112basic_stringIcSt11char_traitsIcESaIcEEE = linkonce_odr dso_local constant { ptr, ptr } { ptr getelementptr inbounds (ptr, ptr @_ZTVN10__cxxabiv117__class_type_infoE, i64 2), ptr @_ZTSNSt7__cxx1112basic_stringIcSt11char_traitsIcESaIcEEE }, comdat, align 8
@.str.10 = private unnamed_addr constant [22 x i8] c"source/fe/fe_tools.cc\00", align 1
@.str.11 = private unnamed_addr constant [1 x i8] zeroinitializer, align 1
@.str.12 = private unnamed_addr constant [17 x i8] c"name.size() == 0\00", align 1
@.str.13 = private unnamed_addr constant [89 x i8] c"ExcInvalidFEName(parameter_name + std::string(\22 extra characters after \22 \22end of name\22))\00", align 1
@.str.14 = private unnamed_addr constant [36 x i8] c" extra characters after end of name\00", align 1
@.str.15 = private unnamed_addr constant [6 x i8] c"false\00", align 1
@.str.16 = private unnamed_addr constant [65 x i8] c"ExcInvalidFEName(parameter_name + std::string(\22 at \22) + errline)\00", align 1
@.str.17 = private unnamed_addr constant [5 x i8] c" at \00", align 1
@.str.18 = private unnamed_addr constant [64 x i8] c"abcdefghijklmnopqrstuvwxyzABCDEFGHIJKLMNOPQRSTUVWXYZ0123456789_\00", align 1
@_ZN6dealii12_GLOBAL__N_111fe_name_mapB5cxx11E = internal global %"class.std::map.205" zeroinitializer, align 8
@__dso_handle = external hidden global i8
@_ZTVN6dealii7FETools13FEFactoryBaseILi3ELi3EEE = weak_odr dso_local unnamed_addr constant { [5 x ptr] } { [5 x ptr] [ptr null, ptr @_ZTIN6dealii7FETools13FEFactoryBaseILi3ELi3EEE, ptr @__cxa_pure_virtual, ptr @_ZN6dealii7FETools13FEFactoryBaseILi3ELi3EED2Ev, ptr @_ZN6dealii7FETools13FEFactoryBaseILi3ELi3EED0Ev] }, comdat, align 8
@_ZTSN6dealii7FETools13FEFactoryBaseILi3ELi3EEE = weak_odr dso_local constant [43 x i8] c"N6dealii7FETools13FEFactoryBaseILi3ELi3EEE\00", comdat, align 1
@_ZTIN6dealii7FETools13FEFactoryBaseILi3ELi3EEE = weak_odr dso_local constant { ptr, ptr } { ptr getelementptr inbounds (ptr, ptr @_ZTVN10__cxxabiv117__class_type_infoE, i64 2), ptr @_ZTSN6dealii7FETools13FEFactoryBaseILi3ELi3EEE }, comdat, align 8
@_ZTVN6dealii9TableBaseILi2EdEE = linkonce_odr dso_local unnamed_addr constant { [4 x ptr] } { [4 x ptr] [ptr null, ptr @_ZTIN6dealii9TableBaseILi2EdEE, ptr @_ZN6dealii9TableBaseILi2EdED2Ev, ptr @_ZN6dealii9TableBaseILi2EdED0Ev] }, comdat, align 8
@_ZTSN6dealii9TableBaseILi2EdEE = linkonce_odr dso_local constant [27 x i8] c"N6dealii9TableBaseILi2EdEE\00", comdat, align 1
@_ZTIN6dealii11SubscriptorE = external constant ptr
@_ZTIN6dealii9TableBaseILi2EdEE = linkonce_odr dso_local constant { ptr, ptr, ptr } { ptr getelementptr inbounds (ptr, ptr @_ZTVN10__cxxabiv120__si_class_type_infoE, i64 2), ptr @_ZTSN6dealii9TableBaseILi2EdEE, ptr @_ZTIN6dealii11SubscriptorE }, comdat, align 8
@_ZTVN6dealii9TableBaseILi2EfEE = linkonce_odr dso_local unnamed_addr constant { [4 x ptr] } { [4 x ptr] [ptr null, ptr @_ZTIN6dealii9TableBaseILi2EfEE, ptr @_ZN6dealii9TableBaseILi2EfED2Ev, ptr @_ZN6dealii9TableBaseILi2EfED0Ev] }, comdat, align 8
@_ZTSN6dealii9TableBaseILi2EfEE = linkonce_odr dso_local constant [27 x i8] c"N6dealii9TableBaseILi2EfEE\00", comdat, align 1
@_ZTIN6dealii9TableBaseILi2EfEE = linkonce_odr dso_local constant { ptr, ptr, ptr } { ptr getelementptr inbounds (ptr, ptr @_ZTVN10__cxxabiv120__si_class_type_infoE, i64 2), ptr @_ZTSN6dealii9TableBaseILi2EfEE, ptr @_ZTIN6dealii11SubscriptorE }, comdat, align 8
@_ZTVN6dealii8FEValuesILi3ELi3EEE = linkonce_odr dso_local unnamed_addr constant { [4 x ptr] } { [4 x ptr] [ptr null, ptr @_ZTIN6dealii8FEValuesILi3ELi3EEE, ptr @_ZN6dealii8FEValuesILi3ELi3EED2Ev, ptr @_ZN6dealii8FEValuesILi3ELi3EED0Ev] }, comdat, align 8
@_ZTSN6dealii8FEValuesILi3ELi3EEE = linkonce_odr dso_local constant [29 x i8] c"N6dealii8FEValuesILi3ELi3EEE\00", comdat, align 1
@_ZTVN10__cxxabiv121__vmi_class_type_infoE = external global ptr
@_ZTSN6dealii12FEValuesBaseILi3ELi3EEE = linkonce_odr dso_local constant [34 x i8] c"N6dealii12FEValuesBaseILi3ELi3EEE\00", comdat, align 1
@_ZTSN6dealii12FEValuesDataILi3ELi3EEE = linkonce_odr dso_local constant [34 x i8] c"N6dealii12FEValuesDataILi3ELi3EEE\00", comdat, align 1
@_ZTIN6dealii12FEValuesDataILi3ELi3EEE = linkonce_odr dso_local constant { ptr, ptr } { ptr getelementptr inbounds (ptr, ptr @_ZTVN10__cxxabiv117__class_type_infoE, i64 2), ptr @_ZTSN6dealii12FEValuesDataILi3ELi3EEE }, comdat, align 8
@_ZTIN6dealii12FEValuesBaseILi3ELi3EEE = linkonce_odr dso_local constant { ptr, ptr, i32, i32, ptr, i64, ptr, i64 } { ptr getelementptr inbounds (ptr, ptr @_ZTVN10__cxxabiv121__vmi_class_type_infoE, i64 2), ptr @_ZTSN6dealii12FEValuesBaseILi3ELi3EEE, i32 0, i32 2, ptr @_ZTIN6dealii12FEValuesDataILi3ELi3EEE, i64 18432, ptr @_ZTIN6dealii11SubscriptorE, i64 2 }, comdat, align 8
@_ZTIN6dealii8FEValuesILi3ELi3EEE = linkonce_odr dso_local constant { ptr, ptr, ptr } { ptr getelementptr inbounds (ptr, ptr @_ZTVN10__cxxabiv120__si_class_type_infoE, i64 2), ptr @_ZTSN6dealii8FEValuesILi3ELi3EEE, ptr @_ZTIN6dealii12FEValuesBaseILi3ELi3EEE }, comdat, align 8
@_ZTVN6dealii16MappingCartesianILi3ELi3EEE = linkonce_odr dso_local unnamed_addr constant { [17 x ptr] } { [17 x ptr] [ptr null, ptr @_ZTIN6dealii16MappingCartesianILi3ELi3EEE, ptr @_ZN6dealii7MappingILi3ELi3EED2Ev, ptr @_ZN6dealii16MappingCartesianILi3ELi3EED0Ev, ptr @_ZNK6dealii16MappingCartesianILi3ELi3EE27transform_unit_to_real_cellERKNS_12TriaIteratorINS_12CellAccessorILi3ELi3EEEEERKNS_5PointILi3EEE, ptr @_ZNK6dealii16MappingCartesianILi3ELi3EE27transform_real_to_unit_cellERKNS_12TriaIteratorINS_12CellAccessorILi3ELi3EEEEERKNS_5PointILi3EEE, ptr @_ZNK6dealii16MappingCartesianILi3ELi3EE9transformENS_11VectorSliceIKSt6vectorINS_6TensorILi1ELi3EEESaIS5_EEEENS2_IS7_EERKNS_7MappingILi3ELi3EE16InternalDataBaseENS_11MappingTypeE, ptr @_ZNK6dealii16MappingCartesianILi3ELi3EE9transformENS_11VectorSliceIKSt6vectorINS_6TensorILi2ELi3EEESaIS5_EEEENS2_IS7_EERKNS_7MappingILi3ELi3EE16InternalDataBaseENS_11MappingTypeE, ptr @_ZNK6dealii16MappingCartesianILi3ELi3EE5cloneEv, ptr @_ZNK6dealii16MappingCartesianILi3ELi3EE11update_onceENS_11UpdateFlagsE, ptr @_ZNK6dealii16MappingCartesianILi3ELi3EE11update_eachENS_11UpdateFlagsE, ptr @_ZNK6dealii16MappingCartesianILi3ELi3EE8get_dataENS_11UpdateFlagsERKNS_10QuadratureILi3EEE, ptr @_ZNK6dealii16MappingCartesianILi3ELi3EE13get_face_dataENS_11UpdateFlagsERKNS_10QuadratureILi2EEE, ptr @_ZNK6dealii16MappingCartesianILi3ELi3EE16get_subface_dataENS_11UpdateFlagsERKNS_10QuadratureILi2EEE, ptr @_ZNK6dealii16MappingCartesianILi3ELi3EE14fill_fe_valuesERKNS_12TriaIteratorINS_12CellAccessorILi3ELi3EEEEERKNS_10QuadratureILi3EEERNS_7MappingILi3ELi3EE16InternalDataBaseERSt6vectorINS_5PointILi3EEESaISI_EERSG_IdSaIdEERSG_INS_6TensorILi2ELi3EEESaISQ_EERSG_INSP_ILi3ELi3EEESaISU_EEST_SL_RNS_14CellSimilarity10SimilarityE, ptr @_ZNK6dealii16MappingCartesianILi3ELi3EE19fill_fe_face_valuesERKNS_12TriaIteratorINS_12CellAccessorILi3ELi3EEEEEjRKNS_10QuadratureILi2EEERNS_7MappingILi3ELi3EE16InternalDataBaseERSt6vectorINS_5PointILi3EEESaISI_EERSG_IdSaIdEERSG_INS_6TensorILi1ELi3EEESaISQ_EESL_, ptr @_ZNK6dealii16MappingCartesianILi3ELi3EE22fill_fe_subface_valuesERKNS_12TriaIteratorINS_12CellAccessorILi3ELi3EEEEEjjRKNS_10QuadratureILi2EEERNS_7MappingILi3ELi3EE16InternalDataBaseERSt6vectorINS_5PointILi3EEESaISI_EERSG_IdSaIdEERSG_INS_6TensorILi1ELi3EEESaISQ_EESL_] }, comdat, align 8
@_ZTSN6dealii16MappingCartesianILi3ELi3EEE = linkonce_odr dso_local constant [38 x i8] c"N6dealii16MappingCartesianILi3ELi3EEE\00", comdat, align 1
@_ZTSN6dealii7MappingILi3ELi3EEE = linkonce_odr dso_local constant [28 x i8] c"N6dealii7MappingILi3ELi3EEE\00", comdat, align 1
@_ZTIN6dealii7MappingILi3ELi3EEE = linkonce_odr dso_local constant { ptr, ptr, ptr } { ptr getelementptr inbounds (ptr, ptr @_ZTVN10__cxxabiv120__si_class_type_infoE, i64 2), ptr @_ZTSN6dealii7MappingILi3ELi3EEE, ptr @_ZTIN6dealii11SubscriptorE }, comdat, align 8
@_ZTIN6dealii16MappingCartesianILi3ELi3EEE = linkonce_odr dso_local constant { ptr, ptr, ptr } { ptr getelementptr inbounds (ptr, ptr @_ZTVN10__cxxabiv120__si_class_type_infoE, i64 2), ptr @_ZTSN6dealii16MappingCartesianILi3ELi3EEE, ptr @_ZTIN6dealii7MappingILi3ELi3EEE }, comdat, align 8
@_ZTVN6dealii11HouseholderIdEE = linkonce_odr dso_local unnamed_addr constant { [4 x ptr] } { [4 x ptr] [ptr null, ptr @_ZTIN6dealii11HouseholderIdEE, ptr @_ZN6dealii11HouseholderIdED2Ev, ptr @_ZN6dealii11HouseholderIdED0Ev] }, comdat, align 8
@_ZTSN6dealii11HouseholderIdEE = linkonce_odr dso_local constant [26 x i8] c"N6dealii11HouseholderIdEE\00", comdat, align 1
@_ZTSN6dealii10FullMatrixIdEE = linkonce_odr dso_local constant [25 x i8] c"N6dealii10FullMatrixIdEE\00", comdat, align 1
@_ZTSN6dealii5TableILi2EdEE = linkonce_odr dso_local constant [23 x i8] c"N6dealii5TableILi2EdEE\00", comdat, align 1
@_ZTIN6dealii5TableILi2EdEE = linkonce_odr dso_local constant { ptr, ptr, ptr } { ptr getelementptr inbounds (ptr, ptr @_ZTVN10__cxxabiv120__si_class_type_infoE, i64 2), ptr @_ZTSN6dealii5TableILi2EdEE, ptr @_ZTIN6dealii9TableBaseILi2EdEE }, comdat, align 8
@_ZTIN6dealii10FullMatrixIdEE = linkonce_odr dso_local constant { ptr, ptr, ptr } { ptr getelementptr inbounds (ptr, ptr @_ZTVN10__cxxabiv120__si_class_type_infoE, i64 2), ptr @_ZTSN6dealii10FullMatrixIdEE, ptr @_ZTIN6dealii5TableILi2EdEE }, comdat, align 8
@_ZTIN6dealii11HouseholderIdEE = linkonce_odr dso_local constant { ptr, ptr, i32, i32, ptr, i64 } { ptr getelementptr inbounds (ptr, ptr @_ZTVN10__cxxabiv121__vmi_class_type_infoE, i64 2), ptr @_ZTSN6dealii11HouseholderIdEE, i32 0, i32 1, ptr @_ZTIN6dealii10FullMatrixIdEE, i64 0 }, comdat, align 8
@_ZTVN6dealii16ConstraintMatrixE = linkonce_odr dso_local unnamed_addr constant { [4 x ptr] } { [4 x ptr] [ptr null, ptr @_ZTIN6dealii16ConstraintMatrixE, ptr @_ZN6dealii16ConstraintMatrixD2Ev, ptr @_ZN6dealii16ConstraintMatrixD0Ev] }, comdat, align 8
@_ZTSN6dealii16ConstraintMatrixE = linkonce_odr dso_local constant [28 x i8] c"N6dealii16ConstraintMatrixE\00", comdat, align 1
@_ZTIN6dealii16ConstraintMatrixE = linkonce_odr dso_local constant { ptr, ptr, ptr } { ptr getelementptr inbounds (ptr, ptr @_ZTVN10__cxxabiv120__si_class_type_infoE, i64 2), ptr @_ZTSN6dealii16ConstraintMatrixE, ptr @_ZTIN6dealii11SubscriptorE }, comdat, align 8
@_ZTVN6dealii7FETools16ExcInvalidFENameE = linkonce_odr dso_local unnamed_addr constant { [6 x ptr] } { [6 x ptr] [ptr null, ptr @_ZTIN6dealii7FETools16ExcInvalidFENameE, ptr @_ZN6dealii7FETools16ExcInvalidFENameD2Ev, ptr @_ZN6dealii7FETools16ExcInvalidFENameD0Ev, ptr @_ZNK6dealii13ExceptionBase4whatEv, ptr @_ZNK6dealii7FETools16ExcInvalidFEName10print_infoERSo] }, comdat, align 8
@_ZTSN6dealii7FETools16ExcInvalidFENameE = linkonce_odr dso_local constant [36 x i8] c"N6dealii7FETools16ExcInvalidFENameE\00", comdat, align 1
@_ZTIN6dealii7FETools16ExcInvalidFENameE = linkonce_odr dso_local constant { ptr, ptr, ptr } { ptr getelementptr inbounds (ptr, ptr @_ZTVN10__cxxabiv120__si_class_type_infoE, i64 2), ptr @_ZTSN6dealii7FETools16ExcInvalidFENameE, ptr @_ZTIN6dealii13ExceptionBaseE }, comdat, align 8
@.str.20 = private unnamed_addr constant [53 x i8] c"Can't re-generate a finite element from the string '\00", align 1
@.str.21 = private unnamed_addr constant [3 x i8] c"'.\00", align 1
@.str.22 = private unnamed_addr constant [18 x i8] c"FE_Q_Hierarchical\00", align 1
@.str.23 = private unnamed_addr constant [7 x i8] c"FE_ABF\00", align 1
@.str.24 = private unnamed_addr constant [17 x i8] c"FE_RaviartThomas\00", align 1
@.str.25 = private unnamed_addr constant [22 x i8] c"FE_RaviartThomasNodal\00", align 1
@.str.26 = private unnamed_addr constant [11 x i8] c"FE_Nedelec\00", align 1
@.str.27 = private unnamed_addr constant [20 x i8] c"FE_DGPNonparametric\00", align 1
@.str.28 = private unnamed_addr constant [7 x i8] c"FE_DGP\00", align 1
@.str.29 = private unnamed_addr constant [15 x i8] c"FE_DGPMonomial\00", align 1
@.str.30 = private unnamed_addr constant [7 x i8] c"FE_DGQ\00", align 1
@.str.31 = private unnamed_addr constant [21 x i8] c"FE_DGQArbitraryNodes\00", align 1
@_ZTVN6dealii7FETools9FEFactoryINS_17FE_Q_HierarchicalILi3EEEEE = linkonce_odr dso_local unnamed_addr constant { [5 x ptr] } { [5 x ptr] [ptr null, ptr @_ZTIN6dealii7FETools9FEFactoryINS_17FE_Q_HierarchicalILi3EEEEE, ptr @_ZNK6dealii7FETools9FEFactoryINS_17FE_Q_HierarchicalILi3EEEE3getEj, ptr @_ZN6dealii7FETools13FEFactoryBaseILi3ELi3EED2Ev, ptr @_ZN6dealii7FETools9FEFactoryINS_17FE_Q_HierarchicalILi3EEEED0Ev] }, comdat, align 8
@_ZTSN6dealii7FETools9FEFactoryINS_17FE_Q_HierarchicalILi3EEEEE = linkonce_odr dso_local constant [59 x i8] c"N6dealii7FETools9FEFactoryINS_17FE_Q_HierarchicalILi3EEEEE\00", comdat, align 1
@_ZTIN6dealii7FETools9FEFactoryINS_17FE_Q_HierarchicalILi3EEEEE = linkonce_odr dso_local constant { ptr, ptr, ptr } { ptr getelementptr inbounds (ptr, ptr @_ZTVN10__cxxabiv120__si_class_type_infoE, i64 2), ptr @_ZTSN6dealii7FETools9FEFactoryINS_17FE_Q_HierarchicalILi3EEEEE, ptr @_ZTIN6dealii7FETools13FEFactoryBaseILi3ELi3EEE }, comdat, align 8
@_ZTVN5boost6detail17sp_counted_impl_pIN6dealii7FETools9FEFactoryINS2_17FE_Q_HierarchicalILi3EEEEEEE = linkonce_odr dso_local unnamed_addr constant { [7 x ptr] } { [7 x ptr] [ptr null, ptr @_ZTIN5boost6detail17sp_counted_impl_pIN6dealii7FETools9FEFactoryINS2_17FE_Q_HierarchicalILi3EEEEEEE, ptr @_ZN5boost6detail15sp_counted_baseD2Ev, ptr @_ZN5boost6detail17sp_counted_impl_pIN6dealii7FETools9FEFactoryINS2_17FE_Q_HierarchicalILi3EEEEEED0Ev, ptr @_ZN5boost6detail17sp_counted_impl_pIN6dealii7FETools9FEFactoryINS2_17FE_Q_HierarchicalILi3EEEEEE7disposeEv, ptr @_ZN5boost6detail15sp_counted_base7destroyEv, ptr @_ZN5boost6detail17sp_counted_impl_pIN6dealii7FETools9FEFactoryINS2_17FE_Q_HierarchicalILi3EEEEEE11get_deleterERKSt9type_info] }, comdat, align 8
@_ZTSN5boost6detail17sp_counted_impl_pIN6dealii7FETools9FEFactoryINS2_17FE_Q_HierarchicalILi3EEEEEEE = linkonce_odr dso_local constant [96 x i8] c"N5boost6detail17sp_counted_impl_pIN6dealii7FETools9FEFactoryINS2_17FE_Q_HierarchicalILi3EEEEEEE\00", comdat, align 1
@_ZTSN5boost6detail15sp_counted_baseE = linkonce_odr dso_local constant [33 x i8] c"N5boost6detail15sp_counted_baseE\00", comdat, align 1
@_ZTIN5boost6detail15sp_counted_baseE = linkonce_odr dso_local constant { ptr, ptr } { ptr getelementptr inbounds (ptr, ptr @_ZTVN10__cxxabiv117__class_type_infoE, i64 2), ptr @_ZTSN5boost6detail15sp_counted_baseE }, comdat, align 8
@_ZTIN5boost6detail17sp_counted_impl_pIN6dealii7FETools9FEFactoryINS2_17FE_Q_HierarchicalILi3EEEEEEE = linkonce_odr dso_local constant { ptr, ptr, ptr } { ptr getelementptr inbounds (ptr, ptr @_ZTVN10__cxxabiv120__si_class_type_infoE, i64 2), ptr @_ZTSN5boost6detail17sp_counted_impl_pIN6dealii7FETools9FEFactoryINS2_17FE_Q_HierarchicalILi3EEEEEEE, ptr @_ZTIN5boost6detail15sp_counted_baseE }, comdat, align 8
@_ZTVN6dealii7FETools9FEFactoryINS_16FE_RaviartThomasILi3EEEEE = linkonce_odr dso_local unnamed_addr constant { [5 x ptr] } { [5 x ptr] [ptr null, ptr @_ZTIN6dealii7FETools9FEFactoryINS_16FE_RaviartThomasILi3EEEEE, ptr @_ZNK6dealii7FETools9FEFactoryINS_16FE_RaviartThomasILi3EEEE3getEj, ptr @_ZN6dealii7FETools13FEFactoryBaseILi3ELi3EED2Ev, ptr @_ZN6dealii7FETools9FEFactoryINS_16FE_RaviartThomasILi3EEEED0Ev] }, comdat, align 8
@_ZTSN6dealii7FETools9FEFactoryINS_16FE_RaviartThomasILi3EEEEE = linkonce_odr dso_local constant [58 x i8] c"N6dealii7FETools9FEFactoryINS_16FE_RaviartThomasILi3EEEEE\00", comdat, align 1
@_ZTIN6dealii7FETools9FEFactoryINS_16FE_RaviartThomasILi3EEEEE = linkonce_odr dso_local constant { ptr, ptr, ptr } { ptr getelementptr inbounds (ptr, ptr @_ZTVN10__cxxabiv120__si_class_type_infoE, i64 2), ptr @_ZTSN6dealii7FETools9FEFactoryINS_16FE_RaviartThomasILi3EEEEE, ptr @_ZTIN6dealii7FETools13FEFactoryBaseILi3ELi3EEE }, comdat, align 8
@_ZTVN5boost6detail17sp_counted_impl_pIN6dealii7FETools9FEFactoryINS2_16FE_RaviartThomasILi3EEEEEEE = linkonce_odr dso_local unnamed_addr constant { [7 x ptr] } { [7 x ptr] [ptr null, ptr @_ZTIN5boost6detail17sp_counted_impl_pIN6dealii7FETools9FEFactoryINS2_16FE_RaviartThomasILi3EEEEEEE, ptr @_ZN5boost6detail15sp_counted_baseD2Ev, ptr @_ZN5boost6detail17sp_counted_impl_pIN6dealii7FETools9FEFactoryINS2_16FE_RaviartThomasILi3EEEEEED0Ev, ptr @_ZN5boost6detail17sp_counted_impl_pIN6dealii7FETools9FEFactoryINS2_16FE_RaviartThomasILi3EEEEEE7disposeEv, ptr @_ZN5boost6detail15sp_counted_base7destroyEv, ptr @_ZN5boost6detail17sp_counted_impl_pIN6dealii7FETools9FEFactoryINS2_16FE_RaviartThomasILi3EEEEEE11get_deleterERKSt9type_info] }, comdat, align 8
@_ZTSN5boost6detail17sp_counted_impl_pIN6dealii7FETools9FEFactoryINS2_16FE_RaviartThomasILi3EEEEEEE = linkonce_odr dso_local constant [95 x i8] c"N5boost6detail17sp_counted_impl_pIN6dealii7FETools9FEFactoryINS2_16FE_RaviartThomasILi3EEEEEEE\00", comdat, align 1
@_ZTIN5boost6detail17sp_counted_impl_pIN6dealii7FETools9FEFactoryINS2_16FE_RaviartThomasILi3EEEEEEE = linkonce_odr dso_local constant { ptr, ptr, ptr } { ptr getelementptr inbounds (ptr, ptr @_ZTVN10__cxxabiv120__si_class_type_infoE, i64 2), ptr @_ZTSN5boost6detail17sp_counted_impl_pIN6dealii7FETools9FEFactoryINS2_16FE_RaviartThomasILi3EEEEEEE, ptr @_ZTIN5boost6detail15sp_counted_baseE }, comdat, align 8
@_ZTVN6dealii7FETools9FEFactoryINS_21FE_RaviartThomasNodalILi3EEEEE = linkonce_odr dso_local unnamed_addr constant { [5 x ptr] } { [5 x ptr] [ptr null, ptr @_ZTIN6dealii7FETools9FEFactoryINS_21FE_RaviartThomasNodalILi3EEEEE, ptr @_ZNK6dealii7FETools9FEFactoryINS_21FE_RaviartThomasNodalILi3EEEE3getEj, ptr @_ZN6dealii7FETools13FEFactoryBaseILi3ELi3EED2Ev, ptr @_ZN6dealii7FETools9FEFactoryINS_21FE_RaviartThomasNodalILi3EEEED0Ev] }, comdat, align 8
@_ZTSN6dealii7FETools9FEFactoryINS_21FE_RaviartThomasNodalILi3EEEEE = linkonce_odr dso_local constant [63 x i8] c"N6dealii7FETools9FEFactoryINS_21FE_RaviartThomasNodalILi3EEEEE\00", comdat, align 1
@_ZTIN6dealii7FETools9FEFactoryINS_21FE_RaviartThomasNodalILi3EEEEE = linkonce_odr dso_local constant { ptr, ptr, ptr } { ptr getelementptr inbounds (ptr, ptr @_ZTVN10__cxxabiv120__si_class_type_infoE, i64 2), ptr @_ZTSN6dealii7FETools9FEFactoryINS_21FE_RaviartThomasNodalILi3EEEEE, ptr @_ZTIN6dealii7FETools13FEFactoryBaseILi3ELi3EEE }, comdat, align 8
@_ZTVN5boost6detail17sp_counted_impl_pIN6dealii7FETools9FEFactoryINS2_21FE_RaviartThomasNodalILi3EEEEEEE = linkonce_odr dso_local unnamed_addr constant { [7 x ptr] } { [7 x ptr] [ptr null, ptr @_ZTIN5boost6detail17sp_counted_impl_pIN6dealii7FETools9FEFactoryINS2_21FE_RaviartThomasNodalILi3EEEEEEE, ptr @_ZN5boost6detail15sp_counted_baseD2Ev, ptr @_ZN5boost6detail17sp_counted_impl_pIN6dealii7FETools9FEFactoryINS2_21FE_RaviartThomasNodalILi3EEEEEED0Ev, ptr @_ZN5boost6detail17sp_counted_impl_pIN6dealii7FETools9FEFactoryINS2_21FE_RaviartThomasNodalILi3EEEEEE7disposeEv, ptr @_ZN5boost6detail15sp_counted_base7destroyEv, ptr @_ZN5boost6detail17sp_counted_impl_pIN6dealii7FETools9FEFactoryINS2_21FE_RaviartThomasNodalILi3EEEEEE11get_deleterERKSt9type_info] }, comdat, align 8
@_ZTSN5boost6detail17sp_counted_impl_pIN6dealii7FETools9FEFactoryINS2_21FE_RaviartThomasNodalILi3EEEEEEE = linkonce_odr dso_local constant [100 x i8] c"N5boost6detail17sp_counted_impl_pIN6dealii7FETools9FEFactoryINS2_21FE_RaviartThomasNodalILi3EEEEEEE\00", comdat, align 1
@_ZTIN5boost6detail17sp_counted_impl_pIN6dealii7FETools9FEFactoryINS2_21FE_RaviartThomasNodalILi3EEEEEEE = linkonce_odr dso_local constant { ptr, ptr, ptr } { ptr getelementptr inbounds (ptr, ptr @_ZTVN10__cxxabiv120__si_class_type_infoE, i64 2), ptr @_ZTSN5boost6detail17sp_counted_impl_pIN6dealii7FETools9FEFactoryINS2_21FE_RaviartThomasNodalILi3EEEEEEE, ptr @_ZTIN5boost6detail15sp_counted_baseE }, comdat, align 8
@_ZTVN6dealii7FETools9FEFactoryINS_10FE_NedelecILi3ELi3EEEEE = linkonce_odr dso_local unnamed_addr constant { [5 x ptr] } { [5 x ptr] [ptr null, ptr @_ZTIN6dealii7FETools9FEFactoryINS_10FE_NedelecILi3ELi3EEEEE, ptr @_ZNK6dealii7FETools9FEFactoryINS_10FE_NedelecILi3ELi3EEEE3getEj, ptr @_ZN6dealii7FETools13FEFactoryBaseILi3ELi3EED2Ev, ptr @_ZN6dealii7FETools9FEFactoryINS_10FE_NedelecILi3ELi3EEEED0Ev] }, comdat, align 8
@_ZTSN6dealii7FETools9FEFactoryINS_10FE_NedelecILi3ELi3EEEEE = linkonce_odr dso_local constant [56 x i8] c"N6dealii7FETools9FEFactoryINS_10FE_NedelecILi3ELi3EEEEE\00", comdat, align 1
@_ZTIN6dealii7FETools9FEFactoryINS_10FE_NedelecILi3ELi3EEEEE = linkonce_odr dso_local constant { ptr, ptr, ptr } { ptr getelementptr inbounds (ptr, ptr @_ZTVN10__cxxabiv120__si_class_type_infoE, i64 2), ptr @_ZTSN6dealii7FETools9FEFactoryINS_10FE_NedelecILi3ELi3EEEEE, ptr @_ZTIN6dealii7FETools13FEFactoryBaseILi3ELi3EEE }, comdat, align 8
@_ZTVN5boost6detail17sp_counted_impl_pIN6dealii7FETools9FEFactoryINS2_10FE_NedelecILi3ELi3EEEEEEE = linkonce_odr dso_local unnamed_addr constant { [7 x ptr] } { [7 x ptr] [ptr null, ptr @_ZTIN5boost6detail17sp_counted_impl_pIN6dealii7FETools9FEFactoryINS2_10FE_NedelecILi3ELi3EEEEEEE, ptr @_ZN5boost6detail15sp_counted_baseD2Ev, ptr @_ZN5boost6detail17sp_counted_impl_pIN6dealii7FETools9FEFactoryINS2_10FE_NedelecILi3ELi3EEEEEED0Ev, ptr @_ZN5boost6detail17sp_counted_impl_pIN6dealii7FETools9FEFactoryINS2_10FE_NedelecILi3ELi3EEEEEE7disposeEv, ptr @_ZN5boost6detail15sp_counted_base7destroyEv, ptr @_ZN5boost6detail17sp_counted_impl_pIN6dealii7FETools9FEFactoryINS2_10FE_NedelecILi3ELi3EEEEEE11get_deleterERKSt9type_info] }, comdat, align 8
@_ZTSN5boost6detail17sp_counted_impl_pIN6dealii7FETools9FEFactoryINS2_10FE_NedelecILi3ELi3EEEEEEE = linkonce_odr dso_local constant [93 x i8] c"N5boost6detail17sp_counted_impl_pIN6dealii7FETools9FEFactoryINS2_10FE_NedelecILi3ELi3EEEEEEE\00", comdat, align 1
@_ZTIN5boost6detail17sp_counted_impl_pIN6dealii7FETools9FEFactoryINS2_10FE_NedelecILi3ELi3EEEEEEE = linkonce_odr dso_local constant { ptr, ptr, ptr } { ptr getelementptr inbounds (ptr, ptr @_ZTVN10__cxxabiv120__si_class_type_infoE, i64 2), ptr @_ZTSN5boost6detail17sp_counted_impl_pIN6dealii7FETools9FEFactoryINS2_10FE_NedelecILi3ELi3EEEEEEE, ptr @_ZTIN5boost6detail15sp_counted_baseE }, comdat, align 8
@_ZTVN6dealii7FETools9FEFactoryINS_19FE_DGPNonparametricILi3ELi3EEEEE = linkonce_odr dso_local unnamed_addr constant { [5 x ptr] } { [5 x ptr] [ptr null, ptr @_ZTIN6dealii7FETools9FEFactoryINS_19FE_DGPNonparametricILi3ELi3EEEEE, ptr @_ZNK6dealii7FETools9FEFactoryINS_19FE_DGPNonparametricILi3ELi3EEEE3getEj, ptr @_ZN6dealii7FETools13FEFactoryBaseILi3ELi3EED2Ev, ptr @_ZN6dealii7FETools9FEFactoryINS_19FE_DGPNonparametricILi3ELi3EEEED0Ev] }, comdat, align 8
@_ZTSN6dealii7FETools9FEFactoryINS_19FE_DGPNonparametricILi3ELi3EEEEE = linkonce_odr dso_local constant [65 x i8] c"N6dealii7FETools9FEFactoryINS_19FE_DGPNonparametricILi3ELi3EEEEE\00", comdat, align 1
@_ZTIN6dealii7FETools9FEFactoryINS_19FE_DGPNonparametricILi3ELi3EEEEE = linkonce_odr dso_local constant { ptr, ptr, ptr } { ptr getelementptr inbounds (ptr, ptr @_ZTVN10__cxxabiv120__si_class_type_infoE, i64 2), ptr @_ZTSN6dealii7FETools9FEFactoryINS_19FE_DGPNonparametricILi3ELi3EEEEE, ptr @_ZTIN6dealii7FETools13FEFactoryBaseILi3ELi3EEE }, comdat, align 8
@_ZTVN5boost6detail17sp_counted_impl_pIN6dealii7FETools9FEFactoryINS2_19FE_DGPNonparametricILi3ELi3EEEEEEE = linkonce_odr dso_local unnamed_addr constant { [7 x ptr] } { [7 x ptr] [ptr null, ptr @_ZTIN5boost6detail17sp_counted_impl_pIN6dealii7FETools9FEFactoryINS2_19FE_DGPNonparametricILi3ELi3EEEEEEE, ptr @_ZN5boost6detail15sp_counted_baseD2Ev, ptr @_ZN5boost6detail17sp_counted_impl_pIN6dealii7FETools9FEFactoryINS2_19FE_DGPNonparametricILi3ELi3EEEEEED0Ev, ptr @_ZN5boost6detail17sp_counted_impl_pIN6dealii7FETools9FEFactoryINS2_19FE_DGPNonparametricILi3ELi3EEEEEE7disposeEv, ptr @_ZN5boost6detail15sp_counted_base7destroyEv, ptr @_ZN5boost6detail17sp_counted_impl_pIN6dealii7FETools9FEFactoryINS2_19FE_DGPNonparametricILi3ELi3EEEEEE11get_deleterERKSt9type_info] }, comdat, align 8
@_ZTSN5boost6detail17sp_counted_impl_pIN6dealii7FETools9FEFactoryINS2_19FE_DGPNonparametricILi3ELi3EEEEEEE = linkonce_odr dso_local constant [102 x i8] c"N5boost6detail17sp_counted_impl_pIN6dealii7FETools9FEFactoryINS2_19FE_DGPNonparametricILi3ELi3EEEEEEE\00", comdat, align 1
@_ZTIN5boost6detail17sp_counted_impl_pIN6dealii7FETools9FEFactoryINS2_19FE_DGPNonparametricILi3ELi3EEEEEEE = linkonce_odr dso_local constant { ptr, ptr, ptr } { ptr getelementptr inbounds (ptr, ptr @_ZTVN10__cxxabiv120__si_class_type_infoE, i64 2), ptr @_ZTSN5boost6detail17sp_counted_impl_pIN6dealii7FETools9FEFactoryINS2_19FE_DGPNonparametricILi3ELi3EEEEEEE, ptr @_ZTIN5boost6detail15sp_counted_baseE }, comdat, align 8
@_ZTVN6dealii7FETools9FEFactoryINS_6FE_DGPILi3ELi3EEEEE = linkonce_odr dso_local unnamed_addr constant { [5 x ptr] } { [5 x ptr] [ptr null, ptr @_ZTIN6dealii7FETools9FEFactoryINS_6FE_DGPILi3ELi3EEEEE, ptr @_ZNK6dealii7FETools9FEFactoryINS_6FE_DGPILi3ELi3EEEE3getEj, ptr @_ZN6dealii7FETools13FEFactoryBaseILi3ELi3EED2Ev, ptr @_ZN6dealii7FETools9FEFactoryINS_6FE_DGPILi3ELi3EEEED0Ev] }, comdat, align 8
@_ZTSN6dealii7FETools9FEFactoryINS_6FE_DGPILi3ELi3EEEEE = linkonce_odr dso_local constant [51 x i8] c"N6dealii7FETools9FEFactoryINS_6FE_DGPILi3ELi3EEEEE\00", comdat, align 1
@_ZTIN6dealii7FETools9FEFactoryINS_6FE_DGPILi3ELi3EEEEE = linkonce_odr dso_local constant { ptr, ptr, ptr } { ptr getelementptr inbounds (ptr, ptr @_ZTVN10__cxxabiv120__si_class_type_infoE, i64 2), ptr @_ZTSN6dealii7FETools9FEFactoryINS_6FE_DGPILi3ELi3EEEEE, ptr @_ZTIN6dealii7FETools13FEFactoryBaseILi3ELi3EEE }, comdat, align 8
@_ZTVN5boost6detail17sp_counted_impl_pIN6dealii7FETools9FEFactoryINS2_6FE_DGPILi3ELi3EEEEEEE = linkonce_odr dso_local unnamed_addr constant { [7 x ptr] } { [7 x ptr] [ptr null, ptr @_ZTIN5boost6detail17sp_counted_impl_pIN6dealii7FETools9FEFactoryINS2_6FE_DGPILi3ELi3EEEEEEE, ptr @_ZN5boost6detail15sp_counted_baseD2Ev, ptr @_ZN5boost6detail17sp_counted_impl_pIN6dealii7FETools9FEFactoryINS2_6FE_DGPILi3ELi3EEEEEED0Ev, ptr @_ZN5boost6detail17sp_counted_impl_pIN6dealii7FETools9FEFactoryINS2_6FE_DGPILi3ELi3EEEEEE7disposeEv, ptr @_ZN5boost6detail15sp_counted_base7destroyEv, ptr @_ZN5boost6detail17sp_counted_impl_pIN6dealii7FETools9FEFactoryINS2_6FE_DGPILi3ELi3EEEEEE11get_deleterERKSt9type_info] }, comdat, align 8
@_ZTSN5boost6detail17sp_counted_impl_pIN6dealii7FETools9FEFactoryINS2_6FE_DGPILi3ELi3EEEEEEE = linkonce_odr dso_local constant [88 x i8] c"N5boost6detail17sp_counted_impl_pIN6dealii7FETools9FEFactoryINS2_6FE_DGPILi3ELi3EEEEEEE\00", comdat, align 1
@_ZTIN5boost6detail17sp_counted_impl_pIN6dealii7FETools9FEFactoryINS2_6FE_DGPILi3ELi3EEEEEEE = linkonce_odr dso_local constant { ptr, ptr, ptr } { ptr getelementptr inbounds (ptr, ptr @_ZTVN10__cxxabiv120__si_class_type_infoE, i64 2), ptr @_ZTSN5boost6detail17sp_counted_impl_pIN6dealii7FETools9FEFactoryINS2_6FE_DGPILi3ELi3EEEEEEE, ptr @_ZTIN5boost6detail15sp_counted_baseE }, comdat, align 8
@_ZTVN6dealii7FETools9FEFactoryINS_14FE_DGPMonomialILi3EEEEE = linkonce_odr dso_local unnamed_addr constant { [5 x ptr] } { [5 x ptr] [ptr null, ptr @_ZTIN6dealii7FETools9FEFactoryINS_14FE_DGPMonomialILi3EEEEE, ptr @_ZNK6dealii7FETools9FEFactoryINS_14FE_DGPMonomialILi3EEEE3getEj, ptr @_ZN6dealii7FETools13FEFactoryBaseILi3ELi3EED2Ev, ptr @_ZN6dealii7FETools9FEFactoryINS_14FE_DGPMonomialILi3EEEED0Ev] }, comdat, align 8
@_ZTSN6dealii7FETools9FEFactoryINS_14FE_DGPMonomialILi3EEEEE = linkonce_odr dso_local constant [56 x i8] c"N6dealii7FETools9FEFactoryINS_14FE_DGPMonomialILi3EEEEE\00", comdat, align 1
@_ZTIN6dealii7FETools9FEFactoryINS_14FE_DGPMonomialILi3EEEEE = linkonce_odr dso_local constant { ptr, ptr, ptr } { ptr getelementptr inbounds (ptr, ptr @_ZTVN10__cxxabiv120__si_class_type_infoE, i64 2), ptr @_ZTSN6dealii7FETools9FEFactoryINS_14FE_DGPMonomialILi3EEEEE, ptr @_ZTIN6dealii7FETools13FEFactoryBaseILi3ELi3EEE }, comdat, align 8
@_ZTVN5boost6detail17sp_counted_impl_pIN6dealii7FETools9FEFactoryINS2_14FE_DGPMonomialILi3EEEEEEE = linkonce_odr dso_local unnamed_addr constant { [7 x ptr] } { [7 x ptr] [ptr null, ptr @_ZTIN5boost6detail17sp_counted_impl_pIN6dealii7FETools9FEFactoryINS2_14FE_DGPMonomialILi3EEEEEEE, ptr @_ZN5boost6detail15sp_counted_baseD2Ev, ptr @_ZN5boost6detail17sp_counted_impl_pIN6dealii7FETools9FEFactoryINS2_14FE_DGPMonomialILi3EEEEEED0Ev, ptr @_ZN5boost6detail17sp_counted_impl_pIN6dealii7FETools9FEFactoryINS2_14FE_DGPMonomialILi3EEEEEE7disposeEv, ptr @_ZN5boost6detail15sp_counted_base7destroyEv, ptr @_ZN5boost6detail17sp_counted_impl_pIN6dealii7FETools9FEFactoryINS2_14FE_DGPMonomialILi3EEEEEE11get_deleterERKSt9type_info] }, comdat, align 8
@_ZTSN5boost6detail17sp_counted_impl_pIN6dealii7FETools9FEFactoryINS2_14FE_DGPMonomialILi3EEEEEEE = linkonce_odr dso_local constant [93 x i8] c"N5boost6detail17sp_counted_impl_pIN6dealii7FETools9FEFactoryINS2_14FE_DGPMonomialILi3EEEEEEE\00", comdat, align 1
@_ZTIN5boost6detail17sp_counted_impl_pIN6dealii7FETools9FEFactoryINS2_14FE_DGPMonomialILi3EEEEEEE = linkonce_odr dso_local constant { ptr, ptr, ptr } { ptr getelementptr inbounds (ptr, ptr @_ZTVN10__cxxabiv120__si_class_type_infoE, i64 2), ptr @_ZTSN5boost6detail17sp_counted_impl_pIN6dealii7FETools9FEFactoryINS2_14FE_DGPMonomialILi3EEEEEEE, ptr @_ZTIN5boost6detail15sp_counted_baseE }, comdat, align 8
@_ZTVN6dealii7FETools9FEFactoryINS_6FE_DGQILi3ELi3EEEEE = linkonce_odr dso_local unnamed_addr constant { [5 x ptr] } { [5 x ptr] [ptr null, ptr @_ZTIN6dealii7FETools9FEFactoryINS_6FE_DGQILi3ELi3EEEEE, ptr @_ZNK6dealii7FETools9FEFactoryINS_6FE_DGQILi3ELi3EEEE3getEj, ptr @_ZN6dealii7FETools13FEFactoryBaseILi3ELi3EED2Ev, ptr @_ZN6dealii7FETools9FEFactoryINS_6FE_DGQILi3ELi3EEEED0Ev] }, comdat, align 8
@_ZTSN6dealii7FETools9FEFactoryINS_6FE_DGQILi3ELi3EEEEE = linkonce_odr dso_local constant [51 x i8] c"N6dealii7FETools9FEFactoryINS_6FE_DGQILi3ELi3EEEEE\00", comdat, align 1
@_ZTIN6dealii7FETools9FEFactoryINS_6FE_DGQILi3ELi3EEEEE = linkonce_odr dso_local constant { ptr, ptr, ptr } { ptr getelementptr inbounds (ptr, ptr @_ZTVN10__cxxabiv120__si_class_type_infoE, i64 2), ptr @_ZTSN6dealii7FETools9FEFactoryINS_6FE_DGQILi3ELi3EEEEE, ptr @_ZTIN6dealii7FETools13FEFactoryBaseILi3ELi3EEE }, comdat, align 8
@_ZTVN5boost6detail17sp_counted_impl_pIN6dealii7FETools9FEFactoryINS2_6FE_DGQILi3ELi3EEEEEEE = linkonce_odr dso_local unnamed_addr constant { [7 x ptr] } { [7 x ptr] [ptr null, ptr @_ZTIN5boost6detail17sp_counted_impl_pIN6dealii7FETools9FEFactoryINS2_6FE_DGQILi3ELi3EEEEEEE, ptr @_ZN5boost6detail15sp_counted_baseD2Ev, ptr @_ZN5boost6detail17sp_counted_impl_pIN6dealii7FETools9FEFactoryINS2_6FE_DGQILi3ELi3EEEEEED0Ev, ptr @_ZN5boost6detail17sp_counted_impl_pIN6dealii7FETools9FEFactoryINS2_6FE_DGQILi3ELi3EEEEEE7disposeEv, ptr @_ZN5boost6detail15sp_counted_base7destroyEv, ptr @_ZN5boost6detail17sp_counted_impl_pIN6dealii7FETools9FEFactoryINS2_6FE_DGQILi3ELi3EEEEEE11get_deleterERKSt9type_info] }, comdat, align 8
@_ZTSN5boost6detail17sp_counted_impl_pIN6dealii7FETools9FEFactoryINS2_6FE_DGQILi3ELi3EEEEEEE = linkonce_odr dso_local constant [88 x i8] c"N5boost6detail17sp_counted_impl_pIN6dealii7FETools9FEFactoryINS2_6FE_DGQILi3ELi3EEEEEEE\00", comdat, align 1
@_ZTIN5boost6detail17sp_counted_impl_pIN6dealii7FETools9FEFactoryINS2_6FE_DGQILi3ELi3EEEEEEE = linkonce_odr dso_local constant { ptr, ptr, ptr } { ptr getelementptr inbounds (ptr, ptr @_ZTVN10__cxxabiv120__si_class_type_infoE, i64 2), ptr @_ZTSN5boost6detail17sp_counted_impl_pIN6dealii7FETools9FEFactoryINS2_6FE_DGQILi3ELi3EEEEEEE, ptr @_ZTIN5boost6detail15sp_counted_baseE }, comdat, align 8
@_ZTVN6dealii7FETools9FEFactoryINS_4FE_QILi3ELi3EEEEE = linkonce_odr dso_local unnamed_addr constant { [5 x ptr] } { [5 x ptr] [ptr null, ptr @_ZTIN6dealii7FETools9FEFactoryINS_4FE_QILi3ELi3EEEEE, ptr @_ZNK6dealii7FETools9FEFactoryINS_4FE_QILi3ELi3EEEE3getEj, ptr @_ZN6dealii7FETools13FEFactoryBaseILi3ELi3EED2Ev, ptr @_ZN6dealii7FETools9FEFactoryINS_4FE_QILi3ELi3EEEED0Ev] }, comdat, align 8
@_ZTSN6dealii7FETools9FEFactoryINS_4FE_QILi3ELi3EEEEE = linkonce_odr dso_local constant [49 x i8] c"N6dealii7FETools9FEFactoryINS_4FE_QILi3ELi3EEEEE\00", comdat, align 1
@_ZTIN6dealii7FETools9FEFactoryINS_4FE_QILi3ELi3EEEEE = linkonce_odr dso_local constant { ptr, ptr, ptr } { ptr getelementptr inbounds (ptr, ptr @_ZTVN10__cxxabiv120__si_class_type_infoE, i64 2), ptr @_ZTSN6dealii7FETools9FEFactoryINS_4FE_QILi3ELi3EEEEE, ptr @_ZTIN6dealii7FETools13FEFactoryBaseILi3ELi3EEE }, comdat, align 8
@_ZTVN5boost6detail17sp_counted_impl_pIN6dealii7FETools9FEFactoryINS2_4FE_QILi3ELi3EEEEEEE = linkonce_odr dso_local unnamed_addr constant { [7 x ptr] } { [7 x ptr] [ptr null, ptr @_ZTIN5boost6detail17sp_counted_impl_pIN6dealii7FETools9FEFactoryINS2_4FE_QILi3ELi3EEEEEEE, ptr @_ZN5boost6detail15sp_counted_baseD2Ev, ptr @_ZN5boost6detail17sp_counted_impl_pIN6dealii7FETools9FEFactoryINS2_4FE_QILi3ELi3EEEEEED0Ev, ptr @_ZN5boost6detail17sp_counted_impl_pIN6dealii7FETools9FEFactoryINS2_4FE_QILi3ELi3EEEEEE7disposeEv, ptr @_ZN5boost6detail15sp_counted_base7destroyEv, ptr @_ZN5boost6detail17sp_counted_impl_pIN6dealii7FETools9FEFactoryINS2_4FE_QILi3ELi3EEEEEE11get_deleterERKSt9type_info] }, comdat, align 8
@_ZTSN5boost6detail17sp_counted_impl_pIN6dealii7FETools9FEFactoryINS2_4FE_QILi3ELi3EEEEEEE = linkonce_odr dso_local constant [86 x i8] c"N5boost6detail17sp_counted_impl_pIN6dealii7FETools9FEFactoryINS2_4FE_QILi3ELi3EEEEEEE\00", comdat, align 1
@_ZTIN5boost6detail17sp_counted_impl_pIN6dealii7FETools9FEFactoryINS2_4FE_QILi3ELi3EEEEEEE = linkonce_odr dso_local constant { ptr, ptr, ptr } { ptr getelementptr inbounds (ptr, ptr @_ZTVN10__cxxabiv120__si_class_type_infoE, i64 2), ptr @_ZTSN5boost6detail17sp_counted_impl_pIN6dealii7FETools9FEFactoryINS2_4FE_QILi3ELi3EEEEEEE, ptr @_ZTIN5boost6detail15sp_counted_baseE }, comdat, align 8
@.str.34 = private unnamed_addr constant [49 x i8] c"cannot create std::vector larger than max_size()\00", align 1
@.str.35 = private unnamed_addr constant [23 x i8] c"vector::_M_fill_insert\00", align 1
@_ZTVN6dealii6VectorIdEE = linkonce_odr dso_local unnamed_addr constant { [6 x ptr] } { [6 x ptr] [ptr null, ptr @_ZTIN6dealii6VectorIdEE, ptr @_ZN6dealii6VectorIdED2Ev, ptr @_ZN6dealii6VectorIdED0Ev, ptr @_ZN6dealii6VectorIdE6reinitEjb, ptr @_ZN6dealii6VectorIdE4swapERS1_] }, comdat, align 8
@_ZTSN6dealii6VectorIdEE = linkonce_odr dso_local constant [20 x i8] c"N6dealii6VectorIdEE\00", comdat, align 1
@_ZTIN6dealii6VectorIdEE = linkonce_odr dso_local constant { ptr, ptr, ptr } { ptr getelementptr inbounds (ptr, ptr @_ZTVN10__cxxabiv120__si_class_type_infoE, i64 2), ptr @_ZTSN6dealii6VectorIdEE, ptr @_ZTIN6dealii11SubscriptorE }, comdat, align 8
@_ZTVN6dealii19GrowingVectorMemoryINS_6VectorIdEEEE = linkonce_odr dso_local unnamed_addr constant { [6 x ptr] } { [6 x ptr] [ptr null, ptr @_ZTIN6dealii19GrowingVectorMemoryINS_6VectorIdEEEE, ptr @_ZN6dealii19GrowingVectorMemoryINS_6VectorIdEEED2Ev, ptr @_ZN6dealii19GrowingVectorMemoryINS_6VectorIdEEED0Ev, ptr @_ZN6dealii19GrowingVectorMemoryINS_6VectorIdEEE5allocEv, ptr @_ZN6dealii19GrowingVectorMemoryINS_6VectorIdEEE4freeEPKS2_] }, comdat, align 8
@_ZN6dealii19GrowingVectorMemoryINS_6VectorIdEEE4poolE = external local_unnamed_addr global %"struct.dealii::GrowingVectorMemory<>::Pool", align 8
@_ZTSN6dealii19GrowingVectorMemoryINS_6VectorIdEEEE = linkonce_odr dso_local constant [47 x i8] c"N6dealii19GrowingVectorMemoryINS_6VectorIdEEEE\00", comdat, align 1
@_ZTSN6dealii12VectorMemoryINS_6VectorIdEEEE = linkonce_odr dso_local constant [40 x i8] c"N6dealii12VectorMemoryINS_6VectorIdEEEE\00", comdat, align 1
@_ZTIN6dealii12VectorMemoryINS_6VectorIdEEEE = linkonce_odr dso_local constant { ptr, ptr, ptr } { ptr getelementptr inbounds (ptr, ptr @_ZTVN10__cxxabiv120__si_class_type_infoE, i64 2), ptr @_ZTSN6dealii12VectorMemoryINS_6VectorIdEEEE, ptr @_ZTIN6dealii11SubscriptorE }, comdat, align 8
@_ZTIN6dealii19GrowingVectorMemoryINS_6VectorIdEEEE = linkonce_odr dso_local constant { ptr, ptr, ptr } { ptr getelementptr inbounds (ptr, ptr @_ZTVN10__cxxabiv120__si_class_type_infoE, i64 2), ptr @_ZTSN6dealii19GrowingVectorMemoryINS_6VectorIdEEEE, ptr @_ZTIN6dealii12VectorMemoryINS_6VectorIdEEEE }, comdat, align 8
@.str.36 = private unnamed_addr constant [26 x i8] c"vector::_M_realloc_insert\00", align 1
@.str.37 = private unnamed_addr constant [28 x i8] c"include/lac/vector_memory.h\00", align 1
@.str.38 = private unnamed_addr constant [19 x i8] c"current_alloc == 0\00", align 1
@.str.39 = private unnamed_addr constant [49 x i8] c"StandardExceptions::ExcMemoryLeak(current_alloc)\00", align 1
@_ZN6dealii7deallogE = external global %"class.dealii::LogStream", align 8
@.str.40 = private unnamed_addr constant [48 x i8] c"GrowingVectorMemory:Overall allocated vectors: \00", align 1
@.str.41 = private unnamed_addr constant [48 x i8] c"GrowingVectorMemory:Maximum allocated vectors: \00", align 1
@_ZTSN6dealii18StandardExceptions13ExcMemoryLeakE = linkonce_odr dso_local constant [45 x i8] c"N6dealii18StandardExceptions13ExcMemoryLeakE\00", comdat, align 1
@_ZTIN6dealii18StandardExceptions13ExcMemoryLeakE = linkonce_odr dso_local constant { ptr, ptr, ptr } { ptr getelementptr inbounds (ptr, ptr @_ZTVN10__cxxabiv120__si_class_type_infoE, i64 2), ptr @_ZTSN6dealii18StandardExceptions13ExcMemoryLeakE, ptr @_ZTIN6dealii13ExceptionBaseE }, comdat, align 8
@_ZTVN6dealii18StandardExceptions13ExcMemoryLeakE = linkonce_odr dso_local unnamed_addr constant { [6 x ptr] } { [6 x ptr] [ptr null, ptr @_ZTIN6dealii18StandardExceptions13ExcMemoryLeakE, ptr @_ZN6dealii13ExceptionBaseD2Ev, ptr @_ZN6dealii18StandardExceptions13ExcMemoryLeakD0Ev, ptr @_ZNK6dealii13ExceptionBase4whatEv, ptr @_ZNK6dealii18StandardExceptions13ExcMemoryLeak10print_infoERSo] }, comdat, align 8
@.str.42 = private unnamed_addr constant [33 x i8] c"Destroying memory handler while \00", align 1
@.str.43 = private unnamed_addr constant [29 x i8] c" objects are still allocated\00", align 1
@_ZTVN5boost6detail17sp_counted_impl_pIN6dealii10FullMatrixIdEEEE = linkonce_odr dso_local unnamed_addr constant { [7 x ptr] } { [7 x ptr] [ptr null, ptr @_ZTIN5boost6detail17sp_counted_impl_pIN6dealii10FullMatrixIdEEEE, ptr @_ZN5boost6detail15sp_counted_baseD2Ev, ptr @_ZN5boost6detail17sp_counted_impl_pIN6dealii10FullMatrixIdEEED0Ev, ptr @_ZN5boost6detail17sp_counted_impl_pIN6dealii10FullMatrixIdEEE7disposeEv, ptr @_ZN5boost6detail15sp_counted_base7destroyEv, ptr @_ZN5boost6detail17sp_counted_impl_pIN6dealii10FullMatrixIdEEE11get_deleterERKSt9type_info] }, comdat, align 8
@_ZTSN5boost6detail17sp_counted_impl_pIN6dealii10FullMatrixIdEEEE = linkonce_odr dso_local constant [61 x i8] c"N5boost6detail17sp_counted_impl_pIN6dealii10FullMatrixIdEEEE\00", comdat, align 1
@_ZTIN5boost6detail17sp_counted_impl_pIN6dealii10FullMatrixIdEEEE = linkonce_odr dso_local constant { ptr, ptr, ptr } { ptr getelementptr inbounds (ptr, ptr @_ZTVN10__cxxabiv120__si_class_type_infoE, i64 2), ptr @_ZTSN5boost6detail17sp_counted_impl_pIN6dealii10FullMatrixIdEEEE, ptr @_ZTIN5boost6detail15sp_counted_baseE }, comdat, align 8
@_ZTVN6dealii6VectorIfEE = linkonce_odr dso_local unnamed_addr constant { [6 x ptr] } { [6 x ptr] [ptr null, ptr @_ZTIN6dealii6VectorIfEE, ptr @_ZN6dealii6VectorIfED2Ev, ptr @_ZN6dealii6VectorIfED0Ev, ptr @_ZN6dealii6VectorIfE6reinitEjb, ptr @_ZN6dealii6VectorIfE4swapERS1_] }, comdat, align 8
@_ZTSN6dealii6VectorIfEE = linkonce_odr dso_local constant [20 x i8] c"N6dealii6VectorIfEE\00", comdat, align 1
@_ZTIN6dealii6VectorIfEE = linkonce_odr dso_local constant { ptr, ptr, ptr } { ptr getelementptr inbounds (ptr, ptr @_ZTVN10__cxxabiv120__si_class_type_infoE, i64 2), ptr @_ZTSN6dealii6VectorIfEE, ptr @_ZTIN6dealii11SubscriptorE }, comdat, align 8
@_ZZN6dealii8internal12TriaAccessor14Implementation12vertex_indexILi3ELi3EEEjRKNS_12TriaAccessorILi2EXT_EXT0_EEEjE12switch_table = linkonce_odr dso_local local_unnamed_addr constant [2 x [2 x i32]] [[2 x i32] [i32 1, i32 0], [2 x i32] [i32 0, i32 1]], comdat, align 16
@_ZZN6dealii8internal12TriaAccessor14Implementation10line_indexILi3ELi3EEEjRKNS_12TriaAccessorILi3EXT_EXT0_EEEjE12lookup_table = linkonce_odr dso_local local_unnamed_addr constant [12 x [2 x i32]] [[2 x i32] [i32 4, i32 0], [2 x i32] [i32 4, i32 1], [2 x i32] [i32 4, i32 2], [2 x i32] [i32 4, i32 3], [2 x i32] [i32 5, i32 0], [2 x i32] [i32 5, i32 1], [2 x i32] [i32 5, i32 2], [2 x i32] [i32 5, i32 3], [2 x i32] zeroinitializer, [2 x i32] [i32 1, i32 0], [2 x i32] [i32 0, i32 1], [2 x i32] [i32 1, i32 1]], comdat, align 16
@_ZZN6dealii8internal12TriaAccessor14Implementation16line_orientationILi3ELi3EEEbRKNS_12TriaAccessorILi3EXT_EXT0_EEEjE12lookup_table = linkonce_odr dso_local local_unnamed_addr constant [12 x [2 x i32]] [[2 x i32] [i32 4, i32 0], [2 x i32] [i32 4, i32 1], [2 x i32] [i32 4, i32 2], [2 x i32] [i32 4, i32 3], [2 x i32] [i32 5, i32 0], [2 x i32] [i32 5, i32 1], [2 x i32] [i32 5, i32 2], [2 x i32] [i32 5, i32 3], [2 x i32] zeroinitializer, [2 x i32] [i32 1, i32 0], [2 x i32] [i32 0, i32 1], [2 x i32] [i32 1, i32 1]], comdat, align 16
@_ZZN6dealii8internal12TriaAccessor14Implementation16line_orientationILi3ELi3EEEbRKNS_12TriaAccessorILi3EXT_EXT0_EEEjE10bool_table = linkonce_odr dso_local local_unnamed_addr constant [2 x [2 x [2 x [2 x i8]]]] [[2 x [2 x [2 x i8]]] [[2 x [2 x i8]] [[2 x i8] c"\01\00", [2 x i8] c"\00\01"], [2 x [2 x i8]] [[2 x i8] c"\01\01", [2 x i8] zeroinitializer]], [2 x [2 x [2 x i8]]] [[2 x [2 x i8]] [[2 x i8] c"\01\01", [2 x i8] zeroinitializer], [2 x [2 x i8]] [[2 x i8] c"\01\00", [2 x i8] c"\00\01"]]], comdat, align 16
@.str.45 = private unnamed_addr constant [68 x i8] c"basic_string::at: __n (which is %zu) >= this->size() (which is %zu)\00", align 1
@.str.46 = private unnamed_addr constant [20 x i8] c"basic_string::erase\00", align 1
@.str.47 = private unnamed_addr constant [55 x i8] c"%s: __pos (which is %zu) > this->size() (which is %zu)\00", align 1
@.str.48 = private unnamed_addr constant [9 x i8] c"FESystem\00", align 1
@.str.49 = private unnamed_addr constant [28 x i8] c"Invalid first character in \00", align 1
@.str.50 = private unnamed_addr constant [20 x i8] c"ExcNotImplemented()\00", align 1
@.str.51 = private unnamed_addr constant [49 x i8] c"fe_name_map.find(name_part) != fe_name_map.end()\00", align 1
@.str.52 = private unnamed_addr constant [32 x i8] c"FETools::ExcInvalidFEName(name)\00", align 1
@.str.53 = private unnamed_addr constant [14 x i8] c"QGaussLobatto\00", align 1
@_ZTSN6dealii18StandardExceptions17ExcNotImplementedE = linkonce_odr dso_local constant [49 x i8] c"N6dealii18StandardExceptions17ExcNotImplementedE\00", comdat, align 1
@_ZTIN6dealii18StandardExceptions17ExcNotImplementedE = linkonce_odr dso_local constant { ptr, ptr, ptr } { ptr getelementptr inbounds (ptr, ptr @_ZTVN10__cxxabiv120__si_class_type_infoE, i64 2), ptr @_ZTSN6dealii18StandardExceptions17ExcNotImplementedE, ptr @_ZTIN6dealii13ExceptionBaseE }, comdat, align 8
@_ZTVN6dealii18StandardExceptions17ExcNotImplementedE = linkonce_odr dso_local unnamed_addr constant { [6 x ptr] } { [6 x ptr] [ptr null, ptr @_ZTIN6dealii18StandardExceptions17ExcNotImplementedE, ptr @_ZN6dealii13ExceptionBaseD2Ev, ptr @_ZN6dealii18StandardExceptions17ExcNotImplementedD0Ev, ptr @_ZNK6dealii13ExceptionBase4whatEv, ptr @_ZNK6dealii13ExceptionBase10print_infoERSo] }, comdat, align 8
@.str.55 = private unnamed_addr constant [21 x i8] c"basic_string::append\00", align 1
@_ZTVN5boost6detail17sp_counted_impl_pIKN6dealii7FETools13FEFactoryBaseILi3ELi3EEEEE = linkonce_odr dso_local unnamed_addr constant { [7 x ptr] } { [7 x ptr] [ptr null, ptr @_ZTIN5boost6detail17sp_counted_impl_pIKN6dealii7FETools13FEFactoryBaseILi3ELi3EEEEE, ptr @_ZN5boost6detail15sp_counted_baseD2Ev, ptr @_ZN5boost6detail17sp_counted_impl_pIKN6dealii7FETools13FEFactoryBaseILi3ELi3EEEED0Ev, ptr @_ZN5boost6detail17sp_counted_impl_pIKN6dealii7FETools13FEFactoryBaseILi3ELi3EEEE7disposeEv, ptr @_ZN5boost6detail15sp_counted_base7destroyEv, ptr @_ZN5boost6detail17sp_counted_impl_pIKN6dealii7FETools13FEFactoryBaseILi3ELi3EEEE11get_deleterERKSt9type_info] }, comdat, align 8
@_ZTSN5boost6detail17sp_counted_impl_pIKN6dealii7FETools13FEFactoryBaseILi3ELi3EEEEE = linkonce_odr dso_local constant [80 x i8] c"N5boost6detail17sp_counted_impl_pIKN6dealii7FETools13FEFactoryBaseILi3ELi3EEEEE\00", comdat, align 1
@_ZTIN5boost6detail17sp_counted_impl_pIKN6dealii7FETools13FEFactoryBaseILi3ELi3EEEEE = linkonce_odr dso_local constant { ptr, ptr, ptr } { ptr getelementptr inbounds (ptr, ptr @_ZTVN10__cxxabiv120__si_class_type_infoE, i64 2), ptr @_ZTSN5boost6detail17sp_counted_impl_pIKN6dealii7FETools13FEFactoryBaseILi3ELi3EEEEE, ptr @_ZTIN5boost6detail15sp_counted_baseE }, comdat, align 8
@llvm.global_ctors = appending global [1 x { i32, ptr, ptr }] [{ i32, ptr, ptr } { i32 65535, ptr @_GLOBAL__sub_I_fe_tools.cc, ptr null }]

@_ZN6dealii7FETools13FEFactoryBaseILi3ELi3EED1Ev = weak_odr dso_local unnamed_addr alias void (ptr), ptr @_ZN6dealii7FETools13FEFactoryBaseILi3ELi3EED2Ev

; Function Attrs: nounwind sspstrong uwtable
define weak_odr dso_local void @_ZN6dealii7FETools13FEFactoryBaseILi3ELi3EED0Ev(ptr noundef nonnull align 8 dereferenceable(8) %0) unnamed_addr #0 comdat($_ZN6dealii7FETools13FEFactoryBaseILi3ELi3EED5Ev) align 2 {
  tail call void @llvm.trap() #24
  unreachable
}

; Function Attrs: cold noreturn nounwind
declare void @llvm.trap() #1

; Function Attrs: sspstrong uwtable
define weak_odr dso_local void @_ZN6dealii7FETools19compute_node_matrixILi3ELi3EEEvRNS_10FullMatrixIdEERKNS_13FiniteElementIXT_EXT0_EEE(ptr noundef nonnull align 8 dereferenceable(92) %0, ptr noundef nonnull align 8 dereferenceable(728) %1) local_unnamed_addr #2 comdat align 2 personality ptr @__gxx_personality_v0 {
  %3 = alloca %"class.std::vector.62", align 8
  %4 = alloca %"class.std::vector.67", align 8
  %5 = alloca %"class.std::vector.67", align 8
  %6 = alloca %"class.dealii::VectorSlice", align 8
  %7 = getelementptr inbounds i8, ptr %1, i64 112
  %8 = load i32, ptr %7, align 8, !tbaa !5
  %9 = tail call noundef nonnull align 8 dereferenceable(24) ptr @_ZNK6dealii13FiniteElementILi3ELi3EE30get_generalized_support_pointsEv(ptr noundef nonnull align 8 dereferenceable(728) %1)
  call void @llvm.lifetime.start.p0(i64 24, ptr nonnull %3) #25
  call void @llvm.lifetime.start.p0(i64 24, ptr nonnull %4) #25
  %10 = getelementptr inbounds %"struct.std::_Vector_base<dealii::Point<3>, std::allocator<dealii::Point<3> > >::_Vector_impl_data", ptr %9, i64 0, i32 1
  %11 = load ptr, ptr %10, align 8, !tbaa !11
  %12 = load ptr, ptr %9, align 8, !tbaa !14
  %13 = ptrtoint ptr %11 to i64
  %14 = ptrtoint ptr %12 to i64
  %15 = sub i64 %13, %14
  %16 = sdiv exact i64 %15, 24
  %17 = icmp ugt i64 %16, 1152921504606846975
  br i1 %17, label %18, label %20

18:                                               ; preds = %2
  invoke void @_ZSt20__throw_length_errorPKc(ptr noundef nonnull @.str.34) #26
          to label %19 unwind label %80

19:                                               ; preds = %18
  unreachable

20:                                               ; preds = %2
  %21 = icmp eq ptr %11, %12
  br i1 %21, label %22, label %23

22:                                               ; preds = %20
  call void @llvm.memset.p0.i64(ptr noundef nonnull align 8 dereferenceable(24) %4, i8 0, i64 24, i1 false)
  br label %29

23:                                               ; preds = %20
  %24 = shl nuw nsw i64 %16, 3
  %25 = invoke noalias noundef nonnull ptr @_Znwm(i64 noundef %24) #27
          to label %26 unwind label %80

26:                                               ; preds = %23
  store ptr %25, ptr %4, align 8, !tbaa !15
  %27 = getelementptr inbounds double, ptr %25, i64 %16
  %28 = getelementptr inbounds %"struct.std::_Vector_base<double, std::allocator<double> >::_Vector_impl_data", ptr %4, i64 0, i32 2
  store ptr %27, ptr %28, align 8, !tbaa !17
  tail call void @llvm.memset.p0.i64(ptr nonnull align 8 %25, i8 0, i64 %24, i1 false), !tbaa !18
  br label %29

29:                                               ; preds = %26, %22
  %30 = phi ptr [ null, %22 ], [ %27, %26 ]
  %31 = getelementptr inbounds %"struct.std::_Vector_base<double, std::allocator<double> >::_Vector_impl_data", ptr %4, i64 0, i32 1
  store ptr %30, ptr %31, align 8, !tbaa !20
  %32 = getelementptr inbounds i8, ptr %3, i64 8
  store i64 0, ptr %32, align 8
  %33 = invoke noalias noundef nonnull dereferenceable(72) ptr @_Znwm(i64 noundef 72) #27
          to label %34 unwind label %82

34:                                               ; preds = %29
  store ptr %33, ptr %3, align 8, !tbaa !21
  %35 = getelementptr inbounds %"struct.std::_Vector_base<std::vector<double>, std::allocator<std::vector<double> > >::_Vector_impl_data", ptr %3, i64 0, i32 1
  %36 = getelementptr inbounds %"class.std::vector.67", ptr %33, i64 3
  %37 = getelementptr inbounds %"struct.std::_Vector_base<std::vector<double>, std::allocator<std::vector<double> > >::_Vector_impl_data", ptr %3, i64 0, i32 2
  store ptr %36, ptr %37, align 8, !tbaa !23
  %38 = invoke noundef ptr @_ZSt18__do_uninit_fill_nIPSt6vectorIdSaIdEEmS2_ET_S4_T0_RKT1_(ptr noundef nonnull %33, i64 noundef 3, ptr noundef nonnull align 8 dereferenceable(24) %4)
          to label %44 unwind label %39

39:                                               ; preds = %34
  %40 = landingpad { ptr, i32 }
          cleanup
  %41 = load ptr, ptr %3, align 8, !tbaa !21
  %42 = icmp eq ptr %41, null
  br i1 %42, label %84, label %43

43:                                               ; preds = %39
  call void @_ZdlPv(ptr noundef nonnull %41) #28
  br label %84

44:                                               ; preds = %34
  store ptr %38, ptr %35, align 8, !tbaa !24
  %45 = load ptr, ptr %4, align 8, !tbaa !15
  %46 = icmp eq ptr %45, null
  br i1 %46, label %48, label %47

47:                                               ; preds = %44
  call void @_ZdlPv(ptr noundef nonnull %45) #28
  br label %48

48:                                               ; preds = %47, %44
  call void @llvm.lifetime.end.p0(i64 24, ptr nonnull %4) #25
  call void @llvm.lifetime.start.p0(i64 24, ptr nonnull %5) #25
  %49 = zext i32 %8 to i64
  %50 = icmp eq i32 %8, 0
  br i1 %50, label %253, label %51

51:                                               ; preds = %48
  %52 = shl nuw nsw i64 %49, 3
  %53 = invoke noalias noundef nonnull ptr @_Znwm(i64 noundef %52) #27
          to label %54 unwind label %91

54:                                               ; preds = %51
  store ptr %53, ptr %5, align 8, !tbaa !15
  %55 = getelementptr inbounds double, ptr %53, i64 %49
  %56 = getelementptr inbounds %"struct.std::_Vector_base<double, std::allocator<double> >::_Vector_impl_data", ptr %5, i64 0, i32 2
  store ptr %55, ptr %56, align 8, !tbaa !17
  call void @llvm.memset.p0.i64(ptr nonnull align 8 %53, i8 0, i64 %52, i1 false), !tbaa !18
  %57 = getelementptr inbounds %"struct.std::_Vector_base<double, std::allocator<double> >::_Vector_impl_data", ptr %5, i64 0, i32 1
  store ptr %55, ptr %57, align 8, !tbaa !20
  %58 = getelementptr inbounds %"class.dealii::VectorSlice", ptr %6, i64 0, i32 1
  %59 = getelementptr inbounds %"class.dealii::VectorSlice", ptr %6, i64 0, i32 2
  %60 = getelementptr inbounds %"class.dealii::TableBase", ptr %0, i64 0, i32 1
  %61 = getelementptr inbounds %"class.dealii::TableBase", ptr %0, i64 0, i32 3, i32 0, i32 0, i64 1
  %62 = add nsw i64 %49, -1
  %63 = icmp ult i32 %8, 20
  %64 = trunc i64 %62 to i32
  %65 = icmp ugt i64 %62, 4294967295
  %66 = and i64 %49, 4294967280
  %67 = icmp eq i64 %66, %49
  %68 = and i64 %49, 3
  %69 = icmp eq i64 %68, 0
  br label %70

70:                                               ; preds = %54, %207
  %71 = phi i64 [ 0, %54 ], [ %210, %207 ]
  %72 = phi i32 [ 0, %54 ], [ %208, %207 ]
  %73 = shl nuw nsw i64 %71, 3
  %74 = load ptr, ptr %3, align 8, !tbaa !21
  %75 = getelementptr inbounds %"struct.std::_Vector_base<double, std::allocator<double> >::_Vector_impl_data", ptr %74, i64 0, i32 1
  %76 = load ptr, ptr %75, align 8, !tbaa !20
  %77 = load ptr, ptr %74, align 8, !tbaa !15
  %78 = icmp eq ptr %76, %77
  br i1 %78, label %140, label %93

79:                                               ; preds = %207
  call void @_ZdlPv(ptr noundef nonnull %152) #28
  br label %253

80:                                               ; preds = %23, %18
  %81 = landingpad { ptr, i32 }
          cleanup
  br label %89

82:                                               ; preds = %29
  %83 = landingpad { ptr, i32 }
          cleanup
  br label %84

84:                                               ; preds = %39, %43, %82
  %85 = phi { ptr, i32 } [ %83, %82 ], [ %40, %43 ], [ %40, %39 ]
  %86 = load ptr, ptr %4, align 8, !tbaa !15
  %87 = icmp eq ptr %86, null
  br i1 %87, label %89, label %88

88:                                               ; preds = %84
  call void @_ZdlPv(ptr noundef nonnull %86) #28
  br label %89

89:                                               ; preds = %88, %84, %80
  %90 = phi { ptr, i32 } [ %81, %80 ], [ %85, %84 ], [ %85, %88 ]
  call void @llvm.lifetime.end.p0(i64 24, ptr nonnull %4) #25
  br label %291

91:                                               ; preds = %51
  %92 = landingpad { ptr, i32 }
          cleanup
  br label %272

93:                                               ; preds = %70, %123
  %94 = phi i64 [ %129, %123 ], [ 0, %70 ]
  %95 = phi i32 [ %128, %123 ], [ 0, %70 ]
  %96 = load ptr, ptr %9, align 8, !tbaa !14
  %97 = getelementptr inbounds %"class.dealii::Point", ptr %96, i64 %94
  %98 = load ptr, ptr %1, align 8, !tbaa !25
  %99 = getelementptr inbounds ptr, ptr %98, i64 4
  %100 = load ptr, ptr %99, align 8
  %101 = invoke noundef double %100(ptr noundef nonnull align 8 dereferenceable(728) %1, i32 noundef %72, ptr noundef nonnull align 8 dereferenceable(24) %97, i32 noundef 0)
          to label %102 unwind label %138

102:                                              ; preds = %93
  %103 = load ptr, ptr %3, align 8, !tbaa !21
  %104 = load ptr, ptr %103, align 8, !tbaa !15
  %105 = getelementptr inbounds double, ptr %104, i64 %94
  store double %101, ptr %105, align 8, !tbaa !18
  %106 = load ptr, ptr %9, align 8, !tbaa !14
  %107 = getelementptr inbounds %"class.dealii::Point", ptr %106, i64 %94
  %108 = load ptr, ptr %1, align 8, !tbaa !25
  %109 = getelementptr inbounds ptr, ptr %108, i64 4
  %110 = load ptr, ptr %109, align 8
  %111 = invoke noundef double %110(ptr noundef nonnull align 8 dereferenceable(728) %1, i32 noundef %72, ptr noundef nonnull align 8 dereferenceable(24) %107, i32 noundef 1)
          to label %112 unwind label %138

112:                                              ; preds = %102
  %113 = load ptr, ptr %3, align 8, !tbaa !21
  %114 = getelementptr inbounds %"class.std::vector.67", ptr %113, i64 1
  %115 = load ptr, ptr %114, align 8, !tbaa !15
  %116 = getelementptr inbounds double, ptr %115, i64 %94
  store double %111, ptr %116, align 8, !tbaa !18
  %117 = load ptr, ptr %9, align 8, !tbaa !14
  %118 = getelementptr inbounds %"class.dealii::Point", ptr %117, i64 %94
  %119 = load ptr, ptr %1, align 8, !tbaa !25
  %120 = getelementptr inbounds ptr, ptr %119, i64 4
  %121 = load ptr, ptr %120, align 8
  %122 = invoke noundef double %121(ptr noundef nonnull align 8 dereferenceable(728) %1, i32 noundef %72, ptr noundef nonnull align 8 dereferenceable(24) %118, i32 noundef 2)
          to label %123 unwind label %138

123:                                              ; preds = %112
  %124 = load ptr, ptr %3, align 8, !tbaa !21
  %125 = getelementptr inbounds %"class.std::vector.67", ptr %124, i64 2
  %126 = load ptr, ptr %125, align 8, !tbaa !15
  %127 = getelementptr inbounds double, ptr %126, i64 %94
  store double %122, ptr %127, align 8, !tbaa !18
  %128 = add i32 %95, 1
  %129 = zext i32 %128 to i64
  %130 = getelementptr inbounds %"struct.std::_Vector_base<double, std::allocator<double> >::_Vector_impl_data", ptr %124, i64 0, i32 1
  %131 = load ptr, ptr %130, align 8, !tbaa !20
  %132 = load ptr, ptr %124, align 8, !tbaa !15
  %133 = ptrtoint ptr %131 to i64
  %134 = ptrtoint ptr %132 to i64
  %135 = sub i64 %133, %134
  %136 = ashr exact i64 %135, 3
  %137 = icmp ugt i64 %136, %129
  br i1 %137, label %93, label %140

138:                                              ; preds = %112, %102, %93
  %139 = landingpad { ptr, i32 }
          cleanup
  br label %248

140:                                              ; preds = %123, %70
  %141 = phi ptr [ %74, %70 ], [ %124, %123 ]
  call void @llvm.lifetime.start.p0(i64 16, ptr nonnull %6) #25
  store ptr %3, ptr %6, align 8, !tbaa !27
  store i32 0, ptr %58, align 8, !tbaa !28
  %142 = load ptr, ptr %35, align 8, !tbaa !24
  %143 = ptrtoint ptr %142 to i64
  %144 = ptrtoint ptr %141 to i64
  %145 = sub i64 %143, %144
  %146 = sdiv exact i64 %145, 24
  %147 = trunc i64 %146 to i32
  store i32 %147, ptr %59, align 4, !tbaa !30
  %148 = load ptr, ptr %1, align 8, !tbaa !25
  %149 = getelementptr inbounds ptr, ptr %148, i64 25
  %150 = load ptr, ptr %149, align 8
  invoke void %150(ptr noundef nonnull align 8 dereferenceable(728) %1, ptr noundef nonnull align 8 dereferenceable(24) %5, ptr noundef nonnull align 8 dereferenceable(16) %6)
          to label %151 unwind label %211

151:                                              ; preds = %140
  call void @llvm.lifetime.end.p0(i64 16, ptr nonnull %6) #25
  %152 = load ptr, ptr %5, align 8, !tbaa !15
  %153 = ptrtoint ptr %152 to i64
  %154 = load ptr, ptr %60, align 8, !tbaa !31
  %155 = ptrtoint ptr %154 to i64
  %156 = load i32, ptr %61, align 8, !tbaa !45
  br i1 %63, label %187, label %157

157:                                              ; preds = %151
  %158 = icmp ne i32 %156, 1
  %159 = xor i32 %72, -1
  %160 = icmp ult i32 %159, %64
  %161 = or i1 %160, %65
  %162 = or i1 %158, %161
  br i1 %162, label %187, label %163

163:                                              ; preds = %157
  %164 = add i64 %73, %155
  %165 = sub i64 %164, %153
  %166 = icmp ult i64 %165, 128
  br i1 %166, label %187, label %167

167:                                              ; preds = %163, %167
  %168 = phi i64 [ %184, %167 ], [ 0, %163 ]
  %169 = trunc i64 %168 to i32
  %170 = getelementptr inbounds double, ptr %152, i64 %168
  %171 = load <4 x double>, ptr %170, align 8, !tbaa !18
  %172 = getelementptr inbounds double, ptr %170, i64 4
  %173 = load <4 x double>, ptr %172, align 8, !tbaa !18
  %174 = getelementptr inbounds double, ptr %170, i64 8
  %175 = load <4 x double>, ptr %174, align 8, !tbaa !18
  %176 = getelementptr inbounds double, ptr %170, i64 12
  %177 = load <4 x double>, ptr %176, align 8, !tbaa !18
  %178 = add i32 %72, %169
  %179 = zext i32 %178 to i64
  %180 = getelementptr inbounds double, ptr %154, i64 %179
  store <4 x double> %171, ptr %180, align 8, !tbaa !18
  %181 = getelementptr inbounds double, ptr %180, i64 4
  store <4 x double> %173, ptr %181, align 8, !tbaa !18
  %182 = getelementptr inbounds double, ptr %180, i64 8
  store <4 x double> %175, ptr %182, align 8, !tbaa !18
  %183 = getelementptr inbounds double, ptr %180, i64 12
  store <4 x double> %177, ptr %183, align 8, !tbaa !18
  %184 = add nuw i64 %168, 16
  %185 = icmp eq i64 %184, %66
  br i1 %185, label %186, label %167, !llvm.loop !46

186:                                              ; preds = %167
  br i1 %67, label %207, label %187

187:                                              ; preds = %163, %157, %151, %186
  %188 = phi i64 [ 0, %163 ], [ 0, %157 ], [ 0, %151 ], [ %66, %186 ]
  %189 = xor i64 %188, -1
  %190 = add nsw i64 %189, %49
  br i1 %69, label %204, label %191

191:                                              ; preds = %187, %191
  %192 = phi i64 [ %201, %191 ], [ %188, %187 ]
  %193 = phi i64 [ %202, %191 ], [ 0, %187 ]
  %194 = getelementptr inbounds double, ptr %152, i64 %192
  %195 = load double, ptr %194, align 8, !tbaa !18
  %196 = trunc i64 %192 to i32
  %197 = mul i32 %156, %196
  %198 = add i32 %197, %72
  %199 = zext i32 %198 to i64
  %200 = getelementptr inbounds double, ptr %154, i64 %199
  store double %195, ptr %200, align 8, !tbaa !18
  %201 = add nuw nsw i64 %192, 1
  %202 = add i64 %193, 1
  %203 = icmp eq i64 %202, %68
  br i1 %203, label %204, label %191, !llvm.loop !49

204:                                              ; preds = %191, %187
  %205 = phi i64 [ %188, %187 ], [ %201, %191 ]
  %206 = icmp ult i64 %190, 3
  br i1 %206, label %207, label %213

207:                                              ; preds = %204, %213, %186
  %208 = add nuw i32 %72, 1
  %209 = icmp eq i32 %208, %8
  %210 = add i64 %71, 1
  br i1 %209, label %79, label %70

211:                                              ; preds = %140
  %212 = landingpad { ptr, i32 }
          cleanup
  call void @llvm.lifetime.end.p0(i64 16, ptr nonnull %6) #25
  br label %248

213:                                              ; preds = %204, %213
  %214 = phi i64 [ %246, %213 ], [ %205, %204 ]
  %215 = getelementptr inbounds double, ptr %152, i64 %214
  %216 = load double, ptr %215, align 8, !tbaa !18
  %217 = trunc i64 %214 to i32
  %218 = mul i32 %156, %217
  %219 = add i32 %218, %72
  %220 = zext i32 %219 to i64
  %221 = getelementptr inbounds double, ptr %154, i64 %220
  store double %216, ptr %221, align 8, !tbaa !18
  %222 = add nuw nsw i64 %214, 1
  %223 = getelementptr inbounds double, ptr %152, i64 %222
  %224 = load double, ptr %223, align 8, !tbaa !18
  %225 = trunc i64 %222 to i32
  %226 = mul i32 %156, %225
  %227 = add i32 %226, %72
  %228 = zext i32 %227 to i64
  %229 = getelementptr inbounds double, ptr %154, i64 %228
  store double %224, ptr %229, align 8, !tbaa !18
  %230 = add nuw nsw i64 %214, 2
  %231 = getelementptr inbounds double, ptr %152, i64 %230
  %232 = load double, ptr %231, align 8, !tbaa !18
  %233 = trunc i64 %230 to i32
  %234 = mul i32 %156, %233
  %235 = add i32 %234, %72
  %236 = zext i32 %235 to i64
  %237 = getelementptr inbounds double, ptr %154, i64 %236
  store double %232, ptr %237, align 8, !tbaa !18
  %238 = add nuw nsw i64 %214, 3
  %239 = getelementptr inbounds double, ptr %152, i64 %238
  %240 = load double, ptr %239, align 8, !tbaa !18
  %241 = trunc i64 %238 to i32
  %242 = mul i32 %156, %241
  %243 = add i32 %242, %72
  %244 = zext i32 %243 to i64
  %245 = getelementptr inbounds double, ptr %154, i64 %244
  store double %240, ptr %245, align 8, !tbaa !18
  %246 = add nuw nsw i64 %214, 4
  %247 = icmp eq i64 %246, %49
  br i1 %247, label %207, label %213, !llvm.loop !51

248:                                              ; preds = %211, %138
  %249 = phi { ptr, i32 } [ %139, %138 ], [ %212, %211 ]
  %250 = load ptr, ptr %5, align 8, !tbaa !15
  %251 = icmp eq ptr %250, null
  br i1 %251, label %272, label %252

252:                                              ; preds = %248
  call void @_ZdlPv(ptr noundef nonnull %250) #28
  br label %272

253:                                              ; preds = %48, %79
  call void @llvm.lifetime.end.p0(i64 24, ptr nonnull %5) #25
  %254 = load ptr, ptr %3, align 8, !tbaa !21
  %255 = load ptr, ptr %35, align 8, !tbaa !24
  %256 = icmp eq ptr %254, %255
  br i1 %256, label %267, label %257

257:                                              ; preds = %253, %262
  %258 = phi ptr [ %263, %262 ], [ %254, %253 ]
  %259 = load ptr, ptr %258, align 8, !tbaa !15
  %260 = icmp eq ptr %259, null
  br i1 %260, label %262, label %261

261:                                              ; preds = %257
  call void @_ZdlPv(ptr noundef nonnull %259) #28
  br label %262

262:                                              ; preds = %261, %257
  %263 = getelementptr inbounds %"class.std::vector.67", ptr %258, i64 1
  %264 = icmp eq ptr %263, %255
  br i1 %264, label %265, label %257

265:                                              ; preds = %262
  %266 = load ptr, ptr %3, align 8, !tbaa !21
  br label %267

267:                                              ; preds = %265, %253
  %268 = phi ptr [ %266, %265 ], [ %254, %253 ]
  %269 = icmp eq ptr %268, null
  br i1 %269, label %271, label %270

270:                                              ; preds = %267
  call void @_ZdlPv(ptr noundef nonnull %268) #28
  br label %271

271:                                              ; preds = %267, %270
  call void @llvm.lifetime.end.p0(i64 24, ptr nonnull %3) #25
  ret void

272:                                              ; preds = %252, %248, %91
  %273 = phi { ptr, i32 } [ %92, %91 ], [ %249, %248 ], [ %249, %252 ]
  call void @llvm.lifetime.end.p0(i64 24, ptr nonnull %5) #25
  %274 = load ptr, ptr %3, align 8, !tbaa !21
  %275 = load ptr, ptr %35, align 8, !tbaa !24
  %276 = icmp eq ptr %274, %275
  br i1 %276, label %287, label %277

277:                                              ; preds = %272, %282
  %278 = phi ptr [ %283, %282 ], [ %274, %272 ]
  %279 = load ptr, ptr %278, align 8, !tbaa !15
  %280 = icmp eq ptr %279, null
  br i1 %280, label %282, label %281

281:                                              ; preds = %277
  call void @_ZdlPv(ptr noundef nonnull %279) #28
  br label %282

282:                                              ; preds = %281, %277
  %283 = getelementptr inbounds %"class.std::vector.67", ptr %278, i64 1
  %284 = icmp eq ptr %283, %275
  br i1 %284, label %285, label %277

285:                                              ; preds = %282
  %286 = load ptr, ptr %3, align 8, !tbaa !21
  br label %287

287:                                              ; preds = %285, %272
  %288 = phi ptr [ %286, %285 ], [ %274, %272 ]
  %289 = icmp eq ptr %288, null
  br i1 %289, label %291, label %290

290:                                              ; preds = %287
  call void @_ZdlPv(ptr noundef nonnull %288) #28
  br label %291

291:                                              ; preds = %290, %287, %89
  %292 = phi { ptr, i32 } [ %90, %89 ], [ %273, %287 ], [ %273, %290 ]
  call void @llvm.lifetime.end.p0(i64 24, ptr nonnull %3) #25
  resume { ptr, i32 } %292
}

; Function Attrs: mustprogress nocallback nofree nosync nounwind willreturn memory(argmem: readwrite)
declare void @llvm.lifetime.start.p0(i64 immarg, ptr nocapture) #3

declare noundef nonnull align 8 dereferenceable(24) ptr @_ZNK6dealii13FiniteElementILi3ELi3EE30get_generalized_support_pointsEv(ptr noundef nonnull align 8 dereferenceable(728)) local_unnamed_addr #4

declare i32 @__gxx_personality_v0(...)

; Function Attrs: mustprogress nocallback nofree nosync nounwind willreturn memory(argmem: readwrite)
declare void @llvm.lifetime.end.p0(i64 immarg, ptr nocapture) #3

; Function Attrs: noinline noreturn nounwind sspstrong uwtable
define linkonce_odr hidden void @__clang_call_terminate(ptr noundef %0) local_unnamed_addr #5 comdat {
  %2 = tail call ptr @__cxa_begin_catch(ptr %0) #25
  tail call void @_ZSt9terminatev() #24
  unreachable
}

declare ptr @__cxa_begin_catch(ptr) local_unnamed_addr

declare void @_ZSt9terminatev() local_unnamed_addr

; Function Attrs: sspstrong uwtable
define weak_odr dso_local void @_ZN6dealii7FETools22compute_component_wiseILi3ELi3EEEvRKNS_13FiniteElementIXT_EXT0_EEERSt6vectorIjSaIjEERS6_IS8_SaIS8_EE(ptr noundef nonnull align 8 dereferenceable(728) %0, ptr noundef nonnull align 8 dereferenceable(24) %1, ptr noundef nonnull align 8 dereferenceable(24) %2) local_unnamed_addr #2 comdat align 2 personality ptr @__gxx_personality_v0 {
  %4 = alloca i32, align 4
  %5 = alloca %"class.std::vector.48", align 8
  %6 = load ptr, ptr %0, align 8, !tbaa !25
  %7 = getelementptr inbounds ptr, ptr %6, i64 18
  %8 = load ptr, ptr %7, align 8
  %9 = tail call noundef i32 %8(ptr noundef nonnull align 8 dereferenceable(728) %0)
  %10 = zext i32 %9 to i64
  call void @llvm.memset.p0.i64(ptr noundef nonnull align 8 dereferenceable(24) %5, i8 0, i64 24, i1 false)
  %11 = getelementptr inbounds %"struct.std::_Vector_base<std::vector<unsigned int>, std::allocator<std::vector<unsigned int> > >::_Vector_impl_data", ptr %2, i64 0, i32 1
  %12 = load ptr, ptr %11, align 8, !tbaa !27
  %13 = load ptr, ptr %2, align 8, !tbaa !52
  %14 = ptrtoint ptr %12 to i64
  %15 = ptrtoint ptr %13 to i64
  %16 = sub i64 %14, %15
  %17 = sdiv exact i64 %16, 24
  %18 = icmp ult i64 %17, %10
  br i1 %18, label %19, label %21

19:                                               ; preds = %3
  %20 = sub nsw i64 %10, %17
  invoke void @_ZNSt6vectorIS_IjSaIjEESaIS1_EE14_M_fill_insertEN9__gnu_cxx17__normal_iteratorIPS1_S3_EEmRKS1_(ptr noundef nonnull align 8 dereferenceable(24) %2, ptr %12, i64 noundef %20, ptr noundef nonnull align 8 dereferenceable(24) %5)
          to label %35 unwind label %52

21:                                               ; preds = %3
  %22 = icmp ugt i64 %17, %10
  br i1 %22, label %23, label %39

23:                                               ; preds = %21
  %24 = getelementptr inbounds %"class.std::vector.48", ptr %13, i64 %10
  %25 = icmp eq ptr %12, %24
  br i1 %25, label %39, label %26

26:                                               ; preds = %23, %31
  %27 = phi ptr [ %32, %31 ], [ %24, %23 ]
  %28 = load ptr, ptr %27, align 8, !tbaa !54
  %29 = icmp eq ptr %28, null
  br i1 %29, label %31, label %30

30:                                               ; preds = %26
  tail call void @_ZdlPv(ptr noundef nonnull %28) #28
  br label %31

31:                                               ; preds = %30, %26
  %32 = getelementptr inbounds %"class.std::vector.48", ptr %27, i64 1
  %33 = icmp eq ptr %32, %12
  br i1 %33, label %34, label %26

34:                                               ; preds = %31
  store ptr %24, ptr %11, align 8, !tbaa !56
  br label %39

35:                                               ; preds = %19
  %36 = load ptr, ptr %5, align 8, !tbaa !54
  %37 = icmp eq ptr %36, null
  br i1 %37, label %39, label %38

38:                                               ; preds = %35
  call void @_ZdlPv(ptr noundef nonnull %36) #28
  br label %39

39:                                               ; preds = %21, %23, %34, %35, %38
  %40 = load ptr, ptr %11, align 8, !tbaa !56
  %41 = load ptr, ptr %2, align 8, !tbaa !52
  %42 = icmp eq ptr %40, %41
  br i1 %42, label %43, label %57

43:                                               ; preds = %101, %39
  %44 = phi ptr [ %40, %39 ], [ %91, %101 ]
  %45 = getelementptr inbounds i8, ptr %0, i64 112
  %46 = load i32, ptr %45, align 8, !tbaa !5
  %47 = icmp eq i32 %46, 0
  br i1 %47, label %120, label %48

48:                                               ; preds = %43
  %49 = getelementptr inbounds %"class.dealii::FiniteElement", ptr %0, i64 0, i32 14
  %50 = load ptr, ptr %49, align 8, !tbaa !57
  %51 = load ptr, ptr %1, align 8, !tbaa !54
  br label %121

52:                                               ; preds = %19
  %53 = landingpad { ptr, i32 }
          cleanup
  %54 = load ptr, ptr %5, align 8, !tbaa !54
  %55 = icmp eq ptr %54, null
  br i1 %55, label %139, label %56

56:                                               ; preds = %52
  call void @_ZdlPv(ptr noundef nonnull %54) #28
  br label %139

57:                                               ; preds = %39, %101
  %58 = phi ptr [ %91, %101 ], [ %41, %39 ]
  %59 = phi i64 [ %104, %101 ], [ 0, %39 ]
  %60 = phi i32 [ %102, %101 ], [ 0, %39 ]
  %61 = phi i32 [ %103, %101 ], [ 0, %39 ]
  %62 = getelementptr inbounds %"class.std::vector.48", ptr %58, i64 %59
  %63 = load ptr, ptr %0, align 8, !tbaa !25
  %64 = getelementptr inbounds ptr, ptr %63, i64 20
  %65 = load ptr, ptr %64, align 8
  %66 = call noundef i32 %65(ptr noundef nonnull align 8 dereferenceable(728) %0, i32 noundef %61)
  %67 = zext i32 %66 to i64
  call void @llvm.lifetime.start.p0(i64 4, ptr nonnull %4)
  store i32 0, ptr %4, align 4, !tbaa !45
  %68 = getelementptr inbounds %"struct.std::_Vector_base<unsigned int, std::allocator<unsigned int> >::_Vector_impl_data", ptr %62, i64 0, i32 1
  %69 = load ptr, ptr %68, align 8, !tbaa !27
  %70 = load ptr, ptr %62, align 8, !tbaa !54
  %71 = ptrtoint ptr %69 to i64
  %72 = ptrtoint ptr %70 to i64
  %73 = sub i64 %71, %72
  %74 = ashr exact i64 %73, 2
  %75 = icmp ult i64 %74, %67
  br i1 %75, label %76, label %78

76:                                               ; preds = %57
  %77 = sub nsw i64 %67, %74
  call void @_ZNSt6vectorIjSaIjEE14_M_fill_insertEN9__gnu_cxx17__normal_iteratorIPjS1_EEmRKj(ptr noundef nonnull align 8 dereferenceable(24) %62, ptr %69, i64 noundef %77, ptr noundef nonnull align 4 dereferenceable(4) %4)
  br label %84

78:                                               ; preds = %57
  %79 = icmp ugt i64 %74, %67
  br i1 %79, label %80, label %84

80:                                               ; preds = %78
  %81 = getelementptr inbounds i32, ptr %70, i64 %67
  %82 = icmp eq ptr %69, %81
  br i1 %82, label %84, label %83

83:                                               ; preds = %80
  store ptr %81, ptr %68, align 8, !tbaa !59
  br label %84

84:                                               ; preds = %76, %78, %80, %83
  call void @llvm.lifetime.end.p0(i64 4, ptr nonnull %4)
  %85 = load ptr, ptr %0, align 8, !tbaa !25
  %86 = getelementptr inbounds ptr, ptr %85, i64 19
  %87 = load ptr, ptr %86, align 8
  %88 = call noundef nonnull align 8 dereferenceable(728) ptr %87(ptr noundef nonnull align 8 dereferenceable(728) %0, i32 noundef %61)
  %89 = getelementptr inbounds i8, ptr %88, i64 112
  %90 = load i32, ptr %89, align 8, !tbaa !5
  %91 = load ptr, ptr %2, align 8, !tbaa !52
  %92 = getelementptr inbounds %"class.std::vector.48", ptr %91, i64 %59
  %93 = getelementptr inbounds %"struct.std::_Vector_base<unsigned int, std::allocator<unsigned int> >::_Vector_impl_data", ptr %92, i64 0, i32 1
  %94 = load ptr, ptr %93, align 8, !tbaa !59
  %95 = load ptr, ptr %92, align 8, !tbaa !54
  %96 = ptrtoint ptr %94 to i64
  %97 = ptrtoint ptr %95 to i64
  %98 = sub i64 %96, %97
  %99 = ashr exact i64 %98, 2
  %100 = icmp eq ptr %94, %95
  br i1 %100, label %101, label %111

101:                                              ; preds = %111, %84
  %102 = phi i32 [ %60, %84 ], [ %116, %111 ]
  %103 = add i32 %61, 1
  %104 = zext i32 %103 to i64
  %105 = load ptr, ptr %11, align 8, !tbaa !56
  %106 = ptrtoint ptr %105 to i64
  %107 = ptrtoint ptr %91 to i64
  %108 = sub i64 %106, %107
  %109 = sdiv exact i64 %108, 24
  %110 = icmp ugt i64 %109, %104
  br i1 %110, label %57, label %43

111:                                              ; preds = %84, %111
  %112 = phi i64 [ %118, %111 ], [ 0, %84 ]
  %113 = phi i32 [ %116, %111 ], [ %60, %84 ]
  %114 = phi i32 [ %117, %111 ], [ 0, %84 ]
  %115 = getelementptr inbounds i32, ptr %95, i64 %112
  store i32 %113, ptr %115, align 4, !tbaa !45
  %116 = add i32 %113, %90
  %117 = add i32 %114, 1
  %118 = zext i32 %117 to i64
  %119 = icmp ugt i64 %99, %118
  br i1 %119, label %111, label %101

120:                                              ; preds = %121, %43
  ret void

121:                                              ; preds = %48, %121
  %122 = phi i64 [ 0, %48 ], [ %135, %121 ]
  %123 = getelementptr inbounds %"struct.std::pair", ptr %50, i64 %122
  %124 = load i64, ptr %123, align 4
  %125 = getelementptr inbounds i8, ptr %123, i64 8
  %126 = load i32, ptr %125, align 4
  %127 = and i64 %124, 4294967295
  %128 = getelementptr inbounds %"class.std::vector.48", ptr %44, i64 %127
  %129 = lshr i64 %124, 32
  %130 = load ptr, ptr %128, align 8, !tbaa !54
  %131 = getelementptr inbounds i32, ptr %130, i64 %129
  %132 = load i32, ptr %131, align 4, !tbaa !45
  %133 = add i32 %132, %126
  %134 = getelementptr inbounds i32, ptr %51, i64 %122
  store i32 %133, ptr %134, align 4, !tbaa !45
  %135 = add nuw nsw i64 %122, 1
  %136 = load i32, ptr %45, align 8, !tbaa !5
  %137 = zext i32 %136 to i64
  %138 = icmp ult i64 %135, %137
  br i1 %138, label %121, label %120

139:                                              ; preds = %56, %52
  resume { ptr, i32 } %53
}

; Function Attrs: mustprogress nocallback nofree nounwind willreturn memory(argmem: readwrite)
declare void @llvm.memcpy.p0.p0.i64(ptr noalias nocapture writeonly, ptr noalias nocapture readonly, i64, i1 immarg) #6

; Function Attrs: sspstrong uwtable
define weak_odr dso_local void @_ZN6dealii7FETools25compute_block_renumberingILi3ELi3EEEvRKNS_13FiniteElementIXT_EXT0_EEERSt6vectorIjSaIjEES9_(ptr noundef nonnull align 8 dereferenceable(728) %0, ptr noundef nonnull align 8 dereferenceable(24) %1, ptr noundef nonnull align 8 dereferenceable(24) %2) local_unnamed_addr #2 comdat align 2 {
  %4 = load ptr, ptr %0, align 8, !tbaa !25
  %5 = getelementptr inbounds ptr, ptr %4, i64 18
  %6 = load ptr, ptr %5, align 8
  %7 = tail call noundef i32 %6(ptr noundef nonnull align 8 dereferenceable(728) %0)
  %8 = icmp eq i32 %7, 0
  br i1 %8, label %18, label %9

9:                                                ; preds = %3, %29
  %10 = phi i32 [ %31, %29 ], [ 0, %3 ]
  %11 = phi i32 [ %30, %29 ], [ 0, %3 ]
  %12 = phi i32 [ %32, %29 ], [ 0, %3 ]
  %13 = load ptr, ptr %0, align 8, !tbaa !25
  %14 = getelementptr inbounds ptr, ptr %13, i64 20
  %15 = load ptr, ptr %14, align 8
  %16 = tail call noundef i32 %15(ptr noundef nonnull align 8 dereferenceable(728) %0, i32 noundef %12)
  %17 = icmp eq i32 %16, 0
  br i1 %17, label %29, label %38

18:                                               ; preds = %29, %3
  %19 = getelementptr inbounds i8, ptr %0, i64 112
  %20 = load i32, ptr %19, align 8, !tbaa !5
  %21 = icmp eq i32 %20, 0
  br i1 %21, label %59, label %22

22:                                               ; preds = %18
  %23 = getelementptr inbounds %"class.dealii::FiniteElement", ptr %0, i64 0, i32 14
  %24 = load ptr, ptr %23, align 8, !tbaa !57
  %25 = getelementptr inbounds %"class.dealii::FiniteElement", ptr %0, i64 0, i32 16
  %26 = load ptr, ptr %25, align 8, !tbaa !54
  %27 = load ptr, ptr %2, align 8, !tbaa !54
  %28 = load ptr, ptr %1, align 8, !tbaa !54
  br label %60

29:                                               ; preds = %38, %9
  %30 = phi i32 [ %11, %9 ], [ %42, %38 ]
  %31 = phi i32 [ %10, %9 ], [ %52, %38 ]
  %32 = add nuw i32 %12, 1
  %33 = load ptr, ptr %0, align 8, !tbaa !25
  %34 = getelementptr inbounds ptr, ptr %33, i64 18
  %35 = load ptr, ptr %34, align 8
  %36 = tail call noundef i32 %35(ptr noundef nonnull align 8 dereferenceable(728) %0)
  %37 = icmp ult i32 %32, %36
  br i1 %37, label %9, label %18

38:                                               ; preds = %9, %38
  %39 = phi i32 [ %52, %38 ], [ %10, %9 ]
  %40 = phi i32 [ %42, %38 ], [ %11, %9 ]
  %41 = phi i32 [ %53, %38 ], [ 0, %9 ]
  %42 = add i32 %40, 1
  %43 = zext i32 %40 to i64
  %44 = load ptr, ptr %2, align 8, !tbaa !54
  %45 = getelementptr inbounds i32, ptr %44, i64 %43
  store i32 %39, ptr %45, align 4, !tbaa !45
  %46 = load ptr, ptr %0, align 8, !tbaa !25
  %47 = getelementptr inbounds ptr, ptr %46, i64 19
  %48 = load ptr, ptr %47, align 8
  %49 = tail call noundef nonnull align 8 dereferenceable(728) ptr %48(ptr noundef nonnull align 8 dereferenceable(728) %0, i32 noundef %12)
  %50 = getelementptr inbounds i8, ptr %49, i64 112
  %51 = load i32, ptr %50, align 8, !tbaa !5
  %52 = add i32 %51, %39
  %53 = add nuw i32 %41, 1
  %54 = load ptr, ptr %0, align 8, !tbaa !25
  %55 = getelementptr inbounds ptr, ptr %54, i64 20
  %56 = load ptr, ptr %55, align 8
  %57 = tail call noundef i32 %56(ptr noundef nonnull align 8 dereferenceable(728) %0, i32 noundef %12)
  %58 = icmp ult i32 %53, %57
  br i1 %58, label %38, label %29

59:                                               ; preds = %60, %18
  ret void

60:                                               ; preds = %22, %60
  %61 = phi i64 [ 0, %22 ], [ %77, %60 ]
  %62 = getelementptr inbounds %"struct.std::pair", ptr %24, i64 %61
  %63 = load i32, ptr %62, align 4, !tbaa !60
  %64 = zext i32 %63 to i64
  %65 = getelementptr inbounds i32, ptr %26, i64 %64
  %66 = load i32, ptr %65, align 4, !tbaa !45
  %67 = getelementptr inbounds %"struct.std::pair.77", ptr %62, i64 0, i32 1
  %68 = load i32, ptr %67, align 4, !tbaa !63
  %69 = add i32 %68, %66
  %70 = getelementptr inbounds %"struct.std::pair", ptr %24, i64 %61, i32 1
  %71 = load i32, ptr %70, align 4, !tbaa !45
  %72 = zext i32 %69 to i64
  %73 = getelementptr inbounds i32, ptr %27, i64 %72
  %74 = load i32, ptr %73, align 4, !tbaa !45
  %75 = add i32 %74, %71
  %76 = getelementptr inbounds i32, ptr %28, i64 %61
  store i32 %75, ptr %76, align 4, !tbaa !45
  %77 = add nuw nsw i64 %61, 1
  %78 = load i32, ptr %19, align 8, !tbaa !5
  %79 = zext i32 %78 to i64
  %80 = icmp ult i64 %77, %79
  br i1 %80, label %60, label %59
}

; Function Attrs: sspstrong uwtable
define weak_odr dso_local void @_ZN6dealii7FETools24get_interpolation_matrixILi3EdLi3EEEvRKNS_13FiniteElementIXT_EXT1_EEES5_RNS_10FullMatrixIT0_EE(ptr noundef nonnull align 8 dereferenceable(728) %0, ptr noundef nonnull align 8 dereferenceable(728) %1, ptr noundef nonnull align 8 dereferenceable(92) %2) local_unnamed_addr #2 comdat align 2 personality ptr @__gxx_personality_v0 {
  %4 = load ptr, ptr %1, align 8, !tbaa !25
  %5 = getelementptr inbounds ptr, ptr %4, i64 11
  %6 = load ptr, ptr %5, align 8
  invoke void %6(ptr noundef nonnull align 8 dereferenceable(728) %1, ptr noundef nonnull align 8 dereferenceable(728) %0, ptr noundef nonnull align 8 dereferenceable(92) %2)
          to label %85 unwind label %7

7:                                                ; preds = %3
  %8 = landingpad { ptr, i32 }
          cleanup
          catch ptr @_ZTIN6dealii13FiniteElementILi3ELi3EE30ExcInterpolationNotImplementedE
  %9 = extractvalue { ptr, i32 } %8, 1
  %10 = tail call i32 @llvm.eh.typeid.for(ptr nonnull @_ZTIN6dealii13FiniteElementILi3ELi3EE30ExcInterpolationNotImplementedE) #25
  %11 = icmp eq i32 %9, %10
  br i1 %11, label %12, label %86

12:                                               ; preds = %7
  %13 = extractvalue { ptr, i32 } %8, 0
  %14 = tail call ptr @__cxa_begin_catch(ptr %13) #25
  tail call void @__cxa_end_catch()
  %15 = tail call noundef nonnull align 8 dereferenceable(24) ptr @_ZNK6dealii13FiniteElementILi3ELi3EE23get_unit_support_pointsEv(ptr noundef nonnull align 8 dereferenceable(728) %1)
  %16 = getelementptr inbounds i8, ptr %1, i64 112
  %17 = load i32, ptr %16, align 8, !tbaa !5
  %18 = icmp eq i32 %17, 0
  br i1 %18, label %85, label %19

19:                                               ; preds = %12
  %20 = getelementptr inbounds %"class.dealii::FiniteElement", ptr %1, i64 0, i32 12
  %21 = getelementptr inbounds i8, ptr %0, i64 112
  %22 = getelementptr inbounds %"class.dealii::FiniteElement", ptr %0, i64 0, i32 12
  %23 = getelementptr inbounds %"class.dealii::TableBase", ptr %2, i64 0, i32 1
  %24 = getelementptr inbounds %"class.dealii::TableBase", ptr %2, i64 0, i32 3, i32 0, i32 0, i64 1
  %25 = load i32, ptr %21, align 8, !tbaa !5
  %26 = icmp eq i32 %25, 0
  br i1 %26, label %85, label %27

27:                                               ; preds = %19, %42
  %28 = phi i32 [ %43, %42 ], [ %17, %19 ]
  %29 = phi i32 [ %44, %42 ], [ %25, %19 ]
  %30 = phi i32 [ %45, %42 ], [ 1, %19 ]
  %31 = phi i64 [ %46, %42 ], [ 0, %19 ]
  %32 = load ptr, ptr %20, align 8, !tbaa !64
  %33 = getelementptr inbounds %"struct.std::pair.77", ptr %32, i64 %31
  %34 = load i64, ptr %33, align 4
  %35 = trunc i64 %34 to i32
  %36 = icmp eq i32 %30, 0
  br i1 %36, label %42, label %37

37:                                               ; preds = %27
  %38 = trunc i64 %31 to i32
  %39 = trunc i64 %31 to i32
  br label %49

40:                                               ; preds = %80
  %41 = load i32, ptr %16, align 8, !tbaa !5
  br label %42

42:                                               ; preds = %40, %27
  %43 = phi i32 [ %41, %40 ], [ %28, %27 ]
  %44 = phi i32 [ %81, %40 ], [ %29, %27 ]
  %45 = phi i32 [ %81, %40 ], [ 0, %27 ]
  %46 = add nuw nsw i64 %31, 1
  %47 = zext i32 %43 to i64
  %48 = icmp ult i64 %46, %47
  br i1 %48, label %27, label %85, !llvm.loop !66

49:                                               ; preds = %37, %80
  %50 = phi i32 [ %29, %37 ], [ %81, %80 ]
  %51 = phi i64 [ 0, %37 ], [ %82, %80 ]
  %52 = load ptr, ptr %22, align 8, !tbaa !64
  %53 = getelementptr inbounds %"struct.std::pair.77", ptr %52, i64 %51
  %54 = load i64, ptr %53, align 4
  %55 = trunc i64 %54 to i32
  %56 = icmp eq i32 %35, %55
  br i1 %56, label %57, label %72

57:                                               ; preds = %49
  %58 = load ptr, ptr %15, align 8, !tbaa !14
  %59 = getelementptr inbounds %"class.dealii::Point", ptr %58, i64 %31
  %60 = load ptr, ptr %0, align 8, !tbaa !25
  %61 = getelementptr inbounds ptr, ptr %60, i64 3
  %62 = load ptr, ptr %61, align 8
  %63 = trunc i64 %51 to i32
  %64 = tail call noundef double %62(ptr noundef nonnull align 8 dereferenceable(728) %0, i32 noundef %63, ptr noundef nonnull align 8 dereferenceable(24) %59)
  %65 = load ptr, ptr %23, align 8, !tbaa !31
  %66 = load i32, ptr %24, align 8, !tbaa !45
  %67 = mul i32 %66, %39
  %68 = add i32 %67, %63
  %69 = zext i32 %68 to i64
  %70 = getelementptr inbounds double, ptr %65, i64 %69
  store double %64, ptr %70, align 8, !tbaa !18
  %71 = load i32, ptr %21, align 8, !tbaa !5
  br label %80

72:                                               ; preds = %49
  %73 = load ptr, ptr %23, align 8, !tbaa !31
  %74 = load i32, ptr %24, align 8, !tbaa !45
  %75 = mul i32 %74, %38
  %76 = trunc i64 %51 to i32
  %77 = add i32 %75, %76
  %78 = zext i32 %77 to i64
  %79 = getelementptr inbounds double, ptr %73, i64 %78
  store double 0.000000e+00, ptr %79, align 8, !tbaa !18
  br label %80

80:                                               ; preds = %72, %57
  %81 = phi i32 [ %50, %72 ], [ %71, %57 ]
  %82 = add nuw nsw i64 %51, 1
  %83 = zext i32 %81 to i64
  %84 = icmp ult i64 %82, %83
  br i1 %84, label %49, label %40

85:                                               ; preds = %42, %19, %12, %3
  ret void

86:                                               ; preds = %7
  resume { ptr, i32 } %8
}

; Function Attrs: nofree nosync nounwind memory(none)
declare i32 @llvm.eh.typeid.for(ptr) #7

declare void @__cxa_end_catch() local_unnamed_addr

declare noundef nonnull align 8 dereferenceable(24) ptr @_ZNK6dealii13FiniteElementILi3ELi3EE23get_unit_support_pointsEv(ptr noundef nonnull align 8 dereferenceable(728)) local_unnamed_addr #4

; Function Attrs: sspstrong uwtable
define weak_odr dso_local void @_ZN6dealii7FETools29get_back_interpolation_matrixILi3EdLi3EEEvRKNS_13FiniteElementIXT_EXT1_EEES5_RNS_10FullMatrixIT0_EE(ptr noundef nonnull align 8 dereferenceable(728) %0, ptr noundef nonnull align 8 dereferenceable(728) %1, ptr noundef nonnull align 8 dereferenceable(92) %2) local_unnamed_addr #2 comdat align 2 personality ptr @__gxx_personality_v0 {
  %4 = alloca %"class.dealii::FullMatrix", align 8
  %5 = alloca %"class.dealii::FullMatrix", align 8
  call void @llvm.lifetime.start.p0(i64 96, ptr nonnull %4) #25
  %6 = getelementptr inbounds i8, ptr %1, i64 112
  %7 = load i32, ptr %6, align 8, !tbaa !5
  %8 = getelementptr inbounds i8, ptr %0, i64 112
  %9 = load i32, ptr %8, align 8, !tbaa !5
  call void @_ZN6dealii10FullMatrixIdEC1Ejj(ptr noundef nonnull align 8 dereferenceable(92) %4, i32 noundef %7, i32 noundef %9)
  call void @llvm.lifetime.start.p0(i64 96, ptr nonnull %5) #25
  %10 = load i32, ptr %8, align 8, !tbaa !5
  %11 = load i32, ptr %6, align 8, !tbaa !5
  invoke void @_ZN6dealii10FullMatrixIdEC1Ejj(ptr noundef nonnull align 8 dereferenceable(92) %5, i32 noundef %10, i32 noundef %11)
          to label %12 unwind label %27

12:                                               ; preds = %3
  invoke void @_ZN6dealii7FETools24get_interpolation_matrixILi3EdLi3EEEvRKNS_13FiniteElementIXT_EXT1_EEES5_RNS_10FullMatrixIT0_EE(ptr noundef nonnull align 8 dereferenceable(728) %0, ptr noundef nonnull align 8 dereferenceable(728) %1, ptr noundef nonnull align 8 dereferenceable(92) %4)
          to label %13 unwind label %29

13:                                               ; preds = %12
  invoke void @_ZN6dealii7FETools24get_interpolation_matrixILi3EdLi3EEEvRKNS_13FiniteElementIXT_EXT1_EEES5_RNS_10FullMatrixIT0_EE(ptr noundef nonnull align 8 dereferenceable(728) %1, ptr noundef nonnull align 8 dereferenceable(728) %0, ptr noundef nonnull align 8 dereferenceable(92) %5)
          to label %14 unwind label %29

14:                                               ; preds = %13
  invoke void @_ZNK6dealii10FullMatrixIdE5mmultIdEEvRNS0_IT_EERKS4_b(ptr noundef nonnull align 8 dereferenceable(92) %5, ptr noundef nonnull align 8 dereferenceable(92) %2, ptr noundef nonnull align 8 dereferenceable(92) %4, i1 noundef zeroext false)
          to label %15 unwind label %29

15:                                               ; preds = %14
  store ptr getelementptr inbounds ({ [4 x ptr] }, ptr @_ZTVN6dealii9TableBaseILi2EdEE, i64 0, inrange i32 0, i64 2), ptr %5, align 8, !tbaa !25
  %16 = getelementptr inbounds %"class.dealii::TableBase", ptr %5, i64 0, i32 1
  %17 = load ptr, ptr %16, align 8, !tbaa !31
  %18 = icmp eq ptr %17, null
  br i1 %18, label %20, label %19

19:                                               ; preds = %15
  call void @_ZdaPv(ptr noundef nonnull %17) #28
  br label %20

20:                                               ; preds = %19, %15
  invoke void @_ZN6dealii11SubscriptorD2Ev(ptr noundef nonnull align 8 dereferenceable(72) %5)
          to label %21 unwind label %27

21:                                               ; preds = %20
  call void @llvm.lifetime.end.p0(i64 96, ptr nonnull %5) #25
  store ptr getelementptr inbounds ({ [4 x ptr] }, ptr @_ZTVN6dealii9TableBaseILi2EdEE, i64 0, inrange i32 0, i64 2), ptr %4, align 8, !tbaa !25
  %22 = getelementptr inbounds %"class.dealii::TableBase", ptr %4, i64 0, i32 1
  %23 = load ptr, ptr %22, align 8, !tbaa !31
  %24 = icmp eq ptr %23, null
  br i1 %24, label %26, label %25

25:                                               ; preds = %21
  call void @_ZdaPv(ptr noundef nonnull %23) #28
  br label %26

26:                                               ; preds = %21, %25
  call void @_ZN6dealii11SubscriptorD2Ev(ptr noundef nonnull align 8 dereferenceable(72) %4)
  call void @llvm.lifetime.end.p0(i64 96, ptr nonnull %4) #25
  ret void

27:                                               ; preds = %20, %3
  %28 = landingpad { ptr, i32 }
          cleanup
  br label %31

29:                                               ; preds = %14, %13, %12
  %30 = landingpad { ptr, i32 }
          cleanup
  invoke void @_ZN6dealii9TableBaseILi2EdED2Ev(ptr noundef nonnull align 8 dereferenceable(92) %5)
          to label %31 unwind label %34

31:                                               ; preds = %29, %27
  %32 = phi { ptr, i32 } [ %28, %27 ], [ %30, %29 ]
  call void @llvm.lifetime.end.p0(i64 96, ptr nonnull %5) #25
  invoke void @_ZN6dealii9TableBaseILi2EdED2Ev(ptr noundef nonnull align 8 dereferenceable(92) %4)
          to label %33 unwind label %34

33:                                               ; preds = %31
  call void @llvm.lifetime.end.p0(i64 96, ptr nonnull %4) #25
  resume { ptr, i32 } %32

34:                                               ; preds = %31, %29
  %35 = landingpad { ptr, i32 }
          catch ptr null
  %36 = extractvalue { ptr, i32 } %35, 0
  call void @__clang_call_terminate(ptr %36) #24
  unreachable
}

declare void @_ZN6dealii10FullMatrixIdEC1Ejj(ptr noundef nonnull align 8 dereferenceable(92), i32 noundef, i32 noundef) unnamed_addr #4

declare void @_ZNK6dealii10FullMatrixIdE5mmultIdEEvRNS0_IT_EERKS4_b(ptr noundef nonnull align 8 dereferenceable(92), ptr noundef nonnull align 8 dereferenceable(92), ptr noundef nonnull align 8 dereferenceable(92), i1 noundef zeroext) local_unnamed_addr #4

; Function Attrs: sspstrong uwtable
define weak_odr dso_local void @_ZN6dealii7FETools35get_interpolation_difference_matrixILi3EdLi3EEEvRKNS_13FiniteElementIXT_EXT1_EEES5_RNS_10FullMatrixIT0_EE(ptr noundef nonnull align 8 dereferenceable(728) %0, ptr noundef nonnull align 8 dereferenceable(728) %1, ptr noundef nonnull align 8 dereferenceable(92) %2) local_unnamed_addr #2 comdat align 2 personality ptr @__gxx_personality_v0 {
  %4 = alloca %"class.dealii::FullMatrix", align 8
  call void @llvm.lifetime.start.p0(i64 96, ptr nonnull %4) #25
  %5 = getelementptr inbounds i8, ptr %0, i64 112
  %6 = load i32, ptr %5, align 8, !tbaa !5
  call void @_ZN6dealii10FullMatrixIdEC1Ej(ptr noundef nonnull align 8 dereferenceable(92) %4, i32 noundef %6)
  invoke void @_ZN6dealii7FETools29get_back_interpolation_matrixILi3EdLi3EEEvRKNS_13FiniteElementIXT_EXT1_EEES5_RNS_10FullMatrixIT0_EE(ptr noundef nonnull align 8 dereferenceable(728) %0, ptr noundef nonnull align 8 dereferenceable(728) %1, ptr noundef nonnull align 8 dereferenceable(92) %4)
          to label %7 unwind label %35

7:                                                ; preds = %3
  %8 = load i32, ptr %5, align 8, !tbaa !5
  %9 = icmp eq i32 %8, 0
  br i1 %9, label %34, label %10

10:                                               ; preds = %7
  %11 = getelementptr inbounds %"class.dealii::TableBase", ptr %2, i64 0, i32 1
  %12 = load ptr, ptr %11, align 8, !tbaa !31
  %13 = getelementptr inbounds %"class.dealii::TableBase", ptr %2, i64 0, i32 3, i32 0, i32 0, i64 1
  %14 = load i32, ptr %13, align 8, !tbaa !45
  %15 = add i32 %14, 1
  %16 = zext i32 %8 to i64
  %17 = and i64 %16, 3
  %18 = icmp ult i32 %8, 4
  br i1 %18, label %21, label %19

19:                                               ; preds = %10
  %20 = and i64 %16, 4294967292
  br label %37

21:                                               ; preds = %37, %10
  %22 = phi i64 [ 0, %10 ], [ %59, %37 ]
  %23 = icmp eq i64 %17, 0
  br i1 %23, label %34, label %24

24:                                               ; preds = %21, %24
  %25 = phi i64 [ %31, %24 ], [ %22, %21 ]
  %26 = phi i64 [ %32, %24 ], [ 0, %21 ]
  %27 = trunc i64 %25 to i32
  %28 = mul i32 %15, %27
  %29 = zext i32 %28 to i64
  %30 = getelementptr inbounds double, ptr %12, i64 %29
  store double 1.000000e+00, ptr %30, align 8, !tbaa !18
  %31 = add nuw nsw i64 %25, 1
  %32 = add i64 %26, 1
  %33 = icmp eq i64 %32, %17
  br i1 %33, label %34, label %24, !llvm.loop !68

34:                                               ; preds = %21, %24, %7
  invoke void @_ZN6dealii10FullMatrixIdE3addIdEEvdRKNS0_IT_EE(ptr noundef nonnull align 8 dereferenceable(92) %2, double noundef -1.000000e+00, ptr noundef nonnull align 8 dereferenceable(92) %4)
          to label %62 unwind label %35

35:                                               ; preds = %34, %3
  %36 = landingpad { ptr, i32 }
          cleanup
  invoke void @_ZN6dealii9TableBaseILi2EdED2Ev(ptr noundef nonnull align 8 dereferenceable(92) %4)
          to label %68 unwind label %69

37:                                               ; preds = %37, %19
  %38 = phi i64 [ 0, %19 ], [ %59, %37 ]
  %39 = phi i64 [ 0, %19 ], [ %60, %37 ]
  %40 = trunc i64 %38 to i32
  %41 = mul i32 %15, %40
  %42 = zext i32 %41 to i64
  %43 = getelementptr inbounds double, ptr %12, i64 %42
  store double 1.000000e+00, ptr %43, align 8, !tbaa !18
  %44 = trunc i64 %38 to i32
  %45 = or i32 %44, 1
  %46 = mul i32 %15, %45
  %47 = zext i32 %46 to i64
  %48 = getelementptr inbounds double, ptr %12, i64 %47
  store double 1.000000e+00, ptr %48, align 8, !tbaa !18
  %49 = trunc i64 %38 to i32
  %50 = or i32 %49, 2
  %51 = mul i32 %15, %50
  %52 = zext i32 %51 to i64
  %53 = getelementptr inbounds double, ptr %12, i64 %52
  store double 1.000000e+00, ptr %53, align 8, !tbaa !18
  %54 = trunc i64 %38 to i32
  %55 = or i32 %54, 3
  %56 = mul i32 %15, %55
  %57 = zext i32 %56 to i64
  %58 = getelementptr inbounds double, ptr %12, i64 %57
  store double 1.000000e+00, ptr %58, align 8, !tbaa !18
  %59 = add nuw nsw i64 %38, 4
  %60 = add i64 %39, 4
  %61 = icmp eq i64 %60, %20
  br i1 %61, label %21, label %37

62:                                               ; preds = %34
  store ptr getelementptr inbounds ({ [4 x ptr] }, ptr @_ZTVN6dealii9TableBaseILi2EdEE, i64 0, inrange i32 0, i64 2), ptr %4, align 8, !tbaa !25
  %63 = getelementptr inbounds %"class.dealii::TableBase", ptr %4, i64 0, i32 1
  %64 = load ptr, ptr %63, align 8, !tbaa !31
  %65 = icmp eq ptr %64, null
  br i1 %65, label %67, label %66

66:                                               ; preds = %62
  call void @_ZdaPv(ptr noundef nonnull %64) #28
  br label %67

67:                                               ; preds = %62, %66
  call void @_ZN6dealii11SubscriptorD2Ev(ptr noundef nonnull align 8 dereferenceable(72) %4)
  call void @llvm.lifetime.end.p0(i64 96, ptr nonnull %4) #25
  ret void

68:                                               ; preds = %35
  call void @llvm.lifetime.end.p0(i64 96, ptr nonnull %4) #25
  resume { ptr, i32 } %36

69:                                               ; preds = %35
  %70 = landingpad { ptr, i32 }
          catch ptr null
  %71 = extractvalue { ptr, i32 } %70, 0
  call void @__clang_call_terminate(ptr %71) #24
  unreachable
}

declare void @_ZN6dealii10FullMatrixIdEC1Ej(ptr noundef nonnull align 8 dereferenceable(92), i32 noundef) unnamed_addr #4

declare void @_ZN6dealii10FullMatrixIdE3addIdEEvdRKNS0_IT_EE(ptr noundef nonnull align 8 dereferenceable(92), double noundef, ptr noundef nonnull align 8 dereferenceable(92)) local_unnamed_addr #4

; Function Attrs: sspstrong uwtable
define weak_odr dso_local void @_ZN6dealii7FETools24get_interpolation_matrixILi3EfLi3EEEvRKNS_13FiniteElementIXT_EXT1_EEES5_RNS_10FullMatrixIT0_EE(ptr noundef nonnull align 8 dereferenceable(728) %0, ptr noundef nonnull align 8 dereferenceable(728) %1, ptr noundef nonnull align 8 dereferenceable(92) %2) local_unnamed_addr #2 comdat align 2 personality ptr @__gxx_personality_v0 {
  %4 = alloca %"class.dealii::FullMatrix", align 8
  call void @llvm.lifetime.start.p0(i64 96, ptr nonnull %4) #25
  %5 = getelementptr inbounds %"class.dealii::TableBase.81", ptr %2, i64 0, i32 3
  %6 = load i32, ptr %5, align 4, !tbaa !45
  %7 = getelementptr inbounds %"class.dealii::TableBase.81", ptr %2, i64 0, i32 3, i32 0, i32 0, i64 1
  %8 = load i32, ptr %7, align 8, !tbaa !45
  invoke void @_ZN6dealii10FullMatrixIdEC1Ejj(ptr noundef nonnull align 8 dereferenceable(92) %4, i32 noundef %6, i32 noundef %8)
          to label %9 unwind label %28

9:                                                ; preds = %3
  %10 = load ptr, ptr %1, align 8, !tbaa !25
  %11 = getelementptr inbounds ptr, ptr %10, i64 11
  %12 = load ptr, ptr %11, align 8
  invoke void %12(ptr noundef nonnull align 8 dereferenceable(728) %1, ptr noundef nonnull align 8 dereferenceable(728) %0, ptr noundef nonnull align 8 dereferenceable(92) %4)
          to label %13 unwind label %21

13:                                               ; preds = %9
  %14 = invoke noundef nonnull align 8 dereferenceable(92) ptr @_ZN6dealii10FullMatrixIfEaSIdEERS1_RKNS0_IT_EE(ptr noundef nonnull align 8 dereferenceable(92) %2, ptr noundef nonnull align 8 dereferenceable(92) %4)
          to label %15 unwind label %21

15:                                               ; preds = %13
  store ptr getelementptr inbounds ({ [4 x ptr] }, ptr @_ZTVN6dealii9TableBaseILi2EdEE, i64 0, inrange i32 0, i64 2), ptr %4, align 8, !tbaa !25
  %16 = getelementptr inbounds %"class.dealii::TableBase", ptr %4, i64 0, i32 1
  %17 = load ptr, ptr %16, align 8, !tbaa !31
  %18 = icmp eq ptr %17, null
  br i1 %18, label %20, label %19

19:                                               ; preds = %15
  call void @_ZdaPv(ptr noundef nonnull %17) #28
  br label %20

20:                                               ; preds = %19, %15
  invoke void @_ZN6dealii11SubscriptorD2Ev(ptr noundef nonnull align 8 dereferenceable(72) %4)
          to label %27 unwind label %28

21:                                               ; preds = %13, %9
  %22 = landingpad { ptr, i32 }
          cleanup
          catch ptr @_ZTIN6dealii13FiniteElementILi3ELi3EE30ExcInterpolationNotImplementedE
  invoke void @_ZN6dealii9TableBaseILi2EdED2Ev(ptr noundef nonnull align 8 dereferenceable(92) %4)
          to label %23 unwind label %24

23:                                               ; preds = %21
  call void @llvm.lifetime.end.p0(i64 96, ptr nonnull %4) #25
  br label %30

24:                                               ; preds = %21
  %25 = landingpad { ptr, i32 }
          catch ptr null
  %26 = extractvalue { ptr, i32 } %25, 0
  call void @__clang_call_terminate(ptr %26) #24
  unreachable

27:                                               ; preds = %20
  call void @llvm.lifetime.end.p0(i64 96, ptr nonnull %4) #25
  br label %108

28:                                               ; preds = %20, %3
  %29 = landingpad { ptr, i32 }
          cleanup
          catch ptr @_ZTIN6dealii13FiniteElementILi3ELi3EE30ExcInterpolationNotImplementedE
  br label %30

30:                                               ; preds = %23, %28
  %31 = phi { ptr, i32 } [ %29, %28 ], [ %22, %23 ]
  %32 = extractvalue { ptr, i32 } %31, 1
  %33 = call i32 @llvm.eh.typeid.for(ptr nonnull @_ZTIN6dealii13FiniteElementILi3ELi3EE30ExcInterpolationNotImplementedE) #25
  %34 = icmp eq i32 %32, %33
  br i1 %34, label %35, label %109

35:                                               ; preds = %30
  %36 = extractvalue { ptr, i32 } %31, 0
  %37 = call ptr @__cxa_begin_catch(ptr %36) #25
  call void @__cxa_end_catch()
  %38 = call noundef nonnull align 8 dereferenceable(24) ptr @_ZNK6dealii13FiniteElementILi3ELi3EE23get_unit_support_pointsEv(ptr noundef nonnull align 8 dereferenceable(728) %1)
  %39 = getelementptr inbounds i8, ptr %1, i64 112
  %40 = load i32, ptr %39, align 8, !tbaa !5
  %41 = icmp eq i32 %40, 0
  br i1 %41, label %108, label %42

42:                                               ; preds = %35
  %43 = getelementptr inbounds %"class.dealii::FiniteElement", ptr %1, i64 0, i32 12
  %44 = getelementptr inbounds i8, ptr %0, i64 112
  %45 = getelementptr inbounds %"class.dealii::FiniteElement", ptr %0, i64 0, i32 12
  %46 = getelementptr inbounds %"class.dealii::TableBase.81", ptr %2, i64 0, i32 1
  %47 = load i32, ptr %44, align 8, !tbaa !5
  %48 = icmp eq i32 %47, 0
  br i1 %48, label %108, label %49

49:                                               ; preds = %42, %64
  %50 = phi i32 [ %65, %64 ], [ %40, %42 ]
  %51 = phi i32 [ %66, %64 ], [ %47, %42 ]
  %52 = phi i32 [ %67, %64 ], [ 1, %42 ]
  %53 = phi i64 [ %68, %64 ], [ 0, %42 ]
  %54 = load ptr, ptr %43, align 8, !tbaa !64
  %55 = getelementptr inbounds %"struct.std::pair.77", ptr %54, i64 %53
  %56 = load i64, ptr %55, align 4
  %57 = trunc i64 %56 to i32
  %58 = icmp eq i32 %52, 0
  br i1 %58, label %64, label %59

59:                                               ; preds = %49
  %60 = trunc i64 %53 to i32
  %61 = trunc i64 %53 to i32
  br label %71

62:                                               ; preds = %103
  %63 = load i32, ptr %39, align 8, !tbaa !5
  br label %64

64:                                               ; preds = %62, %49
  %65 = phi i32 [ %63, %62 ], [ %50, %49 ]
  %66 = phi i32 [ %104, %62 ], [ %51, %49 ]
  %67 = phi i32 [ %104, %62 ], [ 0, %49 ]
  %68 = add nuw nsw i64 %53, 1
  %69 = zext i32 %65 to i64
  %70 = icmp ult i64 %68, %69
  br i1 %70, label %49, label %108, !llvm.loop !69

71:                                               ; preds = %59, %103
  %72 = phi i32 [ %51, %59 ], [ %104, %103 ]
  %73 = phi i64 [ 0, %59 ], [ %105, %103 ]
  %74 = load ptr, ptr %45, align 8, !tbaa !64
  %75 = getelementptr inbounds %"struct.std::pair.77", ptr %74, i64 %73
  %76 = load i64, ptr %75, align 4
  %77 = trunc i64 %76 to i32
  %78 = icmp eq i32 %57, %77
  br i1 %78, label %79, label %95

79:                                               ; preds = %71
  %80 = load ptr, ptr %38, align 8, !tbaa !14
  %81 = getelementptr inbounds %"class.dealii::Point", ptr %80, i64 %53
  %82 = load ptr, ptr %0, align 8, !tbaa !25
  %83 = getelementptr inbounds ptr, ptr %82, i64 3
  %84 = load ptr, ptr %83, align 8
  %85 = trunc i64 %73 to i32
  %86 = call noundef double %84(ptr noundef nonnull align 8 dereferenceable(728) %0, i32 noundef %85, ptr noundef nonnull align 8 dereferenceable(24) %81)
  %87 = fptrunc double %86 to float
  %88 = load ptr, ptr %46, align 8, !tbaa !70
  %89 = load i32, ptr %7, align 8, !tbaa !45
  %90 = mul i32 %89, %61
  %91 = add i32 %90, %85
  %92 = zext i32 %91 to i64
  %93 = getelementptr inbounds float, ptr %88, i64 %92
  store float %87, ptr %93, align 4, !tbaa !72
  %94 = load i32, ptr %44, align 8, !tbaa !5
  br label %103

95:                                               ; preds = %71
  %96 = load ptr, ptr %46, align 8, !tbaa !70
  %97 = load i32, ptr %7, align 8, !tbaa !45
  %98 = mul i32 %97, %60
  %99 = trunc i64 %73 to i32
  %100 = add i32 %98, %99
  %101 = zext i32 %100 to i64
  %102 = getelementptr inbounds float, ptr %96, i64 %101
  store float 0.000000e+00, ptr %102, align 4, !tbaa !72
  br label %103

103:                                              ; preds = %95, %79
  %104 = phi i32 [ %72, %95 ], [ %94, %79 ]
  %105 = add nuw nsw i64 %73, 1
  %106 = zext i32 %104 to i64
  %107 = icmp ult i64 %105, %106
  br i1 %107, label %71, label %62

108:                                              ; preds = %64, %42, %35, %27
  ret void

109:                                              ; preds = %30
  resume { ptr, i32 } %31
}

; Function Attrs: sspstrong uwtable
define weak_odr dso_local void @_ZN6dealii7FETools29get_back_interpolation_matrixILi3EfLi3EEEvRKNS_13FiniteElementIXT_EXT1_EEES5_RNS_10FullMatrixIT0_EE(ptr noundef nonnull align 8 dereferenceable(728) %0, ptr noundef nonnull align 8 dereferenceable(728) %1, ptr noundef nonnull align 8 dereferenceable(92) %2) local_unnamed_addr #2 comdat align 2 personality ptr @__gxx_personality_v0 {
  %4 = alloca %"class.dealii::FullMatrix.79", align 8
  %5 = alloca %"class.dealii::FullMatrix.79", align 8
  call void @llvm.lifetime.start.p0(i64 96, ptr nonnull %4) #25
  %6 = getelementptr inbounds i8, ptr %1, i64 112
  %7 = load i32, ptr %6, align 8, !tbaa !5
  %8 = getelementptr inbounds i8, ptr %0, i64 112
  %9 = load i32, ptr %8, align 8, !tbaa !5
  call void @_ZN6dealii10FullMatrixIfEC1Ejj(ptr noundef nonnull align 8 dereferenceable(92) %4, i32 noundef %7, i32 noundef %9)
  call void @llvm.lifetime.start.p0(i64 96, ptr nonnull %5) #25
  %10 = load i32, ptr %8, align 8, !tbaa !5
  %11 = load i32, ptr %6, align 8, !tbaa !5
  invoke void @_ZN6dealii10FullMatrixIfEC1Ejj(ptr noundef nonnull align 8 dereferenceable(92) %5, i32 noundef %10, i32 noundef %11)
          to label %12 unwind label %27

12:                                               ; preds = %3
  invoke void @_ZN6dealii7FETools24get_interpolation_matrixILi3EfLi3EEEvRKNS_13FiniteElementIXT_EXT1_EEES5_RNS_10FullMatrixIT0_EE(ptr noundef nonnull align 8 dereferenceable(728) %0, ptr noundef nonnull align 8 dereferenceable(728) %1, ptr noundef nonnull align 8 dereferenceable(92) %4)
          to label %13 unwind label %29

13:                                               ; preds = %12
  invoke void @_ZN6dealii7FETools24get_interpolation_matrixILi3EfLi3EEEvRKNS_13FiniteElementIXT_EXT1_EEES5_RNS_10FullMatrixIT0_EE(ptr noundef nonnull align 8 dereferenceable(728) %1, ptr noundef nonnull align 8 dereferenceable(728) %0, ptr noundef nonnull align 8 dereferenceable(92) %5)
          to label %14 unwind label %29

14:                                               ; preds = %13
  invoke void @_ZNK6dealii10FullMatrixIfE5mmultIfEEvRNS0_IT_EERKS4_b(ptr noundef nonnull align 8 dereferenceable(92) %5, ptr noundef nonnull align 8 dereferenceable(92) %2, ptr noundef nonnull align 8 dereferenceable(92) %4, i1 noundef zeroext false)
          to label %15 unwind label %29

15:                                               ; preds = %14
  store ptr getelementptr inbounds ({ [4 x ptr] }, ptr @_ZTVN6dealii9TableBaseILi2EfEE, i64 0, inrange i32 0, i64 2), ptr %5, align 8, !tbaa !25
  %16 = getelementptr inbounds %"class.dealii::TableBase.81", ptr %5, i64 0, i32 1
  %17 = load ptr, ptr %16, align 8, !tbaa !70
  %18 = icmp eq ptr %17, null
  br i1 %18, label %20, label %19

19:                                               ; preds = %15
  call void @_ZdaPv(ptr noundef nonnull %17) #28
  br label %20

20:                                               ; preds = %19, %15
  invoke void @_ZN6dealii11SubscriptorD2Ev(ptr noundef nonnull align 8 dereferenceable(72) %5)
          to label %21 unwind label %27

21:                                               ; preds = %20
  call void @llvm.lifetime.end.p0(i64 96, ptr nonnull %5) #25
  store ptr getelementptr inbounds ({ [4 x ptr] }, ptr @_ZTVN6dealii9TableBaseILi2EfEE, i64 0, inrange i32 0, i64 2), ptr %4, align 8, !tbaa !25
  %22 = getelementptr inbounds %"class.dealii::TableBase.81", ptr %4, i64 0, i32 1
  %23 = load ptr, ptr %22, align 8, !tbaa !70
  %24 = icmp eq ptr %23, null
  br i1 %24, label %26, label %25

25:                                               ; preds = %21
  call void @_ZdaPv(ptr noundef nonnull %23) #28
  br label %26

26:                                               ; preds = %21, %25
  call void @_ZN6dealii11SubscriptorD2Ev(ptr noundef nonnull align 8 dereferenceable(72) %4)
  call void @llvm.lifetime.end.p0(i64 96, ptr nonnull %4) #25
  ret void

27:                                               ; preds = %20, %3
  %28 = landingpad { ptr, i32 }
          cleanup
  br label %31

29:                                               ; preds = %14, %13, %12
  %30 = landingpad { ptr, i32 }
          cleanup
  invoke void @_ZN6dealii9TableBaseILi2EfED2Ev(ptr noundef nonnull align 8 dereferenceable(92) %5)
          to label %31 unwind label %34

31:                                               ; preds = %29, %27
  %32 = phi { ptr, i32 } [ %28, %27 ], [ %30, %29 ]
  call void @llvm.lifetime.end.p0(i64 96, ptr nonnull %5) #25
  invoke void @_ZN6dealii9TableBaseILi2EfED2Ev(ptr noundef nonnull align 8 dereferenceable(92) %4)
          to label %33 unwind label %34

33:                                               ; preds = %31
  call void @llvm.lifetime.end.p0(i64 96, ptr nonnull %4) #25
  resume { ptr, i32 } %32

34:                                               ; preds = %31, %29
  %35 = landingpad { ptr, i32 }
          catch ptr null
  %36 = extractvalue { ptr, i32 } %35, 0
  call void @__clang_call_terminate(ptr %36) #24
  unreachable
}

declare void @_ZN6dealii10FullMatrixIfEC1Ejj(ptr noundef nonnull align 8 dereferenceable(92), i32 noundef, i32 noundef) unnamed_addr #4

declare void @_ZNK6dealii10FullMatrixIfE5mmultIfEEvRNS0_IT_EERKS4_b(ptr noundef nonnull align 8 dereferenceable(92), ptr noundef nonnull align 8 dereferenceable(92), ptr noundef nonnull align 8 dereferenceable(92), i1 noundef zeroext) local_unnamed_addr #4

; Function Attrs: sspstrong uwtable
define weak_odr dso_local void @_ZN6dealii7FETools35get_interpolation_difference_matrixILi3EfLi3EEEvRKNS_13FiniteElementIXT_EXT1_EEES5_RNS_10FullMatrixIT0_EE(ptr noundef nonnull align 8 dereferenceable(728) %0, ptr noundef nonnull align 8 dereferenceable(728) %1, ptr noundef nonnull align 8 dereferenceable(92) %2) local_unnamed_addr #2 comdat align 2 personality ptr @__gxx_personality_v0 {
  %4 = alloca %"class.dealii::FullMatrix.79", align 8
  call void @llvm.lifetime.start.p0(i64 96, ptr nonnull %4) #25
  %5 = getelementptr inbounds i8, ptr %0, i64 112
  %6 = load i32, ptr %5, align 8, !tbaa !5
  call void @_ZN6dealii10FullMatrixIfEC1Ej(ptr noundef nonnull align 8 dereferenceable(92) %4, i32 noundef %6)
  invoke void @_ZN6dealii7FETools29get_back_interpolation_matrixILi3EfLi3EEEvRKNS_13FiniteElementIXT_EXT1_EEES5_RNS_10FullMatrixIT0_EE(ptr noundef nonnull align 8 dereferenceable(728) %0, ptr noundef nonnull align 8 dereferenceable(728) %1, ptr noundef nonnull align 8 dereferenceable(92) %4)
          to label %7 unwind label %35

7:                                                ; preds = %3
  %8 = load i32, ptr %5, align 8, !tbaa !5
  %9 = icmp eq i32 %8, 0
  br i1 %9, label %34, label %10

10:                                               ; preds = %7
  %11 = getelementptr inbounds %"class.dealii::TableBase.81", ptr %2, i64 0, i32 1
  %12 = load ptr, ptr %11, align 8, !tbaa !70
  %13 = getelementptr inbounds %"class.dealii::TableBase.81", ptr %2, i64 0, i32 3, i32 0, i32 0, i64 1
  %14 = load i32, ptr %13, align 8, !tbaa !45
  %15 = add i32 %14, 1
  %16 = zext i32 %8 to i64
  %17 = and i64 %16, 3
  %18 = icmp ult i32 %8, 4
  br i1 %18, label %21, label %19

19:                                               ; preds = %10
  %20 = and i64 %16, 4294967292
  br label %37

21:                                               ; preds = %37, %10
  %22 = phi i64 [ 0, %10 ], [ %59, %37 ]
  %23 = icmp eq i64 %17, 0
  br i1 %23, label %34, label %24

24:                                               ; preds = %21, %24
  %25 = phi i64 [ %31, %24 ], [ %22, %21 ]
  %26 = phi i64 [ %32, %24 ], [ 0, %21 ]
  %27 = trunc i64 %25 to i32
  %28 = mul i32 %15, %27
  %29 = zext i32 %28 to i64
  %30 = getelementptr inbounds float, ptr %12, i64 %29
  store float 1.000000e+00, ptr %30, align 4, !tbaa !72
  %31 = add nuw nsw i64 %25, 1
  %32 = add i64 %26, 1
  %33 = icmp eq i64 %32, %17
  br i1 %33, label %34, label %24, !llvm.loop !74

34:                                               ; preds = %21, %24, %7
  invoke void @_ZN6dealii10FullMatrixIfE3addIfEEvfRKNS0_IT_EE(ptr noundef nonnull align 8 dereferenceable(92) %2, float noundef -1.000000e+00, ptr noundef nonnull align 8 dereferenceable(92) %4)
          to label %62 unwind label %35

35:                                               ; preds = %34, %3
  %36 = landingpad { ptr, i32 }
          cleanup
  invoke void @_ZN6dealii9TableBaseILi2EfED2Ev(ptr noundef nonnull align 8 dereferenceable(92) %4)
          to label %68 unwind label %69

37:                                               ; preds = %37, %19
  %38 = phi i64 [ 0, %19 ], [ %59, %37 ]
  %39 = phi i64 [ 0, %19 ], [ %60, %37 ]
  %40 = trunc i64 %38 to i32
  %41 = mul i32 %15, %40
  %42 = zext i32 %41 to i64
  %43 = getelementptr inbounds float, ptr %12, i64 %42
  store float 1.000000e+00, ptr %43, align 4, !tbaa !72
  %44 = trunc i64 %38 to i32
  %45 = or i32 %44, 1
  %46 = mul i32 %15, %45
  %47 = zext i32 %46 to i64
  %48 = getelementptr inbounds float, ptr %12, i64 %47
  store float 1.000000e+00, ptr %48, align 4, !tbaa !72
  %49 = trunc i64 %38 to i32
  %50 = or i32 %49, 2
  %51 = mul i32 %15, %50
  %52 = zext i32 %51 to i64
  %53 = getelementptr inbounds float, ptr %12, i64 %52
  store float 1.000000e+00, ptr %53, align 4, !tbaa !72
  %54 = trunc i64 %38 to i32
  %55 = or i32 %54, 3
  %56 = mul i32 %15, %55
  %57 = zext i32 %56 to i64
  %58 = getelementptr inbounds float, ptr %12, i64 %57
  store float 1.000000e+00, ptr %58, align 4, !tbaa !72
  %59 = add nuw nsw i64 %38, 4
  %60 = add i64 %39, 4
  %61 = icmp eq i64 %60, %20
  br i1 %61, label %21, label %37

62:                                               ; preds = %34
  store ptr getelementptr inbounds ({ [4 x ptr] }, ptr @_ZTVN6dealii9TableBaseILi2EfEE, i64 0, inrange i32 0, i64 2), ptr %4, align 8, !tbaa !25
  %63 = getelementptr inbounds %"class.dealii::TableBase.81", ptr %4, i64 0, i32 1
  %64 = load ptr, ptr %63, align 8, !tbaa !70
  %65 = icmp eq ptr %64, null
  br i1 %65, label %67, label %66

66:                                               ; preds = %62
  call void @_ZdaPv(ptr noundef nonnull %64) #28
  br label %67

67:                                               ; preds = %62, %66
  call void @_ZN6dealii11SubscriptorD2Ev(ptr noundef nonnull align 8 dereferenceable(72) %4)
  call void @llvm.lifetime.end.p0(i64 96, ptr nonnull %4) #25
  ret void

68:                                               ; preds = %35
  call void @llvm.lifetime.end.p0(i64 96, ptr nonnull %4) #25
  resume { ptr, i32 } %36

69:                                               ; preds = %35
  %70 = landingpad { ptr, i32 }
          catch ptr null
  %71 = extractvalue { ptr, i32 } %70, 0
  call void @__clang_call_terminate(ptr %71) #24
  unreachable
}

declare void @_ZN6dealii10FullMatrixIfEC1Ej(ptr noundef nonnull align 8 dereferenceable(92), i32 noundef) unnamed_addr #4

declare void @_ZN6dealii10FullMatrixIfE3addIfEEvfRKNS0_IT_EE(ptr noundef nonnull align 8 dereferenceable(92), float noundef, ptr noundef nonnull align 8 dereferenceable(92)) local_unnamed_addr #4

; Function Attrs: sspstrong uwtable
define weak_odr dso_local void @_ZN6dealii7FETools21get_projection_matrixILi3EdLi3EEEvRKNS_13FiniteElementIXT_EXT1_EEES5_RNS_10FullMatrixIT0_EE(ptr noundef nonnull align 8 dereferenceable(728) %0, ptr noundef nonnull align 8 dereferenceable(728) %1, ptr noundef nonnull align 8 dereferenceable(92) %2) local_unnamed_addr #2 comdat align 2 personality ptr @__gxx_personality_v0 {
  %4 = alloca %"class.dealii::Triangulation", align 8
  %5 = alloca %"class.dealii::QGauss", align 8
  %6 = alloca %"class.dealii::FEValues", align 8
  %7 = alloca %"class.dealii::TriaActiveIterator", align 8
  %8 = alloca %"class.dealii::FEValues", align 8
  %9 = alloca %"class.dealii::TriaActiveIterator", align 8
  %10 = alloca %"class.dealii::FullMatrix", align 8
  %11 = alloca %"class.dealii::Vector", align 8
  %12 = alloca %"class.dealii::Vector", align 8
  %13 = getelementptr inbounds %"class.dealii::TableBase", ptr %2, i64 0, i32 3
  %14 = load i32, ptr %13, align 4, !tbaa !45
  %15 = getelementptr inbounds %"class.dealii::TableBase", ptr %2, i64 0, i32 3, i32 0, i32 0, i64 1
  %16 = load i32, ptr %15, align 8, !tbaa !45
  %17 = mul i32 %16, %14
  %18 = icmp eq i32 %17, 0
  br i1 %18, label %24, label %19

19:                                               ; preds = %3
  %20 = getelementptr inbounds %"class.dealii::TableBase", ptr %2, i64 0, i32 1
  %21 = load ptr, ptr %20, align 8, !tbaa !31
  %22 = zext i32 %17 to i64
  %23 = shl nuw nsw i64 %22, 3
  tail call void @llvm.memset.p0.i64(ptr align 8 %21, i8 0, i64 %23, i1 false), !tbaa !18
  br label %24

24:                                               ; preds = %3, %19
  %25 = getelementptr inbounds i8, ptr %0, i64 112
  %26 = load i32, ptr %25, align 8, !tbaa !5
  %27 = getelementptr inbounds i8, ptr %1, i64 112
  %28 = load i32, ptr %27, align 8, !tbaa !5
  call void @llvm.lifetime.start.p0(i64 8552, ptr nonnull %4) #25
  call void @_ZN6dealii13TriangulationILi3ELi3EEC1ENS1_13MeshSmoothingE(ptr noundef nonnull align 8 dereferenceable(8552) %4, i32 noundef 0)
  invoke void @_ZN6dealii13GridGenerator10hyper_cubeILi3ELi3EEEvRNS_13TriangulationIXT_EXT0_EEEdd(ptr noundef nonnull align 8 dereferenceable(8552) %4, double noundef 0.000000e+00, double noundef 1.000000e+00)
          to label %29 unwind label %301

29:                                               ; preds = %24
  %30 = getelementptr inbounds i8, ptr %0, i64 124
  %31 = load i32, ptr %30, align 4, !tbaa !75
  %32 = getelementptr inbounds i8, ptr %1, i64 124
  %33 = load i32, ptr %32, align 4, !tbaa !75
  %34 = call i32 @llvm.umax.i32(i32 %31, i32 %33)
  call void @llvm.lifetime.start.p0(i64 128, ptr nonnull %5) #25
  %35 = add i32 %34, 1
  invoke void @_ZN6dealii6QGaussILi3EEC1Ej(ptr noundef nonnull align 8 dereferenceable(128) %5, i32 noundef %35)
          to label %36 unwind label %303

36:                                               ; preds = %29
  call void @llvm.lifetime.start.p0(i64 776, ptr nonnull %6) #25
  invoke void @_ZN6dealii8FEValuesILi3ELi3EEC1ERKNS_13FiniteElementILi3ELi3EEERKNS_10QuadratureILi3EEENS_11UpdateFlagsE(ptr noundef nonnull align 8 dereferenceable(776) %6, ptr noundef nonnull align 8 dereferenceable(728) %0, ptr noundef nonnull align 8 dereferenceable(128) %5, i32 noundef 1)
          to label %37 unwind label %305

37:                                               ; preds = %36
  call void @llvm.lifetime.start.p0(i64 16, ptr nonnull %7) #25
  invoke void @_ZNK6dealii13TriangulationILi3ELi3EE12begin_activeEj(ptr nonnull sret(%"class.dealii::TriaActiveIterator") align 8 %7, ptr noundef nonnull align 8 dereferenceable(8552) %4, i32 noundef 0)
          to label %38 unwind label %307

38:                                               ; preds = %37
  invoke void @_ZN6dealii8FEValuesILi3ELi3EE6reinitERKNS_12TriaIteratorINS_12CellAccessorILi3ELi3EEEEE(ptr noundef nonnull align 8 dereferenceable(776) %6, ptr noundef nonnull align 8 dereferenceable(16) %7)
          to label %39 unwind label %307

39:                                               ; preds = %38
  call void @llvm.lifetime.end.p0(i64 16, ptr nonnull %7) #25
  call void @llvm.lifetime.start.p0(i64 776, ptr nonnull %8) #25
  invoke void @_ZN6dealii8FEValuesILi3ELi3EEC1ERKNS_13FiniteElementILi3ELi3EEERKNS_10QuadratureILi3EEENS_11UpdateFlagsE(ptr noundef nonnull align 8 dereferenceable(776) %8, ptr noundef nonnull align 8 dereferenceable(728) %1, ptr noundef nonnull align 8 dereferenceable(128) %5, i32 noundef 49)
          to label %40 unwind label %309

40:                                               ; preds = %39
  call void @llvm.lifetime.start.p0(i64 16, ptr nonnull %9) #25
  invoke void @_ZNK6dealii13TriangulationILi3ELi3EE12begin_activeEj(ptr nonnull sret(%"class.dealii::TriaActiveIterator") align 8 %9, ptr noundef nonnull align 8 dereferenceable(8552) %4, i32 noundef 0)
          to label %41 unwind label %311

41:                                               ; preds = %40
  invoke void @_ZN6dealii8FEValuesILi3ELi3EE6reinitERKNS_12TriaIteratorINS_12CellAccessorILi3ELi3EEEEE(ptr noundef nonnull align 8 dereferenceable(776) %8, ptr noundef nonnull align 8 dereferenceable(16) %9)
          to label %42 unwind label %311

42:                                               ; preds = %41
  call void @llvm.lifetime.end.p0(i64 16, ptr nonnull %9) #25
  call void @llvm.lifetime.start.p0(i64 96, ptr nonnull %10) #25
  invoke void @_ZN6dealii10FullMatrixIdEC1Ejj(ptr noundef nonnull align 8 dereferenceable(92) %10, i32 noundef %28, i32 noundef %28)
          to label %43 unwind label %313

43:                                               ; preds = %42
  %44 = getelementptr inbounds %"class.dealii::Quadrature", ptr %5, i64 0, i32 3
  %45 = getelementptr inbounds %"class.dealii::Quadrature", ptr %5, i64 0, i32 3, i32 0, i32 0, i32 0, i32 1
  %46 = load ptr, ptr %45, align 8, !tbaa !20
  %47 = load ptr, ptr %44, align 8, !tbaa !15
  %48 = ptrtoint ptr %46 to i64
  %49 = ptrtoint ptr %47 to i64
  %50 = sub i64 %48, %49
  %51 = lshr exact i64 %50, 3
  %52 = and i64 %50, 34359738360
  %53 = icmp eq i64 %52, 0
  br i1 %53, label %300, label %54

54:                                               ; preds = %43
  %55 = getelementptr inbounds i8, ptr %8, i64 216
  %56 = load ptr, ptr %55, align 8, !tbaa !15
  %57 = icmp eq i32 %28, 0
  %58 = getelementptr inbounds i8, ptr %8, i64 480
  %59 = getelementptr inbounds i8, ptr %8, i64 144
  %60 = load ptr, ptr %59, align 8
  %61 = getelementptr inbounds i8, ptr %8, i64 160
  %62 = load i32, ptr %61, align 8
  %63 = getelementptr inbounds %"class.dealii::TableBase", ptr %10, i64 0, i32 1
  %64 = load ptr, ptr %63, align 8
  %65 = getelementptr inbounds %"class.dealii::TableBase", ptr %10, i64 0, i32 3, i32 0, i32 0, i64 1
  %66 = load i32, ptr %65, align 8
  br i1 %57, label %300, label %67

67:                                               ; preds = %54
  %68 = getelementptr inbounds %"class.dealii::FEValuesBase", ptr %8, i64 0, i32 6
  %69 = load ptr, ptr %68, align 8
  %70 = getelementptr inbounds %"class.dealii::FiniteElement", ptr %69, i64 0, i32 2
  %71 = load i8, ptr %70, align 4, !tbaa !76, !range !117, !noundef !118
  %72 = icmp eq i8 %71, 0
  %73 = and i64 %51, 4294967295
  %74 = zext i32 %28 to i64
  br i1 %72, label %75, label %80

75:                                               ; preds = %67
  %76 = and i64 %74, 1
  %77 = icmp eq i32 %28, 1
  %78 = and i64 %74, 4294967294
  %79 = icmp eq i64 %76, 0
  br label %95

80:                                               ; preds = %67
  %81 = add nsw i64 %74, -1
  %82 = shl nuw nsw i64 %74, 3
  %83 = getelementptr i8, ptr %64, i64 %82
  %84 = getelementptr i8, ptr %60, i64 %82
  %85 = icmp ult i32 %28, 16
  %86 = icmp ne i32 %62, 1
  %87 = trunc i64 %81 to i32
  %88 = icmp ugt i64 %81, 4294967295
  %89 = trunc i64 %81 to i32
  %90 = and i64 %74, 4294967280
  %91 = icmp eq i64 %90, %74
  %92 = and i64 %74, 1
  %93 = icmp eq i64 %92, 0
  %94 = sub nsw i64 0, %74
  br label %169

95:                                               ; preds = %75, %166
  %96 = phi i64 [ %167, %166 ], [ 0, %75 ]
  %97 = getelementptr inbounds double, ptr %56, i64 %96
  %98 = load double, ptr %97, align 8, !tbaa !18
  %99 = load ptr, ptr %58, align 8
  %100 = trunc i64 %96 to i32
  br label %101

101:                                              ; preds = %163, %95
  %102 = phi i64 [ %164, %163 ], [ 0, %95 ]
  %103 = getelementptr inbounds i32, ptr %99, i64 %102
  %104 = load i32, ptr %103, align 4, !tbaa !45
  %105 = mul i32 %62, %104
  %106 = add i32 %105, %100
  %107 = zext i32 %106 to i64
  %108 = getelementptr inbounds double, ptr %60, i64 %107
  %109 = load double, ptr %108, align 8, !tbaa !18
  %110 = fmul double %98, %109
  %111 = trunc i64 %102 to i32
  %112 = mul i32 %66, %111
  %113 = load ptr, ptr %58, align 8
  br i1 %77, label %147, label %114

114:                                              ; preds = %101, %114
  %115 = phi i64 [ %144, %114 ], [ 0, %101 ]
  %116 = phi i64 [ %145, %114 ], [ 0, %101 ]
  %117 = getelementptr inbounds i32, ptr %113, i64 %115
  %118 = load i32, ptr %117, align 4, !tbaa !45
  %119 = mul i32 %118, %62
  %120 = add i32 %119, %100
  %121 = zext i32 %120 to i64
  %122 = getelementptr inbounds double, ptr %60, i64 %121
  %123 = load double, ptr %122, align 8, !tbaa !18
  %124 = trunc i64 %115 to i32
  %125 = add i32 %112, %124
  %126 = zext i32 %125 to i64
  %127 = getelementptr inbounds double, ptr %64, i64 %126
  %128 = load double, ptr %127, align 8, !tbaa !18
  %129 = call double @llvm.fmuladd.f64(double %110, double %123, double %128)
  store double %129, ptr %127, align 8, !tbaa !18
  %130 = or i64 %115, 1
  %131 = getelementptr inbounds i32, ptr %113, i64 %130
  %132 = load i32, ptr %131, align 4, !tbaa !45
  %133 = mul i32 %132, %62
  %134 = add i32 %133, %100
  %135 = zext i32 %134 to i64
  %136 = getelementptr inbounds double, ptr %60, i64 %135
  %137 = load double, ptr %136, align 8, !tbaa !18
  %138 = trunc i64 %130 to i32
  %139 = add i32 %112, %138
  %140 = zext i32 %139 to i64
  %141 = getelementptr inbounds double, ptr %64, i64 %140
  %142 = load double, ptr %141, align 8, !tbaa !18
  %143 = call double @llvm.fmuladd.f64(double %110, double %137, double %142)
  store double %143, ptr %141, align 8, !tbaa !18
  %144 = add nuw nsw i64 %115, 2
  %145 = add i64 %116, 2
  %146 = icmp eq i64 %145, %78
  br i1 %146, label %147, label %114

147:                                              ; preds = %114, %101
  %148 = phi i64 [ 0, %101 ], [ %144, %114 ]
  br i1 %79, label %163, label %149

149:                                              ; preds = %147
  %150 = getelementptr inbounds i32, ptr %113, i64 %148
  %151 = load i32, ptr %150, align 4, !tbaa !45
  %152 = mul i32 %151, %62
  %153 = add i32 %152, %100
  %154 = zext i32 %153 to i64
  %155 = getelementptr inbounds double, ptr %60, i64 %154
  %156 = load double, ptr %155, align 8, !tbaa !18
  %157 = trunc i64 %148 to i32
  %158 = add i32 %112, %157
  %159 = zext i32 %158 to i64
  %160 = getelementptr inbounds double, ptr %64, i64 %159
  %161 = load double, ptr %160, align 8, !tbaa !18
  %162 = call double @llvm.fmuladd.f64(double %110, double %156, double %161)
  store double %162, ptr %160, align 8, !tbaa !18
  br label %163

163:                                              ; preds = %147, %149
  %164 = add nuw nsw i64 %102, 1
  %165 = icmp eq i64 %164, %74
  br i1 %165, label %166, label %101

166:                                              ; preds = %163
  %167 = add nuw nsw i64 %96, 1
  %168 = icmp eq i64 %167, %73
  br i1 %168, label %300, label %95

169:                                              ; preds = %80, %297
  %170 = phi i64 [ %298, %297 ], [ 0, %80 ]
  %171 = shl i64 %170, 3
  %172 = and i64 %171, 34359738360
  %173 = getelementptr i8, ptr %60, i64 %172
  %174 = getelementptr i8, ptr %84, i64 %172
  %175 = trunc i64 %170 to i32
  %176 = getelementptr inbounds double, ptr %56, i64 %170
  %177 = load double, ptr %176, align 8, !tbaa !18
  %178 = trunc i64 %170 to i32
  %179 = xor i32 %175, -1
  %180 = icmp ult i32 %179, %89
  br label %181

181:                                              ; preds = %169, %267
  %182 = phi i64 [ 0, %169 ], [ %268, %267 ]
  %183 = trunc i64 %182 to i32
  %184 = mul i32 %66, %183
  %185 = zext i32 %184 to i64
  %186 = shl nuw nsw i64 %185, 3
  %187 = getelementptr i8, ptr %64, i64 %186
  %188 = getelementptr i8, ptr %83, i64 %186
  %189 = trunc i64 %182 to i32
  %190 = mul i32 %62, %189
  %191 = add i32 %190, %178
  %192 = zext i32 %191 to i64
  %193 = getelementptr inbounds double, ptr %60, i64 %192
  %194 = load double, ptr %193, align 8, !tbaa !18
  %195 = fmul double %177, %194
  %196 = mul i32 %66, %189
  br i1 %85, label %248, label %197

197:                                              ; preds = %181
  %198 = trunc i64 %182 to i32
  %199 = mul i32 %66, %198
  %200 = xor i32 %199, -1
  %201 = icmp ult i32 %200, %87
  %202 = or i1 %201, %88
  %203 = or i1 %86, %202
  %204 = or i1 %180, %203
  br i1 %204, label %248, label %205

205:                                              ; preds = %197
  %206 = icmp ult ptr %187, %174
  %207 = icmp ult ptr %173, %188
  %208 = and i1 %206, %207
  br i1 %208, label %248, label %209

209:                                              ; preds = %205
  %210 = insertelement <4 x double> poison, double %195, i64 0
  %211 = shufflevector <4 x double> %210, <4 x double> poison, <4 x i32> zeroinitializer
  %212 = insertelement <4 x double> poison, double %195, i64 0
  %213 = shufflevector <4 x double> %212, <4 x double> poison, <4 x i32> zeroinitializer
  %214 = insertelement <4 x double> poison, double %195, i64 0
  %215 = shufflevector <4 x double> %214, <4 x double> poison, <4 x i32> zeroinitializer
  %216 = insertelement <4 x double> poison, double %195, i64 0
  %217 = shufflevector <4 x double> %216, <4 x double> poison, <4 x i32> zeroinitializer
  br label %218

218:                                              ; preds = %218, %209
  %219 = phi i64 [ 0, %209 ], [ %245, %218 ]
  %220 = trunc i64 %219 to i32
  %221 = add i64 %219, %170
  %222 = and i64 %221, 4294967295
  %223 = getelementptr inbounds double, ptr %60, i64 %222
  %224 = load <4 x double>, ptr %223, align 8, !tbaa !18, !alias.scope !119
  %225 = getelementptr inbounds double, ptr %223, i64 4
  %226 = load <4 x double>, ptr %225, align 8, !tbaa !18, !alias.scope !119
  %227 = getelementptr inbounds double, ptr %223, i64 8
  %228 = load <4 x double>, ptr %227, align 8, !tbaa !18, !alias.scope !119
  %229 = getelementptr inbounds double, ptr %223, i64 12
  %230 = load <4 x double>, ptr %229, align 8, !tbaa !18, !alias.scope !119
  %231 = add i32 %196, %220
  %232 = zext i32 %231 to i64
  %233 = getelementptr inbounds double, ptr %64, i64 %232
  %234 = load <4 x double>, ptr %233, align 8, !tbaa !18, !alias.scope !122, !noalias !119
  %235 = getelementptr inbounds double, ptr %233, i64 4
  %236 = load <4 x double>, ptr %235, align 8, !tbaa !18, !alias.scope !122, !noalias !119
  %237 = getelementptr inbounds double, ptr %233, i64 8
  %238 = load <4 x double>, ptr %237, align 8, !tbaa !18, !alias.scope !122, !noalias !119
  %239 = getelementptr inbounds double, ptr %233, i64 12
  %240 = load <4 x double>, ptr %239, align 8, !tbaa !18, !alias.scope !122, !noalias !119
  %241 = call <4 x double> @llvm.fmuladd.v4f64(<4 x double> %211, <4 x double> %224, <4 x double> %234)
  %242 = call <4 x double> @llvm.fmuladd.v4f64(<4 x double> %213, <4 x double> %226, <4 x double> %236)
  %243 = call <4 x double> @llvm.fmuladd.v4f64(<4 x double> %215, <4 x double> %228, <4 x double> %238)
  %244 = call <4 x double> @llvm.fmuladd.v4f64(<4 x double> %217, <4 x double> %230, <4 x double> %240)
  store <4 x double> %241, ptr %233, align 8, !tbaa !18, !alias.scope !122, !noalias !119
  store <4 x double> %242, ptr %235, align 8, !tbaa !18, !alias.scope !122, !noalias !119
  store <4 x double> %243, ptr %237, align 8, !tbaa !18, !alias.scope !122, !noalias !119
  store <4 x double> %244, ptr %239, align 8, !tbaa !18, !alias.scope !122, !noalias !119
  %245 = add nuw i64 %219, 16
  %246 = icmp eq i64 %245, %90
  br i1 %246, label %247, label %218, !llvm.loop !124

247:                                              ; preds = %218
  br i1 %91, label %267, label %248

248:                                              ; preds = %205, %197, %181, %247
  %249 = phi i64 [ 0, %205 ], [ 0, %197 ], [ 0, %181 ], [ %90, %247 ]
  %250 = xor i64 %249, -1
  br i1 %93, label %264, label %251

251:                                              ; preds = %248
  %252 = trunc i64 %249 to i32
  %253 = mul i32 %62, %252
  %254 = add i32 %253, %178
  %255 = zext i32 %254 to i64
  %256 = getelementptr inbounds double, ptr %60, i64 %255
  %257 = load double, ptr %256, align 8, !tbaa !18
  %258 = add i32 %196, %252
  %259 = zext i32 %258 to i64
  %260 = getelementptr inbounds double, ptr %64, i64 %259
  %261 = load double, ptr %260, align 8, !tbaa !18
  %262 = call double @llvm.fmuladd.f64(double %195, double %257, double %261)
  store double %262, ptr %260, align 8, !tbaa !18
  %263 = or i64 %249, 1
  br label %264

264:                                              ; preds = %251, %248
  %265 = phi i64 [ %249, %248 ], [ %263, %251 ]
  %266 = icmp eq i64 %250, %94
  br i1 %266, label %267, label %270

267:                                              ; preds = %264, %270, %247
  %268 = add nuw nsw i64 %182, 1
  %269 = icmp eq i64 %268, %74
  br i1 %269, label %297, label %181

270:                                              ; preds = %264, %270
  %271 = phi i64 [ %295, %270 ], [ %265, %264 ]
  %272 = trunc i64 %271 to i32
  %273 = mul i32 %62, %272
  %274 = add i32 %273, %178
  %275 = zext i32 %274 to i64
  %276 = getelementptr inbounds double, ptr %60, i64 %275
  %277 = load double, ptr %276, align 8, !tbaa !18
  %278 = add i32 %196, %272
  %279 = zext i32 %278 to i64
  %280 = getelementptr inbounds double, ptr %64, i64 %279
  %281 = load double, ptr %280, align 8, !tbaa !18
  %282 = call double @llvm.fmuladd.f64(double %195, double %277, double %281)
  store double %282, ptr %280, align 8, !tbaa !18
  %283 = trunc i64 %271 to i32
  %284 = add i32 %283, 1
  %285 = mul i32 %62, %284
  %286 = add i32 %285, %178
  %287 = zext i32 %286 to i64
  %288 = getelementptr inbounds double, ptr %60, i64 %287
  %289 = load double, ptr %288, align 8, !tbaa !18
  %290 = add i32 %196, %284
  %291 = zext i32 %290 to i64
  %292 = getelementptr inbounds double, ptr %64, i64 %291
  %293 = load double, ptr %292, align 8, !tbaa !18
  %294 = call double @llvm.fmuladd.f64(double %195, double %289, double %293)
  store double %294, ptr %292, align 8, !tbaa !18
  %295 = add nuw nsw i64 %271, 2
  %296 = icmp eq i64 %295, %74
  br i1 %296, label %267, label %270, !llvm.loop !125

297:                                              ; preds = %267
  %298 = add nuw nsw i64 %170, 1
  %299 = icmp eq i64 %298, %73
  br i1 %299, label %300, label %169

300:                                              ; preds = %297, %166, %54, %43
  invoke void @_ZN6dealii10FullMatrixIdE12gauss_jordanEv(ptr noundef nonnull align 8 dereferenceable(92) %10)
          to label %315 unwind label %383

301:                                              ; preds = %24
  %302 = landingpad { ptr, i32 }
          cleanup
  br label %866

303:                                              ; preds = %822, %29
  %304 = landingpad { ptr, i32 }
          cleanup
  br label %864

305:                                              ; preds = %816, %36
  %306 = landingpad { ptr, i32 }
          cleanup
  br label %862

307:                                              ; preds = %38, %37
  %308 = landingpad { ptr, i32 }
          cleanup
  call void @llvm.lifetime.end.p0(i64 16, ptr nonnull %7) #25
  br label %853

309:                                              ; preds = %808, %39
  %310 = landingpad { ptr, i32 }
          cleanup
  br label %851

311:                                              ; preds = %41, %40
  %312 = landingpad { ptr, i32 }
          cleanup
  call void @llvm.lifetime.end.p0(i64 16, ptr nonnull %9) #25
  br label %842

313:                                              ; preds = %805, %42
  %314 = landingpad { ptr, i32 }
          cleanup
  br label %840

315:                                              ; preds = %300
  call void @llvm.lifetime.start.p0(i64 88, ptr nonnull %11) #25
  invoke void @_ZN6dealii11SubscriptorC2Ev(ptr noundef nonnull align 8 dereferenceable(72) %11)
          to label %316 unwind label %385

316:                                              ; preds = %315
  store ptr getelementptr inbounds ({ [6 x ptr] }, ptr @_ZTVN6dealii6VectorIdEE, i64 0, inrange i32 0, i64 2), ptr %11, align 8, !tbaa !25
  %317 = getelementptr inbounds %"class.dealii::Vector", ptr %11, i64 0, i32 1
  call void @llvm.memset.p0.i64(ptr noundef nonnull align 8 dereferenceable(16) %317, i8 0, i64 16, i1 false)
  %318 = icmp eq i32 %28, 0
  br i1 %318, label %331, label %319

319:                                              ; preds = %316
  %320 = zext i32 %28 to i64
  %321 = shl nuw nsw i64 %320, 3
  %322 = invoke noalias noundef nonnull ptr @_Znam(i64 noundef %321) #27
          to label %323 unwind label %326

323:                                              ; preds = %319
  %324 = getelementptr inbounds %"class.dealii::Vector", ptr %11, i64 0, i32 3
  %325 = getelementptr inbounds %"class.dealii::Vector", ptr %11, i64 0, i32 2
  store ptr %322, ptr %324, align 8, !tbaa !126
  store i32 %28, ptr %325, align 4, !tbaa !128
  store i32 %28, ptr %317, align 8, !tbaa !129
  call void @llvm.memset.p0.i64(ptr nonnull align 8 %322, i8 0, i64 %321, i1 false), !tbaa !18
  br label %331

326:                                              ; preds = %319
  %327 = landingpad { ptr, i32 }
          cleanup
  invoke void @_ZN6dealii11SubscriptorD2Ev(ptr noundef nonnull align 8 dereferenceable(72) %11)
          to label %831 unwind label %328

328:                                              ; preds = %326
  %329 = landingpad { ptr, i32 }
          catch ptr null
  %330 = extractvalue { ptr, i32 } %329, 0
  call void @__clang_call_terminate(ptr %330) #24
  unreachable

331:                                              ; preds = %323, %316
  call void @llvm.lifetime.start.p0(i64 88, ptr nonnull %12) #25
  invoke void @_ZN6dealii11SubscriptorC2Ev(ptr noundef nonnull align 8 dereferenceable(72) %12)
          to label %332 unwind label %387

332:                                              ; preds = %331
  store ptr getelementptr inbounds ({ [6 x ptr] }, ptr @_ZTVN6dealii6VectorIdEE, i64 0, inrange i32 0, i64 2), ptr %12, align 8, !tbaa !25
  %333 = getelementptr inbounds %"class.dealii::Vector", ptr %12, i64 0, i32 1
  call void @llvm.memset.p0.i64(ptr noundef nonnull align 8 dereferenceable(16) %333, i8 0, i64 16, i1 false)
  br i1 %318, label %346, label %334

334:                                              ; preds = %332
  %335 = zext i32 %28 to i64
  %336 = shl nuw nsw i64 %335, 3
  %337 = invoke noalias noundef nonnull ptr @_Znam(i64 noundef %336) #27
          to label %338 unwind label %341

338:                                              ; preds = %334
  %339 = getelementptr inbounds %"class.dealii::Vector", ptr %12, i64 0, i32 3
  %340 = getelementptr inbounds %"class.dealii::Vector", ptr %12, i64 0, i32 2
  store ptr %337, ptr %339, align 8, !tbaa !126
  store i32 %28, ptr %340, align 4, !tbaa !128
  store i32 %28, ptr %333, align 8, !tbaa !129
  call void @llvm.memset.p0.i64(ptr nonnull align 8 %337, i8 0, i64 %336, i1 false), !tbaa !18
  br label %346

341:                                              ; preds = %334
  %342 = landingpad { ptr, i32 }
          cleanup
  invoke void @_ZN6dealii11SubscriptorD2Ev(ptr noundef nonnull align 8 dereferenceable(72) %12)
          to label %824 unwind label %343

343:                                              ; preds = %341
  %344 = landingpad { ptr, i32 }
          catch ptr null
  %345 = extractvalue { ptr, i32 } %344, 0
  call void @__clang_call_terminate(ptr %345) #24
  unreachable

346:                                              ; preds = %332, %338
  %347 = phi ptr [ null, %332 ], [ %337, %338 ]
  %348 = icmp eq i32 %26, 0
  br i1 %348, label %377, label %349

349:                                              ; preds = %346
  %350 = getelementptr inbounds %"class.dealii::Vector", ptr %11, i64 0, i32 3
  %351 = getelementptr inbounds i8, ptr %8, i64 216
  %352 = getelementptr inbounds %"class.dealii::FEValuesBase", ptr %6, i64 0, i32 6
  %353 = getelementptr inbounds i8, ptr %6, i64 480
  %354 = getelementptr inbounds i8, ptr %6, i64 144
  %355 = getelementptr inbounds i8, ptr %6, i64 160
  %356 = getelementptr inbounds %"class.dealii::FEValuesBase", ptr %8, i64 0, i32 6
  %357 = getelementptr inbounds i8, ptr %8, i64 480
  %358 = getelementptr inbounds i8, ptr %8, i64 144
  %359 = getelementptr inbounds i8, ptr %8, i64 160
  %360 = getelementptr inbounds %"class.dealii::Vector", ptr %12, i64 0, i32 3
  %361 = getelementptr inbounds %"class.dealii::TableBase", ptr %2, i64 0, i32 1
  %362 = zext i32 %26 to i64
  %363 = zext i32 %28 to i64
  %364 = zext i32 %28 to i64
  %365 = zext i32 %28 to i64
  %366 = zext i32 %28 to i64
  %367 = add nsw i64 %363, -1
  %368 = icmp ult i32 %28, 20
  %369 = trunc i64 %367 to i32
  %370 = icmp ugt i64 %367, 4294967295
  %371 = and i64 %363, 4294967280
  %372 = icmp eq i64 %371, %363
  %373 = and i64 %365, 3
  %374 = icmp eq i64 %373, 0
  br label %389

375:                                              ; preds = %754
  %376 = load ptr, ptr %360, align 8, !tbaa !126
  br label %377

377:                                              ; preds = %375, %346
  %378 = phi ptr [ %376, %375 ], [ %347, %346 ]
  store ptr getelementptr inbounds ({ [6 x ptr] }, ptr @_ZTVN6dealii6VectorIdEE, i64 0, inrange i32 0, i64 2), ptr %12, align 8, !tbaa !25
  %379 = icmp eq ptr %378, null
  br i1 %379, label %382, label %380

380:                                              ; preds = %377
  %381 = getelementptr inbounds %"class.dealii::Vector", ptr %12, i64 0, i32 3
  call void @_ZdaPv(ptr noundef nonnull %378) #28
  store ptr null, ptr %381, align 8, !tbaa !126
  br label %382

382:                                              ; preds = %380, %377
  invoke void @_ZN6dealii11SubscriptorD2Ev(ptr noundef nonnull align 8 dereferenceable(72) %12)
          to label %794 unwind label %387

383:                                              ; preds = %300
  %384 = landingpad { ptr, i32 }
          cleanup
  br label %833

385:                                              ; preds = %799, %315
  %386 = landingpad { ptr, i32 }
          cleanup
  br label %831

387:                                              ; preds = %382, %331
  %388 = landingpad { ptr, i32 }
          cleanup
  br label %824

389:                                              ; preds = %349, %754
  %390 = phi i64 [ 0, %349 ], [ %755, %754 ]
  %391 = shl nuw nsw i64 %390, 3
  %392 = trunc i64 %390 to i32
  %393 = load i32, ptr %317, align 8, !tbaa !129
  %394 = icmp eq i32 %393, 0
  br i1 %394, label %399, label %395

395:                                              ; preds = %389
  %396 = load ptr, ptr %350, align 8, !tbaa !126
  %397 = zext i32 %393 to i64
  %398 = shl nuw nsw i64 %397, 3
  call void @llvm.memset.p0.i64(ptr align 8 %396, i8 0, i64 %398, i1 false), !tbaa !18
  br label %399

399:                                              ; preds = %395, %389
  br i1 %318, label %692, label %400

400:                                              ; preds = %399
  %401 = load ptr, ptr %45, align 8, !tbaa !20
  %402 = load ptr, ptr %44, align 8, !tbaa !15
  %403 = ptrtoint ptr %401 to i64
  %404 = ptrtoint ptr %402 to i64
  %405 = sub i64 %403, %404
  %406 = lshr exact i64 %405, 3
  %407 = and i64 %405, 34359738360
  %408 = icmp eq i64 %407, 0
  %409 = load ptr, ptr %351, align 8
  %410 = load ptr, ptr %354, align 8
  %411 = load i32, ptr %355, align 8
  %412 = load ptr, ptr %358, align 8
  %413 = load i32, ptr %359, align 8
  %414 = load ptr, ptr %350, align 8
  %415 = trunc i64 %390 to i32
  %416 = mul i32 %411, %415
  br i1 %408, label %692, label %417

417:                                              ; preds = %400
  %418 = load ptr, ptr %356, align 8
  %419 = getelementptr inbounds %"class.dealii::FiniteElement", ptr %418, i64 0, i32 2
  %420 = load ptr, ptr %352, align 8
  %421 = getelementptr inbounds %"class.dealii::FiniteElement", ptr %420, i64 0, i32 2
  %422 = load i8, ptr %421, align 4, !tbaa !76, !range !117, !noundef !118
  %423 = icmp eq i8 %422, 0
  %424 = load i8, ptr %419, align 4, !tbaa !76, !range !117, !noundef !118
  %425 = icmp eq i8 %424, 0
  %426 = and i64 %406, 4294967295
  br i1 %423, label %427, label %559

427:                                              ; preds = %417
  %428 = and i64 %406, 4294967295
  %429 = add nsw i64 %428, -1
  %430 = and i64 %406, 1
  %431 = icmp eq i64 %429, 0
  %432 = sub nsw i64 %428, %430
  %433 = icmp eq i64 %430, 0
  %434 = and i64 %406, 1
  %435 = icmp eq i64 %429, 0
  %436 = sub nsw i64 %428, %434
  %437 = icmp eq i64 %434, 0
  br label %438

438:                                              ; preds = %427, %517
  %439 = phi i64 [ 0, %427 ], [ %518, %517 ]
  %440 = load ptr, ptr %353, align 8
  %441 = getelementptr inbounds i32, ptr %440, i64 %390
  %442 = getelementptr inbounds double, ptr %414, i64 %439
  %443 = load double, ptr %442, align 8, !tbaa !18
  %444 = load i32, ptr %441, align 4, !tbaa !45
  %445 = mul i32 %411, %444
  br i1 %425, label %520, label %480

446:                                              ; preds = %480, %446
  %447 = phi i64 [ %477, %446 ], [ 0, %480 ]
  %448 = phi double [ %476, %446 ], [ %443, %480 ]
  %449 = phi i64 [ %478, %446 ], [ 0, %480 ]
  %450 = getelementptr inbounds double, ptr %409, i64 %447
  %451 = load double, ptr %450, align 8, !tbaa !18
  %452 = trunc i64 %447 to i32
  %453 = add i32 %445, %452
  %454 = zext i32 %453 to i64
  %455 = getelementptr inbounds double, ptr %410, i64 %454
  %456 = load double, ptr %455, align 8, !tbaa !18
  %457 = add i32 %482, %452
  %458 = zext i32 %457 to i64
  %459 = getelementptr inbounds double, ptr %412, i64 %458
  %460 = load double, ptr %459, align 8, !tbaa !18
  %461 = fmul double %456, %460
  %462 = call double @llvm.fmuladd.f64(double %461, double %451, double %448)
  store double %462, ptr %442, align 8, !tbaa !18
  %463 = or i64 %447, 1
  %464 = getelementptr inbounds double, ptr %409, i64 %463
  %465 = load double, ptr %464, align 8, !tbaa !18
  %466 = trunc i64 %463 to i32
  %467 = add i32 %445, %466
  %468 = zext i32 %467 to i64
  %469 = getelementptr inbounds double, ptr %410, i64 %468
  %470 = load double, ptr %469, align 8, !tbaa !18
  %471 = add i32 %482, %466
  %472 = zext i32 %471 to i64
  %473 = getelementptr inbounds double, ptr %412, i64 %472
  %474 = load double, ptr %473, align 8, !tbaa !18
  %475 = fmul double %470, %474
  %476 = call double @llvm.fmuladd.f64(double %475, double %465, double %462)
  store double %476, ptr %442, align 8, !tbaa !18
  %477 = add nuw nsw i64 %447, 2
  %478 = add i64 %449, 2
  %479 = icmp eq i64 %478, %432
  br i1 %479, label %500, label %446

480:                                              ; preds = %438
  %481 = trunc i64 %439 to i32
  %482 = mul i32 %413, %481
  br i1 %431, label %500, label %446

483:                                              ; preds = %525, %520
  %484 = phi i64 [ 0, %520 ], [ %556, %525 ]
  %485 = phi double [ %443, %520 ], [ %555, %525 ]
  br i1 %437, label %517, label %486

486:                                              ; preds = %483
  %487 = getelementptr inbounds double, ptr %409, i64 %484
  %488 = load double, ptr %487, align 8, !tbaa !18
  %489 = trunc i64 %484 to i32
  %490 = add i32 %445, %489
  %491 = zext i32 %490 to i64
  %492 = getelementptr inbounds double, ptr %410, i64 %491
  %493 = load double, ptr %492, align 8, !tbaa !18
  %494 = add i32 %524, %489
  %495 = zext i32 %494 to i64
  %496 = getelementptr inbounds double, ptr %412, i64 %495
  %497 = load double, ptr %496, align 8, !tbaa !18
  %498 = fmul double %493, %497
  %499 = call double @llvm.fmuladd.f64(double %498, double %488, double %485)
  store double %499, ptr %442, align 8, !tbaa !18
  br label %517

500:                                              ; preds = %446, %480
  %501 = phi i64 [ 0, %480 ], [ %477, %446 ]
  %502 = phi double [ %443, %480 ], [ %476, %446 ]
  br i1 %433, label %517, label %503

503:                                              ; preds = %500
  %504 = getelementptr inbounds double, ptr %409, i64 %501
  %505 = load double, ptr %504, align 8, !tbaa !18
  %506 = trunc i64 %501 to i32
  %507 = add i32 %445, %506
  %508 = zext i32 %507 to i64
  %509 = getelementptr inbounds double, ptr %410, i64 %508
  %510 = load double, ptr %509, align 8, !tbaa !18
  %511 = add i32 %482, %506
  %512 = zext i32 %511 to i64
  %513 = getelementptr inbounds double, ptr %412, i64 %512
  %514 = load double, ptr %513, align 8, !tbaa !18
  %515 = fmul double %510, %514
  %516 = call double @llvm.fmuladd.f64(double %515, double %505, double %502)
  store double %516, ptr %442, align 8, !tbaa !18
  br label %517

517:                                              ; preds = %503, %500, %486, %483
  %518 = add nuw nsw i64 %439, 1
  %519 = icmp eq i64 %518, %365
  br i1 %519, label %692, label %438

520:                                              ; preds = %438
  %521 = load ptr, ptr %357, align 8
  %522 = getelementptr inbounds i32, ptr %521, i64 %439
  %523 = load i32, ptr %522, align 4, !tbaa !45
  %524 = mul i32 %413, %523
  br i1 %435, label %483, label %525

525:                                              ; preds = %520, %525
  %526 = phi i64 [ %556, %525 ], [ 0, %520 ]
  %527 = phi double [ %555, %525 ], [ %443, %520 ]
  %528 = phi i64 [ %557, %525 ], [ 0, %520 ]
  %529 = getelementptr inbounds double, ptr %409, i64 %526
  %530 = load double, ptr %529, align 8, !tbaa !18
  %531 = trunc i64 %526 to i32
  %532 = add i32 %445, %531
  %533 = zext i32 %532 to i64
  %534 = getelementptr inbounds double, ptr %410, i64 %533
  %535 = load double, ptr %534, align 8, !tbaa !18
  %536 = add i32 %524, %531
  %537 = zext i32 %536 to i64
  %538 = getelementptr inbounds double, ptr %412, i64 %537
  %539 = load double, ptr %538, align 8, !tbaa !18
  %540 = fmul double %535, %539
  %541 = call double @llvm.fmuladd.f64(double %540, double %530, double %527)
  store double %541, ptr %442, align 8, !tbaa !18
  %542 = or i64 %526, 1
  %543 = getelementptr inbounds double, ptr %409, i64 %542
  %544 = load double, ptr %543, align 8, !tbaa !18
  %545 = trunc i64 %542 to i32
  %546 = add i32 %445, %545
  %547 = zext i32 %546 to i64
  %548 = getelementptr inbounds double, ptr %410, i64 %547
  %549 = load double, ptr %548, align 8, !tbaa !18
  %550 = add i32 %524, %545
  %551 = zext i32 %550 to i64
  %552 = getelementptr inbounds double, ptr %412, i64 %551
  %553 = load double, ptr %552, align 8, !tbaa !18
  %554 = fmul double %549, %553
  %555 = call double @llvm.fmuladd.f64(double %554, double %544, double %541)
  store double %555, ptr %442, align 8, !tbaa !18
  %556 = add nuw nsw i64 %526, 2
  %557 = add i64 %528, 2
  %558 = icmp eq i64 %557, %436
  br i1 %558, label %483, label %525

559:                                              ; preds = %417
  br i1 %425, label %565, label %560

560:                                              ; preds = %559
  %561 = and i64 %406, 1
  %562 = icmp eq i64 %426, 1
  %563 = sub nsw i64 %426, %561
  %564 = icmp eq i64 %561, 0
  br label %632

565:                                              ; preds = %559
  %566 = and i64 %406, 1
  %567 = icmp eq i64 %426, 1
  %568 = sub nsw i64 %426, %566
  %569 = icmp eq i64 %566, 0
  br label %570

570:                                              ; preds = %565, %629
  %571 = phi i64 [ %630, %629 ], [ 0, %565 ]
  %572 = load ptr, ptr %357, align 8
  %573 = getelementptr inbounds i32, ptr %572, i64 %571
  %574 = getelementptr inbounds double, ptr %414, i64 %571
  %575 = load double, ptr %574, align 8, !tbaa !18
  %576 = load i32, ptr %573, align 4, !tbaa !45
  %577 = mul i32 %413, %576
  br i1 %567, label %612, label %578

578:                                              ; preds = %570, %578
  %579 = phi i64 [ %609, %578 ], [ 0, %570 ]
  %580 = phi double [ %608, %578 ], [ %575, %570 ]
  %581 = phi i64 [ %610, %578 ], [ 0, %570 ]
  %582 = getelementptr inbounds double, ptr %409, i64 %579
  %583 = load double, ptr %582, align 8, !tbaa !18
  %584 = trunc i64 %579 to i32
  %585 = add i32 %416, %584
  %586 = zext i32 %585 to i64
  %587 = getelementptr inbounds double, ptr %410, i64 %586
  %588 = load double, ptr %587, align 8, !tbaa !18
  %589 = add i32 %577, %584
  %590 = zext i32 %589 to i64
  %591 = getelementptr inbounds double, ptr %412, i64 %590
  %592 = load double, ptr %591, align 8, !tbaa !18
  %593 = fmul double %588, %592
  %594 = call double @llvm.fmuladd.f64(double %593, double %583, double %580)
  store double %594, ptr %574, align 8, !tbaa !18
  %595 = or i64 %579, 1
  %596 = getelementptr inbounds double, ptr %409, i64 %595
  %597 = load double, ptr %596, align 8, !tbaa !18
  %598 = trunc i64 %595 to i32
  %599 = add i32 %416, %598
  %600 = zext i32 %599 to i64
  %601 = getelementptr inbounds double, ptr %410, i64 %600
  %602 = load double, ptr %601, align 8, !tbaa !18
  %603 = add i32 %577, %598
  %604 = zext i32 %603 to i64
  %605 = getelementptr inbounds double, ptr %412, i64 %604
  %606 = load double, ptr %605, align 8, !tbaa !18
  %607 = fmul double %602, %606
  %608 = call double @llvm.fmuladd.f64(double %607, double %597, double %594)
  store double %608, ptr %574, align 8, !tbaa !18
  %609 = add nuw nsw i64 %579, 2
  %610 = add i64 %581, 2
  %611 = icmp eq i64 %610, %568
  br i1 %611, label %612, label %578

612:                                              ; preds = %578, %570
  %613 = phi i64 [ 0, %570 ], [ %609, %578 ]
  %614 = phi double [ %575, %570 ], [ %608, %578 ]
  br i1 %569, label %629, label %615

615:                                              ; preds = %612
  %616 = getelementptr inbounds double, ptr %409, i64 %613
  %617 = load double, ptr %616, align 8, !tbaa !18
  %618 = trunc i64 %613 to i32
  %619 = add i32 %416, %618
  %620 = zext i32 %619 to i64
  %621 = getelementptr inbounds double, ptr %410, i64 %620
  %622 = load double, ptr %621, align 8, !tbaa !18
  %623 = add i32 %577, %618
  %624 = zext i32 %623 to i64
  %625 = getelementptr inbounds double, ptr %412, i64 %624
  %626 = load double, ptr %625, align 8, !tbaa !18
  %627 = fmul double %622, %626
  %628 = call double @llvm.fmuladd.f64(double %627, double %617, double %614)
  store double %628, ptr %574, align 8, !tbaa !18
  br label %629

629:                                              ; preds = %612, %615
  %630 = add nuw nsw i64 %571, 1
  %631 = icmp eq i64 %630, %364
  br i1 %631, label %692, label %570

632:                                              ; preds = %560, %689
  %633 = phi i64 [ %690, %689 ], [ 0, %560 ]
  %634 = getelementptr inbounds double, ptr %414, i64 %633
  %635 = load double, ptr %634, align 8, !tbaa !18
  %636 = trunc i64 %633 to i32
  %637 = mul i32 %413, %636
  br i1 %562, label %672, label %638

638:                                              ; preds = %632, %638
  %639 = phi i64 [ %669, %638 ], [ 0, %632 ]
  %640 = phi double [ %668, %638 ], [ %635, %632 ]
  %641 = phi i64 [ %670, %638 ], [ 0, %632 ]
  %642 = getelementptr inbounds double, ptr %409, i64 %639
  %643 = load double, ptr %642, align 8, !tbaa !18
  %644 = trunc i64 %639 to i32
  %645 = add i32 %416, %644
  %646 = zext i32 %645 to i64
  %647 = getelementptr inbounds double, ptr %410, i64 %646
  %648 = load double, ptr %647, align 8, !tbaa !18
  %649 = add i32 %637, %644
  %650 = zext i32 %649 to i64
  %651 = getelementptr inbounds double, ptr %412, i64 %650
  %652 = load double, ptr %651, align 8, !tbaa !18
  %653 = fmul double %648, %652
  %654 = call double @llvm.fmuladd.f64(double %653, double %643, double %640)
  store double %654, ptr %634, align 8, !tbaa !18
  %655 = or i64 %639, 1
  %656 = getelementptr inbounds double, ptr %409, i64 %655
  %657 = load double, ptr %656, align 8, !tbaa !18
  %658 = trunc i64 %655 to i32
  %659 = add i32 %416, %658
  %660 = zext i32 %659 to i64
  %661 = getelementptr inbounds double, ptr %410, i64 %660
  %662 = load double, ptr %661, align 8, !tbaa !18
  %663 = add i32 %637, %658
  %664 = zext i32 %663 to i64
  %665 = getelementptr inbounds double, ptr %412, i64 %664
  %666 = load double, ptr %665, align 8, !tbaa !18
  %667 = fmul double %662, %666
  %668 = call double @llvm.fmuladd.f64(double %667, double %657, double %654)
  store double %668, ptr %634, align 8, !tbaa !18
  %669 = add nuw nsw i64 %639, 2
  %670 = add i64 %641, 2
  %671 = icmp eq i64 %670, %563
  br i1 %671, label %672, label %638

672:                                              ; preds = %638, %632
  %673 = phi i64 [ 0, %632 ], [ %669, %638 ]
  %674 = phi double [ %635, %632 ], [ %668, %638 ]
  br i1 %564, label %689, label %675

675:                                              ; preds = %672
  %676 = getelementptr inbounds double, ptr %409, i64 %673
  %677 = load double, ptr %676, align 8, !tbaa !18
  %678 = trunc i64 %673 to i32
  %679 = add i32 %416, %678
  %680 = zext i32 %679 to i64
  %681 = getelementptr inbounds double, ptr %410, i64 %680
  %682 = load double, ptr %681, align 8, !tbaa !18
  %683 = add i32 %637, %678
  %684 = zext i32 %683 to i64
  %685 = getelementptr inbounds double, ptr %412, i64 %684
  %686 = load double, ptr %685, align 8, !tbaa !18
  %687 = fmul double %682, %686
  %688 = call double @llvm.fmuladd.f64(double %687, double %677, double %674)
  store double %688, ptr %634, align 8, !tbaa !18
  br label %689

689:                                              ; preds = %672, %675
  %690 = add nuw nsw i64 %633, 1
  %691 = icmp eq i64 %690, %363
  br i1 %691, label %692, label %632

692:                                              ; preds = %689, %629, %517, %400, %399
  invoke void @_ZNK6dealii10FullMatrixIdE5vmultIdEEvRNS_6VectorIT_EERKS5_b(ptr noundef nonnull align 8 dereferenceable(92) %10, ptr noundef nonnull align 8 dereferenceable(88) %12, ptr noundef nonnull align 8 dereferenceable(88) %11, i1 noundef zeroext false)
          to label %693 unwind label %750

693:                                              ; preds = %692
  br i1 %318, label %754, label %694

694:                                              ; preds = %693
  %695 = load ptr, ptr %360, align 8, !tbaa !126
  %696 = ptrtoint ptr %695 to i64
  %697 = load ptr, ptr %361, align 8, !tbaa !31
  %698 = ptrtoint ptr %697 to i64
  %699 = load i32, ptr %15, align 8, !tbaa !45
  %700 = trunc i64 %390 to i32
  br i1 %368, label %730, label %701

701:                                              ; preds = %694
  %702 = icmp ne i32 %699, 1
  %703 = xor i32 %392, -1
  %704 = icmp ult i32 %703, %369
  %705 = or i1 %704, %370
  %706 = or i1 %702, %705
  br i1 %706, label %730, label %707

707:                                              ; preds = %701
  %708 = add i64 %391, %698
  %709 = sub i64 %708, %696
  %710 = icmp ult i64 %709, 128
  br i1 %710, label %730, label %711

711:                                              ; preds = %707, %711
  %712 = phi i64 [ %727, %711 ], [ 0, %707 ]
  %713 = getelementptr inbounds double, ptr %695, i64 %712
  %714 = load <4 x double>, ptr %713, align 8, !tbaa !18
  %715 = getelementptr inbounds double, ptr %713, i64 4
  %716 = load <4 x double>, ptr %715, align 8, !tbaa !18
  %717 = getelementptr inbounds double, ptr %713, i64 8
  %718 = load <4 x double>, ptr %717, align 8, !tbaa !18
  %719 = getelementptr inbounds double, ptr %713, i64 12
  %720 = load <4 x double>, ptr %719, align 8, !tbaa !18
  %721 = add i64 %712, %390
  %722 = and i64 %721, 4294967295
  %723 = getelementptr inbounds double, ptr %697, i64 %722
  store <4 x double> %714, ptr %723, align 8, !tbaa !18
  %724 = getelementptr inbounds double, ptr %723, i64 4
  store <4 x double> %716, ptr %724, align 8, !tbaa !18
  %725 = getelementptr inbounds double, ptr %723, i64 8
  store <4 x double> %718, ptr %725, align 8, !tbaa !18
  %726 = getelementptr inbounds double, ptr %723, i64 12
  store <4 x double> %720, ptr %726, align 8, !tbaa !18
  %727 = add nuw i64 %712, 16
  %728 = icmp eq i64 %727, %371
  br i1 %728, label %729, label %711, !llvm.loop !130

729:                                              ; preds = %711
  br i1 %372, label %754, label %730

730:                                              ; preds = %707, %701, %694, %729
  %731 = phi i64 [ 0, %707 ], [ 0, %701 ], [ 0, %694 ], [ %371, %729 ]
  %732 = xor i64 %731, -1
  %733 = add nsw i64 %732, %365
  br i1 %374, label %747, label %734

734:                                              ; preds = %730, %734
  %735 = phi i64 [ %744, %734 ], [ %731, %730 ]
  %736 = phi i64 [ %745, %734 ], [ 0, %730 ]
  %737 = getelementptr inbounds double, ptr %695, i64 %735
  %738 = load double, ptr %737, align 8, !tbaa !18
  %739 = trunc i64 %735 to i32
  %740 = mul i32 %699, %739
  %741 = add i32 %740, %700
  %742 = zext i32 %741 to i64
  %743 = getelementptr inbounds double, ptr %697, i64 %742
  store double %738, ptr %743, align 8, !tbaa !18
  %744 = add nuw nsw i64 %735, 1
  %745 = add i64 %736, 1
  %746 = icmp eq i64 %745, %373
  br i1 %746, label %747, label %734, !llvm.loop !131

747:                                              ; preds = %734, %730
  %748 = phi i64 [ %731, %730 ], [ %744, %734 ]
  %749 = icmp ult i64 %733, 3
  br i1 %749, label %754, label %757

750:                                              ; preds = %692
  %751 = landingpad { ptr, i32 }
          cleanup
  store ptr getelementptr inbounds ({ [6 x ptr] }, ptr @_ZTVN6dealii6VectorIdEE, i64 0, inrange i32 0, i64 2), ptr %12, align 8, !tbaa !25
  %752 = load ptr, ptr %360, align 8, !tbaa !126
  %753 = icmp eq ptr %752, null
  br i1 %753, label %793, label %792

754:                                              ; preds = %747, %757, %729, %693
  %755 = add nuw nsw i64 %390, 1
  %756 = icmp eq i64 %755, %362
  br i1 %756, label %375, label %389

757:                                              ; preds = %747, %757
  %758 = phi i64 [ %790, %757 ], [ %748, %747 ]
  %759 = getelementptr inbounds double, ptr %695, i64 %758
  %760 = load double, ptr %759, align 8, !tbaa !18
  %761 = trunc i64 %758 to i32
  %762 = mul i32 %699, %761
  %763 = add i32 %762, %700
  %764 = zext i32 %763 to i64
  %765 = getelementptr inbounds double, ptr %697, i64 %764
  store double %760, ptr %765, align 8, !tbaa !18
  %766 = add nuw nsw i64 %758, 1
  %767 = getelementptr inbounds double, ptr %695, i64 %766
  %768 = load double, ptr %767, align 8, !tbaa !18
  %769 = trunc i64 %766 to i32
  %770 = mul i32 %699, %769
  %771 = add i32 %770, %700
  %772 = zext i32 %771 to i64
  %773 = getelementptr inbounds double, ptr %697, i64 %772
  store double %768, ptr %773, align 8, !tbaa !18
  %774 = add nuw nsw i64 %758, 2
  %775 = getelementptr inbounds double, ptr %695, i64 %774
  %776 = load double, ptr %775, align 8, !tbaa !18
  %777 = trunc i64 %774 to i32
  %778 = mul i32 %699, %777
  %779 = add i32 %778, %700
  %780 = zext i32 %779 to i64
  %781 = getelementptr inbounds double, ptr %697, i64 %780
  store double %776, ptr %781, align 8, !tbaa !18
  %782 = add nuw nsw i64 %758, 3
  %783 = getelementptr inbounds double, ptr %695, i64 %782
  %784 = load double, ptr %783, align 8, !tbaa !18
  %785 = trunc i64 %782 to i32
  %786 = mul i32 %699, %785
  %787 = add i32 %786, %700
  %788 = zext i32 %787 to i64
  %789 = getelementptr inbounds double, ptr %697, i64 %788
  store double %784, ptr %789, align 8, !tbaa !18
  %790 = add nuw nsw i64 %758, 4
  %791 = icmp eq i64 %790, %366
  br i1 %791, label %754, label %757, !llvm.loop !132

792:                                              ; preds = %750
  call void @_ZdaPv(ptr noundef nonnull %752) #28
  store ptr null, ptr %360, align 8, !tbaa !126
  br label %793

793:                                              ; preds = %792, %750
  invoke void @_ZN6dealii11SubscriptorD2Ev(ptr noundef nonnull align 8 dereferenceable(72) %12)
          to label %824 unwind label %869

794:                                              ; preds = %382
  call void @llvm.lifetime.end.p0(i64 88, ptr nonnull %12) #25
  store ptr getelementptr inbounds ({ [6 x ptr] }, ptr @_ZTVN6dealii6VectorIdEE, i64 0, inrange i32 0, i64 2), ptr %11, align 8, !tbaa !25
  %795 = getelementptr inbounds %"class.dealii::Vector", ptr %11, i64 0, i32 3
  %796 = load ptr, ptr %795, align 8, !tbaa !126
  %797 = icmp eq ptr %796, null
  br i1 %797, label %799, label %798

798:                                              ; preds = %794
  call void @_ZdaPv(ptr noundef nonnull %796) #28
  store ptr null, ptr %795, align 8, !tbaa !126
  br label %799

799:                                              ; preds = %798, %794
  invoke void @_ZN6dealii11SubscriptorD2Ev(ptr noundef nonnull align 8 dereferenceable(72) %11)
          to label %800 unwind label %385

800:                                              ; preds = %799
  call void @llvm.lifetime.end.p0(i64 88, ptr nonnull %11) #25
  store ptr getelementptr inbounds ({ [4 x ptr] }, ptr @_ZTVN6dealii9TableBaseILi2EdEE, i64 0, inrange i32 0, i64 2), ptr %10, align 8, !tbaa !25
  %801 = getelementptr inbounds %"class.dealii::TableBase", ptr %10, i64 0, i32 1
  %802 = load ptr, ptr %801, align 8, !tbaa !31
  %803 = icmp eq ptr %802, null
  br i1 %803, label %805, label %804

804:                                              ; preds = %800
  call void @_ZdaPv(ptr noundef nonnull %802) #28
  br label %805

805:                                              ; preds = %804, %800
  invoke void @_ZN6dealii11SubscriptorD2Ev(ptr noundef nonnull align 8 dereferenceable(72) %10)
          to label %806 unwind label %313

806:                                              ; preds = %805
  call void @llvm.lifetime.end.p0(i64 96, ptr nonnull %10) #25
  store ptr getelementptr inbounds ({ [4 x ptr] }, ptr @_ZTVN6dealii8FEValuesILi3ELi3EEE, i64 0, inrange i32 0, i64 2), ptr %8, align 8, !tbaa !25
  %807 = getelementptr inbounds %"class.dealii::FEValues", ptr %8, i64 0, i32 1
  invoke void @_ZN6dealii10QuadratureILi3EED1Ev(ptr noundef nonnull align 8 dereferenceable(128) %807)
          to label %808 unwind label %809

808:                                              ; preds = %806
  invoke void @_ZN6dealii12FEValuesBaseILi3ELi3EED2Ev(ptr noundef nonnull align 8 dereferenceable(648) %8)
          to label %814 unwind label %309

809:                                              ; preds = %806
  %810 = landingpad { ptr, i32 }
          cleanup
  invoke void @_ZN6dealii12FEValuesBaseILi3ELi3EED2Ev(ptr noundef nonnull align 8 dereferenceable(648) %8)
          to label %851 unwind label %811

811:                                              ; preds = %809
  %812 = landingpad { ptr, i32 }
          catch ptr null
  %813 = extractvalue { ptr, i32 } %812, 0
  call void @__clang_call_terminate(ptr %813) #24
  unreachable

814:                                              ; preds = %808
  call void @llvm.lifetime.end.p0(i64 776, ptr nonnull %8) #25
  store ptr getelementptr inbounds ({ [4 x ptr] }, ptr @_ZTVN6dealii8FEValuesILi3ELi3EEE, i64 0, inrange i32 0, i64 2), ptr %6, align 8, !tbaa !25
  %815 = getelementptr inbounds %"class.dealii::FEValues", ptr %6, i64 0, i32 1
  invoke void @_ZN6dealii10QuadratureILi3EED1Ev(ptr noundef nonnull align 8 dereferenceable(128) %815)
          to label %816 unwind label %817

816:                                              ; preds = %814
  invoke void @_ZN6dealii12FEValuesBaseILi3ELi3EED2Ev(ptr noundef nonnull align 8 dereferenceable(648) %6)
          to label %822 unwind label %305

817:                                              ; preds = %814
  %818 = landingpad { ptr, i32 }
          cleanup
  invoke void @_ZN6dealii12FEValuesBaseILi3ELi3EED2Ev(ptr noundef nonnull align 8 dereferenceable(648) %6)
          to label %862 unwind label %819

819:                                              ; preds = %817
  %820 = landingpad { ptr, i32 }
          catch ptr null
  %821 = extractvalue { ptr, i32 } %820, 0
  call void @__clang_call_terminate(ptr %821) #24
  unreachable

822:                                              ; preds = %816
  call void @llvm.lifetime.end.p0(i64 776, ptr nonnull %6) #25
  invoke void @_ZN6dealii10QuadratureILi3EED2Ev(ptr noundef nonnull align 8 dereferenceable(128) %5)
          to label %823 unwind label %303

823:                                              ; preds = %822
  call void @llvm.lifetime.end.p0(i64 128, ptr nonnull %5) #25
  call void @_ZN6dealii13TriangulationILi3ELi3EED1Ev(ptr noundef nonnull align 8 dereferenceable(8552) %4)
  call void @llvm.lifetime.end.p0(i64 8552, ptr nonnull %4) #25
  ret void

824:                                              ; preds = %793, %387, %341
  %825 = phi { ptr, i32 } [ %388, %387 ], [ %342, %341 ], [ %751, %793 ]
  call void @llvm.lifetime.end.p0(i64 88, ptr nonnull %12) #25
  store ptr getelementptr inbounds ({ [6 x ptr] }, ptr @_ZTVN6dealii6VectorIdEE, i64 0, inrange i32 0, i64 2), ptr %11, align 8, !tbaa !25
  %826 = getelementptr inbounds %"class.dealii::Vector", ptr %11, i64 0, i32 3
  %827 = load ptr, ptr %826, align 8, !tbaa !126
  %828 = icmp eq ptr %827, null
  br i1 %828, label %830, label %829

829:                                              ; preds = %824
  call void @_ZdaPv(ptr noundef nonnull %827) #28
  store ptr null, ptr %826, align 8, !tbaa !126
  br label %830

830:                                              ; preds = %829, %824
  invoke void @_ZN6dealii11SubscriptorD2Ev(ptr noundef nonnull align 8 dereferenceable(72) %11)
          to label %831 unwind label %869

831:                                              ; preds = %830, %385, %326
  %832 = phi { ptr, i32 } [ %386, %385 ], [ %327, %326 ], [ %825, %830 ]
  call void @llvm.lifetime.end.p0(i64 88, ptr nonnull %11) #25
  br label %833

833:                                              ; preds = %831, %383
  %834 = phi { ptr, i32 } [ %832, %831 ], [ %384, %383 ]
  store ptr getelementptr inbounds ({ [4 x ptr] }, ptr @_ZTVN6dealii9TableBaseILi2EdEE, i64 0, inrange i32 0, i64 2), ptr %10, align 8, !tbaa !25
  %835 = getelementptr inbounds %"class.dealii::TableBase", ptr %10, i64 0, i32 1
  %836 = load ptr, ptr %835, align 8, !tbaa !31
  %837 = icmp eq ptr %836, null
  br i1 %837, label %839, label %838

838:                                              ; preds = %833
  call void @_ZdaPv(ptr noundef nonnull %836) #28
  br label %839

839:                                              ; preds = %838, %833
  invoke void @_ZN6dealii11SubscriptorD2Ev(ptr noundef nonnull align 8 dereferenceable(72) %10)
          to label %840 unwind label %869

840:                                              ; preds = %839, %313
  %841 = phi { ptr, i32 } [ %314, %313 ], [ %834, %839 ]
  call void @llvm.lifetime.end.p0(i64 96, ptr nonnull %10) #25
  br label %842

842:                                              ; preds = %840, %311
  %843 = phi { ptr, i32 } [ %841, %840 ], [ %312, %311 ]
  store ptr getelementptr inbounds ({ [4 x ptr] }, ptr @_ZTVN6dealii8FEValuesILi3ELi3EEE, i64 0, inrange i32 0, i64 2), ptr %8, align 8, !tbaa !25
  %844 = getelementptr inbounds %"class.dealii::FEValues", ptr %8, i64 0, i32 1
  invoke void @_ZN6dealii10QuadratureILi3EED1Ev(ptr noundef nonnull align 8 dereferenceable(128) %844)
          to label %845 unwind label %846

845:                                              ; preds = %842
  invoke void @_ZN6dealii12FEValuesBaseILi3ELi3EED2Ev(ptr noundef nonnull align 8 dereferenceable(648) %8)
          to label %851 unwind label %869

846:                                              ; preds = %842
  %847 = landingpad { ptr, i32 }
          catch ptr null
  invoke void @_ZN6dealii12FEValuesBaseILi3ELi3EED2Ev(ptr noundef nonnull align 8 dereferenceable(648) %8)
          to label %871 unwind label %848

848:                                              ; preds = %846
  %849 = landingpad { ptr, i32 }
          catch ptr null
  %850 = extractvalue { ptr, i32 } %849, 0
  call void @__clang_call_terminate(ptr %850) #24
  unreachable

851:                                              ; preds = %845, %809, %309
  %852 = phi { ptr, i32 } [ %310, %309 ], [ %810, %809 ], [ %843, %845 ]
  call void @llvm.lifetime.end.p0(i64 776, ptr nonnull %8) #25
  br label %853

853:                                              ; preds = %851, %307
  %854 = phi { ptr, i32 } [ %852, %851 ], [ %308, %307 ]
  store ptr getelementptr inbounds ({ [4 x ptr] }, ptr @_ZTVN6dealii8FEValuesILi3ELi3EEE, i64 0, inrange i32 0, i64 2), ptr %6, align 8, !tbaa !25
  %855 = getelementptr inbounds %"class.dealii::FEValues", ptr %6, i64 0, i32 1
  invoke void @_ZN6dealii10QuadratureILi3EED1Ev(ptr noundef nonnull align 8 dereferenceable(128) %855)
          to label %856 unwind label %857

856:                                              ; preds = %853
  invoke void @_ZN6dealii12FEValuesBaseILi3ELi3EED2Ev(ptr noundef nonnull align 8 dereferenceable(648) %6)
          to label %862 unwind label %869

857:                                              ; preds = %853
  %858 = landingpad { ptr, i32 }
          catch ptr null
  invoke void @_ZN6dealii12FEValuesBaseILi3ELi3EED2Ev(ptr noundef nonnull align 8 dereferenceable(648) %6)
          to label %871 unwind label %859

859:                                              ; preds = %857
  %860 = landingpad { ptr, i32 }
          catch ptr null
  %861 = extractvalue { ptr, i32 } %860, 0
  call void @__clang_call_terminate(ptr %861) #24
  unreachable

862:                                              ; preds = %856, %817, %305
  %863 = phi { ptr, i32 } [ %306, %305 ], [ %818, %817 ], [ %854, %856 ]
  call void @llvm.lifetime.end.p0(i64 776, ptr nonnull %6) #25
  invoke void @_ZN6dealii10QuadratureILi3EED2Ev(ptr noundef nonnull align 8 dereferenceable(128) %5)
          to label %864 unwind label %869

864:                                              ; preds = %862, %303
  %865 = phi { ptr, i32 } [ %863, %862 ], [ %304, %303 ]
  call void @llvm.lifetime.end.p0(i64 128, ptr nonnull %5) #25
  br label %866

866:                                              ; preds = %864, %301
  %867 = phi { ptr, i32 } [ %865, %864 ], [ %302, %301 ]
  invoke void @_ZN6dealii13TriangulationILi3ELi3EED1Ev(ptr noundef nonnull align 8 dereferenceable(8552) %4)
          to label %868 unwind label %869

868:                                              ; preds = %866
  call void @llvm.lifetime.end.p0(i64 8552, ptr nonnull %4) #25
  resume { ptr, i32 } %867

869:                                              ; preds = %856, %845, %839, %830, %793, %866, %862
  %870 = landingpad { ptr, i32 }
          catch ptr null
  br label %871

871:                                              ; preds = %869, %857, %846
  %872 = phi { ptr, i32 } [ %847, %846 ], [ %870, %869 ], [ %858, %857 ]
  %873 = extractvalue { ptr, i32 } %872, 0
  call void @__clang_call_terminate(ptr %873) #24
  unreachable
}

declare void @_ZN6dealii13TriangulationILi3ELi3EEC1ENS1_13MeshSmoothingE(ptr noundef nonnull align 8 dereferenceable(8552), i32 noundef) unnamed_addr #4

declare void @_ZN6dealii13GridGenerator10hyper_cubeILi3ELi3EEEvRNS_13TriangulationIXT_EXT0_EEEdd(ptr noundef nonnull align 8 dereferenceable(8552), double noundef, double noundef) local_unnamed_addr #4

declare void @_ZN6dealii6QGaussILi3EEC1Ej(ptr noundef nonnull align 8 dereferenceable(128), i32 noundef) unnamed_addr #4

declare void @_ZN6dealii8FEValuesILi3ELi3EEC1ERKNS_13FiniteElementILi3ELi3EEERKNS_10QuadratureILi3EEENS_11UpdateFlagsE(ptr noundef nonnull align 8 dereferenceable(776), ptr noundef nonnull align 8 dereferenceable(728), ptr noundef nonnull align 8 dereferenceable(128), i32 noundef) unnamed_addr #4

declare void @_ZN6dealii8FEValuesILi3ELi3EE6reinitERKNS_12TriaIteratorINS_12CellAccessorILi3ELi3EEEEE(ptr noundef nonnull align 8 dereferenceable(776), ptr noundef nonnull align 8 dereferenceable(16)) local_unnamed_addr #4

declare void @_ZNK6dealii13TriangulationILi3ELi3EE12begin_activeEj(ptr sret(%"class.dealii::TriaActiveIterator") align 8, ptr noundef nonnull align 8 dereferenceable(8552), i32 noundef) local_unnamed_addr #4

; Function Attrs: mustprogress nocallback nofree nosync nounwind speculatable willreturn memory(none)
declare double @llvm.fmuladd.f64(double, double, double) #8

declare void @_ZN6dealii10FullMatrixIdE12gauss_jordanEv(ptr noundef nonnull align 8 dereferenceable(92)) local_unnamed_addr #4

declare void @_ZNK6dealii10FullMatrixIdE5vmultIdEEvRNS_6VectorIT_EERKS5_b(ptr noundef nonnull align 8 dereferenceable(92), ptr noundef nonnull align 8 dereferenceable(88), ptr noundef nonnull align 8 dereferenceable(88), i1 noundef zeroext) local_unnamed_addr #4

; Function Attrs: inlinehint sspstrong uwtable
define linkonce_odr dso_local void @_ZN6dealii6VectorIdED2Ev(ptr noundef nonnull align 8 dereferenceable(88) %0) unnamed_addr #9 comdat align 2 {
  store ptr getelementptr inbounds ({ [6 x ptr] }, ptr @_ZTVN6dealii6VectorIdEE, i64 0, inrange i32 0, i64 2), ptr %0, align 8, !tbaa !25
  %2 = getelementptr inbounds %"class.dealii::Vector", ptr %0, i64 0, i32 3
  %3 = load ptr, ptr %2, align 8, !tbaa !126
  %4 = icmp eq ptr %3, null
  br i1 %4, label %6, label %5

5:                                                ; preds = %1
  tail call void @_ZdaPv(ptr noundef nonnull %3) #28
  store ptr null, ptr %2, align 8, !tbaa !126
  br label %6

6:                                                ; preds = %5, %1
  tail call void @_ZN6dealii11SubscriptorD2Ev(ptr noundef nonnull align 8 dereferenceable(72) %0)
  ret void
}

; Function Attrs: inlinehint sspstrong uwtable
define linkonce_odr dso_local void @_ZN6dealii8FEValuesILi3ELi3EED2Ev(ptr noundef nonnull align 8 dereferenceable(776) %0) unnamed_addr #9 comdat align 2 personality ptr @__gxx_personality_v0 {
  store ptr getelementptr inbounds ({ [4 x ptr] }, ptr @_ZTVN6dealii8FEValuesILi3ELi3EEE, i64 0, inrange i32 0, i64 2), ptr %0, align 8, !tbaa !25
  %2 = getelementptr inbounds %"class.dealii::FEValues", ptr %0, i64 0, i32 1
  invoke void @_ZN6dealii10QuadratureILi3EED1Ev(ptr noundef nonnull align 8 dereferenceable(128) %2)
          to label %3 unwind label %4

3:                                                ; preds = %1
  tail call void @_ZN6dealii12FEValuesBaseILi3ELi3EED2Ev(ptr noundef nonnull align 8 dereferenceable(648) %0)
  ret void

4:                                                ; preds = %1
  %5 = landingpad { ptr, i32 }
          cleanup
  invoke void @_ZN6dealii12FEValuesBaseILi3ELi3EED2Ev(ptr noundef nonnull align 8 dereferenceable(648) %0)
          to label %6 unwind label %7

6:                                                ; preds = %4
  resume { ptr, i32 } %5

7:                                                ; preds = %4
  %8 = landingpad { ptr, i32 }
          catch ptr null
  %9 = extractvalue { ptr, i32 } %8, 0
  tail call void @__clang_call_terminate(ptr %9) #24
  unreachable
}

declare void @_ZN6dealii10QuadratureILi3EED2Ev(ptr noundef nonnull align 8 dereferenceable(128)) unnamed_addr #4

declare void @_ZN6dealii13TriangulationILi3ELi3EED1Ev(ptr noundef nonnull align 8 dereferenceable(8552)) unnamed_addr #4

; Function Attrs: sspstrong uwtable
define weak_odr dso_local void @_ZN6dealii7FETools26compute_embedding_matricesILi3EdLi3EEEvRKNS_13FiniteElementIXT_EXT1_EEERSt6vectorIS6_INS_10FullMatrixIT0_EESaIS9_EESaISB_EEb(ptr noundef nonnull align 8 dereferenceable(728) %0, ptr noundef nonnull align 8 dereferenceable(24) %1, i1 noundef zeroext %2) local_unnamed_addr #2 comdat align 2 personality ptr @__gxx_personality_v0 {
  %4 = alloca %"class.dealii::RefinementCase", align 1
  %5 = alloca %"class.dealii::Triangulation", align 8
  %6 = alloca %"class.dealii::TriaActiveIterator", align 8
  %7 = alloca %"class.dealii::MappingCartesian", align 8
  %8 = alloca %"class.dealii::QGauss", align 8
  %9 = alloca %"class.dealii::FEValues", align 8
  %10 = alloca %"class.dealii::TriaActiveIterator", align 8
  %11 = alloca %"class.dealii::FullMatrix", align 8
  %12 = alloca %"class.dealii::Householder", align 8
  %13 = alloca %"class.dealii::Vector", align 8
  %14 = alloca %"class.dealii::Vector", align 8
  %15 = alloca %"class.dealii::TriaActiveIterator", align 8
  %16 = alloca %"class.dealii::TriaRawIterator", align 8
  %17 = alloca %"class.dealii::Quadrature", align 8
  %18 = alloca %"class.dealii::FEValues", align 8
  %19 = alloca %"class.dealii::TriaIterator", align 8
  %20 = getelementptr inbounds i8, ptr %0, i64 112
  %21 = load i32, ptr %20, align 8, !tbaa !5
  %22 = getelementptr inbounds i8, ptr %0, i64 116
  %23 = load i32, ptr %22, align 4, !tbaa !133
  %24 = getelementptr inbounds i8, ptr %0, i64 124
  %25 = load i32, ptr %24, align 4, !tbaa !75
  %26 = select i1 %2, i32 7, i32 1
  %27 = getelementptr inbounds %"class.dealii::TriaAccessorBase", ptr %6, i64 0, i32 2
  %28 = getelementptr inbounds %"class.dealii::TriaAccessorBase", ptr %6, i64 0, i32 1
  %29 = add i32 %25, 1
  %30 = getelementptr inbounds %"class.dealii::Quadrature", ptr %8, i64 0, i32 3
  %31 = getelementptr inbounds %"class.dealii::Quadrature", ptr %8, i64 0, i32 3, i32 0, i32 0, i32 0, i32 1
  %32 = icmp eq i32 %23, 0
  %33 = icmp eq i32 %21, 0
  %34 = getelementptr inbounds %"class.dealii::FEValuesBase", ptr %9, i64 0, i32 6
  %35 = getelementptr inbounds i8, ptr %9, i64 480
  %36 = getelementptr inbounds i8, ptr %9, i64 144
  %37 = getelementptr inbounds i8, ptr %9, i64 160
  %38 = getelementptr inbounds %"class.dealii::TableBase", ptr %11, i64 0, i32 1
  %39 = getelementptr inbounds %"class.dealii::TableBase", ptr %11, i64 0, i32 3, i32 0, i32 0, i64 1
  %40 = getelementptr inbounds %"class.dealii::Householder", ptr %12, i64 0, i32 1
  %41 = getelementptr inbounds %"class.dealii::Vector", ptr %13, i64 0, i32 1
  %42 = getelementptr inbounds %"class.dealii::Vector", ptr %13, i64 0, i32 3
  %43 = getelementptr inbounds %"class.dealii::Vector", ptr %13, i64 0, i32 2
  %44 = getelementptr inbounds %"class.dealii::Vector", ptr %14, i64 0, i32 1
  %45 = zext i32 %21 to i64
  %46 = shl nuw nsw i64 %45, 3
  %47 = getelementptr inbounds %"class.dealii::Vector", ptr %14, i64 0, i32 3
  %48 = getelementptr inbounds %"class.dealii::Vector", ptr %14, i64 0, i32 2
  %49 = getelementptr inbounds %"class.dealii::TriaAccessorBase", ptr %15, i64 0, i32 1
  %50 = getelementptr inbounds %"class.dealii::TriaAccessorBase", ptr %16, i64 0, i32 1
  %51 = getelementptr inbounds i8, ptr %9, i64 312
  %52 = getelementptr inbounds i8, ptr %9, i64 216
  %53 = getelementptr inbounds %"class.dealii::FEValuesBase", ptr %18, i64 0, i32 6
  %54 = getelementptr inbounds i8, ptr %18, i64 480
  %55 = getelementptr inbounds i8, ptr %18, i64 144
  %56 = getelementptr inbounds i8, ptr %18, i64 160
  %57 = getelementptr inbounds %"class.dealii::FEValues", ptr %18, i64 0, i32 1
  %58 = getelementptr inbounds %"class.dealii::TriaAccessorBase", ptr %15, i64 0, i32 2
  %59 = getelementptr inbounds %"class.dealii::TableBase", ptr %12, i64 0, i32 1
  %60 = getelementptr inbounds %"class.dealii::FEValues", ptr %9, i64 0, i32 1
  %61 = zext i32 %26 to i64
  %62 = add nsw i64 %45, -1
  %63 = and i64 %45, 1
  %64 = icmp eq i32 %21, 1
  %65 = and i64 %45, 4294967294
  %66 = icmp eq i64 %63, 0
  %67 = icmp ne i32 %23, 1
  %68 = icmp ne i32 %23, 1
  %69 = icmp ult i32 %21, 20
  %70 = trunc i64 %62 to i32
  %71 = icmp ugt i64 %62, 4294967295
  %72 = and i64 %45, 4294967280
  %73 = icmp eq i64 %72, %45
  %74 = and i64 %45, 3
  %75 = icmp eq i64 %74, 0
  br label %76

76:                                               ; preds = %3, %1103
  %77 = phi i64 [ %61, %3 ], [ %1104, %1103 ]
  %78 = phi i32 [ %26, %3 ], [ %1105, %1103 ]
  call void @llvm.lifetime.start.p0(i64 1, ptr nonnull %4) #25
  %79 = trunc i32 %78 to i8
  store i8 %79, ptr %4, align 1
  %80 = call noundef i32 @_ZN6dealii12GeometryInfoILi3EE10n_childrenERKNS_14RefinementCaseILi3EEE(ptr noundef nonnull align 1 dereferenceable(1) %4)
  call void @llvm.lifetime.end.p0(i64 1, ptr nonnull %4) #25
  call void @llvm.lifetime.start.p0(i64 8552, ptr nonnull %5) #25
  call void @_ZN6dealii13TriangulationILi3ELi3EEC1ENS1_13MeshSmoothingE(ptr noundef nonnull align 8 dereferenceable(8552) %5, i32 noundef 0)
  invoke void @_ZN6dealii13GridGenerator10hyper_cubeILi3ELi3EEEvRNS_13TriangulationIXT_EXT0_EEEdd(ptr noundef nonnull align 8 dereferenceable(8552) %5, double noundef 0.000000e+00, double noundef 1.000000e+00)
          to label %81 unwind label %338

81:                                               ; preds = %76
  call void @llvm.lifetime.start.p0(i64 16, ptr nonnull %6) #25
  invoke void @_ZNK6dealii13TriangulationILi3ELi3EE12begin_activeEj(ptr nonnull sret(%"class.dealii::TriaActiveIterator") align 8 %6, ptr noundef nonnull align 8 dereferenceable(8552) %5, i32 noundef 0)
          to label %82 unwind label %340

82:                                               ; preds = %81
  %83 = load ptr, ptr %27, align 8, !tbaa !134
  %84 = getelementptr inbounds %"class.dealii::Triangulation", ptr %83, i64 0, i32 1
  %85 = load i32, ptr %6, align 8, !tbaa !136
  %86 = sext i32 %85 to i64
  %87 = load ptr, ptr %84, align 8, !tbaa !137
  %88 = getelementptr inbounds ptr, ptr %87, i64 %86
  %89 = load ptr, ptr %88, align 8, !tbaa !27
  %90 = load i32, ptr %28, align 4, !tbaa !139
  %91 = sext i32 %90 to i64
  %92 = load ptr, ptr %89, align 8, !tbaa !140
  %93 = getelementptr inbounds i8, ptr %92, i64 %91
  store i8 %79, ptr %93, align 1, !tbaa !142
  call void @llvm.lifetime.end.p0(i64 16, ptr nonnull %6) #25
  invoke void @_ZN6dealii13TriangulationILi3ELi3EE33execute_coarsening_and_refinementEv(ptr noundef nonnull align 8 dereferenceable(8552) %5)
          to label %94 unwind label %338

94:                                               ; preds = %82
  call void @llvm.lifetime.start.p0(i64 72, ptr nonnull %7) #25
  invoke void @_ZN6dealii11SubscriptorC2Ev(ptr noundef nonnull align 8 dereferenceable(72) %7)
          to label %95 unwind label %342

95:                                               ; preds = %94
  store ptr getelementptr inbounds ({ [17 x ptr] }, ptr @_ZTVN6dealii16MappingCartesianILi3ELi3EEE, i64 0, inrange i32 0, i64 2), ptr %7, align 8, !tbaa !25
  call void @llvm.lifetime.start.p0(i64 128, ptr nonnull %8) #25
  invoke void @_ZN6dealii6QGaussILi3EEC1Ej(ptr noundef nonnull align 8 dereferenceable(128) %8, i32 noundef %29)
          to label %96 unwind label %344

96:                                               ; preds = %95
  %97 = load ptr, ptr %31, align 8, !tbaa !20
  %98 = load ptr, ptr %30, align 8, !tbaa !15
  %99 = ptrtoint ptr %97 to i64
  %100 = ptrtoint ptr %98 to i64
  %101 = sub i64 %99, %100
  %102 = lshr exact i64 %101, 3
  %103 = trunc i64 %102 to i32
  call void @llvm.lifetime.start.p0(i64 776, ptr nonnull %9) #25
  invoke void @_ZN6dealii8FEValuesILi3ELi3EEC1ERKNS_7MappingILi3ELi3EEERKNS_13FiniteElementILi3ELi3EEERKNS_10QuadratureILi3EEENS_11UpdateFlagsE(ptr noundef nonnull align 8 dereferenceable(776) %9, ptr noundef nonnull align 8 dereferenceable(72) %7, ptr noundef nonnull align 8 dereferenceable(728) %0, ptr noundef nonnull align 8 dereferenceable(128) %8, i32 noundef 49)
          to label %104 unwind label %346

104:                                              ; preds = %96
  call void @llvm.lifetime.start.p0(i64 16, ptr nonnull %10) #25
  invoke void @_ZNK6dealii13TriangulationILi3ELi3EE12begin_activeEj(ptr nonnull sret(%"class.dealii::TriaActiveIterator") align 8 %10, ptr noundef nonnull align 8 dereferenceable(8552) %5, i32 noundef 0)
          to label %105 unwind label %348

105:                                              ; preds = %104
  invoke void @_ZN6dealii8FEValuesILi3ELi3EE6reinitERKNS_12TriaIteratorINS_12CellAccessorILi3ELi3EEEEE(ptr noundef nonnull align 8 dereferenceable(776) %9, ptr noundef nonnull align 8 dereferenceable(16) %10)
          to label %106 unwind label %348

106:                                              ; preds = %105
  call void @llvm.lifetime.end.p0(i64 16, ptr nonnull %10) #25
  call void @llvm.lifetime.start.p0(i64 96, ptr nonnull %11) #25
  %107 = mul i32 %23, %103
  invoke void @_ZN6dealii10FullMatrixIdEC1Ejj(ptr noundef nonnull align 8 dereferenceable(92) %11, i32 noundef %107, i32 noundef %21)
          to label %108 unwind label %350

108:                                              ; preds = %106
  %109 = icmp eq i32 %103, 0
  %110 = select i1 %32, i1 true, i1 %109
  %111 = select i1 %110, i1 true, i1 %33
  br i1 %111, label %327, label %112

112:                                              ; preds = %108, %204
  %113 = phi i32 [ %205, %204 ], [ 0, %108 ]
  %114 = load ptr, ptr %34, align 8
  %115 = getelementptr inbounds %"class.dealii::FiniteElement", ptr %114, i64 0, i32 2
  %116 = getelementptr inbounds %"class.dealii::FiniteElement", ptr %114, i64 0, i32 19
  %117 = lshr i32 %113, 6
  %118 = zext i32 %117 to i64
  %119 = and i32 %113, 63
  %120 = zext i32 %119 to i64
  %121 = shl nuw i64 1, %120
  %122 = getelementptr inbounds %"class.dealii::FiniteElement", ptr %114, i64 0, i32 12
  %123 = load ptr, ptr %38, align 8
  %124 = load i32, ptr %39, align 8
  %125 = load i8, ptr %115, align 4, !tbaa !76, !range !117, !noundef !118
  %126 = icmp eq i8 %125, 0
  br i1 %126, label %207, label %202

127:                                              ; preds = %202, %199
  %128 = phi i32 [ 0, %202 ], [ %200, %199 ]
  %129 = load ptr, ptr %35, align 8
  %130 = load ptr, ptr %36, align 8
  %131 = load i32, ptr %37, align 8
  %132 = mul i32 %128, %23
  %133 = add i32 %132, %113
  %134 = mul i32 %124, %133
  br i1 %64, label %178, label %135

135:                                              ; preds = %127, %169
  %136 = phi i64 [ %175, %169 ], [ 0, %127 ]
  %137 = phi i64 [ %176, %169 ], [ 0, %127 ]
  %138 = getelementptr inbounds %"struct.std::pair.77", ptr %203, i64 %136
  %139 = load i64, ptr %138, align 4
  %140 = trunc i64 %139 to i32
  %141 = icmp eq i32 %113, %140
  br i1 %141, label %142, label %150

142:                                              ; preds = %135
  %143 = getelementptr inbounds i32, ptr %129, i64 %136
  %144 = load i32, ptr %143, align 4, !tbaa !45
  %145 = mul i32 %131, %144
  %146 = add i32 %145, %128
  %147 = zext i32 %146 to i64
  %148 = getelementptr inbounds double, ptr %130, i64 %147
  %149 = load double, ptr %148, align 8, !tbaa !18
  br label %150

150:                                              ; preds = %142, %135
  %151 = phi double [ 0.000000e+00, %135 ], [ %149, %142 ]
  %152 = trunc i64 %136 to i32
  %153 = add i32 %134, %152
  %154 = zext i32 %153 to i64
  %155 = getelementptr inbounds double, ptr %123, i64 %154
  store double %151, ptr %155, align 8, !tbaa !18
  %156 = or i64 %136, 1
  %157 = getelementptr inbounds %"struct.std::pair.77", ptr %203, i64 %156
  %158 = load i64, ptr %157, align 4
  %159 = trunc i64 %158 to i32
  %160 = icmp eq i32 %113, %159
  br i1 %160, label %161, label %169

161:                                              ; preds = %150
  %162 = getelementptr inbounds i32, ptr %129, i64 %156
  %163 = load i32, ptr %162, align 4, !tbaa !45
  %164 = mul i32 %131, %163
  %165 = add i32 %164, %128
  %166 = zext i32 %165 to i64
  %167 = getelementptr inbounds double, ptr %130, i64 %166
  %168 = load double, ptr %167, align 8, !tbaa !18
  br label %169

169:                                              ; preds = %161, %150
  %170 = phi double [ 0.000000e+00, %150 ], [ %168, %161 ]
  %171 = trunc i64 %156 to i32
  %172 = add i32 %134, %171
  %173 = zext i32 %172 to i64
  %174 = getelementptr inbounds double, ptr %123, i64 %173
  store double %170, ptr %174, align 8, !tbaa !18
  %175 = add nuw nsw i64 %136, 2
  %176 = add i64 %137, 2
  %177 = icmp eq i64 %176, %65
  br i1 %177, label %178, label %135

178:                                              ; preds = %169, %127
  %179 = phi i64 [ 0, %127 ], [ %175, %169 ]
  br i1 %66, label %199, label %180

180:                                              ; preds = %178
  %181 = getelementptr inbounds %"struct.std::pair.77", ptr %203, i64 %179
  %182 = load i64, ptr %181, align 4
  %183 = trunc i64 %182 to i32
  %184 = icmp eq i32 %113, %183
  br i1 %184, label %185, label %193

185:                                              ; preds = %180
  %186 = getelementptr inbounds i32, ptr %129, i64 %179
  %187 = load i32, ptr %186, align 4, !tbaa !45
  %188 = mul i32 %131, %187
  %189 = add i32 %188, %128
  %190 = zext i32 %189 to i64
  %191 = getelementptr inbounds double, ptr %130, i64 %190
  %192 = load double, ptr %191, align 8, !tbaa !18
  br label %193

193:                                              ; preds = %185, %180
  %194 = phi double [ 0.000000e+00, %180 ], [ %192, %185 ]
  %195 = trunc i64 %179 to i32
  %196 = add i32 %134, %195
  %197 = zext i32 %196 to i64
  %198 = getelementptr inbounds double, ptr %123, i64 %197
  store double %194, ptr %198, align 8, !tbaa !18
  br label %199

199:                                              ; preds = %178, %193
  %200 = add nuw i32 %128, 1
  %201 = icmp eq i32 %200, %103
  br i1 %201, label %204, label %127

202:                                              ; preds = %112
  %203 = load ptr, ptr %122, align 8, !tbaa !64
  br label %127

204:                                              ; preds = %199, %279, %324
  %205 = add nuw i32 %113, 1
  %206 = icmp eq i32 %205, %23
  br i1 %206, label %327, label %112

207:                                              ; preds = %112
  %208 = icmp eq i32 %113, 0
  %209 = getelementptr inbounds %"class.dealii::FiniteElement", ptr %114, i64 0, i32 20
  %210 = load ptr, ptr %209, align 8, !tbaa !54
  br i1 %208, label %282, label %211

211:                                              ; preds = %207, %279
  %212 = phi i32 [ %280, %279 ], [ 0, %207 ]
  %213 = load ptr, ptr %35, align 8
  %214 = load ptr, ptr %36, align 8
  %215 = load i32, ptr %37, align 8
  %216 = mul i32 %212, %23
  %217 = add i32 %216, %113
  %218 = mul i32 %124, %217
  br label %219

219:                                              ; preds = %271, %211
  %220 = phi i64 [ %277, %271 ], [ 0, %211 ]
  %221 = getelementptr inbounds i32, ptr %210, i64 %220
  %222 = load i32, ptr %221, align 4, !tbaa !45
  %223 = icmp eq i32 %222, 1
  br i1 %223, label %255, label %224

224:                                              ; preds = %219
  %225 = load ptr, ptr %116, align 8, !tbaa !143
  %226 = getelementptr inbounds %"class.std::vector.53", ptr %225, i64 %220
  %227 = load ptr, ptr %226, align 8, !tbaa !144
  %228 = getelementptr inbounds i64, ptr %227, i64 %118
  %229 = load i64, ptr %228, align 8, !tbaa !145
  %230 = and i64 %229, %121
  %231 = icmp eq i64 %230, 0
  br i1 %231, label %271, label %232

232:                                              ; preds = %224
  %233 = getelementptr inbounds i32, ptr %213, i64 %220
  %234 = load i32, ptr %233, align 4, !tbaa !45
  br label %235

235:                                              ; preds = %235, %232
  %236 = phi i64 [ %243, %235 ], [ 0, %232 ]
  %237 = phi i32 [ %248, %235 ], [ 0, %232 ]
  %238 = phi ptr [ %247, %235 ], [ %227, %232 ]
  %239 = zext i32 %237 to i64
  %240 = load i64, ptr %238, align 8, !tbaa !145
  %241 = lshr i64 %240, %239
  %242 = and i64 %241, 1
  %243 = add nuw nsw i64 %242, %236
  %244 = add i32 %237, 1
  %245 = icmp eq i32 %237, 63
  %246 = zext i1 %245 to i64
  %247 = getelementptr inbounds i64, ptr %238, i64 %246
  %248 = select i1 %245, i32 0, i32 %244
  %249 = icmp ne ptr %247, %228
  %250 = icmp ne i32 %248, %119
  %251 = or i1 %250, %249
  br i1 %251, label %235, label %252

252:                                              ; preds = %235
  %253 = trunc i64 %243 to i32
  %254 = add i32 %234, %253
  br label %264

255:                                              ; preds = %219
  %256 = load ptr, ptr %122, align 8, !tbaa !64
  %257 = getelementptr inbounds %"struct.std::pair.77", ptr %256, i64 %220
  %258 = load i64, ptr %257, align 4
  %259 = trunc i64 %258 to i32
  %260 = icmp eq i32 %113, %259
  br i1 %260, label %261, label %271

261:                                              ; preds = %255
  %262 = getelementptr inbounds i32, ptr %213, i64 %220
  %263 = load i32, ptr %262, align 4, !tbaa !45
  br label %264

264:                                              ; preds = %261, %252
  %265 = phi i32 [ %254, %252 ], [ %263, %261 ]
  %266 = mul i32 %215, %265
  %267 = add i32 %266, %212
  %268 = zext i32 %267 to i64
  %269 = getelementptr inbounds double, ptr %214, i64 %268
  %270 = load double, ptr %269, align 8, !tbaa !18
  br label %271

271:                                              ; preds = %264, %255, %224
  %272 = phi double [ 0.000000e+00, %255 ], [ 0.000000e+00, %224 ], [ %270, %264 ]
  %273 = trunc i64 %220 to i32
  %274 = add i32 %218, %273
  %275 = zext i32 %274 to i64
  %276 = getelementptr inbounds double, ptr %123, i64 %275
  store double %272, ptr %276, align 8, !tbaa !18
  %277 = add nuw nsw i64 %220, 1
  %278 = icmp eq i64 %277, %45
  br i1 %278, label %279, label %219

279:                                              ; preds = %271
  %280 = add nuw i32 %212, 1
  %281 = icmp eq i32 %280, %103
  br i1 %281, label %204, label %211

282:                                              ; preds = %207, %324
  %283 = phi i32 [ %325, %324 ], [ 0, %207 ]
  %284 = load ptr, ptr %35, align 8
  %285 = load ptr, ptr %36, align 8
  %286 = load i32, ptr %37, align 8
  %287 = mul i32 %283, %23
  %288 = mul i32 %124, %287
  br label %289

289:                                              ; preds = %316, %282
  %290 = phi i64 [ %322, %316 ], [ 0, %282 ]
  %291 = getelementptr inbounds i32, ptr %210, i64 %290
  %292 = load i32, ptr %291, align 4, !tbaa !45
  %293 = icmp eq i32 %292, 1
  br i1 %293, label %302, label %294

294:                                              ; preds = %289
  %295 = load ptr, ptr %116, align 8, !tbaa !143
  %296 = getelementptr inbounds %"class.std::vector.53", ptr %295, i64 %290
  %297 = load ptr, ptr %296, align 8, !tbaa !144
  %298 = getelementptr inbounds i64, ptr %297, i64 %118
  %299 = load i64, ptr %298, align 8, !tbaa !145
  %300 = and i64 %299, %121
  %301 = icmp eq i64 %300, 0
  br i1 %301, label %316, label %308

302:                                              ; preds = %289
  %303 = load ptr, ptr %122, align 8, !tbaa !64
  %304 = getelementptr inbounds %"struct.std::pair.77", ptr %303, i64 %290
  %305 = load i64, ptr %304, align 4
  %306 = and i64 %305, 4294967295
  %307 = icmp eq i64 %306, 0
  br i1 %307, label %308, label %316

308:                                              ; preds = %302, %294
  %309 = getelementptr inbounds i32, ptr %284, i64 %290
  %310 = load i32, ptr %309, align 4, !tbaa !45
  %311 = mul i32 %286, %310
  %312 = add i32 %311, %283
  %313 = zext i32 %312 to i64
  %314 = getelementptr inbounds double, ptr %285, i64 %313
  %315 = load double, ptr %314, align 8, !tbaa !18
  br label %316

316:                                              ; preds = %308, %302, %294
  %317 = phi double [ 0.000000e+00, %302 ], [ 0.000000e+00, %294 ], [ %315, %308 ]
  %318 = trunc i64 %290 to i32
  %319 = add i32 %288, %318
  %320 = zext i32 %319 to i64
  %321 = getelementptr inbounds double, ptr %123, i64 %320
  store double %317, ptr %321, align 8, !tbaa !18
  %322 = add nuw nsw i64 %290, 1
  %323 = icmp eq i64 %322, %45
  br i1 %323, label %324, label %289

324:                                              ; preds = %316
  %325 = add nuw i32 %283, 1
  %326 = icmp eq i32 %325, %103
  br i1 %326, label %204, label %282

327:                                              ; preds = %204, %108
  call void @llvm.lifetime.start.p0(i64 120, ptr nonnull %12) #25
  invoke void @_ZN6dealii10FullMatrixIdEC2Ej(ptr noundef nonnull align 8 dereferenceable(92) %12, i32 noundef 0)
          to label %328 unwind label %413

328:                                              ; preds = %327
  store ptr getelementptr inbounds ({ [4 x ptr] }, ptr @_ZTVN6dealii11HouseholderIdEE, i64 0, inrange i32 0, i64 2), ptr %12, align 8, !tbaa !25
  call void @llvm.memset.p0.i64(ptr noundef nonnull align 8 dereferenceable(24) %40, i8 0, i64 24, i1 false)
  invoke void @_ZN6dealii11HouseholderIdE10initializeIdEEvRKNS_10FullMatrixIT_EE(ptr noundef nonnull align 8 dereferenceable(120) %12, ptr noundef nonnull align 8 dereferenceable(92) %11)
          to label %352 unwind label %329

329:                                              ; preds = %328
  %330 = landingpad { ptr, i32 }
          cleanup
  %331 = load ptr, ptr %40, align 8, !tbaa !15
  %332 = icmp eq ptr %331, null
  br i1 %332, label %334, label %333

333:                                              ; preds = %329
  call void @_ZdlPv(ptr noundef nonnull %331) #28
  br label %334

334:                                              ; preds = %333, %329
  invoke void @_ZN6dealii9TableBaseILi2EdED2Ev(ptr noundef nonnull align 8 dereferenceable(92) %12)
          to label %1123 unwind label %335

335:                                              ; preds = %334
  %336 = landingpad { ptr, i32 }
          catch ptr null
  %337 = extractvalue { ptr, i32 } %336, 0
  call void @__clang_call_terminate(ptr %337) #24
  unreachable

338:                                              ; preds = %82, %76
  %339 = landingpad { ptr, i32 }
          cleanup
  br label %1145

340:                                              ; preds = %81
  %341 = landingpad { ptr, i32 }
          cleanup
  call void @llvm.lifetime.end.p0(i64 16, ptr nonnull %6) #25
  br label %1145

342:                                              ; preds = %94, %1102
  %343 = landingpad { ptr, i32 }
          cleanup
  br label %1143

344:                                              ; preds = %1101, %95
  %345 = landingpad { ptr, i32 }
          cleanup
  br label %1141

346:                                              ; preds = %1095, %96
  %347 = landingpad { ptr, i32 }
          cleanup
  br label %1139

348:                                              ; preds = %105, %104
  %349 = landingpad { ptr, i32 }
          cleanup
  call void @llvm.lifetime.end.p0(i64 16, ptr nonnull %10) #25
  br label %1131

350:                                              ; preds = %1093, %106
  %351 = landingpad { ptr, i32 }
          cleanup
  br label %1129

352:                                              ; preds = %328
  call void @llvm.lifetime.start.p0(i64 88, ptr nonnull %13) #25
  invoke void @_ZN6dealii11SubscriptorC2Ev(ptr noundef nonnull align 8 dereferenceable(72) %13)
          to label %353 unwind label %415

353:                                              ; preds = %352
  store ptr getelementptr inbounds ({ [6 x ptr] }, ptr @_ZTVN6dealii6VectorIdEE, i64 0, inrange i32 0, i64 2), ptr %13, align 8, !tbaa !25
  call void @llvm.memset.p0.i64(ptr noundef nonnull align 8 dereferenceable(16) %41, i8 0, i64 16, i1 false)
  %354 = icmp eq i32 %107, 0
  br i1 %354, label %365, label %355

355:                                              ; preds = %353
  %356 = zext i32 %107 to i64
  %357 = shl nuw nsw i64 %356, 3
  %358 = invoke noalias noundef nonnull ptr @_Znam(i64 noundef %357) #27
          to label %359 unwind label %360

359:                                              ; preds = %355
  store ptr %358, ptr %42, align 8, !tbaa !126
  store i32 %107, ptr %43, align 4, !tbaa !128
  store i32 %107, ptr %41, align 8, !tbaa !129
  call void @llvm.memset.p0.i64(ptr nonnull align 8 %358, i8 0, i64 %357, i1 false), !tbaa !18
  br label %365

360:                                              ; preds = %355
  %361 = landingpad { ptr, i32 }
          cleanup
  invoke void @_ZN6dealii11SubscriptorD2Ev(ptr noundef nonnull align 8 dereferenceable(72) %13)
          to label %1113 unwind label %362

362:                                              ; preds = %360
  %363 = landingpad { ptr, i32 }
          catch ptr null
  %364 = extractvalue { ptr, i32 } %363, 0
  call void @__clang_call_terminate(ptr %364) #24
  unreachable

365:                                              ; preds = %359, %353
  call void @llvm.lifetime.start.p0(i64 88, ptr nonnull %14) #25
  invoke void @_ZN6dealii11SubscriptorC2Ev(ptr noundef nonnull align 8 dereferenceable(72) %14)
          to label %366 unwind label %417

366:                                              ; preds = %365
  store ptr getelementptr inbounds ({ [6 x ptr] }, ptr @_ZTVN6dealii6VectorIdEE, i64 0, inrange i32 0, i64 2), ptr %14, align 8, !tbaa !25
  call void @llvm.memset.p0.i64(ptr noundef nonnull align 8 dereferenceable(16) %44, i8 0, i64 16, i1 false)
  br i1 %33, label %375, label %367

367:                                              ; preds = %366
  %368 = invoke noalias noundef nonnull ptr @_Znam(i64 noundef %46) #27
          to label %369 unwind label %370

369:                                              ; preds = %367
  store ptr %368, ptr %47, align 8, !tbaa !126
  store i32 %21, ptr %48, align 4, !tbaa !128
  store i32 %21, ptr %44, align 8, !tbaa !129
  call void @llvm.memset.p0.i64(ptr nonnull align 8 %368, i8 0, i64 %46, i1 false), !tbaa !18
  br label %375

370:                                              ; preds = %367
  %371 = landingpad { ptr, i32 }
          cleanup
  invoke void @_ZN6dealii11SubscriptorD2Ev(ptr noundef nonnull align 8 dereferenceable(72) %14)
          to label %1107 unwind label %372

372:                                              ; preds = %370
  %373 = landingpad { ptr, i32 }
          catch ptr null
  %374 = extractvalue { ptr, i32 } %373, 0
  call void @__clang_call_terminate(ptr %374) #24
  unreachable

375:                                              ; preds = %369, %366
  call void @llvm.lifetime.start.p0(i64 16, ptr nonnull %15) #25
  invoke void @_ZNK6dealii13TriangulationILi3ELi3EE12begin_activeEj(ptr nonnull sret(%"class.dealii::TriaActiveIterator") align 8 %15, ptr noundef nonnull align 8 dereferenceable(8552) %5, i32 noundef 0)
          to label %376 unwind label %421

376:                                              ; preds = %375
  %377 = add nsw i64 %77, -1
  %378 = icmp eq i32 %103, 0
  %379 = and i64 %102, 4294967295
  %380 = and i64 %102, 4294967295
  %381 = and i64 %102, 4294967295
  %382 = and i64 %102, 4294967295
  %383 = and i64 %102, 4294967295
  %384 = add nsw i64 %379, -1
  %385 = add nsw i64 %379, -1
  %386 = icmp ult i64 %379, 20
  %387 = trunc i64 %385 to i32
  %388 = icmp ugt i64 %385, 4294967295
  %389 = and i64 %102, 15
  %390 = sub nsw i64 %379, %389
  %391 = icmp eq i64 %389, 0
  %392 = icmp ult i64 %379, 16
  %393 = trunc i64 %384 to i32
  %394 = icmp ugt i64 %384, 4294967295
  %395 = and i64 %102, 15
  %396 = sub nsw i64 %379, %395
  %397 = icmp eq i64 %395, 0
  br label %398

398:                                              ; preds = %376, %1055
  %399 = phi i32 [ %1056, %1055 ], [ 0, %376 ]
  call void @llvm.lifetime.start.p0(i64 16, ptr nonnull %16) #25
  invoke void @_ZNK6dealii13TriangulationILi3ELi3EE3endEv(ptr nonnull sret(%"class.dealii::TriaRawIterator") align 8 %16, ptr noundef nonnull align 8 dereferenceable(8552) %5)
          to label %400 unwind label %423

400:                                              ; preds = %398
  %401 = load i32, ptr %49, align 4, !tbaa !139
  %402 = load i32, ptr %50, align 4, !tbaa !139
  %403 = icmp ne i32 %401, %402
  %404 = load i32, ptr %15, align 8
  %405 = load i32, ptr %16, align 8
  %406 = icmp ne i32 %404, %405
  %407 = select i1 %403, i1 true, i1 %406
  call void @llvm.lifetime.end.p0(i64 16, ptr nonnull %16) #25
  br i1 %407, label %425, label %408

408:                                              ; preds = %400
  call void @llvm.lifetime.end.p0(i64 16, ptr nonnull %15) #25
  store ptr getelementptr inbounds ({ [6 x ptr] }, ptr @_ZTVN6dealii6VectorIdEE, i64 0, inrange i32 0, i64 2), ptr %14, align 8, !tbaa !25
  %409 = load ptr, ptr %47, align 8, !tbaa !126
  %410 = icmp eq ptr %409, null
  br i1 %410, label %412, label %411

411:                                              ; preds = %408
  call void @_ZdaPv(ptr noundef nonnull %409) #28
  store ptr null, ptr %47, align 8, !tbaa !126
  br label %412

412:                                              ; preds = %411, %408
  invoke void @_ZN6dealii11SubscriptorD2Ev(ptr noundef nonnull align 8 dereferenceable(72) %14)
          to label %1075 unwind label %417

413:                                              ; preds = %1088, %327
  %414 = landingpad { ptr, i32 }
          cleanup
  br label %1123

415:                                              ; preds = %1079, %352
  %416 = landingpad { ptr, i32 }
          cleanup
  br label %1113

417:                                              ; preds = %412, %365
  %418 = landingpad { ptr, i32 }
          cleanup
  br label %1107

419:                                              ; preds = %425
  %420 = landingpad { ptr, i32 }
          cleanup
  br label %1069

421:                                              ; preds = %375
  %422 = landingpad { ptr, i32 }
          cleanup
  br label %1069

423:                                              ; preds = %398
  %424 = landingpad { ptr, i32 }
          cleanup
  call void @llvm.lifetime.end.p0(i64 16, ptr nonnull %16) #25
  br label %1069

425:                                              ; preds = %400
  invoke void @_ZN6dealii8FEValuesILi3ELi3EE6reinitERKNS_12TriaIteratorINS_12CellAccessorILi3ELi3EEEEE(ptr noundef nonnull align 8 dereferenceable(776) %9, ptr noundef nonnull align 8 dereferenceable(16) %15)
          to label %426 unwind label %419

426:                                              ; preds = %425
  call void @llvm.lifetime.start.p0(i64 128, ptr nonnull %17) #25
  invoke void @_ZN6dealii10QuadratureILi3EEC1ERKSt6vectorINS_5PointILi3EEESaIS4_EERKS2_IdSaIdEE(ptr noundef nonnull align 8 dereferenceable(128) %17, ptr noundef nonnull align 8 dereferenceable(24) %51, ptr noundef nonnull align 8 dereferenceable(24) %52)
          to label %427 unwind label %850

427:                                              ; preds = %426
  call void @llvm.lifetime.start.p0(i64 776, ptr nonnull %18) #25
  invoke void @_ZN6dealii8FEValuesILi3ELi3EEC1ERKNS_7MappingILi3ELi3EEERKNS_13FiniteElementILi3ELi3EEERKNS_10QuadratureILi3EEENS_11UpdateFlagsE(ptr noundef nonnull align 8 dereferenceable(776) %18, ptr noundef nonnull align 8 dereferenceable(72) %7, ptr noundef nonnull align 8 dereferenceable(728) %0, ptr noundef nonnull align 8 dereferenceable(128) %17, i32 noundef 1)
          to label %428 unwind label %852

428:                                              ; preds = %427
  call void @llvm.lifetime.start.p0(i64 16, ptr nonnull %19) #25
  invoke void @_ZNK6dealii13TriangulationILi3ELi3EE5beginEj(ptr nonnull sret(%"class.dealii::TriaIterator") align 8 %19, ptr noundef nonnull align 8 dereferenceable(8552) %5, i32 noundef 0)
          to label %429 unwind label %854

429:                                              ; preds = %428
  invoke void @_ZN6dealii8FEValuesILi3ELi3EE6reinitERKNS_12TriaIteratorINS_12CellAccessorILi3ELi3EEEEE(ptr noundef nonnull align 8 dereferenceable(776) %18, ptr noundef nonnull align 8 dereferenceable(16) %19)
          to label %430 unwind label %854

430:                                              ; preds = %429
  call void @llvm.lifetime.end.p0(i64 16, ptr nonnull %19) #25
  %431 = load ptr, ptr %1, align 8, !tbaa !146
  %432 = getelementptr inbounds %"class.std::vector.134", ptr %431, i64 %377
  %433 = zext i32 %399 to i64
  %434 = load ptr, ptr %432, align 8, !tbaa !147
  %435 = getelementptr inbounds %"class.dealii::FullMatrix", ptr %434, i64 %433
  br i1 %33, label %439, label %436

436:                                              ; preds = %430
  %437 = getelementptr inbounds %"class.dealii::TableBase", ptr %435, i64 0, i32 1
  %438 = getelementptr inbounds %"class.dealii::TableBase", ptr %435, i64 0, i32 3, i32 0, i32 0, i64 1
  br label %535

439:                                              ; preds = %914, %430
  %440 = getelementptr inbounds %"class.dealii::TableBase", ptr %435, i64 0, i32 3
  %441 = load i32, ptr %440, align 4, !tbaa !45
  %442 = icmp eq i32 %441, 0
  br i1 %442, label %954, label %443

443:                                              ; preds = %439
  %444 = getelementptr inbounds %"class.dealii::TableBase", ptr %435, i64 0, i32 3, i32 0, i32 0, i64 1
  %445 = load i32, ptr %444, align 8, !tbaa !45
  %446 = icmp eq i32 %445, 0
  br i1 %446, label %954, label %447

447:                                              ; preds = %443
  %448 = getelementptr inbounds %"class.dealii::TableBase", ptr %435, i64 0, i32 1
  %449 = load ptr, ptr %448, align 8, !tbaa !31
  %450 = zext i32 %445 to i64
  %451 = add nsw i64 %450, -1
  %452 = icmp ult i32 %445, 16
  %453 = trunc i64 %451 to i32
  %454 = icmp ugt i64 %451, 4294967295
  %455 = and i64 %450, 4294967280
  %456 = icmp eq i64 %455, %450
  %457 = and i64 %450, 1
  %458 = icmp eq i64 %457, 0
  %459 = sub nsw i64 0, %450
  br label %460

460:                                              ; preds = %532, %447
  %461 = phi i32 [ 0, %447 ], [ %533, %532 ]
  %462 = mul i32 %445, %461
  br i1 %452, label %492, label %463

463:                                              ; preds = %460
  %464 = mul i32 %445, %461
  %465 = xor i32 %464, -1
  %466 = icmp ult i32 %465, %453
  %467 = or i1 %466, %454
  br i1 %467, label %492, label %468

468:                                              ; preds = %463, %468
  %469 = phi i64 [ %489, %468 ], [ 0, %463 ]
  %470 = trunc i64 %469 to i32
  %471 = add i32 %462, %470
  %472 = zext i32 %471 to i64
  %473 = getelementptr double, ptr %449, i64 %472
  %474 = load <4 x double>, ptr %473, align 8, !tbaa !18
  %475 = getelementptr double, ptr %473, i64 4
  %476 = load <4 x double>, ptr %475, align 8, !tbaa !18
  %477 = getelementptr double, ptr %473, i64 8
  %478 = load <4 x double>, ptr %477, align 8, !tbaa !18
  %479 = getelementptr double, ptr %473, i64 12
  %480 = load <4 x double>, ptr %479, align 8, !tbaa !18
  %481 = call <4 x double> @llvm.fabs.v4f64(<4 x double> %474)
  %482 = call <4 x double> @llvm.fabs.v4f64(<4 x double> %476)
  %483 = call <4 x double> @llvm.fabs.v4f64(<4 x double> %478)
  %484 = call <4 x double> @llvm.fabs.v4f64(<4 x double> %480)
  %485 = fcmp olt <4 x double> %481, <double 0x3D719799812DEA11, double 0x3D719799812DEA11, double 0x3D719799812DEA11, double 0x3D719799812DEA11>
  %486 = fcmp olt <4 x double> %482, <double 0x3D719799812DEA11, double 0x3D719799812DEA11, double 0x3D719799812DEA11, double 0x3D719799812DEA11>
  %487 = fcmp olt <4 x double> %483, <double 0x3D719799812DEA11, double 0x3D719799812DEA11, double 0x3D719799812DEA11, double 0x3D719799812DEA11>
  %488 = fcmp olt <4 x double> %484, <double 0x3D719799812DEA11, double 0x3D719799812DEA11, double 0x3D719799812DEA11, double 0x3D719799812DEA11>
  call void @llvm.masked.store.v4f64.p0(<4 x double> zeroinitializer, ptr %473, i32 8, <4 x i1> %485), !tbaa !18
  call void @llvm.masked.store.v4f64.p0(<4 x double> zeroinitializer, ptr %475, i32 8, <4 x i1> %486), !tbaa !18
  call void @llvm.masked.store.v4f64.p0(<4 x double> zeroinitializer, ptr %477, i32 8, <4 x i1> %487), !tbaa !18
  call void @llvm.masked.store.v4f64.p0(<4 x double> zeroinitializer, ptr %479, i32 8, <4 x i1> %488), !tbaa !18
  %489 = add nuw i64 %469, 16
  %490 = icmp eq i64 %489, %455
  br i1 %490, label %491, label %468, !llvm.loop !149

491:                                              ; preds = %468
  br i1 %456, label %532, label %492

492:                                              ; preds = %463, %460, %491
  %493 = phi i64 [ 0, %463 ], [ 0, %460 ], [ %455, %491 ]
  %494 = xor i64 %493, -1
  br i1 %458, label %506, label %495

495:                                              ; preds = %492
  %496 = trunc i64 %493 to i32
  %497 = add i32 %462, %496
  %498 = zext i32 %497 to i64
  %499 = getelementptr inbounds double, ptr %449, i64 %498
  %500 = load double, ptr %499, align 8, !tbaa !18
  %501 = call double @llvm.fabs.f64(double %500)
  %502 = fcmp olt double %501, 0x3D719799812DEA11
  br i1 %502, label %503, label %504

503:                                              ; preds = %495
  store double 0.000000e+00, ptr %499, align 8, !tbaa !18
  br label %504

504:                                              ; preds = %503, %495
  %505 = or i64 %493, 1
  br label %506

506:                                              ; preds = %504, %492
  %507 = phi i64 [ %493, %492 ], [ %505, %504 ]
  %508 = icmp eq i64 %494, %459
  br i1 %508, label %532, label %509

509:                                              ; preds = %506, %529
  %510 = phi i64 [ %530, %529 ], [ %507, %506 ]
  %511 = trunc i64 %510 to i32
  %512 = add i32 %462, %511
  %513 = zext i32 %512 to i64
  %514 = getelementptr inbounds double, ptr %449, i64 %513
  %515 = load double, ptr %514, align 8, !tbaa !18
  %516 = call double @llvm.fabs.f64(double %515)
  %517 = fcmp olt double %516, 0x3D719799812DEA11
  br i1 %517, label %518, label %519

518:                                              ; preds = %509
  store double 0.000000e+00, ptr %514, align 8, !tbaa !18
  br label %519

519:                                              ; preds = %518, %509
  %520 = trunc i64 %510 to i32
  %521 = add i32 %520, 1
  %522 = add i32 %462, %521
  %523 = zext i32 %522 to i64
  %524 = getelementptr inbounds double, ptr %449, i64 %523
  %525 = load double, ptr %524, align 8, !tbaa !18
  %526 = call double @llvm.fabs.f64(double %525)
  %527 = fcmp olt double %526, 0x3D719799812DEA11
  br i1 %527, label %528, label %529

528:                                              ; preds = %519
  store double 0.000000e+00, ptr %524, align 8, !tbaa !18
  br label %529

529:                                              ; preds = %528, %519
  %530 = add nuw nsw i64 %510, 2
  %531 = icmp eq i64 %530, %450
  br i1 %531, label %532, label %509, !llvm.loop !150

532:                                              ; preds = %506, %529, %491
  %533 = add nuw i32 %461, 1
  %534 = icmp eq i32 %533, %441
  br i1 %534, label %954, label %460

535:                                              ; preds = %436, %914
  %536 = phi i64 [ 0, %436 ], [ %915, %914 ]
  %537 = shl nuw nsw i64 %536, 3
  %538 = trunc i64 %536 to i32
  br i1 %32, label %856, label %539

539:                                              ; preds = %535
  %540 = load ptr, ptr %53, align 8
  %541 = getelementptr inbounds %"class.dealii::FiniteElement", ptr %540, i64 0, i32 20
  %542 = getelementptr inbounds %"class.dealii::FiniteElement", ptr %540, i64 0, i32 19
  %543 = getelementptr inbounds %"class.dealii::FiniteElement", ptr %540, i64 0, i32 12
  %544 = load ptr, ptr %42, align 8
  %545 = ptrtoint ptr %544 to i64
  br i1 %378, label %856, label %546

546:                                              ; preds = %539
  %547 = getelementptr inbounds %"class.dealii::FiniteElement", ptr %540, i64 0, i32 2
  %548 = load i8, ptr %547, align 4, !tbaa !76, !range !117, !noundef !118
  %549 = icmp eq i8 %548, 0
  br i1 %549, label %550, label %814

550:                                              ; preds = %546
  %551 = load ptr, ptr %541, align 8, !tbaa !54
  %552 = getelementptr inbounds i32, ptr %551, i64 %536
  %553 = load i32, ptr %552, align 4, !tbaa !45
  %554 = icmp eq i32 %553, 1
  br i1 %554, label %555, label %591

555:                                              ; preds = %550
  %556 = load ptr, ptr %543, align 8, !tbaa !64
  %557 = getelementptr inbounds %"struct.std::pair.77", ptr %556, i64 %536
  br label %558

558:                                              ; preds = %588, %555
  %559 = phi i32 [ 0, %555 ], [ %589, %588 ]
  %560 = load ptr, ptr %54, align 8
  %561 = load ptr, ptr %55, align 8
  %562 = load i32, ptr %56, align 8
  %563 = getelementptr inbounds i32, ptr %560, i64 %536
  br label %564

564:                                              ; preds = %579, %558
  %565 = phi i64 [ %586, %579 ], [ 0, %558 ]
  %566 = load i64, ptr %557, align 4
  %567 = trunc i64 %566 to i32
  %568 = icmp eq i32 %559, %567
  br i1 %568, label %571, label %569

569:                                              ; preds = %564
  %570 = trunc i64 %565 to i32
  br label %579

571:                                              ; preds = %564
  %572 = load i32, ptr %563, align 4, !tbaa !45
  %573 = mul i32 %562, %572
  %574 = trunc i64 %565 to i32
  %575 = add i32 %573, %574
  %576 = zext i32 %575 to i64
  %577 = getelementptr inbounds double, ptr %561, i64 %576
  %578 = load double, ptr %577, align 8, !tbaa !18
  br label %579

579:                                              ; preds = %569, %571
  %580 = phi i32 [ %570, %569 ], [ %574, %571 ]
  %581 = phi double [ 0.000000e+00, %569 ], [ %578, %571 ]
  %582 = mul i32 %580, %23
  %583 = add i32 %582, %559
  %584 = zext i32 %583 to i64
  %585 = getelementptr inbounds double, ptr %544, i64 %584
  store double %581, ptr %585, align 8, !tbaa !18
  %586 = add nuw nsw i64 %565, 1
  %587 = icmp eq i64 %586, %383
  br i1 %587, label %588, label %564

588:                                              ; preds = %579
  %589 = add nuw i32 %559, 1
  %590 = icmp eq i32 %589, %23
  br i1 %590, label %856, label %558

591:                                              ; preds = %550
  %592 = load ptr, ptr %542, align 8, !tbaa !143
  %593 = getelementptr inbounds %"class.std::vector.53", ptr %592, i64 %536
  %594 = load ptr, ptr %593, align 8, !tbaa !144
  br label %595

595:                                              ; preds = %687, %591
  %596 = phi i32 [ 0, %591 ], [ %688, %687 ]
  %597 = lshr i32 %596, 6
  %598 = zext i32 %597 to i64
  %599 = and i32 %596, 63
  %600 = zext i32 %599 to i64
  %601 = shl nuw i64 1, %600
  %602 = load ptr, ptr %55, align 8
  %603 = ptrtoint ptr %602 to i64
  %604 = load i32, ptr %56, align 8
  %605 = getelementptr inbounds i64, ptr %594, i64 %598
  %606 = load i64, ptr %605, align 8, !tbaa !145
  %607 = and i64 %606, %601
  %608 = icmp eq i64 %607, 0
  br i1 %608, label %609, label %682

609:                                              ; preds = %595
  br i1 %392, label %627, label %610

610:                                              ; preds = %609
  %611 = xor i32 %596, -1
  %612 = icmp ult i32 %611, %393
  %613 = or i1 %612, %394
  %614 = or i1 %68, %613
  br i1 %614, label %627, label %615

615:                                              ; preds = %610, %615
  %616 = phi i64 [ %624, %615 ], [ 0, %610 ]
  %617 = trunc i64 %616 to i32
  %618 = add i32 %596, %617
  %619 = zext i32 %618 to i64
  %620 = getelementptr inbounds double, ptr %544, i64 %619
  store <4 x double> zeroinitializer, ptr %620, align 8, !tbaa !18
  %621 = getelementptr inbounds double, ptr %620, i64 4
  store <4 x double> zeroinitializer, ptr %621, align 8, !tbaa !18
  %622 = getelementptr inbounds double, ptr %620, i64 8
  store <4 x double> zeroinitializer, ptr %622, align 8, !tbaa !18
  %623 = getelementptr inbounds double, ptr %620, i64 12
  store <4 x double> zeroinitializer, ptr %623, align 8, !tbaa !18
  %624 = add nuw i64 %616, 16
  %625 = icmp eq i64 %624, %396
  br i1 %625, label %626, label %615, !llvm.loop !151

626:                                              ; preds = %615
  br i1 %397, label %687, label %627

627:                                              ; preds = %610, %609, %626
  %628 = phi i64 [ 0, %610 ], [ 0, %609 ], [ %396, %626 ]
  %629 = sub nsw i64 %102, %628
  %630 = xor i64 %628, -1
  %631 = add nsw i64 %379, %630
  %632 = and i64 %629, 3
  %633 = icmp eq i64 %632, 0
  br i1 %633, label %645, label %634

634:                                              ; preds = %627, %634
  %635 = phi i64 [ %642, %634 ], [ %628, %627 ]
  %636 = phi i64 [ %643, %634 ], [ 0, %627 ]
  %637 = trunc i64 %635 to i32
  %638 = mul i32 %23, %637
  %639 = add i32 %638, %596
  %640 = zext i32 %639 to i64
  %641 = getelementptr inbounds double, ptr %544, i64 %640
  store double 0.000000e+00, ptr %641, align 8, !tbaa !18
  %642 = add nuw nsw i64 %635, 1
  %643 = add i64 %636, 1
  %644 = icmp eq i64 %643, %632
  br i1 %644, label %645, label %634, !llvm.loop !152

645:                                              ; preds = %634, %627
  %646 = phi i64 [ %628, %627 ], [ %642, %634 ]
  %647 = icmp ult i64 %631, 3
  br i1 %647, label %687, label %690

648:                                              ; preds = %682, %667
  %649 = phi i64 [ %680, %667 ], [ 0, %682 ]
  br label %650

650:                                              ; preds = %650, %648
  %651 = phi i64 [ %658, %650 ], [ 0, %648 ]
  %652 = phi i32 [ %663, %650 ], [ 0, %648 ]
  %653 = phi ptr [ %662, %650 ], [ %594, %648 ]
  %654 = zext i32 %652 to i64
  %655 = load i64, ptr %653, align 8, !tbaa !145
  %656 = lshr i64 %655, %654
  %657 = and i64 %656, 1
  %658 = add nuw nsw i64 %657, %651
  %659 = add i32 %652, 1
  %660 = icmp eq i32 %652, 63
  %661 = zext i1 %660 to i64
  %662 = getelementptr inbounds i64, ptr %653, i64 %661
  %663 = select i1 %660, i32 0, i32 %659
  %664 = icmp ne ptr %662, %605
  %665 = icmp ne i32 %663, %599
  %666 = or i1 %665, %664
  br i1 %666, label %650, label %667

667:                                              ; preds = %650
  %668 = trunc i64 %658 to i32
  %669 = add i32 %686, %668
  %670 = mul i32 %604, %669
  %671 = trunc i64 %649 to i32
  %672 = add i32 %670, %671
  %673 = zext i32 %672 to i64
  %674 = getelementptr inbounds double, ptr %602, i64 %673
  %675 = load double, ptr %674, align 8, !tbaa !18
  %676 = mul i32 %23, %671
  %677 = add i32 %676, %596
  %678 = zext i32 %677 to i64
  %679 = getelementptr inbounds double, ptr %544, i64 %678
  store double %675, ptr %679, align 8, !tbaa !18
  %680 = add nuw nsw i64 %649, 1
  %681 = icmp eq i64 %680, %380
  br i1 %681, label %687, label %648

682:                                              ; preds = %595
  %683 = icmp eq i32 %596, 0
  %684 = load ptr, ptr %54, align 8
  %685 = getelementptr inbounds i32, ptr %684, i64 %536
  %686 = load i32, ptr %685, align 4, !tbaa !45
  br i1 %683, label %717, label %648

687:                                              ; preds = %667, %772, %775, %645, %690, %750, %626
  %688 = add nuw i32 %596, 1
  %689 = icmp eq i32 %688, %23
  br i1 %689, label %856, label %595

690:                                              ; preds = %645, %690
  %691 = phi i64 [ %715, %690 ], [ %646, %645 ]
  %692 = trunc i64 %691 to i32
  %693 = mul i32 %23, %692
  %694 = add i32 %693, %596
  %695 = zext i32 %694 to i64
  %696 = getelementptr inbounds double, ptr %544, i64 %695
  store double 0.000000e+00, ptr %696, align 8, !tbaa !18
  %697 = trunc i64 %691 to i32
  %698 = add i32 %697, 1
  %699 = mul i32 %23, %698
  %700 = add i32 %699, %596
  %701 = zext i32 %700 to i64
  %702 = getelementptr inbounds double, ptr %544, i64 %701
  store double 0.000000e+00, ptr %702, align 8, !tbaa !18
  %703 = trunc i64 %691 to i32
  %704 = add i32 %703, 2
  %705 = mul i32 %23, %704
  %706 = add i32 %705, %596
  %707 = zext i32 %706 to i64
  %708 = getelementptr inbounds double, ptr %544, i64 %707
  store double 0.000000e+00, ptr %708, align 8, !tbaa !18
  %709 = trunc i64 %691 to i32
  %710 = add i32 %709, 3
  %711 = mul i32 %23, %710
  %712 = add i32 %711, %596
  %713 = zext i32 %712 to i64
  %714 = getelementptr inbounds double, ptr %544, i64 %713
  store double 0.000000e+00, ptr %714, align 8, !tbaa !18
  %715 = add nuw nsw i64 %691, 4
  %716 = icmp eq i64 %715, %382
  br i1 %716, label %687, label %690, !llvm.loop !153

717:                                              ; preds = %682
  %718 = mul i32 %604, %686
  br i1 %386, label %751, label %719

719:                                              ; preds = %717
  %720 = xor i32 %718, -1
  %721 = icmp ult i32 %720, %387
  %722 = or i1 %721, %388
  %723 = or i1 %67, %722
  br i1 %723, label %751, label %724

724:                                              ; preds = %719
  %725 = zext i32 %718 to i64
  %726 = shl nuw nsw i64 %725, 3
  %727 = add i64 %726, %603
  %728 = sub i64 %545, %727
  %729 = icmp ult i64 %728, 128
  br i1 %729, label %751, label %730

730:                                              ; preds = %724, %730
  %731 = phi i64 [ %748, %730 ], [ 0, %724 ]
  %732 = trunc i64 %731 to i32
  %733 = add i32 %718, %732
  %734 = zext i32 %733 to i64
  %735 = getelementptr inbounds double, ptr %602, i64 %734
  %736 = load <4 x double>, ptr %735, align 8, !tbaa !18
  %737 = getelementptr inbounds double, ptr %735, i64 4
  %738 = load <4 x double>, ptr %737, align 8, !tbaa !18
  %739 = getelementptr inbounds double, ptr %735, i64 8
  %740 = load <4 x double>, ptr %739, align 8, !tbaa !18
  %741 = getelementptr inbounds double, ptr %735, i64 12
  %742 = load <4 x double>, ptr %741, align 8, !tbaa !18
  %743 = and i64 %731, 4294967280
  %744 = getelementptr inbounds double, ptr %544, i64 %743
  store <4 x double> %736, ptr %744, align 8, !tbaa !18
  %745 = getelementptr inbounds double, ptr %744, i64 4
  store <4 x double> %738, ptr %745, align 8, !tbaa !18
  %746 = getelementptr inbounds double, ptr %744, i64 8
  store <4 x double> %740, ptr %746, align 8, !tbaa !18
  %747 = getelementptr inbounds double, ptr %744, i64 12
  store <4 x double> %742, ptr %747, align 8, !tbaa !18
  %748 = add nuw i64 %731, 16
  %749 = icmp eq i64 %748, %390
  br i1 %749, label %750, label %730, !llvm.loop !154

750:                                              ; preds = %730
  br i1 %391, label %687, label %751

751:                                              ; preds = %724, %719, %717, %750
  %752 = phi i64 [ 0, %724 ], [ 0, %719 ], [ 0, %717 ], [ %390, %750 ]
  %753 = sub nsw i64 %102, %752
  %754 = xor i64 %752, -1
  %755 = add nsw i64 %379, %754
  %756 = and i64 %753, 3
  %757 = icmp eq i64 %756, 0
  br i1 %757, label %772, label %758

758:                                              ; preds = %751, %758
  %759 = phi i64 [ %769, %758 ], [ %752, %751 ]
  %760 = phi i64 [ %770, %758 ], [ 0, %751 ]
  %761 = trunc i64 %759 to i32
  %762 = add i32 %718, %761
  %763 = zext i32 %762 to i64
  %764 = getelementptr inbounds double, ptr %602, i64 %763
  %765 = load double, ptr %764, align 8, !tbaa !18
  %766 = mul i32 %23, %761
  %767 = zext i32 %766 to i64
  %768 = getelementptr inbounds double, ptr %544, i64 %767
  store double %765, ptr %768, align 8, !tbaa !18
  %769 = add nuw nsw i64 %759, 1
  %770 = add i64 %760, 1
  %771 = icmp eq i64 %770, %756
  br i1 %771, label %772, label %758, !llvm.loop !155

772:                                              ; preds = %758, %751
  %773 = phi i64 [ %752, %751 ], [ %769, %758 ]
  %774 = icmp ult i64 %755, 3
  br i1 %774, label %687, label %775

775:                                              ; preds = %772, %775
  %776 = phi i64 [ %812, %775 ], [ %773, %772 ]
  %777 = trunc i64 %776 to i32
  %778 = add i32 %718, %777
  %779 = zext i32 %778 to i64
  %780 = getelementptr inbounds double, ptr %602, i64 %779
  %781 = load double, ptr %780, align 8, !tbaa !18
  %782 = mul i32 %23, %777
  %783 = zext i32 %782 to i64
  %784 = getelementptr inbounds double, ptr %544, i64 %783
  store double %781, ptr %784, align 8, !tbaa !18
  %785 = trunc i64 %776 to i32
  %786 = add i32 %785, 1
  %787 = add i32 %718, %786
  %788 = zext i32 %787 to i64
  %789 = getelementptr inbounds double, ptr %602, i64 %788
  %790 = load double, ptr %789, align 8, !tbaa !18
  %791 = mul i32 %23, %786
  %792 = zext i32 %791 to i64
  %793 = getelementptr inbounds double, ptr %544, i64 %792
  store double %790, ptr %793, align 8, !tbaa !18
  %794 = trunc i64 %776 to i32
  %795 = add i32 %794, 2
  %796 = add i32 %718, %795
  %797 = zext i32 %796 to i64
  %798 = getelementptr inbounds double, ptr %602, i64 %797
  %799 = load double, ptr %798, align 8, !tbaa !18
  %800 = mul i32 %23, %795
  %801 = zext i32 %800 to i64
  %802 = getelementptr inbounds double, ptr %544, i64 %801
  store double %799, ptr %802, align 8, !tbaa !18
  %803 = trunc i64 %776 to i32
  %804 = add i32 %803, 3
  %805 = add i32 %718, %804
  %806 = zext i32 %805 to i64
  %807 = getelementptr inbounds double, ptr %602, i64 %806
  %808 = load double, ptr %807, align 8, !tbaa !18
  %809 = mul i32 %23, %804
  %810 = zext i32 %809 to i64
  %811 = getelementptr inbounds double, ptr %544, i64 %810
  store double %808, ptr %811, align 8, !tbaa !18
  %812 = add nuw nsw i64 %776, 4
  %813 = icmp eq i64 %812, %381
  br i1 %813, label %687, label %775, !llvm.loop !156

814:                                              ; preds = %546
  %815 = load ptr, ptr %543, align 8, !tbaa !64
  %816 = getelementptr inbounds %"struct.std::pair.77", ptr %815, i64 %536
  br label %817

817:                                              ; preds = %847, %814
  %818 = phi i32 [ 0, %814 ], [ %848, %847 ]
  %819 = load ptr, ptr %54, align 8
  %820 = load ptr, ptr %55, align 8
  %821 = load i32, ptr %56, align 8
  %822 = getelementptr inbounds i32, ptr %819, i64 %536
  br label %823

823:                                              ; preds = %817, %838
  %824 = phi i64 [ 0, %817 ], [ %845, %838 ]
  %825 = load i64, ptr %816, align 4
  %826 = trunc i64 %825 to i32
  %827 = icmp eq i32 %818, %826
  br i1 %827, label %830, label %828

828:                                              ; preds = %823
  %829 = trunc i64 %824 to i32
  br label %838

830:                                              ; preds = %823
  %831 = load i32, ptr %822, align 4, !tbaa !45
  %832 = mul i32 %821, %831
  %833 = trunc i64 %824 to i32
  %834 = add i32 %832, %833
  %835 = zext i32 %834 to i64
  %836 = getelementptr inbounds double, ptr %820, i64 %835
  %837 = load double, ptr %836, align 8, !tbaa !18
  br label %838

838:                                              ; preds = %828, %830
  %839 = phi i32 [ %829, %828 ], [ %833, %830 ]
  %840 = phi double [ 0.000000e+00, %828 ], [ %837, %830 ]
  %841 = mul i32 %839, %23
  %842 = add i32 %841, %818
  %843 = zext i32 %842 to i64
  %844 = getelementptr inbounds double, ptr %544, i64 %843
  store double %840, ptr %844, align 8, !tbaa !18
  %845 = add nuw nsw i64 %824, 1
  %846 = icmp eq i64 %845, %379
  br i1 %846, label %847, label %823

847:                                              ; preds = %838
  %848 = add nuw i32 %818, 1
  %849 = icmp eq i32 %848, %23
  br i1 %849, label %856, label %817

850:                                              ; preds = %961, %426
  %851 = landingpad { ptr, i32 }
          cleanup
  br label %1067

852:                                              ; preds = %955, %427
  %853 = landingpad { ptr, i32 }
          cleanup
  br label %1065

854:                                              ; preds = %429, %428
  %855 = landingpad { ptr, i32 }
          cleanup
  call void @llvm.lifetime.end.p0(i64 16, ptr nonnull %19) #25
  br label %1057

856:                                              ; preds = %847, %687, %588, %539, %535
  %857 = invoke noundef double @_ZNK6dealii11HouseholderIdE13least_squaresIdEEdRNS_6VectorIT_EERKS5_(ptr noundef nonnull align 8 dereferenceable(120) %12, ptr noundef nonnull align 8 dereferenceable(88) %14, ptr noundef nonnull align 8 dereferenceable(88) %13)
          to label %858 unwind label %917

858:                                              ; preds = %856
  %859 = load ptr, ptr %47, align 8, !tbaa !126
  %860 = ptrtoint ptr %859 to i64
  %861 = load ptr, ptr %437, align 8, !tbaa !31
  %862 = ptrtoint ptr %861 to i64
  %863 = load i32, ptr %438, align 8, !tbaa !45
  %864 = trunc i64 %536 to i32
  br i1 %69, label %894, label %865

865:                                              ; preds = %858
  %866 = icmp ne i32 %863, 1
  %867 = xor i32 %538, -1
  %868 = icmp ult i32 %867, %70
  %869 = or i1 %868, %71
  %870 = or i1 %866, %869
  br i1 %870, label %894, label %871

871:                                              ; preds = %865
  %872 = add i64 %537, %862
  %873 = sub i64 %872, %860
  %874 = icmp ult i64 %873, 128
  br i1 %874, label %894, label %875

875:                                              ; preds = %871, %875
  %876 = phi i64 [ %891, %875 ], [ 0, %871 ]
  %877 = getelementptr inbounds double, ptr %859, i64 %876
  %878 = load <4 x double>, ptr %877, align 8, !tbaa !18
  %879 = getelementptr inbounds double, ptr %877, i64 4
  %880 = load <4 x double>, ptr %879, align 8, !tbaa !18
  %881 = getelementptr inbounds double, ptr %877, i64 8
  %882 = load <4 x double>, ptr %881, align 8, !tbaa !18
  %883 = getelementptr inbounds double, ptr %877, i64 12
  %884 = load <4 x double>, ptr %883, align 8, !tbaa !18
  %885 = add i64 %876, %536
  %886 = and i64 %885, 4294967295
  %887 = getelementptr inbounds double, ptr %861, i64 %886
  store <4 x double> %878, ptr %887, align 8, !tbaa !18
  %888 = getelementptr inbounds double, ptr %887, i64 4
  store <4 x double> %880, ptr %888, align 8, !tbaa !18
  %889 = getelementptr inbounds double, ptr %887, i64 8
  store <4 x double> %882, ptr %889, align 8, !tbaa !18
  %890 = getelementptr inbounds double, ptr %887, i64 12
  store <4 x double> %884, ptr %890, align 8, !tbaa !18
  %891 = add nuw i64 %876, 16
  %892 = icmp eq i64 %891, %72
  br i1 %892, label %893, label %875, !llvm.loop !157

893:                                              ; preds = %875
  br i1 %73, label %914, label %894

894:                                              ; preds = %871, %865, %858, %893
  %895 = phi i64 [ 0, %871 ], [ 0, %865 ], [ 0, %858 ], [ %72, %893 ]
  %896 = xor i64 %895, -1
  %897 = add nsw i64 %896, %45
  br i1 %75, label %911, label %898

898:                                              ; preds = %894, %898
  %899 = phi i64 [ %908, %898 ], [ %895, %894 ]
  %900 = phi i64 [ %909, %898 ], [ 0, %894 ]
  %901 = getelementptr inbounds double, ptr %859, i64 %899
  %902 = load double, ptr %901, align 8, !tbaa !18
  %903 = trunc i64 %899 to i32
  %904 = mul i32 %863, %903
  %905 = add i32 %904, %864
  %906 = zext i32 %905 to i64
  %907 = getelementptr inbounds double, ptr %861, i64 %906
  store double %902, ptr %907, align 8, !tbaa !18
  %908 = add nuw nsw i64 %899, 1
  %909 = add i64 %900, 1
  %910 = icmp eq i64 %909, %74
  br i1 %910, label %911, label %898, !llvm.loop !158

911:                                              ; preds = %898, %894
  %912 = phi i64 [ %895, %894 ], [ %908, %898 ]
  %913 = icmp ult i64 %897, 3
  br i1 %913, label %914, label %919

914:                                              ; preds = %911, %919, %893
  %915 = add nuw nsw i64 %536, 1
  %916 = icmp eq i64 %915, %45
  br i1 %916, label %439, label %535

917:                                              ; preds = %856
  %918 = landingpad { ptr, i32 }
          cleanup
  br label %1057

919:                                              ; preds = %911, %919
  %920 = phi i64 [ %952, %919 ], [ %912, %911 ]
  %921 = getelementptr inbounds double, ptr %859, i64 %920
  %922 = load double, ptr %921, align 8, !tbaa !18
  %923 = trunc i64 %920 to i32
  %924 = mul i32 %863, %923
  %925 = add i32 %924, %864
  %926 = zext i32 %925 to i64
  %927 = getelementptr inbounds double, ptr %861, i64 %926
  store double %922, ptr %927, align 8, !tbaa !18
  %928 = add nuw nsw i64 %920, 1
  %929 = getelementptr inbounds double, ptr %859, i64 %928
  %930 = load double, ptr %929, align 8, !tbaa !18
  %931 = trunc i64 %928 to i32
  %932 = mul i32 %863, %931
  %933 = add i32 %932, %864
  %934 = zext i32 %933 to i64
  %935 = getelementptr inbounds double, ptr %861, i64 %934
  store double %930, ptr %935, align 8, !tbaa !18
  %936 = add nuw nsw i64 %920, 2
  %937 = getelementptr inbounds double, ptr %859, i64 %936
  %938 = load double, ptr %937, align 8, !tbaa !18
  %939 = trunc i64 %936 to i32
  %940 = mul i32 %863, %939
  %941 = add i32 %940, %864
  %942 = zext i32 %941 to i64
  %943 = getelementptr inbounds double, ptr %861, i64 %942
  store double %938, ptr %943, align 8, !tbaa !18
  %944 = add nuw nsw i64 %920, 3
  %945 = getelementptr inbounds double, ptr %859, i64 %944
  %946 = load double, ptr %945, align 8, !tbaa !18
  %947 = trunc i64 %944 to i32
  %948 = mul i32 %863, %947
  %949 = add i32 %948, %864
  %950 = zext i32 %949 to i64
  %951 = getelementptr inbounds double, ptr %861, i64 %950
  store double %946, ptr %951, align 8, !tbaa !18
  %952 = add nuw nsw i64 %920, 4
  %953 = icmp eq i64 %952, %45
  br i1 %953, label %914, label %919, !llvm.loop !159

954:                                              ; preds = %532, %443, %439
  store ptr getelementptr inbounds ({ [4 x ptr] }, ptr @_ZTVN6dealii8FEValuesILi3ELi3EEE, i64 0, inrange i32 0, i64 2), ptr %18, align 8, !tbaa !25
  invoke void @_ZN6dealii10QuadratureILi3EED1Ev(ptr noundef nonnull align 8 dereferenceable(128) %57)
          to label %955 unwind label %956

955:                                              ; preds = %954
  invoke void @_ZN6dealii12FEValuesBaseILi3ELi3EED2Ev(ptr noundef nonnull align 8 dereferenceable(648) %18)
          to label %961 unwind label %852

956:                                              ; preds = %954
  %957 = landingpad { ptr, i32 }
          cleanup
  invoke void @_ZN6dealii12FEValuesBaseILi3ELi3EED2Ev(ptr noundef nonnull align 8 dereferenceable(648) %18)
          to label %1065 unwind label %958

958:                                              ; preds = %956
  %959 = landingpad { ptr, i32 }
          catch ptr null
  %960 = extractvalue { ptr, i32 } %959, 0
  call void @__clang_call_terminate(ptr %960) #24
  unreachable

961:                                              ; preds = %955
  call void @llvm.lifetime.end.p0(i64 776, ptr nonnull %18) #25
  invoke void @_ZN6dealii10QuadratureILi3EED1Ev(ptr noundef nonnull align 8 dereferenceable(128) %17)
          to label %962 unwind label %850

962:                                              ; preds = %961
  call void @llvm.lifetime.end.p0(i64 128, ptr nonnull %17) #25
  %963 = load ptr, ptr %58, align 8, !tbaa !134
  %964 = getelementptr inbounds %"class.dealii::Triangulation", ptr %963, i64 0, i32 1
  %965 = load ptr, ptr %964, align 8, !tbaa !137
  %966 = ptrtoint ptr %965 to i64
  %967 = getelementptr inbounds %"class.dealii::Triangulation", ptr %963, i64 0, i32 1, i32 0, i32 0, i32 0, i32 1
  %968 = load i32, ptr %15, align 8, !tbaa !136
  %969 = load i32, ptr %49, align 4
  br label %970

970:                                              ; preds = %1039, %962
  %971 = phi i32 [ %968, %962 ], [ %1019, %1039 ]
  %972 = phi i32 [ %968, %962 ], [ %1040, %1039 ]
  %973 = phi i32 [ %969, %962 ], [ %1020, %1039 ]
  %974 = add nsw i32 %973, 1
  %975 = sext i32 %972 to i64
  %976 = getelementptr inbounds ptr, ptr %965, i64 %975
  %977 = load ptr, ptr %976, align 8, !tbaa !27
  %978 = getelementptr inbounds %"class.dealii::internal::Triangulation::TriaLevel", ptr %977, i64 0, i32 4
  %979 = getelementptr inbounds %"class.dealii::internal::Triangulation::TriaLevel", ptr %977, i64 0, i32 4, i32 0, i32 0, i32 0, i32 0, i32 0, i32 1
  %980 = load ptr, ptr %979, align 8, !tbaa !160
  %981 = load ptr, ptr %978, align 8, !tbaa !162
  %982 = ptrtoint ptr %980 to i64
  %983 = ptrtoint ptr %981 to i64
  %984 = sub i64 %982, %983
  %985 = sdiv exact i64 %984, 24
  %986 = trunc i64 %985 to i32
  %987 = icmp slt i32 %974, %986
  br i1 %987, label %1018, label %988

988:                                              ; preds = %970
  %989 = add nsw i64 %975, 1
  %990 = trunc i64 %989 to i32
  store i32 %990, ptr %15, align 8, !tbaa !136
  %991 = load ptr, ptr %967, align 8, !tbaa !163
  %992 = ptrtoint ptr %991 to i64
  %993 = sub i64 %992, %966
  %994 = shl i64 %993, 29
  %995 = ashr i64 %994, 32
  %996 = icmp slt i64 %989, %995
  br i1 %996, label %997, label %1015

997:                                              ; preds = %988, %1011
  %998 = phi i64 [ %1012, %1011 ], [ %989, %988 ]
  %999 = getelementptr inbounds ptr, ptr %965, i64 %998
  %1000 = load ptr, ptr %999, align 8, !tbaa !27
  %1001 = getelementptr inbounds %"class.dealii::internal::Triangulation::TriaLevel", ptr %1000, i64 0, i32 4
  %1002 = getelementptr inbounds %"class.dealii::internal::Triangulation::TriaLevel", ptr %1000, i64 0, i32 4, i32 0, i32 0, i32 0, i32 0, i32 0, i32 1
  %1003 = load ptr, ptr %1002, align 8, !tbaa !160
  %1004 = load ptr, ptr %1001, align 8, !tbaa !162
  %1005 = ptrtoint ptr %1003 to i64
  %1006 = ptrtoint ptr %1004 to i64
  %1007 = sub i64 %1005, %1006
  %1008 = sdiv exact i64 %1007, 24
  %1009 = trunc i64 %1008 to i32
  %1010 = icmp sgt i32 %1009, 0
  br i1 %1010, label %1016, label %1011

1011:                                             ; preds = %997
  %1012 = add i64 %998, 1
  %1013 = trunc i64 %1012 to i32
  store i32 %1013, ptr %15, align 8, !tbaa !136
  %1014 = icmp eq i64 %1012, %995
  br i1 %1014, label %1015, label %997, !llvm.loop !164

1015:                                             ; preds = %1011, %988
  store i32 -1, ptr %15, align 8, !tbaa !136
  br label %1018

1016:                                             ; preds = %997
  %1017 = trunc i64 %998 to i32
  br label %1018

1018:                                             ; preds = %1016, %1015, %970
  %1019 = phi i32 [ %971, %970 ], [ -1, %1015 ], [ %1017, %1016 ]
  %1020 = phi i32 [ %974, %970 ], [ -1, %1015 ], [ 0, %1016 ]
  %1021 = phi i32 [ %972, %970 ], [ -1, %1015 ], [ %1017, %1016 ]
  %1022 = or i32 %1021, %1020
  %1023 = icmp sgt i32 %1022, -1
  br i1 %1023, label %1024, label %1041

1024:                                             ; preds = %1018
  %1025 = zext i32 %1021 to i64
  %1026 = getelementptr inbounds ptr, ptr %965, i64 %1025
  %1027 = load ptr, ptr %1026, align 8, !tbaa !27
  %1028 = getelementptr inbounds %"class.dealii::internal::Triangulation::TriaLevel", ptr %1027, i64 0, i32 4, i32 0, i32 3
  %1029 = load ptr, ptr %1028, align 8, !tbaa !144
  %1030 = lshr i32 %1020, 6
  %1031 = zext i32 %1030 to i64
  %1032 = getelementptr inbounds i64, ptr %1029, i64 %1031
  %1033 = and i32 %1020, 63
  %1034 = zext i32 %1033 to i64
  %1035 = shl nuw i64 1, %1034
  %1036 = load i64, ptr %1032, align 8, !tbaa !145
  %1037 = and i64 %1036, %1035
  %1038 = icmp eq i64 %1037, 0
  br i1 %1038, label %1039, label %1041

1039:                                             ; preds = %1024, %1044
  %1040 = phi i32 [ %1021, %1024 ], [ %1019, %1044 ]
  br label %970

1041:                                             ; preds = %1024, %1018
  store i32 %1020, ptr %49, align 4, !tbaa !139
  %1042 = or i32 %1020, %1019
  %1043 = icmp sgt i32 %1042, -1
  br i1 %1043, label %1044, label %1055

1044:                                             ; preds = %1041
  %1045 = zext i32 %1019 to i64
  %1046 = getelementptr inbounds ptr, ptr %965, i64 %1045
  %1047 = load ptr, ptr %1046, align 8, !tbaa !27
  %1048 = getelementptr inbounds %"class.dealii::internal::Triangulation::TriaLevel", ptr %1047, i64 0, i32 4, i32 0, i32 1
  %1049 = shl i32 %1020, 2
  %1050 = zext i32 %1049 to i64
  %1051 = load ptr, ptr %1048, align 8, !tbaa !166
  %1052 = getelementptr inbounds i32, ptr %1051, i64 %1050
  %1053 = load i32, ptr %1052, align 4, !tbaa !45
  %1054 = icmp eq i32 %1053, -1
  br i1 %1054, label %1055, label %1039

1055:                                             ; preds = %1044, %1041
  %1056 = add i32 %399, 1
  br label %398

1057:                                             ; preds = %917, %854
  %1058 = phi { ptr, i32 } [ %855, %854 ], [ %918, %917 ]
  store ptr getelementptr inbounds ({ [4 x ptr] }, ptr @_ZTVN6dealii8FEValuesILi3ELi3EEE, i64 0, inrange i32 0, i64 2), ptr %18, align 8, !tbaa !25
  invoke void @_ZN6dealii10QuadratureILi3EED1Ev(ptr noundef nonnull align 8 dereferenceable(128) %57)
          to label %1059 unwind label %1060

1059:                                             ; preds = %1057
  invoke void @_ZN6dealii12FEValuesBaseILi3ELi3EED2Ev(ptr noundef nonnull align 8 dereferenceable(648) %18)
          to label %1065 unwind label %1149

1060:                                             ; preds = %1057
  %1061 = landingpad { ptr, i32 }
          catch ptr null
  invoke void @_ZN6dealii12FEValuesBaseILi3ELi3EED2Ev(ptr noundef nonnull align 8 dereferenceable(648) %18)
          to label %1151 unwind label %1062

1062:                                             ; preds = %1060
  %1063 = landingpad { ptr, i32 }
          catch ptr null
  %1064 = extractvalue { ptr, i32 } %1063, 0
  call void @__clang_call_terminate(ptr %1064) #24
  unreachable

1065:                                             ; preds = %1059, %956, %852
  %1066 = phi { ptr, i32 } [ %853, %852 ], [ %957, %956 ], [ %1058, %1059 ]
  call void @llvm.lifetime.end.p0(i64 776, ptr nonnull %18) #25
  invoke void @_ZN6dealii10QuadratureILi3EED1Ev(ptr noundef nonnull align 8 dereferenceable(128) %17)
          to label %1067 unwind label %1149

1067:                                             ; preds = %1065, %850
  %1068 = phi { ptr, i32 } [ %1066, %1065 ], [ %851, %850 ]
  call void @llvm.lifetime.end.p0(i64 128, ptr nonnull %17) #25
  br label %1069

1069:                                             ; preds = %419, %421, %1067, %423
  %1070 = phi { ptr, i32 } [ %1068, %1067 ], [ %424, %423 ], [ %420, %419 ], [ %422, %421 ]
  call void @llvm.lifetime.end.p0(i64 16, ptr nonnull %15) #25
  store ptr getelementptr inbounds ({ [6 x ptr] }, ptr @_ZTVN6dealii6VectorIdEE, i64 0, inrange i32 0, i64 2), ptr %14, align 8, !tbaa !25
  %1071 = load ptr, ptr %47, align 8, !tbaa !126
  %1072 = icmp eq ptr %1071, null
  br i1 %1072, label %1074, label %1073

1073:                                             ; preds = %1069
  call void @_ZdaPv(ptr noundef nonnull %1071) #28
  store ptr null, ptr %47, align 8, !tbaa !126
  br label %1074

1074:                                             ; preds = %1073, %1069
  invoke void @_ZN6dealii11SubscriptorD2Ev(ptr noundef nonnull align 8 dereferenceable(72) %14)
          to label %1107 unwind label %1149

1075:                                             ; preds = %412
  call void @llvm.lifetime.end.p0(i64 88, ptr nonnull %14) #25
  store ptr getelementptr inbounds ({ [6 x ptr] }, ptr @_ZTVN6dealii6VectorIdEE, i64 0, inrange i32 0, i64 2), ptr %13, align 8, !tbaa !25
  %1076 = load ptr, ptr %42, align 8, !tbaa !126
  %1077 = icmp eq ptr %1076, null
  br i1 %1077, label %1079, label %1078

1078:                                             ; preds = %1075
  call void @_ZdaPv(ptr noundef nonnull %1076) #28
  store ptr null, ptr %42, align 8, !tbaa !126
  br label %1079

1079:                                             ; preds = %1078, %1075
  invoke void @_ZN6dealii11SubscriptorD2Ev(ptr noundef nonnull align 8 dereferenceable(72) %13)
          to label %1080 unwind label %415

1080:                                             ; preds = %1079
  call void @llvm.lifetime.end.p0(i64 88, ptr nonnull %13) #25
  store ptr getelementptr inbounds ({ [4 x ptr] }, ptr @_ZTVN6dealii11HouseholderIdEE, i64 0, inrange i32 0, i64 2), ptr %12, align 8, !tbaa !25
  %1081 = load ptr, ptr %40, align 8, !tbaa !15
  %1082 = icmp eq ptr %1081, null
  br i1 %1082, label %1084, label %1083

1083:                                             ; preds = %1080
  call void @_ZdlPv(ptr noundef nonnull %1081) #28
  br label %1084

1084:                                             ; preds = %1083, %1080
  store ptr getelementptr inbounds ({ [4 x ptr] }, ptr @_ZTVN6dealii9TableBaseILi2EdEE, i64 0, inrange i32 0, i64 2), ptr %12, align 8, !tbaa !25
  %1085 = load ptr, ptr %59, align 8, !tbaa !31
  %1086 = icmp eq ptr %1085, null
  br i1 %1086, label %1088, label %1087

1087:                                             ; preds = %1084
  call void @_ZdaPv(ptr noundef nonnull %1085) #28
  br label %1088

1088:                                             ; preds = %1087, %1084
  invoke void @_ZN6dealii11SubscriptorD2Ev(ptr noundef nonnull align 8 dereferenceable(72) %12)
          to label %1089 unwind label %413

1089:                                             ; preds = %1088
  call void @llvm.lifetime.end.p0(i64 120, ptr nonnull %12) #25
  store ptr getelementptr inbounds ({ [4 x ptr] }, ptr @_ZTVN6dealii9TableBaseILi2EdEE, i64 0, inrange i32 0, i64 2), ptr %11, align 8, !tbaa !25
  %1090 = load ptr, ptr %38, align 8, !tbaa !31
  %1091 = icmp eq ptr %1090, null
  br i1 %1091, label %1093, label %1092

1092:                                             ; preds = %1089
  call void @_ZdaPv(ptr noundef nonnull %1090) #28
  br label %1093

1093:                                             ; preds = %1092, %1089
  invoke void @_ZN6dealii11SubscriptorD2Ev(ptr noundef nonnull align 8 dereferenceable(72) %11)
          to label %1094 unwind label %350

1094:                                             ; preds = %1093
  call void @llvm.lifetime.end.p0(i64 96, ptr nonnull %11) #25
  store ptr getelementptr inbounds ({ [4 x ptr] }, ptr @_ZTVN6dealii8FEValuesILi3ELi3EEE, i64 0, inrange i32 0, i64 2), ptr %9, align 8, !tbaa !25
  invoke void @_ZN6dealii10QuadratureILi3EED1Ev(ptr noundef nonnull align 8 dereferenceable(128) %60)
          to label %1095 unwind label %1096

1095:                                             ; preds = %1094
  invoke void @_ZN6dealii12FEValuesBaseILi3ELi3EED2Ev(ptr noundef nonnull align 8 dereferenceable(648) %9)
          to label %1101 unwind label %346

1096:                                             ; preds = %1094
  %1097 = landingpad { ptr, i32 }
          cleanup
  invoke void @_ZN6dealii12FEValuesBaseILi3ELi3EED2Ev(ptr noundef nonnull align 8 dereferenceable(648) %9)
          to label %1139 unwind label %1098

1098:                                             ; preds = %1096
  %1099 = landingpad { ptr, i32 }
          catch ptr null
  %1100 = extractvalue { ptr, i32 } %1099, 0
  call void @__clang_call_terminate(ptr %1100) #24
  unreachable

1101:                                             ; preds = %1095
  call void @llvm.lifetime.end.p0(i64 776, ptr nonnull %9) #25
  invoke void @_ZN6dealii10QuadratureILi3EED2Ev(ptr noundef nonnull align 8 dereferenceable(128) %8)
          to label %1102 unwind label %344

1102:                                             ; preds = %1101
  call void @llvm.lifetime.end.p0(i64 128, ptr nonnull %8) #25
  invoke void @_ZN6dealii7MappingILi3ELi3EED2Ev(ptr noundef nonnull align 8 dereferenceable(72) %7)
          to label %1103 unwind label %342

1103:                                             ; preds = %1102
  call void @llvm.lifetime.end.p0(i64 72, ptr nonnull %7) #25
  call void @_ZN6dealii13TriangulationILi3ELi3EED1Ev(ptr noundef nonnull align 8 dereferenceable(8552) %5)
  call void @llvm.lifetime.end.p0(i64 8552, ptr nonnull %5) #25
  %1104 = add nuw nsw i64 %77, 1
  %1105 = add nuw nsw i32 %78, 1
  %1106 = icmp eq i64 %1104, 8
  br i1 %1106, label %1148, label %76

1107:                                             ; preds = %1074, %417, %370
  %1108 = phi { ptr, i32 } [ %418, %417 ], [ %371, %370 ], [ %1070, %1074 ]
  call void @llvm.lifetime.end.p0(i64 88, ptr nonnull %14) #25
  store ptr getelementptr inbounds ({ [6 x ptr] }, ptr @_ZTVN6dealii6VectorIdEE, i64 0, inrange i32 0, i64 2), ptr %13, align 8, !tbaa !25
  %1109 = load ptr, ptr %42, align 8, !tbaa !126
  %1110 = icmp eq ptr %1109, null
  br i1 %1110, label %1112, label %1111

1111:                                             ; preds = %1107
  call void @_ZdaPv(ptr noundef nonnull %1109) #28
  store ptr null, ptr %42, align 8, !tbaa !126
  br label %1112

1112:                                             ; preds = %1111, %1107
  invoke void @_ZN6dealii11SubscriptorD2Ev(ptr noundef nonnull align 8 dereferenceable(72) %13)
          to label %1113 unwind label %1149

1113:                                             ; preds = %1112, %415, %360
  %1114 = phi { ptr, i32 } [ %416, %415 ], [ %361, %360 ], [ %1108, %1112 ]
  call void @llvm.lifetime.end.p0(i64 88, ptr nonnull %13) #25
  store ptr getelementptr inbounds ({ [4 x ptr] }, ptr @_ZTVN6dealii11HouseholderIdEE, i64 0, inrange i32 0, i64 2), ptr %12, align 8, !tbaa !25
  %1115 = load ptr, ptr %40, align 8, !tbaa !15
  %1116 = icmp eq ptr %1115, null
  br i1 %1116, label %1118, label %1117

1117:                                             ; preds = %1113
  call void @_ZdlPv(ptr noundef nonnull %1115) #28
  br label %1118

1118:                                             ; preds = %1117, %1113
  store ptr getelementptr inbounds ({ [4 x ptr] }, ptr @_ZTVN6dealii9TableBaseILi2EdEE, i64 0, inrange i32 0, i64 2), ptr %12, align 8, !tbaa !25
  %1119 = load ptr, ptr %59, align 8, !tbaa !31
  %1120 = icmp eq ptr %1119, null
  br i1 %1120, label %1122, label %1121

1121:                                             ; preds = %1118
  call void @_ZdaPv(ptr noundef nonnull %1119) #28
  br label %1122

1122:                                             ; preds = %1121, %1118
  invoke void @_ZN6dealii11SubscriptorD2Ev(ptr noundef nonnull align 8 dereferenceable(72) %12)
          to label %1123 unwind label %1149

1123:                                             ; preds = %1122, %413, %334
  %1124 = phi { ptr, i32 } [ %414, %413 ], [ %330, %334 ], [ %1114, %1122 ]
  call void @llvm.lifetime.end.p0(i64 120, ptr nonnull %12) #25
  store ptr getelementptr inbounds ({ [4 x ptr] }, ptr @_ZTVN6dealii9TableBaseILi2EdEE, i64 0, inrange i32 0, i64 2), ptr %11, align 8, !tbaa !25
  %1125 = load ptr, ptr %38, align 8, !tbaa !31
  %1126 = icmp eq ptr %1125, null
  br i1 %1126, label %1128, label %1127

1127:                                             ; preds = %1123
  call void @_ZdaPv(ptr noundef nonnull %1125) #28
  br label %1128

1128:                                             ; preds = %1127, %1123
  invoke void @_ZN6dealii11SubscriptorD2Ev(ptr noundef nonnull align 8 dereferenceable(72) %11)
          to label %1129 unwind label %1149

1129:                                             ; preds = %1128, %350
  %1130 = phi { ptr, i32 } [ %351, %350 ], [ %1124, %1128 ]
  call void @llvm.lifetime.end.p0(i64 96, ptr nonnull %11) #25
  br label %1131

1131:                                             ; preds = %1129, %348
  %1132 = phi { ptr, i32 } [ %1130, %1129 ], [ %349, %348 ]
  store ptr getelementptr inbounds ({ [4 x ptr] }, ptr @_ZTVN6dealii8FEValuesILi3ELi3EEE, i64 0, inrange i32 0, i64 2), ptr %9, align 8, !tbaa !25
  invoke void @_ZN6dealii10QuadratureILi3EED1Ev(ptr noundef nonnull align 8 dereferenceable(128) %60)
          to label %1133 unwind label %1134

1133:                                             ; preds = %1131
  invoke void @_ZN6dealii12FEValuesBaseILi3ELi3EED2Ev(ptr noundef nonnull align 8 dereferenceable(648) %9)
          to label %1139 unwind label %1149

1134:                                             ; preds = %1131
  %1135 = landingpad { ptr, i32 }
          catch ptr null
  invoke void @_ZN6dealii12FEValuesBaseILi3ELi3EED2Ev(ptr noundef nonnull align 8 dereferenceable(648) %9)
          to label %1151 unwind label %1136

1136:                                             ; preds = %1134
  %1137 = landingpad { ptr, i32 }
          catch ptr null
  %1138 = extractvalue { ptr, i32 } %1137, 0
  call void @__clang_call_terminate(ptr %1138) #24
  unreachable

1139:                                             ; preds = %1133, %1096, %346
  %1140 = phi { ptr, i32 } [ %347, %346 ], [ %1097, %1096 ], [ %1132, %1133 ]
  call void @llvm.lifetime.end.p0(i64 776, ptr nonnull %9) #25
  invoke void @_ZN6dealii10QuadratureILi3EED2Ev(ptr noundef nonnull align 8 dereferenceable(128) %8)
          to label %1141 unwind label %1149

1141:                                             ; preds = %1139, %344
  %1142 = phi { ptr, i32 } [ %1140, %1139 ], [ %345, %344 ]
  call void @llvm.lifetime.end.p0(i64 128, ptr nonnull %8) #25
  invoke void @_ZN6dealii7MappingILi3ELi3EED2Ev(ptr noundef nonnull align 8 dereferenceable(72) %7)
          to label %1143 unwind label %1149

1143:                                             ; preds = %1141, %342
  %1144 = phi { ptr, i32 } [ %1142, %1141 ], [ %343, %342 ]
  call void @llvm.lifetime.end.p0(i64 72, ptr nonnull %7) #25
  br label %1145

1145:                                             ; preds = %1143, %340, %338
  %1146 = phi { ptr, i32 } [ %1144, %1143 ], [ %339, %338 ], [ %341, %340 ]
  invoke void @_ZN6dealii13TriangulationILi3ELi3EED1Ev(ptr noundef nonnull align 8 dereferenceable(8552) %5)
          to label %1147 unwind label %1149

1147:                                             ; preds = %1145
  call void @llvm.lifetime.end.p0(i64 8552, ptr nonnull %5) #25
  resume { ptr, i32 } %1146

1148:                                             ; preds = %1103
  ret void

1149:                                             ; preds = %1133, %1128, %1122, %1112, %1074, %1059, %1145, %1141, %1139, %1065
  %1150 = landingpad { ptr, i32 }
          catch ptr null
  br label %1151

1151:                                             ; preds = %1149, %1134, %1060
  %1152 = phi { ptr, i32 } [ %1061, %1060 ], [ %1150, %1149 ], [ %1135, %1134 ]
  %1153 = extractvalue { ptr, i32 } %1152, 0
  call void @__clang_call_terminate(ptr %1153) #24
  unreachable
}

declare noundef i32 @_ZN6dealii12GeometryInfoILi3EE10n_childrenERKNS_14RefinementCaseILi3EEE(ptr noundef nonnull align 1 dereferenceable(1)) local_unnamed_addr #4

declare void @_ZN6dealii13TriangulationILi3ELi3EE33execute_coarsening_and_refinementEv(ptr noundef nonnull align 8 dereferenceable(8552)) unnamed_addr #4

declare void @_ZN6dealii8FEValuesILi3ELi3EEC1ERKNS_7MappingILi3ELi3EEERKNS_13FiniteElementILi3ELi3EEERKNS_10QuadratureILi3EEENS_11UpdateFlagsE(ptr noundef nonnull align 8 dereferenceable(776), ptr noundef nonnull align 8 dereferenceable(72), ptr noundef nonnull align 8 dereferenceable(728), ptr noundef nonnull align 8 dereferenceable(128), i32 noundef) unnamed_addr #4

declare void @_ZNK6dealii13TriangulationILi3ELi3EE3endEv(ptr sret(%"class.dealii::TriaRawIterator") align 8, ptr noundef nonnull align 8 dereferenceable(8552)) local_unnamed_addr #4

declare void @_ZN6dealii10QuadratureILi3EEC1ERKSt6vectorINS_5PointILi3EEESaIS4_EERKS2_IdSaIdEE(ptr noundef nonnull align 8 dereferenceable(128), ptr noundef nonnull align 8 dereferenceable(24), ptr noundef nonnull align 8 dereferenceable(24)) unnamed_addr #4

declare void @_ZNK6dealii13TriangulationILi3ELi3EE5beginEj(ptr sret(%"class.dealii::TriaIterator") align 8, ptr noundef nonnull align 8 dereferenceable(8552), i32 noundef) local_unnamed_addr #4

; Function Attrs: sspstrong uwtable
define linkonce_odr dso_local noundef double @_ZNK6dealii11HouseholderIdE13least_squaresIdEEdRNS_6VectorIT_EERKS5_(ptr noundef nonnull align 8 dereferenceable(120) %0, ptr noundef nonnull align 8 dereferenceable(88) %1, ptr noundef nonnull align 8 dereferenceable(88) %2) local_unnamed_addr #2 comdat align 2 personality ptr @__gxx_personality_v0 {
  %4 = alloca %"class.dealii::GrowingVectorMemory", align 8
  call void @llvm.lifetime.start.p0(i64 88, ptr nonnull %4) #25
  call void @_ZN6dealii11SubscriptorC2Ev(ptr noundef nonnull align 8 dereferenceable(72) %4)
  store ptr getelementptr inbounds ({ [6 x ptr] }, ptr @_ZTVN6dealii19GrowingVectorMemoryINS_6VectorIdEEEE, i64 0, inrange i32 0, i64 2), ptr %4, align 8, !tbaa !25
  %5 = getelementptr inbounds %"class.dealii::GrowingVectorMemory", ptr %4, i64 0, i32 1
  %6 = getelementptr inbounds %"class.dealii::GrowingVectorMemory", ptr %4, i64 0, i32 2
  call void @llvm.memset.p0.i64(ptr noundef nonnull align 8 dereferenceable(9) %5, i8 0, i64 9, i1 false)
  %7 = load ptr, ptr @_ZN6dealii19GrowingVectorMemoryINS_6VectorIdEEE4poolE, align 8, !tbaa !167
  %8 = icmp eq ptr %7, null
  br i1 %8, label %9, label %19

9:                                                ; preds = %3
  %10 = invoke noalias noundef nonnull dereferenceable(24) ptr @_Znwm(i64 noundef 24) #27
          to label %11 unwind label %12

11:                                               ; preds = %9
  call void @llvm.memset.p0.i64(ptr noundef nonnull align 8 dereferenceable(24) %10, i8 0, i64 24, i1 false)
  store ptr %10, ptr @_ZN6dealii19GrowingVectorMemoryINS_6VectorIdEEE4poolE, align 8, !tbaa !167
  br label %19

12:                                               ; preds = %9
  %13 = landingpad { ptr, i32 }
          cleanup
  invoke void @_ZN6dealii11SubscriptorD2Ev(ptr noundef nonnull align 8 dereferenceable(72) %4)
          to label %14 unwind label %16

14:                                               ; preds = %12, %310
  %15 = phi { ptr, i32 } [ %309, %310 ], [ %13, %12 ]
  resume { ptr, i32 } %15

16:                                               ; preds = %12
  %17 = landingpad { ptr, i32 }
          catch ptr null
  %18 = extractvalue { ptr, i32 } %17, 0
  call void @__clang_call_terminate(ptr %18) #24
  unreachable

19:                                               ; preds = %3, %11
  %20 = invoke noundef ptr @_ZN6dealii19GrowingVectorMemoryINS_6VectorIdEEE5allocEv(ptr noundef nonnull align 8 dereferenceable(81) %4)
          to label %21 unwind label %77

21:                                               ; preds = %19
  invoke void @_ZN6dealii6VectorIdE6reinitIdEEvRKNS0_IT_EEb(ptr noundef nonnull align 8 dereferenceable(88) %20, ptr noundef nonnull align 8 dereferenceable(88) %2, i1 noundef zeroext true)
          to label %22 unwind label %77

22:                                               ; preds = %21
  %23 = invoke noundef nonnull align 8 dereferenceable(88) ptr @_ZN6dealii6VectorIdEaSERKS1_(ptr noundef nonnull align 8 dereferenceable(88) %20, ptr noundef nonnull align 8 dereferenceable(88) %2)
          to label %24 unwind label %77

24:                                               ; preds = %22
  %25 = getelementptr inbounds %"class.dealii::TableBase", ptr %0, i64 0, i32 3, i32 0, i32 0, i64 1
  %26 = load i32, ptr %25, align 8, !tbaa !45
  %27 = icmp eq i32 %26, 0
  br i1 %27, label %28, label %31

28:                                               ; preds = %24
  %29 = getelementptr inbounds %"class.dealii::TableBase", ptr %0, i64 0, i32 3
  %30 = load i32, ptr %29, align 4, !tbaa !45
  br label %49

31:                                               ; preds = %24
  %32 = getelementptr inbounds %"class.dealii::Householder", ptr %0, i64 0, i32 1
  %33 = load ptr, ptr %32, align 8, !tbaa !15
  %34 = getelementptr inbounds %"class.dealii::Vector", ptr %20, i64 0, i32 3
  %35 = load ptr, ptr %34, align 8, !tbaa !126
  %36 = getelementptr inbounds %"class.dealii::TableBase", ptr %0, i64 0, i32 3
  %37 = load i32, ptr %36, align 4, !tbaa !45
  %38 = getelementptr inbounds %"class.dealii::TableBase", ptr %0, i64 0, i32 1
  %39 = load ptr, ptr %38, align 8
  %40 = zext i32 %37 to i64
  %41 = zext i32 %26 to i64
  %42 = add i32 %37, -2
  %43 = getelementptr i8, ptr %39, i64 8
  %44 = getelementptr i8, ptr %39, i64 16
  %45 = icmp ne i32 %26, 1
  br label %79

46:                                               ; preds = %213, %241, %193, %112, %138
  %47 = add nuw nsw i64 %81, 1
  %48 = icmp eq i64 %110, %41
  br i1 %48, label %49, label %79

49:                                               ; preds = %46, %28
  %50 = phi i32 [ %30, %28 ], [ %37, %46 ]
  %51 = icmp ult i32 %26, %50
  br i1 %51, label %52, label %265

52:                                               ; preds = %49
  %53 = getelementptr inbounds %"class.dealii::Vector", ptr %20, i64 0, i32 3
  %54 = load ptr, ptr %53, align 8, !tbaa !126
  %55 = zext i32 %26 to i64
  %56 = zext i32 %50 to i64
  %57 = sub nsw i64 %56, %55
  %58 = xor i64 %55, -1
  %59 = add nsw i64 %58, %56
  %60 = and i64 %57, 3
  %61 = icmp eq i64 %60, 0
  br i1 %61, label %72, label %62

62:                                               ; preds = %52, %62
  %63 = phi i64 [ %69, %62 ], [ %55, %52 ]
  %64 = phi double [ %68, %62 ], [ 0.000000e+00, %52 ]
  %65 = phi i64 [ %70, %62 ], [ 0, %52 ]
  %66 = getelementptr inbounds double, ptr %54, i64 %63
  %67 = load double, ptr %66, align 8, !tbaa !18
  %68 = call double @llvm.fmuladd.f64(double %67, double %67, double %64)
  %69 = add nuw nsw i64 %63, 1
  %70 = add i64 %65, 1
  %71 = icmp eq i64 %70, %60
  br i1 %71, label %72, label %62, !llvm.loop !169

72:                                               ; preds = %62, %52
  %73 = phi double [ undef, %52 ], [ %68, %62 ]
  %74 = phi i64 [ %55, %52 ], [ %69, %62 ]
  %75 = phi double [ 0.000000e+00, %52 ], [ %68, %62 ]
  %76 = icmp ult i64 %59, 3
  br i1 %76, label %265, label %267

77:                                               ; preds = %22, %21, %19
  %78 = landingpad { ptr, i32 }
          cleanup
  br label %308

79:                                               ; preds = %31, %46
  %80 = phi i64 [ 0, %31 ], [ %110, %46 ]
  %81 = phi i64 [ 1, %31 ], [ %47, %46 ]
  %82 = trunc i64 %80 to i32
  %83 = trunc i64 %80 to i32
  %84 = sub i32 %42, %83
  %85 = zext i32 %84 to i64
  %86 = add nuw nsw i64 %85, 1
  %87 = shl nuw nsw i64 %80, 3
  %88 = add nuw i64 %87, 8
  %89 = getelementptr i8, ptr %35, i64 %88
  %90 = add nuw i64 %87, 16
  %91 = getelementptr i8, ptr %35, i64 %90
  %92 = trunc i64 %80 to i32
  %93 = sub i32 %42, %92
  %94 = zext i32 %93 to i64
  %95 = shl nuw nsw i64 %94, 3
  %96 = getelementptr i8, ptr %91, i64 %95
  %97 = shl i64 %80, 4
  %98 = and i64 %97, 34359738352
  %99 = getelementptr i8, ptr %43, i64 %98
  %100 = add nuw nsw i64 %95, %98
  %101 = getelementptr i8, ptr %44, i64 %100
  %102 = trunc i64 %80 to i32
  %103 = sub i32 %42, %102
  %104 = trunc i64 %80 to i32
  %105 = getelementptr inbounds double, ptr %33, i64 %80
  %106 = load double, ptr %105, align 8, !tbaa !18
  %107 = getelementptr inbounds double, ptr %35, i64 %80
  %108 = load double, ptr %107, align 8, !tbaa !18
  %109 = fmul double %106, %108
  %110 = add nuw nsw i64 %80, 1
  %111 = icmp ult i64 %110, %40
  br i1 %111, label %115, label %112

112:                                              ; preds = %79
  %113 = fneg double %109
  %114 = call double @llvm.fmuladd.f64(double %113, double %106, double %108)
  store double %114, ptr %107, align 8, !tbaa !18
  br label %46

115:                                              ; preds = %79
  %116 = trunc i64 %80 to i32
  %117 = xor i32 %116, -1
  %118 = add i32 %37, %117
  %119 = trunc i64 %80 to i32
  %120 = and i32 %118, 1
  %121 = icmp eq i32 %120, 0
  br i1 %121, label %133, label %122

122:                                              ; preds = %115
  %123 = trunc i64 %81 to i32
  %124 = mul i32 %26, %123
  %125 = add i32 %124, %119
  %126 = zext i32 %125 to i64
  %127 = getelementptr inbounds double, ptr %39, i64 %126
  %128 = load double, ptr %127, align 8, !tbaa !18
  %129 = getelementptr inbounds double, ptr %35, i64 %81
  %130 = load double, ptr %129, align 8, !tbaa !18
  %131 = call double @llvm.fmuladd.f64(double %128, double %130, double %109)
  %132 = add nuw nsw i64 %81, 1
  br label %133

133:                                              ; preds = %122, %115
  %134 = phi double [ undef, %115 ], [ %131, %122 ]
  %135 = phi i64 [ %81, %115 ], [ %132, %122 ]
  %136 = phi double [ %109, %115 ], [ %131, %122 ]
  %137 = icmp eq i32 %42, %82
  br i1 %137, label %138, label %216

138:                                              ; preds = %216, %133
  %139 = phi double [ %134, %133 ], [ %237, %216 ]
  %140 = fneg double %139
  %141 = call double @llvm.fmuladd.f64(double %140, double %106, double %108)
  store double %141, ptr %107, align 8, !tbaa !18
  br i1 %111, label %142, label %46

142:                                              ; preds = %138
  %143 = trunc i64 %80 to i32
  %144 = icmp ult i32 %84, 15
  br i1 %144, label %195, label %145

145:                                              ; preds = %142
  %146 = xor i32 %104, -1
  %147 = shl i32 %146, 1
  %148 = icmp ult i32 %147, %103
  %149 = or i1 %45, %148
  br i1 %149, label %195, label %150

150:                                              ; preds = %145
  %151 = icmp ult ptr %89, %101
  %152 = icmp ult ptr %99, %96
  %153 = and i1 %151, %152
  br i1 %153, label %195, label %154

154:                                              ; preds = %150
  %155 = and i64 %86, 8589934576
  %156 = add nuw i64 %81, %155
  %157 = insertelement <4 x double> poison, double %140, i64 0
  %158 = shufflevector <4 x double> %157, <4 x double> poison, <4 x i32> zeroinitializer
  %159 = insertelement <4 x double> poison, double %140, i64 0
  %160 = shufflevector <4 x double> %159, <4 x double> poison, <4 x i32> zeroinitializer
  %161 = insertelement <4 x double> poison, double %140, i64 0
  %162 = shufflevector <4 x double> %161, <4 x double> poison, <4 x i32> zeroinitializer
  %163 = insertelement <4 x double> poison, double %140, i64 0
  %164 = shufflevector <4 x double> %163, <4 x double> poison, <4 x i32> zeroinitializer
  br label %165

165:                                              ; preds = %165, %154
  %166 = phi i64 [ 0, %154 ], [ %191, %165 ]
  %167 = add i64 %81, %166
  %168 = add i64 %81, %166
  %169 = add i64 %167, %80
  %170 = and i64 %169, 4294967295
  %171 = getelementptr inbounds double, ptr %39, i64 %170
  %172 = load <4 x double>, ptr %171, align 8, !tbaa !18, !alias.scope !170
  %173 = getelementptr inbounds double, ptr %171, i64 4
  %174 = load <4 x double>, ptr %173, align 8, !tbaa !18, !alias.scope !170
  %175 = getelementptr inbounds double, ptr %171, i64 8
  %176 = load <4 x double>, ptr %175, align 8, !tbaa !18, !alias.scope !170
  %177 = getelementptr inbounds double, ptr %171, i64 12
  %178 = load <4 x double>, ptr %177, align 8, !tbaa !18, !alias.scope !170
  %179 = getelementptr inbounds double, ptr %35, i64 %168
  %180 = load <4 x double>, ptr %179, align 8, !tbaa !18, !alias.scope !173, !noalias !170
  %181 = getelementptr inbounds double, ptr %179, i64 4
  %182 = load <4 x double>, ptr %181, align 8, !tbaa !18, !alias.scope !173, !noalias !170
  %183 = getelementptr inbounds double, ptr %179, i64 8
  %184 = load <4 x double>, ptr %183, align 8, !tbaa !18, !alias.scope !173, !noalias !170
  %185 = getelementptr inbounds double, ptr %179, i64 12
  %186 = load <4 x double>, ptr %185, align 8, !tbaa !18, !alias.scope !173, !noalias !170
  %187 = call <4 x double> @llvm.fmuladd.v4f64(<4 x double> %158, <4 x double> %172, <4 x double> %180)
  %188 = call <4 x double> @llvm.fmuladd.v4f64(<4 x double> %160, <4 x double> %174, <4 x double> %182)
  %189 = call <4 x double> @llvm.fmuladd.v4f64(<4 x double> %162, <4 x double> %176, <4 x double> %184)
  %190 = call <4 x double> @llvm.fmuladd.v4f64(<4 x double> %164, <4 x double> %178, <4 x double> %186)
  store <4 x double> %187, ptr %179, align 8, !tbaa !18, !alias.scope !173, !noalias !170
  store <4 x double> %188, ptr %181, align 8, !tbaa !18, !alias.scope !173, !noalias !170
  store <4 x double> %189, ptr %183, align 8, !tbaa !18, !alias.scope !173, !noalias !170
  store <4 x double> %190, ptr %185, align 8, !tbaa !18, !alias.scope !173, !noalias !170
  %191 = add nuw i64 %166, 16
  %192 = icmp eq i64 %191, %155
  br i1 %192, label %193, label %165, !llvm.loop !175

193:                                              ; preds = %165
  %194 = icmp eq i64 %86, %155
  br i1 %194, label %46, label %195

195:                                              ; preds = %150, %145, %142, %193
  %196 = phi i64 [ %81, %150 ], [ %81, %145 ], [ %81, %142 ], [ %156, %193 ]
  %197 = trunc i64 %196 to i32
  %198 = sub i32 %37, %197
  %199 = add i32 %197, 1
  %200 = and i32 %198, 1
  %201 = icmp eq i32 %200, 0
  br i1 %201, label %213, label %202

202:                                              ; preds = %195
  %203 = trunc i64 %196 to i32
  %204 = mul i32 %26, %203
  %205 = add i32 %204, %143
  %206 = zext i32 %205 to i64
  %207 = getelementptr inbounds double, ptr %39, i64 %206
  %208 = load double, ptr %207, align 8, !tbaa !18
  %209 = getelementptr inbounds double, ptr %35, i64 %196
  %210 = load double, ptr %209, align 8, !tbaa !18
  %211 = call double @llvm.fmuladd.f64(double %140, double %208, double %210)
  store double %211, ptr %209, align 8, !tbaa !18
  %212 = add nuw nsw i64 %196, 1
  br label %213

213:                                              ; preds = %202, %195
  %214 = phi i64 [ %196, %195 ], [ %212, %202 ]
  %215 = icmp eq i32 %37, %199
  br i1 %215, label %46, label %241

216:                                              ; preds = %133, %216
  %217 = phi i64 [ %238, %216 ], [ %135, %133 ]
  %218 = phi double [ %237, %216 ], [ %136, %133 ]
  %219 = trunc i64 %217 to i32
  %220 = mul i32 %26, %219
  %221 = add i32 %220, %119
  %222 = zext i32 %221 to i64
  %223 = getelementptr inbounds double, ptr %39, i64 %222
  %224 = load double, ptr %223, align 8, !tbaa !18
  %225 = getelementptr inbounds double, ptr %35, i64 %217
  %226 = load double, ptr %225, align 8, !tbaa !18
  %227 = call double @llvm.fmuladd.f64(double %224, double %226, double %218)
  %228 = add nuw nsw i64 %217, 1
  %229 = trunc i64 %228 to i32
  %230 = mul i32 %26, %229
  %231 = add i32 %230, %119
  %232 = zext i32 %231 to i64
  %233 = getelementptr inbounds double, ptr %39, i64 %232
  %234 = load double, ptr %233, align 8, !tbaa !18
  %235 = getelementptr inbounds double, ptr %35, i64 %228
  %236 = load double, ptr %235, align 8, !tbaa !18
  %237 = call double @llvm.fmuladd.f64(double %234, double %236, double %227)
  %238 = add nuw nsw i64 %217, 2
  %239 = trunc i64 %238 to i32
  %240 = icmp eq i32 %37, %239
  br i1 %240, label %138, label %216

241:                                              ; preds = %213, %241
  %242 = phi i64 [ %262, %241 ], [ %214, %213 ]
  %243 = trunc i64 %242 to i32
  %244 = mul i32 %26, %243
  %245 = add i32 %244, %143
  %246 = zext i32 %245 to i64
  %247 = getelementptr inbounds double, ptr %39, i64 %246
  %248 = load double, ptr %247, align 8, !tbaa !18
  %249 = getelementptr inbounds double, ptr %35, i64 %242
  %250 = load double, ptr %249, align 8, !tbaa !18
  %251 = call double @llvm.fmuladd.f64(double %140, double %248, double %250)
  store double %251, ptr %249, align 8, !tbaa !18
  %252 = add nuw nsw i64 %242, 1
  %253 = trunc i64 %252 to i32
  %254 = mul i32 %26, %253
  %255 = add i32 %254, %143
  %256 = zext i32 %255 to i64
  %257 = getelementptr inbounds double, ptr %39, i64 %256
  %258 = load double, ptr %257, align 8, !tbaa !18
  %259 = getelementptr inbounds double, ptr %35, i64 %252
  %260 = load double, ptr %259, align 8, !tbaa !18
  %261 = call double @llvm.fmuladd.f64(double %140, double %258, double %260)
  store double %261, ptr %259, align 8, !tbaa !18
  %262 = add nuw nsw i64 %242, 2
  %263 = trunc i64 %262 to i32
  %264 = icmp eq i32 %37, %263
  br i1 %264, label %46, label %241, !llvm.loop !176

265:                                              ; preds = %72, %267, %49
  %266 = phi double [ 0.000000e+00, %49 ], [ %73, %72 ], [ %284, %267 ]
  invoke void @_ZNK6dealii10FullMatrixIdE8backwardIdEEvRNS_6VectorIT_EERKS5_(ptr noundef nonnull align 8 dereferenceable(92) %0, ptr noundef nonnull align 8 dereferenceable(88) %1, ptr noundef nonnull align 8 dereferenceable(88) %20)
          to label %287 unwind label %306

267:                                              ; preds = %72, %267
  %268 = phi i64 [ %285, %267 ], [ %74, %72 ]
  %269 = phi double [ %284, %267 ], [ %75, %72 ]
  %270 = getelementptr inbounds double, ptr %54, i64 %268
  %271 = load double, ptr %270, align 8, !tbaa !18
  %272 = call double @llvm.fmuladd.f64(double %271, double %271, double %269)
  %273 = add nuw nsw i64 %268, 1
  %274 = getelementptr inbounds double, ptr %54, i64 %273
  %275 = load double, ptr %274, align 8, !tbaa !18
  %276 = call double @llvm.fmuladd.f64(double %275, double %275, double %272)
  %277 = add nuw nsw i64 %268, 2
  %278 = getelementptr inbounds double, ptr %54, i64 %277
  %279 = load double, ptr %278, align 8, !tbaa !18
  %280 = call double @llvm.fmuladd.f64(double %279, double %279, double %276)
  %281 = add nuw nsw i64 %268, 3
  %282 = getelementptr inbounds double, ptr %54, i64 %281
  %283 = load double, ptr %282, align 8, !tbaa !18
  %284 = call double @llvm.fmuladd.f64(double %283, double %283, double %280)
  %285 = add nuw nsw i64 %268, 4
  %286 = icmp eq i64 %285, %56
  br i1 %286, label %265, label %267

287:                                              ; preds = %265
  %288 = load ptr, ptr @_ZN6dealii19GrowingVectorMemoryINS_6VectorIdEEE4poolE, align 8, !tbaa !167
  %289 = load ptr, ptr %288, align 8, !tbaa !27
  %290 = getelementptr inbounds %"struct.std::_Vector_base<std::pair<bool, dealii::Vector<double> *>, std::allocator<std::pair<bool, dealii::Vector<double> *> > >::_Vector_impl_data", ptr %288, i64 0, i32 1
  %291 = load ptr, ptr %290, align 8, !tbaa !27
  %292 = icmp eq ptr %289, %291
  br i1 %292, label %304, label %293

293:                                              ; preds = %287, %301
  %294 = phi ptr [ %302, %301 ], [ %289, %287 ]
  %295 = getelementptr inbounds %"struct.std::pair.304", ptr %294, i64 0, i32 1
  %296 = load ptr, ptr %295, align 8, !tbaa !177
  %297 = icmp eq ptr %296, %20
  br i1 %297, label %298, label %301

298:                                              ; preds = %293
  store i8 0, ptr %294, align 8, !tbaa !179
  %299 = load i32, ptr %6, align 4, !tbaa !180
  %300 = add i32 %299, -1
  store i32 %300, ptr %6, align 4, !tbaa !180
  br label %304

301:                                              ; preds = %293
  %302 = getelementptr inbounds %"struct.std::pair.304", ptr %294, i64 1
  %303 = icmp eq ptr %302, %291
  br i1 %303, label %304, label %293

304:                                              ; preds = %301, %298, %287
  %305 = call double @sqrt(double noundef %266) #25
  call void @_ZN6dealii19GrowingVectorMemoryINS_6VectorIdEEED2Ev(ptr noundef nonnull align 8 dereferenceable(81) %4)
  call void @llvm.lifetime.end.p0(i64 88, ptr nonnull %4) #25
  ret double %305

306:                                              ; preds = %265
  %307 = landingpad { ptr, i32 }
          cleanup
  br label %308

308:                                              ; preds = %306, %77
  %309 = phi { ptr, i32 } [ %307, %306 ], [ %78, %77 ]
  invoke void @_ZN6dealii19GrowingVectorMemoryINS_6VectorIdEEED2Ev(ptr noundef nonnull align 8 dereferenceable(81) %4)
          to label %310 unwind label %311

310:                                              ; preds = %308
  call void @llvm.lifetime.end.p0(i64 88, ptr nonnull %4) #25
  br label %14

311:                                              ; preds = %308
  %312 = landingpad { ptr, i32 }
          catch ptr null
  %313 = extractvalue { ptr, i32 } %312, 0
  call void @__clang_call_terminate(ptr %313) #24
  unreachable
}

; Function Attrs: mustprogress nocallback nofree nosync nounwind speculatable willreturn memory(none)
declare double @llvm.fabs.f64(double) #8

declare void @_ZN6dealii10QuadratureILi3EED1Ev(ptr noundef nonnull align 8 dereferenceable(128)) unnamed_addr #4

; Function Attrs: inlinehint sspstrong uwtable
define linkonce_odr dso_local void @_ZN6dealii11HouseholderIdED2Ev(ptr noundef nonnull align 8 dereferenceable(120) %0) unnamed_addr #9 comdat align 2 personality ptr @__gxx_personality_v0 {
  store ptr getelementptr inbounds ({ [4 x ptr] }, ptr @_ZTVN6dealii11HouseholderIdEE, i64 0, inrange i32 0, i64 2), ptr %0, align 8, !tbaa !25
  %2 = getelementptr inbounds %"class.dealii::Householder", ptr %0, i64 0, i32 1
  %3 = load ptr, ptr %2, align 8, !tbaa !15
  %4 = icmp eq ptr %3, null
  br i1 %4, label %6, label %5

5:                                                ; preds = %1
  tail call void @_ZdlPv(ptr noundef nonnull %3) #28
  br label %6

6:                                                ; preds = %5, %1
  store ptr getelementptr inbounds ({ [4 x ptr] }, ptr @_ZTVN6dealii9TableBaseILi2EdEE, i64 0, inrange i32 0, i64 2), ptr %0, align 8, !tbaa !25
  %7 = getelementptr inbounds %"class.dealii::TableBase", ptr %0, i64 0, i32 1
  %8 = load ptr, ptr %7, align 8, !tbaa !31
  %9 = icmp eq ptr %8, null
  br i1 %9, label %11, label %10

10:                                               ; preds = %6
  tail call void @_ZdaPv(ptr noundef nonnull %8) #28
  br label %11

11:                                               ; preds = %6, %10
  tail call void @_ZN6dealii11SubscriptorD2Ev(ptr noundef nonnull align 8 dereferenceable(72) %0)
  ret void
}

declare void @_ZN6dealii7MappingILi3ELi3EED2Ev(ptr noundef nonnull align 8 dereferenceable(72)) unnamed_addr #4

; Function Attrs: sspstrong uwtable
define weak_odr dso_local void @_ZN6dealii7FETools31compute_face_embedding_matricesILi3EdLi3EEEvRKNS_13FiniteElementIXT_EXT1_EEERAsr12GeometryInfoIXT_EEE21max_children_per_face_NS_10FullMatrixIT0_EEjj(ptr noundef nonnull align 8 dereferenceable(728) %0, ptr noundef nonnull align 8 dereferenceable(384) %1, i32 noundef %2, i32 noundef %3) local_unnamed_addr #2 comdat align 2 personality ptr @__gxx_personality_v0 {
  %5 = alloca %"class.dealii::Triangulation", align 8
  %6 = alloca %"class.dealii::MappingCartesian", align 8
  %7 = alloca %"class.dealii::QGauss.139", align 8
  %8 = alloca %"class.dealii::Quadrature", align 8
  %9 = alloca %"class.dealii::FEValues", align 8
  %10 = alloca %"class.dealii::TriaActiveIterator", align 8
  %11 = alloca %"class.dealii::FullMatrix", align 8
  %12 = alloca %"class.dealii::Householder", align 8
  %13 = alloca %"class.dealii::Vector", align 8
  %14 = alloca %"class.dealii::Vector", align 8
  %15 = alloca %"class.dealii::Quadrature", align 8
  %16 = alloca %"class.dealii::RefinementCase.141", align 1
  %17 = alloca %"class.dealii::FEValues", align 8
  %18 = alloca %"class.dealii::TriaActiveIterator", align 8
  %19 = alloca %"class.dealii::TriaIterator", align 8
  %20 = alloca %"class.dealii::RefinementCase", align 1
  %21 = alloca %"class.dealii::TriaIterator", align 8
  %22 = alloca %"class.dealii::RefinementCase.141", align 1
  %23 = alloca %"class.dealii::TriaIterator", align 8
  %24 = getelementptr inbounds i8, ptr %0, i64 108
  %25 = load i32, ptr %24, align 4, !tbaa !183
  %26 = getelementptr inbounds i8, ptr %0, i64 116
  %27 = load i32, ptr %26, align 4, !tbaa !133
  %28 = getelementptr inbounds i8, ptr %0, i64 124
  %29 = load i32, ptr %28, align 4, !tbaa !75
  %30 = getelementptr inbounds i8, ptr %0, i64 72
  call void @llvm.lifetime.start.p0(i64 8552, ptr nonnull %5) #25
  call void @_ZN6dealii13TriangulationILi3ELi3EEC1ENS1_13MeshSmoothingE(ptr noundef nonnull align 8 dereferenceable(8552) %5, i32 noundef 0)
  invoke void @_ZN6dealii13GridGenerator10hyper_cubeILi3ELi3EEEvRNS_13TriangulationIXT_EXT0_EEEdd(ptr noundef nonnull align 8 dereferenceable(8552) %5, double noundef 0.000000e+00, double noundef 1.000000e+00)
          to label %31 unwind label %68

31:                                               ; preds = %4
  invoke void @_ZN6dealii13TriangulationILi3ELi3EE13refine_globalEj(ptr noundef nonnull align 8 dereferenceable(8552) %5, i32 noundef 1)
          to label %32 unwind label %68

32:                                               ; preds = %31
  call void @llvm.lifetime.start.p0(i64 72, ptr nonnull %6) #25
  invoke void @_ZN6dealii11SubscriptorC2Ev(ptr noundef nonnull align 8 dereferenceable(72) %6)
          to label %33 unwind label %70

33:                                               ; preds = %32
  store ptr getelementptr inbounds ({ [17 x ptr] }, ptr @_ZTVN6dealii16MappingCartesianILi3ELi3EEE, i64 0, inrange i32 0, i64 2), ptr %6, align 8, !tbaa !25
  call void @llvm.lifetime.start.p0(i64 128, ptr nonnull %7) #25
  %34 = add i32 %29, 1
  invoke void @_ZN6dealii6QGaussILi2EEC1Ej(ptr noundef nonnull align 8 dereferenceable(128) %7, i32 noundef %34)
          to label %35 unwind label %72

35:                                               ; preds = %33
  call void @llvm.lifetime.start.p0(i64 128, ptr nonnull %8) #25
  invoke void @_ZN6dealii10QProjectorILi3EE15project_to_faceERKNS_10QuadratureILi2EEEj(ptr nonnull sret(%"class.dealii::Quadrature") align 8 %8, ptr noundef nonnull align 8 dereferenceable(128) %7, i32 noundef %3)
          to label %36 unwind label %74

36:                                               ; preds = %35
  %37 = getelementptr inbounds %"class.dealii::Quadrature", ptr %8, i64 0, i32 3
  %38 = getelementptr inbounds %"class.dealii::Quadrature", ptr %8, i64 0, i32 3, i32 0, i32 0, i32 0, i32 1
  %39 = load ptr, ptr %38, align 8, !tbaa !20
  %40 = load ptr, ptr %37, align 8, !tbaa !15
  %41 = ptrtoint ptr %39 to i64
  %42 = ptrtoint ptr %40 to i64
  %43 = sub i64 %41, %42
  %44 = lshr exact i64 %43, 3
  %45 = trunc i64 %44 to i32
  %46 = zext i32 %25 to i64
  %47 = icmp eq i32 %25, 0
  br i1 %47, label %54, label %48

48:                                               ; preds = %36
  %49 = shl nuw nsw i64 %46, 2
  %50 = invoke noalias noundef nonnull ptr @_Znwm(i64 noundef %49) #27
          to label %51 unwind label %76

51:                                               ; preds = %48
  call void @llvm.memset.p0.i64(ptr nonnull align 4 %50, i8 0, i64 %49, i1 false), !tbaa !45
  %52 = invoke noalias noundef nonnull ptr @_Znwm(i64 noundef %49) #27
          to label %53 unwind label %78

53:                                               ; preds = %51
  call void @llvm.memset.p0.i64(ptr nonnull align 4 %52, i8 0, i64 %49, i1 false), !tbaa !45
  br label %54

54:                                               ; preds = %53, %36
  %55 = phi ptr [ null, %36 ], [ %50, %53 ]
  %56 = phi ptr [ null, %36 ], [ %52, %53 ]
  %57 = ptrtoint ptr %56 to i64
  %58 = ptrtoint ptr %55 to i64
  %59 = ptrtoint ptr %56 to i64
  %60 = ptrtoint ptr %55 to i64
  %61 = ptrtoint ptr %56 to i64
  %62 = ptrtoint ptr %55 to i64
  %63 = ptrtoint ptr %56 to i64
  %64 = ptrtoint ptr %55 to i64
  %65 = ptrtoint ptr %56 to i64
  %66 = ptrtoint ptr %55 to i64
  %67 = invoke noundef i32 @_ZN6dealii12GeometryInfoILi3EE21face_to_cell_verticesEjjbbb(i32 noundef %2, i32 noundef 0, i1 noundef zeroext true, i1 noundef zeroext false, i1 noundef zeroext false)
          to label %80 unwind label %487

68:                                               ; preds = %31, %4
  %69 = landingpad { ptr, i32 }
          cleanup
  br label %2230

70:                                               ; preds = %32, %2173
  %71 = landingpad { ptr, i32 }
          cleanup
  br label %2228

72:                                               ; preds = %2172, %33
  %73 = landingpad { ptr, i32 }
          cleanup
  br label %2226

74:                                               ; preds = %2171, %35
  %75 = landingpad { ptr, i32 }
          cleanup
  br label %2224

76:                                               ; preds = %48
  %77 = landingpad { ptr, i32 }
          cleanup
  br label %2222

78:                                               ; preds = %51
  %79 = landingpad { ptr, i32 }
          cleanup
  br label %2219

80:                                               ; preds = %54
  %81 = load i32, ptr %30, align 8, !tbaa !184
  %82 = mul i32 %81, %67
  %83 = invoke noundef i32 @_ZN6dealii12GeometryInfoILi3EE21face_to_cell_verticesEjjbbb(i32 noundef %3, i32 noundef 0, i1 noundef zeroext true, i1 noundef zeroext false, i1 noundef zeroext false)
          to label %84 unwind label %489

84:                                               ; preds = %80
  %85 = load i32, ptr %30, align 8, !tbaa !184
  %86 = mul i32 %85, %83
  %87 = icmp eq i32 %85, 0
  br i1 %87, label %155, label %88

88:                                               ; preds = %84
  %89 = zext i32 %85 to i64
  %90 = icmp ult i32 %85, 16
  %91 = sub i64 %65, %66
  %92 = icmp ult i64 %91, 64
  %93 = or i1 %90, %92
  br i1 %93, label %139, label %94

94:                                               ; preds = %88
  %95 = and i64 %89, 4294967280
  %96 = insertelement <4 x i32> poison, i32 %82, i64 0
  %97 = shufflevector <4 x i32> %96, <4 x i32> poison, <4 x i32> zeroinitializer
  %98 = insertelement <4 x i32> poison, i32 %82, i64 0
  %99 = shufflevector <4 x i32> %98, <4 x i32> poison, <4 x i32> zeroinitializer
  %100 = insertelement <4 x i32> poison, i32 %82, i64 0
  %101 = shufflevector <4 x i32> %100, <4 x i32> poison, <4 x i32> zeroinitializer
  %102 = insertelement <4 x i32> poison, i32 %82, i64 0
  %103 = shufflevector <4 x i32> %102, <4 x i32> poison, <4 x i32> zeroinitializer
  %104 = insertelement <4 x i32> poison, i32 %86, i64 0
  %105 = shufflevector <4 x i32> %104, <4 x i32> poison, <4 x i32> zeroinitializer
  %106 = insertelement <4 x i32> poison, i32 %86, i64 0
  %107 = shufflevector <4 x i32> %106, <4 x i32> poison, <4 x i32> zeroinitializer
  %108 = insertelement <4 x i32> poison, i32 %86, i64 0
  %109 = shufflevector <4 x i32> %108, <4 x i32> poison, <4 x i32> zeroinitializer
  %110 = insertelement <4 x i32> poison, i32 %86, i64 0
  %111 = shufflevector <4 x i32> %110, <4 x i32> poison, <4 x i32> zeroinitializer
  br label %112

112:                                              ; preds = %112, %94
  %113 = phi i64 [ 0, %94 ], [ %134, %112 ]
  %114 = phi <4 x i32> [ <i32 0, i32 1, i32 2, i32 3>, %94 ], [ %135, %112 ]
  %115 = add <4 x i32> %114, <i32 4, i32 4, i32 4, i32 4>
  %116 = add <4 x i32> %114, <i32 8, i32 8, i32 8, i32 8>
  %117 = add <4 x i32> %114, <i32 12, i32 12, i32 12, i32 12>
  %118 = add <4 x i32> %97, %114
  %119 = add <4 x i32> %99, %115
  %120 = add <4 x i32> %101, %116
  %121 = add <4 x i32> %103, %117
  %122 = getelementptr inbounds i32, ptr %55, i64 %113
  store <4 x i32> %118, ptr %122, align 4, !tbaa !45
  %123 = getelementptr inbounds i32, ptr %122, i64 4
  store <4 x i32> %119, ptr %123, align 4, !tbaa !45
  %124 = getelementptr inbounds i32, ptr %122, i64 8
  store <4 x i32> %120, ptr %124, align 4, !tbaa !45
  %125 = getelementptr inbounds i32, ptr %122, i64 12
  store <4 x i32> %121, ptr %125, align 4, !tbaa !45
  %126 = add <4 x i32> %105, %114
  %127 = add <4 x i32> %107, %115
  %128 = add <4 x i32> %109, %116
  %129 = add <4 x i32> %111, %117
  %130 = getelementptr inbounds i32, ptr %56, i64 %113
  store <4 x i32> %126, ptr %130, align 4, !tbaa !45
  %131 = getelementptr inbounds i32, ptr %130, i64 4
  store <4 x i32> %127, ptr %131, align 4, !tbaa !45
  %132 = getelementptr inbounds i32, ptr %130, i64 8
  store <4 x i32> %128, ptr %132, align 4, !tbaa !45
  %133 = getelementptr inbounds i32, ptr %130, i64 12
  store <4 x i32> %129, ptr %133, align 4, !tbaa !45
  %134 = add nuw i64 %113, 16
  %135 = add <4 x i32> %114, <i32 16, i32 16, i32 16, i32 16>
  %136 = icmp eq i64 %134, %95
  br i1 %136, label %137, label %112, !llvm.loop !185

137:                                              ; preds = %112
  %138 = icmp eq i64 %95, %89
  br i1 %138, label %155, label %139

139:                                              ; preds = %88, %137
  %140 = phi i64 [ 0, %88 ], [ %95, %137 ]
  %141 = xor i64 %140, -1
  %142 = and i64 %89, 1
  %143 = icmp eq i64 %142, 0
  br i1 %143, label %151, label %144

144:                                              ; preds = %139
  %145 = trunc i64 %140 to i32
  %146 = add i32 %82, %145
  %147 = getelementptr inbounds i32, ptr %55, i64 %140
  store i32 %146, ptr %147, align 4, !tbaa !45
  %148 = add i32 %86, %145
  %149 = getelementptr inbounds i32, ptr %56, i64 %140
  store i32 %148, ptr %149, align 4, !tbaa !45
  %150 = or i64 %140, 1
  br label %151

151:                                              ; preds = %144, %139
  %152 = phi i64 [ %140, %139 ], [ %150, %144 ]
  %153 = sub nsw i64 0, %89
  %154 = icmp eq i64 %141, %153
  br i1 %154, label %155, label %491

155:                                              ; preds = %151, %491, %137, %84
  %156 = invoke noundef i32 @_ZN6dealii12GeometryInfoILi3EE21face_to_cell_verticesEjjbbb(i32 noundef %2, i32 noundef 1, i1 noundef zeroext true, i1 noundef zeroext false, i1 noundef zeroext false)
          to label %157 unwind label %487

157:                                              ; preds = %155
  %158 = load i32, ptr %30, align 8, !tbaa !184
  %159 = mul i32 %158, %156
  %160 = invoke noundef i32 @_ZN6dealii12GeometryInfoILi3EE21face_to_cell_verticesEjjbbb(i32 noundef %3, i32 noundef 1, i1 noundef zeroext true, i1 noundef zeroext false, i1 noundef zeroext false)
          to label %161 unwind label %489

161:                                              ; preds = %157
  %162 = load i32, ptr %30, align 8, !tbaa !184
  %163 = mul i32 %162, %160
  %164 = icmp eq i32 %162, 0
  br i1 %164, label %263, label %165

165:                                              ; preds = %161
  %166 = icmp ult i32 %162, 16
  br i1 %166, label %226, label %167

167:                                              ; preds = %165
  %168 = add i32 %162, -1
  %169 = xor i32 %85, -1
  %170 = icmp ugt i32 %168, %169
  br i1 %170, label %226, label %171

171:                                              ; preds = %167
  %172 = zext i32 %85 to i64
  %173 = shl nuw nsw i64 %172, 2
  %174 = add i64 %173, %65
  %175 = add i64 %173, %64
  %176 = sub i64 %174, %175
  %177 = icmp ult i64 %176, 64
  br i1 %177, label %226, label %178

178:                                              ; preds = %171
  %179 = and i32 %162, -16
  %180 = add i32 %85, %179
  %181 = insertelement <4 x i32> poison, i32 %159, i64 0
  %182 = shufflevector <4 x i32> %181, <4 x i32> poison, <4 x i32> zeroinitializer
  %183 = insertelement <4 x i32> poison, i32 %159, i64 0
  %184 = shufflevector <4 x i32> %183, <4 x i32> poison, <4 x i32> zeroinitializer
  %185 = insertelement <4 x i32> poison, i32 %159, i64 0
  %186 = shufflevector <4 x i32> %185, <4 x i32> poison, <4 x i32> zeroinitializer
  %187 = insertelement <4 x i32> poison, i32 %159, i64 0
  %188 = shufflevector <4 x i32> %187, <4 x i32> poison, <4 x i32> zeroinitializer
  %189 = insertelement <4 x i32> poison, i32 %163, i64 0
  %190 = shufflevector <4 x i32> %189, <4 x i32> poison, <4 x i32> zeroinitializer
  %191 = insertelement <4 x i32> poison, i32 %163, i64 0
  %192 = shufflevector <4 x i32> %191, <4 x i32> poison, <4 x i32> zeroinitializer
  %193 = insertelement <4 x i32> poison, i32 %163, i64 0
  %194 = shufflevector <4 x i32> %193, <4 x i32> poison, <4 x i32> zeroinitializer
  %195 = insertelement <4 x i32> poison, i32 %163, i64 0
  %196 = shufflevector <4 x i32> %195, <4 x i32> poison, <4 x i32> zeroinitializer
  br label %197

197:                                              ; preds = %197, %178
  %198 = phi i32 [ 0, %178 ], [ %221, %197 ]
  %199 = phi <4 x i32> [ <i32 0, i32 1, i32 2, i32 3>, %178 ], [ %222, %197 ]
  %200 = add <4 x i32> %199, <i32 4, i32 4, i32 4, i32 4>
  %201 = add <4 x i32> %199, <i32 8, i32 8, i32 8, i32 8>
  %202 = add <4 x i32> %199, <i32 12, i32 12, i32 12, i32 12>
  %203 = add i32 %85, %198
  %204 = add <4 x i32> %199, %182
  %205 = add <4 x i32> %200, %184
  %206 = add <4 x i32> %201, %186
  %207 = add <4 x i32> %202, %188
  %208 = zext i32 %203 to i64
  %209 = getelementptr inbounds i32, ptr %55, i64 %208
  store <4 x i32> %204, ptr %209, align 4, !tbaa !45
  %210 = getelementptr inbounds i32, ptr %209, i64 4
  store <4 x i32> %205, ptr %210, align 4, !tbaa !45
  %211 = getelementptr inbounds i32, ptr %209, i64 8
  store <4 x i32> %206, ptr %211, align 4, !tbaa !45
  %212 = getelementptr inbounds i32, ptr %209, i64 12
  store <4 x i32> %207, ptr %212, align 4, !tbaa !45
  %213 = add <4 x i32> %199, %190
  %214 = add <4 x i32> %200, %192
  %215 = add <4 x i32> %201, %194
  %216 = add <4 x i32> %202, %196
  %217 = getelementptr inbounds i32, ptr %56, i64 %208
  store <4 x i32> %213, ptr %217, align 4, !tbaa !45
  %218 = getelementptr inbounds i32, ptr %217, i64 4
  store <4 x i32> %214, ptr %218, align 4, !tbaa !45
  %219 = getelementptr inbounds i32, ptr %217, i64 8
  store <4 x i32> %215, ptr %219, align 4, !tbaa !45
  %220 = getelementptr inbounds i32, ptr %217, i64 12
  store <4 x i32> %216, ptr %220, align 4, !tbaa !45
  %221 = add nuw i32 %198, 16
  %222 = add <4 x i32> %199, <i32 16, i32 16, i32 16, i32 16>
  %223 = icmp eq i32 %221, %179
  br i1 %223, label %224, label %197, !llvm.loop !186

224:                                              ; preds = %197
  %225 = icmp eq i32 %162, %179
  br i1 %225, label %263, label %226

226:                                              ; preds = %171, %167, %165, %224
  %227 = phi i32 [ %85, %171 ], [ %85, %167 ], [ %85, %165 ], [ %180, %224 ]
  %228 = phi i32 [ 0, %171 ], [ 0, %167 ], [ 0, %165 ], [ %179, %224 ]
  %229 = or i32 %228, 1
  %230 = and i32 %162, 1
  %231 = icmp eq i32 %230, 0
  br i1 %231, label %240, label %232

232:                                              ; preds = %226
  %233 = add i32 %228, %159
  %234 = zext i32 %227 to i64
  %235 = getelementptr inbounds i32, ptr %55, i64 %234
  store i32 %233, ptr %235, align 4, !tbaa !45
  %236 = add i32 %228, %163
  %237 = getelementptr inbounds i32, ptr %56, i64 %234
  store i32 %236, ptr %237, align 4, !tbaa !45
  %238 = add i32 %227, 1
  %239 = or i32 %228, 1
  br label %240

240:                                              ; preds = %232, %226
  %241 = phi i32 [ undef, %226 ], [ %238, %232 ]
  %242 = phi i32 [ %227, %226 ], [ %238, %232 ]
  %243 = phi i32 [ %228, %226 ], [ %239, %232 ]
  %244 = icmp eq i32 %162, %229
  br i1 %244, label %263, label %245

245:                                              ; preds = %240, %245
  %246 = phi i32 [ %260, %245 ], [ %242, %240 ]
  %247 = phi i32 [ %261, %245 ], [ %243, %240 ]
  %248 = add i32 %247, %159
  %249 = zext i32 %246 to i64
  %250 = getelementptr inbounds i32, ptr %55, i64 %249
  store i32 %248, ptr %250, align 4, !tbaa !45
  %251 = add i32 %247, %163
  %252 = getelementptr inbounds i32, ptr %56, i64 %249
  store i32 %251, ptr %252, align 4, !tbaa !45
  %253 = add i32 %246, 1
  %254 = add nuw i32 %247, 1
  %255 = add i32 %254, %159
  %256 = zext i32 %253 to i64
  %257 = getelementptr inbounds i32, ptr %55, i64 %256
  store i32 %255, ptr %257, align 4, !tbaa !45
  %258 = add i32 %254, %163
  %259 = getelementptr inbounds i32, ptr %56, i64 %256
  store i32 %258, ptr %259, align 4, !tbaa !45
  %260 = add i32 %246, 2
  %261 = add nuw i32 %247, 2
  %262 = icmp eq i32 %261, %162
  br i1 %262, label %263, label %245, !llvm.loop !187

263:                                              ; preds = %240, %245, %224, %161
  %264 = phi i32 [ %85, %161 ], [ %180, %224 ], [ %241, %240 ], [ %260, %245 ]
  %265 = invoke noundef i32 @_ZN6dealii12GeometryInfoILi3EE21face_to_cell_verticesEjjbbb(i32 noundef %2, i32 noundef 2, i1 noundef zeroext true, i1 noundef zeroext false, i1 noundef zeroext false)
          to label %266 unwind label %487

266:                                              ; preds = %263
  %267 = load i32, ptr %30, align 8, !tbaa !184
  %268 = mul i32 %267, %265
  %269 = invoke noundef i32 @_ZN6dealii12GeometryInfoILi3EE21face_to_cell_verticesEjjbbb(i32 noundef %3, i32 noundef 2, i1 noundef zeroext true, i1 noundef zeroext false, i1 noundef zeroext false)
          to label %270 unwind label %489

270:                                              ; preds = %266
  %271 = load i32, ptr %30, align 8, !tbaa !184
  %272 = mul i32 %271, %269
  %273 = icmp eq i32 %271, 0
  br i1 %273, label %372, label %274

274:                                              ; preds = %270
  %275 = icmp ult i32 %271, 16
  br i1 %275, label %335, label %276

276:                                              ; preds = %274
  %277 = add i32 %271, -1
  %278 = xor i32 %264, -1
  %279 = icmp ugt i32 %277, %278
  br i1 %279, label %335, label %280

280:                                              ; preds = %276
  %281 = zext i32 %264 to i64
  %282 = shl nuw nsw i64 %281, 2
  %283 = add i64 %282, %63
  %284 = add i64 %282, %64
  %285 = sub i64 %283, %284
  %286 = icmp ult i64 %285, 64
  br i1 %286, label %335, label %287

287:                                              ; preds = %280
  %288 = and i32 %271, -16
  %289 = add i32 %264, %288
  %290 = insertelement <4 x i32> poison, i32 %268, i64 0
  %291 = shufflevector <4 x i32> %290, <4 x i32> poison, <4 x i32> zeroinitializer
  %292 = insertelement <4 x i32> poison, i32 %268, i64 0
  %293 = shufflevector <4 x i32> %292, <4 x i32> poison, <4 x i32> zeroinitializer
  %294 = insertelement <4 x i32> poison, i32 %268, i64 0
  %295 = shufflevector <4 x i32> %294, <4 x i32> poison, <4 x i32> zeroinitializer
  %296 = insertelement <4 x i32> poison, i32 %268, i64 0
  %297 = shufflevector <4 x i32> %296, <4 x i32> poison, <4 x i32> zeroinitializer
  %298 = insertelement <4 x i32> poison, i32 %272, i64 0
  %299 = shufflevector <4 x i32> %298, <4 x i32> poison, <4 x i32> zeroinitializer
  %300 = insertelement <4 x i32> poison, i32 %272, i64 0
  %301 = shufflevector <4 x i32> %300, <4 x i32> poison, <4 x i32> zeroinitializer
  %302 = insertelement <4 x i32> poison, i32 %272, i64 0
  %303 = shufflevector <4 x i32> %302, <4 x i32> poison, <4 x i32> zeroinitializer
  %304 = insertelement <4 x i32> poison, i32 %272, i64 0
  %305 = shufflevector <4 x i32> %304, <4 x i32> poison, <4 x i32> zeroinitializer
  br label %306

306:                                              ; preds = %306, %287
  %307 = phi i32 [ 0, %287 ], [ %330, %306 ]
  %308 = phi <4 x i32> [ <i32 0, i32 1, i32 2, i32 3>, %287 ], [ %331, %306 ]
  %309 = add <4 x i32> %308, <i32 4, i32 4, i32 4, i32 4>
  %310 = add <4 x i32> %308, <i32 8, i32 8, i32 8, i32 8>
  %311 = add <4 x i32> %308, <i32 12, i32 12, i32 12, i32 12>
  %312 = add i32 %264, %307
  %313 = add <4 x i32> %308, %291
  %314 = add <4 x i32> %309, %293
  %315 = add <4 x i32> %310, %295
  %316 = add <4 x i32> %311, %297
  %317 = zext i32 %312 to i64
  %318 = getelementptr inbounds i32, ptr %55, i64 %317
  store <4 x i32> %313, ptr %318, align 4, !tbaa !45
  %319 = getelementptr inbounds i32, ptr %318, i64 4
  store <4 x i32> %314, ptr %319, align 4, !tbaa !45
  %320 = getelementptr inbounds i32, ptr %318, i64 8
  store <4 x i32> %315, ptr %320, align 4, !tbaa !45
  %321 = getelementptr inbounds i32, ptr %318, i64 12
  store <4 x i32> %316, ptr %321, align 4, !tbaa !45
  %322 = add <4 x i32> %308, %299
  %323 = add <4 x i32> %309, %301
  %324 = add <4 x i32> %310, %303
  %325 = add <4 x i32> %311, %305
  %326 = getelementptr inbounds i32, ptr %56, i64 %317
  store <4 x i32> %322, ptr %326, align 4, !tbaa !45
  %327 = getelementptr inbounds i32, ptr %326, i64 4
  store <4 x i32> %323, ptr %327, align 4, !tbaa !45
  %328 = getelementptr inbounds i32, ptr %326, i64 8
  store <4 x i32> %324, ptr %328, align 4, !tbaa !45
  %329 = getelementptr inbounds i32, ptr %326, i64 12
  store <4 x i32> %325, ptr %329, align 4, !tbaa !45
  %330 = add nuw i32 %307, 16
  %331 = add <4 x i32> %308, <i32 16, i32 16, i32 16, i32 16>
  %332 = icmp eq i32 %330, %288
  br i1 %332, label %333, label %306, !llvm.loop !188

333:                                              ; preds = %306
  %334 = icmp eq i32 %271, %288
  br i1 %334, label %372, label %335

335:                                              ; preds = %280, %276, %274, %333
  %336 = phi i32 [ %264, %280 ], [ %264, %276 ], [ %264, %274 ], [ %289, %333 ]
  %337 = phi i32 [ 0, %280 ], [ 0, %276 ], [ 0, %274 ], [ %288, %333 ]
  %338 = or i32 %337, 1
  %339 = and i32 %271, 1
  %340 = icmp eq i32 %339, 0
  br i1 %340, label %349, label %341

341:                                              ; preds = %335
  %342 = add i32 %337, %268
  %343 = zext i32 %336 to i64
  %344 = getelementptr inbounds i32, ptr %55, i64 %343
  store i32 %342, ptr %344, align 4, !tbaa !45
  %345 = add i32 %337, %272
  %346 = getelementptr inbounds i32, ptr %56, i64 %343
  store i32 %345, ptr %346, align 4, !tbaa !45
  %347 = add i32 %336, 1
  %348 = or i32 %337, 1
  br label %349

349:                                              ; preds = %341, %335
  %350 = phi i32 [ undef, %335 ], [ %347, %341 ]
  %351 = phi i32 [ %336, %335 ], [ %347, %341 ]
  %352 = phi i32 [ %337, %335 ], [ %348, %341 ]
  %353 = icmp eq i32 %271, %338
  br i1 %353, label %372, label %354

354:                                              ; preds = %349, %354
  %355 = phi i32 [ %369, %354 ], [ %351, %349 ]
  %356 = phi i32 [ %370, %354 ], [ %352, %349 ]
  %357 = add i32 %356, %268
  %358 = zext i32 %355 to i64
  %359 = getelementptr inbounds i32, ptr %55, i64 %358
  store i32 %357, ptr %359, align 4, !tbaa !45
  %360 = add i32 %356, %272
  %361 = getelementptr inbounds i32, ptr %56, i64 %358
  store i32 %360, ptr %361, align 4, !tbaa !45
  %362 = add i32 %355, 1
  %363 = add nuw i32 %356, 1
  %364 = add i32 %363, %268
  %365 = zext i32 %362 to i64
  %366 = getelementptr inbounds i32, ptr %55, i64 %365
  store i32 %364, ptr %366, align 4, !tbaa !45
  %367 = add i32 %363, %272
  %368 = getelementptr inbounds i32, ptr %56, i64 %365
  store i32 %367, ptr %368, align 4, !tbaa !45
  %369 = add i32 %355, 2
  %370 = add nuw i32 %356, 2
  %371 = icmp eq i32 %370, %271
  br i1 %371, label %372, label %354, !llvm.loop !189

372:                                              ; preds = %349, %354, %333, %270
  %373 = phi i32 [ %264, %270 ], [ %289, %333 ], [ %350, %349 ], [ %369, %354 ]
  %374 = invoke noundef i32 @_ZN6dealii12GeometryInfoILi3EE21face_to_cell_verticesEjjbbb(i32 noundef %2, i32 noundef 3, i1 noundef zeroext true, i1 noundef zeroext false, i1 noundef zeroext false)
          to label %375 unwind label %487

375:                                              ; preds = %372
  %376 = load i32, ptr %30, align 8, !tbaa !184
  %377 = mul i32 %376, %374
  %378 = invoke noundef i32 @_ZN6dealii12GeometryInfoILi3EE21face_to_cell_verticesEjjbbb(i32 noundef %3, i32 noundef 3, i1 noundef zeroext true, i1 noundef zeroext false, i1 noundef zeroext false)
          to label %379 unwind label %489

379:                                              ; preds = %375
  %380 = load i32, ptr %30, align 8, !tbaa !184
  %381 = mul i32 %380, %378
  %382 = icmp eq i32 %380, 0
  br i1 %382, label %481, label %383

383:                                              ; preds = %379
  %384 = icmp ult i32 %380, 16
  br i1 %384, label %444, label %385

385:                                              ; preds = %383
  %386 = add i32 %380, -1
  %387 = xor i32 %373, -1
  %388 = icmp ugt i32 %386, %387
  br i1 %388, label %444, label %389

389:                                              ; preds = %385
  %390 = zext i32 %373 to i64
  %391 = shl nuw nsw i64 %390, 2
  %392 = add i64 %391, %63
  %393 = add i64 %391, %62
  %394 = sub i64 %392, %393
  %395 = icmp ult i64 %394, 64
  br i1 %395, label %444, label %396

396:                                              ; preds = %389
  %397 = and i32 %380, -16
  %398 = add i32 %373, %397
  %399 = insertelement <4 x i32> poison, i32 %377, i64 0
  %400 = shufflevector <4 x i32> %399, <4 x i32> poison, <4 x i32> zeroinitializer
  %401 = insertelement <4 x i32> poison, i32 %377, i64 0
  %402 = shufflevector <4 x i32> %401, <4 x i32> poison, <4 x i32> zeroinitializer
  %403 = insertelement <4 x i32> poison, i32 %377, i64 0
  %404 = shufflevector <4 x i32> %403, <4 x i32> poison, <4 x i32> zeroinitializer
  %405 = insertelement <4 x i32> poison, i32 %377, i64 0
  %406 = shufflevector <4 x i32> %405, <4 x i32> poison, <4 x i32> zeroinitializer
  %407 = insertelement <4 x i32> poison, i32 %381, i64 0
  %408 = shufflevector <4 x i32> %407, <4 x i32> poison, <4 x i32> zeroinitializer
  %409 = insertelement <4 x i32> poison, i32 %381, i64 0
  %410 = shufflevector <4 x i32> %409, <4 x i32> poison, <4 x i32> zeroinitializer
  %411 = insertelement <4 x i32> poison, i32 %381, i64 0
  %412 = shufflevector <4 x i32> %411, <4 x i32> poison, <4 x i32> zeroinitializer
  %413 = insertelement <4 x i32> poison, i32 %381, i64 0
  %414 = shufflevector <4 x i32> %413, <4 x i32> poison, <4 x i32> zeroinitializer
  br label %415

415:                                              ; preds = %415, %396
  %416 = phi i32 [ 0, %396 ], [ %439, %415 ]
  %417 = phi <4 x i32> [ <i32 0, i32 1, i32 2, i32 3>, %396 ], [ %440, %415 ]
  %418 = add <4 x i32> %417, <i32 4, i32 4, i32 4, i32 4>
  %419 = add <4 x i32> %417, <i32 8, i32 8, i32 8, i32 8>
  %420 = add <4 x i32> %417, <i32 12, i32 12, i32 12, i32 12>
  %421 = add i32 %373, %416
  %422 = add <4 x i32> %417, %400
  %423 = add <4 x i32> %418, %402
  %424 = add <4 x i32> %419, %404
  %425 = add <4 x i32> %420, %406
  %426 = zext i32 %421 to i64
  %427 = getelementptr inbounds i32, ptr %55, i64 %426
  store <4 x i32> %422, ptr %427, align 4, !tbaa !45
  %428 = getelementptr inbounds i32, ptr %427, i64 4
  store <4 x i32> %423, ptr %428, align 4, !tbaa !45
  %429 = getelementptr inbounds i32, ptr %427, i64 8
  store <4 x i32> %424, ptr %429, align 4, !tbaa !45
  %430 = getelementptr inbounds i32, ptr %427, i64 12
  store <4 x i32> %425, ptr %430, align 4, !tbaa !45
  %431 = add <4 x i32> %417, %408
  %432 = add <4 x i32> %418, %410
  %433 = add <4 x i32> %419, %412
  %434 = add <4 x i32> %420, %414
  %435 = getelementptr inbounds i32, ptr %56, i64 %426
  store <4 x i32> %431, ptr %435, align 4, !tbaa !45
  %436 = getelementptr inbounds i32, ptr %435, i64 4
  store <4 x i32> %432, ptr %436, align 4, !tbaa !45
  %437 = getelementptr inbounds i32, ptr %435, i64 8
  store <4 x i32> %433, ptr %437, align 4, !tbaa !45
  %438 = getelementptr inbounds i32, ptr %435, i64 12
  store <4 x i32> %434, ptr %438, align 4, !tbaa !45
  %439 = add nuw i32 %416, 16
  %440 = add <4 x i32> %417, <i32 16, i32 16, i32 16, i32 16>
  %441 = icmp eq i32 %439, %397
  br i1 %441, label %442, label %415, !llvm.loop !190

442:                                              ; preds = %415
  %443 = icmp eq i32 %380, %397
  br i1 %443, label %481, label %444

444:                                              ; preds = %389, %385, %383, %442
  %445 = phi i32 [ %373, %389 ], [ %373, %385 ], [ %373, %383 ], [ %398, %442 ]
  %446 = phi i32 [ 0, %389 ], [ 0, %385 ], [ 0, %383 ], [ %397, %442 ]
  %447 = or i32 %446, 1
  %448 = and i32 %380, 1
  %449 = icmp eq i32 %448, 0
  br i1 %449, label %458, label %450

450:                                              ; preds = %444
  %451 = add i32 %446, %377
  %452 = zext i32 %445 to i64
  %453 = getelementptr inbounds i32, ptr %55, i64 %452
  store i32 %451, ptr %453, align 4, !tbaa !45
  %454 = add i32 %446, %381
  %455 = getelementptr inbounds i32, ptr %56, i64 %452
  store i32 %454, ptr %455, align 4, !tbaa !45
  %456 = add i32 %445, 1
  %457 = or i32 %446, 1
  br label %458

458:                                              ; preds = %450, %444
  %459 = phi i32 [ undef, %444 ], [ %456, %450 ]
  %460 = phi i32 [ %445, %444 ], [ %456, %450 ]
  %461 = phi i32 [ %446, %444 ], [ %457, %450 ]
  %462 = icmp eq i32 %380, %447
  br i1 %462, label %481, label %463

463:                                              ; preds = %458, %463
  %464 = phi i32 [ %478, %463 ], [ %460, %458 ]
  %465 = phi i32 [ %479, %463 ], [ %461, %458 ]
  %466 = add i32 %465, %377
  %467 = zext i32 %464 to i64
  %468 = getelementptr inbounds i32, ptr %55, i64 %467
  store i32 %466, ptr %468, align 4, !tbaa !45
  %469 = add i32 %465, %381
  %470 = getelementptr inbounds i32, ptr %56, i64 %467
  store i32 %469, ptr %470, align 4, !tbaa !45
  %471 = add i32 %464, 1
  %472 = add nuw i32 %465, 1
  %473 = add i32 %472, %377
  %474 = zext i32 %471 to i64
  %475 = getelementptr inbounds i32, ptr %55, i64 %474
  store i32 %473, ptr %475, align 4, !tbaa !45
  %476 = add i32 %472, %381
  %477 = getelementptr inbounds i32, ptr %56, i64 %474
  store i32 %476, ptr %477, align 4, !tbaa !45
  %478 = add i32 %464, 2
  %479 = add nuw i32 %465, 2
  %480 = icmp eq i32 %479, %380
  br i1 %480, label %481, label %463, !llvm.loop !191

481:                                              ; preds = %458, %463, %442, %379
  %482 = phi i32 [ %373, %379 ], [ %398, %442 ], [ %459, %458 ], [ %478, %463 ]
  %483 = getelementptr inbounds i8, ptr %0, i64 88
  %484 = getelementptr inbounds i8, ptr %0, i64 76
  %485 = load i32, ptr %483, align 8, !tbaa !192
  %486 = invoke noundef i32 @_ZN6dealii12GeometryInfoILi3EE18face_to_cell_linesEjjbbb(i32 noundef %2, i32 noundef 0, i1 noundef zeroext true, i1 noundef zeroext false, i1 noundef zeroext false)
          to label %524 unwind label %1044

487:                                              ; preds = %372, %263, %155, %54
  %488 = landingpad { ptr, i32 }
          cleanup
  br label %2213

489:                                              ; preds = %375, %266, %157, %80
  %490 = landingpad { ptr, i32 }
          cleanup
  br label %2213

491:                                              ; preds = %151, %491
  %492 = phi i64 [ %504, %491 ], [ %152, %151 ]
  %493 = trunc i64 %492 to i32
  %494 = add i32 %82, %493
  %495 = getelementptr inbounds i32, ptr %55, i64 %492
  store i32 %494, ptr %495, align 4, !tbaa !45
  %496 = add i32 %86, %493
  %497 = getelementptr inbounds i32, ptr %56, i64 %492
  store i32 %496, ptr %497, align 4, !tbaa !45
  %498 = add nuw nsw i64 %492, 1
  %499 = trunc i64 %498 to i32
  %500 = add i32 %82, %499
  %501 = getelementptr inbounds i32, ptr %55, i64 %498
  store i32 %500, ptr %501, align 4, !tbaa !45
  %502 = add i32 %86, %499
  %503 = getelementptr inbounds i32, ptr %56, i64 %498
  store i32 %502, ptr %503, align 4, !tbaa !45
  %504 = add nuw nsw i64 %492, 2
  %505 = icmp eq i64 %504, %89
  br i1 %505, label %155, label %491, !llvm.loop !193

506:                                              ; preds = %1040, %506
  %507 = phi i32 [ %522, %506 ], [ %1041, %1040 ]
  %508 = phi i32 [ %521, %506 ], [ %1042, %1040 ]
  %509 = add i32 %961, %507
  %510 = zext i32 %508 to i64
  %511 = getelementptr inbounds i32, ptr %55, i64 %510
  store i32 %509, ptr %511, align 4, !tbaa !45
  %512 = add i32 %963, %507
  %513 = getelementptr inbounds i32, ptr %56, i64 %510
  store i32 %512, ptr %513, align 4, !tbaa !45
  %514 = add i32 %508, 1
  %515 = add nuw i32 %507, 1
  %516 = add i32 %961, %515
  %517 = zext i32 %514 to i64
  %518 = getelementptr inbounds i32, ptr %55, i64 %517
  store i32 %516, ptr %518, align 4, !tbaa !45
  %519 = add i32 %963, %515
  %520 = getelementptr inbounds i32, ptr %56, i64 %517
  store i32 %519, ptr %520, align 4, !tbaa !45
  %521 = add i32 %508, 2
  %522 = add nuw i32 %507, 2
  %523 = icmp eq i32 %522, %959
  br i1 %523, label %1066, label %506, !llvm.loop !194

524:                                              ; preds = %481
  %525 = load i32, ptr %484, align 4, !tbaa !195
  %526 = mul i32 %525, %486
  %527 = add i32 %526, %485
  %528 = load i32, ptr %483, align 8, !tbaa !192
  %529 = invoke noundef i32 @_ZN6dealii12GeometryInfoILi3EE18face_to_cell_linesEjjbbb(i32 noundef %3, i32 noundef 0, i1 noundef zeroext true, i1 noundef zeroext false, i1 noundef zeroext false)
          to label %530 unwind label %1046

530:                                              ; preds = %524
  %531 = load i32, ptr %484, align 4, !tbaa !195
  %532 = mul i32 %531, %529
  %533 = add i32 %532, %528
  %534 = icmp eq i32 %531, 0
  br i1 %534, label %615, label %535

535:                                              ; preds = %530
  %536 = icmp ult i32 %531, 16
  br i1 %536, label %596, label %537

537:                                              ; preds = %535
  %538 = add i32 %531, -1
  %539 = xor i32 %482, -1
  %540 = icmp ugt i32 %538, %539
  br i1 %540, label %596, label %541

541:                                              ; preds = %537
  %542 = zext i32 %482 to i64
  %543 = shl nuw nsw i64 %542, 2
  %544 = add i64 %543, %61
  %545 = add i64 %543, %62
  %546 = sub i64 %544, %545
  %547 = icmp ult i64 %546, 64
  br i1 %547, label %596, label %548

548:                                              ; preds = %541
  %549 = and i32 %531, -16
  %550 = add i32 %482, %549
  %551 = insertelement <4 x i32> poison, i32 %527, i64 0
  %552 = shufflevector <4 x i32> %551, <4 x i32> poison, <4 x i32> zeroinitializer
  %553 = insertelement <4 x i32> poison, i32 %527, i64 0
  %554 = shufflevector <4 x i32> %553, <4 x i32> poison, <4 x i32> zeroinitializer
  %555 = insertelement <4 x i32> poison, i32 %527, i64 0
  %556 = shufflevector <4 x i32> %555, <4 x i32> poison, <4 x i32> zeroinitializer
  %557 = insertelement <4 x i32> poison, i32 %527, i64 0
  %558 = shufflevector <4 x i32> %557, <4 x i32> poison, <4 x i32> zeroinitializer
  %559 = insertelement <4 x i32> poison, i32 %533, i64 0
  %560 = shufflevector <4 x i32> %559, <4 x i32> poison, <4 x i32> zeroinitializer
  %561 = insertelement <4 x i32> poison, i32 %533, i64 0
  %562 = shufflevector <4 x i32> %561, <4 x i32> poison, <4 x i32> zeroinitializer
  %563 = insertelement <4 x i32> poison, i32 %533, i64 0
  %564 = shufflevector <4 x i32> %563, <4 x i32> poison, <4 x i32> zeroinitializer
  %565 = insertelement <4 x i32> poison, i32 %533, i64 0
  %566 = shufflevector <4 x i32> %565, <4 x i32> poison, <4 x i32> zeroinitializer
  br label %567

567:                                              ; preds = %567, %548
  %568 = phi i32 [ 0, %548 ], [ %591, %567 ]
  %569 = phi <4 x i32> [ <i32 0, i32 1, i32 2, i32 3>, %548 ], [ %592, %567 ]
  %570 = add <4 x i32> %569, <i32 4, i32 4, i32 4, i32 4>
  %571 = add <4 x i32> %569, <i32 8, i32 8, i32 8, i32 8>
  %572 = add <4 x i32> %569, <i32 12, i32 12, i32 12, i32 12>
  %573 = add i32 %482, %568
  %574 = add <4 x i32> %552, %569
  %575 = add <4 x i32> %554, %570
  %576 = add <4 x i32> %556, %571
  %577 = add <4 x i32> %558, %572
  %578 = zext i32 %573 to i64
  %579 = getelementptr inbounds i32, ptr %55, i64 %578
  store <4 x i32> %574, ptr %579, align 4, !tbaa !45
  %580 = getelementptr inbounds i32, ptr %579, i64 4
  store <4 x i32> %575, ptr %580, align 4, !tbaa !45
  %581 = getelementptr inbounds i32, ptr %579, i64 8
  store <4 x i32> %576, ptr %581, align 4, !tbaa !45
  %582 = getelementptr inbounds i32, ptr %579, i64 12
  store <4 x i32> %577, ptr %582, align 4, !tbaa !45
  %583 = add <4 x i32> %560, %569
  %584 = add <4 x i32> %562, %570
  %585 = add <4 x i32> %564, %571
  %586 = add <4 x i32> %566, %572
  %587 = getelementptr inbounds i32, ptr %56, i64 %578
  store <4 x i32> %583, ptr %587, align 4, !tbaa !45
  %588 = getelementptr inbounds i32, ptr %587, i64 4
  store <4 x i32> %584, ptr %588, align 4, !tbaa !45
  %589 = getelementptr inbounds i32, ptr %587, i64 8
  store <4 x i32> %585, ptr %589, align 4, !tbaa !45
  %590 = getelementptr inbounds i32, ptr %587, i64 12
  store <4 x i32> %586, ptr %590, align 4, !tbaa !45
  %591 = add nuw i32 %568, 16
  %592 = add <4 x i32> %569, <i32 16, i32 16, i32 16, i32 16>
  %593 = icmp eq i32 %591, %549
  br i1 %593, label %594, label %567, !llvm.loop !196

594:                                              ; preds = %567
  %595 = icmp eq i32 %531, %549
  br i1 %595, label %615, label %596

596:                                              ; preds = %541, %537, %535, %594
  %597 = phi i32 [ %482, %541 ], [ %482, %537 ], [ %482, %535 ], [ %550, %594 ]
  %598 = phi i32 [ 0, %541 ], [ 0, %537 ], [ 0, %535 ], [ %549, %594 ]
  %599 = or i32 %598, 1
  %600 = and i32 %531, 1
  %601 = icmp eq i32 %600, 0
  br i1 %601, label %610, label %602

602:                                              ; preds = %596
  %603 = add i32 %527, %598
  %604 = zext i32 %597 to i64
  %605 = getelementptr inbounds i32, ptr %55, i64 %604
  store i32 %603, ptr %605, align 4, !tbaa !45
  %606 = add i32 %533, %598
  %607 = getelementptr inbounds i32, ptr %56, i64 %604
  store i32 %606, ptr %607, align 4, !tbaa !45
  %608 = add i32 %597, 1
  %609 = or i32 %598, 1
  br label %610

610:                                              ; preds = %602, %596
  %611 = phi i32 [ undef, %596 ], [ %608, %602 ]
  %612 = phi i32 [ %597, %596 ], [ %608, %602 ]
  %613 = phi i32 [ %598, %596 ], [ %609, %602 ]
  %614 = icmp eq i32 %531, %599
  br i1 %614, label %615, label %1048

615:                                              ; preds = %610, %1048, %594, %530
  %616 = phi i32 [ %482, %530 ], [ %550, %594 ], [ %611, %610 ], [ %1063, %1048 ]
  %617 = load i32, ptr %483, align 8, !tbaa !192
  %618 = invoke noundef i32 @_ZN6dealii12GeometryInfoILi3EE18face_to_cell_linesEjjbbb(i32 noundef %2, i32 noundef 1, i1 noundef zeroext true, i1 noundef zeroext false, i1 noundef zeroext false)
          to label %619 unwind label %1044

619:                                              ; preds = %615
  %620 = load i32, ptr %484, align 4, !tbaa !195
  %621 = mul i32 %620, %618
  %622 = add i32 %621, %617
  %623 = load i32, ptr %483, align 8, !tbaa !192
  %624 = invoke noundef i32 @_ZN6dealii12GeometryInfoILi3EE18face_to_cell_linesEjjbbb(i32 noundef %3, i32 noundef 1, i1 noundef zeroext true, i1 noundef zeroext false, i1 noundef zeroext false)
          to label %625 unwind label %1046

625:                                              ; preds = %619
  %626 = load i32, ptr %484, align 4, !tbaa !195
  %627 = mul i32 %626, %624
  %628 = add i32 %627, %623
  %629 = icmp eq i32 %626, 0
  br i1 %629, label %728, label %630

630:                                              ; preds = %625
  %631 = icmp ult i32 %626, 16
  br i1 %631, label %691, label %632

632:                                              ; preds = %630
  %633 = add i32 %626, -1
  %634 = xor i32 %616, -1
  %635 = icmp ugt i32 %633, %634
  br i1 %635, label %691, label %636

636:                                              ; preds = %632
  %637 = zext i32 %616 to i64
  %638 = shl nuw nsw i64 %637, 2
  %639 = add i64 %638, %61
  %640 = add i64 %638, %60
  %641 = sub i64 %639, %640
  %642 = icmp ult i64 %641, 64
  br i1 %642, label %691, label %643

643:                                              ; preds = %636
  %644 = and i32 %626, -16
  %645 = add i32 %616, %644
  %646 = insertelement <4 x i32> poison, i32 %622, i64 0
  %647 = shufflevector <4 x i32> %646, <4 x i32> poison, <4 x i32> zeroinitializer
  %648 = insertelement <4 x i32> poison, i32 %622, i64 0
  %649 = shufflevector <4 x i32> %648, <4 x i32> poison, <4 x i32> zeroinitializer
  %650 = insertelement <4 x i32> poison, i32 %622, i64 0
  %651 = shufflevector <4 x i32> %650, <4 x i32> poison, <4 x i32> zeroinitializer
  %652 = insertelement <4 x i32> poison, i32 %622, i64 0
  %653 = shufflevector <4 x i32> %652, <4 x i32> poison, <4 x i32> zeroinitializer
  %654 = insertelement <4 x i32> poison, i32 %628, i64 0
  %655 = shufflevector <4 x i32> %654, <4 x i32> poison, <4 x i32> zeroinitializer
  %656 = insertelement <4 x i32> poison, i32 %628, i64 0
  %657 = shufflevector <4 x i32> %656, <4 x i32> poison, <4 x i32> zeroinitializer
  %658 = insertelement <4 x i32> poison, i32 %628, i64 0
  %659 = shufflevector <4 x i32> %658, <4 x i32> poison, <4 x i32> zeroinitializer
  %660 = insertelement <4 x i32> poison, i32 %628, i64 0
  %661 = shufflevector <4 x i32> %660, <4 x i32> poison, <4 x i32> zeroinitializer
  br label %662

662:                                              ; preds = %662, %643
  %663 = phi i32 [ 0, %643 ], [ %686, %662 ]
  %664 = phi <4 x i32> [ <i32 0, i32 1, i32 2, i32 3>, %643 ], [ %687, %662 ]
  %665 = add <4 x i32> %664, <i32 4, i32 4, i32 4, i32 4>
  %666 = add <4 x i32> %664, <i32 8, i32 8, i32 8, i32 8>
  %667 = add <4 x i32> %664, <i32 12, i32 12, i32 12, i32 12>
  %668 = add i32 %616, %663
  %669 = add <4 x i32> %647, %664
  %670 = add <4 x i32> %649, %665
  %671 = add <4 x i32> %651, %666
  %672 = add <4 x i32> %653, %667
  %673 = zext i32 %668 to i64
  %674 = getelementptr inbounds i32, ptr %55, i64 %673
  store <4 x i32> %669, ptr %674, align 4, !tbaa !45
  %675 = getelementptr inbounds i32, ptr %674, i64 4
  store <4 x i32> %670, ptr %675, align 4, !tbaa !45
  %676 = getelementptr inbounds i32, ptr %674, i64 8
  store <4 x i32> %671, ptr %676, align 4, !tbaa !45
  %677 = getelementptr inbounds i32, ptr %674, i64 12
  store <4 x i32> %672, ptr %677, align 4, !tbaa !45
  %678 = add <4 x i32> %655, %664
  %679 = add <4 x i32> %657, %665
  %680 = add <4 x i32> %659, %666
  %681 = add <4 x i32> %661, %667
  %682 = getelementptr inbounds i32, ptr %56, i64 %673
  store <4 x i32> %678, ptr %682, align 4, !tbaa !45
  %683 = getelementptr inbounds i32, ptr %682, i64 4
  store <4 x i32> %679, ptr %683, align 4, !tbaa !45
  %684 = getelementptr inbounds i32, ptr %682, i64 8
  store <4 x i32> %680, ptr %684, align 4, !tbaa !45
  %685 = getelementptr inbounds i32, ptr %682, i64 12
  store <4 x i32> %681, ptr %685, align 4, !tbaa !45
  %686 = add nuw i32 %663, 16
  %687 = add <4 x i32> %664, <i32 16, i32 16, i32 16, i32 16>
  %688 = icmp eq i32 %686, %644
  br i1 %688, label %689, label %662, !llvm.loop !197

689:                                              ; preds = %662
  %690 = icmp eq i32 %626, %644
  br i1 %690, label %728, label %691

691:                                              ; preds = %636, %632, %630, %689
  %692 = phi i32 [ %616, %636 ], [ %616, %632 ], [ %616, %630 ], [ %645, %689 ]
  %693 = phi i32 [ 0, %636 ], [ 0, %632 ], [ 0, %630 ], [ %644, %689 ]
  %694 = or i32 %693, 1
  %695 = and i32 %626, 1
  %696 = icmp eq i32 %695, 0
  br i1 %696, label %705, label %697

697:                                              ; preds = %691
  %698 = add i32 %622, %693
  %699 = zext i32 %692 to i64
  %700 = getelementptr inbounds i32, ptr %55, i64 %699
  store i32 %698, ptr %700, align 4, !tbaa !45
  %701 = add i32 %628, %693
  %702 = getelementptr inbounds i32, ptr %56, i64 %699
  store i32 %701, ptr %702, align 4, !tbaa !45
  %703 = add i32 %692, 1
  %704 = or i32 %693, 1
  br label %705

705:                                              ; preds = %697, %691
  %706 = phi i32 [ undef, %691 ], [ %703, %697 ]
  %707 = phi i32 [ %692, %691 ], [ %703, %697 ]
  %708 = phi i32 [ %693, %691 ], [ %704, %697 ]
  %709 = icmp eq i32 %626, %694
  br i1 %709, label %728, label %710

710:                                              ; preds = %705, %710
  %711 = phi i32 [ %725, %710 ], [ %707, %705 ]
  %712 = phi i32 [ %726, %710 ], [ %708, %705 ]
  %713 = add i32 %622, %712
  %714 = zext i32 %711 to i64
  %715 = getelementptr inbounds i32, ptr %55, i64 %714
  store i32 %713, ptr %715, align 4, !tbaa !45
  %716 = add i32 %628, %712
  %717 = getelementptr inbounds i32, ptr %56, i64 %714
  store i32 %716, ptr %717, align 4, !tbaa !45
  %718 = add i32 %711, 1
  %719 = add nuw i32 %712, 1
  %720 = add i32 %622, %719
  %721 = zext i32 %718 to i64
  %722 = getelementptr inbounds i32, ptr %55, i64 %721
  store i32 %720, ptr %722, align 4, !tbaa !45
  %723 = add i32 %628, %719
  %724 = getelementptr inbounds i32, ptr %56, i64 %721
  store i32 %723, ptr %724, align 4, !tbaa !45
  %725 = add i32 %711, 2
  %726 = add nuw i32 %712, 2
  %727 = icmp eq i32 %726, %626
  br i1 %727, label %728, label %710, !llvm.loop !198

728:                                              ; preds = %705, %710, %689, %625
  %729 = phi i32 [ %616, %625 ], [ %645, %689 ], [ %706, %705 ], [ %725, %710 ]
  %730 = load i32, ptr %483, align 8, !tbaa !192
  %731 = invoke noundef i32 @_ZN6dealii12GeometryInfoILi3EE18face_to_cell_linesEjjbbb(i32 noundef %2, i32 noundef 2, i1 noundef zeroext true, i1 noundef zeroext false, i1 noundef zeroext false)
          to label %732 unwind label %1044

732:                                              ; preds = %728
  %733 = load i32, ptr %484, align 4, !tbaa !195
  %734 = mul i32 %733, %731
  %735 = add i32 %734, %730
  %736 = load i32, ptr %483, align 8, !tbaa !192
  %737 = invoke noundef i32 @_ZN6dealii12GeometryInfoILi3EE18face_to_cell_linesEjjbbb(i32 noundef %3, i32 noundef 2, i1 noundef zeroext true, i1 noundef zeroext false, i1 noundef zeroext false)
          to label %738 unwind label %1046

738:                                              ; preds = %732
  %739 = load i32, ptr %484, align 4, !tbaa !195
  %740 = mul i32 %739, %737
  %741 = add i32 %740, %736
  %742 = icmp eq i32 %739, 0
  br i1 %742, label %841, label %743

743:                                              ; preds = %738
  %744 = icmp ult i32 %739, 16
  br i1 %744, label %804, label %745

745:                                              ; preds = %743
  %746 = add i32 %739, -1
  %747 = xor i32 %729, -1
  %748 = icmp ugt i32 %746, %747
  br i1 %748, label %804, label %749

749:                                              ; preds = %745
  %750 = zext i32 %729 to i64
  %751 = shl nuw nsw i64 %750, 2
  %752 = add i64 %751, %59
  %753 = add i64 %751, %60
  %754 = sub i64 %752, %753
  %755 = icmp ult i64 %754, 64
  br i1 %755, label %804, label %756

756:                                              ; preds = %749
  %757 = and i32 %739, -16
  %758 = add i32 %729, %757
  %759 = insertelement <4 x i32> poison, i32 %735, i64 0
  %760 = shufflevector <4 x i32> %759, <4 x i32> poison, <4 x i32> zeroinitializer
  %761 = insertelement <4 x i32> poison, i32 %735, i64 0
  %762 = shufflevector <4 x i32> %761, <4 x i32> poison, <4 x i32> zeroinitializer
  %763 = insertelement <4 x i32> poison, i32 %735, i64 0
  %764 = shufflevector <4 x i32> %763, <4 x i32> poison, <4 x i32> zeroinitializer
  %765 = insertelement <4 x i32> poison, i32 %735, i64 0
  %766 = shufflevector <4 x i32> %765, <4 x i32> poison, <4 x i32> zeroinitializer
  %767 = insertelement <4 x i32> poison, i32 %741, i64 0
  %768 = shufflevector <4 x i32> %767, <4 x i32> poison, <4 x i32> zeroinitializer
  %769 = insertelement <4 x i32> poison, i32 %741, i64 0
  %770 = shufflevector <4 x i32> %769, <4 x i32> poison, <4 x i32> zeroinitializer
  %771 = insertelement <4 x i32> poison, i32 %741, i64 0
  %772 = shufflevector <4 x i32> %771, <4 x i32> poison, <4 x i32> zeroinitializer
  %773 = insertelement <4 x i32> poison, i32 %741, i64 0
  %774 = shufflevector <4 x i32> %773, <4 x i32> poison, <4 x i32> zeroinitializer
  br label %775

775:                                              ; preds = %775, %756
  %776 = phi i32 [ 0, %756 ], [ %799, %775 ]
  %777 = phi <4 x i32> [ <i32 0, i32 1, i32 2, i32 3>, %756 ], [ %800, %775 ]
  %778 = add <4 x i32> %777, <i32 4, i32 4, i32 4, i32 4>
  %779 = add <4 x i32> %777, <i32 8, i32 8, i32 8, i32 8>
  %780 = add <4 x i32> %777, <i32 12, i32 12, i32 12, i32 12>
  %781 = add i32 %729, %776
  %782 = add <4 x i32> %760, %777
  %783 = add <4 x i32> %762, %778
  %784 = add <4 x i32> %764, %779
  %785 = add <4 x i32> %766, %780
  %786 = zext i32 %781 to i64
  %787 = getelementptr inbounds i32, ptr %55, i64 %786
  store <4 x i32> %782, ptr %787, align 4, !tbaa !45
  %788 = getelementptr inbounds i32, ptr %787, i64 4
  store <4 x i32> %783, ptr %788, align 4, !tbaa !45
  %789 = getelementptr inbounds i32, ptr %787, i64 8
  store <4 x i32> %784, ptr %789, align 4, !tbaa !45
  %790 = getelementptr inbounds i32, ptr %787, i64 12
  store <4 x i32> %785, ptr %790, align 4, !tbaa !45
  %791 = add <4 x i32> %768, %777
  %792 = add <4 x i32> %770, %778
  %793 = add <4 x i32> %772, %779
  %794 = add <4 x i32> %774, %780
  %795 = getelementptr inbounds i32, ptr %56, i64 %786
  store <4 x i32> %791, ptr %795, align 4, !tbaa !45
  %796 = getelementptr inbounds i32, ptr %795, i64 4
  store <4 x i32> %792, ptr %796, align 4, !tbaa !45
  %797 = getelementptr inbounds i32, ptr %795, i64 8
  store <4 x i32> %793, ptr %797, align 4, !tbaa !45
  %798 = getelementptr inbounds i32, ptr %795, i64 12
  store <4 x i32> %794, ptr %798, align 4, !tbaa !45
  %799 = add nuw i32 %776, 16
  %800 = add <4 x i32> %777, <i32 16, i32 16, i32 16, i32 16>
  %801 = icmp eq i32 %799, %757
  br i1 %801, label %802, label %775, !llvm.loop !199

802:                                              ; preds = %775
  %803 = icmp eq i32 %739, %757
  br i1 %803, label %841, label %804

804:                                              ; preds = %749, %745, %743, %802
  %805 = phi i32 [ %729, %749 ], [ %729, %745 ], [ %729, %743 ], [ %758, %802 ]
  %806 = phi i32 [ 0, %749 ], [ 0, %745 ], [ 0, %743 ], [ %757, %802 ]
  %807 = or i32 %806, 1
  %808 = and i32 %739, 1
  %809 = icmp eq i32 %808, 0
  br i1 %809, label %818, label %810

810:                                              ; preds = %804
  %811 = add i32 %735, %806
  %812 = zext i32 %805 to i64
  %813 = getelementptr inbounds i32, ptr %55, i64 %812
  store i32 %811, ptr %813, align 4, !tbaa !45
  %814 = add i32 %741, %806
  %815 = getelementptr inbounds i32, ptr %56, i64 %812
  store i32 %814, ptr %815, align 4, !tbaa !45
  %816 = add i32 %805, 1
  %817 = or i32 %806, 1
  br label %818

818:                                              ; preds = %810, %804
  %819 = phi i32 [ undef, %804 ], [ %816, %810 ]
  %820 = phi i32 [ %805, %804 ], [ %816, %810 ]
  %821 = phi i32 [ %806, %804 ], [ %817, %810 ]
  %822 = icmp eq i32 %739, %807
  br i1 %822, label %841, label %823

823:                                              ; preds = %818, %823
  %824 = phi i32 [ %838, %823 ], [ %820, %818 ]
  %825 = phi i32 [ %839, %823 ], [ %821, %818 ]
  %826 = add i32 %735, %825
  %827 = zext i32 %824 to i64
  %828 = getelementptr inbounds i32, ptr %55, i64 %827
  store i32 %826, ptr %828, align 4, !tbaa !45
  %829 = add i32 %741, %825
  %830 = getelementptr inbounds i32, ptr %56, i64 %827
  store i32 %829, ptr %830, align 4, !tbaa !45
  %831 = add i32 %824, 1
  %832 = add nuw i32 %825, 1
  %833 = add i32 %735, %832
  %834 = zext i32 %831 to i64
  %835 = getelementptr inbounds i32, ptr %55, i64 %834
  store i32 %833, ptr %835, align 4, !tbaa !45
  %836 = add i32 %741, %832
  %837 = getelementptr inbounds i32, ptr %56, i64 %834
  store i32 %836, ptr %837, align 4, !tbaa !45
  %838 = add i32 %824, 2
  %839 = add nuw i32 %825, 2
  %840 = icmp eq i32 %839, %739
  br i1 %840, label %841, label %823, !llvm.loop !200

841:                                              ; preds = %818, %823, %802, %738
  %842 = phi i32 [ %729, %738 ], [ %758, %802 ], [ %819, %818 ], [ %838, %823 ]
  %843 = load i32, ptr %483, align 8, !tbaa !192
  %844 = invoke noundef i32 @_ZN6dealii12GeometryInfoILi3EE18face_to_cell_linesEjjbbb(i32 noundef %2, i32 noundef 3, i1 noundef zeroext true, i1 noundef zeroext false, i1 noundef zeroext false)
          to label %845 unwind label %1044

845:                                              ; preds = %841
  %846 = load i32, ptr %484, align 4, !tbaa !195
  %847 = mul i32 %846, %844
  %848 = add i32 %847, %843
  %849 = load i32, ptr %483, align 8, !tbaa !192
  %850 = invoke noundef i32 @_ZN6dealii12GeometryInfoILi3EE18face_to_cell_linesEjjbbb(i32 noundef %3, i32 noundef 3, i1 noundef zeroext true, i1 noundef zeroext false, i1 noundef zeroext false)
          to label %851 unwind label %1046

851:                                              ; preds = %845
  %852 = load i32, ptr %484, align 4, !tbaa !195
  %853 = mul i32 %852, %850
  %854 = add i32 %853, %849
  %855 = icmp eq i32 %852, 0
  br i1 %855, label %954, label %856

856:                                              ; preds = %851
  %857 = icmp ult i32 %852, 16
  br i1 %857, label %917, label %858

858:                                              ; preds = %856
  %859 = add i32 %852, -1
  %860 = xor i32 %842, -1
  %861 = icmp ugt i32 %859, %860
  br i1 %861, label %917, label %862

862:                                              ; preds = %858
  %863 = zext i32 %842 to i64
  %864 = shl nuw nsw i64 %863, 2
  %865 = add i64 %864, %59
  %866 = add i64 %864, %58
  %867 = sub i64 %865, %866
  %868 = icmp ult i64 %867, 64
  br i1 %868, label %917, label %869

869:                                              ; preds = %862
  %870 = and i32 %852, -16
  %871 = add i32 %842, %870
  %872 = insertelement <4 x i32> poison, i32 %848, i64 0
  %873 = shufflevector <4 x i32> %872, <4 x i32> poison, <4 x i32> zeroinitializer
  %874 = insertelement <4 x i32> poison, i32 %848, i64 0
  %875 = shufflevector <4 x i32> %874, <4 x i32> poison, <4 x i32> zeroinitializer
  %876 = insertelement <4 x i32> poison, i32 %848, i64 0
  %877 = shufflevector <4 x i32> %876, <4 x i32> poison, <4 x i32> zeroinitializer
  %878 = insertelement <4 x i32> poison, i32 %848, i64 0
  %879 = shufflevector <4 x i32> %878, <4 x i32> poison, <4 x i32> zeroinitializer
  %880 = insertelement <4 x i32> poison, i32 %854, i64 0
  %881 = shufflevector <4 x i32> %880, <4 x i32> poison, <4 x i32> zeroinitializer
  %882 = insertelement <4 x i32> poison, i32 %854, i64 0
  %883 = shufflevector <4 x i32> %882, <4 x i32> poison, <4 x i32> zeroinitializer
  %884 = insertelement <4 x i32> poison, i32 %854, i64 0
  %885 = shufflevector <4 x i32> %884, <4 x i32> poison, <4 x i32> zeroinitializer
  %886 = insertelement <4 x i32> poison, i32 %854, i64 0
  %887 = shufflevector <4 x i32> %886, <4 x i32> poison, <4 x i32> zeroinitializer
  br label %888

888:                                              ; preds = %888, %869
  %889 = phi i32 [ 0, %869 ], [ %912, %888 ]
  %890 = phi <4 x i32> [ <i32 0, i32 1, i32 2, i32 3>, %869 ], [ %913, %888 ]
  %891 = add <4 x i32> %890, <i32 4, i32 4, i32 4, i32 4>
  %892 = add <4 x i32> %890, <i32 8, i32 8, i32 8, i32 8>
  %893 = add <4 x i32> %890, <i32 12, i32 12, i32 12, i32 12>
  %894 = add i32 %842, %889
  %895 = add <4 x i32> %873, %890
  %896 = add <4 x i32> %875, %891
  %897 = add <4 x i32> %877, %892
  %898 = add <4 x i32> %879, %893
  %899 = zext i32 %894 to i64
  %900 = getelementptr inbounds i32, ptr %55, i64 %899
  store <4 x i32> %895, ptr %900, align 4, !tbaa !45
  %901 = getelementptr inbounds i32, ptr %900, i64 4
  store <4 x i32> %896, ptr %901, align 4, !tbaa !45
  %902 = getelementptr inbounds i32, ptr %900, i64 8
  store <4 x i32> %897, ptr %902, align 4, !tbaa !45
  %903 = getelementptr inbounds i32, ptr %900, i64 12
  store <4 x i32> %898, ptr %903, align 4, !tbaa !45
  %904 = add <4 x i32> %881, %890
  %905 = add <4 x i32> %883, %891
  %906 = add <4 x i32> %885, %892
  %907 = add <4 x i32> %887, %893
  %908 = getelementptr inbounds i32, ptr %56, i64 %899
  store <4 x i32> %904, ptr %908, align 4, !tbaa !45
  %909 = getelementptr inbounds i32, ptr %908, i64 4
  store <4 x i32> %905, ptr %909, align 4, !tbaa !45
  %910 = getelementptr inbounds i32, ptr %908, i64 8
  store <4 x i32> %906, ptr %910, align 4, !tbaa !45
  %911 = getelementptr inbounds i32, ptr %908, i64 12
  store <4 x i32> %907, ptr %911, align 4, !tbaa !45
  %912 = add nuw i32 %889, 16
  %913 = add <4 x i32> %890, <i32 16, i32 16, i32 16, i32 16>
  %914 = icmp eq i32 %912, %870
  br i1 %914, label %915, label %888, !llvm.loop !201

915:                                              ; preds = %888
  %916 = icmp eq i32 %852, %870
  br i1 %916, label %954, label %917

917:                                              ; preds = %862, %858, %856, %915
  %918 = phi i32 [ %842, %862 ], [ %842, %858 ], [ %842, %856 ], [ %871, %915 ]
  %919 = phi i32 [ 0, %862 ], [ 0, %858 ], [ 0, %856 ], [ %870, %915 ]
  %920 = or i32 %919, 1
  %921 = and i32 %852, 1
  %922 = icmp eq i32 %921, 0
  br i1 %922, label %931, label %923

923:                                              ; preds = %917
  %924 = add i32 %848, %919
  %925 = zext i32 %918 to i64
  %926 = getelementptr inbounds i32, ptr %55, i64 %925
  store i32 %924, ptr %926, align 4, !tbaa !45
  %927 = add i32 %854, %919
  %928 = getelementptr inbounds i32, ptr %56, i64 %925
  store i32 %927, ptr %928, align 4, !tbaa !45
  %929 = add i32 %918, 1
  %930 = or i32 %919, 1
  br label %931

931:                                              ; preds = %923, %917
  %932 = phi i32 [ undef, %917 ], [ %929, %923 ]
  %933 = phi i32 [ %918, %917 ], [ %929, %923 ]
  %934 = phi i32 [ %919, %917 ], [ %930, %923 ]
  %935 = icmp eq i32 %852, %920
  br i1 %935, label %954, label %936

936:                                              ; preds = %931, %936
  %937 = phi i32 [ %951, %936 ], [ %933, %931 ]
  %938 = phi i32 [ %952, %936 ], [ %934, %931 ]
  %939 = add i32 %848, %938
  %940 = zext i32 %937 to i64
  %941 = getelementptr inbounds i32, ptr %55, i64 %940
  store i32 %939, ptr %941, align 4, !tbaa !45
  %942 = add i32 %854, %938
  %943 = getelementptr inbounds i32, ptr %56, i64 %940
  store i32 %942, ptr %943, align 4, !tbaa !45
  %944 = add i32 %937, 1
  %945 = add nuw i32 %938, 1
  %946 = add i32 %848, %945
  %947 = zext i32 %944 to i64
  %948 = getelementptr inbounds i32, ptr %55, i64 %947
  store i32 %946, ptr %948, align 4, !tbaa !45
  %949 = add i32 %854, %945
  %950 = getelementptr inbounds i32, ptr %56, i64 %947
  store i32 %949, ptr %950, align 4, !tbaa !45
  %951 = add i32 %937, 2
  %952 = add nuw i32 %938, 2
  %953 = icmp eq i32 %952, %852
  br i1 %953, label %954, label %936, !llvm.loop !202

954:                                              ; preds = %931, %936, %915, %851
  %955 = phi i32 [ %842, %851 ], [ %871, %915 ], [ %932, %931 ], [ %951, %936 ]
  %956 = getelementptr inbounds i8, ptr %0, i64 92
  %957 = load i32, ptr %956, align 4, !tbaa !203
  %958 = getelementptr inbounds i8, ptr %0, i64 80
  %959 = load i32, ptr %958, align 8, !tbaa !204
  %960 = mul i32 %959, %2
  %961 = add i32 %960, %957
  %962 = mul i32 %959, %3
  %963 = add i32 %962, %957
  %964 = icmp eq i32 %959, 0
  br i1 %964, label %1066, label %965

965:                                              ; preds = %954
  %966 = icmp ult i32 %959, 16
  br i1 %966, label %1026, label %967

967:                                              ; preds = %965
  %968 = add i32 %959, -1
  %969 = xor i32 %955, -1
  %970 = icmp ugt i32 %968, %969
  br i1 %970, label %1026, label %971

971:                                              ; preds = %967
  %972 = zext i32 %955 to i64
  %973 = shl nuw nsw i64 %972, 2
  %974 = add i64 %973, %57
  %975 = add i64 %973, %58
  %976 = sub i64 %974, %975
  %977 = icmp ult i64 %976, 64
  br i1 %977, label %1026, label %978

978:                                              ; preds = %971
  %979 = and i32 %959, -16
  %980 = add i32 %955, %979
  %981 = insertelement <4 x i32> poison, i32 %961, i64 0
  %982 = shufflevector <4 x i32> %981, <4 x i32> poison, <4 x i32> zeroinitializer
  %983 = insertelement <4 x i32> poison, i32 %961, i64 0
  %984 = shufflevector <4 x i32> %983, <4 x i32> poison, <4 x i32> zeroinitializer
  %985 = insertelement <4 x i32> poison, i32 %961, i64 0
  %986 = shufflevector <4 x i32> %985, <4 x i32> poison, <4 x i32> zeroinitializer
  %987 = insertelement <4 x i32> poison, i32 %961, i64 0
  %988 = shufflevector <4 x i32> %987, <4 x i32> poison, <4 x i32> zeroinitializer
  %989 = insertelement <4 x i32> poison, i32 %963, i64 0
  %990 = shufflevector <4 x i32> %989, <4 x i32> poison, <4 x i32> zeroinitializer
  %991 = insertelement <4 x i32> poison, i32 %963, i64 0
  %992 = shufflevector <4 x i32> %991, <4 x i32> poison, <4 x i32> zeroinitializer
  %993 = insertelement <4 x i32> poison, i32 %963, i64 0
  %994 = shufflevector <4 x i32> %993, <4 x i32> poison, <4 x i32> zeroinitializer
  %995 = insertelement <4 x i32> poison, i32 %963, i64 0
  %996 = shufflevector <4 x i32> %995, <4 x i32> poison, <4 x i32> zeroinitializer
  br label %997

997:                                              ; preds = %997, %978
  %998 = phi i32 [ 0, %978 ], [ %1021, %997 ]
  %999 = phi <4 x i32> [ <i32 0, i32 1, i32 2, i32 3>, %978 ], [ %1022, %997 ]
  %1000 = add <4 x i32> %999, <i32 4, i32 4, i32 4, i32 4>
  %1001 = add <4 x i32> %999, <i32 8, i32 8, i32 8, i32 8>
  %1002 = add <4 x i32> %999, <i32 12, i32 12, i32 12, i32 12>
  %1003 = add i32 %955, %998
  %1004 = add <4 x i32> %982, %999
  %1005 = add <4 x i32> %984, %1000
  %1006 = add <4 x i32> %986, %1001
  %1007 = add <4 x i32> %988, %1002
  %1008 = zext i32 %1003 to i64
  %1009 = getelementptr inbounds i32, ptr %55, i64 %1008
  store <4 x i32> %1004, ptr %1009, align 4, !tbaa !45
  %1010 = getelementptr inbounds i32, ptr %1009, i64 4
  store <4 x i32> %1005, ptr %1010, align 4, !tbaa !45
  %1011 = getelementptr inbounds i32, ptr %1009, i64 8
  store <4 x i32> %1006, ptr %1011, align 4, !tbaa !45
  %1012 = getelementptr inbounds i32, ptr %1009, i64 12
  store <4 x i32> %1007, ptr %1012, align 4, !tbaa !45
  %1013 = add <4 x i32> %990, %999
  %1014 = add <4 x i32> %992, %1000
  %1015 = add <4 x i32> %994, %1001
  %1016 = add <4 x i32> %996, %1002
  %1017 = getelementptr inbounds i32, ptr %56, i64 %1008
  store <4 x i32> %1013, ptr %1017, align 4, !tbaa !45
  %1018 = getelementptr inbounds i32, ptr %1017, i64 4
  store <4 x i32> %1014, ptr %1018, align 4, !tbaa !45
  %1019 = getelementptr inbounds i32, ptr %1017, i64 8
  store <4 x i32> %1015, ptr %1019, align 4, !tbaa !45
  %1020 = getelementptr inbounds i32, ptr %1017, i64 12
  store <4 x i32> %1016, ptr %1020, align 4, !tbaa !45
  %1021 = add nuw i32 %998, 16
  %1022 = add <4 x i32> %999, <i32 16, i32 16, i32 16, i32 16>
  %1023 = icmp eq i32 %1021, %979
  br i1 %1023, label %1024, label %997, !llvm.loop !205

1024:                                             ; preds = %997
  %1025 = icmp eq i32 %959, %979
  br i1 %1025, label %1066, label %1026

1026:                                             ; preds = %971, %967, %965, %1024
  %1027 = phi i32 [ 0, %971 ], [ 0, %967 ], [ 0, %965 ], [ %979, %1024 ]
  %1028 = phi i32 [ %955, %971 ], [ %955, %967 ], [ %955, %965 ], [ %980, %1024 ]
  %1029 = or i32 %1027, 1
  %1030 = and i32 %959, 1
  %1031 = icmp eq i32 %1030, 0
  br i1 %1031, label %1040, label %1032

1032:                                             ; preds = %1026
  %1033 = add i32 %961, %1027
  %1034 = zext i32 %1028 to i64
  %1035 = getelementptr inbounds i32, ptr %55, i64 %1034
  store i32 %1033, ptr %1035, align 4, !tbaa !45
  %1036 = add i32 %963, %1027
  %1037 = getelementptr inbounds i32, ptr %56, i64 %1034
  store i32 %1036, ptr %1037, align 4, !tbaa !45
  %1038 = add i32 %1028, 1
  %1039 = or i32 %1027, 1
  br label %1040

1040:                                             ; preds = %1032, %1026
  %1041 = phi i32 [ %1027, %1026 ], [ %1039, %1032 ]
  %1042 = phi i32 [ %1028, %1026 ], [ %1038, %1032 ]
  %1043 = icmp eq i32 %959, %1029
  br i1 %1043, label %1066, label %506

1044:                                             ; preds = %841, %728, %615, %481
  %1045 = landingpad { ptr, i32 }
          cleanup
  br label %2213

1046:                                             ; preds = %845, %732, %619, %524
  %1047 = landingpad { ptr, i32 }
          cleanup
  br label %2213

1048:                                             ; preds = %610, %1048
  %1049 = phi i32 [ %1063, %1048 ], [ %612, %610 ]
  %1050 = phi i32 [ %1064, %1048 ], [ %613, %610 ]
  %1051 = add i32 %527, %1050
  %1052 = zext i32 %1049 to i64
  %1053 = getelementptr inbounds i32, ptr %55, i64 %1052
  store i32 %1051, ptr %1053, align 4, !tbaa !45
  %1054 = add i32 %533, %1050
  %1055 = getelementptr inbounds i32, ptr %56, i64 %1052
  store i32 %1054, ptr %1055, align 4, !tbaa !45
  %1056 = add i32 %1049, 1
  %1057 = add nuw i32 %1050, 1
  %1058 = add i32 %527, %1057
  %1059 = zext i32 %1056 to i64
  %1060 = getelementptr inbounds i32, ptr %55, i64 %1059
  store i32 %1058, ptr %1060, align 4, !tbaa !45
  %1061 = add i32 %533, %1057
  %1062 = getelementptr inbounds i32, ptr %56, i64 %1059
  store i32 %1061, ptr %1062, align 4, !tbaa !45
  %1063 = add i32 %1049, 2
  %1064 = add nuw i32 %1050, 2
  %1065 = icmp eq i32 %1064, %531
  br i1 %1065, label %615, label %1048, !llvm.loop !206

1066:                                             ; preds = %1040, %506, %1024, %954
  call void @llvm.lifetime.start.p0(i64 776, ptr nonnull %9) #25
  invoke void @_ZN6dealii8FEValuesILi3ELi3EEC1ERKNS_7MappingILi3ELi3EEERKNS_13FiniteElementILi3ELi3EEERKNS_10QuadratureILi3EEENS_11UpdateFlagsE(ptr noundef nonnull align 8 dereferenceable(776) %9, ptr noundef nonnull align 8 dereferenceable(72) %6, ptr noundef nonnull align 8 dereferenceable(728) %0, ptr noundef nonnull align 8 dereferenceable(128) %8, i32 noundef 49)
          to label %1067 unwind label %1329

1067:                                             ; preds = %1066
  call void @llvm.lifetime.start.p0(i64 16, ptr nonnull %10) #25
  invoke void @_ZNK6dealii13TriangulationILi3ELi3EE12begin_activeEj(ptr nonnull sret(%"class.dealii::TriaActiveIterator") align 8 %10, ptr noundef nonnull align 8 dereferenceable(8552) %5, i32 noundef 0)
          to label %1068 unwind label %1331

1068:                                             ; preds = %1067
  invoke void @_ZN6dealii8FEValuesILi3ELi3EE6reinitERKNS_12TriaIteratorINS_12CellAccessorILi3ELi3EEEEE(ptr noundef nonnull align 8 dereferenceable(776) %9, ptr noundef nonnull align 8 dereferenceable(16) %10)
          to label %1069 unwind label %1331

1069:                                             ; preds = %1068
  call void @llvm.lifetime.end.p0(i64 16, ptr nonnull %10) #25
  call void @llvm.lifetime.start.p0(i64 96, ptr nonnull %11) #25
  %1070 = mul i32 %27, %45
  invoke void @_ZN6dealii10FullMatrixIdEC1Ejj(ptr noundef nonnull align 8 dereferenceable(92) %11, i32 noundef %1070, i32 noundef %25)
          to label %1071 unwind label %1333

1071:                                             ; preds = %1069
  %1072 = icmp eq i32 %27, 0
  br i1 %1072, label %1317, label %1073

1073:                                             ; preds = %1071
  %1074 = icmp eq i32 %45, 0
  %1075 = getelementptr inbounds %"class.dealii::FEValuesBase", ptr %9, i64 0, i32 6
  %1076 = getelementptr inbounds i8, ptr %9, i64 480
  %1077 = getelementptr inbounds i8, ptr %9, i64 144
  %1078 = getelementptr inbounds i8, ptr %9, i64 160
  %1079 = getelementptr inbounds %"class.dealii::TableBase", ptr %11, i64 0, i32 1
  %1080 = getelementptr inbounds %"class.dealii::TableBase", ptr %11, i64 0, i32 3, i32 0, i32 0, i64 1
  br i1 %1074, label %1317, label %1081

1081:                                             ; preds = %1073
  %1082 = and i64 %46, 1
  %1083 = icmp eq i32 %25, 1
  %1084 = and i64 %46, 4294967294
  %1085 = icmp eq i64 %1082, 0
  br label %1086

1086:                                             ; preds = %1081, %1100
  %1087 = phi i32 [ %1101, %1100 ], [ 0, %1081 ]
  %1088 = load ptr, ptr %1075, align 8
  %1089 = getelementptr inbounds %"class.dealii::FiniteElement", ptr %1088, i64 0, i32 20
  %1090 = getelementptr inbounds %"class.dealii::FiniteElement", ptr %1088, i64 0, i32 19
  %1091 = lshr i32 %1087, 6
  %1092 = zext i32 %1091 to i64
  %1093 = and i32 %1087, 63
  %1094 = zext i32 %1093 to i64
  %1095 = shl nuw i64 1, %1094
  %1096 = icmp eq i32 %1087, 0
  %1097 = getelementptr inbounds %"class.dealii::FiniteElement", ptr %1088, i64 0, i32 12
  %1098 = load ptr, ptr %1079, align 8
  %1099 = load i32, ptr %1080, align 8
  br i1 %47, label %1100, label %1103

1100:                                             ; preds = %1188, %1266, %1314, %1086
  %1101 = add nuw i32 %1087, 1
  %1102 = icmp eq i32 %1101, %27
  br i1 %1102, label %1317, label %1086

1103:                                             ; preds = %1086
  %1104 = getelementptr inbounds %"class.dealii::FiniteElement", ptr %1088, i64 0, i32 2
  %1105 = load i8, ptr %1104, align 4, !tbaa !76, !range !117, !noundef !118
  %1106 = icmp eq i8 %1105, 0
  br i1 %1106, label %1193, label %1191

1107:                                             ; preds = %1191, %1188
  %1108 = phi i32 [ 0, %1191 ], [ %1189, %1188 ]
  %1109 = load ptr, ptr %1076, align 8
  %1110 = load ptr, ptr %1077, align 8
  %1111 = load i32, ptr %1078, align 8
  %1112 = mul i32 %1108, %27
  %1113 = add i32 %1112, %1087
  %1114 = mul i32 %1099, %1113
  br i1 %1083, label %1164, label %1115

1115:                                             ; preds = %1107, %1155
  %1116 = phi i64 [ %1161, %1155 ], [ 0, %1107 ]
  %1117 = phi i64 [ %1162, %1155 ], [ 0, %1107 ]
  %1118 = getelementptr inbounds i32, ptr %56, i64 %1116
  %1119 = load i32, ptr %1118, align 4, !tbaa !45
  %1120 = zext i32 %1119 to i64
  %1121 = getelementptr inbounds %"struct.std::pair.77", ptr %1192, i64 %1120
  %1122 = load i64, ptr %1121, align 4
  %1123 = trunc i64 %1122 to i32
  %1124 = icmp eq i32 %1087, %1123
  br i1 %1124, label %1125, label %1133

1125:                                             ; preds = %1115
  %1126 = getelementptr inbounds i32, ptr %1109, i64 %1120
  %1127 = load i32, ptr %1126, align 4, !tbaa !45
  %1128 = mul i32 %1111, %1127
  %1129 = add i32 %1128, %1108
  %1130 = zext i32 %1129 to i64
  %1131 = getelementptr inbounds double, ptr %1110, i64 %1130
  %1132 = load double, ptr %1131, align 8, !tbaa !18
  br label %1133

1133:                                             ; preds = %1125, %1115
  %1134 = phi double [ 0.000000e+00, %1115 ], [ %1132, %1125 ]
  %1135 = trunc i64 %1116 to i32
  %1136 = add i32 %1114, %1135
  %1137 = zext i32 %1136 to i64
  %1138 = getelementptr inbounds double, ptr %1098, i64 %1137
  store double %1134, ptr %1138, align 8, !tbaa !18
  %1139 = or i64 %1116, 1
  %1140 = getelementptr inbounds i32, ptr %56, i64 %1139
  %1141 = load i32, ptr %1140, align 4, !tbaa !45
  %1142 = zext i32 %1141 to i64
  %1143 = getelementptr inbounds %"struct.std::pair.77", ptr %1192, i64 %1142
  %1144 = load i64, ptr %1143, align 4
  %1145 = trunc i64 %1144 to i32
  %1146 = icmp eq i32 %1087, %1145
  br i1 %1146, label %1147, label %1155

1147:                                             ; preds = %1133
  %1148 = getelementptr inbounds i32, ptr %1109, i64 %1142
  %1149 = load i32, ptr %1148, align 4, !tbaa !45
  %1150 = mul i32 %1111, %1149
  %1151 = add i32 %1150, %1108
  %1152 = zext i32 %1151 to i64
  %1153 = getelementptr inbounds double, ptr %1110, i64 %1152
  %1154 = load double, ptr %1153, align 8, !tbaa !18
  br label %1155

1155:                                             ; preds = %1147, %1133
  %1156 = phi double [ 0.000000e+00, %1133 ], [ %1154, %1147 ]
  %1157 = trunc i64 %1139 to i32
  %1158 = add i32 %1114, %1157
  %1159 = zext i32 %1158 to i64
  %1160 = getelementptr inbounds double, ptr %1098, i64 %1159
  store double %1156, ptr %1160, align 8, !tbaa !18
  %1161 = add nuw nsw i64 %1116, 2
  %1162 = add i64 %1117, 2
  %1163 = icmp eq i64 %1162, %1084
  br i1 %1163, label %1164, label %1115

1164:                                             ; preds = %1155, %1107
  %1165 = phi i64 [ 0, %1107 ], [ %1161, %1155 ]
  br i1 %1085, label %1188, label %1166

1166:                                             ; preds = %1164
  %1167 = getelementptr inbounds i32, ptr %56, i64 %1165
  %1168 = load i32, ptr %1167, align 4, !tbaa !45
  %1169 = zext i32 %1168 to i64
  %1170 = getelementptr inbounds %"struct.std::pair.77", ptr %1192, i64 %1169
  %1171 = load i64, ptr %1170, align 4
  %1172 = trunc i64 %1171 to i32
  %1173 = icmp eq i32 %1087, %1172
  br i1 %1173, label %1174, label %1182

1174:                                             ; preds = %1166
  %1175 = getelementptr inbounds i32, ptr %1109, i64 %1169
  %1176 = load i32, ptr %1175, align 4, !tbaa !45
  %1177 = mul i32 %1111, %1176
  %1178 = add i32 %1177, %1108
  %1179 = zext i32 %1178 to i64
  %1180 = getelementptr inbounds double, ptr %1110, i64 %1179
  %1181 = load double, ptr %1180, align 8, !tbaa !18
  br label %1182

1182:                                             ; preds = %1174, %1166
  %1183 = phi double [ 0.000000e+00, %1166 ], [ %1181, %1174 ]
  %1184 = trunc i64 %1165 to i32
  %1185 = add i32 %1114, %1184
  %1186 = zext i32 %1185 to i64
  %1187 = getelementptr inbounds double, ptr %1098, i64 %1186
  store double %1183, ptr %1187, align 8, !tbaa !18
  br label %1188

1188:                                             ; preds = %1164, %1182
  %1189 = add nuw i32 %1108, 1
  %1190 = icmp eq i32 %1189, %45
  br i1 %1190, label %1100, label %1107

1191:                                             ; preds = %1103
  %1192 = load ptr, ptr %1097, align 8, !tbaa !64
  br label %1107

1193:                                             ; preds = %1103
  %1194 = load ptr, ptr %1089, align 8, !tbaa !54
  br i1 %1096, label %1269, label %1195

1195:                                             ; preds = %1193, %1266
  %1196 = phi i32 [ %1267, %1266 ], [ 0, %1193 ]
  %1197 = load ptr, ptr %1076, align 8
  %1198 = load ptr, ptr %1077, align 8
  %1199 = load i32, ptr %1078, align 8
  %1200 = mul i32 %1196, %27
  %1201 = add i32 %1200, %1087
  %1202 = mul i32 %1099, %1201
  br label %1203

1203:                                             ; preds = %1258, %1195
  %1204 = phi i64 [ %1264, %1258 ], [ 0, %1195 ]
  %1205 = getelementptr inbounds i32, ptr %56, i64 %1204
  %1206 = load i32, ptr %1205, align 4, !tbaa !45
  %1207 = zext i32 %1206 to i64
  %1208 = getelementptr inbounds i32, ptr %1194, i64 %1207
  %1209 = load i32, ptr %1208, align 4, !tbaa !45
  %1210 = icmp eq i32 %1209, 1
  br i1 %1210, label %1242, label %1211

1211:                                             ; preds = %1203
  %1212 = load ptr, ptr %1090, align 8, !tbaa !143
  %1213 = getelementptr inbounds %"class.std::vector.53", ptr %1212, i64 %1207
  %1214 = load ptr, ptr %1213, align 8, !tbaa !144
  %1215 = getelementptr inbounds i64, ptr %1214, i64 %1092
  %1216 = load i64, ptr %1215, align 8, !tbaa !145
  %1217 = and i64 %1216, %1095
  %1218 = icmp eq i64 %1217, 0
  br i1 %1218, label %1258, label %1219

1219:                                             ; preds = %1211
  %1220 = getelementptr inbounds i32, ptr %1197, i64 %1207
  %1221 = load i32, ptr %1220, align 4, !tbaa !45
  br label %1222

1222:                                             ; preds = %1222, %1219
  %1223 = phi i64 [ %1230, %1222 ], [ 0, %1219 ]
  %1224 = phi i32 [ %1235, %1222 ], [ 0, %1219 ]
  %1225 = phi ptr [ %1234, %1222 ], [ %1214, %1219 ]
  %1226 = zext i32 %1224 to i64
  %1227 = load i64, ptr %1225, align 8, !tbaa !145
  %1228 = lshr i64 %1227, %1226
  %1229 = and i64 %1228, 1
  %1230 = add nuw nsw i64 %1229, %1223
  %1231 = add i32 %1224, 1
  %1232 = icmp eq i32 %1224, 63
  %1233 = zext i1 %1232 to i64
  %1234 = getelementptr inbounds i64, ptr %1225, i64 %1233
  %1235 = select i1 %1232, i32 0, i32 %1231
  %1236 = icmp ne ptr %1234, %1215
  %1237 = icmp ne i32 %1235, %1093
  %1238 = or i1 %1237, %1236
  br i1 %1238, label %1222, label %1239

1239:                                             ; preds = %1222
  %1240 = trunc i64 %1230 to i32
  %1241 = add i32 %1221, %1240
  br label %1251

1242:                                             ; preds = %1203
  %1243 = load ptr, ptr %1097, align 8, !tbaa !64
  %1244 = getelementptr inbounds %"struct.std::pair.77", ptr %1243, i64 %1207
  %1245 = load i64, ptr %1244, align 4
  %1246 = trunc i64 %1245 to i32
  %1247 = icmp eq i32 %1087, %1246
  br i1 %1247, label %1248, label %1258

1248:                                             ; preds = %1242
  %1249 = getelementptr inbounds i32, ptr %1197, i64 %1207
  %1250 = load i32, ptr %1249, align 4, !tbaa !45
  br label %1251

1251:                                             ; preds = %1248, %1239
  %1252 = phi i32 [ %1241, %1239 ], [ %1250, %1248 ]
  %1253 = mul i32 %1199, %1252
  %1254 = add i32 %1253, %1196
  %1255 = zext i32 %1254 to i64
  %1256 = getelementptr inbounds double, ptr %1198, i64 %1255
  %1257 = load double, ptr %1256, align 8, !tbaa !18
  br label %1258

1258:                                             ; preds = %1251, %1242, %1211
  %1259 = phi double [ 0.000000e+00, %1242 ], [ 0.000000e+00, %1211 ], [ %1257, %1251 ]
  %1260 = trunc i64 %1204 to i32
  %1261 = add i32 %1202, %1260
  %1262 = zext i32 %1261 to i64
  %1263 = getelementptr inbounds double, ptr %1098, i64 %1262
  store double %1259, ptr %1263, align 8, !tbaa !18
  %1264 = add nuw nsw i64 %1204, 1
  %1265 = icmp eq i64 %1264, %46
  br i1 %1265, label %1266, label %1203

1266:                                             ; preds = %1258
  %1267 = add nuw i32 %1196, 1
  %1268 = icmp eq i32 %1267, %45
  br i1 %1268, label %1100, label %1195

1269:                                             ; preds = %1193, %1314
  %1270 = phi i32 [ %1315, %1314 ], [ 0, %1193 ]
  %1271 = load ptr, ptr %1076, align 8
  %1272 = load ptr, ptr %1077, align 8
  %1273 = load i32, ptr %1078, align 8
  %1274 = mul i32 %1270, %27
  %1275 = mul i32 %1099, %1274
  br label %1276

1276:                                             ; preds = %1306, %1269
  %1277 = phi i64 [ %1312, %1306 ], [ 0, %1269 ]
  %1278 = getelementptr inbounds i32, ptr %56, i64 %1277
  %1279 = load i32, ptr %1278, align 4, !tbaa !45
  %1280 = zext i32 %1279 to i64
  %1281 = getelementptr inbounds i32, ptr %1194, i64 %1280
  %1282 = load i32, ptr %1281, align 4, !tbaa !45
  %1283 = icmp eq i32 %1282, 1
  br i1 %1283, label %1292, label %1284

1284:                                             ; preds = %1276
  %1285 = load ptr, ptr %1090, align 8, !tbaa !143
  %1286 = getelementptr inbounds %"class.std::vector.53", ptr %1285, i64 %1280
  %1287 = load ptr, ptr %1286, align 8, !tbaa !144
  %1288 = getelementptr inbounds i64, ptr %1287, i64 %1092
  %1289 = load i64, ptr %1288, align 8, !tbaa !145
  %1290 = and i64 %1289, %1095
  %1291 = icmp eq i64 %1290, 0
  br i1 %1291, label %1306, label %1298

1292:                                             ; preds = %1276
  %1293 = load ptr, ptr %1097, align 8, !tbaa !64
  %1294 = getelementptr inbounds %"struct.std::pair.77", ptr %1293, i64 %1280
  %1295 = load i64, ptr %1294, align 4
  %1296 = and i64 %1295, 4294967295
  %1297 = icmp eq i64 %1296, 0
  br i1 %1297, label %1298, label %1306

1298:                                             ; preds = %1292, %1284
  %1299 = getelementptr inbounds i32, ptr %1271, i64 %1280
  %1300 = load i32, ptr %1299, align 4, !tbaa !45
  %1301 = mul i32 %1273, %1300
  %1302 = add i32 %1301, %1270
  %1303 = zext i32 %1302 to i64
  %1304 = getelementptr inbounds double, ptr %1272, i64 %1303
  %1305 = load double, ptr %1304, align 8, !tbaa !18
  br label %1306

1306:                                             ; preds = %1298, %1292, %1284
  %1307 = phi double [ 0.000000e+00, %1292 ], [ 0.000000e+00, %1284 ], [ %1305, %1298 ]
  %1308 = trunc i64 %1277 to i32
  %1309 = add i32 %1275, %1308
  %1310 = zext i32 %1309 to i64
  %1311 = getelementptr inbounds double, ptr %1098, i64 %1310
  store double %1307, ptr %1311, align 8, !tbaa !18
  %1312 = add nuw nsw i64 %1277, 1
  %1313 = icmp eq i64 %1312, %46
  br i1 %1313, label %1314, label %1276

1314:                                             ; preds = %1306
  %1315 = add nuw i32 %1270, 1
  %1316 = icmp eq i32 %1315, %45
  br i1 %1316, label %1100, label %1269

1317:                                             ; preds = %1100, %1073, %1071
  call void @llvm.lifetime.start.p0(i64 120, ptr nonnull %12) #25
  invoke void @_ZN6dealii10FullMatrixIdEC2Ej(ptr noundef nonnull align 8 dereferenceable(92) %12, i32 noundef 0)
          to label %1318 unwind label %1422

1318:                                             ; preds = %1317
  store ptr getelementptr inbounds ({ [4 x ptr] }, ptr @_ZTVN6dealii11HouseholderIdEE, i64 0, inrange i32 0, i64 2), ptr %12, align 8, !tbaa !25
  %1319 = getelementptr inbounds %"class.dealii::Householder", ptr %12, i64 0, i32 1
  call void @llvm.memset.p0.i64(ptr noundef nonnull align 8 dereferenceable(24) %1319, i8 0, i64 24, i1 false)
  invoke void @_ZN6dealii11HouseholderIdE10initializeIdEEvRKNS_10FullMatrixIT_EE(ptr noundef nonnull align 8 dereferenceable(120) %12, ptr noundef nonnull align 8 dereferenceable(92) %11)
          to label %1335 unwind label %1320

1320:                                             ; preds = %1318
  %1321 = landingpad { ptr, i32 }
          cleanup
  %1322 = load ptr, ptr %1319, align 8, !tbaa !15
  %1323 = icmp eq ptr %1322, null
  br i1 %1323, label %1325, label %1324

1324:                                             ; preds = %1320
  call void @_ZdlPv(ptr noundef nonnull %1322) #28
  br label %1325

1325:                                             ; preds = %1324, %1320
  invoke void @_ZN6dealii9TableBaseILi2EdED2Ev(ptr noundef nonnull align 8 dereferenceable(92) %12)
          to label %2193 unwind label %1326

1326:                                             ; preds = %1325
  %1327 = landingpad { ptr, i32 }
          catch ptr null
  %1328 = extractvalue { ptr, i32 } %1327, 0
  call void @__clang_call_terminate(ptr %1328) #24
  unreachable

1329:                                             ; preds = %2159, %1066
  %1330 = landingpad { ptr, i32 }
          cleanup
  br label %2211

1331:                                             ; preds = %1068, %1067
  %1332 = landingpad { ptr, i32 }
          cleanup
  call void @llvm.lifetime.end.p0(i64 16, ptr nonnull %10) #25
  br label %2202

1333:                                             ; preds = %2156, %1069
  %1334 = landingpad { ptr, i32 }
          cleanup
  br label %2200

1335:                                             ; preds = %1318
  call void @llvm.lifetime.start.p0(i64 88, ptr nonnull %13) #25
  invoke void @_ZN6dealii11SubscriptorC2Ev(ptr noundef nonnull align 8 dereferenceable(72) %13)
          to label %1336 unwind label %1424

1336:                                             ; preds = %1335
  store ptr getelementptr inbounds ({ [6 x ptr] }, ptr @_ZTVN6dealii6VectorIdEE, i64 0, inrange i32 0, i64 2), ptr %13, align 8, !tbaa !25
  %1337 = getelementptr inbounds %"class.dealii::Vector", ptr %13, i64 0, i32 1
  call void @llvm.memset.p0.i64(ptr noundef nonnull align 8 dereferenceable(16) %1337, i8 0, i64 16, i1 false)
  %1338 = icmp eq i32 %1070, 0
  br i1 %1338, label %1351, label %1339

1339:                                             ; preds = %1336
  %1340 = zext i32 %1070 to i64
  %1341 = shl nuw nsw i64 %1340, 3
  %1342 = invoke noalias noundef nonnull ptr @_Znam(i64 noundef %1341) #27
          to label %1343 unwind label %1346

1343:                                             ; preds = %1339
  %1344 = getelementptr inbounds %"class.dealii::Vector", ptr %13, i64 0, i32 3
  %1345 = getelementptr inbounds %"class.dealii::Vector", ptr %13, i64 0, i32 2
  store ptr %1342, ptr %1344, align 8, !tbaa !126
  store i32 %1070, ptr %1345, align 4, !tbaa !128
  store i32 %1070, ptr %1337, align 8, !tbaa !129
  call void @llvm.memset.p0.i64(ptr nonnull align 8 %1342, i8 0, i64 %1341, i1 false), !tbaa !18
  br label %1351

1346:                                             ; preds = %1339
  %1347 = landingpad { ptr, i32 }
          cleanup
  invoke void @_ZN6dealii11SubscriptorD2Ev(ptr noundef nonnull align 8 dereferenceable(72) %13)
          to label %2182 unwind label %1348

1348:                                             ; preds = %1346
  %1349 = landingpad { ptr, i32 }
          catch ptr null
  %1350 = extractvalue { ptr, i32 } %1349, 0
  call void @__clang_call_terminate(ptr %1350) #24
  unreachable

1351:                                             ; preds = %1343, %1336
  call void @llvm.lifetime.start.p0(i64 88, ptr nonnull %14) #25
  invoke void @_ZN6dealii11SubscriptorC2Ev(ptr noundef nonnull align 8 dereferenceable(72) %14)
          to label %1352 unwind label %1426

1352:                                             ; preds = %1351
  store ptr getelementptr inbounds ({ [6 x ptr] }, ptr @_ZTVN6dealii6VectorIdEE, i64 0, inrange i32 0, i64 2), ptr %14, align 8, !tbaa !25
  %1353 = getelementptr inbounds %"class.dealii::Vector", ptr %14, i64 0, i32 1
  call void @llvm.memset.p0.i64(ptr noundef nonnull align 8 dereferenceable(16) %1353, i8 0, i64 16, i1 false)
  br i1 %47, label %1365, label %1354

1354:                                             ; preds = %1352
  %1355 = shl nuw nsw i64 %46, 3
  %1356 = invoke noalias noundef nonnull ptr @_Znam(i64 noundef %1355) #27
          to label %1357 unwind label %1360

1357:                                             ; preds = %1354
  %1358 = getelementptr inbounds %"class.dealii::Vector", ptr %14, i64 0, i32 3
  %1359 = getelementptr inbounds %"class.dealii::Vector", ptr %14, i64 0, i32 2
  store ptr %1356, ptr %1358, align 8, !tbaa !126
  store i32 %25, ptr %1359, align 4, !tbaa !128
  store i32 %25, ptr %1353, align 8, !tbaa !129
  call void @llvm.memset.p0.i64(ptr nonnull align 8 %1356, i8 0, i64 %1355, i1 false), !tbaa !18
  br label %1365

1360:                                             ; preds = %1354
  %1361 = landingpad { ptr, i32 }
          cleanup
  invoke void @_ZN6dealii11SubscriptorD2Ev(ptr noundef nonnull align 8 dereferenceable(72) %14)
          to label %2175 unwind label %1362

1362:                                             ; preds = %1360
  %1363 = landingpad { ptr, i32 }
          catch ptr null
  %1364 = extractvalue { ptr, i32 } %1363, 0
  call void @__clang_call_terminate(ptr %1364) #24
  unreachable

1365:                                             ; preds = %1352, %1357
  %1366 = getelementptr inbounds %"class.dealii::TriaAccessorBase", ptr %21, i64 0, i32 2
  %1367 = getelementptr inbounds %"class.dealii::TriaAccessorBase", ptr %21, i64 0, i32 1
  %1368 = getelementptr inbounds %"class.dealii::TriaAccessorBase", ptr %19, i64 0, i32 2
  %1369 = getelementptr inbounds %"class.dealii::TriaAccessorBase", ptr %19, i64 0, i32 1
  %1370 = getelementptr inbounds i8, ptr %18, i64 4
  %1371 = getelementptr inbounds i8, ptr %18, i64 8
  %1372 = icmp eq i32 %45, 0
  %1373 = getelementptr inbounds %"class.dealii::FEValuesBase", ptr %17, i64 0, i32 6
  %1374 = getelementptr inbounds i8, ptr %17, i64 480
  %1375 = getelementptr inbounds i8, ptr %17, i64 144
  %1376 = getelementptr inbounds i8, ptr %17, i64 160
  %1377 = getelementptr inbounds %"class.dealii::Vector", ptr %13, i64 0, i32 3
  %1378 = getelementptr inbounds %"class.dealii::Vector", ptr %14, i64 0, i32 3
  %1379 = getelementptr inbounds %"class.dealii::FEValues", ptr %17, i64 0, i32 1
  %1380 = and i64 %44, 4294967295
  %1381 = and i64 %44, 4294967295
  %1382 = and i64 %44, 4294967295
  %1383 = and i64 %44, 4294967295
  %1384 = and i64 %44, 4294967295
  %1385 = add nsw i64 %46, -1
  %1386 = add nsw i64 %46, -1
  %1387 = add nsw i64 %1380, -1
  %1388 = add nsw i64 %1380, -1
  %1389 = icmp ult i64 %1380, 20
  %1390 = icmp ne i32 %27, 1
  %1391 = trunc i64 %1388 to i32
  %1392 = icmp ugt i64 %1388, 4294967295
  %1393 = and i64 %44, 15
  %1394 = sub nsw i64 %1380, %1393
  %1395 = icmp eq i64 %1393, 0
  %1396 = icmp ult i64 %1380, 16
  %1397 = icmp ne i32 %27, 1
  %1398 = trunc i64 %1387 to i32
  %1399 = icmp ugt i64 %1387, 4294967295
  %1400 = and i64 %44, 15
  %1401 = sub nsw i64 %1380, %1400
  %1402 = icmp eq i64 %1400, 0
  %1403 = icmp ult i32 %25, 20
  %1404 = trunc i64 %1386 to i32
  %1405 = icmp ugt i64 %1386, 4294967295
  %1406 = and i64 %46, 4294967280
  %1407 = icmp eq i64 %1406, %46
  %1408 = and i64 %46, 3
  %1409 = icmp eq i64 %1408, 0
  %1410 = icmp ult i32 %25, 20
  %1411 = trunc i64 %1385 to i32
  %1412 = icmp ugt i64 %1385, 4294967295
  %1413 = and i64 %46, 4294967280
  %1414 = icmp eq i64 %1413, %46
  %1415 = and i64 %46, 3
  %1416 = icmp eq i64 %1415, 0
  br label %1428

1417:                                             ; preds = %2115
  store ptr getelementptr inbounds ({ [6 x ptr] }, ptr @_ZTVN6dealii6VectorIdEE, i64 0, inrange i32 0, i64 2), ptr %14, align 8, !tbaa !25
  %1418 = load ptr, ptr %1378, align 8, !tbaa !126
  %1419 = icmp eq ptr %1418, null
  br i1 %1419, label %1421, label %1420

1420:                                             ; preds = %1417
  call void @_ZdaPv(ptr noundef nonnull %1418) #28
  store ptr null, ptr %1378, align 8, !tbaa !126
  br label %1421

1421:                                             ; preds = %1420, %1417
  invoke void @_ZN6dealii11SubscriptorD2Ev(ptr noundef nonnull align 8 dereferenceable(72) %14)
          to label %2136 unwind label %1426

1422:                                             ; preds = %2150, %1317
  %1423 = landingpad { ptr, i32 }
          cleanup
  br label %2193

1424:                                             ; preds = %2140, %1335
  %1425 = landingpad { ptr, i32 }
          cleanup
  br label %2182

1426:                                             ; preds = %1421, %1351
  %1427 = landingpad { ptr, i32 }
          cleanup
  br label %2175

1428:                                             ; preds = %1365, %2115
  %1429 = phi i64 [ 0, %1365 ], [ %2116, %2115 ]
  call void @llvm.lifetime.start.p0(i64 128, ptr nonnull %15) #25
  call void @llvm.lifetime.start.p0(i64 1, ptr nonnull %16) #25
  store i8 -1, ptr %16, align 1
  %1430 = trunc i64 %1429 to i32
  invoke void @_ZN6dealii10QProjectorILi3EE18project_to_subfaceERKNS_10QuadratureILi2EEEjjRKNS_14RefinementCaseILi2EEE(ptr nonnull sret(%"class.dealii::Quadrature") align 8 %15, ptr noundef nonnull align 8 dereferenceable(128) %7, i32 noundef %2, i32 noundef %1430, ptr noundef nonnull align 1 dereferenceable(1) %16)
          to label %1431 unwind label %1992

1431:                                             ; preds = %1428
  call void @llvm.lifetime.end.p0(i64 1, ptr nonnull %16) #25
  call void @llvm.lifetime.start.p0(i64 776, ptr nonnull %17) #25
  invoke void @_ZN6dealii8FEValuesILi3ELi3EEC1ERKNS_7MappingILi3ELi3EEERKNS_13FiniteElementILi3ELi3EEERKNS_10QuadratureILi3EEENS_11UpdateFlagsE(ptr noundef nonnull align 8 dereferenceable(776) %17, ptr noundef nonnull align 8 dereferenceable(72) %6, ptr noundef nonnull align 8 dereferenceable(728) %0, ptr noundef nonnull align 8 dereferenceable(128) %15, i32 noundef 1)
          to label %1432 unwind label %1994

1432:                                             ; preds = %1431
  call void @llvm.lifetime.start.p0(i64 16, ptr nonnull %18) #25
  call void @llvm.lifetime.start.p0(i64 16, ptr nonnull %19) #25
  invoke void @_ZNK6dealii13TriangulationILi3ELi3EE5beginEj(ptr nonnull sret(%"class.dealii::TriaIterator") align 8 %19, ptr noundef nonnull align 8 dereferenceable(8552) %5, i32 noundef 0)
          to label %1433 unwind label %1996

1433:                                             ; preds = %1432
  call void @llvm.lifetime.start.p0(i64 1, ptr nonnull %20) #25
  call void @llvm.lifetime.start.p0(i64 16, ptr nonnull %21) #25
  invoke void @_ZNK6dealii13TriangulationILi3ELi3EE5beginEj(ptr nonnull sret(%"class.dealii::TriaIterator") align 8 %21, ptr noundef nonnull align 8 dereferenceable(8552) %5, i32 noundef 0)
          to label %1434 unwind label %1998

1434:                                             ; preds = %1433
  %1435 = load ptr, ptr %1366, align 8, !tbaa !134
  %1436 = getelementptr inbounds %"class.dealii::Triangulation", ptr %1435, i64 0, i32 1
  %1437 = load i32, ptr %21, align 8, !tbaa !136
  %1438 = sext i32 %1437 to i64
  %1439 = load ptr, ptr %1436, align 8, !tbaa !137
  %1440 = getelementptr inbounds ptr, ptr %1439, i64 %1438
  %1441 = load ptr, ptr %1440, align 8, !tbaa !27
  %1442 = getelementptr inbounds %"class.dealii::internal::Triangulation::TriaLevel", ptr %1441, i64 0, i32 4, i32 0, i32 2
  %1443 = load i32, ptr %1367, align 4, !tbaa !139
  %1444 = sext i32 %1443 to i64
  %1445 = load ptr, ptr %1442, align 8, !tbaa !207
  %1446 = getelementptr inbounds %"class.dealii::RefinementCase", ptr %1445, i64 %1444
  %1447 = load i8, ptr %1446, align 1
  store i8 %1447, ptr %20, align 1
  call void @llvm.lifetime.start.p0(i64 1, ptr nonnull %22) #25
  store i8 -1, ptr %22, align 1
  %1448 = invoke noundef i32 @_ZN6dealii12GeometryInfoILi3EE18child_cell_on_faceERKNS_14RefinementCaseILi3EEEjjbbbRKNS2_ILi2EEE(ptr noundef nonnull align 1 dereferenceable(1) %20, i32 noundef %2, i32 noundef %1430, i1 noundef zeroext true, i1 noundef zeroext false, i1 noundef zeroext false, ptr noundef nonnull align 1 dereferenceable(1) %22)
          to label %1449 unwind label %2000

1449:                                             ; preds = %1434
  %1450 = load ptr, ptr %1368, align 8, !tbaa !134, !noalias !209
  %1451 = load i32, ptr %19, align 8, !tbaa !136, !noalias !209
  %1452 = add nsw i32 %1451, 1
  %1453 = getelementptr inbounds %"class.dealii::Triangulation", ptr %1450, i64 0, i32 1
  %1454 = sext i32 %1451 to i64
  %1455 = load ptr, ptr %1453, align 8, !tbaa !137, !noalias !209
  %1456 = getelementptr inbounds ptr, ptr %1455, i64 %1454
  %1457 = load ptr, ptr %1456, align 8, !tbaa !27, !noalias !209
  %1458 = getelementptr inbounds %"class.dealii::internal::Triangulation::TriaLevel", ptr %1457, i64 0, i32 4, i32 0, i32 1
  %1459 = load i32, ptr %1369, align 4, !tbaa !139, !noalias !209
  %1460 = shl i32 %1459, 2
  %1461 = lshr i32 %1448, 1
  %1462 = add i32 %1460, %1461
  %1463 = zext i32 %1462 to i64
  %1464 = load ptr, ptr %1458, align 8, !tbaa !166, !noalias !209
  %1465 = getelementptr inbounds i32, ptr %1464, i64 %1463
  %1466 = load i32, ptr %1465, align 4, !tbaa !45, !noalias !209
  %1467 = and i32 %1448, 1
  %1468 = add i32 %1466, %1467
  store i32 %1452, ptr %18, align 8
  store i32 %1468, ptr %1370, align 4
  store ptr %1450, ptr %1371, align 8
  call void @llvm.lifetime.end.p0(i64 1, ptr nonnull %22) #25
  call void @llvm.lifetime.end.p0(i64 16, ptr nonnull %21) #25
  call void @llvm.lifetime.end.p0(i64 1, ptr nonnull %20) #25
  call void @llvm.lifetime.end.p0(i64 16, ptr nonnull %19) #25
  invoke void @_ZN6dealii8FEValuesILi3ELi3EE6reinitERKNS_12TriaIteratorINS_12CellAccessorILi3ELi3EEEEE(ptr noundef nonnull align 8 dereferenceable(776) %9, ptr noundef nonnull align 8 dereferenceable(16) %18)
          to label %1469 unwind label %2006

1469:                                             ; preds = %1449
  call void @llvm.lifetime.start.p0(i64 16, ptr nonnull %23) #25
  invoke void @_ZNK6dealii13TriangulationILi3ELi3EE5beginEj(ptr nonnull sret(%"class.dealii::TriaIterator") align 8 %23, ptr noundef nonnull align 8 dereferenceable(8552) %5, i32 noundef 0)
          to label %1470 unwind label %2008

1470:                                             ; preds = %1469
  invoke void @_ZN6dealii8FEValuesILi3ELi3EE6reinitERKNS_12TriaIteratorINS_12CellAccessorILi3ELi3EEEEE(ptr noundef nonnull align 8 dereferenceable(776) %17, ptr noundef nonnull align 8 dereferenceable(16) %23)
          to label %1471 unwind label %2008

1471:                                             ; preds = %1470
  call void @llvm.lifetime.end.p0(i64 16, ptr nonnull %23) #25
  %1472 = getelementptr inbounds [4 x %"class.dealii::FullMatrix"], ptr %1, i64 0, i64 %1429
  br i1 %47, label %1891, label %1473

1473:                                             ; preds = %1471
  %1474 = getelementptr inbounds %"class.dealii::TableBase", ptr %1472, i64 0, i32 1
  %1475 = getelementptr inbounds %"class.dealii::TableBase", ptr %1472, i64 0, i32 3, i32 0, i32 0, i64 1
  br i1 %1072, label %1987, label %1476

1476:                                             ; preds = %1473, %1486
  %1477 = phi i64 [ %1487, %1486 ], [ 0, %1473 ]
  %1478 = shl nuw nsw i64 %1477, 3
  %1479 = trunc i64 %1477 to i32
  %1480 = load ptr, ptr %1373, align 8
  %1481 = getelementptr inbounds %"class.dealii::FiniteElement", ptr %1480, i64 0, i32 20
  %1482 = getelementptr inbounds %"class.dealii::FiniteElement", ptr %1480, i64 0, i32 19
  %1483 = getelementptr inbounds %"class.dealii::FiniteElement", ptr %1480, i64 0, i32 12
  %1484 = load ptr, ptr %1377, align 8
  %1485 = ptrtoint ptr %1484 to i64
  br i1 %1372, label %1580, label %1582

1486:                                             ; preds = %1577, %1489, %1559
  %1487 = add nuw nsw i64 %1477, 1
  %1488 = icmp eq i64 %1487, %46
  br i1 %1488, label %1891, label %1476

1489:                                             ; preds = %1577, %1489
  %1490 = phi i64 [ %1522, %1489 ], [ %1578, %1577 ]
  %1491 = getelementptr inbounds double, ptr %1525, i64 %1490
  %1492 = load double, ptr %1491, align 8, !tbaa !18
  %1493 = trunc i64 %1490 to i32
  %1494 = mul i32 %1529, %1493
  %1495 = add i32 %1494, %1530
  %1496 = zext i32 %1495 to i64
  %1497 = getelementptr inbounds double, ptr %1527, i64 %1496
  store double %1492, ptr %1497, align 8, !tbaa !18
  %1498 = add nuw nsw i64 %1490, 1
  %1499 = getelementptr inbounds double, ptr %1525, i64 %1498
  %1500 = load double, ptr %1499, align 8, !tbaa !18
  %1501 = trunc i64 %1498 to i32
  %1502 = mul i32 %1529, %1501
  %1503 = add i32 %1502, %1530
  %1504 = zext i32 %1503 to i64
  %1505 = getelementptr inbounds double, ptr %1527, i64 %1504
  store double %1500, ptr %1505, align 8, !tbaa !18
  %1506 = add nuw nsw i64 %1490, 2
  %1507 = getelementptr inbounds double, ptr %1525, i64 %1506
  %1508 = load double, ptr %1507, align 8, !tbaa !18
  %1509 = trunc i64 %1506 to i32
  %1510 = mul i32 %1529, %1509
  %1511 = add i32 %1510, %1530
  %1512 = zext i32 %1511 to i64
  %1513 = getelementptr inbounds double, ptr %1527, i64 %1512
  store double %1508, ptr %1513, align 8, !tbaa !18
  %1514 = add nuw nsw i64 %1490, 3
  %1515 = getelementptr inbounds double, ptr %1525, i64 %1514
  %1516 = load double, ptr %1515, align 8, !tbaa !18
  %1517 = trunc i64 %1514 to i32
  %1518 = mul i32 %1529, %1517
  %1519 = add i32 %1518, %1530
  %1520 = zext i32 %1519 to i64
  %1521 = getelementptr inbounds double, ptr %1527, i64 %1520
  store double %1516, ptr %1521, align 8, !tbaa !18
  %1522 = add nuw nsw i64 %1490, 4
  %1523 = icmp eq i64 %1522, %46
  br i1 %1523, label %1486, label %1489, !llvm.loop !212

1524:                                             ; preds = %1580
  %1525 = load ptr, ptr %1378, align 8, !tbaa !126
  %1526 = ptrtoint ptr %1525 to i64
  %1527 = load ptr, ptr %1474, align 8, !tbaa !31
  %1528 = ptrtoint ptr %1527 to i64
  %1529 = load i32, ptr %1475, align 8, !tbaa !45
  %1530 = trunc i64 %1477 to i32
  br i1 %1403, label %1560, label %1531

1531:                                             ; preds = %1524
  %1532 = icmp ne i32 %1529, 1
  %1533 = xor i32 %1479, -1
  %1534 = icmp ult i32 %1533, %1404
  %1535 = or i1 %1534, %1405
  %1536 = or i1 %1532, %1535
  br i1 %1536, label %1560, label %1537

1537:                                             ; preds = %1531
  %1538 = add i64 %1478, %1528
  %1539 = sub i64 %1538, %1526
  %1540 = icmp ult i64 %1539, 128
  br i1 %1540, label %1560, label %1541

1541:                                             ; preds = %1537, %1541
  %1542 = phi i64 [ %1557, %1541 ], [ 0, %1537 ]
  %1543 = getelementptr inbounds double, ptr %1525, i64 %1542
  %1544 = load <4 x double>, ptr %1543, align 8, !tbaa !18
  %1545 = getelementptr inbounds double, ptr %1543, i64 4
  %1546 = load <4 x double>, ptr %1545, align 8, !tbaa !18
  %1547 = getelementptr inbounds double, ptr %1543, i64 8
  %1548 = load <4 x double>, ptr %1547, align 8, !tbaa !18
  %1549 = getelementptr inbounds double, ptr %1543, i64 12
  %1550 = load <4 x double>, ptr %1549, align 8, !tbaa !18
  %1551 = add i64 %1542, %1477
  %1552 = and i64 %1551, 4294967295
  %1553 = getelementptr inbounds double, ptr %1527, i64 %1552
  store <4 x double> %1544, ptr %1553, align 8, !tbaa !18
  %1554 = getelementptr inbounds double, ptr %1553, i64 4
  store <4 x double> %1546, ptr %1554, align 8, !tbaa !18
  %1555 = getelementptr inbounds double, ptr %1553, i64 8
  store <4 x double> %1548, ptr %1555, align 8, !tbaa !18
  %1556 = getelementptr inbounds double, ptr %1553, i64 12
  store <4 x double> %1550, ptr %1556, align 8, !tbaa !18
  %1557 = add nuw i64 %1542, 16
  %1558 = icmp eq i64 %1557, %1406
  br i1 %1558, label %1559, label %1541, !llvm.loop !213

1559:                                             ; preds = %1541
  br i1 %1407, label %1486, label %1560

1560:                                             ; preds = %1537, %1531, %1524, %1559
  %1561 = phi i64 [ 0, %1537 ], [ 0, %1531 ], [ 0, %1524 ], [ %1406, %1559 ]
  %1562 = xor i64 %1561, -1
  %1563 = add nsw i64 %1562, %46
  br i1 %1409, label %1577, label %1564

1564:                                             ; preds = %1560, %1564
  %1565 = phi i64 [ %1574, %1564 ], [ %1561, %1560 ]
  %1566 = phi i64 [ %1575, %1564 ], [ 0, %1560 ]
  %1567 = getelementptr inbounds double, ptr %1525, i64 %1565
  %1568 = load double, ptr %1567, align 8, !tbaa !18
  %1569 = trunc i64 %1565 to i32
  %1570 = mul i32 %1529, %1569
  %1571 = add i32 %1570, %1530
  %1572 = zext i32 %1571 to i64
  %1573 = getelementptr inbounds double, ptr %1527, i64 %1572
  store double %1568, ptr %1573, align 8, !tbaa !18
  %1574 = add nuw nsw i64 %1565, 1
  %1575 = add i64 %1566, 1
  %1576 = icmp eq i64 %1575, %1408
  br i1 %1576, label %1577, label %1564, !llvm.loop !214

1577:                                             ; preds = %1564, %1560
  %1578 = phi i64 [ %1561, %1560 ], [ %1574, %1564 ]
  %1579 = icmp ult i64 %1563, 3
  br i1 %1579, label %1486, label %1489

1580:                                             ; preds = %1619, %1722, %1886, %1476
  %1581 = invoke noundef double @_ZNK6dealii11HouseholderIdE13least_squaresIdEEdRNS_6VectorIT_EERKS5_(ptr noundef nonnull align 8 dereferenceable(120) %12, ptr noundef nonnull align 8 dereferenceable(88) %14, ptr noundef nonnull align 8 dereferenceable(88) %13)
          to label %1524 unwind label %1889

1582:                                             ; preds = %1476
  %1583 = getelementptr inbounds %"class.dealii::FiniteElement", ptr %1480, i64 0, i32 2
  %1584 = getelementptr inbounds i32, ptr %55, i64 %1477
  %1585 = load i32, ptr %1584, align 4, !tbaa !45
  %1586 = load i8, ptr %1583, align 4, !tbaa !76, !range !117, !noundef !118
  %1587 = icmp eq i8 %1586, 0
  %1588 = zext i32 %1585 to i64
  br i1 %1587, label %1625, label %1622

1589:                                             ; preds = %1622, %1619
  %1590 = phi i32 [ 0, %1622 ], [ %1620, %1619 ]
  %1591 = load ptr, ptr %1374, align 8
  %1592 = load ptr, ptr %1375, align 8
  %1593 = load i32, ptr %1376, align 8
  %1594 = getelementptr inbounds i32, ptr %1591, i64 %1588
  br label %1595

1595:                                             ; preds = %1610, %1589
  %1596 = phi i64 [ %1617, %1610 ], [ 0, %1589 ]
  %1597 = load i64, ptr %1624, align 4
  %1598 = trunc i64 %1597 to i32
  %1599 = icmp eq i32 %1590, %1598
  br i1 %1599, label %1602, label %1600

1600:                                             ; preds = %1595
  %1601 = trunc i64 %1596 to i32
  br label %1610

1602:                                             ; preds = %1595
  %1603 = load i32, ptr %1594, align 4, !tbaa !45
  %1604 = mul i32 %1593, %1603
  %1605 = trunc i64 %1596 to i32
  %1606 = add i32 %1604, %1605
  %1607 = zext i32 %1606 to i64
  %1608 = getelementptr inbounds double, ptr %1592, i64 %1607
  %1609 = load double, ptr %1608, align 8, !tbaa !18
  br label %1610

1610:                                             ; preds = %1600, %1602
  %1611 = phi i32 [ %1601, %1600 ], [ %1605, %1602 ]
  %1612 = phi double [ 0.000000e+00, %1600 ], [ %1609, %1602 ]
  %1613 = mul i32 %1611, %27
  %1614 = add i32 %1613, %1590
  %1615 = zext i32 %1614 to i64
  %1616 = getelementptr inbounds double, ptr %1484, i64 %1615
  store double %1612, ptr %1616, align 8, !tbaa !18
  %1617 = add nuw nsw i64 %1596, 1
  %1618 = icmp eq i64 %1617, %1380
  br i1 %1618, label %1619, label %1595

1619:                                             ; preds = %1610
  %1620 = add nuw i32 %1590, 1
  %1621 = icmp eq i32 %1620, %27
  br i1 %1621, label %1580, label %1589

1622:                                             ; preds = %1582
  %1623 = load ptr, ptr %1483, align 8, !tbaa !64
  %1624 = getelementptr inbounds %"struct.std::pair.77", ptr %1623, i64 %1588
  br label %1589

1625:                                             ; preds = %1582
  %1626 = load ptr, ptr %1481, align 8, !tbaa !54
  %1627 = getelementptr inbounds i32, ptr %1626, i64 %1588
  %1628 = load i32, ptr %1627, align 4, !tbaa !45
  %1629 = icmp eq i32 %1628, 1
  br i1 %1629, label %1853, label %1849

1630:                                             ; preds = %1849, %1722
  %1631 = phi i32 [ 0, %1849 ], [ %1723, %1722 ]
  %1632 = lshr i32 %1631, 6
  %1633 = zext i32 %1632 to i64
  %1634 = and i32 %1631, 63
  %1635 = zext i32 %1634 to i64
  %1636 = shl nuw i64 1, %1635
  %1637 = load ptr, ptr %1375, align 8
  %1638 = ptrtoint ptr %1637 to i64
  %1639 = load i32, ptr %1376, align 8
  %1640 = getelementptr inbounds i64, ptr %1852, i64 %1633
  %1641 = load i64, ptr %1640, align 8, !tbaa !145
  %1642 = and i64 %1641, %1636
  %1643 = icmp eq i64 %1642, 0
  br i1 %1643, label %1644, label %1717

1644:                                             ; preds = %1630
  br i1 %1396, label %1662, label %1645

1645:                                             ; preds = %1644
  %1646 = xor i32 %1631, -1
  %1647 = icmp ult i32 %1646, %1398
  %1648 = or i1 %1647, %1399
  %1649 = or i1 %1397, %1648
  br i1 %1649, label %1662, label %1650

1650:                                             ; preds = %1645, %1650
  %1651 = phi i64 [ %1659, %1650 ], [ 0, %1645 ]
  %1652 = trunc i64 %1651 to i32
  %1653 = add i32 %1631, %1652
  %1654 = zext i32 %1653 to i64
  %1655 = getelementptr inbounds double, ptr %1484, i64 %1654
  store <4 x double> zeroinitializer, ptr %1655, align 8, !tbaa !18
  %1656 = getelementptr inbounds double, ptr %1655, i64 4
  store <4 x double> zeroinitializer, ptr %1656, align 8, !tbaa !18
  %1657 = getelementptr inbounds double, ptr %1655, i64 8
  store <4 x double> zeroinitializer, ptr %1657, align 8, !tbaa !18
  %1658 = getelementptr inbounds double, ptr %1655, i64 12
  store <4 x double> zeroinitializer, ptr %1658, align 8, !tbaa !18
  %1659 = add nuw i64 %1651, 16
  %1660 = icmp eq i64 %1659, %1401
  br i1 %1660, label %1661, label %1650, !llvm.loop !215

1661:                                             ; preds = %1650
  br i1 %1402, label %1722, label %1662

1662:                                             ; preds = %1645, %1644, %1661
  %1663 = phi i64 [ 0, %1645 ], [ 0, %1644 ], [ %1401, %1661 ]
  %1664 = sub nsw i64 %44, %1663
  %1665 = xor i64 %1663, -1
  %1666 = add nsw i64 %1380, %1665
  %1667 = and i64 %1664, 3
  %1668 = icmp eq i64 %1667, 0
  br i1 %1668, label %1680, label %1669

1669:                                             ; preds = %1662, %1669
  %1670 = phi i64 [ %1677, %1669 ], [ %1663, %1662 ]
  %1671 = phi i64 [ %1678, %1669 ], [ 0, %1662 ]
  %1672 = trunc i64 %1670 to i32
  %1673 = mul i32 %27, %1672
  %1674 = add i32 %1673, %1631
  %1675 = zext i32 %1674 to i64
  %1676 = getelementptr inbounds double, ptr %1484, i64 %1675
  store double 0.000000e+00, ptr %1676, align 8, !tbaa !18
  %1677 = add nuw nsw i64 %1670, 1
  %1678 = add i64 %1671, 1
  %1679 = icmp eq i64 %1678, %1667
  br i1 %1679, label %1680, label %1669, !llvm.loop !216

1680:                                             ; preds = %1669, %1662
  %1681 = phi i64 [ %1663, %1662 ], [ %1677, %1669 ]
  %1682 = icmp ult i64 %1666, 3
  br i1 %1682, label %1722, label %1725

1683:                                             ; preds = %1717, %1702
  %1684 = phi i64 [ %1715, %1702 ], [ 0, %1717 ]
  br label %1685

1685:                                             ; preds = %1685, %1683
  %1686 = phi i64 [ %1693, %1685 ], [ 0, %1683 ]
  %1687 = phi i32 [ %1698, %1685 ], [ 0, %1683 ]
  %1688 = phi ptr [ %1697, %1685 ], [ %1852, %1683 ]
  %1689 = zext i32 %1687 to i64
  %1690 = load i64, ptr %1688, align 8, !tbaa !145
  %1691 = lshr i64 %1690, %1689
  %1692 = and i64 %1691, 1
  %1693 = add nuw nsw i64 %1692, %1686
  %1694 = add i32 %1687, 1
  %1695 = icmp eq i32 %1687, 63
  %1696 = zext i1 %1695 to i64
  %1697 = getelementptr inbounds i64, ptr %1688, i64 %1696
  %1698 = select i1 %1695, i32 0, i32 %1694
  %1699 = icmp ne ptr %1697, %1640
  %1700 = icmp ne i32 %1698, %1634
  %1701 = or i1 %1700, %1699
  br i1 %1701, label %1685, label %1702

1702:                                             ; preds = %1685
  %1703 = trunc i64 %1693 to i32
  %1704 = add i32 %1721, %1703
  %1705 = mul i32 %1639, %1704
  %1706 = trunc i64 %1684 to i32
  %1707 = add i32 %1705, %1706
  %1708 = zext i32 %1707 to i64
  %1709 = getelementptr inbounds double, ptr %1637, i64 %1708
  %1710 = load double, ptr %1709, align 8, !tbaa !18
  %1711 = mul i32 %27, %1706
  %1712 = add i32 %1711, %1631
  %1713 = zext i32 %1712 to i64
  %1714 = getelementptr inbounds double, ptr %1484, i64 %1713
  store double %1710, ptr %1714, align 8, !tbaa !18
  %1715 = add nuw nsw i64 %1684, 1
  %1716 = icmp eq i64 %1715, %1381
  br i1 %1716, label %1722, label %1683

1717:                                             ; preds = %1630
  %1718 = icmp eq i32 %1631, 0
  %1719 = load ptr, ptr %1374, align 8
  %1720 = getelementptr inbounds i32, ptr %1719, i64 %1588
  %1721 = load i32, ptr %1720, align 4, !tbaa !45
  br i1 %1718, label %1752, label %1683

1722:                                             ; preds = %1702, %1807, %1810, %1680, %1725, %1785, %1661
  %1723 = add nuw i32 %1631, 1
  %1724 = icmp eq i32 %1723, %27
  br i1 %1724, label %1580, label %1630

1725:                                             ; preds = %1680, %1725
  %1726 = phi i64 [ %1750, %1725 ], [ %1681, %1680 ]
  %1727 = trunc i64 %1726 to i32
  %1728 = mul i32 %27, %1727
  %1729 = add i32 %1728, %1631
  %1730 = zext i32 %1729 to i64
  %1731 = getelementptr inbounds double, ptr %1484, i64 %1730
  store double 0.000000e+00, ptr %1731, align 8, !tbaa !18
  %1732 = trunc i64 %1726 to i32
  %1733 = add i32 %1732, 1
  %1734 = mul i32 %27, %1733
  %1735 = add i32 %1734, %1631
  %1736 = zext i32 %1735 to i64
  %1737 = getelementptr inbounds double, ptr %1484, i64 %1736
  store double 0.000000e+00, ptr %1737, align 8, !tbaa !18
  %1738 = trunc i64 %1726 to i32
  %1739 = add i32 %1738, 2
  %1740 = mul i32 %27, %1739
  %1741 = add i32 %1740, %1631
  %1742 = zext i32 %1741 to i64
  %1743 = getelementptr inbounds double, ptr %1484, i64 %1742
  store double 0.000000e+00, ptr %1743, align 8, !tbaa !18
  %1744 = trunc i64 %1726 to i32
  %1745 = add i32 %1744, 3
  %1746 = mul i32 %27, %1745
  %1747 = add i32 %1746, %1631
  %1748 = zext i32 %1747 to i64
  %1749 = getelementptr inbounds double, ptr %1484, i64 %1748
  store double 0.000000e+00, ptr %1749, align 8, !tbaa !18
  %1750 = add nuw nsw i64 %1726, 4
  %1751 = icmp eq i64 %1750, %1383
  br i1 %1751, label %1722, label %1725, !llvm.loop !217

1752:                                             ; preds = %1717
  %1753 = mul i32 %1639, %1721
  br i1 %1389, label %1786, label %1754

1754:                                             ; preds = %1752
  %1755 = xor i32 %1753, -1
  %1756 = icmp ult i32 %1755, %1391
  %1757 = or i1 %1756, %1392
  %1758 = or i1 %1390, %1757
  br i1 %1758, label %1786, label %1759

1759:                                             ; preds = %1754
  %1760 = zext i32 %1753 to i64
  %1761 = shl nuw nsw i64 %1760, 3
  %1762 = add i64 %1761, %1638
  %1763 = sub i64 %1485, %1762
  %1764 = icmp ult i64 %1763, 128
  br i1 %1764, label %1786, label %1765

1765:                                             ; preds = %1759, %1765
  %1766 = phi i64 [ %1783, %1765 ], [ 0, %1759 ]
  %1767 = trunc i64 %1766 to i32
  %1768 = add i32 %1753, %1767
  %1769 = zext i32 %1768 to i64
  %1770 = getelementptr inbounds double, ptr %1637, i64 %1769
  %1771 = load <4 x double>, ptr %1770, align 8, !tbaa !18
  %1772 = getelementptr inbounds double, ptr %1770, i64 4
  %1773 = load <4 x double>, ptr %1772, align 8, !tbaa !18
  %1774 = getelementptr inbounds double, ptr %1770, i64 8
  %1775 = load <4 x double>, ptr %1774, align 8, !tbaa !18
  %1776 = getelementptr inbounds double, ptr %1770, i64 12
  %1777 = load <4 x double>, ptr %1776, align 8, !tbaa !18
  %1778 = and i64 %1766, 4294967280
  %1779 = getelementptr inbounds double, ptr %1484, i64 %1778
  store <4 x double> %1771, ptr %1779, align 8, !tbaa !18
  %1780 = getelementptr inbounds double, ptr %1779, i64 4
  store <4 x double> %1773, ptr %1780, align 8, !tbaa !18
  %1781 = getelementptr inbounds double, ptr %1779, i64 8
  store <4 x double> %1775, ptr %1781, align 8, !tbaa !18
  %1782 = getelementptr inbounds double, ptr %1779, i64 12
  store <4 x double> %1777, ptr %1782, align 8, !tbaa !18
  %1783 = add nuw i64 %1766, 16
  %1784 = icmp eq i64 %1783, %1394
  br i1 %1784, label %1785, label %1765, !llvm.loop !218

1785:                                             ; preds = %1765
  br i1 %1395, label %1722, label %1786

1786:                                             ; preds = %1759, %1754, %1752, %1785
  %1787 = phi i64 [ 0, %1759 ], [ 0, %1754 ], [ 0, %1752 ], [ %1394, %1785 ]
  %1788 = sub nsw i64 %44, %1787
  %1789 = xor i64 %1787, -1
  %1790 = add nsw i64 %1380, %1789
  %1791 = and i64 %1788, 3
  %1792 = icmp eq i64 %1791, 0
  br i1 %1792, label %1807, label %1793

1793:                                             ; preds = %1786, %1793
  %1794 = phi i64 [ %1804, %1793 ], [ %1787, %1786 ]
  %1795 = phi i64 [ %1805, %1793 ], [ 0, %1786 ]
  %1796 = trunc i64 %1794 to i32
  %1797 = add i32 %1753, %1796
  %1798 = zext i32 %1797 to i64
  %1799 = getelementptr inbounds double, ptr %1637, i64 %1798
  %1800 = load double, ptr %1799, align 8, !tbaa !18
  %1801 = mul i32 %27, %1796
  %1802 = zext i32 %1801 to i64
  %1803 = getelementptr inbounds double, ptr %1484, i64 %1802
  store double %1800, ptr %1803, align 8, !tbaa !18
  %1804 = add nuw nsw i64 %1794, 1
  %1805 = add i64 %1795, 1
  %1806 = icmp eq i64 %1805, %1791
  br i1 %1806, label %1807, label %1793, !llvm.loop !219

1807:                                             ; preds = %1793, %1786
  %1808 = phi i64 [ %1787, %1786 ], [ %1804, %1793 ]
  %1809 = icmp ult i64 %1790, 3
  br i1 %1809, label %1722, label %1810

1810:                                             ; preds = %1807, %1810
  %1811 = phi i64 [ %1847, %1810 ], [ %1808, %1807 ]
  %1812 = trunc i64 %1811 to i32
  %1813 = add i32 %1753, %1812
  %1814 = zext i32 %1813 to i64
  %1815 = getelementptr inbounds double, ptr %1637, i64 %1814
  %1816 = load double, ptr %1815, align 8, !tbaa !18
  %1817 = mul i32 %27, %1812
  %1818 = zext i32 %1817 to i64
  %1819 = getelementptr inbounds double, ptr %1484, i64 %1818
  store double %1816, ptr %1819, align 8, !tbaa !18
  %1820 = trunc i64 %1811 to i32
  %1821 = add i32 %1820, 1
  %1822 = add i32 %1753, %1821
  %1823 = zext i32 %1822 to i64
  %1824 = getelementptr inbounds double, ptr %1637, i64 %1823
  %1825 = load double, ptr %1824, align 8, !tbaa !18
  %1826 = mul i32 %27, %1821
  %1827 = zext i32 %1826 to i64
  %1828 = getelementptr inbounds double, ptr %1484, i64 %1827
  store double %1825, ptr %1828, align 8, !tbaa !18
  %1829 = trunc i64 %1811 to i32
  %1830 = add i32 %1829, 2
  %1831 = add i32 %1753, %1830
  %1832 = zext i32 %1831 to i64
  %1833 = getelementptr inbounds double, ptr %1637, i64 %1832
  %1834 = load double, ptr %1833, align 8, !tbaa !18
  %1835 = mul i32 %27, %1830
  %1836 = zext i32 %1835 to i64
  %1837 = getelementptr inbounds double, ptr %1484, i64 %1836
  store double %1834, ptr %1837, align 8, !tbaa !18
  %1838 = trunc i64 %1811 to i32
  %1839 = add i32 %1838, 3
  %1840 = add i32 %1753, %1839
  %1841 = zext i32 %1840 to i64
  %1842 = getelementptr inbounds double, ptr %1637, i64 %1841
  %1843 = load double, ptr %1842, align 8, !tbaa !18
  %1844 = mul i32 %27, %1839
  %1845 = zext i32 %1844 to i64
  %1846 = getelementptr inbounds double, ptr %1484, i64 %1845
  store double %1843, ptr %1846, align 8, !tbaa !18
  %1847 = add nuw nsw i64 %1811, 4
  %1848 = icmp eq i64 %1847, %1382
  br i1 %1848, label %1722, label %1810, !llvm.loop !220

1849:                                             ; preds = %1625
  %1850 = load ptr, ptr %1482, align 8, !tbaa !143
  %1851 = getelementptr inbounds %"class.std::vector.53", ptr %1850, i64 %1588
  %1852 = load ptr, ptr %1851, align 8, !tbaa !144
  br label %1630

1853:                                             ; preds = %1625
  %1854 = load ptr, ptr %1483, align 8, !tbaa !64
  %1855 = getelementptr inbounds %"struct.std::pair.77", ptr %1854, i64 %1588
  br label %1856

1856:                                             ; preds = %1886, %1853
  %1857 = phi i32 [ 0, %1853 ], [ %1887, %1886 ]
  %1858 = load ptr, ptr %1374, align 8
  %1859 = load ptr, ptr %1375, align 8
  %1860 = load i32, ptr %1376, align 8
  %1861 = getelementptr inbounds i32, ptr %1858, i64 %1588
  br label %1862

1862:                                             ; preds = %1877, %1856
  %1863 = phi i64 [ %1884, %1877 ], [ 0, %1856 ]
  %1864 = load i64, ptr %1855, align 4
  %1865 = trunc i64 %1864 to i32
  %1866 = icmp eq i32 %1857, %1865
  br i1 %1866, label %1869, label %1867

1867:                                             ; preds = %1862
  %1868 = trunc i64 %1863 to i32
  br label %1877

1869:                                             ; preds = %1862
  %1870 = load i32, ptr %1861, align 4, !tbaa !45
  %1871 = mul i32 %1860, %1870
  %1872 = trunc i64 %1863 to i32
  %1873 = add i32 %1871, %1872
  %1874 = zext i32 %1873 to i64
  %1875 = getelementptr inbounds double, ptr %1859, i64 %1874
  %1876 = load double, ptr %1875, align 8, !tbaa !18
  br label %1877

1877:                                             ; preds = %1867, %1869
  %1878 = phi i32 [ %1868, %1867 ], [ %1872, %1869 ]
  %1879 = phi double [ 0.000000e+00, %1867 ], [ %1876, %1869 ]
  %1880 = mul i32 %1878, %27
  %1881 = add i32 %1880, %1857
  %1882 = zext i32 %1881 to i64
  %1883 = getelementptr inbounds double, ptr %1484, i64 %1882
  store double %1879, ptr %1883, align 8, !tbaa !18
  %1884 = add nuw nsw i64 %1863, 1
  %1885 = icmp eq i64 %1884, %1384
  br i1 %1885, label %1886, label %1862

1886:                                             ; preds = %1877
  %1887 = add nuw i32 %1857, 1
  %1888 = icmp eq i32 %1887, %27
  br i1 %1888, label %1580, label %1856

1889:                                             ; preds = %1580
  %1890 = landingpad { ptr, i32 }
          cleanup
  br label %2118

1891:                                             ; preds = %1486, %2066, %1471
  %1892 = getelementptr inbounds %"class.dealii::TableBase", ptr %1472, i64 0, i32 3
  %1893 = load i32, ptr %1892, align 4, !tbaa !45
  %1894 = icmp eq i32 %1893, 0
  br i1 %1894, label %2107, label %1895

1895:                                             ; preds = %1891
  %1896 = getelementptr inbounds %"class.dealii::TableBase", ptr %1472, i64 0, i32 3, i32 0, i32 0, i64 1
  %1897 = load i32, ptr %1896, align 8, !tbaa !45
  %1898 = icmp eq i32 %1897, 0
  br i1 %1898, label %2107, label %1899

1899:                                             ; preds = %1895
  %1900 = getelementptr inbounds %"class.dealii::TableBase", ptr %1472, i64 0, i32 1
  %1901 = load ptr, ptr %1900, align 8, !tbaa !31
  %1902 = zext i32 %1897 to i64
  %1903 = add nsw i64 %1902, -1
  %1904 = icmp ult i32 %1897, 16
  %1905 = trunc i64 %1903 to i32
  %1906 = icmp ugt i64 %1903, 4294967295
  %1907 = and i64 %1902, 4294967280
  %1908 = icmp eq i64 %1907, %1902
  %1909 = and i64 %1902, 1
  %1910 = icmp eq i64 %1909, 0
  %1911 = sub nsw i64 0, %1902
  br label %1912

1912:                                             ; preds = %1984, %1899
  %1913 = phi i32 [ 0, %1899 ], [ %1985, %1984 ]
  %1914 = mul i32 %1897, %1913
  br i1 %1904, label %1944, label %1915

1915:                                             ; preds = %1912
  %1916 = mul i32 %1897, %1913
  %1917 = xor i32 %1916, -1
  %1918 = icmp ult i32 %1917, %1905
  %1919 = or i1 %1918, %1906
  br i1 %1919, label %1944, label %1920

1920:                                             ; preds = %1915, %1920
  %1921 = phi i64 [ %1941, %1920 ], [ 0, %1915 ]
  %1922 = trunc i64 %1921 to i32
  %1923 = add i32 %1914, %1922
  %1924 = zext i32 %1923 to i64
  %1925 = getelementptr double, ptr %1901, i64 %1924
  %1926 = load <4 x double>, ptr %1925, align 8, !tbaa !18
  %1927 = getelementptr double, ptr %1925, i64 4
  %1928 = load <4 x double>, ptr %1927, align 8, !tbaa !18
  %1929 = getelementptr double, ptr %1925, i64 8
  %1930 = load <4 x double>, ptr %1929, align 8, !tbaa !18
  %1931 = getelementptr double, ptr %1925, i64 12
  %1932 = load <4 x double>, ptr %1931, align 8, !tbaa !18
  %1933 = call <4 x double> @llvm.fabs.v4f64(<4 x double> %1926)
  %1934 = call <4 x double> @llvm.fabs.v4f64(<4 x double> %1928)
  %1935 = call <4 x double> @llvm.fabs.v4f64(<4 x double> %1930)
  %1936 = call <4 x double> @llvm.fabs.v4f64(<4 x double> %1932)
  %1937 = fcmp olt <4 x double> %1933, <double 0x3D719799812DEA11, double 0x3D719799812DEA11, double 0x3D719799812DEA11, double 0x3D719799812DEA11>
  %1938 = fcmp olt <4 x double> %1934, <double 0x3D719799812DEA11, double 0x3D719799812DEA11, double 0x3D719799812DEA11, double 0x3D719799812DEA11>
  %1939 = fcmp olt <4 x double> %1935, <double 0x3D719799812DEA11, double 0x3D719799812DEA11, double 0x3D719799812DEA11, double 0x3D719799812DEA11>
  %1940 = fcmp olt <4 x double> %1936, <double 0x3D719799812DEA11, double 0x3D719799812DEA11, double 0x3D719799812DEA11, double 0x3D719799812DEA11>
  call void @llvm.masked.store.v4f64.p0(<4 x double> zeroinitializer, ptr %1925, i32 8, <4 x i1> %1937), !tbaa !18
  call void @llvm.masked.store.v4f64.p0(<4 x double> zeroinitializer, ptr %1927, i32 8, <4 x i1> %1938), !tbaa !18
  call void @llvm.masked.store.v4f64.p0(<4 x double> zeroinitializer, ptr %1929, i32 8, <4 x i1> %1939), !tbaa !18
  call void @llvm.masked.store.v4f64.p0(<4 x double> zeroinitializer, ptr %1931, i32 8, <4 x i1> %1940), !tbaa !18
  %1941 = add nuw i64 %1921, 16
  %1942 = icmp eq i64 %1941, %1907
  br i1 %1942, label %1943, label %1920, !llvm.loop !221

1943:                                             ; preds = %1920
  br i1 %1908, label %1984, label %1944

1944:                                             ; preds = %1915, %1912, %1943
  %1945 = phi i64 [ 0, %1915 ], [ 0, %1912 ], [ %1907, %1943 ]
  %1946 = xor i64 %1945, -1
  br i1 %1910, label %1958, label %1947

1947:                                             ; preds = %1944
  %1948 = trunc i64 %1945 to i32
  %1949 = add i32 %1914, %1948
  %1950 = zext i32 %1949 to i64
  %1951 = getelementptr inbounds double, ptr %1901, i64 %1950
  %1952 = load double, ptr %1951, align 8, !tbaa !18
  %1953 = call double @llvm.fabs.f64(double %1952)
  %1954 = fcmp olt double %1953, 0x3D719799812DEA11
  br i1 %1954, label %1955, label %1956

1955:                                             ; preds = %1947
  store double 0.000000e+00, ptr %1951, align 8, !tbaa !18
  br label %1956

1956:                                             ; preds = %1955, %1947
  %1957 = or i64 %1945, 1
  br label %1958

1958:                                             ; preds = %1956, %1944
  %1959 = phi i64 [ %1945, %1944 ], [ %1957, %1956 ]
  %1960 = icmp eq i64 %1946, %1911
  br i1 %1960, label %1984, label %1961

1961:                                             ; preds = %1958, %1981
  %1962 = phi i64 [ %1982, %1981 ], [ %1959, %1958 ]
  %1963 = trunc i64 %1962 to i32
  %1964 = add i32 %1914, %1963
  %1965 = zext i32 %1964 to i64
  %1966 = getelementptr inbounds double, ptr %1901, i64 %1965
  %1967 = load double, ptr %1966, align 8, !tbaa !18
  %1968 = call double @llvm.fabs.f64(double %1967)
  %1969 = fcmp olt double %1968, 0x3D719799812DEA11
  br i1 %1969, label %1970, label %1971

1970:                                             ; preds = %1961
  store double 0.000000e+00, ptr %1966, align 8, !tbaa !18
  br label %1971

1971:                                             ; preds = %1970, %1961
  %1972 = trunc i64 %1962 to i32
  %1973 = add i32 %1972, 1
  %1974 = add i32 %1914, %1973
  %1975 = zext i32 %1974 to i64
  %1976 = getelementptr inbounds double, ptr %1901, i64 %1975
  %1977 = load double, ptr %1976, align 8, !tbaa !18
  %1978 = call double @llvm.fabs.f64(double %1977)
  %1979 = fcmp olt double %1978, 0x3D719799812DEA11
  br i1 %1979, label %1980, label %1981

1980:                                             ; preds = %1971
  store double 0.000000e+00, ptr %1976, align 8, !tbaa !18
  br label %1981

1981:                                             ; preds = %1980, %1971
  %1982 = add nuw nsw i64 %1962, 2
  %1983 = icmp eq i64 %1982, %1902
  br i1 %1983, label %1984, label %1961, !llvm.loop !222

1984:                                             ; preds = %1958, %1981, %1943
  %1985 = add nuw i32 %1913, 1
  %1986 = icmp eq i32 %1985, %1893
  br i1 %1986, label %2107, label %1912

1987:                                             ; preds = %1473, %2066
  %1988 = phi i64 [ %2069, %2066 ], [ 0, %1473 ]
  %1989 = phi i32 [ %2067, %2066 ], [ 0, %1473 ]
  %1990 = shl nuw nsw i64 %1988, 3
  %1991 = invoke noundef double @_ZNK6dealii11HouseholderIdE13least_squaresIdEEdRNS_6VectorIT_EERKS5_(ptr noundef nonnull align 8 dereferenceable(120) %12, ptr noundef nonnull align 8 dereferenceable(88) %14, ptr noundef nonnull align 8 dereferenceable(88) %13)
          to label %2010 unwind label %2070

1992:                                             ; preds = %1428
  %1993 = landingpad { ptr, i32 }
          cleanup
  call void @llvm.lifetime.end.p0(i64 1, ptr nonnull %16) #25
  br label %2130

1994:                                             ; preds = %2108, %1431
  %1995 = landingpad { ptr, i32 }
          cleanup
  br label %2126

1996:                                             ; preds = %1432
  %1997 = landingpad { ptr, i32 }
          cleanup
  br label %2004

1998:                                             ; preds = %1433
  %1999 = landingpad { ptr, i32 }
          cleanup
  br label %2002

2000:                                             ; preds = %1434
  %2001 = landingpad { ptr, i32 }
          cleanup
  call void @llvm.lifetime.end.p0(i64 1, ptr nonnull %22) #25
  br label %2002

2002:                                             ; preds = %2000, %1998
  %2003 = phi { ptr, i32 } [ %2001, %2000 ], [ %1999, %1998 ]
  call void @llvm.lifetime.end.p0(i64 16, ptr nonnull %21) #25
  call void @llvm.lifetime.end.p0(i64 1, ptr nonnull %20) #25
  br label %2004

2004:                                             ; preds = %2002, %1996
  %2005 = phi { ptr, i32 } [ %2003, %2002 ], [ %1997, %1996 ]
  call void @llvm.lifetime.end.p0(i64 16, ptr nonnull %19) #25
  br label %2118

2006:                                             ; preds = %1449
  %2007 = landingpad { ptr, i32 }
          cleanup
  br label %2118

2008:                                             ; preds = %1470, %1469
  %2009 = landingpad { ptr, i32 }
          cleanup
  call void @llvm.lifetime.end.p0(i64 16, ptr nonnull %23) #25
  br label %2118

2010:                                             ; preds = %1987
  %2011 = load ptr, ptr %1378, align 8, !tbaa !126
  %2012 = ptrtoint ptr %2011 to i64
  %2013 = load ptr, ptr %1474, align 8, !tbaa !31
  %2014 = ptrtoint ptr %2013 to i64
  %2015 = load i32, ptr %1475, align 8, !tbaa !45
  br i1 %1410, label %2046, label %2016

2016:                                             ; preds = %2010
  %2017 = icmp ne i32 %2015, 1
  %2018 = xor i32 %1989, -1
  %2019 = icmp ult i32 %2018, %1411
  %2020 = or i1 %2019, %1412
  %2021 = or i1 %2017, %2020
  br i1 %2021, label %2046, label %2022

2022:                                             ; preds = %2016
  %2023 = add i64 %1990, %2014
  %2024 = sub i64 %2023, %2012
  %2025 = icmp ult i64 %2024, 128
  br i1 %2025, label %2046, label %2026

2026:                                             ; preds = %2022, %2026
  %2027 = phi i64 [ %2043, %2026 ], [ 0, %2022 ]
  %2028 = trunc i64 %2027 to i32
  %2029 = getelementptr inbounds double, ptr %2011, i64 %2027
  %2030 = load <4 x double>, ptr %2029, align 8, !tbaa !18
  %2031 = getelementptr inbounds double, ptr %2029, i64 4
  %2032 = load <4 x double>, ptr %2031, align 8, !tbaa !18
  %2033 = getelementptr inbounds double, ptr %2029, i64 8
  %2034 = load <4 x double>, ptr %2033, align 8, !tbaa !18
  %2035 = getelementptr inbounds double, ptr %2029, i64 12
  %2036 = load <4 x double>, ptr %2035, align 8, !tbaa !18
  %2037 = add i32 %1989, %2028
  %2038 = zext i32 %2037 to i64
  %2039 = getelementptr inbounds double, ptr %2013, i64 %2038
  store <4 x double> %2030, ptr %2039, align 8, !tbaa !18
  %2040 = getelementptr inbounds double, ptr %2039, i64 4
  store <4 x double> %2032, ptr %2040, align 8, !tbaa !18
  %2041 = getelementptr inbounds double, ptr %2039, i64 8
  store <4 x double> %2034, ptr %2041, align 8, !tbaa !18
  %2042 = getelementptr inbounds double, ptr %2039, i64 12
  store <4 x double> %2036, ptr %2042, align 8, !tbaa !18
  %2043 = add nuw i64 %2027, 16
  %2044 = icmp eq i64 %2043, %1413
  br i1 %2044, label %2045, label %2026, !llvm.loop !223

2045:                                             ; preds = %2026
  br i1 %1414, label %2066, label %2046

2046:                                             ; preds = %2022, %2016, %2010, %2045
  %2047 = phi i64 [ 0, %2022 ], [ 0, %2016 ], [ 0, %2010 ], [ %1413, %2045 ]
  %2048 = xor i64 %2047, -1
  %2049 = add nsw i64 %2048, %46
  br i1 %1416, label %2063, label %2050

2050:                                             ; preds = %2046, %2050
  %2051 = phi i64 [ %2060, %2050 ], [ %2047, %2046 ]
  %2052 = phi i64 [ %2061, %2050 ], [ 0, %2046 ]
  %2053 = getelementptr inbounds double, ptr %2011, i64 %2051
  %2054 = load double, ptr %2053, align 8, !tbaa !18
  %2055 = trunc i64 %2051 to i32
  %2056 = mul i32 %2015, %2055
  %2057 = add i32 %2056, %1989
  %2058 = zext i32 %2057 to i64
  %2059 = getelementptr inbounds double, ptr %2013, i64 %2058
  store double %2054, ptr %2059, align 8, !tbaa !18
  %2060 = add nuw nsw i64 %2051, 1
  %2061 = add i64 %2052, 1
  %2062 = icmp eq i64 %2061, %1415
  br i1 %2062, label %2063, label %2050, !llvm.loop !224

2063:                                             ; preds = %2050, %2046
  %2064 = phi i64 [ %2047, %2046 ], [ %2060, %2050 ]
  %2065 = icmp ult i64 %2049, 3
  br i1 %2065, label %2066, label %2072

2066:                                             ; preds = %2063, %2072, %2045
  %2067 = add nuw i32 %1989, 1
  %2068 = icmp eq i32 %2067, %25
  %2069 = add i64 %1988, 1
  br i1 %2068, label %1891, label %1987

2070:                                             ; preds = %1987
  %2071 = landingpad { ptr, i32 }
          cleanup
  br label %2118

2072:                                             ; preds = %2063, %2072
  %2073 = phi i64 [ %2105, %2072 ], [ %2064, %2063 ]
  %2074 = getelementptr inbounds double, ptr %2011, i64 %2073
  %2075 = load double, ptr %2074, align 8, !tbaa !18
  %2076 = trunc i64 %2073 to i32
  %2077 = mul i32 %2015, %2076
  %2078 = add i32 %2077, %1989
  %2079 = zext i32 %2078 to i64
  %2080 = getelementptr inbounds double, ptr %2013, i64 %2079
  store double %2075, ptr %2080, align 8, !tbaa !18
  %2081 = add nuw nsw i64 %2073, 1
