; ModuleID = 'source/fe/mapping_q.cc'
source_filename = "source/fe/mapping_q.cc"
target datalayout = "e-m:e-p270:32:32-p271:32:32-p272:64:64-i64:64-f80:128-n8:16:32:64-S128"
target triple = "x86_64-pc-linux-gnu"

module asm ".globl _ZSt21ios_base_library_initv"

%"class.dealii::StraightBoundary" = type { %"class.dealii::Boundary" }
%"class.dealii::Boundary" = type { %"class.dealii::Subscriptor" }
%"class.dealii::Subscriptor" = type { ptr, i32, %"class.std::map", ptr }
%"class.std::map" = type { %"class.std::_Rb_tree" }
%"class.std::_Rb_tree" = type { %"struct.std::_Rb_tree<const char *, std::pair<const char *const, unsigned int>, std::_Select1st<std::pair<const char *const, unsigned int> >, std::less<const char *> >::_Rb_tree_impl" }
%"struct.std::_Rb_tree<const char *, std::pair<const char *const, unsigned int>, std::_Select1st<std::pair<const char *const, unsigned int> >, std::less<const char *> >::_Rb_tree_impl" = type { %"struct.std::_Rb_tree_key_compare", %"struct.std::_Rb_tree_header" }
%"struct.std::_Rb_tree_key_compare" = type { %"struct.std::less" }
%"struct.std::less" = type { i8 }
%"struct.std::_Rb_tree_header" = type { %"struct.std::_Rb_tree_node_base", i64 }
%"struct.std::_Rb_tree_node_base" = type { i32, ptr, ptr, ptr }
%"class.dealii::FiniteElementData" = type { i32, i32, i32, i32, i32, i32, i32, i32, i32, i32, i32, i32, i32, i32, i32 }
%"class.std::vector" = type { %"struct.std::_Vector_base" }
%"struct.std::_Vector_base" = type { %"struct.std::_Vector_base<unsigned int, std::allocator<unsigned int> >::_Vector_impl" }
%"struct.std::_Vector_base<unsigned int, std::allocator<unsigned int> >::_Vector_impl" = type { %"struct.std::_Vector_base<unsigned int, std::allocator<unsigned int> >::_Vector_impl_data" }
%"struct.std::_Vector_base<unsigned int, std::allocator<unsigned int> >::_Vector_impl_data" = type { ptr, ptr, ptr }
%"class.std::vector.67" = type { %"struct.std::_Vector_base.68" }
%"struct.std::_Vector_base.68" = type { %"struct.std::_Vector_base<dealii::Polynomials::LagrangeEquidistant, std::allocator<dealii::Polynomials::LagrangeEquidistant> >::_Vector_impl" }
%"struct.std::_Vector_base<dealii::Polynomials::LagrangeEquidistant, std::allocator<dealii::Polynomials::LagrangeEquidistant> >::_Vector_impl" = type { %"struct.std::_Vector_base<dealii::Polynomials::LagrangeEquidistant, std::allocator<dealii::Polynomials::LagrangeEquidistant> >::_Vector_impl_data" }
%"struct.std::_Vector_base<dealii::Polynomials::LagrangeEquidistant, std::allocator<dealii::Polynomials::LagrangeEquidistant> >::_Vector_impl_data" = type { ptr, ptr, ptr }
%"class.dealii::Polynomials::LagrangeEquidistant" = type { %"class.dealii::Polynomials::Polynomial" }
%"class.dealii::Polynomials::Polynomial" = type { %"class.dealii::Subscriptor", %"class.std::vector.72" }
%"class.std::vector.72" = type { %"struct.std::_Vector_base.73" }
%"struct.std::_Vector_base.73" = type { %"struct.std::_Vector_base<double, std::allocator<double> >::_Vector_impl" }
%"struct.std::_Vector_base<double, std::allocator<double> >::_Vector_impl" = type { %"struct.std::_Vector_base<double, std::allocator<double> >::_Vector_impl_data" }
%"struct.std::_Vector_base<double, std::allocator<double> >::_Vector_impl_data" = type { ptr, ptr, ptr }
%"class.dealii::MappingQ" = type { %"class.dealii::MappingQ1", %"class.dealii::Table", %"class.dealii::Table", i32, i32, i32, ptr, i32, %"class.std::vector", i8, %"class.dealii::FE_Q" }
%"class.dealii::MappingQ1" = type { %"class.dealii::Mapping" }
%"class.dealii::Mapping" = type { %"class.dealii::Subscriptor" }
%"class.dealii::Table" = type { %"class.dealii::TableBase.base", [4 x i8] }
%"class.dealii::TableBase.base" = type <{ %"class.dealii::Subscriptor", ptr, i32, %"class.dealii::TableIndices" }>
%"class.dealii::TableIndices" = type { %"class.dealii::TableIndicesBase" }
%"class.dealii::TableIndicesBase" = type { [2 x i32] }
%"class.dealii::FE_Q" = type { %"class.dealii::FE_Poly", %"class.std::vector" }
%"class.dealii::FE_Poly" = type { %"class.dealii::FiniteElement", %"class.dealii::TensorProductPolynomials" }
%"class.dealii::FiniteElement" = type { %"class.dealii::Subscriptor", %"class.dealii::FiniteElementData", i8, %"class.std::vector.19", %"class.std::vector.19", %"class.dealii::FullMatrix", %"class.std::vector.24", %"class.std::vector.29", %"class.std::vector.24", %"class.std::vector.29", %"class.dealii::Table.34", %"class.std::vector.38", %"class.std::vector.43", %"class.std::vector.43", %"class.std::vector.48", %"class.std::vector.48", %"class.std::vector", %"class.std::vector.48", %"class.std::vector.53", %"class.std::vector.57", %"class.std::vector" }
%"class.std::vector.19" = type { %"struct.std::_Vector_base.20" }
%"struct.std::_Vector_base.20" = type { %"struct.std::_Vector_base<std::vector<dealii::FullMatrix<double> >, std::allocator<std::vector<dealii::FullMatrix<double> > > >::_Vector_impl" }
%"struct.std::_Vector_base<std::vector<dealii::FullMatrix<double> >, std::allocator<std::vector<dealii::FullMatrix<double> > > >::_Vector_impl" = type { %"struct.std::_Vector_base<std::vector<dealii::FullMatrix<double> >, std::allocator<std::vector<dealii::FullMatrix<double> > > >::_Vector_impl_data" }
%"struct.std::_Vector_base<std::vector<dealii::FullMatrix<double> >, std::allocator<std::vector<dealii::FullMatrix<double> > > >::_Vector_impl_data" = type { ptr, ptr, ptr }
%"class.dealii::FullMatrix" = type { %"class.dealii::Table.base", [4 x i8] }
%"class.dealii::Table.base" = type { %"class.dealii::TableBase.base" }
%"class.std::vector.24" = type { %"struct.std::_Vector_base.25" }
%"struct.std::_Vector_base.25" = type { %"struct.std::_Vector_base<dealii::Point<3>, std::allocator<dealii::Point<3> > >::_Vector_impl" }
%"struct.std::_Vector_base<dealii::Point<3>, std::allocator<dealii::Point<3> > >::_Vector_impl" = type { %"struct.std::_Vector_base<dealii::Point<3>, std::allocator<dealii::Point<3> > >::_Vector_impl_data" }
%"struct.std::_Vector_base<dealii::Point<3>, std::allocator<dealii::Point<3> > >::_Vector_impl_data" = type { ptr, ptr, ptr }
%"class.std::vector.29" = type { %"struct.std::_Vector_base.30" }
%"struct.std::_Vector_base.30" = type { %"struct.std::_Vector_base<dealii::Point<2>, std::allocator<dealii::Point<2> > >::_Vector_impl" }
%"struct.std::_Vector_base<dealii::Point<2>, std::allocator<dealii::Point<2> > >::_Vector_impl" = type { %"struct.std::_Vector_base<dealii::Point<2>, std::allocator<dealii::Point<2> > >::_Vector_impl_data" }
%"struct.std::_Vector_base<dealii::Point<2>, std::allocator<dealii::Point<2> > >::_Vector_impl_data" = type { ptr, ptr, ptr }
%"class.dealii::Table.34" = type { %"class.dealii::TableBase.base.36", [4 x i8] }
%"class.dealii::TableBase.base.36" = type <{ %"class.dealii::Subscriptor", ptr, i32, %"class.dealii::TableIndices" }>
%"class.std::vector.38" = type { %"struct.std::_Vector_base.39" }
%"struct.std::_Vector_base.39" = type { %"struct.std::_Vector_base<int, std::allocator<int> >::_Vector_impl" }
%"struct.std::_Vector_base<int, std::allocator<int> >::_Vector_impl" = type { %"struct.std::_Vector_base<int, std::allocator<int> >::_Vector_impl_data" }
%"struct.std::_Vector_base<int, std::allocator<int> >::_Vector_impl_data" = type { ptr, ptr, ptr }
%"class.std::vector.43" = type { %"struct.std::_Vector_base.44" }
%"struct.std::_Vector_base.44" = type { %"struct.std::_Vector_base<std::pair<unsigned int, unsigned int>, std::allocator<std::pair<unsigned int, unsigned int> > >::_Vector_impl" }
%"struct.std::_Vector_base<std::pair<unsigned int, unsigned int>, std::allocator<std::pair<unsigned int, unsigned int> > >::_Vector_impl" = type { %"struct.std::_Vector_base<std::pair<unsigned int, unsigned int>, std::allocator<std::pair<unsigned int, unsigned int> > >::_Vector_impl_data" }
%"struct.std::_Vector_base<std::pair<unsigned int, unsigned int>, std::allocator<std::pair<unsigned int, unsigned int> > >::_Vector_impl_data" = type { ptr, ptr, ptr }
%"class.std::vector.48" = type { %"struct.std::_Vector_base.49" }
%"struct.std::_Vector_base.49" = type { %"struct.std::_Vector_base<std::pair<std::pair<unsigned int, unsigned int>, unsigned int>, std::allocator<std::pair<std::pair<unsigned int, unsigned int>, unsigned int> > >::_Vector_impl" }
%"struct.std::_Vector_base<std::pair<std::pair<unsigned int, unsigned int>, unsigned int>, std::allocator<std::pair<std::pair<unsigned int, unsigned int>, unsigned int> > >::_Vector_impl" = type { %"struct.std::_Vector_base<std::pair<std::pair<unsigned int, unsigned int>, unsigned int>, std::allocator<std::pair<std::pair<unsigned int, unsigned int>, unsigned int> > >::_Vector_impl_data" }
%"struct.std::_Vector_base<std::pair<std::pair<unsigned int, unsigned int>, unsigned int>, std::allocator<std::pair<std::pair<unsigned int, unsigned int>, unsigned int> > >::_Vector_impl_data" = type { ptr, ptr, ptr }
%"class.std::vector.53" = type { %"struct.std::_Bvector_base" }
%"struct.std::_Bvector_base" = type { %"struct.std::_Bvector_base<std::allocator<bool> >::_Bvector_impl" }
%"struct.std::_Bvector_base<std::allocator<bool> >::_Bvector_impl" = type { %"struct.std::_Bvector_base<std::allocator<bool> >::_Bvector_impl_data" }
%"struct.std::_Bvector_base<std::allocator<bool> >::_Bvector_impl_data" = type { %"struct.std::_Bit_iterator", %"struct.std::_Bit_iterator", ptr }
%"struct.std::_Bit_iterator" = type { %"struct.std::_Bit_iterator_base.base", [4 x i8] }
%"struct.std::_Bit_iterator_base.base" = type <{ ptr, i32 }>
%"class.std::vector.57" = type { %"struct.std::_Vector_base.58" }
%"struct.std::_Vector_base.58" = type { %"struct.std::_Vector_base<std::vector<bool>, std::allocator<std::vector<bool> > >::_Vector_impl" }
%"struct.std::_Vector_base<std::vector<bool>, std::allocator<std::vector<bool> > >::_Vector_impl" = type { %"struct.std::_Vector_base<std::vector<bool>, std::allocator<std::vector<bool> > >::_Vector_impl_data" }
%"struct.std::_Vector_base<std::vector<bool>, std::allocator<std::vector<bool> > >::_Vector_impl_data" = type { ptr, ptr, ptr }
%"class.dealii::TensorProductPolynomials" = type { %"class.std::vector.62", i32, %"class.std::vector", %"class.std::vector" }
%"class.std::vector.62" = type { %"struct.std::_Vector_base.63" }
%"struct.std::_Vector_base.63" = type { %"struct.std::_Vector_base<dealii::Polynomials::Polynomial<double>, std::allocator<dealii::Polynomials::Polynomial<double> > >::_Vector_impl" }
%"struct.std::_Vector_base<dealii::Polynomials::Polynomial<double>, std::allocator<dealii::Polynomials::Polynomial<double> > >::_Vector_impl" = type { %"struct.std::_Vector_base<dealii::Polynomials::Polynomial<double>, std::allocator<dealii::Polynomials::Polynomial<double> > >::_Vector_impl_data" }
%"struct.std::_Vector_base<dealii::Polynomials::Polynomial<double>, std::allocator<dealii::Polynomials::Polynomial<double> > >::_Vector_impl_data" = type { ptr, ptr, ptr }
%"class.dealii::TableBase" = type <{ %"class.dealii::Subscriptor", ptr, i32, %"class.dealii::TableIndices", [4 x i8] }>
%"class.dealii::Point" = type { %"class.dealii::Tensor" }
%"class.dealii::Tensor" = type { [3 x double] }
%"class.dealii::Quadrature" = type { %"class.dealii::Subscriptor", i32, %"class.std::vector.24", %"class.std::vector.72" }
%"class.dealii::MappingQ<3>::InternalData" = type { %"class.dealii::MappingQ1<3, 3>::InternalData", %"class.std::vector.93", i8, %"class.dealii::MappingQ1<3, 3>::InternalData" }
%"class.std::vector.93" = type { %"struct.std::_Vector_base.94" }
%"struct.std::_Vector_base.94" = type { %"struct.std::_Vector_base<std::vector<dealii::Point<3> >, std::allocator<std::vector<dealii::Point<3> > > >::_Vector_impl" }
%"struct.std::_Vector_base<std::vector<dealii::Point<3> >, std::allocator<std::vector<dealii::Point<3> > > >::_Vector_impl" = type { %"struct.std::_Vector_base<std::vector<dealii::Point<3> >, std::allocator<std::vector<dealii::Point<3> > > >::_Vector_impl_data" }
%"struct.std::_Vector_base<std::vector<dealii::Point<3> >, std::allocator<std::vector<dealii::Point<3> > > >::_Vector_impl_data" = type { ptr, ptr, ptr }
%"class.dealii::MappingQ1<3, 3>::InternalData" = type { %"class.dealii::Mapping<3, 3>::InternalDataBase.base", %"class.std::vector.72", %"class.std::vector.83", %"class.std::vector.77", %"class.std::vector.77", %"class.std::vector.77", %"class.std::vector.88", %"class.std::vector.88", %"class.std::vector.24", %"class.dealii::TriaIterator", i8, i32 }
%"class.dealii::Mapping<3, 3>::InternalDataBase.base" = type <{ %"class.dealii::Subscriptor", i32, i32, i32, [4 x i8], %"class.std::vector.72", %"class.std::vector.24", %"class.std::vector.77", %"class.std::vector.77", i8 }>
%"class.std::vector.83" = type { %"struct.std::_Vector_base.84" }
%"struct.std::_Vector_base.84" = type { %"struct.std::_Vector_base<dealii::Tensor<1, 3>, std::allocator<dealii::Tensor<1, 3> > >::_Vector_impl" }
%"struct.std::_Vector_base<dealii::Tensor<1, 3>, std::allocator<dealii::Tensor<1, 3> > >::_Vector_impl" = type { %"struct.std::_Vector_base<dealii::Tensor<1, 3>, std::allocator<dealii::Tensor<1, 3> > >::_Vector_impl_data" }
%"struct.std::_Vector_base<dealii::Tensor<1, 3>, std::allocator<dealii::Tensor<1, 3> > >::_Vector_impl_data" = type { ptr, ptr, ptr }
%"class.std::vector.77" = type { %"struct.std::_Vector_base.78" }
%"struct.std::_Vector_base.78" = type { %"struct.std::_Vector_base<dealii::Tensor<2, 3>, std::allocator<dealii::Tensor<2, 3> > >::_Vector_impl" }
%"struct.std::_Vector_base<dealii::Tensor<2, 3>, std::allocator<dealii::Tensor<2, 3> > >::_Vector_impl" = type { %"struct.std::_Vector_base<dealii::Tensor<2, 3>, std::allocator<dealii::Tensor<2, 3> > >::_Vector_impl_data" }
%"struct.std::_Vector_base<dealii::Tensor<2, 3>, std::allocator<dealii::Tensor<2, 3> > >::_Vector_impl_data" = type { ptr, ptr, ptr }
%"class.std::vector.88" = type { %"struct.std::_Vector_base.89" }
%"struct.std::_Vector_base.89" = type { %"struct.std::_Vector_base<std::vector<dealii::Tensor<1, 3> >, std::allocator<std::vector<dealii::Tensor<1, 3> > > >::_Vector_impl" }
%"struct.std::_Vector_base<std::vector<dealii::Tensor<1, 3> >, std::allocator<std::vector<dealii::Tensor<1, 3> > > >::_Vector_impl" = type { %"struct.std::_Vector_base<std::vector<dealii::Tensor<1, 3> >, std::allocator<std::vector<dealii::Tensor<1, 3> > > >::_Vector_impl_data" }
%"struct.std::_Vector_base<std::vector<dealii::Tensor<1, 3> >, std::allocator<std::vector<dealii::Tensor<1, 3> > > >::_Vector_impl_data" = type { ptr, ptr, ptr }
%"class.dealii::TriaIterator" = type { %"class.dealii::TriaRawIterator" }
%"class.dealii::TriaRawIterator" = type { %"class.dealii::CellAccessor" }
%"class.dealii::CellAccessor" = type { %"class.dealii::TriaAccessor" }
%"class.dealii::TriaAccessor" = type { %"class.dealii::TriaAccessorBase" }
%"class.dealii::TriaAccessorBase" = type { i32, i32, ptr }
%"class.dealii::Quadrature.102" = type { %"class.dealii::Subscriptor", i32, %"class.std::vector.29", %"class.std::vector.72" }
%"class.dealii::Triangulation" = type { %"class.dealii::Subscriptor", %"class.std::vector.108", ptr, %"class.std::vector.24", %"class.std::vector.53", [255 x %"class.dealii::SmartPointer"], [255 x %"class.dealii::SmartPointer"], i8, i32, %"struct.dealii::internal::Triangulation::NumberCache", %"class.std::__cxx11::list" }
%"class.std::vector.108" = type { %"struct.std::_Vector_base.109" }
%"struct.std::_Vector_base.109" = type { %"struct.std::_Vector_base<dealii::internal::Triangulation::TriaLevel<3> *, std::allocator<dealii::internal::Triangulation::TriaLevel<3> *> >::_Vector_impl" }
%"struct.std::_Vector_base<dealii::internal::Triangulation::TriaLevel<3> *, std::allocator<dealii::internal::Triangulation::TriaLevel<3> *> >::_Vector_impl" = type { %"struct.std::_Vector_base<dealii::internal::Triangulation::TriaLevel<3> *, std::allocator<dealii::internal::Triangulation::TriaLevel<3> *> >::_Vector_impl_data" }
%"struct.std::_Vector_base<dealii::internal::Triangulation::TriaLevel<3> *, std::allocator<dealii::internal::Triangulation::TriaLevel<3> *> >::_Vector_impl_data" = type { ptr, ptr, ptr }
%"class.dealii::SmartPointer" = type { ptr, ptr }
%"struct.dealii::internal::Triangulation::NumberCache" = type { %"struct.dealii::internal::Triangulation::NumberCache.113", i32, %"class.std::vector", i32, %"class.std::vector" }
%"struct.dealii::internal::Triangulation::NumberCache.113" = type { %"struct.dealii::internal::Triangulation::NumberCache.114", i32, %"class.std::vector", i32, %"class.std::vector" }
%"struct.dealii::internal::Triangulation::NumberCache.114" = type { i32, %"class.std::vector", i32, %"class.std::vector" }
%"class.std::__cxx11::list" = type { %"class.std::__cxx11::_List_base" }
%"class.std::__cxx11::_List_base" = type { %"struct.std::__cxx11::_List_base<dealii::Triangulation<3, 3>::RefinementListener *, std::allocator<dealii::Triangulation<3, 3>::RefinementListener *> >::_List_impl" }
%"struct.std::__cxx11::_List_base<dealii::Triangulation<3, 3>::RefinementListener *, std::allocator<dealii::Triangulation<3, 3>::RefinementListener *> >::_List_impl" = type { %"struct.std::__detail::_List_node_header" }
%"struct.std::__detail::_List_node_header" = type { %"struct.std::__detail::_List_node_base", i64 }
%"struct.std::__detail::_List_node_base" = type { ptr, ptr }
%"class.dealii::internal::Triangulation::TriaLevel" = type { %"class.std::vector.133", %"class.std::vector.53", %"class.std::vector.138", %"class.std::vector", %"class.dealii::internal::Triangulation::TriaObjectsHex" }
%"class.std::vector.133" = type { %"struct.std::_Vector_base.134" }
%"struct.std::_Vector_base.134" = type { %"struct.std::_Vector_base<unsigned char, std::allocator<unsigned char> >::_Vector_impl" }
%"struct.std::_Vector_base<unsigned char, std::allocator<unsigned char> >::_Vector_impl" = type { %"struct.std::_Vector_base<unsigned char, std::allocator<unsigned char> >::_Vector_impl_data" }
%"struct.std::_Vector_base<unsigned char, std::allocator<unsigned char> >::_Vector_impl_data" = type { ptr, ptr, ptr }
%"class.std::vector.138" = type { %"struct.std::_Vector_base.139" }
%"struct.std::_Vector_base.139" = type { %"struct.std::_Vector_base<std::pair<int, int>, std::allocator<std::pair<int, int> > >::_Vector_impl" }
%"struct.std::_Vector_base<std::pair<int, int>, std::allocator<std::pair<int, int> > >::_Vector_impl" = type { %"struct.std::_Vector_base<std::pair<int, int>, std::allocator<std::pair<int, int> > >::_Vector_impl_data" }
%"struct.std::_Vector_base<std::pair<int, int>, std::allocator<std::pair<int, int> > >::_Vector_impl_data" = type { ptr, ptr, ptr }
%"class.dealii::internal::Triangulation::TriaObjectsHex" = type { %"class.dealii::internal::Triangulation::TriaObjects.base", %"class.std::vector.53", %"class.std::vector.53", %"class.std::vector.53" }
%"class.dealii::internal::Triangulation::TriaObjects.base" = type <{ %"class.std::vector.143", %"class.std::vector.38", %"class.std::vector.148", %"class.std::vector.53", %"class.std::vector.53", %"class.std::vector.133", i32, i32, i8, [7 x i8], %"class.std::vector.153", i32 }>
%"class.std::vector.143" = type { %"struct.std::_Vector_base.144" }
%"struct.std::_Vector_base.144" = type { %"struct.std::_Vector_base<dealii::internal::Triangulation::TriaObject<3>, std::allocator<dealii::internal::Triangulation::TriaObject<3> > >::_Vector_impl" }
%"struct.std::_Vector_base<dealii::internal::Triangulation::TriaObject<3>, std::allocator<dealii::internal::Triangulation::TriaObject<3> > >::_Vector_impl" = type { %"struct.std::_Vector_base<dealii::internal::Triangulation::TriaObject<3>, std::allocator<dealii::internal::Triangulation::TriaObject<3> > >::_Vector_impl_data" }
%"struct.std::_Vector_base<dealii::internal::Triangulation::TriaObject<3>, std::allocator<dealii::internal::Triangulation::TriaObject<3> > >::_Vector_impl_data" = type { ptr, ptr, ptr }
%"class.std::vector.148" = type { %"struct.std::_Vector_base.149" }
%"struct.std::_Vector_base.149" = type { %"struct.std::_Vector_base<dealii::RefinementCase<3>, std::allocator<dealii::RefinementCase<3> > >::_Vector_impl" }
%"struct.std::_Vector_base<dealii::RefinementCase<3>, std::allocator<dealii::RefinementCase<3> > >::_Vector_impl" = type { %"struct.std::_Vector_base<dealii::RefinementCase<3>, std::allocator<dealii::RefinementCase<3> > >::_Vector_impl_data" }
%"struct.std::_Vector_base<dealii::RefinementCase<3>, std::allocator<dealii::RefinementCase<3> > >::_Vector_impl_data" = type { ptr, ptr, ptr }
%"class.std::vector.153" = type { %"struct.std::_Vector_base.154" }
%"struct.std::_Vector_base.154" = type { %"struct.std::_Vector_base<dealii::internal::Triangulation::TriaObjects<dealii::internal::Triangulation::TriaObject<3> >::UserData, std::allocator<dealii::internal::Triangulation::TriaObjects<dealii::internal::Triangulation::TriaObject<3> >::UserData> >::_Vector_impl" }
%"struct.std::_Vector_base<dealii::internal::Triangulation::TriaObjects<dealii::internal::Triangulation::TriaObject<3> >::UserData, std::allocator<dealii::internal::Triangulation::TriaObjects<dealii::internal::Triangulation::TriaObject<3> >::UserData> >::_Vector_impl" = type { %"struct.std::_Vector_base<dealii::internal::Triangulation::TriaObjects<dealii::internal::Triangulation::TriaObject<3> >::UserData, std::allocator<dealii::internal::Triangulation::TriaObjects<dealii::internal::Triangulation::TriaObject<3> >::UserData> >::_Vector_impl_data" }
%"struct.std::_Vector_base<dealii::internal::Triangulation::TriaObjects<dealii::internal::Triangulation::TriaObject<3> >::UserData, std::allocator<dealii::internal::Triangulation::TriaObjects<dealii::internal::Triangulation::TriaObject<3> >::UserData> >::_Vector_impl_data" = type { ptr, ptr, ptr }
%"class.std::reverse_iterator" = type { %"class.__gnu_cxx::__normal_iterator" }
%"class.__gnu_cxx::__normal_iterator" = type { ptr }
%"class.dealii::TriaIterator.103" = type { %"class.dealii::TriaRawIterator.104" }
%"class.dealii::TriaRawIterator.104" = type { %"class.dealii::TriaAccessor.106" }
%"class.dealii::TriaAccessor.106" = type { %"class.dealii::TriaAccessorBase.107" }
%"class.dealii::TriaAccessorBase.107" = type { i32, ptr }
%"class.dealii::internal::Triangulation::TriaObject" = type { [6 x i32] }
%"class.dealii::internal::Triangulation::TriaObject.192" = type { [4 x i32] }
%"class.dealii::internal::Triangulation::TriaFaces" = type { %"class.dealii::internal::Triangulation::TriaObjectsQuad3D", %"class.dealii::internal::Triangulation::TriaObjects.175" }
%"class.dealii::internal::Triangulation::TriaObjectsQuad3D" = type { %"class.dealii::internal::Triangulation::TriaObjects.base.174", %"class.std::vector.53" }
%"class.dealii::internal::Triangulation::TriaObjects.base.174" = type <{ %"class.std::vector.159", %"class.std::vector.38", %"class.std::vector.164", %"class.std::vector.53", %"class.std::vector.53", %"class.std::vector.133", i32, i32, i8, [7 x i8], %"class.std::vector.169", i32 }>
%"class.std::vector.159" = type { %"struct.std::_Vector_base.160" }
%"struct.std::_Vector_base.160" = type { %"struct.std::_Vector_base<dealii::internal::Triangulation::TriaObject<2>, std::allocator<dealii::internal::Triangulation::TriaObject<2> > >::_Vector_impl" }
%"struct.std::_Vector_base<dealii::internal::Triangulation::TriaObject<2>, std::allocator<dealii::internal::Triangulation::TriaObject<2> > >::_Vector_impl" = type { %"struct.std::_Vector_base<dealii::internal::Triangulation::TriaObject<2>, std::allocator<dealii::internal::Triangulation::TriaObject<2> > >::_Vector_impl_data" }
%"struct.std::_Vector_base<dealii::internal::Triangulation::TriaObject<2>, std::allocator<dealii::internal::Triangulation::TriaObject<2> > >::_Vector_impl_data" = type { ptr, ptr, ptr }
%"class.std::vector.164" = type { %"struct.std::_Vector_base.165" }
%"struct.std::_Vector_base.165" = type { %"struct.std::_Vector_base<dealii::RefinementCase<2>, std::allocator<dealii::RefinementCase<2> > >::_Vector_impl" }
%"struct.std::_Vector_base<dealii::RefinementCase<2>, std::allocator<dealii::RefinementCase<2> > >::_Vector_impl" = type { %"struct.std::_Vector_base<dealii::RefinementCase<2>, std::allocator<dealii::RefinementCase<2> > >::_Vector_impl_data" }
%"struct.std::_Vector_base<dealii::RefinementCase<2>, std::allocator<dealii::RefinementCase<2> > >::_Vector_impl_data" = type { ptr, ptr, ptr }
%"class.std::vector.169" = type { %"struct.std::_Vector_base.170" }
%"struct.std::_Vector_base.170" = type { %"struct.std::_Vector_base<dealii::internal::Triangulation::TriaObjects<dealii::internal::Triangulation::TriaObject<2> >::UserData, std::allocator<dealii::internal::Triangulation::TriaObjects<dealii::internal::Triangulation::TriaObject<2> >::UserData> >::_Vector_impl" }
%"struct.std::_Vector_base<dealii::internal::Triangulation::TriaObjects<dealii::internal::Triangulation::TriaObject<2> >::UserData, std::allocator<dealii::internal::Triangulation::TriaObjects<dealii::internal::Triangulation::TriaObject<2> >::UserData> >::_Vector_impl" = type { %"struct.std::_Vector_base<dealii::internal::Triangulation::TriaObjects<dealii::internal::Triangulation::TriaObject<2> >::UserData, std::allocator<dealii::internal::Triangulation::TriaObjects<dealii::internal::Triangulation::TriaObject<2> >::UserData> >::_Vector_impl_data" }
%"struct.std::_Vector_base<dealii::internal::Triangulation::TriaObjects<dealii::internal::Triangulation::TriaObject<2> >::UserData, std::allocator<dealii::internal::Triangulation::TriaObjects<dealii::internal::Triangulation::TriaObject<2> >::UserData> >::_Vector_impl_data" = type { ptr, ptr, ptr }
%"class.dealii::internal::Triangulation::TriaObjects.175" = type <{ %"class.std::vector.176", %"class.std::vector.38", %"class.std::vector.181", %"class.std::vector.53", %"class.std::vector.53", %"class.std::vector.133", i32, i32, i8, [7 x i8], %"class.std::vector.186", i32, [4 x i8] }>
%"class.std::vector.176" = type { %"struct.std::_Vector_base.177" }
%"struct.std::_Vector_base.177" = type { %"struct.std::_Vector_base<dealii::internal::Triangulation::TriaObject<1>, std::allocator<dealii::internal::Triangulation::TriaObject<1> > >::_Vector_impl" }
%"struct.std::_Vector_base<dealii::internal::Triangulation::TriaObject<1>, std::allocator<dealii::internal::Triangulation::TriaObject<1> > >::_Vector_impl" = type { %"struct.std::_Vector_base<dealii::internal::Triangulation::TriaObject<1>, std::allocator<dealii::internal::Triangulation::TriaObject<1> > >::_Vector_impl_data" }
%"struct.std::_Vector_base<dealii::internal::Triangulation::TriaObject<1>, std::allocator<dealii::internal::Triangulation::TriaObject<1> > >::_Vector_impl_data" = type { ptr, ptr, ptr }
%"class.std::vector.181" = type { %"struct.std::_Vector_base.182" }
%"struct.std::_Vector_base.182" = type { %"struct.std::_Vector_base<dealii::RefinementCase<1>, std::allocator<dealii::RefinementCase<1> > >::_Vector_impl" }
%"struct.std::_Vector_base<dealii::RefinementCase<1>, std::allocator<dealii::RefinementCase<1> > >::_Vector_impl" = type { %"struct.std::_Vector_base<dealii::RefinementCase<1>, std::allocator<dealii::RefinementCase<1> > >::_Vector_impl_data" }
%"struct.std::_Vector_base<dealii::RefinementCase<1>, std::allocator<dealii::RefinementCase<1> > >::_Vector_impl_data" = type { ptr, ptr, ptr }
%"class.std::vector.186" = type { %"struct.std::_Vector_base.187" }
%"struct.std::_Vector_base.187" = type { %"struct.std::_Vector_base<dealii::internal::Triangulation::TriaObjects<dealii::internal::Triangulation::TriaObject<1> >::UserData, std::allocator<dealii::internal::Triangulation::TriaObjects<dealii::internal::Triangulation::TriaObject<1> >::UserData> >::_Vector_impl" }
%"struct.std::_Vector_base<dealii::internal::Triangulation::TriaObjects<dealii::internal::Triangulation::TriaObject<1> >::UserData, std::allocator<dealii::internal::Triangulation::TriaObjects<dealii::internal::Triangulation::TriaObject<1> >::UserData> >::_Vector_impl" = type { %"struct.std::_Vector_base<dealii::internal::Triangulation::TriaObjects<dealii::internal::Triangulation::TriaObject<1> >::UserData, std::allocator<dealii::internal::Triangulation::TriaObjects<dealii::internal::Triangulation::TriaObject<1> >::UserData> >::_Vector_impl_data" }
%"struct.std::_Vector_base<dealii::internal::Triangulation::TriaObjects<dealii::internal::Triangulation::TriaObject<1> >::UserData, std::allocator<dealii::internal::Triangulation::TriaObjects<dealii::internal::Triangulation::TriaObject<1> >::UserData> >::_Vector_impl_data" = type { ptr, ptr, ptr }
%"class.dealii::Tensor.119" = type { [3 x %"class.dealii::Tensor"] }
%"class.dealii::QGauss" = type { %"class.dealii::Quadrature" }
%"class.dealii::internal::Triangulation::TriaObject.200" = type { [2 x i32] }
%"class.dealii::MappingQ<3>::ExcLaplaceVectorNotSet" = type { %"class.dealii::ExceptionBase.base", i32 }
%"class.dealii::ExceptionBase.base" = type <{ %"class.std::exception", ptr, i32, [4 x i8], ptr, ptr, ptr, ptr, i32 }>
%"class.std::exception" = type { ptr }
%"class.std::basic_ios" = type { %"class.std::ios_base", ptr, i8, i8, ptr, ptr, ptr, ptr }
%"class.std::ios_base" = type { ptr, i64, i64, i32, i32, i32, ptr, %"struct.std::ios_base::_Words", [8 x %"struct.std::ios_base::_Words"], i32, ptr, %"class.std::locale" }
%"struct.std::ios_base::_Words" = type { ptr, i64 }
%"class.std::locale" = type { ptr }
%"class.std::ctype" = type <{ %"class.std::locale::facet.base", [4 x i8], ptr, i8, [7 x i8], ptr, ptr, ptr, i8, [256 x i8], [256 x i8], i8, [6 x i8] }>
%"class.std::locale::facet.base" = type <{ ptr, i32 }>
%"class.dealii::TriaIterator.121" = type { %"class.dealii::TriaRawIterator.122" }
%"class.dealii::TriaRawIterator.122" = type { %"class.dealii::TriaAccessor.124" }
%"class.dealii::TriaAccessor.124" = type { %"class.dealii::TriaAccessorBase.125" }
%"class.dealii::TriaAccessorBase.125" = type { i32, ptr }
%"class.dealii::internal::Triangulation::TriaObjects.158" = type <{ %"class.std::vector.159", %"class.std::vector.38", %"class.std::vector.164", %"class.std::vector.53", %"class.std::vector.53", %"class.std::vector.133", i32, i32, i8, [7 x i8], %"class.std::vector.169", i32, [4 x i8] }>
%"class.dealii::Mapping<3, 3>::InternalDataBase" = type <{ %"class.dealii::Subscriptor", i32, i32, i32, [4 x i8], %"class.std::vector.72", %"class.std::vector.24", %"class.std::vector.77", %"class.std::vector.77", i8, [7 x i8] }>
%"class.std::__cxx11::basic_string" = type { %"struct.std::__cxx11::basic_string<char>::_Alloc_hider", i64, %union.anon }
%"struct.std::__cxx11::basic_string<char>::_Alloc_hider" = type { ptr }
%union.anon = type { i64, [8 x i8] }
%"class.dealii::Point.129" = type { %"class.dealii::Tensor.130" }
%"class.dealii::Tensor.130" = type { [2 x double] }

$_ZN6dealii8MappingQILi3ELi3EEC5Ejb = comdat any

$__clang_call_terminate = comdat any

$_ZNSt6vectorIN6dealii11Polynomials19LagrangeEquidistantESaIS2_EE9push_backERKS2_ = comdat any

$_ZN6dealii24TensorProductPolynomialsILi3EEC2INS_11Polynomials19LagrangeEquidistantEEERKSt6vectorIT_SaIS6_EE = comdat any

$_ZNK6dealii8MappingQILi3ELi3EE26set_laplace_on_quad_vectorERNS_5TableILi2EdEE = comdat any

$_ZNSt6vectorIN6dealii11Polynomials19LagrangeEquidistantESaIS2_EED2Ev = comdat any

$_ZN6dealii4FE_QILi3ELi3EED2Ev = comdat any

$_ZN6dealii8MappingQILi3ELi3EEC5ERKS1_ = comdat any

$_ZN6dealii24TensorProductPolynomialsILi3EEC2ERKS1_ = comdat any

$_ZN6dealii8MappingQILi3ELi3EED5Ev = comdat any

$_ZNK6dealii8MappingQILi3ELi3EE27transform_unit_to_real_cellERKNS_12TriaIteratorINS_12CellAccessorILi3ELi3EEEEERKNS_5PointILi3EEE = comdat any

$_ZNK6dealii8MappingQILi3ELi3EE27transform_real_to_unit_cellERKNS_12TriaIteratorINS_12CellAccessorILi3ELi3EEEEERKNS_5PointILi3EEE = comdat any

$_ZNK6dealii8MappingQILi3ELi3EE9transformENS_11VectorSliceIKSt6vectorINS_6TensorILi1ELi3EEESaIS5_EEEENS2_IS7_EERKNS_7MappingILi3ELi3EE16InternalDataBaseENS_11MappingTypeE = comdat any

$_ZNK6dealii8MappingQILi3ELi3EE9transformENS_11VectorSliceIKSt6vectorINS_6TensorILi2ELi3EEESaIS5_EEEENS2_IS7_EERKNS_7MappingILi3ELi3EE16InternalDataBaseENS_11MappingTypeE = comdat any

$_ZNK6dealii8MappingQILi3ELi3EE10get_degreeEv = comdat any

$_ZNK6dealii8MappingQILi3ELi3EE5cloneEv = comdat any

$_ZN6dealii8MappingQILi3ELi3EE12InternalDataC5Ej = comdat any

$_ZNSt6vectorIS_IN6dealii5PointILi3EEESaIS2_EESaIS4_EED2Ev = comdat any

$_ZNK6dealii8MappingQILi3ELi3EE12InternalData18memory_consumptionEv = comdat any

$_ZNK6dealii8MappingQILi3ELi3EE14fill_fe_valuesERKNS_12TriaIteratorINS_12CellAccessorILi3ELi3EEEEERKNS_10QuadratureILi3EEERNS_7MappingILi3ELi3EE16InternalDataBaseERSt6vectorINS_5PointILi3EEESaISI_EERSG_IdSaIdEERSG_INS_6TensorILi2ELi3EEESaISQ_EERSG_INSP_ILi3ELi3EEESaISU_EEST_SL_RNS_14CellSimilarity10SimilarityE = comdat any

$_ZNK6dealii8MappingQILi3ELi3EE19fill_fe_face_valuesERKNS_12TriaIteratorINS_12CellAccessorILi3ELi3EEEEEjRKNS_10QuadratureILi2EEERNS_7MappingILi3ELi3EE16InternalDataBaseERSt6vectorINS_5PointILi3EEESaISI_EERSG_IdSaIdEERSG_INS_6TensorILi1ELi3EEESaISQ_EESL_ = comdat any

$_ZNK6dealii8MappingQILi3ELi3EE22fill_fe_subface_valuesERKNS_12TriaIteratorINS_12CellAccessorILi3ELi3EEEEEjjRKNS_10QuadratureILi2EEERNS_7MappingILi3ELi3EE16InternalDataBaseERSt6vectorINS_5PointILi3EEESaISI_EERSG_IdSaIdEERSG_INS_6TensorILi1ELi3EEESaISQ_EESL_ = comdat any

$_ZNK6dealii8MappingQILi3ELi3EE23add_line_support_pointsERKNS_12TriaIteratorINS_12CellAccessorILi3ELi3EEEEERSt6vectorINS_5PointILi3EEESaISA_EE = comdat any

$_ZNK6dealii8MappingQILi3ELi3EE8get_dataENS_11UpdateFlagsERKNS_10QuadratureILi3EEE = comdat any

$_ZNK6dealii8MappingQILi3ELi3EE13get_face_dataENS_11UpdateFlagsERKNS_10QuadratureILi2EEE = comdat any

$_ZNK6dealii8MappingQILi3ELi3EE16get_subface_dataENS_11UpdateFlagsERKNS_10QuadratureILi2EEE = comdat any

$_ZNK6dealii8MappingQILi3ELi3EE22compute_shapes_virtualERKSt6vectorINS_5PointILi3EEESaIS4_EERNS_9MappingQ1ILi3ELi3EE12InternalDataE = comdat any

$_ZNK6dealii8MappingQILi3ELi3EE22compute_laplace_vectorERNS_5TableILi2EdEE = comdat any

$_ZN6dealii9TableBaseILi2EdED2Ev = comdat any

$_ZN6dealii8MappingQILi3ELi3EE12InternalDataD2Ev = comdat any

$_ZNK6dealii8MappingQILi3ELi3EE20apply_laplace_vectorERKNS_5TableILi2EdEERSt6vectorINS_5PointILi3EEESaIS8_EE = comdat any

$_ZNK6dealii8MappingQILi3ELi3EE30compute_mapping_support_pointsERKNS_12TriaIteratorINS_12CellAccessorILi3ELi3EEEEERSt6vectorINS_5PointILi3EEESaISA_EE = comdat any

$_ZNK6dealii8MappingQILi3ELi3EE30compute_support_points_laplaceERKNS_12TriaIteratorINS_12CellAccessorILi3ELi3EEEEERSt6vectorINS_5PointILi3EEESaISA_EE = comdat any

$_ZN6dealii8MappingQILi3ELi3EE22ExcLaplaceVectorNotSetC5Ei = comdat any

$_ZN6dealii8MappingQILi3ELi3EE22ExcLaplaceVectorNotSetD5Ev = comdat any

$_ZNK6dealii8MappingQILi3ELi3EE22ExcLaplaceVectorNotSet10print_infoERSo = comdat any

$_ZN6dealii8MappingQILi3ELi3EE12InternalDataD0Ev = comdat any

$_ZN6dealii7MappingILi3ELi3EE16InternalDataBase16clear_first_cellEv = comdat any

$_ZN6dealii11Polynomials10PolynomialIdED2Ev = comdat any

$_ZN6dealii11Polynomials10PolynomialIdED0Ev = comdat any

$_ZN6dealii4FE_QILi3ELi3EED0Ev = comdat any

$_ZN6dealii7FE_PolyINS_24TensorProductPolynomialsILi3EEELi3ELi3EED2Ev = comdat any

$_ZN6dealii7FE_PolyINS_24TensorProductPolynomialsILi3EEELi3ELi3EED0Ev = comdat any

$_ZN6dealii9TableBaseILi2EdED0Ev = comdat any

$_ZNSt6vectorIN6dealii11Polynomials10PolynomialIdEESaIS3_EED2Ev = comdat any

$_ZSt16__do_uninit_copyIN9__gnu_cxx17__normal_iteratorIPKN6dealii11Polynomials10PolynomialIdEESt6vectorIS5_SaIS5_EEEEPS5_ET0_T_SE_SD_ = comdat any

$_ZN6dealii9MappingQ1ILi3ELi3EE12InternalDataD2Ev = comdat any

$_ZN6dealii9MappingQ1ILi3ELi3EE12InternalDataD0Ev = comdat any

$_ZNSt6vectorIN6dealii5PointILi3EEESaIS2_EE17_M_realloc_insertEN9__gnu_cxx17__normal_iteratorIPS2_S4_EERKS2_ = comdat any

$_ZNSt6vectorIN6dealii5PointILi3EEESaIS2_EE14_M_fill_insertEN9__gnu_cxx17__normal_iteratorIPS2_S4_EEmRKS2_ = comdat any

$_ZN6dealii5TableILi2EdED0Ev = comdat any

$_ZNSt6vectorIN6dealii11Polynomials19LagrangeEquidistantESaIS2_EE17_M_realloc_insertEN9__gnu_cxx17__normal_iteratorIPS2_S4_EERKS2_ = comdat any

$_ZN6dealii11Polynomials19LagrangeEquidistantD0Ev = comdat any

$_ZSt16__do_uninit_copyIPN6dealii11Polynomials19LagrangeEquidistantES3_ET0_T_S5_S4_ = comdat any

$_ZSt16__do_uninit_copyIN9__gnu_cxx17__normal_iteratorIPKN6dealii11Polynomials19LagrangeEquidistantESt6vectorIS4_SaIS4_EEEEPNS3_10PolynomialIdEEET0_T_SF_SE_ = comdat any

$_ZNSt6vectorIN6dealii5PointILi3EEESaIS2_EE15_M_range_insertIN9__gnu_cxx17__normal_iteratorIPS2_S4_EEEEvS9_T_SA_St20forward_iterator_tag = comdat any

$_ZNSt6vectorIN6dealii5PointILi3EEESaIS2_EE15_M_range_insertISt16reverse_iteratorIN9__gnu_cxx17__normal_iteratorIPS2_S4_EEEEEvSA_T_SC_St20forward_iterator_tag = comdat any

$_ZNSt6vectorIdSaIdEE14_M_fill_insertEN9__gnu_cxx17__normal_iteratorIPdS1_EEmRKd = comdat any

$_ZNSt6vectorIN6dealii6TensorILi1ELi3EEESaIS2_EE14_M_fill_insertEN9__gnu_cxx17__normal_iteratorIPS2_S4_EEmRKS2_ = comdat any

$_ZNSt6vectorIN6dealii6TensorILi2ELi3EEESaIS2_EE14_M_fill_insertEN9__gnu_cxx17__normal_iteratorIPS2_S4_EEmRKS2_ = comdat any

$_ZTVN6dealii8MappingQILi3ELi3EEE = comdat any

$_ZTSN6dealii7MappingILi3ELi3EE16InternalDataBaseE = comdat any

$_ZTIN6dealii7MappingILi3ELi3EE16InternalDataBaseE = comdat any

$_ZTSN6dealii8MappingQILi3ELi3EE12InternalDataE = comdat any

$_ZTSN6dealii9MappingQ1ILi3ELi3EE12InternalDataE = comdat any

$_ZTIN6dealii9MappingQ1ILi3ELi3EE12InternalDataE = comdat any

$_ZTIN6dealii8MappingQILi3ELi3EE12InternalDataE = comdat any

$_ZTVN6dealii8MappingQILi3ELi3EE12InternalDataE = comdat any

$_ZZNK6dealii8MappingQILi3ELi3EE23add_line_support_pointsERKNS_12TriaIteratorINS_12CellAccessorILi3ELi3EEEEERSt6vectorINS_5PointILi3EEESaISA_EEE17straight_boundary = comdat any

$_ZGVZNK6dealii8MappingQILi3ELi3EE23add_line_support_pointsERKNS_12TriaIteratorINS_12CellAccessorILi3ELi3EEEEERSt6vectorINS_5PointILi3EEESaISA_EEE17straight_boundary = comdat any

$_ZZNK6dealii8MappingQILi3ELi3EE26set_laplace_on_quad_vectorERNS_5TableILi2EdEEE5loqv2 = comdat any

$_ZZNK6dealii8MappingQILi3ELi3EE26set_laplace_on_quad_vectorERNS_5TableILi2EdEEE5loqv3 = comdat any

$_ZZNK6dealii8MappingQILi3ELi3EE26set_laplace_on_quad_vectorERNS_5TableILi2EdEEE5loqv4 = comdat any

$_ZTVN6dealii8MappingQILi3ELi3EE22ExcLaplaceVectorNotSetE = comdat any

$_ZTSN6dealii8MappingQILi3ELi3EEE = comdat any

$_ZTSN6dealii9MappingQ1ILi3ELi3EEE = comdat any

$_ZTSN6dealii7MappingILi3ELi3EEE = comdat any

$_ZTIN6dealii7MappingILi3ELi3EEE = comdat any

$_ZTIN6dealii9MappingQ1ILi3ELi3EEE = comdat any

$_ZTIN6dealii8MappingQILi3ELi3EEE = comdat any

$_ZTSN6dealii8MappingQILi3ELi3EE22ExcLaplaceVectorNotSetE = comdat any

$_ZTIN6dealii8MappingQILi3ELi3EE22ExcLaplaceVectorNotSetE = comdat any

$_ZTVN6dealii11Polynomials10PolynomialIdEE = comdat any

$_ZTSN6dealii11Polynomials10PolynomialIdEE = comdat any

$_ZTIN6dealii11Polynomials10PolynomialIdEE = comdat any

$_ZTVN6dealii4FE_QILi3ELi3EEE = comdat any

$_ZTSN6dealii4FE_QILi3ELi3EEE = comdat any

$_ZTSN6dealii7FE_PolyINS_24TensorProductPolynomialsILi3EEELi3ELi3EEE = comdat any

$_ZTSN6dealii13FiniteElementILi3ELi3EEE = comdat any

$_ZTSN6dealii17FiniteElementDataILi3EEE = comdat any

$_ZTIN6dealii17FiniteElementDataILi3EEE = comdat any

$_ZTIN6dealii13FiniteElementILi3ELi3EEE = comdat any

$_ZTIN6dealii7FE_PolyINS_24TensorProductPolynomialsILi3EEELi3ELi3EEE = comdat any

$_ZTIN6dealii4FE_QILi3ELi3EEE = comdat any

$_ZTVN6dealii7FE_PolyINS_24TensorProductPolynomialsILi3EEELi3ELi3EEE = comdat any

$_ZTVN6dealii9TableBaseILi2EdEE = comdat any

$_ZTSN6dealii9TableBaseILi2EdEE = comdat any

$_ZTIN6dealii9TableBaseILi2EdEE = comdat any

$_ZTVN6dealii9MappingQ1ILi3ELi3EE12InternalDataE = comdat any

$_ZTVN6dealii5TableILi2EdEE = comdat any

$_ZTSN6dealii5TableILi2EdEE = comdat any

$_ZTIN6dealii5TableILi2EdEE = comdat any

$_ZTVN6dealii11Polynomials19LagrangeEquidistantE = comdat any

$_ZTSN6dealii11Polynomials19LagrangeEquidistantE = comdat any

$_ZTIN6dealii11Polynomials19LagrangeEquidistantE = comdat any

$_ZZN6dealii8internal12TriaAccessor14Implementation10line_indexILi3ELi3EEEjRKNS_12TriaAccessorILi3EXT_EXT0_EEEjE12lookup_table = comdat any

$_ZZN6dealii8internal12TriaAccessor14Implementation16line_orientationILi3ELi3EEEbRKNS_12TriaAccessorILi3EXT_EXT0_EEEjE12lookup_table = comdat any

$_ZZN6dealii8internal12TriaAccessor14Implementation16line_orientationILi3ELi3EEEbRKNS_12TriaAccessorILi3EXT_EXT0_EEEjE10bool_table = comdat any

$_ZZN6dealii8internal12TriaAccessor14Implementation12vertex_indexILi3ELi3EEEjRKNS_12TriaAccessorILi2EXT_EXT0_EEEjE12switch_table = comdat any

@_ZTVN6dealii8MappingQILi3ELi3EEE = weak_odr dso_local unnamed_addr constant { [21 x ptr] } { [21 x ptr] [ptr null, ptr @_ZTIN6dealii8MappingQILi3ELi3EEE, ptr @_ZN6dealii8MappingQILi3ELi3EED2Ev, ptr @_ZN6dealii8MappingQILi3ELi3EED0Ev, ptr @_ZNK6dealii8MappingQILi3ELi3EE27transform_unit_to_real_cellERKNS_12TriaIteratorINS_12CellAccessorILi3ELi3EEEEERKNS_5PointILi3EEE, ptr @_ZNK6dealii8MappingQILi3ELi3EE27transform_real_to_unit_cellERKNS_12TriaIteratorINS_12CellAccessorILi3ELi3EEEEERKNS_5PointILi3EEE, ptr @_ZNK6dealii8MappingQILi3ELi3EE9transformENS_11VectorSliceIKSt6vectorINS_6TensorILi1ELi3EEESaIS5_EEEENS2_IS7_EERKNS_7MappingILi3ELi3EE16InternalDataBaseENS_11MappingTypeE, ptr @_ZNK6dealii8MappingQILi3ELi3EE9transformENS_11VectorSliceIKSt6vectorINS_6TensorILi2ELi3EEESaIS5_EEEENS2_IS7_EERKNS_7MappingILi3ELi3EE16InternalDataBaseENS_11MappingTypeE, ptr @_ZNK6dealii8MappingQILi3ELi3EE5cloneEv, ptr @_ZNK6dealii9MappingQ1ILi3ELi3EE11update_onceENS_11UpdateFlagsE, ptr @_ZNK6dealii9MappingQ1ILi3ELi3EE11update_eachENS_11UpdateFlagsE, ptr @_ZNK6dealii8MappingQILi3ELi3EE8get_dataENS_11UpdateFlagsERKNS_10QuadratureILi3EEE, ptr @_ZNK6dealii8MappingQILi3ELi3EE13get_face_dataENS_11UpdateFlagsERKNS_10QuadratureILi2EEE, ptr @_ZNK6dealii8MappingQILi3ELi3EE16get_subface_dataENS_11UpdateFlagsERKNS_10QuadratureILi2EEE, ptr @_ZNK6dealii8MappingQILi3ELi3EE14fill_fe_valuesERKNS_12TriaIteratorINS_12CellAccessorILi3ELi3EEEEERKNS_10QuadratureILi3EEERNS_7MappingILi3ELi3EE16InternalDataBaseERSt6vectorINS_5PointILi3EEESaISI_EERSG_IdSaIdEERSG_INS_6TensorILi2ELi3EEESaISQ_EERSG_INSP_ILi3ELi3EEESaISU_EEST_SL_RNS_14CellSimilarity10SimilarityE, ptr @_ZNK6dealii8MappingQILi3ELi3EE19fill_fe_face_valuesERKNS_12TriaIteratorINS_12CellAccessorILi3ELi3EEEEEjRKNS_10QuadratureILi2EEERNS_7MappingILi3ELi3EE16InternalDataBaseERSt6vectorINS_5PointILi3EEESaISI_EERSG_IdSaIdEERSG_INS_6TensorILi1ELi3EEESaISQ_EESL_, ptr @_ZNK6dealii8MappingQILi3ELi3EE22fill_fe_subface_valuesERKNS_12TriaIteratorINS_12CellAccessorILi3ELi3EEEEEjjRKNS_10QuadratureILi2EEERNS_7MappingILi3ELi3EE16InternalDataBaseERSt6vectorINS_5PointILi3EEESaISI_EERSG_IdSaIdEERSG_INS_6TensorILi1ELi3EEESaISQ_EESL_, ptr @_ZNK6dealii8MappingQILi3ELi3EE22compute_shapes_virtualERKSt6vectorINS_5PointILi3EEESaIS4_EERNS_9MappingQ1ILi3ELi3EE12InternalDataE, ptr @_ZNK6dealii8MappingQILi3ELi3EE30compute_mapping_support_pointsERKNS_12TriaIteratorINS_12CellAccessorILi3ELi3EEEEERSt6vectorINS_5PointILi3EEESaISA_EE, ptr @_ZNK6dealii8MappingQILi3ELi3EE23add_line_support_pointsERKNS_12TriaIteratorINS_12CellAccessorILi3ELi3EEEEERSt6vectorINS_5PointILi3EEESaISA_EE, ptr @_ZNK6dealii8MappingQILi3ELi3EE23add_quad_support_pointsERKNS_12TriaIteratorINS_12CellAccessorILi3ELi3EEEEERSt6vectorINS_5PointILi3EEESaISA_EE] }, comdat, align 8
@_ZTVN10__cxxabiv120__si_class_type_infoE = external global ptr
@_ZTSN6dealii7MappingILi3ELi3EE16InternalDataBaseE = linkonce_odr dso_local constant [46 x i8] c"N6dealii7MappingILi3ELi3EE16InternalDataBaseE\00", comdat, align 1
@_ZTIN6dealii11SubscriptorE = external constant ptr
@_ZTIN6dealii7MappingILi3ELi3EE16InternalDataBaseE = linkonce_odr dso_local constant { ptr, ptr, ptr } { ptr getelementptr inbounds (ptr, ptr @_ZTVN10__cxxabiv120__si_class_type_infoE, i64 2), ptr @_ZTSN6dealii7MappingILi3ELi3EE16InternalDataBaseE, ptr @_ZTIN6dealii11SubscriptorE }, comdat, align 8
@_ZTSN6dealii8MappingQILi3ELi3EE12InternalDataE = linkonce_odr dso_local constant [43 x i8] c"N6dealii8MappingQILi3ELi3EE12InternalDataE\00", comdat, align 1
@_ZTSN6dealii9MappingQ1ILi3ELi3EE12InternalDataE = linkonce_odr dso_local constant [44 x i8] c"N6dealii9MappingQ1ILi3ELi3EE12InternalDataE\00", comdat, align 1
@_ZTIN6dealii9MappingQ1ILi3ELi3EE12InternalDataE = linkonce_odr dso_local constant { ptr, ptr, ptr } { ptr getelementptr inbounds (ptr, ptr @_ZTVN10__cxxabiv120__si_class_type_infoE, i64 2), ptr @_ZTSN6dealii9MappingQ1ILi3ELi3EE12InternalDataE, ptr @_ZTIN6dealii7MappingILi3ELi3EE16InternalDataBaseE }, comdat, align 8
@_ZTIN6dealii8MappingQILi3ELi3EE12InternalDataE = linkonce_odr dso_local constant { ptr, ptr, ptr } { ptr getelementptr inbounds (ptr, ptr @_ZTVN10__cxxabiv120__si_class_type_infoE, i64 2), ptr @_ZTSN6dealii8MappingQILi3ELi3EE12InternalDataE, ptr @_ZTIN6dealii9MappingQ1ILi3ELi3EE12InternalDataE }, comdat, align 8
@_ZTVN6dealii8MappingQILi3ELi3EE12InternalDataE = linkonce_odr dso_local unnamed_addr constant { [6 x ptr] } { [6 x ptr] [ptr null, ptr @_ZTIN6dealii8MappingQILi3ELi3EE12InternalDataE, ptr @_ZN6dealii8MappingQILi3ELi3EE12InternalDataD2Ev, ptr @_ZN6dealii8MappingQILi3ELi3EE12InternalDataD0Ev, ptr @_ZN6dealii7MappingILi3ELi3EE16InternalDataBase16clear_first_cellEv, ptr @_ZNK6dealii8MappingQILi3ELi3EE12InternalData18memory_consumptionEv] }, comdat, align 8
@_ZZNK6dealii8MappingQILi3ELi3EE23add_line_support_pointsERKNS_12TriaIteratorINS_12CellAccessorILi3ELi3EEEEERSt6vectorINS_5PointILi3EEESaISA_EEE17straight_boundary = linkonce_odr dso_local global %"class.dealii::StraightBoundary" zeroinitializer, comdat, align 8
@_ZGVZNK6dealii8MappingQILi3ELi3EE23add_line_support_pointsERKNS_12TriaIteratorINS_12CellAccessorILi3ELi3EEEEERSt6vectorINS_5PointILi3EEESaISA_EEE17straight_boundary = linkonce_odr dso_local global i64 0, comdat, align 8
@__dso_handle = external hidden global i8
@_ZZNK6dealii8MappingQILi3ELi3EE26set_laplace_on_quad_vectorERNS_5TableILi2EdEEE5loqv2 = linkonce_odr dso_local local_unnamed_addr constant [8 x double] [double 6.250000e-02, double 6.250000e-02, double 6.250000e-02, double 6.250000e-02, double 1.875000e-01, double 1.875000e-01, double 1.875000e-01, double 1.875000e-01], comdat, align 16
@_ZZNK6dealii8MappingQILi3ELi3EE26set_laplace_on_quad_vectorERNS_5TableILi2EdEEE5loqv3 = linkonce_odr dso_local local_unnamed_addr constant [48 x double] [double 0x3FB372FE4C568C85, double 0x3F8948B0FCD6E9E0, double 0x3F8948B0FCD6E9E0, double 0x3F8564E4872C00F9, double 0x3FCB59B59B59B59B, double 0x3FC00BAB656100BB, double 0x3FAEA1EA1EA1EA1F, double 0x3FA756CAC201756D, double 0x3FCB59B59B59B59B, double 0x3FC00BAB656100BB, double 0x3FAEA1EA1EA1EA1F, double 0x3FA756CAC201756D, double 0x3F8948B0FCD6E9E0, double 0x3FB372FE4C568C85, double 0x3F8564E4872C00F9, double 0x3F8948B0FCD6E9E0, double 0x3FAEA1EA1EA1EA1F, double 0x3FA756CAC201756D, double 0x3FCB59B59B59B59B, double 0x3FC00BAB656100BB, double 0x3FC00BAB656100BB, double 0x3FCB59B59B59B59B, double 0x3FA756CAC201756D, double 0x3FAEA1EA1EA1EA1F, double 0x3F8948B0FCD6E9E0, double 0x3F8564E4872C00F9, double 0x3FB372FE4C568C85, double 0x3F8948B0FCD6E9E0, double 0x3FC00BAB656100BB, double 0x3FCB59B59B59B59B, double 0x3FA756CAC201756D, double 0x3FAEA1EA1EA1EA1F, double 0x3FAEA1EA1EA1EA1F, double 0x3FA756CAC201756D, double 0x3FCB59B59B59B59B, double 0x3FC00BAB656100BB, double 0x3F8564E4872C00F9, double 0x3F8948B0FCD6E9E0, double 0x3F8948B0FCD6E9E0, double 0x3FB372FE4C568C85, double 0x3FA756CAC201756D, double 0x3FAEA1EA1EA1EA1F, double 0x3FC00BAB656100BB, double 0x3FCB59B59B59B59B, double 0x3FA756CAC201756D, double 0x3FAEA1EA1EA1EA1F, double 0x3FC00BAB656100BB, double 0x3FCB59B59B59B59B], comdat, align 16
@_ZZNK6dealii8MappingQILi3ELi3EE26set_laplace_on_quad_vectorERNS_5TableILi2EdEEE5loqv4 = linkonce_odr dso_local local_unnamed_addr constant [144 x double] [double 0x3FB2F58B81702DE1, double 0xBF519FFFFFFFFB5A, double 0xBF519FFFFFFFFB9F, double 0x3F5F5D1FA3F481E5, double 0x3FCC8F702E05C0DC, double 0x3FC13D5CC3987312, double 0x3FA385A9B536A7AE, double 0x3F9DD4AC9592B05E, double 0x3F968919E33C67A1, double 0x3F90647E8FD1FABF, double 0x3FCC8F702E05C0D8, double 0x3FC13D5CC3987312, double 0x3FA385A9B536A7AD, double 0x3F9DD4AC9592B061, double 0x3F968919E33C6793, double 0x3F90647E8FD1FAB9, double 0x3F7B3AF75EEBDA9E, double 0x3F7B3AF75EEBDD95, double 0x3F678A114228466D, double 0x3F678A11422847F1, double 0x3FB43BAF75EEBE26, double 0x3FAE90000000002D, double 0x3FA288A1142284D8, double 0x3FB43BAF75EEBD9C, double 0x3FAE8FFFFFFFFFF2, double 0x3FA288A1142284CB, double 0x3FC38E05C0B8172F, double 0x3FCE0E6D4DA9B543, double 0x3FC38E05C0B8173A, double 0x3F998FD1FA3F4832, double 0x3FA4E64AC9592A2A, double 0x3F998FD1FA3F4851, double 0xBF51A00000000C20, double 0x3FB2F58B81702DEE, double 0x3F5F5D1FA3F47FA9, double 0xBF519FFFFFFFF968, double 0x3F9DD4AC9592B343, double 0x3F968919E33C679E, double 0x3F90647E8FD1FACD, double 0x3FCC8F702E05C0AA, double 0x3FC13D5CC3987303, double 0x3FA385A9B536A7A9, double 0x3FA385A9B536A7B6, double 0x3FC13D5CC398730A, double 0x3FCC8F702E05C0F2, double 0x3F90647E8FD1FAAB, double 0x3F968919E33C679B, double 0x3F9DD4AC9592B07B, double 0x3F7B3AF75EEBDAAD, double 0x3F678A1142284690, double 0x3F7B3AF75EEBDD9E, double 0x3F678A1142284808, double 0x3FC38E05C0B81733, double 0x3FCE0E6D4DA9B543, double 0x3FC38E05C0B8173A, double 0x3F998FD1FA3F4834, double 0x3FA4E64AC9592A2D, double 0x3F998FD1FA3F4854, double 0x3FB43BAF75EEBE24, double 0x3FAE900000000025, double 0x3FA288A1142284D8, double 0x3FB43BAF75EEBD9C, double 0x3FAE8FFFFFFFFFE3, double 0x3FA288A1142284C3, double 0x3F86AAAAAAAAA9F6, double 0x3F86AAAAAAAAAABA, double 0x3F86AAAAAAAAAAC0, double 0x3F86AAAAAAAAAB95, double 0x3FB1555555555597, double 0x3FBA80000000004F, double 0x3FB15555555555A2, double 0x3FB1555555555574, double 0x3FBA7FFFFFFFFFB8, double 0x3FB1555555555585, double 0x3FB1555555555595, double 0x3FBA800000000041, double 0x3FB155555555559F, double 0x3FB1555555555570, double 0x3FBA7FFFFFFFFFAA, double 0x3FB155555555557E, double 0x3F678A11422843F8, double 0x3F7B3AF75EEBDBFA, double 0x3F678A114228454F, double 0x3F7B3AF75EEBDF05, double 0x3F998FD1FA3F4834, double 0x3FA4E64AC9592BB2, double 0x3F998FD1FA3F484E, double 0x3FC38E05C0B81724, double 0x3FCE0E6D4DA9B514, double 0x3FC38E05C0B8172F, double 0x3FA288A1142284D0, double 0x3FAE900000000028, double 0x3FB43BAF75EEBE3B, double 0x3FA288A1142284BB, double 0x3FAE8FFFFFFFFFEC, double 0x3FB43BAF75EEBDB4, double 0xBF51A00000000BF2, double 0x3F5F5D1FA3F47FAD, double 0x3FB2F58B81702DF0, double 0xBF519FFFFFFFF911, double 0x3FA385A9B536A7B6, double 0x3FC13D5CC398730A, double 0x3FCC8F702E05C0F5, double 0x3F90647E8FD1FAAB, double 0x3F968919E33C67A1, double 0x3F9DD4AC9592B081, double 0x3F9DD4AC9592B343, double 0x3F968919E33C6793, double 0x3F90647E8FD1FACA, double 0x3FCC8F702E05C0AA, double 0x3FC13D5CC3987303, double 0x3FA385A9B536A7A6, double 0x3F678A11422843E3, double 0x3F678A1142284531, double 0x3F7B3AF75EEBDC08, double 0x3F7B3AF75EEBDF04, double 0x3FA288A1142284CD, double 0x3FAE90000000002E, double 0x3FB43BAF75EEBE3C, double 0x3FA288A1142284BC, double 0x3FAE8FFFFFFFFFF4, double 0x3FB43BAF75EEBDB5, double 0x3F998FD1FA3F482C, double 0x3FA4E64AC9592BA5, double 0x3F998FD1FA3F4846, double 0x3FC38E05C0B81721, double 0x3FCE0E6D4DA9B50D, double 0x3FC38E05C0B8172C, double 0x3F5F5D1FA3F47DD2, double 0xBF51A000000009F6, double 0xBF51A00000000983, double 0x3FB2F58B81702E02, double 0x3F90647E8FD1FACA, double 0x3F968919E33C67AF, double 0x3F9DD4AC9592B36E, double 0x3FA385A9B536A7B1, double 0x3FC13D5CC3987300, double 0x3FCC8F702E05C0C6, double 0x3F90647E8FD1FACA, double 0x3F968919E33C67A4, double 0x3F9DD4AC9592B36B, double 0x3FA385A9B536A7B1, double 0x3FC13D5CC39872FC, double 0x3FCC8F702E05C0C6], comdat, align 16
@_ZTVN6dealii8MappingQILi3ELi3EE22ExcLaplaceVectorNotSetE = weak_odr dso_local unnamed_addr constant { [6 x ptr] } { [6 x ptr] [ptr null, ptr @_ZTIN6dealii8MappingQILi3ELi3EE22ExcLaplaceVectorNotSetE, ptr @_ZN6dealii8MappingQILi3ELi3EE22ExcLaplaceVectorNotSetD2Ev, ptr @_ZN6dealii8MappingQILi3ELi3EE22ExcLaplaceVectorNotSetD0Ev, ptr @_ZNK6dealii13ExceptionBase4whatEv, ptr @_ZNK6dealii8MappingQILi3ELi3EE22ExcLaplaceVectorNotSet10print_infoERSo] }, comdat, align 8
@.str = private unnamed_addr constant [35 x i8] c"laplace_vector not set for degree=\00", align 1
@.str.9 = private unnamed_addr constant [2 x i8] c".\00", align 1
@_ZZNK6dealii8MappingQILi3ELi3EE25set_laplace_on_hex_vectorERNS_5TableILi2EdEEE5loqv2 = internal unnamed_addr constant [26 x double] [double 7.812500e-03, double 7.812500e-03, double 7.812500e-03, double 7.812500e-03, double 7.812500e-03, double 7.812500e-03, double 7.812500e-03, double 7.812500e-03, double 0x3FA2AAAAAAAAAAAB, double 0x3FA2AAAAAAAAAAAB, double 0x3FA2AAAAAAAAAAAB, double 0x3FA2AAAAAAAAAAAB, double 0x3FA2AAAAAAAAAAAB, double 0x3FA2AAAAAAAAAAAB, double 0x3FA2AAAAAAAAAAAB, double 0x3FA2AAAAAAAAAAAB, double 0x3FA2AAAAAAAAAAAB, double 0x3FA2AAAAAAAAAAAB, double 0x3FA2AAAAAAAAAAAB, double 0x3FA2AAAAAAAAAAAB, double 0x3FB5555555555555, double 0x3FB5555555555555, double 0x3FB5555555555555, double 0x3FB5555555555555, double 0x3FB5555555555555, double 0x3FB5555555555555], align 16
@_ZZNK6dealii8MappingQILi3ELi3EE23add_quad_support_pointsERKNS_12TriaIteratorINS_12CellAccessorILi3ELi3EEEEERSt6vectorINS_5PointILi3EEESaISA_EEE17straight_boundary = internal global %"class.dealii::StraightBoundary" zeroinitializer, align 8
@_ZGVZNK6dealii8MappingQILi3ELi3EE23add_quad_support_pointsERKNS_12TriaIteratorINS_12CellAccessorILi3ELi3EEEEERSt6vectorINS_5PointILi3EEESaISA_EEE17straight_boundary = internal global i64 0, align 8
@_ZTSN6dealii8MappingQILi3ELi3EEE = weak_odr dso_local constant [29 x i8] c"N6dealii8MappingQILi3ELi3EEE\00", comdat, align 1
@_ZTSN6dealii9MappingQ1ILi3ELi3EEE = linkonce_odr dso_local constant [30 x i8] c"N6dealii9MappingQ1ILi3ELi3EEE\00", comdat, align 1
@_ZTSN6dealii7MappingILi3ELi3EEE = linkonce_odr dso_local constant [28 x i8] c"N6dealii7MappingILi3ELi3EEE\00", comdat, align 1
@_ZTIN6dealii7MappingILi3ELi3EEE = linkonce_odr dso_local constant { ptr, ptr, ptr } { ptr getelementptr inbounds (ptr, ptr @_ZTVN10__cxxabiv120__si_class_type_infoE, i64 2), ptr @_ZTSN6dealii7MappingILi3ELi3EEE, ptr @_ZTIN6dealii11SubscriptorE }, comdat, align 8
@_ZTIN6dealii9MappingQ1ILi3ELi3EEE = linkonce_odr dso_local constant { ptr, ptr, ptr } { ptr getelementptr inbounds (ptr, ptr @_ZTVN10__cxxabiv120__si_class_type_infoE, i64 2), ptr @_ZTSN6dealii9MappingQ1ILi3ELi3EEE, ptr @_ZTIN6dealii7MappingILi3ELi3EEE }, comdat, align 8
@_ZTIN6dealii8MappingQILi3ELi3EEE = weak_odr dso_local constant { ptr, ptr, ptr } { ptr getelementptr inbounds (ptr, ptr @_ZTVN10__cxxabiv120__si_class_type_infoE, i64 2), ptr @_ZTSN6dealii8MappingQILi3ELi3EEE, ptr @_ZTIN6dealii9MappingQ1ILi3ELi3EEE }, comdat, align 8
@_ZTSN6dealii8MappingQILi3ELi3EE22ExcLaplaceVectorNotSetE = weak_odr dso_local constant [53 x i8] c"N6dealii8MappingQILi3ELi3EE22ExcLaplaceVectorNotSetE\00", comdat, align 1
@_ZTIN6dealii13ExceptionBaseE = external constant ptr
@_ZTIN6dealii8MappingQILi3ELi3EE22ExcLaplaceVectorNotSetE = weak_odr dso_local constant { ptr, ptr, ptr } { ptr getelementptr inbounds (ptr, ptr @_ZTVN10__cxxabiv120__si_class_type_infoE, i64 2), ptr @_ZTSN6dealii8MappingQILi3ELi3EE22ExcLaplaceVectorNotSetE, ptr @_ZTIN6dealii13ExceptionBaseE }, comdat, align 8
@_ZTVN6dealii11Polynomials10PolynomialIdEE = linkonce_odr dso_local unnamed_addr constant { [4 x ptr] } { [4 x ptr] [ptr null, ptr @_ZTIN6dealii11Polynomials10PolynomialIdEE, ptr @_ZN6dealii11Polynomials10PolynomialIdED2Ev, ptr @_ZN6dealii11Polynomials10PolynomialIdED0Ev] }, comdat, align 8
@_ZTSN6dealii11Polynomials10PolynomialIdEE = linkonce_odr dso_local constant [38 x i8] c"N6dealii11Polynomials10PolynomialIdEE\00", comdat, align 1
@_ZTIN6dealii11Polynomials10PolynomialIdEE = linkonce_odr dso_local constant { ptr, ptr, ptr } { ptr getelementptr inbounds (ptr, ptr @_ZTVN10__cxxabiv120__si_class_type_infoE, i64 2), ptr @_ZTSN6dealii11Polynomials10PolynomialIdEE, ptr @_ZTIN6dealii11SubscriptorE }, comdat, align 8
@_ZTVN6dealii4FE_QILi3ELi3EEE = linkonce_odr dso_local unnamed_addr constant { [38 x ptr] } { [38 x ptr] [ptr null, ptr @_ZTIN6dealii4FE_QILi3ELi3EEE, ptr @_ZN6dealii4FE_QILi3ELi3EED2Ev, ptr @_ZN6dealii4FE_QILi3ELi3EED0Ev, ptr @_ZNK6dealii4FE_QILi3ELi3EE8get_nameB5cxx11Ev, ptr @_ZNK6dealii7FE_PolyINS_24TensorProductPolynomialsILi3EEELi3ELi3EE11shape_valueEjRKNS_5PointILi3EEE, ptr @_ZNK6dealii7FE_PolyINS_24TensorProductPolynomialsILi3EEELi3ELi3EE21shape_value_componentEjRKNS_5PointILi3EEEj, ptr @_ZNK6dealii7FE_PolyINS_24TensorProductPolynomialsILi3EEELi3ELi3EE10shape_gradEjRKNS_5PointILi3EEE, ptr @_ZNK6dealii7FE_PolyINS_24TensorProductPolynomialsILi3EEELi3ELi3EE20shape_grad_componentEjRKNS_5PointILi3EEEj, ptr @_ZNK6dealii7FE_PolyINS_24TensorProductPolynomialsILi3EEELi3ELi3EE15shape_grad_gradEjRKNS_5PointILi3EEE, ptr @_ZNK6dealii7FE_PolyINS_24TensorProductPolynomialsILi3EEELi3ELi3EE25shape_grad_grad_componentEjRKNS_5PointILi3EEEj, ptr @_ZNK6dealii4FE_QILi3ELi3EE19has_support_on_faceEjj, ptr @_ZNK6dealii4FE_QILi3ELi3EE30hp_constraints_are_implementedEv, ptr @_ZNK6dealii4FE_QILi3ELi3EE24get_interpolation_matrixERKNS_13FiniteElementILi3ELi3EEERNS_10FullMatrixIdEE, ptr @_ZNK6dealii4FE_QILi3ELi3EE29get_face_interpolation_matrixERKNS_13FiniteElementILi3ELi3EEERNS_10FullMatrixIdEE, ptr @_ZNK6dealii4FE_QILi3ELi3EE32get_subface_interpolation_matrixERKNS_13FiniteElementILi3ELi3EEEjRNS_10FullMatrixIdEE, ptr @_ZNK6dealii4FE_QILi3ELi3EE24hp_vertex_dof_identitiesERKNS_13FiniteElementILi3ELi3EEE, ptr @_ZNK6dealii4FE_QILi3ELi3EE22hp_line_dof_identitiesERKNS_13FiniteElementILi3ELi3EEE, ptr @_ZNK6dealii4FE_QILi3ELi3EE22hp_quad_dof_identitiesERKNS_13FiniteElementILi3ELi3EEE, ptr @_ZNK6dealii4FE_QILi3ELi3EE27compare_for_face_dominationERKNS_13FiniteElementILi3ELi3EEE, ptr @_ZNK6dealii7FE_PolyINS_24TensorProductPolynomialsILi3EEELi3ELi3EE15n_base_elementsEv, ptr @_ZNK6dealii7FE_PolyINS_24TensorProductPolynomialsILi3EEELi3ELi3EE12base_elementEj, ptr @_ZNK6dealii7FE_PolyINS_24TensorProductPolynomialsILi3EEELi3ELi3EE20element_multiplicityEj, ptr @_ZNK6dealii13FiniteElementILi3ELi3EE18unit_support_pointEj, ptr @_ZNK6dealii13FiniteElementILi3ELi3EE23unit_face_support_pointEj, ptr @_ZNK6dealii13FiniteElementILi3ELi3EE11interpolateERSt6vectorIdSaIdEERKS4_, ptr @_ZNK6dealii13FiniteElementILi3ELi3EE11interpolateERSt6vectorIdSaIdEERKS2_INS_6VectorIdEESaIS7_EEj, ptr @_ZNK6dealii13FiniteElementILi3ELi3EE11interpolateERSt6vectorIdSaIdEERKNS_11VectorSliceIKS2_IS4_SaIS4_EEEE, ptr @_ZNK6dealii4FE_QILi3ELi3EE18memory_consumptionEv, ptr @_ZNK6dealii7FE_PolyINS_24TensorProductPolynomialsILi3EEELi3ELi3EE11update_onceENS_11UpdateFlagsE, ptr @_ZNK6dealii7FE_PolyINS_24TensorProductPolynomialsILi3EEELi3ELi3EE11update_eachENS_11UpdateFlagsE, ptr @_ZNK6dealii4FE_QILi3ELi3EE5cloneEv, ptr @_ZNK6dealii7FE_PolyINS_24TensorProductPolynomialsILi3EEELi3ELi3EE8get_dataENS_11UpdateFlagsERKNS_7MappingILi3ELi3EEERKNS_10QuadratureILi3EEE, ptr @_ZNK6dealii13FiniteElementILi3ELi3EE13get_face_dataENS_11UpdateFlagsERKNS_7MappingILi3ELi3EEERKNS_10QuadratureILi2EEE, ptr @_ZNK6dealii13FiniteElementILi3ELi3EE16get_subface_dataENS_11UpdateFlagsERKNS_7MappingILi3ELi3EEERKNS_10QuadratureILi2EEE, ptr @_ZNK6dealii7FE_PolyINS_24TensorProductPolynomialsILi3EEELi3ELi3EE14fill_fe_valuesERKNS_7MappingILi3ELi3EEERKNS_12TriaIteratorINS_12CellAccessorILi3ELi3EEEEERKNS_10QuadratureILi3EEERNS5_16InternalDataBaseESJ_RNS_12FEValuesDataILi3ELi3EEERNS_14CellSimilarity10SimilarityE, ptr @_ZNK6dealii7FE_PolyINS_24TensorProductPolynomialsILi3EEELi3ELi3EE19fill_fe_face_valuesERKNS_7MappingILi3ELi3EEERKNS_12TriaIteratorINS_12CellAccessorILi3ELi3EEEEEjRKNS_10QuadratureILi2EEERNS5_16InternalDataBaseESJ_RNS_12FEValuesDataILi3ELi3EEE, ptr @_ZNK6dealii7FE_PolyINS_24TensorProductPolynomialsILi3EEELi3ELi3EE22fill_fe_subface_valuesERKNS_7MappingILi3ELi3EEERKNS_12TriaIteratorINS_12CellAccessorILi3ELi3EEEEEjjRKNS_10QuadratureILi2EEERNS5_16InternalDataBaseESJ_RNS_12FEValuesDataILi3ELi3EEE] }, comdat, align 8
@_ZTSN6dealii4FE_QILi3ELi3EEE = linkonce_odr dso_local constant [25 x i8] c"N6dealii4FE_QILi3ELi3EEE\00", comdat, align 1
@_ZTSN6dealii7FE_PolyINS_24TensorProductPolynomialsILi3EEELi3ELi3EEE = linkonce_odr dso_local constant [64 x i8] c"N6dealii7FE_PolyINS_24TensorProductPolynomialsILi3EEELi3ELi3EEE\00", comdat, align 1
@_ZTVN10__cxxabiv121__vmi_class_type_infoE = external global ptr
@_ZTSN6dealii13FiniteElementILi3ELi3EEE = linkonce_odr dso_local constant [35 x i8] c"N6dealii13FiniteElementILi3ELi3EEE\00", comdat, align 1
@_ZTVN10__cxxabiv117__class_type_infoE = external global ptr
@_ZTSN6dealii17FiniteElementDataILi3EEE = linkonce_odr dso_local constant [35 x i8] c"N6dealii17FiniteElementDataILi3EEE\00", comdat, align 1
@_ZTIN6dealii17FiniteElementDataILi3EEE = linkonce_odr dso_local constant { ptr, ptr } { ptr getelementptr inbounds (ptr, ptr @_ZTVN10__cxxabiv117__class_type_infoE, i64 2), ptr @_ZTSN6dealii17FiniteElementDataILi3EEE }, comdat, align 8
@_ZTIN6dealii13FiniteElementILi3ELi3EEE = linkonce_odr dso_local constant { ptr, ptr, i32, i32, ptr, i64, ptr, i64 } { ptr getelementptr inbounds (ptr, ptr @_ZTVN10__cxxabiv121__vmi_class_type_infoE, i64 2), ptr @_ZTSN6dealii13FiniteElementILi3ELi3EEE, i32 0, i32 2, ptr @_ZTIN6dealii11SubscriptorE, i64 2, ptr @_ZTIN6dealii17FiniteElementDataILi3EEE, i64 18434 }, comdat, align 8
@_ZTIN6dealii7FE_PolyINS_24TensorProductPolynomialsILi3EEELi3ELi3EEE = linkonce_odr dso_local constant { ptr, ptr, ptr } { ptr getelementptr inbounds (ptr, ptr @_ZTVN10__cxxabiv120__si_class_type_infoE, i64 2), ptr @_ZTSN6dealii7FE_PolyINS_24TensorProductPolynomialsILi3EEELi3ELi3EEE, ptr @_ZTIN6dealii13FiniteElementILi3ELi3EEE }, comdat, align 8
@_ZTIN6dealii4FE_QILi3ELi3EEE = linkonce_odr dso_local constant { ptr, ptr, ptr } { ptr getelementptr inbounds (ptr, ptr @_ZTVN10__cxxabiv120__si_class_type_infoE, i64 2), ptr @_ZTSN6dealii4FE_QILi3ELi3EEE, ptr @_ZTIN6dealii7FE_PolyINS_24TensorProductPolynomialsILi3EEELi3ELi3EEE }, comdat, align 8
@_ZTVN6dealii7FE_PolyINS_24TensorProductPolynomialsILi3EEELi3ELi3EEE = linkonce_odr dso_local unnamed_addr constant { [38 x ptr] } { [38 x ptr] [ptr null, ptr @_ZTIN6dealii7FE_PolyINS_24TensorProductPolynomialsILi3EEELi3ELi3EEE, ptr @_ZN6dealii7FE_PolyINS_24TensorProductPolynomialsILi3EEELi3ELi3EED2Ev, ptr @_ZN6dealii7FE_PolyINS_24TensorProductPolynomialsILi3EEELi3ELi3EED0Ev, ptr @__cxa_pure_virtual, ptr @_ZNK6dealii7FE_PolyINS_24TensorProductPolynomialsILi3EEELi3ELi3EE11shape_valueEjRKNS_5PointILi3EEE, ptr @_ZNK6dealii7FE_PolyINS_24TensorProductPolynomialsILi3EEELi3ELi3EE21shape_value_componentEjRKNS_5PointILi3EEEj, ptr @_ZNK6dealii7FE_PolyINS_24TensorProductPolynomialsILi3EEELi3ELi3EE10shape_gradEjRKNS_5PointILi3EEE, ptr @_ZNK6dealii7FE_PolyINS_24TensorProductPolynomialsILi3EEELi3ELi3EE20shape_grad_componentEjRKNS_5PointILi3EEEj, ptr @_ZNK6dealii7FE_PolyINS_24TensorProductPolynomialsILi3EEELi3ELi3EE15shape_grad_gradEjRKNS_5PointILi3EEE, ptr @_ZNK6dealii7FE_PolyINS_24TensorProductPolynomialsILi3EEELi3ELi3EE25shape_grad_grad_componentEjRKNS_5PointILi3EEEj, ptr @_ZNK6dealii13FiniteElementILi3ELi3EE19has_support_on_faceEjj, ptr @_ZNK6dealii13FiniteElementILi3ELi3EE30hp_constraints_are_implementedEv, ptr @_ZNK6dealii13FiniteElementILi3ELi3EE24get_interpolation_matrixERKS1_RNS_10FullMatrixIdEE, ptr @_ZNK6dealii13FiniteElementILi3ELi3EE29get_face_interpolation_matrixERKS1_RNS_10FullMatrixIdEE, ptr @_ZNK6dealii13FiniteElementILi3ELi3EE32get_subface_interpolation_matrixERKS1_jRNS_10FullMatrixIdEE, ptr @_ZNK6dealii13FiniteElementILi3ELi3EE24hp_vertex_dof_identitiesERKS1_, ptr @_ZNK6dealii13FiniteElementILi3ELi3EE22hp_line_dof_identitiesERKS1_, ptr @_ZNK6dealii13FiniteElementILi3ELi3EE22hp_quad_dof_identitiesERKS1_, ptr @_ZNK6dealii13FiniteElementILi3ELi3EE27compare_for_face_dominationERKS1_, ptr @_ZNK6dealii7FE_PolyINS_24TensorProductPolynomialsILi3EEELi3ELi3EE15n_base_elementsEv, ptr @_ZNK6dealii7FE_PolyINS_24TensorProductPolynomialsILi3EEELi3ELi3EE12base_elementEj, ptr @_ZNK6dealii7FE_PolyINS_24TensorProductPolynomialsILi3EEELi3ELi3EE20element_multiplicityEj, ptr @_ZNK6dealii13FiniteElementILi3ELi3EE18unit_support_pointEj, ptr @_ZNK6dealii13FiniteElementILi3ELi3EE23unit_face_support_pointEj, ptr @_ZNK6dealii13FiniteElementILi3ELi3EE11interpolateERSt6vectorIdSaIdEERKS4_, ptr @_ZNK6dealii13FiniteElementILi3ELi3EE11interpolateERSt6vectorIdSaIdEERKS2_INS_6VectorIdEESaIS7_EEj, ptr @_ZNK6dealii13FiniteElementILi3ELi3EE11interpolateERSt6vectorIdSaIdEERKNS_11VectorSliceIKS2_IS4_SaIS4_EEEE, ptr @_ZNK6dealii13FiniteElementILi3ELi3EE18memory_consumptionEv, ptr @_ZNK6dealii7FE_PolyINS_24TensorProductPolynomialsILi3EEELi3ELi3EE11update_onceENS_11UpdateFlagsE, ptr @_ZNK6dealii7FE_PolyINS_24TensorProductPolynomialsILi3EEELi3ELi3EE11update_eachENS_11UpdateFlagsE, ptr @__cxa_pure_virtual, ptr @_ZNK6dealii7FE_PolyINS_24TensorProductPolynomialsILi3EEELi3ELi3EE8get_dataENS_11UpdateFlagsERKNS_7MappingILi3ELi3EEERKNS_10QuadratureILi3EEE, ptr @_ZNK6dealii13FiniteElementILi3ELi3EE13get_face_dataENS_11UpdateFlagsERKNS_7MappingILi3ELi3EEERKNS_10QuadratureILi2EEE, ptr @_ZNK6dealii13FiniteElementILi3ELi3EE16get_subface_dataENS_11UpdateFlagsERKNS_7MappingILi3ELi3EEERKNS_10QuadratureILi2EEE, ptr @_ZNK6dealii7FE_PolyINS_24TensorProductPolynomialsILi3EEELi3ELi3EE14fill_fe_valuesERKNS_7MappingILi3ELi3EEERKNS_12TriaIteratorINS_12CellAccessorILi3ELi3EEEEERKNS_10QuadratureILi3EEERNS5_16InternalDataBaseESJ_RNS_12FEValuesDataILi3ELi3EEERNS_14CellSimilarity10SimilarityE, ptr @_ZNK6dealii7FE_PolyINS_24TensorProductPolynomialsILi3EEELi3ELi3EE19fill_fe_face_valuesERKNS_7MappingILi3ELi3EEERKNS_12TriaIteratorINS_12CellAccessorILi3ELi3EEEEEjRKNS_10QuadratureILi2EEERNS5_16InternalDataBaseESJ_RNS_12FEValuesDataILi3ELi3EEE, ptr @_ZNK6dealii7FE_PolyINS_24TensorProductPolynomialsILi3EEELi3ELi3EE22fill_fe_subface_valuesERKNS_7MappingILi3ELi3EEERKNS_12TriaIteratorINS_12CellAccessorILi3ELi3EEEEEjjRKNS_10QuadratureILi2EEERNS5_16InternalDataBaseESJ_RNS_12FEValuesDataILi3ELi3EEE] }, comdat, align 8
@_ZTVN6dealii9TableBaseILi2EdEE = linkonce_odr dso_local unnamed_addr constant { [4 x ptr] } { [4 x ptr] [ptr null, ptr @_ZTIN6dealii9TableBaseILi2EdEE, ptr @_ZN6dealii9TableBaseILi2EdED2Ev, ptr @_ZN6dealii9TableBaseILi2EdED0Ev] }, comdat, align 8
@_ZTSN6dealii9TableBaseILi2EdEE = linkonce_odr dso_local constant [27 x i8] c"N6dealii9TableBaseILi2EdEE\00", comdat, align 1
@_ZTIN6dealii9TableBaseILi2EdEE = linkonce_odr dso_local constant { ptr, ptr, ptr } { ptr getelementptr inbounds (ptr, ptr @_ZTVN10__cxxabiv120__si_class_type_infoE, i64 2), ptr @_ZTSN6dealii9TableBaseILi2EdEE, ptr @_ZTIN6dealii11SubscriptorE }, comdat, align 8
@_ZTVN6dealii9MappingQ1ILi3ELi3EE12InternalDataE = linkonce_odr dso_local unnamed_addr constant { [6 x ptr] } { [6 x ptr] [ptr null, ptr @_ZTIN6dealii9MappingQ1ILi3ELi3EE12InternalDataE, ptr @_ZN6dealii9MappingQ1ILi3ELi3EE12InternalDataD2Ev, ptr @_ZN6dealii9MappingQ1ILi3ELi3EE12InternalDataD0Ev, ptr @_ZN6dealii7MappingILi3ELi3EE16InternalDataBase16clear_first_cellEv, ptr @_ZNK6dealii9MappingQ1ILi3ELi3EE12InternalData18memory_consumptionEv] }, comdat, align 8
@.str.10 = private unnamed_addr constant [49 x i8] c"cannot create std::vector larger than max_size()\00", align 1
@.str.11 = private unnamed_addr constant [26 x i8] c"vector::_M_realloc_insert\00", align 1
@.str.12 = private unnamed_addr constant [23 x i8] c"vector::_M_fill_insert\00", align 1
@_ZTVN6dealii5TableILi2EdEE = linkonce_odr dso_local unnamed_addr constant { [4 x ptr] } { [4 x ptr] [ptr null, ptr @_ZTIN6dealii5TableILi2EdEE, ptr @_ZN6dealii9TableBaseILi2EdED2Ev, ptr @_ZN6dealii5TableILi2EdED0Ev] }, comdat, align 8
@_ZTSN6dealii5TableILi2EdEE = linkonce_odr dso_local constant [23 x i8] c"N6dealii5TableILi2EdEE\00", comdat, align 1
@_ZTIN6dealii5TableILi2EdEE = linkonce_odr dso_local constant { ptr, ptr, ptr } { ptr getelementptr inbounds (ptr, ptr @_ZTVN10__cxxabiv120__si_class_type_infoE, i64 2), ptr @_ZTSN6dealii5TableILi2EdEE, ptr @_ZTIN6dealii9TableBaseILi2EdEE }, comdat, align 8
@_ZTVN6dealii11Polynomials19LagrangeEquidistantE = linkonce_odr dso_local unnamed_addr constant { [4 x ptr] } { [4 x ptr] [ptr null, ptr @_ZTIN6dealii11Polynomials19LagrangeEquidistantE, ptr @_ZN6dealii11Polynomials10PolynomialIdED2Ev, ptr @_ZN6dealii11Polynomials19LagrangeEquidistantD0Ev] }, comdat, align 8
@_ZTSN6dealii11Polynomials19LagrangeEquidistantE = linkonce_odr dso_local constant [44 x i8] c"N6dealii11Polynomials19LagrangeEquidistantE\00", comdat, align 1
@_ZTIN6dealii11Polynomials19LagrangeEquidistantE = linkonce_odr dso_local constant { ptr, ptr, ptr } { ptr getelementptr inbounds (ptr, ptr @_ZTVN10__cxxabiv120__si_class_type_infoE, i64 2), ptr @_ZTSN6dealii11Polynomials19LagrangeEquidistantE, ptr @_ZTIN6dealii11Polynomials10PolynomialIdEE }, comdat, align 8
@_ZZN6dealii8internal12TriaAccessor14Implementation10line_indexILi3ELi3EEEjRKNS_12TriaAccessorILi3EXT_EXT0_EEEjE12lookup_table = linkonce_odr dso_local local_unnamed_addr constant [12 x [2 x i32]] [[2 x i32] [i32 4, i32 0], [2 x i32] [i32 4, i32 1], [2 x i32] [i32 4, i32 2], [2 x i32] [i32 4, i32 3], [2 x i32] [i32 5, i32 0], [2 x i32] [i32 5, i32 1], [2 x i32] [i32 5, i32 2], [2 x i32] [i32 5, i32 3], [2 x i32] zeroinitializer, [2 x i32] [i32 1, i32 0], [2 x i32] [i32 0, i32 1], [2 x i32] [i32 1, i32 1]], comdat, align 16
@_ZZN6dealii8internal12TriaAccessor14Implementation16line_orientationILi3ELi3EEEbRKNS_12TriaAccessorILi3EXT_EXT0_EEEjE12lookup_table = linkonce_odr dso_local local_unnamed_addr constant [12 x [2 x i32]] [[2 x i32] [i32 4, i32 0], [2 x i32] [i32 4, i32 1], [2 x i32] [i32 4, i32 2], [2 x i32] [i32 4, i32 3], [2 x i32] [i32 5, i32 0], [2 x i32] [i32 5, i32 1], [2 x i32] [i32 5, i32 2], [2 x i32] [i32 5, i32 3], [2 x i32] zeroinitializer, [2 x i32] [i32 1, i32 0], [2 x i32] [i32 0, i32 1], [2 x i32] [i32 1, i32 1]], comdat, align 16
@_ZZN6dealii8internal12TriaAccessor14Implementation16line_orientationILi3ELi3EEEbRKNS_12TriaAccessorILi3EXT_EXT0_EEEjE10bool_table = linkonce_odr dso_local local_unnamed_addr constant [2 x [2 x [2 x [2 x i8]]]] [[2 x [2 x [2 x i8]]] [[2 x [2 x i8]] [[2 x i8] c"\01\00", [2 x i8] c"\00\01"], [2 x [2 x i8]] [[2 x i8] c"\01\01", [2 x i8] zeroinitializer]], [2 x [2 x [2 x i8]]] [[2 x [2 x i8]] [[2 x i8] c"\01\01", [2 x i8] zeroinitializer], [2 x [2 x i8]] [[2 x i8] c"\01\00", [2 x i8] c"\00\01"]]], comdat, align 16
@.str.13 = private unnamed_addr constant [24 x i8] c"vector::_M_range_insert\00", align 1
@_ZZN6dealii8internal12TriaAccessor14Implementation12vertex_indexILi3ELi3EEEjRKNS_12TriaAccessorILi2EXT_EXT0_EEEjE12switch_table = linkonce_odr dso_local local_unnamed_addr constant [2 x [2 x i32]] [[2 x i32] [i32 1, i32 0], [2 x i32] [i32 0, i32 1]], comdat, align 16
@llvm.global_ctors = appending global [0 x { i32, ptr, ptr }] zeroinitializer
@switch.table._ZNK6dealii8MappingQILi3ELi3EE26set_laplace_on_quad_vectorERNS_5TableILi2EdEE = private unnamed_addr constant [3 x ptr] [ptr @_ZZNK6dealii8MappingQILi3ELi3EE26set_laplace_on_quad_vectorERNS_5TableILi2EdEEE5loqv2, ptr @_ZZNK6dealii8MappingQILi3ELi3EE26set_laplace_on_quad_vectorERNS_5TableILi2EdEEE5loqv3, ptr @_ZZNK6dealii8MappingQILi3ELi3EE26set_laplace_on_quad_vectorERNS_5TableILi2EdEEE5loqv4], align 8

@_ZN6dealii8MappingQILi3ELi3EEC1Ejb = weak_odr dso_local unnamed_addr alias void (ptr, i32, i1), ptr @_ZN6dealii8MappingQILi3ELi3EEC2Ejb
@_ZN6dealii8MappingQILi3ELi3EEC1ERKS1_ = weak_odr dso_local unnamed_addr alias void (ptr, ptr), ptr @_ZN6dealii8MappingQILi3ELi3EEC2ERKS1_
@_ZN6dealii8MappingQILi3ELi3EED1Ev = weak_odr dso_local unnamed_addr alias void (ptr), ptr @_ZN6dealii8MappingQILi3ELi3EED2Ev
@_ZN6dealii8MappingQILi3ELi3EE12InternalDataC1Ej = weak_odr dso_local unnamed_addr alias void (ptr, i32), ptr @_ZN6dealii8MappingQILi3ELi3EE12InternalDataC2Ej
@_ZN6dealii8MappingQILi3ELi3EE22ExcLaplaceVectorNotSetC1Ei = weak_odr dso_local unnamed_addr alias void (ptr, i32), ptr @_ZN6dealii8MappingQILi3ELi3EE22ExcLaplaceVectorNotSetC2Ei
@_ZN6dealii8MappingQILi3ELi3EE22ExcLaplaceVectorNotSetD1Ev = weak_odr dso_local unnamed_addr alias void (ptr), ptr @_ZN6dealii8MappingQILi3ELi3EE22ExcLaplaceVectorNotSetD2Ev

; Function Attrs: sspstrong uwtable
define weak_odr dso_local void @_ZN6dealii8MappingQILi3ELi3EEC2Ejb(ptr noundef nonnull align 8 dereferenceable(1160) %0, i32 noundef %1, i1 noundef zeroext %2) unnamed_addr #0 comdat($_ZN6dealii8MappingQILi3ELi3EEC5Ejb) align 2 personality ptr @__gxx_personality_v0 {
  %4 = alloca %"class.dealii::FiniteElementData", align 4
  %5 = alloca %"class.std::vector", align 8
  %6 = alloca %"class.std::vector.67", align 8
  %7 = alloca %"class.dealii::Polynomials::LagrangeEquidistant", align 8
  %8 = zext i1 %2 to i8
  tail call void @_ZN6dealii9MappingQ1ILi3ELi3EEC2Ev(ptr noundef nonnull align 8 dereferenceable(72) %0)
  store ptr getelementptr inbounds ({ [21 x ptr] }, ptr @_ZTVN6dealii8MappingQILi3ELi3EEE, i64 0, inrange i32 0, i64 2), ptr %0, align 8, !tbaa !5
  %9 = getelementptr inbounds %"class.dealii::MappingQ", ptr %0, i64 0, i32 1
  invoke void @_ZN6dealii11SubscriptorC2Ev(ptr noundef nonnull align 8 dereferenceable(72) %9)
          to label %10 unwind label %53

10:                                               ; preds = %3
  %11 = getelementptr inbounds %"class.dealii::MappingQ", ptr %0, i64 0, i32 1, i32 0, i32 1
  tail call void @llvm.memset.p0.i64(ptr noundef nonnull align 8 dereferenceable(20) %11, i8 0, i64 20, i1 false)
  store ptr getelementptr inbounds ({ [4 x ptr] }, ptr @_ZTVN6dealii5TableILi2EdEE, i64 0, inrange i32 0, i64 2), ptr %9, align 8, !tbaa !5
  %12 = getelementptr inbounds %"class.dealii::MappingQ", ptr %0, i64 0, i32 2
  invoke void @_ZN6dealii11SubscriptorC2Ev(ptr noundef nonnull align 8 dereferenceable(72) %12)
          to label %13 unwind label %55

13:                                               ; preds = %10
  %14 = getelementptr inbounds %"class.dealii::MappingQ", ptr %0, i64 0, i32 2, i32 0, i32 1
  tail call void @llvm.memset.p0.i64(ptr noundef nonnull align 8 dereferenceable(20) %14, i8 0, i64 20, i1 false)
  store ptr getelementptr inbounds ({ [4 x ptr] }, ptr @_ZTVN6dealii5TableILi2EdEE, i64 0, inrange i32 0, i64 2), ptr %12, align 8, !tbaa !5
  %15 = getelementptr inbounds %"class.dealii::MappingQ", ptr %0, i64 0, i32 3
  store i32 %1, ptr %15, align 8, !tbaa !8
  %16 = getelementptr inbounds %"class.dealii::MappingQ", ptr %0, i64 0, i32 4
  %17 = add i32 %1, -1
  %18 = mul i32 %17, %17
  %19 = mul i32 %18, %17
  store i32 %19, ptr %16, align 4, !tbaa !81
  %20 = getelementptr inbounds %"class.dealii::MappingQ", ptr %0, i64 0, i32 5
  %21 = mul i32 %17, 6
  %22 = add i32 %21, 12
  %23 = mul i32 %22, %17
  %24 = add i32 %23, 8
  store i32 %24, ptr %20, align 8, !tbaa !82
  %25 = getelementptr inbounds %"class.dealii::MappingQ", ptr %0, i64 0, i32 6
  store ptr null, ptr %25, align 8, !tbaa !83
  %26 = getelementptr inbounds %"class.dealii::MappingQ", ptr %0, i64 0, i32 7
  %27 = add i32 %1, 1
  %28 = mul i32 %27, %27
  %29 = mul i32 %28, %27
  store i32 %29, ptr %26, align 8, !tbaa !84
  %30 = getelementptr inbounds %"class.dealii::MappingQ", ptr %0, i64 0, i32 8
  call void @llvm.lifetime.start.p0(i64 60, ptr nonnull %4) #19
  call void @llvm.lifetime.start.p0(i64 24, ptr nonnull %5) #19
  tail call void @llvm.experimental.noalias.scope.decl(metadata !85)
  %31 = invoke noalias noundef nonnull dereferenceable(16) ptr @_Znwm(i64 noundef 16) #20
          to label %32 unwind label %57

32:                                               ; preds = %13
  store ptr %31, ptr %5, align 8, !tbaa !88, !alias.scope !85
  %33 = getelementptr inbounds i32, ptr %31, i64 4
  %34 = getelementptr inbounds %"struct.std::_Vector_base<unsigned int, std::allocator<unsigned int> >::_Vector_impl_data", ptr %5, i64 0, i32 2
  store ptr %33, ptr %34, align 8, !tbaa !89, !alias.scope !85
  store i32 1, ptr %31, align 4, !tbaa !90, !noalias !85
  %35 = getelementptr inbounds i32, ptr %31, i64 1
  %36 = getelementptr inbounds i32, ptr %31, i64 2
  %37 = getelementptr inbounds i32, ptr %31, i64 3
  %38 = getelementptr inbounds %"struct.std::_Vector_base<unsigned int, std::allocator<unsigned int> >::_Vector_impl_data", ptr %5, i64 0, i32 1
  store ptr %33, ptr %38, align 8, !tbaa !91, !alias.scope !85
  store i32 %17, ptr %35, align 4, !tbaa !90, !noalias !85
  store i32 %18, ptr %36, align 4, !tbaa !90, !noalias !85
  store i32 %19, ptr %37, align 4, !tbaa !90, !noalias !85
  invoke void @_ZN6dealii17FiniteElementDataILi3EEC1ERKSt6vectorIjSaIjEEjjNS1_10ConformityEj(ptr noundef nonnull align 4 dereferenceable(60) %4, ptr noundef nonnull align 8 dereferenceable(24) %5, i32 noundef 1, i32 noundef %1, i32 noundef 0, i32 noundef -1)
          to label %39 unwind label %59

39:                                               ; preds = %32
  invoke void @_ZN6dealii7FETools37lexicographic_to_hierarchic_numberingILi3EEESt6vectorIjSaIjEERKNS_17FiniteElementDataIXT_EEE(ptr nonnull sret(%"class.std::vector") align 8 %30, ptr noundef nonnull align 4 dereferenceable(60) %4)
          to label %40 unwind label %59

40:                                               ; preds = %39
  %41 = load ptr, ptr %5, align 8, !tbaa !88
  %42 = icmp eq ptr %41, null
  br i1 %42, label %44, label %43

43:                                               ; preds = %40
  call void @_ZdlPv(ptr noundef nonnull %41) #21
  br label %44

44:                                               ; preds = %43, %40
  call void @llvm.lifetime.end.p0(i64 24, ptr nonnull %5) #19
  call void @llvm.lifetime.end.p0(i64 60, ptr nonnull %4) #19
  %45 = getelementptr inbounds %"class.dealii::MappingQ", ptr %0, i64 0, i32 9
  store i8 %8, ptr %45, align 8, !tbaa !92
  %46 = getelementptr inbounds %"class.dealii::MappingQ", ptr %0, i64 0, i32 10
  %47 = load i32, ptr %15, align 8, !tbaa !8
  invoke void @_ZN6dealii4FE_QILi3ELi3EEC1Ej(ptr noundef nonnull align 8 dereferenceable(832) %46, i32 noundef %47)
          to label %48 unwind label %66

48:                                               ; preds = %44
  call void @llvm.lifetime.start.p0(i64 24, ptr nonnull %6) #19
  call void @llvm.memset.p0.i64(ptr noundef nonnull align 8 dereferenceable(24) %6, i8 0, i64 24, i1 false)
  %49 = load i32, ptr %15, align 8, !tbaa !8
  %50 = getelementptr inbounds %"class.dealii::Polynomials::Polynomial", ptr %7, i64 0, i32 1
  br label %68

51:                                               ; preds = %77
  %52 = invoke noalias noundef nonnull dereferenceable(80) ptr @_Znwm(i64 noundef 80) #20
          to label %87 unwind label %93

53:                                               ; preds = %3
  %54 = landingpad { ptr, i32 }
          cleanup
  br label %134

55:                                               ; preds = %10
  %56 = landingpad { ptr, i32 }
          cleanup
  br label %132

57:                                               ; preds = %13
  %58 = landingpad { ptr, i32 }
          cleanup
  br label %64

59:                                               ; preds = %39, %32
  %60 = landingpad { ptr, i32 }
          cleanup
  %61 = load ptr, ptr %5, align 8, !tbaa !88
  %62 = icmp eq ptr %61, null
  br i1 %62, label %64, label %63

63:                                               ; preds = %59
  call void @_ZdlPv(ptr noundef nonnull %61) #21
  br label %64

64:                                               ; preds = %63, %59, %57
  %65 = phi { ptr, i32 } [ %58, %57 ], [ %60, %59 ], [ %60, %63 ]
  call void @llvm.lifetime.end.p0(i64 24, ptr nonnull %5) #19
  call void @llvm.lifetime.end.p0(i64 60, ptr nonnull %4) #19
  br label %130

66:                                               ; preds = %44
  %67 = landingpad { ptr, i32 }
          cleanup
  br label %125

68:                                               ; preds = %48, %77
  %69 = phi i32 [ %49, %48 ], [ %79, %77 ]
  %70 = phi i32 [ 0, %48 ], [ %78, %77 ]
  call void @llvm.lifetime.start.p0(i64 96, ptr nonnull %7) #19
  invoke void @_ZN6dealii11Polynomials19LagrangeEquidistantC1Ejj(ptr noundef nonnull align 8 dereferenceable(96) %7, i32 noundef %69, i32 noundef %70)
          to label %71 unwind label %81

71:                                               ; preds = %68
  invoke void @_ZNSt6vectorIN6dealii11Polynomials19LagrangeEquidistantESaIS2_EE9push_backERKS2_(ptr noundef nonnull align 8 dereferenceable(24) %6, ptr noundef nonnull align 8 dereferenceable(96) %7)
          to label %72 unwind label %83

72:                                               ; preds = %71
  store ptr getelementptr inbounds ({ [4 x ptr] }, ptr @_ZTVN6dealii11Polynomials10PolynomialIdEE, i64 0, inrange i32 0, i64 2), ptr %7, align 8, !tbaa !5
  %73 = load ptr, ptr %50, align 8, !tbaa !93
  %74 = icmp eq ptr %73, null
  br i1 %74, label %76, label %75

75:                                               ; preds = %72
  call void @_ZdlPv(ptr noundef nonnull %73) #21
  br label %76

76:                                               ; preds = %75, %72
  invoke void @_ZN6dealii11SubscriptorD2Ev(ptr noundef nonnull align 8 dereferenceable(72) %7)
          to label %77 unwind label %81

77:                                               ; preds = %76
  call void @llvm.lifetime.end.p0(i64 96, ptr nonnull %7) #19
  %78 = add i32 %70, 1
  %79 = load i32, ptr %15, align 8, !tbaa !8
  %80 = icmp ugt i32 %78, %79
  br i1 %80, label %51, label %68

81:                                               ; preds = %76, %68
  %82 = landingpad { ptr, i32 }
          cleanup
  br label %85

83:                                               ; preds = %71
  %84 = landingpad { ptr, i32 }
          cleanup
  invoke void @_ZN6dealii11Polynomials10PolynomialIdED2Ev(ptr noundef nonnull align 8 dereferenceable(96) %7)
          to label %85 unwind label %137

85:                                               ; preds = %83, %81
  %86 = phi { ptr, i32 } [ %82, %81 ], [ %84, %83 ]
  call void @llvm.lifetime.end.p0(i64 96, ptr nonnull %7) #19
  br label %121

87:                                               ; preds = %51
  invoke void @_ZN6dealii24TensorProductPolynomialsILi3EEC2INS_11Polynomials19LagrangeEquidistantEEERKSt6vectorIT_SaIS6_EE(ptr noundef nonnull align 8 dereferenceable(80) %52, ptr noundef nonnull align 8 dereferenceable(24) %6)
          to label %88 unwind label %95

88:                                               ; preds = %87
  store ptr %52, ptr %25, align 8, !tbaa !83
  %89 = load i32, ptr %15, align 8, !tbaa !8
  %90 = icmp ugt i32 %89, 1
  br i1 %90, label %91, label %97

91:                                               ; preds = %88
  invoke void @_ZNK6dealii8MappingQILi3ELi3EE26set_laplace_on_quad_vectorERNS_5TableILi2EdEE(ptr noundef nonnull align 8 dereferenceable(1160) %0, ptr noundef nonnull align 8 dereferenceable(92) %9)
          to label %92 unwind label %93

92:                                               ; preds = %91
  invoke void @_ZNK6dealii8MappingQILi3ELi3EE25set_laplace_on_hex_vectorERNS_5TableILi2EdEE(ptr noundef nonnull align 8 dereferenceable(1160) %0, ptr noundef nonnull align 8 dereferenceable(92) %12)
          to label %97 unwind label %93

93:                                               ; preds = %92, %91, %51
  %94 = landingpad { ptr, i32 }
          cleanup
  br label %121

95:                                               ; preds = %87
  %96 = landingpad { ptr, i32 }
          cleanup
  call void @_ZdlPv(ptr noundef nonnull %52) #21
  br label %121

97:                                               ; preds = %92, %88
  %98 = load ptr, ptr %6, align 8, !tbaa !95
  %99 = getelementptr inbounds %"struct.std::_Vector_base<dealii::Polynomials::LagrangeEquidistant, std::allocator<dealii::Polynomials::LagrangeEquidistant> >::_Vector_impl_data", ptr %6, i64 0, i32 1
  %100 = load ptr, ptr %99, align 8, !tbaa !97
  %101 = icmp eq ptr %98, %100
  br i1 %101, label %111, label %102

102:                                              ; preds = %97, %106
  %103 = phi ptr [ %107, %106 ], [ %98, %97 ]
  %104 = load ptr, ptr %103, align 8, !tbaa !5
  %105 = load ptr, ptr %104, align 8
  invoke void %105(ptr noundef nonnull align 8 dereferenceable(96) %103)
          to label %106 unwind label %115

106:                                              ; preds = %102
  %107 = getelementptr inbounds %"class.dealii::Polynomials::LagrangeEquidistant", ptr %103, i64 1
  %108 = icmp eq ptr %107, %100
  br i1 %108, label %109, label %102

109:                                              ; preds = %106
  %110 = load ptr, ptr %6, align 8, !tbaa !95
  br label %111

111:                                              ; preds = %109, %97
  %112 = phi ptr [ %110, %109 ], [ %98, %97 ]
  %113 = icmp eq ptr %112, null
  br i1 %113, label %120, label %114

114:                                              ; preds = %111
  call void @_ZdlPv(ptr noundef nonnull %112) #21
  br label %120

115:                                              ; preds = %102
  %116 = landingpad { ptr, i32 }
          cleanup
  %117 = load ptr, ptr %6, align 8, !tbaa !95
  %118 = icmp eq ptr %117, null
  br i1 %118, label %123, label %119

119:                                              ; preds = %115
  call void @_ZdlPv(ptr noundef nonnull %117) #21
  br label %123

120:                                              ; preds = %114, %111
  call void @llvm.lifetime.end.p0(i64 24, ptr nonnull %6) #19
  ret void

121:                                              ; preds = %95, %93, %85
  %122 = phi { ptr, i32 } [ %86, %85 ], [ %94, %93 ], [ %96, %95 ]
  invoke void @_ZNSt6vectorIN6dealii11Polynomials19LagrangeEquidistantESaIS2_EED2Ev(ptr noundef nonnull align 8 dereferenceable(24) %6)
          to label %123 unwind label %137

123:                                              ; preds = %115, %119, %121
  %124 = phi { ptr, i32 } [ %122, %121 ], [ %116, %119 ], [ %116, %115 ]
  call void @llvm.lifetime.end.p0(i64 24, ptr nonnull %6) #19
  invoke void @_ZN6dealii4FE_QILi3ELi3EED2Ev(ptr noundef nonnull align 8 dereferenceable(832) %46)
          to label %125 unwind label %137

125:                                              ; preds = %123, %66
  %126 = phi { ptr, i32 } [ %124, %123 ], [ %67, %66 ]
  %127 = load ptr, ptr %30, align 8, !tbaa !88
  %128 = icmp eq ptr %127, null
  br i1 %128, label %130, label %129

129:                                              ; preds = %125
  call void @_ZdlPv(ptr noundef nonnull %127) #21
  br label %130

130:                                              ; preds = %129, %125, %64
  %131 = phi { ptr, i32 } [ %65, %64 ], [ %126, %125 ], [ %126, %129 ]
  invoke void @_ZN6dealii9TableBaseILi2EdED2Ev(ptr noundef nonnull align 8 dereferenceable(92) %12)
          to label %132 unwind label %137

132:                                              ; preds = %130, %55
  %133 = phi { ptr, i32 } [ %131, %130 ], [ %56, %55 ]
  invoke void @_ZN6dealii9TableBaseILi2EdED2Ev(ptr noundef nonnull align 8 dereferenceable(92) %9)
          to label %134 unwind label %137

134:                                              ; preds = %132, %53
  %135 = phi { ptr, i32 } [ %133, %132 ], [ %54, %53 ]
  invoke void @_ZN6dealii7MappingILi3ELi3EED2Ev(ptr noundef nonnull align 8 dereferenceable(72) %0)
          to label %136 unwind label %137

136:                                              ; preds = %134
  resume { ptr, i32 } %135

137:                                              ; preds = %134, %132, %130, %123, %121, %83
  %138 = landingpad { ptr, i32 }
          catch ptr null
  %139 = extractvalue { ptr, i32 } %138, 0
  call void @__clang_call_terminate(ptr %139) #22
  unreachable
}

declare void @_ZN6dealii9MappingQ1ILi3ELi3EEC2Ev(ptr noundef nonnull align 8 dereferenceable(72)) unnamed_addr #1

declare i32 @__gxx_personality_v0(...)

declare void @_ZN6dealii7FETools37lexicographic_to_hierarchic_numberingILi3EEESt6vectorIjSaIjEERKNS_17FiniteElementDataIXT_EEE(ptr sret(%"class.std::vector") align 8, ptr noundef nonnull align 4 dereferenceable(60)) local_unnamed_addr #1

; Function Attrs: mustprogress nocallback nofree nosync nounwind willreturn memory(argmem: readwrite)
declare void @llvm.lifetime.start.p0(i64 immarg, ptr nocapture) #2

declare void @_ZN6dealii17FiniteElementDataILi3EEC1ERKSt6vectorIjSaIjEEjjNS1_10ConformityEj(ptr noundef nonnull align 4 dereferenceable(60), ptr noundef nonnull align 8 dereferenceable(24), i32 noundef, i32 noundef, i32 noundef, i32 noundef) unnamed_addr #1

; Function Attrs: noinline noreturn nounwind sspstrong uwtable
define linkonce_odr hidden void @__clang_call_terminate(ptr noundef %0) local_unnamed_addr #3 comdat {
  %2 = tail call ptr @__cxa_begin_catch(ptr %0) #19
  tail call void @_ZSt9terminatev() #22
  unreachable
}

declare ptr @__cxa_begin_catch(ptr) local_unnamed_addr

declare void @_ZSt9terminatev() local_unnamed_addr

; Function Attrs: mustprogress nocallback nofree nosync nounwind willreturn memory(argmem: readwrite)
declare void @llvm.lifetime.end.p0(i64 immarg, ptr nocapture) #2

declare void @_ZN6dealii4FE_QILi3ELi3EEC1Ej(ptr noundef nonnull align 8 dereferenceable(832), i32 noundef) unnamed_addr #1

; Function Attrs: sspstrong uwtable
define linkonce_odr dso_local void @_ZNSt6vectorIN6dealii11Polynomials19LagrangeEquidistantESaIS2_EE9push_backERKS2_(ptr noundef nonnull align 8 dereferenceable(24) %0, ptr noundef nonnull align 8 dereferenceable(96) %1) local_unnamed_addr #0 comdat align 2 personality ptr @__gxx_personality_v0 {
  %3 = getelementptr inbounds %"struct.std::_Vector_base<dealii::Polynomials::LagrangeEquidistant, std::allocator<dealii::Polynomials::LagrangeEquidistant> >::_Vector_impl_data", ptr %0, i64 0, i32 1
  %4 = load ptr, ptr %3, align 8, !tbaa !98
  %5 = getelementptr inbounds %"struct.std::_Vector_base<dealii::Polynomials::LagrangeEquidistant, std::allocator<dealii::Polynomials::LagrangeEquidistant> >::_Vector_impl_data", ptr %0, i64 0, i32 2
  %6 = load ptr, ptr %5, align 8, !tbaa !99
  %7 = icmp eq ptr %4, %6
  br i1 %7, label %52, label %8

8:                                                ; preds = %2
  tail call void @_ZN6dealii11SubscriptorC2ERKS0_(ptr noundef nonnull align 8 dereferenceable(72) %4, ptr noundef nonnull align 8 dereferenceable(72) %1)
  store ptr getelementptr inbounds ({ [4 x ptr] }, ptr @_ZTVN6dealii11Polynomials10PolynomialIdEE, i64 0, inrange i32 0, i64 2), ptr %4, align 8, !tbaa !5
  %9 = getelementptr inbounds %"class.dealii::Polynomials::Polynomial", ptr %4, i64 0, i32 1
  %10 = getelementptr inbounds %"class.dealii::Polynomials::Polynomial", ptr %1, i64 0, i32 1
  %11 = getelementptr inbounds %"class.dealii::Polynomials::Polynomial", ptr %1, i64 0, i32 1, i32 0, i32 0, i32 0, i32 1
  %12 = load ptr, ptr %11, align 8, !tbaa !100
  %13 = load ptr, ptr %10, align 8, !tbaa !93
  %14 = ptrtoint ptr %12 to i64
  %15 = ptrtoint ptr %13 to i64
  %16 = sub i64 %14, %15
  %17 = ashr exact i64 %16, 3
  tail call void @llvm.memset.p0.i64(ptr noundef nonnull align 8 dereferenceable(24) %9, i8 0, i64 24, i1 false)
  %18 = icmp eq ptr %12, %13
  br i1 %18, label %25, label %19

19:                                               ; preds = %8
  %20 = icmp ugt i64 %16, 9223372036854775800
  br i1 %20, label %21, label %23, !prof !101

21:                                               ; preds = %19
  invoke void @_ZSt28__throw_bad_array_new_lengthv() #23
          to label %22 unwind label %41

22:                                               ; preds = %21
  unreachable

23:                                               ; preds = %19
  %24 = invoke noalias noundef nonnull ptr @_Znwm(i64 noundef %16) #20
          to label %25 unwind label %41

25:                                               ; preds = %23, %8
  %26 = phi ptr [ null, %8 ], [ %24, %23 ]
  store ptr %26, ptr %9, align 8, !tbaa !93
  %27 = getelementptr inbounds %"class.dealii::Polynomials::Polynomial", ptr %4, i64 0, i32 1, i32 0, i32 0, i32 0, i32 1
  store ptr %26, ptr %27, align 8, !tbaa !100
  %28 = getelementptr inbounds double, ptr %26, i64 %17
  %29 = getelementptr inbounds %"class.dealii::Polynomials::Polynomial", ptr %4, i64 0, i32 1, i32 0, i32 0, i32 0, i32 2
  store ptr %28, ptr %29, align 8, !tbaa !102
  %30 = load ptr, ptr %10, align 8, !tbaa !98
  %31 = load ptr, ptr %11, align 8, !tbaa !98
  %32 = ptrtoint ptr %31 to i64
  %33 = ptrtoint ptr %30 to i64
  %34 = sub i64 %32, %33
  %35 = icmp sgt i64 %34, 8
  br i1 %35, label %36, label %37, !prof !103

36:                                               ; preds = %25
  tail call void @llvm.memmove.p0.p0.i64(ptr align 8 %26, ptr align 8 %30, i64 %34, i1 false)
  br label %47

37:                                               ; preds = %25
  %38 = icmp eq i64 %34, 8
  br i1 %38, label %39, label %47

39:                                               ; preds = %37
  %40 = load double, ptr %30, align 8, !tbaa !104
  store double %40, ptr %26, align 8, !tbaa !104
  br label %47

41:                                               ; preds = %23, %21
  %42 = landingpad { ptr, i32 }
          cleanup
  invoke void @_ZN6dealii11SubscriptorD2Ev(ptr noundef nonnull align 8 dereferenceable(72) %4)
          to label %43 unwind label %44

43:                                               ; preds = %41
  resume { ptr, i32 } %42

44:                                               ; preds = %41
  %45 = landingpad { ptr, i32 }
          catch ptr null
  %46 = extractvalue { ptr, i32 } %45, 0
  tail call void @__clang_call_terminate(ptr %46) #22
  unreachable

47:                                               ; preds = %36, %37, %39
  %48 = ashr exact i64 %34, 3
  %49 = getelementptr inbounds double, ptr %26, i64 %48
  store ptr %49, ptr %27, align 8, !tbaa !100
  store ptr getelementptr inbounds ({ [4 x ptr] }, ptr @_ZTVN6dealii11Polynomials19LagrangeEquidistantE, i64 0, inrange i32 0, i64 2), ptr %4, align 8, !tbaa !5
  %50 = load ptr, ptr %3, align 8, !tbaa !97
  %51 = getelementptr inbounds %"class.dealii::Polynomials::LagrangeEquidistant", ptr %50, i64 1
  store ptr %51, ptr %3, align 8, !tbaa !97
  br label %53

52:                                               ; preds = %2
  tail call void @_ZNSt6vectorIN6dealii11Polynomials19LagrangeEquidistantESaIS2_EE17_M_realloc_insertEN9__gnu_cxx17__normal_iteratorIPS2_S4_EERKS2_(ptr noundef nonnull align 8 dereferenceable(24) %0, ptr %4, ptr noundef nonnull align 8 dereferenceable(96) %1)
  br label %53

53:                                               ; preds = %52, %47
  ret void
}

declare void @_ZN6dealii11Polynomials19LagrangeEquidistantC1Ejj(ptr noundef nonnull align 8 dereferenceable(96), i32 noundef, i32 noundef) unnamed_addr #1

; Function Attrs: nobuiltin allocsize(0)
declare noundef nonnull ptr @_Znwm(i64 noundef) local_unnamed_addr #4

; Function Attrs: sspstrong uwtable
define linkonce_odr dso_local void @_ZN6dealii24TensorProductPolynomialsILi3EEC2INS_11Polynomials19LagrangeEquidistantEEERKSt6vectorIT_SaIS6_EE(ptr noundef nonnull align 8 dereferenceable(80) %0, ptr noundef nonnull align 8 dereferenceable(24) %1) unnamed_addr #0 comdat align 2 personality ptr @__gxx_personality_v0 {
  %3 = load ptr, ptr %1, align 8, !tbaa !98
  %4 = getelementptr inbounds %"struct.std::_Vector_base<dealii::Polynomials::LagrangeEquidistant, std::allocator<dealii::Polynomials::LagrangeEquidistant> >::_Vector_impl_data", ptr %1, i64 0, i32 1
  %5 = load ptr, ptr %4, align 8, !tbaa !98
  tail call void @llvm.memset.p0.i64(ptr noundef nonnull align 8 dereferenceable(24) %0, i8 0, i64 24, i1 false)
  %6 = ptrtoint ptr %5 to i64
  %7 = ptrtoint ptr %3 to i64
  %8 = sub i64 %6, %7
  %9 = sdiv exact i64 %8, 96
  %10 = icmp ugt i64 %9, 96076792050570581
  br i1 %10, label %11, label %13

11:                                               ; preds = %2
  invoke void @_ZSt20__throw_length_errorPKc(ptr noundef nonnull @.str.10) #23
          to label %12 unwind label %22

12:                                               ; preds = %11
  unreachable

13:                                               ; preds = %2
  %14 = icmp eq ptr %5, %3
  br i1 %14, label %17, label %15

15:                                               ; preds = %13
  %16 = invoke noalias noundef nonnull ptr @_Znwm(i64 noundef %8) #20
          to label %17 unwind label %22

17:                                               ; preds = %15, %13
  %18 = phi ptr [ null, %13 ], [ %16, %15 ]
  store ptr %18, ptr %0, align 8, !tbaa !106
  %19 = getelementptr inbounds %"class.dealii::Polynomials::Polynomial", ptr %18, i64 %9
  %20 = getelementptr inbounds %"struct.std::_Vector_base<dealii::Polynomials::Polynomial<double>, std::allocator<dealii::Polynomials::Polynomial<double> > >::_Vector_impl_data", ptr %0, i64 0, i32 2
  store ptr %19, ptr %20, align 8, !tbaa !107
  %21 = invoke noundef ptr @_ZSt16__do_uninit_copyIN9__gnu_cxx17__normal_iteratorIPKN6dealii11Polynomials19LagrangeEquidistantESt6vectorIS4_SaIS4_EEEEPNS3_10PolynomialIdEEET0_T_SF_SE_(ptr %3, ptr %5, ptr noundef %18)
          to label %27 unwind label %22

22:                                               ; preds = %17, %15, %11
  %23 = landingpad { ptr, i32 }
          cleanup
  %24 = load ptr, ptr %0, align 8, !tbaa !106
  %25 = icmp eq ptr %24, null
  br i1 %25, label %94, label %26

26:                                               ; preds = %22
  tail call void @_ZdlPv(ptr noundef nonnull %24) #21
  br label %94

27:                                               ; preds = %17
  %28 = getelementptr inbounds %"struct.std::_Vector_base<dealii::Polynomials::Polynomial<double>, std::allocator<dealii::Polynomials::Polynomial<double> > >::_Vector_impl_data", ptr %0, i64 0, i32 1
  store ptr %21, ptr %28, align 8, !tbaa !108
  %29 = getelementptr inbounds %"class.dealii::TensorProductPolynomials", ptr %0, i64 0, i32 1
  %30 = load ptr, ptr %4, align 8, !tbaa !97
  %31 = load ptr, ptr %1, align 8, !tbaa !95
  %32 = ptrtoint ptr %30 to i64
  %33 = ptrtoint ptr %31 to i64
  %34 = sub i64 %32, %33
  %35 = sdiv exact i64 %34, 96
  %36 = trunc i64 %35 to i32
  %37 = mul i32 %36, %36
  %38 = mul i32 %37, %36
  store i32 %38, ptr %29, align 8, !tbaa !109
  %39 = getelementptr inbounds %"class.dealii::TensorProductPolynomials", ptr %0, i64 0, i32 2
  %40 = zext i32 %38 to i64
  tail call void @llvm.memset.p0.i64(ptr noundef nonnull align 8 dereferenceable(24) %39, i8 0, i64 24, i1 false)
  %41 = icmp eq i32 %38, 0
  br i1 %41, label %42, label %43

42:                                               ; preds = %27
  tail call void @llvm.memset.p0.i64(ptr noundef nonnull align 8 dereferenceable(48) %39, i8 0, i64 48, i1 false)
  br label %80

43:                                               ; preds = %27
  %44 = shl nuw nsw i64 %40, 2
  %45 = invoke noalias noundef nonnull ptr @_Znwm(i64 noundef %44) #20
          to label %46 unwind label %81

46:                                               ; preds = %43
  store ptr %45, ptr %39, align 8, !tbaa !88
  %47 = getelementptr inbounds i32, ptr %45, i64 %40
  %48 = getelementptr inbounds %"class.dealii::TensorProductPolynomials", ptr %0, i64 0, i32 2, i32 0, i32 0, i32 0, i32 2
  store ptr %47, ptr %48, align 8, !tbaa !89
  tail call void @llvm.memset.p0.i64(ptr nonnull align 4 %45, i8 0, i64 %44, i1 false), !tbaa !90
  %49 = getelementptr inbounds %"class.dealii::TensorProductPolynomials", ptr %0, i64 0, i32 2, i32 0, i32 0, i32 0, i32 1
  store ptr %47, ptr %49, align 8, !tbaa !91
  %50 = getelementptr inbounds %"class.dealii::TensorProductPolynomials", ptr %0, i64 0, i32 3
  tail call void @llvm.memset.p0.i64(ptr noundef nonnull align 8 dereferenceable(24) %50, i8 0, i64 24, i1 false)
  %51 = invoke noalias noundef nonnull ptr @_Znwm(i64 noundef %44) #20
          to label %52 unwind label %83

52:                                               ; preds = %46
  store ptr %51, ptr %50, align 8, !tbaa !88
  %53 = getelementptr inbounds i32, ptr %51, i64 %40
  %54 = getelementptr inbounds %"class.dealii::TensorProductPolynomials", ptr %0, i64 0, i32 3, i32 0, i32 0, i32 0, i32 2
  store ptr %53, ptr %54, align 8, !tbaa !89
  tail call void @llvm.memset.p0.i64(ptr nonnull align 4 %51, i8 0, i64 %44, i1 false), !tbaa !90
  %55 = getelementptr inbounds %"class.dealii::TensorProductPolynomials", ptr %0, i64 0, i32 3, i32 0, i32 0, i32 0, i32 1
  store ptr %53, ptr %55, align 8, !tbaa !91
  %56 = icmp ult i32 %38, 32
  br i1 %56, label %78, label %57

57:                                               ; preds = %52
  %58 = and i64 %40, 4294967264
  br label %59

59:                                               ; preds = %59, %57
  %60 = phi i64 [ 0, %57 ], [ %73, %59 ]
  %61 = phi <8 x i32> [ <i32 0, i32 1, i32 2, i32 3, i32 4, i32 5, i32 6, i32 7>, %57 ], [ %74, %59 ]
  %62 = add <8 x i32> %61, <i32 8, i32 8, i32 8, i32 8, i32 8, i32 8, i32 8, i32 8>
  %63 = add <8 x i32> %61, <i32 16, i32 16, i32 16, i32 16, i32 16, i32 16, i32 16, i32 16>
  %64 = add <8 x i32> %61, <i32 24, i32 24, i32 24, i32 24, i32 24, i32 24, i32 24, i32 24>
  %65 = getelementptr inbounds i32, ptr %45, i64 %60
  store <8 x i32> %61, ptr %65, align 4, !tbaa !90
  %66 = getelementptr inbounds i32, ptr %65, i64 8
  store <8 x i32> %62, ptr %66, align 4, !tbaa !90
  %67 = getelementptr inbounds i32, ptr %65, i64 16
  store <8 x i32> %63, ptr %67, align 4, !tbaa !90
  %68 = getelementptr inbounds i32, ptr %65, i64 24
  store <8 x i32> %64, ptr %68, align 4, !tbaa !90
  %69 = getelementptr inbounds i32, ptr %51, i64 %60
  store <8 x i32> %61, ptr %69, align 4, !tbaa !90
  %70 = getelementptr inbounds i32, ptr %69, i64 8
  store <8 x i32> %62, ptr %70, align 4, !tbaa !90
  %71 = getelementptr inbounds i32, ptr %69, i64 16
  store <8 x i32> %63, ptr %71, align 4, !tbaa !90
  %72 = getelementptr inbounds i32, ptr %69, i64 24
  store <8 x i32> %64, ptr %72, align 4, !tbaa !90
  %73 = add nuw i64 %60, 32
  %74 = add <8 x i32> %61, <i32 32, i32 32, i32 32, i32 32, i32 32, i32 32, i32 32, i32 32>
  %75 = icmp eq i64 %73, %58
  br i1 %75, label %76, label %59, !llvm.loop !110

76:                                               ; preds = %59
  %77 = icmp eq i64 %58, %40
  br i1 %77, label %80, label %78

78:                                               ; preds = %52, %76
  %79 = phi i64 [ 0, %52 ], [ %58, %76 ]
  br label %85

80:                                               ; preds = %85, %76, %42
  ret void

81:                                               ; preds = %43
  %82 = landingpad { ptr, i32 }
          cleanup
  br label %92

83:                                               ; preds = %46
  %84 = landingpad { ptr, i32 }
          cleanup
  tail call void @_ZdlPv(ptr noundef nonnull %45) #21
  br label %92

85:                                               ; preds = %78, %85
  %86 = phi i64 [ %90, %85 ], [ %79, %78 ]
  %87 = getelementptr inbounds i32, ptr %45, i64 %86
  %88 = trunc i64 %86 to i32
  store i32 %88, ptr %87, align 4, !tbaa !90
  %89 = getelementptr inbounds i32, ptr %51, i64 %86
  store i32 %88, ptr %89, align 4, !tbaa !90
  %90 = add nuw nsw i64 %86, 1
  %91 = icmp ult i64 %90, %40
  br i1 %91, label %85, label %80, !llvm.loop !113

92:                                               ; preds = %83, %81
  %93 = phi { ptr, i32 } [ %82, %81 ], [ %84, %83 ]
  invoke void @_ZNSt6vectorIN6dealii11Polynomials10PolynomialIdEESaIS3_EED2Ev(ptr noundef nonnull align 8 dereferenceable(24) %0)
          to label %94 unwind label %96

94:                                               ; preds = %26, %22, %92
  %95 = phi { ptr, i32 } [ %93, %92 ], [ %23, %26 ], [ %23, %22 ]
  resume { ptr, i32 } %95

96:                                               ; preds = %92
  %97 = landingpad { ptr, i32 }
          catch ptr null
  %98 = extractvalue { ptr, i32 } %97, 0
  tail call void @__clang_call_terminate(ptr %98) #22
  unreachable
}

; Function Attrs: nobuiltin nounwind
declare void @_ZdlPv(ptr noundef) local_unnamed_addr #5

; Function Attrs: sspstrong uwtable
define weak_odr dso_local void @_ZNK6dealii8MappingQILi3ELi3EE26set_laplace_on_quad_vectorERNS_5TableILi2EdEE(ptr noundef nonnull align 8 dereferenceable(1160) %0, ptr noundef nonnull align 8 dereferenceable(92) %1) local_unnamed_addr #0 comdat align 2 {
  %3 = getelementptr inbounds %"class.dealii::MappingQ", ptr %0, i64 0, i32 3
  %4 = load i32, ptr %3, align 8, !tbaa !8
  %5 = add i32 %4, -1
  %6 = mul i32 %5, %5
  %7 = shl i32 %5, 2
  %8 = add i32 %7, 4
  %9 = add i32 %4, -2
  %10 = icmp ult i32 %9, 3
  br i1 %10, label %11, label %150

11:                                               ; preds = %2
  %12 = sext i32 %9 to i64
  %13 = getelementptr inbounds [3 x ptr], ptr @switch.table._ZNK6dealii8MappingQILi3ELi3EE26set_laplace_on_quad_vectorERNS_5TableILi2EdEE, i64 0, i64 %12
  %14 = load ptr, ptr %13, align 8
  %15 = ptrtoint ptr %14 to i64
  %16 = getelementptr inbounds %"class.dealii::TableBase", ptr %1, i64 0, i32 3
  %17 = zext i32 %8 to i64
  %18 = shl nuw i64 %17, 32
  %19 = zext i32 %6 to i64
  %20 = or i64 %18, %19
  store i64 %20, ptr %16, align 4
  %21 = getelementptr inbounds %"class.dealii::TableBase", ptr %1, i64 0, i32 3, i32 0, i32 0, i64 1
  %22 = mul i32 %8, %6
  %23 = icmp eq i32 %22, 0
  br i1 %23, label %24, label %30

24:                                               ; preds = %11
  %25 = getelementptr inbounds %"class.dealii::TableBase", ptr %1, i64 0, i32 1
  %26 = load ptr, ptr %25, align 8, !tbaa !114
  %27 = icmp eq ptr %26, null
  br i1 %27, label %29, label %28

28:                                               ; preds = %24
  tail call void @_ZdaPv(ptr noundef nonnull %26) #21
  br label %29

29:                                               ; preds = %28, %24
  tail call void @llvm.memset.p0.i64(ptr noundef nonnull align 8 dereferenceable(20) %25, i8 0, i64 20, i1 false)
  br label %53

30:                                               ; preds = %11
  %31 = getelementptr inbounds %"class.dealii::TableBase", ptr %1, i64 0, i32 2
  %32 = load i32, ptr %31, align 8, !tbaa !115
  %33 = icmp ult i32 %32, %22
  %34 = getelementptr inbounds %"class.dealii::TableBase", ptr %1, i64 0, i32 1
  %35 = load ptr, ptr %34, align 8, !tbaa !114
  br i1 %33, label %36, label %48

36:                                               ; preds = %30
  %37 = icmp eq ptr %35, null
  br i1 %37, label %42, label %38

38:                                               ; preds = %36
  tail call void @_ZdaPv(ptr noundef nonnull %35) #21
  %39 = load i32, ptr %16, align 4, !tbaa !90
  %40 = load i32, ptr %21, align 8, !tbaa !90
  %41 = mul i32 %40, %39
  br label %42

42:                                               ; preds = %38, %36
  %43 = phi i32 [ %41, %38 ], [ %22, %36 ]
  store i32 %22, ptr %31, align 8, !tbaa !115
  %44 = zext i32 %22 to i64
  %45 = shl nuw nsw i64 %44, 3
  %46 = tail call noalias noundef nonnull ptr @_Znam(i64 noundef %45) #20
  store ptr %46, ptr %34, align 8, !tbaa !114
  %47 = icmp eq i32 %43, 0
  br i1 %47, label %53, label %48

48:                                               ; preds = %42, %30
  %49 = phi ptr [ %46, %42 ], [ %35, %30 ]
  %50 = phi i32 [ %43, %42 ], [ %22, %30 ]
  %51 = zext i32 %50 to i64
  %52 = shl nuw nsw i64 %51, 3
  tail call void @llvm.memset.p0.i64(ptr align 8 %49, i8 0, i64 %52, i1 false), !tbaa !104
  br label %53

53:                                               ; preds = %29, %42, %48
  %54 = icmp eq i32 %6, 0
  br i1 %54, label %150, label %55

55:                                               ; preds = %53
  %56 = icmp eq i32 %8, 0
  %57 = getelementptr inbounds %"class.dealii::TableBase", ptr %1, i64 0, i32 1
  %58 = load ptr, ptr %57, align 8
  %59 = ptrtoint ptr %58 to i64
  %60 = load i32, ptr %21, align 8
  br i1 %56, label %150, label %61

61:                                               ; preds = %55
  %62 = add nsw i64 %17, -1
  %63 = icmp ult i32 %8, 16
  %64 = trunc i64 %62 to i32
  %65 = icmp ugt i64 %62, 4294967295
  %66 = and i64 %17, 4294967280
  %67 = icmp eq i64 %66, %17
  br label %68

68:                                               ; preds = %61, %147
  %69 = phi i64 [ %148, %147 ], [ 0, %61 ]
  %70 = trunc i64 %69 to i32
  %71 = mul i32 %8, %70
  %72 = mul i32 %60, %70
  %73 = zext i32 %72 to i64
  %74 = getelementptr inbounds double, ptr %58, i64 %73
  br i1 %63, label %114, label %75

75:                                               ; preds = %68
  %76 = trunc i64 %69 to i32
  %77 = mul i32 %8, %76
  %78 = zext i32 %77 to i64
  %79 = shl nuw nsw i64 %78, 3
  %80 = add i64 %79, %15
  %81 = trunc i64 %69 to i32
  %82 = mul i32 %60, %81
  %83 = zext i32 %82 to i64
  %84 = shl nuw nsw i64 %83, 3
  %85 = add nuw i64 %84, %59
  %86 = trunc i64 %69 to i32
  %87 = mul i32 %8, %86
  %88 = xor i32 %87, -1
  %89 = icmp ult i32 %88, %64
  %90 = or i1 %89, %65
  %91 = sub i64 %85, %80
  %92 = icmp ult i64 %91, 128
  %93 = select i1 %90, i1 true, i1 %92
  br i1 %93, label %114, label %94

94:                                               ; preds = %75, %94
  %95 = phi i64 [ %111, %94 ], [ 0, %75 ]
  %96 = trunc i64 %95 to i32
  %97 = add i32 %71, %96
  %98 = zext i32 %97 to i64
  %99 = getelementptr inbounds double, ptr %14, i64 %98
  %100 = load <4 x double>, ptr %99, align 16, !tbaa !104
  %101 = getelementptr inbounds double, ptr %99, i64 4
  %102 = load <4 x double>, ptr %101, align 8, !tbaa !104
  %103 = getelementptr inbounds double, ptr %99, i64 8
  %104 = load <4 x double>, ptr %103, align 8, !tbaa !104
  %105 = getelementptr inbounds double, ptr %99, i64 12
  %106 = load <4 x double>, ptr %105, align 8, !tbaa !104
  %107 = getelementptr inbounds double, ptr %74, i64 %95
  store <4 x double> %100, ptr %107, align 8, !tbaa !104
  %108 = getelementptr inbounds double, ptr %107, i64 4
  store <4 x double> %102, ptr %108, align 8, !tbaa !104
  %109 = getelementptr inbounds double, ptr %107, i64 8
  store <4 x double> %104, ptr %109, align 8, !tbaa !104
  %110 = getelementptr inbounds double, ptr %107, i64 12
  store <4 x double> %106, ptr %110, align 8, !tbaa !104
  %111 = add nuw i64 %95, 16
  %112 = icmp eq i64 %111, %66
  br i1 %112, label %113, label %94, !llvm.loop !116

113:                                              ; preds = %94
  br i1 %67, label %147, label %114

114:                                              ; preds = %75, %68, %113
  %115 = phi i64 [ 0, %75 ], [ 0, %68 ], [ %66, %113 ]
  br label %116

116:                                              ; preds = %116, %114
  %117 = phi i64 [ %115, %114 ], [ %145, %116 ]
  %118 = trunc i64 %117 to i32
  %119 = add i32 %71, %118
  %120 = zext i32 %119 to i64
  %121 = getelementptr inbounds double, ptr %14, i64 %120
  %122 = load double, ptr %121, align 8, !tbaa !104
  %123 = getelementptr inbounds double, ptr %74, i64 %117
  store double %122, ptr %123, align 8, !tbaa !104
  %124 = or i64 %117, 1
  %125 = trunc i64 %124 to i32
  %126 = add i32 %71, %125
  %127 = zext i32 %126 to i64
  %128 = getelementptr inbounds double, ptr %14, i64 %127
  %129 = load double, ptr %128, align 8, !tbaa !104
  %130 = getelementptr inbounds double, ptr %74, i64 %124
  store double %129, ptr %130, align 8, !tbaa !104
  %131 = or i64 %117, 2
  %132 = trunc i64 %131 to i32
  %133 = add i32 %71, %132
  %134 = zext i32 %133 to i64
  %135 = getelementptr inbounds double, ptr %14, i64 %134
  %136 = load double, ptr %135, align 8, !tbaa !104
  %137 = getelementptr inbounds double, ptr %74, i64 %131
  store double %136, ptr %137, align 8, !tbaa !104
  %138 = or i64 %117, 3
  %139 = trunc i64 %138 to i32
  %140 = add i32 %71, %139
  %141 = zext i32 %140 to i64
  %142 = getelementptr inbounds double, ptr %14, i64 %141
  %143 = load double, ptr %142, align 8, !tbaa !104
  %144 = getelementptr inbounds double, ptr %74, i64 %138
  store double %143, ptr %144, align 8, !tbaa !104
  %145 = add nuw nsw i64 %117, 4
  %146 = icmp eq i64 %145, %17
  br i1 %146, label %147, label %116, !llvm.loop !117

147:                                              ; preds = %116, %113
  %148 = add nuw nsw i64 %69, 1
  %149 = icmp eq i64 %148, %19
  br i1 %149, label %150, label %68

150:                                              ; preds = %147, %2, %55, %53
  ret void
}

; Function Attrs: sspstrong uwtable
define dso_local void @_ZNK6dealii8MappingQILi3ELi3EE25set_laplace_on_hex_vectorERNS_5TableILi2EdEE(ptr noundef nonnull align 8 dereferenceable(1160) %0, ptr noundef nonnull align 8 dereferenceable(92) %1) local_unnamed_addr #0 align 2 {
  %3 = getelementptr inbounds %"class.dealii::MappingQ", ptr %0, i64 0, i32 3
  %4 = load i32, ptr %3, align 8, !tbaa !8
  %5 = icmp eq i32 %4, 2
  %6 = select i1 %5, ptr @_ZZNK6dealii8MappingQILi3ELi3EE25set_laplace_on_hex_vectorERNS_5TableILi2EdEEE5loqv2, ptr null
  %7 = ptrtoint ptr %6 to i64
  br i1 %5, label %8, label %170

8:                                                ; preds = %2
  %9 = getelementptr inbounds %"class.dealii::MappingQ", ptr %0, i64 0, i32 4
  %10 = load i32, ptr %9, align 4, !tbaa !81
  %11 = getelementptr inbounds %"class.dealii::MappingQ", ptr %0, i64 0, i32 5
  %12 = load i32, ptr %11, align 8, !tbaa !82
  %13 = getelementptr inbounds %"class.dealii::TableBase", ptr %1, i64 0, i32 3
  %14 = zext i32 %12 to i64
  %15 = shl nuw i64 %14, 32
  %16 = zext i32 %10 to i64
  %17 = or i64 %15, %16
  store i64 %17, ptr %13, align 4
  %18 = getelementptr inbounds %"class.dealii::TableBase", ptr %1, i64 0, i32 3, i32 0, i32 0, i64 1
  %19 = mul i32 %12, %10
  %20 = icmp eq i32 %19, 0
  br i1 %20, label %21, label %27

21:                                               ; preds = %8
  %22 = getelementptr inbounds %"class.dealii::TableBase", ptr %1, i64 0, i32 1
  %23 = load ptr, ptr %22, align 8, !tbaa !114
  %24 = icmp eq ptr %23, null
  br i1 %24, label %26, label %25

25:                                               ; preds = %21
  tail call void @_ZdaPv(ptr noundef nonnull %23) #21
  br label %26

26:                                               ; preds = %25, %21
  tail call void @llvm.memset.p0.i64(ptr noundef nonnull align 8 dereferenceable(20) %22, i8 0, i64 20, i1 false)
  br label %50

27:                                               ; preds = %8
  %28 = getelementptr inbounds %"class.dealii::TableBase", ptr %1, i64 0, i32 2
  %29 = load i32, ptr %28, align 8, !tbaa !115
  %30 = icmp ult i32 %29, %19
  %31 = getelementptr inbounds %"class.dealii::TableBase", ptr %1, i64 0, i32 1
  %32 = load ptr, ptr %31, align 8, !tbaa !114
  br i1 %30, label %33, label %45

33:                                               ; preds = %27
  %34 = icmp eq ptr %32, null
  br i1 %34, label %39, label %35

35:                                               ; preds = %33
  tail call void @_ZdaPv(ptr noundef nonnull %32) #21
  %36 = load i32, ptr %13, align 4, !tbaa !90
  %37 = load i32, ptr %18, align 8, !tbaa !90
  %38 = mul i32 %37, %36
  br label %39

39:                                               ; preds = %35, %33
  %40 = phi i32 [ %38, %35 ], [ %19, %33 ]
  store i32 %19, ptr %28, align 8, !tbaa !115
  %41 = zext i32 %19 to i64
  %42 = shl nuw nsw i64 %41, 3
  %43 = tail call noalias noundef nonnull ptr @_Znam(i64 noundef %42) #20
  store ptr %43, ptr %31, align 8, !tbaa !114
  %44 = icmp eq i32 %40, 0
  br i1 %44, label %50, label %45

45:                                               ; preds = %39, %27
  %46 = phi ptr [ %43, %39 ], [ %32, %27 ]
  %47 = phi i32 [ %40, %39 ], [ %19, %27 ]
  %48 = zext i32 %47 to i64
  %49 = shl nuw nsw i64 %48, 3
  tail call void @llvm.memset.p0.i64(ptr align 8 %46, i8 0, i64 %49, i1 false), !tbaa !104
  br label %50

50:                                               ; preds = %26, %39, %45
  %51 = load i32, ptr %9, align 4, !tbaa !81
  %52 = icmp eq i32 %51, 0
  br i1 %52, label %171, label %53

53:                                               ; preds = %50
  %54 = load i32, ptr %11, align 8, !tbaa !82
  %55 = icmp eq i32 %54, 0
  %56 = getelementptr inbounds %"class.dealii::TableBase", ptr %1, i64 0, i32 1
  %57 = load ptr, ptr %56, align 8
  %58 = ptrtoint ptr %57 to i64
  %59 = load i32, ptr %18, align 8
  br i1 %55, label %171, label %60

60:                                               ; preds = %53
  %61 = zext i32 %51 to i64
  %62 = zext i32 %54 to i64
  %63 = add nsw i64 %62, -1
  %64 = icmp ult i32 %54, 16
  %65 = trunc i64 %63 to i32
  %66 = icmp ugt i64 %63, 4294967295
  %67 = and i64 %62, 4294967280
  %68 = icmp eq i64 %67, %62
  %69 = and i64 %62, 3
  %70 = icmp eq i64 %69, 0
  br label %71

71:                                               ; preds = %60, %167
  %72 = phi i64 [ 0, %60 ], [ %168, %167 ]
  %73 = trunc i64 %72 to i32
  %74 = mul i32 %54, %73
  %75 = mul i32 %59, %73
  %76 = zext i32 %75 to i64
  %77 = getelementptr inbounds double, ptr %57, i64 %76
  br i1 %64, label %117, label %78

78:                                               ; preds = %71
  %79 = trunc i64 %72 to i32
  %80 = mul i32 %54, %79
  %81 = zext i32 %80 to i64
  %82 = shl nuw nsw i64 %81, 3
  %83 = add i64 %82, %7
  %84 = trunc i64 %72 to i32
  %85 = mul i32 %59, %84
  %86 = zext i32 %85 to i64
  %87 = shl nuw nsw i64 %86, 3
  %88 = add nuw i64 %87, %58
  %89 = trunc i64 %72 to i32
  %90 = mul i32 %54, %89
  %91 = xor i32 %90, -1
  %92 = icmp ult i32 %91, %65
  %93 = or i1 %92, %66
  %94 = sub i64 %88, %83
  %95 = icmp ult i64 %94, 128
  %96 = select i1 %93, i1 true, i1 %95
  br i1 %96, label %117, label %97

97:                                               ; preds = %78, %97
  %98 = phi i64 [ %114, %97 ], [ 0, %78 ]
  %99 = trunc i64 %98 to i32
  %100 = add i32 %74, %99
  %101 = zext i32 %100 to i64
  %102 = getelementptr inbounds double, ptr %6, i64 %101
  %103 = load <4 x double>, ptr %102, align 8, !tbaa !104
  %104 = getelementptr inbounds double, ptr %102, i64 4
  %105 = load <4 x double>, ptr %104, align 8, !tbaa !104
  %106 = getelementptr inbounds double, ptr %102, i64 8
  %107 = load <4 x double>, ptr %106, align 8, !tbaa !104
  %108 = getelementptr inbounds double, ptr %102, i64 12
  %109 = load <4 x double>, ptr %108, align 8, !tbaa !104
  %110 = getelementptr inbounds double, ptr %77, i64 %98
  store <4 x double> %103, ptr %110, align 8, !tbaa !104
  %111 = getelementptr inbounds double, ptr %110, i64 4
  store <4 x double> %105, ptr %111, align 8, !tbaa !104
  %112 = getelementptr inbounds double, ptr %110, i64 8
  store <4 x double> %107, ptr %112, align 8, !tbaa !104
  %113 = getelementptr inbounds double, ptr %110, i64 12
  store <4 x double> %109, ptr %113, align 8, !tbaa !104
  %114 = add nuw i64 %98, 16
  %115 = icmp eq i64 %114, %67
  br i1 %115, label %116, label %97, !llvm.loop !118

116:                                              ; preds = %97
  br i1 %68, label %167, label %117

117:                                              ; preds = %78, %71, %116
  %118 = phi i64 [ 0, %78 ], [ 0, %71 ], [ %67, %116 ]
  %119 = xor i64 %118, -1
  %120 = add nsw i64 %119, %62
  br i1 %70, label %133, label %121

121:                                              ; preds = %117, %121
  %122 = phi i64 [ %130, %121 ], [ %118, %117 ]
  %123 = phi i64 [ %131, %121 ], [ 0, %117 ]
  %124 = trunc i64 %122 to i32
  %125 = add i32 %74, %124
  %126 = zext i32 %125 to i64
  %127 = getelementptr inbounds double, ptr %6, i64 %126
  %128 = load double, ptr %127, align 8, !tbaa !104
  %129 = getelementptr inbounds double, ptr %77, i64 %122
  store double %128, ptr %129, align 8, !tbaa !104
  %130 = add nuw nsw i64 %122, 1
  %131 = add i64 %123, 1
  %132 = icmp eq i64 %131, %69
  br i1 %132, label %133, label %121, !llvm.loop !119

133:                                              ; preds = %121, %117
  %134 = phi i64 [ %118, %117 ], [ %130, %121 ]
  %135 = icmp ult i64 %120, 3
  br i1 %135, label %167, label %136

136:                                              ; preds = %133, %136
  %137 = phi i64 [ %165, %136 ], [ %134, %133 ]
  %138 = trunc i64 %137 to i32
  %139 = add i32 %74, %138
  %140 = zext i32 %139 to i64
  %141 = getelementptr inbounds double, ptr %6, i64 %140
  %142 = load double, ptr %141, align 8, !tbaa !104
  %143 = getelementptr inbounds double, ptr %77, i64 %137
  store double %142, ptr %143, align 8, !tbaa !104
  %144 = add nuw nsw i64 %137, 1
  %145 = trunc i64 %144 to i32
  %146 = add i32 %74, %145
  %147 = zext i32 %146 to i64
  %148 = getelementptr inbounds double, ptr %6, i64 %147
  %149 = load double, ptr %148, align 8, !tbaa !104
  %150 = getelementptr inbounds double, ptr %77, i64 %144
  store double %149, ptr %150, align 8, !tbaa !104
  %151 = add nuw nsw i64 %137, 2
  %152 = trunc i64 %151 to i32
  %153 = add i32 %74, %152
  %154 = zext i32 %153 to i64
  %155 = getelementptr inbounds double, ptr %6, i64 %154
  %156 = load double, ptr %155, align 8, !tbaa !104
  %157 = getelementptr inbounds double, ptr %77, i64 %151
  store double %156, ptr %157, align 8, !tbaa !104
  %158 = add nuw nsw i64 %137, 3
  %159 = trunc i64 %158 to i32
  %160 = add i32 %74, %159
  %161 = zext i32 %160 to i64
  %162 = getelementptr inbounds double, ptr %6, i64 %161
  %163 = load double, ptr %162, align 8, !tbaa !104
  %164 = getelementptr inbounds double, ptr %77, i64 %158
  store double %163, ptr %164, align 8, !tbaa !104
  %165 = add nuw nsw i64 %137, 4
  %166 = icmp eq i64 %165, %62
  br i1 %166, label %167, label %136, !llvm.loop !121

167:                                              ; preds = %133, %136, %116
  %168 = add nuw nsw i64 %72, 1
  %169 = icmp eq i64 %168, %61
  br i1 %169, label %171, label %71

170:                                              ; preds = %2
  tail call void @_ZNK6dealii8MappingQILi3ELi3EE22compute_laplace_vectorERNS_5TableILi2EdEE(ptr noundef nonnull align 8 dereferenceable(1160) %0, ptr noundef nonnull align 8 dereferenceable(92) %1)
  br label %171

171:                                              ; preds = %167, %53, %50, %170
  ret void
}

; Function Attrs: sspstrong uwtable
define linkonce_odr dso_local void @_ZNSt6vectorIN6dealii11Polynomials19LagrangeEquidistantESaIS2_EED2Ev(ptr noundef nonnull align 8 dereferenceable(24) %0) unnamed_addr #0 comdat align 2 personality ptr @__gxx_personality_v0 {
  %2 = load ptr, ptr %0, align 8, !tbaa !95
  %3 = getelementptr inbounds %"struct.std::_Vector_base<dealii::Polynomials::LagrangeEquidistant, std::allocator<dealii::Polynomials::LagrangeEquidistant> >::_Vector_impl_data", ptr %0, i64 0, i32 1
  %4 = load ptr, ptr %3, align 8, !tbaa !97
  %5 = icmp eq ptr %2, %4
  br i1 %5, label %15, label %6

6:                                                ; preds = %1, %10
  %7 = phi ptr [ %11, %10 ], [ %2, %1 ]
  %8 = load ptr, ptr %7, align 8, !tbaa !5
  %9 = load ptr, ptr %8, align 8
  invoke void %9(ptr noundef nonnull align 8 dereferenceable(96) %7)
          to label %10 unwind label %20

10:                                               ; preds = %6
  %11 = getelementptr inbounds %"class.dealii::Polynomials::LagrangeEquidistant", ptr %7, i64 1
  %12 = icmp eq ptr %11, %4
  br i1 %12, label %13, label %6

13:                                               ; preds = %10
  %14 = load ptr, ptr %0, align 8, !tbaa !95
  br label %15

15:                                               ; preds = %13, %1
  %16 = phi ptr [ %14, %13 ], [ %2, %1 ]
  %17 = icmp eq ptr %16, null
  br i1 %17, label %19, label %18

18:                                               ; preds = %15
  tail call void @_ZdlPv(ptr noundef nonnull %16) #21
  br label %19

19:                                               ; preds = %15, %18
  ret void

20:                                               ; preds = %6
  %21 = landingpad { ptr, i32 }
          cleanup
  %22 = load ptr, ptr %0, align 8, !tbaa !95
  %23 = icmp eq ptr %22, null
  br i1 %23, label %25, label %24

24:                                               ; preds = %20
  tail call void @_ZdlPv(ptr noundef nonnull %22) #21
  br label %25

25:                                               ; preds = %24, %20
  resume { ptr, i32 } %21
}

; Function Attrs: inlinehint sspstrong uwtable
define linkonce_odr dso_local void @_ZN6dealii4FE_QILi3ELi3EED2Ev(ptr noundef nonnull align 8 dereferenceable(832) %0) unnamed_addr #6 comdat align 2 personality ptr @__gxx_personality_v0 {
  store ptr getelementptr inbounds ({ [38 x ptr] }, ptr @_ZTVN6dealii4FE_QILi3ELi3EEE, i64 0, inrange i32 0, i64 2), ptr %0, align 8, !tbaa !5
  %2 = getelementptr inbounds %"class.dealii::FE_Q", ptr %0, i64 0, i32 1
  %3 = load ptr, ptr %2, align 8, !tbaa !88
  %4 = icmp eq ptr %3, null
  br i1 %4, label %6, label %5

5:                                                ; preds = %1
  tail call void @_ZdlPv(ptr noundef nonnull %3) #21
  br label %6

6:                                                ; preds = %5, %1
  tail call void @_ZN6dealii7FE_PolyINS_24TensorProductPolynomialsILi3EEELi3ELi3EED2Ev(ptr noundef nonnull align 8 dereferenceable(808) %0)
  ret void
}

declare void @_ZN6dealii7MappingILi3ELi3EED2Ev(ptr noundef nonnull align 8 dereferenceable(72)) unnamed_addr #1

; Function Attrs: sspstrong uwtable
define weak_odr dso_local void @_ZN6dealii8MappingQILi3ELi3EEC2ERKS1_(ptr noundef nonnull align 8 dereferenceable(1160) %0, ptr noundef nonnull align 8 dereferenceable(1160) %1) unnamed_addr #0 comdat($_ZN6dealii8MappingQILi3ELi3EEC5ERKS1_) align 2 personality ptr @__gxx_personality_v0 {
  tail call void @_ZN6dealii9MappingQ1ILi3ELi3EEC2Ev(ptr noundef nonnull align 8 dereferenceable(72) %0)
  store ptr getelementptr inbounds ({ [21 x ptr] }, ptr @_ZTVN6dealii8MappingQILi3ELi3EEE, i64 0, inrange i32 0, i64 2), ptr %0, align 8, !tbaa !5
  %3 = getelementptr inbounds %"class.dealii::MappingQ", ptr %0, i64 0, i32 1
  invoke void @_ZN6dealii11SubscriptorC2Ev(ptr noundef nonnull align 8 dereferenceable(72) %3)
          to label %4 unwind label %179

4:                                                ; preds = %2
  %5 = getelementptr inbounds %"class.dealii::MappingQ", ptr %0, i64 0, i32 1, i32 0, i32 1
  tail call void @llvm.memset.p0.i64(ptr noundef nonnull align 8 dereferenceable(20) %5, i8 0, i64 20, i1 false)
  store ptr getelementptr inbounds ({ [4 x ptr] }, ptr @_ZTVN6dealii5TableILi2EdEE, i64 0, inrange i32 0, i64 2), ptr %3, align 8, !tbaa !5
  %6 = getelementptr inbounds %"class.dealii::MappingQ", ptr %0, i64 0, i32 2
  invoke void @_ZN6dealii11SubscriptorC2Ev(ptr noundef nonnull align 8 dereferenceable(72) %6)
          to label %7 unwind label %181

7:                                                ; preds = %4
  %8 = getelementptr inbounds %"class.dealii::MappingQ", ptr %0, i64 0, i32 2, i32 0, i32 1
  tail call void @llvm.memset.p0.i64(ptr noundef nonnull align 8 dereferenceable(20) %8, i8 0, i64 20, i1 false)
  store ptr getelementptr inbounds ({ [4 x ptr] }, ptr @_ZTVN6dealii5TableILi2EdEE, i64 0, inrange i32 0, i64 2), ptr %6, align 8, !tbaa !5
  %9 = getelementptr inbounds %"class.dealii::MappingQ", ptr %0, i64 0, i32 3
  %10 = getelementptr inbounds %"class.dealii::MappingQ", ptr %1, i64 0, i32 3
  %11 = load <2 x i32>, ptr %10, align 8, !tbaa !90
  store <2 x i32> %11, ptr %9, align 8, !tbaa !90
  %12 = getelementptr inbounds %"class.dealii::MappingQ", ptr %0, i64 0, i32 5
  %13 = getelementptr inbounds %"class.dealii::MappingQ", ptr %1, i64 0, i32 5
  %14 = load i32, ptr %13, align 8, !tbaa !82
  store i32 %14, ptr %12, align 8, !tbaa !82
  %15 = getelementptr inbounds %"class.dealii::MappingQ", ptr %0, i64 0, i32 6
  store ptr null, ptr %15, align 8, !tbaa !83
  %16 = getelementptr inbounds %"class.dealii::MappingQ", ptr %0, i64 0, i32 7
  %17 = getelementptr inbounds %"class.dealii::MappingQ", ptr %1, i64 0, i32 7
  %18 = load i32, ptr %17, align 8, !tbaa !84
  store i32 %18, ptr %16, align 8, !tbaa !84
  %19 = getelementptr inbounds %"class.dealii::MappingQ", ptr %0, i64 0, i32 8
  %20 = getelementptr inbounds %"class.dealii::MappingQ", ptr %1, i64 0, i32 8
  %21 = getelementptr inbounds %"class.dealii::MappingQ", ptr %1, i64 0, i32 8, i32 0, i32 0, i32 0, i32 1
  %22 = load ptr, ptr %21, align 8, !tbaa !91
  %23 = load ptr, ptr %20, align 8, !tbaa !88
  %24 = ptrtoint ptr %22 to i64
  %25 = ptrtoint ptr %23 to i64
  %26 = sub i64 %24, %25
  %27 = ashr exact i64 %26, 2
  tail call void @llvm.memset.p0.i64(ptr noundef nonnull align 8 dereferenceable(24) %19, i8 0, i64 24, i1 false)
  %28 = icmp eq ptr %22, %23
  br i1 %28, label %35, label %29

29:                                               ; preds = %7
  %30 = icmp ugt i64 %26, 9223372036854775804
  br i1 %30, label %31, label %33, !prof !101

31:                                               ; preds = %29
  invoke void @_ZSt28__throw_bad_array_new_lengthv() #23
          to label %32 unwind label %183

32:                                               ; preds = %31
  unreachable

33:                                               ; preds = %29
  %34 = invoke noalias noundef nonnull ptr @_Znwm(i64 noundef %26) #20
          to label %35 unwind label %183

35:                                               ; preds = %33, %7
  %36 = phi ptr [ null, %7 ], [ %34, %33 ]
  store ptr %36, ptr %19, align 8, !tbaa !88
  %37 = getelementptr inbounds %"class.dealii::MappingQ", ptr %0, i64 0, i32 8, i32 0, i32 0, i32 0, i32 1
  store ptr %36, ptr %37, align 8, !tbaa !91
  %38 = getelementptr inbounds i32, ptr %36, i64 %27
  %39 = getelementptr inbounds %"class.dealii::MappingQ", ptr %0, i64 0, i32 8, i32 0, i32 0, i32 0, i32 2
  store ptr %38, ptr %39, align 8, !tbaa !89
  %40 = load ptr, ptr %20, align 8, !tbaa !98
  %41 = load ptr, ptr %21, align 8, !tbaa !98
  %42 = ptrtoint ptr %41 to i64
  %43 = ptrtoint ptr %40 to i64
  %44 = sub i64 %42, %43
  %45 = icmp sgt i64 %44, 4
  br i1 %45, label %46, label %47, !prof !103

46:                                               ; preds = %35
  tail call void @llvm.memmove.p0.p0.i64(ptr align 4 %36, ptr align 4 %40, i64 %44, i1 false)
  br label %51

47:                                               ; preds = %35
  %48 = icmp eq i64 %44, 4
  br i1 %48, label %49, label %51

49:                                               ; preds = %47
  %50 = load i32, ptr %40, align 4, !tbaa !90
  store i32 %50, ptr %36, align 4, !tbaa !90
  br label %51

51:                                               ; preds = %49, %47, %46
  %52 = ashr exact i64 %44, 2
  %53 = getelementptr inbounds i32, ptr %36, i64 %52
  store ptr %53, ptr %37, align 8, !tbaa !91
  %54 = getelementptr inbounds %"class.dealii::MappingQ", ptr %0, i64 0, i32 9
  %55 = getelementptr inbounds %"class.dealii::MappingQ", ptr %1, i64 0, i32 9
  %56 = load i8, ptr %55, align 8, !tbaa !92, !range !122, !noundef !123
  store i8 %56, ptr %54, align 8, !tbaa !92
  %57 = getelementptr inbounds %"class.dealii::MappingQ", ptr %0, i64 0, i32 10
  %58 = extractelement <2 x i32> %11, i64 0
  invoke void @_ZN6dealii4FE_QILi3ELi3EEC1Ej(ptr noundef nonnull align 8 dereferenceable(832) %57, i32 noundef %58)
          to label %59 unwind label %185

59:                                               ; preds = %51
  %60 = invoke noalias noundef nonnull dereferenceable(80) ptr @_Znwm(i64 noundef 80) #20
          to label %61 unwind label %187

61:                                               ; preds = %59
  %62 = getelementptr inbounds %"class.dealii::MappingQ", ptr %1, i64 0, i32 6
  %63 = load ptr, ptr %62, align 8, !tbaa !83
  invoke void @_ZN6dealii24TensorProductPolynomialsILi3EEC2ERKS1_(ptr noundef nonnull align 8 dereferenceable(80) %60, ptr noundef nonnull align 8 dereferenceable(80) %63)
          to label %64 unwind label %189

64:                                               ; preds = %61
  store ptr %60, ptr %15, align 8, !tbaa !83
  %65 = getelementptr inbounds %"class.dealii::MappingQ", ptr %1, i64 0, i32 1, i32 0, i32 3
  %66 = getelementptr inbounds %"class.dealii::MappingQ", ptr %0, i64 0, i32 1, i32 0, i32 3
  %67 = load i64, ptr %65, align 4
  store i64 %67, ptr %66, align 4
  %68 = trunc i64 %67 to i32
  %69 = getelementptr inbounds %"class.dealii::MappingQ", ptr %0, i64 0, i32 1, i32 0, i32 3, i32 0, i32 0, i64 1
  %70 = lshr i64 %67, 32
  %71 = trunc i64 %70 to i32
  %72 = mul i32 %71, %68
  %73 = icmp eq i32 %72, 0
  br i1 %73, label %74, label %79

74:                                               ; preds = %64
  %75 = load ptr, ptr %5, align 8, !tbaa !114
  %76 = icmp eq ptr %75, null
  br i1 %76, label %78, label %77

77:                                               ; preds = %74
  tail call void @_ZdaPv(ptr noundef nonnull %75) #21
  br label %78

78:                                               ; preds = %77, %74
  tail call void @llvm.memset.p0.i64(ptr noundef nonnull align 8 dereferenceable(20) %5, i8 0, i64 20, i1 false)
  br label %106

79:                                               ; preds = %64
  %80 = getelementptr inbounds %"class.dealii::MappingQ", ptr %0, i64 0, i32 1, i32 0, i32 2
  %81 = load i32, ptr %80, align 8, !tbaa !115
  %82 = icmp ult i32 %81, %72
  %83 = load ptr, ptr %5, align 8, !tbaa !114
  br i1 %82, label %84, label %99

84:                                               ; preds = %79
  %85 = icmp eq ptr %83, null
  br i1 %85, label %90, label %86

86:                                               ; preds = %84
  tail call void @_ZdaPv(ptr noundef nonnull %83) #21
  %87 = load i32, ptr %66, align 4, !tbaa !90
  %88 = load i32, ptr %69, align 8, !tbaa !90
  %89 = mul i32 %88, %87
  br label %90

90:                                               ; preds = %86, %84
  %91 = phi i32 [ %88, %86 ], [ %71, %84 ]
  %92 = phi i32 [ %87, %86 ], [ %68, %84 ]
  %93 = phi i32 [ %89, %86 ], [ %72, %84 ]
  store i32 %72, ptr %80, align 8, !tbaa !115
  %94 = zext i32 %72 to i64
  %95 = shl nuw nsw i64 %94, 3
  %96 = invoke noalias noundef nonnull ptr @_Znam(i64 noundef %95) #20
          to label %97 unwind label %187

97:                                               ; preds = %90
  store ptr %96, ptr %5, align 8, !tbaa !114
  %98 = icmp eq i32 %93, 0
  br i1 %98, label %106, label %99

99:                                               ; preds = %97, %79
  %100 = phi i32 [ %91, %97 ], [ %71, %79 ]
  %101 = phi i32 [ %92, %97 ], [ %68, %79 ]
  %102 = phi ptr [ %96, %97 ], [ %83, %79 ]
  %103 = phi i32 [ %93, %97 ], [ %72, %79 ]
  %104 = zext i32 %103 to i64
  %105 = shl nuw nsw i64 %104, 3
  tail call void @llvm.memset.p0.i64(ptr align 8 %102, i8 0, i64 %105, i1 false), !tbaa !104
  br label %106

106:                                              ; preds = %99, %97, %78
  %107 = phi ptr [ null, %78 ], [ %96, %97 ], [ %102, %99 ]
  %108 = phi i32 [ 0, %78 ], [ %91, %97 ], [ %100, %99 ]
  %109 = phi i32 [ 0, %78 ], [ %92, %97 ], [ %101, %99 ]
  %110 = mul i32 %109, %108
  %111 = icmp eq i32 %110, 0
  br i1 %111, label %121, label %112

112:                                              ; preds = %106
  %113 = getelementptr inbounds %"class.dealii::MappingQ", ptr %1, i64 0, i32 1, i32 0, i32 1
  %114 = load ptr, ptr %113, align 8, !tbaa !114
  %115 = icmp eq i32 %110, 1
  br i1 %115, label %119, label %116, !prof !101

116:                                              ; preds = %112
  %117 = zext i32 %110 to i64
  %118 = shl nuw nsw i64 %117, 3
  tail call void @llvm.memmove.p0.p0.i64(ptr align 8 %107, ptr align 8 %114, i64 %118, i1 false)
  br label %121

119:                                              ; preds = %112
  %120 = load double, ptr %114, align 8, !tbaa !104
  store double %120, ptr %107, align 8, !tbaa !104
  br label %121

121:                                              ; preds = %119, %116, %106
  %122 = getelementptr inbounds %"class.dealii::MappingQ", ptr %1, i64 0, i32 2, i32 0, i32 3
  %123 = getelementptr inbounds %"class.dealii::MappingQ", ptr %0, i64 0, i32 2, i32 0, i32 3
  %124 = load i64, ptr %122, align 4
  store i64 %124, ptr %123, align 4
  %125 = trunc i64 %124 to i32
  %126 = getelementptr inbounds %"class.dealii::MappingQ", ptr %0, i64 0, i32 2, i32 0, i32 3, i32 0, i32 0, i64 1
  %127 = lshr i64 %124, 32
  %128 = trunc i64 %127 to i32
  %129 = mul i32 %128, %125
  %130 = icmp eq i32 %129, 0
  br i1 %130, label %131, label %136

131:                                              ; preds = %121
  %132 = load ptr, ptr %8, align 8, !tbaa !114
  %133 = icmp eq ptr %132, null
  br i1 %133, label %135, label %134

134:                                              ; preds = %131
  tail call void @_ZdaPv(ptr noundef nonnull %132) #21
  br label %135

135:                                              ; preds = %134, %131
  tail call void @llvm.memset.p0.i64(ptr noundef nonnull align 8 dereferenceable(20) %8, i8 0, i64 20, i1 false)
  br label %163

136:                                              ; preds = %121
  %137 = getelementptr inbounds %"class.dealii::MappingQ", ptr %0, i64 0, i32 2, i32 0, i32 2
  %138 = load i32, ptr %137, align 8, !tbaa !115
  %139 = icmp ult i32 %138, %129
  %140 = load ptr, ptr %8, align 8, !tbaa !114
  br i1 %139, label %141, label %156

141:                                              ; preds = %136
  %142 = icmp eq ptr %140, null
  br i1 %142, label %147, label %143

143:                                              ; preds = %141
  tail call void @_ZdaPv(ptr noundef nonnull %140) #21
  %144 = load i32, ptr %123, align 4, !tbaa !90
  %145 = load i32, ptr %126, align 8, !tbaa !90
  %146 = mul i32 %145, %144
  br label %147

147:                                              ; preds = %143, %141
  %148 = phi i32 [ %145, %143 ], [ %128, %141 ]
  %149 = phi i32 [ %144, %143 ], [ %125, %141 ]
  %150 = phi i32 [ %146, %143 ], [ %129, %141 ]
  store i32 %129, ptr %137, align 8, !tbaa !115
  %151 = zext i32 %129 to i64
  %152 = shl nuw nsw i64 %151, 3
  %153 = invoke noalias noundef nonnull ptr @_Znam(i64 noundef %152) #20
          to label %154 unwind label %187

154:                                              ; preds = %147
  store ptr %153, ptr %8, align 8, !tbaa !114
  %155 = icmp eq i32 %150, 0
  br i1 %155, label %163, label %156

156:                                              ; preds = %154, %136
  %157 = phi i32 [ %148, %154 ], [ %128, %136 ]
  %158 = phi i32 [ %149, %154 ], [ %125, %136 ]
  %159 = phi ptr [ %153, %154 ], [ %140, %136 ]
  %160 = phi i32 [ %150, %154 ], [ %129, %136 ]
  %161 = zext i32 %160 to i64
  %162 = shl nuw nsw i64 %161, 3
  tail call void @llvm.memset.p0.i64(ptr align 8 %159, i8 0, i64 %162, i1 false), !tbaa !104
  br label %163

163:                                              ; preds = %156, %154, %135
  %164 = phi ptr [ null, %135 ], [ %153, %154 ], [ %159, %156 ]
  %165 = phi i32 [ 0, %135 ], [ %148, %154 ], [ %157, %156 ]
  %166 = phi i32 [ 0, %135 ], [ %149, %154 ], [ %158, %156 ]
  %167 = mul i32 %166, %165
  %168 = icmp eq i32 %167, 0
  br i1 %168, label %178, label %169

169:                                              ; preds = %163
  %170 = getelementptr inbounds %"class.dealii::MappingQ", ptr %1, i64 0, i32 2, i32 0, i32 1
  %171 = load ptr, ptr %170, align 8, !tbaa !114
  %172 = icmp eq i32 %167, 1
  br i1 %172, label %176, label %173, !prof !101

173:                                              ; preds = %169
  %174 = zext i32 %167 to i64
  %175 = shl nuw nsw i64 %174, 3
  tail call void @llvm.memmove.p0.p0.i64(ptr align 8 %164, ptr align 8 %171, i64 %175, i1 false)
  br label %178

176:                                              ; preds = %169
  %177 = load double, ptr %171, align 8, !tbaa !104
  store double %177, ptr %164, align 8, !tbaa !104
  br label %178

178:                                              ; preds = %176, %173, %163
  ret void

179:                                              ; preds = %2
  %180 = landingpad { ptr, i32 }
          cleanup
  br label %202

181:                                              ; preds = %4
  %182 = landingpad { ptr, i32 }
          cleanup
  br label %200

183:                                              ; preds = %33, %31
  %184 = landingpad { ptr, i32 }
          cleanup
  br label %198

185:                                              ; preds = %51
  %186 = landingpad { ptr, i32 }
          cleanup
  br label %193

187:                                              ; preds = %147, %90, %59
  %188 = landingpad { ptr, i32 }
          cleanup
  br label %191

189:                                              ; preds = %61
  %190 = landingpad { ptr, i32 }
          cleanup
  tail call void @_ZdlPv(ptr noundef nonnull %60) #21
  br label %191

191:                                              ; preds = %189, %187
  %192 = phi { ptr, i32 } [ %188, %187 ], [ %190, %189 ]
  invoke void @_ZN6dealii4FE_QILi3ELi3EED2Ev(ptr noundef nonnull align 8 dereferenceable(832) %57)
          to label %193 unwind label %205

193:                                              ; preds = %191, %185
  %194 = phi { ptr, i32 } [ %192, %191 ], [ %186, %185 ]
  %195 = load ptr, ptr %19, align 8, !tbaa !88
  %196 = icmp eq ptr %195, null
  br i1 %196, label %198, label %197

197:                                              ; preds = %193
  tail call void @_ZdlPv(ptr noundef nonnull %195) #21
  br label %198

198:                                              ; preds = %197, %193, %183
  %199 = phi { ptr, i32 } [ %184, %183 ], [ %194, %193 ], [ %194, %197 ]
  invoke void @_ZN6dealii9TableBaseILi2EdED2Ev(ptr noundef nonnull align 8 dereferenceable(92) %6)
          to label %200 unwind label %205

200:                                              ; preds = %198, %181
  %201 = phi { ptr, i32 } [ %199, %198 ], [ %182, %181 ]
  invoke void @_ZN6dealii9TableBaseILi2EdED2Ev(ptr noundef nonnull align 8 dereferenceable(92) %3)
          to label %202 unwind label %205

202:                                              ; preds = %200, %179
  %203 = phi { ptr, i32 } [ %201, %200 ], [ %180, %179 ]
  invoke void @_ZN6dealii7MappingILi3ELi3EED2Ev(ptr noundef nonnull align 8 dereferenceable(72) %0)
          to label %204 unwind label %205

204:                                              ; preds = %202
  resume { ptr, i32 } %203

205:                                              ; preds = %202, %200, %198, %191
  %206 = landingpad { ptr, i32 }
          catch ptr null
  %207 = extractvalue { ptr, i32 } %206, 0
  tail call void @__clang_call_terminate(ptr %207) #22
  unreachable
}

; Function Attrs: inlinehint sspstrong uwtable
define linkonce_odr dso_local void @_ZN6dealii24TensorProductPolynomialsILi3EEC2ERKS1_(ptr noundef nonnull align 8 dereferenceable(80) %0, ptr noundef nonnull align 8 dereferenceable(80) %1) unnamed_addr #6 comdat align 2 personality ptr @__gxx_personality_v0 {
  %3 = getelementptr inbounds %"struct.std::_Vector_base<dealii::Polynomials::Polynomial<double>, std::allocator<dealii::Polynomials::Polynomial<double> > >::_Vector_impl_data", ptr %1, i64 0, i32 1
  %4 = load ptr, ptr %3, align 8, !tbaa !108
  %5 = load ptr, ptr %1, align 8, !tbaa !106
  %6 = ptrtoint ptr %4 to i64
  %7 = ptrtoint ptr %5 to i64
  %8 = sub i64 %6, %7
  %9 = sdiv exact i64 %8, 96
  tail call void @llvm.memset.p0.i64(ptr noundef nonnull align 8 dereferenceable(24) %0, i8 0, i64 24, i1 false)
  %10 = icmp eq ptr %4, %5
  br i1 %10, label %16, label %11

11:                                               ; preds = %2
  %12 = icmp ugt i64 %9, 96076792050570581
  br i1 %12, label %13, label %14, !prof !101

13:                                               ; preds = %11
  tail call void @_ZSt28__throw_bad_array_new_lengthv() #23
  unreachable

14:                                               ; preds = %11
  %15 = tail call noalias noundef nonnull ptr @_Znwm(i64 noundef %8) #20
  br label %16

16:                                               ; preds = %14, %2
  %17 = phi ptr [ null, %2 ], [ %15, %14 ]
  store ptr %17, ptr %0, align 8, !tbaa !106
  %18 = getelementptr inbounds %"struct.std::_Vector_base<dealii::Polynomials::Polynomial<double>, std::allocator<dealii::Polynomials::Polynomial<double> > >::_Vector_impl_data", ptr %0, i64 0, i32 1
  store ptr %17, ptr %18, align 8, !tbaa !108
  %19 = getelementptr inbounds %"class.dealii::Polynomials::Polynomial", ptr %17, i64 %9
  %20 = getelementptr inbounds %"struct.std::_Vector_base<dealii::Polynomials::Polynomial<double>, std::allocator<dealii::Polynomials::Polynomial<double> > >::_Vector_impl_data", ptr %0, i64 0, i32 2
  store ptr %19, ptr %20, align 8, !tbaa !107
  %21 = load ptr, ptr %1, align 8, !tbaa !98
  %22 = load ptr, ptr %3, align 8, !tbaa !98
  %23 = invoke noundef ptr @_ZSt16__do_uninit_copyIN9__gnu_cxx17__normal_iteratorIPKN6dealii11Polynomials10PolynomialIdEESt6vectorIS5_SaIS5_EEEEPS5_ET0_T_SE_SD_(ptr %21, ptr %22, ptr noundef %17)
          to label %31 unwind label %24

24:                                               ; preds = %16
  %25 = landingpad { ptr, i32 }
          cleanup
  %26 = load ptr, ptr %0, align 8, !tbaa !106
  %27 = icmp eq ptr %26, null
  br i1 %27, label %29, label %28

28:                                               ; preds = %24
  tail call void @_ZdlPv(ptr noundef nonnull %26) #21
  br label %29

29:                                               ; preds = %112, %24, %28
  %30 = phi { ptr, i32 } [ %25, %28 ], [ %25, %24 ], [ %113, %112 ]
  resume { ptr, i32 } %30

31:                                               ; preds = %16
  store ptr %23, ptr %18, align 8, !tbaa !108
  %32 = getelementptr inbounds %"class.dealii::TensorProductPolynomials", ptr %0, i64 0, i32 1
  %33 = getelementptr inbounds %"class.dealii::TensorProductPolynomials", ptr %1, i64 0, i32 1
  %34 = load i32, ptr %33, align 8, !tbaa !109
  store i32 %34, ptr %32, align 8, !tbaa !109
  %35 = getelementptr inbounds %"class.dealii::TensorProductPolynomials", ptr %0, i64 0, i32 2
  %36 = getelementptr inbounds %"class.dealii::TensorProductPolynomials", ptr %1, i64 0, i32 2
  %37 = getelementptr inbounds %"class.dealii::TensorProductPolynomials", ptr %1, i64 0, i32 2, i32 0, i32 0, i32 0, i32 1
  %38 = load ptr, ptr %37, align 8, !tbaa !91
  %39 = load ptr, ptr %36, align 8, !tbaa !88
  %40 = ptrtoint ptr %38 to i64
  %41 = ptrtoint ptr %39 to i64
  %42 = sub i64 %40, %41
  %43 = ashr exact i64 %42, 2
  tail call void @llvm.memset.p0.i64(ptr noundef nonnull align 8 dereferenceable(24) %35, i8 0, i64 24, i1 false)
  %44 = icmp eq ptr %38, %39
  br i1 %44, label %51, label %45

45:                                               ; preds = %31
  %46 = icmp ugt i64 %42, 9223372036854775804
  br i1 %46, label %47, label %49, !prof !101

47:                                               ; preds = %45
  invoke void @_ZSt28__throw_bad_array_new_lengthv() #23
          to label %48 unwind label %105

48:                                               ; preds = %47
  unreachable

49:                                               ; preds = %45
  %50 = invoke noalias noundef nonnull ptr @_Znwm(i64 noundef %42) #20
          to label %51 unwind label %105

51:                                               ; preds = %49, %31
  %52 = phi ptr [ null, %31 ], [ %50, %49 ]
  store ptr %52, ptr %35, align 8, !tbaa !88
  %53 = getelementptr inbounds %"class.dealii::TensorProductPolynomials", ptr %0, i64 0, i32 2, i32 0, i32 0, i32 0, i32 1
  store ptr %52, ptr %53, align 8, !tbaa !91
  %54 = getelementptr inbounds i32, ptr %52, i64 %43
  %55 = getelementptr inbounds %"class.dealii::TensorProductPolynomials", ptr %0, i64 0, i32 2, i32 0, i32 0, i32 0, i32 2
  store ptr %54, ptr %55, align 8, !tbaa !89
  %56 = load ptr, ptr %36, align 8, !tbaa !98
  %57 = load ptr, ptr %37, align 8, !tbaa !98
  %58 = ptrtoint ptr %57 to i64
  %59 = ptrtoint ptr %56 to i64
  %60 = sub i64 %58, %59
  %61 = icmp sgt i64 %60, 4
  br i1 %61, label %62, label %63, !prof !103

62:                                               ; preds = %51
  tail call void @llvm.memmove.p0.p0.i64(ptr align 4 %52, ptr align 4 %56, i64 %60, i1 false)
  br label %67

63:                                               ; preds = %51
  %64 = icmp eq i64 %60, 4
  br i1 %64, label %65, label %67

65:                                               ; preds = %63
  %66 = load i32, ptr %56, align 4, !tbaa !90
  store i32 %66, ptr %52, align 4, !tbaa !90
  br label %67

67:                                               ; preds = %65, %63, %62
  %68 = ashr exact i64 %60, 2
  %69 = getelementptr inbounds i32, ptr %52, i64 %68
  store ptr %69, ptr %53, align 8, !tbaa !91
  %70 = getelementptr inbounds %"class.dealii::TensorProductPolynomials", ptr %0, i64 0, i32 3
  %71 = getelementptr inbounds %"class.dealii::TensorProductPolynomials", ptr %1, i64 0, i32 3
  %72 = getelementptr inbounds %"class.dealii::TensorProductPolynomials", ptr %1, i64 0, i32 3, i32 0, i32 0, i32 0, i32 1
  %73 = load ptr, ptr %72, align 8, !tbaa !91
  %74 = load ptr, ptr %71, align 8, !tbaa !88
  %75 = ptrtoint ptr %73 to i64
  %76 = ptrtoint ptr %74 to i64
  %77 = sub i64 %75, %76
  %78 = ashr exact i64 %77, 2
  tail call void @llvm.memset.p0.i64(ptr noundef nonnull align 8 dereferenceable(24) %70, i8 0, i64 24, i1 false)
  %79 = icmp eq ptr %73, %74
  br i1 %79, label %86, label %80

80:                                               ; preds = %67
  %81 = icmp ugt i64 %77, 9223372036854775804
  br i1 %81, label %82, label %84, !prof !101

82:                                               ; preds = %80
  invoke void @_ZSt28__throw_bad_array_new_lengthv() #23
          to label %83 unwind label %107

83:                                               ; preds = %82
  unreachable

84:                                               ; preds = %80
  %85 = invoke noalias noundef nonnull ptr @_Znwm(i64 noundef %77) #20
          to label %86 unwind label %107

86:                                               ; preds = %84, %67
  %87 = phi ptr [ null, %67 ], [ %85, %84 ]
  store ptr %87, ptr %70, align 8, !tbaa !88
  %88 = getelementptr inbounds %"class.dealii::TensorProductPolynomials", ptr %0, i64 0, i32 3, i32 0, i32 0, i32 0, i32 1
  store ptr %87, ptr %88, align 8, !tbaa !91
  %89 = getelementptr inbounds i32, ptr %87, i64 %78
  %90 = getelementptr inbounds %"class.dealii::TensorProductPolynomials", ptr %0, i64 0, i32 3, i32 0, i32 0, i32 0, i32 2
  store ptr %89, ptr %90, align 8, !tbaa !89
  %91 = load ptr, ptr %71, align 8, !tbaa !98
  %92 = load ptr, ptr %72, align 8, !tbaa !98
  %93 = ptrtoint ptr %92 to i64
  %94 = ptrtoint ptr %91 to i64
  %95 = sub i64 %93, %94
  %96 = icmp sgt i64 %95, 4
  br i1 %96, label %97, label %98, !prof !103

97:                                               ; preds = %86
  tail call void @llvm.memmove.p0.p0.i64(ptr align 4 %87, ptr align 4 %91, i64 %95, i1 false)
  br label %102

98:                                               ; preds = %86
  %99 = icmp eq i64 %95, 4
  br i1 %99, label %100, label %102

100:                                              ; preds = %98
  %101 = load i32, ptr %91, align 4, !tbaa !90
  store i32 %101, ptr %87, align 4, !tbaa !90
  br label %102

102:                                              ; preds = %100, %98, %97
  %103 = ashr exact i64 %95, 2
  %104 = getelementptr inbounds i32, ptr %87, i64 %103
  store ptr %104, ptr %88, align 8, !tbaa !91
  ret void

105:                                              ; preds = %49, %47
  %106 = landingpad { ptr, i32 }
          cleanup
  br label %112

107:                                              ; preds = %84, %82
  %108 = landingpad { ptr, i32 }
          cleanup
  %109 = load ptr, ptr %35, align 8, !tbaa !88
  %110 = icmp eq ptr %109, null
  br i1 %110, label %112, label %111

111:                                              ; preds = %107
  tail call void @_ZdlPv(ptr noundef nonnull %109) #21
  br label %112

112:                                              ; preds = %111, %107, %105
  %113 = phi { ptr, i32 } [ %106, %105 ], [ %108, %107 ], [ %108, %111 ]
  invoke void @_ZNSt6vectorIN6dealii11Polynomials10PolynomialIdEESaIS3_EED2Ev(ptr noundef nonnull align 8 dereferenceable(24) %0)
          to label %29 unwind label %114

114:                                              ; preds = %112
  %115 = landingpad { ptr, i32 }
          catch ptr null
  %116 = extractvalue { ptr, i32 } %115, 0
  tail call void @__clang_call_terminate(ptr %116) #22
  unreachable
}

; Function Attrs: sspstrong uwtable
define weak_odr dso_local void @_ZN6dealii8MappingQILi3ELi3EED2Ev(ptr noundef nonnull align 8 dereferenceable(1160) %0) unnamed_addr #0 comdat($_ZN6dealii8MappingQILi3ELi3EED5Ev) align 2 personality ptr @__gxx_personality_v0 {
  store ptr getelementptr inbounds ({ [21 x ptr] }, ptr @_ZTVN6dealii8MappingQILi3ELi3EEE, i64 0, inrange i32 0, i64 2), ptr %0, align 8, !tbaa !5
  %2 = getelementptr inbounds %"class.dealii::MappingQ", ptr %0, i64 0, i32 6
  %3 = load ptr, ptr %2, align 8, !tbaa !83
  %4 = icmp eq ptr %3, null
  br i1 %4, label %39, label %5

5:                                                ; preds = %1
  %6 = getelementptr inbounds %"class.dealii::TensorProductPolynomials", ptr %3, i64 0, i32 3
  %7 = load ptr, ptr %6, align 8, !tbaa !88
  %8 = icmp eq ptr %7, null
  br i1 %8, label %10, label %9

9:                                                ; preds = %5
  tail call void @_ZdlPv(ptr noundef nonnull %7) #21
  br label %10

10:                                               ; preds = %9, %5
  %11 = getelementptr inbounds %"class.dealii::TensorProductPolynomials", ptr %3, i64 0, i32 2
  %12 = load ptr, ptr %11, align 8, !tbaa !88
  %13 = icmp eq ptr %12, null
  br i1 %13, label %15, label %14

14:                                               ; preds = %10
  tail call void @_ZdlPv(ptr noundef nonnull %12) #21
  br label %15

15:                                               ; preds = %14, %10
  %16 = load ptr, ptr %3, align 8, !tbaa !106
  %17 = getelementptr inbounds %"struct.std::_Vector_base<dealii::Polynomials::Polynomial<double>, std::allocator<dealii::Polynomials::Polynomial<double> > >::_Vector_impl_data", ptr %3, i64 0, i32 1
  %18 = load ptr, ptr %17, align 8, !tbaa !108
  %19 = icmp eq ptr %16, %18
  br i1 %19, label %29, label %20

20:                                               ; preds = %15, %24
  %21 = phi ptr [ %25, %24 ], [ %16, %15 ]
  %22 = load ptr, ptr %21, align 8, !tbaa !5
  %23 = load ptr, ptr %22, align 8
  invoke void %23(ptr noundef nonnull align 8 dereferenceable(96) %21)
          to label %24 unwind label %33

24:                                               ; preds = %20
  %25 = getelementptr inbounds %"class.dealii::Polynomials::Polynomial", ptr %21, i64 1
  %26 = icmp eq ptr %25, %18
  br i1 %26, label %27, label %20

27:                                               ; preds = %24
  %28 = load ptr, ptr %3, align 8, !tbaa !106
  br label %29

29:                                               ; preds = %27, %15
  %30 = phi ptr [ %28, %27 ], [ %16, %15 ]
  %31 = icmp eq ptr %30, null
  br i1 %31, label %38, label %32

32:                                               ; preds = %29
  tail call void @_ZdlPv(ptr noundef nonnull %30) #21
  br label %38

33:                                               ; preds = %20
  %34 = landingpad { ptr, i32 }
          cleanup
  %35 = load ptr, ptr %3, align 8, !tbaa !106
  %36 = icmp eq ptr %35, null
  br i1 %36, label %66, label %37

37:                                               ; preds = %33
  tail call void @_ZdlPv(ptr noundef nonnull %35) #21
  br label %66

38:                                               ; preds = %32, %29
  tail call void @_ZdlPv(ptr noundef nonnull %3) #21
  br label %39

39:                                               ; preds = %38, %1
  %40 = getelementptr inbounds %"class.dealii::MappingQ", ptr %0, i64 0, i32 10
  store ptr getelementptr inbounds ({ [38 x ptr] }, ptr @_ZTVN6dealii4FE_QILi3ELi3EEE, i64 0, inrange i32 0, i64 2), ptr %40, align 8, !tbaa !5
  %41 = getelementptr inbounds %"class.dealii::MappingQ", ptr %0, i64 0, i32 10, i32 1
  %42 = load ptr, ptr %41, align 8, !tbaa !88
  %43 = icmp eq ptr %42, null
  br i1 %43, label %45, label %44

44:                                               ; preds = %39
  tail call void @_ZdlPv(ptr noundef nonnull %42) #21
  br label %45

45:                                               ; preds = %44, %39
  invoke void @_ZN6dealii7FE_PolyINS_24TensorProductPolynomialsILi3EEELi3ELi3EED2Ev(ptr noundef nonnull align 8 dereferenceable(808) %40)
          to label %46 unwind label %68

46:                                               ; preds = %45
  %47 = getelementptr inbounds %"class.dealii::MappingQ", ptr %0, i64 0, i32 8
  %48 = load ptr, ptr %47, align 8, !tbaa !88
  %49 = icmp eq ptr %48, null
  br i1 %49, label %51, label %50

50:                                               ; preds = %46
  tail call void @_ZdlPv(ptr noundef nonnull %48) #21
  br label %51

51:                                               ; preds = %50, %46
  %52 = getelementptr inbounds %"class.dealii::MappingQ", ptr %0, i64 0, i32 2
  store ptr getelementptr inbounds ({ [4 x ptr] }, ptr @_ZTVN6dealii9TableBaseILi2EdEE, i64 0, inrange i32 0, i64 2), ptr %52, align 8, !tbaa !5
  %53 = getelementptr inbounds %"class.dealii::MappingQ", ptr %0, i64 0, i32 2, i32 0, i32 1
  %54 = load ptr, ptr %53, align 8, !tbaa !114
  %55 = icmp eq ptr %54, null
  br i1 %55, label %57, label %56

56:                                               ; preds = %51
  tail call void @_ZdaPv(ptr noundef nonnull %54) #21
  br label %57

57:                                               ; preds = %56, %51
  invoke void @_ZN6dealii11SubscriptorD2Ev(ptr noundef nonnull align 8 dereferenceable(72) %52)
          to label %58 unwind label %76

58:                                               ; preds = %57
  %59 = getelementptr inbounds %"class.dealii::MappingQ", ptr %0, i64 0, i32 1
  store ptr getelementptr inbounds ({ [4 x ptr] }, ptr @_ZTVN6dealii9TableBaseILi2EdEE, i64 0, inrange i32 0, i64 2), ptr %59, align 8, !tbaa !5
  %60 = getelementptr inbounds %"class.dealii::MappingQ", ptr %0, i64 0, i32 1, i32 0, i32 1
  %61 = load ptr, ptr %60, align 8, !tbaa !114
  %62 = icmp eq ptr %61, null
  br i1 %62, label %64, label %63

63:                                               ; preds = %58
  tail call void @_ZdaPv(ptr noundef nonnull %61) #21
  br label %64

64:                                               ; preds = %63, %58
  invoke void @_ZN6dealii11SubscriptorD2Ev(ptr noundef nonnull align 8 dereferenceable(72) %59)
          to label %65 unwind label %80

65:                                               ; preds = %64
  tail call void @_ZN6dealii7MappingILi3ELi3EED2Ev(ptr noundef nonnull align 8 dereferenceable(72) %0)
  ret void

66:                                               ; preds = %33, %37
  tail call void @_ZdlPv(ptr noundef nonnull %3) #21
  %67 = getelementptr inbounds %"class.dealii::MappingQ", ptr %0, i64 0, i32 10
  invoke void @_ZN6dealii4FE_QILi3ELi3EED2Ev(ptr noundef nonnull align 8 dereferenceable(832) %67)
          to label %70 unwind label %88

68:                                               ; preds = %45
  %69 = landingpad { ptr, i32 }
          cleanup
  br label %70

70:                                               ; preds = %66, %68
  %71 = phi { ptr, i32 } [ %69, %68 ], [ %34, %66 ]
  %72 = getelementptr inbounds %"class.dealii::MappingQ", ptr %0, i64 0, i32 8
  %73 = load ptr, ptr %72, align 8, !tbaa !88
  %74 = icmp eq ptr %73, null
  br i1 %74, label %78, label %75

75:                                               ; preds = %70
  tail call void @_ZdlPv(ptr noundef nonnull %73) #21
  br label %78

76:                                               ; preds = %57
  %77 = landingpad { ptr, i32 }
          cleanup
  br label %82

78:                                               ; preds = %75, %70
  %79 = getelementptr inbounds %"class.dealii::MappingQ", ptr %0, i64 0, i32 2
  invoke void @_ZN6dealii9TableBaseILi2EdED2Ev(ptr noundef nonnull align 8 dereferenceable(92) %79)
          to label %82 unwind label %88

80:                                               ; preds = %64
  %81 = landingpad { ptr, i32 }
          cleanup
  br label %85

82:                                               ; preds = %78, %76
  %83 = phi { ptr, i32 } [ %77, %76 ], [ %71, %78 ]
  %84 = getelementptr inbounds %"class.dealii::MappingQ", ptr %0, i64 0, i32 1
  invoke void @_ZN6dealii9TableBaseILi2EdED2Ev(ptr noundef nonnull align 8 dereferenceable(92) %84)
          to label %85 unwind label %88

85:                                               ; preds = %82, %80
  %86 = phi { ptr, i32 } [ %81, %80 ], [ %83, %82 ]
  invoke void @_ZN6dealii7MappingILi3ELi3EED2Ev(ptr noundef nonnull align 8 dereferenceable(72) %0)
          to label %87 unwind label %88

87:                                               ; preds = %85
  resume { ptr, i32 } %86

88:                                               ; preds = %85, %82, %78, %66
  %89 = landingpad { ptr, i32 }
          catch ptr null
  %90 = extractvalue { ptr, i32 } %89, 0
  tail call void @__clang_call_terminate(ptr %90) #22
  unreachable
}

; Function Attrs: sspstrong uwtable
define weak_odr dso_local void @_ZN6dealii8MappingQILi3ELi3EED0Ev(ptr noundef nonnull align 8 dereferenceable(1160) %0) unnamed_addr #0 comdat($_ZN6dealii8MappingQILi3ELi3EED5Ev) align 2 personality ptr @__gxx_personality_v0 {
  invoke void @_ZN6dealii8MappingQILi3ELi3EED2Ev(ptr noundef nonnull align 8 dereferenceable(1160) %0)
          to label %2 unwind label %3

2:                                                ; preds = %1
  tail call void @_ZdlPv(ptr noundef nonnull %0) #21
  ret void

3:                                                ; preds = %1
  %4 = landingpad { ptr, i32 }
          cleanup
  tail call void @_ZdlPv(ptr noundef nonnull %0) #21
  resume { ptr, i32 } %4
}

; Function Attrs: sspstrong uwtable
define weak_odr dso_local void @_ZNK6dealii8MappingQILi3ELi3EE27transform_unit_to_real_cellERKNS_12TriaIteratorINS_12CellAccessorILi3ELi3EEEEERKNS_5PointILi3EEE(ptr noalias sret(%"class.dealii::Point") align 8 %0, ptr noundef nonnull align 8 dereferenceable(1160) %1, ptr noundef nonnull align 8 dereferenceable(16) %2, ptr noundef nonnull align 8 dereferenceable(24) %3) unnamed_addr #0 comdat align 2 personality ptr @__gxx_personality_v0 {
  %5 = alloca %"class.dealii::Quadrature", align 8
  call void @llvm.lifetime.start.p0(i64 128, ptr nonnull %5) #19
  call void @_ZN6dealii10QuadratureILi3EEC1ERKNS_5PointILi3EEE(ptr noundef nonnull align 8 dereferenceable(128) %5, ptr noundef nonnull align 8 dereferenceable(24) %3)
  %6 = load ptr, ptr %1, align 8, !tbaa !5
  %7 = getelementptr inbounds ptr, ptr %6, i64 9
  %8 = load ptr, ptr %7, align 8
  %9 = invoke noundef ptr %8(ptr noundef nonnull align 8 dereferenceable(1160) %1, i32 noundef 4096, ptr noundef nonnull align 8 dereferenceable(128) %5)
          to label %10 unwind label %14

10:                                               ; preds = %4
  %11 = icmp eq ptr %9, null
  br i1 %11, label %16, label %12

12:                                               ; preds = %10
  %13 = call ptr @__dynamic_cast(ptr nonnull %9, ptr nonnull @_ZTIN6dealii7MappingILi3ELi3EE16InternalDataBaseE, ptr nonnull @_ZTIN6dealii8MappingQILi3ELi3EE12InternalDataE, i64 0) #19
  br label %16

14:                                               ; preds = %38, %4
  %15 = landingpad { ptr, i32 }
          cleanup
  br label %53

16:                                               ; preds = %10, %12
  %17 = phi ptr [ %13, %12 ], [ null, %10 ]
  %18 = getelementptr inbounds %"class.dealii::MappingQ", ptr %1, i64 0, i32 9
  %19 = load i8, ptr %18, align 8, !tbaa !92, !range !122, !noundef !123
  %20 = icmp eq i8 %19, 0
  br i1 %20, label %23, label %21

21:                                               ; preds = %16
  %22 = getelementptr inbounds %"class.dealii::MappingQ<3>::InternalData", ptr %17, i64 0, i32 2
  store i8 0, ptr %22, align 8, !tbaa !124
  br label %31

23:                                               ; preds = %16
  %24 = invoke noundef zeroext i1 @_ZNK6dealii12CellAccessorILi3ELi3EE18has_boundary_linesEv(ptr noundef nonnull align 8 dereferenceable(16) %2)
          to label %25 unwind label %45

25:                                               ; preds = %23
  %26 = xor i1 %24, true
  %27 = getelementptr inbounds %"class.dealii::MappingQ<3>::InternalData", ptr %17, i64 0, i32 2
  %28 = zext i1 %26 to i8
  store i8 %28, ptr %27, align 8, !tbaa !124
  %29 = getelementptr inbounds %"class.dealii::MappingQ<3>::InternalData", ptr %17, i64 0, i32 3
  %30 = select i1 %24, ptr %17, ptr %29
  br label %31

31:                                               ; preds = %25, %21
  %32 = phi ptr [ %17, %21 ], [ %30, %25 ]
  %33 = getelementptr inbounds %"class.dealii::MappingQ1<3, 3>::InternalData", ptr %32, i64 0, i32 8
  %34 = load ptr, ptr %1, align 8, !tbaa !5
  %35 = getelementptr inbounds ptr, ptr %34, i64 16
  %36 = load ptr, ptr %35, align 8
  invoke void %36(ptr noundef nonnull align 8 dereferenceable(1160) %1, ptr noundef nonnull align 8 dereferenceable(16) %2, ptr noundef nonnull align 8 dereferenceable(24) %33)
          to label %37 unwind label %42

37:                                               ; preds = %31
  invoke void @_ZNK6dealii9MappingQ1ILi3ELi3EE36transform_unit_to_real_cell_internalERKNS1_12InternalDataE(ptr sret(%"class.dealii::Point") align 8 %0, ptr noundef nonnull align 8 dereferenceable(72) %1, ptr noundef nonnull align 8 dereferenceable(408) %32)
          to label %38 unwind label %42

38:                                               ; preds = %37
  %39 = load ptr, ptr %17, align 8, !tbaa !5
  %40 = getelementptr inbounds ptr, ptr %39, i64 1
  %41 = load ptr, ptr %40, align 8
  invoke void %41(ptr noundef nonnull align 8 dereferenceable(848) %17)
          to label %44 unwind label %14

42:                                               ; preds = %31, %37
  %43 = landingpad { ptr, i32 }
          cleanup
  br label %48

44:                                               ; preds = %38
  call void @_ZN6dealii10QuadratureILi3EED1Ev(ptr noundef nonnull align 8 dereferenceable(128) %5)
  call void @llvm.lifetime.end.p0(i64 128, ptr nonnull %5) #19
  ret void

45:                                               ; preds = %23
  %46 = landingpad { ptr, i32 }
          cleanup
  %47 = icmp eq ptr %17, null
  br i1 %47, label %53, label %48

48:                                               ; preds = %42, %45
  %49 = phi { ptr, i32 } [ %43, %42 ], [ %46, %45 ]
  %50 = load ptr, ptr %17, align 8, !tbaa !5
  %51 = getelementptr inbounds ptr, ptr %50, i64 1
  %52 = load ptr, ptr %51, align 8
  invoke void %52(ptr noundef nonnull align 8 dereferenceable(848) %17)
          to label %53 unwind label %56

53:                                               ; preds = %45, %48, %14
  %54 = phi { ptr, i32 } [ %15, %14 ], [ %46, %45 ], [ %49, %48 ]
  invoke void @_ZN6dealii10QuadratureILi3EED1Ev(ptr noundef nonnull align 8 dereferenceable(128) %5)
          to label %55 unwind label %56

55:                                               ; preds = %53
  call void @llvm.lifetime.end.p0(i64 128, ptr nonnull %5) #19
  resume { ptr, i32 } %54

56:                                               ; preds = %48, %53
  %57 = landingpad { ptr, i32 }
          catch ptr null
  %58 = extractvalue { ptr, i32 } %57, 0
  call void @__clang_call_terminate(ptr %58) #22
  unreachable
}

declare void @_ZN6dealii10QuadratureILi3EEC1ERKNS_5PointILi3EEE(ptr noundef nonnull align 8 dereferenceable(128), ptr noundef nonnull align 8 dereferenceable(24)) unnamed_addr #1

; Function Attrs: nofree nounwind memory(read)
declare ptr @__dynamic_cast(ptr, ptr, ptr, i64) local_unnamed_addr #7

declare noundef zeroext i1 @_ZNK6dealii12CellAccessorILi3ELi3EE18has_boundary_linesEv(ptr noundef nonnull align 8 dereferenceable(16)) local_unnamed_addr #1

declare void @_ZNK6dealii9MappingQ1ILi3ELi3EE36transform_unit_to_real_cell_internalERKNS1_12InternalDataE(ptr sret(%"class.dealii::Point") align 8, ptr noundef nonnull align 8 dereferenceable(72), ptr noundef nonnull align 8 dereferenceable(408)) local_unnamed_addr #1

declare void @_ZN6dealii10QuadratureILi3EED1Ev(ptr noundef nonnull align 8 dereferenceable(128)) unnamed_addr #1

; Function Attrs: sspstrong uwtable
define weak_odr dso_local void @_ZNK6dealii8MappingQILi3ELi3EE27transform_real_to_unit_cellERKNS_12TriaIteratorINS_12CellAccessorILi3ELi3EEEEERKNS_5PointILi3EEE(ptr noalias sret(%"class.dealii::Point") align 8 %0, ptr noundef nonnull align 8 dereferenceable(1160) %1, ptr noundef nonnull align 8 dereferenceable(16) %2, ptr noundef nonnull align 8 dereferenceable(24) %3) unnamed_addr #0 comdat align 2 personality ptr @__gxx_personality_v0 {
  %5 = alloca %"class.dealii::Quadrature", align 8
  tail call void @_ZNK6dealii9MappingQ1ILi3ELi3EE27transform_real_to_unit_cellERKNS_12TriaIteratorINS_12CellAccessorILi3ELi3EEEEERKNS_5PointILi3EEE(ptr sret(%"class.dealii::Point") align 8 %0, ptr noundef nonnull align 8 dereferenceable(72) %1, ptr noundef nonnull align 8 dereferenceable(16) %2, ptr noundef nonnull align 8 dereferenceable(24) %3)
  %6 = tail call noundef zeroext i1 @_ZNK6dealii12CellAccessorILi3ELi3EE18has_boundary_linesEv(ptr noundef nonnull align 8 dereferenceable(16) %2)
  %7 = getelementptr inbounds %"class.dealii::MappingQ", ptr %1, i64 0, i32 9
  %8 = load i8, ptr %7, align 8, !range !122
  %9 = icmp ne i8 %8, 0
  %10 = select i1 %6, i1 true, i1 %9
  br i1 %10, label %11, label %40

11:                                               ; preds = %4
  call void @llvm.lifetime.start.p0(i64 128, ptr nonnull %5) #19
  call void @_ZN6dealii10QuadratureILi3EEC1ERKNS_5PointILi3EEE(ptr noundef nonnull align 8 dereferenceable(128) %5, ptr noundef nonnull align 8 dereferenceable(24) %0)
  %12 = load ptr, ptr %1, align 8, !tbaa !5
  %13 = getelementptr inbounds ptr, ptr %12, i64 9
  %14 = load ptr, ptr %13, align 8
  %15 = invoke noundef ptr %14(ptr noundef nonnull align 8 dereferenceable(1160) %1, i32 noundef 12288, ptr noundef nonnull align 8 dereferenceable(128) %5)
          to label %16 unwind label %24

16:                                               ; preds = %11
  %17 = icmp ne ptr %15, null
  call void @llvm.assume(i1 %17)
  %18 = call ptr @__dynamic_cast(ptr nonnull %15, ptr nonnull @_ZTIN6dealii7MappingILi3ELi3EE16InternalDataBaseE, ptr nonnull @_ZTIN6dealii8MappingQILi3ELi3EE12InternalDataE, i64 0) #19
  %19 = getelementptr inbounds %"class.dealii::MappingQ<3>::InternalData", ptr %18, i64 0, i32 2
  store i8 0, ptr %19, align 8, !tbaa !124
  %20 = getelementptr inbounds %"class.dealii::MappingQ1<3, 3>::InternalData", ptr %18, i64 0, i32 8
  %21 = load ptr, ptr %1, align 8, !tbaa !5
  %22 = getelementptr inbounds ptr, ptr %21, i64 16
  %23 = load ptr, ptr %22, align 8
  invoke void %23(ptr noundef nonnull align 8 dereferenceable(1160) %1, ptr noundef nonnull align 8 dereferenceable(16) %2, ptr noundef nonnull align 8 dereferenceable(24) %20)
          to label %26 unwind label %32

24:                                               ; preds = %27, %11
  %25 = landingpad { ptr, i32 }
          cleanup
  br label %37

26:                                               ; preds = %16
  invoke void @_ZNK6dealii9MappingQ1ILi3ELi3EE36transform_real_to_unit_cell_internalERKNS_12TriaIteratorINS_12CellAccessorILi3ELi3EEEEERKNS_5PointILi3EEERNS1_12InternalDataERS9_(ptr noundef nonnull align 8 dereferenceable(72) %1, ptr noundef nonnull align 8 dereferenceable(16) %2, ptr noundef nonnull align 8 dereferenceable(24) %3, ptr noundef nonnull align 8 dereferenceable(408) %18, ptr noundef nonnull align 8 dereferenceable(24) %0)
          to label %27 unwind label %32

27:                                               ; preds = %26
  %28 = load ptr, ptr %18, align 8, !tbaa !5
  %29 = getelementptr inbounds ptr, ptr %28, i64 1
  %30 = load ptr, ptr %29, align 8
  invoke void %30(ptr noundef nonnull align 8 dereferenceable(848) %18)
          to label %31 unwind label %24

31:                                               ; preds = %27
  call void @_ZN6dealii10QuadratureILi3EED1Ev(ptr noundef nonnull align 8 dereferenceable(128) %5)
  call void @llvm.lifetime.end.p0(i64 128, ptr nonnull %5) #19
  br label %40

32:                                               ; preds = %16, %26
  %33 = landingpad { ptr, i32 }
          cleanup
  %34 = load ptr, ptr %18, align 8, !tbaa !5
  %35 = getelementptr inbounds ptr, ptr %34, i64 1
  %36 = load ptr, ptr %35, align 8
  invoke void %36(ptr noundef nonnull align 8 dereferenceable(848) %18)
          to label %37 unwind label %41

37:                                               ; preds = %32, %24
  %38 = phi { ptr, i32 } [ %25, %24 ], [ %33, %32 ]
  invoke void @_ZN6dealii10QuadratureILi3EED1Ev(ptr noundef nonnull align 8 dereferenceable(128) %5)
          to label %39 unwind label %41

39:                                               ; preds = %37
  call void @llvm.lifetime.end.p0(i64 128, ptr nonnull %5) #19
  resume { ptr, i32 } %38

40:                                               ; preds = %4, %31
  ret void

41:                                               ; preds = %32, %37
  %42 = landingpad { ptr, i32 }
          catch ptr null
  %43 = extractvalue { ptr, i32 } %42, 0
  call void @__clang_call_terminate(ptr %43) #22
  unreachable
}

declare void @_ZNK6dealii9MappingQ1ILi3ELi3EE27transform_real_to_unit_cellERKNS_12TriaIteratorINS_12CellAccessorILi3ELi3EEEEERKNS_5PointILi3EEE(ptr sret(%"class.dealii::Point") align 8, ptr noundef nonnull align 8 dereferenceable(72), ptr noundef nonnull align 8 dereferenceable(16), ptr noundef nonnull align 8 dereferenceable(24)) unnamed_addr #1

declare void @_ZNK6dealii9MappingQ1ILi3ELi3EE36transform_real_to_unit_cell_internalERKNS_12TriaIteratorINS_12CellAccessorILi3ELi3EEEEERKNS_5PointILi3EEERNS1_12InternalDataERS9_(ptr noundef nonnull align 8 dereferenceable(72), ptr noundef nonnull align 8 dereferenceable(16), ptr noundef nonnull align 8 dereferenceable(24), ptr noundef nonnull align 8 dereferenceable(408), ptr noundef nonnull align 8 dereferenceable(24)) local_unnamed_addr #1

; Function Attrs: sspstrong uwtable
define weak_odr dso_local void @_ZNK6dealii8MappingQILi3ELi3EE9transformENS_11VectorSliceIKSt6vectorINS_6TensorILi1ELi3EEESaIS5_EEEENS2_IS7_EERKNS_7MappingILi3ELi3EE16InternalDataBaseENS_11MappingTypeE(ptr noundef nonnull align 8 dereferenceable(1160) %0, ptr %1, i64 %2, ptr %3, i64 %4, ptr noundef nonnull align 8 dereferenceable(185) %5, i32 noundef %6) unnamed_addr #0 comdat align 2 {
  %8 = tail call ptr @__dynamic_cast(ptr nonnull %5, ptr nonnull @_ZTIN6dealii7MappingILi3ELi3EE16InternalDataBaseE, ptr nonnull @_ZTIN6dealii9MappingQ1ILi3ELi3EE12InternalDataE, i64 0) #19
  %9 = getelementptr inbounds %"class.dealii::MappingQ1<3, 3>::InternalData", ptr %8, i64 0, i32 10
  %10 = load i8, ptr %9, align 8, !tbaa !153, !range !122, !noundef !123
  %11 = icmp eq i8 %10, 0
  br i1 %11, label %12, label %18

12:                                               ; preds = %7
  %13 = getelementptr inbounds %"class.dealii::MappingQ<3>::InternalData", ptr %5, i64 0, i32 2
  %14 = load i8, ptr %13, align 8, !tbaa !124, !range !122, !noundef !123
  %15 = icmp eq i8 %14, 0
  %16 = getelementptr inbounds %"class.dealii::MappingQ<3>::InternalData", ptr %5, i64 0, i32 3
  %17 = select i1 %15, ptr %8, ptr %16
  br label %18

18:                                               ; preds = %12, %7
  %19 = phi ptr [ %8, %7 ], [ %17, %12 ]
  tail call void @_ZNK6dealii9MappingQ1ILi3ELi3EE9transformENS_11VectorSliceIKSt6vectorINS_6TensorILi1ELi3EEESaIS5_EEEENS2_IS7_EERKNS_7MappingILi3ELi3EE16InternalDataBaseENS_11MappingTypeE(ptr noundef nonnull align 8 dereferenceable(72) %0, ptr %1, i64 %2, ptr %3, i64 %4, ptr noundef nonnull align 8 dereferenceable(185) %19, i32 noundef %6)
  ret void
}

declare void @_ZNK6dealii9MappingQ1ILi3ELi3EE9transformENS_11VectorSliceIKSt6vectorINS_6TensorILi1ELi3EEESaIS5_EEEENS2_IS7_EERKNS_7MappingILi3ELi3EE16InternalDataBaseENS_11MappingTypeE(ptr noundef nonnull align 8 dereferenceable(72), ptr, i64, ptr, i64, ptr noundef nonnull align 8 dereferenceable(185), i32 noundef) unnamed_addr #1

; Function Attrs: sspstrong uwtable
define weak_odr dso_local void @_ZNK6dealii8MappingQILi3ELi3EE9transformENS_11VectorSliceIKSt6vectorINS_6TensorILi2ELi3EEESaIS5_EEEENS2_IS7_EERKNS_7MappingILi3ELi3EE16InternalDataBaseENS_11MappingTypeE(ptr noundef nonnull align 8 dereferenceable(1160) %0, ptr %1, i64 %2, ptr %3, i64 %4, ptr noundef nonnull align 8 dereferenceable(185) %5, i32 noundef %6) unnamed_addr #0 comdat align 2 {
  %8 = tail call ptr @__dynamic_cast(ptr nonnull %5, ptr nonnull @_ZTIN6dealii7MappingILi3ELi3EE16InternalDataBaseE, ptr nonnull @_ZTIN6dealii9MappingQ1ILi3ELi3EE12InternalDataE, i64 0) #19
  %9 = getelementptr inbounds %"class.dealii::MappingQ1<3, 3>::InternalData", ptr %8, i64 0, i32 10
  %10 = load i8, ptr %9, align 8, !tbaa !153, !range !122, !noundef !123
  %11 = icmp eq i8 %10, 0
  br i1 %11, label %12, label %18

12:                                               ; preds = %7
  %13 = getelementptr inbounds %"class.dealii::MappingQ<3>::InternalData", ptr %5, i64 0, i32 2
  %14 = load i8, ptr %13, align 8, !tbaa !124, !range !122, !noundef !123
  %15 = icmp eq i8 %14, 0
  %16 = getelementptr inbounds %"class.dealii::MappingQ<3>::InternalData", ptr %5, i64 0, i32 3
  %17 = select i1 %15, ptr %8, ptr %16
  br label %18

18:                                               ; preds = %12, %7
  %19 = phi ptr [ %8, %7 ], [ %17, %12 ]
  tail call void @_ZNK6dealii9MappingQ1ILi3ELi3EE9transformENS_11VectorSliceIKSt6vectorINS_6TensorILi2ELi3EEESaIS5_EEEENS2_IS7_EERKNS_7MappingILi3ELi3EE16InternalDataBaseENS_11MappingTypeE(ptr noundef nonnull align 8 dereferenceable(72) %0, ptr %1, i64 %2, ptr %3, i64 %4, ptr noundef nonnull align 8 dereferenceable(185) %19, i32 noundef %6)
  ret void
}

declare void @_ZNK6dealii9MappingQ1ILi3ELi3EE9transformENS_11VectorSliceIKSt6vectorINS_6TensorILi2ELi3EEESaIS5_EEEENS2_IS7_EERKNS_7MappingILi3ELi3EE16InternalDataBaseENS_11MappingTypeE(ptr noundef nonnull align 8 dereferenceable(72), ptr, i64, ptr, i64, ptr noundef nonnull align 8 dereferenceable(185), i32 noundef) unnamed_addr #1

; Function Attrs: nounwind sspstrong uwtable
define weak_odr dso_local noundef i32 @_ZNK6dealii8MappingQILi3ELi3EE10get_degreeEv(ptr noundef nonnull align 8 dereferenceable(1160) %0) local_unnamed_addr #8 comdat align 2 {
  %2 = getelementptr inbounds %"class.dealii::MappingQ", ptr %0, i64 0, i32 3
  %3 = load i32, ptr %2, align 8, !tbaa !8
  ret i32 %3
}

; Function Attrs: sspstrong uwtable
define weak_odr dso_local noundef ptr @_ZNK6dealii8MappingQILi3ELi3EE5cloneEv(ptr noundef nonnull align 8 dereferenceable(1160) %0) unnamed_addr #0 comdat align 2 personality ptr @__gxx_personality_v0 {
  %2 = tail call noalias noundef nonnull dereferenceable(1160) ptr @_Znwm(i64 noundef 1160) #20
  invoke void @_ZN6dealii8MappingQILi3ELi3EEC2ERKS1_(ptr noundef nonnull align 8 dereferenceable(1160) %2, ptr noundef nonnull align 8 dereferenceable(1160) %0)
          to label %3 unwind label %4

3:                                                ; preds = %1
  ret ptr %2

4:                                                ; preds = %1
  %5 = landingpad { ptr, i32 }
          cleanup
  tail call void @_ZdlPv(ptr noundef nonnull %2) #21
  resume { ptr, i32 } %5
}

; Function Attrs: sspstrong uwtable
define weak_odr dso_local void @_ZN6dealii8MappingQILi3ELi3EE12InternalDataC2Ej(ptr noundef nonnull align 8 dereferenceable(848) %0, i32 noundef %1) unnamed_addr #0 comdat($_ZN6dealii8MappingQILi3ELi3EE12InternalDataC5Ej) align 2 personality ptr @__gxx_personality_v0 {
  tail call void @_ZN6dealii9MappingQ1ILi3ELi3EE12InternalDataC2Ej(ptr noundef nonnull align 8 dereferenceable(408) %0, i32 noundef %1)
  store ptr getelementptr inbounds ({ [6 x ptr] }, ptr @_ZTVN6dealii8MappingQILi3ELi3EE12InternalDataE, i64 0, inrange i32 0, i64 2), ptr %0, align 8, !tbaa !5
  %3 = getelementptr inbounds %"class.dealii::MappingQ<3>::InternalData", ptr %0, i64 0, i32 1
  %4 = getelementptr inbounds %"class.dealii::MappingQ<3>::InternalData", ptr %0, i64 0, i32 3
  tail call void @llvm.memset.p0.i64(ptr noundef nonnull align 8 dereferenceable(25) %3, i8 0, i64 25, i1 false)
  invoke void @_ZN6dealii9MappingQ1ILi3ELi3EE12InternalDataC1Ej(ptr noundef nonnull align 8 dereferenceable(408) %4, i32 noundef 8)
          to label %5 unwind label %7

5:                                                ; preds = %2
  %6 = getelementptr inbounds %"class.dealii::MappingQ1<3, 3>::InternalData", ptr %0, i64 0, i32 10
  store i8 0, ptr %6, align 8, !tbaa !153
  ret void

7:                                                ; preds = %2
  %8 = landingpad { ptr, i32 }
          cleanup
  invoke void @_ZNSt6vectorIS_IN6dealii5PointILi3EEESaIS2_EESaIS4_EED2Ev(ptr noundef nonnull align 8 dereferenceable(24) %3)
          to label %9 unwind label %11

9:                                                ; preds = %7
  invoke void @_ZN6dealii9MappingQ1ILi3ELi3EE12InternalDataD2Ev(ptr noundef nonnull align 8 dereferenceable(408) %0)
          to label %10 unwind label %11

10:                                               ; preds = %9
  resume { ptr, i32 } %8

11:                                               ; preds = %9, %7
  %12 = landingpad { ptr, i32 }
          catch ptr null
  %13 = extractvalue { ptr, i32 } %12, 0
  tail call void @__clang_call_terminate(ptr %13) #22
  unreachable
}

declare void @_ZN6dealii9MappingQ1ILi3ELi3EE12InternalDataC2Ej(ptr noundef nonnull align 8 dereferenceable(408), i32 noundef) unnamed_addr #1

declare void @_ZN6dealii9MappingQ1ILi3ELi3EE12InternalDataC1Ej(ptr noundef nonnull align 8 dereferenceable(408), i32 noundef) unnamed_addr #1

; Function Attrs: sspstrong uwtable
define linkonce_odr dso_local void @_ZNSt6vectorIS_IN6dealii5PointILi3EEESaIS2_EESaIS4_EED2Ev(ptr noundef nonnull align 8 dereferenceable(24) %0) unnamed_addr #0 comdat align 2 personality ptr @__gxx_personality_v0 {
  %2 = load ptr, ptr %0, align 8, !tbaa !154
  %3 = getelementptr inbounds %"struct.std::_Vector_base<std::vector<dealii::Point<3> >, std::allocator<std::vector<dealii::Point<3> > > >::_Vector_impl_data", ptr %0, i64 0, i32 1
  %4 = load ptr, ptr %3, align 8, !tbaa !155
  %5 = icmp eq ptr %2, %4
  br i1 %5, label %16, label %6

6:                                                ; preds = %1, %11
  %7 = phi ptr [ %12, %11 ], [ %2, %1 ]
  %8 = load ptr, ptr %7, align 8, !tbaa !156
  %9 = icmp eq ptr %8, null
  br i1 %9, label %11, label %10

10:                                               ; preds = %6
  tail call void @_ZdlPv(ptr noundef nonnull %8) #21
  br label %11

11:                                               ; preds = %10, %6
  %12 = getelementptr inbounds %"class.std::vector.24", ptr %7, i64 1
  %13 = icmp eq ptr %12, %4
  br i1 %13, label %14, label %6

14:                                               ; preds = %11
  %15 = load ptr, ptr %0, align 8, !tbaa !154
  br label %16

16:                                               ; preds = %14, %1
  %17 = phi ptr [ %15, %14 ], [ %2, %1 ]
  %18 = icmp eq ptr %17, null
  br i1 %18, label %20, label %19

19:                                               ; preds = %16
  tail call void @_ZdlPv(ptr noundef nonnull %17) #21
  br label %20

20:                                               ; preds = %16, %19
  ret void
}

; Function Attrs: sspstrong uwtable
define weak_odr dso_local noundef i32 @_ZNK6dealii8MappingQILi3ELi3EE12InternalData18memory_consumptionEv(ptr noundef nonnull align 8 dereferenceable(848) %0) unnamed_addr #0 comdat align 2 {
  %2 = tail call noundef i32 @_ZNK6dealii9MappingQ1ILi3ELi3EE12InternalData18memory_consumptionEv(ptr noundef nonnull align 8 dereferenceable(408) %0)
  %3 = getelementptr inbounds %"class.dealii::MappingQ<3>::InternalData", ptr %0, i64 0, i32 1
  %4 = getelementptr inbounds %"class.dealii::MappingQ<3>::InternalData", ptr %0, i64 0, i32 1, i32 0, i32 0, i32 0, i32 1
  %5 = load ptr, ptr %4, align 8, !tbaa !155
  %6 = load ptr, ptr %3, align 8, !tbaa !154
  %7 = ptrtoint ptr %5 to i64
  %8 = ptrtoint ptr %6 to i64
  %9 = sub i64 %7, %8
  %10 = sdiv exact i64 %9, 24
  %11 = and i64 %10, 4294967295
  %12 = icmp eq i64 %11, 0
  br i1 %12, label %38, label %13

13:                                               ; preds = %1, %13
  %14 = phi i64 [ %36, %13 ], [ 0, %1 ]
  %15 = phi i32 [ %35, %13 ], [ 24, %1 ]
  %16 = getelementptr inbounds %"class.std::vector.24", ptr %6, i64 %14
  %17 = getelementptr inbounds %"struct.std::_Vector_base<dealii::Point<3>, std::allocator<dealii::Point<3> > >::_Vector_impl_data", ptr %16, i64 0, i32 1
  %18 = load ptr, ptr %17, align 8, !tbaa !157
  %19 = load ptr, ptr %16, align 8, !tbaa !156
  %20 = ptrtoint ptr %18 to i64
  %21 = ptrtoint ptr %19 to i64
  %22 = sub i64 %20, %21
  %23 = sdiv exact i64 %22, 24
  %24 = trunc i64 %23 to i32
  %25 = getelementptr inbounds %"struct.std::_Vector_base<dealii::Point<3>, std::allocator<dealii::Point<3> > >::_Vector_impl_data", ptr %16, i64 0, i32 2
  %26 = load ptr, ptr %25, align 8, !tbaa !158
  %27 = ptrtoint ptr %26 to i64
  %28 = sub i64 %27, %21
  %29 = sdiv exact i64 %28, 24
  %30 = sub nsw i64 %29, %23
  %31 = trunc i64 %30 to i32
  %32 = add i32 %31, %24
  %33 = mul i32 %32, 24
  %34 = add i32 %15, 24
  %35 = add i32 %34, %33
  %36 = add nuw nsw i64 %14, 1
  %37 = icmp eq i64 %36, %11
  br i1 %37, label %38, label %13

38:                                               ; preds = %13, %1
  %39 = phi i32 [ 24, %1 ], [ %35, %13 ]
  %40 = getelementptr inbounds %"class.dealii::MappingQ<3>::InternalData", ptr %0, i64 0, i32 1, i32 0, i32 0, i32 0, i32 2
  %41 = load ptr, ptr %40, align 8, !tbaa !159
  %42 = ptrtoint ptr %41 to i64
  %43 = sub i64 %42, %8
  %44 = sdiv exact i64 %43, 24
  %45 = sub nsw i64 %44, %10
  %46 = trunc i64 %45 to i32
  %47 = mul i32 %46, 24
  %48 = getelementptr inbounds %"class.dealii::MappingQ<3>::InternalData", ptr %0, i64 0, i32 3
  %49 = load ptr, ptr %48, align 8, !tbaa !5
  %50 = getelementptr inbounds ptr, ptr %49, i64 3
  %51 = load ptr, ptr %50, align 8
  %52 = tail call noundef i32 %51(ptr noundef nonnull align 8 dereferenceable(408) %48)
  %53 = add i32 %2, 1
  %54 = add i32 %53, %39
  %55 = add i32 %54, %52
  %56 = add i32 %55, %47
  ret i32 %56
}

declare noundef i32 @_ZNK6dealii9MappingQ1ILi3ELi3EE12InternalData18memory_consumptionEv(ptr noundef nonnull align 8 dereferenceable(408)) unnamed_addr #1

; Function Attrs: sspstrong uwtable
define weak_odr dso_local void @_ZNK6dealii8MappingQILi3ELi3EE14fill_fe_valuesERKNS_12TriaIteratorINS_12CellAccessorILi3ELi3EEEEERKNS_10QuadratureILi3EEERNS_7MappingILi3ELi3EE16InternalDataBaseERSt6vectorINS_5PointILi3EEESaISI_EERSG_IdSaIdEERSG_INS_6TensorILi2ELi3EEESaISQ_EERSG_INSP_ILi3ELi3EEESaISU_EEST_SL_RNS_14CellSimilarity10SimilarityE(ptr noundef nonnull align 8 dereferenceable(1160) %0, ptr noundef nonnull align 8 dereferenceable(16) %1, ptr noundef nonnull align 8 dereferenceable(128) %2, ptr noundef nonnull align 8 dereferenceable(185) %3, ptr noundef nonnull align 8 dereferenceable(24) %4, ptr noundef nonnull align 8 dereferenceable(24) %5, ptr noundef nonnull align 8 dereferenceable(24) %6, ptr noundef nonnull align 1 %7, ptr noundef nonnull align 8 dereferenceable(24) %8, ptr noundef nonnull align 8 dereferenceable(24) %9, ptr noundef nonnull align 4 dereferenceable(4) %10) unnamed_addr #0 comdat align 2 {
  %12 = getelementptr inbounds %"class.dealii::MappingQ", ptr %0, i64 0, i32 9
  %13 = load i8, ptr %12, align 8, !tbaa !92, !range !122, !noundef !123
  %14 = icmp eq i8 %13, 0
  br i1 %14, label %15, label %22

15:                                               ; preds = %11
  %16 = tail call noundef zeroext i1 @_ZNK6dealii12CellAccessorILi3ELi3EE18has_boundary_linesEv(ptr noundef nonnull align 8 dereferenceable(16) %1)
  %17 = xor i1 %16, true
  %18 = getelementptr inbounds %"class.dealii::MappingQ<3>::InternalData", ptr %3, i64 0, i32 2
  %19 = zext i1 %17 to i8
  store i8 %19, ptr %18, align 8, !tbaa !124
  br i1 %16, label %24, label %20

20:                                               ; preds = %15
  %21 = getelementptr inbounds %"class.dealii::MappingQ<3>::InternalData", ptr %3, i64 0, i32 3
  br label %25

22:                                               ; preds = %11
  %23 = getelementptr inbounds %"class.dealii::MappingQ<3>::InternalData", ptr %3, i64 0, i32 2
  store i8 0, ptr %23, align 8, !tbaa !124
  br label %24

24:                                               ; preds = %22, %15
  store i32 2, ptr %10, align 4, !tbaa !160
  br label %25

25:                                               ; preds = %24, %20
  %26 = phi ptr [ %21, %20 ], [ %3, %24 ]
  tail call void @_ZNK6dealii9MappingQ1ILi3ELi3EE14fill_fe_valuesERKNS_12TriaIteratorINS_12CellAccessorILi3ELi3EEEEERKNS_10QuadratureILi3EEERNS_7MappingILi3ELi3EE16InternalDataBaseERSt6vectorINS_5PointILi3EEESaISI_EERSG_IdSaIdEERSG_INS_6TensorILi2ELi3EEESaISQ_EERSG_INSP_ILi3ELi3EEESaISU_EEST_SL_RNS_14CellSimilarity10SimilarityE(ptr noundef nonnull align 8 dereferenceable(72) %0, ptr noundef nonnull align 8 dereferenceable(16) %1, ptr noundef nonnull align 8 dereferenceable(128) %2, ptr noundef nonnull align 8 dereferenceable(185) %26, ptr noundef nonnull align 8 dereferenceable(24) %4, ptr noundef nonnull align 8 dereferenceable(24) %5, ptr noundef nonnull align 8 dereferenceable(24) %6, ptr noundef nonnull align 1 %7, ptr noundef nonnull align 8 dereferenceable(24) %8, ptr noundef nonnull align 8 dereferenceable(24) %9, ptr noundef nonnull align 4 dereferenceable(4) %10)
  ret void
}

declare void @_ZNK6dealii9MappingQ1ILi3ELi3EE14fill_fe_valuesERKNS_12TriaIteratorINS_12CellAccessorILi3ELi3EEEEERKNS_10QuadratureILi3EEERNS_7MappingILi3ELi3EE16InternalDataBaseERSt6vectorINS_5PointILi3EEESaISI_EERSG_IdSaIdEERSG_INS_6TensorILi2ELi3EEESaISQ_EERSG_INSP_ILi3ELi3EEESaISU_EEST_SL_RNS_14CellSimilarity10SimilarityE(ptr noundef nonnull align 8 dereferenceable(72), ptr noundef nonnull align 8 dereferenceable(16), ptr noundef nonnull align 8 dereferenceable(128), ptr noundef nonnull align 8 dereferenceable(185), ptr noundef nonnull align 8 dereferenceable(24), ptr noundef nonnull align 8 dereferenceable(24), ptr noundef nonnull align 8 dereferenceable(24), ptr noundef nonnull align 1, ptr noundef nonnull align 8 dereferenceable(24), ptr noundef nonnull align 8 dereferenceable(24), ptr noundef nonnull align 4 dereferenceable(4)) unnamed_addr #1

; Function Attrs: sspstrong uwtable
define weak_odr dso_local void @_ZNK6dealii8MappingQILi3ELi3EE19fill_fe_face_valuesERKNS_12TriaIteratorINS_12CellAccessorILi3ELi3EEEEEjRKNS_10QuadratureILi2EEERNS_7MappingILi3ELi3EE16InternalDataBaseERSt6vectorINS_5PointILi3EEESaISI_EERSG_IdSaIdEERSG_INS_6TensorILi1ELi3EEESaISQ_EESL_(ptr noundef nonnull align 8 dereferenceable(1160) %0, ptr noundef nonnull align 8 dereferenceable(16) %1, i32 noundef %2, ptr noundef nonnull align 8 dereferenceable(128) %3, ptr noundef nonnull align 8 dereferenceable(185) %4, ptr noundef nonnull align 8 dereferenceable(24) %5, ptr noundef nonnull align 8 dereferenceable(24) %6, ptr noundef nonnull align 8 dereferenceable(24) %7, ptr noundef nonnull align 8 dereferenceable(24) %8) unnamed_addr #0 comdat align 2 {
  %10 = getelementptr inbounds %"class.dealii::MappingQ", ptr %0, i64 0, i32 9
  %11 = load i8, ptr %10, align 8, !tbaa !92, !range !122, !noundef !123
  %12 = icmp eq i8 %11, 0
  br i1 %12, label %13, label %19

13:                                               ; preds = %9
  %14 = tail call noundef zeroext i1 @_ZNK6dealii12CellAccessorILi3ELi3EE18has_boundary_linesEv(ptr noundef nonnull align 8 dereferenceable(16) %1)
  %15 = xor i1 %14, true
  %16 = zext i1 %15 to i8
  %17 = getelementptr inbounds %"class.dealii::MappingQ<3>::InternalData", ptr %4, i64 0, i32 3
  %18 = select i1 %14, ptr %4, ptr %17
  br label %19

19:                                               ; preds = %9, %13
  %20 = phi i8 [ %16, %13 ], [ 0, %9 ]
  %21 = phi ptr [ %18, %13 ], [ %4, %9 ]
  %22 = getelementptr inbounds %"class.dealii::MappingQ<3>::InternalData", ptr %4, i64 0, i32 2
  store i8 %20, ptr %22, align 8
  %23 = getelementptr inbounds %"class.dealii::Quadrature.102", ptr %3, i64 0, i32 3
  %24 = getelementptr inbounds %"class.dealii::Quadrature.102", ptr %3, i64 0, i32 3, i32 0, i32 0, i32 0, i32 1
  %25 = load ptr, ptr %24, align 8, !tbaa !100
  %26 = load ptr, ptr %23, align 8, !tbaa !93
  %27 = ptrtoint ptr %25 to i64
  %28 = ptrtoint ptr %26 to i64
  %29 = sub i64 %27, %28
  %30 = lshr exact i64 %29, 3
  %31 = trunc i64 %30 to i32
  %32 = getelementptr inbounds %"class.dealii::TriaAccessorBase", ptr %1, i64 0, i32 2
  %33 = load ptr, ptr %32, align 8, !tbaa !162
  %34 = getelementptr inbounds %"class.dealii::Triangulation", ptr %33, i64 0, i32 1
  %35 = load i32, ptr %1, align 8, !tbaa !163
  %36 = sext i32 %35 to i64
  %37 = load ptr, ptr %34, align 8, !tbaa !164
  %38 = getelementptr inbounds ptr, ptr %37, i64 %36
  %39 = load ptr, ptr %38, align 8, !tbaa !98
  %40 = getelementptr inbounds %"class.dealii::TriaAccessorBase", ptr %1, i64 0, i32 1
  %41 = load i32, ptr %40, align 4, !tbaa !166
  %42 = getelementptr inbounds %"class.dealii::internal::Triangulation::TriaLevel", ptr %39, i64 0, i32 4, i32 1
  %43 = mul i32 %41, 6
  %44 = add i32 %43, %2
  %45 = load ptr, ptr %42, align 8, !tbaa !167
  %46 = lshr i32 %44, 6
  %47 = zext i32 %46 to i64
  %48 = getelementptr inbounds i64, ptr %45, i64 %47
  %49 = and i32 %44, 63
  %50 = zext i32 %49 to i64
  %51 = shl nuw i64 1, %50
  %52 = load i64, ptr %48, align 8, !tbaa !168
  %53 = and i64 %51, %52
  %54 = icmp ne i64 %53, 0
  %55 = getelementptr inbounds %"class.dealii::internal::Triangulation::TriaLevel", ptr %39, i64 0, i32 4, i32 2
  %56 = load ptr, ptr %55, align 8, !tbaa !167
  %57 = getelementptr inbounds i64, ptr %56, i64 %47
  %58 = load i64, ptr %57, align 8, !tbaa !168
  %59 = and i64 %51, %58
  %60 = icmp ne i64 %59, 0
  %61 = getelementptr inbounds %"class.dealii::internal::Triangulation::TriaLevel", ptr %39, i64 0, i32 4, i32 3
  %62 = load ptr, ptr %61, align 8, !tbaa !167
  %63 = getelementptr inbounds i64, ptr %62, i64 %47
  %64 = load i64, ptr %63, align 8, !tbaa !168
  %65 = and i64 %64, %51
  %66 = icmp ne i64 %65, 0
  %67 = tail call i32 @_ZN6dealii10QProjectorILi3EE17DataSetDescriptor4faceEjbbbj(i32 noundef %2, i1 noundef zeroext %54, i1 noundef zeroext %60, i1 noundef zeroext %66, i32 noundef %31)
  %68 = tail call noundef nonnull align 8 dereferenceable(24) ptr @_ZNK6dealii10QuadratureILi2EE11get_weightsEv(ptr noundef nonnull align 8 dereferenceable(128) %3)
  tail call void @_ZNK6dealii9MappingQ1ILi3ELi3EE17compute_fill_faceERKNS_12TriaIteratorINS_12CellAccessorILi3ELi3EEEEEjjjNS_10QProjectorILi3EE17DataSetDescriptorERKSt6vectorIdSaIdEERNS1_12InternalDataERSB_INS_5PointILi3EEESaISJ_EERSD_RSB_INS_6TensorILi1ELi3EEESaISP_EESM_(ptr noundef nonnull align 8 dereferenceable(72) %0, ptr noundef nonnull align 8 dereferenceable(16) %1, i32 noundef %2, i32 noundef -1, i32 noundef %31, i32 %67, ptr noundef nonnull align 8 dereferenceable(24) %68, ptr noundef nonnull align 8 dereferenceable(408) %21, ptr noundef nonnull align 8 dereferenceable(24) %5, ptr noundef nonnull align 8 dereferenceable(24) %6, ptr noundef nonnull align 8 dereferenceable(24) %7, ptr noundef nonnull align 8 dereferenceable(24) %8)
  ret void
}

declare void @_ZNK6dealii9MappingQ1ILi3ELi3EE17compute_fill_faceERKNS_12TriaIteratorINS_12CellAccessorILi3ELi3EEEEEjjjNS_10QProjectorILi3EE17DataSetDescriptorERKSt6vectorIdSaIdEERNS1_12InternalDataERSB_INS_5PointILi3EEESaISJ_EERSD_RSB_INS_6TensorILi1ELi3EEESaISP_EESM_(ptr noundef nonnull align 8 dereferenceable(72), ptr noundef nonnull align 8 dereferenceable(16), i32 noundef, i32 noundef, i32 noundef, i32, ptr noundef nonnull align 8 dereferenceable(24), ptr noundef nonnull align 8 dereferenceable(408), ptr noundef nonnull align 8 dereferenceable(24), ptr noundef nonnull align 8 dereferenceable(24), ptr noundef nonnull align 8 dereferenceable(24), ptr noundef nonnull align 8 dereferenceable(24)) local_unnamed_addr #1

declare i32 @_ZN6dealii10QProjectorILi3EE17DataSetDescriptor4faceEjbbbj(i32 noundef, i1 noundef zeroext, i1 noundef zeroext, i1 noundef zeroext, i32 noundef) local_unnamed_addr #1

declare noundef nonnull align 8 dereferenceable(24) ptr @_ZNK6dealii10QuadratureILi2EE11get_weightsEv(ptr noundef nonnull align 8 dereferenceable(128)) local_unnamed_addr #1

; Function Attrs: sspstrong uwtable
define weak_odr dso_local void @_ZNK6dealii8MappingQILi3ELi3EE22fill_fe_subface_valuesERKNS_12TriaIteratorINS_12CellAccessorILi3ELi3EEEEEjjRKNS_10QuadratureILi2EEERNS_7MappingILi3ELi3EE16InternalDataBaseERSt6vectorINS_5PointILi3EEESaISI_EERSG_IdSaIdEERSG_INS_6TensorILi1ELi3EEESaISQ_EESL_(ptr noundef nonnull align 8 dereferenceable(1160) %0, ptr noundef nonnull align 8 dereferenceable(16) %1, i32 noundef %2, i32 noundef %3, ptr noundef nonnull align 8 dereferenceable(128) %4, ptr noundef nonnull align 8 dereferenceable(185) %5, ptr noundef nonnull align 8 dereferenceable(24) %6, ptr noundef nonnull align 8 dereferenceable(24) %7, ptr noundef nonnull align 8 dereferenceable(24) %8, ptr noundef nonnull align 8 dereferenceable(24) %9) unnamed_addr #0 comdat align 2 {
  %11 = getelementptr inbounds %"class.dealii::MappingQ", ptr %0, i64 0, i32 9
  %12 = load i8, ptr %11, align 8, !tbaa !92, !range !122, !noundef !123
  %13 = icmp eq i8 %12, 0
  br i1 %13, label %14, label %20

14:                                               ; preds = %10
  %15 = tail call noundef zeroext i1 @_ZNK6dealii12CellAccessorILi3ELi3EE18has_boundary_linesEv(ptr noundef nonnull align 8 dereferenceable(16) %1)
  %16 = xor i1 %15, true
  %17 = zext i1 %16 to i8
  %18 = getelementptr inbounds %"class.dealii::MappingQ<3>::InternalData", ptr %5, i64 0, i32 3
  %19 = select i1 %15, ptr %5, ptr %18
  br label %20

20:                                               ; preds = %10, %14
  %21 = phi i8 [ %17, %14 ], [ 0, %10 ]
  %22 = phi ptr [ %19, %14 ], [ %5, %10 ]
  %23 = getelementptr inbounds %"class.dealii::MappingQ<3>::InternalData", ptr %5, i64 0, i32 2
  store i8 %21, ptr %23, align 8
  %24 = getelementptr inbounds %"class.dealii::Quadrature.102", ptr %4, i64 0, i32 3
  %25 = getelementptr inbounds %"class.dealii::Quadrature.102", ptr %4, i64 0, i32 3, i32 0, i32 0, i32 0, i32 1
  %26 = load ptr, ptr %25, align 8, !tbaa !100
  %27 = load ptr, ptr %24, align 8, !tbaa !93
  %28 = ptrtoint ptr %26 to i64
  %29 = ptrtoint ptr %27 to i64
  %30 = sub i64 %28, %29
  %31 = lshr exact i64 %30, 3
  %32 = trunc i64 %31 to i32
  %33 = getelementptr inbounds %"class.dealii::TriaAccessorBase", ptr %1, i64 0, i32 2
  %34 = load ptr, ptr %33, align 8, !tbaa !162
  %35 = getelementptr inbounds %"class.dealii::Triangulation", ptr %34, i64 0, i32 1
  %36 = load i32, ptr %1, align 8, !tbaa !163
  %37 = sext i32 %36 to i64
  %38 = load ptr, ptr %35, align 8, !tbaa !164
  %39 = getelementptr inbounds ptr, ptr %38, i64 %37
  %40 = load ptr, ptr %39, align 8, !tbaa !98
  %41 = getelementptr inbounds %"class.dealii::TriaAccessorBase", ptr %1, i64 0, i32 1
  %42 = load i32, ptr %41, align 4, !tbaa !166
  %43 = getelementptr inbounds %"class.dealii::internal::Triangulation::TriaLevel", ptr %40, i64 0, i32 4, i32 1
  %44 = mul i32 %42, 6
  %45 = add i32 %44, %2
  %46 = load ptr, ptr %43, align 8, !tbaa !167
  %47 = lshr i32 %45, 6
  %48 = zext i32 %47 to i64
  %49 = getelementptr inbounds i64, ptr %46, i64 %48
  %50 = and i32 %45, 63
  %51 = zext i32 %50 to i64
  %52 = shl nuw i64 1, %51
  %53 = load i64, ptr %49, align 8, !tbaa !168
  %54 = and i64 %52, %53
  %55 = icmp ne i64 %54, 0
  %56 = getelementptr inbounds %"class.dealii::internal::Triangulation::TriaLevel", ptr %40, i64 0, i32 4, i32 2
  %57 = load ptr, ptr %56, align 8, !tbaa !167
  %58 = getelementptr inbounds i64, ptr %57, i64 %48
  %59 = load i64, ptr %58, align 8, !tbaa !168
  %60 = and i64 %52, %59
  %61 = icmp ne i64 %60, 0
  %62 = getelementptr inbounds %"class.dealii::internal::Triangulation::TriaLevel", ptr %40, i64 0, i32 4, i32 3
  %63 = load ptr, ptr %62, align 8, !tbaa !167
  %64 = getelementptr inbounds i64, ptr %63, i64 %48
  %65 = load i64, ptr %64, align 8, !tbaa !168
  %66 = and i64 %65, %52
  %67 = icmp ne i64 %66, 0
  %68 = tail call i32 @_ZN6dealii10QProjectorILi3EE17DataSetDescriptor7subfaceEjjbbbjNS_8internal11SubfaceCaseILi3EEE(i32 noundef %2, i32 noundef %3, i1 noundef zeroext %55, i1 noundef zeroext %61, i1 noundef zeroext %67, i32 noundef %32, i8 9)
  %69 = tail call noundef nonnull align 8 dereferenceable(24) ptr @_ZNK6dealii10QuadratureILi2EE11get_weightsEv(ptr noundef nonnull align 8 dereferenceable(128) %4)
  tail call void @_ZNK6dealii9MappingQ1ILi3ELi3EE17compute_fill_faceERKNS_12TriaIteratorINS_12CellAccessorILi3ELi3EEEEEjjjNS_10QProjectorILi3EE17DataSetDescriptorERKSt6vectorIdSaIdEERNS1_12InternalDataERSB_INS_5PointILi3EEESaISJ_EERSD_RSB_INS_6TensorILi1ELi3EEESaISP_EESM_(ptr noundef nonnull align 8 dereferenceable(72) %0, ptr noundef nonnull align 8 dereferenceable(16) %1, i32 noundef %2, i32 noundef %3, i32 noundef %32, i32 %68, ptr noundef nonnull align 8 dereferenceable(24) %69, ptr noundef nonnull align 8 dereferenceable(408) %22, ptr noundef nonnull align 8 dereferenceable(24) %6, ptr noundef nonnull align 8 dereferenceable(24) %7, ptr noundef nonnull align 8 dereferenceable(24) %8, ptr noundef nonnull align 8 dereferenceable(24) %9)
  ret void
}

declare i32 @_ZN6dealii10QProjectorILi3EE17DataSetDescriptor7subfaceEjjbbbjNS_8internal11SubfaceCaseILi3EEE(i32 noundef, i32 noundef, i1 noundef zeroext, i1 noundef zeroext, i1 noundef zeroext, i32 noundef, i8) local_unnamed_addr #1

; Function Attrs: sspstrong uwtable
define weak_odr dso_local void @_ZNK6dealii8MappingQILi3ELi3EE23add_line_support_pointsERKNS_12TriaIteratorINS_12CellAccessorILi3ELi3EEEEERSt6vectorINS_5PointILi3EEESaISA_EE(ptr noundef nonnull align 8 dereferenceable(1160) %0, ptr noundef nonnull align 8 dereferenceable(16) %1, ptr noundef nonnull align 8 dereferenceable(24) %2) unnamed_addr #0 comdat align 2 personality ptr @__gxx_personality_v0 {
  %4 = alloca %"class.std::reverse_iterator", align 8
  %5 = alloca %"class.std::reverse_iterator", align 8
  %6 = alloca %"class.dealii::TriaIterator.103", align 8
  %7 = alloca %"class.dealii::Point", align 8
  %8 = alloca %"class.std::vector.24", align 8
  %9 = alloca %"class.dealii::TriaIterator.103", align 8
  %10 = load atomic i8, ptr @_ZGVZNK6dealii8MappingQILi3ELi3EE23add_line_support_pointsERKNS_12TriaIteratorINS_12CellAccessorILi3ELi3EEEEERSt6vectorINS_5PointILi3EEESaISA_EEE17straight_boundary acquire, align 8
  %11 = icmp eq i8 %10, 0
  br i1 %11, label %12, label %18, !prof !169

12:                                               ; preds = %3
  %13 = tail call i32 @__cxa_guard_acquire(ptr nonnull @_ZGVZNK6dealii8MappingQILi3ELi3EE23add_line_support_pointsERKNS_12TriaIteratorINS_12CellAccessorILi3ELi3EEEEERSt6vectorINS_5PointILi3EEESaISA_EEE17straight_boundary) #19
  %14 = icmp eq i32 %13, 0
  br i1 %14, label %18, label %15

15:                                               ; preds = %12
  invoke void @_ZN6dealii16StraightBoundaryILi3ELi3EEC1Ev(ptr noundef nonnull align 8 dereferenceable(72) @_ZZNK6dealii8MappingQILi3ELi3EE23add_line_support_pointsERKNS_12TriaIteratorINS_12CellAccessorILi3ELi3EEEEERSt6vectorINS_5PointILi3EEESaISA_EEE17straight_boundary)
          to label %16 unwind label %30

16:                                               ; preds = %15
  %17 = tail call i32 @__cxa_atexit(ptr nonnull @_ZN6dealii8BoundaryILi3ELi3EED2Ev, ptr nonnull @_ZZNK6dealii8MappingQILi3ELi3EE23add_line_support_pointsERKNS_12TriaIteratorINS_12CellAccessorILi3ELi3EEEEERSt6vectorINS_5PointILi3EEESaISA_EEE17straight_boundary, ptr nonnull @__dso_handle) #19
  tail call void @__cxa_guard_release(ptr nonnull @_ZGVZNK6dealii8MappingQILi3ELi3EE23add_line_support_pointsERKNS_12TriaIteratorINS_12CellAccessorILi3ELi3EEEEERSt6vectorINS_5PointILi3EEESaISA_EEE17straight_boundary) #19
  br label %18

18:                                               ; preds = %16, %12, %3
  %19 = getelementptr inbounds %"class.dealii::MappingQ", ptr %0, i64 0, i32 3
  %20 = load i32, ptr %19, align 8, !tbaa !8
  %21 = icmp eq i32 %20, 2
  br i1 %21, label %22, label %125

22:                                               ; preds = %18
  %23 = getelementptr inbounds %"class.dealii::TriaAccessorBase", ptr %1, i64 0, i32 2
  %24 = getelementptr inbounds %"class.dealii::TriaAccessorBase", ptr %1, i64 0, i32 1
  %25 = getelementptr inbounds %"class.dealii::TriaAccessorBase.107", ptr %6, i64 0, i32 1
  %26 = getelementptr inbounds %"struct.std::_Vector_base<dealii::Point<3>, std::allocator<dealii::Point<3> > >::_Vector_impl_data", ptr %2, i64 0, i32 1
  %27 = getelementptr inbounds %"struct.std::_Vector_base<dealii::Point<3>, std::allocator<dealii::Point<3> > >::_Vector_impl_data", ptr %2, i64 0, i32 2
  %28 = getelementptr inbounds [3 x double], ptr %7, i64 0, i64 1
  %29 = getelementptr inbounds [3 x double], ptr %7, i64 0, i64 2
  br label %32

30:                                               ; preds = %15
  %31 = landingpad { ptr, i32 }
          cleanup
  tail call void @__cxa_guard_abort(ptr nonnull @_ZGVZNK6dealii8MappingQILi3ELi3EE23add_line_support_pointsERKNS_12TriaIteratorINS_12CellAccessorILi3ELi3EEEEERSt6vectorINS_5PointILi3EEESaISA_EEE17straight_boundary) #19
  br label %356

32:                                               ; preds = %22, %122
  %33 = phi i64 [ 0, %22 ], [ %123, %122 ]
  call void @llvm.lifetime.start.p0(i64 16, ptr nonnull %6) #19
  call void @llvm.experimental.noalias.scope.decl(metadata !170)
  %34 = load ptr, ptr %23, align 8, !tbaa !162, !noalias !170
  %35 = getelementptr inbounds [12 x [2 x i32]], ptr @_ZZN6dealii8internal12TriaAccessor14Implementation10line_indexILi3ELi3EEEjRKNS_12TriaAccessorILi3EXT_EXT0_EEEjE12lookup_table, i64 0, i64 %33
  %36 = load i32, ptr %35, align 8, !tbaa !90, !noalias !170
  %37 = getelementptr inbounds [12 x [2 x i32]], ptr @_ZZN6dealii8internal12TriaAccessor14Implementation10line_indexILi3ELi3EEEjRKNS_12TriaAccessorILi3EXT_EXT0_EEEjE12lookup_table, i64 0, i64 %33, i64 1
  %38 = load i32, ptr %37, align 4, !tbaa !90, !noalias !170
  %39 = getelementptr inbounds %"class.dealii::Triangulation", ptr %34, i64 0, i32 1
  %40 = load i32, ptr %1, align 8, !tbaa !163, !noalias !170
  %41 = sext i32 %40 to i64
  %42 = load ptr, ptr %39, align 8, !tbaa !164, !noalias !170
  %43 = getelementptr inbounds ptr, ptr %42, i64 %41
  %44 = load ptr, ptr %43, align 8, !tbaa !98, !noalias !170
  %45 = load i32, ptr %24, align 4, !tbaa !166, !noalias !170
  %46 = getelementptr inbounds %"class.dealii::internal::Triangulation::TriaLevel", ptr %44, i64 0, i32 4, i32 1
  %47 = mul i32 %45, 6
  %48 = add i32 %47, %36
  %49 = load ptr, ptr %46, align 8, !tbaa !167, !noalias !170
  %50 = lshr i32 %48, 6
  %51 = zext i32 %50 to i64
  %52 = getelementptr inbounds i64, ptr %49, i64 %51
  %53 = and i32 %48, 63
  %54 = zext i32 %53 to i64
  %55 = shl nuw i64 1, %54
  %56 = load i64, ptr %52, align 8, !tbaa !168, !noalias !170
  %57 = and i64 %55, %56
  %58 = icmp ne i64 %57, 0
  %59 = getelementptr inbounds %"class.dealii::internal::Triangulation::TriaLevel", ptr %44, i64 0, i32 4, i32 2
  %60 = load ptr, ptr %59, align 8, !tbaa !167, !noalias !170
  %61 = getelementptr inbounds i64, ptr %60, i64 %51
  %62 = load i64, ptr %61, align 8, !tbaa !168, !noalias !170
  %63 = and i64 %55, %62
  %64 = icmp ne i64 %63, 0
  %65 = getelementptr inbounds %"class.dealii::internal::Triangulation::TriaLevel", ptr %44, i64 0, i32 4, i32 3
  %66 = load ptr, ptr %65, align 8, !tbaa !167, !noalias !170
  %67 = getelementptr inbounds i64, ptr %66, i64 %51
  %68 = load i64, ptr %67, align 8, !tbaa !168, !noalias !170
  %69 = and i64 %68, %55
  %70 = icmp ne i64 %69, 0
  %71 = call noundef i32 @_ZN6dealii12GeometryInfoILi3EE26standard_to_real_face_lineEjbbb(i32 noundef %38, i1 noundef zeroext %58, i1 noundef zeroext %64, i1 noundef zeroext %70), !noalias !170
  %72 = load ptr, ptr %23, align 8, !tbaa !162, !noalias !173
  %73 = getelementptr inbounds %"class.dealii::Triangulation", ptr %72, i64 0, i32 1
  %74 = load i32, ptr %1, align 8, !tbaa !163, !noalias !173
  %75 = sext i32 %74 to i64
  %76 = load ptr, ptr %73, align 8, !tbaa !164, !noalias !173
  %77 = getelementptr inbounds ptr, ptr %76, i64 %75
  %78 = load ptr, ptr %77, align 8, !tbaa !98, !noalias !173
  %79 = getelementptr inbounds %"class.dealii::internal::Triangulation::TriaLevel", ptr %78, i64 0, i32 4
  %80 = load i32, ptr %24, align 4, !tbaa !166, !noalias !173
  %81 = sext i32 %80 to i64
  %82 = load ptr, ptr %79, align 8, !tbaa !176, !noalias !173
  %83 = getelementptr inbounds %"class.dealii::internal::Triangulation::TriaObject", ptr %82, i64 %81
  %84 = zext i32 %36 to i64
  %85 = getelementptr inbounds [6 x i32], ptr %83, i64 0, i64 %84
  %86 = load i32, ptr %85, align 4, !tbaa !90, !noalias !173
  %87 = getelementptr inbounds %"class.dealii::Triangulation", ptr %72, i64 0, i32 2
  %88 = load ptr, ptr %87, align 8, !tbaa !178, !noalias !170
  %89 = sext i32 %86 to i64
  %90 = load ptr, ptr %88, align 8, !tbaa !192, !noalias !170
  %91 = getelementptr inbounds %"class.dealii::internal::Triangulation::TriaObject.192", ptr %90, i64 %89
  %92 = zext i32 %71 to i64
  %93 = getelementptr inbounds [4 x i32], ptr %91, i64 0, i64 %92
  %94 = load i32, ptr %93, align 4, !tbaa !90, !noalias !170
  store i32 %94, ptr %6, align 8, !tbaa !194, !alias.scope !170
  store ptr %34, ptr %25, align 8, !tbaa !196, !alias.scope !170
  %95 = getelementptr inbounds %"class.dealii::Triangulation", ptr %34, i64 0, i32 2
  %96 = load ptr, ptr %95, align 8, !tbaa !178
  %97 = getelementptr inbounds %"class.dealii::internal::Triangulation::TriaFaces", ptr %96, i64 0, i32 1, i32 5
  %98 = sext i32 %94 to i64
  %99 = load ptr, ptr %97, align 8, !tbaa !197
  %100 = getelementptr inbounds i8, ptr %99, i64 %98
  %101 = load i8, ptr %100, align 1, !tbaa !199
  %102 = icmp eq i8 %101, -1
  br i1 %102, label %106, label %103

103:                                              ; preds = %32
  %104 = zext i8 %101 to i32
  %105 = call noundef nonnull align 8 dereferenceable(72) ptr @_ZNK6dealii13TriangulationILi3ELi3EE12get_boundaryEj(ptr noundef nonnull align 8 dereferenceable(8552) %34, i32 noundef %104)
  br label %106

106:                                              ; preds = %32, %103
  %107 = phi ptr [ %105, %103 ], [ @_ZZNK6dealii8MappingQILi3ELi3EE23add_line_support_pointsERKNS_12TriaIteratorINS_12CellAccessorILi3ELi3EEEEERSt6vectorINS_5PointILi3EEESaISA_EEE17straight_boundary, %32 ]
  call void @llvm.lifetime.start.p0(i64 24, ptr nonnull %7) #19
  %108 = load ptr, ptr %107, align 8, !tbaa !5
  %109 = getelementptr inbounds ptr, ptr %108, i64 2
  %110 = load ptr, ptr %109, align 8
  call void %110(ptr nonnull sret(%"class.dealii::Point") align 8 %7, ptr noundef nonnull align 8 dereferenceable(72) %107, ptr noundef nonnull align 8 dereferenceable(16) %6)
  %111 = load ptr, ptr %26, align 8, !tbaa !98
  %112 = load ptr, ptr %27, align 8, !tbaa !158
  %113 = icmp eq ptr %111, %112
  br i1 %113, label %121, label %114

114:                                              ; preds = %106
  %115 = load double, ptr %7, align 8, !tbaa !104
  store double %115, ptr %111, align 8, !tbaa !104
  %116 = load double, ptr %28, align 8, !tbaa !104
  %117 = getelementptr inbounds [3 x double], ptr %111, i64 0, i64 1
  store double %116, ptr %117, align 8, !tbaa !104
  %118 = load double, ptr %29, align 8, !tbaa !104
  %119 = getelementptr inbounds [3 x double], ptr %111, i64 0, i64 2
  store double %118, ptr %119, align 8, !tbaa !104
  %120 = getelementptr inbounds %"class.dealii::Point", ptr %111, i64 1
  store ptr %120, ptr %26, align 8, !tbaa !157
  br label %122

121:                                              ; preds = %106
  call void @_ZNSt6vectorIN6dealii5PointILi3EEESaIS2_EE17_M_realloc_insertEN9__gnu_cxx17__normal_iteratorIPS2_S4_EERKS2_(ptr noundef nonnull align 8 dereferenceable(24) %2, ptr %111, ptr noundef nonnull align 8 dereferenceable(24) %7)
  br label %122

122:                                              ; preds = %114, %121
  call void @llvm.lifetime.end.p0(i64 24, ptr nonnull %7) #19
  call void @llvm.lifetime.end.p0(i64 16, ptr nonnull %6) #19
  %123 = add nuw nsw i64 %33, 1
  %124 = icmp eq i64 %123, 12
  br i1 %124, label %355, label %32

125:                                              ; preds = %18
  call void @llvm.lifetime.start.p0(i64 24, ptr nonnull %8) #19
  %126 = add i32 %20, -1
  %127 = zext i32 %126 to i64
  %128 = icmp eq i32 %126, 0
  br i1 %128, label %129, label %130

129:                                              ; preds = %125
  call void @llvm.memset.p0.i64(ptr noundef nonnull align 8 dereferenceable(24) %8, i8 0, i64 24, i1 false)
  br label %137

130:                                              ; preds = %125
  %131 = mul nuw nsw i64 %127, 24
  %132 = invoke noalias noundef nonnull ptr @_Znwm(i64 noundef %131) #20
          to label %133 unwind label %149

133:                                              ; preds = %130
  store ptr %132, ptr %8, align 8, !tbaa !156
  %134 = getelementptr inbounds %"class.dealii::Point", ptr %132, i64 %127
  %135 = getelementptr inbounds %"struct.std::_Vector_base<dealii::Point<3>, std::allocator<dealii::Point<3> > >::_Vector_impl_data", ptr %8, i64 0, i32 2
  store ptr %134, ptr %135, align 8, !tbaa !158
  tail call void @llvm.memset.p0.i64(ptr nonnull align 8 %132, i8 0, i64 %131, i1 false), !tbaa !104
  %136 = getelementptr i8, ptr %132, i64 %131
  br label %137

137:                                              ; preds = %133, %129
  %138 = phi ptr [ null, %129 ], [ %136, %133 ]
  %139 = getelementptr inbounds %"struct.std::_Vector_base<dealii::Point<3>, std::allocator<dealii::Point<3> > >::_Vector_impl_data", ptr %8, i64 0, i32 1
  store ptr %138, ptr %139, align 8, !tbaa !157
  %140 = getelementptr inbounds %"class.dealii::TriaAccessorBase", ptr %1, i64 0, i32 2
  %141 = getelementptr inbounds %"class.dealii::TriaAccessorBase", ptr %1, i64 0, i32 1
  %142 = getelementptr inbounds %"class.dealii::TriaAccessorBase.107", ptr %9, i64 0, i32 1
  %143 = getelementptr inbounds %"struct.std::_Vector_base<dealii::Point<3>, std::allocator<dealii::Point<3> > >::_Vector_impl_data", ptr %2, i64 0, i32 1
  br label %151

144:                                              ; preds = %345
  %145 = load ptr, ptr %8, align 8, !tbaa !156
  %146 = icmp eq ptr %145, null
  br i1 %146, label %148, label %147

147:                                              ; preds = %144
  call void @_ZdlPv(ptr noundef nonnull %145) #21
  br label %148

148:                                              ; preds = %144, %147
  call void @llvm.lifetime.end.p0(i64 24, ptr nonnull %8) #19
  br label %355

149:                                              ; preds = %130
  %150 = landingpad { ptr, i32 }
          cleanup
  br label %353

151:                                              ; preds = %137, %345
  %152 = phi i64 [ 0, %137 ], [ %346, %345 ]
  call void @llvm.lifetime.start.p0(i64 16, ptr nonnull %9) #19
  call void @llvm.experimental.noalias.scope.decl(metadata !200)
  %153 = load ptr, ptr %140, align 8, !tbaa !162, !noalias !200
  %154 = getelementptr inbounds [12 x [2 x i32]], ptr @_ZZN6dealii8internal12TriaAccessor14Implementation10line_indexILi3ELi3EEEjRKNS_12TriaAccessorILi3EXT_EXT0_EEEjE12lookup_table, i64 0, i64 %152
  %155 = load i32, ptr %154, align 8, !tbaa !90, !noalias !200
  %156 = getelementptr inbounds [12 x [2 x i32]], ptr @_ZZN6dealii8internal12TriaAccessor14Implementation10line_indexILi3ELi3EEEjRKNS_12TriaAccessorILi3EXT_EXT0_EEEjE12lookup_table, i64 0, i64 %152, i64 1
  %157 = load i32, ptr %156, align 4, !tbaa !90, !noalias !200
  %158 = getelementptr inbounds %"class.dealii::Triangulation", ptr %153, i64 0, i32 1
  %159 = load i32, ptr %1, align 8, !tbaa !163, !noalias !200
  %160 = sext i32 %159 to i64
  %161 = load ptr, ptr %158, align 8, !tbaa !164, !noalias !200
  %162 = getelementptr inbounds ptr, ptr %161, i64 %160
  %163 = load ptr, ptr %162, align 8, !tbaa !98, !noalias !200
  %164 = load i32, ptr %141, align 4, !tbaa !166, !noalias !200
  %165 = getelementptr inbounds %"class.dealii::internal::Triangulation::TriaLevel", ptr %163, i64 0, i32 4, i32 1
  %166 = mul i32 %164, 6
  %167 = add i32 %166, %155
  %168 = load ptr, ptr %165, align 8, !tbaa !167, !noalias !200
  %169 = lshr i32 %167, 6
  %170 = zext i32 %169 to i64
  %171 = getelementptr inbounds i64, ptr %168, i64 %170
  %172 = and i32 %167, 63
  %173 = zext i32 %172 to i64
  %174 = shl nuw i64 1, %173
  %175 = load i64, ptr %171, align 8, !tbaa !168, !noalias !200
  %176 = and i64 %174, %175
  %177 = icmp ne i64 %176, 0
  %178 = getelementptr inbounds %"class.dealii::internal::Triangulation::TriaLevel", ptr %163, i64 0, i32 4, i32 2
  %179 = load ptr, ptr %178, align 8, !tbaa !167, !noalias !200
  %180 = getelementptr inbounds i64, ptr %179, i64 %170
  %181 = load i64, ptr %180, align 8, !tbaa !168, !noalias !200
  %182 = and i64 %174, %181
  %183 = icmp ne i64 %182, 0
  %184 = getelementptr inbounds %"class.dealii::internal::Triangulation::TriaLevel", ptr %163, i64 0, i32 4, i32 3
  %185 = load ptr, ptr %184, align 8, !tbaa !167, !noalias !200
  %186 = getelementptr inbounds i64, ptr %185, i64 %170
  %187 = load i64, ptr %186, align 8, !tbaa !168, !noalias !200
  %188 = and i64 %187, %174
  %189 = icmp ne i64 %188, 0
  %190 = invoke noundef i32 @_ZN6dealii12GeometryInfoILi3EE26standard_to_real_face_lineEjbbb(i32 noundef %157, i1 noundef zeroext %177, i1 noundef zeroext %183, i1 noundef zeroext %189)
          to label %191 unwind label %335

191:                                              ; preds = %151
  %192 = load ptr, ptr %140, align 8, !tbaa !162, !noalias !203
  %193 = getelementptr inbounds %"class.dealii::Triangulation", ptr %192, i64 0, i32 1
  %194 = load i32, ptr %1, align 8, !tbaa !163, !noalias !203
  %195 = sext i32 %194 to i64
  %196 = load ptr, ptr %193, align 8, !tbaa !164, !noalias !203
  %197 = getelementptr inbounds ptr, ptr %196, i64 %195
  %198 = load ptr, ptr %197, align 8, !tbaa !98, !noalias !203
  %199 = getelementptr inbounds %"class.dealii::internal::Triangulation::TriaLevel", ptr %198, i64 0, i32 4
  %200 = load i32, ptr %141, align 4, !tbaa !166, !noalias !203
  %201 = sext i32 %200 to i64
  %202 = load ptr, ptr %199, align 8, !tbaa !176, !noalias !203
  %203 = getelementptr inbounds %"class.dealii::internal::Triangulation::TriaObject", ptr %202, i64 %201
  %204 = zext i32 %155 to i64
  %205 = getelementptr inbounds [6 x i32], ptr %203, i64 0, i64 %204
  %206 = load i32, ptr %205, align 4, !tbaa !90, !noalias !203
  %207 = getelementptr inbounds %"class.dealii::Triangulation", ptr %192, i64 0, i32 2
  %208 = load ptr, ptr %207, align 8, !tbaa !178, !noalias !200
  %209 = sext i32 %206 to i64
  %210 = load ptr, ptr %208, align 8, !tbaa !192, !noalias !200
  %211 = getelementptr inbounds %"class.dealii::internal::Triangulation::TriaObject.192", ptr %210, i64 %209
  %212 = zext i32 %190 to i64
  %213 = getelementptr inbounds [4 x i32], ptr %211, i64 0, i64 %212
  %214 = load i32, ptr %213, align 4, !tbaa !90, !noalias !200
  store i32 %214, ptr %9, align 8, !tbaa !194, !alias.scope !200
  store ptr %153, ptr %142, align 8, !tbaa !196, !alias.scope !200
  %215 = getelementptr inbounds %"class.dealii::Triangulation", ptr %153, i64 0, i32 2
  %216 = load ptr, ptr %215, align 8, !tbaa !178
  %217 = getelementptr inbounds %"class.dealii::internal::Triangulation::TriaFaces", ptr %216, i64 0, i32 1, i32 5
  %218 = sext i32 %214 to i64
  %219 = load ptr, ptr %217, align 8, !tbaa !197
  %220 = getelementptr inbounds i8, ptr %219, i64 %218
  %221 = load i8, ptr %220, align 1, !tbaa !199
  %222 = icmp eq i8 %221, -1
  br i1 %222, label %226, label %223

223:                                              ; preds = %191
  %224 = zext i8 %221 to i32
  %225 = invoke noundef nonnull align 8 dereferenceable(72) ptr @_ZNK6dealii13TriangulationILi3ELi3EE12get_boundaryEj(ptr noundef nonnull align 8 dereferenceable(8552) %153, i32 noundef %224)
          to label %226 unwind label %337

226:                                              ; preds = %191, %223
  %227 = phi ptr [ %225, %223 ], [ @_ZZNK6dealii8MappingQILi3ELi3EE23add_line_support_pointsERKNS_12TriaIteratorINS_12CellAccessorILi3ELi3EEEEERSt6vectorINS_5PointILi3EEESaISA_EEE17straight_boundary, %191 ]
  %228 = load ptr, ptr %227, align 8, !tbaa !5
  %229 = getelementptr inbounds ptr, ptr %228, i64 4
  %230 = load ptr, ptr %229, align 8
  invoke void %230(ptr noundef nonnull align 8 dereferenceable(72) %227, ptr noundef nonnull align 8 dereferenceable(16) %9, ptr noundef nonnull align 8 dereferenceable(24) %8)
          to label %231 unwind label %337

231:                                              ; preds = %226
  %232 = getelementptr inbounds [12 x [2 x i32]], ptr @_ZZN6dealii8internal12TriaAccessor14Implementation16line_orientationILi3ELi3EEEbRKNS_12TriaAccessorILi3EXT_EXT0_EEEjE12lookup_table, i64 0, i64 %152
  %233 = load i32, ptr %232, align 8, !tbaa !90
  %234 = getelementptr inbounds [12 x [2 x i32]], ptr @_ZZN6dealii8internal12TriaAccessor14Implementation16line_orientationILi3ELi3EEEbRKNS_12TriaAccessorILi3EXT_EXT0_EEEjE12lookup_table, i64 0, i64 %152, i64 1
  %235 = load i32, ptr %234, align 4, !tbaa !90
  %236 = load ptr, ptr %140, align 8, !tbaa !162
  %237 = getelementptr inbounds %"class.dealii::Triangulation", ptr %236, i64 0, i32 1
  %238 = load i32, ptr %1, align 8, !tbaa !163
  %239 = sext i32 %238 to i64
  %240 = load ptr, ptr %237, align 8, !tbaa !164
  %241 = getelementptr inbounds ptr, ptr %240, i64 %239
  %242 = load ptr, ptr %241, align 8, !tbaa !98
  %243 = load i32, ptr %141, align 4, !tbaa !166
  %244 = getelementptr inbounds %"class.dealii::internal::Triangulation::TriaLevel", ptr %242, i64 0, i32 4, i32 1
  %245 = mul i32 %243, 6
  %246 = add i32 %245, %233
  %247 = load ptr, ptr %244, align 8, !tbaa !167
  %248 = lshr i32 %246, 6
  %249 = zext i32 %248 to i64
  %250 = getelementptr inbounds i64, ptr %247, i64 %249
  %251 = and i32 %246, 63
  %252 = zext i32 %251 to i64
  %253 = shl nuw i64 1, %252
  %254 = load i64, ptr %250, align 8, !tbaa !168
  %255 = and i64 %253, %254
  %256 = icmp ne i64 %255, 0
  %257 = getelementptr inbounds %"class.dealii::internal::Triangulation::TriaLevel", ptr %242, i64 0, i32 4, i32 2
  %258 = load ptr, ptr %257, align 8, !tbaa !167
  %259 = getelementptr inbounds i64, ptr %258, i64 %249
  %260 = load i64, ptr %259, align 8, !tbaa !168
  %261 = and i64 %253, %260
  %262 = icmp ne i64 %261, 0
  %263 = getelementptr inbounds %"class.dealii::internal::Triangulation::TriaLevel", ptr %242, i64 0, i32 4, i32 3
  %264 = load ptr, ptr %263, align 8, !tbaa !167
  %265 = getelementptr inbounds i64, ptr %264, i64 %249
  %266 = load i64, ptr %265, align 8, !tbaa !168
  %267 = and i64 %266, %253
  %268 = icmp ne i64 %267, 0
  %269 = invoke noundef i32 @_ZN6dealii12GeometryInfoILi3EE26standard_to_real_face_lineEjbbb(i32 noundef %235, i1 noundef zeroext %256, i1 noundef zeroext %262, i1 noundef zeroext %268)
          to label %270 unwind label %337

270:                                              ; preds = %231
  %271 = load ptr, ptr %140, align 8, !tbaa !162
  %272 = getelementptr inbounds %"class.dealii::Triangulation", ptr %271, i64 0, i32 1
  %273 = load i32, ptr %1, align 8, !tbaa !163
  %274 = sext i32 %273 to i64
  %275 = load ptr, ptr %272, align 8, !tbaa !164
  %276 = getelementptr inbounds ptr, ptr %275, i64 %274
  %277 = load ptr, ptr %276, align 8, !tbaa !98
  %278 = getelementptr inbounds %"class.dealii::internal::Triangulation::TriaLevel", ptr %277, i64 0, i32 4
  %279 = load i32, ptr %141, align 4, !tbaa !166
  %280 = sext i32 %279 to i64
  %281 = load ptr, ptr %278, align 8, !tbaa !176, !noalias !206
  %282 = getelementptr inbounds %"class.dealii::internal::Triangulation::TriaObject", ptr %281, i64 %280
  %283 = zext i32 %233 to i64
  %284 = getelementptr inbounds [6 x i32], ptr %282, i64 0, i64 %283
  %285 = load i32, ptr %284, align 4, !tbaa !90, !noalias !206
  %286 = getelementptr inbounds %"class.dealii::Triangulation", ptr %271, i64 0, i32 2
  %287 = load ptr, ptr %286, align 8, !tbaa !178
  %288 = getelementptr inbounds %"class.dealii::internal::Triangulation::TriaObjectsQuad3D", ptr %287, i64 0, i32 1
  %289 = shl i32 %285, 2
  %290 = add i32 %289, %269
  %291 = load ptr, ptr %288, align 8, !tbaa !167
  %292 = lshr i32 %290, 6
  %293 = zext i32 %292 to i64
  %294 = getelementptr inbounds i64, ptr %291, i64 %293
  %295 = and i32 %290, 63
  %296 = zext i32 %295 to i64
  %297 = shl nuw i64 1, %296
  %298 = load i64, ptr %294, align 8, !tbaa !168
  %299 = and i64 %297, %298
  %300 = icmp ne i64 %299, 0
  %301 = lshr i32 %235, 1
  %302 = zext i32 %301 to i64
  %303 = getelementptr inbounds %"class.dealii::internal::Triangulation::TriaLevel", ptr %277, i64 0, i32 4, i32 1
  %304 = mul i32 %279, 6
  %305 = add i32 %304, %233
  %306 = load ptr, ptr %303, align 8, !tbaa !167
  %307 = lshr i32 %305, 6
  %308 = zext i32 %307 to i64
  %309 = getelementptr inbounds i64, ptr %306, i64 %308
  %310 = and i32 %305, 63
  %311 = zext i32 %310 to i64
  %312 = load i64, ptr %309, align 8, !tbaa !168
  %313 = lshr i64 %312, %311
  %314 = and i64 %313, 1
  %315 = getelementptr inbounds %"class.dealii::internal::Triangulation::TriaLevel", ptr %277, i64 0, i32 4, i32 2
  %316 = load ptr, ptr %315, align 8, !tbaa !167
  %317 = getelementptr inbounds i64, ptr %316, i64 %308
  %318 = load i64, ptr %317, align 8, !tbaa !168
  %319 = lshr i64 %318, %311
  %320 = and i64 %319, 1
  %321 = getelementptr inbounds %"class.dealii::internal::Triangulation::TriaLevel", ptr %277, i64 0, i32 4, i32 3
  %322 = load ptr, ptr %321, align 8, !tbaa !167
  %323 = getelementptr inbounds i64, ptr %322, i64 %308
  %324 = load i64, ptr %323, align 8, !tbaa !168
  %325 = lshr i64 %324, %311
  %326 = and i64 %325, 1
  %327 = getelementptr inbounds [2 x [2 x [2 x [2 x i8]]]], ptr @_ZZN6dealii8internal12TriaAccessor14Implementation16line_orientationILi3ELi3EEEbRKNS_12TriaAccessorILi3EXT_EXT0_EEEjE10bool_table, i64 0, i64 %302, i64 %314, i64 %320, i64 %326
  %328 = load i8, ptr %327, align 1, !tbaa !209, !range !122, !noundef !123
  %329 = zext i1 %300 to i8
  %330 = icmp eq i8 %328, %329
  %331 = load ptr, ptr %143, align 8, !tbaa !98
  br i1 %330, label %332, label %339

332:                                              ; preds = %270
  %333 = load ptr, ptr %8, align 8, !tbaa !98
  %334 = load ptr, ptr %139, align 8, !tbaa !98
  invoke void @_ZNSt6vectorIN6dealii5PointILi3EEESaIS2_EE15_M_range_insertIN9__gnu_cxx17__normal_iteratorIPS2_S4_EEEEvS9_T_SA_St20forward_iterator_tag(ptr noundef nonnull align 8 dereferenceable(24) %2, ptr %331, ptr %333, ptr %334)
          to label %345 unwind label %337

335:                                              ; preds = %151
  %336 = landingpad { ptr, i32 }
          cleanup
  br label %348

337:                                              ; preds = %339, %332, %231, %226, %223
  %338 = landingpad { ptr, i32 }
          cleanup
  br label %348

339:                                              ; preds = %270
  %340 = load ptr, ptr %139, align 8, !tbaa !98, !noalias !210
  %341 = load ptr, ptr %8, align 8, !tbaa !98, !noalias !213
  %342 = ptrtoint ptr %340 to i64
  %343 = ptrtoint ptr %341 to i64
  call void @llvm.lifetime.start.p0(i64 8, ptr nonnull %4)
  call void @llvm.lifetime.start.p0(i64 8, ptr nonnull %5)
  store i64 %342, ptr %4, align 8, !tbaa !98
  store i64 %343, ptr %5, align 8, !tbaa !98
  invoke void @_ZNSt6vectorIN6dealii5PointILi3EEESaIS2_EE15_M_range_insertISt16reverse_iteratorIN9__gnu_cxx17__normal_iteratorIPS2_S4_EEEEEvSA_T_SC_St20forward_iterator_tag(ptr noundef nonnull align 8 dereferenceable(24) %2, ptr %331, ptr noundef nonnull %4, ptr noundef nonnull %5)
          to label %344 unwind label %337

344:                                              ; preds = %339
  call void @llvm.lifetime.end.p0(i64 8, ptr nonnull %4)
  call void @llvm.lifetime.end.p0(i64 8, ptr nonnull %5)
  br label %345

345:                                              ; preds = %332, %344
  call void @llvm.lifetime.end.p0(i64 16, ptr nonnull %9) #19
  %346 = add nuw nsw i64 %152, 1
  %347 = icmp eq i64 %346, 12
  br i1 %347, label %144, label %151

348:                                              ; preds = %337, %335
  %349 = phi { ptr, i32 } [ %338, %337 ], [ %336, %335 ]
  call void @llvm.lifetime.end.p0(i64 16, ptr nonnull %9) #19
  %350 = load ptr, ptr %8, align 8, !tbaa !156
  %351 = icmp eq ptr %350, null
  br i1 %351, label %353, label %352

352:                                              ; preds = %348
  call void @_ZdlPv(ptr noundef nonnull %350) #21
  br label %353

353:                                              ; preds = %352, %348, %149
  %354 = phi { ptr, i32 } [ %150, %149 ], [ %349, %348 ], [ %349, %352 ]
  call void @llvm.lifetime.end.p0(i64 24, ptr nonnull %8) #19
  br label %356

355:                                              ; preds = %122, %148
  ret void

356:                                              ; preds = %353, %30
  %357 = phi { ptr, i32 } [ %354, %353 ], [ %31, %30 ]
  resume { ptr, i32 } %357
}

; Function Attrs: nofree nounwind
declare i32 @__cxa_guard_acquire(ptr) local_unnamed_addr #9

declare void @_ZN6dealii16StraightBoundaryILi3ELi3EEC1Ev(ptr noundef nonnull align 8 dereferenceable(72)) unnamed_addr #1

declare void @_ZN6dealii8BoundaryILi3ELi3EED2Ev(ptr noundef nonnull align 8 dereferenceable(72)) unnamed_addr #1

; Function Attrs: nofree nounwind
declare i32 @__cxa_atexit(ptr, ptr, ptr) local_unnamed_addr #9

; Function Attrs: nofree nounwind
declare void @__cxa_guard_abort(ptr) local_unnamed_addr #9

; Function Attrs: nofree nounwind
declare void @__cxa_guard_release(ptr) local_unnamed_addr #9

declare noundef nonnull align 8 dereferenceable(72) ptr @_ZNK6dealii13TriangulationILi3ELi3EE12get_boundaryEj(ptr noundef nonnull align 8 dereferenceable(8552), i32 noundef) local_unnamed_addr #1

; Function Attrs: sspstrong uwtable
define weak_odr dso_local noundef ptr @_ZNK6dealii8MappingQILi3ELi3EE8get_dataENS_11UpdateFlagsERKNS_10QuadratureILi3EEE(ptr noundef nonnull align 8 dereferenceable(1160) %0, i32 noundef %1, ptr noundef nonnull align 8 dereferenceable(128) %2) unnamed_addr #0 comdat align 2 personality ptr @__gxx_personality_v0 {
  %4 = tail call noalias noundef nonnull dereferenceable(848) ptr @_Znwm(i64 noundef 848) #20
  %5 = getelementptr inbounds %"class.dealii::MappingQ", ptr %0, i64 0, i32 7
  %6 = load i32, ptr %5, align 8, !tbaa !84
  invoke void @_ZN6dealii9MappingQ1ILi3ELi3EE12InternalDataC2Ej(ptr noundef nonnull align 8 dereferenceable(408) %4, i32 noundef %6)
          to label %7 unwind label %38

7:                                                ; preds = %3
  store ptr getelementptr inbounds ({ [6 x ptr] }, ptr @_ZTVN6dealii8MappingQILi3ELi3EE12InternalDataE, i64 0, inrange i32 0, i64 2), ptr %4, align 8, !tbaa !5
  %8 = getelementptr inbounds %"class.dealii::MappingQ<3>::InternalData", ptr %4, i64 0, i32 1
  %9 = getelementptr inbounds %"class.dealii::MappingQ<3>::InternalData", ptr %4, i64 0, i32 3
  tail call void @llvm.memset.p0.i64(ptr noundef nonnull align 8 dereferenceable(25) %8, i8 0, i64 25, i1 false)
  invoke void @_ZN6dealii9MappingQ1ILi3ELi3EE12InternalDataC1Ej(ptr noundef nonnull align 8 dereferenceable(408) %9, i32 noundef 8)
          to label %16 unwind label %10

10:                                               ; preds = %7
  %11 = landingpad { ptr, i32 }
          cleanup
  invoke void @_ZNSt6vectorIS_IN6dealii5PointILi3EEESaIS2_EESaIS4_EED2Ev(ptr noundef nonnull align 8 dereferenceable(24) %8)
          to label %12 unwind label %13

12:                                               ; preds = %10
  invoke void @_ZN6dealii9MappingQ1ILi3ELi3EE12InternalDataD2Ev(ptr noundef nonnull align 8 dereferenceable(408) %4)
          to label %40 unwind label %13

13:                                               ; preds = %12, %10
  %14 = landingpad { ptr, i32 }
          catch ptr null
  %15 = extractvalue { ptr, i32 } %14, 0
  tail call void @__clang_call_terminate(ptr %15) #22
  unreachable

16:                                               ; preds = %7
  %17 = getelementptr inbounds %"class.dealii::MappingQ1<3, 3>::InternalData", ptr %4, i64 0, i32 10
  store i8 0, ptr %17, align 8, !tbaa !153
  %18 = getelementptr inbounds %"class.dealii::Quadrature", ptr %2, i64 0, i32 3
  %19 = getelementptr inbounds %"class.dealii::Quadrature", ptr %2, i64 0, i32 3, i32 0, i32 0, i32 0, i32 1
  %20 = load ptr, ptr %19, align 8, !tbaa !100
  %21 = load ptr, ptr %18, align 8, !tbaa !93
  %22 = ptrtoint ptr %20 to i64
  %23 = ptrtoint ptr %21 to i64
  %24 = sub i64 %22, %23
  %25 = lshr exact i64 %24, 3
  %26 = trunc i64 %25 to i32
  tail call void @_ZNK6dealii9MappingQ1ILi3ELi3EE12compute_dataENS_11UpdateFlagsERKNS_10QuadratureILi3EEEjRNS1_12InternalDataE(ptr noundef nonnull align 8 dereferenceable(72) %0, i32 noundef %1, ptr noundef nonnull align 8 dereferenceable(128) %2, i32 noundef %26, ptr noundef nonnull align 8 dereferenceable(408) %4)
  %27 = getelementptr inbounds %"class.dealii::MappingQ", ptr %0, i64 0, i32 9
  %28 = load i8, ptr %27, align 8, !tbaa !92, !range !122, !noundef !123
  %29 = icmp eq i8 %28, 0
  br i1 %29, label %30, label %42

30:                                               ; preds = %16
  %31 = load ptr, ptr %19, align 8, !tbaa !100
  %32 = load ptr, ptr %18, align 8, !tbaa !93
  %33 = ptrtoint ptr %31 to i64
  %34 = ptrtoint ptr %32 to i64
  %35 = sub i64 %33, %34
  %36 = lshr exact i64 %35, 3
  %37 = trunc i64 %36 to i32
  tail call void @_ZNK6dealii9MappingQ1ILi3ELi3EE12compute_dataENS_11UpdateFlagsERKNS_10QuadratureILi3EEEjRNS1_12InternalDataE(ptr noundef nonnull align 8 dereferenceable(72) %0, i32 noundef %1, ptr noundef nonnull align 8 dereferenceable(128) %2, i32 noundef %37, ptr noundef nonnull align 8 dereferenceable(408) %9)
  br label %42

38:                                               ; preds = %3
  %39 = landingpad { ptr, i32 }
          cleanup
  br label %40

40:                                               ; preds = %12, %38
  %41 = phi { ptr, i32 } [ %39, %38 ], [ %11, %12 ]
  tail call void @_ZdlPv(ptr noundef nonnull %4) #21
  resume { ptr, i32 } %41

42:                                               ; preds = %30, %16
  ret ptr %4
}

declare void @_ZNK6dealii9MappingQ1ILi3ELi3EE12compute_dataENS_11UpdateFlagsERKNS_10QuadratureILi3EEEjRNS1_12InternalDataE(ptr noundef nonnull align 8 dereferenceable(72), i32 noundef, ptr noundef nonnull align 8 dereferenceable(128), i32 noundef, ptr noundef nonnull align 8 dereferenceable(408)) local_unnamed_addr #1

; Function Attrs: sspstrong uwtable
define weak_odr dso_local noundef ptr @_ZNK6dealii8MappingQILi3ELi3EE13get_face_dataENS_11UpdateFlagsERKNS_10QuadratureILi2EEE(ptr noundef nonnull align 8 dereferenceable(1160) %0, i32 noundef %1, ptr noundef nonnull align 8 dereferenceable(128) %2) unnamed_addr #0 comdat align 2 personality ptr @__gxx_personality_v0 {
  %4 = alloca %"class.dealii::Quadrature", align 8
  %5 = tail call noalias noundef nonnull dereferenceable(848) ptr @_Znwm(i64 noundef 848) #20
  %6 = getelementptr inbounds %"class.dealii::MappingQ", ptr %0, i64 0, i32 7
  %7 = load i32, ptr %6, align 8, !tbaa !84
  invoke void @_ZN6dealii9MappingQ1ILi3ELi3EE12InternalDataC2Ej(ptr noundef nonnull align 8 dereferenceable(408) %5, i32 noundef %7)
          to label %8 unwind label %40

8:                                                ; preds = %3
  store ptr getelementptr inbounds ({ [6 x ptr] }, ptr @_ZTVN6dealii8MappingQILi3ELi3EE12InternalDataE, i64 0, inrange i32 0, i64 2), ptr %5, align 8, !tbaa !5
  %9 = getelementptr inbounds %"class.dealii::MappingQ<3>::InternalData", ptr %5, i64 0, i32 1
  %10 = getelementptr inbounds %"class.dealii::MappingQ<3>::InternalData", ptr %5, i64 0, i32 3
  tail call void @llvm.memset.p0.i64(ptr noundef nonnull align 8 dereferenceable(25) %9, i8 0, i64 25, i1 false)
  invoke void @_ZN6dealii9MappingQ1ILi3ELi3EE12InternalDataC1Ej(ptr noundef nonnull align 8 dereferenceable(408) %10, i32 noundef 8)
          to label %17 unwind label %11

11:                                               ; preds = %8
  %12 = landingpad { ptr, i32 }
          cleanup
  invoke void @_ZNSt6vectorIS_IN6dealii5PointILi3EEESaIS2_EESaIS4_EED2Ev(ptr noundef nonnull align 8 dereferenceable(24) %9)
          to label %13 unwind label %14

13:                                               ; preds = %11
  invoke void @_ZN6dealii9MappingQ1ILi3ELi3EE12InternalDataD2Ev(ptr noundef nonnull align 8 dereferenceable(408) %5)
          to label %42 unwind label %14

14:                                               ; preds = %13, %11
  %15 = landingpad { ptr, i32 }
          catch ptr null
  %16 = extractvalue { ptr, i32 } %15, 0
  tail call void @__clang_call_terminate(ptr %16) #22
  unreachable

17:                                               ; preds = %8
  %18 = getelementptr inbounds %"class.dealii::MappingQ1<3, 3>::InternalData", ptr %5, i64 0, i32 10
  store i8 0, ptr %18, align 8, !tbaa !153
  call void @llvm.lifetime.start.p0(i64 128, ptr nonnull %4) #19
  call void @_ZN6dealii10QProjectorILi3EE20project_to_all_facesERKNS_10QuadratureILi2EEE(ptr nonnull sret(%"class.dealii::Quadrature") align 8 %4, ptr noundef nonnull align 8 dereferenceable(128) %2)
  %19 = getelementptr inbounds %"class.dealii::Quadrature.102", ptr %2, i64 0, i32 3
  %20 = getelementptr inbounds %"class.dealii::Quadrature.102", ptr %2, i64 0, i32 3, i32 0, i32 0, i32 0, i32 1
  %21 = load ptr, ptr %20, align 8, !tbaa !100
  %22 = load ptr, ptr %19, align 8, !tbaa !93
  %23 = ptrtoint ptr %21 to i64
  %24 = ptrtoint ptr %22 to i64
  %25 = sub i64 %23, %24
  %26 = lshr exact i64 %25, 3
  %27 = trunc i64 %26 to i32
  invoke void @_ZNK6dealii9MappingQ1ILi3ELi3EE17compute_face_dataENS_11UpdateFlagsERKNS_10QuadratureILi3EEEjRNS1_12InternalDataE(ptr noundef nonnull align 8 dereferenceable(72) %0, i32 noundef %1, ptr noundef nonnull align 8 dereferenceable(128) %4, i32 noundef %27, ptr noundef nonnull align 8 dereferenceable(408) %5)
          to label %28 unwind label %44

28:                                               ; preds = %17
  %29 = getelementptr inbounds %"class.dealii::MappingQ", ptr %0, i64 0, i32 9
  %30 = load i8, ptr %29, align 8, !tbaa !92, !range !122, !noundef !123
  %31 = icmp eq i8 %30, 0
  br i1 %31, label %32, label %46

32:                                               ; preds = %28
  %33 = load ptr, ptr %20, align 8, !tbaa !100
  %34 = load ptr, ptr %19, align 8, !tbaa !93
  %35 = ptrtoint ptr %33 to i64
  %36 = ptrtoint ptr %34 to i64
  %37 = sub i64 %35, %36
  %38 = lshr exact i64 %37, 3
  %39 = trunc i64 %38 to i32
  invoke void @_ZNK6dealii9MappingQ1ILi3ELi3EE17compute_face_dataENS_11UpdateFlagsERKNS_10QuadratureILi3EEEjRNS1_12InternalDataE(ptr noundef nonnull align 8 dereferenceable(72) %0, i32 noundef %1, ptr noundef nonnull align 8 dereferenceable(128) %4, i32 noundef %39, ptr noundef nonnull align 8 dereferenceable(408) %10)
          to label %46 unwind label %44

40:                                               ; preds = %3
  %41 = landingpad { ptr, i32 }
          cleanup
  br label %42

42:                                               ; preds = %13, %40
  %43 = phi { ptr, i32 } [ %41, %40 ], [ %12, %13 ]
  tail call void @_ZdlPv(ptr noundef nonnull %5) #21
  br label %48

44:                                               ; preds = %32, %17
  %45 = landingpad { ptr, i32 }
          cleanup
  invoke void @_ZN6dealii10QuadratureILi3EED1Ev(ptr noundef nonnull align 8 dereferenceable(128) %4)
          to label %47 unwind label %50

46:                                               ; preds = %32, %28
  call void @_ZN6dealii10QuadratureILi3EED1Ev(ptr noundef nonnull align 8 dereferenceable(128) %4)
  call void @llvm.lifetime.end.p0(i64 128, ptr nonnull %4) #19
  ret ptr %5

47:                                               ; preds = %44
  call void @llvm.lifetime.end.p0(i64 128, ptr nonnull %4) #19
  br label %48

48:                                               ; preds = %47, %42
  %49 = phi { ptr, i32 } [ %45, %47 ], [ %43, %42 ]
  resume { ptr, i32 } %49

50:                                               ; preds = %44
  %51 = landingpad { ptr, i32 }
          catch ptr null
  %52 = extractvalue { ptr, i32 } %51, 0
  call void @__clang_call_terminate(ptr %52) #22
  unreachable
}

declare void @_ZN6dealii10QProjectorILi3EE20project_to_all_facesERKNS_10QuadratureILi2EEE(ptr sret(%"class.dealii::Quadrature") align 8, ptr noundef nonnull align 8 dereferenceable(128)) local_unnamed_addr #1

declare void @_ZNK6dealii9MappingQ1ILi3ELi3EE17compute_face_dataENS_11UpdateFlagsERKNS_10QuadratureILi3EEEjRNS1_12InternalDataE(ptr noundef nonnull align 8 dereferenceable(72), i32 noundef, ptr noundef nonnull align 8 dereferenceable(128), i32 noundef, ptr noundef nonnull align 8 dereferenceable(408)) local_unnamed_addr #1

; Function Attrs: sspstrong uwtable
define weak_odr dso_local noundef ptr @_ZNK6dealii8MappingQILi3ELi3EE16get_subface_dataENS_11UpdateFlagsERKNS_10QuadratureILi2EEE(ptr noundef nonnull align 8 dereferenceable(1160) %0, i32 noundef %1, ptr noundef nonnull align 8 dereferenceable(128) %2) unnamed_addr #0 comdat align 2 personality ptr @__gxx_personality_v0 {
  %4 = alloca %"class.dealii::Quadrature", align 8
  %5 = tail call noalias noundef nonnull dereferenceable(848) ptr @_Znwm(i64 noundef 848) #20
  %6 = getelementptr inbounds %"class.dealii::MappingQ", ptr %0, i64 0, i32 7
  %7 = load i32, ptr %6, align 8, !tbaa !84
  invoke void @_ZN6dealii9MappingQ1ILi3ELi3EE12InternalDataC2Ej(ptr noundef nonnull align 8 dereferenceable(408) %5, i32 noundef %7)
          to label %8 unwind label %40

8:                                                ; preds = %3
  store ptr getelementptr inbounds ({ [6 x ptr] }, ptr @_ZTVN6dealii8MappingQILi3ELi3EE12InternalDataE, i64 0, inrange i32 0, i64 2), ptr %5, align 8, !tbaa !5
  %9 = getelementptr inbounds %"class.dealii::MappingQ<3>::InternalData", ptr %5, i64 0, i32 1
  %10 = getelementptr inbounds %"class.dealii::MappingQ<3>::InternalData", ptr %5, i64 0, i32 3
  tail call void @llvm.memset.p0.i64(ptr noundef nonnull align 8 dereferenceable(25) %9, i8 0, i64 25, i1 false)
  invoke void @_ZN6dealii9MappingQ1ILi3ELi3EE12InternalDataC1Ej(ptr noundef nonnull align 8 dereferenceable(408) %10, i32 noundef 8)
          to label %17 unwind label %11

11:                                               ; preds = %8
  %12 = landingpad { ptr, i32 }
          cleanup
  invoke void @_ZNSt6vectorIS_IN6dealii5PointILi3EEESaIS2_EESaIS4_EED2Ev(ptr noundef nonnull align 8 dereferenceable(24) %9)
          to label %13 unwind label %14

13:                                               ; preds = %11
  invoke void @_ZN6dealii9MappingQ1ILi3ELi3EE12InternalDataD2Ev(ptr noundef nonnull align 8 dereferenceable(408) %5)
          to label %42 unwind label %14

14:                                               ; preds = %13, %11
  %15 = landingpad { ptr, i32 }
          catch ptr null
  %16 = extractvalue { ptr, i32 } %15, 0
  tail call void @__clang_call_terminate(ptr %16) #22
  unreachable

17:                                               ; preds = %8
  %18 = getelementptr inbounds %"class.dealii::MappingQ1<3, 3>::InternalData", ptr %5, i64 0, i32 10
  store i8 0, ptr %18, align 8, !tbaa !153
  call void @llvm.lifetime.start.p0(i64 128, ptr nonnull %4) #19
  call void @_ZN6dealii10QProjectorILi3EE23project_to_all_subfacesERKNS_10QuadratureILi2EEE(ptr nonnull sret(%"class.dealii::Quadrature") align 8 %4, ptr noundef nonnull align 8 dereferenceable(128) %2)
  %19 = getelementptr inbounds %"class.dealii::Quadrature.102", ptr %2, i64 0, i32 3
  %20 = getelementptr inbounds %"class.dealii::Quadrature.102", ptr %2, i64 0, i32 3, i32 0, i32 0, i32 0, i32 1
  %21 = load ptr, ptr %20, align 8, !tbaa !100
  %22 = load ptr, ptr %19, align 8, !tbaa !93
  %23 = ptrtoint ptr %21 to i64
  %24 = ptrtoint ptr %22 to i64
  %25 = sub i64 %23, %24
  %26 = lshr exact i64 %25, 3
  %27 = trunc i64 %26 to i32
  invoke void @_ZNK6dealii9MappingQ1ILi3ELi3EE17compute_face_dataENS_11UpdateFlagsERKNS_10QuadratureILi3EEEjRNS1_12InternalDataE(ptr noundef nonnull align 8 dereferenceable(72) %0, i32 noundef %1, ptr noundef nonnull align 8 dereferenceable(128) %4, i32 noundef %27, ptr noundef nonnull align 8 dereferenceable(408) %5)
          to label %28 unwind label %44

28:                                               ; preds = %17
  %29 = getelementptr inbounds %"class.dealii::MappingQ", ptr %0, i64 0, i32 9
  %30 = load i8, ptr %29, align 8, !tbaa !92, !range !122, !noundef !123
  %31 = icmp eq i8 %30, 0
  br i1 %31, label %32, label %46

32:                                               ; preds = %28
  %33 = load ptr, ptr %20, align 8, !tbaa !100
  %34 = load ptr, ptr %19, align 8, !tbaa !93
  %35 = ptrtoint ptr %33 to i64
  %36 = ptrtoint ptr %34 to i64
  %37 = sub i64 %35, %36
  %38 = lshr exact i64 %37, 3
  %39 = trunc i64 %38 to i32
  invoke void @_ZNK6dealii9MappingQ1ILi3ELi3EE17compute_face_dataENS_11UpdateFlagsERKNS_10QuadratureILi3EEEjRNS1_12InternalDataE(ptr noundef nonnull align 8 dereferenceable(72) %0, i32 noundef %1, ptr noundef nonnull align 8 dereferenceable(128) %4, i32 noundef %39, ptr noundef nonnull align 8 dereferenceable(408) %10)
          to label %46 unwind label %44

40:                                               ; preds = %3
  %41 = landingpad { ptr, i32 }
          cleanup
  br label %42

42:                                               ; preds = %13, %40
  %43 = phi { ptr, i32 } [ %41, %40 ], [ %12, %13 ]
  tail call void @_ZdlPv(ptr noundef nonnull %5) #21
  br label %48

44:                                               ; preds = %32, %17
  %45 = landingpad { ptr, i32 }
          cleanup
  invoke void @_ZN6dealii10QuadratureILi3EED1Ev(ptr noundef nonnull align 8 dereferenceable(128) %4)
          to label %47 unwind label %50

46:                                               ; preds = %32, %28
  call void @_ZN6dealii10QuadratureILi3EED1Ev(ptr noundef nonnull align 8 dereferenceable(128) %4)
  call void @llvm.lifetime.end.p0(i64 128, ptr nonnull %4) #19
  ret ptr %5

47:                                               ; preds = %44
  call void @llvm.lifetime.end.p0(i64 128, ptr nonnull %4) #19
  br label %48

48:                                               ; preds = %47, %42
  %49 = phi { ptr, i32 } [ %45, %47 ], [ %43, %42 ]
  resume { ptr, i32 } %49

50:                                               ; preds = %44
  %51 = landingpad { ptr, i32 }
          catch ptr null
  %52 = extractvalue { ptr, i32 } %51, 0
  call void @__clang_call_terminate(ptr %52) #22
  unreachable
}

declare void @_ZN6dealii10QProjectorILi3EE23project_to_all_subfacesERKNS_10QuadratureILi2EEE(ptr sret(%"class.dealii::Quadrature") align 8, ptr noundef nonnull align 8 dereferenceable(128)) local_unnamed_addr #1

; Function Attrs: sspstrong uwtable
define weak_odr dso_local void @_ZNK6dealii8MappingQILi3ELi3EE22compute_shapes_virtualERKSt6vectorINS_5PointILi3EEESaIS4_EERNS_9MappingQ1ILi3ELi3EE12InternalDataE(ptr noundef nonnull align 8 dereferenceable(1160) %0, ptr noundef nonnull align 8 dereferenceable(24) %1, ptr noundef nonnull align 8 dereferenceable(408) %2) unnamed_addr #0 comdat align 2 personality ptr @__gxx_personality_v0 {
  %4 = alloca double, align 8
  %5 = alloca %"class.std::vector.72", align 8
  %6 = alloca %"class.std::vector.83", align 8
  %7 = alloca %"class.dealii::Tensor", align 8
  %8 = alloca %"class.std::vector.77", align 8
  %9 = alloca %"class.dealii::Tensor.119", align 8
  %10 = getelementptr inbounds %"struct.std::_Vector_base<dealii::Point<3>, std::allocator<dealii::Point<3> > >::_Vector_impl_data", ptr %1, i64 0, i32 1
  %11 = load ptr, ptr %10, align 8, !tbaa !157
  %12 = load ptr, ptr %1, align 8, !tbaa !156
  %13 = ptrtoint ptr %11 to i64
  %14 = ptrtoint ptr %12 to i64
  %15 = sub i64 %13, %14
  %16 = sdiv exact i64 %15, 24
  %17 = trunc i64 %16 to i32
  call void @llvm.lifetime.start.p0(i64 24, ptr nonnull %5) #19
  call void @llvm.memset.p0.i64(ptr noundef nonnull align 8 dereferenceable(24) %5, i8 0, i64 24, i1 false)
  call void @llvm.lifetime.start.p0(i64 24, ptr nonnull %6) #19
  call void @llvm.memset.p0.i64(ptr noundef nonnull align 8 dereferenceable(24) %6, i8 0, i64 24, i1 false)
  %18 = getelementptr inbounds %"class.dealii::MappingQ1<3, 3>::InternalData", ptr %2, i64 0, i32 1
  %19 = getelementptr inbounds %"class.dealii::MappingQ1<3, 3>::InternalData", ptr %2, i64 0, i32 1, i32 0, i32 0, i32 0, i32 1
  %20 = load ptr, ptr %19, align 8, !tbaa !100
  %21 = load ptr, ptr %18, align 8, !tbaa !93
  %22 = icmp eq ptr %20, %21
  br i1 %22, label %32, label %23

23:                                               ; preds = %3
  %24 = getelementptr inbounds %"class.dealii::MappingQ", ptr %0, i64 0, i32 7
  %25 = load i32, ptr %24, align 8, !tbaa !84
  call void @llvm.lifetime.start.p0(i64 8, ptr nonnull %4)
  store double 0.000000e+00, ptr %4, align 8, !tbaa !104
  %26 = icmp eq i32 %25, 0
  br i1 %26, label %29, label %27

27:                                               ; preds = %23
  %28 = zext i32 %25 to i64
  invoke void @_ZNSt6vectorIdSaIdEE14_M_fill_insertEN9__gnu_cxx17__normal_iteratorIPdS1_EEmRKd(ptr noundef nonnull align 8 dereferenceable(24) %5, ptr null, i64 noundef %28, ptr noundef nonnull align 8 dereferenceable(8) %4)
          to label %29 unwind label %30

29:                                               ; preds = %23, %27
  call void @llvm.lifetime.end.p0(i64 8, ptr nonnull %4)
  br label %32

