; ModuleID = 'source/fe/mapping_q1.cc'
source_filename = "source/fe/mapping_q1.cc"
target datalayout = "e-m:e-p270:32:32-p271:32:32-p272:64:64-i64:64-f80:128-n8:16:32:64-S128"
target triple = "x86_64-pc-linux-gnu"

module asm ".globl _ZSt21ios_base_library_initv"

%"class.dealii::MappingQ1" = type { %"class.dealii::Mapping" }
%"class.dealii::Mapping" = type { %"class.dealii::Subscriptor" }
%"class.dealii::Subscriptor" = type { ptr, i32, %"class.std::map", ptr }
%"class.std::map" = type { %"class.std::_Rb_tree" }
%"class.std::_Rb_tree" = type { %"struct.std::_Rb_tree<const char *, std::pair<const char *const, unsigned int>, std::_Select1st<std::pair<const char *const, unsigned int> >, std::less<const char *> >::_Rb_tree_impl" }
%"struct.std::_Rb_tree<const char *, std::pair<const char *const, unsigned int>, std::_Select1st<std::pair<const char *const, unsigned int> >, std::less<const char *> >::_Rb_tree_impl" = type { %"struct.std::_Rb_tree_key_compare", %"struct.std::_Rb_tree_header" }
%"struct.std::_Rb_tree_key_compare" = type { %"struct.std::less" }
%"struct.std::less" = type { i8 }
%"struct.std::_Rb_tree_header" = type { %"struct.std::_Rb_tree_node_base", i64 }
%"struct.std::_Rb_tree_node_base" = type { i32, ptr, ptr, ptr }
%"class.dealii::Point" = type { %"class.dealii::Tensor" }
%"class.dealii::Tensor" = type { [3 x double] }
%"class.dealii::Quadrature" = type { %"class.dealii::Subscriptor", i32, %"class.std::vector", %"class.std::vector.19" }
%"class.std::vector" = type { %"struct.std::_Vector_base" }
%"struct.std::_Vector_base" = type { %"struct.std::_Vector_base<dealii::Point<3>, std::allocator<dealii::Point<3> > >::_Vector_impl" }
%"struct.std::_Vector_base<dealii::Point<3>, std::allocator<dealii::Point<3> > >::_Vector_impl" = type { %"struct.std::_Vector_base<dealii::Point<3>, std::allocator<dealii::Point<3> > >::_Vector_impl_data" }
%"struct.std::_Vector_base<dealii::Point<3>, std::allocator<dealii::Point<3> > >::_Vector_impl_data" = type { ptr, ptr, ptr }
%"class.std::vector.19" = type { %"struct.std::_Vector_base.20" }
%"struct.std::_Vector_base.20" = type { %"struct.std::_Vector_base<double, std::allocator<double> >::_Vector_impl" }
%"struct.std::_Vector_base<double, std::allocator<double> >::_Vector_impl" = type { %"struct.std::_Vector_base<double, std::allocator<double> >::_Vector_impl_data" }
%"struct.std::_Vector_base<double, std::allocator<double> >::_Vector_impl_data" = type { ptr, ptr, ptr }
%"class.dealii::MappingQ1<3, 3>::InternalData" = type { %"class.dealii::Mapping<3, 3>::InternalDataBase.base", %"class.std::vector.19", %"class.std::vector.29", %"class.std::vector.24", %"class.std::vector.24", %"class.std::vector.24", %"class.std::vector.34", %"class.std::vector.34", %"class.std::vector", %"class.dealii::TriaIterator", i8, i32 }
%"class.dealii::Mapping<3, 3>::InternalDataBase.base" = type <{ %"class.dealii::Subscriptor", i32, i32, i32, [4 x i8], %"class.std::vector.19", %"class.std::vector", %"class.std::vector.24", %"class.std::vector.24", i8 }>
%"class.std::vector.29" = type { %"struct.std::_Vector_base.30" }
%"struct.std::_Vector_base.30" = type { %"struct.std::_Vector_base<dealii::Tensor<1, 3>, std::allocator<dealii::Tensor<1, 3> > >::_Vector_impl" }
%"struct.std::_Vector_base<dealii::Tensor<1, 3>, std::allocator<dealii::Tensor<1, 3> > >::_Vector_impl" = type { %"struct.std::_Vector_base<dealii::Tensor<1, 3>, std::allocator<dealii::Tensor<1, 3> > >::_Vector_impl_data" }
%"struct.std::_Vector_base<dealii::Tensor<1, 3>, std::allocator<dealii::Tensor<1, 3> > >::_Vector_impl_data" = type { ptr, ptr, ptr }
%"class.std::vector.24" = type { %"struct.std::_Vector_base.25" }
%"struct.std::_Vector_base.25" = type { %"struct.std::_Vector_base<dealii::Tensor<2, 3>, std::allocator<dealii::Tensor<2, 3> > >::_Vector_impl" }
%"struct.std::_Vector_base<dealii::Tensor<2, 3>, std::allocator<dealii::Tensor<2, 3> > >::_Vector_impl" = type { %"struct.std::_Vector_base<dealii::Tensor<2, 3>, std::allocator<dealii::Tensor<2, 3> > >::_Vector_impl_data" }
%"struct.std::_Vector_base<dealii::Tensor<2, 3>, std::allocator<dealii::Tensor<2, 3> > >::_Vector_impl_data" = type { ptr, ptr, ptr }
%"class.std::vector.34" = type { %"struct.std::_Vector_base.35" }
%"struct.std::_Vector_base.35" = type { %"struct.std::_Vector_base<std::vector<dealii::Tensor<1, 3> >, std::allocator<std::vector<dealii::Tensor<1, 3> > > >::_Vector_impl" }
%"struct.std::_Vector_base<std::vector<dealii::Tensor<1, 3> >, std::allocator<std::vector<dealii::Tensor<1, 3> > > >::_Vector_impl" = type { %"struct.std::_Vector_base<std::vector<dealii::Tensor<1, 3> >, std::allocator<std::vector<dealii::Tensor<1, 3> > > >::_Vector_impl_data" }
%"struct.std::_Vector_base<std::vector<dealii::Tensor<1, 3> >, std::allocator<std::vector<dealii::Tensor<1, 3> > > >::_Vector_impl_data" = type { ptr, ptr, ptr }
%"class.dealii::TriaIterator" = type { %"class.dealii::TriaRawIterator" }
%"class.dealii::TriaRawIterator" = type { %"class.dealii::CellAccessor" }
%"class.dealii::CellAccessor" = type { %"class.dealii::TriaAccessor" }
%"class.dealii::TriaAccessor" = type { %"class.dealii::TriaAccessorBase" }
%"class.dealii::TriaAccessorBase" = type { i32, i32, ptr }
%"class.dealii::Triangulation" = type { %"class.dealii::Subscriptor", %"class.std::vector.56", ptr, %"class.std::vector", %"class.std::vector.61", [255 x %"class.dealii::SmartPointer"], [255 x %"class.dealii::SmartPointer"], i8, i32, %"struct.dealii::internal::Triangulation::NumberCache", %"class.std::__cxx11::list" }
%"class.std::vector.56" = type { %"struct.std::_Vector_base.57" }
%"struct.std::_Vector_base.57" = type { %"struct.std::_Vector_base<dealii::internal::Triangulation::TriaLevel<3> *, std::allocator<dealii::internal::Triangulation::TriaLevel<3> *> >::_Vector_impl" }
%"struct.std::_Vector_base<dealii::internal::Triangulation::TriaLevel<3> *, std::allocator<dealii::internal::Triangulation::TriaLevel<3> *> >::_Vector_impl" = type { %"struct.std::_Vector_base<dealii::internal::Triangulation::TriaLevel<3> *, std::allocator<dealii::internal::Triangulation::TriaLevel<3> *> >::_Vector_impl_data" }
%"struct.std::_Vector_base<dealii::internal::Triangulation::TriaLevel<3> *, std::allocator<dealii::internal::Triangulation::TriaLevel<3> *> >::_Vector_impl_data" = type { ptr, ptr, ptr }
%"class.std::vector.61" = type { %"struct.std::_Bvector_base" }
%"struct.std::_Bvector_base" = type { %"struct.std::_Bvector_base<std::allocator<bool> >::_Bvector_impl" }
%"struct.std::_Bvector_base<std::allocator<bool> >::_Bvector_impl" = type { %"struct.std::_Bvector_base<std::allocator<bool> >::_Bvector_impl_data" }
%"struct.std::_Bvector_base<std::allocator<bool> >::_Bvector_impl_data" = type { %"struct.std::_Bit_iterator", %"struct.std::_Bit_iterator", ptr }
%"struct.std::_Bit_iterator" = type { %"struct.std::_Bit_iterator_base.base", [4 x i8] }
%"struct.std::_Bit_iterator_base.base" = type <{ ptr, i32 }>
%"class.dealii::SmartPointer" = type { ptr, ptr }
%"struct.dealii::internal::Triangulation::NumberCache" = type { %"struct.dealii::internal::Triangulation::NumberCache.66", i32, %"class.std::vector.68", i32, %"class.std::vector.68" }
%"struct.dealii::internal::Triangulation::NumberCache.66" = type { %"struct.dealii::internal::Triangulation::NumberCache.67", i32, %"class.std::vector.68", i32, %"class.std::vector.68" }
%"struct.dealii::internal::Triangulation::NumberCache.67" = type { i32, %"class.std::vector.68", i32, %"class.std::vector.68" }
%"class.std::vector.68" = type { %"struct.std::_Vector_base.69" }
%"struct.std::_Vector_base.69" = type { %"struct.std::_Vector_base<unsigned int, std::allocator<unsigned int> >::_Vector_impl" }
%"struct.std::_Vector_base<unsigned int, std::allocator<unsigned int> >::_Vector_impl" = type { %"struct.std::_Vector_base<unsigned int, std::allocator<unsigned int> >::_Vector_impl_data" }
%"struct.std::_Vector_base<unsigned int, std::allocator<unsigned int> >::_Vector_impl_data" = type { ptr, ptr, ptr }
%"class.std::__cxx11::list" = type { %"class.std::__cxx11::_List_base" }
%"class.std::__cxx11::_List_base" = type { %"struct.std::__cxx11::_List_base<dealii::Triangulation<3, 3>::RefinementListener *, std::allocator<dealii::Triangulation<3, 3>::RefinementListener *> >::_List_impl" }
%"struct.std::__cxx11::_List_base<dealii::Triangulation<3, 3>::RefinementListener *, std::allocator<dealii::Triangulation<3, 3>::RefinementListener *> >::_List_impl" = type { %"struct.std::__detail::_List_node_header" }
%"struct.std::__detail::_List_node_header" = type { %"struct.std::__detail::_List_node_base", i64 }
%"struct.std::__detail::_List_node_base" = type { ptr, ptr }
%"class.dealii::internal::Triangulation::TriaLevel" = type { %"class.std::vector.83", %"class.std::vector.61", %"class.std::vector.88", %"class.std::vector.68", %"class.dealii::internal::Triangulation::TriaObjectsHex" }
%"class.std::vector.83" = type { %"struct.std::_Vector_base.84" }
%"struct.std::_Vector_base.84" = type { %"struct.std::_Vector_base<unsigned char, std::allocator<unsigned char> >::_Vector_impl" }
%"struct.std::_Vector_base<unsigned char, std::allocator<unsigned char> >::_Vector_impl" = type { %"struct.std::_Vector_base<unsigned char, std::allocator<unsigned char> >::_Vector_impl_data" }
%"struct.std::_Vector_base<unsigned char, std::allocator<unsigned char> >::_Vector_impl_data" = type { ptr, ptr, ptr }
%"class.std::vector.88" = type { %"struct.std::_Vector_base.89" }
%"struct.std::_Vector_base.89" = type { %"struct.std::_Vector_base<std::pair<int, int>, std::allocator<std::pair<int, int> > >::_Vector_impl" }
%"struct.std::_Vector_base<std::pair<int, int>, std::allocator<std::pair<int, int> > >::_Vector_impl" = type { %"struct.std::_Vector_base<std::pair<int, int>, std::allocator<std::pair<int, int> > >::_Vector_impl_data" }
%"struct.std::_Vector_base<std::pair<int, int>, std::allocator<std::pair<int, int> > >::_Vector_impl_data" = type { ptr, ptr, ptr }
%"class.dealii::internal::Triangulation::TriaObjectsHex" = type { %"class.dealii::internal::Triangulation::TriaObjects.base", %"class.std::vector.61", %"class.std::vector.61", %"class.std::vector.61" }
%"class.dealii::internal::Triangulation::TriaObjects.base" = type <{ %"class.std::vector.93", %"class.std::vector.98", %"class.std::vector.103", %"class.std::vector.61", %"class.std::vector.61", %"class.std::vector.83", i32, i32, i8, [7 x i8], %"class.std::vector.108", i32 }>
%"class.std::vector.93" = type { %"struct.std::_Vector_base.94" }
%"struct.std::_Vector_base.94" = type { %"struct.std::_Vector_base<dealii::internal::Triangulation::TriaObject<3>, std::allocator<dealii::internal::Triangulation::TriaObject<3> > >::_Vector_impl" }
%"struct.std::_Vector_base<dealii::internal::Triangulation::TriaObject<3>, std::allocator<dealii::internal::Triangulation::TriaObject<3> > >::_Vector_impl" = type { %"struct.std::_Vector_base<dealii::internal::Triangulation::TriaObject<3>, std::allocator<dealii::internal::Triangulation::TriaObject<3> > >::_Vector_impl_data" }
%"struct.std::_Vector_base<dealii::internal::Triangulation::TriaObject<3>, std::allocator<dealii::internal::Triangulation::TriaObject<3> > >::_Vector_impl_data" = type { ptr, ptr, ptr }
%"class.std::vector.98" = type { %"struct.std::_Vector_base.99" }
%"struct.std::_Vector_base.99" = type { %"struct.std::_Vector_base<int, std::allocator<int> >::_Vector_impl" }
%"struct.std::_Vector_base<int, std::allocator<int> >::_Vector_impl" = type { %"struct.std::_Vector_base<int, std::allocator<int> >::_Vector_impl_data" }
%"struct.std::_Vector_base<int, std::allocator<int> >::_Vector_impl_data" = type { ptr, ptr, ptr }
%"class.std::vector.103" = type { %"struct.std::_Vector_base.104" }
%"struct.std::_Vector_base.104" = type { %"struct.std::_Vector_base<dealii::RefinementCase<3>, std::allocator<dealii::RefinementCase<3> > >::_Vector_impl" }
%"struct.std::_Vector_base<dealii::RefinementCase<3>, std::allocator<dealii::RefinementCase<3> > >::_Vector_impl" = type { %"struct.std::_Vector_base<dealii::RefinementCase<3>, std::allocator<dealii::RefinementCase<3> > >::_Vector_impl_data" }
%"struct.std::_Vector_base<dealii::RefinementCase<3>, std::allocator<dealii::RefinementCase<3> > >::_Vector_impl_data" = type { ptr, ptr, ptr }
%"class.std::vector.108" = type { %"struct.std::_Vector_base.109" }
%"struct.std::_Vector_base.109" = type { %"struct.std::_Vector_base<dealii::internal::Triangulation::TriaObjects<dealii::internal::Triangulation::TriaObject<3> >::UserData, std::allocator<dealii::internal::Triangulation::TriaObjects<dealii::internal::Triangulation::TriaObject<3> >::UserData> >::_Vector_impl" }
%"struct.std::_Vector_base<dealii::internal::Triangulation::TriaObjects<dealii::internal::Triangulation::TriaObject<3> >::UserData, std::allocator<dealii::internal::Triangulation::TriaObjects<dealii::internal::Triangulation::TriaObject<3> >::UserData> >::_Vector_impl" = type { %"struct.std::_Vector_base<dealii::internal::Triangulation::TriaObjects<dealii::internal::Triangulation::TriaObject<3> >::UserData, std::allocator<dealii::internal::Triangulation::TriaObjects<dealii::internal::Triangulation::TriaObject<3> >::UserData> >::_Vector_impl_data" }
%"struct.std::_Vector_base<dealii::internal::Triangulation::TriaObjects<dealii::internal::Triangulation::TriaObject<3> >::UserData, std::allocator<dealii::internal::Triangulation::TriaObjects<dealii::internal::Triangulation::TriaObject<3> >::UserData> >::_Vector_impl_data" = type { ptr, ptr, ptr }
%"class.dealii::internal::Triangulation::TriaObject" = type { [6 x i32] }
%"class.dealii::internal::Triangulation::TriaObject.155" = type { [4 x i32] }
%"class.dealii::internal::Triangulation::TriaObjectsQuad3D" = type { %"class.dealii::internal::Triangulation::TriaObjects.base.129", %"class.std::vector.61" }
%"class.dealii::internal::Triangulation::TriaObjects.base.129" = type <{ %"class.std::vector.114", %"class.std::vector.98", %"class.std::vector.119", %"class.std::vector.61", %"class.std::vector.61", %"class.std::vector.83", i32, i32, i8, [7 x i8], %"class.std::vector.124", i32 }>
%"class.std::vector.114" = type { %"struct.std::_Vector_base.115" }
%"struct.std::_Vector_base.115" = type { %"struct.std::_Vector_base<dealii::internal::Triangulation::TriaObject<2>, std::allocator<dealii::internal::Triangulation::TriaObject<2> > >::_Vector_impl" }
%"struct.std::_Vector_base<dealii::internal::Triangulation::TriaObject<2>, std::allocator<dealii::internal::Triangulation::TriaObject<2> > >::_Vector_impl" = type { %"struct.std::_Vector_base<dealii::internal::Triangulation::TriaObject<2>, std::allocator<dealii::internal::Triangulation::TriaObject<2> > >::_Vector_impl_data" }
%"struct.std::_Vector_base<dealii::internal::Triangulation::TriaObject<2>, std::allocator<dealii::internal::Triangulation::TriaObject<2> > >::_Vector_impl_data" = type { ptr, ptr, ptr }
%"class.std::vector.119" = type { %"struct.std::_Vector_base.120" }
%"struct.std::_Vector_base.120" = type { %"struct.std::_Vector_base<dealii::RefinementCase<2>, std::allocator<dealii::RefinementCase<2> > >::_Vector_impl" }
%"struct.std::_Vector_base<dealii::RefinementCase<2>, std::allocator<dealii::RefinementCase<2> > >::_Vector_impl" = type { %"struct.std::_Vector_base<dealii::RefinementCase<2>, std::allocator<dealii::RefinementCase<2> > >::_Vector_impl_data" }
%"struct.std::_Vector_base<dealii::RefinementCase<2>, std::allocator<dealii::RefinementCase<2> > >::_Vector_impl_data" = type { ptr, ptr, ptr }
%"class.std::vector.124" = type { %"struct.std::_Vector_base.125" }
%"struct.std::_Vector_base.125" = type { %"struct.std::_Vector_base<dealii::internal::Triangulation::TriaObjects<dealii::internal::Triangulation::TriaObject<2> >::UserData, std::allocator<dealii::internal::Triangulation::TriaObjects<dealii::internal::Triangulation::TriaObject<2> >::UserData> >::_Vector_impl" }
%"struct.std::_Vector_base<dealii::internal::Triangulation::TriaObjects<dealii::internal::Triangulation::TriaObject<2> >::UserData, std::allocator<dealii::internal::Triangulation::TriaObjects<dealii::internal::Triangulation::TriaObject<2> >::UserData> >::_Vector_impl" = type { %"struct.std::_Vector_base<dealii::internal::Triangulation::TriaObjects<dealii::internal::Triangulation::TriaObject<2> >::UserData, std::allocator<dealii::internal::Triangulation::TriaObjects<dealii::internal::Triangulation::TriaObject<2> >::UserData> >::_Vector_impl_data" }
%"struct.std::_Vector_base<dealii::internal::Triangulation::TriaObjects<dealii::internal::Triangulation::TriaObject<2> >::UserData, std::allocator<dealii::internal::Triangulation::TriaObjects<dealii::internal::Triangulation::TriaObject<2> >::UserData> >::_Vector_impl_data" = type { ptr, ptr, ptr }
%"class.dealii::internal::Triangulation::TriaFaces" = type { %"class.dealii::internal::Triangulation::TriaObjectsQuad3D", %"class.dealii::internal::Triangulation::TriaObjects.130" }
%"class.dealii::internal::Triangulation::TriaObjects.130" = type <{ %"class.std::vector.131", %"class.std::vector.98", %"class.std::vector.136", %"class.std::vector.61", %"class.std::vector.61", %"class.std::vector.83", i32, i32, i8, [7 x i8], %"class.std::vector.141", i32, [4 x i8] }>
%"class.std::vector.131" = type { %"struct.std::_Vector_base.132" }
%"struct.std::_Vector_base.132" = type { %"struct.std::_Vector_base<dealii::internal::Triangulation::TriaObject<1>, std::allocator<dealii::internal::Triangulation::TriaObject<1> > >::_Vector_impl" }
%"struct.std::_Vector_base<dealii::internal::Triangulation::TriaObject<1>, std::allocator<dealii::internal::Triangulation::TriaObject<1> > >::_Vector_impl" = type { %"struct.std::_Vector_base<dealii::internal::Triangulation::TriaObject<1>, std::allocator<dealii::internal::Triangulation::TriaObject<1> > >::_Vector_impl_data" }
%"struct.std::_Vector_base<dealii::internal::Triangulation::TriaObject<1>, std::allocator<dealii::internal::Triangulation::TriaObject<1> > >::_Vector_impl_data" = type { ptr, ptr, ptr }
%"class.std::vector.136" = type { %"struct.std::_Vector_base.137" }
%"struct.std::_Vector_base.137" = type { %"struct.std::_Vector_base<dealii::RefinementCase<1>, std::allocator<dealii::RefinementCase<1> > >::_Vector_impl" }
%"struct.std::_Vector_base<dealii::RefinementCase<1>, std::allocator<dealii::RefinementCase<1> > >::_Vector_impl" = type { %"struct.std::_Vector_base<dealii::RefinementCase<1>, std::allocator<dealii::RefinementCase<1> > >::_Vector_impl_data" }
%"struct.std::_Vector_base<dealii::RefinementCase<1>, std::allocator<dealii::RefinementCase<1> > >::_Vector_impl_data" = type { ptr, ptr, ptr }
%"class.std::vector.141" = type { %"struct.std::_Vector_base.142" }
%"struct.std::_Vector_base.142" = type { %"struct.std::_Vector_base<dealii::internal::Triangulation::TriaObjects<dealii::internal::Triangulation::TriaObject<1> >::UserData, std::allocator<dealii::internal::Triangulation::TriaObjects<dealii::internal::Triangulation::TriaObject<1> >::UserData> >::_Vector_impl" }
%"struct.std::_Vector_base<dealii::internal::Triangulation::TriaObjects<dealii::internal::Triangulation::TriaObject<1> >::UserData, std::allocator<dealii::internal::Triangulation::TriaObjects<dealii::internal::Triangulation::TriaObject<1> >::UserData> >::_Vector_impl" = type { %"struct.std::_Vector_base<dealii::internal::Triangulation::TriaObjects<dealii::internal::Triangulation::TriaObject<1> >::UserData, std::allocator<dealii::internal::Triangulation::TriaObjects<dealii::internal::Triangulation::TriaObject<1> >::UserData> >::_Vector_impl_data" }
%"struct.std::_Vector_base<dealii::internal::Triangulation::TriaObjects<dealii::internal::Triangulation::TriaObject<1> >::UserData, std::allocator<dealii::internal::Triangulation::TriaObjects<dealii::internal::Triangulation::TriaObject<1> >::UserData> >::_Vector_impl_data" = type { ptr, ptr, ptr }
%"class.dealii::internal::Triangulation::TriaObject.156" = type { [2 x i32] }
%"class.dealii::Mapping<3, 3>::InternalDataBase" = type <{ %"class.dealii::Subscriptor", i32, i32, i32, [4 x i8], %"class.std::vector.19", %"class.std::vector", %"class.std::vector.24", %"class.std::vector.24", i8, [7 x i8] }>
%"class.dealii::Tensor.40" = type { [3 x %"class.dealii::Tensor"] }
%"class.dealii::QProjector<3>::DataSetDescriptor" = type { i32 }
%"struct.std::_Vector_base<dealii::Tensor<3, 3>, std::allocator<dealii::Tensor<3, 3> > >::_Vector_impl_data" = type { ptr, ptr, ptr }
%"class.dealii::Tensor.48" = type { [3 x %"class.dealii::Tensor.40"] }
%"class.dealii::Quadrature.49" = type { %"class.dealii::Subscriptor", i32, %"class.std::vector.50", %"class.std::vector.19" }
%"class.std::vector.50" = type { %"struct.std::_Vector_base.51" }
%"struct.std::_Vector_base.51" = type { %"struct.std::_Vector_base<dealii::Point<2>, std::allocator<dealii::Point<2> > >::_Vector_impl" }
%"struct.std::_Vector_base<dealii::Point<2>, std::allocator<dealii::Point<2> > >::_Vector_impl" = type { %"struct.std::_Vector_base<dealii::Point<2>, std::allocator<dealii::Point<2> > >::_Vector_impl_data" }
%"struct.std::_Vector_base<dealii::Point<2>, std::allocator<dealii::Point<2> > >::_Vector_impl_data" = type { ptr, ptr, ptr }
%"class.dealii::internal::SubfaceCase" = type { i8 }
%"class.dealii::internal::Triangulation::TriaObjects.113" = type <{ %"class.std::vector.114", %"class.std::vector.98", %"class.std::vector.119", %"class.std::vector.61", %"class.std::vector.61", %"class.std::vector.83", i32, i32, i8, [7 x i8], %"class.std::vector.124", i32, [4 x i8] }>
%"class.dealii::RefinementCase" = type { i8 }

$_ZN6dealii9MappingQ1ILi3ELi3EEC5Ev = comdat any

$_ZNK6dealii9MappingQ1ILi3ELi3EE27transform_unit_to_real_cellERKNS_12TriaIteratorINS_12CellAccessorILi3ELi3EEEEERKNS_5PointILi3EEE = comdat any

$_ZNK6dealii9MappingQ1ILi3ELi3EE36transform_unit_to_real_cell_internalERKNS1_12InternalDataE = comdat any

$__clang_call_terminate = comdat any

$_ZNK6dealii9MappingQ1ILi3ELi3EE27transform_real_to_unit_cellERKNS_12TriaIteratorINS_12CellAccessorILi3ELi3EEEEERKNS_5PointILi3EEE = comdat any

$_ZNK6dealii9MappingQ1ILi3ELi3EE8get_dataENS_11UpdateFlagsERKNS_10QuadratureILi3EEE = comdat any

$_ZNK6dealii9MappingQ1ILi3ELi3EE30compute_mapping_support_pointsERKNS_12TriaIteratorINS_12CellAccessorILi3ELi3EEEEERSt6vectorINS_5PointILi3EEESaISA_EE = comdat any

$_ZNK6dealii9MappingQ1ILi3ELi3EE36transform_real_to_unit_cell_internalERKNS_12TriaIteratorINS_12CellAccessorILi3ELi3EEEEERKNS_5PointILi3EEERNS1_12InternalDataERS9_ = comdat any

$_ZNK6dealii9MappingQ1ILi3ELi3EE9transformENS_11VectorSliceIKSt6vectorINS_6TensorILi1ELi3EEESaIS5_EEEENS2_IS7_EERKNS_7MappingILi3ELi3EE16InternalDataBaseENS_11MappingTypeE = comdat any

$_ZNK6dealii9MappingQ1ILi3ELi3EE9transformENS_11VectorSliceIKSt6vectorINS_6TensorILi2ELi3EEESaIS5_EEEENS2_IS7_EERKNS_7MappingILi3ELi3EE16InternalDataBaseENS_11MappingTypeE = comdat any

$_ZNK6dealii9MappingQ1ILi3ELi3EE5cloneEv = comdat any

$_ZN6dealii9MappingQ1ILi3ELi3EE12InternalDataC5Ej = comdat any

$_ZNK6dealii9MappingQ1ILi3ELi3EE12InternalData5shapeEjj = comdat any

$_ZN6dealii9MappingQ1ILi3ELi3EE12InternalData5shapeEjj = comdat any

$_ZNK6dealii9MappingQ1ILi3ELi3EE12InternalData10derivativeEjj = comdat any

$_ZN6dealii9MappingQ1ILi3ELi3EE12InternalData10derivativeEjj = comdat any

$_ZNK6dealii9MappingQ1ILi3ELi3EE12InternalData17second_derivativeEjj = comdat any

$_ZN6dealii9MappingQ1ILi3ELi3EE12InternalData17second_derivativeEjj = comdat any

$_ZNK6dealii9MappingQ1ILi3ELi3EE12InternalData18memory_consumptionEv = comdat any

$_ZNK6dealii9MappingQ1ILi3ELi3EE14fill_fe_valuesERKNS_12TriaIteratorINS_12CellAccessorILi3ELi3EEEEERKNS_10QuadratureILi3EEERNS_7MappingILi3ELi3EE16InternalDataBaseERSt6vectorINS_5PointILi3EEESaISI_EERSG_IdSaIdEERSG_INS_6TensorILi2ELi3EEESaISQ_EERSG_INSP_ILi3ELi3EEESaISU_EEST_SL_RNS_14CellSimilarity10SimilarityE = comdat any

$_ZNK6dealii9MappingQ1ILi3ELi3EE12compute_fillERKNS_12TriaIteratorINS_12CellAccessorILi3ELi3EEEEEjNS_10QProjectorILi3EE17DataSetDescriptorENS_14CellSimilarity10SimilarityERNS1_12InternalDataERSt6vectorINS_5PointILi3EEESaISH_EE = comdat any

$_ZNK6dealii9MappingQ1ILi3ELi3EE19fill_fe_face_valuesERKNS_12TriaIteratorINS_12CellAccessorILi3ELi3EEEEEjRKNS_10QuadratureILi2EEERNS_7MappingILi3ELi3EE16InternalDataBaseERSt6vectorINS_5PointILi3EEESaISI_EERSG_IdSaIdEERSG_INS_6TensorILi1ELi3EEESaISQ_EESL_ = comdat any

$_ZNK6dealii9MappingQ1ILi3ELi3EE17compute_fill_faceERKNS_12TriaIteratorINS_12CellAccessorILi3ELi3EEEEEjjjNS_10QProjectorILi3EE17DataSetDescriptorERKSt6vectorIdSaIdEERNS1_12InternalDataERSB_INS_5PointILi3EEESaISJ_EERSD_RSB_INS_6TensorILi1ELi3EEESaISP_EESM_ = comdat any

$_ZNK6dealii9MappingQ1ILi3ELi3EE22fill_fe_subface_valuesERKNS_12TriaIteratorINS_12CellAccessorILi3ELi3EEEEEjjRKNS_10QuadratureILi2EEERNS_7MappingILi3ELi3EE16InternalDataBaseERSt6vectorINS_5PointILi3EEESaISI_EERSG_IdSaIdEERSG_INS_6TensorILi1ELi3EEESaISQ_EESL_ = comdat any

$_ZNK6dealii9MappingQ1ILi3ELi3EE14compute_shapesERKSt6vectorINS_5PointILi3EEESaIS4_EERNS1_12InternalDataE = comdat any

$_ZNK6dealii9MappingQ1ILi3ELi3EE22compute_shapes_virtualERKSt6vectorINS_5PointILi3EEESaIS4_EERNS1_12InternalDataE = comdat any

$_ZNK6dealii9MappingQ1ILi3ELi3EE12compute_dataENS_11UpdateFlagsERKNS_10QuadratureILi3EEEjRNS1_12InternalDataE = comdat any

$_ZNK6dealii9MappingQ1ILi3ELi3EE17compute_face_dataENS_11UpdateFlagsERKNS_10QuadratureILi3EEEjRNS1_12InternalDataE = comdat any

$_ZN6dealii8internal9MappingQ122compute_shapes_virtualILi3EEEvjRKSt6vectorINS_5PointILi3EEESaIS5_EERNS_9MappingQ1ILi3EXT_EE12InternalDataE = comdat any

$_ZNK6dealii12TriaAccessorILi3ELi3ELi3EE8diameterEv = comdat any

$_ZNK6dealii9MappingQ1ILi3ELi3EE11update_onceENS_11UpdateFlagsE = comdat any

$_ZNK6dealii9MappingQ1ILi3ELi3EE11update_eachENS_11UpdateFlagsE = comdat any

$_ZNK6dealii9MappingQ1ILi3ELi3EE13get_face_dataENS_11UpdateFlagsERKNS_10QuadratureILi2EEE = comdat any

$_ZNK6dealii9MappingQ1ILi3ELi3EE16get_subface_dataENS_11UpdateFlagsERKNS_10QuadratureILi2EEE = comdat any

$_ZN6dealii15StaticMappingQ1ILi3ELi3EE7mappingE = comdat any

$_ZN6dealii9MappingQ1ILi3ELi3EED0Ev = comdat any

$_ZN6dealii9MappingQ1ILi3ELi3EE12InternalDataD2Ev = comdat any

$_ZN6dealii9MappingQ1ILi3ELi3EE12InternalDataD0Ev = comdat any

$_ZN6dealii7MappingILi3ELi3EE16InternalDataBase16clear_first_cellEv = comdat any

$_ZNSt6vectorIdSaIdEE14_M_fill_insertEN9__gnu_cxx17__normal_iteratorIPdS1_EEmRKd = comdat any

$_ZNSt6vectorIN6dealii6TensorILi1ELi3EEESaIS2_EE14_M_fill_insertEN9__gnu_cxx17__normal_iteratorIPS2_S4_EEmRKS2_ = comdat any

$_ZNSt6vectorIN6dealii6TensorILi2ELi3EEESaIS2_EE14_M_fill_insertEN9__gnu_cxx17__normal_iteratorIPS2_S4_EEmRKS2_ = comdat any

$_ZNSt6vectorIS_IN6dealii6TensorILi1ELi3EEESaIS2_EESaIS4_EE14_M_fill_insertEN9__gnu_cxx17__normal_iteratorIPS4_S6_EEmRKS4_ = comdat any

$_ZSt16__do_uninit_copyIPSt6vectorIN6dealii6TensorILi1ELi3EEESaIS3_EES6_ET0_T_S8_S7_ = comdat any

$_ZNSt6vectorIN6dealii6TensorILi1ELi3EEESaIS2_EEaSERKS4_ = comdat any

$_ZSt18__do_uninit_fill_nIPSt6vectorIN6dealii6TensorILi1ELi3EEESaIS3_EEmS5_ET_S7_T0_RKT1_ = comdat any

$_ZNSt6vectorIN6dealii5PointILi3EEESaIS2_EE14_M_fill_insertEN9__gnu_cxx17__normal_iteratorIPS2_S4_EEmRKS2_ = comdat any

$_ZTVN6dealii9MappingQ1ILi3ELi3EEE = comdat any

$_ZTSN6dealii7MappingILi3ELi3EE16InternalDataBaseE = comdat any

$_ZTIN6dealii7MappingILi3ELi3EE16InternalDataBaseE = comdat any

$_ZTSN6dealii9MappingQ1ILi3ELi3EE12InternalDataE = comdat any

$_ZTIN6dealii9MappingQ1ILi3ELi3EE12InternalDataE = comdat any

$_ZTVN6dealii9MappingQ1ILi3ELi3EE12InternalDataE = comdat any

$_ZN6dealii9MappingQ1ILi3ELi3EE17n_shape_functionsE = comdat any

$_ZTSN6dealii9MappingQ1ILi3ELi3EEE = comdat any

$_ZTSN6dealii7MappingILi3ELi3EEE = comdat any

$_ZTIN6dealii7MappingILi3ELi3EEE = comdat any

$_ZTIN6dealii9MappingQ1ILi3ELi3EEE = comdat any

$_ZZN6dealii8internal12TriaAccessor14Implementation12vertex_indexILi3ELi3EEEjRKNS_12TriaAccessorILi2EXT_EXT0_EEEjE12switch_table = comdat any

@_ZTVN6dealii9MappingQ1ILi3ELi3EEE = weak_odr dso_local unnamed_addr constant { [19 x ptr] } { [19 x ptr] [ptr null, ptr @_ZTIN6dealii9MappingQ1ILi3ELi3EEE, ptr @_ZN6dealii7MappingILi3ELi3EED2Ev, ptr @_ZN6dealii9MappingQ1ILi3ELi3EED0Ev, ptr @_ZNK6dealii9MappingQ1ILi3ELi3EE27transform_unit_to_real_cellERKNS_12TriaIteratorINS_12CellAccessorILi3ELi3EEEEERKNS_5PointILi3EEE, ptr @_ZNK6dealii9MappingQ1ILi3ELi3EE27transform_real_to_unit_cellERKNS_12TriaIteratorINS_12CellAccessorILi3ELi3EEEEERKNS_5PointILi3EEE, ptr @_ZNK6dealii9MappingQ1ILi3ELi3EE9transformENS_11VectorSliceIKSt6vectorINS_6TensorILi1ELi3EEESaIS5_EEEENS2_IS7_EERKNS_7MappingILi3ELi3EE16InternalDataBaseENS_11MappingTypeE, ptr @_ZNK6dealii9MappingQ1ILi3ELi3EE9transformENS_11VectorSliceIKSt6vectorINS_6TensorILi2ELi3EEESaIS5_EEEENS2_IS7_EERKNS_7MappingILi3ELi3EE16InternalDataBaseENS_11MappingTypeE, ptr @_ZNK6dealii9MappingQ1ILi3ELi3EE5cloneEv, ptr @_ZNK6dealii9MappingQ1ILi3ELi3EE11update_onceENS_11UpdateFlagsE, ptr @_ZNK6dealii9MappingQ1ILi3ELi3EE11update_eachENS_11UpdateFlagsE, ptr @_ZNK6dealii9MappingQ1ILi3ELi3EE8get_dataENS_11UpdateFlagsERKNS_10QuadratureILi3EEE, ptr @_ZNK6dealii9MappingQ1ILi3ELi3EE13get_face_dataENS_11UpdateFlagsERKNS_10QuadratureILi2EEE, ptr @_ZNK6dealii9MappingQ1ILi3ELi3EE16get_subface_dataENS_11UpdateFlagsERKNS_10QuadratureILi2EEE, ptr @_ZNK6dealii9MappingQ1ILi3ELi3EE14fill_fe_valuesERKNS_12TriaIteratorINS_12CellAccessorILi3ELi3EEEEERKNS_10QuadratureILi3EEERNS_7MappingILi3ELi3EE16InternalDataBaseERSt6vectorINS_5PointILi3EEESaISI_EERSG_IdSaIdEERSG_INS_6TensorILi2ELi3EEESaISQ_EERSG_INSP_ILi3ELi3EEESaISU_EEST_SL_RNS_14CellSimilarity10SimilarityE, ptr @_ZNK6dealii9MappingQ1ILi3ELi3EE19fill_fe_face_valuesERKNS_12TriaIteratorINS_12CellAccessorILi3ELi3EEEEEjRKNS_10QuadratureILi2EEERNS_7MappingILi3ELi3EE16InternalDataBaseERSt6vectorINS_5PointILi3EEESaISI_EERSG_IdSaIdEERSG_INS_6TensorILi1ELi3EEESaISQ_EESL_, ptr @_ZNK6dealii9MappingQ1ILi3ELi3EE22fill_fe_subface_valuesERKNS_12TriaIteratorINS_12CellAccessorILi3ELi3EEEEEjjRKNS_10QuadratureILi2EEERNS_7MappingILi3ELi3EE16InternalDataBaseERSt6vectorINS_5PointILi3EEESaISI_EERSG_IdSaIdEERSG_INS_6TensorILi1ELi3EEESaISQ_EESL_, ptr @_ZNK6dealii9MappingQ1ILi3ELi3EE22compute_shapes_virtualERKSt6vectorINS_5PointILi3EEESaIS4_EERNS1_12InternalDataE, ptr @_ZNK6dealii9MappingQ1ILi3ELi3EE30compute_mapping_support_pointsERKNS_12TriaIteratorINS_12CellAccessorILi3ELi3EEEEERSt6vectorINS_5PointILi3EEESaISA_EE] }, comdat, align 8
@_ZTVN10__cxxabiv120__si_class_type_infoE = external global ptr
@_ZTSN6dealii7MappingILi3ELi3EE16InternalDataBaseE = linkonce_odr dso_local constant [46 x i8] c"N6dealii7MappingILi3ELi3EE16InternalDataBaseE\00", comdat, align 1
@_ZTIN6dealii11SubscriptorE = external constant ptr
@_ZTIN6dealii7MappingILi3ELi3EE16InternalDataBaseE = linkonce_odr dso_local constant { ptr, ptr, ptr } { ptr getelementptr inbounds (ptr, ptr @_ZTVN10__cxxabiv120__si_class_type_infoE, i64 2), ptr @_ZTSN6dealii7MappingILi3ELi3EE16InternalDataBaseE, ptr @_ZTIN6dealii11SubscriptorE }, comdat, align 8
@_ZTSN6dealii9MappingQ1ILi3ELi3EE12InternalDataE = linkonce_odr dso_local constant [44 x i8] c"N6dealii9MappingQ1ILi3ELi3EE12InternalDataE\00", comdat, align 1
@_ZTIN6dealii9MappingQ1ILi3ELi3EE12InternalDataE = linkonce_odr dso_local constant { ptr, ptr, ptr } { ptr getelementptr inbounds (ptr, ptr @_ZTVN10__cxxabiv120__si_class_type_infoE, i64 2), ptr @_ZTSN6dealii9MappingQ1ILi3ELi3EE12InternalDataE, ptr @_ZTIN6dealii7MappingILi3ELi3EE16InternalDataBaseE }, comdat, align 8
@_ZTVN6dealii9MappingQ1ILi3ELi3EE12InternalDataE = linkonce_odr dso_local unnamed_addr constant { [6 x ptr] } { [6 x ptr] [ptr null, ptr @_ZTIN6dealii9MappingQ1ILi3ELi3EE12InternalDataE, ptr @_ZN6dealii9MappingQ1ILi3ELi3EE12InternalDataD2Ev, ptr @_ZN6dealii9MappingQ1ILi3ELi3EE12InternalDataD0Ev, ptr @_ZN6dealii7MappingILi3ELi3EE16InternalDataBase16clear_first_cellEv, ptr @_ZNK6dealii9MappingQ1ILi3ELi3EE12InternalData18memory_consumptionEv] }, comdat, align 8
@_ZN6dealii12GeometryInfoILi3EE21unit_normal_directionE = external local_unnamed_addr constant [6 x i32], align 16
@_ZN6dealii12GeometryInfoILi3EE23unit_normal_orientationE = external local_unnamed_addr constant [6 x i32], align 16
@_ZN6dealii9MappingQ1ILi3ELi3EE17n_shape_functionsE = weak_odr dso_local local_unnamed_addr constant i32 8, comdat, align 4
@_ZN6dealii15StaticMappingQ1ILi3ELi3EE7mappingE = weak_odr dso_local global %"class.dealii::MappingQ1" zeroinitializer, comdat, align 8
@_ZGVN6dealii15StaticMappingQ1ILi3ELi3EE7mappingE = weak_odr dso_local local_unnamed_addr global i64 0, comdat($_ZN6dealii15StaticMappingQ1ILi3ELi3EE7mappingE), align 8
@__dso_handle = external hidden global i8
@_ZTSN6dealii9MappingQ1ILi3ELi3EEE = weak_odr dso_local constant [30 x i8] c"N6dealii9MappingQ1ILi3ELi3EEE\00", comdat, align 1
@_ZTSN6dealii7MappingILi3ELi3EEE = linkonce_odr dso_local constant [28 x i8] c"N6dealii7MappingILi3ELi3EEE\00", comdat, align 1
@_ZTIN6dealii7MappingILi3ELi3EEE = linkonce_odr dso_local constant { ptr, ptr, ptr } { ptr getelementptr inbounds (ptr, ptr @_ZTVN10__cxxabiv120__si_class_type_infoE, i64 2), ptr @_ZTSN6dealii7MappingILi3ELi3EEE, ptr @_ZTIN6dealii11SubscriptorE }, comdat, align 8
@_ZTIN6dealii9MappingQ1ILi3ELi3EEE = weak_odr dso_local constant { ptr, ptr, ptr } { ptr getelementptr inbounds (ptr, ptr @_ZTVN10__cxxabiv120__si_class_type_infoE, i64 2), ptr @_ZTSN6dealii9MappingQ1ILi3ELi3EEE, ptr @_ZTIN6dealii7MappingILi3ELi3EEE }, comdat, align 8
@.str = private unnamed_addr constant [23 x i8] c"vector::_M_fill_insert\00", align 1
@_ZZN6dealii8internal12TriaAccessor14Implementation12vertex_indexILi3ELi3EEEjRKNS_12TriaAccessorILi2EXT_EXT0_EEEjE12switch_table = linkonce_odr dso_local local_unnamed_addr constant [2 x [2 x i32]] [[2 x i32] [i32 1, i32 0], [2 x i32] [i32 0, i32 1]], comdat, align 16
@llvm.global_ctors = appending global [1 x { i32, ptr, ptr }] [{ i32, ptr, ptr } { i32 65535, ptr @__cxx_global_var_init.9, ptr @_ZN6dealii15StaticMappingQ1ILi3ELi3EE7mappingE }]
@llvm.used = appending global [1 x ptr] [ptr @_ZN6dealii15StaticMappingQ1ILi3ELi3EE7mappingE], section "llvm.metadata"

@_ZN6dealii9MappingQ1ILi3ELi3EEC1Ev = weak_odr dso_local unnamed_addr alias void (ptr), ptr @_ZN6dealii9MappingQ1ILi3ELi3EEC2Ev
@_ZN6dealii9MappingQ1ILi3ELi3EE12InternalDataC1Ej = weak_odr dso_local unnamed_addr alias void (ptr, i32), ptr @_ZN6dealii9MappingQ1ILi3ELi3EE12InternalDataC2Ej

; Function Attrs: sspstrong uwtable
define weak_odr dso_local void @_ZN6dealii9MappingQ1ILi3ELi3EEC2Ev(ptr noundef nonnull align 8 dereferenceable(72) %0) unnamed_addr #0 comdat($_ZN6dealii9MappingQ1ILi3ELi3EEC5Ev) align 2 {
  tail call void @_ZN6dealii11SubscriptorC2Ev(ptr noundef nonnull align 8 dereferenceable(72) %0)
  store ptr getelementptr inbounds ({ [19 x ptr] }, ptr @_ZTVN6dealii9MappingQ1ILi3ELi3EEE, i64 0, inrange i32 0, i64 2), ptr %0, align 8, !tbaa !5
  ret void
}

; Function Attrs: sspstrong uwtable
define weak_odr dso_local void @_ZNK6dealii9MappingQ1ILi3ELi3EE27transform_unit_to_real_cellERKNS_12TriaIteratorINS_12CellAccessorILi3ELi3EEEEERKNS_5PointILi3EEE(ptr noalias sret(%"class.dealii::Point") align 8 %0, ptr noundef nonnull align 8 dereferenceable(72) %1, ptr noundef nonnull align 8 dereferenceable(16) %2, ptr noundef nonnull align 8 dereferenceable(24) %3) unnamed_addr #0 comdat align 2 personality ptr @__gxx_personality_v0 {
  %5 = alloca %"class.dealii::Quadrature", align 8
  call void @llvm.lifetime.start.p0(i64 128, ptr nonnull %5) #17
  call void @_ZN6dealii10QuadratureILi3EEC1ERKNS_5PointILi3EEE(ptr noundef nonnull align 8 dereferenceable(128) %5, ptr noundef nonnull align 8 dereferenceable(24) %3)
  %6 = load ptr, ptr %1, align 8, !tbaa !5
  %7 = getelementptr inbounds ptr, ptr %6, i64 9
  %8 = load ptr, ptr %7, align 8
  %9 = invoke noundef ptr %8(ptr noundef nonnull align 8 dereferenceable(72) %1, i32 noundef 4096, ptr noundef nonnull align 8 dereferenceable(128) %5)
          to label %10 unwind label %14

10:                                               ; preds = %4
  %11 = icmp eq ptr %9, null
  br i1 %11, label %16, label %12

12:                                               ; preds = %10
  %13 = call ptr @__dynamic_cast(ptr nonnull %9, ptr nonnull @_ZTIN6dealii7MappingILi3ELi3EE16InternalDataBaseE, ptr nonnull @_ZTIN6dealii9MappingQ1ILi3ELi3EE12InternalDataE, i64 0) #17
  br label %16

14:                                               ; preds = %57, %4
  %15 = landingpad { ptr, i32 }
          cleanup
  br label %69

16:                                               ; preds = %10, %12
  %17 = phi ptr [ %13, %12 ], [ null, %10 ]
  %18 = getelementptr inbounds %"class.dealii::MappingQ1<3, 3>::InternalData", ptr %17, i64 0, i32 8
  %19 = load ptr, ptr %1, align 8, !tbaa !5
  %20 = getelementptr inbounds ptr, ptr %19, i64 16
  %21 = load ptr, ptr %20, align 8
  invoke void %21(ptr noundef nonnull align 8 dereferenceable(72) %1, ptr noundef nonnull align 8 dereferenceable(16) %2, ptr noundef nonnull align 8 dereferenceable(24) %18)
          to label %22 unwind label %61

22:                                               ; preds = %16
  call void @llvm.experimental.noalias.scope.decl(metadata !8)
  %23 = getelementptr inbounds %"class.dealii::MappingQ1<3, 3>::InternalData", ptr %17, i64 0, i32 8, i32 0, i32 0, i32 0, i32 1
  %24 = load ptr, ptr %23, align 8, !tbaa !11, !noalias !8
  %25 = load ptr, ptr %18, align 8, !tbaa !15, !noalias !8
  %26 = ptrtoint ptr %24 to i64
  %27 = ptrtoint ptr %25 to i64
  %28 = sub i64 %26, %27
  call void @llvm.memset.p0.i64(ptr noundef nonnull align 8 dereferenceable(24) %0, i8 0, i64 24, i1 false), !tbaa !16, !alias.scope !8
  %29 = sdiv exact i64 %28, 24
  %30 = icmp eq ptr %24, %25
  br i1 %30, label %57, label %31

31:                                               ; preds = %22
  %32 = getelementptr inbounds %"class.dealii::MappingQ1<3, 3>::InternalData", ptr %17, i64 0, i32 1
  %33 = load ptr, ptr %32, align 8, !tbaa !18, !noalias !8
  br label %34

34:                                               ; preds = %34, %31
  %35 = phi double [ 0.000000e+00, %31 ], [ %50, %34 ]
  %36 = phi i64 [ 0, %31 ], [ %52, %34 ]
  %37 = phi i32 [ 0, %31 ], [ %51, %34 ]
  %38 = phi <2 x double> [ zeroinitializer, %31 ], [ %49, %34 ]
  %39 = getelementptr inbounds %"class.dealii::Point", ptr %25, i64 %36
  %40 = getelementptr inbounds double, ptr %33, i64 %36
  %41 = load double, ptr %40, align 8, !tbaa !16, !noalias !8
  %42 = getelementptr inbounds [3 x double], ptr %39, i64 0, i64 2
  %43 = load double, ptr %42, align 8, !tbaa !16, !noalias !20
  %44 = load <2 x double>, ptr %39, align 8, !tbaa !16, !noalias !20
  %45 = insertelement <2 x double> poison, double %41, i64 0
  %46 = shufflevector <2 x double> %45, <2 x double> poison, <2 x i32> zeroinitializer
  %47 = fmul <2 x double> %46, %44
  %48 = fmul double %41, %43
  %49 = fadd <2 x double> %38, %47
  %50 = fadd double %35, %48
  %51 = add i32 %37, 1
  %52 = zext i32 %51 to i64
  %53 = icmp ugt i64 %29, %52
  br i1 %53, label %34, label %54

54:                                               ; preds = %34
  %55 = getelementptr inbounds [3 x double], ptr %0, i64 0, i64 2
  store <2 x double> %49, ptr %0, align 8, !tbaa !16, !alias.scope !8
  store double %50, ptr %55, align 8, !tbaa !16, !alias.scope !8
  %56 = icmp eq ptr %17, null
  br i1 %56, label %68, label %57

57:                                               ; preds = %22, %54
  %58 = load ptr, ptr %17, align 8, !tbaa !5
  %59 = getelementptr inbounds ptr, ptr %58, i64 1
  %60 = load ptr, ptr %59, align 8
  invoke void %60(ptr noundef nonnull align 8 dereferenceable(408) %17)
          to label %68 unwind label %14

61:                                               ; preds = %16
  %62 = landingpad { ptr, i32 }
          cleanup
  %63 = icmp eq ptr %17, null
  br i1 %63, label %69, label %64

64:                                               ; preds = %61
  %65 = load ptr, ptr %17, align 8, !tbaa !5
  %66 = getelementptr inbounds ptr, ptr %65, i64 1
  %67 = load ptr, ptr %66, align 8
  invoke void %67(ptr noundef nonnull align 8 dereferenceable(408) %17)
          to label %69 unwind label %72

68:                                               ; preds = %54, %57
  call void @_ZN6dealii10QuadratureILi3EED1Ev(ptr noundef nonnull align 8 dereferenceable(128) %5)
  call void @llvm.lifetime.end.p0(i64 128, ptr nonnull %5) #17
  ret void

69:                                               ; preds = %61, %64, %14
  %70 = phi { ptr, i32 } [ %15, %14 ], [ %62, %64 ], [ %62, %61 ]
  invoke void @_ZN6dealii10QuadratureILi3EED1Ev(ptr noundef nonnull align 8 dereferenceable(128) %5)
          to label %71 unwind label %72

71:                                               ; preds = %69
  call void @llvm.lifetime.end.p0(i64 128, ptr nonnull %5) #17
  resume { ptr, i32 } %70

72:                                               ; preds = %64, %69
  %73 = landingpad { ptr, i32 }
          catch ptr null
  %74 = extractvalue { ptr, i32 } %73, 0
  call void @__clang_call_terminate(ptr %74) #18
  unreachable
}

; Function Attrs: mustprogress nocallback nofree nosync nounwind willreturn memory(argmem: readwrite)
declare void @llvm.lifetime.start.p0(i64 immarg, ptr nocapture) #1

declare void @_ZN6dealii10QuadratureILi3EEC1ERKNS_5PointILi3EEE(ptr noundef nonnull align 8 dereferenceable(128), ptr noundef nonnull align 8 dereferenceable(24)) unnamed_addr #2

declare i32 @__gxx_personality_v0(...)

; Function Attrs: nofree nounwind memory(read)
declare ptr @__dynamic_cast(ptr, ptr, ptr, i64) local_unnamed_addr #3

; Function Attrs: sspstrong uwtable
define weak_odr dso_local void @_ZNK6dealii9MappingQ1ILi3ELi3EE36transform_unit_to_real_cell_internalERKNS1_12InternalDataE(ptr noalias sret(%"class.dealii::Point") align 8 %0, ptr noundef nonnull align 8 dereferenceable(72) %1, ptr noundef nonnull align 8 dereferenceable(408) %2) local_unnamed_addr #0 comdat align 2 {
  %4 = getelementptr inbounds %"class.dealii::MappingQ1<3, 3>::InternalData", ptr %2, i64 0, i32 8
  %5 = getelementptr inbounds %"class.dealii::MappingQ1<3, 3>::InternalData", ptr %2, i64 0, i32 8, i32 0, i32 0, i32 0, i32 1
  %6 = load ptr, ptr %5, align 8, !tbaa !11
  %7 = load ptr, ptr %4, align 8, !tbaa !15
  %8 = ptrtoint ptr %6 to i64
  %9 = ptrtoint ptr %7 to i64
  %10 = sub i64 %8, %9
  tail call void @llvm.memset.p0.i64(ptr noundef nonnull align 8 dereferenceable(24) %0, i8 0, i64 24, i1 false), !tbaa !16
  %11 = sdiv exact i64 %10, 24
  %12 = icmp eq ptr %6, %7
  br i1 %12, label %18, label %13

13:                                               ; preds = %3
  %14 = getelementptr inbounds %"class.dealii::MappingQ1<3, 3>::InternalData", ptr %2, i64 0, i32 1
  %15 = load ptr, ptr %14, align 8, !tbaa !18
  %16 = getelementptr inbounds [3 x double], ptr %0, i64 0, i64 2
  br label %19

17:                                               ; preds = %19
  store <2 x double> %34, ptr %0, align 8, !tbaa !16
  store double %35, ptr %16, align 8, !tbaa !16
  br label %18

18:                                               ; preds = %17, %3
  ret void

19:                                               ; preds = %13, %19
  %20 = phi double [ 0.000000e+00, %13 ], [ %35, %19 ]
  %21 = phi i64 [ 0, %13 ], [ %37, %19 ]
  %22 = phi i32 [ 0, %13 ], [ %36, %19 ]
  %23 = phi <2 x double> [ zeroinitializer, %13 ], [ %34, %19 ]
  %24 = getelementptr inbounds %"class.dealii::Point", ptr %7, i64 %21
  %25 = getelementptr inbounds double, ptr %15, i64 %21
  %26 = load double, ptr %25, align 8, !tbaa !16
  %27 = getelementptr inbounds [3 x double], ptr %24, i64 0, i64 2
  %28 = load double, ptr %27, align 8, !tbaa !16, !noalias !23
  %29 = load <2 x double>, ptr %24, align 8, !tbaa !16, !noalias !23
  %30 = insertelement <2 x double> poison, double %26, i64 0
  %31 = shufflevector <2 x double> %30, <2 x double> poison, <2 x i32> zeroinitializer
  %32 = fmul <2 x double> %31, %29
  %33 = fmul double %26, %28
  %34 = fadd <2 x double> %32, %23
  %35 = fadd double %33, %20
  %36 = add i32 %22, 1
  %37 = zext i32 %36 to i64
  %38 = icmp ugt i64 %11, %37
  br i1 %38, label %19, label %17
}

; Function Attrs: noinline noreturn nounwind sspstrong uwtable
define linkonce_odr hidden void @__clang_call_terminate(ptr noundef %0) local_unnamed_addr #4 comdat {
  %2 = tail call ptr @__cxa_begin_catch(ptr %0) #17
  tail call void @_ZSt9terminatev() #18
  unreachable
}

declare ptr @__cxa_begin_catch(ptr) local_unnamed_addr

declare void @_ZSt9terminatev() local_unnamed_addr

; Function Attrs: mustprogress nocallback nofree nosync nounwind willreturn memory(argmem: readwrite)
declare void @llvm.lifetime.end.p0(i64 immarg, ptr nocapture) #1

declare void @_ZN6dealii10QuadratureILi3EED1Ev(ptr noundef nonnull align 8 dereferenceable(128)) unnamed_addr #2

; Function Attrs: sspstrong uwtable
define weak_odr dso_local void @_ZNK6dealii9MappingQ1ILi3ELi3EE27transform_real_to_unit_cellERKNS_12TriaIteratorINS_12CellAccessorILi3ELi3EEEEERKNS_5PointILi3EEE(ptr noalias sret(%"class.dealii::Point") align 8 %0, ptr noundef nonnull align 8 dereferenceable(72) %1, ptr noundef nonnull align 8 dereferenceable(16) %2, ptr noundef nonnull align 8 dereferenceable(24) %3) unnamed_addr #0 comdat align 2 personality ptr @__gxx_personality_v0 {
  %5 = alloca %"class.dealii::Quadrature", align 8
  store <2 x double> <double 5.000000e-01, double 5.000000e-01>, ptr %0, align 8, !tbaa !16
  %6 = getelementptr inbounds [3 x double], ptr %0, i64 0, i64 2
  store double 5.000000e-01, ptr %6, align 8, !tbaa !16
  call void @llvm.lifetime.start.p0(i64 128, ptr nonnull %5) #17
  call void @_ZN6dealii10QuadratureILi3EEC1ERKNS_5PointILi3EEE(ptr noundef nonnull align 8 dereferenceable(128) %5, ptr noundef nonnull align 8 dereferenceable(24) %0)
  %7 = invoke noalias noundef nonnull dereferenceable(408) ptr @_Znwm(i64 noundef 408) #19
          to label %8 unwind label %27

8:                                                ; preds = %4
  invoke void @_ZN6dealii7MappingILi3ELi3EE16InternalDataBaseC2Ev(ptr noundef nonnull align 8 dereferenceable(185) %7)
          to label %9 unwind label %25

9:                                                ; preds = %8
  store ptr getelementptr inbounds ({ [6 x ptr] }, ptr @_ZTVN6dealii9MappingQ1ILi3ELi3EE12InternalDataE, i64 0, inrange i32 0, i64 2), ptr %7, align 8, !tbaa !5
  %10 = getelementptr inbounds %"class.dealii::MappingQ1<3, 3>::InternalData", ptr %7, i64 0, i32 1
  %11 = getelementptr inbounds %"class.dealii::MappingQ1<3, 3>::InternalData", ptr %7, i64 0, i32 9
  call void @llvm.memset.p0.i64(ptr noundef nonnull align 8 dereferenceable(192) %10, i8 0, i64 192, i1 false)
  store i32 -2, ptr %11, align 8, !tbaa !26
  %12 = getelementptr inbounds %"class.dealii::MappingQ1<3, 3>::InternalData", ptr %7, i64 0, i32 9, i32 0, i32 0, i32 0, i32 0, i32 1
  store i32 -2, ptr %12, align 4, !tbaa !29
  %13 = getelementptr inbounds %"class.dealii::MappingQ1<3, 3>::InternalData", ptr %7, i64 0, i32 9, i32 0, i32 0, i32 0, i32 0, i32 2
  store ptr null, ptr %13, align 8, !tbaa !30
  %14 = getelementptr inbounds %"class.dealii::MappingQ1<3, 3>::InternalData", ptr %7, i64 0, i32 10
  store i8 1, ptr %14, align 8, !tbaa !31
  %15 = getelementptr inbounds %"class.dealii::MappingQ1<3, 3>::InternalData", ptr %7, i64 0, i32 11
  store i32 8, ptr %15, align 4, !tbaa !68
  %16 = getelementptr inbounds %"class.dealii::Quadrature", ptr %5, i64 0, i32 3
  %17 = getelementptr inbounds %"class.dealii::Quadrature", ptr %5, i64 0, i32 3, i32 0, i32 0, i32 0, i32 1
  %18 = load ptr, ptr %17, align 8, !tbaa !69
  %19 = load ptr, ptr %16, align 8, !tbaa !18
  %20 = ptrtoint ptr %18 to i64
  %21 = ptrtoint ptr %19 to i64
  %22 = sub i64 %20, %21
  %23 = lshr exact i64 %22, 3
  %24 = trunc i64 %23 to i32
  invoke void @_ZNK6dealii9MappingQ1ILi3ELi3EE12compute_dataENS_11UpdateFlagsERKNS_10QuadratureILi3EEEjRNS1_12InternalDataE(ptr noundef nonnull align 8 dereferenceable(72) %1, i32 noundef 12288, ptr noundef nonnull align 8 dereferenceable(128) %5, i32 noundef %24, ptr noundef nonnull align 8 dereferenceable(408) %7)
          to label %29 unwind label %27

25:                                               ; preds = %8
  %26 = landingpad { ptr, i32 }
          cleanup
  call void @_ZdlPv(ptr noundef nonnull %7) #20
  br label %45

27:                                               ; preds = %33, %9, %4
  %28 = landingpad { ptr, i32 }
          cleanup
  br label %45

29:                                               ; preds = %9
  %30 = call ptr @__dynamic_cast(ptr nonnull %7, ptr nonnull @_ZTIN6dealii7MappingILi3ELi3EE16InternalDataBaseE, ptr nonnull @_ZTIN6dealii9MappingQ1ILi3ELi3EE12InternalDataE, i64 0) #17
  %31 = getelementptr inbounds %"class.dealii::MappingQ1<3, 3>::InternalData", ptr %30, i64 0, i32 8
  invoke void @_ZNK6dealii9MappingQ1ILi3ELi3EE30compute_mapping_support_pointsERKNS_12TriaIteratorINS_12CellAccessorILi3ELi3EEEEERSt6vectorINS_5PointILi3EEESaISA_EE(ptr noundef nonnull align 8 dereferenceable(72) %1, ptr noundef nonnull align 8 dereferenceable(16) %2, ptr noundef nonnull align 8 dereferenceable(24) %31)
          to label %32 unwind label %37

32:                                               ; preds = %29
  invoke void @_ZNK6dealii9MappingQ1ILi3ELi3EE36transform_real_to_unit_cell_internalERKNS_12TriaIteratorINS_12CellAccessorILi3ELi3EEEEERKNS_5PointILi3EEERNS1_12InternalDataERS9_(ptr noundef nonnull align 8 dereferenceable(72) %1, ptr noundef nonnull align 8 dereferenceable(16) %2, ptr noundef nonnull align 8 dereferenceable(24) %3, ptr noundef nonnull align 8 dereferenceable(408) %30, ptr noundef nonnull align 8 dereferenceable(24) %0)
          to label %33 unwind label %37

33:                                               ; preds = %32
  %34 = load ptr, ptr %30, align 8, !tbaa !5
  %35 = getelementptr inbounds ptr, ptr %34, i64 1
  %36 = load ptr, ptr %35, align 8
  invoke void %36(ptr noundef nonnull align 8 dereferenceable(408) %30)
          to label %44 unwind label %27

37:                                               ; preds = %32, %29
  %38 = landingpad { ptr, i32 }
          cleanup
  %39 = icmp eq ptr %30, null
  br i1 %39, label %45, label %40

40:                                               ; preds = %37
  %41 = load ptr, ptr %30, align 8, !tbaa !5
  %42 = getelementptr inbounds ptr, ptr %41, i64 1
  %43 = load ptr, ptr %42, align 8
  invoke void %43(ptr noundef nonnull align 8 dereferenceable(408) %30)
          to label %45 unwind label %48

44:                                               ; preds = %33
  call void @_ZN6dealii10QuadratureILi3EED1Ev(ptr noundef nonnull align 8 dereferenceable(128) %5)
  call void @llvm.lifetime.end.p0(i64 128, ptr nonnull %5) #17
  ret void

45:                                               ; preds = %37, %40, %27, %25
  %46 = phi { ptr, i32 } [ %28, %27 ], [ %26, %25 ], [ %38, %40 ], [ %38, %37 ]
  invoke void @_ZN6dealii10QuadratureILi3EED1Ev(ptr noundef nonnull align 8 dereferenceable(128) %5)
          to label %47 unwind label %48

47:                                               ; preds = %45
  call void @llvm.lifetime.end.p0(i64 128, ptr nonnull %5) #17
  resume { ptr, i32 } %46

48:                                               ; preds = %40, %45
  %49 = landingpad { ptr, i32 }
          catch ptr null
  %50 = extractvalue { ptr, i32 } %49, 0
  call void @__clang_call_terminate(ptr %50) #18
  unreachable
}

; Function Attrs: sspstrong uwtable
define weak_odr dso_local noundef ptr @_ZNK6dealii9MappingQ1ILi3ELi3EE8get_dataENS_11UpdateFlagsERKNS_10QuadratureILi3EEE(ptr noundef nonnull align 8 dereferenceable(72) %0, i32 noundef %1, ptr noundef nonnull align 8 dereferenceable(128) %2) unnamed_addr #0 comdat align 2 personality ptr @__gxx_personality_v0 {
  %4 = tail call noalias noundef nonnull dereferenceable(408) ptr @_Znwm(i64 noundef 408) #19
  invoke void @_ZN6dealii7MappingILi3ELi3EE16InternalDataBaseC2Ev(ptr noundef nonnull align 8 dereferenceable(185) %4)
          to label %5 unwind label %21

5:                                                ; preds = %3
  store ptr getelementptr inbounds ({ [6 x ptr] }, ptr @_ZTVN6dealii9MappingQ1ILi3ELi3EE12InternalDataE, i64 0, inrange i32 0, i64 2), ptr %4, align 8, !tbaa !5
  %6 = getelementptr inbounds %"class.dealii::MappingQ1<3, 3>::InternalData", ptr %4, i64 0, i32 1
  %7 = getelementptr inbounds %"class.dealii::MappingQ1<3, 3>::InternalData", ptr %4, i64 0, i32 9
  tail call void @llvm.memset.p0.i64(ptr noundef nonnull align 8 dereferenceable(192) %6, i8 0, i64 192, i1 false)
  store i32 -2, ptr %7, align 8, !tbaa !26
  %8 = getelementptr inbounds %"class.dealii::MappingQ1<3, 3>::InternalData", ptr %4, i64 0, i32 9, i32 0, i32 0, i32 0, i32 0, i32 1
  store i32 -2, ptr %8, align 4, !tbaa !29
  %9 = getelementptr inbounds %"class.dealii::MappingQ1<3, 3>::InternalData", ptr %4, i64 0, i32 9, i32 0, i32 0, i32 0, i32 0, i32 2
  store ptr null, ptr %9, align 8, !tbaa !30
  %10 = getelementptr inbounds %"class.dealii::MappingQ1<3, 3>::InternalData", ptr %4, i64 0, i32 10
  store i8 1, ptr %10, align 8, !tbaa !31
  %11 = getelementptr inbounds %"class.dealii::MappingQ1<3, 3>::InternalData", ptr %4, i64 0, i32 11
  store i32 8, ptr %11, align 4, !tbaa !68
  %12 = getelementptr inbounds %"class.dealii::Quadrature", ptr %2, i64 0, i32 3
  %13 = getelementptr inbounds %"class.dealii::Quadrature", ptr %2, i64 0, i32 3, i32 0, i32 0, i32 0, i32 1
  %14 = load ptr, ptr %13, align 8, !tbaa !69
  %15 = load ptr, ptr %12, align 8, !tbaa !18
  %16 = ptrtoint ptr %14 to i64
  %17 = ptrtoint ptr %15 to i64
  %18 = sub i64 %16, %17
  %19 = lshr exact i64 %18, 3
  %20 = trunc i64 %19 to i32
  tail call void @_ZNK6dealii9MappingQ1ILi3ELi3EE12compute_dataENS_11UpdateFlagsERKNS_10QuadratureILi3EEEjRNS1_12InternalDataE(ptr noundef nonnull align 8 dereferenceable(72) %0, i32 noundef %1, ptr noundef nonnull align 8 dereferenceable(128) %2, i32 noundef %20, ptr noundef nonnull align 8 dereferenceable(408) %4)
  ret ptr %4

21:                                               ; preds = %3
  %22 = landingpad { ptr, i32 }
          cleanup
  tail call void @_ZdlPv(ptr noundef nonnull %4) #20
  resume { ptr, i32 } %22
}

; Function Attrs: sspstrong uwtable
define weak_odr dso_local void @_ZNK6dealii9MappingQ1ILi3ELi3EE30compute_mapping_support_pointsERKNS_12TriaIteratorINS_12CellAccessorILi3ELi3EEEEERSt6vectorINS_5PointILi3EEESaISA_EE(ptr noundef nonnull align 8 dereferenceable(72) %0, ptr noundef nonnull align 8 dereferenceable(16) %1, ptr noundef nonnull align 8 dereferenceable(24) %2) unnamed_addr #0 comdat align 2 {
  %4 = alloca %"class.dealii::Point", align 8
  call void @llvm.memset.p0.i64(ptr noundef nonnull align 8 dereferenceable(24) %4, i8 0, i64 24, i1 false), !tbaa !16
  %5 = getelementptr inbounds %"struct.std::_Vector_base<dealii::Point<3>, std::allocator<dealii::Point<3> > >::_Vector_impl_data", ptr %2, i64 0, i32 1
  %6 = load ptr, ptr %5, align 8, !tbaa !70
  %7 = load ptr, ptr %2, align 8, !tbaa !15
  %8 = ptrtoint ptr %6 to i64
  %9 = ptrtoint ptr %7 to i64
  %10 = sub i64 %8, %9
  %11 = sdiv exact i64 %10, 24
  %12 = icmp ult i64 %11, 8
  br i1 %12, label %13, label %15

13:                                               ; preds = %3
  %14 = sub nuw nsw i64 8, %11
  call void @_ZNSt6vectorIN6dealii5PointILi3EEESaIS2_EE14_M_fill_insertEN9__gnu_cxx17__normal_iteratorIPS2_S4_EEmRKS2_(ptr noundef nonnull align 8 dereferenceable(24) %2, ptr %6, i64 noundef %14, ptr noundef nonnull align 8 dereferenceable(24) %4)
  br label %21

15:                                               ; preds = %3
  %16 = icmp eq i64 %10, 192
  br i1 %16, label %21, label %17

17:                                               ; preds = %15
  %18 = getelementptr inbounds %"class.dealii::Point", ptr %7, i64 8
  %19 = icmp eq ptr %6, %18
  br i1 %19, label %21, label %20

20:                                               ; preds = %17
  store ptr %18, ptr %5, align 8, !tbaa !11
  br label %21

21:                                               ; preds = %13, %15, %17, %20
  %22 = getelementptr inbounds %"class.dealii::TriaAccessorBase", ptr %1, i64 0, i32 2
  %23 = getelementptr inbounds %"class.dealii::TriaAccessorBase", ptr %1, i64 0, i32 1
  br label %25

24:                                               ; preds = %25
  ret void

25:                                               ; preds = %21, %25
  %26 = phi i64 [ 0, %21 ], [ %117, %25 ]
  %27 = load ptr, ptr %22, align 8, !tbaa !30
  %28 = getelementptr inbounds %"class.dealii::Triangulation", ptr %27, i64 0, i32 3
  %29 = trunc i64 %26 to i32
  %30 = lshr i32 %29, 2
  %31 = add nuw nsw i32 %30, 4
  %32 = getelementptr inbounds %"class.dealii::Triangulation", ptr %27, i64 0, i32 1
  %33 = load i32, ptr %1, align 8, !tbaa !26
  %34 = sext i32 %33 to i64
  %35 = load ptr, ptr %32, align 8, !tbaa !71
  %36 = getelementptr inbounds ptr, ptr %35, i64 %34
  %37 = load ptr, ptr %36, align 8, !tbaa !70
  %38 = getelementptr inbounds %"class.dealii::internal::Triangulation::TriaLevel", ptr %37, i64 0, i32 4
  %39 = load i32, ptr %23, align 4, !tbaa !29
  %40 = sext i32 %39 to i64
  %41 = load ptr, ptr %38, align 8, !tbaa !73, !noalias !75
  %42 = getelementptr inbounds %"class.dealii::internal::Triangulation::TriaObject", ptr %41, i64 %40
  %43 = zext i32 %31 to i64
  %44 = getelementptr inbounds [6 x i32], ptr %42, i64 0, i64 %43
  %45 = load i32, ptr %44, align 4, !tbaa !78, !noalias !75
  %46 = and i32 %29, 3
  %47 = getelementptr inbounds %"class.dealii::internal::Triangulation::TriaLevel", ptr %37, i64 0, i32 4, i32 1
  %48 = mul i32 %39, 6
  %49 = add i32 %48, %31
  %50 = load ptr, ptr %47, align 8, !tbaa !79
  %51 = lshr i32 %49, 6
  %52 = zext i32 %51 to i64
  %53 = getelementptr inbounds i64, ptr %50, i64 %52
  %54 = and i32 %49, 63
  %55 = zext i32 %54 to i64
  %56 = shl nuw i64 1, %55
  %57 = load i64, ptr %53, align 8, !tbaa !81
  %58 = and i64 %56, %57
  %59 = icmp ne i64 %58, 0
  %60 = getelementptr inbounds %"class.dealii::internal::Triangulation::TriaLevel", ptr %37, i64 0, i32 4, i32 2
  %61 = load ptr, ptr %60, align 8, !tbaa !79
  %62 = getelementptr inbounds i64, ptr %61, i64 %52
  %63 = load i64, ptr %62, align 8, !tbaa !81
  %64 = and i64 %63, %56
  %65 = icmp ne i64 %64, 0
  %66 = getelementptr inbounds %"class.dealii::internal::Triangulation::TriaLevel", ptr %37, i64 0, i32 4, i32 3
  %67 = load ptr, ptr %66, align 8, !tbaa !79
  %68 = getelementptr inbounds i64, ptr %67, i64 %52
  %69 = load i64, ptr %68, align 8, !tbaa !81
  %70 = and i64 %69, %56
  %71 = icmp ne i64 %70, 0
  %72 = call noundef i32 @_ZN6dealii12GeometryInfoILi3EE28standard_to_real_face_vertexEjbbb(i32 noundef %46, i1 noundef zeroext %59, i1 noundef zeroext %65, i1 noundef zeroext %71)
  %73 = and i32 %72, 1
  %74 = getelementptr inbounds %"class.dealii::Triangulation", ptr %27, i64 0, i32 2
  %75 = load ptr, ptr %74, align 8, !tbaa !82
  %76 = sext i32 %45 to i64
  %77 = load ptr, ptr %75, align 8, !tbaa !105, !noalias !107
  %78 = getelementptr inbounds %"class.dealii::internal::Triangulation::TriaObject.155", ptr %77, i64 %76
  %79 = zext i32 %73 to i64
  %80 = getelementptr inbounds [4 x i32], ptr %78, i64 0, i64 %79
  %81 = load i32, ptr %80, align 4, !tbaa !78, !noalias !107
  %82 = getelementptr inbounds %"class.dealii::internal::Triangulation::TriaObjectsQuad3D", ptr %75, i64 0, i32 1
  %83 = shl i32 %45, 2
  %84 = load ptr, ptr %82, align 8, !tbaa !79
  %85 = lshr i32 %83, 6
  %86 = zext i32 %85 to i64
  %87 = getelementptr inbounds i64, ptr %84, i64 %86
  %88 = and i32 %83, 60
  %89 = or i32 %73, %88
  %90 = zext i32 %89 to i64
  %91 = load i64, ptr %87, align 8, !tbaa !81
  %92 = lshr i64 %91, %90
  %93 = and i64 %92, 1
  %94 = lshr i32 %72, 1
  %95 = zext i32 %94 to i64
  %96 = getelementptr inbounds [2 x [2 x i32]], ptr @_ZZN6dealii8internal12TriaAccessor14Implementation12vertex_indexILi3ELi3EEEjRKNS_12TriaAccessorILi2EXT_EXT0_EEEjE12switch_table, i64 0, i64 %93, i64 %95
  %97 = load i32, ptr %96, align 4, !tbaa !78
  %98 = getelementptr inbounds %"class.dealii::internal::Triangulation::TriaFaces", ptr %75, i64 0, i32 1
  %99 = sext i32 %81 to i64
  %100 = load ptr, ptr %98, align 8, !tbaa !110
  %101 = getelementptr inbounds %"class.dealii::internal::Triangulation::TriaObject.156", ptr %100, i64 %99
  %102 = zext i32 %97 to i64
  %103 = getelementptr inbounds [2 x i32], ptr %101, i64 0, i64 %102
  %104 = load i32, ptr %103, align 4, !tbaa !78
  %105 = zext i32 %104 to i64
  %106 = load ptr, ptr %28, align 8, !tbaa !15
  %107 = getelementptr inbounds %"class.dealii::Point", ptr %106, i64 %105
  %108 = load ptr, ptr %2, align 8, !tbaa !15
  %109 = getelementptr inbounds %"class.dealii::Point", ptr %108, i64 %26
  %110 = load double, ptr %107, align 8, !tbaa !16
  store double %110, ptr %109, align 8, !tbaa !16
  %111 = getelementptr inbounds [3 x double], ptr %107, i64 0, i64 1
  %112 = load double, ptr %111, align 8, !tbaa !16
  %113 = getelementptr inbounds [3 x double], ptr %109, i64 0, i64 1
  store double %112, ptr %113, align 8, !tbaa !16
  %114 = getelementptr inbounds [3 x double], ptr %107, i64 0, i64 2
  %115 = load double, ptr %114, align 8, !tbaa !16
  %116 = getelementptr inbounds [3 x double], ptr %109, i64 0, i64 2
  store double %115, ptr %116, align 8, !tbaa !16
  %117 = add nuw nsw i64 %26, 1
  %118 = icmp eq i64 %117, 8
  br i1 %118, label %24, label %25
}

; Function Attrs: sspstrong uwtable
define weak_odr dso_local void @_ZNK6dealii9MappingQ1ILi3ELi3EE36transform_real_to_unit_cell_internalERKNS_12TriaIteratorINS_12CellAccessorILi3ELi3EEEEERKNS_5PointILi3EEERNS1_12InternalDataERS9_(ptr noundef nonnull align 8 dereferenceable(72) %0, ptr noundef nonnull align 8 dereferenceable(16) %1, ptr noundef nonnull align 8 dereferenceable(24) %2, ptr noundef nonnull align 8 dereferenceable(408) %3, ptr noundef nonnull align 8 dereferenceable(24) %4) local_unnamed_addr #0 comdat align 2 personality ptr @__gxx_personality_v0 {
  %6 = alloca %"class.std::vector", align 8
  %7 = getelementptr inbounds %"class.dealii::MappingQ1<3, 3>::InternalData", ptr %3, i64 0, i32 1
  %8 = load ptr, ptr %7, align 8, !tbaa !18
  %9 = getelementptr inbounds %"class.dealii::MappingQ1<3, 3>::InternalData", ptr %3, i64 0, i32 8
  %10 = getelementptr inbounds %"class.dealii::MappingQ1<3, 3>::InternalData", ptr %3, i64 0, i32 8, i32 0, i32 0, i32 0, i32 1
  %11 = load ptr, ptr %10, align 8, !tbaa !11, !noalias !112
  %12 = load ptr, ptr %9, align 8, !tbaa !15, !noalias !112
  %13 = ptrtoint ptr %11 to i64
  %14 = ptrtoint ptr %12 to i64
  %15 = sub i64 %13, %14
  %16 = sdiv exact i64 %15, 24
  %17 = icmp eq ptr %11, %12
  br i1 %17, label %38, label %18

18:                                               ; preds = %5, %18
  %19 = phi i64 [ %36, %18 ], [ 0, %5 ]
  %20 = phi i32 [ %35, %18 ], [ 0, %5 ]
  %21 = phi double [ %33, %18 ], [ 0.000000e+00, %5 ]
  %22 = phi <2 x double> [ %34, %18 ], [ zeroinitializer, %5 ]
  %23 = getelementptr inbounds %"class.dealii::Point", ptr %12, i64 %19
  %24 = getelementptr inbounds double, ptr %8, i64 %19
  %25 = load double, ptr %24, align 8, !tbaa !16, !noalias !112
  %26 = load double, ptr %23, align 8, !tbaa !16, !noalias !115
  %27 = getelementptr inbounds [3 x double], ptr %23, i64 0, i64 1
  %28 = fmul double %25, %26
  %29 = load <2 x double>, ptr %27, align 8, !tbaa !16, !noalias !115
  %30 = insertelement <2 x double> poison, double %25, i64 0
  %31 = shufflevector <2 x double> %30, <2 x double> poison, <2 x i32> zeroinitializer
  %32 = fmul <2 x double> %31, %29
  %33 = fadd double %21, %28
  %34 = fadd <2 x double> %22, %32
  %35 = add i32 %20, 1
  %36 = zext i32 %35 to i64
  %37 = icmp ugt i64 %16, %36
  br i1 %37, label %18, label %38

38:                                               ; preds = %18, %5
  %39 = phi double [ 0.000000e+00, %5 ], [ %33, %18 ]
  %40 = phi <2 x double> [ zeroinitializer, %5 ], [ %34, %18 ]
  %41 = load double, ptr %2, align 8, !tbaa !16, !noalias !118
  %42 = fsub double %39, %41
  %43 = getelementptr inbounds [3 x double], ptr %2, i64 0, i64 1
  %44 = load <2 x double>, ptr %43, align 8, !tbaa !16, !noalias !118
  %45 = fsub <2 x double> %40, %44
  %46 = tail call noundef double @_ZNK6dealii12TriaAccessorILi3ELi3ELi3EE8diameterEv(ptr noundef nonnull align 8 dereferenceable(16) %1)
  %47 = fmul double %46, 1.000000e-15
  %48 = fmul double %47, %47
  %49 = tail call double @llvm.fmuladd.f64(double %42, double %42, double 0.000000e+00)
  %50 = extractelement <2 x double> %45, i64 0
  %51 = tail call double @llvm.fmuladd.f64(double %50, double %50, double %49)
  %52 = extractelement <2 x double> %45, i64 1
  %53 = tail call double @llvm.fmuladd.f64(double %52, double %52, double %51)
  %54 = fcmp ogt double %53, %48
  br i1 %54, label %55, label %256

55:                                               ; preds = %38
  %56 = getelementptr inbounds %"class.dealii::MappingQ1<3, 3>::InternalData", ptr %3, i64 0, i32 11
  %57 = getelementptr inbounds %"class.dealii::MappingQ1<3, 3>::InternalData", ptr %3, i64 0, i32 2
  %58 = getelementptr inbounds [3 x double], ptr %4, i64 0, i64 2
  %59 = getelementptr inbounds %"struct.std::_Vector_base<dealii::Point<3>, std::allocator<dealii::Point<3> > >::_Vector_impl_data", ptr %6, i64 0, i32 2
  %60 = getelementptr inbounds %"struct.std::_Vector_base<dealii::Point<3>, std::allocator<dealii::Point<3> > >::_Vector_impl_data", ptr %6, i64 0, i32 1
  %61 = getelementptr inbounds %"class.dealii::MappingQ1<3, 3>::InternalData", ptr %3, i64 0, i32 10
  br label %62

62:                                               ; preds = %55, %234
  %63 = phi i32 [ 0, %55 ], [ %66, %234 ]
  %64 = phi double [ %42, %55 ], [ %239, %234 ]
  %65 = phi <2 x double> [ %45, %55 ], [ %243, %234 ]
  %66 = add nuw nsw i32 %63, 1
  %67 = icmp eq i32 %63, 10
  br i1 %67, label %256, label %68

68:                                               ; preds = %62
  %69 = load i32, ptr %56, align 4, !tbaa !68
  %70 = icmp eq i32 %69, 0
  br i1 %70, label %78, label %71

71:                                               ; preds = %68
  %72 = load ptr, ptr %57, align 8, !tbaa !121
  %73 = load ptr, ptr %9, align 8, !tbaa !15
  %74 = zext i32 %69 to i64
  br label %166

75:                                               ; preds = %166
  %76 = extractelement <2 x double> %191, i64 1
  %77 = extractelement <2 x double> %191, i64 0
  br label %78

78:                                               ; preds = %75, %68
  %79 = phi double [ 0.000000e+00, %68 ], [ %77, %75 ]
  %80 = phi double [ 0.000000e+00, %68 ], [ %76, %75 ]
  %81 = phi double [ 0.000000e+00, %68 ], [ %192, %75 ]
  %82 = phi <2 x double> [ zeroinitializer, %68 ], [ %180, %75 ]
  %83 = phi <2 x double> [ zeroinitializer, %68 ], [ %184, %75 ]
  %84 = phi <2 x double> [ zeroinitializer, %68 ], [ %188, %75 ]
  %85 = extractelement <2 x double> %82, i64 0
  %86 = fmul double %85, %79
  %87 = fmul <2 x double> %82, %83
  %88 = extractelement <2 x double> %82, i64 1
  %89 = extractelement <2 x double> %84, i64 1
  %90 = fmul double %89, %88
  %91 = extractelement <2 x double> %84, i64 0
  %92 = fmul double %89, %91
  %93 = extractelement <2 x double> %87, i64 0
  %94 = fneg double %93
  %95 = fmul double %80, %94
  %96 = call double @llvm.fmuladd.f64(double %86, double %81, double %95)
  %97 = fneg double %90
  %98 = call double @llvm.fmuladd.f64(double %97, double %81, double %96)
  %99 = extractelement <2 x double> %87, i64 1
  %100 = call double @llvm.fmuladd.f64(double %99, double %80, double %98)
  %101 = extractelement <2 x double> %83, i64 0
  %102 = call double @llvm.fmuladd.f64(double %92, double %101, double %100)
  %103 = extractelement <2 x double> %83, i64 1
  %104 = fneg double %103
  %105 = fmul double %91, %104
  %106 = call double @llvm.fmuladd.f64(double %105, double %79, double %102)
  %107 = fdiv double 1.000000e+00, %106
  %108 = fneg double %101
  %109 = fmul double %80, %108
  %110 = call double @llvm.fmuladd.f64(double %79, double %81, double %109)
  %111 = fmul double %80, %104
  %112 = call double @llvm.fmuladd.f64(double %89, double %81, double %111)
  %113 = fneg double %112
  %114 = fneg double %89
  %115 = fmul double %79, %103
  %116 = call double @llvm.fmuladd.f64(double %114, double %101, double %115)
  %117 = fmul double %91, %108
  %118 = call double @llvm.fmuladd.f64(double %88, double %81, double %117)
  %119 = fneg double %118
  %120 = call double @llvm.fmuladd.f64(double %85, double %81, double %105)
  %121 = fsub double %93, %99
  %122 = fneg double %88
  %123 = fmul double %79, %91
  %124 = call double @llvm.fmuladd.f64(double %122, double %80, double %123)
  %125 = fneg double %124
  %126 = fmul double %107, %125
  %127 = fneg double %92
  %128 = call double @llvm.fmuladd.f64(double %85, double %80, double %127)
  %129 = fneg double %128
  %130 = fmul double %107, %129
  %131 = fsub double %86, %90
  %132 = fmul double %131, %107
  %133 = call double @llvm.fmuladd.f64(double %126, double %64, double 0.000000e+00)
  %134 = extractelement <2 x double> %65, i64 0
  %135 = call double @llvm.fmuladd.f64(double %130, double %134, double %133)
  %136 = extractelement <2 x double> %65, i64 1
  %137 = call double @llvm.fmuladd.f64(double %132, double %136, double %135)
  %138 = insertelement <2 x double> poison, double %110, i64 0
  %139 = insertelement <2 x double> %138, double %119, i64 1
  %140 = insertelement <2 x double> poison, double %107, i64 0
  %141 = shufflevector <2 x double> %140, <2 x double> poison, <2 x i32> zeroinitializer
  %142 = fmul <2 x double> %139, %141
  %143 = insertelement <2 x double> poison, double %113, i64 0
  %144 = insertelement <2 x double> %143, double %120, i64 1
  %145 = fmul <2 x double> %141, %144
  %146 = insertelement <2 x double> poison, double %116, i64 0
  %147 = insertelement <2 x double> %146, double %121, i64 1
  %148 = fneg <2 x double> %147
  %149 = fmul <2 x double> %141, %148
  %150 = insertelement <2 x double> poison, double %64, i64 0
  %151 = shufflevector <2 x double> %150, <2 x double> poison, <2 x i32> zeroinitializer
  %152 = call <2 x double> @llvm.fmuladd.v2f64(<2 x double> %142, <2 x double> %151, <2 x double> zeroinitializer)
  %153 = shufflevector <2 x double> %65, <2 x double> poison, <2 x i32> zeroinitializer
  %154 = call <2 x double> @llvm.fmuladd.v2f64(<2 x double> %145, <2 x double> %153, <2 x double> %152)
  %155 = shufflevector <2 x double> %65, <2 x double> poison, <2 x i32> <i32 1, i32 1>
  %156 = call <2 x double> @llvm.fmuladd.v2f64(<2 x double> %149, <2 x double> %155, <2 x double> %154)
  %157 = load <2 x double>, ptr %4, align 8, !tbaa !16
  %158 = fsub <2 x double> %157, %156
  store <2 x double> %158, ptr %4, align 8, !tbaa !16
  %159 = load double, ptr %58, align 8, !tbaa !16
  %160 = fsub double %159, %137
  store double %160, ptr %58, align 8, !tbaa !16
  call void @llvm.lifetime.start.p0(i64 24, ptr nonnull %6) #17
  %161 = call noalias noundef nonnull dereferenceable(24) ptr @_Znwm(i64 noundef 24) #19
  store ptr %161, ptr %6, align 8, !tbaa !15
  %162 = getelementptr inbounds %"class.dealii::Point", ptr %161, i64 1
  store ptr %162, ptr %59, align 8, !tbaa !122
  store <2 x double> %158, ptr %161, align 8, !tbaa !16
  %163 = getelementptr inbounds [3 x double], ptr %161, i64 0, i64 2
  store double %160, ptr %163, align 8, !tbaa !16
  store ptr %162, ptr %60, align 8, !tbaa !11
  %164 = load i8, ptr %61, align 8, !tbaa !31, !range !123, !noundef !124
  %165 = icmp eq i8 %164, 0
  br i1 %165, label %196, label %195

166:                                              ; preds = %71, %166
  %167 = phi double [ 0.000000e+00, %71 ], [ %192, %166 ]
  %168 = phi i64 [ 0, %71 ], [ %193, %166 ]
  %169 = phi <2 x double> [ zeroinitializer, %71 ], [ %180, %166 ]
  %170 = phi <2 x double> [ zeroinitializer, %71 ], [ %184, %166 ]
  %171 = phi <2 x double> [ zeroinitializer, %71 ], [ %188, %166 ]
  %172 = phi <2 x double> [ zeroinitializer, %71 ], [ %191, %166 ]
  %173 = getelementptr inbounds %"class.dealii::Tensor", ptr %72, i64 %168
  %174 = getelementptr inbounds %"class.dealii::Point", ptr %73, i64 %168
  %175 = load <2 x double>, ptr %173, align 8, !tbaa !16
  %176 = getelementptr inbounds [3 x double], ptr %173, i64 0, i64 2
  %177 = load double, ptr %176, align 8, !tbaa !16
  %178 = load <2 x double>, ptr %174, align 8, !tbaa !16
  %179 = shufflevector <2 x double> %175, <2 x double> poison, <2 x i32> zeroinitializer
  %180 = call <2 x double> @llvm.fmuladd.v2f64(<2 x double> %178, <2 x double> %179, <2 x double> %169)
  %181 = shufflevector <2 x double> %178, <2 x double> poison, <2 x i32> <i32 1, i32 0>
  %182 = insertelement <2 x double> poison, double %177, i64 0
  %183 = shufflevector <2 x double> %182, <2 x double> poison, <2 x i32> zeroinitializer
  %184 = call <2 x double> @llvm.fmuladd.v2f64(<2 x double> %181, <2 x double> %183, <2 x double> %170)
  %185 = getelementptr inbounds [3 x double], ptr %174, i64 0, i64 2
  %186 = load double, ptr %185, align 8, !tbaa !16
  %187 = insertelement <2 x double> %181, double %186, i64 0
  %188 = call <2 x double> @llvm.fmuladd.v2f64(<2 x double> %187, <2 x double> %175, <2 x double> %171)
  %189 = insertelement <2 x double> %181, double %186, i64 1
  %190 = shufflevector <2 x double> %175, <2 x double> poison, <2 x i32> <i32 1, i32 1>
  %191 = call <2 x double> @llvm.fmuladd.v2f64(<2 x double> %189, <2 x double> %190, <2 x double> %172)
  %192 = call double @llvm.fmuladd.f64(double %186, double %177, double %167)
  %193 = add nuw nsw i64 %168, 1
  %194 = icmp eq i64 %193, %74
  br i1 %194, label %75, label %166

195:                                              ; preds = %78
  invoke void @_ZN6dealii8internal9MappingQ122compute_shapes_virtualILi3EEEvjRKSt6vectorINS_5PointILi3EEESaIS5_EERNS_9MappingQ1ILi3EXT_EE12InternalDataE(i32 noundef 8, ptr noundef nonnull align 8 dereferenceable(24) %6, ptr noundef nonnull align 8 dereferenceable(408) %3)
          to label %200 unwind label %250

196:                                              ; preds = %78
  %197 = load ptr, ptr %0, align 8, !tbaa !5
  %198 = getelementptr inbounds ptr, ptr %197, i64 15
  %199 = load ptr, ptr %198, align 8
  invoke void %199(ptr noundef nonnull align 8 dereferenceable(72) %0, ptr noundef nonnull align 8 dereferenceable(24) %6, ptr noundef nonnull align 8 dereferenceable(408) %3)
          to label %200 unwind label %250

200:                                              ; preds = %195, %196
  %201 = load ptr, ptr %6, align 8, !tbaa !15
  %202 = icmp eq ptr %201, null
  br i1 %202, label %204, label %203

203:                                              ; preds = %200
  call void @_ZdlPv(ptr noundef nonnull %201) #20
  br label %204

204:                                              ; preds = %203, %200
  call void @llvm.lifetime.end.p0(i64 24, ptr nonnull %6) #17
  %205 = load ptr, ptr %10, align 8, !tbaa !11, !noalias !125
  %206 = load ptr, ptr %9, align 8, !tbaa !15, !noalias !125
  %207 = ptrtoint ptr %205 to i64
  %208 = ptrtoint ptr %206 to i64
  %209 = sub i64 %207, %208
  %210 = sdiv exact i64 %209, 24
  %211 = icmp eq ptr %205, %206
  br i1 %211, label %234, label %212

212:                                              ; preds = %204
  %213 = load ptr, ptr %7, align 8, !tbaa !18, !noalias !125
  br label %214

214:                                              ; preds = %214, %212
  %215 = phi double [ 0.000000e+00, %212 ], [ %230, %214 ]
  %216 = phi i64 [ 0, %212 ], [ %232, %214 ]
  %217 = phi i32 [ 0, %212 ], [ %231, %214 ]
  %218 = phi <2 x double> [ zeroinitializer, %212 ], [ %229, %214 ]
  %219 = getelementptr inbounds %"class.dealii::Point", ptr %206, i64 %216
  %220 = getelementptr inbounds double, ptr %213, i64 %216
  %221 = load double, ptr %220, align 8, !tbaa !16, !noalias !125
  %222 = getelementptr inbounds [3 x double], ptr %219, i64 0, i64 2
  %223 = load double, ptr %222, align 8, !tbaa !16, !noalias !128
  %224 = load <2 x double>, ptr %219, align 8, !tbaa !16, !noalias !128
  %225 = insertelement <2 x double> poison, double %221, i64 0
  %226 = shufflevector <2 x double> %225, <2 x double> poison, <2 x i32> zeroinitializer
  %227 = fmul <2 x double> %226, %224
  %228 = fmul double %221, %223
  %229 = fadd <2 x double> %218, %227
  %230 = fadd double %215, %228
  %231 = add i32 %217, 1
  %232 = zext i32 %231 to i64
  %233 = icmp ugt i64 %210, %232
  br i1 %233, label %214, label %234

234:                                              ; preds = %214, %204
  %235 = phi double [ 0.000000e+00, %204 ], [ %230, %214 ]
  %236 = phi <2 x double> [ zeroinitializer, %204 ], [ %229, %214 ]
  %237 = load double, ptr %2, align 8, !tbaa !16, !noalias !131
  %238 = extractelement <2 x double> %236, i64 0
  %239 = fsub double %238, %237
  %240 = load <2 x double>, ptr %43, align 8, !tbaa !16, !noalias !131
  %241 = shufflevector <2 x double> %236, <2 x double> poison, <2 x i32> <i32 1, i32 poison>
  %242 = insertelement <2 x double> %241, double %235, i64 1
  %243 = fsub <2 x double> %242, %240
  %244 = call double @llvm.fmuladd.f64(double %239, double %239, double 0.000000e+00)
  %245 = extractelement <2 x double> %243, i64 0
  %246 = call double @llvm.fmuladd.f64(double %245, double %245, double %244)
  %247 = extractelement <2 x double> %243, i64 1
  %248 = call double @llvm.fmuladd.f64(double %247, double %247, double %246)
  %249 = fcmp ogt double %248, %48
  br i1 %249, label %62, label %256

250:                                              ; preds = %196, %195
  %251 = landingpad { ptr, i32 }
          cleanup
  %252 = load ptr, ptr %6, align 8, !tbaa !15
  %253 = icmp eq ptr %252, null
  br i1 %253, label %255, label %254

254:                                              ; preds = %250
  call void @_ZdlPv(ptr noundef nonnull %252) #20
  br label %255

255:                                              ; preds = %254, %250
  call void @llvm.lifetime.end.p0(i64 24, ptr nonnull %6) #17
  resume { ptr, i32 } %251

256:                                              ; preds = %62, %234, %38
  ret void
}

; Function Attrs: sspstrong uwtable
define weak_odr dso_local void @_ZNK6dealii9MappingQ1ILi3ELi3EE9transformENS_11VectorSliceIKSt6vectorINS_6TensorILi1ELi3EEESaIS5_EEEENS2_IS7_EERKNS_7MappingILi3ELi3EE16InternalDataBaseENS_11MappingTypeE(ptr noundef nonnull align 8 dereferenceable(72) %0, ptr %1, i64 %2, ptr %3, i64 %4, ptr noundef nonnull align 8 dereferenceable(185) %5, i32 noundef %6) unnamed_addr #0 comdat align 2 {
  %8 = lshr i64 %4, 32
  %9 = trunc i64 %8 to i32
  switch i32 %6, label %172 [
    i32 1, label %26
    i32 2, label %19
    i32 256, label %10
  ]

10:                                               ; preds = %7
  %11 = icmp eq i32 %9, 0
  br i1 %11, label %172, label %12

12:                                               ; preds = %10
  %13 = load ptr, ptr %1, align 8, !tbaa !121
  %14 = getelementptr inbounds %"class.dealii::Mapping<3, 3>::InternalDataBase", ptr %5, i64 0, i32 5
  %15 = load ptr, ptr %14, align 8, !tbaa !18
  %16 = load ptr, ptr %3, align 8, !tbaa !121
  %17 = getelementptr inbounds %"class.dealii::MappingQ1<3, 3>::InternalData", ptr %5, i64 0, i32 5
  %18 = load ptr, ptr %17, align 8, !tbaa !134
  br label %123

19:                                               ; preds = %7
  %20 = icmp eq i32 %9, 0
  br i1 %20, label %172, label %21

21:                                               ; preds = %19
  %22 = load ptr, ptr %1, align 8, !tbaa !121
  %23 = load ptr, ptr %3, align 8, !tbaa !121
  %24 = getelementptr inbounds %"class.dealii::MappingQ1<3, 3>::InternalData", ptr %5, i64 0, i32 5
  %25 = load ptr, ptr %24, align 8, !tbaa !134
  br label %78

26:                                               ; preds = %7
  %27 = icmp eq i32 %9, 0
  br i1 %27, label %172, label %28

28:                                               ; preds = %26
  %29 = load ptr, ptr %1, align 8, !tbaa !121
  %30 = load ptr, ptr %3, align 8, !tbaa !121
  %31 = getelementptr inbounds %"class.dealii::MappingQ1<3, 3>::InternalData", ptr %5, i64 0, i32 4
  %32 = load ptr, ptr %31, align 8, !tbaa !134
  br label %33

33:                                               ; preds = %28, %33
  %34 = phi i64 [ 0, %28 ], [ %76, %33 ]
  %35 = add i64 %34, %2
  %36 = and i64 %35, 4294967295
  %37 = mul nuw nsw i64 %36, 24
  %38 = getelementptr i8, ptr %29, i64 %37
  %39 = load double, ptr %38, align 8, !tbaa !16
  %40 = getelementptr inbounds i8, ptr %38, i64 8
  %41 = load double, ptr %40, align 8, !tbaa !16
  %42 = getelementptr inbounds i8, ptr %38, i64 16
  %43 = load double, ptr %42, align 8, !tbaa !16
  %44 = add i64 %34, %4
  %45 = and i64 %44, 4294967295
  %46 = getelementptr inbounds %"class.dealii::Tensor", ptr %30, i64 %45
  %47 = getelementptr inbounds %"class.dealii::Tensor.40", ptr %32, i64 %34
  tail call void @llvm.memset.p0.i64(ptr noundef nonnull align 8 dereferenceable(24) %46, i8 0, i64 24, i1 false), !tbaa !16
  %48 = load double, ptr %47, align 8, !tbaa !16
  %49 = tail call double @llvm.fmuladd.f64(double %39, double %48, double 0.000000e+00)
  store double %49, ptr %46, align 8, !tbaa !16
  %50 = getelementptr inbounds [3 x %"class.dealii::Tensor"], ptr %47, i64 0, i64 1
  %51 = load double, ptr %50, align 8, !tbaa !16
  %52 = tail call double @llvm.fmuladd.f64(double %41, double %51, double %49)
  store double %52, ptr %46, align 8, !tbaa !16
  %53 = getelementptr inbounds [3 x %"class.dealii::Tensor"], ptr %47, i64 0, i64 2
  %54 = load double, ptr %53, align 8, !tbaa !16
  %55 = tail call double @llvm.fmuladd.f64(double %43, double %54, double %52)
  store double %55, ptr %46, align 8, !tbaa !16
  %56 = getelementptr inbounds [3 x double], ptr %47, i64 0, i64 1
  %57 = getelementptr inbounds [3 x double], ptr %46, i64 0, i64 1
  %58 = load double, ptr %56, align 8, !tbaa !16
  %59 = tail call double @llvm.fmuladd.f64(double %39, double %58, double 0.000000e+00)
  store double %59, ptr %57, align 8, !tbaa !16
  %60 = getelementptr inbounds [3 x double], ptr %47, i64 1, i64 1
  %61 = load double, ptr %60, align 8, !tbaa !16
  %62 = tail call double @llvm.fmuladd.f64(double %41, double %61, double %59)
  store double %62, ptr %57, align 8, !tbaa !16
  %63 = getelementptr inbounds [3 x double], ptr %47, i64 2, i64 1
  %64 = load double, ptr %63, align 8, !tbaa !16
  %65 = tail call double @llvm.fmuladd.f64(double %43, double %64, double %62)
  store double %65, ptr %57, align 8, !tbaa !16
  %66 = getelementptr inbounds [3 x double], ptr %47, i64 0, i64 2
  %67 = getelementptr inbounds [3 x double], ptr %46, i64 0, i64 2
  %68 = load double, ptr %66, align 8, !tbaa !16
  %69 = tail call double @llvm.fmuladd.f64(double %39, double %68, double 0.000000e+00)
  store double %69, ptr %67, align 8, !tbaa !16
  %70 = getelementptr inbounds [3 x double], ptr %47, i64 1, i64 2
  %71 = load double, ptr %70, align 8, !tbaa !16
  %72 = tail call double @llvm.fmuladd.f64(double %41, double %71, double %69)
  store double %72, ptr %67, align 8, !tbaa !16
  %73 = getelementptr inbounds [3 x double], ptr %47, i64 2, i64 2
  %74 = load double, ptr %73, align 8, !tbaa !16
  %75 = tail call double @llvm.fmuladd.f64(double %43, double %74, double %72)
  store double %75, ptr %67, align 8, !tbaa !16
  %76 = add nuw nsw i64 %34, 1
  %77 = icmp eq i64 %76, %8
  br i1 %77, label %172, label %33

78:                                               ; preds = %21, %78
  %79 = phi i64 [ 0, %21 ], [ %121, %78 ]
  %80 = add i64 %79, %2
  %81 = and i64 %80, 4294967295
  %82 = mul nuw nsw i64 %81, 24
  %83 = getelementptr i8, ptr %22, i64 %82
  %84 = load double, ptr %83, align 8, !tbaa !16
  %85 = getelementptr inbounds i8, ptr %83, i64 8
  %86 = load double, ptr %85, align 8, !tbaa !16
  %87 = getelementptr inbounds i8, ptr %83, i64 16
  %88 = load double, ptr %87, align 8, !tbaa !16
  %89 = add i64 %79, %4
  %90 = and i64 %89, 4294967295
  %91 = getelementptr inbounds %"class.dealii::Tensor", ptr %23, i64 %90
  %92 = getelementptr inbounds %"class.dealii::Tensor.40", ptr %25, i64 %79
  tail call void @llvm.memset.p0.i64(ptr noundef nonnull align 8 dereferenceable(24) %91, i8 0, i64 24, i1 false), !tbaa !16
  %93 = load double, ptr %92, align 8, !tbaa !16
  %94 = tail call double @llvm.fmuladd.f64(double %93, double %84, double 0.000000e+00)
  store double %94, ptr %91, align 8, !tbaa !16
  %95 = getelementptr inbounds [3 x double], ptr %92, i64 0, i64 1
  %96 = load double, ptr %95, align 8, !tbaa !16
  %97 = tail call double @llvm.fmuladd.f64(double %96, double %86, double %94)
  store double %97, ptr %91, align 8, !tbaa !16
  %98 = getelementptr inbounds [3 x double], ptr %92, i64 0, i64 2
  %99 = load double, ptr %98, align 8, !tbaa !16
  %100 = tail call double @llvm.fmuladd.f64(double %99, double %88, double %97)
  store double %100, ptr %91, align 8, !tbaa !16
  %101 = getelementptr inbounds [3 x %"class.dealii::Tensor"], ptr %92, i64 0, i64 1
  %102 = getelementptr inbounds [3 x double], ptr %91, i64 0, i64 1
  %103 = load double, ptr %101, align 8, !tbaa !16
  %104 = tail call double @llvm.fmuladd.f64(double %103, double %84, double 0.000000e+00)
  store double %104, ptr %102, align 8, !tbaa !16
  %105 = getelementptr inbounds [3 x %"class.dealii::Tensor"], ptr %92, i64 0, i64 1, i32 0, i64 1
  %106 = load double, ptr %105, align 8, !tbaa !16
  %107 = tail call double @llvm.fmuladd.f64(double %106, double %86, double %104)
  store double %107, ptr %102, align 8, !tbaa !16
  %108 = getelementptr inbounds [3 x %"class.dealii::Tensor"], ptr %92, i64 0, i64 1, i32 0, i64 2
  %109 = load double, ptr %108, align 8, !tbaa !16
  %110 = tail call double @llvm.fmuladd.f64(double %109, double %88, double %107)
  store double %110, ptr %102, align 8, !tbaa !16
  %111 = getelementptr inbounds [3 x %"class.dealii::Tensor"], ptr %92, i64 0, i64 2
  %112 = getelementptr inbounds [3 x double], ptr %91, i64 0, i64 2
  %113 = load double, ptr %111, align 8, !tbaa !16
  %114 = tail call double @llvm.fmuladd.f64(double %113, double %84, double 0.000000e+00)
  store double %114, ptr %112, align 8, !tbaa !16
  %115 = getelementptr inbounds [3 x %"class.dealii::Tensor"], ptr %92, i64 0, i64 2, i32 0, i64 1
  %116 = load double, ptr %115, align 8, !tbaa !16
  %117 = tail call double @llvm.fmuladd.f64(double %116, double %86, double %114)
  store double %117, ptr %112, align 8, !tbaa !16
  %118 = getelementptr inbounds [3 x %"class.dealii::Tensor"], ptr %92, i64 0, i64 2, i32 0, i64 2
  %119 = load double, ptr %118, align 8, !tbaa !16
  %120 = tail call double @llvm.fmuladd.f64(double %119, double %88, double %117)
  store double %120, ptr %112, align 8, !tbaa !16
  %121 = add nuw nsw i64 %79, 1
  %122 = icmp eq i64 %121, %8
  br i1 %122, label %172, label %78

123:                                              ; preds = %12, %123
  %124 = phi i64 [ 0, %12 ], [ %170, %123 ]
  %125 = add i64 %124, %2
  %126 = and i64 %125, 4294967295
  %127 = getelementptr inbounds %"class.dealii::Tensor", ptr %13, i64 %126
  %128 = getelementptr inbounds double, ptr %15, i64 %124
  %129 = load double, ptr %128, align 8, !tbaa !16
  %130 = load double, ptr %127, align 8, !tbaa !16
  %131 = fdiv double %130, %129
  %132 = getelementptr inbounds [3 x double], ptr %127, i64 0, i64 1
  %133 = load double, ptr %132, align 8, !tbaa !16
  %134 = fdiv double %133, %129
  %135 = getelementptr inbounds [3 x double], ptr %127, i64 0, i64 2
  %136 = load double, ptr %135, align 8, !tbaa !16
  %137 = fdiv double %136, %129
  %138 = add i64 %124, %4
  %139 = and i64 %138, 4294967295
  %140 = getelementptr inbounds %"class.dealii::Tensor", ptr %16, i64 %139
  %141 = getelementptr inbounds %"class.dealii::Tensor.40", ptr %18, i64 %124
  tail call void @llvm.memset.p0.i64(ptr noundef nonnull align 8 dereferenceable(24) %140, i8 0, i64 24, i1 false), !tbaa !16
  %142 = load double, ptr %141, align 8, !tbaa !16
  %143 = tail call double @llvm.fmuladd.f64(double %142, double %131, double 0.000000e+00)
  store double %143, ptr %140, align 8, !tbaa !16
  %144 = getelementptr inbounds [3 x double], ptr %141, i64 0, i64 1
  %145 = load double, ptr %144, align 8, !tbaa !16
  %146 = tail call double @llvm.fmuladd.f64(double %145, double %134, double %143)
  store double %146, ptr %140, align 8, !tbaa !16
  %147 = getelementptr inbounds [3 x double], ptr %141, i64 0, i64 2
  %148 = load double, ptr %147, align 8, !tbaa !16
  %149 = tail call double @llvm.fmuladd.f64(double %148, double %137, double %146)
  store double %149, ptr %140, align 8, !tbaa !16
  %150 = getelementptr inbounds [3 x %"class.dealii::Tensor"], ptr %141, i64 0, i64 1
  %151 = getelementptr inbounds [3 x double], ptr %140, i64 0, i64 1
  %152 = load double, ptr %150, align 8, !tbaa !16
  %153 = tail call double @llvm.fmuladd.f64(double %152, double %131, double 0.000000e+00)
  store double %153, ptr %151, align 8, !tbaa !16
  %154 = getelementptr inbounds [3 x %"class.dealii::Tensor"], ptr %141, i64 0, i64 1, i32 0, i64 1
  %155 = load double, ptr %154, align 8, !tbaa !16
  %156 = tail call double @llvm.fmuladd.f64(double %155, double %134, double %153)
  store double %156, ptr %151, align 8, !tbaa !16
  %157 = getelementptr inbounds [3 x %"class.dealii::Tensor"], ptr %141, i64 0, i64 1, i32 0, i64 2
  %158 = load double, ptr %157, align 8, !tbaa !16
  %159 = tail call double @llvm.fmuladd.f64(double %158, double %137, double %156)
  store double %159, ptr %151, align 8, !tbaa !16
  %160 = getelementptr inbounds [3 x %"class.dealii::Tensor"], ptr %141, i64 0, i64 2
  %161 = getelementptr inbounds [3 x double], ptr %140, i64 0, i64 2
  %162 = load double, ptr %160, align 8, !tbaa !16
  %163 = tail call double @llvm.fmuladd.f64(double %162, double %131, double 0.000000e+00)
  store double %163, ptr %161, align 8, !tbaa !16
  %164 = getelementptr inbounds [3 x %"class.dealii::Tensor"], ptr %141, i64 0, i64 2, i32 0, i64 1
  %165 = load double, ptr %164, align 8, !tbaa !16
  %166 = tail call double @llvm.fmuladd.f64(double %165, double %134, double %163)
  store double %166, ptr %161, align 8, !tbaa !16
  %167 = getelementptr inbounds [3 x %"class.dealii::Tensor"], ptr %141, i64 0, i64 2, i32 0, i64 2
  %168 = load double, ptr %167, align 8, !tbaa !16
  %169 = tail call double @llvm.fmuladd.f64(double %168, double %137, double %166)
  store double %169, ptr %161, align 8, !tbaa !16
  %170 = add nuw nsw i64 %124, 1
  %171 = icmp eq i64 %170, %8
  br i1 %171, label %172, label %123

172:                                              ; preds = %123, %78, %33, %10, %19, %26, %7
  ret void
}

; Function Attrs: sspstrong uwtable
define weak_odr dso_local void @_ZNK6dealii9MappingQ1ILi3ELi3EE9transformENS_11VectorSliceIKSt6vectorINS_6TensorILi2ELi3EEESaIS5_EEEENS2_IS7_EERKNS_7MappingILi3ELi3EE16InternalDataBaseENS_11MappingTypeE(ptr noundef nonnull align 8 dereferenceable(72) %0, ptr %1, i64 %2, ptr %3, i64 %4, ptr noundef nonnull align 8 dereferenceable(185) %5, i32 noundef %6) unnamed_addr #0 comdat align 2 {
  %8 = lshr i64 %4, 32
  %9 = trunc i64 %8 to i32
  switch i32 %6, label %678 [
    i32 1, label %44
    i32 2, label %37
    i32 3, label %30
    i32 4, label %21
    i32 256, label %10
  ]

10:                                               ; preds = %7
  %11 = icmp eq i32 %9, 0
  br i1 %11, label %678, label %12

12:                                               ; preds = %10
  %13 = load ptr, ptr %1, align 8, !tbaa !134
  %14 = getelementptr inbounds %"class.dealii::Mapping<3, 3>::InternalDataBase", ptr %5, i64 0, i32 5
  %15 = load ptr, ptr %14, align 8, !tbaa !18
  %16 = getelementptr inbounds %"class.dealii::MappingQ1<3, 3>::InternalData", ptr %5, i64 0, i32 4
  %17 = load ptr, ptr %16, align 8, !tbaa !134
  %18 = load ptr, ptr %3, align 8, !tbaa !134
  %19 = getelementptr inbounds %"class.dealii::MappingQ1<3, 3>::InternalData", ptr %5, i64 0, i32 5
  %20 = load ptr, ptr %19, align 8, !tbaa !134
  br label %524

21:                                               ; preds = %7
  %22 = icmp eq i32 %9, 0
  br i1 %22, label %678, label %23

23:                                               ; preds = %21
  %24 = load ptr, ptr %1, align 8, !tbaa !134
  %25 = getelementptr inbounds %"class.dealii::MappingQ1<3, 3>::InternalData", ptr %5, i64 0, i32 4
  %26 = load ptr, ptr %25, align 8, !tbaa !134
  %27 = load ptr, ptr %3, align 8, !tbaa !134
  %28 = getelementptr inbounds %"class.dealii::MappingQ1<3, 3>::InternalData", ptr %5, i64 0, i32 5
  %29 = load ptr, ptr %28, align 8, !tbaa !134
  br label %381

30:                                               ; preds = %7
  %31 = icmp eq i32 %9, 0
  br i1 %31, label %678, label %32

32:                                               ; preds = %30
  %33 = load ptr, ptr %1, align 8, !tbaa !134
  %34 = getelementptr inbounds %"class.dealii::MappingQ1<3, 3>::InternalData", ptr %5, i64 0, i32 4
  %35 = load ptr, ptr %34, align 8, !tbaa !134
  %36 = load ptr, ptr %3, align 8, !tbaa !134
  br label %247

37:                                               ; preds = %7
  %38 = icmp eq i32 %9, 0
  br i1 %38, label %678, label %39

39:                                               ; preds = %37
  %40 = load ptr, ptr %1, align 8, !tbaa !134
  %41 = load ptr, ptr %3, align 8, !tbaa !134
  %42 = getelementptr inbounds %"class.dealii::MappingQ1<3, 3>::InternalData", ptr %5, i64 0, i32 5
  %43 = load ptr, ptr %42, align 8, !tbaa !134
  br label %149

44:                                               ; preds = %7
  %45 = icmp eq i32 %9, 0
  br i1 %45, label %678, label %46

46:                                               ; preds = %44
  %47 = load ptr, ptr %1, align 8, !tbaa !134
  %48 = load ptr, ptr %3, align 8, !tbaa !134
  %49 = getelementptr inbounds %"class.dealii::MappingQ1<3, 3>::InternalData", ptr %5, i64 0, i32 4
  %50 = load ptr, ptr %49, align 8, !tbaa !134
  br label %51

51:                                               ; preds = %46, %51
  %52 = phi i64 [ 0, %46 ], [ %147, %51 ]
  %53 = add i64 %52, %2
  %54 = and i64 %53, 4294967295
  %55 = getelementptr inbounds %"class.dealii::Tensor.40", ptr %47, i64 %54
  %56 = load double, ptr %55, align 8, !tbaa !16
  %57 = getelementptr inbounds [3 x double], ptr %55, i64 0, i64 1
  %58 = load double, ptr %57, align 8, !tbaa !16
  %59 = getelementptr inbounds [3 x double], ptr %55, i64 0, i64 2
  %60 = load double, ptr %59, align 8, !tbaa !16
  %61 = getelementptr inbounds [3 x %"class.dealii::Tensor"], ptr %55, i64 0, i64 1
  %62 = load double, ptr %61, align 8, !tbaa !16
  %63 = getelementptr inbounds [3 x %"class.dealii::Tensor"], ptr %55, i64 0, i64 1, i32 0, i64 1
  %64 = load double, ptr %63, align 8, !tbaa !16
  %65 = getelementptr inbounds [3 x %"class.dealii::Tensor"], ptr %55, i64 0, i64 1, i32 0, i64 2
  %66 = load double, ptr %65, align 8, !tbaa !16
  %67 = getelementptr inbounds [3 x %"class.dealii::Tensor"], ptr %55, i64 0, i64 2
  %68 = load double, ptr %67, align 8, !tbaa !16
  %69 = getelementptr inbounds [3 x %"class.dealii::Tensor"], ptr %55, i64 0, i64 2, i32 0, i64 1
  %70 = load double, ptr %69, align 8, !tbaa !16
  %71 = getelementptr inbounds [3 x %"class.dealii::Tensor"], ptr %55, i64 0, i64 2, i32 0, i64 2
  %72 = load double, ptr %71, align 8, !tbaa !16
  %73 = add i64 %52, %4
  %74 = and i64 %73, 4294967295
  %75 = getelementptr inbounds %"class.dealii::Tensor.40", ptr %48, i64 %74
  %76 = getelementptr inbounds %"class.dealii::Tensor.40", ptr %50, i64 %52
  tail call void @llvm.memset.p0.i64(ptr noundef nonnull align 8 dereferenceable(72) %75, i8 0, i64 72, i1 false), !tbaa !16
  %77 = load double, ptr %76, align 8, !tbaa !16
  %78 = tail call double @llvm.fmuladd.f64(double %56, double %77, double 0.000000e+00)
  store double %78, ptr %75, align 8, !tbaa !16
  %79 = getelementptr inbounds [3 x %"class.dealii::Tensor"], ptr %76, i64 0, i64 1
  %80 = load double, ptr %79, align 8, !tbaa !16
  %81 = tail call double @llvm.fmuladd.f64(double %58, double %80, double %78)
  store double %81, ptr %75, align 8, !tbaa !16
  %82 = getelementptr inbounds [3 x %"class.dealii::Tensor"], ptr %76, i64 0, i64 2
  %83 = load double, ptr %82, align 8, !tbaa !16
  %84 = tail call double @llvm.fmuladd.f64(double %60, double %83, double %81)
  store double %84, ptr %75, align 8, !tbaa !16
  %85 = getelementptr inbounds [3 x double], ptr %76, i64 0, i64 1
  %86 = getelementptr inbounds [3 x double], ptr %75, i64 0, i64 1
  %87 = load double, ptr %85, align 8, !tbaa !16
  %88 = tail call double @llvm.fmuladd.f64(double %56, double %87, double 0.000000e+00)
  store double %88, ptr %86, align 8, !tbaa !16
  %89 = getelementptr inbounds [3 x double], ptr %76, i64 1, i64 1
  %90 = load double, ptr %89, align 8, !tbaa !16
  %91 = tail call double @llvm.fmuladd.f64(double %58, double %90, double %88)
  store double %91, ptr %86, align 8, !tbaa !16
  %92 = getelementptr inbounds [3 x double], ptr %76, i64 2, i64 1
  %93 = load double, ptr %92, align 8, !tbaa !16
  %94 = tail call double @llvm.fmuladd.f64(double %60, double %93, double %91)
  store double %94, ptr %86, align 8, !tbaa !16
  %95 = getelementptr inbounds [3 x double], ptr %76, i64 0, i64 2
  %96 = getelementptr inbounds [3 x double], ptr %75, i64 0, i64 2
  %97 = load double, ptr %95, align 8, !tbaa !16
  %98 = tail call double @llvm.fmuladd.f64(double %56, double %97, double 0.000000e+00)
  store double %98, ptr %96, align 8, !tbaa !16
  %99 = getelementptr inbounds [3 x double], ptr %76, i64 1, i64 2
  %100 = load double, ptr %99, align 8, !tbaa !16
  %101 = tail call double @llvm.fmuladd.f64(double %58, double %100, double %98)
  store double %101, ptr %96, align 8, !tbaa !16
  %102 = getelementptr inbounds [3 x double], ptr %76, i64 2, i64 2
  %103 = load double, ptr %102, align 8, !tbaa !16
  %104 = tail call double @llvm.fmuladd.f64(double %60, double %103, double %101)
  store double %104, ptr %96, align 8, !tbaa !16
  %105 = getelementptr inbounds [3 x %"class.dealii::Tensor"], ptr %75, i64 0, i64 1
  %106 = load double, ptr %76, align 8, !tbaa !16
  %107 = tail call double @llvm.fmuladd.f64(double %62, double %106, double 0.000000e+00)
  store double %107, ptr %105, align 8, !tbaa !16
  %108 = load double, ptr %79, align 8, !tbaa !16
  %109 = tail call double @llvm.fmuladd.f64(double %64, double %108, double %107)
  store double %109, ptr %105, align 8, !tbaa !16
  %110 = load double, ptr %82, align 8, !tbaa !16
  %111 = tail call double @llvm.fmuladd.f64(double %66, double %110, double %109)
  store double %111, ptr %105, align 8, !tbaa !16
  %112 = getelementptr inbounds [3 x %"class.dealii::Tensor"], ptr %75, i64 0, i64 1, i32 0, i64 1
  %113 = load double, ptr %85, align 8, !tbaa !16
  %114 = tail call double @llvm.fmuladd.f64(double %62, double %113, double 0.000000e+00)
  store double %114, ptr %112, align 8, !tbaa !16
  %115 = load double, ptr %89, align 8, !tbaa !16
  %116 = tail call double @llvm.fmuladd.f64(double %64, double %115, double %114)
  store double %116, ptr %112, align 8, !tbaa !16
  %117 = load double, ptr %92, align 8, !tbaa !16
  %118 = tail call double @llvm.fmuladd.f64(double %66, double %117, double %116)
  store double %118, ptr %112, align 8, !tbaa !16
  %119 = getelementptr inbounds [3 x %"class.dealii::Tensor"], ptr %75, i64 0, i64 1, i32 0, i64 2
  %120 = load double, ptr %95, align 8, !tbaa !16
  %121 = tail call double @llvm.fmuladd.f64(double %62, double %120, double 0.000000e+00)
  store double %121, ptr %119, align 8, !tbaa !16
  %122 = load double, ptr %99, align 8, !tbaa !16
  %123 = tail call double @llvm.fmuladd.f64(double %64, double %122, double %121)
  store double %123, ptr %119, align 8, !tbaa !16
  %124 = load double, ptr %102, align 8, !tbaa !16
  %125 = tail call double @llvm.fmuladd.f64(double %66, double %124, double %123)
  store double %125, ptr %119, align 8, !tbaa !16
  %126 = getelementptr inbounds [3 x %"class.dealii::Tensor"], ptr %75, i64 0, i64 2
  %127 = load double, ptr %76, align 8, !tbaa !16
  %128 = tail call double @llvm.fmuladd.f64(double %68, double %127, double 0.000000e+00)
  store double %128, ptr %126, align 8, !tbaa !16
  %129 = load double, ptr %79, align 8, !tbaa !16
  %130 = tail call double @llvm.fmuladd.f64(double %70, double %129, double %128)
  store double %130, ptr %126, align 8, !tbaa !16
  %131 = load double, ptr %82, align 8, !tbaa !16
  %132 = tail call double @llvm.fmuladd.f64(double %72, double %131, double %130)
  store double %132, ptr %126, align 8, !tbaa !16
  %133 = getelementptr inbounds [3 x %"class.dealii::Tensor"], ptr %75, i64 0, i64 2, i32 0, i64 1
  %134 = load double, ptr %85, align 8, !tbaa !16
  %135 = tail call double @llvm.fmuladd.f64(double %68, double %134, double 0.000000e+00)
  store double %135, ptr %133, align 8, !tbaa !16
  %136 = load double, ptr %89, align 8, !tbaa !16
  %137 = tail call double @llvm.fmuladd.f64(double %70, double %136, double %135)
  store double %137, ptr %133, align 8, !tbaa !16
  %138 = load double, ptr %92, align 8, !tbaa !16
  %139 = tail call double @llvm.fmuladd.f64(double %72, double %138, double %137)
  store double %139, ptr %133, align 8, !tbaa !16
  %140 = getelementptr inbounds [3 x %"class.dealii::Tensor"], ptr %75, i64 0, i64 2, i32 0, i64 2
  %141 = load double, ptr %95, align 8, !tbaa !16
  %142 = tail call double @llvm.fmuladd.f64(double %68, double %141, double 0.000000e+00)
  store double %142, ptr %140, align 8, !tbaa !16
  %143 = load double, ptr %99, align 8, !tbaa !16
  %144 = tail call double @llvm.fmuladd.f64(double %70, double %143, double %142)
  store double %144, ptr %140, align 8, !tbaa !16
  %145 = load double, ptr %102, align 8, !tbaa !16
  %146 = tail call double @llvm.fmuladd.f64(double %72, double %145, double %144)
  store double %146, ptr %140, align 8, !tbaa !16
  %147 = add nuw nsw i64 %52, 1
  %148 = icmp eq i64 %147, %8
  br i1 %148, label %678, label %51

149:                                              ; preds = %39, %149
  %150 = phi i64 [ 0, %39 ], [ %245, %149 ]
  %151 = add i64 %150, %2
  %152 = and i64 %151, 4294967295
  %153 = getelementptr inbounds %"class.dealii::Tensor.40", ptr %40, i64 %152
  %154 = load double, ptr %153, align 8, !tbaa !16
  %155 = getelementptr inbounds [3 x double], ptr %153, i64 0, i64 1
  %156 = load double, ptr %155, align 8, !tbaa !16
  %157 = getelementptr inbounds [3 x double], ptr %153, i64 0, i64 2
  %158 = load double, ptr %157, align 8, !tbaa !16
  %159 = getelementptr inbounds [3 x %"class.dealii::Tensor"], ptr %153, i64 0, i64 1
  %160 = load double, ptr %159, align 8, !tbaa !16
  %161 = getelementptr inbounds [3 x %"class.dealii::Tensor"], ptr %153, i64 0, i64 1, i32 0, i64 1
  %162 = load double, ptr %161, align 8, !tbaa !16
  %163 = getelementptr inbounds [3 x %"class.dealii::Tensor"], ptr %153, i64 0, i64 1, i32 0, i64 2
  %164 = load double, ptr %163, align 8, !tbaa !16
  %165 = getelementptr inbounds [3 x %"class.dealii::Tensor"], ptr %153, i64 0, i64 2
  %166 = load double, ptr %165, align 8, !tbaa !16
  %167 = getelementptr inbounds [3 x %"class.dealii::Tensor"], ptr %153, i64 0, i64 2, i32 0, i64 1
  %168 = load double, ptr %167, align 8, !tbaa !16
  %169 = getelementptr inbounds [3 x %"class.dealii::Tensor"], ptr %153, i64 0, i64 2, i32 0, i64 2
  %170 = load double, ptr %169, align 8, !tbaa !16
  %171 = add i64 %150, %4
  %172 = and i64 %171, 4294967295
  %173 = getelementptr inbounds %"class.dealii::Tensor.40", ptr %41, i64 %172
  %174 = getelementptr inbounds %"class.dealii::Tensor.40", ptr %43, i64 %150
  tail call void @llvm.memset.p0.i64(ptr noundef nonnull align 8 dereferenceable(72) %173, i8 0, i64 72, i1 false), !tbaa !16
  %175 = load double, ptr %174, align 8, !tbaa !16
  %176 = tail call double @llvm.fmuladd.f64(double %175, double %154, double 0.000000e+00)
  store double %176, ptr %173, align 8, !tbaa !16
  %177 = getelementptr inbounds [3 x double], ptr %174, i64 0, i64 1
  %178 = load double, ptr %177, align 8, !tbaa !16
  %179 = tail call double @llvm.fmuladd.f64(double %178, double %160, double %176)
  store double %179, ptr %173, align 8, !tbaa !16
  %180 = getelementptr inbounds [3 x double], ptr %174, i64 0, i64 2
  %181 = load double, ptr %180, align 8, !tbaa !16
  %182 = tail call double @llvm.fmuladd.f64(double %181, double %166, double %179)
  store double %182, ptr %173, align 8, !tbaa !16
  %183 = getelementptr inbounds [3 x double], ptr %173, i64 0, i64 1
  %184 = load double, ptr %174, align 8, !tbaa !16
  %185 = tail call double @llvm.fmuladd.f64(double %184, double %156, double 0.000000e+00)
  store double %185, ptr %183, align 8, !tbaa !16
  %186 = load double, ptr %177, align 8, !tbaa !16
  %187 = tail call double @llvm.fmuladd.f64(double %186, double %162, double %185)
  store double %187, ptr %183, align 8, !tbaa !16
  %188 = load double, ptr %180, align 8, !tbaa !16
  %189 = tail call double @llvm.fmuladd.f64(double %188, double %168, double %187)
  store double %189, ptr %183, align 8, !tbaa !16
  %190 = getelementptr inbounds [3 x double], ptr %173, i64 0, i64 2
  %191 = load double, ptr %174, align 8, !tbaa !16
  %192 = tail call double @llvm.fmuladd.f64(double %191, double %158, double 0.000000e+00)
  store double %192, ptr %190, align 8, !tbaa !16
  %193 = load double, ptr %177, align 8, !tbaa !16
  %194 = tail call double @llvm.fmuladd.f64(double %193, double %164, double %192)
  store double %194, ptr %190, align 8, !tbaa !16
  %195 = load double, ptr %180, align 8, !tbaa !16
  %196 = tail call double @llvm.fmuladd.f64(double %195, double %170, double %194)
  store double %196, ptr %190, align 8, !tbaa !16
  %197 = getelementptr inbounds [3 x %"class.dealii::Tensor"], ptr %174, i64 0, i64 1
  %198 = getelementptr inbounds [3 x %"class.dealii::Tensor"], ptr %173, i64 0, i64 1
  %199 = load double, ptr %197, align 8, !tbaa !16
  %200 = tail call double @llvm.fmuladd.f64(double %199, double %154, double 0.000000e+00)
  store double %200, ptr %198, align 8, !tbaa !16
  %201 = getelementptr inbounds [3 x %"class.dealii::Tensor"], ptr %174, i64 0, i64 1, i32 0, i64 1
  %202 = load double, ptr %201, align 8, !tbaa !16
  %203 = tail call double @llvm.fmuladd.f64(double %202, double %160, double %200)
  store double %203, ptr %198, align 8, !tbaa !16
  %204 = getelementptr inbounds [3 x %"class.dealii::Tensor"], ptr %174, i64 0, i64 1, i32 0, i64 2
  %205 = load double, ptr %204, align 8, !tbaa !16
  %206 = tail call double @llvm.fmuladd.f64(double %205, double %166, double %203)
  store double %206, ptr %198, align 8, !tbaa !16
  %207 = getelementptr inbounds [3 x %"class.dealii::Tensor"], ptr %173, i64 0, i64 1, i32 0, i64 1
  %208 = load double, ptr %197, align 8, !tbaa !16
  %209 = tail call double @llvm.fmuladd.f64(double %208, double %156, double 0.000000e+00)
  store double %209, ptr %207, align 8, !tbaa !16
  %210 = load double, ptr %201, align 8, !tbaa !16
  %211 = tail call double @llvm.fmuladd.f64(double %210, double %162, double %209)
  store double %211, ptr %207, align 8, !tbaa !16
  %212 = load double, ptr %204, align 8, !tbaa !16
  %213 = tail call double @llvm.fmuladd.f64(double %212, double %168, double %211)
  store double %213, ptr %207, align 8, !tbaa !16
  %214 = getelementptr inbounds [3 x %"class.dealii::Tensor"], ptr %173, i64 0, i64 1, i32 0, i64 2
  %215 = load double, ptr %197, align 8, !tbaa !16
  %216 = tail call double @llvm.fmuladd.f64(double %215, double %158, double 0.000000e+00)
  store double %216, ptr %214, align 8, !tbaa !16
  %217 = load double, ptr %201, align 8, !tbaa !16
  %218 = tail call double @llvm.fmuladd.f64(double %217, double %164, double %216)
  store double %218, ptr %214, align 8, !tbaa !16
  %219 = load double, ptr %204, align 8, !tbaa !16
  %220 = tail call double @llvm.fmuladd.f64(double %219, double %170, double %218)
  store double %220, ptr %214, align 8, !tbaa !16
  %221 = getelementptr inbounds [3 x %"class.dealii::Tensor"], ptr %174, i64 0, i64 2
  %222 = getelementptr inbounds [3 x %"class.dealii::Tensor"], ptr %173, i64 0, i64 2
  %223 = load double, ptr %221, align 8, !tbaa !16
  %224 = tail call double @llvm.fmuladd.f64(double %223, double %154, double 0.000000e+00)
  store double %224, ptr %222, align 8, !tbaa !16
  %225 = getelementptr inbounds [3 x %"class.dealii::Tensor"], ptr %174, i64 0, i64 2, i32 0, i64 1
  %226 = load double, ptr %225, align 8, !tbaa !16
  %227 = tail call double @llvm.fmuladd.f64(double %226, double %160, double %224)
  store double %227, ptr %222, align 8, !tbaa !16
  %228 = getelementptr inbounds [3 x %"class.dealii::Tensor"], ptr %174, i64 0, i64 2, i32 0, i64 2
  %229 = load double, ptr %228, align 8, !tbaa !16
  %230 = tail call double @llvm.fmuladd.f64(double %229, double %166, double %227)
  store double %230, ptr %222, align 8, !tbaa !16
  %231 = getelementptr inbounds [3 x %"class.dealii::Tensor"], ptr %173, i64 0, i64 2, i32 0, i64 1
  %232 = load double, ptr %221, align 8, !tbaa !16
  %233 = tail call double @llvm.fmuladd.f64(double %232, double %156, double 0.000000e+00)
  store double %233, ptr %231, align 8, !tbaa !16
  %234 = load double, ptr %225, align 8, !tbaa !16
  %235 = tail call double @llvm.fmuladd.f64(double %234, double %162, double %233)
  store double %235, ptr %231, align 8, !tbaa !16
  %236 = load double, ptr %228, align 8, !tbaa !16
  %237 = tail call double @llvm.fmuladd.f64(double %236, double %168, double %235)
  store double %237, ptr %231, align 8, !tbaa !16
  %238 = getelementptr inbounds [3 x %"class.dealii::Tensor"], ptr %173, i64 0, i64 2, i32 0, i64 2
  %239 = load double, ptr %221, align 8, !tbaa !16
  %240 = tail call double @llvm.fmuladd.f64(double %239, double %158, double 0.000000e+00)
  store double %240, ptr %238, align 8, !tbaa !16
  %241 = load double, ptr %225, align 8, !tbaa !16
  %242 = tail call double @llvm.fmuladd.f64(double %241, double %164, double %240)
  store double %242, ptr %238, align 8, !tbaa !16
  %243 = load double, ptr %228, align 8, !tbaa !16
  %244 = tail call double @llvm.fmuladd.f64(double %243, double %170, double %242)
  store double %244, ptr %238, align 8, !tbaa !16
  %245 = add nuw nsw i64 %150, 1
  %246 = icmp eq i64 %245, %8
  br i1 %246, label %678, label %149

247:                                              ; preds = %32, %247
  %248 = phi i64 [ 0, %32 ], [ %379, %247 ]
  %249 = add i64 %248, %2
  %250 = and i64 %249, 4294967295
  %251 = getelementptr inbounds %"class.dealii::Tensor.40", ptr %33, i64 %250
  %252 = load double, ptr %251, align 8, !tbaa !16
  %253 = getelementptr inbounds [3 x double], ptr %251, i64 0, i64 1
  %254 = load double, ptr %253, align 8, !tbaa !16
  %255 = getelementptr inbounds [3 x double], ptr %251, i64 0, i64 2
  %256 = load double, ptr %255, align 8, !tbaa !16
  %257 = getelementptr inbounds [3 x %"class.dealii::Tensor"], ptr %251, i64 0, i64 1
  %258 = load double, ptr %257, align 8, !tbaa !16
  %259 = getelementptr inbounds [3 x %"class.dealii::Tensor"], ptr %251, i64 0, i64 1, i32 0, i64 1
  %260 = load double, ptr %259, align 8, !tbaa !16
  %261 = getelementptr inbounds [3 x %"class.dealii::Tensor"], ptr %251, i64 0, i64 1, i32 0, i64 2
  %262 = load double, ptr %261, align 8, !tbaa !16
  %263 = getelementptr inbounds [3 x %"class.dealii::Tensor"], ptr %251, i64 0, i64 2
  %264 = load double, ptr %263, align 8, !tbaa !16
  %265 = getelementptr inbounds [3 x %"class.dealii::Tensor"], ptr %251, i64 0, i64 2, i32 0, i64 1
  %266 = load double, ptr %265, align 8, !tbaa !16
  %267 = getelementptr inbounds [3 x %"class.dealii::Tensor"], ptr %251, i64 0, i64 2, i32 0, i64 2
  %268 = load double, ptr %267, align 8, !tbaa !16
  %269 = getelementptr inbounds %"class.dealii::Tensor.40", ptr %35, i64 %248
  %270 = load double, ptr %269, align 8, !tbaa !16
  %271 = tail call double @llvm.fmuladd.f64(double %252, double %270, double 0.000000e+00)
  %272 = getelementptr inbounds [3 x %"class.dealii::Tensor"], ptr %269, i64 0, i64 1
  %273 = load double, ptr %272, align 8, !tbaa !16
  %274 = tail call double @llvm.fmuladd.f64(double %254, double %273, double %271)
  %275 = getelementptr inbounds [3 x %"class.dealii::Tensor"], ptr %269, i64 0, i64 2
  %276 = load double, ptr %275, align 8, !tbaa !16
  %277 = tail call double @llvm.fmuladd.f64(double %256, double %276, double %274)
  %278 = getelementptr inbounds [3 x double], ptr %269, i64 0, i64 1
  %279 = load double, ptr %278, align 8, !tbaa !16
  %280 = tail call double @llvm.fmuladd.f64(double %252, double %279, double 0.000000e+00)
  %281 = getelementptr inbounds [3 x double], ptr %269, i64 1, i64 1
  %282 = load double, ptr %281, align 8, !tbaa !16
  %283 = tail call double @llvm.fmuladd.f64(double %254, double %282, double %280)
  %284 = getelementptr inbounds [3 x double], ptr %269, i64 2, i64 1
  %285 = load double, ptr %284, align 8, !tbaa !16
  %286 = tail call double @llvm.fmuladd.f64(double %256, double %285, double %283)
  %287 = getelementptr inbounds [3 x double], ptr %269, i64 0, i64 2
  %288 = load double, ptr %287, align 8, !tbaa !16
  %289 = tail call double @llvm.fmuladd.f64(double %252, double %288, double 0.000000e+00)
  %290 = getelementptr inbounds [3 x double], ptr %269, i64 1, i64 2
  %291 = load double, ptr %290, align 8, !tbaa !16
  %292 = tail call double @llvm.fmuladd.f64(double %254, double %291, double %289)
  %293 = getelementptr inbounds [3 x double], ptr %269, i64 2, i64 2
  %294 = load double, ptr %293, align 8, !tbaa !16
  %295 = tail call double @llvm.fmuladd.f64(double %256, double %294, double %292)
  %296 = tail call double @llvm.fmuladd.f64(double %258, double %270, double 0.000000e+00)
  %297 = tail call double @llvm.fmuladd.f64(double %260, double %273, double %296)
  %298 = tail call double @llvm.fmuladd.f64(double %262, double %276, double %297)
  %299 = tail call double @llvm.fmuladd.f64(double %258, double %279, double 0.000000e+00)
  %300 = tail call double @llvm.fmuladd.f64(double %260, double %282, double %299)
  %301 = tail call double @llvm.fmuladd.f64(double %262, double %285, double %300)
  %302 = tail call double @llvm.fmuladd.f64(double %258, double %288, double 0.000000e+00)
  %303 = tail call double @llvm.fmuladd.f64(double %260, double %291, double %302)
  %304 = tail call double @llvm.fmuladd.f64(double %262, double %294, double %303)
  %305 = tail call double @llvm.fmuladd.f64(double %264, double %270, double 0.000000e+00)
  %306 = tail call double @llvm.fmuladd.f64(double %266, double %273, double %305)
  %307 = tail call double @llvm.fmuladd.f64(double %268, double %276, double %306)
  %308 = tail call double @llvm.fmuladd.f64(double %264, double %279, double 0.000000e+00)
  %309 = tail call double @llvm.fmuladd.f64(double %266, double %282, double %308)
  %310 = tail call double @llvm.fmuladd.f64(double %268, double %285, double %309)
  %311 = tail call double @llvm.fmuladd.f64(double %264, double %288, double 0.000000e+00)
  %312 = tail call double @llvm.fmuladd.f64(double %266, double %291, double %311)
  %313 = tail call double @llvm.fmuladd.f64(double %268, double %294, double %312)
  %314 = add i64 %248, %4
  %315 = and i64 %314, 4294967295
  %316 = getelementptr inbounds %"class.dealii::Tensor.40", ptr %36, i64 %315
  tail call void @llvm.memset.p0.i64(ptr noundef nonnull align 8 dereferenceable(72) %316, i8 0, i64 72, i1 false), !tbaa !16
  %317 = load double, ptr %269, align 8, !tbaa !16
  %318 = tail call double @llvm.fmuladd.f64(double %317, double %277, double 0.000000e+00)
  store double %318, ptr %316, align 8, !tbaa !16
  %319 = load double, ptr %278, align 8, !tbaa !16
  %320 = tail call double @llvm.fmuladd.f64(double %319, double %298, double %318)
  store double %320, ptr %316, align 8, !tbaa !16
  %321 = load double, ptr %287, align 8, !tbaa !16
  %322 = tail call double @llvm.fmuladd.f64(double %321, double %307, double %320)
  store double %322, ptr %316, align 8, !tbaa !16
  %323 = getelementptr inbounds [3 x double], ptr %316, i64 0, i64 1
  %324 = load double, ptr %269, align 8, !tbaa !16
  %325 = tail call double @llvm.fmuladd.f64(double %324, double %286, double 0.000000e+00)
  store double %325, ptr %323, align 8, !tbaa !16
  %326 = load double, ptr %278, align 8, !tbaa !16
  %327 = tail call double @llvm.fmuladd.f64(double %326, double %301, double %325)
  store double %327, ptr %323, align 8, !tbaa !16
  %328 = load double, ptr %287, align 8, !tbaa !16
  %329 = tail call double @llvm.fmuladd.f64(double %328, double %310, double %327)
  store double %329, ptr %323, align 8, !tbaa !16
  %330 = getelementptr inbounds [3 x double], ptr %316, i64 0, i64 2
  %331 = load double, ptr %269, align 8, !tbaa !16
  %332 = tail call double @llvm.fmuladd.f64(double %331, double %295, double 0.000000e+00)
  store double %332, ptr %330, align 8, !tbaa !16
  %333 = load double, ptr %278, align 8, !tbaa !16
  %334 = tail call double @llvm.fmuladd.f64(double %333, double %304, double %332)
  store double %334, ptr %330, align 8, !tbaa !16
  %335 = load double, ptr %287, align 8, !tbaa !16
  %336 = tail call double @llvm.fmuladd.f64(double %335, double %313, double %334)
  store double %336, ptr %330, align 8, !tbaa !16
  %337 = getelementptr inbounds [3 x %"class.dealii::Tensor"], ptr %316, i64 0, i64 1
  %338 = load double, ptr %272, align 8, !tbaa !16
  %339 = tail call double @llvm.fmuladd.f64(double %338, double %277, double 0.000000e+00)
  store double %339, ptr %337, align 8, !tbaa !16
  %340 = load double, ptr %281, align 8, !tbaa !16
  %341 = tail call double @llvm.fmuladd.f64(double %340, double %298, double %339)
  store double %341, ptr %337, align 8, !tbaa !16
  %342 = load double, ptr %290, align 8, !tbaa !16
  %343 = tail call double @llvm.fmuladd.f64(double %342, double %307, double %341)
  store double %343, ptr %337, align 8, !tbaa !16
  %344 = getelementptr inbounds [3 x %"class.dealii::Tensor"], ptr %316, i64 0, i64 1, i32 0, i64 1
  %345 = load double, ptr %272, align 8, !tbaa !16
  %346 = tail call double @llvm.fmuladd.f64(double %345, double %286, double 0.000000e+00)
  store double %346, ptr %344, align 8, !tbaa !16
  %347 = load double, ptr %281, align 8, !tbaa !16
  %348 = tail call double @llvm.fmuladd.f64(double %347, double %301, double %346)
  store double %348, ptr %344, align 8, !tbaa !16
  %349 = load double, ptr %290, align 8, !tbaa !16
  %350 = tail call double @llvm.fmuladd.f64(double %349, double %310, double %348)
  store double %350, ptr %344, align 8, !tbaa !16
  %351 = getelementptr inbounds [3 x %"class.dealii::Tensor"], ptr %316, i64 0, i64 1, i32 0, i64 2
  %352 = load double, ptr %272, align 8, !tbaa !16
  %353 = tail call double @llvm.fmuladd.f64(double %352, double %295, double 0.000000e+00)
  store double %353, ptr %351, align 8, !tbaa !16
  %354 = load double, ptr %281, align 8, !tbaa !16
  %355 = tail call double @llvm.fmuladd.f64(double %354, double %304, double %353)
  store double %355, ptr %351, align 8, !tbaa !16
  %356 = load double, ptr %290, align 8, !tbaa !16
  %357 = tail call double @llvm.fmuladd.f64(double %356, double %313, double %355)
  store double %357, ptr %351, align 8, !tbaa !16
  %358 = getelementptr inbounds [3 x %"class.dealii::Tensor"], ptr %316, i64 0, i64 2
  %359 = load double, ptr %275, align 8, !tbaa !16
  %360 = tail call double @llvm.fmuladd.f64(double %359, double %277, double 0.000000e+00)
  store double %360, ptr %358, align 8, !tbaa !16
  %361 = load double, ptr %284, align 8, !tbaa !16
  %362 = tail call double @llvm.fmuladd.f64(double %361, double %298, double %360)
  store double %362, ptr %358, align 8, !tbaa !16
  %363 = load double, ptr %293, align 8, !tbaa !16
  %364 = tail call double @llvm.fmuladd.f64(double %363, double %307, double %362)
  store double %364, ptr %358, align 8, !tbaa !16
  %365 = getelementptr inbounds [3 x %"class.dealii::Tensor"], ptr %316, i64 0, i64 2, i32 0, i64 1
  %366 = load double, ptr %275, align 8, !tbaa !16
  %367 = tail call double @llvm.fmuladd.f64(double %366, double %286, double 0.000000e+00)
  store double %367, ptr %365, align 8, !tbaa !16
  %368 = load double, ptr %284, align 8, !tbaa !16
  %369 = tail call double @llvm.fmuladd.f64(double %368, double %301, double %367)
  store double %369, ptr %365, align 8, !tbaa !16
  %370 = load double, ptr %293, align 8, !tbaa !16
  %371 = tail call double @llvm.fmuladd.f64(double %370, double %310, double %369)
  store double %371, ptr %365, align 8, !tbaa !16
  %372 = getelementptr inbounds [3 x %"class.dealii::Tensor"], ptr %316, i64 0, i64 2, i32 0, i64 2
  %373 = load double, ptr %275, align 8, !tbaa !16
  %374 = tail call double @llvm.fmuladd.f64(double %373, double %295, double 0.000000e+00)
  store double %374, ptr %372, align 8, !tbaa !16
  %375 = load double, ptr %284, align 8, !tbaa !16
  %376 = tail call double @llvm.fmuladd.f64(double %375, double %304, double %374)
  store double %376, ptr %372, align 8, !tbaa !16
  %377 = load double, ptr %293, align 8, !tbaa !16
  %378 = tail call double @llvm.fmuladd.f64(double %377, double %313, double %376)
  store double %378, ptr %372, align 8, !tbaa !16
  %379 = add nuw nsw i64 %248, 1
  %380 = icmp eq i64 %379, %8
  br i1 %380, label %678, label %247

381:                                              ; preds = %23, %381
  %382 = phi i64 [ 0, %23 ], [ %522, %381 ]
  %383 = add i64 %382, %2
  %384 = and i64 %383, 4294967295
  %385 = getelementptr inbounds %"class.dealii::Tensor.40", ptr %24, i64 %384
  %386 = load double, ptr %385, align 8, !tbaa !16
  %387 = getelementptr inbounds [3 x double], ptr %385, i64 0, i64 1
  %388 = load double, ptr %387, align 8, !tbaa !16
  %389 = getelementptr inbounds [3 x double], ptr %385, i64 0, i64 2
  %390 = load double, ptr %389, align 8, !tbaa !16
  %391 = getelementptr inbounds [3 x %"class.dealii::Tensor"], ptr %385, i64 0, i64 1
  %392 = load double, ptr %391, align 8, !tbaa !16
  %393 = getelementptr inbounds [3 x %"class.dealii::Tensor"], ptr %385, i64 0, i64 1, i32 0, i64 1
  %394 = load double, ptr %393, align 8, !tbaa !16
  %395 = getelementptr inbounds [3 x %"class.dealii::Tensor"], ptr %385, i64 0, i64 1, i32 0, i64 2
  %396 = load double, ptr %395, align 8, !tbaa !16
  %397 = getelementptr inbounds [3 x %"class.dealii::Tensor"], ptr %385, i64 0, i64 2
  %398 = load double, ptr %397, align 8, !tbaa !16
  %399 = getelementptr inbounds [3 x %"class.dealii::Tensor"], ptr %385, i64 0, i64 2, i32 0, i64 1
  %400 = load double, ptr %399, align 8, !tbaa !16
  %401 = getelementptr inbounds [3 x %"class.dealii::Tensor"], ptr %385, i64 0, i64 2, i32 0, i64 2
  %402 = load double, ptr %401, align 8, !tbaa !16
  %403 = getelementptr inbounds %"class.dealii::Tensor.40", ptr %26, i64 %382
  %404 = load double, ptr %403, align 8, !tbaa !16
  %405 = tail call double @llvm.fmuladd.f64(double %386, double %404, double 0.000000e+00)
  %406 = getelementptr inbounds [3 x %"class.dealii::Tensor"], ptr %403, i64 0, i64 1
  %407 = load double, ptr %406, align 8, !tbaa !16
  %408 = tail call double @llvm.fmuladd.f64(double %388, double %407, double %405)
  %409 = getelementptr inbounds [3 x %"class.dealii::Tensor"], ptr %403, i64 0, i64 2
  %410 = load double, ptr %409, align 8, !tbaa !16
  %411 = tail call double @llvm.fmuladd.f64(double %390, double %410, double %408)
  %412 = getelementptr inbounds [3 x double], ptr %403, i64 0, i64 1
  %413 = load double, ptr %412, align 8, !tbaa !16
  %414 = tail call double @llvm.fmuladd.f64(double %386, double %413, double 0.000000e+00)
  %415 = getelementptr inbounds [3 x double], ptr %403, i64 1, i64 1
  %416 = load double, ptr %415, align 8, !tbaa !16
  %417 = tail call double @llvm.fmuladd.f64(double %388, double %416, double %414)
  %418 = getelementptr inbounds [3 x double], ptr %403, i64 2, i64 1
  %419 = load double, ptr %418, align 8, !tbaa !16
  %420 = tail call double @llvm.fmuladd.f64(double %390, double %419, double %417)
  %421 = getelementptr inbounds [3 x double], ptr %403, i64 0, i64 2
  %422 = load double, ptr %421, align 8, !tbaa !16
  %423 = tail call double @llvm.fmuladd.f64(double %386, double %422, double 0.000000e+00)
  %424 = getelementptr inbounds [3 x double], ptr %403, i64 1, i64 2
  %425 = load double, ptr %424, align 8, !tbaa !16
  %426 = tail call double @llvm.fmuladd.f64(double %388, double %425, double %423)
  %427 = getelementptr inbounds [3 x double], ptr %403, i64 2, i64 2
  %428 = load double, ptr %427, align 8, !tbaa !16
  %429 = tail call double @llvm.fmuladd.f64(double %390, double %428, double %426)
  %430 = tail call double @llvm.fmuladd.f64(double %392, double %404, double 0.000000e+00)
  %431 = tail call double @llvm.fmuladd.f64(double %394, double %407, double %430)
  %432 = tail call double @llvm.fmuladd.f64(double %396, double %410, double %431)
  %433 = tail call double @llvm.fmuladd.f64(double %392, double %413, double 0.000000e+00)
  %434 = tail call double @llvm.fmuladd.f64(double %394, double %416, double %433)
  %435 = tail call double @llvm.fmuladd.f64(double %396, double %419, double %434)
  %436 = tail call double @llvm.fmuladd.f64(double %392, double %422, double 0.000000e+00)
  %437 = tail call double @llvm.fmuladd.f64(double %394, double %425, double %436)
  %438 = tail call double @llvm.fmuladd.f64(double %396, double %428, double %437)
  %439 = tail call double @llvm.fmuladd.f64(double %398, double %404, double 0.000000e+00)
  %440 = tail call double @llvm.fmuladd.f64(double %400, double %407, double %439)
  %441 = tail call double @llvm.fmuladd.f64(double %402, double %410, double %440)
  %442 = tail call double @llvm.fmuladd.f64(double %398, double %413, double 0.000000e+00)
  %443 = tail call double @llvm.fmuladd.f64(double %400, double %416, double %442)
  %444 = tail call double @llvm.fmuladd.f64(double %402, double %419, double %443)
  %445 = tail call double @llvm.fmuladd.f64(double %398, double %422, double 0.000000e+00)
  %446 = tail call double @llvm.fmuladd.f64(double %400, double %425, double %445)
  %447 = tail call double @llvm.fmuladd.f64(double %402, double %428, double %446)
  %448 = add i64 %382, %4
  %449 = and i64 %448, 4294967295
  %450 = getelementptr inbounds %"class.dealii::Tensor.40", ptr %27, i64 %449
  %451 = getelementptr inbounds %"class.dealii::Tensor.40", ptr %29, i64 %382
  tail call void @llvm.memset.p0.i64(ptr noundef nonnull align 8 dereferenceable(72) %450, i8 0, i64 72, i1 false), !tbaa !16
  %452 = load double, ptr %451, align 8, !tbaa !16
  %453 = tail call double @llvm.fmuladd.f64(double %452, double %411, double 0.000000e+00)
  store double %453, ptr %450, align 8, !tbaa !16
  %454 = getelementptr inbounds [3 x double], ptr %451, i64 0, i64 1
  %455 = load double, ptr %454, align 8, !tbaa !16
  %456 = tail call double @llvm.fmuladd.f64(double %455, double %432, double %453)
  store double %456, ptr %450, align 8, !tbaa !16
  %457 = getelementptr inbounds [3 x double], ptr %451, i64 0, i64 2
  %458 = load double, ptr %457, align 8, !tbaa !16
  %459 = tail call double @llvm.fmuladd.f64(double %458, double %441, double %456)
  store double %459, ptr %450, align 8, !tbaa !16
  %460 = getelementptr inbounds [3 x double], ptr %450, i64 0, i64 1
  %461 = load double, ptr %451, align 8, !tbaa !16
  %462 = tail call double @llvm.fmuladd.f64(double %461, double %420, double 0.000000e+00)
  store double %462, ptr %460, align 8, !tbaa !16
  %463 = load double, ptr %454, align 8, !tbaa !16
  %464 = tail call double @llvm.fmuladd.f64(double %463, double %435, double %462)
  store double %464, ptr %460, align 8, !tbaa !16
  %465 = load double, ptr %457, align 8, !tbaa !16
  %466 = tail call double @llvm.fmuladd.f64(double %465, double %444, double %464)
  store double %466, ptr %460, align 8, !tbaa !16
  %467 = getelementptr inbounds [3 x double], ptr %450, i64 0, i64 2
  %468 = load double, ptr %451, align 8, !tbaa !16
  %469 = tail call double @llvm.fmuladd.f64(double %468, double %429, double 0.000000e+00)
  store double %469, ptr %467, align 8, !tbaa !16
  %470 = load double, ptr %454, align 8, !tbaa !16
  %471 = tail call double @llvm.fmuladd.f64(double %470, double %438, double %469)
  store double %471, ptr %467, align 8, !tbaa !16
  %472 = load double, ptr %457, align 8, !tbaa !16
  %473 = tail call double @llvm.fmuladd.f64(double %472, double %447, double %471)
  store double %473, ptr %467, align 8, !tbaa !16
  %474 = getelementptr inbounds [3 x %"class.dealii::Tensor"], ptr %451, i64 0, i64 1
  %475 = getelementptr inbounds [3 x %"class.dealii::Tensor"], ptr %450, i64 0, i64 1
  %476 = load double, ptr %474, align 8, !tbaa !16
  %477 = tail call double @llvm.fmuladd.f64(double %476, double %411, double 0.000000e+00)
  store double %477, ptr %475, align 8, !tbaa !16
  %478 = getelementptr inbounds [3 x %"class.dealii::Tensor"], ptr %451, i64 0, i64 1, i32 0, i64 1
  %479 = load double, ptr %478, align 8, !tbaa !16
  %480 = tail call double @llvm.fmuladd.f64(double %479, double %432, double %477)
  store double %480, ptr %475, align 8, !tbaa !16
  %481 = getelementptr inbounds [3 x %"class.dealii::Tensor"], ptr %451, i64 0, i64 1, i32 0, i64 2
  %482 = load double, ptr %481, align 8, !tbaa !16
  %483 = tail call double @llvm.fmuladd.f64(double %482, double %441, double %480)
  store double %483, ptr %475, align 8, !tbaa !16
  %484 = getelementptr inbounds [3 x %"class.dealii::Tensor"], ptr %450, i64 0, i64 1, i32 0, i64 1
  %485 = load double, ptr %474, align 8, !tbaa !16
  %486 = tail call double @llvm.fmuladd.f64(double %485, double %420, double 0.000000e+00)
  store double %486, ptr %484, align 8, !tbaa !16
  %487 = load double, ptr %478, align 8, !tbaa !16
  %488 = tail call double @llvm.fmuladd.f64(double %487, double %435, double %486)
  store double %488, ptr %484, align 8, !tbaa !16
  %489 = load double, ptr %481, align 8, !tbaa !16
  %490 = tail call double @llvm.fmuladd.f64(double %489, double %444, double %488)
  store double %490, ptr %484, align 8, !tbaa !16
  %491 = getelementptr inbounds [3 x %"class.dealii::Tensor"], ptr %450, i64 0, i64 1, i32 0, i64 2
  %492 = load double, ptr %474, align 8, !tbaa !16
  %493 = tail call double @llvm.fmuladd.f64(double %492, double %429, double 0.000000e+00)
  store double %493, ptr %491, align 8, !tbaa !16
  %494 = load double, ptr %478, align 8, !tbaa !16
  %495 = tail call double @llvm.fmuladd.f64(double %494, double %438, double %493)
  store double %495, ptr %491, align 8, !tbaa !16
  %496 = load double, ptr %481, align 8, !tbaa !16
  %497 = tail call double @llvm.fmuladd.f64(double %496, double %447, double %495)
  store double %497, ptr %491, align 8, !tbaa !16
  %498 = getelementptr inbounds [3 x %"class.dealii::Tensor"], ptr %451, i64 0, i64 2
  %499 = getelementptr inbounds [3 x %"class.dealii::Tensor"], ptr %450, i64 0, i64 2
  %500 = load double, ptr %498, align 8, !tbaa !16
  %501 = tail call double @llvm.fmuladd.f64(double %500, double %411, double 0.000000e+00)
  store double %501, ptr %499, align 8, !tbaa !16
  %502 = getelementptr inbounds [3 x %"class.dealii::Tensor"], ptr %451, i64 0, i64 2, i32 0, i64 1
  %503 = load double, ptr %502, align 8, !tbaa !16
  %504 = tail call double @llvm.fmuladd.f64(double %503, double %432, double %501)
  store double %504, ptr %499, align 8, !tbaa !16
  %505 = getelementptr inbounds [3 x %"class.dealii::Tensor"], ptr %451, i64 0, i64 2, i32 0, i64 2
  %506 = load double, ptr %505, align 8, !tbaa !16
  %507 = tail call double @llvm.fmuladd.f64(double %506, double %441, double %504)
  store double %507, ptr %499, align 8, !tbaa !16
  %508 = getelementptr inbounds [3 x %"class.dealii::Tensor"], ptr %450, i64 0, i64 2, i32 0, i64 1
  %509 = load double, ptr %498, align 8, !tbaa !16
  %510 = tail call double @llvm.fmuladd.f64(double %509, double %420, double 0.000000e+00)
  store double %510, ptr %508, align 8, !tbaa !16
  %511 = load double, ptr %502, align 8, !tbaa !16
  %512 = tail call double @llvm.fmuladd.f64(double %511, double %435, double %510)
  store double %512, ptr %508, align 8, !tbaa !16
  %513 = load double, ptr %505, align 8, !tbaa !16
  %514 = tail call double @llvm.fmuladd.f64(double %513, double %444, double %512)
  store double %514, ptr %508, align 8, !tbaa !16
  %515 = getelementptr inbounds [3 x %"class.dealii::Tensor"], ptr %450, i64 0, i64 2, i32 0, i64 2
  %516 = load double, ptr %498, align 8, !tbaa !16
  %517 = tail call double @llvm.fmuladd.f64(double %516, double %429, double 0.000000e+00)
  store double %517, ptr %515, align 8, !tbaa !16
  %518 = load double, ptr %502, align 8, !tbaa !16
  %519 = tail call double @llvm.fmuladd.f64(double %518, double %438, double %517)
  store double %519, ptr %515, align 8, !tbaa !16
  %520 = load double, ptr %505, align 8, !tbaa !16
  %521 = tail call double @llvm.fmuladd.f64(double %520, double %447, double %519)
  store double %521, ptr %515, align 8, !tbaa !16
  %522 = add nuw nsw i64 %382, 1
  %523 = icmp eq i64 %522, %8
  br i1 %523, label %678, label %381

524:                                              ; preds = %12, %524
  %525 = phi i64 [ 0, %12 ], [ %676, %524 ]
  %526 = add i64 %525, %2
  %527 = and i64 %526, 4294967295
  %528 = getelementptr inbounds %"class.dealii::Tensor.40", ptr %13, i64 %527
  %529 = getelementptr inbounds double, ptr %15, i64 %525
  %530 = load double, ptr %528, align 8, !tbaa !16
  %531 = load double, ptr %529, align 8, !tbaa !16
  %532 = fdiv double %530, %531
  %533 = getelementptr inbounds [3 x double], ptr %528, i64 0, i64 1
  %534 = load double, ptr %533, align 8, !tbaa !16
  %535 = fdiv double %534, %531
  %536 = getelementptr inbounds [3 x double], ptr %528, i64 0, i64 2
  %537 = load double, ptr %536, align 8, !tbaa !16
  %538 = fdiv double %537, %531
  %539 = getelementptr inbounds [3 x %"class.dealii::Tensor"], ptr %528, i64 0, i64 1
  %540 = load double, ptr %539, align 8, !tbaa !16
  %541 = fdiv double %540, %531
  %542 = getelementptr inbounds [3 x %"class.dealii::Tensor"], ptr %528, i64 0, i64 1, i32 0, i64 1
  %543 = load double, ptr %542, align 8, !tbaa !16
  %544 = fdiv double %543, %531
  %545 = getelementptr inbounds [3 x %"class.dealii::Tensor"], ptr %528, i64 0, i64 1, i32 0, i64 2
  %546 = load double, ptr %545, align 8, !tbaa !16
  %547 = fdiv double %546, %531
  %548 = getelementptr inbounds [3 x %"class.dealii::Tensor"], ptr %528, i64 0, i64 2
  %549 = load double, ptr %548, align 8, !tbaa !16
  %550 = fdiv double %549, %531
  %551 = getelementptr inbounds [3 x %"class.dealii::Tensor"], ptr %528, i64 0, i64 2, i32 0, i64 1
  %552 = load double, ptr %551, align 8, !tbaa !16
  %553 = fdiv double %552, %531
  %554 = getelementptr inbounds [3 x %"class.dealii::Tensor"], ptr %528, i64 0, i64 2, i32 0, i64 2
  %555 = load double, ptr %554, align 8, !tbaa !16
  %556 = fdiv double %555, %531
  %557 = getelementptr inbounds %"class.dealii::Tensor.40", ptr %17, i64 %525
  %558 = load double, ptr %557, align 8, !tbaa !16
  %559 = tail call double @llvm.fmuladd.f64(double %532, double %558, double 0.000000e+00)
  %560 = getelementptr inbounds [3 x %"class.dealii::Tensor"], ptr %557, i64 0, i64 1
  %561 = load double, ptr %560, align 8, !tbaa !16
  %562 = tail call double @llvm.fmuladd.f64(double %535, double %561, double %559)
  %563 = getelementptr inbounds [3 x %"class.dealii::Tensor"], ptr %557, i64 0, i64 2
  %564 = load double, ptr %563, align 8, !tbaa !16
  %565 = tail call double @llvm.fmuladd.f64(double %538, double %564, double %562)
  %566 = getelementptr inbounds [3 x double], ptr %557, i64 0, i64 1
  %567 = load double, ptr %566, align 8, !tbaa !16
  %568 = tail call double @llvm.fmuladd.f64(double %532, double %567, double 0.000000e+00)
  %569 = getelementptr inbounds [3 x double], ptr %557, i64 1, i64 1
  %570 = load double, ptr %569, align 8, !tbaa !16
  %571 = tail call double @llvm.fmuladd.f64(double %535, double %570, double %568)
  %572 = getelementptr inbounds [3 x double], ptr %557, i64 2, i64 1
  %573 = load double, ptr %572, align 8, !tbaa !16
  %574 = tail call double @llvm.fmuladd.f64(double %538, double %573, double %571)
  %575 = getelementptr inbounds [3 x double], ptr %557, i64 0, i64 2
  %576 = load double, ptr %575, align 8, !tbaa !16
  %577 = tail call double @llvm.fmuladd.f64(double %532, double %576, double 0.000000e+00)
  %578 = getelementptr inbounds [3 x double], ptr %557, i64 1, i64 2
  %579 = load double, ptr %578, align 8, !tbaa !16
  %580 = tail call double @llvm.fmuladd.f64(double %535, double %579, double %577)
  %581 = getelementptr inbounds [3 x double], ptr %557, i64 2, i64 2
  %582 = load double, ptr %581, align 8, !tbaa !16
  %583 = tail call double @llvm.fmuladd.f64(double %538, double %582, double %580)
  %584 = tail call double @llvm.fmuladd.f64(double %541, double %558, double 0.000000e+00)
  %585 = tail call double @llvm.fmuladd.f64(double %544, double %561, double %584)
  %586 = tail call double @llvm.fmuladd.f64(double %547, double %564, double %585)
  %587 = tail call double @llvm.fmuladd.f64(double %541, double %567, double 0.000000e+00)
  %588 = tail call double @llvm.fmuladd.f64(double %544, double %570, double %587)
  %589 = tail call double @llvm.fmuladd.f64(double %547, double %573, double %588)
  %590 = tail call double @llvm.fmuladd.f64(double %541, double %576, double 0.000000e+00)
  %591 = tail call double @llvm.fmuladd.f64(double %544, double %579, double %590)
  %592 = tail call double @llvm.fmuladd.f64(double %547, double %582, double %591)
  %593 = tail call double @llvm.fmuladd.f64(double %550, double %558, double 0.000000e+00)
  %594 = tail call double @llvm.fmuladd.f64(double %553, double %561, double %593)
  %595 = tail call double @llvm.fmuladd.f64(double %556, double %564, double %594)
  %596 = tail call double @llvm.fmuladd.f64(double %550, double %567, double 0.000000e+00)
  %597 = tail call double @llvm.fmuladd.f64(double %553, double %570, double %596)
  %598 = tail call double @llvm.fmuladd.f64(double %556, double %573, double %597)
  %599 = tail call double @llvm.fmuladd.f64(double %550, double %576, double 0.000000e+00)
  %600 = tail call double @llvm.fmuladd.f64(double %553, double %579, double %599)
  %601 = tail call double @llvm.fmuladd.f64(double %556, double %582, double %600)
  %602 = add i64 %525, %4
  %603 = and i64 %602, 4294967295
  %604 = getelementptr inbounds %"class.dealii::Tensor.40", ptr %18, i64 %603
  %605 = getelementptr inbounds %"class.dealii::Tensor.40", ptr %20, i64 %525
  tail call void @llvm.memset.p0.i64(ptr noundef nonnull align 8 dereferenceable(72) %604, i8 0, i64 72, i1 false), !tbaa !16
  %606 = load double, ptr %605, align 8, !tbaa !16
  %607 = tail call double @llvm.fmuladd.f64(double %606, double %565, double 0.000000e+00)
  store double %607, ptr %604, align 8, !tbaa !16
  %608 = getelementptr inbounds [3 x double], ptr %605, i64 0, i64 1
  %609 = load double, ptr %608, align 8, !tbaa !16
  %610 = tail call double @llvm.fmuladd.f64(double %609, double %586, double %607)
  store double %610, ptr %604, align 8, !tbaa !16
  %611 = getelementptr inbounds [3 x double], ptr %605, i64 0, i64 2
  %612 = load double, ptr %611, align 8, !tbaa !16
  %613 = tail call double @llvm.fmuladd.f64(double %612, double %595, double %610)
  store double %613, ptr %604, align 8, !tbaa !16
  %614 = getelementptr inbounds [3 x double], ptr %604, i64 0, i64 1
  %615 = load double, ptr %605, align 8, !tbaa !16
  %616 = tail call double @llvm.fmuladd.f64(double %615, double %574, double 0.000000e+00)
  store double %616, ptr %614, align 8, !tbaa !16
  %617 = load double, ptr %608, align 8, !tbaa !16
  %618 = tail call double @llvm.fmuladd.f64(double %617, double %589, double %616)
  store double %618, ptr %614, align 8, !tbaa !16
  %619 = load double, ptr %611, align 8, !tbaa !16
  %620 = tail call double @llvm.fmuladd.f64(double %619, double %598, double %618)
  store double %620, ptr %614, align 8, !tbaa !16
  %621 = getelementptr inbounds [3 x double], ptr %604, i64 0, i64 2
  %622 = load double, ptr %605, align 8, !tbaa !16
  %623 = tail call double @llvm.fmuladd.f64(double %622, double %583, double 0.000000e+00)
  store double %623, ptr %621, align 8, !tbaa !16
  %624 = load double, ptr %608, align 8, !tbaa !16
  %625 = tail call double @llvm.fmuladd.f64(double %624, double %592, double %623)
  store double %625, ptr %621, align 8, !tbaa !16
  %626 = load double, ptr %611, align 8, !tbaa !16
  %627 = tail call double @llvm.fmuladd.f64(double %626, double %601, double %625)
  store double %627, ptr %621, align 8, !tbaa !16
  %628 = getelementptr inbounds [3 x %"class.dealii::Tensor"], ptr %605, i64 0, i64 1
  %629 = getelementptr inbounds [3 x %"class.dealii::Tensor"], ptr %604, i64 0, i64 1
  %630 = load double, ptr %628, align 8, !tbaa !16
  %631 = tail call double @llvm.fmuladd.f64(double %630, double %565, double 0.000000e+00)
  store double %631, ptr %629, align 8, !tbaa !16
  %632 = getelementptr inbounds [3 x %"class.dealii::Tensor"], ptr %605, i64 0, i64 1, i32 0, i64 1
  %633 = load double, ptr %632, align 8, !tbaa !16
  %634 = tail call double @llvm.fmuladd.f64(double %633, double %586, double %631)
  store double %634, ptr %629, align 8, !tbaa !16
  %635 = getelementptr inbounds [3 x %"class.dealii::Tensor"], ptr %605, i64 0, i64 1, i32 0, i64 2
  %636 = load double, ptr %635, align 8, !tbaa !16
  %637 = tail call double @llvm.fmuladd.f64(double %636, double %595, double %634)
  store double %637, ptr %629, align 8, !tbaa !16
  %638 = getelementptr inbounds [3 x %"class.dealii::Tensor"], ptr %604, i64 0, i64 1, i32 0, i64 1
  %639 = load double, ptr %628, align 8, !tbaa !16
  %640 = tail call double @llvm.fmuladd.f64(double %639, double %574, double 0.000000e+00)
  store double %640, ptr %638, align 8, !tbaa !16
  %641 = load double, ptr %632, align 8, !tbaa !16
  %642 = tail call double @llvm.fmuladd.f64(double %641, double %589, double %640)
  store double %642, ptr %638, align 8, !tbaa !16
  %643 = load double, ptr %635, align 8, !tbaa !16
  %644 = tail call double @llvm.fmuladd.f64(double %643, double %598, double %642)
  store double %644, ptr %638, align 8, !tbaa !16
  %645 = getelementptr inbounds [3 x %"class.dealii::Tensor"], ptr %604, i64 0, i64 1, i32 0, i64 2
  %646 = load double, ptr %628, align 8, !tbaa !16
  %647 = tail call double @llvm.fmuladd.f64(double %646, double %583, double 0.000000e+00)
  store double %647, ptr %645, align 8, !tbaa !16
  %648 = load double, ptr %632, align 8, !tbaa !16
  %649 = tail call double @llvm.fmuladd.f64(double %648, double %592, double %647)
  store double %649, ptr %645, align 8, !tbaa !16
  %650 = load double, ptr %635, align 8, !tbaa !16
  %651 = tail call double @llvm.fmuladd.f64(double %650, double %601, double %649)
  store double %651, ptr %645, align 8, !tbaa !16
  %652 = getelementptr inbounds [3 x %"class.dealii::Tensor"], ptr %605, i64 0, i64 2
  %653 = getelementptr inbounds [3 x %"class.dealii::Tensor"], ptr %604, i64 0, i64 2
  %654 = load double, ptr %652, align 8, !tbaa !16
  %655 = tail call double @llvm.fmuladd.f64(double %654, double %565, double 0.000000e+00)
  store double %655, ptr %653, align 8, !tbaa !16
  %656 = getelementptr inbounds [3 x %"class.dealii::Tensor"], ptr %605, i64 0, i64 2, i32 0, i64 1
  %657 = load double, ptr %656, align 8, !tbaa !16
  %658 = tail call double @llvm.fmuladd.f64(double %657, double %586, double %655)
  store double %658, ptr %653, align 8, !tbaa !16
  %659 = getelementptr inbounds [3 x %"class.dealii::Tensor"], ptr %605, i64 0, i64 2, i32 0, i64 2
  %660 = load double, ptr %659, align 8, !tbaa !16
  %661 = tail call double @llvm.fmuladd.f64(double %660, double %595, double %658)
  store double %661, ptr %653, align 8, !tbaa !16
  %662 = getelementptr inbounds [3 x %"class.dealii::Tensor"], ptr %604, i64 0, i64 2, i32 0, i64 1
  %663 = load double, ptr %652, align 8, !tbaa !16
  %664 = tail call double @llvm.fmuladd.f64(double %663, double %574, double 0.000000e+00)
  store double %664, ptr %662, align 8, !tbaa !16
  %665 = load double, ptr %656, align 8, !tbaa !16
  %666 = tail call double @llvm.fmuladd.f64(double %665, double %589, double %664)
  store double %666, ptr %662, align 8, !tbaa !16
  %667 = load double, ptr %659, align 8, !tbaa !16
  %668 = tail call double @llvm.fmuladd.f64(double %667, double %598, double %666)
  store double %668, ptr %662, align 8, !tbaa !16
  %669 = getelementptr inbounds [3 x %"class.dealii::Tensor"], ptr %604, i64 0, i64 2, i32 0, i64 2
  %670 = load double, ptr %652, align 8, !tbaa !16
  %671 = tail call double @llvm.fmuladd.f64(double %670, double %583, double 0.000000e+00)
  store double %671, ptr %669, align 8, !tbaa !16
  %672 = load double, ptr %656, align 8, !tbaa !16
  %673 = tail call double @llvm.fmuladd.f64(double %672, double %592, double %671)
  store double %673, ptr %669, align 8, !tbaa !16
  %674 = load double, ptr %659, align 8, !tbaa !16
  %675 = tail call double @llvm.fmuladd.f64(double %674, double %601, double %673)
  store double %675, ptr %669, align 8, !tbaa !16
  %676 = add nuw nsw i64 %525, 1
  %677 = icmp eq i64 %676, %8
  br i1 %677, label %678, label %524

678:                                              ; preds = %524, %381, %247, %149, %51, %10, %21, %30, %37, %44, %7
  ret void
}

; Function Attrs: sspstrong uwtable
define weak_odr dso_local noundef ptr @_ZNK6dealii9MappingQ1ILi3ELi3EE5cloneEv(ptr noundef nonnull align 8 dereferenceable(72) %0) unnamed_addr #0 comdat align 2 personality ptr @__gxx_personality_v0 {
  %2 = tail call noalias noundef nonnull dereferenceable(72) ptr @_Znwm(i64 noundef 72) #19
  invoke void @_ZN6dealii11SubscriptorC2ERKS0_(ptr noundef nonnull align 8 dereferenceable(72) %2, ptr noundef nonnull align 8 dereferenceable(72) %0)
          to label %3 unwind label %4

3:                                                ; preds = %1
  store ptr getelementptr inbounds ({ [19 x ptr] }, ptr @_ZTVN6dealii9MappingQ1ILi3ELi3EEE, i64 0, inrange i32 0, i64 2), ptr %2, align 8, !tbaa !5
  ret ptr %2

4:                                                ; preds = %1
  %5 = landingpad { ptr, i32 }
          cleanup
  tail call void @_ZdlPv(ptr noundef nonnull %2) #20
  resume { ptr, i32 } %5
}

; Function Attrs: nobuiltin allocsize(0)
declare noundef nonnull ptr @_Znwm(i64 noundef) local_unnamed_addr #5

; Function Attrs: nobuiltin nounwind
declare void @_ZdlPv(ptr noundef) local_unnamed_addr #6

; Function Attrs: sspstrong uwtable
define weak_odr dso_local void @_ZN6dealii9MappingQ1ILi3ELi3EE12InternalDataC2Ej(ptr noundef nonnull align 8 dereferenceable(408) %0, i32 noundef %1) unnamed_addr #0 comdat($_ZN6dealii9MappingQ1ILi3ELi3EE12InternalDataC5Ej) align 2 personality ptr @__gxx_personality_v0 {
  tail call void @_ZN6dealii7MappingILi3ELi3EE16InternalDataBaseC2Ev(ptr noundef nonnull align 8 dereferenceable(185) %0)
  store ptr getelementptr inbounds ({ [6 x ptr] }, ptr @_ZTVN6dealii9MappingQ1ILi3ELi3EE12InternalDataE, i64 0, inrange i32 0, i64 2), ptr %0, align 8, !tbaa !5
  %3 = getelementptr inbounds %"class.dealii::MappingQ1<3, 3>::InternalData", ptr %0, i64 0, i32 1
  %4 = getelementptr inbounds %"class.dealii::MappingQ1<3, 3>::InternalData", ptr %0, i64 0, i32 9
  tail call void @llvm.memset.p0.i64(ptr noundef nonnull align 8 dereferenceable(192) %3, i8 0, i64 192, i1 false)
  store i32 -2, ptr %4, align 8, !tbaa !26
  %5 = getelementptr inbounds %"class.dealii::MappingQ1<3, 3>::InternalData", ptr %0, i64 0, i32 9, i32 0, i32 0, i32 0, i32 0, i32 1
  store i32 -2, ptr %5, align 4, !tbaa !29
  %6 = getelementptr inbounds %"class.dealii::MappingQ1<3, 3>::InternalData", ptr %0, i64 0, i32 9, i32 0, i32 0, i32 0, i32 0, i32 2
  store ptr null, ptr %6, align 8, !tbaa !30
  %7 = getelementptr inbounds %"class.dealii::MappingQ1<3, 3>::InternalData", ptr %0, i64 0, i32 10
  store i8 1, ptr %7, align 8, !tbaa !31
  %8 = getelementptr inbounds %"class.dealii::MappingQ1<3, 3>::InternalData", ptr %0, i64 0, i32 11
  store i32 %1, ptr %8, align 4, !tbaa !68
  ret void
}

declare void @_ZN6dealii7MappingILi3ELi3EE16InternalDataBaseC2Ev(ptr noundef nonnull align 8 dereferenceable(185)) unnamed_addr #2

declare void @_ZN6dealii7MappingILi3ELi3EE16InternalDataBaseD2Ev(ptr noundef nonnull align 8 dereferenceable(185)) unnamed_addr #2

; Function Attrs: inlinehint sspstrong uwtable
define weak_odr dso_local noundef double @_ZNK6dealii9MappingQ1ILi3ELi3EE12InternalData5shapeEjj(ptr noundef nonnull align 8 dereferenceable(408) %0, i32 noundef %1, i32 noundef %2) local_unnamed_addr #7 comdat align 2 {
  %4 = getelementptr inbounds %"class.dealii::MappingQ1<3, 3>::InternalData", ptr %0, i64 0, i32 1
  %5 = getelementptr inbounds %"class.dealii::MappingQ1<3, 3>::InternalData", ptr %0, i64 0, i32 11
  %6 = load i32, ptr %5, align 4, !tbaa !68
  %7 = mul i32 %6, %1
  %8 = add i32 %7, %2
  %9 = zext i32 %8 to i64
  %10 = load ptr, ptr %4, align 8, !tbaa !18
  %11 = getelementptr inbounds double, ptr %10, i64 %9
  %12 = load double, ptr %11, align 8, !tbaa !16
  ret double %12
}

; Function Attrs: inlinehint sspstrong uwtable
define weak_odr dso_local noundef nonnull align 8 dereferenceable(8) ptr @_ZN6dealii9MappingQ1ILi3ELi3EE12InternalData5shapeEjj(ptr noundef nonnull align 8 dereferenceable(408) %0, i32 noundef %1, i32 noundef %2) local_unnamed_addr #7 comdat align 2 {
  %4 = getelementptr inbounds %"class.dealii::MappingQ1<3, 3>::InternalData", ptr %0, i64 0, i32 1
  %5 = getelementptr inbounds %"class.dealii::MappingQ1<3, 3>::InternalData", ptr %0, i64 0, i32 11
  %6 = load i32, ptr %5, align 4, !tbaa !68
  %7 = mul i32 %6, %1
  %8 = add i32 %7, %2
  %9 = zext i32 %8 to i64
  %10 = load ptr, ptr %4, align 8, !tbaa !18
  %11 = getelementptr inbounds double, ptr %10, i64 %9
  ret ptr %11
}

; Function Attrs: inlinehint sspstrong uwtable
define weak_odr dso_local void @_ZNK6dealii9MappingQ1ILi3ELi3EE12InternalData10derivativeEjj(ptr noalias sret(%"class.dealii::Tensor") align 8 %0, ptr noundef nonnull align 8 dereferenceable(408) %1, i32 noundef %2, i32 noundef %3) local_unnamed_addr #7 comdat align 2 {
  %5 = getelementptr inbounds %"class.dealii::MappingQ1<3, 3>::InternalData", ptr %1, i64 0, i32 2
  %6 = getelementptr inbounds %"class.dealii::MappingQ1<3, 3>::InternalData", ptr %1, i64 0, i32 11
  %7 = load i32, ptr %6, align 4, !tbaa !68
  %8 = mul i32 %7, %2
  %9 = add i32 %8, %3
  %10 = zext i32 %9 to i64
  %11 = load ptr, ptr %5, align 8, !tbaa !121
  %12 = getelementptr inbounds %"class.dealii::Tensor", ptr %11, i64 %10
  %13 = load <2 x double>, ptr %12, align 8, !tbaa !16
  store <2 x double> %13, ptr %0, align 8, !tbaa !16
  %14 = getelementptr inbounds [3 x double], ptr %12, i64 0, i64 2
  %15 = load double, ptr %14, align 8, !tbaa !16
  %16 = getelementptr inbounds [3 x double], ptr %0, i64 0, i64 2
  store double %15, ptr %16, align 8, !tbaa !16
  ret void
}

; Function Attrs: inlinehint sspstrong uwtable
define weak_odr dso_local noundef nonnull align 8 dereferenceable(24) ptr @_ZN6dealii9MappingQ1ILi3ELi3EE12InternalData10derivativeEjj(ptr noundef nonnull align 8 dereferenceable(408) %0, i32 noundef %1, i32 noundef %2) local_unnamed_addr #7 comdat align 2 {
  %4 = getelementptr inbounds %"class.dealii::MappingQ1<3, 3>::InternalData", ptr %0, i64 0, i32 2
  %5 = getelementptr inbounds %"class.dealii::MappingQ1<3, 3>::InternalData", ptr %0, i64 0, i32 11
  %6 = load i32, ptr %5, align 4, !tbaa !68
  %7 = mul i32 %6, %1
  %8 = add i32 %7, %2
  %9 = zext i32 %8 to i64
  %10 = load ptr, ptr %4, align 8, !tbaa !121
  %11 = getelementptr inbounds %"class.dealii::Tensor", ptr %10, i64 %9
  ret ptr %11
}

; Function Attrs: inlinehint sspstrong uwtable
define weak_odr dso_local void @_ZNK6dealii9MappingQ1ILi3ELi3EE12InternalData17second_derivativeEjj(ptr noalias sret(%"class.dealii::Tensor.40") align 8 %0, ptr noundef nonnull align 8 dereferenceable(408) %1, i32 noundef %2, i32 noundef %3) local_unnamed_addr #7 comdat align 2 {
  %5 = getelementptr inbounds %"class.dealii::MappingQ1<3, 3>::InternalData", ptr %1, i64 0, i32 3
  %6 = getelementptr inbounds %"class.dealii::MappingQ1<3, 3>::InternalData", ptr %1, i64 0, i32 11
  %7 = load i32, ptr %6, align 4, !tbaa !68
  %8 = mul i32 %7, %2
  %9 = add i32 %8, %3
  %10 = zext i32 %9 to i64
  %11 = load ptr, ptr %5, align 8, !tbaa !134
  %12 = getelementptr inbounds %"class.dealii::Tensor.40", ptr %11, i64 %10
  %13 = load <4 x double>, ptr %12, align 8, !tbaa !16
  store <4 x double> %13, ptr %0, align 8, !tbaa !16
  %14 = getelementptr inbounds [3 x %"class.dealii::Tensor"], ptr %12, i64 0, i64 1, i32 0, i64 1
  %15 = getelementptr inbounds %"class.dealii::Tensor", ptr %0, i64 1, i32 0, i64 1
  %16 = load <4 x double>, ptr %14, align 8, !tbaa !16
  store <4 x double> %16, ptr %15, align 8, !tbaa !16
  %17 = getelementptr inbounds [3 x %"class.dealii::Tensor"], ptr %12, i64 0, i64 2, i32 0, i64 2
  %18 = load double, ptr %17, align 8, !tbaa !16
  %19 = getelementptr inbounds %"class.dealii::Tensor", ptr %0, i64 2, i32 0, i64 2
  store double %18, ptr %19, align 8, !tbaa !16
  ret void
}

; Function Attrs: inlinehint sspstrong uwtable
define weak_odr dso_local noundef nonnull align 8 dereferenceable(72) ptr @_ZN6dealii9MappingQ1ILi3ELi3EE12InternalData17second_derivativeEjj(ptr noundef nonnull align 8 dereferenceable(408) %0, i32 noundef %1, i32 noundef %2) local_unnamed_addr #7 comdat align 2 {
  %4 = getelementptr inbounds %"class.dealii::MappingQ1<3, 3>::InternalData", ptr %0, i64 0, i32 3
  %5 = getelementptr inbounds %"class.dealii::MappingQ1<3, 3>::InternalData", ptr %0, i64 0, i32 11
  %6 = load i32, ptr %5, align 4, !tbaa !68
  %7 = mul i32 %6, %1
  %8 = add i32 %7, %2
  %9 = zext i32 %8 to i64
  %10 = load ptr, ptr %4, align 8, !tbaa !134
  %11 = getelementptr inbounds %"class.dealii::Tensor.40", ptr %10, i64 %9
  ret ptr %11
}

; Function Attrs: sspstrong uwtable
define weak_odr dso_local noundef i32 @_ZNK6dealii9MappingQ1ILi3ELi3EE12InternalData18memory_consumptionEv(ptr noundef nonnull align 8 dereferenceable(408) %0) unnamed_addr #0 comdat align 2 {
  %2 = tail call noundef i32 @_ZNK6dealii7MappingILi3ELi3EE16InternalDataBase18memory_consumptionEv(ptr noundef nonnull align 8 dereferenceable(185) %0)
  %3 = getelementptr inbounds %"class.dealii::MappingQ1<3, 3>::InternalData", ptr %0, i64 0, i32 1
  %4 = getelementptr inbounds %"class.dealii::MappingQ1<3, 3>::InternalData", ptr %0, i64 0, i32 1, i32 0, i32 0, i32 0, i32 2
  %5 = load ptr, ptr %4, align 8, !tbaa !135
  %6 = load ptr, ptr %3, align 8, !tbaa !18
  %7 = getelementptr inbounds %"class.dealii::MappingQ1<3, 3>::InternalData", ptr %0, i64 0, i32 2
  %8 = getelementptr inbounds %"class.dealii::MappingQ1<3, 3>::InternalData", ptr %0, i64 0, i32 2, i32 0, i32 0, i32 0, i32 1
  %9 = load ptr, ptr %8, align 8, !tbaa !136
  %10 = load ptr, ptr %7, align 8, !tbaa !121
  %11 = getelementptr inbounds %"class.dealii::MappingQ1<3, 3>::InternalData", ptr %0, i64 0, i32 2, i32 0, i32 0, i32 0, i32 2
  %12 = load ptr, ptr %11, align 8, !tbaa !137
  %13 = getelementptr inbounds %"class.dealii::MappingQ1<3, 3>::InternalData", ptr %0, i64 0, i32 4
  %14 = getelementptr inbounds %"class.dealii::MappingQ1<3, 3>::InternalData", ptr %0, i64 0, i32 4, i32 0, i32 0, i32 0, i32 1
  %15 = load ptr, ptr %14, align 8, !tbaa !138
  %16 = load ptr, ptr %13, align 8, !tbaa !134
  %17 = getelementptr inbounds %"class.dealii::MappingQ1<3, 3>::InternalData", ptr %0, i64 0, i32 4, i32 0, i32 0, i32 0, i32 2
  %18 = load ptr, ptr %17, align 8, !tbaa !139
  %19 = getelementptr inbounds %"class.dealii::MappingQ1<3, 3>::InternalData", ptr %0, i64 0, i32 5
  %20 = getelementptr inbounds %"class.dealii::MappingQ1<3, 3>::InternalData", ptr %0, i64 0, i32 5, i32 0, i32 0, i32 0, i32 1
  %21 = load ptr, ptr %20, align 8, !tbaa !138
  %22 = load ptr, ptr %19, align 8, !tbaa !134
  %23 = getelementptr inbounds %"class.dealii::MappingQ1<3, 3>::InternalData", ptr %0, i64 0, i32 5, i32 0, i32 0, i32 0, i32 2
  %24 = load ptr, ptr %23, align 8, !tbaa !139
  %25 = getelementptr inbounds %"class.dealii::MappingQ1<3, 3>::InternalData", ptr %0, i64 0, i32 6
  %26 = getelementptr inbounds %"class.dealii::MappingQ1<3, 3>::InternalData", ptr %0, i64 0, i32 6, i32 0, i32 0, i32 0, i32 1
  %27 = load ptr, ptr %26, align 8, !tbaa !140
  %28 = load ptr, ptr %25, align 8, !tbaa !141
  %29 = ptrtoint ptr %27 to i64
  %30 = ptrtoint ptr %28 to i64
  %31 = sub i64 %29, %30
  %32 = sdiv exact i64 %31, 24
  %33 = and i64 %32, 4294967295
  %34 = icmp eq i64 %33, 0
  br i1 %34, label %60, label %35

35:                                               ; preds = %1, %35
  %36 = phi i64 [ %58, %35 ], [ 0, %1 ]
  %37 = phi i32 [ %57, %35 ], [ 24, %1 ]
  %38 = getelementptr inbounds %"class.std::vector.29", ptr %28, i64 %36
  %39 = getelementptr inbounds %"struct.std::_Vector_base<dealii::Tensor<1, 3>, std::allocator<dealii::Tensor<1, 3> > >::_Vector_impl_data", ptr %38, i64 0, i32 1
  %40 = load ptr, ptr %39, align 8, !tbaa !136
  %41 = load ptr, ptr %38, align 8, !tbaa !121
  %42 = ptrtoint ptr %40 to i64
  %43 = ptrtoint ptr %41 to i64
  %44 = sub i64 %42, %43
  %45 = sdiv exact i64 %44, 24
  %46 = trunc i64 %45 to i32
  %47 = getelementptr inbounds %"struct.std::_Vector_base<dealii::Tensor<1, 3>, std::allocator<dealii::Tensor<1, 3> > >::_Vector_impl_data", ptr %38, i64 0, i32 2
  %48 = load ptr, ptr %47, align 8, !tbaa !137
  %49 = ptrtoint ptr %48 to i64
  %50 = sub i64 %49, %43
  %51 = sdiv exact i64 %50, 24
  %52 = sub nsw i64 %51, %45
  %53 = trunc i64 %52 to i32
  %54 = add i32 %53, %46
  %55 = mul i32 %54, 24
  %56 = add i32 %37, 24
  %57 = add i32 %56, %55
  %58 = add nuw nsw i64 %36, 1
  %59 = icmp eq i64 %58, %33
  br i1 %59, label %60, label %35

60:                                               ; preds = %35, %1
  %61 = phi i32 [ 24, %1 ], [ %57, %35 ]
  %62 = getelementptr inbounds %"class.dealii::MappingQ1<3, 3>::InternalData", ptr %0, i64 0, i32 6, i32 0, i32 0, i32 0, i32 2
  %63 = load ptr, ptr %62, align 8, !tbaa !142
  %64 = getelementptr inbounds %"class.dealii::MappingQ1<3, 3>::InternalData", ptr %0, i64 0, i32 7
  %65 = getelementptr inbounds %"class.dealii::MappingQ1<3, 3>::InternalData", ptr %0, i64 0, i32 7, i32 0, i32 0, i32 0, i32 1
  %66 = load ptr, ptr %65, align 8, !tbaa !140
  %67 = load ptr, ptr %64, align 8, !tbaa !141
  %68 = ptrtoint ptr %66 to i64
  %69 = ptrtoint ptr %67 to i64
  %70 = sub i64 %68, %69
  %71 = sdiv exact i64 %70, 24
  %72 = and i64 %71, 4294967295
  %73 = icmp eq i64 %72, 0
  br i1 %73, label %99, label %74

74:                                               ; preds = %60, %74
  %75 = phi i64 [ %97, %74 ], [ 0, %60 ]
  %76 = phi i32 [ %96, %74 ], [ 24, %60 ]
  %77 = getelementptr inbounds %"class.std::vector.29", ptr %67, i64 %75
  %78 = getelementptr inbounds %"struct.std::_Vector_base<dealii::Tensor<1, 3>, std::allocator<dealii::Tensor<1, 3> > >::_Vector_impl_data", ptr %77, i64 0, i32 1
  %79 = load ptr, ptr %78, align 8, !tbaa !136
  %80 = load ptr, ptr %77, align 8, !tbaa !121
  %81 = ptrtoint ptr %79 to i64
  %82 = ptrtoint ptr %80 to i64
  %83 = sub i64 %81, %82
  %84 = sdiv exact i64 %83, 24
  %85 = trunc i64 %84 to i32
  %86 = getelementptr inbounds %"struct.std::_Vector_base<dealii::Tensor<1, 3>, std::allocator<dealii::Tensor<1, 3> > >::_Vector_impl_data", ptr %77, i64 0, i32 2
  %87 = load ptr, ptr %86, align 8, !tbaa !137
  %88 = ptrtoint ptr %87 to i64
  %89 = sub i64 %88, %82
  %90 = sdiv exact i64 %89, 24
  %91 = sub nsw i64 %90, %84
  %92 = trunc i64 %91 to i32
  %93 = add i32 %92, %85
  %94 = mul i32 %93, 24
  %95 = add i32 %76, 24
  %96 = add i32 %95, %94
  %97 = add nuw nsw i64 %75, 1
  %98 = icmp eq i64 %97, %72
  br i1 %98, label %99, label %74

99:                                               ; preds = %74, %60
  %100 = phi i32 [ 24, %60 ], [ %96, %74 ]
  %101 = ptrtoint ptr %5 to i64
  %102 = ptrtoint ptr %6 to i64
  %103 = sub i64 %101, %102
  %104 = trunc i64 %103 to i32
  %105 = and i32 %104, -8
  %106 = ptrtoint ptr %12 to i64
  %107 = ptrtoint ptr %10 to i64
  %108 = sub i64 %106, %107
  %109 = sdiv exact i64 %108, 24
  %110 = ptrtoint ptr %9 to i64
  %111 = sub i64 %110, %107
  %112 = sdiv exact i64 %111, 24
  %113 = sub nsw i64 %109, %112
  %114 = trunc i64 %113 to i32
  %115 = trunc i64 %112 to i32
  %116 = ptrtoint ptr %18 to i64
  %117 = ptrtoint ptr %16 to i64
  %118 = sub i64 %116, %117
  %119 = sdiv exact i64 %118, 72
  %120 = ptrtoint ptr %15 to i64
  %121 = sub i64 %120, %117
  %122 = sdiv exact i64 %121, 72
  %123 = sub nsw i64 %119, %122
  %124 = trunc i64 %123 to i32
  %125 = trunc i64 %122 to i32
  %126 = ptrtoint ptr %24 to i64
  %127 = ptrtoint ptr %22 to i64
  %128 = sub i64 %126, %127
  %129 = sdiv exact i64 %128, 72
  %130 = ptrtoint ptr %21 to i64
  %131 = sub i64 %130, %127
  %132 = sdiv exact i64 %131, 72
  %133 = sub nsw i64 %129, %132
  %134 = trunc i64 %133 to i32
  %135 = trunc i64 %132 to i32
  %136 = ptrtoint ptr %63 to i64
  %137 = sub i64 %136, %30
  %138 = sdiv exact i64 %137, 24
  %139 = sub nsw i64 %138, %32
  %140 = trunc i64 %139 to i32
  %141 = getelementptr inbounds %"class.dealii::MappingQ1<3, 3>::InternalData", ptr %0, i64 0, i32 7, i32 0, i32 0, i32 0, i32 2
  %142 = load ptr, ptr %141, align 8, !tbaa !142
  %143 = ptrtoint ptr %142 to i64
  %144 = sub i64 %143, %69
  %145 = sdiv exact i64 %144, 24
  %146 = sub nsw i64 %145, %71
  %147 = trunc i64 %146 to i32
  %148 = getelementptr inbounds %"class.dealii::MappingQ1<3, 3>::InternalData", ptr %0, i64 0, i32 8
  %149 = getelementptr inbounds %"class.dealii::MappingQ1<3, 3>::InternalData", ptr %0, i64 0, i32 8, i32 0, i32 0, i32 0, i32 1
  %150 = load ptr, ptr %149, align 8, !tbaa !11
  %151 = load ptr, ptr %148, align 8, !tbaa !15
  %152 = ptrtoint ptr %150 to i64
  %153 = ptrtoint ptr %151 to i64
  %154 = sub i64 %152, %153
  %155 = sdiv exact i64 %154, 24
  %156 = trunc i64 %155 to i32
  %157 = getelementptr inbounds %"class.dealii::MappingQ1<3, 3>::InternalData", ptr %0, i64 0, i32 8, i32 0, i32 0, i32 0, i32 2
  %158 = load ptr, ptr %157, align 8, !tbaa !122
  %159 = ptrtoint ptr %158 to i64
  %160 = sub i64 %159, %153
  %161 = sdiv exact i64 %160, 24
  %162 = sub nsw i64 %161, %155
  %163 = trunc i64 %162 to i32
  %164 = add i32 %114, %115
  %165 = add i32 %164, %140
  %166 = add i32 %165, %147
  %167 = add i32 %166, %156
  %168 = add i32 %167, %163
  %169 = mul i32 %168, 24
  %170 = add i32 %124, %125
  %171 = add i32 %170, %135
  %172 = add i32 %171, %134
  %173 = mul i32 %172, 72
  %174 = add i32 %2, 141
  %175 = add i32 %174, %105
  %176 = add i32 %175, %173
  %177 = add i32 %176, %61
  %178 = add i32 %177, %100
  %179 = add i32 %178, %169
  ret i32 %179
}

declare noundef i32 @_ZNK6dealii7MappingILi3ELi3EE16InternalDataBase18memory_consumptionEv(ptr noundef nonnull align 8 dereferenceable(185)) unnamed_addr #2

; Function Attrs: sspstrong uwtable
define weak_odr dso_local void @_ZNK6dealii9MappingQ1ILi3ELi3EE14fill_fe_valuesERKNS_12TriaIteratorINS_12CellAccessorILi3ELi3EEEEERKNS_10QuadratureILi3EEERNS_7MappingILi3ELi3EE16InternalDataBaseERSt6vectorINS_5PointILi3EEESaISI_EERSG_IdSaIdEERSG_INS_6TensorILi2ELi3EEESaISQ_EERSG_INSP_ILi3ELi3EEESaISU_EEST_SL_RNS_14CellSimilarity10SimilarityE(ptr noundef nonnull align 8 dereferenceable(72) %0, ptr noundef nonnull align 8 dereferenceable(16) %1, ptr noundef nonnull align 8 dereferenceable(128) %2, ptr noundef nonnull align 8 dereferenceable(185) %3, ptr noundef nonnull align 8 dereferenceable(24) %4, ptr noundef nonnull align 8 dereferenceable(24) %5, ptr noundef nonnull align 8 dereferenceable(24) %6, ptr noundef nonnull align 8 dereferenceable(24) %7, ptr noundef nonnull align 8 dereferenceable(24) %8, ptr noundef nonnull align 8 dereferenceable(24) %9, ptr noundef nonnull align 4 dereferenceable(4) %10) unnamed_addr #0 comdat align 2 {
  %12 = alloca %"class.dealii::QProjector<3>::DataSetDescriptor", align 4
  %13 = getelementptr inbounds %"class.dealii::Quadrature", ptr %2, i64 0, i32 3
  %14 = getelementptr inbounds %"class.dealii::Quadrature", ptr %2, i64 0, i32 3, i32 0, i32 0, i32 0, i32 1
  %15 = load ptr, ptr %14, align 8, !tbaa !69
  %16 = load ptr, ptr %13, align 8, !tbaa !18
  %17 = ptrtoint ptr %15 to i64
  %18 = ptrtoint ptr %16 to i64
  %19 = sub i64 %17, %18
  %20 = lshr exact i64 %19, 3
  %21 = trunc i64 %20 to i32
  %22 = tail call i32 @_ZN6dealii10QProjectorILi3EE17DataSetDescriptor4cellEv()
  %23 = load i32, ptr %10, align 4, !tbaa !143
  tail call void @_ZNK6dealii9MappingQ1ILi3ELi3EE12compute_fillERKNS_12TriaIteratorINS_12CellAccessorILi3ELi3EEEEEjNS_10QProjectorILi3EE17DataSetDescriptorENS_14CellSimilarity10SimilarityERNS1_12InternalDataERSt6vectorINS_5PointILi3EEESaISH_EE(ptr noundef nonnull align 8 dereferenceable(72) %0, ptr noundef nonnull align 8 dereferenceable(16) %1, i32 noundef %21, i32 %22, i32 noundef %23, ptr noundef nonnull align 8 dereferenceable(408) %3, ptr noundef nonnull align 8 dereferenceable(24) %4)
  %24 = getelementptr inbounds %"class.dealii::Mapping<3, 3>::InternalDataBase", ptr %3, i64 0, i32 9
  %25 = load i8, ptr %24, align 8, !tbaa !145, !range !123, !noundef !124
  %26 = icmp eq i8 %25, 0
  %27 = getelementptr inbounds %"class.dealii::Mapping<3, 3>::InternalDataBase", ptr %3, i64 0, i32 1
  %28 = getelementptr inbounds %"class.dealii::Mapping<3, 3>::InternalDataBase", ptr %3, i64 0, i32 3
  %29 = load i32, ptr %28, align 8
  %30 = load i32, ptr %27, align 8
  %31 = select i1 %26, i32 %29, i32 %30
  %32 = tail call noundef nonnull align 8 dereferenceable(24) ptr @_ZNK6dealii10QuadratureILi3EE11get_weightsEv(ptr noundef nonnull align 8 dereferenceable(128) %2)
  %33 = and i32 %31, 131104
  %34 = icmp ne i32 %33, 0
  %35 = load i32, ptr %10, align 4
  %36 = icmp ne i32 %35, 1
  %37 = select i1 %34, i1 %36, i1 false
  %38 = icmp ne i32 %21, 0
  %39 = select i1 %37, i1 %38, i1 false
  br i1 %39, label %40, label %188

40:                                               ; preds = %11
  %41 = getelementptr inbounds %"class.dealii::MappingQ1<3, 3>::InternalData", ptr %3, i64 0, i32 5
  %42 = load ptr, ptr %41, align 8, !tbaa !134
  %43 = load ptr, ptr %32, align 8, !tbaa !18
  %44 = load ptr, ptr %5, align 8, !tbaa !18
  %45 = and i64 %20, 4294967295
  %46 = icmp ult i64 %45, 4
  br i1 %46, label %143, label %47

47:                                               ; preds = %40
  %48 = shl nuw nsw i64 %45, 3
  %49 = getelementptr i8, ptr %44, i64 %48
  %50 = mul nuw nsw i64 %45, 72
  %51 = getelementptr i8, ptr %42, i64 %50
  %52 = getelementptr i8, ptr %43, i64 %48
  %53 = icmp ult ptr %44, %51
  %54 = icmp ult ptr %42, %49
  %55 = and i1 %53, %54
  %56 = icmp ult ptr %44, %52
  %57 = icmp ult ptr %43, %49
  %58 = and i1 %56, %57
  %59 = or i1 %55, %58
  br i1 %59, label %143, label %60

60:                                               ; preds = %47
  %61 = and i64 %20, 1
  %62 = sub nsw i64 %45, %61
  br label %63

63:                                               ; preds = %63, %60
  %64 = phi i64 [ 0, %60 ], [ %139, %63 ]
  %65 = or i64 %64, 1
  %66 = getelementptr inbounds %"class.dealii::Tensor.40", ptr %42, i64 %64
  %67 = getelementptr inbounds %"class.dealii::Tensor.40", ptr %42, i64 %65
  %68 = load double, ptr %66, align 8, !tbaa !16, !alias.scope !146
  %69 = load double, ptr %67, align 8, !tbaa !16, !alias.scope !146
  %70 = insertelement <2 x double> poison, double %68, i64 0
  %71 = insertelement <2 x double> %70, double %69, i64 1
  %72 = getelementptr inbounds [3 x %"class.dealii::Tensor"], ptr %66, i64 0, i64 1
  %73 = getelementptr inbounds [3 x %"class.dealii::Tensor"], ptr %67, i64 0, i64 1
  %74 = getelementptr inbounds [3 x %"class.dealii::Tensor"], ptr %66, i64 0, i64 1, i32 0, i64 1
  %75 = getelementptr inbounds [3 x %"class.dealii::Tensor"], ptr %67, i64 0, i64 1, i32 0, i64 1
  %76 = load double, ptr %74, align 8, !tbaa !16, !alias.scope !146
  %77 = load double, ptr %75, align 8, !tbaa !16, !alias.scope !146
  %78 = insertelement <2 x double> poison, double %76, i64 0
  %79 = insertelement <2 x double> %78, double %77, i64 1
  %80 = fmul <2 x double> %71, %79
  %81 = getelementptr inbounds [3 x %"class.dealii::Tensor"], ptr %66, i64 0, i64 2
  %82 = getelementptr inbounds [3 x %"class.dealii::Tensor"], ptr %67, i64 0, i64 2
  %83 = getelementptr inbounds [3 x %"class.dealii::Tensor"], ptr %66, i64 0, i64 2, i32 0, i64 2
  %84 = getelementptr inbounds [3 x %"class.dealii::Tensor"], ptr %67, i64 0, i64 2, i32 0, i64 2
  %85 = load double, ptr %83, align 8, !tbaa !16, !alias.scope !146
  %86 = load double, ptr %84, align 8, !tbaa !16, !alias.scope !146
  %87 = insertelement <2 x double> poison, double %85, i64 0
  %88 = insertelement <2 x double> %87, double %86, i64 1
  %89 = getelementptr inbounds [3 x %"class.dealii::Tensor"], ptr %66, i64 0, i64 1, i32 0, i64 2
  %90 = getelementptr inbounds [3 x %"class.dealii::Tensor"], ptr %67, i64 0, i64 1, i32 0, i64 2
  %91 = load double, ptr %89, align 8, !tbaa !16, !alias.scope !146
  %92 = load double, ptr %90, align 8, !tbaa !16, !alias.scope !146
  %93 = insertelement <2 x double> poison, double %91, i64 0
  %94 = insertelement <2 x double> %93, double %92, i64 1
  %95 = getelementptr inbounds [3 x %"class.dealii::Tensor"], ptr %66, i64 0, i64 2, i32 0, i64 1
  %96 = getelementptr inbounds [3 x %"class.dealii::Tensor"], ptr %67, i64 0, i64 2, i32 0, i64 1
  %97 = load double, ptr %95, align 8, !tbaa !16, !alias.scope !146
  %98 = load double, ptr %96, align 8, !tbaa !16, !alias.scope !146
  %99 = insertelement <2 x double> poison, double %97, i64 0
  %100 = insertelement <2 x double> %99, double %98, i64 1
  %101 = fneg <2 x double> %71
  %102 = fmul <2 x double> %94, %101
  %103 = fmul <2 x double> %102, %100
  %104 = tail call <2 x double> @llvm.fmuladd.v2f64(<2 x double> %80, <2 x double> %88, <2 x double> %103)
  %105 = load double, ptr %72, align 8, !tbaa !16, !alias.scope !146
  %106 = load double, ptr %73, align 8, !tbaa !16, !alias.scope !146
  %107 = insertelement <2 x double> poison, double %105, i64 0
  %108 = insertelement <2 x double> %107, double %106, i64 1
  %109 = getelementptr inbounds [3 x double], ptr %66, i64 0, i64 1
  %110 = getelementptr inbounds [3 x double], ptr %67, i64 0, i64 1
  %111 = load double, ptr %109, align 8, !tbaa !16, !alias.scope !146
  %112 = load double, ptr %110, align 8, !tbaa !16, !alias.scope !146
  %113 = insertelement <2 x double> poison, double %111, i64 0
  %114 = insertelement <2 x double> %113, double %112, i64 1
  %115 = fneg <2 x double> %108
  %116 = fmul <2 x double> %114, %115
  %117 = tail call <2 x double> @llvm.fmuladd.v2f64(<2 x double> %116, <2 x double> %88, <2 x double> %104)
  %118 = getelementptr inbounds [3 x double], ptr %66, i64 0, i64 2
  %119 = getelementptr inbounds [3 x double], ptr %67, i64 0, i64 2
  %120 = load double, ptr %118, align 8, !tbaa !16, !alias.scope !146
  %121 = load double, ptr %119, align 8, !tbaa !16, !alias.scope !146
  %122 = insertelement <2 x double> poison, double %120, i64 0
  %123 = insertelement <2 x double> %122, double %121, i64 1
  %124 = fmul <2 x double> %108, %123
  %125 = tail call <2 x double> @llvm.fmuladd.v2f64(<2 x double> %124, <2 x double> %100, <2 x double> %117)
  %126 = load double, ptr %81, align 8, !tbaa !16, !alias.scope !146
  %127 = load double, ptr %82, align 8, !tbaa !16, !alias.scope !146
  %128 = insertelement <2 x double> poison, double %126, i64 0
  %129 = insertelement <2 x double> %128, double %127, i64 1
  %130 = fmul <2 x double> %114, %129
  %131 = tail call <2 x double> @llvm.fmuladd.v2f64(<2 x double> %130, <2 x double> %94, <2 x double> %125)
  %132 = fneg <2 x double> %129
  %133 = fmul <2 x double> %123, %132
  %134 = tail call <2 x double> @llvm.fmuladd.v2f64(<2 x double> %133, <2 x double> %79, <2 x double> %131)
  %135 = getelementptr inbounds double, ptr %43, i64 %64
  %136 = load <2 x double>, ptr %135, align 8, !tbaa !16, !alias.scope !149
  %137 = fmul <2 x double> %136, %134
  %138 = getelementptr inbounds double, ptr %44, i64 %64
  store <2 x double> %137, ptr %138, align 8, !tbaa !16, !alias.scope !151, !noalias !153
  %139 = add nuw i64 %64, 2
  %140 = icmp eq i64 %139, %62
  br i1 %140, label %141, label %63, !llvm.loop !154

141:                                              ; preds = %63
  %142 = icmp eq i64 %61, 0
  br i1 %142, label %186, label %143

143:                                              ; preds = %47, %40, %141
  %144 = phi i64 [ 0, %47 ], [ 0, %40 ], [ %62, %141 ]
  br label %145

145:                                              ; preds = %143, %145
  %146 = phi i64 [ %184, %145 ], [ %144, %143 ]
  %147 = getelementptr inbounds %"class.dealii::Tensor.40", ptr %42, i64 %146
  %148 = load double, ptr %147, align 8, !tbaa !16
  %149 = getelementptr inbounds [3 x %"class.dealii::Tensor"], ptr %147, i64 0, i64 1
  %150 = getelementptr inbounds [3 x %"class.dealii::Tensor"], ptr %147, i64 0, i64 1, i32 0, i64 1
  %151 = load double, ptr %150, align 8, !tbaa !16
  %152 = fmul double %148, %151
  %153 = getelementptr inbounds [3 x %"class.dealii::Tensor"], ptr %147, i64 0, i64 2
  %154 = getelementptr inbounds [3 x %"class.dealii::Tensor"], ptr %147, i64 0, i64 2, i32 0, i64 2
  %155 = load double, ptr %154, align 8, !tbaa !16
  %156 = getelementptr inbounds [3 x %"class.dealii::Tensor"], ptr %147, i64 0, i64 1, i32 0, i64 2
  %157 = load double, ptr %156, align 8, !tbaa !16
  %158 = getelementptr inbounds [3 x %"class.dealii::Tensor"], ptr %147, i64 0, i64 2, i32 0, i64 1
  %159 = load double, ptr %158, align 8, !tbaa !16
  %160 = fneg double %148
  %161 = fmul double %157, %160
  %162 = fmul double %161, %159
  %163 = tail call double @llvm.fmuladd.f64(double %152, double %155, double %162)
  %164 = load double, ptr %149, align 8, !tbaa !16
  %165 = getelementptr inbounds [3 x double], ptr %147, i64 0, i64 1
  %166 = load double, ptr %165, align 8, !tbaa !16
  %167 = fneg double %164
  %168 = fmul double %166, %167
  %169 = tail call double @llvm.fmuladd.f64(double %168, double %155, double %163)
  %170 = getelementptr inbounds [3 x double], ptr %147, i64 0, i64 2
  %171 = load double, ptr %170, align 8, !tbaa !16
  %172 = fmul double %164, %171
  %173 = tail call double @llvm.fmuladd.f64(double %172, double %159, double %169)
  %174 = load double, ptr %153, align 8, !tbaa !16
  %175 = fmul double %166, %174
  %176 = tail call double @llvm.fmuladd.f64(double %175, double %157, double %173)
  %177 = fneg double %174
  %178 = fmul double %171, %177
  %179 = tail call double @llvm.fmuladd.f64(double %178, double %151, double %176)
  %180 = getelementptr inbounds double, ptr %43, i64 %146
  %181 = load double, ptr %180, align 8, !tbaa !16
  %182 = fmul double %181, %179
  %183 = getelementptr inbounds double, ptr %44, i64 %146
  store double %182, ptr %183, align 8, !tbaa !16
  %184 = add nuw nsw i64 %146, 1
  %185 = icmp eq i64 %184, %45
  br i1 %185, label %186, label %145, !llvm.loop !157

186:                                              ; preds = %145, %141
  %187 = load i32, ptr %10, align 4
  br label %188

188:                                              ; preds = %186, %11
  %189 = phi i32 [ %187, %186 ], [ %35, %11 ]
  %190 = and i32 %31, 128
  %191 = icmp ne i32 %190, 0
  %192 = icmp ne i32 %189, 1
  %193 = select i1 %191, i1 %192, i1 false
  %194 = select i1 %193, i1 %38, i1 false
  br i1 %194, label %195, label %233

195:                                              ; preds = %188
  %196 = getelementptr inbounds %"class.dealii::MappingQ1<3, 3>::InternalData", ptr %3, i64 0, i32 5
  %197 = load ptr, ptr %196, align 8, !tbaa !134
  %198 = load ptr, ptr %6, align 8, !tbaa !134
  %199 = and i64 %20, 4294967295
  br label %200

200:                                              ; preds = %195, %200
  %201 = phi i64 [ 0, %195 ], [ %229, %200 ]
  %202 = getelementptr inbounds %"class.dealii::Tensor.40", ptr %197, i64 %201
  %203 = getelementptr inbounds %"class.dealii::Tensor.40", ptr %198, i64 %201
  %204 = load double, ptr %202, align 8, !tbaa !16
  store double %204, ptr %203, align 8, !tbaa !16
  %205 = getelementptr inbounds [3 x double], ptr %202, i64 0, i64 1
  %206 = load double, ptr %205, align 8, !tbaa !16
  %207 = getelementptr inbounds [3 x double], ptr %203, i64 0, i64 1
  store double %206, ptr %207, align 8, !tbaa !16
  %208 = getelementptr inbounds [3 x double], ptr %202, i64 0, i64 2
  %209 = load double, ptr %208, align 8, !tbaa !16
  %210 = getelementptr inbounds [3 x double], ptr %203, i64 0, i64 2
  store double %209, ptr %210, align 8, !tbaa !16
  %211 = getelementptr inbounds [3 x %"class.dealii::Tensor"], ptr %202, i64 0, i64 1
  %212 = getelementptr inbounds [3 x %"class.dealii::Tensor"], ptr %203, i64 0, i64 1
  %213 = load double, ptr %211, align 8, !tbaa !16
  store double %213, ptr %212, align 8, !tbaa !16
  %214 = getelementptr inbounds [3 x %"class.dealii::Tensor"], ptr %202, i64 0, i64 1, i32 0, i64 1
  %215 = load double, ptr %214, align 8, !tbaa !16
  %216 = getelementptr inbounds [3 x %"class.dealii::Tensor"], ptr %203, i64 0, i64 1, i32 0, i64 1
  store double %215, ptr %216, align 8, !tbaa !16
  %217 = getelementptr inbounds [3 x %"class.dealii::Tensor"], ptr %202, i64 0, i64 1, i32 0, i64 2
  %218 = load double, ptr %217, align 8, !tbaa !16
  %219 = getelementptr inbounds [3 x %"class.dealii::Tensor"], ptr %203, i64 0, i64 1, i32 0, i64 2
  store double %218, ptr %219, align 8, !tbaa !16
  %220 = getelementptr inbounds [3 x %"class.dealii::Tensor"], ptr %202, i64 0, i64 2
  %221 = getelementptr inbounds [3 x %"class.dealii::Tensor"], ptr %203, i64 0, i64 2
  %222 = load double, ptr %220, align 8, !tbaa !16
  store double %222, ptr %221, align 8, !tbaa !16
  %223 = getelementptr inbounds [3 x %"class.dealii::Tensor"], ptr %202, i64 0, i64 2, i32 0, i64 1
  %224 = load double, ptr %223, align 8, !tbaa !16
  %225 = getelementptr inbounds [3 x %"class.dealii::Tensor"], ptr %203, i64 0, i64 2, i32 0, i64 1
  store double %224, ptr %225, align 8, !tbaa !16
  %226 = getelementptr inbounds [3 x %"class.dealii::Tensor"], ptr %202, i64 0, i64 2, i32 0, i64 2
  %227 = load double, ptr %226, align 8, !tbaa !16
  %228 = getelementptr inbounds [3 x %"class.dealii::Tensor"], ptr %203, i64 0, i64 2, i32 0, i64 2
  store double %227, ptr %228, align 8, !tbaa !16
  %229 = add nuw nsw i64 %201, 1
  %230 = icmp eq i64 %229, %199
  br i1 %230, label %231, label %200

231:                                              ; preds = %200
  %232 = load i32, ptr %10, align 4
  br label %233

233:                                              ; preds = %231, %188
  %234 = phi i32 [ %232, %231 ], [ %189, %188 ]
  %235 = and i32 %31, 256
  %236 = icmp eq i32 %235, 0
  %237 = icmp eq i32 %234, 1
  %238 = select i1 %236, i1 true, i1 %237
  br i1 %238, label %455, label %239

239:                                              ; preds = %233
  %240 = load ptr, ptr %7, align 8, !tbaa !70
  %241 = getelementptr inbounds %"struct.std::_Vector_base<dealii::Tensor<3, 3>, std::allocator<dealii::Tensor<3, 3> > >::_Vector_impl_data", ptr %7, i64 0, i32 1
  %242 = load ptr, ptr %241, align 8, !tbaa !70
  %243 = icmp eq ptr %240, %242
  br i1 %243, label %253, label %244

244:                                              ; preds = %239
  %245 = ptrtoint ptr %242 to i64
  %246 = ptrtoint ptr %240 to i64
  %247 = add i64 %245, -216
  %248 = sub i64 %247, %246
  %249 = freeze i64 %248
  %250 = urem i64 %249, 216
  %251 = sub nuw i64 %249, %250
  %252 = add i64 %251, 216
  tail call void @llvm.memset.p0.i64(ptr align 8 %240, i8 0, i64 %252, i1 false), !tbaa !16
  br label %253

253:                                              ; preds = %244, %239
  %254 = icmp eq i32 %21, 0
  br i1 %254, label %498, label %255

255:                                              ; preds = %253
  %256 = getelementptr inbounds %"class.dealii::MappingQ1<3, 3>::InternalData", ptr %3, i64 0, i32 11
  %257 = getelementptr inbounds %"class.dealii::MappingQ1<3, 3>::InternalData", ptr %3, i64 0, i32 3
  %258 = getelementptr inbounds %"class.dealii::MappingQ1<3, 3>::InternalData", ptr %3, i64 0, i32 8
  %259 = load i32, ptr %256, align 4, !tbaa !68
  %260 = icmp eq i32 %259, 0
  br i1 %260, label %455, label %261

261:                                              ; preds = %255
  %262 = and i64 %20, 4294967295
  br label %263

263:                                              ; preds = %261, %272
  %264 = phi i32 [ 1, %261 ], [ %273, %272 ]
  %265 = phi i64 [ 0, %261 ], [ %274, %272 ]
  %266 = icmp eq i32 %264, 0
  br i1 %266, label %272, label %267

267:                                              ; preds = %263
  %268 = trunc i64 %265 to i32
  br label %269

269:                                              ; preds = %267, %451
  %270 = phi i64 [ 0, %267 ], [ %452, %451 ]
  %271 = trunc i64 %270 to i32
  br label %276

272:                                              ; preds = %451, %263
  %273 = phi i32 [ 0, %263 ], [ %433, %451 ]
  %274 = add nuw nsw i64 %265, 1
  %275 = icmp eq i64 %274, %262
  br i1 %275, label %455, label %263, !llvm.loop !158

276:                                              ; preds = %269, %276
  %277 = phi i64 [ 0, %269 ], [ %449, %276 ]
  call void @llvm.lifetime.start.p0(i64 4, ptr nonnull %12) #17
  %278 = call i32 @_ZN6dealii10QProjectorILi3EE17DataSetDescriptor4cellEv()
  store i32 %278, ptr %12, align 4
  %279 = call noundef i32 @_ZNK6dealii10QProjectorILi3EE17DataSetDescriptorcvjEv(ptr noundef nonnull align 4 dereferenceable(4) %12)
  %280 = add i32 %279, %268
  %281 = load i32, ptr %256, align 4, !tbaa !68
  %282 = mul i32 %281, %280
  %283 = add i32 %282, %271
  %284 = zext i32 %283 to i64
  %285 = load ptr, ptr %257, align 8, !tbaa !134
  %286 = getelementptr inbounds %"class.dealii::Tensor.40", ptr %285, i64 %284
  %287 = load double, ptr %286, align 8, !tbaa !16
  %288 = load ptr, ptr %258, align 8, !tbaa !15
  %289 = getelementptr inbounds %"class.dealii::Point", ptr %288, i64 %270
  %290 = getelementptr inbounds [3 x double], ptr %289, i64 0, i64 %277
  %291 = load double, ptr %290, align 8, !tbaa !16
  %292 = load ptr, ptr %7, align 8, !tbaa !160
  %293 = getelementptr inbounds %"class.dealii::Tensor.48", ptr %292, i64 %265
  %294 = getelementptr inbounds [3 x %"class.dealii::Tensor.40"], ptr %293, i64 0, i64 %277
  %295 = load double, ptr %294, align 8, !tbaa !16
  %296 = call double @llvm.fmuladd.f64(double %287, double %291, double %295)
  store double %296, ptr %294, align 8, !tbaa !16
  call void @llvm.lifetime.end.p0(i64 4, ptr nonnull %12) #17
  call void @llvm.lifetime.start.p0(i64 4, ptr nonnull %12) #17
  %297 = call i32 @_ZN6dealii10QProjectorILi3EE17DataSetDescriptor4cellEv()
  store i32 %297, ptr %12, align 4
  %298 = call noundef i32 @_ZNK6dealii10QProjectorILi3EE17DataSetDescriptorcvjEv(ptr noundef nonnull align 4 dereferenceable(4) %12)
  %299 = add i32 %298, %268
  %300 = load i32, ptr %256, align 4, !tbaa !68
  %301 = mul i32 %300, %299
  %302 = add i32 %301, %271
  %303 = zext i32 %302 to i64
  %304 = load ptr, ptr %257, align 8, !tbaa !134
  %305 = getelementptr inbounds %"class.dealii::Tensor.40", ptr %304, i64 %303, i32 0, i64 0, i32 0, i64 1
  %306 = load double, ptr %305, align 8, !tbaa !16
  %307 = load ptr, ptr %258, align 8, !tbaa !15
  %308 = getelementptr inbounds %"class.dealii::Point", ptr %307, i64 %270
  %309 = getelementptr inbounds [3 x double], ptr %308, i64 0, i64 %277
  %310 = load double, ptr %309, align 8, !tbaa !16
  %311 = load ptr, ptr %7, align 8, !tbaa !160
  %312 = getelementptr inbounds %"class.dealii::Tensor.48", ptr %311, i64 %265
  %313 = getelementptr inbounds [3 x %"class.dealii::Tensor.40"], ptr %312, i64 0, i64 %277, i32 0, i64 0, i32 0, i64 1
  %314 = load double, ptr %313, align 8, !tbaa !16
  %315 = call double @llvm.fmuladd.f64(double %306, double %310, double %314)
  store double %315, ptr %313, align 8, !tbaa !16
  call void @llvm.lifetime.end.p0(i64 4, ptr nonnull %12) #17
  call void @llvm.lifetime.start.p0(i64 4, ptr nonnull %12) #17
  %316 = call i32 @_ZN6dealii10QProjectorILi3EE17DataSetDescriptor4cellEv()
  store i32 %316, ptr %12, align 4
  %317 = call noundef i32 @_ZNK6dealii10QProjectorILi3EE17DataSetDescriptorcvjEv(ptr noundef nonnull align 4 dereferenceable(4) %12)
  %318 = add i32 %317, %268
  %319 = load i32, ptr %256, align 4, !tbaa !68
  %320 = mul i32 %319, %318
  %321 = add i32 %320, %271
  %322 = zext i32 %321 to i64
  %323 = load ptr, ptr %257, align 8, !tbaa !134
  %324 = getelementptr inbounds %"class.dealii::Tensor.40", ptr %323, i64 %322, i32 0, i64 0, i32 0, i64 2
  %325 = load double, ptr %324, align 8, !tbaa !16
  %326 = load ptr, ptr %258, align 8, !tbaa !15
  %327 = getelementptr inbounds %"class.dealii::Point", ptr %326, i64 %270
  %328 = getelementptr inbounds [3 x double], ptr %327, i64 0, i64 %277
  %329 = load double, ptr %328, align 8, !tbaa !16
  %330 = load ptr, ptr %7, align 8, !tbaa !160
  %331 = getelementptr inbounds %"class.dealii::Tensor.48", ptr %330, i64 %265
  %332 = getelementptr inbounds [3 x %"class.dealii::Tensor.40"], ptr %331, i64 0, i64 %277, i32 0, i64 0, i32 0, i64 2
  %333 = load double, ptr %332, align 8, !tbaa !16
  %334 = call double @llvm.fmuladd.f64(double %325, double %329, double %333)
  store double %334, ptr %332, align 8, !tbaa !16
  call void @llvm.lifetime.end.p0(i64 4, ptr nonnull %12) #17
  call void @llvm.lifetime.start.p0(i64 4, ptr nonnull %12) #17
  %335 = call i32 @_ZN6dealii10QProjectorILi3EE17DataSetDescriptor4cellEv()
  store i32 %335, ptr %12, align 4
  %336 = call noundef i32 @_ZNK6dealii10QProjectorILi3EE17DataSetDescriptorcvjEv(ptr noundef nonnull align 4 dereferenceable(4) %12)
  %337 = add i32 %336, %268
  %338 = load i32, ptr %256, align 4, !tbaa !68
  %339 = mul i32 %338, %337
  %340 = add i32 %339, %271
  %341 = zext i32 %340 to i64
  %342 = load ptr, ptr %257, align 8, !tbaa !134
  %343 = getelementptr inbounds %"class.dealii::Tensor.40", ptr %342, i64 %341, i32 0, i64 1
  %344 = load double, ptr %343, align 8, !tbaa !16
  %345 = load ptr, ptr %258, align 8, !tbaa !15
  %346 = getelementptr inbounds %"class.dealii::Point", ptr %345, i64 %270
  %347 = getelementptr inbounds [3 x double], ptr %346, i64 0, i64 %277
  %348 = load double, ptr %347, align 8, !tbaa !16
  %349 = load ptr, ptr %7, align 8, !tbaa !160
  %350 = getelementptr inbounds %"class.dealii::Tensor.48", ptr %349, i64 %265
  %351 = getelementptr inbounds [3 x %"class.dealii::Tensor.40"], ptr %350, i64 0, i64 %277, i32 0, i64 1
  %352 = load double, ptr %351, align 8, !tbaa !16
  %353 = call double @llvm.fmuladd.f64(double %344, double %348, double %352)
  store double %353, ptr %351, align 8, !tbaa !16
  call void @llvm.lifetime.end.p0(i64 4, ptr nonnull %12) #17
  call void @llvm.lifetime.start.p0(i64 4, ptr nonnull %12) #17
  %354 = call i32 @_ZN6dealii10QProjectorILi3EE17DataSetDescriptor4cellEv()
  store i32 %354, ptr %12, align 4
  %355 = call noundef i32 @_ZNK6dealii10QProjectorILi3EE17DataSetDescriptorcvjEv(ptr noundef nonnull align 4 dereferenceable(4) %12)
  %356 = add i32 %355, %268
  %357 = load i32, ptr %256, align 4, !tbaa !68
  %358 = mul i32 %357, %356
  %359 = add i32 %358, %271
  %360 = zext i32 %359 to i64
  %361 = load ptr, ptr %257, align 8, !tbaa !134
  %362 = getelementptr inbounds %"class.dealii::Tensor.40", ptr %361, i64 %360, i32 0, i64 1, i32 0, i64 1
  %363 = load double, ptr %362, align 8, !tbaa !16
  %364 = load ptr, ptr %258, align 8, !tbaa !15
  %365 = getelementptr inbounds %"class.dealii::Point", ptr %364, i64 %270
  %366 = getelementptr inbounds [3 x double], ptr %365, i64 0, i64 %277
  %367 = load double, ptr %366, align 8, !tbaa !16
  %368 = load ptr, ptr %7, align 8, !tbaa !160
  %369 = getelementptr inbounds %"class.dealii::Tensor.48", ptr %368, i64 %265
  %370 = getelementptr inbounds [3 x %"class.dealii::Tensor.40"], ptr %369, i64 0, i64 %277, i32 0, i64 1, i32 0, i64 1
  %371 = load double, ptr %370, align 8, !tbaa !16
  %372 = call double @llvm.fmuladd.f64(double %363, double %367, double %371)
  store double %372, ptr %370, align 8, !tbaa !16
  call void @llvm.lifetime.end.p0(i64 4, ptr nonnull %12) #17
  call void @llvm.lifetime.start.p0(i64 4, ptr nonnull %12) #17
  %373 = call i32 @_ZN6dealii10QProjectorILi3EE17DataSetDescriptor4cellEv()
  store i32 %373, ptr %12, align 4
  %374 = call noundef i32 @_ZNK6dealii10QProjectorILi3EE17DataSetDescriptorcvjEv(ptr noundef nonnull align 4 dereferenceable(4) %12)
  %375 = add i32 %374, %268
  %376 = load i32, ptr %256, align 4, !tbaa !68
  %377 = mul i32 %376, %375
  %378 = add i32 %377, %271
  %379 = zext i32 %378 to i64
  %380 = load ptr, ptr %257, align 8, !tbaa !134
  %381 = getelementptr inbounds %"class.dealii::Tensor.40", ptr %380, i64 %379, i32 0, i64 1, i32 0, i64 2
  %382 = load double, ptr %381, align 8, !tbaa !16
  %383 = load ptr, ptr %258, align 8, !tbaa !15
  %384 = getelementptr inbounds %"class.dealii::Point", ptr %383, i64 %270
  %385 = getelementptr inbounds [3 x double], ptr %384, i64 0, i64 %277
  %386 = load double, ptr %385, align 8, !tbaa !16
  %387 = load ptr, ptr %7, align 8, !tbaa !160
  %388 = getelementptr inbounds %"class.dealii::Tensor.48", ptr %387, i64 %265
  %389 = getelementptr inbounds [3 x %"class.dealii::Tensor.40"], ptr %388, i64 0, i64 %277, i32 0, i64 1, i32 0, i64 2
  %390 = load double, ptr %389, align 8, !tbaa !16
  %391 = call double @llvm.fmuladd.f64(double %382, double %386, double %390)
  store double %391, ptr %389, align 8, !tbaa !16
  call void @llvm.lifetime.end.p0(i64 4, ptr nonnull %12) #17
  call void @llvm.lifetime.start.p0(i64 4, ptr nonnull %12) #17
  %392 = call i32 @_ZN6dealii10QProjectorILi3EE17DataSetDescriptor4cellEv()
  store i32 %392, ptr %12, align 4
  %393 = call noundef i32 @_ZNK6dealii10QProjectorILi3EE17DataSetDescriptorcvjEv(ptr noundef nonnull align 4 dereferenceable(4) %12)
  %394 = add i32 %393, %268
  %395 = load i32, ptr %256, align 4, !tbaa !68
  %396 = mul i32 %395, %394
  %397 = add i32 %396, %271
  %398 = zext i32 %397 to i64
  %399 = load ptr, ptr %257, align 8, !tbaa !134
  %400 = getelementptr inbounds %"class.dealii::Tensor.40", ptr %399, i64 %398, i32 0, i64 2
  %401 = load double, ptr %400, align 8, !tbaa !16
  %402 = load ptr, ptr %258, align 8, !tbaa !15
  %403 = getelementptr inbounds %"class.dealii::Point", ptr %402, i64 %270
  %404 = getelementptr inbounds [3 x double], ptr %403, i64 0, i64 %277
  %405 = load double, ptr %404, align 8, !tbaa !16
  %406 = load ptr, ptr %7, align 8, !tbaa !160
  %407 = getelementptr inbounds %"class.dealii::Tensor.48", ptr %406, i64 %265
  %408 = getelementptr inbounds [3 x %"class.dealii::Tensor.40"], ptr %407, i64 0, i64 %277, i32 0, i64 2
  %409 = load double, ptr %408, align 8, !tbaa !16
  %410 = call double @llvm.fmuladd.f64(double %401, double %405, double %409)
  store double %410, ptr %408, align 8, !tbaa !16
  call void @llvm.lifetime.end.p0(i64 4, ptr nonnull %12) #17
  call void @llvm.lifetime.start.p0(i64 4, ptr nonnull %12) #17
  %411 = call i32 @_ZN6dealii10QProjectorILi3EE17DataSetDescriptor4cellEv()
  store i32 %411, ptr %12, align 4
  %412 = call noundef i32 @_ZNK6dealii10QProjectorILi3EE17DataSetDescriptorcvjEv(ptr noundef nonnull align 4 dereferenceable(4) %12)
  %413 = add i32 %412, %268
  %414 = load i32, ptr %256, align 4, !tbaa !68
  %415 = mul i32 %414, %413
  %416 = add i32 %415, %271
  %417 = zext i32 %416 to i64
  %418 = load ptr, ptr %257, align 8, !tbaa !134
  %419 = getelementptr inbounds %"class.dealii::Tensor.40", ptr %418, i64 %417, i32 0, i64 2, i32 0, i64 1
  %420 = load double, ptr %419, align 8, !tbaa !16
  %421 = load ptr, ptr %258, align 8, !tbaa !15
  %422 = getelementptr inbounds %"class.dealii::Point", ptr %421, i64 %270
  %423 = getelementptr inbounds [3 x double], ptr %422, i64 0, i64 %277
  %424 = load double, ptr %423, align 8, !tbaa !16
  %425 = load ptr, ptr %7, align 8, !tbaa !160
  %426 = getelementptr inbounds %"class.dealii::Tensor.48", ptr %425, i64 %265
  %427 = getelementptr inbounds [3 x %"class.dealii::Tensor.40"], ptr %426, i64 0, i64 %277, i32 0, i64 2, i32 0, i64 1
  %428 = load double, ptr %427, align 8, !tbaa !16
  %429 = call double @llvm.fmuladd.f64(double %420, double %424, double %428)
  store double %429, ptr %427, align 8, !tbaa !16
  call void @llvm.lifetime.end.p0(i64 4, ptr nonnull %12) #17
  call void @llvm.lifetime.start.p0(i64 4, ptr nonnull %12) #17
  %430 = call i32 @_ZN6dealii10QProjectorILi3EE17DataSetDescriptor4cellEv()
  store i32 %430, ptr %12, align 4
  %431 = call noundef i32 @_ZNK6dealii10QProjectorILi3EE17DataSetDescriptorcvjEv(ptr noundef nonnull align 4 dereferenceable(4) %12)
  %432 = add i32 %431, %268
  %433 = load i32, ptr %256, align 4, !tbaa !68
  %434 = mul i32 %433, %432
  %435 = add i32 %434, %271
  %436 = zext i32 %435 to i64
  %437 = load ptr, ptr %257, align 8, !tbaa !134
  %438 = getelementptr inbounds %"class.dealii::Tensor.40", ptr %437, i64 %436, i32 0, i64 2, i32 0, i64 2
  %439 = load double, ptr %438, align 8, !tbaa !16
  %440 = load ptr, ptr %258, align 8, !tbaa !15
  %441 = getelementptr inbounds %"class.dealii::Point", ptr %440, i64 %270
  %442 = getelementptr inbounds [3 x double], ptr %441, i64 0, i64 %277
  %443 = load double, ptr %442, align 8, !tbaa !16
  %444 = load ptr, ptr %7, align 8, !tbaa !160
  %445 = getelementptr inbounds %"class.dealii::Tensor.48", ptr %444, i64 %265
  %446 = getelementptr inbounds [3 x %"class.dealii::Tensor.40"], ptr %445, i64 0, i64 %277, i32 0, i64 2, i32 0, i64 2
  %447 = load double, ptr %446, align 8, !tbaa !16
  %448 = call double @llvm.fmuladd.f64(double %439, double %443, double %447)
  store double %448, ptr %446, align 8, !tbaa !16
  call void @llvm.lifetime.end.p0(i64 4, ptr nonnull %12) #17
  %449 = add nuw nsw i64 %277, 1
  %450 = icmp eq i64 %449, 3
  br i1 %450, label %451, label %276

451:                                              ; preds = %276
  %452 = add nuw nsw i64 %270, 1
  %453 = zext i32 %433 to i64
  %454 = icmp ult i64 %452, %453
  br i1 %454, label %269, label %272

455:                                              ; preds = %272, %255, %233
  %456 = and i32 %31, 512
  %457 = icmp ne i32 %456, 0
  %458 = load i32, ptr %10, align 4
  %459 = icmp ne i32 %458, 1
  %460 = select i1 %457, i1 %459, i1 false
  %461 = select i1 %460, i1 %38, i1 false
  br i1 %461, label %462, label %498

462:                                              ; preds = %455
  %463 = getelementptr inbounds %"class.dealii::MappingQ1<3, 3>::InternalData", ptr %3, i64 0, i32 4
  %464 = load ptr, ptr %463, align 8, !tbaa !134
  %465 = load ptr, ptr %8, align 8, !tbaa !134
  %466 = and i64 %20, 4294967295
  br label %467

467:                                              ; preds = %462, %467
  %468 = phi i64 [ 0, %462 ], [ %496, %467 ]
  %469 = getelementptr inbounds %"class.dealii::Tensor.40", ptr %464, i64 %468
  %470 = load double, ptr %469, align 8, !tbaa !16, !noalias !162
  %471 = getelementptr inbounds [3 x %"class.dealii::Tensor"], ptr %469, i64 0, i64 1
  %472 = load double, ptr %471, align 8, !tbaa !16, !noalias !162
  %473 = getelementptr inbounds [3 x %"class.dealii::Tensor"], ptr %469, i64 0, i64 2
  %474 = load double, ptr %473, align 8, !tbaa !16, !noalias !162
  %475 = getelementptr inbounds [3 x double], ptr %469, i64 0, i64 1
  %476 = load double, ptr %475, align 8, !tbaa !16, !noalias !162
  %477 = getelementptr inbounds [3 x %"class.dealii::Tensor"], ptr %469, i64 0, i64 1, i32 0, i64 1
  %478 = load double, ptr %477, align 8, !tbaa !16, !noalias !162
  %479 = getelementptr inbounds [3 x %"class.dealii::Tensor"], ptr %469, i64 0, i64 2, i32 0, i64 1
  %480 = load double, ptr %479, align 8, !tbaa !16, !noalias !162
  %481 = getelementptr inbounds [3 x double], ptr %469, i64 0, i64 2
  %482 = load double, ptr %481, align 8, !tbaa !16, !noalias !162
  %483 = getelementptr inbounds [3 x %"class.dealii::Tensor"], ptr %469, i64 0, i64 1, i32 0, i64 2
  %484 = load double, ptr %483, align 8, !tbaa !16, !noalias !162
  %485 = getelementptr inbounds [3 x %"class.dealii::Tensor"], ptr %469, i64 0, i64 2, i32 0, i64 2
  %486 = load double, ptr %485, align 8, !tbaa !16, !noalias !162
  %487 = getelementptr inbounds %"class.dealii::Tensor.40", ptr %465, i64 %468
  store double %470, ptr %487, align 8, !tbaa !16
  %488 = getelementptr inbounds [3 x double], ptr %487, i64 0, i64 1
  store double %472, ptr %488, align 8, !tbaa !16
  %489 = getelementptr inbounds [3 x double], ptr %487, i64 0, i64 2
  store double %474, ptr %489, align 8, !tbaa !16
  %490 = getelementptr inbounds [3 x %"class.dealii::Tensor"], ptr %487, i64 0, i64 1
  store double %476, ptr %490, align 8, !tbaa !16
  %491 = getelementptr inbounds [3 x %"class.dealii::Tensor"], ptr %487, i64 0, i64 1, i32 0, i64 1
  store double %478, ptr %491, align 8, !tbaa !16
  %492 = getelementptr inbounds [3 x %"class.dealii::Tensor"], ptr %487, i64 0, i64 1, i32 0, i64 2
  store double %480, ptr %492, align 8, !tbaa !16
  %493 = getelementptr inbounds [3 x %"class.dealii::Tensor"], ptr %487, i64 0, i64 2
  store double %482, ptr %493, align 8, !tbaa !16
  %494 = getelementptr inbounds [3 x %"class.dealii::Tensor"], ptr %487, i64 0, i64 2, i32 0, i64 1
  store double %484, ptr %494, align 8, !tbaa !16
  %495 = getelementptr inbounds [3 x %"class.dealii::Tensor"], ptr %487, i64 0, i64 2, i32 0, i64 2
  store double %486, ptr %495, align 8, !tbaa !16
  %496 = add nuw nsw i64 %468, 1
  %497 = icmp eq i64 %496, %466
  br i1 %497, label %498, label %467

498:                                              ; preds = %467, %253, %455
  ret void
}

; Function Attrs: sspstrong uwtable
define weak_odr dso_local void @_ZNK6dealii9MappingQ1ILi3ELi3EE12compute_fillERKNS_12TriaIteratorINS_12CellAccessorILi3ELi3EEEEEjNS_10QProjectorILi3EE17DataSetDescriptorENS_14CellSimilarity10SimilarityERNS1_12InternalDataERSt6vectorINS_5PointILi3EEESaISH_EE(ptr noundef nonnull align 8 dereferenceable(72) %0, ptr noundef nonnull align 8 dereferenceable(16) %1, i32 noundef %2, i32 %3, i32 noundef %4, ptr noundef nonnull align 8 dereferenceable(408) %5, ptr noundef nonnull align 8 dereferenceable(24) %6) local_unnamed_addr #0 comdat align 2 {
  %8 = alloca %"class.dealii::QProjector<3>::DataSetDescriptor", align 4
  store i32 %3, ptr %8, align 4
  %9 = getelementptr inbounds %"class.dealii::Mapping<3, 3>::InternalDataBase", ptr %5, i64 0, i32 9
  %10 = load i8, ptr %9, align 8, !tbaa !145, !range !123, !noundef !124
  %11 = icmp eq i8 %10, 0
  %12 = getelementptr inbounds %"class.dealii::Mapping<3, 3>::InternalDataBase", ptr %5, i64 0, i32 1
  %13 = getelementptr inbounds %"class.dealii::Mapping<3, 3>::InternalDataBase", ptr %5, i64 0, i32 3
  %14 = load i32, ptr %13, align 8
  %15 = load i32, ptr %12, align 8
  %16 = select i1 %11, i32 %14, i32 %15
  %17 = getelementptr inbounds %"class.dealii::MappingQ1<3, 3>::InternalData", ptr %5, i64 0, i32 8
  %18 = getelementptr inbounds %"class.dealii::MappingQ1<3, 3>::InternalData", ptr %5, i64 0, i32 8, i32 0, i32 0, i32 0, i32 1
  %19 = load ptr, ptr %18, align 8, !tbaa !11
  %20 = load ptr, ptr %17, align 8, !tbaa !15
  %21 = icmp eq ptr %19, %20
  br i1 %21, label %39, label %22

22:                                               ; preds = %7
  %23 = getelementptr inbounds %"class.dealii::TriaAccessorBase", ptr %1, i64 0, i32 2
  %24 = load ptr, ptr %23, align 8, !tbaa !30
  %25 = getelementptr inbounds %"class.dealii::MappingQ1<3, 3>::InternalData", ptr %5, i64 0, i32 9, i32 0, i32 0, i32 0, i32 0, i32 2
  %26 = load ptr, ptr %25, align 8, !tbaa !30
  %27 = icmp eq ptr %24, %26
  br i1 %27, label %28, label %39

28:                                               ; preds = %22
  %29 = getelementptr inbounds %"class.dealii::MappingQ1<3, 3>::InternalData", ptr %5, i64 0, i32 9
  %30 = getelementptr inbounds %"class.dealii::TriaAccessorBase", ptr %1, i64 0, i32 1
  %31 = load i32, ptr %30, align 4, !tbaa !29
  %32 = getelementptr inbounds %"class.dealii::MappingQ1<3, 3>::InternalData", ptr %5, i64 0, i32 9, i32 0, i32 0, i32 0, i32 0, i32 1
  %33 = load i32, ptr %32, align 4, !tbaa !29
  %34 = icmp ne i32 %31, %33
  %35 = load i32, ptr %1, align 8
  %36 = load i32, ptr %29, align 8
  %37 = icmp ne i32 %35, %36
  %38 = select i1 %34, i1 true, i1 %37
  br i1 %38, label %39, label %48

39:                                               ; preds = %28, %22, %7
  %40 = load ptr, ptr %0, align 8, !tbaa !5
  %41 = getelementptr inbounds ptr, ptr %40, i64 16
  %42 = load ptr, ptr %41, align 8
  tail call void %42(ptr noundef nonnull align 8 dereferenceable(72) %0, ptr noundef nonnull align 8 dereferenceable(16) %1, ptr noundef nonnull align 8 dereferenceable(24) %17)
  %43 = getelementptr inbounds %"class.dealii::MappingQ1<3, 3>::InternalData", ptr %5, i64 0, i32 9
  %44 = load <2 x i32>, ptr %1, align 8, !tbaa !78
  store <2 x i32> %44, ptr %43, align 8, !tbaa !78
  %45 = getelementptr inbounds %"class.dealii::TriaAccessorBase", ptr %1, i64 0, i32 2
  %46 = load ptr, ptr %45, align 8, !tbaa !30
  %47 = getelementptr inbounds %"class.dealii::MappingQ1<3, 3>::InternalData", ptr %5, i64 0, i32 9, i32 0, i32 0, i32 0, i32 0, i32 2
  store ptr %46, ptr %47, align 8, !tbaa !30
  br label %48

48:                                               ; preds = %39, %28
  %49 = and i32 %16, 16
  %50 = icmp eq i32 %49, 0
  br i1 %50, label %115, label %51

51:                                               ; preds = %48
  %52 = load ptr, ptr %6, align 8, !tbaa !70
  %53 = getelementptr inbounds %"struct.std::_Vector_base<dealii::Point<3>, std::allocator<dealii::Point<3> > >::_Vector_impl_data", ptr %6, i64 0, i32 1
  %54 = load ptr, ptr %53, align 8, !tbaa !70
  %55 = icmp eq ptr %52, %54
  br i1 %55, label %65, label %56

56:                                               ; preds = %51
  %57 = ptrtoint ptr %54 to i64
  %58 = ptrtoint ptr %52 to i64
  %59 = add i64 %57, -24
  %60 = sub i64 %59, %58
  %61 = freeze i64 %60
  %62 = urem i64 %61, 24
  %63 = sub nuw i64 %61, %62
  %64 = add i64 %63, 24
  tail call void @llvm.memset.p0.i64(ptr align 8 %52, i8 0, i64 %64, i1 false), !tbaa !16
  br label %65

65:                                               ; preds = %56, %51
  %66 = icmp eq i32 %2, 0
  br i1 %66, label %115, label %67

67:                                               ; preds = %65
  %68 = getelementptr inbounds %"class.dealii::MappingQ1<3, 3>::InternalData", ptr %5, i64 0, i32 11
  %69 = getelementptr inbounds %"class.dealii::MappingQ1<3, 3>::InternalData", ptr %5, i64 0, i32 1
  %70 = load i32, ptr %68, align 4, !tbaa !68
  %71 = icmp eq i32 %70, 0
  br i1 %71, label %115, label %72

72:                                               ; preds = %67
  %73 = zext i32 %2 to i64
  br label %74

74:                                               ; preds = %72, %80
  %75 = phi i32 [ 1, %72 ], [ %81, %80 ]
  %76 = phi i64 [ 0, %72 ], [ %82, %80 ]
  %77 = icmp eq i32 %75, 0
  br i1 %77, label %80, label %78

78:                                               ; preds = %74
  %79 = trunc i64 %76 to i32
  br label %84

80:                                               ; preds = %84, %74
  %81 = phi i32 [ 0, %74 ], [ %88, %84 ]
  %82 = add nuw nsw i64 %76, 1
  %83 = icmp eq i64 %82, %73
  br i1 %83, label %115, label %74, !llvm.loop !165

84:                                               ; preds = %78, %84
  %85 = phi i64 [ 0, %78 ], [ %112, %84 ]
  %86 = call noundef i32 @_ZNK6dealii10QProjectorILi3EE17DataSetDescriptorcvjEv(ptr noundef nonnull align 4 dereferenceable(4) %8)
  %87 = add i32 %86, %79
  %88 = load i32, ptr %68, align 4, !tbaa !68
  %89 = mul i32 %88, %87
  %90 = trunc i64 %85 to i32
  %91 = add i32 %89, %90
  %92 = zext i32 %91 to i64
  %93 = load ptr, ptr %69, align 8, !tbaa !18
  %94 = getelementptr inbounds double, ptr %93, i64 %92
  %95 = load double, ptr %94, align 8, !tbaa !16
  %96 = load ptr, ptr %17, align 8, !tbaa !15
  %97 = getelementptr inbounds %"class.dealii::Point", ptr %96, i64 %85
  %98 = getelementptr inbounds [3 x double], ptr %97, i64 0, i64 2
  %99 = load double, ptr %98, align 8, !tbaa !16, !noalias !166
  %100 = fmul double %95, %99
  %101 = load ptr, ptr %6, align 8, !tbaa !15
  %102 = getelementptr inbounds %"class.dealii::Point", ptr %101, i64 %76
  %103 = load <2 x double>, ptr %97, align 8, !tbaa !16, !noalias !166
  %104 = insertelement <2 x double> poison, double %95, i64 0
  %105 = shufflevector <2 x double> %104, <2 x double> poison, <2 x i32> zeroinitializer
  %106 = fmul <2 x double> %105, %103
  %107 = load <2 x double>, ptr %102, align 8, !tbaa !16
  %108 = fadd <2 x double> %106, %107
  store <2 x double> %108, ptr %102, align 8, !tbaa !16
  %109 = getelementptr inbounds [3 x double], ptr %102, i64 0, i64 2
  %110 = load double, ptr %109, align 8, !tbaa !16
  %111 = fadd double %100, %110
  store double %111, ptr %109, align 8, !tbaa !16
  %112 = add nuw nsw i64 %85, 1
  %113 = zext i32 %88 to i64
  %114 = icmp ult i64 %112, %113
  br i1 %114, label %84, label %80

115:                                              ; preds = %80, %67, %65, %48
  %116 = and i32 %16, 2048
  %117 = icmp ne i32 %116, 0
  %118 = icmp ne i32 %4, 1
  %119 = and i1 %118, %117
  br i1 %119, label %120, label %220

120:                                              ; preds = %115
  %121 = getelementptr inbounds %"class.dealii::MappingQ1<3, 3>::InternalData", ptr %5, i64 0, i32 5
  %122 = load ptr, ptr %121, align 8, !tbaa !70
  %123 = getelementptr inbounds %"class.dealii::MappingQ1<3, 3>::InternalData", ptr %5, i64 0, i32 5, i32 0, i32 0, i32 0, i32 1
  %124 = load ptr, ptr %123, align 8, !tbaa !70
  %125 = icmp eq ptr %122, %124
  br i1 %125, label %135, label %126

126:                                              ; preds = %120
  %127 = ptrtoint ptr %124 to i64
  %128 = ptrtoint ptr %122 to i64
  %129 = add i64 %127, -72
  %130 = sub i64 %129, %128
  %131 = freeze i64 %130
  %132 = urem i64 %131, 72
  %133 = sub nuw i64 %131, %132
  %134 = add i64 %133, 72
  call void @llvm.memset.p0.i64(ptr align 8 %122, i8 0, i64 %134, i1 false), !tbaa !16
  br label %135

135:                                              ; preds = %126, %120
  %136 = icmp eq i32 %2, 0
  br i1 %136, label %606, label %137

137:                                              ; preds = %135
  %138 = getelementptr inbounds %"class.dealii::MappingQ1<3, 3>::InternalData", ptr %5, i64 0, i32 11
  %139 = getelementptr inbounds %"class.dealii::MappingQ1<3, 3>::InternalData", ptr %5, i64 0, i32 2
  %140 = load i32, ptr %138, align 4, !tbaa !68
  %141 = icmp eq i32 %140, 0
  br i1 %141, label %220, label %142

142:                                              ; preds = %137
  %143 = zext i32 %2 to i64
  br label %144

144:                                              ; preds = %142, %150
  %145 = phi i32 [ 1, %142 ], [ %151, %150 ]
  %146 = phi i64 [ 0, %142 ], [ %152, %150 ]
  %147 = icmp eq i32 %145, 0
  br i1 %147, label %150, label %148

148:                                              ; preds = %144
  %149 = trunc i64 %146 to i32
  br label %154

150:                                              ; preds = %154, %144
  %151 = phi i32 [ 0, %144 ], [ %158, %154 ]
  %152 = add nuw nsw i64 %146, 1
  %153 = icmp eq i64 %152, %143
  br i1 %153, label %220, label %144, !llvm.loop !171

154:                                              ; preds = %148, %154
  %155 = phi i64 [ 0, %148 ], [ %217, %154 ]
  %156 = call noundef i32 @_ZNK6dealii10QProjectorILi3EE17DataSetDescriptorcvjEv(ptr noundef nonnull align 4 dereferenceable(4) %8)
  %157 = add i32 %156, %149
  %158 = load i32, ptr %138, align 4, !tbaa !68
  %159 = mul i32 %158, %157
  %160 = trunc i64 %155 to i32
  %161 = add i32 %159, %160
  %162 = zext i32 %161 to i64
  %163 = load ptr, ptr %139, align 8, !tbaa !121
  %164 = getelementptr inbounds %"class.dealii::Tensor", ptr %163, i64 %162
  %165 = load ptr, ptr %17, align 8, !tbaa !15
  %166 = getelementptr inbounds %"class.dealii::Point", ptr %165, i64 %155
  %167 = load ptr, ptr %121, align 8, !tbaa !134
  %168 = getelementptr inbounds %"class.dealii::Tensor.40", ptr %167, i64 %146
  %169 = load double, ptr %164, align 8, !tbaa !16
  %170 = load double, ptr %166, align 8, !tbaa !16
  %171 = load double, ptr %168, align 8, !tbaa !16
  %172 = call double @llvm.fmuladd.f64(double %169, double %170, double %171)
  store double %172, ptr %168, align 8, !tbaa !16
  %173 = getelementptr inbounds [3 x double], ptr %164, i64 0, i64 1
  %174 = load double, ptr %173, align 8, !tbaa !16
  %175 = load double, ptr %166, align 8, !tbaa !16
  %176 = getelementptr inbounds [3 x double], ptr %168, i64 0, i64 1
  %177 = load double, ptr %176, align 8, !tbaa !16
  %178 = call double @llvm.fmuladd.f64(double %174, double %175, double %177)
  store double %178, ptr %176, align 8, !tbaa !16
  %179 = getelementptr inbounds [3 x double], ptr %164, i64 0, i64 2
  %180 = load double, ptr %179, align 8, !tbaa !16
  %181 = load double, ptr %166, align 8, !tbaa !16
  %182 = getelementptr inbounds [3 x double], ptr %168, i64 0, i64 2
  %183 = load double, ptr %182, align 8, !tbaa !16
  %184 = call double @llvm.fmuladd.f64(double %180, double %181, double %183)
  store double %184, ptr %182, align 8, !tbaa !16
  %185 = getelementptr inbounds [3 x double], ptr %166, i64 0, i64 1
  %186 = getelementptr inbounds [3 x %"class.dealii::Tensor"], ptr %168, i64 0, i64 1
  %187 = load double, ptr %164, align 8, !tbaa !16
  %188 = load double, ptr %185, align 8, !tbaa !16
  %189 = load double, ptr %186, align 8, !tbaa !16
  %190 = call double @llvm.fmuladd.f64(double %187, double %188, double %189)
  store double %190, ptr %186, align 8, !tbaa !16
  %191 = load double, ptr %173, align 8, !tbaa !16
  %192 = load double, ptr %185, align 8, !tbaa !16
  %193 = getelementptr inbounds [3 x %"class.dealii::Tensor"], ptr %168, i64 0, i64 1, i32 0, i64 1
  %194 = load double, ptr %193, align 8, !tbaa !16
  %195 = call double @llvm.fmuladd.f64(double %191, double %192, double %194)
  store double %195, ptr %193, align 8, !tbaa !16
  %196 = load double, ptr %179, align 8, !tbaa !16
  %197 = load double, ptr %185, align 8, !tbaa !16
  %198 = getelementptr inbounds [3 x %"class.dealii::Tensor"], ptr %168, i64 0, i64 1, i32 0, i64 2
  %199 = load double, ptr %198, align 8, !tbaa !16
  %200 = call double @llvm.fmuladd.f64(double %196, double %197, double %199)
  store double %200, ptr %198, align 8, !tbaa !16
  %201 = getelementptr inbounds [3 x double], ptr %166, i64 0, i64 2
  %202 = getelementptr inbounds [3 x %"class.dealii::Tensor"], ptr %168, i64 0, i64 2
  %203 = load double, ptr %164, align 8, !tbaa !16
  %204 = load double, ptr %201, align 8, !tbaa !16
  %205 = load double, ptr %202, align 8, !tbaa !16
  %206 = call double @llvm.fmuladd.f64(double %203, double %204, double %205)
  store double %206, ptr %202, align 8, !tbaa !16
  %207 = load double, ptr %173, align 8, !tbaa !16
  %208 = load double, ptr %201, align 8, !tbaa !16
  %209 = getelementptr inbounds [3 x %"class.dealii::Tensor"], ptr %168, i64 0, i64 2, i32 0, i64 1
  %210 = load double, ptr %209, align 8, !tbaa !16
  %211 = call double @llvm.fmuladd.f64(double %207, double %208, double %210)
  store double %211, ptr %209, align 8, !tbaa !16
  %212 = load double, ptr %179, align 8, !tbaa !16
  %213 = load double, ptr %201, align 8, !tbaa !16
  %214 = getelementptr inbounds [3 x %"class.dealii::Tensor"], ptr %168, i64 0, i64 2, i32 0, i64 2
  %215 = load double, ptr %214, align 8, !tbaa !16
  %216 = call double @llvm.fmuladd.f64(double %212, double %213, double %215)
  store double %216, ptr %214, align 8, !tbaa !16
  %217 = add nuw nsw i64 %155, 1
  %218 = zext i32 %158 to i64
  %219 = icmp ult i64 %217, %218
  br i1 %219, label %154, label %150

220:                                              ; preds = %150, %137, %115
  %221 = and i32 %16, 1024
  %222 = icmp ne i32 %221, 0
  %223 = icmp ne i32 %2, 0
  %224 = and i1 %222, %223
  %225 = and i1 %224, %118
  br i1 %225, label %226, label %467

226:                                              ; preds = %220
  %227 = getelementptr inbounds %"class.dealii::MappingQ1<3, 3>::InternalData", ptr %5, i64 0, i32 5
  %228 = load ptr, ptr %227, align 8, !tbaa !134
  %229 = getelementptr inbounds %"class.dealii::MappingQ1<3, 3>::InternalData", ptr %5, i64 0, i32 4
  %230 = load ptr, ptr %229, align 8, !tbaa !134
  %231 = zext i32 %2 to i64
  %232 = icmp ult i32 %2, 2
  br i1 %232, label %379, label %233

233:                                              ; preds = %226
  %234 = mul nuw nsw i64 %231, 72
  %235 = getelementptr i8, ptr %230, i64 %234
  %236 = getelementptr i8, ptr %228, i64 %234
  %237 = icmp ult ptr %230, %236
  %238 = icmp ult ptr %228, %235
  %239 = and i1 %237, %238
  br i1 %239, label %379, label %240

240:                                              ; preds = %233
  %241 = and i64 %231, 4294967294
  br label %242

242:                                              ; preds = %242, %240
  %243 = phi i64 [ 0, %240 ], [ %375, %242 ]
  %244 = or i64 %243, 1
  %245 = getelementptr inbounds %"class.dealii::Tensor.40", ptr %228, i64 %243
  %246 = getelementptr inbounds %"class.dealii::Tensor.40", ptr %228, i64 %244
  %247 = load double, ptr %245, align 8, !tbaa !16, !alias.scope !172, !noalias !175
  %248 = load double, ptr %246, align 8, !tbaa !16, !alias.scope !172, !noalias !175
  %249 = insertelement <2 x double> poison, double %247, i64 0
  %250 = insertelement <2 x double> %249, double %248, i64 1
  %251 = getelementptr inbounds [3 x %"class.dealii::Tensor"], ptr %245, i64 0, i64 1
  %252 = getelementptr inbounds [3 x %"class.dealii::Tensor"], ptr %246, i64 0, i64 1
  %253 = getelementptr inbounds [3 x %"class.dealii::Tensor"], ptr %245, i64 0, i64 1, i32 0, i64 1
  %254 = getelementptr inbounds [3 x %"class.dealii::Tensor"], ptr %246, i64 0, i64 1, i32 0, i64 1
  %255 = load double, ptr %253, align 8, !tbaa !16, !alias.scope !172, !noalias !175
  %256 = load double, ptr %254, align 8, !tbaa !16, !alias.scope !172, !noalias !175
  %257 = insertelement <2 x double> poison, double %255, i64 0
  %258 = insertelement <2 x double> %257, double %256, i64 1
  %259 = fmul <2 x double> %250, %258
  %260 = getelementptr inbounds [3 x %"class.dealii::Tensor"], ptr %245, i64 0, i64 1, i32 0, i64 2
  %261 = getelementptr inbounds [3 x %"class.dealii::Tensor"], ptr %246, i64 0, i64 1, i32 0, i64 2
  %262 = load double, ptr %260, align 8, !tbaa !16, !alias.scope !172, !noalias !175
  %263 = load double, ptr %261, align 8, !tbaa !16, !alias.scope !172, !noalias !175
  %264 = insertelement <2 x double> poison, double %262, i64 0
  %265 = insertelement <2 x double> %264, double %263, i64 1
  %266 = fmul <2 x double> %250, %265
  %267 = getelementptr inbounds [3 x double], ptr %245, i64 0, i64 1
  %268 = getelementptr inbounds [3 x double], ptr %246, i64 0, i64 1
  %269 = load double, ptr %267, align 8, !tbaa !16, !alias.scope !172, !noalias !175
  %270 = load double, ptr %268, align 8, !tbaa !16, !alias.scope !172, !noalias !175
  %271 = insertelement <2 x double> poison, double %269, i64 0
  %272 = insertelement <2 x double> %271, double %270, i64 1
  %273 = load double, ptr %251, align 8, !tbaa !16, !alias.scope !172, !noalias !175
  %274 = load double, ptr %252, align 8, !tbaa !16, !alias.scope !172, !noalias !175
  %275 = insertelement <2 x double> poison, double %273, i64 0
  %276 = insertelement <2 x double> %275, double %274, i64 1
  %277 = fmul <2 x double> %272, %276
  %278 = getelementptr inbounds [3 x double], ptr %245, i64 0, i64 2
  %279 = getelementptr inbounds [3 x double], ptr %246, i64 0, i64 2
  %280 = load double, ptr %278, align 8, !tbaa !16, !alias.scope !172, !noalias !175
  %281 = load double, ptr %279, align 8, !tbaa !16, !alias.scope !172, !noalias !175
  %282 = insertelement <2 x double> poison, double %280, i64 0
  %283 = insertelement <2 x double> %282, double %281, i64 1
  %284 = fmul <2 x double> %276, %283
  %285 = getelementptr inbounds [3 x %"class.dealii::Tensor"], ptr %245, i64 0, i64 2
  %286 = getelementptr inbounds [3 x %"class.dealii::Tensor"], ptr %246, i64 0, i64 2
  %287 = load double, ptr %285, align 8, !tbaa !16, !alias.scope !172, !noalias !175
  %288 = load double, ptr %286, align 8, !tbaa !16, !alias.scope !172, !noalias !175
  %289 = insertelement <2 x double> poison, double %287, i64 0
  %290 = insertelement <2 x double> %289, double %288, i64 1
  %291 = fmul <2 x double> %272, %290
  %292 = getelementptr inbounds [3 x %"class.dealii::Tensor"], ptr %245, i64 0, i64 2, i32 0, i64 2
  %293 = getelementptr inbounds [3 x %"class.dealii::Tensor"], ptr %246, i64 0, i64 2, i32 0, i64 2
  %294 = load double, ptr %292, align 8, !tbaa !16, !alias.scope !172, !noalias !175
  %295 = load double, ptr %293, align 8, !tbaa !16, !alias.scope !172, !noalias !175
  %296 = insertelement <2 x double> poison, double %294, i64 0
  %297 = insertelement <2 x double> %296, double %295, i64 1
  %298 = getelementptr inbounds [3 x %"class.dealii::Tensor"], ptr %245, i64 0, i64 2, i32 0, i64 1
  %299 = getelementptr inbounds [3 x %"class.dealii::Tensor"], ptr %246, i64 0, i64 2, i32 0, i64 1
  %300 = load double, ptr %298, align 8, !tbaa !16, !alias.scope !172, !noalias !175
  %301 = load double, ptr %299, align 8, !tbaa !16, !alias.scope !172, !noalias !175
  %302 = insertelement <2 x double> poison, double %300, i64 0
  %303 = insertelement <2 x double> %302, double %301, i64 1
  %304 = fneg <2 x double> %266
  %305 = fmul <2 x double> %303, %304
  %306 = call <2 x double> @llvm.fmuladd.v2f64(<2 x double> %259, <2 x double> %297, <2 x double> %305)
  %307 = fneg <2 x double> %277
  %308 = call <2 x double> @llvm.fmuladd.v2f64(<2 x double> %307, <2 x double> %297, <2 x double> %306)
  %309 = call <2 x double> @llvm.fmuladd.v2f64(<2 x double> %284, <2 x double> %303, <2 x double> %308)
  %310 = call <2 x double> @llvm.fmuladd.v2f64(<2 x double> %291, <2 x double> %265, <2 x double> %309)
  %311 = fneg <2 x double> %283
  %312 = fmul <2 x double> %290, %311
  %313 = call <2 x double> @llvm.fmuladd.v2f64(<2 x double> %312, <2 x double> %258, <2 x double> %310)
  %314 = fdiv <2 x double> <double 1.000000e+00, double 1.000000e+00>, %313
  %315 = fneg <2 x double> %265
  %316 = fmul <2 x double> %303, %315
  %317 = call <2 x double> @llvm.fmuladd.v2f64(<2 x double> %258, <2 x double> %297, <2 x double> %316)
  %318 = fmul <2 x double> %317, %314
  %319 = fmul <2 x double> %303, %311
  %320 = call <2 x double> @llvm.fmuladd.v2f64(<2 x double> %272, <2 x double> %297, <2 x double> %319)
  %321 = fneg <2 x double> %320
  %322 = fmul <2 x double> %314, %321
  %323 = fneg <2 x double> %272
  %324 = fmul <2 x double> %258, %283
  %325 = call <2 x double> @llvm.fmuladd.v2f64(<2 x double> %323, <2 x double> %265, <2 x double> %324)
  %326 = fneg <2 x double> %325
  %327 = fmul <2 x double> %314, %326
  %328 = fmul <2 x double> %290, %315
  %329 = call <2 x double> @llvm.fmuladd.v2f64(<2 x double> %276, <2 x double> %297, <2 x double> %328)
  %330 = fneg <2 x double> %329
  %331 = fmul <2 x double> %314, %330
  %332 = call <2 x double> @llvm.fmuladd.v2f64(<2 x double> %250, <2 x double> %297, <2 x double> %312)
  %333 = fmul <2 x double> %332, %314
  %334 = fsub <2 x double> %266, %284
  %335 = fneg <2 x double> %334
  %336 = fmul <2 x double> %314, %335
  %337 = fneg <2 x double> %276
  %338 = fmul <2 x double> %258, %290
  %339 = call <2 x double> @llvm.fmuladd.v2f64(<2 x double> %337, <2 x double> %303, <2 x double> %338)
  %340 = fneg <2 x double> %339
  %341 = fmul <2 x double> %314, %340
  %342 = fneg <2 x double> %291
  %343 = call <2 x double> @llvm.fmuladd.v2f64(<2 x double> %250, <2 x double> %303, <2 x double> %342)
  %344 = fneg <2 x double> %343
  %345 = fmul <2 x double> %314, %344
  %346 = fsub <2 x double> %259, %277
  %347 = fmul <2 x double> %346, %314
  %348 = getelementptr inbounds %"class.dealii::Tensor.40", ptr %230, i64 %243
  %349 = getelementptr inbounds %"class.dealii::Tensor.40", ptr %230, i64 %244
  %350 = extractelement <2 x double> %318, i64 0
  store double %350, ptr %348, align 8, !tbaa !16, !alias.scope !178, !noalias !172
  %351 = getelementptr inbounds [3 x double], ptr %348, i64 0, i64 1
  %352 = getelementptr inbounds [3 x double], ptr %349, i64 0, i64 1
  %353 = extractelement <2 x double> %322, i64 0
  store double %353, ptr %351, align 8, !tbaa !16, !alias.scope !178, !noalias !172
  %354 = getelementptr inbounds [3 x double], ptr %348, i64 0, i64 2
  %355 = extractelement <2 x double> %327, i64 0
  store double %355, ptr %354, align 8, !tbaa !16, !alias.scope !178, !noalias !172
  %356 = shufflevector <2 x double> %322, <2 x double> %327, <2 x i32> <i32 1, i32 3>
  store <2 x double> %356, ptr %352, align 8, !tbaa !16, !alias.scope !178, !noalias !172
  %357 = getelementptr inbounds [3 x %"class.dealii::Tensor"], ptr %348, i64 0, i64 1
  %358 = getelementptr inbounds [3 x %"class.dealii::Tensor"], ptr %349, i64 0, i64 1
  %359 = extractelement <2 x double> %331, i64 0
  store double %359, ptr %357, align 8, !tbaa !16, !alias.scope !178, !noalias !172
  %360 = getelementptr inbounds [3 x %"class.dealii::Tensor"], ptr %348, i64 0, i64 1, i32 0, i64 1
  %361 = extractelement <2 x double> %333, i64 0
  store double %361, ptr %360, align 8, !tbaa !16, !alias.scope !178, !noalias !172
  %362 = shufflevector <2 x double> %331, <2 x double> %333, <2 x i32> <i32 1, i32 3>
  store <2 x double> %362, ptr %358, align 8, !tbaa !16, !alias.scope !178, !noalias !172
  %363 = getelementptr inbounds [3 x %"class.dealii::Tensor"], ptr %348, i64 0, i64 1, i32 0, i64 2
  %364 = getelementptr inbounds [3 x %"class.dealii::Tensor"], ptr %349, i64 0, i64 1, i32 0, i64 2
  %365 = extractelement <2 x double> %336, i64 0
  store double %365, ptr %363, align 8, !tbaa !16, !alias.scope !178, !noalias !172
  %366 = getelementptr inbounds [3 x %"class.dealii::Tensor"], ptr %348, i64 0, i64 2
  %367 = extractelement <2 x double> %341, i64 0
  store double %367, ptr %366, align 8, !tbaa !16, !alias.scope !178, !noalias !172
  %368 = shufflevector <2 x double> %336, <2 x double> %341, <2 x i32> <i32 1, i32 3>
  store <2 x double> %368, ptr %364, align 8, !tbaa !16, !alias.scope !178, !noalias !172
  %369 = getelementptr inbounds [3 x %"class.dealii::Tensor"], ptr %348, i64 0, i64 2, i32 0, i64 1
  %370 = getelementptr inbounds [3 x %"class.dealii::Tensor"], ptr %349, i64 0, i64 2, i32 0, i64 1
  %371 = extractelement <2 x double> %345, i64 0
  store double %371, ptr %369, align 8, !tbaa !16, !alias.scope !178, !noalias !172
  %372 = getelementptr inbounds [3 x %"class.dealii::Tensor"], ptr %348, i64 0, i64 2, i32 0, i64 2
  %373 = shufflevector <2 x double> %347, <2 x double> %318, <2 x i32> <i32 0, i32 3>
  store <2 x double> %373, ptr %372, align 8, !tbaa !16, !alias.scope !178, !noalias !172
  %374 = shufflevector <2 x double> %345, <2 x double> %347, <2 x i32> <i32 1, i32 3>
  store <2 x double> %374, ptr %370, align 8, !tbaa !16, !alias.scope !178, !noalias !172
  %375 = add nuw i64 %243, 2
  %376 = icmp eq i64 %375, %241
  br i1 %376, label %377, label %242, !llvm.loop !180

377:                                              ; preds = %242
  %378 = icmp eq i64 %241, %231
  br i1 %378, label %467, label %379

379:                                              ; preds = %233, %226, %377
  %380 = phi i64 [ 0, %233 ], [ 0, %226 ], [ %241, %377 ]
  br label %381

381:                                              ; preds = %379, %381
  %382 = phi i64 [ %465, %381 ], [ %380, %379 ]
  %383 = getelementptr inbounds %"class.dealii::Tensor.40", ptr %228, i64 %382
  %384 = load double, ptr %383, align 8, !tbaa !16, !noalias !175
  %385 = getelementptr inbounds [3 x %"class.dealii::Tensor"], ptr %383, i64 0, i64 1
  %386 = getelementptr inbounds [3 x %"class.dealii::Tensor"], ptr %383, i64 0, i64 1, i32 0, i64 1
  %387 = load double, ptr %386, align 8, !tbaa !16, !noalias !175
  %388 = fmul double %384, %387
  %389 = getelementptr inbounds [3 x %"class.dealii::Tensor"], ptr %383, i64 0, i64 1, i32 0, i64 2
  %390 = load double, ptr %389, align 8, !tbaa !16, !noalias !175
  %391 = fmul double %384, %390
  %392 = getelementptr inbounds [3 x double], ptr %383, i64 0, i64 1
  %393 = load double, ptr %392, align 8, !tbaa !16, !noalias !175
  %394 = load double, ptr %385, align 8, !tbaa !16, !noalias !175
  %395 = fmul double %393, %394
  %396 = getelementptr inbounds [3 x double], ptr %383, i64 0, i64 2
  %397 = load double, ptr %396, align 8, !tbaa !16, !noalias !175
  %398 = fmul double %394, %397
  %399 = getelementptr inbounds [3 x %"class.dealii::Tensor"], ptr %383, i64 0, i64 2
  %400 = load double, ptr %399, align 8, !tbaa !16, !noalias !175
  %401 = fmul double %393, %400
  %402 = getelementptr inbounds [3 x %"class.dealii::Tensor"], ptr %383, i64 0, i64 2, i32 0, i64 2
  %403 = load double, ptr %402, align 8, !tbaa !16, !noalias !175
  %404 = getelementptr inbounds [3 x %"class.dealii::Tensor"], ptr %383, i64 0, i64 2, i32 0, i64 1
  %405 = load double, ptr %404, align 8, !tbaa !16, !noalias !175
  %406 = fneg double %391
  %407 = fmul double %405, %406
  %408 = call double @llvm.fmuladd.f64(double %388, double %403, double %407)
  %409 = fneg double %395
  %410 = call double @llvm.fmuladd.f64(double %409, double %403, double %408)
  %411 = call double @llvm.fmuladd.f64(double %398, double %405, double %410)
  %412 = call double @llvm.fmuladd.f64(double %401, double %390, double %411)
  %413 = fneg double %397
  %414 = fmul double %400, %413
  %415 = call double @llvm.fmuladd.f64(double %414, double %387, double %412)
  %416 = fdiv double 1.000000e+00, %415
  %417 = fneg double %390
  %418 = fmul double %405, %417
  %419 = call double @llvm.fmuladd.f64(double %387, double %403, double %418)
  %420 = fneg double %393
  %421 = insertelement <2 x double> poison, double %405, i64 0
  %422 = insertelement <2 x double> %421, double %387, i64 1
  %423 = insertelement <2 x double> poison, double %413, i64 0
  %424 = insertelement <2 x double> %423, double %397, i64 1
  %425 = fmul <2 x double> %422, %424
  %426 = insertelement <2 x double> poison, double %393, i64 0
  %427 = insertelement <2 x double> %426, double %420, i64 1
  %428 = insertelement <2 x double> poison, double %403, i64 0
  %429 = insertelement <2 x double> %428, double %390, i64 1
  %430 = call <2 x double> @llvm.fmuladd.v2f64(<2 x double> %427, <2 x double> %429, <2 x double> %425)
  %431 = fmul double %400, %417
  %432 = call double @llvm.fmuladd.f64(double %394, double %403, double %431)
  %433 = fneg double %432
  %434 = call double @llvm.fmuladd.f64(double %384, double %403, double %414)
  %435 = fsub double %391, %398
  %436 = fneg double %435
  %437 = fneg double %394
  %438 = fmul double %387, %400
  %439 = fneg double %401
  %440 = insertelement <2 x double> poison, double %437, i64 0
  %441 = insertelement <2 x double> %440, double %384, i64 1
  %442 = shufflevector <2 x double> %421, <2 x double> poison, <2 x i32> zeroinitializer
  %443 = insertelement <2 x double> poison, double %438, i64 0
  %444 = insertelement <2 x double> %443, double %439, i64 1
  %445 = call <2 x double> @llvm.fmuladd.v2f64(<2 x double> %441, <2 x double> %442, <2 x double> %444)
  %446 = fsub double %388, %395
  %447 = fmul double %446, %416
  %448 = getelementptr inbounds %"class.dealii::Tensor.40", ptr %230, i64 %382
  %449 = insertelement <4 x double> poison, double %419, i64 0
  %450 = shufflevector <2 x double> %430, <2 x double> poison, <4 x i32> <i32 0, i32 1, i32 poison, i32 poison>
  %451 = fneg <4 x double> %450
  %452 = shufflevector <4 x double> %449, <4 x double> %451, <4 x i32> <i32 0, i32 4, i32 5, i32 poison>
  %453 = insertelement <4 x double> %452, double %433, i64 3
  %454 = insertelement <4 x double> poison, double %416, i64 0
  %455 = shufflevector <4 x double> %454, <4 x double> poison, <4 x i32> zeroinitializer
  %456 = fmul <4 x double> %453, %455
  store <4 x double> %456, ptr %448, align 8, !tbaa !16
  %457 = getelementptr inbounds [3 x %"class.dealii::Tensor"], ptr %448, i64 0, i64 1, i32 0, i64 1
  %458 = insertelement <4 x double> poison, double %434, i64 0
  %459 = insertelement <4 x double> %458, double %436, i64 1
  %460 = shufflevector <2 x double> %445, <2 x double> poison, <4 x i32> <i32 0, i32 1, i32 poison, i32 poison>
  %461 = fneg <4 x double> %460
  %462 = shufflevector <4 x double> %459, <4 x double> %461, <4 x i32> <i32 0, i32 1, i32 4, i32 5>
  %463 = fmul <4 x double> %462, %455
  store <4 x double> %463, ptr %457, align 8, !tbaa !16
  %464 = getelementptr inbounds [3 x %"class.dealii::Tensor"], ptr %448, i64 0, i64 2, i32 0, i64 2
  store double %447, ptr %464, align 8, !tbaa !16
  %465 = add nuw nsw i64 %382, 1
  %466 = icmp eq i64 %465, %231
  br i1 %466, label %467, label %381, !llvm.loop !181

467:                                              ; preds = %381, %377, %220
  %468 = and i32 %16, 16384
  %469 = icmp ne i32 %468, 0
  %470 = and i1 %469, %223
  %471 = and i1 %470, %118
  br i1 %471, label %472, label %606

472:                                              ; preds = %467
  %473 = getelementptr inbounds %"class.dealii::MappingQ1<3, 3>::InternalData", ptr %5, i64 0, i32 5
  %474 = load ptr, ptr %473, align 8, !tbaa !134
  %475 = getelementptr inbounds %"class.dealii::Mapping<3, 3>::InternalDataBase", ptr %5, i64 0, i32 5
  %476 = load ptr, ptr %475, align 8, !tbaa !18
  %477 = zext i32 %2 to i64
  %478 = icmp ult i32 %2, 2
  br i1 %478, label %566, label %479

479:                                              ; preds = %472
  %480 = shl nuw nsw i64 %477, 3
  %481 = getelementptr i8, ptr %476, i64 %480
  %482 = mul nuw nsw i64 %477, 72
  %483 = getelementptr i8, ptr %474, i64 %482
  %484 = icmp ult ptr %476, %483
  %485 = icmp ult ptr %474, %481
  %486 = and i1 %484, %485
  br i1 %486, label %566, label %487

487:                                              ; preds = %479
  %488 = and i64 %477, 4294967294
  br label %489

489:                                              ; preds = %489, %487
  %490 = phi i64 [ 0, %487 ], [ %562, %489 ]
  %491 = or i64 %490, 1
  %492 = getelementptr inbounds %"class.dealii::Tensor.40", ptr %474, i64 %490
  %493 = getelementptr inbounds %"class.dealii::Tensor.40", ptr %474, i64 %491
  %494 = load double, ptr %492, align 8, !tbaa !16, !alias.scope !182
  %495 = load double, ptr %493, align 8, !tbaa !16, !alias.scope !182
  %496 = insertelement <2 x double> poison, double %494, i64 0
  %497 = insertelement <2 x double> %496, double %495, i64 1
  %498 = getelementptr inbounds [3 x %"class.dealii::Tensor"], ptr %492, i64 0, i64 1
  %499 = getelementptr inbounds [3 x %"class.dealii::Tensor"], ptr %493, i64 0, i64 1
  %500 = getelementptr inbounds [3 x %"class.dealii::Tensor"], ptr %492, i64 0, i64 1, i32 0, i64 1
  %501 = getelementptr inbounds [3 x %"class.dealii::Tensor"], ptr %493, i64 0, i64 1, i32 0, i64 1
  %502 = load double, ptr %500, align 8, !tbaa !16, !alias.scope !182
  %503 = load double, ptr %501, align 8, !tbaa !16, !alias.scope !182
  %504 = insertelement <2 x double> poison, double %502, i64 0
  %505 = insertelement <2 x double> %504, double %503, i64 1
  %506 = fmul <2 x double> %497, %505
  %507 = getelementptr inbounds [3 x %"class.dealii::Tensor"], ptr %492, i64 0, i64 2
  %508 = getelementptr inbounds [3 x %"class.dealii::Tensor"], ptr %493, i64 0, i64 2
  %509 = getelementptr inbounds [3 x %"class.dealii::Tensor"], ptr %492, i64 0, i64 2, i32 0, i64 2
  %510 = getelementptr inbounds [3 x %"class.dealii::Tensor"], ptr %493, i64 0, i64 2, i32 0, i64 2
  %511 = load double, ptr %509, align 8, !tbaa !16, !alias.scope !182
  %512 = load double, ptr %510, align 8, !tbaa !16, !alias.scope !182
  %513 = insertelement <2 x double> poison, double %511, i64 0
  %514 = insertelement <2 x double> %513, double %512, i64 1
  %515 = getelementptr inbounds [3 x %"class.dealii::Tensor"], ptr %492, i64 0, i64 1, i32 0, i64 2
  %516 = getelementptr inbounds [3 x %"class.dealii::Tensor"], ptr %493, i64 0, i64 1, i32 0, i64 2
  %517 = load double, ptr %515, align 8, !tbaa !16, !alias.scope !182
  %518 = load double, ptr %516, align 8, !tbaa !16, !alias.scope !182
  %519 = insertelement <2 x double> poison, double %517, i64 0
  %520 = insertelement <2 x double> %519, double %518, i64 1
  %521 = getelementptr inbounds [3 x %"class.dealii::Tensor"], ptr %492, i64 0, i64 2, i32 0, i64 1
  %522 = getelementptr inbounds [3 x %"class.dealii::Tensor"], ptr %493, i64 0, i64 2, i32 0, i64 1
  %523 = load double, ptr %521, align 8, !tbaa !16, !alias.scope !182
  %524 = load double, ptr %522, align 8, !tbaa !16, !alias.scope !182
  %525 = insertelement <2 x double> poison, double %523, i64 0
  %526 = insertelement <2 x double> %525, double %524, i64 1
  %527 = fneg <2 x double> %497
  %528 = fmul <2 x double> %520, %527
  %529 = fmul <2 x double> %528, %526
  %530 = call <2 x double> @llvm.fmuladd.v2f64(<2 x double> %506, <2 x double> %514, <2 x double> %529)
  %531 = load double, ptr %498, align 8, !tbaa !16, !alias.scope !182
  %532 = load double, ptr %499, align 8, !tbaa !16, !alias.scope !182
  %533 = insertelement <2 x double> poison, double %531, i64 0
  %534 = insertelement <2 x double> %533, double %532, i64 1
  %535 = getelementptr inbounds [3 x double], ptr %492, i64 0, i64 1
  %536 = getelementptr inbounds [3 x double], ptr %493, i64 0, i64 1
  %537 = load double, ptr %535, align 8, !tbaa !16, !alias.scope !182
  %538 = load double, ptr %536, align 8, !tbaa !16, !alias.scope !182
  %539 = insertelement <2 x double> poison, double %537, i64 0
  %540 = insertelement <2 x double> %539, double %538, i64 1
  %541 = fneg <2 x double> %534
  %542 = fmul <2 x double> %540, %541
  %543 = call <2 x double> @llvm.fmuladd.v2f64(<2 x double> %542, <2 x double> %514, <2 x double> %530)
  %544 = getelementptr inbounds [3 x double], ptr %492, i64 0, i64 2
  %545 = getelementptr inbounds [3 x double], ptr %493, i64 0, i64 2
  %546 = load double, ptr %544, align 8, !tbaa !16, !alias.scope !182
  %547 = load double, ptr %545, align 8, !tbaa !16, !alias.scope !182
  %548 = insertelement <2 x double> poison, double %546, i64 0
  %549 = insertelement <2 x double> %548, double %547, i64 1
  %550 = fmul <2 x double> %534, %549
  %551 = call <2 x double> @llvm.fmuladd.v2f64(<2 x double> %550, <2 x double> %526, <2 x double> %543)
  %552 = load double, ptr %507, align 8, !tbaa !16, !alias.scope !182
  %553 = load double, ptr %508, align 8, !tbaa !16, !alias.scope !182
  %554 = insertelement <2 x double> poison, double %552, i64 0
  %555 = insertelement <2 x double> %554, double %553, i64 1
  %556 = fmul <2 x double> %540, %555
  %557 = call <2 x double> @llvm.fmuladd.v2f64(<2 x double> %556, <2 x double> %520, <2 x double> %551)
  %558 = fneg <2 x double> %555
  %559 = fmul <2 x double> %549, %558
  %560 = call <2 x double> @llvm.fmuladd.v2f64(<2 x double> %559, <2 x double> %505, <2 x double> %557)
  %561 = getelementptr inbounds double, ptr %476, i64 %490
  store <2 x double> %560, ptr %561, align 8, !tbaa !16, !alias.scope !185, !noalias !182
  %562 = add nuw i64 %490, 2
  %563 = icmp eq i64 %562, %488
  br i1 %563, label %564, label %489, !llvm.loop !187

564:                                              ; preds = %489
  %565 = icmp eq i64 %488, %477
  br i1 %565, label %606, label %566

566:                                              ; preds = %479, %472, %564
  %567 = phi i64 [ 0, %479 ], [ 0, %472 ], [ %488, %564 ]
  br label %568

568:                                              ; preds = %566, %568
  %569 = phi i64 [ %604, %568 ], [ %567, %566 ]
  %570 = getelementptr inbounds %"class.dealii::Tensor.40", ptr %474, i64 %569
  %571 = load double, ptr %570, align 8, !tbaa !16
  %572 = getelementptr inbounds [3 x %"class.dealii::Tensor"], ptr %570, i64 0, i64 1
  %573 = getelementptr inbounds [3 x %"class.dealii::Tensor"], ptr %570, i64 0, i64 1, i32 0, i64 1
  %574 = load double, ptr %573, align 8, !tbaa !16
  %575 = fmul double %571, %574
  %576 = getelementptr inbounds [3 x %"class.dealii::Tensor"], ptr %570, i64 0, i64 2
  %577 = getelementptr inbounds [3 x %"class.dealii::Tensor"], ptr %570, i64 0, i64 2, i32 0, i64 2
  %578 = load double, ptr %577, align 8, !tbaa !16
  %579 = getelementptr inbounds [3 x %"class.dealii::Tensor"], ptr %570, i64 0, i64 1, i32 0, i64 2
  %580 = load double, ptr %579, align 8, !tbaa !16
  %581 = getelementptr inbounds [3 x %"class.dealii::Tensor"], ptr %570, i64 0, i64 2, i32 0, i64 1
  %582 = load double, ptr %581, align 8, !tbaa !16
  %583 = fneg double %571
  %584 = fmul double %580, %583
  %585 = fmul double %584, %582
  %586 = call double @llvm.fmuladd.f64(double %575, double %578, double %585)
  %587 = load double, ptr %572, align 8, !tbaa !16
  %588 = getelementptr inbounds [3 x double], ptr %570, i64 0, i64 1
  %589 = load double, ptr %588, align 8, !tbaa !16
  %590 = fneg double %587
  %591 = fmul double %589, %590
  %592 = call double @llvm.fmuladd.f64(double %591, double %578, double %586)
  %593 = getelementptr inbounds [3 x double], ptr %570, i64 0, i64 2
  %594 = load double, ptr %593, align 8, !tbaa !16
  %595 = fmul double %587, %594
  %596 = call double @llvm.fmuladd.f64(double %595, double %582, double %592)
  %597 = load double, ptr %576, align 8, !tbaa !16
  %598 = fmul double %589, %597
  %599 = call double @llvm.fmuladd.f64(double %598, double %580, double %596)
  %600 = fneg double %597
  %601 = fmul double %594, %600
  %602 = call double @llvm.fmuladd.f64(double %601, double %574, double %599)
  %603 = getelementptr inbounds double, ptr %476, i64 %569
  store double %602, ptr %603, align 8, !tbaa !16
  %604 = add nuw nsw i64 %569, 1
  %605 = icmp eq i64 %604, %477
  br i1 %605, label %606, label %568, !llvm.loop !188

606:                                              ; preds = %568, %564, %135, %467
  ret void
}

declare i32 @_ZN6dealii10QProjectorILi3EE17DataSetDescriptor4cellEv() local_unnamed_addr #2

declare noundef nonnull align 8 dereferenceable(24) ptr @_ZNK6dealii10QuadratureILi3EE11get_weightsEv(ptr noundef nonnull align 8 dereferenceable(128)) local_unnamed_addr #2

declare noundef i32 @_ZNK6dealii10QProjectorILi3EE17DataSetDescriptorcvjEv(ptr noundef nonnull align 4 dereferenceable(4)) local_unnamed_addr #2

; Function Attrs: mustprogress nocallback nofree nosync nounwind speculatable willreturn memory(none)
declare double @llvm.fmuladd.f64(double, double, double) #8

; Function Attrs: sspstrong uwtable
define weak_odr dso_local void @_ZNK6dealii9MappingQ1ILi3ELi3EE19fill_fe_face_valuesERKNS_12TriaIteratorINS_12CellAccessorILi3ELi3EEEEEjRKNS_10QuadratureILi2EEERNS_7MappingILi3ELi3EE16InternalDataBaseERSt6vectorINS_5PointILi3EEESaISI_EERSG_IdSaIdEERSG_INS_6TensorILi1ELi3EEESaISQ_EESL_(ptr noundef nonnull align 8 dereferenceable(72) %0, ptr noundef nonnull align 8 dereferenceable(16) %1, i32 noundef %2, ptr noundef nonnull align 8 dereferenceable(128) %3, ptr noundef nonnull align 8 dereferenceable(185) %4, ptr noundef nonnull align 8 dereferenceable(24) %5, ptr noundef nonnull align 8 dereferenceable(24) %6, ptr noundef nonnull align 8 dereferenceable(24) %7, ptr noundef nonnull align 8 dereferenceable(24) %8) unnamed_addr #0 comdat align 2 {
  %10 = getelementptr inbounds %"class.dealii::Quadrature.49", ptr %3, i64 0, i32 3
  %11 = getelementptr inbounds %"class.dealii::Quadrature.49", ptr %3, i64 0, i32 3, i32 0, i32 0, i32 0, i32 1
  %12 = load ptr, ptr %11, align 8, !tbaa !69
  %13 = load ptr, ptr %10, align 8, !tbaa !18
  %14 = ptrtoint ptr %12 to i64
  %15 = ptrtoint ptr %13 to i64
  %16 = sub i64 %14, %15
  %17 = lshr exact i64 %16, 3
  %18 = trunc i64 %17 to i32
  %19 = getelementptr inbounds %"class.dealii::TriaAccessorBase", ptr %1, i64 0, i32 2
  %20 = load ptr, ptr %19, align 8, !tbaa !30
  %21 = getelementptr inbounds %"class.dealii::Triangulation", ptr %20, i64 0, i32 1
  %22 = load i32, ptr %1, align 8, !tbaa !26
  %23 = sext i32 %22 to i64
  %24 = load ptr, ptr %21, align 8, !tbaa !71
  %25 = getelementptr inbounds ptr, ptr %24, i64 %23
  %26 = load ptr, ptr %25, align 8, !tbaa !70
  %27 = getelementptr inbounds %"class.dealii::TriaAccessorBase", ptr %1, i64 0, i32 1
  %28 = load i32, ptr %27, align 4, !tbaa !29
  %29 = getelementptr inbounds %"class.dealii::internal::Triangulation::TriaLevel", ptr %26, i64 0, i32 4, i32 1
  %30 = mul i32 %28, 6
  %31 = add i32 %30, %2
  %32 = load ptr, ptr %29, align 8, !tbaa !79
  %33 = lshr i32 %31, 6
  %34 = zext i32 %33 to i64
  %35 = getelementptr inbounds i64, ptr %32, i64 %34
  %36 = and i32 %31, 63
  %37 = zext i32 %36 to i64
  %38 = shl nuw i64 1, %37
  %39 = load i64, ptr %35, align 8, !tbaa !81
  %40 = and i64 %38, %39
  %41 = icmp ne i64 %40, 0
  %42 = getelementptr inbounds %"class.dealii::internal::Triangulation::TriaLevel", ptr %26, i64 0, i32 4, i32 2
  %43 = load ptr, ptr %42, align 8, !tbaa !79
  %44 = getelementptr inbounds i64, ptr %43, i64 %34
  %45 = load i64, ptr %44, align 8, !tbaa !81
  %46 = and i64 %38, %45
  %47 = icmp ne i64 %46, 0
  %48 = getelementptr inbounds %"class.dealii::internal::Triangulation::TriaLevel", ptr %26, i64 0, i32 4, i32 3
  %49 = load ptr, ptr %48, align 8, !tbaa !79
  %50 = getelementptr inbounds i64, ptr %49, i64 %34
  %51 = load i64, ptr %50, align 8, !tbaa !81
  %52 = and i64 %51, %38
  %53 = icmp ne i64 %52, 0
  %54 = tail call i32 @_ZN6dealii10QProjectorILi3EE17DataSetDescriptor4faceEjbbbj(i32 noundef %2, i1 noundef zeroext %41, i1 noundef zeroext %47, i1 noundef zeroext %53, i32 noundef %18)
  %55 = tail call noundef nonnull align 8 dereferenceable(24) ptr @_ZNK6dealii10QuadratureILi2EE11get_weightsEv(ptr noundef nonnull align 8 dereferenceable(128) %3)
  tail call void @_ZNK6dealii9MappingQ1ILi3ELi3EE17compute_fill_faceERKNS_12TriaIteratorINS_12CellAccessorILi3ELi3EEEEEjjjNS_10QProjectorILi3EE17DataSetDescriptorERKSt6vectorIdSaIdEERNS1_12InternalDataERSB_INS_5PointILi3EEESaISJ_EERSD_RSB_INS_6TensorILi1ELi3EEESaISP_EESM_(ptr noundef nonnull align 8 dereferenceable(72) %0, ptr noundef nonnull align 8 dereferenceable(16) %1, i32 noundef %2, i32 noundef -1, i32 noundef %18, i32 %54, ptr noundef nonnull align 8 dereferenceable(24) %55, ptr noundef nonnull align 8 dereferenceable(408) %4, ptr noundef nonnull align 8 dereferenceable(24) %5, ptr noundef nonnull align 8 dereferenceable(24) %6, ptr noundef nonnull align 8 dereferenceable(24) %7, ptr noundef nonnull align 8 dereferenceable(24) %8)
  ret void
}

; Function Attrs: sspstrong uwtable
define weak_odr dso_local void @_ZNK6dealii9MappingQ1ILi3ELi3EE17compute_fill_faceERKNS_12TriaIteratorINS_12CellAccessorILi3ELi3EEEEEjjjNS_10QProjectorILi3EE17DataSetDescriptorERKSt6vectorIdSaIdEERNS1_12InternalDataERSB_INS_5PointILi3EEESaISJ_EERSD_RSB_INS_6TensorILi1ELi3EEESaISP_EESM_(ptr noundef nonnull align 8 dereferenceable(72) %0, ptr noundef nonnull align 8 dereferenceable(16) %1, i32 noundef %2, i32 noundef %3, i32 noundef %4, i32 %5, ptr noundef nonnull align 8 dereferenceable(24) %6, ptr noundef nonnull align 8 dereferenceable(408) %7, ptr noundef nonnull align 8 dereferenceable(24) %8, ptr noundef nonnull align 8 dereferenceable(24) %9, ptr noundef nonnull align 8 dereferenceable(24) %10, ptr noundef nonnull align 8 dereferenceable(24) %11) local_unnamed_addr #0 comdat align 2 {
  %13 = alloca %"class.dealii::internal::SubfaceCase", align 1
  tail call void @_ZNK6dealii9MappingQ1ILi3ELi3EE12compute_fillERKNS_12TriaIteratorINS_12CellAccessorILi3ELi3EEEEEjNS_10QProjectorILi3EE17DataSetDescriptorENS_14CellSimilarity10SimilarityERNS1_12InternalDataERSt6vectorINS_5PointILi3EEESaISH_EE(ptr noundef nonnull align 8 dereferenceable(72) %0, ptr noundef nonnull align 8 dereferenceable(16) %1, i32 noundef %4, i32 %5, i32 noundef 0, ptr noundef nonnull align 8 dereferenceable(408) %7, ptr noundef nonnull align 8 dereferenceable(24) %8)
  %14 = getelementptr inbounds %"class.dealii::Mapping<3, 3>::InternalDataBase", ptr %7, i64 0, i32 9
  %15 = load i8, ptr %14, align 8, !tbaa !145, !range !123, !noundef !124
  %16 = icmp eq i8 %15, 0
  %17 = getelementptr inbounds %"class.dealii::Mapping<3, 3>::InternalDataBase", ptr %7, i64 0, i32 1
  %18 = getelementptr inbounds %"class.dealii::Mapping<3, 3>::InternalDataBase", ptr %7, i64 0, i32 3
  %19 = load i32, ptr %18, align 8
  %20 = load i32, ptr %17, align 8
  %21 = select i1 %16, i32 %19, i32 %20
  %22 = and i32 %21, 8
  %23 = icmp eq i32 %22, 0
  br i1 %23, label %776, label %24

24:                                               ; preds = %12
  %25 = getelementptr inbounds %"class.dealii::MappingQ1<3, 3>::InternalData", ptr %7, i64 0, i32 6
  %26 = zext i32 %2 to i64
  %27 = load ptr, ptr %25, align 8, !tbaa !141
  %28 = getelementptr inbounds %"class.std::vector.29", ptr %27, i64 %26
  %29 = getelementptr inbounds %"struct.std::_Vector_base<dealii::Tensor<1, 3>, std::allocator<dealii::Tensor<1, 3> > >::_Vector_impl_data", ptr %28, i64 0, i32 1
  %30 = load ptr, ptr %29, align 8, !tbaa !136
  %31 = load ptr, ptr %28, align 8, !tbaa !121
  %32 = ptrtoint ptr %30 to i64
  %33 = ptrtoint ptr %31 to i64
  %34 = sub i64 %32, %33
  %35 = sdiv exact i64 %34, 24
  %36 = getelementptr inbounds %"class.dealii::MappingQ1<3, 3>::InternalData", ptr %7, i64 0, i32 7
  %37 = load ptr, ptr %36, align 8, !tbaa !141
  %38 = getelementptr inbounds %"struct.std::_Vector_base<dealii::Tensor<1, 3>, std::allocator<dealii::Tensor<1, 3> > >::_Vector_impl_data", ptr %37, i64 0, i32 1
  %39 = load ptr, ptr %38, align 8, !tbaa !136
  %40 = load ptr, ptr %37, align 8, !tbaa !121
  %41 = ptrtoint ptr %39 to i64
  %42 = ptrtoint ptr %40 to i64
  %43 = sub i64 %41, %42
  %44 = sdiv exact i64 %43, 24
  %45 = shl i64 %35, 32
  %46 = shl i64 %44, 32
  %47 = load ptr, ptr %0, align 8, !tbaa !5
  %48 = getelementptr inbounds ptr, ptr %47, i64 4
  %49 = load ptr, ptr %48, align 8
  tail call void %49(ptr noundef nonnull align 8 dereferenceable(72) %0, ptr nonnull %28, i64 %45, ptr nonnull %37, i64 %46, ptr noundef nonnull align 8 dereferenceable(185) %7, i32 noundef 2)
  %50 = load ptr, ptr %10, align 8, !tbaa !70
  %51 = ptrtoint ptr %50 to i64
  %52 = getelementptr inbounds %"struct.std::_Vector_base<dealii::Tensor<1, 3>, std::allocator<dealii::Tensor<1, 3> > >::_Vector_impl_data", ptr %10, i64 0, i32 1
  %53 = load ptr, ptr %52, align 8, !tbaa !70
  %54 = ptrtoint ptr %53 to i64
  %55 = add i32 %2, 6
  %56 = zext i32 %55 to i64
  %57 = load ptr, ptr %25, align 8, !tbaa !141
  %58 = getelementptr inbounds %"class.std::vector.29", ptr %57, i64 %56
  %59 = getelementptr inbounds %"struct.std::_Vector_base<dealii::Tensor<1, 3>, std::allocator<dealii::Tensor<1, 3> > >::_Vector_impl_data", ptr %58, i64 0, i32 1
  %60 = load ptr, ptr %59, align 8, !tbaa !136
  %61 = load ptr, ptr %58, align 8, !tbaa !121
  %62 = ptrtoint ptr %60 to i64
  %63 = ptrtoint ptr %61 to i64
  %64 = sub i64 %62, %63
  %65 = sdiv exact i64 %64, 24
  %66 = load ptr, ptr %36, align 8, !tbaa !141
  %67 = getelementptr inbounds %"class.std::vector.29", ptr %66, i64 1
  %68 = getelementptr inbounds %"class.std::vector.29", ptr %66, i64 1, i32 0, i32 0, i32 0, i32 1
  %69 = load ptr, ptr %68, align 8, !tbaa !136
  %70 = load ptr, ptr %67, align 8, !tbaa !121
  %71 = ptrtoint ptr %69 to i64
  %72 = ptrtoint ptr %70 to i64
  %73 = sub i64 %71, %72
  %74 = sdiv exact i64 %73, 24
  %75 = shl i64 %65, 32
  %76 = shl i64 %74, 32
  %77 = load ptr, ptr %0, align 8, !tbaa !5
  %78 = getelementptr inbounds ptr, ptr %77, i64 4
  %79 = load ptr, ptr %78, align 8
  tail call void %79(ptr noundef nonnull align 8 dereferenceable(72) %0, ptr nonnull %58, i64 %75, ptr nonnull %67, i64 %76, ptr noundef nonnull align 8 dereferenceable(185) %7, i32 noundef 2)
  %80 = icmp eq ptr %50, %53
  br i1 %80, label %203, label %81

81:                                               ; preds = %24
  %82 = load ptr, ptr %36, align 8, !tbaa !141
  %83 = load ptr, ptr %82, align 8, !tbaa !121
  %84 = getelementptr inbounds %"class.std::vector.29", ptr %82, i64 1
  %85 = load ptr, ptr %84, align 8, !tbaa !121
  %86 = add i64 %54, -24
  %87 = sub i64 %86, %51
  %88 = udiv i64 %87, 24
  %89 = add nuw nsw i64 %88, 1
  %90 = icmp ult i64 %87, 264
  br i1 %90, label %200, label %91

91:                                               ; preds = %81
  %92 = add i64 %54, -24
  %93 = sub i64 %92, %51
  %94 = icmp ugt i64 %93, 103079215103
  br i1 %94, label %200, label %95

95:                                               ; preds = %91
  %96 = add i64 %54, -24
  %97 = sub i64 %96, %51
  %98 = freeze i64 %97
  %99 = urem i64 %98, 24
  %100 = sub nuw i64 %98, %99
  %101 = add i64 %100, 24
  %102 = getelementptr i8, ptr %50, i64 %101
  %103 = getelementptr i8, ptr %83, i64 %101
  %104 = getelementptr i8, ptr %85, i64 %101
  %105 = icmp ult ptr %50, %103
  %106 = icmp ult ptr %83, %102
  %107 = and i1 %105, %106
  %108 = icmp ult ptr %50, %104
  %109 = icmp ult ptr %85, %102
  %110 = and i1 %108, %109
  %111 = or i1 %107, %110
  br i1 %111, label %200, label %112

112:                                              ; preds = %95
  %113 = and i64 %89, 2305843009213693950
  %114 = trunc i64 %113 to i32
  %115 = mul i64 %113, 24
  %116 = getelementptr i8, ptr %50, i64 %115
  br label %117

117:                                              ; preds = %117, %112
  %118 = phi i64 [ 0, %112 ], [ %196, %117 ]
  %119 = mul i64 %118, 24
  %120 = getelementptr i8, ptr %50, i64 %119
  %121 = and i64 %118, 4294967294
  %122 = and i64 %118, 4294967294
  %123 = or i64 %122, 1
  %124 = getelementptr inbounds %"class.dealii::Tensor", ptr %83, i64 %121
  %125 = getelementptr inbounds %"class.dealii::Tensor", ptr %83, i64 %123
  %126 = getelementptr inbounds %"class.dealii::Tensor", ptr %85, i64 %121
  %127 = getelementptr inbounds %"class.dealii::Tensor", ptr %85, i64 %123
