; ModuleID = 'Cactus/piraha/AutoGrammar.cc'
source_filename = "Cactus/piraha/AutoGrammar.cc"
target datalayout = "e-m:e-p270:32:32-p271:32:32-p272:64:64-i64:64-f80:128-n8:16:32:64-S128"
target triple = "x86_64-pc-linux-gnu"

module asm ".globl _ZSt21ios_base_library_initv"

%"struct.std::piecewise_construct_t" = type { i8 }
%"class.cctki_piraha::smart_ptr" = type { ptr }
%"class.std::__cxx11::basic_string" = type { %"struct.std::__cxx11::basic_string<char>::_Alloc_hider", i64, %union.anon }
%"struct.std::__cxx11::basic_string<char>::_Alloc_hider" = type { ptr }
%union.anon = type { i64, [8 x i8] }
%"class.cctki_piraha::smart_ptr.3" = type { ptr }
%"class.cctki_piraha::Grammar" = type { ptr, %"class.cctki_piraha::JMap", %"class.std::__cxx11::basic_string" }
%"class.cctki_piraha::JMap" = type { %"class.std::map" }
%"class.std::map" = type { %"class.std::_Rb_tree" }
%"class.std::_Rb_tree" = type { %"struct.std::_Rb_tree<std::__cxx11::basic_string<char>, std::pair<const std::__cxx11::basic_string<char>, cctki_piraha::smart_ptr<cctki_piraha::Pattern>>, std::_Select1st<std::pair<const std::__cxx11::basic_string<char>, cctki_piraha::smart_ptr<cctki_piraha::Pattern>>>, std::less<std::__cxx11::basic_string<char>>>::_Rb_tree_impl" }
%"struct.std::_Rb_tree<std::__cxx11::basic_string<char>, std::pair<const std::__cxx11::basic_string<char>, cctki_piraha::smart_ptr<cctki_piraha::Pattern>>, std::_Select1st<std::pair<const std::__cxx11::basic_string<char>, cctki_piraha::smart_ptr<cctki_piraha::Pattern>>>, std::less<std::__cxx11::basic_string<char>>>::_Rb_tree_impl" = type { %"struct.std::_Rb_tree_key_compare", %"struct.std::_Rb_tree_header" }
%"struct.std::_Rb_tree_key_compare" = type { %"struct.std::less" }
%"struct.std::less" = type { i8 }
%"struct.std::_Rb_tree_header" = type { %"struct.std::_Rb_tree_node_base", i64 }
%"struct.std::_Rb_tree_node_base" = type { i32, ptr, ptr, ptr }
%"class.cctki_piraha::smart_ptr_guts" = type <{ i32, [4 x i8], ptr, i8, [7 x i8] }>
%"class.cctki_piraha::Literal" = type <{ %"class.cctki_piraha::Pattern", i8, [7 x i8] }>
%"class.cctki_piraha::Pattern" = type { ptr }
%"class.cctki_piraha::smart_ptr_guts.23" = type <{ i32, [4 x i8], ptr, i8, [7 x i8] }>
%"class.cctki_piraha::Multi" = type { %"class.cctki_piraha::Pattern", i32, i32, %"class.cctki_piraha::smart_ptr.3" }
%"struct.std::_Rb_tree_node" = type { %"struct.std::_Rb_tree_node_base", %"struct.__gnu_cxx::__aligned_membuf" }
%"struct.__gnu_cxx::__aligned_membuf" = type { [40 x i8] }
%"class.std::tuple" = type { %"struct.std::_Tuple_impl" }
%"struct.std::_Tuple_impl" = type { %"struct.std::_Head_base" }
%"struct.std::_Head_base" = type { ptr }
%"class.std::tuple.19" = type { i8 }
%"struct.std::_Rb_tree<std::__cxx11::basic_string<char>, std::pair<const std::__cxx11::basic_string<char>, cctki_piraha::smart_ptr<cctki_piraha::Pattern>>, std::_Select1st<std::pair<const std::__cxx11::basic_string<char>, cctki_piraha::smart_ptr<cctki_piraha::Pattern>>>, std::less<std::__cxx11::basic_string<char>>>::_Auto_node" = type { ptr, ptr }

$_ZN12cctki_piraha9smart_ptrINS_7PatternEED2Ev = comdat any

$_ZN12cctki_piraha7GrammarD2Ev = comdat any

$_ZN12cctki_piraha7GrammarD0Ev = comdat any

$__clang_call_terminate = comdat any

$_ZNSt8_Rb_treeINSt7__cxx1112basic_stringIcSt11char_traitsIcESaIcEEESt4pairIKS5_N12cctki_piraha9smart_ptrINS8_7PatternEEEESt10_Select1stISC_ESt4lessIS5_ESaISC_EE8_M_eraseEPSt13_Rb_tree_nodeISC_E = comdat any

$_ZNSt3mapINSt7__cxx1112basic_stringIcSt11char_traitsIcESaIcEEEN12cctki_piraha9smart_ptrINS6_7PatternEEESt4lessIS5_ESaISt4pairIKS5_S9_EEEixERSD_ = comdat any

$_ZNSt8_Rb_treeINSt7__cxx1112basic_stringIcSt11char_traitsIcESaIcEEESt4pairIKS5_N12cctki_piraha9smart_ptrINS8_7PatternEEEESt10_Select1stISC_ESt4lessIS5_ESaISC_EE22_M_emplace_hint_uniqueIJRKSt21piecewise_construct_tSt5tupleIJRS7_EESN_IJEEEEESt17_Rb_tree_iteratorISC_ESt23_Rb_tree_const_iteratorISC_EDpOT_ = comdat any

$_ZNSt8_Rb_treeINSt7__cxx1112basic_stringIcSt11char_traitsIcESaIcEEESt4pairIKS5_N12cctki_piraha9smart_ptrINS8_7PatternEEEESt10_Select1stISC_ESt4lessIS5_ESaISC_EE29_M_get_insert_hint_unique_posESt23_Rb_tree_const_iteratorISC_ERS7_ = comdat any

$_ZNSt8_Rb_treeINSt7__cxx1112basic_stringIcSt11char_traitsIcESaIcEEESt4pairIKS5_N12cctki_piraha9smart_ptrINS8_7PatternEEEESt10_Select1stISC_ESt4lessIS5_ESaISC_EE10_Auto_nodeD2Ev = comdat any

$_ZNSt8_Rb_treeINSt7__cxx1112basic_stringIcSt11char_traitsIcESaIcEEESt4pairIKS5_N12cctki_piraha9smart_ptrINS8_7PatternEEEESt10_Select1stISC_ESt4lessIS5_ESaISC_EE17_M_construct_nodeIJRKSt21piecewise_construct_tSt5tupleIJRS7_EESN_IJEEEEEvPSt13_Rb_tree_nodeISC_EDpOT_ = comdat any

$_ZNSt8_Rb_treeINSt7__cxx1112basic_stringIcSt11char_traitsIcESaIcEEESt4pairIKS5_N12cctki_piraha9smart_ptrINS8_7PatternEEEESt10_Select1stISC_ESt4lessIS5_ESaISC_EE24_M_get_insert_unique_posERS7_ = comdat any

$_ZN12cctki_piraha7Pattern3fmtB5cxx11Ev = comdat any

$_ZN12cctki_piraha7Pattern6insertERSo = comdat any

$_ZN12cctki_piraha9smart_ptrINS_7GrammarEE5cleanEv = comdat any

$_ZN12cctki_piraha7Nothing5matchEPNS_7MatcherE = comdat any

$_ZN12cctki_piraha7PatternD2Ev = comdat any

$_ZN12cctki_piraha7NothingD0Ev = comdat any

$_ZTVN12cctki_piraha7GrammarE = comdat any

$_ZTSN12cctki_piraha7GrammarE = comdat any

$_ZTIN12cctki_piraha7GrammarE = comdat any

$_ZSt19piecewise_construct = comdat any

$_ZTSN12cctki_piraha7PatternE = comdat any

$_ZTIN12cctki_piraha7PatternE = comdat any

$_ZTVN12cctki_piraha7NothingE = comdat any

$_ZTSN12cctki_piraha7NothingE = comdat any

$_ZTIN12cctki_piraha7NothingE = comdat any

@.str = private unnamed_addr constant [6 x i8] c"named\00", align 1
@.str.2 = private unnamed_addr constant [4 x i8] c"neg\00", align 1
@.str.3 = private unnamed_addr constant [8 x i8] c"backref\00", align 1
@.str.4 = private unnamed_addr constant [6 x i8] c"range\00", align 1
@.str.5 = private unnamed_addr constant [6 x i8] c"cchar\00", align 1
@.str.6 = private unnamed_addr constant [6 x i8] c"pelem\00", align 1
@.str.7 = private unnamed_addr constant [4 x i8] c"dot\00", align 1
@.str.8 = private unnamed_addr constant [8 x i8] c"literal\00", align 1
@.str.9 = private unnamed_addr constant [10 x i8] c"charclass\00", align 1
@.str.10 = private unnamed_addr constant [6 x i8] c"group\00", align 1
@.str.11 = private unnamed_addr constant [6 x i8] c"quant\00", align 1
@.str.12 = private unnamed_addr constant [6 x i8] c"start\00", align 1
@.str.13 = private unnamed_addr constant [4 x i8] c"end\00", align 1
@.str.15 = private unnamed_addr constant [13 x i8] c"group_inside\00", align 1
@.str.16 = private unnamed_addr constant [7 x i8] c"pelems\00", align 1
@.str.17 = private unnamed_addr constant [8 x i8] c"nothing\00", align 1
@.str.18 = private unnamed_addr constant [10 x i8] c"lookahead\00", align 1
@.str.19 = private unnamed_addr constant [7 x i8] c"ign_on\00", align 1
@.str.20 = private unnamed_addr constant [6 x i8] c"echar\00", align 1
@.str.21 = private unnamed_addr constant [4 x i8] c"hex\00", align 1
@.str.22 = private unnamed_addr constant [13 x i8] c"neglookahead\00", align 1
@.str.24 = private unnamed_addr constant [4 x i8] c"num\00", align 1
@.str.25 = private unnamed_addr constant [8 x i8] c"ign_off\00", align 1
@.str.26 = private unnamed_addr constant [8 x i8] c"pattern\00", align 1
@_ZTVN12cctki_piraha7GrammarE = linkonce_odr dso_local unnamed_addr constant { [4 x ptr] } { [4 x ptr] [ptr null, ptr @_ZTIN12cctki_piraha7GrammarE, ptr @_ZN12cctki_piraha7GrammarD2Ev, ptr @_ZN12cctki_piraha7GrammarD0Ev] }, comdat, align 8
@_ZTVN10__cxxabiv117__class_type_infoE = external global ptr
@_ZTSN12cctki_piraha7GrammarE = linkonce_odr dso_local constant [25 x i8] c"N12cctki_piraha7GrammarE\00", comdat, align 1
@_ZTIN12cctki_piraha7GrammarE = linkonce_odr dso_local constant { ptr, ptr } { ptr getelementptr inbounds (ptr, ptr @_ZTVN10__cxxabiv117__class_type_infoE, i64 2), ptr @_ZTSN12cctki_piraha7GrammarE }, comdat, align 8
@_ZSt19piecewise_construct = linkonce_odr dso_local constant %"struct.std::piecewise_construct_t" zeroinitializer, comdat, align 1
@_ZTVN12cctki_piraha7LiteralE = external unnamed_addr constant { [7 x ptr] }, align 8
@_ZTSN12cctki_piraha7PatternE = linkonce_odr dso_local constant [25 x i8] c"N12cctki_piraha7PatternE\00", comdat, align 1
@_ZTIN12cctki_piraha7PatternE = linkonce_odr dso_local constant { ptr, ptr } { ptr getelementptr inbounds (ptr, ptr @_ZTVN10__cxxabiv117__class_type_infoE, i64 2), ptr @_ZTSN12cctki_piraha7PatternE }, comdat, align 8
@.str.28 = private unnamed_addr constant [6 x i8] c"blank\00", align 1
@.str.29 = private unnamed_addr constant [4 x i8] c"{?}\00", align 1
@_ZTVN12cctki_piraha7NothingE = linkonce_odr dso_local unnamed_addr constant { [7 x ptr] } { [7 x ptr] [ptr null, ptr @_ZTIN12cctki_piraha7NothingE, ptr @_ZN12cctki_piraha7Nothing5matchEPNS_7MatcherE, ptr @_ZN12cctki_piraha7PatternD2Ev, ptr @_ZN12cctki_piraha7NothingD0Ev, ptr @_ZN12cctki_piraha7Pattern3fmtB5cxx11Ev, ptr @_ZN12cctki_piraha7Pattern6insertERSo] }, comdat, align 8
@_ZTVN10__cxxabiv120__si_class_type_infoE = external global ptr
@_ZTSN12cctki_piraha7NothingE = linkonce_odr dso_local constant [25 x i8] c"N12cctki_piraha7NothingE\00", comdat, align 1
@_ZTIN12cctki_piraha7NothingE = linkonce_odr dso_local constant { ptr, ptr, ptr } { ptr getelementptr inbounds (ptr, ptr @_ZTVN10__cxxabiv120__si_class_type_infoE, i64 2), ptr @_ZTSN12cctki_piraha7NothingE, ptr @_ZTIN12cctki_piraha7PatternE }, comdat, align 8
@_ZTVN12cctki_piraha5MultiE = external unnamed_addr constant { [7 x ptr] }, align 8
@_ZTVN12cctki_piraha5StartE = external unnamed_addr constant { [7 x ptr] }, align 8
@_ZTVN12cctki_piraha3EndE = external unnamed_addr constant { [7 x ptr] }, align 8
@.str.30 = private unnamed_addr constant [12 x i8] c"pelems_next\00", align 1
@.str.33 = private unnamed_addr constant [11 x i8] c"pelems_top\00", align 1
@.str.38 = private unnamed_addr constant [10 x i8] c"group_top\00", align 1
@_ZTVN12cctki_piraha3DotE = external unnamed_addr constant { [7 x ptr] }, align 8

; Function Attrs: sspstrong uwtable
define dso_local void @_ZN12cctki_piraha11AutoGrammar17reparserGeneratorEv(ptr noalias sret(%"class.cctki_piraha::smart_ptr") align 8 %0) local_unnamed_addr #0 align 2 personality ptr @__gxx_personality_v0 {
  %2 = alloca %"class.std::__cxx11::basic_string", align 8
  %3 = alloca %"class.cctki_piraha::smart_ptr.3", align 8
  %4 = alloca %"class.std::__cxx11::basic_string", align 8
  %5 = alloca %"class.cctki_piraha::smart_ptr", align 8
  %6 = alloca %"class.std::__cxx11::basic_string", align 8
  %7 = alloca %"class.cctki_piraha::smart_ptr.3", align 8
  %8 = alloca %"class.std::__cxx11::basic_string", align 8
  %9 = alloca %"class.cctki_piraha::smart_ptr.3", align 8
  %10 = alloca %"class.std::__cxx11::basic_string", align 8
  %11 = alloca %"class.cctki_piraha::smart_ptr.3", align 8
  %12 = alloca %"class.std::__cxx11::basic_string", align 8
  %13 = alloca %"class.cctki_piraha::smart_ptr", align 8
  %14 = alloca %"class.std::__cxx11::basic_string", align 8
  %15 = alloca %"class.cctki_piraha::smart_ptr", align 8
  %16 = alloca %"class.std::__cxx11::basic_string", align 8
  %17 = alloca %"class.cctki_piraha::smart_ptr.3", align 8
  %18 = alloca %"class.std::__cxx11::basic_string", align 8
  %19 = alloca %"class.cctki_piraha::smart_ptr", align 8
  %20 = alloca %"class.std::__cxx11::basic_string", align 8
  %21 = alloca %"class.cctki_piraha::smart_ptr", align 8
  %22 = alloca %"class.std::__cxx11::basic_string", align 8
  %23 = alloca %"class.cctki_piraha::smart_ptr", align 8
  %24 = alloca %"class.std::__cxx11::basic_string", align 8
  %25 = alloca %"class.cctki_piraha::smart_ptr", align 8
  %26 = alloca %"class.std::__cxx11::basic_string", align 8
  %27 = alloca %"class.cctki_piraha::smart_ptr", align 8
  %28 = alloca %"class.std::__cxx11::basic_string", align 8
  %29 = alloca %"class.cctki_piraha::smart_ptr", align 8
  %30 = alloca %"class.std::__cxx11::basic_string", align 8
  %31 = alloca %"class.cctki_piraha::smart_ptr", align 8
  %32 = alloca %"class.std::__cxx11::basic_string", align 8
  %33 = alloca %"class.cctki_piraha::smart_ptr", align 8
  %34 = alloca %"class.std::__cxx11::basic_string", align 8
  %35 = alloca %"class.cctki_piraha::smart_ptr", align 8
  %36 = alloca %"class.std::__cxx11::basic_string", align 8
  %37 = alloca %"class.cctki_piraha::smart_ptr", align 8
  %38 = alloca %"class.std::__cxx11::basic_string", align 8
  %39 = alloca %"class.cctki_piraha::smart_ptr.3", align 8
  %40 = alloca %"class.std::__cxx11::basic_string", align 8
  %41 = alloca %"class.cctki_piraha::smart_ptr", align 8
  %42 = alloca %"class.std::__cxx11::basic_string", align 8
  %43 = alloca %"class.cctki_piraha::smart_ptr", align 8
  %44 = alloca %"class.std::__cxx11::basic_string", align 8
  %45 = alloca %"class.cctki_piraha::smart_ptr", align 8
  %46 = alloca %"class.std::__cxx11::basic_string", align 8
  %47 = alloca %"class.cctki_piraha::smart_ptr.3", align 8
  %48 = alloca %"class.std::__cxx11::basic_string", align 8
  %49 = alloca %"class.cctki_piraha::smart_ptr.3", align 8
  %50 = alloca %"class.std::__cxx11::basic_string", align 8
  %51 = alloca %"class.cctki_piraha::smart_ptr.3", align 8
  %52 = alloca %"class.std::__cxx11::basic_string", align 8
  %53 = alloca %"class.cctki_piraha::smart_ptr.3", align 8
  %54 = alloca %"class.std::__cxx11::basic_string", align 8
  %55 = alloca %"class.cctki_piraha::smart_ptr.3", align 8
  %56 = alloca %"class.std::__cxx11::basic_string", align 8
  %57 = alloca %"class.cctki_piraha::smart_ptr.3", align 8
  %58 = alloca %"class.std::__cxx11::basic_string", align 8
  %59 = alloca %"class.cctki_piraha::smart_ptr.3", align 8
  %60 = alloca %"class.std::__cxx11::basic_string", align 8
  %61 = alloca %"class.cctki_piraha::smart_ptr.3", align 8
  %62 = alloca %"class.std::__cxx11::basic_string", align 8
  %63 = alloca %"class.cctki_piraha::smart_ptr.3", align 8
  %64 = alloca %"class.std::__cxx11::basic_string", align 8
  %65 = alloca %"class.cctki_piraha::smart_ptr", align 8
  %66 = alloca %"class.std::__cxx11::basic_string", align 8
  %67 = alloca %"class.cctki_piraha::smart_ptr.3", align 8
  %68 = alloca %"class.std::__cxx11::basic_string", align 8
  %69 = alloca %"class.cctki_piraha::smart_ptr.3", align 8
  %70 = alloca %"class.std::__cxx11::basic_string", align 8
  %71 = alloca %"class.cctki_piraha::smart_ptr", align 8
  %72 = alloca %"class.std::__cxx11::basic_string", align 8
  %73 = alloca %"class.cctki_piraha::smart_ptr", align 8
  %74 = alloca %"class.std::__cxx11::basic_string", align 8
  %75 = alloca %"class.cctki_piraha::smart_ptr", align 8
  %76 = alloca %"class.std::__cxx11::basic_string", align 8
  %77 = alloca %"class.cctki_piraha::smart_ptr", align 8
  %78 = alloca %"class.std::__cxx11::basic_string", align 8
  %79 = alloca %"class.cctki_piraha::smart_ptr", align 8
  %80 = alloca %"class.std::__cxx11::basic_string", align 8
  %81 = alloca %"class.cctki_piraha::smart_ptr", align 8
  %82 = alloca %"class.std::__cxx11::basic_string", align 8
  %83 = alloca %"class.cctki_piraha::smart_ptr.3", align 8
  %84 = alloca %"class.std::__cxx11::basic_string", align 8
  %85 = alloca %"class.cctki_piraha::smart_ptr", align 8
  %86 = alloca %"class.std::__cxx11::basic_string", align 8
  %87 = alloca %"class.cctki_piraha::smart_ptr.3", align 8
  %88 = alloca %"class.std::__cxx11::basic_string", align 8
  %89 = alloca %"class.cctki_piraha::smart_ptr", align 8
  %90 = alloca %"class.std::__cxx11::basic_string", align 8
  %91 = alloca %"class.cctki_piraha::smart_ptr", align 8
  %92 = alloca %"class.std::__cxx11::basic_string", align 8
  %93 = alloca %"class.cctki_piraha::smart_ptr.3", align 8
  %94 = alloca %"class.std::__cxx11::basic_string", align 8
  %95 = alloca %"class.cctki_piraha::smart_ptr.3", align 8
  %96 = alloca %"class.std::__cxx11::basic_string", align 8
  %97 = alloca %"class.cctki_piraha::smart_ptr.3", align 8
  %98 = alloca %"class.std::__cxx11::basic_string", align 8
  %99 = alloca %"class.cctki_piraha::smart_ptr", align 8
  %100 = alloca %"class.std::__cxx11::basic_string", align 8
  %101 = alloca %"class.cctki_piraha::smart_ptr.3", align 8
  %102 = alloca %"class.std::__cxx11::basic_string", align 8
  %103 = alloca %"class.cctki_piraha::smart_ptr.3", align 8
  %104 = alloca %"class.std::__cxx11::basic_string", align 8
  %105 = alloca %"class.cctki_piraha::smart_ptr", align 8
  %106 = alloca %"class.std::__cxx11::basic_string", align 8
  %107 = alloca %"class.cctki_piraha::smart_ptr", align 8
  %108 = alloca %"class.std::__cxx11::basic_string", align 8
  %109 = alloca %"class.cctki_piraha::smart_ptr.3", align 8
  %110 = alloca %"class.std::__cxx11::basic_string", align 8
  %111 = alloca %"class.cctki_piraha::smart_ptr.3", align 8
  %112 = alloca %"class.std::__cxx11::basic_string", align 8
  %113 = alloca %"class.cctki_piraha::smart_ptr", align 8
  %114 = alloca %"class.std::__cxx11::basic_string", align 8
  %115 = alloca %"class.cctki_piraha::smart_ptr", align 8
  %116 = alloca %"class.std::__cxx11::basic_string", align 8
  %117 = alloca %"class.cctki_piraha::smart_ptr", align 8
  %118 = alloca %"class.std::__cxx11::basic_string", align 8
  %119 = alloca %"class.cctki_piraha::smart_ptr", align 8
  %120 = alloca %"class.std::__cxx11::basic_string", align 8
  %121 = alloca %"class.cctki_piraha::smart_ptr", align 8
  %122 = alloca %"class.std::__cxx11::basic_string", align 8
  %123 = alloca %"class.cctki_piraha::smart_ptr.3", align 8
  %124 = alloca %"class.std::__cxx11::basic_string", align 8
  %125 = alloca %"class.cctki_piraha::smart_ptr", align 8
  %126 = tail call noalias noundef nonnull dereferenceable(88) ptr @_Znwm(i64 noundef 88) #17
  store ptr getelementptr inbounds ({ [4 x ptr] }, ptr @_ZTVN12cctki_piraha7GrammarE, i64 0, inrange i32 0, i64 2), ptr %126, align 8, !tbaa !6
  %127 = getelementptr inbounds %"class.cctki_piraha::Grammar", ptr %126, i64 0, i32 1
  %128 = getelementptr inbounds %"class.cctki_piraha::Grammar", ptr %126, i64 0, i32 1, i32 0, i32 0, i32 0, i32 1
  %129 = getelementptr inbounds %"class.cctki_piraha::Grammar", ptr %126, i64 0, i32 1, i32 0, i32 0, i32 0, i32 1, i32 0, i32 2
  tail call void @llvm.memset.p0.i64(ptr noundef nonnull align 8 dereferenceable(24) %127, i8 0, i64 24, i1 false)
  store ptr %128, ptr %129, align 8, !tbaa !9
  %130 = getelementptr inbounds %"class.cctki_piraha::Grammar", ptr %126, i64 0, i32 1, i32 0, i32 0, i32 0, i32 1, i32 0, i32 3
  store ptr %128, ptr %130, align 8, !tbaa !16
  %131 = getelementptr inbounds %"class.cctki_piraha::Grammar", ptr %126, i64 0, i32 1, i32 0, i32 0, i32 0, i32 1, i32 1
  store i64 0, ptr %131, align 8, !tbaa !17
  %132 = getelementptr inbounds %"class.cctki_piraha::Grammar", ptr %126, i64 0, i32 2
  %133 = getelementptr inbounds %"class.cctki_piraha::Grammar", ptr %126, i64 0, i32 2, i32 2
  store ptr %133, ptr %132, align 8, !tbaa !18
  %134 = getelementptr inbounds %"class.cctki_piraha::Grammar", ptr %126, i64 0, i32 2, i32 1
  store i64 0, ptr %134, align 8, !tbaa !20
  store i8 0, ptr %133, align 8, !tbaa !22
  %135 = tail call noalias noundef nonnull dereferenceable(24) ptr @_Znwm(i64 noundef 24) #17
  store i32 1, ptr %135, align 8, !tbaa !23
  %136 = getelementptr inbounds %"class.cctki_piraha::smart_ptr_guts", ptr %135, i64 0, i32 2
  store ptr %126, ptr %136, align 8, !tbaa !27
  %137 = getelementptr inbounds %"class.cctki_piraha::smart_ptr_guts", ptr %135, i64 0, i32 3
  store i8 0, ptr %137, align 8, !tbaa !28
  store ptr %135, ptr %0, align 8, !tbaa !29
  %138 = getelementptr inbounds %"class.std::__cxx11::basic_string", ptr %2, i64 0, i32 2
  store ptr %138, ptr %2, align 8, !tbaa !18
  call void @llvm.memcpy.p0.p0.i64(ptr noundef nonnull align 8 dereferenceable(5) %138, ptr noundef nonnull align 1 dereferenceable(5) @.str, i64 5, i1 false)
  %139 = getelementptr inbounds %"class.std::__cxx11::basic_string", ptr %2, i64 0, i32 1
  store i64 5, ptr %139, align 8, !tbaa !20
  %140 = getelementptr inbounds i8, ptr %2, i64 21
  store i8 0, ptr %140, align 1, !tbaa !22
  %141 = invoke noalias noundef nonnull dereferenceable(32) ptr @_Znwm(i64 noundef 32) #17
          to label %142 unwind label %3346

142:                                              ; preds = %1
  %143 = invoke noalias noundef nonnull dereferenceable(16) ptr @_Znwm(i64 noundef 16) #17
          to label %144 unwind label %3348

144:                                              ; preds = %142
  store ptr getelementptr inbounds ({ [7 x ptr] }, ptr @_ZTVN12cctki_piraha7LiteralE, i64 0, inrange i32 0, i64 2), ptr %143, align 8, !tbaa !6
  %145 = getelementptr inbounds %"class.cctki_piraha::Literal", ptr %143, i64 0, i32 1
  store i8 123, ptr %145, align 8, !tbaa !31
  %146 = invoke noalias noundef nonnull dereferenceable(56) ptr @_Znwm(i64 noundef 56) #17
          to label %147 unwind label %3348

147:                                              ; preds = %144
  %148 = getelementptr inbounds %"class.std::__cxx11::basic_string", ptr %4, i64 0, i32 2
  store ptr %148, ptr %4, align 8, !tbaa !18
  store i32 1701667182, ptr %148, align 8
  %149 = getelementptr inbounds %"class.std::__cxx11::basic_string", ptr %4, i64 0, i32 1
  store i64 4, ptr %149, align 8, !tbaa !20
  %150 = getelementptr inbounds i8, ptr %4, i64 20
  store i8 0, ptr %150, align 4, !tbaa !22
  store ptr %135, ptr %5, align 8, !tbaa !29
  store i32 2, ptr %135, align 8, !tbaa !23
  invoke void @_ZN12cctki_piraha6LookupC1ENSt7__cxx1112basic_stringIcSt11char_traitsIcESaIcEEENS_9smart_ptrINS_7GrammarEEE(ptr noundef nonnull align 8 dereferenceable(49) %146, ptr noundef nonnull %4, ptr noundef nonnull %5)
          to label %151 unwind label %3350

151:                                              ; preds = %147
  %152 = invoke noalias noundef nonnull dereferenceable(16) ptr @_Znwm(i64 noundef 16) #17
          to label %153 unwind label %3350

153:                                              ; preds = %151
  store ptr getelementptr inbounds ({ [7 x ptr] }, ptr @_ZTVN12cctki_piraha7LiteralE, i64 0, inrange i32 0, i64 2), ptr %152, align 8, !tbaa !6
  %154 = getelementptr inbounds %"class.cctki_piraha::Literal", ptr %152, i64 0, i32 1
  store i8 125, ptr %154, align 8, !tbaa !31
  invoke void (ptr, ptr, ...) @_ZN12cctki_piraha3SeqC1EPNS_7PatternEz(ptr noundef nonnull align 8 dereferenceable(32) %141, ptr noundef nonnull %143, ptr noundef nonnull %146, ptr noundef nonnull %152, i64 noundef 0)
          to label %155 unwind label %3350

155:                                              ; preds = %153
  %156 = invoke noalias noundef nonnull dereferenceable(24) ptr @_Znwm(i64 noundef 24) #17
          to label %157 unwind label %3350

157:                                              ; preds = %155
  store i32 1, ptr %156, align 8, !tbaa !34
  %158 = getelementptr inbounds %"class.cctki_piraha::smart_ptr_guts.23", ptr %156, i64 0, i32 2
  store ptr %141, ptr %158, align 8, !tbaa !36
  %159 = getelementptr inbounds %"class.cctki_piraha::smart_ptr_guts.23", ptr %156, i64 0, i32 3
  store i8 0, ptr %159, align 8, !tbaa !37
  store ptr %156, ptr %3, align 8, !tbaa !38
  %160 = invoke noundef nonnull align 8 dereferenceable(8) ptr @_ZNSt3mapINSt7__cxx1112basic_stringIcSt11char_traitsIcESaIcEEEN12cctki_piraha9smart_ptrINS6_7PatternEEESt4lessIS5_ESaISt4pairIKS5_S9_EEEixERSD_(ptr noundef nonnull align 8 dereferenceable(48) %127, ptr noundef nonnull align 8 dereferenceable(32) %2)
          to label %161 unwind label %3354

161:                                              ; preds = %157
  %162 = load ptr, ptr %160, align 8, !tbaa !38
  %163 = icmp eq ptr %162, null
  br i1 %163, label %184, label %164

164:                                              ; preds = %161
  %165 = load i32, ptr %162, align 8, !tbaa !34
  %166 = icmp sgt i32 %165, 0
  br i1 %166, label %167, label %184

167:                                              ; preds = %164
  %168 = add nsw i32 %165, -1
  store i32 %168, ptr %162, align 8, !tbaa !34
  %169 = icmp eq i32 %165, 1
  br i1 %169, label %170, label %184

170:                                              ; preds = %167
  %171 = getelementptr inbounds %"class.cctki_piraha::smart_ptr_guts.23", ptr %162, i64 0, i32 2
  %172 = load ptr, ptr %171, align 8, !tbaa !36
  %173 = icmp eq ptr %172, null
  br i1 %173, label %185, label %174

174:                                              ; preds = %170
  %175 = getelementptr inbounds %"class.cctki_piraha::smart_ptr_guts.23", ptr %162, i64 0, i32 3
  %176 = load i8, ptr %175, align 8, !tbaa !37, !range !40, !noundef !41
  %177 = icmp eq i8 %176, 0
  br i1 %177, label %180, label %178

178:                                              ; preds = %174
  %179 = getelementptr inbounds i8, ptr %172, i64 -8
  call void @_ZdaPv(ptr noundef nonnull %179) #18
  br label %185

180:                                              ; preds = %174
  %181 = load ptr, ptr %172, align 8, !tbaa !6
  %182 = getelementptr inbounds ptr, ptr %181, i64 2
  %183 = load ptr, ptr %182, align 8
  call void %183(ptr noundef nonnull align 8 dereferenceable(8) %172) #19
  br label %185

184:                                              ; preds = %167, %164, %161
  store ptr %156, ptr %160, align 8, !tbaa !38
  br label %188

185:                                              ; preds = %170, %178, %180
  call void @_ZdlPv(ptr noundef nonnull %162) #18
  %186 = load ptr, ptr %3, align 8, !tbaa !38
  store ptr %186, ptr %160, align 8, !tbaa !38
  %187 = icmp eq ptr %186, null
  br i1 %187, label %192, label %188

188:                                              ; preds = %184, %185
  %189 = phi ptr [ %156, %184 ], [ %186, %185 ]
  %190 = load i32, ptr %189, align 8, !tbaa !34
  %191 = add nsw i32 %190, 1
  store i32 %191, ptr %189, align 8, !tbaa !34
  br label %192

192:                                              ; preds = %188, %185
  %193 = load ptr, ptr %3, align 8, !tbaa !38
  %194 = icmp eq ptr %193, null
  br i1 %194, label %216, label %195

195:                                              ; preds = %192
  %196 = load i32, ptr %193, align 8, !tbaa !34
  %197 = icmp sgt i32 %196, 0
  br i1 %197, label %198, label %216

198:                                              ; preds = %195
  %199 = add nsw i32 %196, -1
  store i32 %199, ptr %193, align 8, !tbaa !34
  %200 = icmp eq i32 %196, 1
  br i1 %200, label %201, label %216

201:                                              ; preds = %198
  %202 = getelementptr inbounds %"class.cctki_piraha::smart_ptr_guts.23", ptr %193, i64 0, i32 2
  %203 = load ptr, ptr %202, align 8, !tbaa !36
  %204 = icmp eq ptr %203, null
  br i1 %204, label %215, label %205

205:                                              ; preds = %201
  %206 = getelementptr inbounds %"class.cctki_piraha::smart_ptr_guts.23", ptr %193, i64 0, i32 3
  %207 = load i8, ptr %206, align 8, !tbaa !37, !range !40, !noundef !41
  %208 = icmp eq i8 %207, 0
  br i1 %208, label %211, label %209

209:                                              ; preds = %205
  %210 = getelementptr inbounds i8, ptr %203, i64 -8
  call void @_ZdaPv(ptr noundef nonnull %210) #18
  br label %215

211:                                              ; preds = %205
  %212 = load ptr, ptr %203, align 8, !tbaa !6
  %213 = getelementptr inbounds ptr, ptr %212, i64 2
  %214 = load ptr, ptr %213, align 8
  call void %214(ptr noundef nonnull align 8 dereferenceable(8) %203) #19
  br label %215

215:                                              ; preds = %211, %209, %201
  call void @_ZdlPv(ptr noundef nonnull %193) #18
  store ptr null, ptr %3, align 8, !tbaa !38
  br label %216

216:                                              ; preds = %192, %195, %198, %215
  invoke void @_ZN12cctki_piraha9smart_ptrINS_7GrammarEE5cleanEv(ptr noundef nonnull align 8 dereferenceable(8) %5)
          to label %220 unwind label %217

217:                                              ; preds = %216
  %218 = landingpad { ptr, i32 }
          catch ptr null
  %219 = extractvalue { ptr, i32 } %218, 0
  call void @__clang_call_terminate(ptr %219) #20
  unreachable

220:                                              ; preds = %216
  %221 = load ptr, ptr %4, align 8, !tbaa !42
  %222 = icmp eq ptr %221, %148
  br i1 %222, label %223, label %226

223:                                              ; preds = %220
  %224 = load i64, ptr %149, align 8, !tbaa !20
  %225 = icmp ult i64 %224, 16
  call void @llvm.assume(i1 %225)
  br label %227

226:                                              ; preds = %220
  call void @_ZdlPv(ptr noundef %221) #18
  br label %227

227:                                              ; preds = %223, %226
  %228 = load ptr, ptr %2, align 8, !tbaa !42
  %229 = icmp eq ptr %228, %138
  br i1 %229, label %230, label %233

230:                                              ; preds = %227
  %231 = load i64, ptr %139, align 8, !tbaa !20
  %232 = icmp ult i64 %231, 16
  call void @llvm.assume(i1 %232)
  br label %234

233:                                              ; preds = %227
  call void @_ZdlPv(ptr noundef %228) #18
  br label %234

234:                                              ; preds = %230, %233
  %235 = load ptr, ptr %136, align 8, !tbaa !27
  %236 = getelementptr inbounds %"class.cctki_piraha::Grammar", ptr %235, i64 0, i32 1
  %237 = getelementptr inbounds %"class.std::__cxx11::basic_string", ptr %6, i64 0, i32 2
  store ptr %237, ptr %6, align 8, !tbaa !18
  call void @llvm.memcpy.p0.p0.i64(ptr noundef nonnull align 8 dereferenceable(3) %237, ptr noundef nonnull align 1 dereferenceable(3) @.str.2, i64 3, i1 false)
  %238 = getelementptr inbounds %"class.std::__cxx11::basic_string", ptr %6, i64 0, i32 1
  store i64 3, ptr %238, align 8, !tbaa !20
  %239 = getelementptr inbounds i8, ptr %6, i64 19
  store i8 0, ptr %239, align 1, !tbaa !22
  %240 = invoke noalias noundef nonnull dereferenceable(16) ptr @_Znwm(i64 noundef 16) #17
          to label %241 unwind label %3382

241:                                              ; preds = %234
  store ptr getelementptr inbounds ({ [7 x ptr] }, ptr @_ZTVN12cctki_piraha7LiteralE, i64 0, inrange i32 0, i64 2), ptr %240, align 8, !tbaa !6
  %242 = getelementptr inbounds %"class.cctki_piraha::Literal", ptr %240, i64 0, i32 1
  store i8 94, ptr %242, align 8, !tbaa !31
  %243 = invoke noalias noundef nonnull dereferenceable(24) ptr @_Znwm(i64 noundef 24) #17
          to label %244 unwind label %3382

244:                                              ; preds = %241
  store i32 1, ptr %243, align 8, !tbaa !34
  %245 = getelementptr inbounds %"class.cctki_piraha::smart_ptr_guts.23", ptr %243, i64 0, i32 2
  store ptr %240, ptr %245, align 8, !tbaa !36
  %246 = getelementptr inbounds %"class.cctki_piraha::smart_ptr_guts.23", ptr %243, i64 0, i32 3
  store i8 0, ptr %246, align 8, !tbaa !37
  store ptr %243, ptr %7, align 8, !tbaa !38
  %247 = invoke noundef nonnull align 8 dereferenceable(8) ptr @_ZNSt3mapINSt7__cxx1112basic_stringIcSt11char_traitsIcESaIcEEEN12cctki_piraha9smart_ptrINS6_7PatternEEESt4lessIS5_ESaISt4pairIKS5_S9_EEEixERSD_(ptr noundef nonnull align 8 dereferenceable(48) %236, ptr noundef nonnull align 8 dereferenceable(32) %6)
          to label %248 unwind label %3384

248:                                              ; preds = %244
  %249 = load ptr, ptr %247, align 8, !tbaa !38
  %250 = icmp eq ptr %249, null
  br i1 %250, label %271, label %251

251:                                              ; preds = %248
  %252 = load i32, ptr %249, align 8, !tbaa !34
  %253 = icmp sgt i32 %252, 0
  br i1 %253, label %254, label %271

254:                                              ; preds = %251
  %255 = add nsw i32 %252, -1
  store i32 %255, ptr %249, align 8, !tbaa !34
  %256 = icmp eq i32 %252, 1
  br i1 %256, label %257, label %271

257:                                              ; preds = %254
  %258 = getelementptr inbounds %"class.cctki_piraha::smart_ptr_guts.23", ptr %249, i64 0, i32 2
  %259 = load ptr, ptr %258, align 8, !tbaa !36
  %260 = icmp eq ptr %259, null
  br i1 %260, label %272, label %261

261:                                              ; preds = %257
  %262 = getelementptr inbounds %"class.cctki_piraha::smart_ptr_guts.23", ptr %249, i64 0, i32 3
  %263 = load i8, ptr %262, align 8, !tbaa !37, !range !40, !noundef !41
  %264 = icmp eq i8 %263, 0
  br i1 %264, label %267, label %265

265:                                              ; preds = %261
  %266 = getelementptr inbounds i8, ptr %259, i64 -8
  call void @_ZdaPv(ptr noundef nonnull %266) #18
  br label %272

267:                                              ; preds = %261
  %268 = load ptr, ptr %259, align 8, !tbaa !6
  %269 = getelementptr inbounds ptr, ptr %268, i64 2
  %270 = load ptr, ptr %269, align 8
  call void %270(ptr noundef nonnull align 8 dereferenceable(8) %259) #19
  br label %272

271:                                              ; preds = %254, %251, %248
  store ptr %243, ptr %247, align 8, !tbaa !38
  br label %275

272:                                              ; preds = %257, %265, %267
  call void @_ZdlPv(ptr noundef nonnull %249) #18
  %273 = load ptr, ptr %7, align 8, !tbaa !38
  store ptr %273, ptr %247, align 8, !tbaa !38
  %274 = icmp eq ptr %273, null
  br i1 %274, label %279, label %275

275:                                              ; preds = %271, %272
  %276 = phi ptr [ %243, %271 ], [ %273, %272 ]
  %277 = load i32, ptr %276, align 8, !tbaa !34
  %278 = add nsw i32 %277, 1
  store i32 %278, ptr %276, align 8, !tbaa !34
  br label %279

279:                                              ; preds = %275, %272
  %280 = load ptr, ptr %7, align 8, !tbaa !38
  %281 = icmp eq ptr %280, null
  br i1 %281, label %303, label %282

282:                                              ; preds = %279
  %283 = load i32, ptr %280, align 8, !tbaa !34
  %284 = icmp sgt i32 %283, 0
  br i1 %284, label %285, label %303

285:                                              ; preds = %282
  %286 = add nsw i32 %283, -1
  store i32 %286, ptr %280, align 8, !tbaa !34
  %287 = icmp eq i32 %283, 1
  br i1 %287, label %288, label %303

288:                                              ; preds = %285
  %289 = getelementptr inbounds %"class.cctki_piraha::smart_ptr_guts.23", ptr %280, i64 0, i32 2
  %290 = load ptr, ptr %289, align 8, !tbaa !36
  %291 = icmp eq ptr %290, null
  br i1 %291, label %302, label %292

292:                                              ; preds = %288
  %293 = getelementptr inbounds %"class.cctki_piraha::smart_ptr_guts.23", ptr %280, i64 0, i32 3
  %294 = load i8, ptr %293, align 8, !tbaa !37, !range !40, !noundef !41
  %295 = icmp eq i8 %294, 0
  br i1 %295, label %298, label %296

296:                                              ; preds = %292
  %297 = getelementptr inbounds i8, ptr %290, i64 -8
  call void @_ZdaPv(ptr noundef nonnull %297) #18
  br label %302

298:                                              ; preds = %292
  %299 = load ptr, ptr %290, align 8, !tbaa !6
  %300 = getelementptr inbounds ptr, ptr %299, i64 2
  %301 = load ptr, ptr %300, align 8
  call void %301(ptr noundef nonnull align 8 dereferenceable(8) %290) #19
  br label %302

302:                                              ; preds = %298, %296, %288
  call void @_ZdlPv(ptr noundef nonnull %280) #18
  store ptr null, ptr %7, align 8, !tbaa !38
  br label %303

303:                                              ; preds = %279, %282, %285, %302
  %304 = load ptr, ptr %6, align 8, !tbaa !42
  %305 = icmp eq ptr %304, %237
  br i1 %305, label %306, label %309

306:                                              ; preds = %303
  %307 = load i64, ptr %238, align 8, !tbaa !20
  %308 = icmp ult i64 %307, 16
  call void @llvm.assume(i1 %308)
  br label %310

309:                                              ; preds = %303
  call void @_ZdlPv(ptr noundef %304) #18
  br label %310

310:                                              ; preds = %306, %309
  %311 = load ptr, ptr %136, align 8, !tbaa !27
  %312 = getelementptr inbounds %"class.cctki_piraha::Grammar", ptr %311, i64 0, i32 1
  %313 = getelementptr inbounds %"class.std::__cxx11::basic_string", ptr %8, i64 0, i32 2
  store ptr %313, ptr %8, align 8, !tbaa !18
  call void @llvm.memcpy.p0.p0.i64(ptr noundef nonnull align 8 dereferenceable(7) %313, ptr noundef nonnull align 1 dereferenceable(7) @.str.3, i64 7, i1 false)
  %314 = getelementptr inbounds %"class.std::__cxx11::basic_string", ptr %8, i64 0, i32 1
  store i64 7, ptr %314, align 8, !tbaa !20
  %315 = getelementptr inbounds i8, ptr %8, i64 23
  store i8 0, ptr %315, align 1, !tbaa !22
  %316 = invoke noalias noundef nonnull dereferenceable(32) ptr @_Znwm(i64 noundef 32) #17
          to label %317 unwind label %3393

317:                                              ; preds = %310
  %318 = invoke noalias noundef nonnull dereferenceable(16) ptr @_Znwm(i64 noundef 16) #17
          to label %319 unwind label %3395

319:                                              ; preds = %317
  store ptr getelementptr inbounds ({ [7 x ptr] }, ptr @_ZTVN12cctki_piraha7LiteralE, i64 0, inrange i32 0, i64 2), ptr %318, align 8, !tbaa !6
  %320 = getelementptr inbounds %"class.cctki_piraha::Literal", ptr %318, i64 0, i32 1
  store i8 92, ptr %320, align 8, !tbaa !31
  %321 = invoke noalias noundef nonnull dereferenceable(40) ptr @_Znwm(i64 noundef 40) #17
          to label %322 unwind label %3395

322:                                              ; preds = %319
  invoke void @_ZN12cctki_piraha7BracketC1Eb(ptr noundef nonnull align 8 dereferenceable(40) %321, i1 noundef zeroext false)
          to label %323 unwind label %3397

323:                                              ; preds = %322
  %324 = invoke noundef ptr @_ZN12cctki_piraha7Bracket8addRangeEcc(ptr noundef nonnull align 8 dereferenceable(40) %321, i8 noundef signext 49, i8 noundef signext 57)
          to label %325 unwind label %3395

325:                                              ; preds = %323
  invoke void (ptr, ptr, ...) @_ZN12cctki_piraha3SeqC1EPNS_7PatternEz(ptr noundef nonnull align 8 dereferenceable(32) %316, ptr noundef nonnull %318, ptr noundef %324, i64 noundef 0)
          to label %326 unwind label %3395

326:                                              ; preds = %325
  %327 = invoke noalias noundef nonnull dereferenceable(24) ptr @_Znwm(i64 noundef 24) #17
          to label %328 unwind label %3393

328:                                              ; preds = %326
  store i32 1, ptr %327, align 8, !tbaa !34
  %329 = getelementptr inbounds %"class.cctki_piraha::smart_ptr_guts.23", ptr %327, i64 0, i32 2
  store ptr %316, ptr %329, align 8, !tbaa !36
  %330 = getelementptr inbounds %"class.cctki_piraha::smart_ptr_guts.23", ptr %327, i64 0, i32 3
  store i8 0, ptr %330, align 8, !tbaa !37
  store ptr %327, ptr %9, align 8, !tbaa !38
  %331 = invoke noundef nonnull align 8 dereferenceable(8) ptr @_ZNSt3mapINSt7__cxx1112basic_stringIcSt11char_traitsIcESaIcEEEN12cctki_piraha9smart_ptrINS6_7PatternEEESt4lessIS5_ESaISt4pairIKS5_S9_EEEixERSD_(ptr noundef nonnull align 8 dereferenceable(48) %312, ptr noundef nonnull align 8 dereferenceable(32) %8)
          to label %332 unwind label %3401

332:                                              ; preds = %328
  %333 = load ptr, ptr %331, align 8, !tbaa !38
  %334 = icmp eq ptr %333, null
  br i1 %334, label %355, label %335

335:                                              ; preds = %332
  %336 = load i32, ptr %333, align 8, !tbaa !34
  %337 = icmp sgt i32 %336, 0
  br i1 %337, label %338, label %355

338:                                              ; preds = %335
  %339 = add nsw i32 %336, -1
  store i32 %339, ptr %333, align 8, !tbaa !34
  %340 = icmp eq i32 %336, 1
  br i1 %340, label %341, label %355

341:                                              ; preds = %338
  %342 = getelementptr inbounds %"class.cctki_piraha::smart_ptr_guts.23", ptr %333, i64 0, i32 2
  %343 = load ptr, ptr %342, align 8, !tbaa !36
  %344 = icmp eq ptr %343, null
  br i1 %344, label %356, label %345

345:                                              ; preds = %341
  %346 = getelementptr inbounds %"class.cctki_piraha::smart_ptr_guts.23", ptr %333, i64 0, i32 3
  %347 = load i8, ptr %346, align 8, !tbaa !37, !range !40, !noundef !41
  %348 = icmp eq i8 %347, 0
  br i1 %348, label %351, label %349

349:                                              ; preds = %345
  %350 = getelementptr inbounds i8, ptr %343, i64 -8
  call void @_ZdaPv(ptr noundef nonnull %350) #18
  br label %356

351:                                              ; preds = %345
  %352 = load ptr, ptr %343, align 8, !tbaa !6
  %353 = getelementptr inbounds ptr, ptr %352, i64 2
  %354 = load ptr, ptr %353, align 8
  call void %354(ptr noundef nonnull align 8 dereferenceable(8) %343) #19
  br label %356

355:                                              ; preds = %338, %335, %332
  store ptr %327, ptr %331, align 8, !tbaa !38
  br label %359

356:                                              ; preds = %341, %349, %351
  call void @_ZdlPv(ptr noundef nonnull %333) #18
  %357 = load ptr, ptr %9, align 8, !tbaa !38
  store ptr %357, ptr %331, align 8, !tbaa !38
  %358 = icmp eq ptr %357, null
  br i1 %358, label %363, label %359

359:                                              ; preds = %355, %356
  %360 = phi ptr [ %327, %355 ], [ %357, %356 ]
  %361 = load i32, ptr %360, align 8, !tbaa !34
  %362 = add nsw i32 %361, 1
  store i32 %362, ptr %360, align 8, !tbaa !34
  br label %363

363:                                              ; preds = %359, %356
  %364 = load ptr, ptr %9, align 8, !tbaa !38
  %365 = icmp eq ptr %364, null
  br i1 %365, label %387, label %366

366:                                              ; preds = %363
  %367 = load i32, ptr %364, align 8, !tbaa !34
  %368 = icmp sgt i32 %367, 0
  br i1 %368, label %369, label %387

369:                                              ; preds = %366
  %370 = add nsw i32 %367, -1
  store i32 %370, ptr %364, align 8, !tbaa !34
  %371 = icmp eq i32 %367, 1
  br i1 %371, label %372, label %387

372:                                              ; preds = %369
  %373 = getelementptr inbounds %"class.cctki_piraha::smart_ptr_guts.23", ptr %364, i64 0, i32 2
  %374 = load ptr, ptr %373, align 8, !tbaa !36
  %375 = icmp eq ptr %374, null
  br i1 %375, label %386, label %376

376:                                              ; preds = %372
  %377 = getelementptr inbounds %"class.cctki_piraha::smart_ptr_guts.23", ptr %364, i64 0, i32 3
  %378 = load i8, ptr %377, align 8, !tbaa !37, !range !40, !noundef !41
  %379 = icmp eq i8 %378, 0
  br i1 %379, label %382, label %380

380:                                              ; preds = %376
  %381 = getelementptr inbounds i8, ptr %374, i64 -8
  call void @_ZdaPv(ptr noundef nonnull %381) #18
  br label %386

382:                                              ; preds = %376
  %383 = load ptr, ptr %374, align 8, !tbaa !6
  %384 = getelementptr inbounds ptr, ptr %383, i64 2
  %385 = load ptr, ptr %384, align 8
  call void %385(ptr noundef nonnull align 8 dereferenceable(8) %374) #19
  br label %386

386:                                              ; preds = %382, %380, %372
  call void @_ZdlPv(ptr noundef nonnull %364) #18
  store ptr null, ptr %9, align 8, !tbaa !38
  br label %387

387:                                              ; preds = %363, %366, %369, %386
  %388 = load ptr, ptr %8, align 8, !tbaa !42
  %389 = icmp eq ptr %388, %313
  br i1 %389, label %390, label %393

390:                                              ; preds = %387
  %391 = load i64, ptr %314, align 8, !tbaa !20
  %392 = icmp ult i64 %391, 16
  call void @llvm.assume(i1 %392)
  br label %394

393:                                              ; preds = %387
  call void @_ZdlPv(ptr noundef %388) #18
  br label %394

394:                                              ; preds = %390, %393
  %395 = load ptr, ptr %136, align 8, !tbaa !27
  %396 = getelementptr inbounds %"class.cctki_piraha::Grammar", ptr %395, i64 0, i32 1
  %397 = getelementptr inbounds %"class.std::__cxx11::basic_string", ptr %10, i64 0, i32 2
  store ptr %397, ptr %10, align 8, !tbaa !18
  call void @llvm.memcpy.p0.p0.i64(ptr noundef nonnull align 8 dereferenceable(5) %397, ptr noundef nonnull align 1 dereferenceable(5) @.str.4, i64 5, i1 false)
  %398 = getelementptr inbounds %"class.std::__cxx11::basic_string", ptr %10, i64 0, i32 1
  store i64 5, ptr %398, align 8, !tbaa !20
  %399 = getelementptr inbounds i8, ptr %10, i64 21
  store i8 0, ptr %399, align 1, !tbaa !22
  %400 = invoke noalias noundef nonnull dereferenceable(32) ptr @_Znwm(i64 noundef 32) #17
          to label %401 unwind label %3411

401:                                              ; preds = %394
  %402 = invoke noalias noundef nonnull dereferenceable(56) ptr @_Znwm(i64 noundef 56) #17
          to label %403 unwind label %3413

403:                                              ; preds = %401
  %404 = getelementptr inbounds %"class.std::__cxx11::basic_string", ptr %12, i64 0, i32 2
  store ptr %404, ptr %12, align 8, !tbaa !18
  call void @llvm.memcpy.p0.p0.i64(ptr noundef nonnull align 8 dereferenceable(5) %404, ptr noundef nonnull align 1 dereferenceable(5) @.str.5, i64 5, i1 false)
  %405 = getelementptr inbounds %"class.std::__cxx11::basic_string", ptr %12, i64 0, i32 1
  store i64 5, ptr %405, align 8, !tbaa !20
  %406 = getelementptr inbounds i8, ptr %12, i64 21
  store i8 0, ptr %406, align 1, !tbaa !22
  store ptr %135, ptr %13, align 8, !tbaa !29
  %407 = load i32, ptr %135, align 8, !tbaa !23
  %408 = add nsw i32 %407, 1
  store i32 %408, ptr %135, align 8, !tbaa !23
  invoke void @_ZN12cctki_piraha6LookupC1ENSt7__cxx1112basic_stringIcSt11char_traitsIcESaIcEEENS_9smart_ptrINS_7GrammarEEE(ptr noundef nonnull align 8 dereferenceable(49) %402, ptr noundef nonnull %12, ptr noundef nonnull %13)
          to label %409 unwind label %3415

409:                                              ; preds = %403
  %410 = invoke noalias noundef nonnull dereferenceable(16) ptr @_Znwm(i64 noundef 16) #17
          to label %411 unwind label %3415

411:                                              ; preds = %409
  store ptr getelementptr inbounds ({ [7 x ptr] }, ptr @_ZTVN12cctki_piraha7LiteralE, i64 0, inrange i32 0, i64 2), ptr %410, align 8, !tbaa !6
  %412 = getelementptr inbounds %"class.cctki_piraha::Literal", ptr %410, i64 0, i32 1
  store i8 45, ptr %412, align 8, !tbaa !31
  %413 = invoke noalias noundef nonnull dereferenceable(56) ptr @_Znwm(i64 noundef 56) #17
          to label %414 unwind label %3415

414:                                              ; preds = %411
  %415 = getelementptr inbounds %"class.std::__cxx11::basic_string", ptr %14, i64 0, i32 2
  store ptr %415, ptr %14, align 8, !tbaa !18
  call void @llvm.memcpy.p0.p0.i64(ptr noundef nonnull align 8 dereferenceable(5) %415, ptr noundef nonnull align 1 dereferenceable(5) @.str.5, i64 5, i1 false)
  %416 = getelementptr inbounds %"class.std::__cxx11::basic_string", ptr %14, i64 0, i32 1
  store i64 5, ptr %416, align 8, !tbaa !20
  %417 = getelementptr inbounds i8, ptr %14, i64 21
  store i8 0, ptr %417, align 1, !tbaa !22
  store ptr %135, ptr %15, align 8, !tbaa !29
  %418 = load i32, ptr %135, align 8, !tbaa !23
  %419 = add nsw i32 %418, 1
  store i32 %419, ptr %135, align 8, !tbaa !23
  invoke void @_ZN12cctki_piraha6LookupC1ENSt7__cxx1112basic_stringIcSt11char_traitsIcESaIcEEENS_9smart_ptrINS_7GrammarEEE(ptr noundef nonnull align 8 dereferenceable(49) %413, ptr noundef nonnull %14, ptr noundef nonnull %15)
          to label %420 unwind label %3418

420:                                              ; preds = %414
  invoke void (ptr, ptr, ...) @_ZN12cctki_piraha3SeqC1EPNS_7PatternEz(ptr noundef nonnull align 8 dereferenceable(32) %400, ptr noundef nonnull %402, ptr noundef nonnull %410, ptr noundef nonnull %413, i64 noundef 0)
          to label %421 unwind label %3418

421:                                              ; preds = %420
  %422 = invoke noalias noundef nonnull dereferenceable(24) ptr @_Znwm(i64 noundef 24) #17
          to label %423 unwind label %3418

423:                                              ; preds = %421
  store i32 1, ptr %422, align 8, !tbaa !34
  %424 = getelementptr inbounds %"class.cctki_piraha::smart_ptr_guts.23", ptr %422, i64 0, i32 2
  store ptr %400, ptr %424, align 8, !tbaa !36
  %425 = getelementptr inbounds %"class.cctki_piraha::smart_ptr_guts.23", ptr %422, i64 0, i32 3
  store i8 0, ptr %425, align 8, !tbaa !37
  store ptr %422, ptr %11, align 8, !tbaa !38
  %426 = invoke noundef nonnull align 8 dereferenceable(8) ptr @_ZNSt3mapINSt7__cxx1112basic_stringIcSt11char_traitsIcESaIcEEEN12cctki_piraha9smart_ptrINS6_7PatternEEESt4lessIS5_ESaISt4pairIKS5_S9_EEEixERSD_(ptr noundef nonnull align 8 dereferenceable(48) %396, ptr noundef nonnull align 8 dereferenceable(32) %10)
          to label %427 unwind label %3422

427:                                              ; preds = %423
  %428 = load ptr, ptr %426, align 8, !tbaa !38
  %429 = icmp eq ptr %428, null
  br i1 %429, label %450, label %430

430:                                              ; preds = %427
  %431 = load i32, ptr %428, align 8, !tbaa !34
  %432 = icmp sgt i32 %431, 0
  br i1 %432, label %433, label %450

433:                                              ; preds = %430
  %434 = add nsw i32 %431, -1
  store i32 %434, ptr %428, align 8, !tbaa !34
  %435 = icmp eq i32 %431, 1
  br i1 %435, label %436, label %450

436:                                              ; preds = %433
  %437 = getelementptr inbounds %"class.cctki_piraha::smart_ptr_guts.23", ptr %428, i64 0, i32 2
  %438 = load ptr, ptr %437, align 8, !tbaa !36
  %439 = icmp eq ptr %438, null
  br i1 %439, label %451, label %440

440:                                              ; preds = %436
  %441 = getelementptr inbounds %"class.cctki_piraha::smart_ptr_guts.23", ptr %428, i64 0, i32 3
  %442 = load i8, ptr %441, align 8, !tbaa !37, !range !40, !noundef !41
  %443 = icmp eq i8 %442, 0
  br i1 %443, label %446, label %444

444:                                              ; preds = %440
  %445 = getelementptr inbounds i8, ptr %438, i64 -8
  call void @_ZdaPv(ptr noundef nonnull %445) #18
  br label %451

446:                                              ; preds = %440
  %447 = load ptr, ptr %438, align 8, !tbaa !6
  %448 = getelementptr inbounds ptr, ptr %447, i64 2
  %449 = load ptr, ptr %448, align 8
  call void %449(ptr noundef nonnull align 8 dereferenceable(8) %438) #19
  br label %451

450:                                              ; preds = %433, %430, %427
  store ptr %422, ptr %426, align 8, !tbaa !38
  br label %454

451:                                              ; preds = %436, %444, %446
  call void @_ZdlPv(ptr noundef nonnull %428) #18
  %452 = load ptr, ptr %11, align 8, !tbaa !38
  store ptr %452, ptr %426, align 8, !tbaa !38
  %453 = icmp eq ptr %452, null
  br i1 %453, label %458, label %454

454:                                              ; preds = %450, %451
  %455 = phi ptr [ %422, %450 ], [ %452, %451 ]
  %456 = load i32, ptr %455, align 8, !tbaa !34
  %457 = add nsw i32 %456, 1
  store i32 %457, ptr %455, align 8, !tbaa !34
  br label %458

458:                                              ; preds = %454, %451
  %459 = load ptr, ptr %11, align 8, !tbaa !38
  %460 = icmp eq ptr %459, null
  br i1 %460, label %482, label %461

461:                                              ; preds = %458
  %462 = load i32, ptr %459, align 8, !tbaa !34
  %463 = icmp sgt i32 %462, 0
  br i1 %463, label %464, label %482

464:                                              ; preds = %461
  %465 = add nsw i32 %462, -1
  store i32 %465, ptr %459, align 8, !tbaa !34
  %466 = icmp eq i32 %462, 1
  br i1 %466, label %467, label %482

467:                                              ; preds = %464
  %468 = getelementptr inbounds %"class.cctki_piraha::smart_ptr_guts.23", ptr %459, i64 0, i32 2
  %469 = load ptr, ptr %468, align 8, !tbaa !36
  %470 = icmp eq ptr %469, null
  br i1 %470, label %481, label %471

471:                                              ; preds = %467
  %472 = getelementptr inbounds %"class.cctki_piraha::smart_ptr_guts.23", ptr %459, i64 0, i32 3
  %473 = load i8, ptr %472, align 8, !tbaa !37, !range !40, !noundef !41
  %474 = icmp eq i8 %473, 0
  br i1 %474, label %477, label %475

475:                                              ; preds = %471
  %476 = getelementptr inbounds i8, ptr %469, i64 -8
  call void @_ZdaPv(ptr noundef nonnull %476) #18
  br label %481

477:                                              ; preds = %471
  %478 = load ptr, ptr %469, align 8, !tbaa !6
  %479 = getelementptr inbounds ptr, ptr %478, i64 2
  %480 = load ptr, ptr %479, align 8
  call void %480(ptr noundef nonnull align 8 dereferenceable(8) %469) #19
  br label %481

481:                                              ; preds = %477, %475, %467
  call void @_ZdlPv(ptr noundef nonnull %459) #18
  store ptr null, ptr %11, align 8, !tbaa !38
  br label %482

482:                                              ; preds = %458, %461, %464, %481
  invoke void @_ZN12cctki_piraha9smart_ptrINS_7GrammarEE5cleanEv(ptr noundef nonnull align 8 dereferenceable(8) %15)
          to label %486 unwind label %483

483:                                              ; preds = %482
  %484 = landingpad { ptr, i32 }
          catch ptr null
  %485 = extractvalue { ptr, i32 } %484, 0
  call void @__clang_call_terminate(ptr %485) #20
  unreachable

486:                                              ; preds = %482
  %487 = load ptr, ptr %14, align 8, !tbaa !42
  %488 = icmp eq ptr %487, %415
  br i1 %488, label %489, label %492

489:                                              ; preds = %486
  %490 = load i64, ptr %416, align 8, !tbaa !20
  %491 = icmp ult i64 %490, 16
  call void @llvm.assume(i1 %491)
  br label %493

492:                                              ; preds = %486
  call void @_ZdlPv(ptr noundef %487) #18
  br label %493

493:                                              ; preds = %489, %492
  invoke void @_ZN12cctki_piraha9smart_ptrINS_7GrammarEE5cleanEv(ptr noundef nonnull align 8 dereferenceable(8) %13)
          to label %497 unwind label %494

494:                                              ; preds = %493
  %495 = landingpad { ptr, i32 }
          catch ptr null
  %496 = extractvalue { ptr, i32 } %495, 0
  call void @__clang_call_terminate(ptr %496) #20
  unreachable

497:                                              ; preds = %493
  %498 = load ptr, ptr %12, align 8, !tbaa !42
  %499 = icmp eq ptr %498, %404
  br i1 %499, label %500, label %503

500:                                              ; preds = %497
  %501 = load i64, ptr %405, align 8, !tbaa !20
  %502 = icmp ult i64 %501, 16
  call void @llvm.assume(i1 %502)
  br label %504

503:                                              ; preds = %497
  call void @_ZdlPv(ptr noundef %498) #18
  br label %504

504:                                              ; preds = %500, %503
  %505 = load ptr, ptr %10, align 8, !tbaa !42
  %506 = icmp eq ptr %505, %397
  br i1 %506, label %507, label %510

507:                                              ; preds = %504
  %508 = load i64, ptr %398, align 8, !tbaa !20
  %509 = icmp ult i64 %508, 16
  call void @llvm.assume(i1 %509)
  br label %511

510:                                              ; preds = %504
  call void @_ZdlPv(ptr noundef %505) #18
  br label %511

511:                                              ; preds = %507, %510
  %512 = load ptr, ptr %136, align 8, !tbaa !27
  %513 = getelementptr inbounds %"class.cctki_piraha::Grammar", ptr %512, i64 0, i32 1
  %514 = getelementptr inbounds %"class.std::__cxx11::basic_string", ptr %16, i64 0, i32 2
  store ptr %514, ptr %16, align 8, !tbaa !18
  call void @llvm.memcpy.p0.p0.i64(ptr noundef nonnull align 8 dereferenceable(5) %514, ptr noundef nonnull align 1 dereferenceable(5) @.str.6, i64 5, i1 false)
  %515 = getelementptr inbounds %"class.std::__cxx11::basic_string", ptr %16, i64 0, i32 1
  store i64 5, ptr %515, align 8, !tbaa !20
  %516 = getelementptr inbounds i8, ptr %16, i64 21
  store i8 0, ptr %516, align 1, !tbaa !22
  %517 = invoke noalias noundef nonnull dereferenceable(40) ptr @_Znwm(i64 noundef 40) #17
          to label %518 unwind label %3465

518:                                              ; preds = %511
  %519 = invoke noalias noundef nonnull dereferenceable(32) ptr @_Znwm(i64 noundef 32) #17
          to label %520 unwind label %3467

520:                                              ; preds = %518
  %521 = invoke noalias noundef nonnull dereferenceable(40) ptr @_Znwm(i64 noundef 40) #17
          to label %522 unwind label %3469

522:                                              ; preds = %520
  %523 = invoke noalias noundef nonnull dereferenceable(56) ptr @_Znwm(i64 noundef 56) #17
          to label %524 unwind label %3471

524:                                              ; preds = %522
  %525 = getelementptr inbounds %"class.std::__cxx11::basic_string", ptr %18, i64 0, i32 2
  store ptr %525, ptr %18, align 8, !tbaa !18
  call void @llvm.memcpy.p0.p0.i64(ptr noundef nonnull align 8 dereferenceable(5) %525, ptr noundef nonnull align 1 dereferenceable(5) @.str, i64 5, i1 false)
  %526 = getelementptr inbounds %"class.std::__cxx11::basic_string", ptr %18, i64 0, i32 1
  store i64 5, ptr %526, align 8, !tbaa !20
  %527 = getelementptr inbounds i8, ptr %18, i64 21
  store i8 0, ptr %527, align 1, !tbaa !22
  store ptr %135, ptr %19, align 8, !tbaa !29
  %528 = load i32, ptr %135, align 8, !tbaa !23
  %529 = add nsw i32 %528, 1
  store i32 %529, ptr %135, align 8, !tbaa !23
  invoke void @_ZN12cctki_piraha6LookupC1ENSt7__cxx1112basic_stringIcSt11char_traitsIcESaIcEEENS_9smart_ptrINS_7GrammarEEE(ptr noundef nonnull align 8 dereferenceable(49) %523, ptr noundef nonnull %18, ptr noundef nonnull %19)
          to label %530 unwind label %3473

530:                                              ; preds = %524
  %531 = invoke noalias noundef nonnull dereferenceable(56) ptr @_Znwm(i64 noundef 56) #17
          to label %532 unwind label %3473

532:                                              ; preds = %530
  %533 = getelementptr inbounds %"class.std::__cxx11::basic_string", ptr %20, i64 0, i32 2
  store ptr %533, ptr %20, align 8, !tbaa !18
  call void @llvm.memcpy.p0.p0.i64(ptr noundef nonnull align 8 dereferenceable(3) %533, ptr noundef nonnull align 1 dereferenceable(3) @.str.7, i64 3, i1 false)
  %534 = getelementptr inbounds %"class.std::__cxx11::basic_string", ptr %20, i64 0, i32 1
  store i64 3, ptr %534, align 8, !tbaa !20
  %535 = getelementptr inbounds i8, ptr %20, i64 19
  store i8 0, ptr %535, align 1, !tbaa !22
  store ptr %135, ptr %21, align 8, !tbaa !29
  %536 = load i32, ptr %135, align 8, !tbaa !23
  %537 = add nsw i32 %536, 1
  store i32 %537, ptr %135, align 8, !tbaa !23
  invoke void @_ZN12cctki_piraha6LookupC1ENSt7__cxx1112basic_stringIcSt11char_traitsIcESaIcEEENS_9smart_ptrINS_7GrammarEEE(ptr noundef nonnull align 8 dereferenceable(49) %531, ptr noundef nonnull %20, ptr noundef nonnull %21)
          to label %538 unwind label %3476

538:                                              ; preds = %532
  %539 = invoke noalias noundef nonnull dereferenceable(56) ptr @_Znwm(i64 noundef 56) #17
          to label %540 unwind label %3476

540:                                              ; preds = %538
  %541 = getelementptr inbounds %"class.std::__cxx11::basic_string", ptr %22, i64 0, i32 2
  store ptr %541, ptr %22, align 8, !tbaa !18
  call void @llvm.memcpy.p0.p0.i64(ptr noundef nonnull align 8 dereferenceable(7) %541, ptr noundef nonnull align 1 dereferenceable(7) @.str.3, i64 7, i1 false)
  %542 = getelementptr inbounds %"class.std::__cxx11::basic_string", ptr %22, i64 0, i32 1
  store i64 7, ptr %542, align 8, !tbaa !20
  %543 = getelementptr inbounds i8, ptr %22, i64 23
  store i8 0, ptr %543, align 1, !tbaa !22
  store ptr %135, ptr %23, align 8, !tbaa !29
  %544 = load i32, ptr %135, align 8, !tbaa !23
  %545 = add nsw i32 %544, 1
  store i32 %545, ptr %135, align 8, !tbaa !23
  invoke void @_ZN12cctki_piraha6LookupC1ENSt7__cxx1112basic_stringIcSt11char_traitsIcESaIcEEENS_9smart_ptrINS_7GrammarEEE(ptr noundef nonnull align 8 dereferenceable(49) %539, ptr noundef nonnull %22, ptr noundef nonnull %23)
          to label %546 unwind label %3479

546:                                              ; preds = %540
  %547 = invoke noalias noundef nonnull dereferenceable(56) ptr @_Znwm(i64 noundef 56) #17
          to label %548 unwind label %3479

548:                                              ; preds = %546
  %549 = getelementptr inbounds %"class.std::__cxx11::basic_string", ptr %24, i64 0, i32 2
  store ptr %549, ptr %24, align 8, !tbaa !18
  call void @llvm.memcpy.p0.p0.i64(ptr noundef nonnull align 8 dereferenceable(7) %549, ptr noundef nonnull align 1 dereferenceable(7) @.str.8, i64 7, i1 false)
  %550 = getelementptr inbounds %"class.std::__cxx11::basic_string", ptr %24, i64 0, i32 1
  store i64 7, ptr %550, align 8, !tbaa !20
  %551 = getelementptr inbounds i8, ptr %24, i64 23
  store i8 0, ptr %551, align 1, !tbaa !22
  store ptr %135, ptr %25, align 8, !tbaa !29
  %552 = load i32, ptr %135, align 8, !tbaa !23
  %553 = add nsw i32 %552, 1
  store i32 %553, ptr %135, align 8, !tbaa !23
  invoke void @_ZN12cctki_piraha6LookupC1ENSt7__cxx1112basic_stringIcSt11char_traitsIcESaIcEEENS_9smart_ptrINS_7GrammarEEE(ptr noundef nonnull align 8 dereferenceable(49) %547, ptr noundef nonnull %24, ptr noundef nonnull %25)
          to label %554 unwind label %3482

554:                                              ; preds = %548
  %555 = invoke noalias noundef nonnull dereferenceable(56) ptr @_Znwm(i64 noundef 56) #17
          to label %556 unwind label %3482

556:                                              ; preds = %554
  %557 = getelementptr inbounds %"class.std::__cxx11::basic_string", ptr %26, i64 0, i32 2
  store ptr %557, ptr %26, align 8, !tbaa !18
  call void @llvm.memcpy.p0.p0.i64(ptr noundef nonnull align 8 dereferenceable(9) %557, ptr noundef nonnull align 1 dereferenceable(9) @.str.9, i64 9, i1 false)
  %558 = getelementptr inbounds %"class.std::__cxx11::basic_string", ptr %26, i64 0, i32 1
  store i64 9, ptr %558, align 8, !tbaa !20
  %559 = getelementptr inbounds %"class.std::__cxx11::basic_string", ptr %26, i64 0, i32 2, i32 1, i64 1
  store i8 0, ptr %559, align 1, !tbaa !22
  store ptr %135, ptr %27, align 8, !tbaa !29
  %560 = load i32, ptr %135, align 8, !tbaa !23
  %561 = add nsw i32 %560, 1
  store i32 %561, ptr %135, align 8, !tbaa !23
  invoke void @_ZN12cctki_piraha6LookupC1ENSt7__cxx1112basic_stringIcSt11char_traitsIcESaIcEEENS_9smart_ptrINS_7GrammarEEE(ptr noundef nonnull align 8 dereferenceable(49) %555, ptr noundef nonnull %26, ptr noundef nonnull %27)
          to label %562 unwind label %3485

562:                                              ; preds = %556
  %563 = invoke noalias noundef nonnull dereferenceable(56) ptr @_Znwm(i64 noundef 56) #17
          to label %564 unwind label %3485

564:                                              ; preds = %562
  %565 = getelementptr inbounds %"class.std::__cxx11::basic_string", ptr %28, i64 0, i32 2
  store ptr %565, ptr %28, align 8, !tbaa !18
  call void @llvm.memcpy.p0.p0.i64(ptr noundef nonnull align 8 dereferenceable(5) %565, ptr noundef nonnull align 1 dereferenceable(5) @.str.10, i64 5, i1 false)
  %566 = getelementptr inbounds %"class.std::__cxx11::basic_string", ptr %28, i64 0, i32 1
  store i64 5, ptr %566, align 8, !tbaa !20
  %567 = getelementptr inbounds i8, ptr %28, i64 21
  store i8 0, ptr %567, align 1, !tbaa !22
  store ptr %135, ptr %29, align 8, !tbaa !29
  %568 = load i32, ptr %135, align 8, !tbaa !23
  %569 = add nsw i32 %568, 1
  store i32 %569, ptr %135, align 8, !tbaa !23
  invoke void @_ZN12cctki_piraha6LookupC1ENSt7__cxx1112basic_stringIcSt11char_traitsIcESaIcEEENS_9smart_ptrINS_7GrammarEEE(ptr noundef nonnull align 8 dereferenceable(49) %563, ptr noundef nonnull %28, ptr noundef nonnull %29)
          to label %570 unwind label %3488

570:                                              ; preds = %564
  invoke void (ptr, ptr, ...) @_ZN12cctki_piraha2OrC1EPNS_7PatternEz(ptr noundef nonnull align 8 dereferenceable(34) %521, ptr noundef nonnull %523, ptr noundef nonnull %531, ptr noundef nonnull %539, ptr noundef nonnull %547, ptr noundef nonnull %555, ptr noundef nonnull %563, i64 noundef 0)
          to label %571 unwind label %3488

571:                                              ; preds = %570
  %572 = invoke noalias noundef nonnull dereferenceable(40) ptr @_Znwm(i64 noundef 40) #17
          to label %573 unwind label %3488

573:                                              ; preds = %571
  %574 = invoke noalias noundef nonnull dereferenceable(56) ptr @_Znwm(i64 noundef 56) #17
          to label %575 unwind label %3492

575:                                              ; preds = %573
  %576 = getelementptr inbounds %"class.std::__cxx11::basic_string", ptr %30, i64 0, i32 2
  store ptr %576, ptr %30, align 8, !tbaa !18
  call void @llvm.memcpy.p0.p0.i64(ptr noundef nonnull align 8 dereferenceable(5) %576, ptr noundef nonnull align 1 dereferenceable(5) @.str.11, i64 5, i1 false)
  %577 = getelementptr inbounds %"class.std::__cxx11::basic_string", ptr %30, i64 0, i32 1
  store i64 5, ptr %577, align 8, !tbaa !20
  %578 = getelementptr inbounds i8, ptr %30, i64 21
  store i8 0, ptr %578, align 1, !tbaa !22
  store ptr %135, ptr %31, align 8, !tbaa !29
  %579 = load i32, ptr %135, align 8, !tbaa !23
  %580 = add nsw i32 %579, 1
  store i32 %580, ptr %135, align 8, !tbaa !23
  invoke void @_ZN12cctki_piraha6LookupC1ENSt7__cxx1112basic_stringIcSt11char_traitsIcESaIcEEENS_9smart_ptrINS_7GrammarEEE(ptr noundef nonnull align 8 dereferenceable(49) %574, ptr noundef nonnull %30, ptr noundef nonnull %31)
          to label %581 unwind label %3494

581:                                              ; preds = %575
  %582 = invoke noalias noundef nonnull dereferenceable(8) ptr @_Znwm(i64 noundef 8) #17
          to label %583 unwind label %3494

583:                                              ; preds = %581
  store ptr getelementptr inbounds ({ [7 x ptr] }, ptr @_ZTVN12cctki_piraha7NothingE, i64 0, inrange i32 0, i64 2), ptr %582, align 8, !tbaa !6
  invoke void (ptr, ptr, ...) @_ZN12cctki_piraha2OrC1EPNS_7PatternEz(ptr noundef nonnull align 8 dereferenceable(34) %572, ptr noundef nonnull %574, ptr noundef nonnull %582, i64 noundef 0)
          to label %584 unwind label %3494

584:                                              ; preds = %583
  invoke void (ptr, ptr, ...) @_ZN12cctki_piraha3SeqC1EPNS_7PatternEz(ptr noundef nonnull align 8 dereferenceable(32) %519, ptr noundef nonnull %521, ptr noundef nonnull %572, i64 noundef 0)
          to label %585 unwind label %3494

585:                                              ; preds = %584
  %586 = invoke noalias noundef nonnull dereferenceable(40) ptr @_Znwm(i64 noundef 40) #17
          to label %587 unwind label %3494

587:                                              ; preds = %585
  %588 = invoke noalias noundef nonnull dereferenceable(56) ptr @_Znwm(i64 noundef 56) #17
          to label %589 unwind label %3499

589:                                              ; preds = %587
  %590 = getelementptr inbounds %"class.std::__cxx11::basic_string", ptr %32, i64 0, i32 2
  store ptr %590, ptr %32, align 8, !tbaa !18
  call void @llvm.memcpy.p0.p0.i64(ptr noundef nonnull align 8 dereferenceable(5) %590, ptr noundef nonnull align 1 dereferenceable(5) @.str.12, i64 5, i1 false)
  %591 = getelementptr inbounds %"class.std::__cxx11::basic_string", ptr %32, i64 0, i32 1
  store i64 5, ptr %591, align 8, !tbaa !20
  %592 = getelementptr inbounds i8, ptr %32, i64 21
  store i8 0, ptr %592, align 1, !tbaa !22
  store ptr %135, ptr %33, align 8, !tbaa !29
  %593 = load i32, ptr %135, align 8, !tbaa !23
  %594 = add nsw i32 %593, 1
  store i32 %594, ptr %135, align 8, !tbaa !23
  invoke void @_ZN12cctki_piraha6LookupC1ENSt7__cxx1112basic_stringIcSt11char_traitsIcESaIcEEENS_9smart_ptrINS_7GrammarEEE(ptr noundef nonnull align 8 dereferenceable(49) %588, ptr noundef nonnull %32, ptr noundef nonnull %33)
          to label %595 unwind label %3501

595:                                              ; preds = %589
  %596 = invoke noalias noundef nonnull dereferenceable(56) ptr @_Znwm(i64 noundef 56) #17
          to label %597 unwind label %3501

597:                                              ; preds = %595
  %598 = getelementptr inbounds %"class.std::__cxx11::basic_string", ptr %34, i64 0, i32 2
  store ptr %598, ptr %34, align 8, !tbaa !18
  call void @llvm.memcpy.p0.p0.i64(ptr noundef nonnull align 8 dereferenceable(3) %598, ptr noundef nonnull align 1 dereferenceable(3) @.str.13, i64 3, i1 false)
  %599 = getelementptr inbounds %"class.std::__cxx11::basic_string", ptr %34, i64 0, i32 1
  store i64 3, ptr %599, align 8, !tbaa !20
  %600 = getelementptr inbounds i8, ptr %34, i64 19
  store i8 0, ptr %600, align 1, !tbaa !22
  store ptr %135, ptr %35, align 8, !tbaa !29
  %601 = load i32, ptr %135, align 8, !tbaa !23
  %602 = add nsw i32 %601, 1
  store i32 %602, ptr %135, align 8, !tbaa !23
  invoke void @_ZN12cctki_piraha6LookupC1ENSt7__cxx1112basic_stringIcSt11char_traitsIcESaIcEEENS_9smart_ptrINS_7GrammarEEE(ptr noundef nonnull align 8 dereferenceable(49) %596, ptr noundef nonnull %34, ptr noundef nonnull %35)
          to label %603 unwind label %3504

603:                                              ; preds = %597
  %604 = invoke noalias noundef nonnull dereferenceable(56) ptr @_Znwm(i64 noundef 56) #17
          to label %605 unwind label %3504

605:                                              ; preds = %603
  %606 = getelementptr inbounds %"class.std::__cxx11::basic_string", ptr %36, i64 0, i32 2
  store ptr %606, ptr %36, align 8, !tbaa !18
  store i64 8751164109912108898, ptr %606, align 8
  %607 = getelementptr inbounds %"class.std::__cxx11::basic_string", ptr %36, i64 0, i32 1
  store i64 8, ptr %607, align 8, !tbaa !20
  %608 = getelementptr inbounds %"class.std::__cxx11::basic_string", ptr %36, i64 0, i32 2, i32 1
  store i8 0, ptr %608, align 8, !tbaa !22
  store ptr %135, ptr %37, align 8, !tbaa !29
  %609 = load i32, ptr %135, align 8, !tbaa !23
  %610 = add nsw i32 %609, 1
  store i32 %610, ptr %135, align 8, !tbaa !23
  invoke void @_ZN12cctki_piraha6LookupC1ENSt7__cxx1112basic_stringIcSt11char_traitsIcESaIcEEENS_9smart_ptrINS_7GrammarEEE(ptr noundef nonnull align 8 dereferenceable(49) %604, ptr noundef nonnull %36, ptr noundef nonnull %37)
          to label %611 unwind label %3507

611:                                              ; preds = %605
  invoke void (ptr, ptr, ...) @_ZN12cctki_piraha2OrC1EPNS_7PatternEz(ptr noundef nonnull align 8 dereferenceable(34) %586, ptr noundef nonnull %588, ptr noundef nonnull %596, ptr noundef nonnull %604, i64 noundef 0)
          to label %612 unwind label %3507

612:                                              ; preds = %611
  invoke void (ptr, ptr, ...) @_ZN12cctki_piraha2OrC1EPNS_7PatternEz(ptr noundef nonnull align 8 dereferenceable(34) %517, ptr noundef nonnull %519, ptr noundef nonnull %586, i64 noundef 0)
          to label %613 unwind label %3507

613:                                              ; preds = %612
  %614 = invoke noalias noundef nonnull dereferenceable(24) ptr @_Znwm(i64 noundef 24) #17
          to label %615 unwind label %3507

615:                                              ; preds = %613
  store i32 1, ptr %614, align 8, !tbaa !34
  %616 = getelementptr inbounds %"class.cctki_piraha::smart_ptr_guts.23", ptr %614, i64 0, i32 2
  store ptr %517, ptr %616, align 8, !tbaa !36
  %617 = getelementptr inbounds %"class.cctki_piraha::smart_ptr_guts.23", ptr %614, i64 0, i32 3
  store i8 0, ptr %617, align 8, !tbaa !37
  store ptr %614, ptr %17, align 8, !tbaa !38
  %618 = invoke noundef nonnull align 8 dereferenceable(8) ptr @_ZNSt3mapINSt7__cxx1112basic_stringIcSt11char_traitsIcESaIcEEEN12cctki_piraha9smart_ptrINS6_7PatternEEESt4lessIS5_ESaISt4pairIKS5_S9_EEEixERSD_(ptr noundef nonnull align 8 dereferenceable(48) %513, ptr noundef nonnull align 8 dereferenceable(32) %16)
          to label %619 unwind label %3512

619:                                              ; preds = %615
  %620 = load ptr, ptr %618, align 8, !tbaa !38
  %621 = icmp eq ptr %620, null
  br i1 %621, label %643, label %622

622:                                              ; preds = %619
  %623 = load i32, ptr %620, align 8, !tbaa !34
  %624 = icmp sgt i32 %623, 0
  br i1 %624, label %625, label %643

625:                                              ; preds = %622
  %626 = add nsw i32 %623, -1
  store i32 %626, ptr %620, align 8, !tbaa !34
  %627 = icmp eq i32 %623, 1
  br i1 %627, label %628, label %643

628:                                              ; preds = %625
  %629 = getelementptr inbounds %"class.cctki_piraha::smart_ptr_guts.23", ptr %620, i64 0, i32 2
  %630 = load ptr, ptr %629, align 8, !tbaa !36
  %631 = icmp eq ptr %630, null
  br i1 %631, label %642, label %632

632:                                              ; preds = %628
  %633 = getelementptr inbounds %"class.cctki_piraha::smart_ptr_guts.23", ptr %620, i64 0, i32 3
  %634 = load i8, ptr %633, align 8, !tbaa !37, !range !40, !noundef !41
  %635 = icmp eq i8 %634, 0
  br i1 %635, label %638, label %636

636:                                              ; preds = %632
  %637 = getelementptr inbounds i8, ptr %630, i64 -8
  call void @_ZdaPv(ptr noundef nonnull %637) #18
  br label %642

638:                                              ; preds = %632
  %639 = load ptr, ptr %630, align 8, !tbaa !6
  %640 = getelementptr inbounds ptr, ptr %639, i64 2
  %641 = load ptr, ptr %640, align 8
  call void %641(ptr noundef nonnull align 8 dereferenceable(8) %630) #19
  br label %642

642:                                              ; preds = %638, %636, %628
  call void @_ZdlPv(ptr noundef nonnull %620) #18
  store ptr null, ptr %618, align 8, !tbaa !38
  br label %643

643:                                              ; preds = %642, %625, %622, %619
  %644 = load ptr, ptr %17, align 8, !tbaa !38
  store ptr %644, ptr %618, align 8, !tbaa !38
  %645 = icmp eq ptr %644, null
  br i1 %645, label %649, label %646

646:                                              ; preds = %643
  %647 = load i32, ptr %644, align 8, !tbaa !34
  %648 = add nsw i32 %647, 1
  store i32 %648, ptr %644, align 8, !tbaa !34
  br label %649

649:                                              ; preds = %646, %643
  %650 = load ptr, ptr %17, align 8, !tbaa !38
  %651 = icmp eq ptr %650, null
  br i1 %651, label %673, label %652

652:                                              ; preds = %649
  %653 = load i32, ptr %650, align 8, !tbaa !34
  %654 = icmp sgt i32 %653, 0
  br i1 %654, label %655, label %673

655:                                              ; preds = %652
  %656 = add nsw i32 %653, -1
  store i32 %656, ptr %650, align 8, !tbaa !34
  %657 = icmp eq i32 %653, 1
  br i1 %657, label %658, label %673

658:                                              ; preds = %655
  %659 = getelementptr inbounds %"class.cctki_piraha::smart_ptr_guts.23", ptr %650, i64 0, i32 2
  %660 = load ptr, ptr %659, align 8, !tbaa !36
  %661 = icmp eq ptr %660, null
  br i1 %661, label %672, label %662

662:                                              ; preds = %658
  %663 = getelementptr inbounds %"class.cctki_piraha::smart_ptr_guts.23", ptr %650, i64 0, i32 3
  %664 = load i8, ptr %663, align 8, !tbaa !37, !range !40, !noundef !41
  %665 = icmp eq i8 %664, 0
  br i1 %665, label %668, label %666

666:                                              ; preds = %662
  %667 = getelementptr inbounds i8, ptr %660, i64 -8
  call void @_ZdaPv(ptr noundef nonnull %667) #18
  br label %672

668:                                              ; preds = %662
  %669 = load ptr, ptr %660, align 8, !tbaa !6
  %670 = getelementptr inbounds ptr, ptr %669, i64 2
  %671 = load ptr, ptr %670, align 8
  call void %671(ptr noundef nonnull align 8 dereferenceable(8) %660) #19
  br label %672

672:                                              ; preds = %668, %666, %658
  call void @_ZdlPv(ptr noundef nonnull %650) #18
  store ptr null, ptr %17, align 8, !tbaa !38
  br label %673

673:                                              ; preds = %649, %652, %655, %672
  invoke void @_ZN12cctki_piraha9smart_ptrINS_7GrammarEE5cleanEv(ptr noundef nonnull align 8 dereferenceable(8) %37)
          to label %677 unwind label %674

674:                                              ; preds = %673
  %675 = landingpad { ptr, i32 }
          catch ptr null
  %676 = extractvalue { ptr, i32 } %675, 0
  call void @__clang_call_terminate(ptr %676) #20
  unreachable

677:                                              ; preds = %673
  %678 = load ptr, ptr %36, align 8, !tbaa !42
  %679 = icmp eq ptr %678, %606
  br i1 %679, label %680, label %683

680:                                              ; preds = %677
  %681 = load i64, ptr %607, align 8, !tbaa !20
  %682 = icmp ult i64 %681, 16
  call void @llvm.assume(i1 %682)
  br label %684

683:                                              ; preds = %677
  call void @_ZdlPv(ptr noundef %678) #18
  br label %684

684:                                              ; preds = %680, %683
  invoke void @_ZN12cctki_piraha9smart_ptrINS_7GrammarEE5cleanEv(ptr noundef nonnull align 8 dereferenceable(8) %35)
          to label %688 unwind label %685

685:                                              ; preds = %684
  %686 = landingpad { ptr, i32 }
          catch ptr null
  %687 = extractvalue { ptr, i32 } %686, 0
  call void @__clang_call_terminate(ptr %687) #20
  unreachable

688:                                              ; preds = %684
  %689 = load ptr, ptr %34, align 8, !tbaa !42
  %690 = icmp eq ptr %689, %598
  br i1 %690, label %691, label %694

691:                                              ; preds = %688
  %692 = load i64, ptr %599, align 8, !tbaa !20
  %693 = icmp ult i64 %692, 16
  call void @llvm.assume(i1 %693)
  br label %695

694:                                              ; preds = %688
  call void @_ZdlPv(ptr noundef %689) #18
  br label %695

695:                                              ; preds = %691, %694
  invoke void @_ZN12cctki_piraha9smart_ptrINS_7GrammarEE5cleanEv(ptr noundef nonnull align 8 dereferenceable(8) %33)
          to label %699 unwind label %696

696:                                              ; preds = %695
  %697 = landingpad { ptr, i32 }
          catch ptr null
  %698 = extractvalue { ptr, i32 } %697, 0
  call void @__clang_call_terminate(ptr %698) #20
  unreachable

699:                                              ; preds = %695
  %700 = load ptr, ptr %32, align 8, !tbaa !42
  %701 = icmp eq ptr %700, %590
  br i1 %701, label %702, label %705

702:                                              ; preds = %699
  %703 = load i64, ptr %591, align 8, !tbaa !20
  %704 = icmp ult i64 %703, 16
  call void @llvm.assume(i1 %704)
  br label %706

705:                                              ; preds = %699
  call void @_ZdlPv(ptr noundef %700) #18
  br label %706

706:                                              ; preds = %702, %705
  invoke void @_ZN12cctki_piraha9smart_ptrINS_7GrammarEE5cleanEv(ptr noundef nonnull align 8 dereferenceable(8) %31)
          to label %710 unwind label %707

707:                                              ; preds = %706
  %708 = landingpad { ptr, i32 }
          catch ptr null
  %709 = extractvalue { ptr, i32 } %708, 0
  call void @__clang_call_terminate(ptr %709) #20
  unreachable

710:                                              ; preds = %706
  %711 = load ptr, ptr %30, align 8, !tbaa !42
  %712 = icmp eq ptr %711, %576
  br i1 %712, label %713, label %716

713:                                              ; preds = %710
  %714 = load i64, ptr %577, align 8, !tbaa !20
  %715 = icmp ult i64 %714, 16
  call void @llvm.assume(i1 %715)
  br label %717

716:                                              ; preds = %710
  call void @_ZdlPv(ptr noundef %711) #18
  br label %717

717:                                              ; preds = %713, %716
  invoke void @_ZN12cctki_piraha9smart_ptrINS_7GrammarEE5cleanEv(ptr noundef nonnull align 8 dereferenceable(8) %29)
          to label %721 unwind label %718

718:                                              ; preds = %717
  %719 = landingpad { ptr, i32 }
          catch ptr null
  %720 = extractvalue { ptr, i32 } %719, 0
  call void @__clang_call_terminate(ptr %720) #20
  unreachable

721:                                              ; preds = %717
  %722 = load ptr, ptr %28, align 8, !tbaa !42
  %723 = icmp eq ptr %722, %565
  br i1 %723, label %724, label %727

724:                                              ; preds = %721
  %725 = load i64, ptr %566, align 8, !tbaa !20
  %726 = icmp ult i64 %725, 16
  call void @llvm.assume(i1 %726)
  br label %728

727:                                              ; preds = %721
  call void @_ZdlPv(ptr noundef %722) #18
  br label %728

728:                                              ; preds = %724, %727
  invoke void @_ZN12cctki_piraha9smart_ptrINS_7GrammarEE5cleanEv(ptr noundef nonnull align 8 dereferenceable(8) %27)
          to label %732 unwind label %729

729:                                              ; preds = %728
  %730 = landingpad { ptr, i32 }
          catch ptr null
  %731 = extractvalue { ptr, i32 } %730, 0
  call void @__clang_call_terminate(ptr %731) #20
  unreachable

732:                                              ; preds = %728
  %733 = load ptr, ptr %26, align 8, !tbaa !42
  %734 = icmp eq ptr %733, %557
  br i1 %734, label %735, label %738

735:                                              ; preds = %732
  %736 = load i64, ptr %558, align 8, !tbaa !20
  %737 = icmp ult i64 %736, 16
  call void @llvm.assume(i1 %737)
  br label %739

738:                                              ; preds = %732
  call void @_ZdlPv(ptr noundef %733) #18
  br label %739

739:                                              ; preds = %735, %738
  invoke void @_ZN12cctki_piraha9smart_ptrINS_7GrammarEE5cleanEv(ptr noundef nonnull align 8 dereferenceable(8) %25)
          to label %743 unwind label %740

740:                                              ; preds = %739
  %741 = landingpad { ptr, i32 }
          catch ptr null
  %742 = extractvalue { ptr, i32 } %741, 0
  call void @__clang_call_terminate(ptr %742) #20
  unreachable

743:                                              ; preds = %739
  %744 = load ptr, ptr %24, align 8, !tbaa !42
  %745 = icmp eq ptr %744, %549
  br i1 %745, label %746, label %749

746:                                              ; preds = %743
  %747 = load i64, ptr %550, align 8, !tbaa !20
  %748 = icmp ult i64 %747, 16
  call void @llvm.assume(i1 %748)
  br label %750

749:                                              ; preds = %743
  call void @_ZdlPv(ptr noundef %744) #18
  br label %750

750:                                              ; preds = %746, %749
  invoke void @_ZN12cctki_piraha9smart_ptrINS_7GrammarEE5cleanEv(ptr noundef nonnull align 8 dereferenceable(8) %23)
          to label %754 unwind label %751

751:                                              ; preds = %750
  %752 = landingpad { ptr, i32 }
          catch ptr null
  %753 = extractvalue { ptr, i32 } %752, 0
  call void @__clang_call_terminate(ptr %753) #20
  unreachable

754:                                              ; preds = %750
  %755 = load ptr, ptr %22, align 8, !tbaa !42
  %756 = icmp eq ptr %755, %541
  br i1 %756, label %757, label %760

757:                                              ; preds = %754
  %758 = load i64, ptr %542, align 8, !tbaa !20
  %759 = icmp ult i64 %758, 16
  call void @llvm.assume(i1 %759)
  br label %761

760:                                              ; preds = %754
  call void @_ZdlPv(ptr noundef %755) #18
  br label %761

761:                                              ; preds = %757, %760
  invoke void @_ZN12cctki_piraha9smart_ptrINS_7GrammarEE5cleanEv(ptr noundef nonnull align 8 dereferenceable(8) %21)
          to label %765 unwind label %762

762:                                              ; preds = %761
  %763 = landingpad { ptr, i32 }
          catch ptr null
  %764 = extractvalue { ptr, i32 } %763, 0
  call void @__clang_call_terminate(ptr %764) #20
  unreachable

765:                                              ; preds = %761
  %766 = load ptr, ptr %20, align 8, !tbaa !42
  %767 = icmp eq ptr %766, %533
  br i1 %767, label %768, label %771

768:                                              ; preds = %765
  %769 = load i64, ptr %534, align 8, !tbaa !20
  %770 = icmp ult i64 %769, 16
  call void @llvm.assume(i1 %770)
  br label %772

771:                                              ; preds = %765
  call void @_ZdlPv(ptr noundef %766) #18
  br label %772

772:                                              ; preds = %768, %771
  invoke void @_ZN12cctki_piraha9smart_ptrINS_7GrammarEE5cleanEv(ptr noundef nonnull align 8 dereferenceable(8) %19)
          to label %776 unwind label %773

773:                                              ; preds = %772
  %774 = landingpad { ptr, i32 }
          catch ptr null
  %775 = extractvalue { ptr, i32 } %774, 0
  call void @__clang_call_terminate(ptr %775) #20
  unreachable

776:                                              ; preds = %772
  %777 = load ptr, ptr %18, align 8, !tbaa !42
  %778 = icmp eq ptr %777, %525
  br i1 %778, label %779, label %782

779:                                              ; preds = %776
  %780 = load i64, ptr %526, align 8, !tbaa !20
  %781 = icmp ult i64 %780, 16
  call void @llvm.assume(i1 %781)
  br label %783

782:                                              ; preds = %776
  call void @_ZdlPv(ptr noundef %777) #18
  br label %783

783:                                              ; preds = %779, %782
  %784 = load ptr, ptr %16, align 8, !tbaa !42
  %785 = icmp eq ptr %784, %514
  br i1 %785, label %786, label %789

786:                                              ; preds = %783
  %787 = load i64, ptr %515, align 8, !tbaa !20
  %788 = icmp ult i64 %787, 16
  call void @llvm.assume(i1 %788)
  br label %790

789:                                              ; preds = %783
  call void @_ZdlPv(ptr noundef %784) #18
  br label %790

790:                                              ; preds = %786, %789
  %791 = load ptr, ptr %0, align 8, !tbaa !29
  %792 = icmp eq ptr %791, null
  br i1 %792, label %796, label %793

793:                                              ; preds = %790
  %794 = getelementptr inbounds %"class.cctki_piraha::smart_ptr_guts", ptr %791, i64 0, i32 2
  %795 = load ptr, ptr %794, align 8, !tbaa !27
  br label %796

796:                                              ; preds = %790, %793
  %797 = phi ptr [ %795, %793 ], [ null, %790 ]
  %798 = getelementptr inbounds %"class.cctki_piraha::Grammar", ptr %797, i64 0, i32 1
  %799 = getelementptr inbounds %"class.std::__cxx11::basic_string", ptr %38, i64 0, i32 2
  store ptr %799, ptr %38, align 8, !tbaa !18
  call void @llvm.memcpy.p0.p0.i64(ptr noundef nonnull align 8 dereferenceable(12) %799, ptr noundef nonnull align 1 dereferenceable(12) @.str.15, i64 12, i1 false)
  %800 = getelementptr inbounds %"class.std::__cxx11::basic_string", ptr %38, i64 0, i32 1
  store i64 12, ptr %800, align 8, !tbaa !20
  %801 = getelementptr inbounds %"class.std::__cxx11::basic_string", ptr %38, i64 0, i32 2, i32 1, i64 4
  store i8 0, ptr %801, align 4, !tbaa !22
  %802 = invoke noalias noundef nonnull dereferenceable(32) ptr @_Znwm(i64 noundef 32) #17
          to label %803 unwind label %3707

803:                                              ; preds = %796
  %804 = invoke noalias noundef nonnull dereferenceable(56) ptr @_Znwm(i64 noundef 56) #17
          to label %805 unwind label %3709

805:                                              ; preds = %803
  %806 = getelementptr inbounds %"class.std::__cxx11::basic_string", ptr %40, i64 0, i32 2
  store ptr %806, ptr %40, align 8, !tbaa !18
  call void @llvm.memcpy.p0.p0.i64(ptr noundef nonnull align 8 dereferenceable(6) %806, ptr noundef nonnull align 1 dereferenceable(6) @.str.16, i64 6, i1 false)
  %807 = getelementptr inbounds %"class.std::__cxx11::basic_string", ptr %40, i64 0, i32 1
  store i64 6, ptr %807, align 8, !tbaa !20
  %808 = getelementptr inbounds i8, ptr %40, i64 22
  store i8 0, ptr %808, align 2, !tbaa !22
  store ptr %791, ptr %41, align 8, !tbaa !29
  br i1 %792, label %812, label %809

809:                                              ; preds = %805
  %810 = load i32, ptr %791, align 8, !tbaa !23
  %811 = add nsw i32 %810, 1
  store i32 %811, ptr %791, align 8, !tbaa !23
  br label %812

812:                                              ; preds = %809, %805
  invoke void @_ZN12cctki_piraha6LookupC1ENSt7__cxx1112basic_stringIcSt11char_traitsIcESaIcEEENS_9smart_ptrINS_7GrammarEEE(ptr noundef nonnull align 8 dereferenceable(49) %804, ptr noundef nonnull %40, ptr noundef nonnull %41)
          to label %813 unwind label %3711

813:                                              ; preds = %812
  %814 = invoke noalias noundef nonnull dereferenceable(24) ptr @_Znwm(i64 noundef 24) #17
          to label %815 unwind label %3711

815:                                              ; preds = %813
  %816 = invoke noalias noundef nonnull dereferenceable(32) ptr @_Znwm(i64 noundef 32) #17
          to label %817 unwind label %3714

817:                                              ; preds = %815
  %818 = invoke noalias noundef nonnull dereferenceable(16) ptr @_Znwm(i64 noundef 16) #17
          to label %819 unwind label %3716

819:                                              ; preds = %817
  store ptr getelementptr inbounds ({ [7 x ptr] }, ptr @_ZTVN12cctki_piraha7LiteralE, i64 0, inrange i32 0, i64 2), ptr %818, align 8, !tbaa !6
  %820 = getelementptr inbounds %"class.cctki_piraha::Literal", ptr %818, i64 0, i32 1
  store i8 124, ptr %820, align 8, !tbaa !31
  %821 = invoke noalias noundef nonnull dereferenceable(56) ptr @_Znwm(i64 noundef 56) #17
          to label %822 unwind label %3716

822:                                              ; preds = %819
  %823 = getelementptr inbounds %"class.std::__cxx11::basic_string", ptr %42, i64 0, i32 2
  store ptr %823, ptr %42, align 8, !tbaa !18
  call void @llvm.memcpy.p0.p0.i64(ptr noundef nonnull align 8 dereferenceable(6) %823, ptr noundef nonnull align 1 dereferenceable(6) @.str.16, i64 6, i1 false)
  %824 = getelementptr inbounds %"class.std::__cxx11::basic_string", ptr %42, i64 0, i32 1
  store i64 6, ptr %824, align 8, !tbaa !20
  %825 = getelementptr inbounds i8, ptr %42, i64 22
  store i8 0, ptr %825, align 2, !tbaa !22
  store ptr %791, ptr %43, align 8, !tbaa !29
  br i1 %792, label %829, label %826

826:                                              ; preds = %822
  %827 = load i32, ptr %791, align 8, !tbaa !23
  %828 = add nsw i32 %827, 1
  store i32 %828, ptr %791, align 8, !tbaa !23
  br label %829

829:                                              ; preds = %826, %822
  invoke void @_ZN12cctki_piraha6LookupC1ENSt7__cxx1112basic_stringIcSt11char_traitsIcESaIcEEENS_9smart_ptrINS_7GrammarEEE(ptr noundef nonnull align 8 dereferenceable(49) %821, ptr noundef nonnull %42, ptr noundef nonnull %43)
          to label %830 unwind label %3718

830:                                              ; preds = %829
  invoke void (ptr, ptr, ...) @_ZN12cctki_piraha3SeqC1EPNS_7PatternEz(ptr noundef nonnull align 8 dereferenceable(32) %816, ptr noundef nonnull %818, ptr noundef nonnull %821, i64 noundef 0)
          to label %831 unwind label %3718

831:                                              ; preds = %830
  store ptr getelementptr inbounds ({ [7 x ptr] }, ptr @_ZTVN12cctki_piraha5MultiE, i64 0, inrange i32 0, i64 2), ptr %814, align 8, !tbaa !6
  %832 = getelementptr inbounds %"class.cctki_piraha::Multi", ptr %814, i64 0, i32 1
  store i32 0, ptr %832, align 8, !tbaa !43
  %833 = getelementptr inbounds %"class.cctki_piraha::Multi", ptr %814, i64 0, i32 2
  store i32 10000, ptr %833, align 4, !tbaa !45
  %834 = invoke noalias noundef nonnull dereferenceable(24) ptr @_Znwm(i64 noundef 24) #17
          to label %835 unwind label %3718

835:                                              ; preds = %831
  store i32 1, ptr %834, align 8, !tbaa !34
  %836 = getelementptr inbounds %"class.cctki_piraha::smart_ptr_guts.23", ptr %834, i64 0, i32 2
  store ptr %816, ptr %836, align 8, !tbaa !36
  %837 = getelementptr inbounds %"class.cctki_piraha::smart_ptr_guts.23", ptr %834, i64 0, i32 3
  store i8 0, ptr %837, align 8, !tbaa !37
  %838 = getelementptr inbounds %"class.cctki_piraha::Multi", ptr %814, i64 0, i32 3
  store ptr %834, ptr %838, align 8, !tbaa !38
  %839 = invoke noalias noundef nonnull dereferenceable(40) ptr @_Znwm(i64 noundef 40) #17
          to label %840 unwind label %3718

840:                                              ; preds = %835
  %841 = invoke noalias noundef nonnull dereferenceable(32) ptr @_Znwm(i64 noundef 32) #17
          to label %842 unwind label %3723

842:                                              ; preds = %840
  %843 = invoke noalias noundef nonnull dereferenceable(56) ptr @_Znwm(i64 noundef 56) #17
          to label %844 unwind label %3725

844:                                              ; preds = %842
  %845 = getelementptr inbounds %"class.std::__cxx11::basic_string", ptr %44, i64 0, i32 2
  store ptr %845, ptr %44, align 8, !tbaa !18
  call void @llvm.memcpy.p0.p0.i64(ptr noundef nonnull align 8 dereferenceable(7) %845, ptr noundef nonnull align 1 dereferenceable(7) @.str.17, i64 7, i1 false)
  %846 = getelementptr inbounds %"class.std::__cxx11::basic_string", ptr %44, i64 0, i32 1
  store i64 7, ptr %846, align 8, !tbaa !20
  %847 = getelementptr inbounds i8, ptr %44, i64 23
  store i8 0, ptr %847, align 1, !tbaa !22
  store ptr %791, ptr %45, align 8, !tbaa !29
  br i1 %792, label %851, label %848

848:                                              ; preds = %844
  %849 = load i32, ptr %791, align 8, !tbaa !23
  %850 = add nsw i32 %849, 1
  store i32 %850, ptr %791, align 8, !tbaa !23
  br label %851

851:                                              ; preds = %848, %844
  invoke void @_ZN12cctki_piraha6LookupC1ENSt7__cxx1112basic_stringIcSt11char_traitsIcESaIcEEENS_9smart_ptrINS_7GrammarEEE(ptr noundef nonnull align 8 dereferenceable(49) %843, ptr noundef nonnull %44, ptr noundef nonnull %45)
          to label %852 unwind label %3727

852:                                              ; preds = %851
  %853 = invoke noalias noundef nonnull dereferenceable(16) ptr @_Znwm(i64 noundef 16) #17
          to label %854 unwind label %3727

854:                                              ; preds = %852
  store ptr getelementptr inbounds ({ [7 x ptr] }, ptr @_ZTVN12cctki_piraha7LiteralE, i64 0, inrange i32 0, i64 2), ptr %853, align 8, !tbaa !6
  %855 = getelementptr inbounds %"class.cctki_piraha::Literal", ptr %853, i64 0, i32 1
  store i8 124, ptr %855, align 8, !tbaa !31
  invoke void (ptr, ptr, ...) @_ZN12cctki_piraha3SeqC1EPNS_7PatternEz(ptr noundef nonnull align 8 dereferenceable(32) %841, ptr noundef nonnull %843, ptr noundef nonnull %853, i64 noundef 0)
          to label %856 unwind label %3727

856:                                              ; preds = %854
  %857 = invoke noalias noundef nonnull dereferenceable(8) ptr @_Znwm(i64 noundef 8) #17
          to label %858 unwind label %3727

858:                                              ; preds = %856
  store ptr getelementptr inbounds ({ [7 x ptr] }, ptr @_ZTVN12cctki_piraha7NothingE, i64 0, inrange i32 0, i64 2), ptr %857, align 8, !tbaa !6
  invoke void (ptr, ptr, ...) @_ZN12cctki_piraha2OrC1EPNS_7PatternEz(ptr noundef nonnull align 8 dereferenceable(34) %839, ptr noundef nonnull %841, ptr noundef nonnull %857, i64 noundef 0)
          to label %859 unwind label %3727

859:                                              ; preds = %858
  invoke void (ptr, ptr, ...) @_ZN12cctki_piraha3SeqC1EPNS_7PatternEz(ptr noundef nonnull align 8 dereferenceable(32) %802, ptr noundef nonnull %804, ptr noundef nonnull %814, ptr noundef nonnull %839, i64 noundef 0)
          to label %860 unwind label %3727

860:                                              ; preds = %859
  %861 = invoke noalias noundef nonnull dereferenceable(24) ptr @_Znwm(i64 noundef 24) #17
          to label %862 unwind label %3727

862:                                              ; preds = %860
  store i32 1, ptr %861, align 8, !tbaa !34
  %863 = getelementptr inbounds %"class.cctki_piraha::smart_ptr_guts.23", ptr %861, i64 0, i32 2
  store ptr %802, ptr %863, align 8, !tbaa !36
  %864 = getelementptr inbounds %"class.cctki_piraha::smart_ptr_guts.23", ptr %861, i64 0, i32 3
  store i8 0, ptr %864, align 8, !tbaa !37
  store ptr %861, ptr %39, align 8, !tbaa !38
  %865 = invoke noundef nonnull align 8 dereferenceable(8) ptr @_ZNSt3mapINSt7__cxx1112basic_stringIcSt11char_traitsIcESaIcEEEN12cctki_piraha9smart_ptrINS6_7PatternEEESt4lessIS5_ESaISt4pairIKS5_S9_EEEixERSD_(ptr noundef nonnull align 8 dereferenceable(48) %798, ptr noundef nonnull align 8 dereferenceable(32) %38)
          to label %866 unwind label %3733

866:                                              ; preds = %862
  %867 = load ptr, ptr %865, align 8, !tbaa !38
  %868 = icmp eq ptr %867, null
  br i1 %868, label %890, label %869

869:                                              ; preds = %866
  %870 = load i32, ptr %867, align 8, !tbaa !34
  %871 = icmp sgt i32 %870, 0
  br i1 %871, label %872, label %890

872:                                              ; preds = %869
  %873 = add nsw i32 %870, -1
  store i32 %873, ptr %867, align 8, !tbaa !34
  %874 = icmp eq i32 %870, 1
  br i1 %874, label %875, label %890

875:                                              ; preds = %872
  %876 = getelementptr inbounds %"class.cctki_piraha::smart_ptr_guts.23", ptr %867, i64 0, i32 2
  %877 = load ptr, ptr %876, align 8, !tbaa !36
  %878 = icmp eq ptr %877, null
  br i1 %878, label %889, label %879

879:                                              ; preds = %875
  %880 = getelementptr inbounds %"class.cctki_piraha::smart_ptr_guts.23", ptr %867, i64 0, i32 3
  %881 = load i8, ptr %880, align 8, !tbaa !37, !range !40, !noundef !41
  %882 = icmp eq i8 %881, 0
  br i1 %882, label %885, label %883

883:                                              ; preds = %879
  %884 = getelementptr inbounds i8, ptr %877, i64 -8
  call void @_ZdaPv(ptr noundef nonnull %884) #18
  br label %889

885:                                              ; preds = %879
  %886 = load ptr, ptr %877, align 8, !tbaa !6
  %887 = getelementptr inbounds ptr, ptr %886, i64 2
  %888 = load ptr, ptr %887, align 8
  call void %888(ptr noundef nonnull align 8 dereferenceable(8) %877) #19
  br label %889

889:                                              ; preds = %885, %883, %875
  call void @_ZdlPv(ptr noundef nonnull %867) #18
  store ptr null, ptr %865, align 8, !tbaa !38
  br label %890

890:                                              ; preds = %889, %872, %869, %866
  %891 = load ptr, ptr %39, align 8, !tbaa !38
  store ptr %891, ptr %865, align 8, !tbaa !38
  %892 = icmp eq ptr %891, null
  br i1 %892, label %896, label %893

893:                                              ; preds = %890
  %894 = load i32, ptr %891, align 8, !tbaa !34
  %895 = add nsw i32 %894, 1
  store i32 %895, ptr %891, align 8, !tbaa !34
  br label %896

896:                                              ; preds = %893, %890
  %897 = load ptr, ptr %39, align 8, !tbaa !38
  %898 = icmp eq ptr %897, null
  br i1 %898, label %920, label %899

899:                                              ; preds = %896
  %900 = load i32, ptr %897, align 8, !tbaa !34
  %901 = icmp sgt i32 %900, 0
  br i1 %901, label %902, label %920

902:                                              ; preds = %899
  %903 = add nsw i32 %900, -1
  store i32 %903, ptr %897, align 8, !tbaa !34
  %904 = icmp eq i32 %900, 1
  br i1 %904, label %905, label %920

905:                                              ; preds = %902
  %906 = getelementptr inbounds %"class.cctki_piraha::smart_ptr_guts.23", ptr %897, i64 0, i32 2
  %907 = load ptr, ptr %906, align 8, !tbaa !36
  %908 = icmp eq ptr %907, null
  br i1 %908, label %919, label %909

909:                                              ; preds = %905
  %910 = getelementptr inbounds %"class.cctki_piraha::smart_ptr_guts.23", ptr %897, i64 0, i32 3
  %911 = load i8, ptr %910, align 8, !tbaa !37, !range !40, !noundef !41
  %912 = icmp eq i8 %911, 0
  br i1 %912, label %915, label %913

913:                                              ; preds = %909
  %914 = getelementptr inbounds i8, ptr %907, i64 -8
  call void @_ZdaPv(ptr noundef nonnull %914) #18
  br label %919

915:                                              ; preds = %909
  %916 = load ptr, ptr %907, align 8, !tbaa !6
  %917 = getelementptr inbounds ptr, ptr %916, i64 2
  %918 = load ptr, ptr %917, align 8
  call void %918(ptr noundef nonnull align 8 dereferenceable(8) %907) #19
  br label %919

919:                                              ; preds = %915, %913, %905
  call void @_ZdlPv(ptr noundef nonnull %897) #18
  store ptr null, ptr %39, align 8, !tbaa !38
  br label %920

920:                                              ; preds = %896, %899, %902, %919
  invoke void @_ZN12cctki_piraha9smart_ptrINS_7GrammarEE5cleanEv(ptr noundef nonnull align 8 dereferenceable(8) %45)
          to label %924 unwind label %921

921:                                              ; preds = %920
  %922 = landingpad { ptr, i32 }
          catch ptr null
  %923 = extractvalue { ptr, i32 } %922, 0
  call void @__clang_call_terminate(ptr %923) #20
  unreachable

924:                                              ; preds = %920
  %925 = load ptr, ptr %44, align 8, !tbaa !42
  %926 = icmp eq ptr %925, %845
  br i1 %926, label %927, label %930

927:                                              ; preds = %924
  %928 = load i64, ptr %846, align 8, !tbaa !20
  %929 = icmp ult i64 %928, 16
  call void @llvm.assume(i1 %929)
  br label %931

930:                                              ; preds = %924
  call void @_ZdlPv(ptr noundef %925) #18
  br label %931

931:                                              ; preds = %927, %930
  invoke void @_ZN12cctki_piraha9smart_ptrINS_7GrammarEE5cleanEv(ptr noundef nonnull align 8 dereferenceable(8) %43)
          to label %935 unwind label %932

932:                                              ; preds = %931
  %933 = landingpad { ptr, i32 }
          catch ptr null
  %934 = extractvalue { ptr, i32 } %933, 0
  call void @__clang_call_terminate(ptr %934) #20
  unreachable

935:                                              ; preds = %931
  %936 = load ptr, ptr %42, align 8, !tbaa !42
  %937 = icmp eq ptr %936, %823
  br i1 %937, label %938, label %941

938:                                              ; preds = %935
  %939 = load i64, ptr %824, align 8, !tbaa !20
  %940 = icmp ult i64 %939, 16
  call void @llvm.assume(i1 %940)
  br label %942

941:                                              ; preds = %935
  call void @_ZdlPv(ptr noundef %936) #18
  br label %942

942:                                              ; preds = %938, %941
  invoke void @_ZN12cctki_piraha9smart_ptrINS_7GrammarEE5cleanEv(ptr noundef nonnull align 8 dereferenceable(8) %41)
          to label %946 unwind label %943

943:                                              ; preds = %942
  %944 = landingpad { ptr, i32 }
          catch ptr null
  %945 = extractvalue { ptr, i32 } %944, 0
  call void @__clang_call_terminate(ptr %945) #20
  unreachable

946:                                              ; preds = %942
  %947 = load ptr, ptr %40, align 8, !tbaa !42
  %948 = icmp eq ptr %947, %806
  br i1 %948, label %949, label %952

949:                                              ; preds = %946
  %950 = load i64, ptr %807, align 8, !tbaa !20
  %951 = icmp ult i64 %950, 16
  call void @llvm.assume(i1 %951)
  br label %953

952:                                              ; preds = %946
  call void @_ZdlPv(ptr noundef %947) #18
  br label %953

953:                                              ; preds = %949, %952
  %954 = load ptr, ptr %38, align 8, !tbaa !42
  %955 = icmp eq ptr %954, %799
  br i1 %955, label %956, label %959

956:                                              ; preds = %953
  %957 = load i64, ptr %800, align 8, !tbaa !20
  %958 = icmp ult i64 %957, 16
  call void @llvm.assume(i1 %958)
  br label %960

959:                                              ; preds = %953
  call void @_ZdlPv(ptr noundef %954) #18
  br label %960

960:                                              ; preds = %956, %959
  br i1 %792, label %964, label %961

961:                                              ; preds = %960
  %962 = getelementptr inbounds %"class.cctki_piraha::smart_ptr_guts", ptr %791, i64 0, i32 2
  %963 = load ptr, ptr %962, align 8, !tbaa !27
  br label %964

964:                                              ; preds = %960, %961
  %965 = phi ptr [ %963, %961 ], [ null, %960 ]
  %966 = getelementptr inbounds %"class.cctki_piraha::Grammar", ptr %965, i64 0, i32 1
  %967 = getelementptr inbounds %"class.std::__cxx11::basic_string", ptr %46, i64 0, i32 2
  store ptr %967, ptr %46, align 8, !tbaa !18
  call void @llvm.memcpy.p0.p0.i64(ptr noundef nonnull align 8 dereferenceable(9) %967, ptr noundef nonnull align 1 dereferenceable(9) @.str.18, i64 9, i1 false)
  %968 = getelementptr inbounds %"class.std::__cxx11::basic_string", ptr %46, i64 0, i32 1
  store i64 9, ptr %968, align 8, !tbaa !20
  %969 = getelementptr inbounds %"class.std::__cxx11::basic_string", ptr %46, i64 0, i32 2, i32 1, i64 1
  store i8 0, ptr %969, align 1, !tbaa !22
  %970 = invoke noalias noundef nonnull dereferenceable(32) ptr @_Znwm(i64 noundef 32) #17
          to label %971 unwind label %3807

971:                                              ; preds = %964
  %972 = invoke noalias noundef nonnull dereferenceable(16) ptr @_Znwm(i64 noundef 16) #17
          to label %973 unwind label %3809

973:                                              ; preds = %971
  store ptr getelementptr inbounds ({ [7 x ptr] }, ptr @_ZTVN12cctki_piraha7LiteralE, i64 0, inrange i32 0, i64 2), ptr %972, align 8, !tbaa !6
  %974 = getelementptr inbounds %"class.cctki_piraha::Literal", ptr %972, i64 0, i32 1
  store i8 63, ptr %974, align 8, !tbaa !31
  %975 = invoke noalias noundef nonnull dereferenceable(16) ptr @_Znwm(i64 noundef 16) #17
          to label %976 unwind label %3809

976:                                              ; preds = %973
  store ptr getelementptr inbounds ({ [7 x ptr] }, ptr @_ZTVN12cctki_piraha7LiteralE, i64 0, inrange i32 0, i64 2), ptr %975, align 8, !tbaa !6
  %977 = getelementptr inbounds %"class.cctki_piraha::Literal", ptr %975, i64 0, i32 1
  store i8 61, ptr %977, align 8, !tbaa !31
  invoke void (ptr, ptr, ...) @_ZN12cctki_piraha3SeqC1EPNS_7PatternEz(ptr noundef nonnull align 8 dereferenceable(32) %970, ptr noundef nonnull %972, ptr noundef nonnull %975, i64 noundef 0)
          to label %978 unwind label %3809

978:                                              ; preds = %976
  %979 = invoke noalias noundef nonnull dereferenceable(24) ptr @_Znwm(i64 noundef 24) #17
          to label %980 unwind label %3807

980:                                              ; preds = %978
  store i32 1, ptr %979, align 8, !tbaa !34
  %981 = getelementptr inbounds %"class.cctki_piraha::smart_ptr_guts.23", ptr %979, i64 0, i32 2
  store ptr %970, ptr %981, align 8, !tbaa !36
  %982 = getelementptr inbounds %"class.cctki_piraha::smart_ptr_guts.23", ptr %979, i64 0, i32 3
  store i8 0, ptr %982, align 8, !tbaa !37
  store ptr %979, ptr %47, align 8, !tbaa !38
  %983 = invoke noundef nonnull align 8 dereferenceable(8) ptr @_ZNSt3mapINSt7__cxx1112basic_stringIcSt11char_traitsIcESaIcEEEN12cctki_piraha9smart_ptrINS6_7PatternEEESt4lessIS5_ESaISt4pairIKS5_S9_EEEixERSD_(ptr noundef nonnull align 8 dereferenceable(48) %966, ptr noundef nonnull align 8 dereferenceable(32) %46)
          to label %984 unwind label %3811

984:                                              ; preds = %980
  %985 = load ptr, ptr %983, align 8, !tbaa !38
  %986 = icmp eq ptr %985, null
  br i1 %986, label %1007, label %987

987:                                              ; preds = %984
  %988 = load i32, ptr %985, align 8, !tbaa !34
  %989 = icmp sgt i32 %988, 0
  br i1 %989, label %990, label %1007

990:                                              ; preds = %987
  %991 = add nsw i32 %988, -1
  store i32 %991, ptr %985, align 8, !tbaa !34
  %992 = icmp eq i32 %988, 1
  br i1 %992, label %993, label %1007

993:                                              ; preds = %990
  %994 = getelementptr inbounds %"class.cctki_piraha::smart_ptr_guts.23", ptr %985, i64 0, i32 2
  %995 = load ptr, ptr %994, align 8, !tbaa !36
  %996 = icmp eq ptr %995, null
  br i1 %996, label %1008, label %997

997:                                              ; preds = %993
  %998 = getelementptr inbounds %"class.cctki_piraha::smart_ptr_guts.23", ptr %985, i64 0, i32 3
  %999 = load i8, ptr %998, align 8, !tbaa !37, !range !40, !noundef !41
  %1000 = icmp eq i8 %999, 0
  br i1 %1000, label %1003, label %1001

1001:                                             ; preds = %997
  %1002 = getelementptr inbounds i8, ptr %995, i64 -8
  call void @_ZdaPv(ptr noundef nonnull %1002) #18
  br label %1008

1003:                                             ; preds = %997
  %1004 = load ptr, ptr %995, align 8, !tbaa !6
  %1005 = getelementptr inbounds ptr, ptr %1004, i64 2
  %1006 = load ptr, ptr %1005, align 8
  call void %1006(ptr noundef nonnull align 8 dereferenceable(8) %995) #19
  br label %1008

1007:                                             ; preds = %990, %987, %984
  store ptr %979, ptr %983, align 8, !tbaa !38
  br label %1011

1008:                                             ; preds = %993, %1001, %1003
  call void @_ZdlPv(ptr noundef nonnull %985) #18
  %1009 = load ptr, ptr %47, align 8, !tbaa !38
  store ptr %1009, ptr %983, align 8, !tbaa !38
  %1010 = icmp eq ptr %1009, null
  br i1 %1010, label %1015, label %1011

1011:                                             ; preds = %1007, %1008
  %1012 = phi ptr [ %979, %1007 ], [ %1009, %1008 ]
  %1013 = load i32, ptr %1012, align 8, !tbaa !34
  %1014 = add nsw i32 %1013, 1
  store i32 %1014, ptr %1012, align 8, !tbaa !34
  br label %1015

1015:                                             ; preds = %1011, %1008
  %1016 = load ptr, ptr %47, align 8, !tbaa !38
  %1017 = icmp eq ptr %1016, null
  br i1 %1017, label %1039, label %1018

1018:                                             ; preds = %1015
  %1019 = load i32, ptr %1016, align 8, !tbaa !34
  %1020 = icmp sgt i32 %1019, 0
  br i1 %1020, label %1021, label %1039

1021:                                             ; preds = %1018
  %1022 = add nsw i32 %1019, -1
  store i32 %1022, ptr %1016, align 8, !tbaa !34
  %1023 = icmp eq i32 %1019, 1
  br i1 %1023, label %1024, label %1039

1024:                                             ; preds = %1021
  %1025 = getelementptr inbounds %"class.cctki_piraha::smart_ptr_guts.23", ptr %1016, i64 0, i32 2
  %1026 = load ptr, ptr %1025, align 8, !tbaa !36
  %1027 = icmp eq ptr %1026, null
  br i1 %1027, label %1038, label %1028

1028:                                             ; preds = %1024
  %1029 = getelementptr inbounds %"class.cctki_piraha::smart_ptr_guts.23", ptr %1016, i64 0, i32 3
  %1030 = load i8, ptr %1029, align 8, !tbaa !37, !range !40, !noundef !41
  %1031 = icmp eq i8 %1030, 0
  br i1 %1031, label %1034, label %1032

1032:                                             ; preds = %1028
  %1033 = getelementptr inbounds i8, ptr %1026, i64 -8
  call void @_ZdaPv(ptr noundef nonnull %1033) #18
  br label %1038

1034:                                             ; preds = %1028
  %1035 = load ptr, ptr %1026, align 8, !tbaa !6
  %1036 = getelementptr inbounds ptr, ptr %1035, i64 2
  %1037 = load ptr, ptr %1036, align 8
  call void %1037(ptr noundef nonnull align 8 dereferenceable(8) %1026) #19
  br label %1038

1038:                                             ; preds = %1034, %1032, %1024
  call void @_ZdlPv(ptr noundef nonnull %1016) #18
  store ptr null, ptr %47, align 8, !tbaa !38
  br label %1039

1039:                                             ; preds = %1015, %1018, %1021, %1038
  %1040 = load ptr, ptr %46, align 8, !tbaa !42
  %1041 = icmp eq ptr %1040, %967
  br i1 %1041, label %1042, label %1045

1042:                                             ; preds = %1039
  %1043 = load i64, ptr %968, align 8, !tbaa !20
  %1044 = icmp ult i64 %1043, 16
  call void @llvm.assume(i1 %1044)
  br label %1046

1045:                                             ; preds = %1039
  call void @_ZdlPv(ptr noundef %1040) #18
  br label %1046

1046:                                             ; preds = %1042, %1045
  br i1 %792, label %1050, label %1047

1047:                                             ; preds = %1046
  %1048 = getelementptr inbounds %"class.cctki_piraha::smart_ptr_guts", ptr %791, i64 0, i32 2
  %1049 = load ptr, ptr %1048, align 8, !tbaa !27
  br label %1050

1050:                                             ; preds = %1046, %1047
  %1051 = phi ptr [ %1049, %1047 ], [ null, %1046 ]
  %1052 = getelementptr inbounds %"class.cctki_piraha::Grammar", ptr %1051, i64 0, i32 1
  %1053 = getelementptr inbounds %"class.std::__cxx11::basic_string", ptr %48, i64 0, i32 2
  store ptr %1053, ptr %48, align 8, !tbaa !18
  store i64 8751164109912108898, ptr %1053, align 8
  %1054 = getelementptr inbounds %"class.std::__cxx11::basic_string", ptr %48, i64 0, i32 1
  store i64 8, ptr %1054, align 8, !tbaa !20
  %1055 = getelementptr inbounds %"class.std::__cxx11::basic_string", ptr %48, i64 0, i32 2, i32 1
  store i8 0, ptr %1055, align 8, !tbaa !22
  %1056 = invoke noalias noundef nonnull dereferenceable(32) ptr @_Znwm(i64 noundef 32) #17
          to label %1057 unwind label %3821

1057:                                             ; preds = %1050
  %1058 = invoke noalias noundef nonnull dereferenceable(16) ptr @_Znwm(i64 noundef 16) #17
          to label %1059 unwind label %3823

1059:                                             ; preds = %1057
  store ptr getelementptr inbounds ({ [7 x ptr] }, ptr @_ZTVN12cctki_piraha7LiteralE, i64 0, inrange i32 0, i64 2), ptr %1058, align 8, !tbaa !6
  %1060 = getelementptr inbounds %"class.cctki_piraha::Literal", ptr %1058, i64 0, i32 1
  store i8 92, ptr %1060, align 8, !tbaa !31
  %1061 = invoke noalias noundef nonnull dereferenceable(16) ptr @_Znwm(i64 noundef 16) #17
          to label %1062 unwind label %3823

1062:                                             ; preds = %1059
  store ptr getelementptr inbounds ({ [7 x ptr] }, ptr @_ZTVN12cctki_piraha7LiteralE, i64 0, inrange i32 0, i64 2), ptr %1061, align 8, !tbaa !6
  %1063 = getelementptr inbounds %"class.cctki_piraha::Literal", ptr %1061, i64 0, i32 1
  store i8 98, ptr %1063, align 8, !tbaa !31
  invoke void (ptr, ptr, ...) @_ZN12cctki_piraha3SeqC1EPNS_7PatternEz(ptr noundef nonnull align 8 dereferenceable(32) %1056, ptr noundef nonnull %1058, ptr noundef nonnull %1061, i64 noundef 0)
          to label %1064 unwind label %3823

1064:                                             ; preds = %1062
  %1065 = invoke noalias noundef nonnull dereferenceable(24) ptr @_Znwm(i64 noundef 24) #17
          to label %1066 unwind label %3821

1066:                                             ; preds = %1064
  store i32 1, ptr %1065, align 8, !tbaa !34
  %1067 = getelementptr inbounds %"class.cctki_piraha::smart_ptr_guts.23", ptr %1065, i64 0, i32 2
  store ptr %1056, ptr %1067, align 8, !tbaa !36
  %1068 = getelementptr inbounds %"class.cctki_piraha::smart_ptr_guts.23", ptr %1065, i64 0, i32 3
  store i8 0, ptr %1068, align 8, !tbaa !37
  store ptr %1065, ptr %49, align 8, !tbaa !38
  %1069 = invoke noundef nonnull align 8 dereferenceable(8) ptr @_ZNSt3mapINSt7__cxx1112basic_stringIcSt11char_traitsIcESaIcEEEN12cctki_piraha9smart_ptrINS6_7PatternEEESt4lessIS5_ESaISt4pairIKS5_S9_EEEixERSD_(ptr noundef nonnull align 8 dereferenceable(48) %1052, ptr noundef nonnull align 8 dereferenceable(32) %48)
          to label %1070 unwind label %3825

1070:                                             ; preds = %1066
  %1071 = load ptr, ptr %1069, align 8, !tbaa !38
  %1072 = icmp eq ptr %1071, null
  br i1 %1072, label %1093, label %1073

1073:                                             ; preds = %1070
  %1074 = load i32, ptr %1071, align 8, !tbaa !34
  %1075 = icmp sgt i32 %1074, 0
  br i1 %1075, label %1076, label %1093

1076:                                             ; preds = %1073
  %1077 = add nsw i32 %1074, -1
  store i32 %1077, ptr %1071, align 8, !tbaa !34
  %1078 = icmp eq i32 %1074, 1
  br i1 %1078, label %1079, label %1093

1079:                                             ; preds = %1076
  %1080 = getelementptr inbounds %"class.cctki_piraha::smart_ptr_guts.23", ptr %1071, i64 0, i32 2
  %1081 = load ptr, ptr %1080, align 8, !tbaa !36
  %1082 = icmp eq ptr %1081, null
  br i1 %1082, label %1094, label %1083

1083:                                             ; preds = %1079
  %1084 = getelementptr inbounds %"class.cctki_piraha::smart_ptr_guts.23", ptr %1071, i64 0, i32 3
  %1085 = load i8, ptr %1084, align 8, !tbaa !37, !range !40, !noundef !41
  %1086 = icmp eq i8 %1085, 0
  br i1 %1086, label %1089, label %1087

1087:                                             ; preds = %1083
  %1088 = getelementptr inbounds i8, ptr %1081, i64 -8
  call void @_ZdaPv(ptr noundef nonnull %1088) #18
  br label %1094

1089:                                             ; preds = %1083
  %1090 = load ptr, ptr %1081, align 8, !tbaa !6
  %1091 = getelementptr inbounds ptr, ptr %1090, i64 2
  %1092 = load ptr, ptr %1091, align 8
  call void %1092(ptr noundef nonnull align 8 dereferenceable(8) %1081) #19
  br label %1094

1093:                                             ; preds = %1076, %1073, %1070
  store ptr %1065, ptr %1069, align 8, !tbaa !38
  br label %1097

1094:                                             ; preds = %1079, %1087, %1089
  call void @_ZdlPv(ptr noundef nonnull %1071) #18
  %1095 = load ptr, ptr %49, align 8, !tbaa !38
  store ptr %1095, ptr %1069, align 8, !tbaa !38
  %1096 = icmp eq ptr %1095, null
  br i1 %1096, label %1101, label %1097

1097:                                             ; preds = %1093, %1094
  %1098 = phi ptr [ %1065, %1093 ], [ %1095, %1094 ]
  %1099 = load i32, ptr %1098, align 8, !tbaa !34
  %1100 = add nsw i32 %1099, 1
  store i32 %1100, ptr %1098, align 8, !tbaa !34
  br label %1101

1101:                                             ; preds = %1097, %1094
  %1102 = load ptr, ptr %49, align 8, !tbaa !38
  %1103 = icmp eq ptr %1102, null
  br i1 %1103, label %1125, label %1104

1104:                                             ; preds = %1101
  %1105 = load i32, ptr %1102, align 8, !tbaa !34
  %1106 = icmp sgt i32 %1105, 0
  br i1 %1106, label %1107, label %1125

1107:                                             ; preds = %1104
  %1108 = add nsw i32 %1105, -1
  store i32 %1108, ptr %1102, align 8, !tbaa !34
  %1109 = icmp eq i32 %1105, 1
  br i1 %1109, label %1110, label %1125

1110:                                             ; preds = %1107
  %1111 = getelementptr inbounds %"class.cctki_piraha::smart_ptr_guts.23", ptr %1102, i64 0, i32 2
  %1112 = load ptr, ptr %1111, align 8, !tbaa !36
  %1113 = icmp eq ptr %1112, null
  br i1 %1113, label %1124, label %1114

1114:                                             ; preds = %1110
  %1115 = getelementptr inbounds %"class.cctki_piraha::smart_ptr_guts.23", ptr %1102, i64 0, i32 3
  %1116 = load i8, ptr %1115, align 8, !tbaa !37, !range !40, !noundef !41
  %1117 = icmp eq i8 %1116, 0
  br i1 %1117, label %1120, label %1118

1118:                                             ; preds = %1114
  %1119 = getelementptr inbounds i8, ptr %1112, i64 -8
  call void @_ZdaPv(ptr noundef nonnull %1119) #18
  br label %1124

1120:                                             ; preds = %1114
  %1121 = load ptr, ptr %1112, align 8, !tbaa !6
  %1122 = getelementptr inbounds ptr, ptr %1121, i64 2
  %1123 = load ptr, ptr %1122, align 8
  call void %1123(ptr noundef nonnull align 8 dereferenceable(8) %1112) #19
  br label %1124

1124:                                             ; preds = %1120, %1118, %1110
  call void @_ZdlPv(ptr noundef nonnull %1102) #18
  store ptr null, ptr %49, align 8, !tbaa !38
  br label %1125

1125:                                             ; preds = %1101, %1104, %1107, %1124
  %1126 = load ptr, ptr %48, align 8, !tbaa !42
  %1127 = icmp eq ptr %1126, %1053
  br i1 %1127, label %1128, label %1131

1128:                                             ; preds = %1125
  %1129 = load i64, ptr %1054, align 8, !tbaa !20
  %1130 = icmp ult i64 %1129, 16
  call void @llvm.assume(i1 %1130)
  br label %1132

1131:                                             ; preds = %1125
  call void @_ZdlPv(ptr noundef %1126) #18
  br label %1132

1132:                                             ; preds = %1128, %1131
  br i1 %792, label %1136, label %1133

1133:                                             ; preds = %1132
  %1134 = getelementptr inbounds %"class.cctki_piraha::smart_ptr_guts", ptr %791, i64 0, i32 2
  %1135 = load ptr, ptr %1134, align 8, !tbaa !27
  br label %1136

1136:                                             ; preds = %1132, %1133
  %1137 = phi ptr [ %1135, %1133 ], [ null, %1132 ]
  %1138 = getelementptr inbounds %"class.cctki_piraha::Grammar", ptr %1137, i64 0, i32 1
  %1139 = getelementptr inbounds %"class.std::__cxx11::basic_string", ptr %50, i64 0, i32 2
  store ptr %1139, ptr %50, align 8, !tbaa !18
  call void @llvm.memcpy.p0.p0.i64(ptr noundef nonnull align 8 dereferenceable(3) %1139, ptr noundef nonnull align 1 dereferenceable(3) @.str.7, i64 3, i1 false)
  %1140 = getelementptr inbounds %"class.std::__cxx11::basic_string", ptr %50, i64 0, i32 1
  store i64 3, ptr %1140, align 8, !tbaa !20
  %1141 = getelementptr inbounds i8, ptr %50, i64 19
  store i8 0, ptr %1141, align 1, !tbaa !22
  %1142 = invoke noalias noundef nonnull dereferenceable(16) ptr @_Znwm(i64 noundef 16) #17
          to label %1143 unwind label %3835

1143:                                             ; preds = %1136
  store ptr getelementptr inbounds ({ [7 x ptr] }, ptr @_ZTVN12cctki_piraha7LiteralE, i64 0, inrange i32 0, i64 2), ptr %1142, align 8, !tbaa !6
  %1144 = getelementptr inbounds %"class.cctki_piraha::Literal", ptr %1142, i64 0, i32 1
  store i8 46, ptr %1144, align 8, !tbaa !31
  %1145 = invoke noalias noundef nonnull dereferenceable(24) ptr @_Znwm(i64 noundef 24) #17
          to label %1146 unwind label %3835

1146:                                             ; preds = %1143
  store i32 1, ptr %1145, align 8, !tbaa !34
  %1147 = getelementptr inbounds %"class.cctki_piraha::smart_ptr_guts.23", ptr %1145, i64 0, i32 2
  store ptr %1142, ptr %1147, align 8, !tbaa !36
  %1148 = getelementptr inbounds %"class.cctki_piraha::smart_ptr_guts.23", ptr %1145, i64 0, i32 3
  store i8 0, ptr %1148, align 8, !tbaa !37
  store ptr %1145, ptr %51, align 8, !tbaa !38
  %1149 = invoke noundef nonnull align 8 dereferenceable(8) ptr @_ZNSt3mapINSt7__cxx1112basic_stringIcSt11char_traitsIcESaIcEEEN12cctki_piraha9smart_ptrINS6_7PatternEEESt4lessIS5_ESaISt4pairIKS5_S9_EEEixERSD_(ptr noundef nonnull align 8 dereferenceable(48) %1138, ptr noundef nonnull align 8 dereferenceable(32) %50)
          to label %1150 unwind label %3837

1150:                                             ; preds = %1146
  %1151 = load ptr, ptr %1149, align 8, !tbaa !38
  %1152 = icmp eq ptr %1151, null
  br i1 %1152, label %1173, label %1153

1153:                                             ; preds = %1150
  %1154 = load i32, ptr %1151, align 8, !tbaa !34
  %1155 = icmp sgt i32 %1154, 0
  br i1 %1155, label %1156, label %1173

1156:                                             ; preds = %1153
  %1157 = add nsw i32 %1154, -1
  store i32 %1157, ptr %1151, align 8, !tbaa !34
  %1158 = icmp eq i32 %1154, 1
  br i1 %1158, label %1159, label %1173

1159:                                             ; preds = %1156
  %1160 = getelementptr inbounds %"class.cctki_piraha::smart_ptr_guts.23", ptr %1151, i64 0, i32 2
  %1161 = load ptr, ptr %1160, align 8, !tbaa !36
  %1162 = icmp eq ptr %1161, null
  br i1 %1162, label %1174, label %1163

1163:                                             ; preds = %1159
  %1164 = getelementptr inbounds %"class.cctki_piraha::smart_ptr_guts.23", ptr %1151, i64 0, i32 3
  %1165 = load i8, ptr %1164, align 8, !tbaa !37, !range !40, !noundef !41
  %1166 = icmp eq i8 %1165, 0
  br i1 %1166, label %1169, label %1167

1167:                                             ; preds = %1163
  %1168 = getelementptr inbounds i8, ptr %1161, i64 -8
  call void @_ZdaPv(ptr noundef nonnull %1168) #18
  br label %1174

1169:                                             ; preds = %1163
  %1170 = load ptr, ptr %1161, align 8, !tbaa !6
  %1171 = getelementptr inbounds ptr, ptr %1170, i64 2
  %1172 = load ptr, ptr %1171, align 8
  call void %1172(ptr noundef nonnull align 8 dereferenceable(8) %1161) #19
  br label %1174

1173:                                             ; preds = %1156, %1153, %1150
  store ptr %1145, ptr %1149, align 8, !tbaa !38
  br label %1177

1174:                                             ; preds = %1159, %1167, %1169
  call void @_ZdlPv(ptr noundef nonnull %1151) #18
  %1175 = load ptr, ptr %51, align 8, !tbaa !38
  store ptr %1175, ptr %1149, align 8, !tbaa !38
  %1176 = icmp eq ptr %1175, null
  br i1 %1176, label %1181, label %1177

1177:                                             ; preds = %1173, %1174
  %1178 = phi ptr [ %1145, %1173 ], [ %1175, %1174 ]
  %1179 = load i32, ptr %1178, align 8, !tbaa !34
  %1180 = add nsw i32 %1179, 1
  store i32 %1180, ptr %1178, align 8, !tbaa !34
  br label %1181

1181:                                             ; preds = %1177, %1174
  %1182 = load ptr, ptr %51, align 8, !tbaa !38
  %1183 = icmp eq ptr %1182, null
  br i1 %1183, label %1205, label %1184

1184:                                             ; preds = %1181
  %1185 = load i32, ptr %1182, align 8, !tbaa !34
  %1186 = icmp sgt i32 %1185, 0
  br i1 %1186, label %1187, label %1205

1187:                                             ; preds = %1184
  %1188 = add nsw i32 %1185, -1
  store i32 %1188, ptr %1182, align 8, !tbaa !34
  %1189 = icmp eq i32 %1185, 1
  br i1 %1189, label %1190, label %1205

1190:                                             ; preds = %1187
  %1191 = getelementptr inbounds %"class.cctki_piraha::smart_ptr_guts.23", ptr %1182, i64 0, i32 2
  %1192 = load ptr, ptr %1191, align 8, !tbaa !36
  %1193 = icmp eq ptr %1192, null
  br i1 %1193, label %1204, label %1194

1194:                                             ; preds = %1190
  %1195 = getelementptr inbounds %"class.cctki_piraha::smart_ptr_guts.23", ptr %1182, i64 0, i32 3
  %1196 = load i8, ptr %1195, align 8, !tbaa !37, !range !40, !noundef !41
  %1197 = icmp eq i8 %1196, 0
  br i1 %1197, label %1200, label %1198

1198:                                             ; preds = %1194
  %1199 = getelementptr inbounds i8, ptr %1192, i64 -8
  call void @_ZdaPv(ptr noundef nonnull %1199) #18
  br label %1204

1200:                                             ; preds = %1194
  %1201 = load ptr, ptr %1192, align 8, !tbaa !6
  %1202 = getelementptr inbounds ptr, ptr %1201, i64 2
  %1203 = load ptr, ptr %1202, align 8
  call void %1203(ptr noundef nonnull align 8 dereferenceable(8) %1192) #19
  br label %1204

1204:                                             ; preds = %1200, %1198, %1190
  call void @_ZdlPv(ptr noundef nonnull %1182) #18
  store ptr null, ptr %51, align 8, !tbaa !38
  br label %1205

1205:                                             ; preds = %1181, %1184, %1187, %1204
  %1206 = load ptr, ptr %50, align 8, !tbaa !42
  %1207 = icmp eq ptr %1206, %1139
  br i1 %1207, label %1208, label %1211

1208:                                             ; preds = %1205
  %1209 = load i64, ptr %1140, align 8, !tbaa !20
  %1210 = icmp ult i64 %1209, 16
  call void @llvm.assume(i1 %1210)
  br label %1212

1211:                                             ; preds = %1205
  call void @_ZdlPv(ptr noundef %1206) #18
  br label %1212

1212:                                             ; preds = %1208, %1211
  br i1 %792, label %1216, label %1213

1213:                                             ; preds = %1212
  %1214 = getelementptr inbounds %"class.cctki_piraha::smart_ptr_guts", ptr %791, i64 0, i32 2
  %1215 = load ptr, ptr %1214, align 8, !tbaa !27
  br label %1216

1216:                                             ; preds = %1212, %1213
  %1217 = phi ptr [ %1215, %1213 ], [ null, %1212 ]
  %1218 = getelementptr inbounds %"class.cctki_piraha::Grammar", ptr %1217, i64 0, i32 1
  %1219 = getelementptr inbounds %"class.std::__cxx11::basic_string", ptr %52, i64 0, i32 2
  store ptr %1219, ptr %52, align 8, !tbaa !18
  call void @llvm.memcpy.p0.p0.i64(ptr noundef nonnull align 8 dereferenceable(6) %1219, ptr noundef nonnull align 1 dereferenceable(6) @.str.19, i64 6, i1 false)
  %1220 = getelementptr inbounds %"class.std::__cxx11::basic_string", ptr %52, i64 0, i32 1
  store i64 6, ptr %1220, align 8, !tbaa !20
  %1221 = getelementptr inbounds i8, ptr %52, i64 22
  store i8 0, ptr %1221, align 2, !tbaa !22
  %1222 = invoke noalias noundef nonnull dereferenceable(32) ptr @_Znwm(i64 noundef 32) #17
          to label %1223 unwind label %3846

1223:                                             ; preds = %1216
  %1224 = invoke noalias noundef nonnull dereferenceable(16) ptr @_Znwm(i64 noundef 16) #17
          to label %1225 unwind label %3848

1225:                                             ; preds = %1223
  store ptr getelementptr inbounds ({ [7 x ptr] }, ptr @_ZTVN12cctki_piraha7LiteralE, i64 0, inrange i32 0, i64 2), ptr %1224, align 8, !tbaa !6
  %1226 = getelementptr inbounds %"class.cctki_piraha::Literal", ptr %1224, i64 0, i32 1
  store i8 63, ptr %1226, align 8, !tbaa !31
  %1227 = invoke noalias noundef nonnull dereferenceable(16) ptr @_Znwm(i64 noundef 16) #17
          to label %1228 unwind label %3848

1228:                                             ; preds = %1225
  store ptr getelementptr inbounds ({ [7 x ptr] }, ptr @_ZTVN12cctki_piraha7LiteralE, i64 0, inrange i32 0, i64 2), ptr %1227, align 8, !tbaa !6
  %1229 = getelementptr inbounds %"class.cctki_piraha::Literal", ptr %1227, i64 0, i32 1
  store i8 105, ptr %1229, align 8, !tbaa !31
  %1230 = invoke noalias noundef nonnull dereferenceable(16) ptr @_Znwm(i64 noundef 16) #17
          to label %1231 unwind label %3848

1231:                                             ; preds = %1228
  store ptr getelementptr inbounds ({ [7 x ptr] }, ptr @_ZTVN12cctki_piraha7LiteralE, i64 0, inrange i32 0, i64 2), ptr %1230, align 8, !tbaa !6
  %1232 = getelementptr inbounds %"class.cctki_piraha::Literal", ptr %1230, i64 0, i32 1
  store i8 58, ptr %1232, align 8, !tbaa !31
  invoke void (ptr, ptr, ...) @_ZN12cctki_piraha3SeqC1EPNS_7PatternEz(ptr noundef nonnull align 8 dereferenceable(32) %1222, ptr noundef nonnull %1224, ptr noundef nonnull %1227, ptr noundef nonnull %1230, i64 noundef 0)
          to label %1233 unwind label %3848

1233:                                             ; preds = %1231
  %1234 = invoke noalias noundef nonnull dereferenceable(24) ptr @_Znwm(i64 noundef 24) #17
          to label %1235 unwind label %3846

1235:                                             ; preds = %1233
  store i32 1, ptr %1234, align 8, !tbaa !34
  %1236 = getelementptr inbounds %"class.cctki_piraha::smart_ptr_guts.23", ptr %1234, i64 0, i32 2
  store ptr %1222, ptr %1236, align 8, !tbaa !36
  %1237 = getelementptr inbounds %"class.cctki_piraha::smart_ptr_guts.23", ptr %1234, i64 0, i32 3
  store i8 0, ptr %1237, align 8, !tbaa !37
  store ptr %1234, ptr %53, align 8, !tbaa !38
  %1238 = invoke noundef nonnull align 8 dereferenceable(8) ptr @_ZNSt3mapINSt7__cxx1112basic_stringIcSt11char_traitsIcESaIcEEEN12cctki_piraha9smart_ptrINS6_7PatternEEESt4lessIS5_ESaISt4pairIKS5_S9_EEEixERSD_(ptr noundef nonnull align 8 dereferenceable(48) %1218, ptr noundef nonnull align 8 dereferenceable(32) %52)
          to label %1239 unwind label %3850

1239:                                             ; preds = %1235
  %1240 = load ptr, ptr %1238, align 8, !tbaa !38
  %1241 = icmp eq ptr %1240, null
  br i1 %1241, label %1262, label %1242

1242:                                             ; preds = %1239
  %1243 = load i32, ptr %1240, align 8, !tbaa !34
  %1244 = icmp sgt i32 %1243, 0
  br i1 %1244, label %1245, label %1262

1245:                                             ; preds = %1242
  %1246 = add nsw i32 %1243, -1
  store i32 %1246, ptr %1240, align 8, !tbaa !34
  %1247 = icmp eq i32 %1243, 1
  br i1 %1247, label %1248, label %1262

1248:                                             ; preds = %1245
  %1249 = getelementptr inbounds %"class.cctki_piraha::smart_ptr_guts.23", ptr %1240, i64 0, i32 2
  %1250 = load ptr, ptr %1249, align 8, !tbaa !36
  %1251 = icmp eq ptr %1250, null
  br i1 %1251, label %1263, label %1252

1252:                                             ; preds = %1248
  %1253 = getelementptr inbounds %"class.cctki_piraha::smart_ptr_guts.23", ptr %1240, i64 0, i32 3
  %1254 = load i8, ptr %1253, align 8, !tbaa !37, !range !40, !noundef !41
  %1255 = icmp eq i8 %1254, 0
  br i1 %1255, label %1258, label %1256

1256:                                             ; preds = %1252
  %1257 = getelementptr inbounds i8, ptr %1250, i64 -8
  call void @_ZdaPv(ptr noundef nonnull %1257) #18
  br label %1263

1258:                                             ; preds = %1252
  %1259 = load ptr, ptr %1250, align 8, !tbaa !6
  %1260 = getelementptr inbounds ptr, ptr %1259, i64 2
  %1261 = load ptr, ptr %1260, align 8
  call void %1261(ptr noundef nonnull align 8 dereferenceable(8) %1250) #19
  br label %1263

1262:                                             ; preds = %1245, %1242, %1239
  store ptr %1234, ptr %1238, align 8, !tbaa !38
  br label %1266

1263:                                             ; preds = %1248, %1256, %1258
  call void @_ZdlPv(ptr noundef nonnull %1240) #18
  %1264 = load ptr, ptr %53, align 8, !tbaa !38
  store ptr %1264, ptr %1238, align 8, !tbaa !38
  %1265 = icmp eq ptr %1264, null
  br i1 %1265, label %1270, label %1266

1266:                                             ; preds = %1262, %1263
  %1267 = phi ptr [ %1234, %1262 ], [ %1264, %1263 ]
  %1268 = load i32, ptr %1267, align 8, !tbaa !34
  %1269 = add nsw i32 %1268, 1
  store i32 %1269, ptr %1267, align 8, !tbaa !34
  br label %1270

1270:                                             ; preds = %1266, %1263
  %1271 = load ptr, ptr %53, align 8, !tbaa !38
  %1272 = icmp eq ptr %1271, null
  br i1 %1272, label %1294, label %1273

1273:                                             ; preds = %1270
  %1274 = load i32, ptr %1271, align 8, !tbaa !34
  %1275 = icmp sgt i32 %1274, 0
  br i1 %1275, label %1276, label %1294

1276:                                             ; preds = %1273
  %1277 = add nsw i32 %1274, -1
  store i32 %1277, ptr %1271, align 8, !tbaa !34
  %1278 = icmp eq i32 %1274, 1
  br i1 %1278, label %1279, label %1294

1279:                                             ; preds = %1276
  %1280 = getelementptr inbounds %"class.cctki_piraha::smart_ptr_guts.23", ptr %1271, i64 0, i32 2
  %1281 = load ptr, ptr %1280, align 8, !tbaa !36
  %1282 = icmp eq ptr %1281, null
  br i1 %1282, label %1293, label %1283

1283:                                             ; preds = %1279
  %1284 = getelementptr inbounds %"class.cctki_piraha::smart_ptr_guts.23", ptr %1271, i64 0, i32 3
  %1285 = load i8, ptr %1284, align 8, !tbaa !37, !range !40, !noundef !41
  %1286 = icmp eq i8 %1285, 0
  br i1 %1286, label %1289, label %1287

1287:                                             ; preds = %1283
  %1288 = getelementptr inbounds i8, ptr %1281, i64 -8
  call void @_ZdaPv(ptr noundef nonnull %1288) #18
  br label %1293

1289:                                             ; preds = %1283
  %1290 = load ptr, ptr %1281, align 8, !tbaa !6
  %1291 = getelementptr inbounds ptr, ptr %1290, i64 2
  %1292 = load ptr, ptr %1291, align 8
  call void %1292(ptr noundef nonnull align 8 dereferenceable(8) %1281) #19
  br label %1293

1293:                                             ; preds = %1289, %1287, %1279
  call void @_ZdlPv(ptr noundef nonnull %1271) #18
  store ptr null, ptr %53, align 8, !tbaa !38
  br label %1294

1294:                                             ; preds = %1270, %1273, %1276, %1293
  %1295 = load ptr, ptr %52, align 8, !tbaa !42
  %1296 = icmp eq ptr %1295, %1219
  br i1 %1296, label %1297, label %1300

1297:                                             ; preds = %1294
  %1298 = load i64, ptr %1220, align 8, !tbaa !20
  %1299 = icmp ult i64 %1298, 16
  call void @llvm.assume(i1 %1299)
  br label %1301

1300:                                             ; preds = %1294
  call void @_ZdlPv(ptr noundef %1295) #18
  br label %1301

1301:                                             ; preds = %1297, %1300
  br i1 %792, label %1305, label %1302

1302:                                             ; preds = %1301
  %1303 = getelementptr inbounds %"class.cctki_piraha::smart_ptr_guts", ptr %791, i64 0, i32 2
  %1304 = load ptr, ptr %1303, align 8, !tbaa !27
  br label %1305

1305:                                             ; preds = %1301, %1302
  %1306 = phi ptr [ %1304, %1302 ], [ null, %1301 ]
  %1307 = getelementptr inbounds %"class.cctki_piraha::Grammar", ptr %1306, i64 0, i32 1
  %1308 = getelementptr inbounds %"class.std::__cxx11::basic_string", ptr %54, i64 0, i32 2
  store ptr %1308, ptr %54, align 8, !tbaa !18
  call void @llvm.memcpy.p0.p0.i64(ptr noundef nonnull align 8 dereferenceable(5) %1308, ptr noundef nonnull align 1 dereferenceable(5) @.str.20, i64 5, i1 false)
  %1309 = getelementptr inbounds %"class.std::__cxx11::basic_string", ptr %54, i64 0, i32 1
  store i64 5, ptr %1309, align 8, !tbaa !20
  %1310 = getelementptr inbounds i8, ptr %54, i64 21
  store i8 0, ptr %1310, align 1, !tbaa !22
  %1311 = invoke noalias noundef nonnull dereferenceable(16) ptr @_Znwm(i64 noundef 16) #17
          to label %1312 unwind label %3860

1312:                                             ; preds = %1305
  store ptr getelementptr inbounds ({ [7 x ptr] }, ptr @_ZTVN12cctki_piraha7LiteralE, i64 0, inrange i32 0, i64 2), ptr %1311, align 8, !tbaa !6
  %1313 = getelementptr inbounds %"class.cctki_piraha::Literal", ptr %1311, i64 0, i32 1
  store i8 45, ptr %1313, align 8, !tbaa !31
  %1314 = invoke noalias noundef nonnull dereferenceable(24) ptr @_Znwm(i64 noundef 24) #17
          to label %1315 unwind label %3860

1315:                                             ; preds = %1312
  store i32 1, ptr %1314, align 8, !tbaa !34
  %1316 = getelementptr inbounds %"class.cctki_piraha::smart_ptr_guts.23", ptr %1314, i64 0, i32 2
  store ptr %1311, ptr %1316, align 8, !tbaa !36
  %1317 = getelementptr inbounds %"class.cctki_piraha::smart_ptr_guts.23", ptr %1314, i64 0, i32 3
  store i8 0, ptr %1317, align 8, !tbaa !37
  store ptr %1314, ptr %55, align 8, !tbaa !38
  %1318 = invoke noundef nonnull align 8 dereferenceable(8) ptr @_ZNSt3mapINSt7__cxx1112basic_stringIcSt11char_traitsIcESaIcEEEN12cctki_piraha9smart_ptrINS6_7PatternEEESt4lessIS5_ESaISt4pairIKS5_S9_EEEixERSD_(ptr noundef nonnull align 8 dereferenceable(48) %1307, ptr noundef nonnull align 8 dereferenceable(32) %54)
          to label %1319 unwind label %3862

1319:                                             ; preds = %1315
  %1320 = load ptr, ptr %1318, align 8, !tbaa !38
  %1321 = icmp eq ptr %1320, null
  br i1 %1321, label %1342, label %1322

1322:                                             ; preds = %1319
  %1323 = load i32, ptr %1320, align 8, !tbaa !34
  %1324 = icmp sgt i32 %1323, 0
  br i1 %1324, label %1325, label %1342

1325:                                             ; preds = %1322
  %1326 = add nsw i32 %1323, -1
  store i32 %1326, ptr %1320, align 8, !tbaa !34
  %1327 = icmp eq i32 %1323, 1
  br i1 %1327, label %1328, label %1342

1328:                                             ; preds = %1325
  %1329 = getelementptr inbounds %"class.cctki_piraha::smart_ptr_guts.23", ptr %1320, i64 0, i32 2
  %1330 = load ptr, ptr %1329, align 8, !tbaa !36
  %1331 = icmp eq ptr %1330, null
  br i1 %1331, label %1343, label %1332

1332:                                             ; preds = %1328
  %1333 = getelementptr inbounds %"class.cctki_piraha::smart_ptr_guts.23", ptr %1320, i64 0, i32 3
  %1334 = load i8, ptr %1333, align 8, !tbaa !37, !range !40, !noundef !41
  %1335 = icmp eq i8 %1334, 0
  br i1 %1335, label %1338, label %1336

1336:                                             ; preds = %1332
  %1337 = getelementptr inbounds i8, ptr %1330, i64 -8
  call void @_ZdaPv(ptr noundef nonnull %1337) #18
  br label %1343

1338:                                             ; preds = %1332
  %1339 = load ptr, ptr %1330, align 8, !tbaa !6
  %1340 = getelementptr inbounds ptr, ptr %1339, i64 2
  %1341 = load ptr, ptr %1340, align 8
  call void %1341(ptr noundef nonnull align 8 dereferenceable(8) %1330) #19
  br label %1343

1342:                                             ; preds = %1325, %1322, %1319
  store ptr %1314, ptr %1318, align 8, !tbaa !38
  br label %1346

1343:                                             ; preds = %1328, %1336, %1338
  call void @_ZdlPv(ptr noundef nonnull %1320) #18
  %1344 = load ptr, ptr %55, align 8, !tbaa !38
  store ptr %1344, ptr %1318, align 8, !tbaa !38
  %1345 = icmp eq ptr %1344, null
  br i1 %1345, label %1350, label %1346

1346:                                             ; preds = %1342, %1343
  %1347 = phi ptr [ %1314, %1342 ], [ %1344, %1343 ]
  %1348 = load i32, ptr %1347, align 8, !tbaa !34
  %1349 = add nsw i32 %1348, 1
  store i32 %1349, ptr %1347, align 8, !tbaa !34
  br label %1350

1350:                                             ; preds = %1346, %1343
  %1351 = load ptr, ptr %55, align 8, !tbaa !38
  %1352 = icmp eq ptr %1351, null
  br i1 %1352, label %1374, label %1353

1353:                                             ; preds = %1350
  %1354 = load i32, ptr %1351, align 8, !tbaa !34
  %1355 = icmp sgt i32 %1354, 0
  br i1 %1355, label %1356, label %1374

1356:                                             ; preds = %1353
  %1357 = add nsw i32 %1354, -1
  store i32 %1357, ptr %1351, align 8, !tbaa !34
  %1358 = icmp eq i32 %1354, 1
  br i1 %1358, label %1359, label %1374

1359:                                             ; preds = %1356
  %1360 = getelementptr inbounds %"class.cctki_piraha::smart_ptr_guts.23", ptr %1351, i64 0, i32 2
  %1361 = load ptr, ptr %1360, align 8, !tbaa !36
  %1362 = icmp eq ptr %1361, null
  br i1 %1362, label %1373, label %1363

1363:                                             ; preds = %1359
  %1364 = getelementptr inbounds %"class.cctki_piraha::smart_ptr_guts.23", ptr %1351, i64 0, i32 3
  %1365 = load i8, ptr %1364, align 8, !tbaa !37, !range !40, !noundef !41
  %1366 = icmp eq i8 %1365, 0
  br i1 %1366, label %1369, label %1367

1367:                                             ; preds = %1363
  %1368 = getelementptr inbounds i8, ptr %1361, i64 -8
  call void @_ZdaPv(ptr noundef nonnull %1368) #18
  br label %1373

1369:                                             ; preds = %1363
  %1370 = load ptr, ptr %1361, align 8, !tbaa !6
  %1371 = getelementptr inbounds ptr, ptr %1370, i64 2
  %1372 = load ptr, ptr %1371, align 8
  call void %1372(ptr noundef nonnull align 8 dereferenceable(8) %1361) #19
  br label %1373

1373:                                             ; preds = %1369, %1367, %1359
  call void @_ZdlPv(ptr noundef nonnull %1351) #18
  store ptr null, ptr %55, align 8, !tbaa !38
  br label %1374

1374:                                             ; preds = %1350, %1353, %1356, %1373
  %1375 = load ptr, ptr %54, align 8, !tbaa !42
  %1376 = icmp eq ptr %1375, %1308
  br i1 %1376, label %1377, label %1380

1377:                                             ; preds = %1374
  %1378 = load i64, ptr %1309, align 8, !tbaa !20
  %1379 = icmp ult i64 %1378, 16
  call void @llvm.assume(i1 %1379)
  br label %1381

1380:                                             ; preds = %1374
  call void @_ZdlPv(ptr noundef %1375) #18
  br label %1381

1381:                                             ; preds = %1377, %1380
  %1382 = load ptr, ptr %0, align 8, !tbaa !29
  %1383 = icmp eq ptr %1382, null
  br i1 %1383, label %1387, label %1384

1384:                                             ; preds = %1381
  %1385 = getelementptr inbounds %"class.cctki_piraha::smart_ptr_guts", ptr %1382, i64 0, i32 2
  %1386 = load ptr, ptr %1385, align 8, !tbaa !27
  br label %1387

1387:                                             ; preds = %1381, %1384
  %1388 = phi ptr [ %1386, %1384 ], [ null, %1381 ]
  %1389 = getelementptr inbounds %"class.cctki_piraha::Grammar", ptr %1388, i64 0, i32 1
  %1390 = getelementptr inbounds %"class.std::__cxx11::basic_string", ptr %56, i64 0, i32 2
  store ptr %1390, ptr %56, align 8, !tbaa !18
  call void @llvm.memcpy.p0.p0.i64(ptr noundef nonnull align 8 dereferenceable(3) %1390, ptr noundef nonnull align 1 dereferenceable(3) @.str.21, i64 3, i1 false)
  %1391 = getelementptr inbounds %"class.std::__cxx11::basic_string", ptr %56, i64 0, i32 1
  store i64 3, ptr %1391, align 8, !tbaa !20
  %1392 = getelementptr inbounds i8, ptr %56, i64 19
  store i8 0, ptr %1392, align 1, !tbaa !22
  %1393 = invoke noalias noundef nonnull dereferenceable(24) ptr @_Znwm(i64 noundef 24) #17
          to label %1394 unwind label %3871

1394:                                             ; preds = %1387
  %1395 = invoke noalias noundef nonnull dereferenceable(40) ptr @_Znwm(i64 noundef 40) #17
          to label %1396 unwind label %3873

1396:                                             ; preds = %1394
  invoke void @_ZN12cctki_piraha7BracketC1Eb(ptr noundef nonnull align 8 dereferenceable(40) %1395, i1 noundef zeroext false)
          to label %1397 unwind label %3875

1397:                                             ; preds = %1396
  %1398 = invoke noundef ptr @_ZN12cctki_piraha7Bracket8addRangeEcc(ptr noundef nonnull align 8 dereferenceable(40) %1395, i8 noundef signext 48, i8 noundef signext 57)
          to label %1399 unwind label %3873

1399:                                             ; preds = %1397
  %1400 = invoke noundef ptr @_ZN12cctki_piraha7Bracket8addRangeEcc(ptr noundef nonnull align 8 dereferenceable(40) %1398, i8 noundef signext 65, i8 noundef signext 70)
          to label %1401 unwind label %3873

1401:                                             ; preds = %1399
  %1402 = invoke noundef ptr @_ZN12cctki_piraha7Bracket8addRangeEcc(ptr noundef nonnull align 8 dereferenceable(40) %1400, i8 noundef signext 97, i8 noundef signext 102)
          to label %1403 unwind label %3873

1403:                                             ; preds = %1401
  store ptr getelementptr inbounds ({ [7 x ptr] }, ptr @_ZTVN12cctki_piraha5MultiE, i64 0, inrange i32 0, i64 2), ptr %1393, align 8, !tbaa !6
  %1404 = getelementptr inbounds %"class.cctki_piraha::Multi", ptr %1393, i64 0, i32 1
  store i32 4, ptr %1404, align 8, !tbaa !43
  %1405 = getelementptr inbounds %"class.cctki_piraha::Multi", ptr %1393, i64 0, i32 2
  store i32 4, ptr %1405, align 4, !tbaa !45
  %1406 = icmp eq ptr %1402, null
  br i1 %1406, label %1412, label %1407

1407:                                             ; preds = %1403
  %1408 = invoke noalias noundef nonnull dereferenceable(24) ptr @_Znwm(i64 noundef 24) #17
          to label %1409 unwind label %3873

1409:                                             ; preds = %1407
  store i32 1, ptr %1408, align 8, !tbaa !34
  %1410 = getelementptr inbounds %"class.cctki_piraha::smart_ptr_guts.23", ptr %1408, i64 0, i32 2
  store ptr %1402, ptr %1410, align 8, !tbaa !36
  %1411 = getelementptr inbounds %"class.cctki_piraha::smart_ptr_guts.23", ptr %1408, i64 0, i32 3
  store i8 0, ptr %1411, align 8, !tbaa !37
  br label %1412

1412:                                             ; preds = %1409, %1403
  %1413 = phi ptr [ %1408, %1409 ], [ null, %1403 ]
  %1414 = getelementptr inbounds %"class.cctki_piraha::Multi", ptr %1393, i64 0, i32 3
  store ptr %1413, ptr %1414, align 8, !tbaa !38
  %1415 = invoke noalias noundef nonnull dereferenceable(24) ptr @_Znwm(i64 noundef 24) #17
          to label %1416 unwind label %3871

1416:                                             ; preds = %1412
  store i32 1, ptr %1415, align 8, !tbaa !34
  %1417 = getelementptr inbounds %"class.cctki_piraha::smart_ptr_guts.23", ptr %1415, i64 0, i32 2
  store ptr %1393, ptr %1417, align 8, !tbaa !36
  %1418 = getelementptr inbounds %"class.cctki_piraha::smart_ptr_guts.23", ptr %1415, i64 0, i32 3
  store i8 0, ptr %1418, align 8, !tbaa !37
  store ptr %1415, ptr %57, align 8, !tbaa !38
  %1419 = invoke noundef nonnull align 8 dereferenceable(8) ptr @_ZNSt3mapINSt7__cxx1112basic_stringIcSt11char_traitsIcESaIcEEEN12cctki_piraha9smart_ptrINS6_7PatternEEESt4lessIS5_ESaISt4pairIKS5_S9_EEEixERSD_(ptr noundef nonnull align 8 dereferenceable(48) %1389, ptr noundef nonnull align 8 dereferenceable(32) %56)
          to label %1420 unwind label %3879

1420:                                             ; preds = %1416
  %1421 = load ptr, ptr %1419, align 8, !tbaa !38
  %1422 = icmp eq ptr %1421, null
  br i1 %1422, label %1443, label %1423

1423:                                             ; preds = %1420
  %1424 = load i32, ptr %1421, align 8, !tbaa !34
  %1425 = icmp sgt i32 %1424, 0
  br i1 %1425, label %1426, label %1443

1426:                                             ; preds = %1423
  %1427 = add nsw i32 %1424, -1
  store i32 %1427, ptr %1421, align 8, !tbaa !34
  %1428 = icmp eq i32 %1424, 1
  br i1 %1428, label %1429, label %1443

1429:                                             ; preds = %1426
  %1430 = getelementptr inbounds %"class.cctki_piraha::smart_ptr_guts.23", ptr %1421, i64 0, i32 2
  %1431 = load ptr, ptr %1430, align 8, !tbaa !36
  %1432 = icmp eq ptr %1431, null
  br i1 %1432, label %1444, label %1433

1433:                                             ; preds = %1429
  %1434 = getelementptr inbounds %"class.cctki_piraha::smart_ptr_guts.23", ptr %1421, i64 0, i32 3
  %1435 = load i8, ptr %1434, align 8, !tbaa !37, !range !40, !noundef !41
  %1436 = icmp eq i8 %1435, 0
  br i1 %1436, label %1439, label %1437

1437:                                             ; preds = %1433
  %1438 = getelementptr inbounds i8, ptr %1431, i64 -8
  call void @_ZdaPv(ptr noundef nonnull %1438) #18
  br label %1444

1439:                                             ; preds = %1433
  %1440 = load ptr, ptr %1431, align 8, !tbaa !6
  %1441 = getelementptr inbounds ptr, ptr %1440, i64 2
  %1442 = load ptr, ptr %1441, align 8
  call void %1442(ptr noundef nonnull align 8 dereferenceable(8) %1431) #19
  br label %1444

1443:                                             ; preds = %1426, %1423, %1420
  store ptr %1415, ptr %1419, align 8, !tbaa !38
  br label %1447

1444:                                             ; preds = %1429, %1437, %1439
  call void @_ZdlPv(ptr noundef nonnull %1421) #18
  %1445 = load ptr, ptr %57, align 8, !tbaa !38
  store ptr %1445, ptr %1419, align 8, !tbaa !38
  %1446 = icmp eq ptr %1445, null
  br i1 %1446, label %1451, label %1447

1447:                                             ; preds = %1443, %1444
  %1448 = phi ptr [ %1415, %1443 ], [ %1445, %1444 ]
  %1449 = load i32, ptr %1448, align 8, !tbaa !34
  %1450 = add nsw i32 %1449, 1
  store i32 %1450, ptr %1448, align 8, !tbaa !34
  br label %1451

1451:                                             ; preds = %1447, %1444
  %1452 = load ptr, ptr %57, align 8, !tbaa !38
  %1453 = icmp eq ptr %1452, null
  br i1 %1453, label %1475, label %1454

1454:                                             ; preds = %1451
  %1455 = load i32, ptr %1452, align 8, !tbaa !34
  %1456 = icmp sgt i32 %1455, 0
  br i1 %1456, label %1457, label %1475

1457:                                             ; preds = %1454
  %1458 = add nsw i32 %1455, -1
  store i32 %1458, ptr %1452, align 8, !tbaa !34
  %1459 = icmp eq i32 %1455, 1
  br i1 %1459, label %1460, label %1475

1460:                                             ; preds = %1457
  %1461 = getelementptr inbounds %"class.cctki_piraha::smart_ptr_guts.23", ptr %1452, i64 0, i32 2
  %1462 = load ptr, ptr %1461, align 8, !tbaa !36
  %1463 = icmp eq ptr %1462, null
  br i1 %1463, label %1474, label %1464

1464:                                             ; preds = %1460
  %1465 = getelementptr inbounds %"class.cctki_piraha::smart_ptr_guts.23", ptr %1452, i64 0, i32 3
  %1466 = load i8, ptr %1465, align 8, !tbaa !37, !range !40, !noundef !41
  %1467 = icmp eq i8 %1466, 0
  br i1 %1467, label %1470, label %1468

1468:                                             ; preds = %1464
  %1469 = getelementptr inbounds i8, ptr %1462, i64 -8
  call void @_ZdaPv(ptr noundef nonnull %1469) #18
  br label %1474

1470:                                             ; preds = %1464
  %1471 = load ptr, ptr %1462, align 8, !tbaa !6
  %1472 = getelementptr inbounds ptr, ptr %1471, i64 2
  %1473 = load ptr, ptr %1472, align 8
  call void %1473(ptr noundef nonnull align 8 dereferenceable(8) %1462) #19
  br label %1474

1474:                                             ; preds = %1470, %1468, %1460
  call void @_ZdlPv(ptr noundef nonnull %1452) #18
  store ptr null, ptr %57, align 8, !tbaa !38
  br label %1475

1475:                                             ; preds = %1451, %1454, %1457, %1474
  %1476 = load ptr, ptr %56, align 8, !tbaa !42
  %1477 = icmp eq ptr %1476, %1390
  br i1 %1477, label %1478, label %1481

1478:                                             ; preds = %1475
  %1479 = load i64, ptr %1391, align 8, !tbaa !20
  %1480 = icmp ult i64 %1479, 16
  call void @llvm.assume(i1 %1480)
  br label %1482

1481:                                             ; preds = %1475
  call void @_ZdlPv(ptr noundef %1476) #18
  br label %1482

1482:                                             ; preds = %1478, %1481
  br i1 %1383, label %1486, label %1483

1483:                                             ; preds = %1482
  %1484 = getelementptr inbounds %"class.cctki_piraha::smart_ptr_guts", ptr %1382, i64 0, i32 2
  %1485 = load ptr, ptr %1484, align 8, !tbaa !27
  br label %1486

1486:                                             ; preds = %1482, %1483
  %1487 = phi ptr [ %1485, %1483 ], [ null, %1482 ]
  %1488 = getelementptr inbounds %"class.cctki_piraha::Grammar", ptr %1487, i64 0, i32 1
  %1489 = getelementptr inbounds %"class.std::__cxx11::basic_string", ptr %58, i64 0, i32 2
  store ptr %1489, ptr %58, align 8, !tbaa !18
  store i32 1701667182, ptr %1489, align 8
  %1490 = getelementptr inbounds %"class.std::__cxx11::basic_string", ptr %58, i64 0, i32 1
  store i64 4, ptr %1490, align 8, !tbaa !20
  %1491 = getelementptr inbounds i8, ptr %58, i64 20
  store i8 0, ptr %1491, align 4, !tbaa !22
  %1492 = invoke noalias noundef nonnull dereferenceable(32) ptr @_Znwm(i64 noundef 32) #17
          to label %1493 unwind label %3889

1493:                                             ; preds = %1486
  %1494 = invoke noalias noundef nonnull dereferenceable(24) ptr @_Znwm(i64 noundef 24) #17
          to label %1495 unwind label %3891

1495:                                             ; preds = %1493
  %1496 = invoke noalias noundef nonnull dereferenceable(16) ptr @_Znwm(i64 noundef 16) #17
          to label %1497 unwind label %3893

1497:                                             ; preds = %1495
  store ptr getelementptr inbounds ({ [7 x ptr] }, ptr @_ZTVN12cctki_piraha7LiteralE, i64 0, inrange i32 0, i64 2), ptr %1496, align 8, !tbaa !6
  %1498 = getelementptr inbounds %"class.cctki_piraha::Literal", ptr %1496, i64 0, i32 1
  store i8 45, ptr %1498, align 8, !tbaa !31
  store ptr getelementptr inbounds ({ [7 x ptr] }, ptr @_ZTVN12cctki_piraha5MultiE, i64 0, inrange i32 0, i64 2), ptr %1494, align 8, !tbaa !6
  %1499 = getelementptr inbounds %"class.cctki_piraha::Multi", ptr %1494, i64 0, i32 1
  store i32 0, ptr %1499, align 8, !tbaa !43
  %1500 = getelementptr inbounds %"class.cctki_piraha::Multi", ptr %1494, i64 0, i32 2
  store i32 1, ptr %1500, align 4, !tbaa !45
  %1501 = invoke noalias noundef nonnull dereferenceable(24) ptr @_Znwm(i64 noundef 24) #17
          to label %1502 unwind label %3893

1502:                                             ; preds = %1497
  store i32 1, ptr %1501, align 8, !tbaa !34
  %1503 = getelementptr inbounds %"class.cctki_piraha::smart_ptr_guts.23", ptr %1501, i64 0, i32 2
  store ptr %1496, ptr %1503, align 8, !tbaa !36
  %1504 = getelementptr inbounds %"class.cctki_piraha::smart_ptr_guts.23", ptr %1501, i64 0, i32 3
  store i8 0, ptr %1504, align 8, !tbaa !37
  %1505 = getelementptr inbounds %"class.cctki_piraha::Multi", ptr %1494, i64 0, i32 3
  store ptr %1501, ptr %1505, align 8, !tbaa !38
  %1506 = invoke noalias noundef nonnull dereferenceable(40) ptr @_Znwm(i64 noundef 40) #17
          to label %1507 unwind label %3891

1507:                                             ; preds = %1502
  invoke void @_ZN12cctki_piraha7BracketC1Eb(ptr noundef nonnull align 8 dereferenceable(40) %1506, i1 noundef zeroext false)
          to label %1508 unwind label %3895

1508:                                             ; preds = %1507
  %1509 = invoke noundef ptr @_ZN12cctki_piraha7Bracket8addRangeEcc(ptr noundef nonnull align 8 dereferenceable(40) %1506, i8 noundef signext 58, i8 noundef signext 58)
          to label %1510 unwind label %3891

1510:                                             ; preds = %1508
  %1511 = invoke noundef ptr @_ZN12cctki_piraha7Bracket8addRangeEcc(ptr noundef nonnull align 8 dereferenceable(40) %1509, i8 noundef signext 65, i8 noundef signext 90)
          to label %1512 unwind label %3891

1512:                                             ; preds = %1510
  %1513 = invoke noundef ptr @_ZN12cctki_piraha7Bracket8addRangeEcc(ptr noundef nonnull align 8 dereferenceable(40) %1511, i8 noundef signext 95, i8 noundef signext 95)
          to label %1514 unwind label %3891

1514:                                             ; preds = %1512
  %1515 = invoke noundef ptr @_ZN12cctki_piraha7Bracket8addRangeEcc(ptr noundef nonnull align 8 dereferenceable(40) %1513, i8 noundef signext 97, i8 noundef signext 122)
          to label %1516 unwind label %3891

1516:                                             ; preds = %1514
  %1517 = invoke noalias noundef nonnull dereferenceable(24) ptr @_Znwm(i64 noundef 24) #17
          to label %1518 unwind label %3891

1518:                                             ; preds = %1516
  %1519 = invoke noalias noundef nonnull dereferenceable(40) ptr @_Znwm(i64 noundef 40) #17
          to label %1520 unwind label %3897

1520:                                             ; preds = %1518
  invoke void @_ZN12cctki_piraha7BracketC1Eb(ptr noundef nonnull align 8 dereferenceable(40) %1519, i1 noundef zeroext false)
          to label %1521 unwind label %3899

1521:                                             ; preds = %1520
  %1522 = invoke noundef ptr @_ZN12cctki_piraha7Bracket8addRangeEcc(ptr noundef nonnull align 8 dereferenceable(40) %1519, i8 noundef signext 48, i8 noundef signext 58)
          to label %1523 unwind label %3897

1523:                                             ; preds = %1521
  %1524 = invoke noundef ptr @_ZN12cctki_piraha7Bracket8addRangeEcc(ptr noundef nonnull align 8 dereferenceable(40) %1522, i8 noundef signext 65, i8 noundef signext 90)
          to label %1525 unwind label %3897

1525:                                             ; preds = %1523
  %1526 = invoke noundef ptr @_ZN12cctki_piraha7Bracket8addRangeEcc(ptr noundef nonnull align 8 dereferenceable(40) %1524, i8 noundef signext 95, i8 noundef signext 95)
          to label %1527 unwind label %3897

1527:                                             ; preds = %1525
  %1528 = invoke noundef ptr @_ZN12cctki_piraha7Bracket8addRangeEcc(ptr noundef nonnull align 8 dereferenceable(40) %1526, i8 noundef signext 97, i8 noundef signext 122)
          to label %1529 unwind label %3897

1529:                                             ; preds = %1527
  store ptr getelementptr inbounds ({ [7 x ptr] }, ptr @_ZTVN12cctki_piraha5MultiE, i64 0, inrange i32 0, i64 2), ptr %1517, align 8, !tbaa !6
  %1530 = getelementptr inbounds %"class.cctki_piraha::Multi", ptr %1517, i64 0, i32 1
  store i32 0, ptr %1530, align 8, !tbaa !43
  %1531 = getelementptr inbounds %"class.cctki_piraha::Multi", ptr %1517, i64 0, i32 2
  store i32 10000, ptr %1531, align 4, !tbaa !45
  %1532 = icmp eq ptr %1528, null
  br i1 %1532, label %1538, label %1533

1533:                                             ; preds = %1529
  %1534 = invoke noalias noundef nonnull dereferenceable(24) ptr @_Znwm(i64 noundef 24) #17
          to label %1535 unwind label %3897

1535:                                             ; preds = %1533
  store i32 1, ptr %1534, align 8, !tbaa !34
  %1536 = getelementptr inbounds %"class.cctki_piraha::smart_ptr_guts.23", ptr %1534, i64 0, i32 2
  store ptr %1528, ptr %1536, align 8, !tbaa !36
  %1537 = getelementptr inbounds %"class.cctki_piraha::smart_ptr_guts.23", ptr %1534, i64 0, i32 3
  store i8 0, ptr %1537, align 8, !tbaa !37
  br label %1538

1538:                                             ; preds = %1535, %1529
  %1539 = phi ptr [ %1534, %1535 ], [ null, %1529 ]
  %1540 = getelementptr inbounds %"class.cctki_piraha::Multi", ptr %1517, i64 0, i32 3
  store ptr %1539, ptr %1540, align 8, !tbaa !38
  invoke void (ptr, ptr, ...) @_ZN12cctki_piraha3SeqC1EPNS_7PatternEz(ptr noundef nonnull align 8 dereferenceable(32) %1492, ptr noundef nonnull %1494, ptr noundef %1515, ptr noundef nonnull %1517, i64 noundef 0)
          to label %1541 unwind label %3891

1541:                                             ; preds = %1538
  %1542 = invoke noalias noundef nonnull dereferenceable(24) ptr @_Znwm(i64 noundef 24) #17
          to label %1543 unwind label %3889

1543:                                             ; preds = %1541
  store i32 1, ptr %1542, align 8, !tbaa !34
  %1544 = getelementptr inbounds %"class.cctki_piraha::smart_ptr_guts.23", ptr %1542, i64 0, i32 2
  store ptr %1492, ptr %1544, align 8, !tbaa !36
  %1545 = getelementptr inbounds %"class.cctki_piraha::smart_ptr_guts.23", ptr %1542, i64 0, i32 3
  store i8 0, ptr %1545, align 8, !tbaa !37
  store ptr %1542, ptr %59, align 8, !tbaa !38
  %1546 = invoke noundef nonnull align 8 dereferenceable(8) ptr @_ZNSt3mapINSt7__cxx1112basic_stringIcSt11char_traitsIcESaIcEEEN12cctki_piraha9smart_ptrINS6_7PatternEEESt4lessIS5_ESaISt4pairIKS5_S9_EEEixERSD_(ptr noundef nonnull align 8 dereferenceable(48) %1488, ptr noundef nonnull align 8 dereferenceable(32) %58)
          to label %1547 unwind label %3905

1547:                                             ; preds = %1543
  %1548 = load ptr, ptr %1546, align 8, !tbaa !38
  %1549 = icmp eq ptr %1548, null
  br i1 %1549, label %1570, label %1550

1550:                                             ; preds = %1547
  %1551 = load i32, ptr %1548, align 8, !tbaa !34
  %1552 = icmp sgt i32 %1551, 0
  br i1 %1552, label %1553, label %1570

1553:                                             ; preds = %1550
  %1554 = add nsw i32 %1551, -1
  store i32 %1554, ptr %1548, align 8, !tbaa !34
  %1555 = icmp eq i32 %1551, 1
  br i1 %1555, label %1556, label %1570

1556:                                             ; preds = %1553
  %1557 = getelementptr inbounds %"class.cctki_piraha::smart_ptr_guts.23", ptr %1548, i64 0, i32 2
  %1558 = load ptr, ptr %1557, align 8, !tbaa !36
  %1559 = icmp eq ptr %1558, null
  br i1 %1559, label %1571, label %1560

1560:                                             ; preds = %1556
  %1561 = getelementptr inbounds %"class.cctki_piraha::smart_ptr_guts.23", ptr %1548, i64 0, i32 3
  %1562 = load i8, ptr %1561, align 8, !tbaa !37, !range !40, !noundef !41
  %1563 = icmp eq i8 %1562, 0
  br i1 %1563, label %1566, label %1564

1564:                                             ; preds = %1560
  %1565 = getelementptr inbounds i8, ptr %1558, i64 -8
  call void @_ZdaPv(ptr noundef nonnull %1565) #18
  br label %1571

1566:                                             ; preds = %1560
  %1567 = load ptr, ptr %1558, align 8, !tbaa !6
  %1568 = getelementptr inbounds ptr, ptr %1567, i64 2
  %1569 = load ptr, ptr %1568, align 8
  call void %1569(ptr noundef nonnull align 8 dereferenceable(8) %1558) #19
  br label %1571

1570:                                             ; preds = %1553, %1550, %1547
  store ptr %1542, ptr %1546, align 8, !tbaa !38
  br label %1574

1571:                                             ; preds = %1556, %1564, %1566
  call void @_ZdlPv(ptr noundef nonnull %1548) #18
  %1572 = load ptr, ptr %59, align 8, !tbaa !38
  store ptr %1572, ptr %1546, align 8, !tbaa !38
  %1573 = icmp eq ptr %1572, null
  br i1 %1573, label %1578, label %1574

1574:                                             ; preds = %1570, %1571
  %1575 = phi ptr [ %1542, %1570 ], [ %1572, %1571 ]
  %1576 = load i32, ptr %1575, align 8, !tbaa !34
  %1577 = add nsw i32 %1576, 1
  store i32 %1577, ptr %1575, align 8, !tbaa !34
  br label %1578

1578:                                             ; preds = %1574, %1571
  %1579 = load ptr, ptr %59, align 8, !tbaa !38
  %1580 = icmp eq ptr %1579, null
  br i1 %1580, label %1602, label %1581

1581:                                             ; preds = %1578
  %1582 = load i32, ptr %1579, align 8, !tbaa !34
  %1583 = icmp sgt i32 %1582, 0
  br i1 %1583, label %1584, label %1602

1584:                                             ; preds = %1581
  %1585 = add nsw i32 %1582, -1
  store i32 %1585, ptr %1579, align 8, !tbaa !34
  %1586 = icmp eq i32 %1582, 1
  br i1 %1586, label %1587, label %1602

1587:                                             ; preds = %1584
  %1588 = getelementptr inbounds %"class.cctki_piraha::smart_ptr_guts.23", ptr %1579, i64 0, i32 2
  %1589 = load ptr, ptr %1588, align 8, !tbaa !36
  %1590 = icmp eq ptr %1589, null
  br i1 %1590, label %1601, label %1591

1591:                                             ; preds = %1587
  %1592 = getelementptr inbounds %"class.cctki_piraha::smart_ptr_guts.23", ptr %1579, i64 0, i32 3
  %1593 = load i8, ptr %1592, align 8, !tbaa !37, !range !40, !noundef !41
  %1594 = icmp eq i8 %1593, 0
  br i1 %1594, label %1597, label %1595

1595:                                             ; preds = %1591
  %1596 = getelementptr inbounds i8, ptr %1589, i64 -8
  call void @_ZdaPv(ptr noundef nonnull %1596) #18
  br label %1601

1597:                                             ; preds = %1591
  %1598 = load ptr, ptr %1589, align 8, !tbaa !6
  %1599 = getelementptr inbounds ptr, ptr %1598, i64 2
  %1600 = load ptr, ptr %1599, align 8
  call void %1600(ptr noundef nonnull align 8 dereferenceable(8) %1589) #19
  br label %1601

1601:                                             ; preds = %1597, %1595, %1587
  call void @_ZdlPv(ptr noundef nonnull %1579) #18
  store ptr null, ptr %59, align 8, !tbaa !38
  br label %1602

1602:                                             ; preds = %1578, %1581, %1584, %1601
  %1603 = load ptr, ptr %58, align 8, !tbaa !42
  %1604 = icmp eq ptr %1603, %1489
  br i1 %1604, label %1605, label %1608

1605:                                             ; preds = %1602
  %1606 = load i64, ptr %1490, align 8, !tbaa !20
  %1607 = icmp ult i64 %1606, 16
  call void @llvm.assume(i1 %1607)
  br label %1609

1608:                                             ; preds = %1602
  call void @_ZdlPv(ptr noundef %1603) #18
  br label %1609

1609:                                             ; preds = %1605, %1608
  br i1 %1383, label %1613, label %1610

1610:                                             ; preds = %1609
  %1611 = getelementptr inbounds %"class.cctki_piraha::smart_ptr_guts", ptr %1382, i64 0, i32 2
  %1612 = load ptr, ptr %1611, align 8, !tbaa !27
  br label %1613

1613:                                             ; preds = %1609, %1610
  %1614 = phi ptr [ %1612, %1610 ], [ null, %1609 ]
  %1615 = getelementptr inbounds %"class.cctki_piraha::Grammar", ptr %1614, i64 0, i32 1
  %1616 = getelementptr inbounds %"class.std::__cxx11::basic_string", ptr %60, i64 0, i32 2
  store ptr %1616, ptr %60, align 8, !tbaa !18
  call void @llvm.memcpy.p0.p0.i64(ptr noundef nonnull align 8 dereferenceable(3) %1616, ptr noundef nonnull align 1 dereferenceable(3) @.str.13, i64 3, i1 false)
  %1617 = getelementptr inbounds %"class.std::__cxx11::basic_string", ptr %60, i64 0, i32 1
  store i64 3, ptr %1617, align 8, !tbaa !20
  %1618 = getelementptr inbounds i8, ptr %60, i64 19
  store i8 0, ptr %1618, align 1, !tbaa !22
  %1619 = invoke noalias noundef nonnull dereferenceable(16) ptr @_Znwm(i64 noundef 16) #17
          to label %1620 unwind label %3915

1620:                                             ; preds = %1613
  store ptr getelementptr inbounds ({ [7 x ptr] }, ptr @_ZTVN12cctki_piraha7LiteralE, i64 0, inrange i32 0, i64 2), ptr %1619, align 8, !tbaa !6
  %1621 = getelementptr inbounds %"class.cctki_piraha::Literal", ptr %1619, i64 0, i32 1
  store i8 36, ptr %1621, align 8, !tbaa !31
  %1622 = invoke noalias noundef nonnull dereferenceable(24) ptr @_Znwm(i64 noundef 24) #17
          to label %1623 unwind label %3915

1623:                                             ; preds = %1620
  store i32 1, ptr %1622, align 8, !tbaa !34
  %1624 = getelementptr inbounds %"class.cctki_piraha::smart_ptr_guts.23", ptr %1622, i64 0, i32 2
  store ptr %1619, ptr %1624, align 8, !tbaa !36
  %1625 = getelementptr inbounds %"class.cctki_piraha::smart_ptr_guts.23", ptr %1622, i64 0, i32 3
  store i8 0, ptr %1625, align 8, !tbaa !37
  store ptr %1622, ptr %61, align 8, !tbaa !38
  %1626 = invoke noundef nonnull align 8 dereferenceable(8) ptr @_ZNSt3mapINSt7__cxx1112basic_stringIcSt11char_traitsIcESaIcEEEN12cctki_piraha9smart_ptrINS6_7PatternEEESt4lessIS5_ESaISt4pairIKS5_S9_EEEixERSD_(ptr noundef nonnull align 8 dereferenceable(48) %1615, ptr noundef nonnull align 8 dereferenceable(32) %60)
          to label %1627 unwind label %3917

1627:                                             ; preds = %1623
  %1628 = load ptr, ptr %1626, align 8, !tbaa !38
  %1629 = icmp eq ptr %1628, null
  br i1 %1629, label %1650, label %1630

1630:                                             ; preds = %1627
  %1631 = load i32, ptr %1628, align 8, !tbaa !34
  %1632 = icmp sgt i32 %1631, 0
  br i1 %1632, label %1633, label %1650

1633:                                             ; preds = %1630
  %1634 = add nsw i32 %1631, -1
  store i32 %1634, ptr %1628, align 8, !tbaa !34
  %1635 = icmp eq i32 %1631, 1
  br i1 %1635, label %1636, label %1650

1636:                                             ; preds = %1633
  %1637 = getelementptr inbounds %"class.cctki_piraha::smart_ptr_guts.23", ptr %1628, i64 0, i32 2
  %1638 = load ptr, ptr %1637, align 8, !tbaa !36
  %1639 = icmp eq ptr %1638, null
  br i1 %1639, label %1651, label %1640

1640:                                             ; preds = %1636
  %1641 = getelementptr inbounds %"class.cctki_piraha::smart_ptr_guts.23", ptr %1628, i64 0, i32 3
  %1642 = load i8, ptr %1641, align 8, !tbaa !37, !range !40, !noundef !41
  %1643 = icmp eq i8 %1642, 0
  br i1 %1643, label %1646, label %1644

1644:                                             ; preds = %1640
  %1645 = getelementptr inbounds i8, ptr %1638, i64 -8
  call void @_ZdaPv(ptr noundef nonnull %1645) #18
  br label %1651

1646:                                             ; preds = %1640
  %1647 = load ptr, ptr %1638, align 8, !tbaa !6
  %1648 = getelementptr inbounds ptr, ptr %1647, i64 2
  %1649 = load ptr, ptr %1648, align 8
  call void %1649(ptr noundef nonnull align 8 dereferenceable(8) %1638) #19
  br label %1651

1650:                                             ; preds = %1633, %1630, %1627
  store ptr %1622, ptr %1626, align 8, !tbaa !38
  br label %1654

1651:                                             ; preds = %1636, %1644, %1646
  call void @_ZdlPv(ptr noundef nonnull %1628) #18
  %1652 = load ptr, ptr %61, align 8, !tbaa !38
  store ptr %1652, ptr %1626, align 8, !tbaa !38
  %1653 = icmp eq ptr %1652, null
  br i1 %1653, label %1658, label %1654

1654:                                             ; preds = %1650, %1651
  %1655 = phi ptr [ %1622, %1650 ], [ %1652, %1651 ]
  %1656 = load i32, ptr %1655, align 8, !tbaa !34
  %1657 = add nsw i32 %1656, 1
  store i32 %1657, ptr %1655, align 8, !tbaa !34
  br label %1658

1658:                                             ; preds = %1654, %1651
  %1659 = load ptr, ptr %61, align 8, !tbaa !38
  %1660 = icmp eq ptr %1659, null
  br i1 %1660, label %1682, label %1661

1661:                                             ; preds = %1658
  %1662 = load i32, ptr %1659, align 8, !tbaa !34
  %1663 = icmp sgt i32 %1662, 0
  br i1 %1663, label %1664, label %1682

1664:                                             ; preds = %1661
  %1665 = add nsw i32 %1662, -1
  store i32 %1665, ptr %1659, align 8, !tbaa !34
  %1666 = icmp eq i32 %1662, 1
  br i1 %1666, label %1667, label %1682

1667:                                             ; preds = %1664
  %1668 = getelementptr inbounds %"class.cctki_piraha::smart_ptr_guts.23", ptr %1659, i64 0, i32 2
  %1669 = load ptr, ptr %1668, align 8, !tbaa !36
  %1670 = icmp eq ptr %1669, null
  br i1 %1670, label %1681, label %1671

1671:                                             ; preds = %1667
  %1672 = getelementptr inbounds %"class.cctki_piraha::smart_ptr_guts.23", ptr %1659, i64 0, i32 3
  %1673 = load i8, ptr %1672, align 8, !tbaa !37, !range !40, !noundef !41
  %1674 = icmp eq i8 %1673, 0
  br i1 %1674, label %1677, label %1675

1675:                                             ; preds = %1671
  %1676 = getelementptr inbounds i8, ptr %1669, i64 -8
  call void @_ZdaPv(ptr noundef nonnull %1676) #18
  br label %1681

1677:                                             ; preds = %1671
  %1678 = load ptr, ptr %1669, align 8, !tbaa !6
  %1679 = getelementptr inbounds ptr, ptr %1678, i64 2
  %1680 = load ptr, ptr %1679, align 8
  call void %1680(ptr noundef nonnull align 8 dereferenceable(8) %1669) #19
  br label %1681

1681:                                             ; preds = %1677, %1675, %1667
  call void @_ZdlPv(ptr noundef nonnull %1659) #18
  store ptr null, ptr %61, align 8, !tbaa !38
  br label %1682

1682:                                             ; preds = %1658, %1661, %1664, %1681
  %1683 = load ptr, ptr %60, align 8, !tbaa !42
  %1684 = icmp eq ptr %1683, %1616
  br i1 %1684, label %1685, label %1688

1685:                                             ; preds = %1682
  %1686 = load i64, ptr %1617, align 8, !tbaa !20
  %1687 = icmp ult i64 %1686, 16
  call void @llvm.assume(i1 %1687)
  br label %1689

1688:                                             ; preds = %1682
  call void @_ZdlPv(ptr noundef %1683) #18
  br label %1689

1689:                                             ; preds = %1685, %1688
  br i1 %1383, label %1693, label %1690

1690:                                             ; preds = %1689
  %1691 = getelementptr inbounds %"class.cctki_piraha::smart_ptr_guts", ptr %1382, i64 0, i32 2
  %1692 = load ptr, ptr %1691, align 8, !tbaa !27
  br label %1693

1693:                                             ; preds = %1689, %1690
  %1694 = phi ptr [ %1692, %1690 ], [ null, %1689 ]
  %1695 = getelementptr inbounds %"class.cctki_piraha::Grammar", ptr %1694, i64 0, i32 1
  %1696 = getelementptr inbounds %"class.std::__cxx11::basic_string", ptr %62, i64 0, i32 2
  store ptr %1696, ptr %62, align 8, !tbaa !18
  call void @llvm.memcpy.p0.p0.i64(ptr noundef nonnull align 8 dereferenceable(5) %1696, ptr noundef nonnull align 1 dereferenceable(5) @.str.5, i64 5, i1 false)
  %1697 = getelementptr inbounds %"class.std::__cxx11::basic_string", ptr %62, i64 0, i32 1
  store i64 5, ptr %1697, align 8, !tbaa !20
  %1698 = getelementptr inbounds i8, ptr %62, i64 21
  store i8 0, ptr %1698, align 1, !tbaa !22
  %1699 = invoke noalias noundef nonnull dereferenceable(40) ptr @_Znwm(i64 noundef 40) #17
          to label %1700 unwind label %3926

1700:                                             ; preds = %1693
  %1701 = invoke noalias noundef nonnull dereferenceable(32) ptr @_Znwm(i64 noundef 32) #17
          to label %1702 unwind label %3928

1702:                                             ; preds = %1700
  %1703 = invoke noalias noundef nonnull dereferenceable(16) ptr @_Znwm(i64 noundef 16) #17
          to label %1704 unwind label %3930

1704:                                             ; preds = %1702
  store ptr getelementptr inbounds ({ [7 x ptr] }, ptr @_ZTVN12cctki_piraha7LiteralE, i64 0, inrange i32 0, i64 2), ptr %1703, align 8, !tbaa !6
  %1705 = getelementptr inbounds %"class.cctki_piraha::Literal", ptr %1703, i64 0, i32 1
  store i8 92, ptr %1705, align 8, !tbaa !31
  %1706 = invoke noalias noundef nonnull dereferenceable(16) ptr @_Znwm(i64 noundef 16) #17
          to label %1707 unwind label %3930

1707:                                             ; preds = %1704
  store ptr getelementptr inbounds ({ [7 x ptr] }, ptr @_ZTVN12cctki_piraha7LiteralE, i64 0, inrange i32 0, i64 2), ptr %1706, align 8, !tbaa !6
  %1708 = getelementptr inbounds %"class.cctki_piraha::Literal", ptr %1706, i64 0, i32 1
  store i8 117, ptr %1708, align 8, !tbaa !31
  %1709 = invoke noalias noundef nonnull dereferenceable(56) ptr @_Znwm(i64 noundef 56) #17
          to label %1710 unwind label %3930

1710:                                             ; preds = %1707
  %1711 = getelementptr inbounds %"class.std::__cxx11::basic_string", ptr %64, i64 0, i32 2
  store ptr %1711, ptr %64, align 8, !tbaa !18
  call void @llvm.memcpy.p0.p0.i64(ptr noundef nonnull align 8 dereferenceable(3) %1711, ptr noundef nonnull align 1 dereferenceable(3) @.str.21, i64 3, i1 false)
  %1712 = getelementptr inbounds %"class.std::__cxx11::basic_string", ptr %64, i64 0, i32 1
  store i64 3, ptr %1712, align 8, !tbaa !20
  %1713 = getelementptr inbounds i8, ptr %64, i64 19
  store i8 0, ptr %1713, align 1, !tbaa !22
  store ptr %1382, ptr %65, align 8, !tbaa !29
  br i1 %1383, label %1717, label %1714

1714:                                             ; preds = %1710
  %1715 = load i32, ptr %1382, align 8, !tbaa !23
  %1716 = add nsw i32 %1715, 1
  store i32 %1716, ptr %1382, align 8, !tbaa !23
  br label %1717

1717:                                             ; preds = %1714, %1710
  invoke void @_ZN12cctki_piraha6LookupC1ENSt7__cxx1112basic_stringIcSt11char_traitsIcESaIcEEENS_9smart_ptrINS_7GrammarEEE(ptr noundef nonnull align 8 dereferenceable(49) %1709, ptr noundef nonnull %64, ptr noundef nonnull %65)
          to label %1718 unwind label %3932

1718:                                             ; preds = %1717
  invoke void (ptr, ptr, ...) @_ZN12cctki_piraha3SeqC1EPNS_7PatternEz(ptr noundef nonnull align 8 dereferenceable(32) %1701, ptr noundef nonnull %1703, ptr noundef nonnull %1706, ptr noundef nonnull %1709, i64 noundef 0)
          to label %1719 unwind label %3932

1719:                                             ; preds = %1718
  %1720 = invoke noalias noundef nonnull dereferenceable(32) ptr @_Znwm(i64 noundef 32) #17
          to label %1721 unwind label %3932

1721:                                             ; preds = %1719
  %1722 = invoke noalias noundef nonnull dereferenceable(16) ptr @_Znwm(i64 noundef 16) #17
          to label %1723 unwind label %3937

1723:                                             ; preds = %1721
  store ptr getelementptr inbounds ({ [7 x ptr] }, ptr @_ZTVN12cctki_piraha7LiteralE, i64 0, inrange i32 0, i64 2), ptr %1722, align 8, !tbaa !6
  %1724 = getelementptr inbounds %"class.cctki_piraha::Literal", ptr %1722, i64 0, i32 1
  store i8 92, ptr %1724, align 8, !tbaa !31
  %1725 = invoke noalias noundef nonnull dereferenceable(40) ptr @_Znwm(i64 noundef 40) #17
          to label %1726 unwind label %3937

1726:                                             ; preds = %1723
  invoke void @_ZN12cctki_piraha7BracketC1Eb(ptr noundef nonnull align 8 dereferenceable(40) %1725, i1 noundef zeroext true)
          to label %1727 unwind label %3939

1727:                                             ; preds = %1726
  invoke void (ptr, ptr, ...) @_ZN12cctki_piraha3SeqC1EPNS_7PatternEz(ptr noundef nonnull align 8 dereferenceable(32) %1720, ptr noundef nonnull %1722, ptr noundef nonnull %1725, i64 noundef 0)
          to label %1728 unwind label %3937

1728:                                             ; preds = %1727
  %1729 = invoke noalias noundef nonnull dereferenceable(40) ptr @_Znwm(i64 noundef 40) #17
          to label %1730 unwind label %3932

1730:                                             ; preds = %1728
  invoke void @_ZN12cctki_piraha7BracketC1Eb(ptr noundef nonnull align 8 dereferenceable(40) %1729, i1 noundef zeroext true)
          to label %1731 unwind label %3943

1731:                                             ; preds = %1730
  %1732 = invoke noundef ptr @_ZN12cctki_piraha7Bracket8addRangeEcc(ptr noundef nonnull align 8 dereferenceable(40) %1729, i8 noundef signext 45, i8 noundef signext 45)
          to label %1733 unwind label %3932

1733:                                             ; preds = %1731
  %1734 = invoke noundef ptr @_ZN12cctki_piraha7Bracket8addRangeEcc(ptr noundef nonnull align 8 dereferenceable(40) %1732, i8 noundef signext 92, i8 noundef signext 93)
          to label %1735 unwind label %3932

1735:                                             ; preds = %1733
  invoke void (ptr, ptr, ...) @_ZN12cctki_piraha2OrC1EPNS_7PatternEz(ptr noundef nonnull align 8 dereferenceable(34) %1699, ptr noundef nonnull %1701, ptr noundef nonnull %1720, ptr noundef %1734, i64 noundef 0)
          to label %1736 unwind label %3932

1736:                                             ; preds = %1735
  %1737 = invoke noalias noundef nonnull dereferenceable(24) ptr @_Znwm(i64 noundef 24) #17
          to label %1738 unwind label %3932

1738:                                             ; preds = %1736
  store i32 1, ptr %1737, align 8, !tbaa !34
  %1739 = getelementptr inbounds %"class.cctki_piraha::smart_ptr_guts.23", ptr %1737, i64 0, i32 2
  store ptr %1699, ptr %1739, align 8, !tbaa !36
  %1740 = getelementptr inbounds %"class.cctki_piraha::smart_ptr_guts.23", ptr %1737, i64 0, i32 3
  store i8 0, ptr %1740, align 8, !tbaa !37
  store ptr %1737, ptr %63, align 8, !tbaa !38
  %1741 = invoke noundef nonnull align 8 dereferenceable(8) ptr @_ZNSt3mapINSt7__cxx1112basic_stringIcSt11char_traitsIcESaIcEEEN12cctki_piraha9smart_ptrINS6_7PatternEEESt4lessIS5_ESaISt4pairIKS5_S9_EEEixERSD_(ptr noundef nonnull align 8 dereferenceable(48) %1695, ptr noundef nonnull align 8 dereferenceable(32) %62)
          to label %1742 unwind label %3945

1742:                                             ; preds = %1738
  %1743 = load ptr, ptr %1741, align 8, !tbaa !38
  %1744 = icmp eq ptr %1743, null
  br i1 %1744, label %1765, label %1745

1745:                                             ; preds = %1742
  %1746 = load i32, ptr %1743, align 8, !tbaa !34
  %1747 = icmp sgt i32 %1746, 0
  br i1 %1747, label %1748, label %1765

1748:                                             ; preds = %1745
  %1749 = add nsw i32 %1746, -1
  store i32 %1749, ptr %1743, align 8, !tbaa !34
  %1750 = icmp eq i32 %1746, 1
  br i1 %1750, label %1751, label %1765

1751:                                             ; preds = %1748
  %1752 = getelementptr inbounds %"class.cctki_piraha::smart_ptr_guts.23", ptr %1743, i64 0, i32 2
  %1753 = load ptr, ptr %1752, align 8, !tbaa !36
  %1754 = icmp eq ptr %1753, null
  br i1 %1754, label %1766, label %1755

1755:                                             ; preds = %1751
  %1756 = getelementptr inbounds %"class.cctki_piraha::smart_ptr_guts.23", ptr %1743, i64 0, i32 3
  %1757 = load i8, ptr %1756, align 8, !tbaa !37, !range !40, !noundef !41
  %1758 = icmp eq i8 %1757, 0
  br i1 %1758, label %1761, label %1759

1759:                                             ; preds = %1755
  %1760 = getelementptr inbounds i8, ptr %1753, i64 -8
  call void @_ZdaPv(ptr noundef nonnull %1760) #18
  br label %1766

1761:                                             ; preds = %1755
  %1762 = load ptr, ptr %1753, align 8, !tbaa !6
  %1763 = getelementptr inbounds ptr, ptr %1762, i64 2
  %1764 = load ptr, ptr %1763, align 8
  call void %1764(ptr noundef nonnull align 8 dereferenceable(8) %1753) #19
  br label %1766

1765:                                             ; preds = %1748, %1745, %1742
  store ptr %1737, ptr %1741, align 8, !tbaa !38
  br label %1769

1766:                                             ; preds = %1751, %1759, %1761
  call void @_ZdlPv(ptr noundef nonnull %1743) #18
  %1767 = load ptr, ptr %63, align 8, !tbaa !38
  store ptr %1767, ptr %1741, align 8, !tbaa !38
  %1768 = icmp eq ptr %1767, null
  br i1 %1768, label %1773, label %1769

1769:                                             ; preds = %1765, %1766
  %1770 = phi ptr [ %1737, %1765 ], [ %1767, %1766 ]
  %1771 = load i32, ptr %1770, align 8, !tbaa !34
  %1772 = add nsw i32 %1771, 1
  store i32 %1772, ptr %1770, align 8, !tbaa !34
  br label %1773

1773:                                             ; preds = %1769, %1766
  %1774 = load ptr, ptr %63, align 8, !tbaa !38
  %1775 = icmp eq ptr %1774, null
  br i1 %1775, label %1797, label %1776

1776:                                             ; preds = %1773
  %1777 = load i32, ptr %1774, align 8, !tbaa !34
  %1778 = icmp sgt i32 %1777, 0
  br i1 %1778, label %1779, label %1797

1779:                                             ; preds = %1776
  %1780 = add nsw i32 %1777, -1
  store i32 %1780, ptr %1774, align 8, !tbaa !34
  %1781 = icmp eq i32 %1777, 1
  br i1 %1781, label %1782, label %1797

1782:                                             ; preds = %1779
  %1783 = getelementptr inbounds %"class.cctki_piraha::smart_ptr_guts.23", ptr %1774, i64 0, i32 2
  %1784 = load ptr, ptr %1783, align 8, !tbaa !36
  %1785 = icmp eq ptr %1784, null
  br i1 %1785, label %1796, label %1786

1786:                                             ; preds = %1782
  %1787 = getelementptr inbounds %"class.cctki_piraha::smart_ptr_guts.23", ptr %1774, i64 0, i32 3
  %1788 = load i8, ptr %1787, align 8, !tbaa !37, !range !40, !noundef !41
  %1789 = icmp eq i8 %1788, 0
  br i1 %1789, label %1792, label %1790

1790:                                             ; preds = %1786
  %1791 = getelementptr inbounds i8, ptr %1784, i64 -8
  call void @_ZdaPv(ptr noundef nonnull %1791) #18
  br label %1796

1792:                                             ; preds = %1786
  %1793 = load ptr, ptr %1784, align 8, !tbaa !6
  %1794 = getelementptr inbounds ptr, ptr %1793, i64 2
  %1795 = load ptr, ptr %1794, align 8
  call void %1795(ptr noundef nonnull align 8 dereferenceable(8) %1784) #19
  br label %1796

1796:                                             ; preds = %1792, %1790, %1782
  call void @_ZdlPv(ptr noundef nonnull %1774) #18
  store ptr null, ptr %63, align 8, !tbaa !38
  br label %1797

1797:                                             ; preds = %1773, %1776, %1779, %1796
  invoke void @_ZN12cctki_piraha9smart_ptrINS_7GrammarEE5cleanEv(ptr noundef nonnull align 8 dereferenceable(8) %65)
          to label %1801 unwind label %1798

1798:                                             ; preds = %1797
  %1799 = landingpad { ptr, i32 }
          catch ptr null
  %1800 = extractvalue { ptr, i32 } %1799, 0
  call void @__clang_call_terminate(ptr %1800) #20
  unreachable

1801:                                             ; preds = %1797
  %1802 = load ptr, ptr %64, align 8, !tbaa !42
  %1803 = icmp eq ptr %1802, %1711
  br i1 %1803, label %1804, label %1807

1804:                                             ; preds = %1801
  %1805 = load i64, ptr %1712, align 8, !tbaa !20
  %1806 = icmp ult i64 %1805, 16
  call void @llvm.assume(i1 %1806)
  br label %1808

1807:                                             ; preds = %1801
  call void @_ZdlPv(ptr noundef %1802) #18
  br label %1808

1808:                                             ; preds = %1804, %1807
  %1809 = load ptr, ptr %62, align 8, !tbaa !42
  %1810 = icmp eq ptr %1809, %1696
  br i1 %1810, label %1811, label %1814

1811:                                             ; preds = %1808
  %1812 = load i64, ptr %1697, align 8, !tbaa !20
  %1813 = icmp ult i64 %1812, 16
  call void @llvm.assume(i1 %1813)
  br label %1815

1814:                                             ; preds = %1808
  call void @_ZdlPv(ptr noundef %1809) #18
  br label %1815

1815:                                             ; preds = %1811, %1814
  br i1 %1383, label %1819, label %1816

1816:                                             ; preds = %1815
  %1817 = getelementptr inbounds %"class.cctki_piraha::smart_ptr_guts", ptr %1382, i64 0, i32 2
  %1818 = load ptr, ptr %1817, align 8, !tbaa !27
  br label %1819

1819:                                             ; preds = %1815, %1816
  %1820 = phi ptr [ %1818, %1816 ], [ null, %1815 ]
  %1821 = getelementptr inbounds %"class.cctki_piraha::Grammar", ptr %1820, i64 0, i32 1
  %1822 = getelementptr inbounds %"class.std::__cxx11::basic_string", ptr %66, i64 0, i32 2
  store ptr %1822, ptr %66, align 8, !tbaa !18
  call void @llvm.memcpy.p0.p0.i64(ptr noundef nonnull align 8 dereferenceable(12) %1822, ptr noundef nonnull align 1 dereferenceable(12) @.str.22, i64 12, i1 false)
  %1823 = getelementptr inbounds %"class.std::__cxx11::basic_string", ptr %66, i64 0, i32 1
  store i64 12, ptr %1823, align 8, !tbaa !20
  %1824 = getelementptr inbounds %"class.std::__cxx11::basic_string", ptr %66, i64 0, i32 2, i32 1, i64 4
  store i8 0, ptr %1824, align 4, !tbaa !22
  %1825 = invoke noalias noundef nonnull dereferenceable(32) ptr @_Znwm(i64 noundef 32) #17
          to label %1826 unwind label %3976

1826:                                             ; preds = %1819
  %1827 = invoke noalias noundef nonnull dereferenceable(16) ptr @_Znwm(i64 noundef 16) #17
          to label %1828 unwind label %3978

1828:                                             ; preds = %1826
  store ptr getelementptr inbounds ({ [7 x ptr] }, ptr @_ZTVN12cctki_piraha7LiteralE, i64 0, inrange i32 0, i64 2), ptr %1827, align 8, !tbaa !6
  %1829 = getelementptr inbounds %"class.cctki_piraha::Literal", ptr %1827, i64 0, i32 1
  store i8 63, ptr %1829, align 8, !tbaa !31
  %1830 = invoke noalias noundef nonnull dereferenceable(16) ptr @_Znwm(i64 noundef 16) #17
          to label %1831 unwind label %3978

1831:                                             ; preds = %1828
  store ptr getelementptr inbounds ({ [7 x ptr] }, ptr @_ZTVN12cctki_piraha7LiteralE, i64 0, inrange i32 0, i64 2), ptr %1830, align 8, !tbaa !6
  %1832 = getelementptr inbounds %"class.cctki_piraha::Literal", ptr %1830, i64 0, i32 1
  store i8 33, ptr %1832, align 8, !tbaa !31
  invoke void (ptr, ptr, ...) @_ZN12cctki_piraha3SeqC1EPNS_7PatternEz(ptr noundef nonnull align 8 dereferenceable(32) %1825, ptr noundef nonnull %1827, ptr noundef nonnull %1830, i64 noundef 0)
          to label %1833 unwind label %3978

1833:                                             ; preds = %1831
  %1834 = invoke noalias noundef nonnull dereferenceable(24) ptr @_Znwm(i64 noundef 24) #17
          to label %1835 unwind label %3976

1835:                                             ; preds = %1833
  store i32 1, ptr %1834, align 8, !tbaa !34
  %1836 = getelementptr inbounds %"class.cctki_piraha::smart_ptr_guts.23", ptr %1834, i64 0, i32 2
  store ptr %1825, ptr %1836, align 8, !tbaa !36
  %1837 = getelementptr inbounds %"class.cctki_piraha::smart_ptr_guts.23", ptr %1834, i64 0, i32 3
  store i8 0, ptr %1837, align 8, !tbaa !37
  store ptr %1834, ptr %67, align 8, !tbaa !38
  %1838 = invoke noundef nonnull align 8 dereferenceable(8) ptr @_ZNSt3mapINSt7__cxx1112basic_stringIcSt11char_traitsIcESaIcEEEN12cctki_piraha9smart_ptrINS6_7PatternEEESt4lessIS5_ESaISt4pairIKS5_S9_EEEixERSD_(ptr noundef nonnull align 8 dereferenceable(48) %1821, ptr noundef nonnull align 8 dereferenceable(32) %66)
          to label %1839 unwind label %3980

1839:                                             ; preds = %1835
  %1840 = load ptr, ptr %1838, align 8, !tbaa !38
  %1841 = icmp eq ptr %1840, null
  br i1 %1841, label %1862, label %1842

1842:                                             ; preds = %1839
  %1843 = load i32, ptr %1840, align 8, !tbaa !34
  %1844 = icmp sgt i32 %1843, 0
  br i1 %1844, label %1845, label %1862

1845:                                             ; preds = %1842
  %1846 = add nsw i32 %1843, -1
  store i32 %1846, ptr %1840, align 8, !tbaa !34
  %1847 = icmp eq i32 %1843, 1
  br i1 %1847, label %1848, label %1862

1848:                                             ; preds = %1845
  %1849 = getelementptr inbounds %"class.cctki_piraha::smart_ptr_guts.23", ptr %1840, i64 0, i32 2
  %1850 = load ptr, ptr %1849, align 8, !tbaa !36
  %1851 = icmp eq ptr %1850, null
  br i1 %1851, label %1863, label %1852

1852:                                             ; preds = %1848
  %1853 = getelementptr inbounds %"class.cctki_piraha::smart_ptr_guts.23", ptr %1840, i64 0, i32 3
  %1854 = load i8, ptr %1853, align 8, !tbaa !37, !range !40, !noundef !41
  %1855 = icmp eq i8 %1854, 0
  br i1 %1855, label %1858, label %1856

1856:                                             ; preds = %1852
  %1857 = getelementptr inbounds i8, ptr %1850, i64 -8
  call void @_ZdaPv(ptr noundef nonnull %1857) #18
  br label %1863

1858:                                             ; preds = %1852
  %1859 = load ptr, ptr %1850, align 8, !tbaa !6
  %1860 = getelementptr inbounds ptr, ptr %1859, i64 2
  %1861 = load ptr, ptr %1860, align 8
  call void %1861(ptr noundef nonnull align 8 dereferenceable(8) %1850) #19
  br label %1863

1862:                                             ; preds = %1845, %1842, %1839
  store ptr %1834, ptr %1838, align 8, !tbaa !38
  br label %1866

1863:                                             ; preds = %1848, %1856, %1858
  call void @_ZdlPv(ptr noundef nonnull %1840) #18
  %1864 = load ptr, ptr %67, align 8, !tbaa !38
  store ptr %1864, ptr %1838, align 8, !tbaa !38
  %1865 = icmp eq ptr %1864, null
  br i1 %1865, label %1870, label %1866

1866:                                             ; preds = %1862, %1863
  %1867 = phi ptr [ %1834, %1862 ], [ %1864, %1863 ]
  %1868 = load i32, ptr %1867, align 8, !tbaa !34
  %1869 = add nsw i32 %1868, 1
  store i32 %1869, ptr %1867, align 8, !tbaa !34
  br label %1870

1870:                                             ; preds = %1866, %1863
  %1871 = load ptr, ptr %67, align 8, !tbaa !38
  %1872 = icmp eq ptr %1871, null
  br i1 %1872, label %1894, label %1873

1873:                                             ; preds = %1870
  %1874 = load i32, ptr %1871, align 8, !tbaa !34
  %1875 = icmp sgt i32 %1874, 0
  br i1 %1875, label %1876, label %1894

1876:                                             ; preds = %1873
  %1877 = add nsw i32 %1874, -1
  store i32 %1877, ptr %1871, align 8, !tbaa !34
  %1878 = icmp eq i32 %1874, 1
  br i1 %1878, label %1879, label %1894

1879:                                             ; preds = %1876
  %1880 = getelementptr inbounds %"class.cctki_piraha::smart_ptr_guts.23", ptr %1871, i64 0, i32 2
  %1881 = load ptr, ptr %1880, align 8, !tbaa !36
  %1882 = icmp eq ptr %1881, null
  br i1 %1882, label %1893, label %1883

1883:                                             ; preds = %1879
  %1884 = getelementptr inbounds %"class.cctki_piraha::smart_ptr_guts.23", ptr %1871, i64 0, i32 3
  %1885 = load i8, ptr %1884, align 8, !tbaa !37, !range !40, !noundef !41
  %1886 = icmp eq i8 %1885, 0
  br i1 %1886, label %1889, label %1887

1887:                                             ; preds = %1883
  %1888 = getelementptr inbounds i8, ptr %1881, i64 -8
  call void @_ZdaPv(ptr noundef nonnull %1888) #18
  br label %1893

1889:                                             ; preds = %1883
  %1890 = load ptr, ptr %1881, align 8, !tbaa !6
  %1891 = getelementptr inbounds ptr, ptr %1890, i64 2
  %1892 = load ptr, ptr %1891, align 8
  call void %1892(ptr noundef nonnull align 8 dereferenceable(8) %1881) #19
  br label %1893

1893:                                             ; preds = %1889, %1887, %1879
  call void @_ZdlPv(ptr noundef nonnull %1871) #18
  store ptr null, ptr %67, align 8, !tbaa !38
  br label %1894

1894:                                             ; preds = %1870, %1873, %1876, %1893
  %1895 = load ptr, ptr %66, align 8, !tbaa !42
  %1896 = icmp eq ptr %1895, %1822
  br i1 %1896, label %1897, label %1900

1897:                                             ; preds = %1894
  %1898 = load i64, ptr %1823, align 8, !tbaa !20
  %1899 = icmp ult i64 %1898, 16
  call void @llvm.assume(i1 %1899)
  br label %1901

1900:                                             ; preds = %1894
  call void @_ZdlPv(ptr noundef %1895) #18
  br label %1901

1901:                                             ; preds = %1897, %1900
  br i1 %1383, label %1905, label %1902

1902:                                             ; preds = %1901
  %1903 = getelementptr inbounds %"class.cctki_piraha::smart_ptr_guts", ptr %1382, i64 0, i32 2
  %1904 = load ptr, ptr %1903, align 8, !tbaa !27
  br label %1905

1905:                                             ; preds = %1901, %1902
  %1906 = phi ptr [ %1904, %1902 ], [ null, %1901 ]
  %1907 = getelementptr inbounds %"class.cctki_piraha::Grammar", ptr %1906, i64 0, i32 1
  %1908 = getelementptr inbounds %"class.std::__cxx11::basic_string", ptr %68, i64 0, i32 2
  store ptr %1908, ptr %68, align 8, !tbaa !18
  call void @llvm.memcpy.p0.p0.i64(ptr noundef nonnull align 8 dereferenceable(9) %1908, ptr noundef nonnull align 1 dereferenceable(9) @.str.9, i64 9, i1 false)
  %1909 = getelementptr inbounds %"class.std::__cxx11::basic_string", ptr %68, i64 0, i32 1
  store i64 9, ptr %1909, align 8, !tbaa !20
  %1910 = getelementptr inbounds %"class.std::__cxx11::basic_string", ptr %68, i64 0, i32 2, i32 1, i64 1
  store i8 0, ptr %1910, align 1, !tbaa !22
  %1911 = invoke noalias noundef nonnull dereferenceable(32) ptr @_Znwm(i64 noundef 32) #17
          to label %1912 unwind label %3990

1912:                                             ; preds = %1905
  %1913 = invoke noalias noundef nonnull dereferenceable(16) ptr @_Znwm(i64 noundef 16) #17
          to label %1914 unwind label %3992

1914:                                             ; preds = %1912
  store ptr getelementptr inbounds ({ [7 x ptr] }, ptr @_ZTVN12cctki_piraha7LiteralE, i64 0, inrange i32 0, i64 2), ptr %1913, align 8, !tbaa !6
  %1915 = getelementptr inbounds %"class.cctki_piraha::Literal", ptr %1913, i64 0, i32 1
  store i8 91, ptr %1915, align 8, !tbaa !31
  %1916 = invoke noalias noundef nonnull dereferenceable(24) ptr @_Znwm(i64 noundef 24) #17
          to label %1917 unwind label %3992

1917:                                             ; preds = %1914
  %1918 = invoke noalias noundef nonnull dereferenceable(56) ptr @_Znwm(i64 noundef 56) #17
          to label %1919 unwind label %3994

1919:                                             ; preds = %1917
  %1920 = getelementptr inbounds %"class.std::__cxx11::basic_string", ptr %70, i64 0, i32 2
  store ptr %1920, ptr %70, align 8, !tbaa !18
  call void @llvm.memcpy.p0.p0.i64(ptr noundef nonnull align 8 dereferenceable(3) %1920, ptr noundef nonnull align 1 dereferenceable(3) @.str.2, i64 3, i1 false)
  %1921 = getelementptr inbounds %"class.std::__cxx11::basic_string", ptr %70, i64 0, i32 1
  store i64 3, ptr %1921, align 8, !tbaa !20
  %1922 = getelementptr inbounds i8, ptr %70, i64 19
  store i8 0, ptr %1922, align 1, !tbaa !22
  store ptr %1382, ptr %71, align 8, !tbaa !29
  br i1 %1383, label %1926, label %1923

1923:                                             ; preds = %1919
  %1924 = load i32, ptr %1382, align 8, !tbaa !23
  %1925 = add nsw i32 %1924, 1
  store i32 %1925, ptr %1382, align 8, !tbaa !23
  br label %1926

1926:                                             ; preds = %1923, %1919
  invoke void @_ZN12cctki_piraha6LookupC1ENSt7__cxx1112basic_stringIcSt11char_traitsIcESaIcEEENS_9smart_ptrINS_7GrammarEEE(ptr noundef nonnull align 8 dereferenceable(49) %1918, ptr noundef nonnull %70, ptr noundef nonnull %71)
          to label %1927 unwind label %3996

1927:                                             ; preds = %1926
  store ptr getelementptr inbounds ({ [7 x ptr] }, ptr @_ZTVN12cctki_piraha5MultiE, i64 0, inrange i32 0, i64 2), ptr %1916, align 8, !tbaa !6
  %1928 = getelementptr inbounds %"class.cctki_piraha::Multi", ptr %1916, i64 0, i32 1
  store i32 0, ptr %1928, align 8, !tbaa !43
  %1929 = getelementptr inbounds %"class.cctki_piraha::Multi", ptr %1916, i64 0, i32 2
  store i32 1, ptr %1929, align 4, !tbaa !45
  %1930 = invoke noalias noundef nonnull dereferenceable(24) ptr @_Znwm(i64 noundef 24) #17
          to label %1931 unwind label %3996

1931:                                             ; preds = %1927
  store i32 1, ptr %1930, align 8, !tbaa !34
  %1932 = getelementptr inbounds %"class.cctki_piraha::smart_ptr_guts.23", ptr %1930, i64 0, i32 2
  store ptr %1918, ptr %1932, align 8, !tbaa !36
  %1933 = getelementptr inbounds %"class.cctki_piraha::smart_ptr_guts.23", ptr %1930, i64 0, i32 3
  store i8 0, ptr %1933, align 8, !tbaa !37
  %1934 = getelementptr inbounds %"class.cctki_piraha::Multi", ptr %1916, i64 0, i32 3
  store ptr %1930, ptr %1934, align 8, !tbaa !38
  %1935 = invoke noalias noundef nonnull dereferenceable(24) ptr @_Znwm(i64 noundef 24) #17
          to label %1936 unwind label %3996

1936:                                             ; preds = %1931
  %1937 = invoke noalias noundef nonnull dereferenceable(40) ptr @_Znwm(i64 noundef 40) #17
          to label %1938 unwind label %4000

1938:                                             ; preds = %1936
  %1939 = invoke noalias noundef nonnull dereferenceable(56) ptr @_Znwm(i64 noundef 56) #17
          to label %1940 unwind label %4002

1940:                                             ; preds = %1938
  %1941 = getelementptr inbounds %"class.std::__cxx11::basic_string", ptr %72, i64 0, i32 2
  store ptr %1941, ptr %72, align 8, !tbaa !18
  call void @llvm.memcpy.p0.p0.i64(ptr noundef nonnull align 8 dereferenceable(5) %1941, ptr noundef nonnull align 1 dereferenceable(5) @.str.4, i64 5, i1 false)
  %1942 = getelementptr inbounds %"class.std::__cxx11::basic_string", ptr %72, i64 0, i32 1
  store i64 5, ptr %1942, align 8, !tbaa !20
  %1943 = getelementptr inbounds i8, ptr %72, i64 21
  store i8 0, ptr %1943, align 1, !tbaa !22
  store ptr %1382, ptr %73, align 8, !tbaa !29
  br i1 %1383, label %1947, label %1944

1944:                                             ; preds = %1940
  %1945 = load i32, ptr %1382, align 8, !tbaa !23
  %1946 = add nsw i32 %1945, 1
  store i32 %1946, ptr %1382, align 8, !tbaa !23
  br label %1947

1947:                                             ; preds = %1944, %1940
  invoke void @_ZN12cctki_piraha6LookupC1ENSt7__cxx1112basic_stringIcSt11char_traitsIcESaIcEEENS_9smart_ptrINS_7GrammarEEE(ptr noundef nonnull align 8 dereferenceable(49) %1939, ptr noundef nonnull %72, ptr noundef nonnull %73)
          to label %1948 unwind label %4004

1948:                                             ; preds = %1947
  %1949 = invoke noalias noundef nonnull dereferenceable(56) ptr @_Znwm(i64 noundef 56) #17
          to label %1950 unwind label %4004

1950:                                             ; preds = %1948
  %1951 = getelementptr inbounds %"class.std::__cxx11::basic_string", ptr %74, i64 0, i32 2
  store ptr %1951, ptr %74, align 8, !tbaa !18
  call void @llvm.memcpy.p0.p0.i64(ptr noundef nonnull align 8 dereferenceable(5) %1951, ptr noundef nonnull align 1 dereferenceable(5) @.str.20, i64 5, i1 false)
  %1952 = getelementptr inbounds %"class.std::__cxx11::basic_string", ptr %74, i64 0, i32 1
  store i64 5, ptr %1952, align 8, !tbaa !20
  %1953 = getelementptr inbounds i8, ptr %74, i64 21
  store i8 0, ptr %1953, align 1, !tbaa !22
  store ptr %1382, ptr %75, align 8, !tbaa !29
  br i1 %1383, label %1957, label %1954

1954:                                             ; preds = %1950
  %1955 = load i32, ptr %1382, align 8, !tbaa !23
  %1956 = add nsw i32 %1955, 1
  store i32 %1956, ptr %1382, align 8, !tbaa !23
  br label %1957

1957:                                             ; preds = %1954, %1950
  invoke void @_ZN12cctki_piraha6LookupC1ENSt7__cxx1112basic_stringIcSt11char_traitsIcESaIcEEENS_9smart_ptrINS_7GrammarEEE(ptr noundef nonnull align 8 dereferenceable(49) %1949, ptr noundef nonnull %74, ptr noundef nonnull %75)
          to label %1958 unwind label %4007

1958:                                             ; preds = %1957
  invoke void (ptr, ptr, ...) @_ZN12cctki_piraha2OrC1EPNS_7PatternEz(ptr noundef nonnull align 8 dereferenceable(34) %1937, ptr noundef nonnull %1939, ptr noundef nonnull %1949, i64 noundef 0)
          to label %1959 unwind label %4007

1959:                                             ; preds = %1958
  store ptr getelementptr inbounds ({ [7 x ptr] }, ptr @_ZTVN12cctki_piraha5MultiE, i64 0, inrange i32 0, i64 2), ptr %1935, align 8, !tbaa !6
  %1960 = getelementptr inbounds %"class.cctki_piraha::Multi", ptr %1935, i64 0, i32 1
  store i32 0, ptr %1960, align 8, !tbaa !43
  %1961 = getelementptr inbounds %"class.cctki_piraha::Multi", ptr %1935, i64 0, i32 2
  store i32 1, ptr %1961, align 4, !tbaa !45
  %1962 = invoke noalias noundef nonnull dereferenceable(24) ptr @_Znwm(i64 noundef 24) #17
          to label %1963 unwind label %4007

1963:                                             ; preds = %1959
  store i32 1, ptr %1962, align 8, !tbaa !34
  %1964 = getelementptr inbounds %"class.cctki_piraha::smart_ptr_guts.23", ptr %1962, i64 0, i32 2
  store ptr %1937, ptr %1964, align 8, !tbaa !36
  %1965 = getelementptr inbounds %"class.cctki_piraha::smart_ptr_guts.23", ptr %1962, i64 0, i32 3
  store i8 0, ptr %1965, align 8, !tbaa !37
  %1966 = getelementptr inbounds %"class.cctki_piraha::Multi", ptr %1935, i64 0, i32 3
  store ptr %1962, ptr %1966, align 8, !tbaa !38
  %1967 = invoke noalias noundef nonnull dereferenceable(24) ptr @_Znwm(i64 noundef 24) #17
          to label %1968 unwind label %4007

1968:                                             ; preds = %1963
  %1969 = invoke noalias noundef nonnull dereferenceable(40) ptr @_Znwm(i64 noundef 40) #17
          to label %1970 unwind label %4012

1970:                                             ; preds = %1968
  %1971 = invoke noalias noundef nonnull dereferenceable(56) ptr @_Znwm(i64 noundef 56) #17
          to label %1972 unwind label %4014

1972:                                             ; preds = %1970
  %1973 = getelementptr inbounds %"class.std::__cxx11::basic_string", ptr %76, i64 0, i32 2
  store ptr %1973, ptr %76, align 8, !tbaa !18
  call void @llvm.memcpy.p0.p0.i64(ptr noundef nonnull align 8 dereferenceable(5) %1973, ptr noundef nonnull align 1 dereferenceable(5) @.str.4, i64 5, i1 false)
  %1974 = getelementptr inbounds %"class.std::__cxx11::basic_string", ptr %76, i64 0, i32 1
  store i64 5, ptr %1974, align 8, !tbaa !20
  %1975 = getelementptr inbounds i8, ptr %76, i64 21
  store i8 0, ptr %1975, align 1, !tbaa !22
  %1976 = load ptr, ptr %0, align 8, !tbaa !29
  store ptr %1976, ptr %77, align 8, !tbaa !29
  %1977 = icmp eq ptr %1976, null
  br i1 %1977, label %1981, label %1978

1978:                                             ; preds = %1972
  %1979 = load i32, ptr %1976, align 8, !tbaa !23
  %1980 = add nsw i32 %1979, 1
  store i32 %1980, ptr %1976, align 8, !tbaa !23
  br label %1981

1981:                                             ; preds = %1978, %1972
  invoke void @_ZN12cctki_piraha6LookupC1ENSt7__cxx1112basic_stringIcSt11char_traitsIcESaIcEEENS_9smart_ptrINS_7GrammarEEE(ptr noundef nonnull align 8 dereferenceable(49) %1971, ptr noundef nonnull %76, ptr noundef nonnull %77)
          to label %1982 unwind label %4016

1982:                                             ; preds = %1981
  %1983 = invoke noalias noundef nonnull dereferenceable(56) ptr @_Znwm(i64 noundef 56) #17
          to label %1984 unwind label %4016

1984:                                             ; preds = %1982
  %1985 = getelementptr inbounds %"class.std::__cxx11::basic_string", ptr %78, i64 0, i32 2
  store ptr %1985, ptr %78, align 8, !tbaa !18
  call void @llvm.memcpy.p0.p0.i64(ptr noundef nonnull align 8 dereferenceable(5) %1985, ptr noundef nonnull align 1 dereferenceable(5) @.str.5, i64 5, i1 false)
  %1986 = getelementptr inbounds %"class.std::__cxx11::basic_string", ptr %78, i64 0, i32 1
  store i64 5, ptr %1986, align 8, !tbaa !20
  %1987 = getelementptr inbounds i8, ptr %78, i64 21
  store i8 0, ptr %1987, align 1, !tbaa !22
  store ptr %1976, ptr %79, align 8, !tbaa !29
  br i1 %1977, label %1991, label %1988

1988:                                             ; preds = %1984
  %1989 = load i32, ptr %1976, align 8, !tbaa !23
  %1990 = add nsw i32 %1989, 1
  store i32 %1990, ptr %1976, align 8, !tbaa !23
  br label %1991

1991:                                             ; preds = %1988, %1984
  invoke void @_ZN12cctki_piraha6LookupC1ENSt7__cxx1112basic_stringIcSt11char_traitsIcESaIcEEENS_9smart_ptrINS_7GrammarEEE(ptr noundef nonnull align 8 dereferenceable(49) %1983, ptr noundef nonnull %78, ptr noundef nonnull %79)
          to label %1992 unwind label %4019

1992:                                             ; preds = %1991
  invoke void (ptr, ptr, ...) @_ZN12cctki_piraha2OrC1EPNS_7PatternEz(ptr noundef nonnull align 8 dereferenceable(34) %1969, ptr noundef nonnull %1971, ptr noundef nonnull %1983, i64 noundef 0)
          to label %1993 unwind label %4019

1993:                                             ; preds = %1992
  store ptr getelementptr inbounds ({ [7 x ptr] }, ptr @_ZTVN12cctki_piraha5MultiE, i64 0, inrange i32 0, i64 2), ptr %1967, align 8, !tbaa !6
  %1994 = getelementptr inbounds %"class.cctki_piraha::Multi", ptr %1967, i64 0, i32 1
  store i32 0, ptr %1994, align 8, !tbaa !43
  %1995 = getelementptr inbounds %"class.cctki_piraha::Multi", ptr %1967, i64 0, i32 2
  store i32 10000, ptr %1995, align 4, !tbaa !45
  %1996 = invoke noalias noundef nonnull dereferenceable(24) ptr @_Znwm(i64 noundef 24) #17
          to label %1997 unwind label %4019

1997:                                             ; preds = %1993
  store i32 1, ptr %1996, align 8, !tbaa !34
  %1998 = getelementptr inbounds %"class.cctki_piraha::smart_ptr_guts.23", ptr %1996, i64 0, i32 2
  store ptr %1969, ptr %1998, align 8, !tbaa !36
  %1999 = getelementptr inbounds %"class.cctki_piraha::smart_ptr_guts.23", ptr %1996, i64 0, i32 3
  store i8 0, ptr %1999, align 8, !tbaa !37
  %2000 = getelementptr inbounds %"class.cctki_piraha::Multi", ptr %1967, i64 0, i32 3
  store ptr %1996, ptr %2000, align 8, !tbaa !38
  %2001 = invoke noalias noundef nonnull dereferenceable(24) ptr @_Znwm(i64 noundef 24) #17
          to label %2002 unwind label %4019

2002:                                             ; preds = %1997
  %2003 = invoke noalias noundef nonnull dereferenceable(56) ptr @_Znwm(i64 noundef 56) #17
          to label %2004 unwind label %4024

2004:                                             ; preds = %2002
  %2005 = getelementptr inbounds %"class.std::__cxx11::basic_string", ptr %80, i64 0, i32 2
  store ptr %2005, ptr %80, align 8, !tbaa !18
  call void @llvm.memcpy.p0.p0.i64(ptr noundef nonnull align 8 dereferenceable(5) %2005, ptr noundef nonnull align 1 dereferenceable(5) @.str.20, i64 5, i1 false)
  %2006 = getelementptr inbounds %"class.std::__cxx11::basic_string", ptr %80, i64 0, i32 1
  store i64 5, ptr %2006, align 8, !tbaa !20
  %2007 = getelementptr inbounds i8, ptr %80, i64 21
  store i8 0, ptr %2007, align 1, !tbaa !22
  store ptr %1976, ptr %81, align 8, !tbaa !29
  br i1 %1977, label %2011, label %2008

2008:                                             ; preds = %2004
  %2009 = load i32, ptr %1976, align 8, !tbaa !23
  %2010 = add nsw i32 %2009, 1
  store i32 %2010, ptr %1976, align 8, !tbaa !23
  br label %2011

2011:                                             ; preds = %2008, %2004
  invoke void @_ZN12cctki_piraha6LookupC1ENSt7__cxx1112basic_stringIcSt11char_traitsIcESaIcEEENS_9smart_ptrINS_7GrammarEEE(ptr noundef nonnull align 8 dereferenceable(49) %2003, ptr noundef nonnull %80, ptr noundef nonnull %81)
          to label %2012 unwind label %4026

2012:                                             ; preds = %2011
  store ptr getelementptr inbounds ({ [7 x ptr] }, ptr @_ZTVN12cctki_piraha5MultiE, i64 0, inrange i32 0, i64 2), ptr %2001, align 8, !tbaa !6
  %2013 = getelementptr inbounds %"class.cctki_piraha::Multi", ptr %2001, i64 0, i32 1
  store i32 0, ptr %2013, align 8, !tbaa !43
  %2014 = getelementptr inbounds %"class.cctki_piraha::Multi", ptr %2001, i64 0, i32 2
  store i32 1, ptr %2014, align 4, !tbaa !45
  %2015 = invoke noalias noundef nonnull dereferenceable(24) ptr @_Znwm(i64 noundef 24) #17
          to label %2016 unwind label %4026

2016:                                             ; preds = %2012
  store i32 1, ptr %2015, align 8, !tbaa !34
  %2017 = getelementptr inbounds %"class.cctki_piraha::smart_ptr_guts.23", ptr %2015, i64 0, i32 2
  store ptr %2003, ptr %2017, align 8, !tbaa !36
  %2018 = getelementptr inbounds %"class.cctki_piraha::smart_ptr_guts.23", ptr %2015, i64 0, i32 3
  store i8 0, ptr %2018, align 8, !tbaa !37
  %2019 = getelementptr inbounds %"class.cctki_piraha::Multi", ptr %2001, i64 0, i32 3
  store ptr %2015, ptr %2019, align 8, !tbaa !38
  %2020 = invoke noalias noundef nonnull dereferenceable(16) ptr @_Znwm(i64 noundef 16) #17
          to label %2021 unwind label %4026

2021:                                             ; preds = %2016
  store ptr getelementptr inbounds ({ [7 x ptr] }, ptr @_ZTVN12cctki_piraha7LiteralE, i64 0, inrange i32 0, i64 2), ptr %2020, align 8, !tbaa !6
  %2022 = getelementptr inbounds %"class.cctki_piraha::Literal", ptr %2020, i64 0, i32 1
  store i8 93, ptr %2022, align 8, !tbaa !31
  invoke void (ptr, ptr, ...) @_ZN12cctki_piraha3SeqC1EPNS_7PatternEz(ptr noundef nonnull align 8 dereferenceable(32) %1911, ptr noundef nonnull %1913, ptr noundef nonnull %1916, ptr noundef nonnull %1935, ptr noundef nonnull %1967, ptr noundef nonnull %2001, ptr noundef nonnull %2020, i64 noundef 0)
          to label %2023 unwind label %4026

2023:                                             ; preds = %2021
  %2024 = invoke noalias noundef nonnull dereferenceable(24) ptr @_Znwm(i64 noundef 24) #17
          to label %2025 unwind label %4026

2025:                                             ; preds = %2023
  store i32 1, ptr %2024, align 8, !tbaa !34
  %2026 = getelementptr inbounds %"class.cctki_piraha::smart_ptr_guts.23", ptr %2024, i64 0, i32 2
  store ptr %1911, ptr %2026, align 8, !tbaa !36
  %2027 = getelementptr inbounds %"class.cctki_piraha::smart_ptr_guts.23", ptr %2024, i64 0, i32 3
  store i8 0, ptr %2027, align 8, !tbaa !37
  store ptr %2024, ptr %69, align 8, !tbaa !38
  %2028 = invoke noundef nonnull align 8 dereferenceable(8) ptr @_ZNSt3mapINSt7__cxx1112basic_stringIcSt11char_traitsIcESaIcEEEN12cctki_piraha9smart_ptrINS6_7PatternEEESt4lessIS5_ESaISt4pairIKS5_S9_EEEixERSD_(ptr noundef nonnull align 8 dereferenceable(48) %1907, ptr noundef nonnull align 8 dereferenceable(32) %68)
          to label %2029 unwind label %4031

2029:                                             ; preds = %2025
  %2030 = load ptr, ptr %2028, align 8, !tbaa !38
  %2031 = icmp eq ptr %2030, null
  br i1 %2031, label %2053, label %2032

2032:                                             ; preds = %2029
  %2033 = load i32, ptr %2030, align 8, !tbaa !34
  %2034 = icmp sgt i32 %2033, 0
  br i1 %2034, label %2035, label %2053

2035:                                             ; preds = %2032
  %2036 = add nsw i32 %2033, -1
  store i32 %2036, ptr %2030, align 8, !tbaa !34
  %2037 = icmp eq i32 %2033, 1
  br i1 %2037, label %2038, label %2053

2038:                                             ; preds = %2035
  %2039 = getelementptr inbounds %"class.cctki_piraha::smart_ptr_guts.23", ptr %2030, i64 0, i32 2
  %2040 = load ptr, ptr %2039, align 8, !tbaa !36
  %2041 = icmp eq ptr %2040, null
  br i1 %2041, label %2052, label %2042

2042:                                             ; preds = %2038
  %2043 = getelementptr inbounds %"class.cctki_piraha::smart_ptr_guts.23", ptr %2030, i64 0, i32 3
  %2044 = load i8, ptr %2043, align 8, !tbaa !37, !range !40, !noundef !41
  %2045 = icmp eq i8 %2044, 0
  br i1 %2045, label %2048, label %2046

2046:                                             ; preds = %2042
  %2047 = getelementptr inbounds i8, ptr %2040, i64 -8
  call void @_ZdaPv(ptr noundef nonnull %2047) #18
  br label %2052

2048:                                             ; preds = %2042
  %2049 = load ptr, ptr %2040, align 8, !tbaa !6
  %2050 = getelementptr inbounds ptr, ptr %2049, i64 2
  %2051 = load ptr, ptr %2050, align 8
  call void %2051(ptr noundef nonnull align 8 dereferenceable(8) %2040) #19
  br label %2052

2052:                                             ; preds = %2048, %2046, %2038
  call void @_ZdlPv(ptr noundef nonnull %2030) #18
  store ptr null, ptr %2028, align 8, !tbaa !38
  br label %2053

2053:                                             ; preds = %2052, %2035, %2032, %2029
  %2054 = load ptr, ptr %69, align 8, !tbaa !38
  store ptr %2054, ptr %2028, align 8, !tbaa !38
  %2055 = icmp eq ptr %2054, null
  br i1 %2055, label %2059, label %2056

2056:                                             ; preds = %2053
  %2057 = load i32, ptr %2054, align 8, !tbaa !34
  %2058 = add nsw i32 %2057, 1
  store i32 %2058, ptr %2054, align 8, !tbaa !34
  br label %2059

2059:                                             ; preds = %2056, %2053
  %2060 = load ptr, ptr %69, align 8, !tbaa !38
  %2061 = icmp eq ptr %2060, null
  br i1 %2061, label %2083, label %2062

2062:                                             ; preds = %2059
  %2063 = load i32, ptr %2060, align 8, !tbaa !34
  %2064 = icmp sgt i32 %2063, 0
  br i1 %2064, label %2065, label %2083

2065:                                             ; preds = %2062
  %2066 = add nsw i32 %2063, -1
  store i32 %2066, ptr %2060, align 8, !tbaa !34
  %2067 = icmp eq i32 %2063, 1
  br i1 %2067, label %2068, label %2083

2068:                                             ; preds = %2065
  %2069 = getelementptr inbounds %"class.cctki_piraha::smart_ptr_guts.23", ptr %2060, i64 0, i32 2
  %2070 = load ptr, ptr %2069, align 8, !tbaa !36
  %2071 = icmp eq ptr %2070, null
  br i1 %2071, label %2082, label %2072

2072:                                             ; preds = %2068
  %2073 = getelementptr inbounds %"class.cctki_piraha::smart_ptr_guts.23", ptr %2060, i64 0, i32 3
  %2074 = load i8, ptr %2073, align 8, !tbaa !37, !range !40, !noundef !41
  %2075 = icmp eq i8 %2074, 0
  br i1 %2075, label %2078, label %2076

2076:                                             ; preds = %2072
  %2077 = getelementptr inbounds i8, ptr %2070, i64 -8
  call void @_ZdaPv(ptr noundef nonnull %2077) #18
  br label %2082

2078:                                             ; preds = %2072
  %2079 = load ptr, ptr %2070, align 8, !tbaa !6
  %2080 = getelementptr inbounds ptr, ptr %2079, i64 2
  %2081 = load ptr, ptr %2080, align 8
  call void %2081(ptr noundef nonnull align 8 dereferenceable(8) %2070) #19
  br label %2082

2082:                                             ; preds = %2078, %2076, %2068
  call void @_ZdlPv(ptr noundef nonnull %2060) #18
  store ptr null, ptr %69, align 8, !tbaa !38
  br label %2083

2083:                                             ; preds = %2059, %2062, %2065, %2082
  invoke void @_ZN12cctki_piraha9smart_ptrINS_7GrammarEE5cleanEv(ptr noundef nonnull align 8 dereferenceable(8) %81)
          to label %2087 unwind label %2084

2084:                                             ; preds = %2083
  %2085 = landingpad { ptr, i32 }
          catch ptr null
  %2086 = extractvalue { ptr, i32 } %2085, 0
  call void @__clang_call_terminate(ptr %2086) #20
  unreachable

2087:                                             ; preds = %2083
  %2088 = load ptr, ptr %80, align 8, !tbaa !42
  %2089 = icmp eq ptr %2088, %2005
  br i1 %2089, label %2090, label %2093

2090:                                             ; preds = %2087
  %2091 = load i64, ptr %2006, align 8, !tbaa !20
  %2092 = icmp ult i64 %2091, 16
  call void @llvm.assume(i1 %2092)
  br label %2094

2093:                                             ; preds = %2087
  call void @_ZdlPv(ptr noundef %2088) #18
  br label %2094

2094:                                             ; preds = %2090, %2093
  invoke void @_ZN12cctki_piraha9smart_ptrINS_7GrammarEE5cleanEv(ptr noundef nonnull align 8 dereferenceable(8) %79)
          to label %2098 unwind label %2095

2095:                                             ; preds = %2094
  %2096 = landingpad { ptr, i32 }
          catch ptr null
  %2097 = extractvalue { ptr, i32 } %2096, 0
  call void @__clang_call_terminate(ptr %2097) #20
  unreachable

2098:                                             ; preds = %2094
  %2099 = load ptr, ptr %78, align 8, !tbaa !42
  %2100 = icmp eq ptr %2099, %1985
  br i1 %2100, label %2101, label %2104

2101:                                             ; preds = %2098
  %2102 = load i64, ptr %1986, align 8, !tbaa !20
  %2103 = icmp ult i64 %2102, 16
  call void @llvm.assume(i1 %2103)
  br label %2105

2104:                                             ; preds = %2098
  call void @_ZdlPv(ptr noundef %2099) #18
  br label %2105

2105:                                             ; preds = %2101, %2104
  invoke void @_ZN12cctki_piraha9smart_ptrINS_7GrammarEE5cleanEv(ptr noundef nonnull align 8 dereferenceable(8) %77)
          to label %2109 unwind label %2106

2106:                                             ; preds = %2105
  %2107 = landingpad { ptr, i32 }
          catch ptr null
  %2108 = extractvalue { ptr, i32 } %2107, 0
  call void @__clang_call_terminate(ptr %2108) #20
  unreachable

2109:                                             ; preds = %2105
  %2110 = load ptr, ptr %76, align 8, !tbaa !42
  %2111 = icmp eq ptr %2110, %1973
  br i1 %2111, label %2112, label %2115

2112:                                             ; preds = %2109
  %2113 = load i64, ptr %1974, align 8, !tbaa !20
  %2114 = icmp ult i64 %2113, 16
  call void @llvm.assume(i1 %2114)
  br label %2116

2115:                                             ; preds = %2109
  call void @_ZdlPv(ptr noundef %2110) #18
  br label %2116

2116:                                             ; preds = %2112, %2115
  invoke void @_ZN12cctki_piraha9smart_ptrINS_7GrammarEE5cleanEv(ptr noundef nonnull align 8 dereferenceable(8) %75)
          to label %2120 unwind label %2117

2117:                                             ; preds = %2116
  %2118 = landingpad { ptr, i32 }
          catch ptr null
  %2119 = extractvalue { ptr, i32 } %2118, 0
  call void @__clang_call_terminate(ptr %2119) #20
  unreachable

2120:                                             ; preds = %2116
  %2121 = load ptr, ptr %74, align 8, !tbaa !42
  %2122 = icmp eq ptr %2121, %1951
  br i1 %2122, label %2123, label %2126

2123:                                             ; preds = %2120
  %2124 = load i64, ptr %1952, align 8, !tbaa !20
  %2125 = icmp ult i64 %2124, 16
  call void @llvm.assume(i1 %2125)
  br label %2127

2126:                                             ; preds = %2120
  call void @_ZdlPv(ptr noundef %2121) #18
  br label %2127

2127:                                             ; preds = %2123, %2126
  invoke void @_ZN12cctki_piraha9smart_ptrINS_7GrammarEE5cleanEv(ptr noundef nonnull align 8 dereferenceable(8) %73)
          to label %2131 unwind label %2128

2128:                                             ; preds = %2127
  %2129 = landingpad { ptr, i32 }
          catch ptr null
  %2130 = extractvalue { ptr, i32 } %2129, 0
  call void @__clang_call_terminate(ptr %2130) #20
  unreachable

2131:                                             ; preds = %2127
  %2132 = load ptr, ptr %72, align 8, !tbaa !42
  %2133 = icmp eq ptr %2132, %1941
  br i1 %2133, label %2134, label %2137

2134:                                             ; preds = %2131
  %2135 = load i64, ptr %1942, align 8, !tbaa !20
  %2136 = icmp ult i64 %2135, 16
  call void @llvm.assume(i1 %2136)
  br label %2138

2137:                                             ; preds = %2131
  call void @_ZdlPv(ptr noundef %2132) #18
  br label %2138

2138:                                             ; preds = %2134, %2137
  invoke void @_ZN12cctki_piraha9smart_ptrINS_7GrammarEE5cleanEv(ptr noundef nonnull align 8 dereferenceable(8) %71)
          to label %2142 unwind label %2139

2139:                                             ; preds = %2138
  %2140 = landingpad { ptr, i32 }
          catch ptr null
  %2141 = extractvalue { ptr, i32 } %2140, 0
  call void @__clang_call_terminate(ptr %2141) #20
  unreachable

2142:                                             ; preds = %2138
  %2143 = load ptr, ptr %70, align 8, !tbaa !42
  %2144 = icmp eq ptr %2143, %1920
  br i1 %2144, label %2145, label %2148

2145:                                             ; preds = %2142
  %2146 = load i64, ptr %1921, align 8, !tbaa !20
  %2147 = icmp ult i64 %2146, 16
  call void @llvm.assume(i1 %2147)
  br label %2149

2148:                                             ; preds = %2142
  call void @_ZdlPv(ptr noundef %2143) #18
  br label %2149

2149:                                             ; preds = %2145, %2148
  %2150 = load ptr, ptr %68, align 8, !tbaa !42
  %2151 = icmp eq ptr %2150, %1908
  br i1 %2151, label %2152, label %2155

2152:                                             ; preds = %2149
  %2153 = load i64, ptr %1909, align 8, !tbaa !20
  %2154 = icmp ult i64 %2153, 16
  call void @llvm.assume(i1 %2154)
  br label %2156

2155:                                             ; preds = %2149
  call void @_ZdlPv(ptr noundef %2150) #18
  br label %2156

2156:                                             ; preds = %2152, %2155
  br i1 %1977, label %2160, label %2157

2157:                                             ; preds = %2156
  %2158 = getelementptr inbounds %"class.cctki_piraha::smart_ptr_guts", ptr %1976, i64 0, i32 2
  %2159 = load ptr, ptr %2158, align 8, !tbaa !27
  br label %2160

2160:                                             ; preds = %2156, %2157
  %2161 = phi ptr [ %2159, %2157 ], [ null, %2156 ]
  %2162 = getelementptr inbounds %"class.cctki_piraha::Grammar", ptr %2161, i64 0, i32 1
  %2163 = getelementptr inbounds %"class.std::__cxx11::basic_string", ptr %82, i64 0, i32 2
  store ptr %2163, ptr %82, align 8, !tbaa !18
  store i64 8674334704127800689, ptr %2163, align 8
  %2164 = getelementptr inbounds %"class.std::__cxx11::basic_string", ptr %82, i64 0, i32 1
  store i64 8, ptr %2164, align 8, !tbaa !20
  %2165 = getelementptr inbounds %"class.std::__cxx11::basic_string", ptr %82, i64 0, i32 2, i32 1
  store i8 0, ptr %2165, align 8, !tbaa !22
  %2166 = invoke noalias noundef nonnull dereferenceable(32) ptr @_Znwm(i64 noundef 32) #17
          to label %2167 unwind label %4162

2167:                                             ; preds = %2160
  %2168 = invoke noalias noundef nonnull dereferenceable(16) ptr @_Znwm(i64 noundef 16) #17
          to label %2169 unwind label %4164

2169:                                             ; preds = %2167
  store ptr getelementptr inbounds ({ [7 x ptr] }, ptr @_ZTVN12cctki_piraha7LiteralE, i64 0, inrange i32 0, i64 2), ptr %2168, align 8, !tbaa !6
  %2170 = getelementptr inbounds %"class.cctki_piraha::Literal", ptr %2168, i64 0, i32 1
  store i8 44, ptr %2170, align 8, !tbaa !31
  %2171 = invoke noalias noundef nonnull dereferenceable(24) ptr @_Znwm(i64 noundef 24) #17
          to label %2172 unwind label %4164

2172:                                             ; preds = %2169
  %2173 = invoke noalias noundef nonnull dereferenceable(56) ptr @_Znwm(i64 noundef 56) #17
          to label %2174 unwind label %4166

2174:                                             ; preds = %2172
  %2175 = getelementptr inbounds %"class.std::__cxx11::basic_string", ptr %84, i64 0, i32 2
  store ptr %2175, ptr %84, align 8, !tbaa !18
  call void @llvm.memcpy.p0.p0.i64(ptr noundef nonnull align 8 dereferenceable(3) %2175, ptr noundef nonnull align 1 dereferenceable(3) @.str.24, i64 3, i1 false)
  %2176 = getelementptr inbounds %"class.std::__cxx11::basic_string", ptr %84, i64 0, i32 1
  store i64 3, ptr %2176, align 8, !tbaa !20
  %2177 = getelementptr inbounds i8, ptr %84, i64 19
  store i8 0, ptr %2177, align 1, !tbaa !22
  store ptr %1976, ptr %85, align 8, !tbaa !29
  br i1 %1977, label %2181, label %2178

2178:                                             ; preds = %2174
  %2179 = load i32, ptr %1976, align 8, !tbaa !23
  %2180 = add nsw i32 %2179, 1
  store i32 %2180, ptr %1976, align 8, !tbaa !23
  br label %2181

2181:                                             ; preds = %2178, %2174
  invoke void @_ZN12cctki_piraha6LookupC1ENSt7__cxx1112basic_stringIcSt11char_traitsIcESaIcEEENS_9smart_ptrINS_7GrammarEEE(ptr noundef nonnull align 8 dereferenceable(49) %2173, ptr noundef nonnull %84, ptr noundef nonnull %85)
          to label %2182 unwind label %4168

2182:                                             ; preds = %2181
  store ptr getelementptr inbounds ({ [7 x ptr] }, ptr @_ZTVN12cctki_piraha5MultiE, i64 0, inrange i32 0, i64 2), ptr %2171, align 8, !tbaa !6
  %2183 = getelementptr inbounds %"class.cctki_piraha::Multi", ptr %2171, i64 0, i32 1
  store i32 0, ptr %2183, align 8, !tbaa !43
  %2184 = getelementptr inbounds %"class.cctki_piraha::Multi", ptr %2171, i64 0, i32 2
  store i32 1, ptr %2184, align 4, !tbaa !45
  %2185 = invoke noalias noundef nonnull dereferenceable(24) ptr @_Znwm(i64 noundef 24) #17
          to label %2186 unwind label %4168

2186:                                             ; preds = %2182
  store i32 1, ptr %2185, align 8, !tbaa !34
  %2187 = getelementptr inbounds %"class.cctki_piraha::smart_ptr_guts.23", ptr %2185, i64 0, i32 2
  store ptr %2173, ptr %2187, align 8, !tbaa !36
  %2188 = getelementptr inbounds %"class.cctki_piraha::smart_ptr_guts.23", ptr %2185, i64 0, i32 3
  store i8 0, ptr %2188, align 8, !tbaa !37
  %2189 = getelementptr inbounds %"class.cctki_piraha::Multi", ptr %2171, i64 0, i32 3
  store ptr %2185, ptr %2189, align 8, !tbaa !38
  invoke void (ptr, ptr, ...) @_ZN12cctki_piraha3SeqC1EPNS_7PatternEz(ptr noundef nonnull align 8 dereferenceable(32) %2166, ptr noundef nonnull %2168, ptr noundef nonnull %2171, i64 noundef 0)
          to label %2190 unwind label %4168

2190:                                             ; preds = %2186
  %2191 = invoke noalias noundef nonnull dereferenceable(24) ptr @_Znwm(i64 noundef 24) #17
          to label %2192 unwind label %4168

2192:                                             ; preds = %2190
  store i32 1, ptr %2191, align 8, !tbaa !34
  %2193 = getelementptr inbounds %"class.cctki_piraha::smart_ptr_guts.23", ptr %2191, i64 0, i32 2
  store ptr %2166, ptr %2193, align 8, !tbaa !36
  %2194 = getelementptr inbounds %"class.cctki_piraha::smart_ptr_guts.23", ptr %2191, i64 0, i32 3
  store i8 0, ptr %2194, align 8, !tbaa !37
  store ptr %2191, ptr %83, align 8, !tbaa !38
  %2195 = invoke noundef nonnull align 8 dereferenceable(8) ptr @_ZNSt3mapINSt7__cxx1112basic_stringIcSt11char_traitsIcESaIcEEEN12cctki_piraha9smart_ptrINS6_7PatternEEESt4lessIS5_ESaISt4pairIKS5_S9_EEEixERSD_(ptr noundef nonnull align 8 dereferenceable(48) %2162, ptr noundef nonnull align 8 dereferenceable(32) %82)
          to label %2196 unwind label %4173

2196:                                             ; preds = %2192
  %2197 = load ptr, ptr %2195, align 8, !tbaa !38
  %2198 = icmp eq ptr %2197, null
  br i1 %2198, label %2219, label %2199

2199:                                             ; preds = %2196
  %2200 = load i32, ptr %2197, align 8, !tbaa !34
  %2201 = icmp sgt i32 %2200, 0
  br i1 %2201, label %2202, label %2219

2202:                                             ; preds = %2199
  %2203 = add nsw i32 %2200, -1
  store i32 %2203, ptr %2197, align 8, !tbaa !34
  %2204 = icmp eq i32 %2200, 1
  br i1 %2204, label %2205, label %2219

2205:                                             ; preds = %2202
  %2206 = getelementptr inbounds %"class.cctki_piraha::smart_ptr_guts.23", ptr %2197, i64 0, i32 2
  %2207 = load ptr, ptr %2206, align 8, !tbaa !36
  %2208 = icmp eq ptr %2207, null
  br i1 %2208, label %2220, label %2209

2209:                                             ; preds = %2205
  %2210 = getelementptr inbounds %"class.cctki_piraha::smart_ptr_guts.23", ptr %2197, i64 0, i32 3
  %2211 = load i8, ptr %2210, align 8, !tbaa !37, !range !40, !noundef !41
  %2212 = icmp eq i8 %2211, 0
  br i1 %2212, label %2215, label %2213

2213:                                             ; preds = %2209
  %2214 = getelementptr inbounds i8, ptr %2207, i64 -8
  call void @_ZdaPv(ptr noundef nonnull %2214) #18
  br label %2220

2215:                                             ; preds = %2209
  %2216 = load ptr, ptr %2207, align 8, !tbaa !6
  %2217 = getelementptr inbounds ptr, ptr %2216, i64 2
  %2218 = load ptr, ptr %2217, align 8
  call void %2218(ptr noundef nonnull align 8 dereferenceable(8) %2207) #19
  br label %2220

2219:                                             ; preds = %2202, %2199, %2196
  store ptr %2191, ptr %2195, align 8, !tbaa !38
  br label %2223

2220:                                             ; preds = %2205, %2213, %2215
  call void @_ZdlPv(ptr noundef nonnull %2197) #18
  %2221 = load ptr, ptr %83, align 8, !tbaa !38
  store ptr %2221, ptr %2195, align 8, !tbaa !38
  %2222 = icmp eq ptr %2221, null
  br i1 %2222, label %2227, label %2223

2223:                                             ; preds = %2219, %2220
  %2224 = phi ptr [ %2191, %2219 ], [ %2221, %2220 ]
  %2225 = load i32, ptr %2224, align 8, !tbaa !34
  %2226 = add nsw i32 %2225, 1
  store i32 %2226, ptr %2224, align 8, !tbaa !34
  br label %2227

2227:                                             ; preds = %2223, %2220
  %2228 = load ptr, ptr %83, align 8, !tbaa !38
  %2229 = icmp eq ptr %2228, null
  br i1 %2229, label %2251, label %2230

2230:                                             ; preds = %2227
  %2231 = load i32, ptr %2228, align 8, !tbaa !34
  %2232 = icmp sgt i32 %2231, 0
  br i1 %2232, label %2233, label %2251

2233:                                             ; preds = %2230
  %2234 = add nsw i32 %2231, -1
  store i32 %2234, ptr %2228, align 8, !tbaa !34
  %2235 = icmp eq i32 %2231, 1
  br i1 %2235, label %2236, label %2251

2236:                                             ; preds = %2233
  %2237 = getelementptr inbounds %"class.cctki_piraha::smart_ptr_guts.23", ptr %2228, i64 0, i32 2
  %2238 = load ptr, ptr %2237, align 8, !tbaa !36
  %2239 = icmp eq ptr %2238, null
  br i1 %2239, label %2250, label %2240

2240:                                             ; preds = %2236
  %2241 = getelementptr inbounds %"class.cctki_piraha::smart_ptr_guts.23", ptr %2228, i64 0, i32 3
  %2242 = load i8, ptr %2241, align 8, !tbaa !37, !range !40, !noundef !41
  %2243 = icmp eq i8 %2242, 0
  br i1 %2243, label %2246, label %2244

2244:                                             ; preds = %2240
  %2245 = getelementptr inbounds i8, ptr %2238, i64 -8
  call void @_ZdaPv(ptr noundef nonnull %2245) #18
  br label %2250

2246:                                             ; preds = %2240
  %2247 = load ptr, ptr %2238, align 8, !tbaa !6
  %2248 = getelementptr inbounds ptr, ptr %2247, i64 2
  %2249 = load ptr, ptr %2248, align 8
  call void %2249(ptr noundef nonnull align 8 dereferenceable(8) %2238) #19
  br label %2250

2250:                                             ; preds = %2246, %2244, %2236
  call void @_ZdlPv(ptr noundef nonnull %2228) #18
  store ptr null, ptr %83, align 8, !tbaa !38
  br label %2251

2251:                                             ; preds = %2227, %2230, %2233, %2250
  invoke void @_ZN12cctki_piraha9smart_ptrINS_7GrammarEE5cleanEv(ptr noundef nonnull align 8 dereferenceable(8) %85)
          to label %2255 unwind label %2252

2252:                                             ; preds = %2251
  %2253 = landingpad { ptr, i32 }
          catch ptr null
  %2254 = extractvalue { ptr, i32 } %2253, 0
  call void @__clang_call_terminate(ptr %2254) #20
  unreachable

2255:                                             ; preds = %2251
  %2256 = load ptr, ptr %84, align 8, !tbaa !42
  %2257 = icmp eq ptr %2256, %2175
  br i1 %2257, label %2258, label %2261

2258:                                             ; preds = %2255
  %2259 = load i64, ptr %2176, align 8, !tbaa !20
  %2260 = icmp ult i64 %2259, 16
  call void @llvm.assume(i1 %2260)
  br label %2262

2261:                                             ; preds = %2255
  call void @_ZdlPv(ptr noundef %2256) #18
  br label %2262

2262:                                             ; preds = %2258, %2261
  %2263 = load ptr, ptr %82, align 8, !tbaa !42
  %2264 = icmp eq ptr %2263, %2163
  br i1 %2264, label %2265, label %2268

2265:                                             ; preds = %2262
  %2266 = load i64, ptr %2164, align 8, !tbaa !20
  %2267 = icmp ult i64 %2266, 16
  call void @llvm.assume(i1 %2267)
  br label %2269

2268:                                             ; preds = %2262
  call void @_ZdlPv(ptr noundef %2263) #18
  br label %2269

2269:                                             ; preds = %2265, %2268
  br i1 %1977, label %2273, label %2270

2270:                                             ; preds = %2269
  %2271 = getelementptr inbounds %"class.cctki_piraha::smart_ptr_guts", ptr %1976, i64 0, i32 2
  %2272 = load ptr, ptr %2271, align 8, !tbaa !27
  br label %2273

2273:                                             ; preds = %2269, %2270
  %2274 = phi ptr [ %2272, %2270 ], [ null, %2269 ]
  %2275 = getelementptr inbounds %"class.cctki_piraha::Grammar", ptr %2274, i64 0, i32 1
  %2276 = getelementptr inbounds %"class.std::__cxx11::basic_string", ptr %86, i64 0, i32 2
  store ptr %2276, ptr %86, align 8, !tbaa !18
  call void @llvm.memcpy.p0.p0.i64(ptr noundef nonnull align 8 dereferenceable(6) %2276, ptr noundef nonnull align 1 dereferenceable(6) @.str.16, i64 6, i1 false)
  %2277 = getelementptr inbounds %"class.std::__cxx11::basic_string", ptr %86, i64 0, i32 1
  store i64 6, ptr %2277, align 8, !tbaa !20
  %2278 = getelementptr inbounds i8, ptr %86, i64 22
  store i8 0, ptr %2278, align 2, !tbaa !22
  %2279 = invoke noalias noundef nonnull dereferenceable(32) ptr @_Znwm(i64 noundef 32) #17
          to label %2280 unwind label %4204

2280:                                             ; preds = %2273
  %2281 = invoke noalias noundef nonnull dereferenceable(56) ptr @_Znwm(i64 noundef 56) #17
          to label %2282 unwind label %4206

2282:                                             ; preds = %2280
  %2283 = getelementptr inbounds %"class.std::__cxx11::basic_string", ptr %88, i64 0, i32 2
  store ptr %2283, ptr %88, align 8, !tbaa !18
  call void @llvm.memcpy.p0.p0.i64(ptr noundef nonnull align 8 dereferenceable(5) %2283, ptr noundef nonnull align 1 dereferenceable(5) @.str.6, i64 5, i1 false)
  %2284 = getelementptr inbounds %"class.std::__cxx11::basic_string", ptr %88, i64 0, i32 1
  store i64 5, ptr %2284, align 8, !tbaa !20
  %2285 = getelementptr inbounds i8, ptr %88, i64 21
  store i8 0, ptr %2285, align 1, !tbaa !22
  store ptr %1976, ptr %89, align 8, !tbaa !29
  br i1 %1977, label %2289, label %2286

2286:                                             ; preds = %2282
  %2287 = load i32, ptr %1976, align 8, !tbaa !23
  %2288 = add nsw i32 %2287, 1
  store i32 %2288, ptr %1976, align 8, !tbaa !23
  br label %2289

2289:                                             ; preds = %2286, %2282
  invoke void @_ZN12cctki_piraha6LookupC1ENSt7__cxx1112basic_stringIcSt11char_traitsIcESaIcEEENS_9smart_ptrINS_7GrammarEEE(ptr noundef nonnull align 8 dereferenceable(49) %2281, ptr noundef nonnull %88, ptr noundef nonnull %89)
          to label %2290 unwind label %4208

2290:                                             ; preds = %2289
  %2291 = invoke noalias noundef nonnull dereferenceable(24) ptr @_Znwm(i64 noundef 24) #17
          to label %2292 unwind label %4208

2292:                                             ; preds = %2290
  %2293 = invoke noalias noundef nonnull dereferenceable(56) ptr @_Znwm(i64 noundef 56) #17
          to label %2294 unwind label %4211

2294:                                             ; preds = %2292
  %2295 = getelementptr inbounds %"class.std::__cxx11::basic_string", ptr %90, i64 0, i32 2
  store ptr %2295, ptr %90, align 8, !tbaa !18
  call void @llvm.memcpy.p0.p0.i64(ptr noundef nonnull align 8 dereferenceable(5) %2295, ptr noundef nonnull align 1 dereferenceable(5) @.str.6, i64 5, i1 false)
  %2296 = getelementptr inbounds %"class.std::__cxx11::basic_string", ptr %90, i64 0, i32 1
  store i64 5, ptr %2296, align 8, !tbaa !20
  %2297 = getelementptr inbounds i8, ptr %90, i64 21
  store i8 0, ptr %2297, align 1, !tbaa !22
  store ptr %1976, ptr %91, align 8, !tbaa !29
  br i1 %1977, label %2301, label %2298

2298:                                             ; preds = %2294
  %2299 = load i32, ptr %1976, align 8, !tbaa !23
  %2300 = add nsw i32 %2299, 1
  store i32 %2300, ptr %1976, align 8, !tbaa !23
  br label %2301

2301:                                             ; preds = %2298, %2294
  invoke void @_ZN12cctki_piraha6LookupC1ENSt7__cxx1112basic_stringIcSt11char_traitsIcESaIcEEENS_9smart_ptrINS_7GrammarEEE(ptr noundef nonnull align 8 dereferenceable(49) %2293, ptr noundef nonnull %90, ptr noundef nonnull %91)
          to label %2302 unwind label %4213

2302:                                             ; preds = %2301
  store ptr getelementptr inbounds ({ [7 x ptr] }, ptr @_ZTVN12cctki_piraha5MultiE, i64 0, inrange i32 0, i64 2), ptr %2291, align 8, !tbaa !6
  %2303 = getelementptr inbounds %"class.cctki_piraha::Multi", ptr %2291, i64 0, i32 1
  store i32 0, ptr %2303, align 8, !tbaa !43
  %2304 = getelementptr inbounds %"class.cctki_piraha::Multi", ptr %2291, i64 0, i32 2
  store i32 10000, ptr %2304, align 4, !tbaa !45
  %2305 = invoke noalias noundef nonnull dereferenceable(24) ptr @_Znwm(i64 noundef 24) #17
          to label %2306 unwind label %4213

2306:                                             ; preds = %2302
  store i32 1, ptr %2305, align 8, !tbaa !34
  %2307 = getelementptr inbounds %"class.cctki_piraha::smart_ptr_guts.23", ptr %2305, i64 0, i32 2
  store ptr %2293, ptr %2307, align 8, !tbaa !36
  %2308 = getelementptr inbounds %"class.cctki_piraha::smart_ptr_guts.23", ptr %2305, i64 0, i32 3
  store i8 0, ptr %2308, align 8, !tbaa !37
  %2309 = getelementptr inbounds %"class.cctki_piraha::Multi", ptr %2291, i64 0, i32 3
  store ptr %2305, ptr %2309, align 8, !tbaa !38
  invoke void (ptr, ptr, ...) @_ZN12cctki_piraha3SeqC1EPNS_7PatternEz(ptr noundef nonnull align 8 dereferenceable(32) %2279, ptr noundef nonnull %2281, ptr noundef nonnull %2291, i64 noundef 0)
          to label %2310 unwind label %4213

2310:                                             ; preds = %2306
  %2311 = invoke noalias noundef nonnull dereferenceable(24) ptr @_Znwm(i64 noundef 24) #17
          to label %2312 unwind label %4213

2312:                                             ; preds = %2310
  store i32 1, ptr %2311, align 8, !tbaa !34
  %2313 = getelementptr inbounds %"class.cctki_piraha::smart_ptr_guts.23", ptr %2311, i64 0, i32 2
  store ptr %2279, ptr %2313, align 8, !tbaa !36
  %2314 = getelementptr inbounds %"class.cctki_piraha::smart_ptr_guts.23", ptr %2311, i64 0, i32 3
  store i8 0, ptr %2314, align 8, !tbaa !37
  store ptr %2311, ptr %87, align 8, !tbaa !38
  %2315 = invoke noundef nonnull align 8 dereferenceable(8) ptr @_ZNSt3mapINSt7__cxx1112basic_stringIcSt11char_traitsIcESaIcEEEN12cctki_piraha9smart_ptrINS6_7PatternEEESt4lessIS5_ESaISt4pairIKS5_S9_EEEixERSD_(ptr noundef nonnull align 8 dereferenceable(48) %2275, ptr noundef nonnull align 8 dereferenceable(32) %86)
          to label %2316 unwind label %4218

2316:                                             ; preds = %2312
  %2317 = load ptr, ptr %2315, align 8, !tbaa !38
  %2318 = icmp eq ptr %2317, null
  br i1 %2318, label %2339, label %2319

2319:                                             ; preds = %2316
  %2320 = load i32, ptr %2317, align 8, !tbaa !34
  %2321 = icmp sgt i32 %2320, 0
  br i1 %2321, label %2322, label %2339

2322:                                             ; preds = %2319
  %2323 = add nsw i32 %2320, -1
  store i32 %2323, ptr %2317, align 8, !tbaa !34
  %2324 = icmp eq i32 %2320, 1
  br i1 %2324, label %2325, label %2339

2325:                                             ; preds = %2322
  %2326 = getelementptr inbounds %"class.cctki_piraha::smart_ptr_guts.23", ptr %2317, i64 0, i32 2
  %2327 = load ptr, ptr %2326, align 8, !tbaa !36
  %2328 = icmp eq ptr %2327, null
  br i1 %2328, label %2340, label %2329

2329:                                             ; preds = %2325
  %2330 = getelementptr inbounds %"class.cctki_piraha::smart_ptr_guts.23", ptr %2317, i64 0, i32 3
  %2331 = load i8, ptr %2330, align 8, !tbaa !37, !range !40, !noundef !41
  %2332 = icmp eq i8 %2331, 0
  br i1 %2332, label %2335, label %2333

2333:                                             ; preds = %2329
  %2334 = getelementptr inbounds i8, ptr %2327, i64 -8
  call void @_ZdaPv(ptr noundef nonnull %2334) #18
  br label %2340

2335:                                             ; preds = %2329
  %2336 = load ptr, ptr %2327, align 8, !tbaa !6
  %2337 = getelementptr inbounds ptr, ptr %2336, i64 2
  %2338 = load ptr, ptr %2337, align 8
  call void %2338(ptr noundef nonnull align 8 dereferenceable(8) %2327) #19
  br label %2340

2339:                                             ; preds = %2322, %2319, %2316
  store ptr %2311, ptr %2315, align 8, !tbaa !38
  br label %2343

2340:                                             ; preds = %2325, %2333, %2335
  call void @_ZdlPv(ptr noundef nonnull %2317) #18
  %2341 = load ptr, ptr %87, align 8, !tbaa !38
  store ptr %2341, ptr %2315, align 8, !tbaa !38
  %2342 = icmp eq ptr %2341, null
  br i1 %2342, label %2347, label %2343

2343:                                             ; preds = %2339, %2340
  %2344 = phi ptr [ %2311, %2339 ], [ %2341, %2340 ]
  %2345 = load i32, ptr %2344, align 8, !tbaa !34
  %2346 = add nsw i32 %2345, 1
  store i32 %2346, ptr %2344, align 8, !tbaa !34
  br label %2347

2347:                                             ; preds = %2343, %2340
  %2348 = load ptr, ptr %87, align 8, !tbaa !38
  %2349 = icmp eq ptr %2348, null
  br i1 %2349, label %2371, label %2350

2350:                                             ; preds = %2347
  %2351 = load i32, ptr %2348, align 8, !tbaa !34
  %2352 = icmp sgt i32 %2351, 0
  br i1 %2352, label %2353, label %2371

2353:                                             ; preds = %2350
  %2354 = add nsw i32 %2351, -1
  store i32 %2354, ptr %2348, align 8, !tbaa !34
  %2355 = icmp eq i32 %2351, 1
  br i1 %2355, label %2356, label %2371

2356:                                             ; preds = %2353
  %2357 = getelementptr inbounds %"class.cctki_piraha::smart_ptr_guts.23", ptr %2348, i64 0, i32 2
  %2358 = load ptr, ptr %2357, align 8, !tbaa !36
  %2359 = icmp eq ptr %2358, null
  br i1 %2359, label %2370, label %2360

2360:                                             ; preds = %2356
  %2361 = getelementptr inbounds %"class.cctki_piraha::smart_ptr_guts.23", ptr %2348, i64 0, i32 3
  %2362 = load i8, ptr %2361, align 8, !tbaa !37, !range !40, !noundef !41
  %2363 = icmp eq i8 %2362, 0
