; ModuleID = 'Cactus/piraha/Call.cc'
source_filename = "Cactus/piraha/Call.cc"
target datalayout = "e-m:e-p270:32:32-p271:32:32-p272:64:64-i64:64-f80:128-n8:16:32:64-S128"
target triple = "x86_64-pc-linux-gnu"

module asm ".globl _ZSt21ios_base_library_initv"

%"class.cctki_piraha::smart_ptr" = type { ptr }
%"class.std::__cxx11::basic_string" = type { %"struct.std::__cxx11::basic_string<char>::_Alloc_hider", i64, %union.anon }
%"struct.std::__cxx11::basic_string<char>::_Alloc_hider" = type { ptr }
%union.anon = type { i64, [8 x i8] }
%"class.std::basic_ostream" = type { ptr, %"class.std::basic_ios" }
%"class.std::basic_ios" = type { %"class.std::ios_base", ptr, i8, i8, ptr, ptr, ptr, ptr }
%"class.std::ios_base" = type { ptr, i64, i64, i32, i32, i32, ptr, %"struct.std::ios_base::_Words", [8 x %"struct.std::ios_base::_Words"], i32, ptr, %"class.std::locale" }
%"struct.std::ios_base::_Words" = type { ptr, i64 }
%"class.std::locale" = type { ptr }
%"class.cctki_piraha::Grammar" = type { ptr, %"class.cctki_piraha::JMap", %"class.std::__cxx11::basic_string" }
%"class.cctki_piraha::JMap" = type { %"class.std::map" }
%"class.std::map" = type { %"class.std::_Rb_tree" }
%"class.std::_Rb_tree" = type { %"struct.std::_Rb_tree<std::__cxx11::basic_string<char>, std::pair<const std::__cxx11::basic_string<char>, cctki_piraha::smart_ptr<cctki_piraha::Pattern>>, std::_Select1st<std::pair<const std::__cxx11::basic_string<char>, cctki_piraha::smart_ptr<cctki_piraha::Pattern>>>, std::less<std::__cxx11::basic_string<char>>>::_Rb_tree_impl" }
%"struct.std::_Rb_tree<std::__cxx11::basic_string<char>, std::pair<const std::__cxx11::basic_string<char>, cctki_piraha::smart_ptr<cctki_piraha::Pattern>>, std::_Select1st<std::pair<const std::__cxx11::basic_string<char>, cctki_piraha::smart_ptr<cctki_piraha::Pattern>>>, std::less<std::__cxx11::basic_string<char>>>::_Rb_tree_impl" = type { %"struct.std::_Rb_tree_key_compare", %"struct.std::_Rb_tree_header" }
%"struct.std::_Rb_tree_key_compare" = type { %"struct.std::less" }
%"struct.std::less" = type { i8 }
%"struct.std::_Rb_tree_header" = type { %"struct.std::_Rb_tree_node_base", i64 }
%"struct.std::_Rb_tree_node_base" = type { i32, ptr, ptr, ptr }
%"struct.std::_Rb_tree_node" = type { %"struct.std::_Rb_tree_node_base", %"struct.__gnu_cxx::__aligned_membuf" }
%"struct.__gnu_cxx::__aligned_membuf" = type { [40 x i8] }
%"class.cctki_piraha::smart_ptr_guts" = type <{ i32, [4 x i8], ptr, i8, [7 x i8] }>
%"class.cctki_piraha::smart_ptr_guts.11" = type <{ i32, [4 x i8], ptr, i8, [7 x i8] }>
%"class.cctki_piraha::smart_ptr_guts.18" = type <{ i32, [4 x i8], ptr, i8, [7 x i8] }>
%"struct.cctki_piraha::Value" = type <{ %"class.cctki_piraha::smart_ptr.14", double, i32, [4 x i8], %"class.std::__cxx11::basic_string", i32, [4 x i8] }>
%"class.cctki_piraha::smart_ptr.14" = type { ptr }
%"class.cctki_piraha::smart_ptr_guts.20" = type <{ i32, [4 x i8], ptr, i8, [7 x i8] }>
%"class.cctki_piraha::smart_ptr.13" = type { ptr }
%"class.std::__cxx11::basic_ostringstream" = type { %"class.std::basic_ostream.base", %"class.std::__cxx11::basic_stringbuf", %"class.std::basic_ios" }
%"class.std::basic_ostream.base" = type { ptr }
%"class.std::__cxx11::basic_stringbuf" = type { %"class.std::basic_streambuf", i32, %"class.std::__cxx11::basic_string" }
%"class.std::basic_streambuf" = type { ptr, ptr, ptr, ptr, ptr, ptr, ptr, %"class.std::locale" }
%"class.std::ctype" = type <{ %"class.std::locale::facet.base", [4 x i8], ptr, i8, [7 x i8], ptr, ptr, ptr, i8, [256 x i8], [256 x i8], i8, [6 x i8] }>
%"class.std::locale::facet.base" = type <{ ptr, i32 }>
%"class.cctki_piraha::Group" = type { ptr, %"class.std::__cxx11::basic_string", ptr, i32, i32, %"class.std::vector" }
%"class.std::vector" = type { %"struct.std::_Vector_base" }
%"struct.std::_Vector_base" = type { %"struct.std::_Vector_base<cctki_piraha::smart_ptr<cctki_piraha::Group>, std::allocator<cctki_piraha::smart_ptr<cctki_piraha::Group>>>::_Vector_impl" }
%"struct.std::_Vector_base<cctki_piraha::smart_ptr<cctki_piraha::Group>, std::allocator<cctki_piraha::smart_ptr<cctki_piraha::Group>>>::_Vector_impl" = type { %"struct.std::_Vector_base<cctki_piraha::smart_ptr<cctki_piraha::Group>, std::allocator<cctki_piraha::smart_ptr<cctki_piraha::Group>>>::_Vector_impl_data" }
%"struct.std::_Vector_base<cctki_piraha::smart_ptr<cctki_piraha::Group>, std::allocator<cctki_piraha::smart_ptr<cctki_piraha::Group>>>::_Vector_impl_data" = type { ptr, ptr, ptr }
%"class.cctki_piraha::smart_ptr.23" = type { ptr }
%"class.cctki_piraha::smart_ptr_guts.29" = type <{ i32, [4 x i8], ptr, i8, [7 x i8] }>
%"class.cctki_piraha::Matcher" = type <{ %"class.cctki_piraha::Group", ptr, %"class.cctki_piraha::smart_ptr", i32, i32, i32, [4 x i8], ptr, %"class.cctki_piraha::Bracket", %"class.std::__cxx11::basic_string", %"class.std::__cxx11::basic_string", i32, [4 x i8] }>
%"class.cctki_piraha::Bracket" = type { %"class.cctki_piraha::Pattern", i8, %"class.std::vector.24" }
%"class.cctki_piraha::Pattern" = type { ptr }
%"class.std::vector.24" = type { %"struct.std::_Vector_base.25" }
%"struct.std::_Vector_base.25" = type { %"struct.std::_Vector_base<cctki_piraha::smart_ptr<cctki_piraha::Range>, std::allocator<cctki_piraha::smart_ptr<cctki_piraha::Range>>>::_Vector_impl" }
%"struct.std::_Vector_base<cctki_piraha::smart_ptr<cctki_piraha::Range>, std::allocator<cctki_piraha::smart_ptr<cctki_piraha::Range>>>::_Vector_impl" = type { %"struct.std::_Vector_base<cctki_piraha::smart_ptr<cctki_piraha::Range>, std::allocator<cctki_piraha::smart_ptr<cctki_piraha::Range>>>::_Vector_impl_data" }
%"struct.std::_Vector_base<cctki_piraha::smart_ptr<cctki_piraha::Range>, std::allocator<cctki_piraha::smart_ptr<cctki_piraha::Range>>>::_Vector_impl_data" = type { ptr, ptr, ptr }
%"class.cctki_piraha::smart_ptr_guts.33" = type <{ i32, [4 x i8], ptr, i8, [7 x i8] }>
%"class.cctki_piraha::smart_ptr.32" = type { ptr }
%"class.std::__cxx11::basic_stringstream" = type { %"class.std::basic_iostream.base", %"class.std::__cxx11::basic_stringbuf", %"class.std::basic_ios" }
%"class.std::basic_iostream.base" = type { %"class.std::basic_istream.base", %"class.std::basic_ostream.base" }
%"class.std::basic_istream.base" = type { ptr, i64 }
%struct.PARAM_PROPS = type { ptr, ptr, i32, ptr, ptr, i32, ptr, i32, i32, i32, i32, ptr }

$_ZN12cctki_piraha9smart_ptrINS_7GrammarEED2Ev = comdat any

$_ZN12cctki_piraha7GrammarD2Ev = comdat any

$_ZN12cctki_piraha7GrammarD0Ev = comdat any

$__clang_call_terminate = comdat any

$_ZNSt8_Rb_treeINSt7__cxx1112basic_stringIcSt11char_traitsIcESaIcEEESt4pairIKS5_N12cctki_piraha9smart_ptrINS8_7PatternEEEESt10_Select1stISC_ESt4lessIS5_ESaISC_EE8_M_eraseEPSt13_Rb_tree_nodeISC_E = comdat any

$_ZN12cctki_piraha9smart_ptrINS_7GrammarEE5cleanEv = comdat any

$_ZN12cctki_piraha9smart_ptrINS_5GroupEED2Ev = comdat any

$_ZN12cctki_piraha9smart_ptrINS_5ValueEED2Ev = comdat any

$_ZN12cctki_piraha14smart_ptr_gutsINS_5GroupEED2Ev = comdat any

$_ZN12cctki_piraha5GroupD2Ev = comdat any

$_ZN12cctki_piraha5GroupD0Ev = comdat any

$_ZN12cctki_piraha14smart_ptr_gutsINS_5ValueEED2Ev = comdat any

$_ZSteqIcSt11char_traitsIcESaIcEEbRKNSt7__cxx1112basic_stringIT_T0_T1_EEPKS5_ = comdat any

$_ZN12cctki_piraha5Value4copyB5cxx11Ev = comdat any

$_ZN12cctki_piraha9smart_ptrINS_7MatcherEED2Ev = comdat any

$_ZN12cctki_piraha7MatcherD2Ev = comdat any

$_ZN12cctki_piraha7MatcherD0Ev = comdat any

$_ZN12cctki_piraha5Value11doubleValueEv = comdat any

$_ZN12cctki_piraha9smart_ptrINS_5ValueEEaSERKS2_ = comdat any

$_ZN12cctki_piraha5Value9checkBoolEv = comdat any

$_ZN12cctki_piraha5Value6equalsENS_9smart_ptrIS0_EE = comdat any

$_ZStplIcSt11char_traitsIcESaIcEENSt7__cxx1112basic_stringIT_T0_T1_EERKS8_SA_ = comdat any

$_ZStplIcSt11char_traitsIcESaIcEENSt7__cxx1112basic_stringIT_T0_T1_EEOS8_RKS8_ = comdat any

$_ZN12cctki_piraha5Group5groupEPKci = comdat any

$_ZN12cctki_piraha5Value10booleanizeENS_9smart_ptrINS_5GroupEEE = comdat any

$_ZTVN12cctki_piraha7GrammarE = comdat any

$_ZTSN12cctki_piraha7GrammarE = comdat any

$_ZTIN12cctki_piraha7GrammarE = comdat any

$_ZTVN12cctki_piraha5GroupE = comdat any

$_ZTSN12cctki_piraha5GroupE = comdat any

$_ZTIN12cctki_piraha5GroupE = comdat any

$_ZTVN12cctki_piraha7MatcherE = comdat any

$_ZTSN12cctki_piraha7MatcherE = comdat any

$_ZTIN12cctki_piraha7MatcherE = comdat any

@_ZN12cctki_pirahaL16par_file_grammarE = internal global %"class.cctki_piraha::smart_ptr" zeroinitializer, align 8
@__dso_handle = external hidden global i8
@_ZTVN12cctki_piraha7GrammarE = linkonce_odr dso_local unnamed_addr constant { [4 x ptr] } { [4 x ptr] [ptr null, ptr @_ZTIN12cctki_piraha7GrammarE, ptr @_ZN12cctki_piraha7GrammarD2Ev, ptr @_ZN12cctki_piraha7GrammarD0Ev] }, comdat, align 8
@_ZTVN10__cxxabiv117__class_type_infoE = external global ptr
@_ZTSN12cctki_piraha7GrammarE = linkonce_odr dso_local constant [25 x i8] c"N12cctki_piraha7GrammarE\00", comdat, align 1
@_ZTIN12cctki_piraha7GrammarE = linkonce_odr dso_local constant { ptr, ptr } { ptr getelementptr inbounds (ptr, ptr @_ZTVN10__cxxabiv117__class_type_infoE, i64 2), ptr @_ZTSN12cctki_piraha7GrammarE }, comdat, align 8
@.str = private unnamed_addr constant [5 x i8] c".par\00", align 1
@.str.2 = private unnamed_addr constant [7 x i8] c"STRING\00", align 1
@.str.3 = private unnamed_addr constant [4 x i8] c"INT\00", align 1
@.str.4 = private unnamed_addr constant [5 x i8] c"REAL\00", align 1
@.str.5 = private unnamed_addr constant [5 x i8] c"BOOL\00", align 1
@.str.6 = private unnamed_addr constant [5 x i8] c"VOID\00", align 1
@.str.7 = private unnamed_addr constant [6 x i8] c"UNDEF\00", align 1
@_ZN12cctki_piraha13current_thornB5cxx11E = dso_local global %"class.std::__cxx11::basic_string" zeroinitializer, align 8
@.str.9 = private unnamed_addr constant [5 x i8] c"NULL\00", align 1
@.str.10 = private unnamed_addr constant [2 x i8] c"(\00", align 1
@.str.11 = private unnamed_addr constant [2 x i8] c")\00", align 1
@.str.12 = private unnamed_addr constant [5 x i8] c"true\00", align 1
@.str.13 = private unnamed_addr constant [6 x i8] c"false\00", align 1
@.str.14 = private unnamed_addr constant [2 x i8] c"\22\00", align 1
@.str.15 = private unnamed_addr constant [37 x i8] c"Undefined or inaccessible variable: \00", align 1
@.str.16 = private unnamed_addr constant [3 x i8] c"::\00", align 1
@.str.17 = private unnamed_addr constant [42 x i8] c"Unexpected type result from ParameterGet=\00", align 1
@_ZTVN12cctki_piraha5GroupE = linkonce_odr dso_local unnamed_addr constant { [4 x ptr] } { [4 x ptr] [ptr null, ptr @_ZTIN12cctki_piraha5GroupE, ptr @_ZN12cctki_piraha5GroupD2Ev, ptr @_ZN12cctki_piraha5GroupD0Ev] }, comdat, align 8
@_ZTSN12cctki_piraha5GroupE = linkonce_odr dso_local constant [23 x i8] c"N12cctki_piraha5GroupE\00", comdat, align 1
@_ZTIN12cctki_piraha5GroupE = linkonce_odr dso_local constant { ptr, ptr } { ptr getelementptr inbounds (ptr, ptr @_ZTVN10__cxxabiv117__class_type_infoE, i64 2), ptr @_ZTSN12cctki_piraha5GroupE }, comdat, align 8
@_ZTTNSt7__cxx1119basic_ostringstreamIcSt11char_traitsIcESaIcEEE = external unnamed_addr constant [4 x ptr], align 8
@_ZTVNSt7__cxx1115basic_stringbufIcSt11char_traitsIcESaIcEEE = external unnamed_addr constant { [16 x ptr] }, align 8
@_ZTVSt15basic_streambufIcSt11char_traitsIcEE = external unnamed_addr constant { [16 x ptr] }, align 8
@.str.20 = private unnamed_addr constant [21 x i8] c"basic_string::append\00", align 1
@.str.21 = private unnamed_addr constant [4 x i8] c"env\00", align 1
@.str.22 = private unnamed_addr constant [8 x i8] c"parfile\00", align 1
@.str.23 = private unnamed_addr constant [3 x i8] c"pi\00", align 1
@.str.24 = private unnamed_addr constant [19 x i8] c"Unknown variable: \00", align 1
@.str.25 = private unnamed_addr constant [13 x i8] c"stringparser\00", align 1
@.str.26 = private unnamed_addr constant [1 x i8] zeroinitializer, align 1
@.str.27 = private unnamed_addr constant [4 x i8] c"any\00", align 1
@.str.28 = private unnamed_addr constant [5 x i8] c"name\00", align 1
@.str.29 = private unnamed_addr constant [14 x i8] c"stringcomment\00", align 1
@.str.30 = private unnamed_addr constant [4 x i8] c"yes\00", align 1
@.str.31 = private unnamed_addr constant [3 x i8] c"no\00", align 1
@_ZTVN12cctki_piraha7MatcherE = linkonce_odr dso_local unnamed_addr constant { [4 x ptr] } { [4 x ptr] [ptr null, ptr @_ZTIN12cctki_piraha7MatcherE, ptr @_ZN12cctki_piraha7MatcherD2Ev, ptr @_ZN12cctki_piraha7MatcherD0Ev] }, comdat, align 8
@_ZTVN10__cxxabiv120__si_class_type_infoE = external global ptr
@_ZTSN12cctki_piraha7MatcherE = linkonce_odr dso_local constant [25 x i8] c"N12cctki_piraha7MatcherE\00", comdat, align 1
@_ZTIN12cctki_piraha7MatcherE = linkonce_odr dso_local constant { ptr, ptr, ptr } { ptr getelementptr inbounds (ptr, ptr @_ZTVN10__cxxabiv120__si_class_type_infoE, i64 2), ptr @_ZTSN12cctki_piraha7MatcherE, ptr @_ZTIN12cctki_piraha5GroupE }, comdat, align 8
@_ZTVN12cctki_piraha7BracketE = external unnamed_addr constant { [7 x ptr] }, align 8
@.str.32 = private unnamed_addr constant [4 x i8] c"num\00", align 1
@.str.33 = private unnamed_addr constant [6 x i8] c"paren\00", align 1
@.str.34 = private unnamed_addr constant [9 x i8] c"parindex\00", align 1
@.str.35 = private unnamed_addr constant [5 x i8] c"func\00", align 1
@.str.36 = private unnamed_addr constant [6 x i8] c"trunc\00", align 1
@.str.37 = private unnamed_addr constant [6 x i8] c"floor\00", align 1
@.str.38 = private unnamed_addr constant [5 x i8] c"ceil\00", align 1
@.str.39 = private unnamed_addr constant [5 x i8] c"sqrt\00", align 1
@.str.40 = private unnamed_addr constant [5 x i8] c"atan\00", align 1
@.str.41 = private unnamed_addr constant [4 x i8] c"sin\00", align 1
@.str.42 = private unnamed_addr constant [4 x i8] c"cos\00", align 1
@.str.43 = private unnamed_addr constant [4 x i8] c"tan\00", align 1
@.str.44 = private unnamed_addr constant [4 x i8] c"exp\00", align 1
@.str.45 = private unnamed_addr constant [4 x i8] c"log\00", align 1
@.str.46 = private unnamed_addr constant [4 x i8] c"abs\00", align 1
@.str.47 = private unnamed_addr constant [5 x i8] c"acos\00", align 1
@.str.48 = private unnamed_addr constant [5 x i8] c"asin\00", align 1
@.str.49 = private unnamed_addr constant [5 x i8] c"bool\00", align 1
@.str.50 = private unnamed_addr constant [4 x i8] c"int\00", align 1
@.str.51 = private unnamed_addr constant [5 x i8] c"real\00", align 1
@.str.52 = private unnamed_addr constant [15 x i8] c"Unknown func: \00", align 1
@.str.53 = private unnamed_addr constant [6 x i8] c"dname\00", align 1
@.str.54 = private unnamed_addr constant [4 x i8] c"nan\00", align 1
@.str.55 = private unnamed_addr constant [4 x i8] c"inf\00", align 1
@.str.56 = private unnamed_addr constant [4 x i8] c"par\00", align 1
@.str.57 = private unnamed_addr constant [2 x i8] c"[\00", align 1
@.str.58 = private unnamed_addr constant [2 x i8] c"]\00", align 1
@.str.59 = private unnamed_addr constant [14 x i8] c"Unknown par: \00", align 1
@.str.60 = private unnamed_addr constant [4 x i8] c"var\00", align 1
@.str.61 = private unnamed_addr constant [6 x i8] c"value\00", align 1
@.str.62 = private unnamed_addr constant [2 x i8] c"-\00", align 1
@.str.63 = private unnamed_addr constant [20 x i8] c"Unknown operation: \00", align 1
@.str.64 = private unnamed_addr constant [2 x i8] c"!\00", align 1
@.str.65 = private unnamed_addr constant [5 x i8] c"quot\00", align 1
@.str.66 = private unnamed_addr constant [7 x i8] c"inquot\00", align 1
@.str.67 = private unnamed_addr constant [5 x i8] c"expr\00", align 1
@.str.68 = private unnamed_addr constant [8 x i8] c"powexpr\00", align 1
@.str.69 = private unnamed_addr constant [8 x i8] c"andexpr\00", align 1
@.str.70 = private unnamed_addr constant [7 x i8] c"eqexpr\00", align 1
@.str.71 = private unnamed_addr constant [3 x i8] c"==\00", align 1
@.str.72 = private unnamed_addr constant [3 x i8] c"!=\00", align 1
@.str.73 = private unnamed_addr constant [28 x i8] c"Unknown equality operator: \00", align 1
@.str.74 = private unnamed_addr constant [9 x i8] c"compexpr\00", align 1
@.str.75 = private unnamed_addr constant [2 x i8] c"<\00", align 1
@.str.76 = private unnamed_addr constant [2 x i8] c">\00", align 1
@.str.77 = private unnamed_addr constant [3 x i8] c"<=\00", align 1
@.str.78 = private unnamed_addr constant [3 x i8] c">=\00", align 1
@.str.79 = private unnamed_addr constant [30 x i8] c"Unknown comparison operator: \00", align 1
@.str.80 = private unnamed_addr constant [6 x i8] c"aexpr\00", align 1
@.str.81 = private unnamed_addr constant [2 x i8] c"+\00", align 1
@.str.82 = private unnamed_addr constant [23 x i8] c"Unknown add operator: \00", align 1
@.str.83 = private unnamed_addr constant [44 x i8] c"Interpreting as literal string with value '\00", align 1
@.str.84 = private unnamed_addr constant [2 x i8] c"'\00", align 1
@.str.85 = private unnamed_addr constant [2 x i8] c" \00", align 1
@.str.86 = private unnamed_addr constant [6 x i8] c"mexpr\00", align 1
@.str.87 = private unnamed_addr constant [2 x i8] c"*\00", align 1
@.str.88 = private unnamed_addr constant [2 x i8] c"/\00", align 1
@.str.89 = private unnamed_addr constant [2 x i8] c"%\00", align 1
@.str.90 = private unnamed_addr constant [23 x i8] c"Unknown mul operator: \00", align 1
@.str.91 = private unnamed_addr constant [21 x i8] c"Pattern not handled[\00", align 1
@.str.92 = private unnamed_addr constant [3 x i8] c"]=\00", align 1
@.str.93 = private unnamed_addr constant [5 x i8] c" at \00", align 1
@.str.94 = private unnamed_addr constant [5 x i8] c" in \00", align 1
@.str.95 = private unnamed_addr constant [22 x i8] c"Cactus/piraha/Call.cc\00", align 1
@.str.96 = private unnamed_addr constant [7 x i8] c"piraha\00", align 1
@.str.97 = private unnamed_addr constant [16 x i8] c"Cannot convert \00", align 1
@.str.98 = private unnamed_addr constant [12 x i8] c" to double.\00", align 1
@.str.99 = private unnamed_addr constant [33 x i8] c"Does not evaluate to a boolean: \00", align 1
@.str.100 = private unnamed_addr constant [16 x i8] c"Cannot compare \00", align 1
@.str.101 = private unnamed_addr constant [6 x i8] c" and \00", align 1
@.str.102 = private unnamed_addr constant [5 x i8] c"eval\00", align 1
@.str.103 = private unnamed_addr constant [25 x i8] c"Parameter type mismatch \00", align 1
@.str.104 = private unnamed_addr constant [8 x i8] c"KEYWORD\00", align 1
@.str.105 = private unnamed_addr constant [6 x i8] c"type(\00", align 1
@.str.106 = private unnamed_addr constant [5 x i8] c" != \00", align 1
@.str.107 = private unnamed_addr constant [1253 x i8] c"skipper = ([ \\t\\r\\n]|\\#.*)*\0A# comment\0Askipeol = ([ \\t\\r]|\\#.*)*($|\\n)\0Aany = [^]\0Astringcomment = #.*\0Astringparser = ^({stringcomment}|{var}|{name}|{any})*$\0A# Note that / occurs in some par files. It is my\0A# feeling that this should require quote marks.\0Aname = [a-zA-Z][a-zA-Z0-9_]*\0Adname = [0-9][a-zA-Z_]{2,}\0Ainquot = ({var}|\\\\.|[^\\\\\22])*\0Afname = \\.?/[-\\./0-9a-zA-Z_]+\0Aquot = \22{inquot}\22|{fname}\0Anum = ([0-9]+(\\.[0-9]*|)|\\.[0-9]+)([ed][+-]?[0-9]+|)\0Aenv = ENV\\{{name}\\}\0Avar = \\$({env}|{name}|\\{{name}\\})\0Apowexpr = {value}( \\*\\* {value})?\0Amulop = [*/%]\0Amexpr = {powexpr}( {mulop} {powexpr})*\0Aaddop = [+-]\0Aaexpr = {mexpr}( {addop} {mexpr})*\0Acompop = [<>]=?\0Acompexpr = {aexpr}( {compop} {aexpr})?\0Aeqop = [!=]=\0Aeqexpr = {compexpr}( {eqop} {eqexpr})?\0Aandexpr = {eqexpr}( && {eqexpr})?\0Aexpr = {andexpr}( \\|\\| {andexpr})?\0Aeval = {expr}\0Aparen = \\( {expr} \\)\0Apar = {name} :: {name}( {parindex})?\0Afunc = {name} \\( {expr} \\)\0Aarray = \\[ {expr}( , {expr})* \\]\0Avalue = {unop}?({par}|{func}|{paren}|{dname}|{num}|{quot}|{name}|{var})\0Aunop = [-!]\0Aint = [0-9]+\0Aindex = \\[ {int} \\]\0Aparindex = \\[ {expr} \\]\0Aactive = (?i:ActiveThorns)\0Aset = ({active} = ({quot}|{name})|{par}( {index}|) = ({array}|\\+?{expr})){-skipeol}\0Adesc = !DESC {quot}\0Afile = ^( ({desc}|{set}|{active}) )*$\00", align 1
@.str.108 = private unnamed_addr constant [5 x i8] c"file\00", align 1
@.str.109 = private unnamed_addr constant [7 x i8] c"active\00", align 1
@.str.110 = private unnamed_addr constant [13 x i8] c"ActiveThorns\00", align 1
@.str.111 = private unnamed_addr constant [4 x i8] c"set\00", align 1
@.str.112 = private unnamed_addr constant [11 x i8] c"bad index \00", align 1
@.str.113 = private unnamed_addr constant [6 x i8] c"array\00", align 1
@_ZSt4cout = external global %"class.std::basic_ostream", align 8
@.str.114 = private unnamed_addr constant [25 x i8] c"ERROR IN PARAMETER FILE:\00", align 1
@.str.115 = private unnamed_addr constant [39 x i8] c"Boolean variable is set with integer: \00", align 1
@llvm.global_ctors = appending global [1 x { i32, ptr, ptr }] [{ i32, ptr, ptr } { i32 65535, ptr @_GLOBAL__sub_I_Call.cc, ptr null }]

; Function Attrs: nobuiltin allocsize(0)
declare noundef nonnull ptr @_Znwm(i64 noundef) local_unnamed_addr #0

declare i32 @__gxx_personality_v0(...)

; Function Attrs: nobuiltin nounwind
declare void @_ZdlPv(ptr noundef) local_unnamed_addr #1

; Function Attrs: nounwind sspstrong uwtable
define linkonce_odr dso_local void @_ZN12cctki_piraha9smart_ptrINS_7GrammarEED2Ev(ptr noundef nonnull align 8 dereferenceable(8) %0) unnamed_addr #2 comdat align 2 personality ptr @__gxx_personality_v0 {
  invoke void @_ZN12cctki_piraha9smart_ptrINS_7GrammarEE5cleanEv(ptr noundef nonnull align 8 dereferenceable(8) %0)
          to label %2 unwind label %3

2:                                                ; preds = %1
  ret void

3:                                                ; preds = %1
  %4 = landingpad { ptr, i32 }
          catch ptr null
  %5 = extractvalue { ptr, i32 } %4, 0
  tail call void @__clang_call_terminate(ptr %5) #25
  unreachable
}

; Function Attrs: nofree nounwind
declare i32 @__cxa_atexit(ptr, ptr, ptr) local_unnamed_addr #3

; Function Attrs: nounwind sspstrong uwtable
define linkonce_odr dso_local void @_ZN12cctki_piraha7GrammarD2Ev(ptr noundef nonnull align 8 dereferenceable(88) %0) unnamed_addr #2 comdat align 2 personality ptr @__gxx_personality_v0 {
  store ptr getelementptr inbounds ({ [4 x ptr] }, ptr @_ZTVN12cctki_piraha7GrammarE, i64 0, inrange i32 0, i64 2), ptr %0, align 8, !tbaa !6
  %2 = getelementptr inbounds %"class.cctki_piraha::Grammar", ptr %0, i64 0, i32 2
  %3 = load ptr, ptr %2, align 8, !tbaa !9
  %4 = getelementptr inbounds %"class.cctki_piraha::Grammar", ptr %0, i64 0, i32 2, i32 2
  %5 = icmp eq ptr %3, %4
  br i1 %5, label %6, label %10

6:                                                ; preds = %1
  %7 = getelementptr inbounds %"class.cctki_piraha::Grammar", ptr %0, i64 0, i32 2, i32 1
  %8 = load i64, ptr %7, align 8, !tbaa !15
  %9 = icmp ult i64 %8, 16
  tail call void @llvm.assume(i1 %9)
  br label %11

10:                                               ; preds = %1
  tail call void @_ZdlPv(ptr noundef %3) #26
  br label %11

11:                                               ; preds = %6, %10
  %12 = getelementptr inbounds %"class.cctki_piraha::Grammar", ptr %0, i64 0, i32 1
  %13 = getelementptr inbounds %"class.cctki_piraha::Grammar", ptr %0, i64 0, i32 1, i32 0, i32 0, i32 0, i32 1, i32 0, i32 1
  %14 = load ptr, ptr %13, align 8, !tbaa !16
  invoke void @_ZNSt8_Rb_treeINSt7__cxx1112basic_stringIcSt11char_traitsIcESaIcEEESt4pairIKS5_N12cctki_piraha9smart_ptrINS8_7PatternEEEESt10_Select1stISC_ESt4lessIS5_ESaISC_EE8_M_eraseEPSt13_Rb_tree_nodeISC_E(ptr noundef nonnull align 8 dereferenceable(48) %12, ptr noundef %14)
          to label %18 unwind label %15

15:                                               ; preds = %11
  %16 = landingpad { ptr, i32 }
          catch ptr null
  %17 = extractvalue { ptr, i32 } %16, 0
  tail call void @__clang_call_terminate(ptr %17) #25
  unreachable

18:                                               ; preds = %11
  ret void
}

; Function Attrs: nounwind sspstrong uwtable
define linkonce_odr dso_local void @_ZN12cctki_piraha7GrammarD0Ev(ptr noundef nonnull align 8 dereferenceable(88) %0) unnamed_addr #2 comdat align 2 personality ptr @__gxx_personality_v0 {
  store ptr getelementptr inbounds ({ [4 x ptr] }, ptr @_ZTVN12cctki_piraha7GrammarE, i64 0, inrange i32 0, i64 2), ptr %0, align 8, !tbaa !6
  %2 = getelementptr inbounds %"class.cctki_piraha::Grammar", ptr %0, i64 0, i32 2
  %3 = load ptr, ptr %2, align 8, !tbaa !9
  %4 = getelementptr inbounds %"class.cctki_piraha::Grammar", ptr %0, i64 0, i32 2, i32 2
  %5 = icmp eq ptr %3, %4
  br i1 %5, label %6, label %10

6:                                                ; preds = %1
  %7 = getelementptr inbounds %"class.cctki_piraha::Grammar", ptr %0, i64 0, i32 2, i32 1
  %8 = load i64, ptr %7, align 8, !tbaa !15
  %9 = icmp ult i64 %8, 16
  tail call void @llvm.assume(i1 %9)
  br label %11

10:                                               ; preds = %1
  tail call void @_ZdlPv(ptr noundef %3) #26
  br label %11

11:                                               ; preds = %10, %6
  %12 = getelementptr inbounds %"class.cctki_piraha::Grammar", ptr %0, i64 0, i32 1
  %13 = getelementptr inbounds %"class.cctki_piraha::Grammar", ptr %0, i64 0, i32 1, i32 0, i32 0, i32 0, i32 1, i32 0, i32 1
  %14 = load ptr, ptr %13, align 8, !tbaa !16
  invoke void @_ZNSt8_Rb_treeINSt7__cxx1112basic_stringIcSt11char_traitsIcESaIcEEESt4pairIKS5_N12cctki_piraha9smart_ptrINS8_7PatternEEEESt10_Select1stISC_ESt4lessIS5_ESaISC_EE8_M_eraseEPSt13_Rb_tree_nodeISC_E(ptr noundef nonnull align 8 dereferenceable(48) %12, ptr noundef %14)
          to label %18 unwind label %15

15:                                               ; preds = %11
  %16 = landingpad { ptr, i32 }
          catch ptr null
  %17 = extractvalue { ptr, i32 } %16, 0
  tail call void @__clang_call_terminate(ptr %17) #25
  unreachable

18:                                               ; preds = %11
  tail call void @_ZdlPv(ptr noundef nonnull %0) #26
  ret void
}

; Function Attrs: mustprogress nocallback nofree nounwind willreturn memory(argmem: write)
declare void @llvm.memset.p0.i64(ptr nocapture writeonly, i8, i64, i1 immarg) #4

; Function Attrs: noinline noreturn nounwind sspstrong uwtable
define linkonce_odr hidden void @__clang_call_terminate(ptr noundef %0) local_unnamed_addr #5 comdat {
  %2 = tail call ptr @__cxa_begin_catch(ptr %0) #27
  tail call void @_ZSt9terminatev() #25
  unreachable
}

declare ptr @__cxa_begin_catch(ptr) local_unnamed_addr

declare void @_ZSt9terminatev() local_unnamed_addr

; Function Attrs: mustprogress nocallback nofree nosync nounwind willreturn memory(argmem: readwrite)
declare void @llvm.lifetime.start.p0(i64 immarg, ptr nocapture) #6

; Function Attrs: mustprogress nocallback nofree nosync nounwind willreturn memory(argmem: readwrite)
declare void @llvm.lifetime.end.p0(i64 immarg, ptr nocapture) #6

; Function Attrs: nounwind sspstrong uwtable
declare void @_ZNSt7__cxx1112basic_stringIcSt11char_traitsIcESaIcEED2Ev(ptr noundef nonnull align 8 dereferenceable(32)) unnamed_addr #2 align 2

; Function Attrs: sspstrong uwtable
define linkonce_odr dso_local void @_ZNSt8_Rb_treeINSt7__cxx1112basic_stringIcSt11char_traitsIcESaIcEEESt4pairIKS5_N12cctki_piraha9smart_ptrINS8_7PatternEEEESt10_Select1stISC_ESt4lessIS5_ESaISC_EE8_M_eraseEPSt13_Rb_tree_nodeISC_E(ptr noundef nonnull align 8 dereferenceable(48) %0, ptr noundef %1) local_unnamed_addr #7 comdat align 2 personality ptr @__gxx_personality_v0 {
  %3 = icmp eq ptr %1, null
  br i1 %3, label %46, label %4

4:                                                ; preds = %2, %44
  %5 = phi ptr [ %9, %44 ], [ %1, %2 ]
  %6 = getelementptr inbounds %"struct.std::_Rb_tree_node_base", ptr %5, i64 0, i32 3
  %7 = load ptr, ptr %6, align 8, !tbaa !20
  tail call void @_ZNSt8_Rb_treeINSt7__cxx1112basic_stringIcSt11char_traitsIcESaIcEEESt4pairIKS5_N12cctki_piraha9smart_ptrINS8_7PatternEEEESt10_Select1stISC_ESt4lessIS5_ESaISC_EE8_M_eraseEPSt13_Rb_tree_nodeISC_E(ptr noundef nonnull align 8 dereferenceable(48) %0, ptr noundef %7)
  %8 = getelementptr inbounds %"struct.std::_Rb_tree_node_base", ptr %5, i64 0, i32 2
  %9 = load ptr, ptr %8, align 8, !tbaa !21
  %10 = getelementptr inbounds %"struct.std::_Rb_tree_node", ptr %5, i64 0, i32 1
  %11 = getelementptr inbounds %"struct.std::_Rb_tree_node", ptr %5, i64 0, i32 1, i32 0, i64 32
  %12 = load ptr, ptr %11, align 8, !tbaa !22
  %13 = icmp eq ptr %12, null
  br i1 %13, label %35, label %14

14:                                               ; preds = %4
  %15 = load i32, ptr %12, align 8, !tbaa !24
  %16 = icmp sgt i32 %15, 0
  br i1 %16, label %17, label %35

17:                                               ; preds = %14
  %18 = add nsw i32 %15, -1
  store i32 %18, ptr %12, align 8, !tbaa !24
  %19 = icmp eq i32 %15, 1
  br i1 %19, label %20, label %35

20:                                               ; preds = %17
  %21 = getelementptr inbounds %"class.cctki_piraha::smart_ptr_guts", ptr %12, i64 0, i32 2
  %22 = load ptr, ptr %21, align 8, !tbaa !28
  %23 = icmp eq ptr %22, null
  br i1 %23, label %34, label %24

24:                                               ; preds = %20
  %25 = getelementptr inbounds %"class.cctki_piraha::smart_ptr_guts", ptr %12, i64 0, i32 3
  %26 = load i8, ptr %25, align 8, !tbaa !29, !range !30, !noundef !31
  %27 = icmp eq i8 %26, 0
  br i1 %27, label %30, label %28

28:                                               ; preds = %24
  %29 = getelementptr inbounds i8, ptr %22, i64 -8
  tail call void @_ZdaPv(ptr noundef nonnull %29) #26
  br label %34

30:                                               ; preds = %24
  %31 = load ptr, ptr %22, align 8, !tbaa !6
  %32 = getelementptr inbounds ptr, ptr %31, i64 2
  %33 = load ptr, ptr %32, align 8
  tail call void %33(ptr noundef nonnull align 8 dereferenceable(8) %22) #27
  br label %34

34:                                               ; preds = %30, %28, %20
  tail call void @_ZdlPv(ptr noundef nonnull %12) #26
  store ptr null, ptr %11, align 8, !tbaa !22
  br label %35

35:                                               ; preds = %34, %17, %14, %4
  %36 = load ptr, ptr %10, align 8, !tbaa !9
  %37 = getelementptr inbounds %"struct.std::_Rb_tree_node", ptr %5, i64 0, i32 1, i32 0, i64 16
  %38 = icmp eq ptr %36, %37
  br i1 %38, label %39, label %43

39:                                               ; preds = %35
  %40 = getelementptr inbounds %"struct.std::_Rb_tree_node", ptr %5, i64 0, i32 1, i32 0, i64 8
  %41 = load i64, ptr %40, align 8, !tbaa !15
  %42 = icmp ult i64 %41, 16
  tail call void @llvm.assume(i1 %42)
  br label %44

43:                                               ; preds = %35
  tail call void @_ZdlPv(ptr noundef %36) #26
  br label %44

44:                                               ; preds = %39, %43
  tail call void @_ZdlPv(ptr noundef nonnull %5) #26
  %45 = icmp eq ptr %9, null
  br i1 %45, label %46, label %4, !llvm.loop !32

46:                                               ; preds = %44, %2
  ret void
}

; Function Attrs: nobuiltin nounwind
declare void @_ZdaPv(ptr noundef) local_unnamed_addr #1

; Function Attrs: sspstrong uwtable
define linkonce_odr dso_local void @_ZN12cctki_piraha9smart_ptrINS_7GrammarEE5cleanEv(ptr noundef nonnull align 8 dereferenceable(8) %0) local_unnamed_addr #7 comdat align 2 personality ptr @__gxx_personality_v0 {
  %2 = load ptr, ptr %0, align 8, !tbaa !34
  %3 = icmp eq ptr %2, null
  br i1 %3, label %51, label %4

4:                                                ; preds = %1
  %5 = load i32, ptr %2, align 8, !tbaa !36
  %6 = icmp sgt i32 %5, 0
  br i1 %6, label %7, label %51

7:                                                ; preds = %4
  %8 = add nsw i32 %5, -1
  store i32 %8, ptr %2, align 8, !tbaa !36
  %9 = icmp eq i32 %5, 1
  br i1 %9, label %10, label %51

10:                                               ; preds = %7
  %11 = getelementptr inbounds %"class.cctki_piraha::smart_ptr_guts.11", ptr %2, i64 0, i32 2
  %12 = load ptr, ptr %11, align 8, !tbaa !38
  %13 = icmp eq ptr %12, null
  br i1 %13, label %50, label %14

14:                                               ; preds = %10
  %15 = getelementptr inbounds %"class.cctki_piraha::smart_ptr_guts.11", ptr %2, i64 0, i32 3
  %16 = load i8, ptr %15, align 8, !tbaa !39, !range !30, !noundef !31
  %17 = icmp eq i8 %16, 0
  br i1 %17, label %46, label %18

18:                                               ; preds = %14
  %19 = getelementptr inbounds i8, ptr %12, i64 -8
  %20 = load i64, ptr %19, align 8
  %21 = icmp eq i64 %20, 0
  br i1 %21, label %45, label %22

22:                                               ; preds = %18
  %23 = getelementptr inbounds %"class.cctki_piraha::Grammar", ptr %12, i64 %20
  br label %24

24:                                               ; preds = %43, %22
  %25 = phi ptr [ %26, %43 ], [ %23, %22 ]
  %26 = getelementptr inbounds %"class.cctki_piraha::Grammar", ptr %25, i64 -1
  store ptr getelementptr inbounds ({ [4 x ptr] }, ptr @_ZTVN12cctki_piraha7GrammarE, i64 0, inrange i32 0, i64 2), ptr %26, align 8, !tbaa !6
  %27 = getelementptr %"class.cctki_piraha::Grammar", ptr %25, i64 -1, i32 2
  %28 = load ptr, ptr %27, align 8, !tbaa !9
  %29 = getelementptr %"class.cctki_piraha::Grammar", ptr %25, i64 -1, i32 2, i32 2
  %30 = icmp eq ptr %28, %29
  br i1 %30, label %31, label %35

31:                                               ; preds = %24
  %32 = getelementptr %"class.cctki_piraha::Grammar", ptr %25, i64 -1, i32 2, i32 1
  %33 = load i64, ptr %32, align 8, !tbaa !15
  %34 = icmp ult i64 %33, 16
  tail call void @llvm.assume(i1 %34)
  br label %36

35:                                               ; preds = %24
  tail call void @_ZdlPv(ptr noundef %28) #26
  br label %36

36:                                               ; preds = %35, %31
  %37 = getelementptr %"class.cctki_piraha::Grammar", ptr %25, i64 -1, i32 1
  %38 = getelementptr %"class.cctki_piraha::Grammar", ptr %25, i64 -1, i32 1, i32 0, i32 0, i32 0, i32 1, i32 0, i32 1
  %39 = load ptr, ptr %38, align 8, !tbaa !16
  invoke void @_ZNSt8_Rb_treeINSt7__cxx1112basic_stringIcSt11char_traitsIcESaIcEEESt4pairIKS5_N12cctki_piraha9smart_ptrINS8_7PatternEEEESt10_Select1stISC_ESt4lessIS5_ESaISC_EE8_M_eraseEPSt13_Rb_tree_nodeISC_E(ptr noundef nonnull align 8 dereferenceable(48) %37, ptr noundef %39)
          to label %43 unwind label %40

40:                                               ; preds = %36
  %41 = landingpad { ptr, i32 }
          catch ptr null
  %42 = extractvalue { ptr, i32 } %41, 0
  tail call void @__clang_call_terminate(ptr %42) #25
  unreachable

43:                                               ; preds = %36
  %44 = icmp eq ptr %26, %12
  br i1 %44, label %45, label %24

45:                                               ; preds = %43, %18
  tail call void @_ZdaPv(ptr noundef nonnull %19) #26
  br label %50

46:                                               ; preds = %14
  %47 = load ptr, ptr %12, align 8, !tbaa !6
  %48 = getelementptr inbounds ptr, ptr %47, i64 1
  %49 = load ptr, ptr %48, align 8
  tail call void %49(ptr noundef nonnull align 8 dereferenceable(88) %12) #27
  br label %50

50:                                               ; preds = %46, %45, %10
  tail call void @_ZdlPv(ptr noundef %2) #26
  store ptr null, ptr %0, align 8, !tbaa !34
  br label %51

51:                                               ; preds = %4, %50, %7, %1
  ret void
}

; Function Attrs: sspstrong uwtable
define dso_local void @_ZN12cctki_piraha11get_parfileB5cxx11Ev(ptr noalias sret(%"class.std::__cxx11::basic_string") align 8 %0) local_unnamed_addr #7 personality ptr @__gxx_personality_v0 {
  %2 = alloca i64, align 8
  %3 = alloca [500 x i8], align 16
  call void @llvm.lifetime.start.p0(i64 500, ptr nonnull %3) #27
  %4 = call i32 @CCTK_ParameterFilename(i32 noundef 500, ptr noundef nonnull %3)
  %5 = call noundef ptr @strrchr(ptr noundef nonnull dereferenceable(1) %3, i32 noundef 47) #28
  %6 = icmp eq ptr %5, null
  %7 = getelementptr inbounds i8, ptr %5, i64 1
  %8 = select i1 %6, ptr %3, ptr %7
  %9 = call i64 @strlen(ptr noundef nonnull dereferenceable(1) %8) #28
  %10 = trunc i64 %9 to i32
  %11 = icmp sgt i32 %10, 4
  br i1 %11, label %12, label %22

12:                                               ; preds = %1
  %13 = and i64 %9, 4294967295
  %14 = getelementptr inbounds i8, ptr %8, i64 %13
  %15 = getelementptr inbounds i8, ptr %14, i64 -4
  %16 = call i32 @strcmp(ptr noundef nonnull dereferenceable(1) %15, ptr noundef nonnull dereferenceable(5) @.str) #28
  %17 = icmp eq i32 %16, 0
  br i1 %17, label %18, label %22

18:                                               ; preds = %12
  %19 = add i64 %9, 4294967292
  %20 = and i64 %19, 4294967295
  %21 = getelementptr inbounds i8, ptr %8, i64 %20
  store i8 0, ptr %21, align 1, !tbaa !40
  br label %22

22:                                               ; preds = %18, %12, %1
  %23 = getelementptr inbounds %"class.std::__cxx11::basic_string", ptr %0, i64 0, i32 2
  store ptr %23, ptr %0, align 8, !tbaa !41
  %24 = call i64 @strlen(ptr noundef nonnull dereferenceable(1) %8) #27
  call void @llvm.lifetime.start.p0(i64 8, ptr nonnull %2) #27
  store i64 %24, ptr %2, align 8, !tbaa !42
  %25 = icmp ugt i64 %24, 15
  br i1 %25, label %26, label %29

26:                                               ; preds = %22
  %27 = call noundef ptr @_ZNSt7__cxx1112basic_stringIcSt11char_traitsIcESaIcEE9_M_createERmm(ptr noundef nonnull align 8 dereferenceable(32) %0, ptr noundef nonnull align 8 dereferenceable(8) %2, i64 noundef 0)
  store ptr %27, ptr %0, align 8, !tbaa !9
  %28 = load i64, ptr %2, align 8, !tbaa !42
  store i64 %28, ptr %23, align 8, !tbaa !40
  br label %29

29:                                               ; preds = %26, %22
  %30 = phi ptr [ %27, %26 ], [ %23, %22 ]
  switch i64 %24, label %33 [
    i64 1, label %31
    i64 0, label %34
  ]

31:                                               ; preds = %29
  %32 = load i8, ptr %8, align 1, !tbaa !40
  store i8 %32, ptr %30, align 1, !tbaa !40
  br label %34

33:                                               ; preds = %29
  call void @llvm.memcpy.p0.p0.i64(ptr align 1 %30, ptr nonnull align 1 %8, i64 %24, i1 false)
  br label %34

34:                                               ; preds = %33, %31, %29
  %35 = load i64, ptr %2, align 8, !tbaa !42
  %36 = getelementptr inbounds %"class.std::__cxx11::basic_string", ptr %0, i64 0, i32 1
  store i64 %35, ptr %36, align 8, !tbaa !15
  %37 = load ptr, ptr %0, align 8, !tbaa !9
  %38 = getelementptr inbounds i8, ptr %37, i64 %35
  store i8 0, ptr %38, align 1, !tbaa !40
  call void @llvm.lifetime.end.p0(i64 8, ptr nonnull %2) #27
  call void @llvm.lifetime.end.p0(i64 500, ptr nonnull %3) #27
  ret void
}

declare i32 @CCTK_ParameterFilename(i32 noundef, ptr noundef) local_unnamed_addr #8

; Function Attrs: mustprogress nofree nounwind willreturn memory(argmem: read)
declare noundef ptr @strrchr(ptr noundef, i32 noundef) local_unnamed_addr #9

; Function Attrs: mustprogress nofree nounwind willreturn memory(argmem: read)
declare i64 @strlen(ptr nocapture noundef) local_unnamed_addr #9

; Function Attrs: mustprogress nofree nounwind willreturn memory(argmem: read)
declare i32 @strcmp(ptr nocapture noundef, ptr nocapture noundef) local_unnamed_addr #9

declare noundef ptr @_ZNSt7__cxx1112basic_stringIcSt11char_traitsIcESaIcEE9_M_createERmm(ptr noundef nonnull align 8 dereferenceable(32), ptr noundef nonnull align 8 dereferenceable(8), i64 noundef) local_unnamed_addr #8

; Function Attrs: mustprogress nocallback nofree nounwind willreturn memory(argmem: readwrite)
declare void @llvm.memcpy.p0.p0.i64(ptr noalias nocapture writeonly, ptr noalias nocapture readonly, i64, i1 immarg) #10

; Function Attrs: mustprogress sspstrong uwtable
define dso_local noundef nonnull align 8 dereferenceable(8) ptr @_ZN12cctki_pirahalsERSoRKNS_9ValueTypeE(ptr noundef nonnull returned align 8 dereferenceable(8) %0, ptr nocapture noundef nonnull readonly align 4 dereferenceable(4) %1) local_unnamed_addr #11 {
  %3 = load i32, ptr %1, align 4, !tbaa !43
  switch i32 %3, label %14 [
    i32 0, label %4
    i32 1, label %6
    i32 2, label %8
    i32 3, label %10
    i32 4, label %12
  ]

4:                                                ; preds = %2
  %5 = tail call noundef nonnull align 8 dereferenceable(8) ptr @_ZSt16__ostream_insertIcSt11char_traitsIcEERSt13basic_ostreamIT_T0_ES6_PKS3_l(ptr noundef nonnull align 8 dereferenceable(8) %0, ptr noundef nonnull @.str.2, i64 noundef 6)
  br label %16

6:                                                ; preds = %2
  %7 = tail call noundef nonnull align 8 dereferenceable(8) ptr @_ZSt16__ostream_insertIcSt11char_traitsIcEERSt13basic_ostreamIT_T0_ES6_PKS3_l(ptr noundef nonnull align 8 dereferenceable(8) %0, ptr noundef nonnull @.str.3, i64 noundef 3)
  br label %16

8:                                                ; preds = %2
  %9 = tail call noundef nonnull align 8 dereferenceable(8) ptr @_ZSt16__ostream_insertIcSt11char_traitsIcEERSt13basic_ostreamIT_T0_ES6_PKS3_l(ptr noundef nonnull align 8 dereferenceable(8) %0, ptr noundef nonnull @.str.4, i64 noundef 4)
  br label %16

10:                                               ; preds = %2
  %11 = tail call noundef nonnull align 8 dereferenceable(8) ptr @_ZSt16__ostream_insertIcSt11char_traitsIcEERSt13basic_ostreamIT_T0_ES6_PKS3_l(ptr noundef nonnull align 8 dereferenceable(8) %0, ptr noundef nonnull @.str.5, i64 noundef 4)
  br label %16

12:                                               ; preds = %2
  %13 = tail call noundef nonnull align 8 dereferenceable(8) ptr @_ZSt16__ostream_insertIcSt11char_traitsIcEERSt13basic_ostreamIT_T0_ES6_PKS3_l(ptr noundef nonnull align 8 dereferenceable(8) %0, ptr noundef nonnull @.str.6, i64 noundef 4)
  br label %16

14:                                               ; preds = %2
  %15 = tail call noundef nonnull align 8 dereferenceable(8) ptr @_ZSt16__ostream_insertIcSt11char_traitsIcEERSt13basic_ostreamIT_T0_ES6_PKS3_l(ptr noundef nonnull align 8 dereferenceable(8) %0, ptr noundef nonnull @.str.7, i64 noundef 5)
  br label %16

16:                                               ; preds = %6, %10, %14, %12, %8, %4
  ret ptr %0
}

declare noundef nonnull align 8 dereferenceable(8) ptr @_ZSt16__ostream_insertIcSt11char_traitsIcEERSt13basic_ostreamIT_T0_ES6_PKS3_l(ptr noundef nonnull align 8 dereferenceable(8), ptr noundef, i64 noundef) local_unnamed_addr #8

; Function Attrs: sspstrong uwtable
define dso_local noundef nonnull align 8 dereferenceable(8) ptr @_ZN12cctki_pirahalsERSoRKNS_9smart_ptrINS_5ValueEEE(ptr noundef nonnull returned align 8 dereferenceable(8) %0, ptr nocapture noundef nonnull readonly align 8 dereferenceable(8) %1) local_unnamed_addr #7 personality ptr @__gxx_personality_v0 {
  %3 = alloca %"class.std::__cxx11::basic_string", align 8
  %4 = load ptr, ptr %1, align 8, !tbaa !45
  %5 = icmp eq ptr %4, null
  br i1 %5, label %10, label %6

6:                                                ; preds = %2
  %7 = getelementptr inbounds %"class.cctki_piraha::smart_ptr_guts.18", ptr %4, i64 0, i32 2
  %8 = load ptr, ptr %7, align 8, !tbaa !47
  %9 = icmp eq ptr %8, null
  br i1 %9, label %10, label %12

10:                                               ; preds = %2, %6
  %11 = tail call noundef nonnull align 8 dereferenceable(8) ptr @_ZSt16__ostream_insertIcSt11char_traitsIcEERSt13basic_ostreamIT_T0_ES6_PKS3_l(ptr noundef nonnull align 8 dereferenceable(8) %0, ptr noundef nonnull @.str.9, i64 noundef 4)
  br label %87

12:                                               ; preds = %6
  %13 = tail call noundef nonnull align 8 dereferenceable(8) ptr @_ZSt16__ostream_insertIcSt11char_traitsIcEERSt13basic_ostreamIT_T0_ES6_PKS3_l(ptr noundef nonnull align 8 dereferenceable(8) %0, ptr noundef nonnull @.str.10, i64 noundef 1)
  %14 = load ptr, ptr %1, align 8, !tbaa !45
  %15 = icmp eq ptr %14, null
  br i1 %15, label %19, label %16

16:                                               ; preds = %12
  %17 = getelementptr inbounds %"class.cctki_piraha::smart_ptr_guts.18", ptr %14, i64 0, i32 2
  %18 = load ptr, ptr %17, align 8, !tbaa !47
  br label %19

19:                                               ; preds = %12, %16
  %20 = phi ptr [ %18, %16 ], [ null, %12 ]
  %21 = getelementptr inbounds %"struct.cctki_piraha::Value", ptr %20, i64 0, i32 5
  %22 = tail call noundef nonnull align 8 dereferenceable(8) ptr @_ZN12cctki_pirahalsERSoRKNS_9ValueTypeE(ptr noundef nonnull align 8 dereferenceable(8) %0, ptr noundef nonnull align 4 dereferenceable(4) %21)
  %23 = tail call noundef nonnull align 8 dereferenceable(8) ptr @_ZSt16__ostream_insertIcSt11char_traitsIcEERSt13basic_ostreamIT_T0_ES6_PKS3_l(ptr noundef nonnull align 8 dereferenceable(8) %0, ptr noundef nonnull @.str.11, i64 noundef 1)
  %24 = load ptr, ptr %1, align 8, !tbaa !45
  %25 = icmp eq ptr %24, null
  br i1 %25, label %26, label %29

26:                                               ; preds = %19
  %27 = load i32, ptr inttoptr (i64 56 to ptr), align 8, !tbaa !49
  %28 = icmp eq i32 %27, 0
  tail call void @llvm.assume(i1 %28)
  br label %49

29:                                               ; preds = %19
  %30 = getelementptr inbounds %"class.cctki_piraha::smart_ptr_guts.18", ptr %24, i64 0, i32 2
  %31 = load ptr, ptr %30, align 8, !tbaa !47
  %32 = getelementptr inbounds %"struct.cctki_piraha::Value", ptr %31, i64 0, i32 5
  %33 = load i32, ptr %32, align 8, !tbaa !49
  switch i32 %33, label %60 [
    i32 2, label %34
    i32 1, label %38
    i32 3, label %42
    i32 0, label %49
  ]

34:                                               ; preds = %29
  %35 = getelementptr inbounds %"struct.cctki_piraha::Value", ptr %31, i64 0, i32 1
  %36 = load double, ptr %35, align 8, !tbaa !53
  %37 = tail call noundef nonnull align 8 dereferenceable(8) ptr @_ZNSo9_M_insertIdEERSoT_(ptr noundef nonnull align 8 dereferenceable(8) %0, double noundef %36)
  br label %87

38:                                               ; preds = %29
  %39 = getelementptr inbounds %"struct.cctki_piraha::Value", ptr %31, i64 0, i32 2
  %40 = load i32, ptr %39, align 8, !tbaa !54
  %41 = tail call noundef nonnull align 8 dereferenceable(8) ptr @_ZNSolsEi(ptr noundef nonnull align 8 dereferenceable(8) %0, i32 noundef %40)
  br label %87

42:                                               ; preds = %29
  %43 = getelementptr inbounds %"struct.cctki_piraha::Value", ptr %31, i64 0, i32 2
  %44 = load i32, ptr %43, align 8, !tbaa !54
  %45 = icmp eq i32 %44, 0
  %46 = select i1 %45, ptr @.str.13, ptr @.str.12
  %47 = select i1 %45, i64 5, i64 4
  %48 = tail call noundef nonnull align 8 dereferenceable(8) ptr @_ZSt16__ostream_insertIcSt11char_traitsIcEERSt13basic_ostreamIT_T0_ES6_PKS3_l(ptr noundef nonnull align 8 dereferenceable(8) %0, ptr noundef nonnull %46, i64 noundef %47)
  br label %87

49:                                               ; preds = %29, %26
  %50 = tail call noundef nonnull align 8 dereferenceable(8) ptr @_ZSt16__ostream_insertIcSt11char_traitsIcEERSt13basic_ostreamIT_T0_ES6_PKS3_l(ptr noundef nonnull align 8 dereferenceable(8) %0, ptr noundef nonnull @.str.14, i64 noundef 1)
  %51 = load ptr, ptr %1, align 8, !tbaa !45, !nonnull !31, !noundef !31
  %52 = getelementptr inbounds %"class.cctki_piraha::smart_ptr_guts.18", ptr %51, i64 0, i32 2
  %53 = load ptr, ptr %52, align 8, !tbaa !47
  %54 = getelementptr inbounds %"struct.cctki_piraha::Value", ptr %53, i64 0, i32 4
  %55 = load ptr, ptr %54, align 8, !tbaa !9
  %56 = getelementptr inbounds %"struct.cctki_piraha::Value", ptr %53, i64 0, i32 4, i32 1
  %57 = load i64, ptr %56, align 8, !tbaa !15
  %58 = tail call noundef nonnull align 8 dereferenceable(8) ptr @_ZSt16__ostream_insertIcSt11char_traitsIcEERSt13basic_ostreamIT_T0_ES6_PKS3_l(ptr noundef nonnull align 8 dereferenceable(8) %0, ptr noundef %55, i64 noundef %57)
  %59 = tail call noundef nonnull align 8 dereferenceable(8) ptr @_ZSt16__ostream_insertIcSt11char_traitsIcEERSt13basic_ostreamIT_T0_ES6_PKS3_l(ptr noundef nonnull align 8 dereferenceable(8) %58, ptr noundef nonnull @.str.14, i64 noundef 1)
  br label %87

60:                                               ; preds = %29
  call void @llvm.lifetime.start.p0(i64 32, ptr nonnull %3) #27
  %61 = load ptr, ptr %31, align 8, !tbaa !55, !nonnull !31, !noundef !31
  %62 = getelementptr inbounds %"class.cctki_piraha::smart_ptr_guts.20", ptr %61, i64 0, i32 2
  %63 = load ptr, ptr %62, align 8, !tbaa !56
  call void @_ZN12cctki_piraha5Group9substringB5cxx11Ev(ptr nonnull sret(%"class.std::__cxx11::basic_string") align 8 %3, ptr noundef nonnull align 8 dereferenceable(80) %63)
  %64 = load ptr, ptr %3, align 8, !tbaa !9
  %65 = getelementptr inbounds %"class.std::__cxx11::basic_string", ptr %3, i64 0, i32 1
  %66 = load i64, ptr %65, align 8, !tbaa !15
  %67 = invoke noundef nonnull align 8 dereferenceable(8) ptr @_ZSt16__ostream_insertIcSt11char_traitsIcEERSt13basic_ostreamIT_T0_ES6_PKS3_l(ptr noundef nonnull align 8 dereferenceable(8) %0, ptr noundef %64, i64 noundef %66)
          to label %68 unwind label %77

68:                                               ; preds = %60
  %69 = load ptr, ptr %3, align 8, !tbaa !9
  %70 = getelementptr inbounds %"class.std::__cxx11::basic_string", ptr %3, i64 0, i32 2
  %71 = icmp eq ptr %69, %70
  br i1 %71, label %72, label %75

72:                                               ; preds = %68
  %73 = load i64, ptr %65, align 8, !tbaa !15
  %74 = icmp ult i64 %73, 16
  call void @llvm.assume(i1 %74)
  br label %76

75:                                               ; preds = %68
  call void @_ZdlPv(ptr noundef %69) #26
  br label %76

76:                                               ; preds = %72, %75
  call void @llvm.lifetime.end.p0(i64 32, ptr nonnull %3) #27
  br label %87

77:                                               ; preds = %60
  %78 = landingpad { ptr, i32 }
          cleanup
  %79 = load ptr, ptr %3, align 8, !tbaa !9
  %80 = getelementptr inbounds %"class.std::__cxx11::basic_string", ptr %3, i64 0, i32 2
  %81 = icmp eq ptr %79, %80
  br i1 %81, label %82, label %85

82:                                               ; preds = %77
  %83 = load i64, ptr %65, align 8, !tbaa !15
  %84 = icmp ult i64 %83, 16
  call void @llvm.assume(i1 %84)
  br label %86

85:                                               ; preds = %77
  call void @_ZdlPv(ptr noundef %79) #26
  br label %86

86:                                               ; preds = %82, %85
  call void @llvm.lifetime.end.p0(i64 32, ptr nonnull %3) #27
  resume { ptr, i32 } %78

87:                                               ; preds = %34, %42, %76, %49, %38, %10
  ret ptr %0
}

declare noundef nonnull align 8 dereferenceable(8) ptr @_ZNSolsEi(ptr noundef nonnull align 8 dereferenceable(8), i32 noundef) local_unnamed_addr #8

declare void @_ZN12cctki_piraha5Group9substringB5cxx11Ev(ptr sret(%"class.std::__cxx11::basic_string") align 8, ptr noundef nonnull align 8 dereferenceable(80)) local_unnamed_addr #8

declare noundef nonnull align 8 dereferenceable(8) ptr @_ZNSo9_M_insertIdEERSoT_(ptr noundef nonnull align 8 dereferenceable(8), double noundef) local_unnamed_addr #8

; Function Attrs: sspstrong uwtable
define dso_local void @_ZN12cctki_piraha8find_valENS_9smart_ptrINS_5GroupEEENSt7__cxx1112basic_stringIcSt11char_traitsIcESaIcEEES8_(ptr noalias sret(%"class.cctki_piraha::smart_ptr.13") align 8 %0, ptr nocapture noundef readonly %1, ptr nocapture noundef readonly %2, ptr nocapture noundef readonly %3) local_unnamed_addr #7 personality ptr @__gxx_personality_v0 {
  %5 = alloca %"class.cctki_piraha::smart_ptr.14", align 8
  %6 = alloca i32, align 4
  %7 = alloca %"class.std::__cxx11::basic_ostringstream", align 8
  %8 = alloca %"class.std::__cxx11::basic_string", align 8
  %9 = alloca %"class.std::__cxx11::basic_string", align 8
  %10 = alloca %"class.std::__cxx11::basic_ostringstream", align 8
  %11 = alloca %"class.std::__cxx11::basic_string", align 8
  %12 = alloca %"class.std::__cxx11::basic_string", align 8
  %13 = tail call noalias noundef nonnull dereferenceable(64) ptr @_Znwm(i64 noundef 64) #29
  %14 = load ptr, ptr %1, align 8, !tbaa !55
  store ptr %14, ptr %5, align 8, !tbaa !55
  %15 = icmp eq ptr %14, null
  br i1 %15, label %19, label %16

16:                                               ; preds = %4
  %17 = load i32, ptr %14, align 8, !tbaa !58
  %18 = add nsw i32 %17, 2
  store i32 %18, ptr %14, align 8, !tbaa !58
  br label %19

19:                                               ; preds = %4, %16
  store ptr %14, ptr %13, align 8
  %20 = getelementptr inbounds %"struct.cctki_piraha::Value", ptr %13, i64 0, i32 1
  store double 0.000000e+00, ptr %20, align 8, !tbaa !53
  %21 = getelementptr inbounds %"struct.cctki_piraha::Value", ptr %13, i64 0, i32 2
  store i32 0, ptr %21, align 8, !tbaa !54
  %22 = getelementptr inbounds %"struct.cctki_piraha::Value", ptr %13, i64 0, i32 4
  %23 = getelementptr inbounds %"struct.cctki_piraha::Value", ptr %13, i64 0, i32 4, i32 2
  store ptr %23, ptr %22, align 8, !tbaa !41
  %24 = getelementptr inbounds %"struct.cctki_piraha::Value", ptr %13, i64 0, i32 4, i32 1
  store i64 0, ptr %24, align 8, !tbaa !15
  store i8 0, ptr %23, align 8, !tbaa !40
  %25 = getelementptr inbounds %"struct.cctki_piraha::Value", ptr %13, i64 0, i32 5
  store i32 4, ptr %25, align 8, !tbaa !49
  %26 = invoke noalias noundef nonnull dereferenceable(24) ptr @_Znwm(i64 noundef 24) #29
          to label %27 unwind label %160

27:                                               ; preds = %19
  store i32 1, ptr %26, align 8, !tbaa !59
  %28 = getelementptr inbounds %"class.cctki_piraha::smart_ptr_guts.18", ptr %26, i64 0, i32 2
  store ptr %13, ptr %28, align 8, !tbaa !47
  %29 = getelementptr inbounds %"class.cctki_piraha::smart_ptr_guts.18", ptr %26, i64 0, i32 3
  store i8 0, ptr %29, align 8, !tbaa !60
  store ptr %26, ptr %0, align 8, !tbaa !45
  br i1 %15, label %37, label %30

30:                                               ; preds = %27
  %31 = load i32, ptr %14, align 8, !tbaa !58
  %32 = icmp sgt i32 %31, 0
  br i1 %32, label %33, label %37

33:                                               ; preds = %30
  %34 = add nsw i32 %31, -1
  store i32 %34, ptr %14, align 8, !tbaa !58
  %35 = icmp eq i32 %31, 1
  br i1 %35, label %36, label %37

36:                                               ; preds = %33
  tail call void @_ZN12cctki_piraha14smart_ptr_gutsINS_5GroupEED2Ev(ptr noundef nonnull align 8 dereferenceable(17) %14) #27
  tail call void @_ZdlPv(ptr noundef nonnull %14) #26
  store ptr null, ptr %5, align 8, !tbaa !55
  br label %37

37:                                               ; preds = %27, %30, %33, %36
  call void @llvm.lifetime.start.p0(i64 4, ptr nonnull %6) #27
  %38 = load ptr, ptr %3, align 8, !tbaa !9
  %39 = load ptr, ptr %2, align 8, !tbaa !9
  %40 = invoke ptr @CCTK_ParameterGet(ptr noundef %38, ptr noundef %39, ptr noundef nonnull %6)
          to label %41 unwind label %162

41:                                               ; preds = %37
  %42 = icmp eq ptr %40, null
  br i1 %42, label %43, label %198

43:                                               ; preds = %41
  call void @llvm.lifetime.start.p0(i64 376, ptr nonnull %7) #27
  invoke void @_ZNSt7__cxx1119basic_ostringstreamIcSt11char_traitsIcESaIcEEC1Ev(ptr noundef nonnull align 8 dereferenceable(112) %7)
          to label %44 unwind label %164

44:                                               ; preds = %43
  %45 = invoke noundef nonnull align 8 dereferenceable(8) ptr @_ZSt16__ostream_insertIcSt11char_traitsIcEERSt13basic_ostreamIT_T0_ES6_PKS3_l(ptr noundef nonnull align 8 dereferenceable(8) %7, ptr noundef nonnull @.str.15, i64 noundef 36)
          to label %46 unwind label %166

46:                                               ; preds = %44
  %47 = load ptr, ptr %2, align 8, !tbaa !9
  %48 = getelementptr inbounds %"class.std::__cxx11::basic_string", ptr %2, i64 0, i32 1
  %49 = load i64, ptr %48, align 8, !tbaa !15
  %50 = invoke noundef nonnull align 8 dereferenceable(8) ptr @_ZSt16__ostream_insertIcSt11char_traitsIcEERSt13basic_ostreamIT_T0_ES6_PKS3_l(ptr noundef nonnull align 8 dereferenceable(8) %7, ptr noundef %47, i64 noundef %49)
          to label %51 unwind label %166

51:                                               ; preds = %46
  %52 = invoke noundef nonnull align 8 dereferenceable(8) ptr @_ZSt16__ostream_insertIcSt11char_traitsIcEERSt13basic_ostreamIT_T0_ES6_PKS3_l(ptr noundef nonnull align 8 dereferenceable(8) %50, ptr noundef nonnull @.str.16, i64 noundef 2)
          to label %53 unwind label %166

53:                                               ; preds = %51
  %54 = load ptr, ptr %3, align 8, !tbaa !9
  %55 = getelementptr inbounds %"class.std::__cxx11::basic_string", ptr %3, i64 0, i32 1
  %56 = load i64, ptr %55, align 8, !tbaa !15
  %57 = invoke noundef nonnull align 8 dereferenceable(8) ptr @_ZSt16__ostream_insertIcSt11char_traitsIcEERSt13basic_ostreamIT_T0_ES6_PKS3_l(ptr noundef nonnull align 8 dereferenceable(8) %50, ptr noundef %54, i64 noundef %56)
          to label %58 unwind label %166

58:                                               ; preds = %53
  %59 = load ptr, ptr %57, align 8, !tbaa !6
  %60 = getelementptr i8, ptr %59, i64 -24
  %61 = load i64, ptr %60, align 8
  %62 = getelementptr inbounds i8, ptr %57, i64 %61
  %63 = getelementptr inbounds %"class.std::basic_ios", ptr %62, i64 0, i32 5
  %64 = load ptr, ptr %63, align 8, !tbaa !61
  %65 = icmp eq ptr %64, null
  br i1 %65, label %66, label %68

66:                                               ; preds = %58
  invoke void @_ZSt16__throw_bad_castv() #30
          to label %67 unwind label %166

67:                                               ; preds = %66
  unreachable

68:                                               ; preds = %58
  %69 = getelementptr inbounds %"class.std::ctype", ptr %64, i64 0, i32 8
  %70 = load i8, ptr %69, align 8, !tbaa !68
  %71 = icmp eq i8 %70, 0
  br i1 %71, label %75, label %72

72:                                               ; preds = %68
  %73 = getelementptr inbounds %"class.std::ctype", ptr %64, i64 0, i32 9, i64 10
  %74 = load i8, ptr %73, align 1, !tbaa !40
  br label %81

75:                                               ; preds = %68
  invoke void @_ZNKSt5ctypeIcE13_M_widen_initEv(ptr noundef nonnull align 8 dereferenceable(570) %64)
          to label %76 unwind label %166

76:                                               ; preds = %75
  %77 = load ptr, ptr %64, align 8, !tbaa !6
  %78 = getelementptr inbounds ptr, ptr %77, i64 6
  %79 = load ptr, ptr %78, align 8
  %80 = invoke noundef signext i8 %79(ptr noundef nonnull align 8 dereferenceable(570) %64, i8 noundef signext 10)
          to label %81 unwind label %166

81:                                               ; preds = %76, %72
  %82 = phi i8 [ %74, %72 ], [ %80, %76 ]
  %83 = invoke noundef nonnull align 8 dereferenceable(8) ptr @_ZNSo3putEc(ptr noundef nonnull align 8 dereferenceable(8) %57, i8 noundef signext %82)
          to label %84 unwind label %166

84:                                               ; preds = %81
  %85 = invoke noundef nonnull align 8 dereferenceable(8) ptr @_ZNSo5flushEv(ptr noundef nonnull align 8 dereferenceable(8) %83)
          to label %86 unwind label %166

86:                                               ; preds = %84
  call void @llvm.lifetime.start.p0(i64 32, ptr nonnull %8) #27
  invoke void @_ZN12cctki_piraha11get_parfileB5cxx11Ev(ptr nonnull sret(%"class.std::__cxx11::basic_string") align 8 %8)
          to label %87 unwind label %168

87:                                               ; preds = %86
  %88 = load ptr, ptr %1, align 8, !tbaa !55, !nonnull !31, !noundef !31
  %89 = getelementptr inbounds %"class.cctki_piraha::smart_ptr_guts.20", ptr %88, i64 0, i32 2
  %90 = load ptr, ptr %89, align 8, !tbaa !56
  %91 = invoke noundef i32 @_ZN12cctki_piraha5Group4lineEv(ptr noundef nonnull align 8 dereferenceable(80) %90)
          to label %92 unwind label %170

92:                                               ; preds = %87
  %93 = load ptr, ptr %8, align 8, !tbaa !9
  %94 = load ptr, ptr @_ZN12cctki_piraha13current_thornB5cxx11E, align 8, !tbaa !9
  call void @llvm.lifetime.start.p0(i64 32, ptr nonnull %9) #27
  call void @llvm.experimental.noalias.scope.decl(metadata !71)
  call void @llvm.experimental.noalias.scope.decl(metadata !74)
  %95 = getelementptr inbounds %"class.std::__cxx11::basic_string", ptr %9, i64 0, i32 2
  store ptr %95, ptr %9, align 8, !tbaa !41, !alias.scope !77
  %96 = getelementptr inbounds %"class.std::__cxx11::basic_string", ptr %9, i64 0, i32 1
  store i64 0, ptr %96, align 8, !tbaa !15, !alias.scope !77
  store i8 0, ptr %95, align 8, !tbaa !40, !alias.scope !77
  %97 = getelementptr inbounds %"class.std::__cxx11::basic_ostringstream", ptr %7, i64 0, i32 1, i32 0, i32 5
  %98 = load ptr, ptr %97, align 8, !tbaa !78, !noalias !77
  %99 = icmp eq ptr %98, null
  %100 = getelementptr inbounds %"class.std::__cxx11::basic_ostringstream", ptr %7, i64 0, i32 1, i32 0, i32 3
  %101 = load ptr, ptr %100, align 8, !noalias !77
  %102 = icmp ugt ptr %98, %101
  %103 = select i1 %102, ptr %98, ptr %101
  %104 = icmp eq ptr %103, null
  %105 = select i1 %99, i1 true, i1 %104
  br i1 %105, label %121, label %106

106:                                              ; preds = %92
  %107 = getelementptr inbounds %"class.std::__cxx11::basic_ostringstream", ptr %7, i64 0, i32 1, i32 0, i32 4
  %108 = load ptr, ptr %107, align 8, !tbaa !80, !noalias !77
  %109 = ptrtoint ptr %103 to i64
  %110 = ptrtoint ptr %108 to i64
  %111 = sub i64 %109, %110
  %112 = invoke noundef nonnull align 8 dereferenceable(32) ptr @_ZNSt7__cxx1112basic_stringIcSt11char_traitsIcESaIcEE10_M_replaceEmmPKcm(ptr noundef nonnull align 8 dereferenceable(32) %9, i64 noundef 0, i64 noundef 0, ptr noundef %108, i64 noundef %111)
          to label %123 unwind label %113

113:                                              ; preds = %121, %106
  %114 = landingpad { ptr, i32 }
          cleanup
  %115 = load ptr, ptr %9, align 8, !tbaa !9, !alias.scope !77
  %116 = icmp eq ptr %115, %95
  br i1 %116, label %117, label %120

117:                                              ; preds = %113
  %118 = load i64, ptr %96, align 8, !tbaa !15, !alias.scope !77
  %119 = icmp ult i64 %118, 16
  call void @llvm.assume(i1 %119)
  br label %180

120:                                              ; preds = %113
  call void @_ZdlPv(ptr noundef %115) #26
  br label %180

121:                                              ; preds = %92
  %122 = getelementptr inbounds %"class.std::__cxx11::basic_ostringstream", ptr %7, i64 0, i32 1, i32 2
  invoke void @_ZNSt7__cxx1112basic_stringIcSt11char_traitsIcESaIcEE9_M_assignERKS4_(ptr noundef nonnull align 8 dereferenceable(32) %9, ptr noundef nonnull align 8 dereferenceable(32) %122)
          to label %123 unwind label %113

123:                                              ; preds = %121, %106
  %124 = load ptr, ptr %9, align 8, !tbaa !9
  invoke void @CCTK_Error(i32 noundef %91, ptr noundef %93, ptr noundef %94, ptr noundef %124)
          to label %125 unwind label %172

125:                                              ; preds = %123
  %126 = load ptr, ptr %9, align 8, !tbaa !9
  %127 = icmp eq ptr %126, %95
  br i1 %127, label %128, label %131

128:                                              ; preds = %125
  %129 = load i64, ptr %96, align 8, !tbaa !15
  %130 = icmp ult i64 %129, 16
  call void @llvm.assume(i1 %130)
  br label %132

131:                                              ; preds = %125
  call void @_ZdlPv(ptr noundef %126) #26
  br label %132

132:                                              ; preds = %128, %131
  call void @llvm.lifetime.end.p0(i64 32, ptr nonnull %9) #27
  %133 = load ptr, ptr %8, align 8, !tbaa !9
  %134 = getelementptr inbounds %"class.std::__cxx11::basic_string", ptr %8, i64 0, i32 2
  %135 = icmp eq ptr %133, %134
  br i1 %135, label %136, label %140

136:                                              ; preds = %132
  %137 = getelementptr inbounds %"class.std::__cxx11::basic_string", ptr %8, i64 0, i32 1
  %138 = load i64, ptr %137, align 8, !tbaa !15
  %139 = icmp ult i64 %138, 16
  call void @llvm.assume(i1 %139)
  br label %141

140:                                              ; preds = %132
  call void @_ZdlPv(ptr noundef %133) #26
  br label %141

141:                                              ; preds = %136, %140
  call void @llvm.lifetime.end.p0(i64 32, ptr nonnull %8) #27
  %142 = load ptr, ptr @_ZTTNSt7__cxx1119basic_ostringstreamIcSt11char_traitsIcESaIcEEE, align 8
  store ptr %142, ptr %7, align 8, !tbaa !6
  %143 = load ptr, ptr getelementptr inbounds ([4 x ptr], ptr @_ZTTNSt7__cxx1119basic_ostringstreamIcSt11char_traitsIcESaIcEEE, i64 0, i64 3), align 8
  %144 = getelementptr i8, ptr %142, i64 -24
  %145 = load i64, ptr %144, align 8
  %146 = getelementptr inbounds i8, ptr %7, i64 %145
  store ptr %143, ptr %146, align 8, !tbaa !6
  %147 = getelementptr inbounds %"class.std::__cxx11::basic_ostringstream", ptr %7, i64 0, i32 1
  store ptr getelementptr inbounds ({ [16 x ptr] }, ptr @_ZTVNSt7__cxx1115basic_stringbufIcSt11char_traitsIcESaIcEEE, i64 0, inrange i32 0, i64 2), ptr %147, align 8, !tbaa !6
  %148 = getelementptr inbounds %"class.std::__cxx11::basic_ostringstream", ptr %7, i64 0, i32 1, i32 2
  %149 = load ptr, ptr %148, align 8, !tbaa !9
  %150 = getelementptr inbounds %"class.std::__cxx11::basic_ostringstream", ptr %7, i64 0, i32 1, i32 2, i32 2
  %151 = icmp eq ptr %149, %150
  br i1 %151, label %152, label %156

152:                                              ; preds = %141
  %153 = getelementptr inbounds %"class.std::__cxx11::basic_ostringstream", ptr %7, i64 0, i32 1, i32 2, i32 1
  %154 = load i64, ptr %153, align 8, !tbaa !15
  %155 = icmp ult i64 %154, 16
  call void @llvm.assume(i1 %155)
  br label %157

156:                                              ; preds = %141
  call void @_ZdlPv(ptr noundef %149) #26
  br label %157

157:                                              ; preds = %152, %156
  store ptr getelementptr inbounds ({ [16 x ptr] }, ptr @_ZTVSt15basic_streambufIcSt11char_traitsIcEE, i64 0, inrange i32 0, i64 2), ptr %147, align 8, !tbaa !6
  %158 = getelementptr inbounds %"class.std::__cxx11::basic_ostringstream", ptr %7, i64 0, i32 1, i32 0, i32 7
  call void @_ZNSt6localeD1Ev(ptr noundef nonnull align 8 dereferenceable(8) %158) #27
  %159 = getelementptr inbounds i8, ptr %7, i64 112
  call void @_ZNSt8ios_baseD2Ev(ptr noundef nonnull align 8 dereferenceable(264) %159) #27
  call void @llvm.lifetime.end.p0(i64 376, ptr nonnull %7) #27
  br label %198

160:                                              ; preds = %19
  %161 = landingpad { ptr, i32 }
          cleanup
  call void @_ZN12cctki_piraha9smart_ptrINS_5GroupEED2Ev(ptr noundef nonnull align 8 dereferenceable(8) %5) #27
  br label %376

162:                                              ; preds = %37
  %163 = landingpad { ptr, i32 }
          cleanup
  br label %374

164:                                              ; preds = %43
  %165 = landingpad { ptr, i32 }
          cleanup
  br label %196

166:                                              ; preds = %84, %81, %76, %75, %66, %53, %51, %46, %44
  %167 = landingpad { ptr, i32 }
          cleanup
  br label %194

168:                                              ; preds = %86
  %169 = landingpad { ptr, i32 }
          cleanup
  br label %192

170:                                              ; preds = %87
  %171 = landingpad { ptr, i32 }
          cleanup
  br label %182

172:                                              ; preds = %123
  %173 = landingpad { ptr, i32 }
          cleanup
  %174 = load ptr, ptr %9, align 8, !tbaa !9
  %175 = icmp eq ptr %174, %95
  br i1 %175, label %176, label %179

176:                                              ; preds = %172
  %177 = load i64, ptr %96, align 8, !tbaa !15
  %178 = icmp ult i64 %177, 16
  call void @llvm.assume(i1 %178)
  br label %180

179:                                              ; preds = %172
  call void @_ZdlPv(ptr noundef %174) #26
  br label %180

180:                                              ; preds = %179, %176, %120, %117
  %181 = phi { ptr, i32 } [ %114, %120 ], [ %114, %117 ], [ %173, %176 ], [ %173, %179 ]
  call void @llvm.lifetime.end.p0(i64 32, ptr nonnull %9) #27
  br label %182

182:                                              ; preds = %180, %170
  %183 = phi { ptr, i32 } [ %181, %180 ], [ %171, %170 ]
  %184 = load ptr, ptr %8, align 8, !tbaa !9
  %185 = getelementptr inbounds %"class.std::__cxx11::basic_string", ptr %8, i64 0, i32 2
  %186 = icmp eq ptr %184, %185
  br i1 %186, label %187, label %191

187:                                              ; preds = %182
  %188 = getelementptr inbounds %"class.std::__cxx11::basic_string", ptr %8, i64 0, i32 1
  %189 = load i64, ptr %188, align 8, !tbaa !15
  %190 = icmp ult i64 %189, 16
  call void @llvm.assume(i1 %190)
  br label %192

191:                                              ; preds = %182
  call void @_ZdlPv(ptr noundef %184) #26
  br label %192

192:                                              ; preds = %191, %187, %168
  %193 = phi { ptr, i32 } [ %169, %168 ], [ %183, %187 ], [ %183, %191 ]
  call void @llvm.lifetime.end.p0(i64 32, ptr nonnull %8) #27
  br label %194

194:                                              ; preds = %192, %166
  %195 = phi { ptr, i32 } [ %193, %192 ], [ %167, %166 ]
  call void @_ZNSt7__cxx1119basic_ostringstreamIcSt11char_traitsIcESaIcEED1Ev(ptr noundef nonnull align 8 dereferenceable(112) %7) #27
  br label %196

196:                                              ; preds = %194, %164
  %197 = phi { ptr, i32 } [ %195, %194 ], [ %165, %164 ]
  call void @llvm.lifetime.end.p0(i64 376, ptr nonnull %7) #27
  br label %374

198:                                              ; preds = %157, %41
  %199 = load i32, ptr %6, align 4, !tbaa !81
  switch i32 %199, label %231 [
    i32 705, label %200
    i32 704, label %205
    i32 706, label %210
    i32 702, label %215
    i32 703, label %215
    i32 701, label %215
  ]

200:                                              ; preds = %198
  %201 = load ptr, ptr %28, align 8, !tbaa !47
  %202 = getelementptr inbounds %"struct.cctki_piraha::Value", ptr %201, i64 0, i32 5
  store i32 2, ptr %202, align 8, !tbaa !49
  %203 = load double, ptr %40, align 8, !tbaa !82
  %204 = getelementptr inbounds %"struct.cctki_piraha::Value", ptr %201, i64 0, i32 1
  store double %203, ptr %204, align 8, !tbaa !53
  br label %339

205:                                              ; preds = %198
  %206 = load ptr, ptr %28, align 8, !tbaa !47
  %207 = getelementptr inbounds %"struct.cctki_piraha::Value", ptr %206, i64 0, i32 5
  store i32 1, ptr %207, align 8, !tbaa !49
  %208 = load i32, ptr %40, align 4, !tbaa !81
  %209 = getelementptr inbounds %"struct.cctki_piraha::Value", ptr %206, i64 0, i32 2
  store i32 %208, ptr %209, align 8, !tbaa !54
  br label %339

210:                                              ; preds = %198
  %211 = load ptr, ptr %28, align 8, !tbaa !47
  %212 = getelementptr inbounds %"struct.cctki_piraha::Value", ptr %211, i64 0, i32 5
  store i32 3, ptr %212, align 8, !tbaa !49
  %213 = load i32, ptr %40, align 4, !tbaa !81
  %214 = getelementptr inbounds %"struct.cctki_piraha::Value", ptr %211, i64 0, i32 2
  store i32 %213, ptr %214, align 8, !tbaa !54
  br label %339

215:                                              ; preds = %198, %198, %198
  %216 = load ptr, ptr %28, align 8, !tbaa !47
  %217 = getelementptr inbounds %"struct.cctki_piraha::Value", ptr %216, i64 0, i32 5
  store i32 0, ptr %217, align 8, !tbaa !49
  %218 = load ptr, ptr %40, align 8, !tbaa !83
  %219 = call i64 @strlen(ptr noundef nonnull dereferenceable(1) %218) #27
  %220 = getelementptr inbounds %"struct.cctki_piraha::Value", ptr %216, i64 0, i32 4, i32 1
  %221 = load i64, ptr %220, align 8, !tbaa !15
  %222 = sub i64 4611686018427387903, %221
  %223 = icmp ult i64 %222, %219
  br i1 %223, label %224, label %226

224:                                              ; preds = %215
  invoke void @_ZSt20__throw_length_errorPKc(ptr noundef nonnull @.str.20) #30
          to label %225 unwind label %229

225:                                              ; preds = %224
  unreachable

226:                                              ; preds = %215
  %227 = getelementptr inbounds %"struct.cctki_piraha::Value", ptr %216, i64 0, i32 4
  %228 = invoke noundef nonnull align 8 dereferenceable(32) ptr @_ZNSt7__cxx1112basic_stringIcSt11char_traitsIcESaIcEE9_M_appendEPKcm(ptr noundef nonnull align 8 dereferenceable(32) %227, ptr noundef %218, i64 noundef %219)
          to label %339 unwind label %229

229:                                              ; preds = %226, %224
  %230 = landingpad { ptr, i32 }
          cleanup
  br label %374

231:                                              ; preds = %198
  call void @llvm.lifetime.start.p0(i64 376, ptr nonnull %10) #27
  invoke void @_ZNSt7__cxx1119basic_ostringstreamIcSt11char_traitsIcESaIcEEC1Ev(ptr noundef nonnull align 8 dereferenceable(112) %10)
          to label %232 unwind label %340

232:                                              ; preds = %231
  %233 = invoke noundef nonnull align 8 dereferenceable(8) ptr @_ZSt16__ostream_insertIcSt11char_traitsIcEERSt13basic_ostreamIT_T0_ES6_PKS3_l(ptr noundef nonnull align 8 dereferenceable(8) %10, ptr noundef nonnull @.str.17, i64 noundef 41)
          to label %234 unwind label %342

234:                                              ; preds = %232
  %235 = load i32, ptr %6, align 4, !tbaa !81
  %236 = invoke noundef nonnull align 8 dereferenceable(8) ptr @_ZNSolsEi(ptr noundef nonnull align 8 dereferenceable(8) %10, i32 noundef %235)
          to label %237 unwind label %342

237:                                              ; preds = %234
  %238 = load ptr, ptr %236, align 8, !tbaa !6
  %239 = getelementptr i8, ptr %238, i64 -24
  %240 = load i64, ptr %239, align 8
  %241 = getelementptr inbounds i8, ptr %236, i64 %240
  %242 = getelementptr inbounds %"class.std::basic_ios", ptr %241, i64 0, i32 5
  %243 = load ptr, ptr %242, align 8, !tbaa !61
  %244 = icmp eq ptr %243, null
  br i1 %244, label %245, label %247

245:                                              ; preds = %237
  invoke void @_ZSt16__throw_bad_castv() #30
          to label %246 unwind label %342

246:                                              ; preds = %245
  unreachable

247:                                              ; preds = %237
  %248 = getelementptr inbounds %"class.std::ctype", ptr %243, i64 0, i32 8
  %249 = load i8, ptr %248, align 8, !tbaa !68
  %250 = icmp eq i8 %249, 0
  br i1 %250, label %254, label %251

251:                                              ; preds = %247
  %252 = getelementptr inbounds %"class.std::ctype", ptr %243, i64 0, i32 9, i64 10
  %253 = load i8, ptr %252, align 1, !tbaa !40
  br label %260

254:                                              ; preds = %247
  invoke void @_ZNKSt5ctypeIcE13_M_widen_initEv(ptr noundef nonnull align 8 dereferenceable(570) %243)
          to label %255 unwind label %342

255:                                              ; preds = %254
  %256 = load ptr, ptr %243, align 8, !tbaa !6
  %257 = getelementptr inbounds ptr, ptr %256, i64 6
  %258 = load ptr, ptr %257, align 8
  %259 = invoke noundef signext i8 %258(ptr noundef nonnull align 8 dereferenceable(570) %243, i8 noundef signext 10)
          to label %260 unwind label %342

260:                                              ; preds = %255, %251
  %261 = phi i8 [ %253, %251 ], [ %259, %255 ]
  %262 = invoke noundef nonnull align 8 dereferenceable(8) ptr @_ZNSo3putEc(ptr noundef nonnull align 8 dereferenceable(8) %236, i8 noundef signext %261)
          to label %263 unwind label %342

263:                                              ; preds = %260
  %264 = invoke noundef nonnull align 8 dereferenceable(8) ptr @_ZNSo5flushEv(ptr noundef nonnull align 8 dereferenceable(8) %262)
          to label %265 unwind label %342

265:                                              ; preds = %263
  call void @llvm.lifetime.start.p0(i64 32, ptr nonnull %11) #27
  invoke void @_ZN12cctki_piraha11get_parfileB5cxx11Ev(ptr nonnull sret(%"class.std::__cxx11::basic_string") align 8 %11)
          to label %266 unwind label %344

266:                                              ; preds = %265
  %267 = load ptr, ptr %1, align 8, !tbaa !55, !nonnull !31, !noundef !31
  %268 = getelementptr inbounds %"class.cctki_piraha::smart_ptr_guts.20", ptr %267, i64 0, i32 2
  %269 = load ptr, ptr %268, align 8, !tbaa !56
  %270 = invoke noundef i32 @_ZN12cctki_piraha5Group4lineEv(ptr noundef nonnull align 8 dereferenceable(80) %269)
          to label %271 unwind label %346

271:                                              ; preds = %266
  %272 = load ptr, ptr %11, align 8, !tbaa !9
  %273 = load ptr, ptr @_ZN12cctki_piraha13current_thornB5cxx11E, align 8, !tbaa !9
  call void @llvm.lifetime.start.p0(i64 32, ptr nonnull %12) #27
  call void @llvm.experimental.noalias.scope.decl(metadata !84)
  call void @llvm.experimental.noalias.scope.decl(metadata !87)
  %274 = getelementptr inbounds %"class.std::__cxx11::basic_string", ptr %12, i64 0, i32 2
  store ptr %274, ptr %12, align 8, !tbaa !41, !alias.scope !90
  %275 = getelementptr inbounds %"class.std::__cxx11::basic_string", ptr %12, i64 0, i32 1
  store i64 0, ptr %275, align 8, !tbaa !15, !alias.scope !90
  store i8 0, ptr %274, align 8, !tbaa !40, !alias.scope !90
  %276 = getelementptr inbounds %"class.std::__cxx11::basic_ostringstream", ptr %10, i64 0, i32 1, i32 0, i32 5
  %277 = load ptr, ptr %276, align 8, !tbaa !78, !noalias !90
  %278 = icmp eq ptr %277, null
  %279 = getelementptr inbounds %"class.std::__cxx11::basic_ostringstream", ptr %10, i64 0, i32 1, i32 0, i32 3
  %280 = load ptr, ptr %279, align 8, !noalias !90
  %281 = icmp ugt ptr %277, %280
  %282 = select i1 %281, ptr %277, ptr %280
  %283 = icmp eq ptr %282, null
  %284 = select i1 %278, i1 true, i1 %283
  br i1 %284, label %300, label %285

285:                                              ; preds = %271
  %286 = getelementptr inbounds %"class.std::__cxx11::basic_ostringstream", ptr %10, i64 0, i32 1, i32 0, i32 4
  %287 = load ptr, ptr %286, align 8, !tbaa !80, !noalias !90
  %288 = ptrtoint ptr %282 to i64
  %289 = ptrtoint ptr %287 to i64
  %290 = sub i64 %288, %289
  %291 = invoke noundef nonnull align 8 dereferenceable(32) ptr @_ZNSt7__cxx1112basic_stringIcSt11char_traitsIcESaIcEE10_M_replaceEmmPKcm(ptr noundef nonnull align 8 dereferenceable(32) %12, i64 noundef 0, i64 noundef 0, ptr noundef %287, i64 noundef %290)
          to label %302 unwind label %292

292:                                              ; preds = %300, %285
  %293 = landingpad { ptr, i32 }
          cleanup
  %294 = load ptr, ptr %12, align 8, !tbaa !9, !alias.scope !90
  %295 = icmp eq ptr %294, %274
  br i1 %295, label %296, label %299

296:                                              ; preds = %292
  %297 = load i64, ptr %275, align 8, !tbaa !15, !alias.scope !90
  %298 = icmp ult i64 %297, 16
  call void @llvm.assume(i1 %298)
  br label %356

299:                                              ; preds = %292
  call void @_ZdlPv(ptr noundef %294) #26
  br label %356

300:                                              ; preds = %271
  %301 = getelementptr inbounds %"class.std::__cxx11::basic_ostringstream", ptr %10, i64 0, i32 1, i32 2
  invoke void @_ZNSt7__cxx1112basic_stringIcSt11char_traitsIcESaIcEE9_M_assignERKS4_(ptr noundef nonnull align 8 dereferenceable(32) %12, ptr noundef nonnull align 8 dereferenceable(32) %301)
          to label %302 unwind label %292

302:                                              ; preds = %300, %285
  %303 = load ptr, ptr %12, align 8, !tbaa !9
  invoke void @CCTK_Error(i32 noundef %270, ptr noundef %272, ptr noundef %273, ptr noundef %303)
          to label %304 unwind label %348

304:                                              ; preds = %302
  %305 = load ptr, ptr %12, align 8, !tbaa !9
  %306 = icmp eq ptr %305, %274
  br i1 %306, label %307, label %310

307:                                              ; preds = %304
  %308 = load i64, ptr %275, align 8, !tbaa !15
  %309 = icmp ult i64 %308, 16
  call void @llvm.assume(i1 %309)
  br label %311

310:                                              ; preds = %304
  call void @_ZdlPv(ptr noundef %305) #26
  br label %311

311:                                              ; preds = %307, %310
  call void @llvm.lifetime.end.p0(i64 32, ptr nonnull %12) #27
  %312 = load ptr, ptr %11, align 8, !tbaa !9
  %313 = getelementptr inbounds %"class.std::__cxx11::basic_string", ptr %11, i64 0, i32 2
  %314 = icmp eq ptr %312, %313
  br i1 %314, label %315, label %319

315:                                              ; preds = %311
  %316 = getelementptr inbounds %"class.std::__cxx11::basic_string", ptr %11, i64 0, i32 1
  %317 = load i64, ptr %316, align 8, !tbaa !15
  %318 = icmp ult i64 %317, 16
  call void @llvm.assume(i1 %318)
  br label %320

319:                                              ; preds = %311
  call void @_ZdlPv(ptr noundef %312) #26
  br label %320

320:                                              ; preds = %315, %319
  call void @llvm.lifetime.end.p0(i64 32, ptr nonnull %11) #27
  %321 = load ptr, ptr @_ZTTNSt7__cxx1119basic_ostringstreamIcSt11char_traitsIcESaIcEEE, align 8
  store ptr %321, ptr %10, align 8, !tbaa !6
  %322 = load ptr, ptr getelementptr inbounds ([4 x ptr], ptr @_ZTTNSt7__cxx1119basic_ostringstreamIcSt11char_traitsIcESaIcEEE, i64 0, i64 3), align 8
  %323 = getelementptr i8, ptr %321, i64 -24
  %324 = load i64, ptr %323, align 8
  %325 = getelementptr inbounds i8, ptr %10, i64 %324
  store ptr %322, ptr %325, align 8, !tbaa !6
  %326 = getelementptr inbounds %"class.std::__cxx11::basic_ostringstream", ptr %10, i64 0, i32 1
  store ptr getelementptr inbounds ({ [16 x ptr] }, ptr @_ZTVNSt7__cxx1115basic_stringbufIcSt11char_traitsIcESaIcEEE, i64 0, inrange i32 0, i64 2), ptr %326, align 8, !tbaa !6
  %327 = getelementptr inbounds %"class.std::__cxx11::basic_ostringstream", ptr %10, i64 0, i32 1, i32 2
  %328 = load ptr, ptr %327, align 8, !tbaa !9
  %329 = getelementptr inbounds %"class.std::__cxx11::basic_ostringstream", ptr %10, i64 0, i32 1, i32 2, i32 2
  %330 = icmp eq ptr %328, %329
  br i1 %330, label %331, label %335

331:                                              ; preds = %320
  %332 = getelementptr inbounds %"class.std::__cxx11::basic_ostringstream", ptr %10, i64 0, i32 1, i32 2, i32 1
  %333 = load i64, ptr %332, align 8, !tbaa !15
  %334 = icmp ult i64 %333, 16
  call void @llvm.assume(i1 %334)
  br label %336

335:                                              ; preds = %320
  call void @_ZdlPv(ptr noundef %328) #26
  br label %336

336:                                              ; preds = %331, %335
  store ptr getelementptr inbounds ({ [16 x ptr] }, ptr @_ZTVSt15basic_streambufIcSt11char_traitsIcEE, i64 0, inrange i32 0, i64 2), ptr %326, align 8, !tbaa !6
  %337 = getelementptr inbounds %"class.std::__cxx11::basic_ostringstream", ptr %10, i64 0, i32 1, i32 0, i32 7
  call void @_ZNSt6localeD1Ev(ptr noundef nonnull align 8 dereferenceable(8) %337) #27
  %338 = getelementptr inbounds i8, ptr %10, i64 112
  call void @_ZNSt8ios_baseD2Ev(ptr noundef nonnull align 8 dereferenceable(264) %338) #27
  call void @llvm.lifetime.end.p0(i64 376, ptr nonnull %10) #27
  br label %339

339:                                              ; preds = %226, %336, %210, %205, %200
  call void @llvm.lifetime.end.p0(i64 4, ptr nonnull %6) #27
  ret void

340:                                              ; preds = %231
  %341 = landingpad { ptr, i32 }
          cleanup
  br label %372

342:                                              ; preds = %263, %260, %255, %254, %245, %232, %234
  %343 = landingpad { ptr, i32 }
          cleanup
  br label %370

344:                                              ; preds = %265
  %345 = landingpad { ptr, i32 }
          cleanup
  br label %368

346:                                              ; preds = %266
  %347 = landingpad { ptr, i32 }
          cleanup
  br label %358

348:                                              ; preds = %302
  %349 = landingpad { ptr, i32 }
          cleanup
  %350 = load ptr, ptr %12, align 8, !tbaa !9
  %351 = icmp eq ptr %350, %274
  br i1 %351, label %352, label %355

352:                                              ; preds = %348
  %353 = load i64, ptr %275, align 8, !tbaa !15
  %354 = icmp ult i64 %353, 16
  call void @llvm.assume(i1 %354)
  br label %356

355:                                              ; preds = %348
  call void @_ZdlPv(ptr noundef %350) #26
  br label %356

356:                                              ; preds = %355, %352, %299, %296
  %357 = phi { ptr, i32 } [ %293, %299 ], [ %293, %296 ], [ %349, %352 ], [ %349, %355 ]
  call void @llvm.lifetime.end.p0(i64 32, ptr nonnull %12) #27
  br label %358

358:                                              ; preds = %356, %346
  %359 = phi { ptr, i32 } [ %357, %356 ], [ %347, %346 ]
  %360 = load ptr, ptr %11, align 8, !tbaa !9
  %361 = getelementptr inbounds %"class.std::__cxx11::basic_string", ptr %11, i64 0, i32 2
  %362 = icmp eq ptr %360, %361
  br i1 %362, label %363, label %367

363:                                              ; preds = %358
  %364 = getelementptr inbounds %"class.std::__cxx11::basic_string", ptr %11, i64 0, i32 1
  %365 = load i64, ptr %364, align 8, !tbaa !15
  %366 = icmp ult i64 %365, 16
  call void @llvm.assume(i1 %366)
  br label %368

367:                                              ; preds = %358
  call void @_ZdlPv(ptr noundef %360) #26
  br label %368

368:                                              ; preds = %367, %363, %344
  %369 = phi { ptr, i32 } [ %345, %344 ], [ %359, %363 ], [ %359, %367 ]
  call void @llvm.lifetime.end.p0(i64 32, ptr nonnull %11) #27
  br label %370

370:                                              ; preds = %368, %342
  %371 = phi { ptr, i32 } [ %369, %368 ], [ %343, %342 ]
  call void @_ZNSt7__cxx1119basic_ostringstreamIcSt11char_traitsIcESaIcEED1Ev(ptr noundef nonnull align 8 dereferenceable(112) %10) #27
  br label %372

372:                                              ; preds = %370, %340
  %373 = phi { ptr, i32 } [ %371, %370 ], [ %341, %340 ]
  call void @llvm.lifetime.end.p0(i64 376, ptr nonnull %10) #27
  br label %374

374:                                              ; preds = %372, %229, %196, %162
  %375 = phi { ptr, i32 } [ %373, %372 ], [ %230, %229 ], [ %197, %196 ], [ %163, %162 ]
  call void @llvm.lifetime.end.p0(i64 4, ptr nonnull %6) #27
  call void @_ZN12cctki_piraha9smart_ptrINS_5ValueEED2Ev(ptr noundef nonnull align 8 dereferenceable(8) %0) #27
  br label %376

376:                                              ; preds = %160, %374
  %377 = phi { ptr, i32 } [ %375, %374 ], [ %161, %160 ]
  resume { ptr, i32 } %377
}

; Function Attrs: nounwind sspstrong uwtable
define linkonce_odr dso_local void @_ZN12cctki_piraha9smart_ptrINS_5GroupEED2Ev(ptr noundef nonnull align 8 dereferenceable(8) %0) unnamed_addr #2 comdat align 2 personality ptr @__gxx_personality_v0 {
  %2 = load ptr, ptr %0, align 8, !tbaa !55
  %3 = icmp eq ptr %2, null
  br i1 %3, label %11, label %4

4:                                                ; preds = %1
  %5 = load i32, ptr %2, align 8, !tbaa !58
  %6 = icmp sgt i32 %5, 0
  br i1 %6, label %7, label %11

7:                                                ; preds = %4
  %8 = add nsw i32 %5, -1
  store i32 %8, ptr %2, align 8, !tbaa !58
  %9 = icmp eq i32 %5, 1
  br i1 %9, label %10, label %11

10:                                               ; preds = %7
  tail call void @_ZN12cctki_piraha14smart_ptr_gutsINS_5GroupEED2Ev(ptr noundef nonnull align 8 dereferenceable(17) %2) #27
  tail call void @_ZdlPv(ptr noundef nonnull %2) #26
  store ptr null, ptr %0, align 8, !tbaa !55
  br label %11

11:                                               ; preds = %4, %10, %7, %1
  ret void
}

declare ptr @CCTK_ParameterGet(ptr noundef, ptr noundef, ptr noundef) local_unnamed_addr #8

; Function Attrs: sspstrong uwtable
declare void @_ZNSt7__cxx1119basic_ostringstreamIcSt11char_traitsIcESaIcEEC1Ev(ptr noundef nonnull align 8 dereferenceable(112)) unnamed_addr #7 align 2

; Function Attrs: inlinehint mustprogress sspstrong uwtable
declare noundef nonnull align 8 dereferenceable(8) ptr @_ZSt4endlIcSt11char_traitsIcEERSt13basic_ostreamIT_T0_ES6_(ptr noundef nonnull align 8 dereferenceable(8)) local_unnamed_addr #12

declare void @CCTK_Error(i32 noundef, ptr noundef, ptr noundef, ptr noundef) local_unnamed_addr #8

declare noundef i32 @_ZN12cctki_piraha5Group4lineEv(ptr noundef nonnull align 8 dereferenceable(80)) local_unnamed_addr #8

; Function Attrs: sspstrong uwtable
declare void @_ZNKSt7__cxx1119basic_ostringstreamIcSt11char_traitsIcESaIcEE3strEv(ptr noalias sret(%"class.std::__cxx11::basic_string") align 8, ptr noundef nonnull align 8 dereferenceable(112)) local_unnamed_addr #7 align 2

; Function Attrs: nounwind sspstrong uwtable
declare void @_ZNSt7__cxx1119basic_ostringstreamIcSt11char_traitsIcESaIcEED1Ev(ptr noundef nonnull align 8 dereferenceable(112)) unnamed_addr #2 align 2

; Function Attrs: nounwind sspstrong uwtable
define linkonce_odr dso_local void @_ZN12cctki_piraha9smart_ptrINS_5ValueEED2Ev(ptr noundef nonnull align 8 dereferenceable(8) %0) unnamed_addr #2 comdat align 2 personality ptr @__gxx_personality_v0 {
  %2 = load ptr, ptr %0, align 8, !tbaa !45
  %3 = icmp eq ptr %2, null
  br i1 %3, label %11, label %4

4:                                                ; preds = %1
  %5 = load i32, ptr %2, align 8, !tbaa !59
  %6 = icmp sgt i32 %5, 0
  br i1 %6, label %7, label %11

7:                                                ; preds = %4
  %8 = add nsw i32 %5, -1
  store i32 %8, ptr %2, align 8, !tbaa !59
  %9 = icmp eq i32 %5, 1
  br i1 %9, label %10, label %11

10:                                               ; preds = %7
  tail call void @_ZN12cctki_piraha14smart_ptr_gutsINS_5ValueEED2Ev(ptr noundef nonnull align 8 dereferenceable(17) %2) #27
  tail call void @_ZdlPv(ptr noundef nonnull %2) #26
  store ptr null, ptr %0, align 8, !tbaa !45
  br label %11

11:                                               ; preds = %10, %7, %4, %1
  ret void
}

; Function Attrs: nounwind sspstrong uwtable
define linkonce_odr dso_local void @_ZN12cctki_piraha14smart_ptr_gutsINS_5GroupEED2Ev(ptr noundef nonnull align 8 dereferenceable(17) %0) unnamed_addr #2 comdat align 2 personality ptr @__gxx_personality_v0 {
  %2 = getelementptr inbounds %"class.cctki_piraha::smart_ptr_guts.20", ptr %0, i64 0, i32 2
  %3 = load ptr, ptr %2, align 8, !tbaa !56
  %4 = icmp eq ptr %3, null
  br i1 %4, label %60, label %5

5:                                                ; preds = %1
  %6 = getelementptr inbounds %"class.cctki_piraha::smart_ptr_guts.20", ptr %0, i64 0, i32 3
  %7 = load i8, ptr %6, align 8, !tbaa !91, !range !30, !noundef !31
  %8 = icmp eq i8 %7, 0
  br i1 %8, label %56, label %9

9:                                                ; preds = %5
  %10 = getelementptr inbounds i8, ptr %3, i64 -8
  %11 = load i64, ptr %10, align 8
  %12 = icmp eq i64 %11, 0
  br i1 %12, label %55, label %13

13:                                               ; preds = %9
  %14 = getelementptr inbounds %"class.cctki_piraha::Group", ptr %3, i64 %11
  br label %15

15:                                               ; preds = %13, %53
  %16 = phi ptr [ %17, %53 ], [ %14, %13 ]
  %17 = getelementptr inbounds %"class.cctki_piraha::Group", ptr %16, i64 -1
  store ptr getelementptr inbounds ({ [4 x ptr] }, ptr @_ZTVN12cctki_piraha5GroupE, i64 0, inrange i32 0, i64 2), ptr %17, align 8, !tbaa !6
  %18 = getelementptr %"class.cctki_piraha::Group", ptr %16, i64 -1, i32 5
  %19 = load ptr, ptr %18, align 8, !tbaa !92
  %20 = getelementptr %"class.cctki_piraha::Group", ptr %16, i64 -1, i32 5, i32 0, i32 0, i32 0, i32 1
  %21 = load ptr, ptr %20, align 8, !tbaa !94
  %22 = icmp eq ptr %19, %21
  br i1 %22, label %39, label %23

23:                                               ; preds = %15, %34
  %24 = phi ptr [ %35, %34 ], [ %19, %15 ]
  %25 = load ptr, ptr %24, align 8, !tbaa !55
  %26 = icmp eq ptr %25, null
  br i1 %26, label %34, label %27

27:                                               ; preds = %23
  %28 = load i32, ptr %25, align 8, !tbaa !58
  %29 = icmp sgt i32 %28, 0
  br i1 %29, label %30, label %34

30:                                               ; preds = %27
  %31 = add nsw i32 %28, -1
  store i32 %31, ptr %25, align 8, !tbaa !58
  %32 = icmp eq i32 %28, 1
  br i1 %32, label %33, label %34

33:                                               ; preds = %30
  tail call void @_ZN12cctki_piraha14smart_ptr_gutsINS_5GroupEED2Ev(ptr noundef nonnull align 8 dereferenceable(17) %25) #27
  tail call void @_ZdlPv(ptr noundef nonnull %25) #26
  store ptr null, ptr %24, align 8, !tbaa !55
  br label %34

34:                                               ; preds = %27, %23, %30, %33
  %35 = getelementptr inbounds %"class.cctki_piraha::smart_ptr.14", ptr %24, i64 1
  %36 = icmp eq ptr %35, %21
  br i1 %36, label %37, label %23, !llvm.loop !95

37:                                               ; preds = %34
  %38 = load ptr, ptr %18, align 8, !tbaa !92
  br label %39

39:                                               ; preds = %37, %15
  %40 = phi ptr [ %38, %37 ], [ %19, %15 ]
  %41 = icmp eq ptr %40, null
  br i1 %41, label %43, label %42

42:                                               ; preds = %39
  tail call void @_ZdlPv(ptr noundef nonnull %40) #26
  br label %43

43:                                               ; preds = %42, %39
  %44 = getelementptr %"class.cctki_piraha::Group", ptr %16, i64 -1, i32 1
  %45 = load ptr, ptr %44, align 8, !tbaa !9
  %46 = getelementptr %"class.cctki_piraha::Group", ptr %16, i64 -1, i32 1, i32 2
  %47 = icmp eq ptr %45, %46
  br i1 %47, label %48, label %52

48:                                               ; preds = %43
  %49 = getelementptr %"class.cctki_piraha::Group", ptr %16, i64 -1, i32 1, i32 1
  %50 = load i64, ptr %49, align 8, !tbaa !15
  %51 = icmp ult i64 %50, 16
  tail call void @llvm.assume(i1 %51)
  br label %53

52:                                               ; preds = %43
  tail call void @_ZdlPv(ptr noundef %45) #26
  br label %53

53:                                               ; preds = %48, %52
  %54 = icmp eq ptr %17, %3
  br i1 %54, label %55, label %15

55:                                               ; preds = %53, %9
  tail call void @_ZdaPv(ptr noundef nonnull %10) #26
  br label %60

56:                                               ; preds = %5
  %57 = load ptr, ptr %3, align 8, !tbaa !6
  %58 = getelementptr inbounds ptr, ptr %57, i64 1
  %59 = load ptr, ptr %58, align 8
  tail call void %59(ptr noundef nonnull align 8 dereferenceable(80) %3) #27
  br label %60

60:                                               ; preds = %55, %56, %1
  ret void
}

; Function Attrs: nounwind sspstrong uwtable
define linkonce_odr dso_local void @_ZN12cctki_piraha5GroupD2Ev(ptr noundef nonnull align 8 dereferenceable(80) %0) unnamed_addr #2 comdat align 2 personality ptr @__gxx_personality_v0 {
  store ptr getelementptr inbounds ({ [4 x ptr] }, ptr @_ZTVN12cctki_piraha5GroupE, i64 0, inrange i32 0, i64 2), ptr %0, align 8, !tbaa !6
  %2 = getelementptr inbounds %"class.cctki_piraha::Group", ptr %0, i64 0, i32 5
  %3 = load ptr, ptr %2, align 8, !tbaa !92
  %4 = getelementptr inbounds %"class.cctki_piraha::Group", ptr %0, i64 0, i32 5, i32 0, i32 0, i32 0, i32 1
  %5 = load ptr, ptr %4, align 8, !tbaa !94
  %6 = icmp eq ptr %3, %5
  br i1 %6, label %23, label %7

7:                                                ; preds = %1, %18
  %8 = phi ptr [ %19, %18 ], [ %3, %1 ]
  %9 = load ptr, ptr %8, align 8, !tbaa !55
  %10 = icmp eq ptr %9, null
  br i1 %10, label %18, label %11

11:                                               ; preds = %7
  %12 = load i32, ptr %9, align 8, !tbaa !58
  %13 = icmp sgt i32 %12, 0
  br i1 %13, label %14, label %18

14:                                               ; preds = %11
  %15 = add nsw i32 %12, -1
  store i32 %15, ptr %9, align 8, !tbaa !58
  %16 = icmp eq i32 %12, 1
  br i1 %16, label %17, label %18

17:                                               ; preds = %14
  tail call void @_ZN12cctki_piraha14smart_ptr_gutsINS_5GroupEED2Ev(ptr noundef nonnull align 8 dereferenceable(17) %9) #27
  tail call void @_ZdlPv(ptr noundef nonnull %9) #26
  store ptr null, ptr %8, align 8, !tbaa !55
  br label %18

18:                                               ; preds = %7, %11, %14, %17
  %19 = getelementptr inbounds %"class.cctki_piraha::smart_ptr.14", ptr %8, i64 1
  %20 = icmp eq ptr %19, %5
  br i1 %20, label %21, label %7, !llvm.loop !95

21:                                               ; preds = %18
  %22 = load ptr, ptr %2, align 8, !tbaa !92
  br label %23

23:                                               ; preds = %21, %1
  %24 = phi ptr [ %22, %21 ], [ %3, %1 ]
  %25 = icmp eq ptr %24, null
  br i1 %25, label %27, label %26

26:                                               ; preds = %23
  tail call void @_ZdlPv(ptr noundef nonnull %24) #26
  br label %27

27:                                               ; preds = %23, %26
  %28 = getelementptr inbounds %"class.cctki_piraha::Group", ptr %0, i64 0, i32 1
  %29 = load ptr, ptr %28, align 8, !tbaa !9
  %30 = getelementptr inbounds %"class.cctki_piraha::Group", ptr %0, i64 0, i32 1, i32 2
  %31 = icmp eq ptr %29, %30
  br i1 %31, label %32, label %36

32:                                               ; preds = %27
  %33 = getelementptr inbounds %"class.cctki_piraha::Group", ptr %0, i64 0, i32 1, i32 1
  %34 = load i64, ptr %33, align 8, !tbaa !15
  %35 = icmp ult i64 %34, 16
  tail call void @llvm.assume(i1 %35)
  br label %37

36:                                               ; preds = %27
  tail call void @_ZdlPv(ptr noundef %29) #26
  br label %37

37:                                               ; preds = %32, %36
  ret void
}

; Function Attrs: nounwind sspstrong uwtable
define linkonce_odr dso_local void @_ZN12cctki_piraha5GroupD0Ev(ptr noundef nonnull align 8 dereferenceable(80) %0) unnamed_addr #2 comdat align 2 personality ptr @__gxx_personality_v0 {
  store ptr getelementptr inbounds ({ [4 x ptr] }, ptr @_ZTVN12cctki_piraha5GroupE, i64 0, inrange i32 0, i64 2), ptr %0, align 8, !tbaa !6
  %2 = getelementptr inbounds %"class.cctki_piraha::Group", ptr %0, i64 0, i32 5
  %3 = load ptr, ptr %2, align 8, !tbaa !92
  %4 = getelementptr inbounds %"class.cctki_piraha::Group", ptr %0, i64 0, i32 5, i32 0, i32 0, i32 0, i32 1
  %5 = load ptr, ptr %4, align 8, !tbaa !94
  %6 = icmp eq ptr %3, %5
  br i1 %6, label %23, label %7

7:                                                ; preds = %1, %18
  %8 = phi ptr [ %19, %18 ], [ %3, %1 ]
  %9 = load ptr, ptr %8, align 8, !tbaa !55
  %10 = icmp eq ptr %9, null
  br i1 %10, label %18, label %11

11:                                               ; preds = %7
  %12 = load i32, ptr %9, align 8, !tbaa !58
  %13 = icmp sgt i32 %12, 0
  br i1 %13, label %14, label %18

14:                                               ; preds = %11
  %15 = add nsw i32 %12, -1
  store i32 %15, ptr %9, align 8, !tbaa !58
  %16 = icmp eq i32 %12, 1
  br i1 %16, label %17, label %18

17:                                               ; preds = %14
  tail call void @_ZN12cctki_piraha14smart_ptr_gutsINS_5GroupEED2Ev(ptr noundef nonnull align 8 dereferenceable(17) %9) #27
  tail call void @_ZdlPv(ptr noundef nonnull %9) #26
  store ptr null, ptr %8, align 8, !tbaa !55
  br label %18

18:                                               ; preds = %17, %14, %11, %7
  %19 = getelementptr inbounds %"class.cctki_piraha::smart_ptr.14", ptr %8, i64 1
  %20 = icmp eq ptr %19, %5
  br i1 %20, label %21, label %7, !llvm.loop !95

21:                                               ; preds = %18
  %22 = load ptr, ptr %2, align 8, !tbaa !92
  br label %23

23:                                               ; preds = %21, %1
  %24 = phi ptr [ %22, %21 ], [ %3, %1 ]
  %25 = icmp eq ptr %24, null
  br i1 %25, label %27, label %26

26:                                               ; preds = %23
  tail call void @_ZdlPv(ptr noundef nonnull %24) #26
  br label %27

27:                                               ; preds = %26, %23
  %28 = getelementptr inbounds %"class.cctki_piraha::Group", ptr %0, i64 0, i32 1
  %29 = load ptr, ptr %28, align 8, !tbaa !9
  %30 = getelementptr inbounds %"class.cctki_piraha::Group", ptr %0, i64 0, i32 1, i32 2
  %31 = icmp eq ptr %29, %30
  br i1 %31, label %32, label %36

32:                                               ; preds = %27
  %33 = getelementptr inbounds %"class.cctki_piraha::Group", ptr %0, i64 0, i32 1, i32 1
  %34 = load i64, ptr %33, align 8, !tbaa !15
  %35 = icmp ult i64 %34, 16
  tail call void @llvm.assume(i1 %35)
  br label %37

36:                                               ; preds = %27
  tail call void @_ZdlPv(ptr noundef %29) #26
  br label %37

37:                                               ; preds = %32, %36
  tail call void @_ZdlPv(ptr noundef nonnull %0) #26
  ret void
}

; Function Attrs: nounwind
declare void @_ZNSt8ios_baseD2Ev(ptr noundef nonnull align 8 dereferenceable(216)) unnamed_addr #13

; Function Attrs: nounwind
declare void @_ZNSt6localeD1Ev(ptr noundef nonnull align 8 dereferenceable(8)) unnamed_addr #13

declare noundef nonnull align 8 dereferenceable(8) ptr @_ZNSo3putEc(ptr noundef nonnull align 8 dereferenceable(8), i8 noundef signext) local_unnamed_addr #8

declare noundef nonnull align 8 dereferenceable(8) ptr @_ZNSo5flushEv(ptr noundef nonnull align 8 dereferenceable(8)) local_unnamed_addr #8

; Function Attrs: noreturn
declare void @_ZSt16__throw_bad_castv() local_unnamed_addr #14

declare void @_ZNKSt5ctypeIcE13_M_widen_initEv(ptr noundef nonnull align 8 dereferenceable(570)) local_unnamed_addr #8

declare noundef nonnull align 8 dereferenceable(32) ptr @_ZNSt7__cxx1112basic_stringIcSt11char_traitsIcESaIcEE10_M_replaceEmmPKcm(ptr noundef nonnull align 8 dereferenceable(32), i64 noundef, i64 noundef, ptr noundef, i64 noundef) local_unnamed_addr #8

declare void @_ZNSt7__cxx1112basic_stringIcSt11char_traitsIcESaIcEE9_M_assignERKS4_(ptr noundef nonnull align 8 dereferenceable(32), ptr noundef nonnull align 8 dereferenceable(32)) local_unnamed_addr #8

declare noundef nonnull align 8 dereferenceable(32) ptr @_ZNSt7__cxx1112basic_stringIcSt11char_traitsIcESaIcEE9_M_appendEPKcm(ptr noundef nonnull align 8 dereferenceable(32), ptr noundef, i64 noundef) local_unnamed_addr #8

; Function Attrs: noreturn
declare void @_ZSt20__throw_length_errorPKc(ptr noundef) local_unnamed_addr #14

; Function Attrs: nounwind sspstrong uwtable
define linkonce_odr dso_local void @_ZN12cctki_piraha14smart_ptr_gutsINS_5ValueEED2Ev(ptr noundef nonnull align 8 dereferenceable(17) %0) unnamed_addr #2 comdat align 2 personality ptr @__gxx_personality_v0 {
  %2 = getelementptr inbounds %"class.cctki_piraha::smart_ptr_guts.18", ptr %0, i64 0, i32 2
  %3 = load ptr, ptr %2, align 8, !tbaa !47
  %4 = icmp eq ptr %3, null
  br i1 %4, label %61, label %5

5:                                                ; preds = %1
  %6 = getelementptr inbounds %"class.cctki_piraha::smart_ptr_guts.18", ptr %0, i64 0, i32 3
  %7 = load i8, ptr %6, align 8, !tbaa !60, !range !30, !noundef !31
  %8 = icmp eq i8 %7, 0
  br i1 %8, label %40, label %9

9:                                                ; preds = %5
  %10 = getelementptr inbounds i8, ptr %3, i64 -8
  %11 = load i64, ptr %10, align 8
  %12 = icmp eq i64 %11, 0
  br i1 %12, label %39, label %13

13:                                               ; preds = %9
  %14 = getelementptr inbounds %"struct.cctki_piraha::Value", ptr %3, i64 %11
  br label %15

15:                                               ; preds = %13, %37
  %16 = phi ptr [ %17, %37 ], [ %14, %13 ]
  %17 = getelementptr inbounds %"struct.cctki_piraha::Value", ptr %16, i64 -1
  %18 = getelementptr %"struct.cctki_piraha::Value", ptr %16, i64 -1, i32 4
  %19 = load ptr, ptr %18, align 8, !tbaa !9
  %20 = getelementptr %"struct.cctki_piraha::Value", ptr %16, i64 -1, i32 4, i32 2
  %21 = icmp eq ptr %19, %20
  br i1 %21, label %22, label %26

22:                                               ; preds = %15
  %23 = getelementptr %"struct.cctki_piraha::Value", ptr %16, i64 -1, i32 4, i32 1
  %24 = load i64, ptr %23, align 8, !tbaa !15
  %25 = icmp ult i64 %24, 16
  tail call void @llvm.assume(i1 %25)
  br label %27

26:                                               ; preds = %15
  tail call void @_ZdlPv(ptr noundef %19) #26
  br label %27

27:                                               ; preds = %26, %22
  %28 = load ptr, ptr %17, align 8, !tbaa !55
  %29 = icmp eq ptr %28, null
  br i1 %29, label %37, label %30

30:                                               ; preds = %27
  %31 = load i32, ptr %28, align 8, !tbaa !58
  %32 = icmp sgt i32 %31, 0
  br i1 %32, label %33, label %37

33:                                               ; preds = %30
  %34 = add nsw i32 %31, -1
  store i32 %34, ptr %28, align 8, !tbaa !58
  %35 = icmp eq i32 %31, 1
  br i1 %35, label %36, label %37

36:                                               ; preds = %33
  tail call void @_ZN12cctki_piraha14smart_ptr_gutsINS_5GroupEED2Ev(ptr noundef nonnull align 8 dereferenceable(17) %28) #27
  tail call void @_ZdlPv(ptr noundef nonnull %28) #26
  store ptr null, ptr %17, align 8, !tbaa !55
  br label %37

37:                                               ; preds = %27, %30, %33, %36
  %38 = icmp eq ptr %17, %3
  br i1 %38, label %39, label %15

39:                                               ; preds = %37, %9
  tail call void @_ZdaPv(ptr noundef nonnull %10) #26
  br label %61

40:                                               ; preds = %5
  %41 = getelementptr inbounds %"struct.cctki_piraha::Value", ptr %3, i64 0, i32 4
  %42 = load ptr, ptr %41, align 8, !tbaa !9
  %43 = getelementptr inbounds %"struct.cctki_piraha::Value", ptr %3, i64 0, i32 4, i32 2
  %44 = icmp eq ptr %42, %43
  br i1 %44, label %45, label %49

45:                                               ; preds = %40
  %46 = getelementptr inbounds %"struct.cctki_piraha::Value", ptr %3, i64 0, i32 4, i32 1
  %47 = load i64, ptr %46, align 8, !tbaa !15
  %48 = icmp ult i64 %47, 16
  tail call void @llvm.assume(i1 %48)
  br label %50

49:                                               ; preds = %40
  tail call void @_ZdlPv(ptr noundef %42) #26
  br label %50

50:                                               ; preds = %49, %45
  %51 = load ptr, ptr %3, align 8, !tbaa !55
  %52 = icmp eq ptr %51, null
  br i1 %52, label %60, label %53

53:                                               ; preds = %50
  %54 = load i32, ptr %51, align 8, !tbaa !58
  %55 = icmp sgt i32 %54, 0
  br i1 %55, label %56, label %60

56:                                               ; preds = %53
  %57 = add nsw i32 %54, -1
  store i32 %57, ptr %51, align 8, !tbaa !58
  %58 = icmp eq i32 %54, 1
  br i1 %58, label %59, label %60

59:                                               ; preds = %56
  tail call void @_ZN12cctki_piraha14smart_ptr_gutsINS_5GroupEED2Ev(ptr noundef nonnull align 8 dereferenceable(17) %51) #27
  tail call void @_ZdlPv(ptr noundef nonnull %51) #26
  br label %60

60:                                               ; preds = %50, %53, %56, %59
  tail call void @_ZdlPv(ptr noundef nonnull %3) #26
  br label %61

61:                                               ; preds = %39, %60, %1
  ret void
}

; Function Attrs: sspstrong uwtable
define dso_local void @_ZN12cctki_piraha10lookup_varENS_9smart_ptrINS_5GroupEEE(ptr noalias sret(%"class.cctki_piraha::smart_ptr.13") align 8 %0, ptr nocapture noundef readonly %1) local_unnamed_addr #7 personality ptr @__gxx_personality_v0 {
  %3 = alloca %"class.std::__cxx11::basic_string", align 8
  %4 = alloca %"class.cctki_piraha::smart_ptr.14", align 8
  %5 = alloca %"class.std::__cxx11::basic_string", align 8
  %6 = alloca %"class.cctki_piraha::smart_ptr.14", align 8
  %7 = alloca %"class.cctki_piraha::smart_ptr.14", align 8
  %8 = alloca %"class.cctki_piraha::smart_ptr.14", align 8
  %9 = alloca %"class.std::__cxx11::basic_string", align 8
  %10 = alloca %"class.cctki_piraha::smart_ptr.14", align 8
  %11 = alloca %"class.cctki_piraha::smart_ptr.14", align 8
  %12 = alloca %"class.std::__cxx11::basic_string", align 8
  %13 = alloca %"class.std::__cxx11::basic_string", align 8
  %14 = alloca %"class.cctki_piraha::smart_ptr.14", align 8
  %15 = alloca %"class.cctki_piraha::smart_ptr.14", align 8
  %16 = alloca %"class.std::__cxx11::basic_ostringstream", align 8
  %17 = alloca %"class.std::__cxx11::basic_string", align 8
  %18 = alloca %"class.std::__cxx11::basic_string", align 8
  %19 = alloca %"class.std::__cxx11::basic_string", align 8
  store ptr null, ptr %0, align 8, !tbaa !45
  call void @llvm.lifetime.start.p0(i64 32, ptr nonnull %3) #27
  call void @llvm.lifetime.start.p0(i64 8, ptr nonnull %4) #27
  %20 = load ptr, ptr %1, align 8, !tbaa !55, !nonnull !31, !noundef !31
  %21 = getelementptr inbounds %"class.cctki_piraha::smart_ptr_guts.20", ptr %20, i64 0, i32 2
  %22 = load ptr, ptr %21, align 8, !tbaa !56
  tail call void @llvm.experimental.noalias.scope.decl(metadata !96)
  %23 = getelementptr inbounds %"class.cctki_piraha::Group", ptr %22, i64 0, i32 5
  %24 = load ptr, ptr %23, align 8, !tbaa !92, !noalias !96
  %25 = load ptr, ptr %24, align 8, !tbaa !55, !noalias !96, !nonnull !31, !noundef !31
  store ptr %25, ptr %4, align 8, !tbaa !55, !alias.scope !96
  %26 = load i32, ptr %25, align 8, !tbaa !58, !noalias !96
  %27 = add nsw i32 %26, 1
  store i32 %27, ptr %25, align 8, !tbaa !58, !noalias !96
  %28 = getelementptr inbounds %"class.cctki_piraha::smart_ptr_guts.20", ptr %25, i64 0, i32 2
  %29 = load ptr, ptr %28, align 8, !tbaa !56
  invoke void @_ZN12cctki_piraha5Group14getPatternNameB5cxx11Ev(ptr nonnull sret(%"class.std::__cxx11::basic_string") align 8 %3, ptr noundef nonnull align 8 dereferenceable(80) %29)
          to label %30 unwind label %133

30:                                               ; preds = %2
  %31 = getelementptr inbounds %"class.std::__cxx11::basic_string", ptr %3, i64 0, i32 1
  %32 = load i64, ptr %31, align 8, !tbaa !15
  %33 = icmp eq i64 %32, 3
  %34 = load ptr, ptr %3, align 8, !tbaa !9
  br i1 %33, label %35, label %38

35:                                               ; preds = %30
  %36 = call i32 @bcmp(ptr noundef nonnull dereferenceable(3) %34, ptr noundef nonnull dereferenceable(3) @.str.21, i64 3)
  %37 = icmp eq i32 %36, 0
  br label %38

38:                                               ; preds = %35, %30
  %39 = phi i1 [ false, %30 ], [ %37, %35 ]
  %40 = getelementptr inbounds %"class.std::__cxx11::basic_string", ptr %3, i64 0, i32 2
  %41 = icmp eq ptr %34, %40
  br i1 %41, label %42, label %44

42:                                               ; preds = %38
  %43 = icmp ult i64 %32, 16
  call void @llvm.assume(i1 %43)
  br label %45

44:                                               ; preds = %38
  call void @_ZdlPv(ptr noundef %34) #26
  br label %45

45:                                               ; preds = %44, %42
  %46 = load i32, ptr %25, align 8, !tbaa !58
  %47 = icmp sgt i32 %46, 0
  br i1 %47, label %48, label %52

48:                                               ; preds = %45
  %49 = add nsw i32 %46, -1
  store i32 %49, ptr %25, align 8, !tbaa !58
  %50 = icmp eq i32 %46, 1
  br i1 %50, label %51, label %52

51:                                               ; preds = %48
  call void @_ZN12cctki_piraha14smart_ptr_gutsINS_5GroupEED2Ev(ptr noundef nonnull align 8 dereferenceable(17) %25) #27
  call void @_ZdlPv(ptr noundef nonnull %25) #26
  br label %52

52:                                               ; preds = %45, %48, %51
  call void @llvm.lifetime.end.p0(i64 8, ptr nonnull %4) #27
  call void @llvm.lifetime.end.p0(i64 32, ptr nonnull %3) #27
  br i1 %39, label %53, label %141

53:                                               ; preds = %52
  call void @llvm.lifetime.start.p0(i64 32, ptr nonnull %5) #27
  call void @llvm.lifetime.start.p0(i64 8, ptr nonnull %6) #27
  call void @llvm.lifetime.start.p0(i64 8, ptr nonnull %7) #27
  %54 = load ptr, ptr %1, align 8, !tbaa !55, !nonnull !31, !noundef !31
  %55 = getelementptr inbounds %"class.cctki_piraha::smart_ptr_guts.20", ptr %54, i64 0, i32 2
  %56 = load ptr, ptr %55, align 8, !tbaa !56
  call void @llvm.experimental.noalias.scope.decl(metadata !99)
  %57 = getelementptr inbounds %"class.cctki_piraha::Group", ptr %56, i64 0, i32 5
  %58 = load ptr, ptr %57, align 8, !tbaa !92, !noalias !99
  %59 = load ptr, ptr %58, align 8, !tbaa !55, !noalias !99, !nonnull !31, !noundef !31
  store ptr %59, ptr %7, align 8, !tbaa !55, !alias.scope !99
  %60 = load i32, ptr %59, align 8, !tbaa !58, !noalias !99
  %61 = add nsw i32 %60, 1
  store i32 %61, ptr %59, align 8, !tbaa !58, !noalias !99
  %62 = getelementptr inbounds %"class.cctki_piraha::smart_ptr_guts.20", ptr %59, i64 0, i32 2
  %63 = load ptr, ptr %62, align 8, !tbaa !56
  call void @llvm.experimental.noalias.scope.decl(metadata !102)
  %64 = getelementptr inbounds %"class.cctki_piraha::Group", ptr %63, i64 0, i32 5
  %65 = load ptr, ptr %64, align 8, !tbaa !92, !noalias !102
  %66 = load ptr, ptr %65, align 8, !tbaa !55, !noalias !102, !nonnull !31, !noundef !31
  store ptr %66, ptr %6, align 8, !tbaa !55, !alias.scope !102
  %67 = load i32, ptr %66, align 8, !tbaa !58, !noalias !102
  %68 = add nsw i32 %67, 1
  store i32 %68, ptr %66, align 8, !tbaa !58, !noalias !102
  %69 = getelementptr inbounds %"class.cctki_piraha::smart_ptr_guts.20", ptr %66, i64 0, i32 2
  %70 = load ptr, ptr %69, align 8, !tbaa !56
  invoke void @_ZN12cctki_piraha5Group9substringB5cxx11Ev(ptr nonnull sret(%"class.std::__cxx11::basic_string") align 8 %5, ptr noundef nonnull align 8 dereferenceable(80) %70)
          to label %71 unwind label %135

71:                                               ; preds = %53
  %72 = load ptr, ptr %5, align 8, !tbaa !9
  %73 = call ptr @getenv(ptr noundef %72) #27
  %74 = getelementptr inbounds %"class.std::__cxx11::basic_string", ptr %5, i64 0, i32 2
  %75 = icmp eq ptr %72, %74
  br i1 %75, label %76, label %80

76:                                               ; preds = %71
  %77 = getelementptr inbounds %"class.std::__cxx11::basic_string", ptr %5, i64 0, i32 1
  %78 = load i64, ptr %77, align 8, !tbaa !15
  %79 = icmp ult i64 %78, 16
  call void @llvm.assume(i1 %79)
  br label %81

80:                                               ; preds = %71
  call void @_ZdlPv(ptr noundef %72) #26
  br label %81

81:                                               ; preds = %80, %76
  %82 = load i32, ptr %66, align 8, !tbaa !58
  %83 = icmp sgt i32 %82, 0
  br i1 %83, label %84, label %88

84:                                               ; preds = %81
  %85 = add nsw i32 %82, -1
  store i32 %85, ptr %66, align 8, !tbaa !58
  %86 = icmp eq i32 %82, 1
  br i1 %86, label %87, label %88

87:                                               ; preds = %84
  call void @_ZN12cctki_piraha14smart_ptr_gutsINS_5GroupEED2Ev(ptr noundef nonnull align 8 dereferenceable(17) %66) #27
  call void @_ZdlPv(ptr noundef nonnull %66) #26
  br label %88

88:                                               ; preds = %87, %84, %81
  %89 = load i32, ptr %59, align 8, !tbaa !58
  %90 = icmp sgt i32 %89, 0
  br i1 %90, label %91, label %95

91:                                               ; preds = %88
  %92 = add nsw i32 %89, -1
  store i32 %92, ptr %59, align 8, !tbaa !58
  %93 = icmp eq i32 %89, 1
  br i1 %93, label %94, label %95

94:                                               ; preds = %91
  call void @_ZN12cctki_piraha14smart_ptr_gutsINS_5GroupEED2Ev(ptr noundef nonnull align 8 dereferenceable(17) %59) #27
  call void @_ZdlPv(ptr noundef nonnull %59) #26
  br label %95

95:                                               ; preds = %88, %91, %94
  call void @llvm.lifetime.end.p0(i64 8, ptr nonnull %7) #27
  call void @llvm.lifetime.end.p0(i64 8, ptr nonnull %6) #27
  call void @llvm.lifetime.end.p0(i64 32, ptr nonnull %5) #27
  %96 = icmp eq ptr %73, null
  br i1 %96, label %346, label %97

97:                                               ; preds = %95
  %98 = invoke noalias noundef nonnull dereferenceable(64) ptr @_Znwm(i64 noundef 64) #29
          to label %99 unwind label %137

99:                                               ; preds = %97
  %100 = load ptr, ptr %1, align 8, !tbaa !55
  store ptr %100, ptr %8, align 8, !tbaa !55
  %101 = icmp eq ptr %100, null
  br i1 %101, label %105, label %102

102:                                              ; preds = %99
  %103 = load i32, ptr %100, align 8, !tbaa !58
  %104 = add nsw i32 %103, 2
  store i32 %104, ptr %100, align 8, !tbaa !58
  br label %105

105:                                              ; preds = %102, %99
  store ptr %100, ptr %98, align 8
  %106 = getelementptr inbounds %"struct.cctki_piraha::Value", ptr %98, i64 0, i32 1
  store double 0.000000e+00, ptr %106, align 8, !tbaa !53
  %107 = getelementptr inbounds %"struct.cctki_piraha::Value", ptr %98, i64 0, i32 2
  store i32 0, ptr %107, align 8, !tbaa !54
  %108 = getelementptr inbounds %"struct.cctki_piraha::Value", ptr %98, i64 0, i32 4
  %109 = getelementptr inbounds %"struct.cctki_piraha::Value", ptr %98, i64 0, i32 4, i32 2
  store ptr %109, ptr %108, align 8, !tbaa !41
  %110 = getelementptr inbounds %"struct.cctki_piraha::Value", ptr %98, i64 0, i32 4, i32 1
  store i64 0, ptr %110, align 8, !tbaa !15
  store i8 0, ptr %109, align 8, !tbaa !40
  %111 = getelementptr inbounds %"struct.cctki_piraha::Value", ptr %98, i64 0, i32 5
  store i32 4, ptr %111, align 8, !tbaa !49
  %112 = invoke noalias noundef nonnull dereferenceable(24) ptr @_Znwm(i64 noundef 24) #29
          to label %113 unwind label %139

113:                                              ; preds = %105
  store i32 1, ptr %112, align 8, !tbaa !59
  %114 = getelementptr inbounds %"class.cctki_piraha::smart_ptr_guts.18", ptr %112, i64 0, i32 2
  store ptr %98, ptr %114, align 8, !tbaa !47
  %115 = getelementptr inbounds %"class.cctki_piraha::smart_ptr_guts.18", ptr %112, i64 0, i32 3
  store i8 0, ptr %115, align 8, !tbaa !60
  store ptr %112, ptr %0, align 8, !tbaa !45
  br i1 %101, label %126, label %116

116:                                              ; preds = %113
  %117 = load i32, ptr %100, align 8, !tbaa !58
  %118 = icmp sgt i32 %117, 0
  br i1 %118, label %119, label %126

119:                                              ; preds = %116
  %120 = add nsw i32 %117, -1
  store i32 %120, ptr %100, align 8, !tbaa !58
  %121 = icmp eq i32 %117, 1
  br i1 %121, label %122, label %126

122:                                              ; preds = %119
  call void @_ZN12cctki_piraha14smart_ptr_gutsINS_5GroupEED2Ev(ptr noundef nonnull align 8 dereferenceable(17) %100) #27
  call void @_ZdlPv(ptr noundef nonnull %100) #26
  store ptr null, ptr %8, align 8, !tbaa !55
  %123 = load ptr, ptr %114, align 8, !tbaa !47
  %124 = getelementptr inbounds %"struct.cctki_piraha::Value", ptr %123, i64 0, i32 4, i32 1
  %125 = load i64, ptr %124, align 8, !tbaa !15
  br label %126

126:                                              ; preds = %122, %119, %116, %113
  %127 = phi i64 [ 0, %113 ], [ 0, %116 ], [ 0, %119 ], [ %125, %122 ]
  %128 = phi ptr [ %98, %113 ], [ %98, %116 ], [ %98, %119 ], [ %123, %122 ]
  %129 = getelementptr inbounds %"struct.cctki_piraha::Value", ptr %128, i64 0, i32 5
  store i32 0, ptr %129, align 8, !tbaa !49
  %130 = getelementptr inbounds %"struct.cctki_piraha::Value", ptr %128, i64 0, i32 4
  %131 = call i64 @strlen(ptr noundef nonnull dereferenceable(1) %73) #27
  %132 = invoke noundef nonnull align 8 dereferenceable(32) ptr @_ZNSt7__cxx1112basic_stringIcSt11char_traitsIcESaIcEE10_M_replaceEmmPKcm(ptr noundef nonnull align 8 dereferenceable(32) %130, i64 noundef 0, i64 noundef %127, ptr noundef nonnull %73, i64 noundef %131)
          to label %341 unwind label %137

133:                                              ; preds = %2
  %134 = landingpad { ptr, i32 }
          cleanup
  call void @_ZN12cctki_piraha9smart_ptrINS_5GroupEED2Ev(ptr noundef nonnull align 8 dereferenceable(8) %4) #27
  call void @llvm.lifetime.end.p0(i64 8, ptr nonnull %4) #27
  call void @llvm.lifetime.end.p0(i64 32, ptr nonnull %3) #27
  br label %516

135:                                              ; preds = %53
  %136 = landingpad { ptr, i32 }
          cleanup
  call void @_ZN12cctki_piraha9smart_ptrINS_5GroupEED2Ev(ptr noundef nonnull align 8 dereferenceable(8) %6) #27
  call void @_ZN12cctki_piraha9smart_ptrINS_5GroupEED2Ev(ptr noundef nonnull align 8 dereferenceable(8) %7) #27
  call void @llvm.lifetime.end.p0(i64 8, ptr nonnull %7) #27
  call void @llvm.lifetime.end.p0(i64 8, ptr nonnull %6) #27
  call void @llvm.lifetime.end.p0(i64 32, ptr nonnull %5) #27
  br label %516

137:                                              ; preds = %126, %97
  %138 = landingpad { ptr, i32 }
          cleanup
  br label %516

139:                                              ; preds = %105
  %140 = landingpad { ptr, i32 }
          cleanup
  call void @_ZN12cctki_piraha9smart_ptrINS_5GroupEED2Ev(ptr noundef nonnull align 8 dereferenceable(8) %8) #27
  br label %516

141:                                              ; preds = %52
  call void @llvm.lifetime.start.p0(i64 32, ptr nonnull %9) #27
  call void @llvm.lifetime.start.p0(i64 8, ptr nonnull %10) #27
  %142 = load ptr, ptr %1, align 8, !tbaa !55, !nonnull !31, !noundef !31
  %143 = getelementptr inbounds %"class.cctki_piraha::smart_ptr_guts.20", ptr %142, i64 0, i32 2
  %144 = load ptr, ptr %143, align 8, !tbaa !56
  call void @llvm.experimental.noalias.scope.decl(metadata !105)
  %145 = getelementptr inbounds %"class.cctki_piraha::Group", ptr %144, i64 0, i32 5
  %146 = load ptr, ptr %145, align 8, !tbaa !92, !noalias !105
  %147 = load ptr, ptr %146, align 8, !tbaa !55, !noalias !105, !nonnull !31, !noundef !31
  store ptr %147, ptr %10, align 8, !tbaa !55, !alias.scope !105
  %148 = load i32, ptr %147, align 8, !tbaa !58, !noalias !105
  %149 = add nsw i32 %148, 1
  store i32 %149, ptr %147, align 8, !tbaa !58, !noalias !105
  %150 = getelementptr inbounds %"class.cctki_piraha::smart_ptr_guts.20", ptr %147, i64 0, i32 2
  %151 = load ptr, ptr %150, align 8, !tbaa !56
  invoke void @_ZN12cctki_piraha5Group9substringB5cxx11Ev(ptr nonnull sret(%"class.std::__cxx11::basic_string") align 8 %9, ptr noundef nonnull align 8 dereferenceable(80) %151)
          to label %152 unwind label %261

152:                                              ; preds = %141
  %153 = getelementptr inbounds %"class.std::__cxx11::basic_string", ptr %9, i64 0, i32 1
  %154 = load i64, ptr %153, align 8, !tbaa !15
  %155 = icmp eq i64 %154, 7
  %156 = load ptr, ptr %9, align 8, !tbaa !9
  br i1 %155, label %157, label %160

157:                                              ; preds = %152
  %158 = call i32 @bcmp(ptr noundef nonnull dereferenceable(7) %156, ptr noundef nonnull dereferenceable(7) @.str.22, i64 7)
  %159 = icmp eq i32 %158, 0
  br label %160

160:                                              ; preds = %157, %152
  %161 = phi i1 [ false, %152 ], [ %159, %157 ]
  %162 = getelementptr inbounds %"class.std::__cxx11::basic_string", ptr %9, i64 0, i32 2
  %163 = icmp eq ptr %156, %162
  br i1 %163, label %164, label %166

164:                                              ; preds = %160
  %165 = icmp ult i64 %154, 16
  call void @llvm.assume(i1 %165)
  br label %167

166:                                              ; preds = %160
  call void @_ZdlPv(ptr noundef %156) #26
  br label %167

167:                                              ; preds = %166, %164
  %168 = load i32, ptr %147, align 8, !tbaa !58
  %169 = icmp sgt i32 %168, 0
  br i1 %169, label %170, label %174

170:                                              ; preds = %167
  %171 = add nsw i32 %168, -1
  store i32 %171, ptr %147, align 8, !tbaa !58
  %172 = icmp eq i32 %168, 1
  br i1 %172, label %173, label %174

173:                                              ; preds = %170
  call void @_ZN12cctki_piraha14smart_ptr_gutsINS_5GroupEED2Ev(ptr noundef nonnull align 8 dereferenceable(17) %147) #27
  call void @_ZdlPv(ptr noundef nonnull %147) #26
  br label %174

174:                                              ; preds = %167, %170, %173
  call void @llvm.lifetime.end.p0(i64 8, ptr nonnull %10) #27
  call void @llvm.lifetime.end.p0(i64 32, ptr nonnull %9) #27
  br i1 %161, label %175, label %269

175:                                              ; preds = %174
  %176 = invoke noalias noundef nonnull dereferenceable(64) ptr @_Znwm(i64 noundef 64) #29
          to label %177 unwind label %263

177:                                              ; preds = %175
  %178 = load ptr, ptr %1, align 8, !tbaa !55
  store ptr %178, ptr %11, align 8, !tbaa !55
  %179 = icmp eq ptr %178, null
  br i1 %179, label %183, label %180

180:                                              ; preds = %177
  %181 = load i32, ptr %178, align 8, !tbaa !58
  %182 = add nsw i32 %181, 2
  store i32 %182, ptr %178, align 8, !tbaa !58
  br label %183

183:                                              ; preds = %180, %177
  store ptr %178, ptr %176, align 8
  %184 = getelementptr inbounds %"struct.cctki_piraha::Value", ptr %176, i64 0, i32 1
  store double 0.000000e+00, ptr %184, align 8, !tbaa !53
  %185 = getelementptr inbounds %"struct.cctki_piraha::Value", ptr %176, i64 0, i32 2
  store i32 0, ptr %185, align 8, !tbaa !54
  %186 = getelementptr inbounds %"struct.cctki_piraha::Value", ptr %176, i64 0, i32 4
  %187 = getelementptr inbounds %"struct.cctki_piraha::Value", ptr %176, i64 0, i32 4, i32 2
  store ptr %187, ptr %186, align 8, !tbaa !41
  %188 = getelementptr inbounds %"struct.cctki_piraha::Value", ptr %176, i64 0, i32 4, i32 1
  store i64 0, ptr %188, align 8, !tbaa !15
  store i8 0, ptr %187, align 8, !tbaa !40
  %189 = getelementptr inbounds %"struct.cctki_piraha::Value", ptr %176, i64 0, i32 5
  store i32 4, ptr %189, align 8, !tbaa !49
  %190 = invoke noalias noundef nonnull dereferenceable(24) ptr @_Znwm(i64 noundef 24) #29
          to label %191 unwind label %265

191:                                              ; preds = %183
  store i32 1, ptr %190, align 8, !tbaa !59
  %192 = getelementptr inbounds %"class.cctki_piraha::smart_ptr_guts.18", ptr %190, i64 0, i32 2
  store ptr %176, ptr %192, align 8, !tbaa !47
  %193 = getelementptr inbounds %"class.cctki_piraha::smart_ptr_guts.18", ptr %190, i64 0, i32 3
  store i8 0, ptr %193, align 8, !tbaa !60
  store ptr %190, ptr %0, align 8, !tbaa !45
  br i1 %179, label %202, label %194

194:                                              ; preds = %191
  %195 = load i32, ptr %178, align 8, !tbaa !58
  %196 = icmp sgt i32 %195, 0
  br i1 %196, label %197, label %202

197:                                              ; preds = %194
  %198 = add nsw i32 %195, -1
  store i32 %198, ptr %178, align 8, !tbaa !58
  %199 = icmp eq i32 %195, 1
  br i1 %199, label %200, label %202

200:                                              ; preds = %197
  call void @_ZN12cctki_piraha14smart_ptr_gutsINS_5GroupEED2Ev(ptr noundef nonnull align 8 dereferenceable(17) %178) #27
  call void @_ZdlPv(ptr noundef nonnull %178) #26
  store ptr null, ptr %11, align 8, !tbaa !55
  %201 = load ptr, ptr %192, align 8, !tbaa !47
  br label %202

202:                                              ; preds = %200, %197, %194, %191
  %203 = phi ptr [ %176, %191 ], [ %176, %194 ], [ %176, %197 ], [ %201, %200 ]
  %204 = getelementptr inbounds %"struct.cctki_piraha::Value", ptr %203, i64 0, i32 5
  store i32 0, ptr %204, align 8, !tbaa !49
  call void @llvm.lifetime.start.p0(i64 32, ptr nonnull %12) #27
  invoke void @_ZN12cctki_piraha11get_parfileB5cxx11Ev(ptr nonnull sret(%"class.std::__cxx11::basic_string") align 8 %12)
          to label %205 unwind label %267

205:                                              ; preds = %202
  %206 = load ptr, ptr %192, align 8, !tbaa !47
  %207 = getelementptr inbounds %"struct.cctki_piraha::Value", ptr %206, i64 0, i32 4
  %208 = load ptr, ptr %207, align 8, !tbaa !9
  %209 = getelementptr inbounds %"struct.cctki_piraha::Value", ptr %206, i64 0, i32 4, i32 2
  %210 = icmp eq ptr %208, %209
  br i1 %210, label %211, label %218

211:                                              ; preds = %205
  %212 = getelementptr inbounds %"struct.cctki_piraha::Value", ptr %206, i64 0, i32 4, i32 1
  %213 = load i64, ptr %212, align 8, !tbaa !15
  %214 = icmp ult i64 %213, 16
  call void @llvm.assume(i1 %214)
  %215 = load ptr, ptr %12, align 8, !tbaa !9
  %216 = getelementptr inbounds %"class.std::__cxx11::basic_string", ptr %12, i64 0, i32 2
  %217 = icmp eq ptr %215, %216
  br i1 %217, label %222, label %238

218:                                              ; preds = %205
  %219 = load ptr, ptr %12, align 8, !tbaa !9
  %220 = getelementptr inbounds %"class.std::__cxx11::basic_string", ptr %12, i64 0, i32 2
  %221 = icmp eq ptr %219, %220
  br i1 %221, label %222, label %242

222:                                              ; preds = %218, %211
  %223 = phi ptr [ %219, %218 ], [ %216, %211 ]
  %224 = getelementptr inbounds %"class.std::__cxx11::basic_string", ptr %12, i64 0, i32 1
  %225 = load i64, ptr %224, align 8, !tbaa !15
  %226 = icmp ult i64 %225, 16
  call void @llvm.assume(i1 %226)
  %227 = icmp eq ptr %12, %207
  br i1 %227, label %251, label %228, !prof !108

228:                                              ; preds = %222
  switch i64 %225, label %231 [
    i64 0, label %232
    i64 1, label %229
  ]

229:                                              ; preds = %228
  %230 = load i8, ptr %223, align 1, !tbaa !40
  store i8 %230, ptr %208, align 1, !tbaa !40
  br label %232

231:                                              ; preds = %228
  call void @llvm.memcpy.p0.p0.i64(ptr align 1 %208, ptr align 1 %223, i64 %225, i1 false)
  br label %232

232:                                              ; preds = %231, %229, %228
  %233 = load i64, ptr %224, align 8, !tbaa !15
  %234 = getelementptr inbounds %"struct.cctki_piraha::Value", ptr %206, i64 0, i32 4, i32 1
  store i64 %233, ptr %234, align 8, !tbaa !15
  %235 = load ptr, ptr %207, align 8, !tbaa !9
  %236 = getelementptr inbounds i8, ptr %235, i64 %233
  store i8 0, ptr %236, align 1, !tbaa !40
  %237 = load ptr, ptr %12, align 8, !tbaa !9
  br label %251

238:                                              ; preds = %211
  store ptr %215, ptr %207, align 8, !tbaa !9
  %239 = getelementptr inbounds %"class.std::__cxx11::basic_string", ptr %12, i64 0, i32 1
  %240 = load i64, ptr %239, align 8, !tbaa !15
  store i64 %240, ptr %212, align 8, !tbaa !15
  %241 = load i64, ptr %216, align 8, !tbaa !40
  store i64 %241, ptr %208, align 8, !tbaa !40
  br label %249

242:                                              ; preds = %218
  %243 = load i64, ptr %209, align 8, !tbaa !40
  store ptr %219, ptr %207, align 8, !tbaa !9
  %244 = getelementptr inbounds %"class.std::__cxx11::basic_string", ptr %12, i64 0, i32 1
  %245 = getelementptr inbounds %"struct.cctki_piraha::Value", ptr %206, i64 0, i32 4, i32 1
  %246 = load <2 x i64>, ptr %244, align 8, !tbaa !40
  store <2 x i64> %246, ptr %245, align 8, !tbaa !40
  %247 = icmp eq ptr %208, null
  br i1 %247, label %249, label %248

248:                                              ; preds = %242
  store ptr %208, ptr %12, align 8, !tbaa !9
  store i64 %243, ptr %220, align 8, !tbaa !40
  br label %251

249:                                              ; preds = %242, %238
  %250 = phi ptr [ %216, %238 ], [ %220, %242 ]
  store ptr %250, ptr %12, align 8, !tbaa !9
  br label %251

251:                                              ; preds = %222, %232, %248, %249
  %252 = phi ptr [ %237, %232 ], [ %208, %248 ], [ %250, %249 ], [ %223, %222 ]
  %253 = getelementptr inbounds %"class.std::__cxx11::basic_string", ptr %12, i64 0, i32 1
  store i64 0, ptr %253, align 8, !tbaa !15
  store i8 0, ptr %252, align 1, !tbaa !40
  %254 = load ptr, ptr %12, align 8, !tbaa !9
  %255 = getelementptr inbounds %"class.std::__cxx11::basic_string", ptr %12, i64 0, i32 2
  %256 = icmp eq ptr %254, %255
  br i1 %256, label %257, label %260

257:                                              ; preds = %251
  %258 = load i64, ptr %253, align 8, !tbaa !15
  %259 = icmp ult i64 %258, 16
  call void @llvm.assume(i1 %259)
  br label %338

260:                                              ; preds = %251
  call void @_ZdlPv(ptr noundef %254) #26
  br label %338

261:                                              ; preds = %141
  %262 = landingpad { ptr, i32 }
          cleanup
  call void @_ZN12cctki_piraha9smart_ptrINS_5GroupEED2Ev(ptr noundef nonnull align 8 dereferenceable(8) %10) #27
  call void @llvm.lifetime.end.p0(i64 8, ptr nonnull %10) #27
  call void @llvm.lifetime.end.p0(i64 32, ptr nonnull %9) #27
  br label %516

263:                                              ; preds = %303, %175
  %264 = landingpad { ptr, i32 }
          cleanup
  br label %516

265:                                              ; preds = %183
  %266 = landingpad { ptr, i32 }
          cleanup
  call void @_ZN12cctki_piraha9smart_ptrINS_5GroupEED2Ev(ptr noundef nonnull align 8 dereferenceable(8) %11) #27
  br label %516

267:                                              ; preds = %202
  %268 = landingpad { ptr, i32 }
          cleanup
  call void @llvm.lifetime.end.p0(i64 32, ptr nonnull %12) #27
  br label %516

269:                                              ; preds = %174
  call void @llvm.lifetime.start.p0(i64 32, ptr nonnull %13) #27
  call void @llvm.lifetime.start.p0(i64 8, ptr nonnull %14) #27
  %270 = load ptr, ptr %1, align 8, !tbaa !55, !nonnull !31, !noundef !31
  %271 = getelementptr inbounds %"class.cctki_piraha::smart_ptr_guts.20", ptr %270, i64 0, i32 2
  %272 = load ptr, ptr %271, align 8, !tbaa !56
  call void @llvm.experimental.noalias.scope.decl(metadata !109)
  %273 = getelementptr inbounds %"class.cctki_piraha::Group", ptr %272, i64 0, i32 5
  %274 = load ptr, ptr %273, align 8, !tbaa !92, !noalias !109
  %275 = load ptr, ptr %274, align 8, !tbaa !55, !noalias !109, !nonnull !31, !noundef !31
  store ptr %275, ptr %14, align 8, !tbaa !55, !alias.scope !109
  %276 = load i32, ptr %275, align 8, !tbaa !58, !noalias !109
  %277 = add nsw i32 %276, 1
  store i32 %277, ptr %275, align 8, !tbaa !58, !noalias !109
  %278 = getelementptr inbounds %"class.cctki_piraha::smart_ptr_guts.20", ptr %275, i64 0, i32 2
  %279 = load ptr, ptr %278, align 8, !tbaa !56
  invoke void @_ZN12cctki_piraha5Group9substringB5cxx11Ev(ptr nonnull sret(%"class.std::__cxx11::basic_string") align 8 %13, ptr noundef nonnull align 8 dereferenceable(80) %279)
          to label %280 unwind label %334

280:                                              ; preds = %269
  %281 = getelementptr inbounds %"class.std::__cxx11::basic_string", ptr %13, i64 0, i32 1
  %282 = load i64, ptr %281, align 8, !tbaa !15
  %283 = icmp eq i64 %282, 2
  %284 = load ptr, ptr %13, align 8, !tbaa !9
  br i1 %283, label %285, label %288

285:                                              ; preds = %280
  %286 = call i32 @bcmp(ptr noundef nonnull dereferenceable(2) %284, ptr noundef nonnull dereferenceable(2) @.str.23, i64 2)
  %287 = icmp eq i32 %286, 0
  br label %288

288:                                              ; preds = %285, %280
  %289 = phi i1 [ false, %280 ], [ %287, %285 ]
  %290 = getelementptr inbounds %"class.std::__cxx11::basic_string", ptr %13, i64 0, i32 2
  %291 = icmp eq ptr %284, %290
  br i1 %291, label %292, label %294

292:                                              ; preds = %288
  %293 = icmp ult i64 %282, 16
  call void @llvm.assume(i1 %293)
  br label %295

294:                                              ; preds = %288
  call void @_ZdlPv(ptr noundef %284) #26
  br label %295

295:                                              ; preds = %294, %292
  %296 = load i32, ptr %275, align 8, !tbaa !58
  %297 = icmp sgt i32 %296, 0
  br i1 %297, label %298, label %302

298:                                              ; preds = %295
  %299 = add nsw i32 %296, -1
  store i32 %299, ptr %275, align 8, !tbaa !58
  %300 = icmp eq i32 %296, 1
  br i1 %300, label %301, label %302

301:                                              ; preds = %298
  call void @_ZN12cctki_piraha14smart_ptr_gutsINS_5GroupEED2Ev(ptr noundef nonnull align 8 dereferenceable(17) %275) #27
  call void @_ZdlPv(ptr noundef nonnull %275) #26
  br label %302

302:                                              ; preds = %295, %298, %301
  call void @llvm.lifetime.end.p0(i64 8, ptr nonnull %14) #27
  call void @llvm.lifetime.end.p0(i64 32, ptr nonnull %13) #27
  br i1 %289, label %303, label %346

303:                                              ; preds = %302
  %304 = invoke noalias noundef nonnull dereferenceable(64) ptr @_Znwm(i64 noundef 64) #29
          to label %305 unwind label %263

305:                                              ; preds = %303
  %306 = load ptr, ptr %1, align 8, !tbaa !55
  store ptr %306, ptr %15, align 8, !tbaa !55
  %307 = icmp eq ptr %306, null
  br i1 %307, label %311, label %308

308:                                              ; preds = %305
  %309 = load i32, ptr %306, align 8, !tbaa !58
  %310 = add nsw i32 %309, 2
  store i32 %310, ptr %306, align 8, !tbaa !58
  br label %311

311:                                              ; preds = %308, %305
  store ptr %306, ptr %304, align 8
  %312 = getelementptr inbounds %"struct.cctki_piraha::Value", ptr %304, i64 0, i32 1
  store double 0.000000e+00, ptr %312, align 8, !tbaa !53
  %313 = getelementptr inbounds %"struct.cctki_piraha::Value", ptr %304, i64 0, i32 2
  store i32 0, ptr %313, align 8, !tbaa !54
  %314 = getelementptr inbounds %"struct.cctki_piraha::Value", ptr %304, i64 0, i32 4
  %315 = getelementptr inbounds %"struct.cctki_piraha::Value", ptr %304, i64 0, i32 4, i32 2
  store ptr %315, ptr %314, align 8, !tbaa !41
  %316 = getelementptr inbounds %"struct.cctki_piraha::Value", ptr %304, i64 0, i32 4, i32 1
  store i64 0, ptr %316, align 8, !tbaa !15
  store i8 0, ptr %315, align 8, !tbaa !40
  %317 = getelementptr inbounds %"struct.cctki_piraha::Value", ptr %304, i64 0, i32 5
  store i32 4, ptr %317, align 8, !tbaa !49
  %318 = invoke noalias noundef nonnull dereferenceable(24) ptr @_Znwm(i64 noundef 24) #29
          to label %319 unwind label %336

319:                                              ; preds = %311
  store i32 1, ptr %318, align 8, !tbaa !59
  %320 = getelementptr inbounds %"class.cctki_piraha::smart_ptr_guts.18", ptr %318, i64 0, i32 2
  store ptr %304, ptr %320, align 8, !tbaa !47
  %321 = getelementptr inbounds %"class.cctki_piraha::smart_ptr_guts.18", ptr %318, i64 0, i32 3
  store i8 0, ptr %321, align 8, !tbaa !60
  store ptr %318, ptr %0, align 8, !tbaa !45
  br i1 %307, label %330, label %322

322:                                              ; preds = %319
  %323 = load i32, ptr %306, align 8, !tbaa !58
  %324 = icmp sgt i32 %323, 0
  br i1 %324, label %325, label %330

325:                                              ; preds = %322
  %326 = add nsw i32 %323, -1
  store i32 %326, ptr %306, align 8, !tbaa !58
  %327 = icmp eq i32 %323, 1
  br i1 %327, label %328, label %330

328:                                              ; preds = %325
  call void @_ZN12cctki_piraha14smart_ptr_gutsINS_5GroupEED2Ev(ptr noundef nonnull align 8 dereferenceable(17) %306) #27
  call void @_ZdlPv(ptr noundef nonnull %306) #26
  store ptr null, ptr %15, align 8, !tbaa !55
  %329 = load ptr, ptr %320, align 8, !tbaa !47
  br label %330

330:                                              ; preds = %328, %325, %322, %319
  %331 = phi ptr [ %304, %319 ], [ %304, %322 ], [ %304, %325 ], [ %329, %328 ]
  %332 = getelementptr inbounds %"struct.cctki_piraha::Value", ptr %331, i64 0, i32 5
  store i32 2, ptr %332, align 8, !tbaa !49
  %333 = getelementptr inbounds %"struct.cctki_piraha::Value", ptr %331, i64 0, i32 1
  store double 0x400921FB54442D18, ptr %333, align 8, !tbaa !53
  br label %341

334:                                              ; preds = %269
  %335 = landingpad { ptr, i32 }
          cleanup
  call void @_ZN12cctki_piraha9smart_ptrINS_5GroupEED2Ev(ptr noundef nonnull align 8 dereferenceable(8) %14) #27
  call void @llvm.lifetime.end.p0(i64 8, ptr nonnull %14) #27
  call void @llvm.lifetime.end.p0(i64 32, ptr nonnull %13) #27
  br label %516

336:                                              ; preds = %311
  %337 = landingpad { ptr, i32 }
          cleanup
  call void @_ZN12cctki_piraha9smart_ptrINS_5GroupEED2Ev(ptr noundef nonnull align 8 dereferenceable(8) %15) #27
  br label %516

338:                                              ; preds = %260, %257
  call void @llvm.lifetime.end.p0(i64 32, ptr nonnull %12) #27
  %339 = load ptr, ptr %0, align 8, !tbaa !45
  %340 = icmp eq ptr %339, null
  br i1 %340, label %346, label %341

341:                                              ; preds = %330, %126, %338
  %342 = phi ptr [ %339, %338 ], [ %318, %330 ], [ %112, %126 ]
  %343 = getelementptr inbounds %"class.cctki_piraha::smart_ptr_guts.18", ptr %342, i64 0, i32 2
  %344 = load ptr, ptr %343, align 8, !tbaa !47
  %345 = icmp eq ptr %344, null
  br i1 %345, label %346, label %515

346:                                              ; preds = %302, %95, %338, %341
  call void @llvm.lifetime.start.p0(i64 376, ptr nonnull %16) #27
  invoke void @_ZNSt7__cxx1119basic_ostringstreamIcSt11char_traitsIcESaIcEEC1Ev(ptr noundef nonnull align 8 dereferenceable(112) %16)
          to label %347 unwind label %468

347:                                              ; preds = %346
  %348 = invoke noundef nonnull align 8 dereferenceable(8) ptr @_ZSt16__ostream_insertIcSt11char_traitsIcEERSt13basic_ostreamIT_T0_ES6_PKS3_l(ptr noundef nonnull align 8 dereferenceable(8) %16, ptr noundef nonnull @.str.24, i64 noundef 18)
          to label %349 unwind label %470

349:                                              ; preds = %347
  call void @llvm.lifetime.start.p0(i64 32, ptr nonnull %17) #27
  %350 = load ptr, ptr %1, align 8, !tbaa !55, !nonnull !31, !noundef !31
  %351 = getelementptr inbounds %"class.cctki_piraha::smart_ptr_guts.20", ptr %350, i64 0, i32 2
  %352 = load ptr, ptr %351, align 8, !tbaa !56
  invoke void @_ZN12cctki_piraha5Group9substringB5cxx11Ev(ptr nonnull sret(%"class.std::__cxx11::basic_string") align 8 %17, ptr noundef nonnull align 8 dereferenceable(80) %352)
          to label %353 unwind label %472

353:                                              ; preds = %349
  %354 = load ptr, ptr %17, align 8, !tbaa !9
  %355 = getelementptr inbounds %"class.std::__cxx11::basic_string", ptr %17, i64 0, i32 1
  %356 = load i64, ptr %355, align 8, !tbaa !15
  %357 = invoke noundef nonnull align 8 dereferenceable(8) ptr @_ZSt16__ostream_insertIcSt11char_traitsIcEERSt13basic_ostreamIT_T0_ES6_PKS3_l(ptr noundef nonnull align 8 dereferenceable(8) %16, ptr noundef %354, i64 noundef %356)
          to label %358 unwind label %474

358:                                              ; preds = %353
  %359 = load ptr, ptr %357, align 8, !tbaa !6
  %360 = getelementptr i8, ptr %359, i64 -24
  %361 = load i64, ptr %360, align 8
  %362 = getelementptr inbounds i8, ptr %357, i64 %361
  %363 = getelementptr inbounds %"class.std::basic_ios", ptr %362, i64 0, i32 5
  %364 = load ptr, ptr %363, align 8, !tbaa !61
  %365 = icmp eq ptr %364, null
  br i1 %365, label %366, label %368

366:                                              ; preds = %358
  invoke void @_ZSt16__throw_bad_castv() #30
          to label %367 unwind label %474

367:                                              ; preds = %366
  unreachable

368:                                              ; preds = %358
  %369 = getelementptr inbounds %"class.std::ctype", ptr %364, i64 0, i32 8
  %370 = load i8, ptr %369, align 8, !tbaa !68
  %371 = icmp eq i8 %370, 0
  br i1 %371, label %375, label %372

372:                                              ; preds = %368
  %373 = getelementptr inbounds %"class.std::ctype", ptr %364, i64 0, i32 9, i64 10
  %374 = load i8, ptr %373, align 1, !tbaa !40
  br label %381

375:                                              ; preds = %368
  invoke void @_ZNKSt5ctypeIcE13_M_widen_initEv(ptr noundef nonnull align 8 dereferenceable(570) %364)
          to label %376 unwind label %474

376:                                              ; preds = %375
  %377 = load ptr, ptr %364, align 8, !tbaa !6
  %378 = getelementptr inbounds ptr, ptr %377, i64 6
  %379 = load ptr, ptr %378, align 8
  %380 = invoke noundef signext i8 %379(ptr noundef nonnull align 8 dereferenceable(570) %364, i8 noundef signext 10)
          to label %381 unwind label %474

381:                                              ; preds = %376, %372
  %382 = phi i8 [ %374, %372 ], [ %380, %376 ]
  %383 = invoke noundef nonnull align 8 dereferenceable(8) ptr @_ZNSo3putEc(ptr noundef nonnull align 8 dereferenceable(8) %357, i8 noundef signext %382)
          to label %384 unwind label %474

384:                                              ; preds = %381
  %385 = invoke noundef nonnull align 8 dereferenceable(8) ptr @_ZNSo5flushEv(ptr noundef nonnull align 8 dereferenceable(8) %383)
          to label %386 unwind label %474

386:                                              ; preds = %384
  %387 = load ptr, ptr %17, align 8, !tbaa !9
  %388 = getelementptr inbounds %"class.std::__cxx11::basic_string", ptr %17, i64 0, i32 2
  %389 = icmp eq ptr %387, %388
  br i1 %389, label %390, label %393

390:                                              ; preds = %386
  %391 = load i64, ptr %355, align 8, !tbaa !15
  %392 = icmp ult i64 %391, 16
  call void @llvm.assume(i1 %392)
  br label %394

393:                                              ; preds = %386
  call void @_ZdlPv(ptr noundef %387) #26
  br label %394

394:                                              ; preds = %390, %393
  call void @llvm.lifetime.end.p0(i64 32, ptr nonnull %17) #27
  call void @llvm.lifetime.start.p0(i64 32, ptr nonnull %18) #27
  invoke void @_ZN12cctki_piraha11get_parfileB5cxx11Ev(ptr nonnull sret(%"class.std::__cxx11::basic_string") align 8 %18)
          to label %395 unwind label %485

395:                                              ; preds = %394
  %396 = load ptr, ptr %1, align 8, !tbaa !55, !nonnull !31, !noundef !31
  %397 = getelementptr inbounds %"class.cctki_piraha::smart_ptr_guts.20", ptr %396, i64 0, i32 2
  %398 = load ptr, ptr %397, align 8, !tbaa !56
  %399 = invoke noundef i32 @_ZN12cctki_piraha5Group4lineEv(ptr noundef nonnull align 8 dereferenceable(80) %398)
          to label %400 unwind label %487

400:                                              ; preds = %395
  %401 = load ptr, ptr %18, align 8, !tbaa !9
  %402 = load ptr, ptr @_ZN12cctki_piraha13current_thornB5cxx11E, align 8, !tbaa !9
  call void @llvm.lifetime.start.p0(i64 32, ptr nonnull %19) #27
  call void @llvm.experimental.noalias.scope.decl(metadata !112)
  call void @llvm.experimental.noalias.scope.decl(metadata !115)
  %403 = getelementptr inbounds %"class.std::__cxx11::basic_string", ptr %19, i64 0, i32 2
  store ptr %403, ptr %19, align 8, !tbaa !41, !alias.scope !118
  %404 = getelementptr inbounds %"class.std::__cxx11::basic_string", ptr %19, i64 0, i32 1
  store i64 0, ptr %404, align 8, !tbaa !15, !alias.scope !118
  store i8 0, ptr %403, align 8, !tbaa !40, !alias.scope !118
  %405 = getelementptr inbounds %"class.std::__cxx11::basic_ostringstream", ptr %16, i64 0, i32 1, i32 0, i32 5
  %406 = load ptr, ptr %405, align 8, !tbaa !78, !noalias !118
  %407 = icmp eq ptr %406, null
  %408 = getelementptr inbounds %"class.std::__cxx11::basic_ostringstream", ptr %16, i64 0, i32 1, i32 0, i32 3
  %409 = load ptr, ptr %408, align 8, !noalias !118
  %410 = icmp ugt ptr %406, %409
  %411 = select i1 %410, ptr %406, ptr %409
  %412 = icmp eq ptr %411, null
  %413 = select i1 %407, i1 true, i1 %412
  br i1 %413, label %429, label %414

414:                                              ; preds = %400
  %415 = getelementptr inbounds %"class.std::__cxx11::basic_ostringstream", ptr %16, i64 0, i32 1, i32 0, i32 4
  %416 = load ptr, ptr %415, align 8, !tbaa !80, !noalias !118
  %417 = ptrtoint ptr %411 to i64
  %418 = ptrtoint ptr %416 to i64
  %419 = sub i64 %417, %418
  %420 = invoke noundef nonnull align 8 dereferenceable(32) ptr @_ZNSt7__cxx1112basic_stringIcSt11char_traitsIcESaIcEE10_M_replaceEmmPKcm(ptr noundef nonnull align 8 dereferenceable(32) %19, i64 noundef 0, i64 noundef 0, ptr noundef %416, i64 noundef %419)
          to label %431 unwind label %421

421:                                              ; preds = %429, %414
  %422 = landingpad { ptr, i32 }
          cleanup
  %423 = load ptr, ptr %19, align 8, !tbaa !9, !alias.scope !118
  %424 = icmp eq ptr %423, %403
  br i1 %424, label %425, label %428

425:                                              ; preds = %421
  %426 = load i64, ptr %404, align 8, !tbaa !15, !alias.scope !118
  %427 = icmp ult i64 %426, 16
  call void @llvm.assume(i1 %427)
  br label %497

428:                                              ; preds = %421
  call void @_ZdlPv(ptr noundef %423) #26
  br label %497

429:                                              ; preds = %400
  %430 = getelementptr inbounds %"class.std::__cxx11::basic_ostringstream", ptr %16, i64 0, i32 1, i32 2
  invoke void @_ZNSt7__cxx1112basic_stringIcSt11char_traitsIcESaIcEE9_M_assignERKS4_(ptr noundef nonnull align 8 dereferenceable(32) %19, ptr noundef nonnull align 8 dereferenceable(32) %430)
          to label %431 unwind label %421

431:                                              ; preds = %429, %414
  %432 = load ptr, ptr %19, align 8, !tbaa !9
  invoke void @CCTK_Error(i32 noundef %399, ptr noundef %401, ptr noundef %402, ptr noundef %432)
          to label %433 unwind label %489

433:                                              ; preds = %431
  %434 = load ptr, ptr %19, align 8, !tbaa !9
  %435 = icmp eq ptr %434, %403
  br i1 %435, label %436, label %439

436:                                              ; preds = %433
  %437 = load i64, ptr %404, align 8, !tbaa !15
  %438 = icmp ult i64 %437, 16
  call void @llvm.assume(i1 %438)
  br label %440

439:                                              ; preds = %433
  call void @_ZdlPv(ptr noundef %434) #26
  br label %440

440:                                              ; preds = %436, %439
  call void @llvm.lifetime.end.p0(i64 32, ptr nonnull %19) #27
  %441 = load ptr, ptr %18, align 8, !tbaa !9
  %442 = getelementptr inbounds %"class.std::__cxx11::basic_string", ptr %18, i64 0, i32 2
  %443 = icmp eq ptr %441, %442
  br i1 %443, label %444, label %448

444:                                              ; preds = %440
  %445 = getelementptr inbounds %"class.std::__cxx11::basic_string", ptr %18, i64 0, i32 1
  %446 = load i64, ptr %445, align 8, !tbaa !15
  %447 = icmp ult i64 %446, 16
  call void @llvm.assume(i1 %447)
  br label %449

448:                                              ; preds = %440
  call void @_ZdlPv(ptr noundef %441) #26
  br label %449

449:                                              ; preds = %444, %448
  call void @llvm.lifetime.end.p0(i64 32, ptr nonnull %18) #27
  %450 = load ptr, ptr @_ZTTNSt7__cxx1119basic_ostringstreamIcSt11char_traitsIcESaIcEEE, align 8
  store ptr %450, ptr %16, align 8, !tbaa !6
  %451 = load ptr, ptr getelementptr inbounds ([4 x ptr], ptr @_ZTTNSt7__cxx1119basic_ostringstreamIcSt11char_traitsIcESaIcEEE, i64 0, i64 3), align 8
  %452 = getelementptr i8, ptr %450, i64 -24
  %453 = load i64, ptr %452, align 8
  %454 = getelementptr inbounds i8, ptr %16, i64 %453
  store ptr %451, ptr %454, align 8, !tbaa !6
  %455 = getelementptr inbounds %"class.std::__cxx11::basic_ostringstream", ptr %16, i64 0, i32 1
  store ptr getelementptr inbounds ({ [16 x ptr] }, ptr @_ZTVNSt7__cxx1115basic_stringbufIcSt11char_traitsIcESaIcEEE, i64 0, inrange i32 0, i64 2), ptr %455, align 8, !tbaa !6
  %456 = getelementptr inbounds %"class.std::__cxx11::basic_ostringstream", ptr %16, i64 0, i32 1, i32 2
  %457 = load ptr, ptr %456, align 8, !tbaa !9
  %458 = getelementptr inbounds %"class.std::__cxx11::basic_ostringstream", ptr %16, i64 0, i32 1, i32 2, i32 2
  %459 = icmp eq ptr %457, %458
  br i1 %459, label %460, label %464

460:                                              ; preds = %449
  %461 = getelementptr inbounds %"class.std::__cxx11::basic_ostringstream", ptr %16, i64 0, i32 1, i32 2, i32 1
  %462 = load i64, ptr %461, align 8, !tbaa !15
  %463 = icmp ult i64 %462, 16
  call void @llvm.assume(i1 %463)
  br label %465

464:                                              ; preds = %449
  call void @_ZdlPv(ptr noundef %457) #26
  br label %465

465:                                              ; preds = %460, %464
  store ptr getelementptr inbounds ({ [16 x ptr] }, ptr @_ZTVSt15basic_streambufIcSt11char_traitsIcEE, i64 0, inrange i32 0, i64 2), ptr %455, align 8, !tbaa !6
  %466 = getelementptr inbounds %"class.std::__cxx11::basic_ostringstream", ptr %16, i64 0, i32 1, i32 0, i32 7
  call void @_ZNSt6localeD1Ev(ptr noundef nonnull align 8 dereferenceable(8) %466) #27
  %467 = getelementptr inbounds i8, ptr %16, i64 112
  call void @_ZNSt8ios_baseD2Ev(ptr noundef nonnull align 8 dereferenceable(264) %467) #27
  call void @llvm.lifetime.end.p0(i64 376, ptr nonnull %16) #27
  br label %515

468:                                              ; preds = %346
  %469 = landingpad { ptr, i32 }
          cleanup
  br label %513

470:                                              ; preds = %347
  %471 = landingpad { ptr, i32 }
          cleanup
  br label %511

472:                                              ; preds = %349
  %473 = landingpad { ptr, i32 }
          cleanup
  br label %483

474:                                              ; preds = %384, %381, %376, %375, %366, %353
  %475 = landingpad { ptr, i32 }
          cleanup
  %476 = load ptr, ptr %17, align 8, !tbaa !9
  %477 = getelementptr inbounds %"class.std::__cxx11::basic_string", ptr %17, i64 0, i32 2
  %478 = icmp eq ptr %476, %477
  br i1 %478, label %479, label %482

479:                                              ; preds = %474
  %480 = load i64, ptr %355, align 8, !tbaa !15
  %481 = icmp ult i64 %480, 16
  call void @llvm.assume(i1 %481)
  br label %483

482:                                              ; preds = %474
  call void @_ZdlPv(ptr noundef %476) #26
  br label %483

483:                                              ; preds = %482, %479, %472
  %484 = phi { ptr, i32 } [ %473, %472 ], [ %475, %479 ], [ %475, %482 ]
  call void @llvm.lifetime.end.p0(i64 32, ptr nonnull %17) #27
  br label %511

485:                                              ; preds = %394
  %486 = landingpad { ptr, i32 }
          cleanup
  br label %509

487:                                              ; preds = %395
  %488 = landingpad { ptr, i32 }
          cleanup
  br label %499

489:                                              ; preds = %431
  %490 = landingpad { ptr, i32 }
          cleanup
  %491 = load ptr, ptr %19, align 8, !tbaa !9
  %492 = icmp eq ptr %491, %403
  br i1 %492, label %493, label %496

493:                                              ; preds = %489
  %494 = load i64, ptr %404, align 8, !tbaa !15
  %495 = icmp ult i64 %494, 16
  call void @llvm.assume(i1 %495)
  br label %497

496:                                              ; preds = %489
  call void @_ZdlPv(ptr noundef %491) #26
  br label %497

497:                                              ; preds = %496, %493, %428, %425
  %498 = phi { ptr, i32 } [ %422, %428 ], [ %422, %425 ], [ %490, %493 ], [ %490, %496 ]
  call void @llvm.lifetime.end.p0(i64 32, ptr nonnull %19) #27
  br label %499

499:                                              ; preds = %497, %487
  %500 = phi { ptr, i32 } [ %498, %497 ], [ %488, %487 ]
  %501 = load ptr, ptr %18, align 8, !tbaa !9
  %502 = getelementptr inbounds %"class.std::__cxx11::basic_string", ptr %18, i64 0, i32 2
  %503 = icmp eq ptr %501, %502
  br i1 %503, label %504, label %508

504:                                              ; preds = %499
  %505 = getelementptr inbounds %"class.std::__cxx11::basic_string", ptr %18, i64 0, i32 1
  %506 = load i64, ptr %505, align 8, !tbaa !15
  %507 = icmp ult i64 %506, 16
  call void @llvm.assume(i1 %507)
  br label %509

508:                                              ; preds = %499
  call void @_ZdlPv(ptr noundef %501) #26
  br label %509

509:                                              ; preds = %508, %504, %485
  %510 = phi { ptr, i32 } [ %486, %485 ], [ %500, %504 ], [ %500, %508 ]
  call void @llvm.lifetime.end.p0(i64 32, ptr nonnull %18) #27
  br label %511

511:                                              ; preds = %509, %483, %470
  %512 = phi { ptr, i32 } [ %510, %509 ], [ %484, %483 ], [ %471, %470 ]
  call void @_ZNSt7__cxx1119basic_ostringstreamIcSt11char_traitsIcESaIcEED1Ev(ptr noundef nonnull align 8 dereferenceable(112) %16) #27
  br label %513

513:                                              ; preds = %511, %468
  %514 = phi { ptr, i32 } [ %512, %511 ], [ %469, %468 ]
  call void @llvm.lifetime.end.p0(i64 376, ptr nonnull %16) #27
  br label %516

515:                                              ; preds = %341, %465
  ret void

516:                                              ; preds = %336, %265, %139, %135, %137, %513, %334, %267, %263, %261, %133
  %517 = phi { ptr, i32 } [ %514, %513 ], [ %268, %267 ], [ %266, %265 ], [ %264, %263 ], [ %337, %336 ], [ %335, %334 ], [ %262, %261 ], [ %134, %133 ], [ %138, %137 ], [ %140, %139 ], [ %136, %135 ]
  call void @_ZN12cctki_piraha9smart_ptrINS_5ValueEED2Ev(ptr noundef nonnull align 8 dereferenceable(8) %0) #27
  resume { ptr, i32 } %517
}

; Function Attrs: inlinehint mustprogress sspstrong uwtable
define linkonce_odr dso_local noundef zeroext i1 @_ZSteqIcSt11char_traitsIcESaIcEEbRKNSt7__cxx1112basic_stringIT_T0_T1_EEPKS5_(ptr noundef nonnull align 8 dereferenceable(32) %0, ptr noundef %1) local_unnamed_addr #12 comdat {
  %3 = getelementptr inbounds %"class.std::__cxx11::basic_string", ptr %0, i64 0, i32 1
  %4 = load i64, ptr %3, align 8, !tbaa !15
  %5 = tail call i64 @strlen(ptr noundef nonnull dereferenceable(1) %1) #27
  %6 = icmp eq i64 %4, %5
  br i1 %6, label %7, label %13

7:                                                ; preds = %2
  %8 = icmp eq i64 %4, 0
  br i1 %8, label %13, label %9

9:                                                ; preds = %7
  %10 = load ptr, ptr %0, align 8, !tbaa !9
  %11 = tail call i32 @bcmp(ptr %10, ptr %1, i64 %4)
  %12 = icmp eq i32 %11, 0
  br label %13

13:                                               ; preds = %9, %7, %2
  %14 = phi i1 [ false, %2 ], [ %12, %9 ], [ true, %7 ]
  ret i1 %14
}

declare void @_ZN12cctki_piraha5Group14getPatternNameB5cxx11Ev(ptr sret(%"class.std::__cxx11::basic_string") align 8, ptr noundef nonnull align 8 dereferenceable(80)) local_unnamed_addr #8

; Function Attrs: nofree nounwind memory(read)
declare noundef ptr @getenv(ptr nocapture noundef) local_unnamed_addr #15

; Function Attrs: mustprogress sspstrong uwtable
declare noundef nonnull align 8 dereferenceable(32) ptr @_ZNSt7__cxx1112basic_stringIcSt11char_traitsIcESaIcEEaSEPKc(ptr noundef nonnull align 8 dereferenceable(32), ptr noundef) local_unnamed_addr #11 align 2

; Function Attrs: mustprogress nounwind sspstrong uwtable
declare noundef nonnull align 8 dereferenceable(32) ptr @_ZNSt7__cxx1112basic_stringIcSt11char_traitsIcESaIcEEaSEOS4_(ptr noundef nonnull align 8 dereferenceable(32), ptr noundef nonnull align 8 dereferenceable(32)) local_unnamed_addr #16 align 2

; Function Attrs: sspstrong uwtable
define dso_local void @_ZN12cctki_piraha15string_reparserENSt7__cxx1112basic_stringIcSt11char_traitsIcESaIcEEE(ptr noalias sret(%"class.std::__cxx11::basic_string") align 8 %0, ptr noundef %1) local_unnamed_addr #7 personality ptr @__gxx_personality_v0 {
  %3 = alloca %"class.cctki_piraha::smart_ptr.23", align 8
  %4 = alloca %"class.cctki_piraha::smart_ptr", align 8
  %5 = alloca %"class.std::__cxx11::basic_string", align 8
  %6 = alloca %"class.cctki_piraha::smart_ptr.14", align 8
  %7 = alloca %"class.std::__cxx11::basic_string", align 8
  %8 = alloca %"class.cctki_piraha::smart_ptr.14", align 8
  %9 = alloca %"class.cctki_piraha::smart_ptr.13", align 8
  %10 = alloca %"class.cctki_piraha::smart_ptr.14", align 8
  %11 = alloca %"class.std::__cxx11::basic_string", align 8
  call void @llvm.lifetime.start.p0(i64 8, ptr nonnull %3) #27
  %12 = tail call noalias noundef nonnull dereferenceable(232) ptr @_Znwm(i64 noundef 232) #29
  %13 = load ptr, ptr @_ZN12cctki_pirahaL16par_file_grammarE, align 8, !tbaa !34
  store ptr %13, ptr %4, align 8, !tbaa !34
  %14 = icmp eq ptr %13, null
  br i1 %14, label %18, label %15

15:                                               ; preds = %2
  %16 = load i32, ptr %13, align 8, !tbaa !36
  %17 = add nsw i32 %16, 1
  store i32 %17, ptr %13, align 8, !tbaa !36
  br label %18

18:                                               ; preds = %15, %2
  %19 = load ptr, ptr %1, align 8, !tbaa !9
  %20 = getelementptr inbounds %"class.std::__cxx11::basic_string", ptr %1, i64 0, i32 1
  %21 = load i64, ptr %20, align 8, !tbaa !15
  %22 = trunc i64 %21 to i32
  invoke void @_ZN12cctki_piraha7MatcherC1ENS_9smart_ptrINS_7GrammarEEEPKcS5_i(ptr noundef nonnull align 8 dereferenceable(228) %12, ptr noundef nonnull %4, ptr noundef nonnull @.str.25, ptr noundef %19, i32 noundef %22)
          to label %23 unwind label %54

23:                                               ; preds = %18
  %24 = invoke noalias noundef nonnull dereferenceable(24) ptr @_Znwm(i64 noundef 24) #29
          to label %25 unwind label %54

25:                                               ; preds = %23
  store i32 1, ptr %24, align 8, !tbaa !119
  %26 = getelementptr inbounds %"class.cctki_piraha::smart_ptr_guts.29", ptr %24, i64 0, i32 2
  store ptr %12, ptr %26, align 8, !tbaa !121
  %27 = getelementptr inbounds %"class.cctki_piraha::smart_ptr_guts.29", ptr %24, i64 0, i32 3
  store i8 0, ptr %27, align 8, !tbaa !122
  store ptr %24, ptr %3, align 8, !tbaa !123
  invoke void @_ZN12cctki_piraha9smart_ptrINS_7GrammarEE5cleanEv(ptr noundef nonnull align 8 dereferenceable(8) %4)
          to label %31 unwind label %28

28:                                               ; preds = %25
  %29 = landingpad { ptr, i32 }
          catch ptr null
  %30 = extractvalue { ptr, i32 } %29, 0
  call void @__clang_call_terminate(ptr %30) #25
  unreachable

31:                                               ; preds = %25
  %32 = load ptr, ptr %26, align 8, !tbaa !121
  %33 = invoke noundef zeroext i1 @_ZN12cctki_piraha7Matcher7matchesEv(ptr noundef nonnull align 8 dereferenceable(228) %32)
          to label %34 unwind label %62

34:                                               ; preds = %31
  %35 = getelementptr inbounds %"class.std::__cxx11::basic_string", ptr %0, i64 0, i32 2
  store ptr %35, ptr %0, align 8, !tbaa !41
  br i1 %33, label %36, label %254

36:                                               ; preds = %34
  %37 = getelementptr inbounds %"class.std::__cxx11::basic_string", ptr %0, i64 0, i32 1
  store i64 0, ptr %37, align 8, !tbaa !15
  store i8 0, ptr %35, align 8, !tbaa !40
  %38 = getelementptr inbounds %"class.std::__cxx11::basic_string", ptr %5, i64 0, i32 1
  %39 = getelementptr inbounds %"class.std::__cxx11::basic_string", ptr %7, i64 0, i32 1
  %40 = getelementptr inbounds %"class.std::__cxx11::basic_string", ptr %7, i64 0, i32 2
  %41 = getelementptr inbounds %"class.std::__cxx11::basic_string", ptr %11, i64 0, i32 1
  %42 = getelementptr inbounds %"class.std::__cxx11::basic_string", ptr %11, i64 0, i32 2
  %43 = getelementptr inbounds %"class.std::__cxx11::basic_string", ptr %5, i64 0, i32 2
  %44 = load ptr, ptr %26, align 8, !tbaa !121
  %45 = getelementptr inbounds %"class.cctki_piraha::Group", ptr %44, i64 0, i32 5
  %46 = getelementptr inbounds %"class.cctki_piraha::Group", ptr %44, i64 0, i32 5, i32 0, i32 0, i32 0, i32 1
  %47 = load ptr, ptr %46, align 8, !tbaa !94
  %48 = load ptr, ptr %45, align 8, !tbaa !92
  %49 = ptrtoint ptr %47 to i64
  %50 = ptrtoint ptr %48 to i64
  %51 = sub i64 %49, %50
  %52 = shl i64 %51, 29
  %53 = icmp sgt i64 %52, 4294967295
  br i1 %53, label %64, label %268

54:                                               ; preds = %23, %18
  %55 = phi i1 [ true, %18 ], [ false, %23 ]
  %56 = landingpad { ptr, i32 }
          cleanup
  invoke void @_ZN12cctki_piraha9smart_ptrINS_7GrammarEE5cleanEv(ptr noundef nonnull align 8 dereferenceable(8) %4)
          to label %60 unwind label %57

57:                                               ; preds = %54
  %58 = landingpad { ptr, i32 }
          catch ptr null
  %59 = extractvalue { ptr, i32 } %58, 0
  call void @__clang_call_terminate(ptr %59) #25
  unreachable

60:                                               ; preds = %54
  br i1 %55, label %61, label %299

61:                                               ; preds = %60
  call void @_ZdlPv(ptr noundef nonnull %12) #26
  br label %299

62:                                               ; preds = %31
  %63 = landingpad { ptr, i32 }
          cleanup
  br label %297

64:                                               ; preds = %36, %225
  %65 = phi ptr [ %231, %225 ], [ %48, %36 ]
  %66 = phi i64 [ %226, %225 ], [ 0, %36 ]
  call void @llvm.lifetime.start.p0(i64 32, ptr nonnull %5) #27
  call void @llvm.lifetime.start.p0(i64 8, ptr nonnull %6) #27
  call void @llvm.experimental.noalias.scope.decl(metadata !125)
  %67 = getelementptr inbounds %"class.cctki_piraha::smart_ptr.14", ptr %65, i64 %66
  %68 = load ptr, ptr %67, align 8, !tbaa !55, !noalias !125, !nonnull !31, !noundef !31
  store ptr %68, ptr %6, align 8, !tbaa !55, !alias.scope !125
  %69 = load i32, ptr %68, align 8, !tbaa !58, !noalias !125
  %70 = add nsw i32 %69, 1
  store i32 %70, ptr %68, align 8, !tbaa !58, !noalias !125
  %71 = getelementptr inbounds %"class.cctki_piraha::smart_ptr_guts.20", ptr %68, i64 0, i32 2
  %72 = load ptr, ptr %71, align 8, !tbaa !56
  invoke void @_ZN12cctki_piraha5Group14getPatternNameB5cxx11Ev(ptr nonnull sret(%"class.std::__cxx11::basic_string") align 8 %5, ptr noundef nonnull align 8 dereferenceable(80) %72)
          to label %73 unwind label %125

73:                                               ; preds = %64
  %74 = load i32, ptr %68, align 8, !tbaa !58
  %75 = icmp sgt i32 %74, 0
  br i1 %75, label %76, label %80

76:                                               ; preds = %73
  %77 = add nsw i32 %74, -1
  store i32 %77, ptr %68, align 8, !tbaa !58
  %78 = icmp eq i32 %74, 1
  br i1 %78, label %79, label %80

79:                                               ; preds = %76
  call void @_ZN12cctki_piraha14smart_ptr_gutsINS_5GroupEED2Ev(ptr noundef nonnull align 8 dereferenceable(17) %68) #27
  call void @_ZdlPv(ptr noundef nonnull %68) #26
  br label %80

80:                                               ; preds = %73, %76, %79
  call void @llvm.lifetime.end.p0(i64 8, ptr nonnull %6) #27
  %81 = load i64, ptr %38, align 8, !tbaa !15
  switch i64 %81, label %147 [
    i64 3, label %82
    i64 4, label %86
    i64 13, label %143
  ]

82:                                               ; preds = %80
  %83 = load ptr, ptr %5, align 8, !tbaa !9
  %84 = call i32 @bcmp(ptr noundef nonnull dereferenceable(3) %83, ptr noundef nonnull dereferenceable(3) @.str.27, i64 3)
  %85 = icmp eq i32 %84, 0
  br i1 %85, label %90, label %147

86:                                               ; preds = %80
  %87 = load ptr, ptr %5, align 8, !tbaa !9
  %88 = call i32 @bcmp(ptr %87, ptr nonnull @.str.28, i64 %81)
  %89 = icmp eq i32 %88, 0
  br i1 %89, label %90, label %147

90:                                               ; preds = %86, %82
  call void @llvm.lifetime.start.p0(i64 32, ptr nonnull %7) #27
  call void @llvm.lifetime.start.p0(i64 8, ptr nonnull %8) #27
  %91 = load ptr, ptr %26, align 8, !tbaa !121
  call void @llvm.experimental.noalias.scope.decl(metadata !128)
  %92 = getelementptr inbounds %"class.cctki_piraha::Group", ptr %91, i64 0, i32 5
  %93 = load ptr, ptr %92, align 8, !tbaa !92, !noalias !128
  %94 = getelementptr inbounds %"class.cctki_piraha::smart_ptr.14", ptr %93, i64 %66
  %95 = load ptr, ptr %94, align 8, !tbaa !55, !noalias !128, !nonnull !31, !noundef !31
  store ptr %95, ptr %8, align 8, !tbaa !55, !alias.scope !128
  %96 = load i32, ptr %95, align 8, !tbaa !58, !noalias !128
  %97 = add nsw i32 %96, 1
  store i32 %97, ptr %95, align 8, !tbaa !58, !noalias !128
  %98 = getelementptr inbounds %"class.cctki_piraha::smart_ptr_guts.20", ptr %95, i64 0, i32 2
  %99 = load ptr, ptr %98, align 8, !tbaa !56
  invoke void @_ZN12cctki_piraha5Group9substringB5cxx11Ev(ptr nonnull sret(%"class.std::__cxx11::basic_string") align 8 %7, ptr noundef nonnull align 8 dereferenceable(80) %99)
          to label %100 unwind label %127

100:                                              ; preds = %90
  %101 = load i64, ptr %39, align 8, !tbaa !15
  %102 = load i64, ptr %37, align 8, !tbaa !15
  %103 = sub i64 4611686018427387903, %102
  %104 = icmp ult i64 %103, %101
  br i1 %104, label %105, label %107

105:                                              ; preds = %100
  invoke void @_ZSt20__throw_length_errorPKc(ptr noundef nonnull @.str.20) #30
          to label %106 unwind label %131

106:                                              ; preds = %105
  unreachable

107:                                              ; preds = %100
  %108 = load ptr, ptr %7, align 8, !tbaa !9
  %109 = invoke noundef nonnull align 8 dereferenceable(32) ptr @_ZNSt7__cxx1112basic_stringIcSt11char_traitsIcESaIcEE9_M_appendEPKcm(ptr noundef nonnull align 8 dereferenceable(32) %0, ptr noundef %108, i64 noundef %101)
          to label %110 unwind label %129

110:                                              ; preds = %107
  %111 = load ptr, ptr %7, align 8, !tbaa !9
  %112 = icmp eq ptr %111, %40
  br i1 %112, label %113, label %116

113:                                              ; preds = %110
  %114 = load i64, ptr %39, align 8, !tbaa !15
  %115 = icmp ult i64 %114, 16
  call void @llvm.assume(i1 %115)
  br label %117

116:                                              ; preds = %110
  call void @_ZdlPv(ptr noundef %111) #26
  br label %117

117:                                              ; preds = %116, %113
  %118 = load i32, ptr %95, align 8, !tbaa !58
  %119 = icmp sgt i32 %118, 0
  br i1 %119, label %120, label %124

120:                                              ; preds = %117
  %121 = add nsw i32 %118, -1
  store i32 %121, ptr %95, align 8, !tbaa !58
  %122 = icmp eq i32 %118, 1
  br i1 %122, label %123, label %124

123:                                              ; preds = %120
  call void @_ZN12cctki_piraha14smart_ptr_gutsINS_5GroupEED2Ev(ptr noundef nonnull align 8 dereferenceable(17) %95) #27
  call void @_ZdlPv(ptr noundef nonnull %95) #26
  br label %124

124:                                              ; preds = %117, %120, %123
  call void @llvm.lifetime.end.p0(i64 8, ptr nonnull %8) #27
  call void @llvm.lifetime.end.p0(i64 32, ptr nonnull %7) #27
  br label %218

125:                                              ; preds = %64
  %126 = landingpad { ptr, i32 }
          cleanup
  call void @_ZN12cctki_piraha9smart_ptrINS_5GroupEED2Ev(ptr noundef nonnull align 8 dereferenceable(8) %6) #27
  call void @llvm.lifetime.end.p0(i64 8, ptr nonnull %6) #27
  br label %246

127:                                              ; preds = %90
  %128 = landingpad { ptr, i32 }
          cleanup
  br label %141

129:                                              ; preds = %107
  %130 = landingpad { ptr, i32 }
          cleanup
  br label %133

131:                                              ; preds = %105
  %132 = landingpad { ptr, i32 }
          cleanup
  br label %133

133:                                              ; preds = %131, %129
  %134 = phi { ptr, i32 } [ %130, %129 ], [ %132, %131 ]
  %135 = load ptr, ptr %7, align 8, !tbaa !9
  %136 = icmp eq ptr %135, %40
  br i1 %136, label %137, label %140

137:                                              ; preds = %133
  %138 = load i64, ptr %39, align 8, !tbaa !15
  %139 = icmp ult i64 %138, 16
  call void @llvm.assume(i1 %139)
  br label %141

140:                                              ; preds = %133
  call void @_ZdlPv(ptr noundef %135) #26
  br label %141

141:                                              ; preds = %140, %137, %127
  %142 = phi { ptr, i32 } [ %128, %127 ], [ %134, %137 ], [ %134, %140 ]
  call void @_ZN12cctki_piraha9smart_ptrINS_5GroupEED2Ev(ptr noundef nonnull align 8 dereferenceable(8) %8) #27
  call void @llvm.lifetime.end.p0(i64 8, ptr nonnull %8) #27
  call void @llvm.lifetime.end.p0(i64 32, ptr nonnull %7) #27
  br label %238

143:                                              ; preds = %80
  %144 = load ptr, ptr %5, align 8, !tbaa !9
  %145 = call i32 @bcmp(ptr %144, ptr nonnull @.str.29, i64 %81)
  %146 = icmp eq i32 %145, 0
  br i1 %146, label %218, label %147

147:                                              ; preds = %86, %82, %80, %143
  call void @llvm.lifetime.start.p0(i64 8, ptr nonnull %9) #27
  %148 = load ptr, ptr %26, align 8, !tbaa !121
  call void @llvm.experimental.noalias.scope.decl(metadata !131)
  %149 = getelementptr inbounds %"class.cctki_piraha::Group", ptr %148, i64 0, i32 5
  %150 = load ptr, ptr %149, align 8, !tbaa !92, !noalias !131
  %151 = getelementptr inbounds %"class.cctki_piraha::smart_ptr.14", ptr %150, i64 %66
  %152 = load ptr, ptr %151, align 8, !tbaa !55, !noalias !131
  store ptr %152, ptr %10, align 8, !tbaa !55, !alias.scope !131
  %153 = icmp eq ptr %152, null
  br i1 %153, label %157, label %154

154:                                              ; preds = %147
  %155 = load i32, ptr %152, align 8, !tbaa !58, !noalias !131
  %156 = add nsw i32 %155, 1
  store i32 %156, ptr %152, align 8, !tbaa !58, !noalias !131
  br label %157

157:                                              ; preds = %154, %147
  invoke void @_ZN12cctki_piraha10lookup_varENS_9smart_ptrINS_5GroupEEE(ptr nonnull sret(%"class.cctki_piraha::smart_ptr.13") align 8 %9, ptr noundef nonnull %10)
          to label %158 unwind label %198

158:                                              ; preds = %157
  br i1 %153, label %166, label %159

159:                                              ; preds = %158
  %160 = load i32, ptr %152, align 8, !tbaa !58
  %161 = icmp sgt i32 %160, 0
  br i1 %161, label %162, label %166

162:                                              ; preds = %159
  %163 = add nsw i32 %160, -1
  store i32 %163, ptr %152, align 8, !tbaa !58
  %164 = icmp eq i32 %160, 1
  br i1 %164, label %165, label %166

165:                                              ; preds = %162
  call void @_ZN12cctki_piraha14smart_ptr_gutsINS_5GroupEED2Ev(ptr noundef nonnull align 8 dereferenceable(17) %152) #27
  call void @_ZdlPv(ptr noundef nonnull %152) #26
  store ptr null, ptr %10, align 8, !tbaa !55
  br label %166

166:                                              ; preds = %158, %159, %162, %165
  call void @llvm.lifetime.start.p0(i64 32, ptr nonnull %11) #27
  %167 = load ptr, ptr %9, align 8, !tbaa !45, !nonnull !31, !noundef !31
  %168 = getelementptr inbounds %"class.cctki_piraha::smart_ptr_guts.18", ptr %167, i64 0, i32 2
  %169 = load ptr, ptr %168, align 8, !tbaa !47
  invoke void @_ZN12cctki_piraha5Value4copyB5cxx11Ev(ptr nonnull sret(%"class.std::__cxx11::basic_string") align 8 %11, ptr noundef nonnull align 8 dereferenceable(60) %169)
          to label %170 unwind label %200

170:                                              ; preds = %166
  %171 = load i64, ptr %41, align 8, !tbaa !15
  %172 = load i64, ptr %37, align 8, !tbaa !15
  %173 = sub i64 4611686018427387903, %172
  %174 = icmp ult i64 %173, %171
  br i1 %174, label %175, label %177

175:                                              ; preds = %170
  invoke void @_ZSt20__throw_length_errorPKc(ptr noundef nonnull @.str.20) #30
          to label %176 unwind label %204

176:                                              ; preds = %175
  unreachable

177:                                              ; preds = %170
  %178 = load ptr, ptr %11, align 8, !tbaa !9
  %179 = invoke noundef nonnull align 8 dereferenceable(32) ptr @_ZNSt7__cxx1112basic_stringIcSt11char_traitsIcESaIcEE9_M_appendEPKcm(ptr noundef nonnull align 8 dereferenceable(32) %0, ptr noundef %178, i64 noundef %171)
          to label %180 unwind label %202

180:                                              ; preds = %177
  %181 = load ptr, ptr %11, align 8, !tbaa !9
  %182 = icmp eq ptr %181, %42
  br i1 %182, label %183, label %186

183:                                              ; preds = %180
  %184 = load i64, ptr %41, align 8, !tbaa !15
  %185 = icmp ult i64 %184, 16
  call void @llvm.assume(i1 %185)
  br label %187

186:                                              ; preds = %180
  call void @_ZdlPv(ptr noundef %181) #26
  br label %187

187:                                              ; preds = %183, %186
  call void @llvm.lifetime.end.p0(i64 32, ptr nonnull %11) #27
  %188 = load ptr, ptr %9, align 8, !tbaa !45
  %189 = icmp eq ptr %188, null
  br i1 %189, label %197, label %190

190:                                              ; preds = %187
  %191 = load i32, ptr %188, align 8, !tbaa !59
  %192 = icmp sgt i32 %191, 0
  br i1 %192, label %193, label %197

193:                                              ; preds = %190
  %194 = add nsw i32 %191, -1
  store i32 %194, ptr %188, align 8, !tbaa !59
  %195 = icmp eq i32 %191, 1
  br i1 %195, label %196, label %197

196:                                              ; preds = %193
  call void @_ZN12cctki_piraha14smart_ptr_gutsINS_5ValueEED2Ev(ptr noundef nonnull align 8 dereferenceable(17) %188) #27
  call void @_ZdlPv(ptr noundef nonnull %188) #26
  br label %197

197:                                              ; preds = %187, %190, %193, %196
  call void @llvm.lifetime.end.p0(i64 8, ptr nonnull %9) #27
  br label %218

198:                                              ; preds = %157
  %199 = landingpad { ptr, i32 }
          cleanup
  call void @_ZN12cctki_piraha9smart_ptrINS_5GroupEED2Ev(ptr noundef nonnull align 8 dereferenceable(8) %10) #27
  br label %216

200:                                              ; preds = %166
  %201 = landingpad { ptr, i32 }
          cleanup
  br label %214

202:                                              ; preds = %177
  %203 = landingpad { ptr, i32 }
          cleanup
  br label %206

204:                                              ; preds = %175
  %205 = landingpad { ptr, i32 }
          cleanup
  br label %206

206:                                              ; preds = %204, %202
  %207 = phi { ptr, i32 } [ %203, %202 ], [ %205, %204 ]
  %208 = load ptr, ptr %11, align 8, !tbaa !9
  %209 = icmp eq ptr %208, %42
  br i1 %209, label %210, label %213

210:                                              ; preds = %206
  %211 = load i64, ptr %41, align 8, !tbaa !15
  %212 = icmp ult i64 %211, 16
  call void @llvm.assume(i1 %212)
  br label %214

213:                                              ; preds = %206
  call void @_ZdlPv(ptr noundef %208) #26
  br label %214

214:                                              ; preds = %213, %210, %200
  %215 = phi { ptr, i32 } [ %201, %200 ], [ %207, %210 ], [ %207, %213 ]
  call void @llvm.lifetime.end.p0(i64 32, ptr nonnull %11) #27
  call void @_ZN12cctki_piraha9smart_ptrINS_5ValueEED2Ev(ptr noundef nonnull align 8 dereferenceable(8) %9) #27
  br label %216

216:                                              ; preds = %214, %198
  %217 = phi { ptr, i32 } [ %215, %214 ], [ %199, %198 ]
  call void @llvm.lifetime.end.p0(i64 8, ptr nonnull %9) #27
  br label %238

218:                                              ; preds = %197, %143, %124
  %219 = load ptr, ptr %5, align 8, !tbaa !9
  %220 = icmp eq ptr %219, %43
  br i1 %220, label %221, label %224

221:                                              ; preds = %218
  %222 = load i64, ptr %38, align 8, !tbaa !15
  %223 = icmp ult i64 %222, 16
  call void @llvm.assume(i1 %223)
  br label %225

224:                                              ; preds = %218
  call void @_ZdlPv(ptr noundef %219) #26
  br label %225

225:                                              ; preds = %221, %224
  call void @llvm.lifetime.end.p0(i64 32, ptr nonnull %5) #27
  %226 = add nuw nsw i64 %66, 1
  %227 = load ptr, ptr %26, align 8, !tbaa !121
  %228 = getelementptr inbounds %"class.cctki_piraha::Group", ptr %227, i64 0, i32 5
  %229 = getelementptr inbounds %"class.cctki_piraha::Group", ptr %227, i64 0, i32 5, i32 0, i32 0, i32 0, i32 1
  %230 = load ptr, ptr %229, align 8, !tbaa !94
  %231 = load ptr, ptr %228, align 8, !tbaa !92
  %232 = ptrtoint ptr %230 to i64
  %233 = ptrtoint ptr %231 to i64
  %234 = sub i64 %232, %233
  %235 = shl i64 %234, 29
  %236 = ashr i64 %235, 32
  %237 = icmp slt i64 %226, %236
  br i1 %237, label %64, label %268

238:                                              ; preds = %216, %141
  %239 = phi { ptr, i32 } [ %142, %141 ], [ %217, %216 ]
  %240 = load ptr, ptr %5, align 8, !tbaa !9
  %241 = icmp eq ptr %240, %43
  br i1 %241, label %242, label %245

242:                                              ; preds = %238
  %243 = load i64, ptr %38, align 8, !tbaa !15
  %244 = icmp ult i64 %243, 16
  call void @llvm.assume(i1 %244)
  br label %246

245:                                              ; preds = %238
  call void @_ZdlPv(ptr noundef %240) #26
  br label %246

246:                                              ; preds = %245, %242, %125
  %247 = phi { ptr, i32 } [ %126, %125 ], [ %239, %242 ], [ %239, %245 ]
  call void @llvm.lifetime.end.p0(i64 32, ptr nonnull %5) #27
  %248 = load ptr, ptr %0, align 8, !tbaa !9
  %249 = icmp eq ptr %248, %35
  br i1 %249, label %250, label %253

250:                                              ; preds = %246
  %251 = load i64, ptr %37, align 8, !tbaa !15
  %252 = icmp ult i64 %251, 16
  call void @llvm.assume(i1 %252)
  br label %297

253:                                              ; preds = %246
  call void @_ZdlPv(ptr noundef %248) #26
  br label %297

254:                                              ; preds = %34
  %255 = load ptr, ptr %1, align 8, !tbaa !9
  %256 = getelementptr inbounds %"class.std::__cxx11::basic_string", ptr %1, i64 0, i32 2
  %257 = icmp eq ptr %255, %256
  br i1 %257, label %258, label %262

258:                                              ; preds = %254
  %259 = load i64, ptr %20, align 8, !tbaa !15
  %260 = icmp ult i64 %259, 16
  call void @llvm.assume(i1 %260)
  %261 = add nuw nsw i64 %259, 1
  call void @llvm.memcpy.p0.p0.i64(ptr noundef nonnull align 8 dereferenceable(1) %35, ptr noundef nonnull align 8 dereferenceable(1) %255, i64 %261, i1 false)
  br label %265

262:                                              ; preds = %254
  store ptr %255, ptr %0, align 8, !tbaa !9
  %263 = load i64, ptr %256, align 8, !tbaa !40
  store i64 %263, ptr %35, align 8, !tbaa !40
  %264 = load i64, ptr %20, align 8, !tbaa !15
  br label %265

265:                                              ; preds = %258, %262
  %266 = phi i64 [ %259, %258 ], [ %264, %262 ]
  %267 = getelementptr inbounds %"class.std::__cxx11::basic_string", ptr %0, i64 0, i32 1
  store i64 %266, ptr %267, align 8, !tbaa !15
  store ptr %256, ptr %1, align 8, !tbaa !9
  store i64 0, ptr %20, align 8, !tbaa !15
  store i8 0, ptr %256, align 8, !tbaa !40
  br label %268

268:                                              ; preds = %225, %36, %265
  %269 = load i32, ptr %24, align 8, !tbaa !119
  %270 = icmp sgt i32 %269, 0
  br i1 %270, label %271, label %296

271:                                              ; preds = %268
  %272 = add nsw i32 %269, -1
  store i32 %272, ptr %24, align 8, !tbaa !119
  %273 = icmp eq i32 %269, 1
  br i1 %273, label %274, label %296

274:                                              ; preds = %271
  %275 = load ptr, ptr %26, align 8, !tbaa !121
  %276 = icmp eq ptr %275, null
  br i1 %276, label %295, label %277

277:                                              ; preds = %274
  %278 = load i8, ptr %27, align 8, !tbaa !122, !range !30, !noundef !31
  %279 = icmp eq i8 %278, 0
  br i1 %279, label %291, label %280

280:                                              ; preds = %277
  %281 = getelementptr inbounds i8, ptr %275, i64 -8
  %282 = load i64, ptr %281, align 8
  %283 = icmp eq i64 %282, 0
  br i1 %283, label %290, label %284

284:                                              ; preds = %280
  %285 = getelementptr inbounds %"class.cctki_piraha::Matcher", ptr %275, i64 %282
  br label %286

286:                                              ; preds = %286, %284
  %287 = phi ptr [ %288, %286 ], [ %285, %284 ]
  %288 = getelementptr inbounds %"class.cctki_piraha::Matcher", ptr %287, i64 -1
  call void @_ZN12cctki_piraha7MatcherD2Ev(ptr noundef nonnull align 8 dereferenceable(228) %288) #27
  %289 = icmp eq ptr %288, %275
  br i1 %289, label %290, label %286

290:                                              ; preds = %286, %280
  call void @_ZdaPv(ptr noundef nonnull %281) #26
  br label %295

291:                                              ; preds = %277
  %292 = load ptr, ptr %275, align 8, !tbaa !6
  %293 = getelementptr inbounds ptr, ptr %292, i64 1
  %294 = load ptr, ptr %293, align 8
  call void %294(ptr noundef nonnull align 8 dereferenceable(228) %275) #27
  br label %295

295:                                              ; preds = %291, %290, %274
  call void @_ZdlPv(ptr noundef nonnull %24) #26
  br label %296

296:                                              ; preds = %268, %271, %295
  call void @llvm.lifetime.end.p0(i64 8, ptr nonnull %3) #27
  ret void

297:                                              ; preds = %253, %250, %62
  %298 = phi { ptr, i32 } [ %63, %62 ], [ %247, %250 ], [ %247, %253 ]
  call void @_ZN12cctki_piraha9smart_ptrINS_7MatcherEED2Ev(ptr noundef nonnull align 8 dereferenceable(8) %3) #27
  br label %299

299:                                              ; preds = %60, %61, %297
  %300 = phi { ptr, i32 } [ %298, %297 ], [ %56, %61 ], [ %56, %60 ]
  call void @llvm.lifetime.end.p0(i64 8, ptr nonnull %3) #27
  resume { ptr, i32 } %300
}

declare void @_ZN12cctki_piraha7MatcherC1ENS_9smart_ptrINS_7GrammarEEEPKcS5_i(ptr noundef nonnull align 8 dereferenceable(228), ptr noundef, ptr noundef, ptr noundef, i32 noundef) unnamed_addr #8

declare noundef zeroext i1 @_ZN12cctki_piraha7Matcher7matchesEv(ptr noundef nonnull align 8 dereferenceable(228)) local_unnamed_addr #8

; Function Attrs: mustprogress sspstrong uwtable
declare noundef nonnull align 8 dereferenceable(32) ptr @_ZNSt7__cxx1112basic_stringIcSt11char_traitsIcESaIcEEpLERKS4_(ptr noundef nonnull align 8 dereferenceable(32), ptr noundef nonnull align 8 dereferenceable(32)) local_unnamed_addr #11 align 2

; Function Attrs: sspstrong uwtable
define linkonce_odr dso_local void @_ZN12cctki_piraha5Value4copyB5cxx11Ev(ptr noalias sret(%"class.std::__cxx11::basic_string") align 8 %0, ptr noundef nonnull align 8 dereferenceable(60) %1) local_unnamed_addr #7 comdat align 2 personality ptr @__gxx_personality_v0 {
  %3 = alloca i64, align 8
  %4 = alloca %"class.std::__cxx11::basic_ostringstream", align 8
  %5 = getelementptr inbounds %"struct.cctki_piraha::Value", ptr %1, i64 0, i32 5
  %6 = load i32, ptr %5, align 8, !tbaa !49
  switch i32 %6, label %36 [
    i32 0, label %7
    i32 3, label %27
  ]

7:                                                ; preds = %2
  %8 = getelementptr inbounds %"struct.cctki_piraha::Value", ptr %1, i64 0, i32 4
  %9 = getelementptr inbounds %"class.std::__cxx11::basic_string", ptr %0, i64 0, i32 2
  store ptr %9, ptr %0, align 8, !tbaa !41
  %10 = load ptr, ptr %8, align 8, !tbaa !9
  %11 = getelementptr inbounds %"struct.cctki_piraha::Value", ptr %1, i64 0, i32 4, i32 1
  %12 = load i64, ptr %11, align 8, !tbaa !15
  call void @llvm.lifetime.start.p0(i64 8, ptr nonnull %3) #27
  store i64 %12, ptr %3, align 8, !tbaa !42
  %13 = icmp ugt i64 %12, 15
  br i1 %13, label %14, label %17

14:                                               ; preds = %7
  %15 = call noundef ptr @_ZNSt7__cxx1112basic_stringIcSt11char_traitsIcESaIcEE9_M_createERmm(ptr noundef nonnull align 8 dereferenceable(32) %0, ptr noundef nonnull align 8 dereferenceable(8) %3, i64 noundef 0)
  store ptr %15, ptr %0, align 8, !tbaa !9
  %16 = load i64, ptr %3, align 8, !tbaa !42
  store i64 %16, ptr %9, align 8, !tbaa !40
  br label %17

17:                                               ; preds = %14, %7
  %18 = phi ptr [ %15, %14 ], [ %9, %7 ]
  switch i64 %12, label %21 [
    i64 1, label %19
    i64 0, label %22
  ]

19:                                               ; preds = %17
  %20 = load i8, ptr %10, align 1, !tbaa !40
  store i8 %20, ptr %18, align 1, !tbaa !40
  br label %22

21:                                               ; preds = %17
  call void @llvm.memcpy.p0.p0.i64(ptr align 1 %18, ptr align 1 %10, i64 %12, i1 false)
  br label %22

22:                                               ; preds = %17, %19, %21
  %23 = load i64, ptr %3, align 8, !tbaa !42
  %24 = getelementptr inbounds %"class.std::__cxx11::basic_string", ptr %0, i64 0, i32 1
  store i64 %23, ptr %24, align 8, !tbaa !15
  %25 = load ptr, ptr %0, align 8, !tbaa !9
  %26 = getelementptr inbounds i8, ptr %25, i64 %23
  store i8 0, ptr %26, align 1, !tbaa !40
  call void @llvm.lifetime.end.p0(i64 8, ptr nonnull %3) #27
  br label %104

27:                                               ; preds = %2
  %28 = getelementptr inbounds %"struct.cctki_piraha::Value", ptr %1, i64 0, i32 2
  %29 = load i32, ptr %28, align 8, !tbaa !54
  %30 = icmp eq i32 %29, 0
  %31 = select i1 %30, ptr @.str.31, ptr @.str.30
  %32 = getelementptr inbounds %"class.std::__cxx11::basic_string", ptr %0, i64 0, i32 2
  store ptr %32, ptr %0, align 8, !tbaa !41
  %33 = select i1 %30, i64 2, i64 3
  tail call void @llvm.memcpy.p0.p0.i64(ptr noundef nonnull align 8 dereferenceable(2) %32, ptr noundef nonnull align 1 dereferenceable(2) %31, i64 %33, i1 false)
  %34 = getelementptr inbounds %"class.std::__cxx11::basic_string", ptr %0, i64 0, i32 1
  store i64 %33, ptr %34, align 8, !tbaa !15
  %35 = getelementptr inbounds i8, ptr %32, i64 %33
  store i8 0, ptr %35, align 1, !tbaa !40
  br label %104

36:                                               ; preds = %2
  call void @llvm.lifetime.start.p0(i64 376, ptr nonnull %4) #27
  call void @_ZNSt7__cxx1119basic_ostringstreamIcSt11char_traitsIcESaIcEEC1Ev(ptr noundef nonnull align 8 dereferenceable(112) %4)
  %37 = load i32, ptr %5, align 8, !tbaa !49
  %38 = icmp eq i32 %37, 2
  br i1 %38, label %39, label %52

39:                                               ; preds = %36
  %40 = load ptr, ptr %4, align 8, !tbaa !6
  %41 = getelementptr i8, ptr %40, i64 -24
  %42 = load i64, ptr %41, align 8
  %43 = getelementptr inbounds i8, ptr %4, i64 %42
  %44 = getelementptr inbounds %"class.std::ios_base", ptr %43, i64 0, i32 1
  store i64 15, ptr %44, align 8, !tbaa !134
  %45 = getelementptr inbounds %"struct.cctki_piraha::Value", ptr %1, i64 0, i32 1
  %46 = load double, ptr %45, align 8, !tbaa !53
  %47 = invoke noundef nonnull align 8 dereferenceable(8) ptr @_ZNSo9_M_insertIdEERSoT_(ptr noundef nonnull align 8 dereferenceable(8) %4, double noundef %46)
          to label %56 unwind label %48

48:                                               ; preds = %39, %52
  %49 = landingpad { ptr, i32 }
          cleanup
  br label %50

50:                                               ; preds = %79, %82, %48
  %51 = phi { ptr, i32 } [ %49, %48 ], [ %76, %82 ], [ %76, %79 ]
  call void @_ZNSt7__cxx1119basic_ostringstreamIcSt11char_traitsIcESaIcEED1Ev(ptr noundef nonnull align 8 dereferenceable(112) %4) #27
  call void @llvm.lifetime.end.p0(i64 376, ptr nonnull %4) #27
  resume { ptr, i32 } %51

52:                                               ; preds = %36
  %53 = getelementptr inbounds %"struct.cctki_piraha::Value", ptr %1, i64 0, i32 2
  %54 = load i32, ptr %53, align 8, !tbaa !54
  %55 = invoke noundef nonnull align 8 dereferenceable(8) ptr @_ZNSolsEi(ptr noundef nonnull align 8 dereferenceable(8) %4, i32 noundef %54)
          to label %56 unwind label %48

56:                                               ; preds = %39, %52
  call void @llvm.experimental.noalias.scope.decl(metadata !135)
  call void @llvm.experimental.noalias.scope.decl(metadata !138)
  %57 = getelementptr inbounds %"class.std::__cxx11::basic_string", ptr %0, i64 0, i32 2
  store ptr %57, ptr %0, align 8, !tbaa !41, !alias.scope !141
  %58 = getelementptr inbounds %"class.std::__cxx11::basic_string", ptr %0, i64 0, i32 1
  store i64 0, ptr %58, align 8, !tbaa !15, !alias.scope !141
  store i8 0, ptr %57, align 8, !tbaa !40, !alias.scope !141
  %59 = getelementptr inbounds %"class.std::__cxx11::basic_ostringstream", ptr %4, i64 0, i32 1, i32 0, i32 5
  %60 = load ptr, ptr %59, align 8, !tbaa !78, !noalias !141
  %61 = icmp eq ptr %60, null
  %62 = getelementptr inbounds %"class.std::__cxx11::basic_ostringstream", ptr %4, i64 0, i32 1, i32 0, i32 3
  %63 = load ptr, ptr %62, align 8, !noalias !141
  %64 = icmp ugt ptr %60, %63
  %65 = select i1 %64, ptr %60, ptr %63
  %66 = icmp eq ptr %65, null
  %67 = select i1 %61, i1 true, i1 %66
  br i1 %67, label %83, label %68

68:                                               ; preds = %56
  %69 = getelementptr inbounds %"class.std::__cxx11::basic_ostringstream", ptr %4, i64 0, i32 1, i32 0, i32 4
  %70 = load ptr, ptr %69, align 8, !tbaa !80, !noalias !141
  %71 = ptrtoint ptr %65 to i64
  %72 = ptrtoint ptr %70 to i64
  %73 = sub i64 %71, %72
  %74 = invoke noundef nonnull align 8 dereferenceable(32) ptr @_ZNSt7__cxx1112basic_stringIcSt11char_traitsIcESaIcEE10_M_replaceEmmPKcm(ptr noundef nonnull align 8 dereferenceable(32) %0, i64 noundef 0, i64 noundef 0, ptr noundef %70, i64 noundef %73)
          to label %85 unwind label %75

75:                                               ; preds = %83, %68
  %76 = landingpad { ptr, i32 }
          cleanup
  %77 = load ptr, ptr %0, align 8, !tbaa !9, !alias.scope !141
  %78 = icmp eq ptr %77, %57
  br i1 %78, label %79, label %82

79:                                               ; preds = %75
  %80 = load i64, ptr %58, align 8, !tbaa !15, !alias.scope !141
  %81 = icmp ult i64 %80, 16
  call void @llvm.assume(i1 %81)
  br label %50

82:                                               ; preds = %75
  call void @_ZdlPv(ptr noundef %77) #26
  br label %50

83:                                               ; preds = %56
  %84 = getelementptr inbounds %"class.std::__cxx11::basic_ostringstream", ptr %4, i64 0, i32 1, i32 2
  invoke void @_ZNSt7__cxx1112basic_stringIcSt11char_traitsIcESaIcEE9_M_assignERKS4_(ptr noundef nonnull align 8 dereferenceable(32) %0, ptr noundef nonnull align 8 dereferenceable(32) %84)
          to label %85 unwind label %75

85:                                               ; preds = %83, %68
  %86 = load ptr, ptr @_ZTTNSt7__cxx1119basic_ostringstreamIcSt11char_traitsIcESaIcEEE, align 8
  store ptr %86, ptr %4, align 8, !tbaa !6
  %87 = load ptr, ptr getelementptr inbounds ([4 x ptr], ptr @_ZTTNSt7__cxx1119basic_ostringstreamIcSt11char_traitsIcESaIcEEE, i64 0, i64 3), align 8
  %88 = getelementptr i8, ptr %86, i64 -24
  %89 = load i64, ptr %88, align 8
  %90 = getelementptr inbounds i8, ptr %4, i64 %89
  store ptr %87, ptr %90, align 8, !tbaa !6
  %91 = getelementptr inbounds %"class.std::__cxx11::basic_ostringstream", ptr %4, i64 0, i32 1
  store ptr getelementptr inbounds ({ [16 x ptr] }, ptr @_ZTVNSt7__cxx1115basic_stringbufIcSt11char_traitsIcESaIcEEE, i64 0, inrange i32 0, i64 2), ptr %91, align 8, !tbaa !6
  %92 = getelementptr inbounds %"class.std::__cxx11::basic_ostringstream", ptr %4, i64 0, i32 1, i32 2
  %93 = load ptr, ptr %92, align 8, !tbaa !9
  %94 = getelementptr inbounds %"class.std::__cxx11::basic_ostringstream", ptr %4, i64 0, i32 1, i32 2, i32 2
  %95 = icmp eq ptr %93, %94
  br i1 %95, label %96, label %100

96:                                               ; preds = %85
  %97 = getelementptr inbounds %"class.std::__cxx11::basic_ostringstream", ptr %4, i64 0, i32 1, i32 2, i32 1
  %98 = load i64, ptr %97, align 8, !tbaa !15
  %99 = icmp ult i64 %98, 16
  call void @llvm.assume(i1 %99)
  br label %101

100:                                              ; preds = %85
  call void @_ZdlPv(ptr noundef %93) #26
  br label %101

101:                                              ; preds = %96, %100
  store ptr getelementptr inbounds ({ [16 x ptr] }, ptr @_ZTVSt15basic_streambufIcSt11char_traitsIcEE, i64 0, inrange i32 0, i64 2), ptr %91, align 8, !tbaa !6
  %102 = getelementptr inbounds %"class.std::__cxx11::basic_ostringstream", ptr %4, i64 0, i32 1, i32 0, i32 7
  call void @_ZNSt6localeD1Ev(ptr noundef nonnull align 8 dereferenceable(8) %102) #27
  %103 = getelementptr inbounds i8, ptr %4, i64 112
  call void @_ZNSt8ios_baseD2Ev(ptr noundef nonnull align 8 dereferenceable(264) %103) #27
  call void @llvm.lifetime.end.p0(i64 376, ptr nonnull %4) #27
  br label %104

104:                                              ; preds = %27, %101, %22
  ret void
}

; Function Attrs: nounwind sspstrong uwtable
define linkonce_odr dso_local void @_ZN12cctki_piraha9smart_ptrINS_7MatcherEED2Ev(ptr noundef nonnull align 8 dereferenceable(8) %0) unnamed_addr #2 comdat align 2 personality ptr @__gxx_personality_v0 {
  %2 = load ptr, ptr %0, align 8, !tbaa !123
  %3 = icmp eq ptr %2, null
  br i1 %3, label %34, label %4

4:                                                ; preds = %1
  %5 = load i32, ptr %2, align 8, !tbaa !119
  %6 = icmp sgt i32 %5, 0
  br i1 %6, label %7, label %34

7:                                                ; preds = %4
  %8 = add nsw i32 %5, -1
  store i32 %8, ptr %2, align 8, !tbaa !119
  %9 = icmp eq i32 %5, 1
  br i1 %9, label %10, label %34

10:                                               ; preds = %7
  %11 = getelementptr inbounds %"class.cctki_piraha::smart_ptr_guts.29", ptr %2, i64 0, i32 2
  %12 = load ptr, ptr %11, align 8, !tbaa !121
  %13 = icmp eq ptr %12, null
  br i1 %13, label %33, label %14

14:                                               ; preds = %10
  %15 = getelementptr inbounds %"class.cctki_piraha::smart_ptr_guts.29", ptr %2, i64 0, i32 3
  %16 = load i8, ptr %15, align 8, !tbaa !122, !range !30, !noundef !31
  %17 = icmp eq i8 %16, 0
  br i1 %17, label %29, label %18

18:                                               ; preds = %14
  %19 = getelementptr inbounds i8, ptr %12, i64 -8
  %20 = load i64, ptr %19, align 8
  %21 = icmp eq i64 %20, 0
  br i1 %21, label %28, label %22

22:                                               ; preds = %18
  %23 = getelementptr inbounds %"class.cctki_piraha::Matcher", ptr %12, i64 %20
  br label %24

24:                                               ; preds = %24, %22
  %25 = phi ptr [ %26, %24 ], [ %23, %22 ]
  %26 = getelementptr inbounds %"class.cctki_piraha::Matcher", ptr %25, i64 -1
  tail call void @_ZN12cctki_piraha7MatcherD2Ev(ptr noundef nonnull align 8 dereferenceable(228) %26) #27
  %27 = icmp eq ptr %26, %12
  br i1 %27, label %28, label %24

28:                                               ; preds = %24, %18
  tail call void @_ZdaPv(ptr noundef nonnull %19) #26
  br label %33

29:                                               ; preds = %14
  %30 = load ptr, ptr %12, align 8, !tbaa !6
  %31 = getelementptr inbounds ptr, ptr %30, i64 1
  %32 = load ptr, ptr %31, align 8
  tail call void %32(ptr noundef nonnull align 8 dereferenceable(228) %12) #27
  br label %33

33:                                               ; preds = %29, %28, %10
  tail call void @_ZdlPv(ptr noundef %2) #26
  store ptr null, ptr %0, align 8, !tbaa !123
  br label %34

34:                                               ; preds = %33, %7, %4, %1
  ret void
}

; Function Attrs: sspstrong uwtable
declare void @_ZNSt7__cxx1112basic_stringIcSt11char_traitsIcESaIcEEC2ERKS4_(ptr noundef nonnull align 8 dereferenceable(32), ptr noundef nonnull align 8 dereferenceable(32)) unnamed_addr #7 align 2

; Function Attrs: nounwind sspstrong uwtable
define linkonce_odr dso_local void @_ZN12cctki_piraha7MatcherD2Ev(ptr noundef nonnull align 8 dereferenceable(228) %0) unnamed_addr #2 comdat align 2 personality ptr @__gxx_personality_v0 {
  store ptr getelementptr inbounds ({ [4 x ptr] }, ptr @_ZTVN12cctki_piraha7MatcherE, i64 0, inrange i32 0, i64 2), ptr %0, align 8, !tbaa !6
  %2 = getelementptr inbounds %"class.cctki_piraha::Matcher", ptr %0, i64 0, i32 10
  %3 = load ptr, ptr %2, align 8, !tbaa !9
  %4 = getelementptr inbounds %"class.cctki_piraha::Matcher", ptr %0, i64 0, i32 10, i32 2
  %5 = icmp eq ptr %3, %4
  br i1 %5, label %6, label %10

6:                                                ; preds = %1
  %7 = getelementptr inbounds %"class.cctki_piraha::Matcher", ptr %0, i64 0, i32 10, i32 1
  %8 = load i64, ptr %7, align 8, !tbaa !15
  %9 = icmp ult i64 %8, 16
  tail call void @llvm.assume(i1 %9)
  br label %11

10:                                               ; preds = %1
  tail call void @_ZdlPv(ptr noundef %3) #26
  br label %11

11:                                               ; preds = %6, %10
  %12 = getelementptr inbounds %"class.cctki_piraha::Matcher", ptr %0, i64 0, i32 9
  %13 = load ptr, ptr %12, align 8, !tbaa !9
  %14 = getelementptr inbounds %"class.cctki_piraha::Matcher", ptr %0, i64 0, i32 9, i32 2
  %15 = icmp eq ptr %13, %14
  br i1 %15, label %16, label %20

16:                                               ; preds = %11
  %17 = getelementptr inbounds %"class.cctki_piraha::Matcher", ptr %0, i64 0, i32 9, i32 1
  %18 = load i64, ptr %17, align 8, !tbaa !15
  %19 = icmp ult i64 %18, 16
  tail call void @llvm.assume(i1 %19)
  br label %21

20:                                               ; preds = %11
  tail call void @_ZdlPv(ptr noundef %13) #26
  br label %21

21:                                               ; preds = %16, %20
  %22 = getelementptr inbounds %"class.cctki_piraha::Matcher", ptr %0, i64 0, i32 8
  store ptr getelementptr inbounds ({ [7 x ptr] }, ptr @_ZTVN12cctki_piraha7BracketE, i64 0, inrange i32 0, i64 2), ptr %22, align 8, !tbaa !6
  %23 = getelementptr inbounds %"class.cctki_piraha::Matcher", ptr %0, i64 0, i32 8, i32 2
  %24 = load ptr, ptr %23, align 8, !tbaa !142
  %25 = getelementptr inbounds %"class.cctki_piraha::Matcher", ptr %0, i64 0, i32 8, i32 2, i32 0, i32 0, i32 0, i32 1
  %26 = load ptr, ptr %25, align 8, !tbaa !144
  %27 = icmp eq ptr %24, %26
  br i1 %27, label %58, label %28

28:                                               ; preds = %21, %53
  %29 = phi ptr [ %54, %53 ], [ %24, %21 ]
  %30 = load ptr, ptr %29, align 8, !tbaa !145
  %31 = icmp eq ptr %30, null
  br i1 %31, label %53, label %32

32:                                               ; preds = %28
  %33 = load i32, ptr %30, align 8, !tbaa !147
  %34 = icmp sgt i32 %33, 0
  br i1 %34, label %35, label %53

35:                                               ; preds = %32
  %36 = add nsw i32 %33, -1
  store i32 %36, ptr %30, align 8, !tbaa !147
  %37 = icmp eq i32 %33, 1
  br i1 %37, label %38, label %53

38:                                               ; preds = %35
  %39 = getelementptr inbounds %"class.cctki_piraha::smart_ptr_guts.33", ptr %30, i64 0, i32 2
  %40 = load ptr, ptr %39, align 8, !tbaa !149
  %41 = icmp eq ptr %40, null
  br i1 %41, label %52, label %42

42:                                               ; preds = %38
  %43 = getelementptr inbounds %"class.cctki_piraha::smart_ptr_guts.33", ptr %30, i64 0, i32 3
  %44 = load i8, ptr %43, align 8, !tbaa !150, !range !30, !noundef !31
  %45 = icmp eq i8 %44, 0
  br i1 %45, label %48, label %46

46:                                               ; preds = %42
  %47 = getelementptr inbounds i8, ptr %40, i64 -8
  tail call void @_ZdaPv(ptr noundef nonnull %47) #26
  br label %52

48:                                               ; preds = %42
  %49 = load ptr, ptr %40, align 8, !tbaa !6
  %50 = getelementptr inbounds ptr, ptr %49, i64 2
  %51 = load ptr, ptr %50, align 8
  tail call void %51(ptr noundef nonnull align 8 dereferenceable(10) %40) #27
  br label %52

52:                                               ; preds = %48, %46, %38
  tail call void @_ZdlPv(ptr noundef nonnull %30) #26
  store ptr null, ptr %29, align 8, !tbaa !145
  br label %53

53:                                               ; preds = %52, %35, %32, %28
  %54 = getelementptr inbounds %"class.cctki_piraha::smart_ptr.32", ptr %29, i64 1
  %55 = icmp eq ptr %54, %26
  br i1 %55, label %56, label %28, !llvm.loop !151

56:                                               ; preds = %53
  %57 = load ptr, ptr %23, align 8, !tbaa !142
  br label %58

58:                                               ; preds = %56, %21
  %59 = phi ptr [ %57, %56 ], [ %24, %21 ]
  %60 = icmp eq ptr %59, null
  br i1 %60, label %62, label %61

61:                                               ; preds = %58
  tail call void @_ZdlPv(ptr noundef nonnull %59) #26
  br label %62

62:                                               ; preds = %58, %61
  %63 = getelementptr inbounds %"class.cctki_piraha::Matcher", ptr %0, i64 0, i32 2
  invoke void @_ZN12cctki_piraha9smart_ptrINS_7GrammarEE5cleanEv(ptr noundef nonnull align 8 dereferenceable(8) %63)
          to label %67 unwind label %64

64:                                               ; preds = %62
  %65 = landingpad { ptr, i32 }
          catch ptr null
  %66 = extractvalue { ptr, i32 } %65, 0
  tail call void @__clang_call_terminate(ptr %66) #25
  unreachable

67:                                               ; preds = %62
  store ptr getelementptr inbounds ({ [4 x ptr] }, ptr @_ZTVN12cctki_piraha5GroupE, i64 0, inrange i32 0, i64 2), ptr %0, align 8, !tbaa !6
  %68 = getelementptr inbounds %"class.cctki_piraha::Group", ptr %0, i64 0, i32 5
  %69 = load ptr, ptr %68, align 8, !tbaa !92
  %70 = getelementptr inbounds %"class.cctki_piraha::Group", ptr %0, i64 0, i32 5, i32 0, i32 0, i32 0, i32 1
  %71 = load ptr, ptr %70, align 8, !tbaa !94
  %72 = icmp eq ptr %69, %71
  br i1 %72, label %89, label %73

73:                                               ; preds = %67, %84
  %74 = phi ptr [ %85, %84 ], [ %69, %67 ]
  %75 = load ptr, ptr %74, align 8, !tbaa !55
  %76 = icmp eq ptr %75, null
  br i1 %76, label %84, label %77

77:                                               ; preds = %73
  %78 = load i32, ptr %75, align 8, !tbaa !58
  %79 = icmp sgt i32 %78, 0
  br i1 %79, label %80, label %84

80:                                               ; preds = %77
  %81 = add nsw i32 %78, -1
  store i32 %81, ptr %75, align 8, !tbaa !58
  %82 = icmp eq i32 %78, 1
  br i1 %82, label %83, label %84

83:                                               ; preds = %80
  tail call void @_ZN12cctki_piraha14smart_ptr_gutsINS_5GroupEED2Ev(ptr noundef nonnull align 8 dereferenceable(17) %75) #27
  tail call void @_ZdlPv(ptr noundef nonnull %75) #26
  store ptr null, ptr %74, align 8, !tbaa !55
  br label %84

84:                                               ; preds = %83, %80, %77, %73
  %85 = getelementptr inbounds %"class.cctki_piraha::smart_ptr.14", ptr %74, i64 1
  %86 = icmp eq ptr %85, %71
  br i1 %86, label %87, label %73, !llvm.loop !95

87:                                               ; preds = %84
  %88 = load ptr, ptr %68, align 8, !tbaa !92
  br label %89

89:                                               ; preds = %87, %67
  %90 = phi ptr [ %88, %87 ], [ %69, %67 ]
  %91 = icmp eq ptr %90, null
  br i1 %91, label %93, label %92

92:                                               ; preds = %89
  tail call void @_ZdlPv(ptr noundef nonnull %90) #26
  br label %93

93:                                               ; preds = %92, %89
  %94 = getelementptr inbounds %"class.cctki_piraha::Group", ptr %0, i64 0, i32 1
  %95 = load ptr, ptr %94, align 8, !tbaa !9
  %96 = getelementptr inbounds %"class.cctki_piraha::Group", ptr %0, i64 0, i32 1, i32 2
  %97 = icmp eq ptr %95, %96
  br i1 %97, label %98, label %102

98:                                               ; preds = %93
  %99 = getelementptr inbounds %"class.cctki_piraha::Group", ptr %0, i64 0, i32 1, i32 1
  %100 = load i64, ptr %99, align 8, !tbaa !15
  %101 = icmp ult i64 %100, 16
  tail call void @llvm.assume(i1 %101)
  br label %103

102:                                              ; preds = %93
  tail call void @_ZdlPv(ptr noundef %95) #26
  br label %103

103:                                              ; preds = %98, %102
  ret void
}

; Function Attrs: nounwind sspstrong uwtable
define linkonce_odr dso_local void @_ZN12cctki_piraha7MatcherD0Ev(ptr noundef nonnull align 8 dereferenceable(228) %0) unnamed_addr #2 comdat align 2 {
  tail call void @_ZN12cctki_piraha7MatcherD2Ev(ptr noundef nonnull align 8 dereferenceable(228) %0) #27
  tail call void @_ZdlPv(ptr noundef nonnull %0) #26
  ret void
}

; Function Attrs: sspstrong uwtable
define dso_local void @_ZN12cctki_piraha5mevalENS_9smart_ptrINS_5GroupEEE(ptr noalias sret(%"class.cctki_piraha::smart_ptr.13") align 8 %0, ptr nocapture noundef readonly %1) local_unnamed_addr #7 personality ptr @__gxx_personality_v0 {
  %3 = alloca i64, align 8
  %4 = alloca i64, align 8
  %5 = alloca i64, align 8
  %6 = alloca %"class.std::__cxx11::basic_string", align 8
  %7 = alloca %"class.cctki_piraha::smart_ptr.13", align 8
  %8 = alloca %"class.cctki_piraha::smart_ptr.14", align 8
  %9 = alloca %"class.std::__cxx11::basic_string", align 8
  %10 = alloca %"class.std::__cxx11::basic_string", align 8
  %11 = alloca %"class.cctki_piraha::smart_ptr.14", align 8
  %12 = alloca %"class.std::__cxx11::basic_string", align 8
  %13 = alloca %"class.cctki_piraha::smart_ptr.14", align 8
  %14 = alloca %"class.std::__cxx11::basic_string", align 8
  %15 = alloca %"class.cctki_piraha::smart_ptr.14", align 8
  %16 = alloca %"class.std::__cxx11::basic_ostringstream", align 8
  %17 = alloca %"class.std::__cxx11::basic_string", align 8
  %18 = alloca %"class.std::__cxx11::basic_string", align 8
  %19 = alloca %"class.std::__cxx11::basic_string", align 8
  %20 = alloca %"class.std::__cxx11::basic_string", align 8
  %21 = alloca %"class.std::__cxx11::basic_string", align 8
  %22 = alloca %"class.std::__cxx11::basic_string", align 8
  %23 = alloca %"class.cctki_piraha::smart_ptr.14", align 8
  %24 = alloca %"class.std::__cxx11::basic_string", align 8
  %25 = alloca %"class.cctki_piraha::smart_ptr.14", align 8
  %26 = alloca %"class.std::__cxx11::basic_ostringstream", align 8
  %27 = alloca %"class.cctki_piraha::smart_ptr.13", align 8
  %28 = alloca %"class.cctki_piraha::smart_ptr.14", align 8
  %29 = alloca %"class.std::__cxx11::basic_stringstream", align 8
  %30 = alloca %"class.std::__cxx11::basic_string", align 8
  %31 = alloca %"class.cctki_piraha::smart_ptr.13", align 8
  %32 = alloca %"class.cctki_piraha::smart_ptr.14", align 8
  %33 = alloca %"class.std::__cxx11::basic_string", align 8
  %34 = alloca %"class.std::__cxx11::basic_string", align 8
  %35 = alloca %"class.cctki_piraha::smart_ptr.13", align 8
  %36 = alloca %"class.cctki_piraha::smart_ptr.14", align 8
  %37 = alloca %"class.std::__cxx11::basic_string", align 8
  %38 = alloca %"class.std::__cxx11::basic_string", align 8
  %39 = alloca %"class.std::__cxx11::basic_ostringstream", align 8
  %40 = alloca %"class.std::__cxx11::basic_string", align 8
  %41 = alloca %"class.std::__cxx11::basic_string", align 8
  %42 = alloca %"class.cctki_piraha::smart_ptr.13", align 8
  %43 = alloca %"class.cctki_piraha::smart_ptr.14", align 8
  %44 = alloca %"class.std::__cxx11::basic_string", align 8
  %45 = alloca %"class.cctki_piraha::smart_ptr.14", align 8
  %46 = alloca %"class.cctki_piraha::smart_ptr.13", align 8
  %47 = alloca %"class.cctki_piraha::smart_ptr.14", align 8
  %48 = alloca %"class.std::__cxx11::basic_ostringstream", align 8
  %49 = alloca %"class.std::__cxx11::basic_string", align 8
  %50 = alloca %"class.std::__cxx11::basic_string", align 8
  %51 = alloca %"class.std::__cxx11::basic_ostringstream", align 8
  %52 = alloca %"class.std::__cxx11::basic_string", align 8
  %53 = alloca %"class.std::__cxx11::basic_string", align 8
  %54 = alloca %"class.std::__cxx11::basic_ostringstream", align 8
  %55 = alloca %"class.std::__cxx11::basic_string", align 8
  %56 = alloca %"class.std::__cxx11::basic_string", align 8
  %57 = alloca %"class.cctki_piraha::smart_ptr.14", align 8
  %58 = alloca %"class.std::__cxx11::basic_string", align 8
  %59 = alloca %"class.std::__cxx11::basic_string", align 8
  %60 = alloca %"class.cctki_piraha::smart_ptr.14", align 8
  %61 = alloca %"class.std::__cxx11::basic_string", align 8
  %62 = alloca %"class.cctki_piraha::smart_ptr.14", align 8
  %63 = alloca %"class.cctki_piraha::smart_ptr.13", align 8
  %64 = alloca %"class.cctki_piraha::smart_ptr.14", align 8
  %65 = alloca %"class.cctki_piraha::smart_ptr.13", align 8
  %66 = alloca %"class.cctki_piraha::smart_ptr.14", align 8
  %67 = alloca %"class.cctki_piraha::smart_ptr.14", align 8
  %68 = alloca %"class.cctki_piraha::smart_ptr.13", align 8
  %69 = alloca %"class.cctki_piraha::smart_ptr.14", align 8
  %70 = alloca %"class.cctki_piraha::smart_ptr.13", align 8
  %71 = alloca %"class.cctki_piraha::smart_ptr.14", align 8
  %72 = alloca %"class.cctki_piraha::smart_ptr.14", align 8
  %73 = alloca %"class.cctki_piraha::smart_ptr.13", align 8
  %74 = alloca %"class.cctki_piraha::smart_ptr.14", align 8
  %75 = alloca %"class.cctki_piraha::smart_ptr.13", align 8
  %76 = alloca %"class.cctki_piraha::smart_ptr.14", align 8
  %77 = alloca %"class.cctki_piraha::smart_ptr.14", align 8
  %78 = alloca %"class.cctki_piraha::smart_ptr.13", align 8
  %79 = alloca %"class.cctki_piraha::smart_ptr.14", align 8
  %80 = alloca %"class.std::__cxx11::basic_string", align 8
  %81 = alloca %"class.cctki_piraha::smart_ptr.14", align 8
  %82 = alloca %"class.cctki_piraha::smart_ptr.13", align 8
  %83 = alloca %"class.cctki_piraha::smart_ptr.14", align 8
  %84 = alloca %"class.cctki_piraha::smart_ptr.13", align 8
  %85 = alloca %"class.cctki_piraha::smart_ptr.13", align 8
  %86 = alloca %"class.std::__cxx11::basic_ostringstream", align 8
  %87 = alloca %"class.std::__cxx11::basic_string", align 8
  %88 = alloca %"class.std::__cxx11::basic_string", align 8
  %89 = alloca %"class.cctki_piraha::smart_ptr.14", align 8
  %90 = alloca %"class.cctki_piraha::smart_ptr.13", align 8
  %91 = alloca %"class.cctki_piraha::smart_ptr.14", align 8
  %92 = alloca %"class.std::__cxx11::basic_string", align 8
  %93 = alloca %"class.cctki_piraha::smart_ptr.14", align 8
  %94 = alloca %"class.cctki_piraha::smart_ptr.13", align 8
  %95 = alloca %"class.cctki_piraha::smart_ptr.14", align 8
  %96 = alloca %"class.std::__cxx11::basic_ostringstream", align 8
  %97 = alloca %"class.std::__cxx11::basic_string", align 8
  %98 = alloca %"class.std::__cxx11::basic_string", align 8
  %99 = alloca %"class.cctki_piraha::smart_ptr.14", align 8
  %100 = alloca %"class.cctki_piraha::smart_ptr.13", align 8
  %101 = alloca %"class.cctki_piraha::smart_ptr.14", align 8
  %102 = alloca %"class.std::__cxx11::basic_string", align 8
  %103 = alloca %"class.cctki_piraha::smart_ptr.14", align 8
  %104 = alloca %"class.cctki_piraha::smart_ptr.13", align 8
  %105 = alloca %"class.cctki_piraha::smart_ptr.14", align 8
  %106 = alloca %"class.std::__cxx11::basic_ostringstream", align 8
  %107 = alloca %"class.std::__cxx11::basic_string", align 8
  %108 = alloca %"class.std::__cxx11::basic_string", align 8
  %109 = alloca %"class.std::__cxx11::basic_string", align 8
  %110 = alloca %"class.std::__cxx11::basic_ostringstream", align 8
  %111 = alloca %"class.std::__cxx11::basic_string", align 8
  %112 = alloca %"class.std::__cxx11::basic_string", align 8
  %113 = alloca %"class.std::__cxx11::basic_string", align 8
  %114 = alloca %"class.std::__cxx11::basic_string", align 8
  %115 = alloca %"class.std::__cxx11::basic_ostringstream", align 8
  %116 = alloca %"class.std::__cxx11::basic_string", align 8
  %117 = alloca %"class.std::__cxx11::basic_string", align 8
  %118 = alloca %"class.std::__cxx11::basic_ostringstream", align 8
  %119 = alloca %"class.std::__cxx11::basic_string", align 8
  %120 = alloca %"class.std::__cxx11::basic_string", align 8
  %121 = alloca %"class.cctki_piraha::smart_ptr.14", align 8
  %122 = alloca %"class.cctki_piraha::smart_ptr.13", align 8
  %123 = alloca %"class.cctki_piraha::smart_ptr.14", align 8
  %124 = alloca %"class.std::__cxx11::basic_string", align 8
  %125 = alloca %"class.cctki_piraha::smart_ptr.14", align 8
  %126 = alloca %"class.cctki_piraha::smart_ptr.13", align 8
  %127 = alloca %"class.cctki_piraha::smart_ptr.14", align 8
  %128 = alloca %"class.std::__cxx11::basic_ostringstream", align 8
  %129 = alloca %"class.std::__cxx11::basic_string", align 8
  %130 = alloca %"class.std::__cxx11::basic_string", align 8
  %131 = alloca %"class.std::__cxx11::basic_ostringstream", align 8
  %132 = alloca %"class.std::__cxx11::basic_string", align 8
  %133 = alloca %"class.std::__cxx11::basic_string", align 8
  %134 = alloca %"class.std::__cxx11::basic_ostringstream", align 8
  %135 = alloca %"class.std::__cxx11::basic_string", align 8
  %136 = alloca %"class.std::__cxx11::basic_string", align 8
  %137 = alloca %"class.std::__cxx11::basic_ostringstream", align 8
  %138 = alloca %"class.std::__cxx11::basic_string", align 8
  %139 = alloca %"class.std::__cxx11::basic_string", align 8
  %140 = alloca %"class.std::__cxx11::basic_string", align 8
  %141 = alloca %"class.std::__cxx11::basic_string", align 8
  %142 = alloca %"class.std::__cxx11::basic_ostringstream", align 8
  %143 = alloca %"class.std::__cxx11::basic_string", align 8
  %144 = alloca %"class.std::__cxx11::basic_string", align 8
  %145 = alloca %"class.std::__cxx11::basic_ostringstream", align 8
  %146 = alloca %"class.std::__cxx11::basic_string", align 8
  %147 = alloca %"class.std::__cxx11::basic_string", align 8
  %148 = alloca %"class.std::__cxx11::basic_string", align 8
  %149 = alloca %"class.std::__cxx11::basic_string", align 8
  call void @llvm.lifetime.start.p0(i64 32, ptr nonnull %6) #27
  %150 = load ptr, ptr %1, align 8, !tbaa !55, !nonnull !31, !noundef !31
  %151 = getelementptr inbounds %"class.cctki_piraha::smart_ptr_guts.20", ptr %150, i64 0, i32 2
  %152 = load ptr, ptr %151, align 8, !tbaa !56
  call void @_ZN12cctki_piraha5Group14getPatternNameB5cxx11Ev(ptr nonnull sret(%"class.std::__cxx11::basic_string") align 8 %6, ptr noundef nonnull align 8 dereferenceable(80) %152)
  call void @llvm.lifetime.start.p0(i64 8, ptr nonnull %7) #27
  %153 = invoke noalias noundef nonnull dereferenceable(64) ptr @_Znwm(i64 noundef 64) #29
          to label %154 unwind label %279

154:                                              ; preds = %2
  %155 = load ptr, ptr %1, align 8, !tbaa !55
  store ptr %155, ptr %8, align 8, !tbaa !55
  %156 = icmp eq ptr %155, null
  br i1 %156, label %160, label %157

157:                                              ; preds = %154
  %158 = load i32, ptr %155, align 8, !tbaa !58
  %159 = add nsw i32 %158, 2
  store i32 %159, ptr %155, align 8, !tbaa !58
  br label %160

160:                                              ; preds = %154, %157
  store ptr %155, ptr %153, align 8
  %161 = getelementptr inbounds %"struct.cctki_piraha::Value", ptr %153, i64 0, i32 1
  store double 0.000000e+00, ptr %161, align 8, !tbaa !53
  %162 = getelementptr inbounds %"struct.cctki_piraha::Value", ptr %153, i64 0, i32 2
  store i32 0, ptr %162, align 8, !tbaa !54
  %163 = getelementptr inbounds %"struct.cctki_piraha::Value", ptr %153, i64 0, i32 4
  %164 = getelementptr inbounds %"struct.cctki_piraha::Value", ptr %153, i64 0, i32 4, i32 2
  store ptr %164, ptr %163, align 8, !tbaa !41
  %165 = getelementptr inbounds %"struct.cctki_piraha::Value", ptr %153, i64 0, i32 4, i32 1
  store i64 0, ptr %165, align 8, !tbaa !15
  store i8 0, ptr %164, align 8, !tbaa !40
  %166 = getelementptr inbounds %"struct.cctki_piraha::Value", ptr %153, i64 0, i32 5
  store i32 4, ptr %166, align 8, !tbaa !49
  %167 = invoke noalias noundef nonnull dereferenceable(24) ptr @_Znwm(i64 noundef 24) #29
          to label %168 unwind label %281

168:                                              ; preds = %160
  store i32 1, ptr %167, align 8, !tbaa !59
  %169 = getelementptr inbounds %"class.cctki_piraha::smart_ptr_guts.18", ptr %167, i64 0, i32 2
  store ptr %153, ptr %169, align 8, !tbaa !47
  %170 = getelementptr inbounds %"class.cctki_piraha::smart_ptr_guts.18", ptr %167, i64 0, i32 3
  store i8 0, ptr %170, align 8, !tbaa !60
  store ptr %167, ptr %7, align 8, !tbaa !45
  br i1 %156, label %178, label %171

171:                                              ; preds = %168
  %172 = load i32, ptr %155, align 8, !tbaa !58
  %173 = icmp sgt i32 %172, 0
  br i1 %173, label %174, label %178

174:                                              ; preds = %171
  %175 = add nsw i32 %172, -1
  store i32 %175, ptr %155, align 8, !tbaa !58
  %176 = icmp eq i32 %172, 1
  br i1 %176, label %177, label %178

177:                                              ; preds = %174
  call void @_ZN12cctki_piraha14smart_ptr_gutsINS_5GroupEED2Ev(ptr noundef nonnull align 8 dereferenceable(17) %155) #27
  call void @_ZdlPv(ptr noundef nonnull %155) #26
  store ptr null, ptr %8, align 8, !tbaa !55
  br label %178

178:                                              ; preds = %168, %171, %174, %177
  %179 = getelementptr inbounds %"class.std::__cxx11::basic_string", ptr %6, i64 0, i32 1
  %180 = load i64, ptr %179, align 8, !tbaa !15
  switch i64 %180, label %1074 [
    i64 3, label %181
    i64 5, label %311
    i64 8, label %315
    i64 4, label %341
  ]

181:                                              ; preds = %178
  %182 = load ptr, ptr %6, align 8, !tbaa !9
  %183 = call i32 @bcmp(ptr noundef nonnull dereferenceable(3) %182, ptr noundef nonnull dereferenceable(3) @.str.32, i64 3)
  %184 = icmp eq i32 %183, 0
  br i1 %184, label %185, label %1074

185:                                              ; preds = %181
  call void @llvm.lifetime.start.p0(i64 32, ptr nonnull %9) #27
  %186 = load ptr, ptr %1, align 8, !tbaa !55, !nonnull !31, !noundef !31
  %187 = getelementptr inbounds %"class.cctki_piraha::smart_ptr_guts.20", ptr %186, i64 0, i32 2
  %188 = load ptr, ptr %187, align 8, !tbaa !56
  invoke void @_ZN12cctki_piraha5Group9substringB5cxx11Ev(ptr nonnull sret(%"class.std::__cxx11::basic_string") align 8 %9, ptr noundef nonnull align 8 dereferenceable(80) %188)
          to label %189 unwind label %285

189:                                              ; preds = %185
  call void @llvm.lifetime.start.p0(i64 32, ptr nonnull %10) #27
  %190 = load ptr, ptr %9, align 8, !tbaa !9
  %191 = getelementptr inbounds i8, ptr %9, i64 8
  %192 = load i64, ptr %191, align 8, !tbaa !15
  call void @llvm.experimental.noalias.scope.decl(metadata !152)
  %193 = getelementptr inbounds %"class.std::__cxx11::basic_string", ptr %10, i64 0, i32 2
  store ptr %193, ptr %10, align 8, !tbaa !41, !alias.scope !152
  call void @llvm.lifetime.start.p0(i64 8, ptr nonnull %5) #27, !noalias !152
  store i64 %192, ptr %5, align 8, !tbaa !42, !noalias !152
  %194 = icmp ugt i64 %192, 15
  br i1 %194, label %195, label %199

195:                                              ; preds = %189
  %196 = invoke noundef ptr @_ZNSt7__cxx1112basic_stringIcSt11char_traitsIcESaIcEE9_M_createERmm(ptr noundef nonnull align 8 dereferenceable(32) %10, ptr noundef nonnull align 8 dereferenceable(8) %5, i64 noundef 0)
          to label %197 unwind label %287

197:                                              ; preds = %195
  store ptr %196, ptr %10, align 8, !tbaa !9, !alias.scope !152
  %198 = load i64, ptr %5, align 8, !tbaa !42, !noalias !152
  store i64 %198, ptr %193, align 8, !tbaa !40, !alias.scope !152
  br label %199

199:                                              ; preds = %197, %189
  %200 = phi ptr [ %196, %197 ], [ %193, %189 ]
  switch i64 %192, label %203 [
    i64 1, label %201
    i64 0, label %204
  ]

201:                                              ; preds = %199
  %202 = load i8, ptr %190, align 1, !tbaa !40, !noalias !152
  store i8 %202, ptr %200, align 1, !tbaa !40
  br label %204

203:                                              ; preds = %199
  call void @llvm.memcpy.p0.p0.i64(ptr align 1 %200, ptr align 1 %190, i64 %192, i1 false)
  br label %204

204:                                              ; preds = %203, %201, %199
  %205 = load i64, ptr %5, align 8, !tbaa !42, !noalias !152
  %206 = getelementptr inbounds %"class.std::__cxx11::basic_string", ptr %10, i64 0, i32 1
  store i64 %205, ptr %206, align 8, !tbaa !15, !alias.scope !152
  %207 = load ptr, ptr %10, align 8, !tbaa !9, !alias.scope !152
  %208 = getelementptr inbounds i8, ptr %207, i64 %205
  store i8 0, ptr %208, align 1, !tbaa !40
  call void @llvm.lifetime.end.p0(i64 8, ptr nonnull %5) #27, !noalias !152
  %209 = load ptr, ptr %10, align 8, !tbaa !9, !alias.scope !152
  %210 = load i64, ptr %206, align 8, !tbaa !15
  %211 = getelementptr inbounds i8, ptr %209, i64 %210
  %212 = icmp eq i64 %210, 0
  br i1 %212, label %221, label %213

213:                                              ; preds = %204, %213
  %214 = phi ptr [ %219, %213 ], [ %209, %204 ]
  %215 = load i8, ptr %214, align 1, !tbaa !40
  %216 = sext i8 %215 to i32
  %217 = call noundef i32 @tolower(i32 noundef %216) #27
  %218 = trunc i32 %217 to i8
  store i8 %218, ptr %214, align 1, !tbaa !40
  %219 = getelementptr i8, ptr %214, i64 1
  %220 = icmp eq ptr %219, %211
  br i1 %220, label %221, label %213, !llvm.loop !155

221:                                              ; preds = %213, %204
  %222 = load ptr, ptr %9, align 8, !tbaa !9
  %223 = getelementptr inbounds %"class.std::__cxx11::basic_string", ptr %9, i64 0, i32 2
  %224 = icmp eq ptr %222, %223
  br i1 %224, label %225, label %231

225:                                              ; preds = %221
  %226 = load i64, ptr %191, align 8, !tbaa !15
  %227 = icmp ult i64 %226, 16
  call void @llvm.assume(i1 %227)
  %228 = load ptr, ptr %10, align 8, !tbaa !9
  %229 = icmp eq ptr %228, %193
  %230 = load i64, ptr %206, align 8, !tbaa !15
  br i1 %229, label %235, label %246

231:                                              ; preds = %221
  %232 = load ptr, ptr %10, align 8, !tbaa !9
  %233 = icmp eq ptr %232, %193
  %234 = load i64, ptr %206, align 8, !tbaa !15
  br i1 %233, label %235, label %248

235:                                              ; preds = %231, %225
  %236 = phi i64 [ %234, %231 ], [ %230, %225 ]
  %237 = icmp ult i64 %236, 16
  call void @llvm.assume(i1 %237)
  switch i64 %236, label %240 [
    i64 0, label %241
    i64 1, label %238
  ]

238:                                              ; preds = %235
  %239 = load i8, ptr %193, align 8, !tbaa !40
  store i8 %239, ptr %222, align 1, !tbaa !40
  br label %241

240:                                              ; preds = %235
  call void @llvm.memcpy.p0.p0.i64(ptr align 1 %222, ptr nonnull align 8 %193, i64 %236, i1 false)
  br label %241

241:                                              ; preds = %240, %238, %235
  %242 = load i64, ptr %206, align 8, !tbaa !15
  store i64 %242, ptr %191, align 8, !tbaa !15
  %243 = load ptr, ptr %9, align 8, !tbaa !9
  %244 = getelementptr inbounds i8, ptr %243, i64 %242
  store i8 0, ptr %244, align 1, !tbaa !40
  %245 = load ptr, ptr %10, align 8, !tbaa !9
  br label %254

246:                                              ; preds = %225
  store ptr %228, ptr %9, align 8, !tbaa !9
  store i64 %230, ptr %191, align 8, !tbaa !15
  %247 = load i64, ptr %193, align 8, !tbaa !40
  store i64 %247, ptr %223, align 8, !tbaa !40
  br label %253

248:                                              ; preds = %231
  %249 = load i64, ptr %223, align 8, !tbaa !40
  store ptr %232, ptr %9, align 8, !tbaa !9
  store i64 %234, ptr %191, align 8, !tbaa !15
  %250 = load i64, ptr %193, align 8, !tbaa !40
  store i64 %250, ptr %223, align 8, !tbaa !40
  %251 = icmp eq ptr %222, null
  br i1 %251, label %253, label %252

252:                                              ; preds = %248
  store ptr %222, ptr %10, align 8, !tbaa !9
  store i64 %249, ptr %193, align 8, !tbaa !40
  br label %254

253:                                              ; preds = %248, %246
  store ptr %193, ptr %10, align 8, !tbaa !9
  br label %254

254:                                              ; preds = %241, %252, %253
  %255 = phi ptr [ %245, %241 ], [ %222, %252 ], [ %193, %253 ]
  store i64 0, ptr %206, align 8, !tbaa !15
  store i8 0, ptr %255, align 1, !tbaa !40
  %256 = load ptr, ptr %10, align 8, !tbaa !9
  %257 = icmp eq ptr %256, %193
  br i1 %257, label %258, label %261

258:                                              ; preds = %254
  %259 = load i64, ptr %206, align 8, !tbaa !15
  %260 = icmp ult i64 %259, 16
  call void @llvm.assume(i1 %260)
  br label %262

261:                                              ; preds = %254
  call void @_ZdlPv(ptr noundef %256) #26
  br label %262

262:                                              ; preds = %258, %261
  call void @llvm.lifetime.end.p0(i64 32, ptr nonnull %10) #27
  %263 = load ptr, ptr %9, align 8, !tbaa !9
  %264 = call double @strtod(ptr nocapture noundef nonnull %263, ptr noundef null) #27
  %265 = load ptr, ptr %7, align 8, !tbaa !45, !nonnull !31, !noundef !31
  %266 = getelementptr inbounds %"class.cctki_piraha::smart_ptr_guts.18", ptr %265, i64 0, i32 2
  %267 = load ptr, ptr %266, align 8, !tbaa !47
  %268 = getelementptr inbounds %"struct.cctki_piraha::Value", ptr %267, i64 0, i32 1
  store double %264, ptr %268, align 8, !tbaa !53
  %269 = fptosi double %264 to i32
  %270 = getelementptr inbounds %"struct.cctki_piraha::Value", ptr %267, i64 0, i32 2
  store i32 %269, ptr %270, align 8, !tbaa !54
  %271 = sitofp i32 %269 to double
  %272 = fcmp oeq double %264, %271
  br i1 %272, label %273, label %296

273:                                              ; preds = %262
  %274 = call noundef i64 @_ZNKSt7__cxx1112basic_stringIcSt11char_traitsIcESaIcEE4findEcm(ptr noundef nonnull align 8 dereferenceable(32) %9, i8 noundef signext 46, i64 noundef 0) #27
  %275 = icmp eq i64 %274, -1
  %276 = load ptr, ptr %7, align 8, !tbaa !45
  %277 = getelementptr inbounds %"class.cctki_piraha::smart_ptr_guts.18", ptr %276, i64 0, i32 2
  %278 = load ptr, ptr %277, align 8, !tbaa !47
  br i1 %275, label %298, label %296

279:                                              ; preds = %2
  %280 = landingpad { ptr, i32 }
          cleanup
  br label %4426

281:                                              ; preds = %160
  %282 = landingpad { ptr, i32 }
          cleanup
  call void @_ZN12cctki_piraha9smart_ptrINS_5GroupEED2Ev(ptr noundef nonnull align 8 dereferenceable(8) %8) #27
  br label %4426

283:                                              ; preds = %3393, %2721, %2446, %2219, %2133, %2057, %1971, %1939, %1878, %1493, %1475, %1074
  %284 = landingpad { ptr, i32 }
          cleanup
  br label %4424

285:                                              ; preds = %185
  %286 = landingpad { ptr, i32 }
          cleanup
  br label %309

287:                                              ; preds = %195
  %288 = landingpad { ptr, i32 }
          cleanup
  call void @llvm.lifetime.end.p0(i64 32, ptr nonnull %10) #27
  %289 = load ptr, ptr %9, align 8, !tbaa !9
  %290 = getelementptr inbounds %"class.std::__cxx11::basic_string", ptr %9, i64 0, i32 2
  %291 = icmp eq ptr %289, %290
  br i1 %291, label %292, label %295

292:                                              ; preds = %287
  %293 = load i64, ptr %191, align 8, !tbaa !15
  %294 = icmp ult i64 %293, 16
  call void @llvm.assume(i1 %294)
  br label %309

295:                                              ; preds = %287
  call void @_ZdlPv(ptr noundef %289) #26
  br label %309

296:                                              ; preds = %273, %262
  %297 = phi ptr [ %267, %262 ], [ %278, %273 ]
  br label %298

298:                                              ; preds = %273, %296
  %299 = phi ptr [ %297, %296 ], [ %278, %273 ]
  %300 = phi i32 [ 2, %296 ], [ 1, %273 ]
  %301 = getelementptr inbounds %"struct.cctki_piraha::Value", ptr %299, i64 0, i32 5
  store i32 %300, ptr %301, align 8, !tbaa !49
  %302 = load ptr, ptr %9, align 8, !tbaa !9
  %303 = icmp eq ptr %302, %223
  br i1 %303, label %304, label %307

304:                                              ; preds = %298
  %305 = load i64, ptr %191, align 8, !tbaa !15
  %306 = icmp ult i64 %305, 16
  call void @llvm.assume(i1 %306)
  br label %308

307:                                              ; preds = %298
  call void @_ZdlPv(ptr noundef %302) #26
  br label %308

308:                                              ; preds = %304, %307
  call void @llvm.lifetime.end.p0(i64 32, ptr nonnull %9) #27
  br label %4399

309:                                              ; preds = %295, %292, %285
  %310 = phi { ptr, i32 } [ %286, %285 ], [ %288, %292 ], [ %288, %295 ]
  call void @llvm.lifetime.end.p0(i64 32, ptr nonnull %9) #27
  br label %4424

311:                                              ; preds = %178
  %312 = load ptr, ptr %6, align 8, !tbaa !9
  %313 = call i32 @bcmp(ptr %312, ptr nonnull @.str.33, i64 %180)
  %314 = icmp eq i32 %313, 0
  br i1 %314, label %319, label %886

315:                                              ; preds = %178
  %316 = load ptr, ptr %6, align 8, !tbaa !9
  %317 = call i32 @bcmp(ptr %316, ptr nonnull @.str.34, i64 %180)
  %318 = icmp eq i32 %317, 0
  br i1 %318, label %319, label %1074

319:                                              ; preds = %315, %311
  %320 = load ptr, ptr %1, align 8, !tbaa !55, !nonnull !31, !noundef !31
  %321 = getelementptr inbounds %"class.cctki_piraha::smart_ptr_guts.20", ptr %320, i64 0, i32 2
  %322 = load ptr, ptr %321, align 8, !tbaa !56
  call void @llvm.experimental.noalias.scope.decl(metadata !156)
  %323 = getelementptr inbounds %"class.cctki_piraha::Group", ptr %322, i64 0, i32 5
  %324 = load ptr, ptr %323, align 8, !tbaa !92, !noalias !156
  %325 = load ptr, ptr %324, align 8, !tbaa !55, !noalias !156
  store ptr %325, ptr %11, align 8, !tbaa !55, !alias.scope !156
  %326 = icmp eq ptr %325, null
  br i1 %326, label %330, label %327

327:                                              ; preds = %319
  %328 = load i32, ptr %325, align 8, !tbaa !58, !noalias !156
  %329 = add nsw i32 %328, 1
  store i32 %329, ptr %325, align 8, !tbaa !58, !noalias !156
  br label %330

330:                                              ; preds = %327, %319
  invoke void @_ZN12cctki_piraha5mevalENS_9smart_ptrINS_5GroupEEE(ptr sret(%"class.cctki_piraha::smart_ptr.13") align 8 %0, ptr noundef nonnull %11)
          to label %331 unwind label %339

331:                                              ; preds = %330
  br i1 %326, label %4405, label %332

332:                                              ; preds = %331
  %333 = load i32, ptr %325, align 8, !tbaa !58
  %334 = icmp sgt i32 %333, 0
  br i1 %334, label %335, label %4405

335:                                              ; preds = %332
  %336 = add nsw i32 %333, -1
  store i32 %336, ptr %325, align 8, !tbaa !58
  %337 = icmp eq i32 %333, 1
  br i1 %337, label %338, label %4405

338:                                              ; preds = %335
  call void @_ZN12cctki_piraha14smart_ptr_gutsINS_5GroupEED2Ev(ptr noundef nonnull align 8 dereferenceable(17) %325) #27
  call void @_ZdlPv(ptr noundef nonnull %325) #26
  br label %4405

339:                                              ; preds = %330
  %340 = landingpad { ptr, i32 }
          cleanup
  call void @_ZN12cctki_piraha9smart_ptrINS_5GroupEED2Ev(ptr noundef nonnull align 8 dereferenceable(8) %11) #27
  br label %4424

341:                                              ; preds = %178
  %342 = load ptr, ptr %6, align 8, !tbaa !9
  %343 = call i32 @bcmp(ptr %342, ptr nonnull @.str.35, i64 %180)
  %344 = icmp eq i32 %343, 0
  br i1 %344, label %345, label %883

345:                                              ; preds = %341
  call void @llvm.lifetime.start.p0(i64 32, ptr nonnull %12) #27
  call void @llvm.lifetime.start.p0(i64 8, ptr nonnull %13) #27
  %346 = load ptr, ptr %1, align 8, !tbaa !55, !nonnull !31, !noundef !31
  %347 = getelementptr inbounds %"class.cctki_piraha::smart_ptr_guts.20", ptr %346, i64 0, i32 2
  %348 = load ptr, ptr %347, align 8, !tbaa !56
  call void @llvm.experimental.noalias.scope.decl(metadata !159)
  %349 = getelementptr inbounds %"class.cctki_piraha::Group", ptr %348, i64 0, i32 5
  %350 = load ptr, ptr %349, align 8, !tbaa !92, !noalias !159
  %351 = load ptr, ptr %350, align 8, !tbaa !55, !noalias !159, !nonnull !31, !noundef !31
  store ptr %351, ptr %13, align 8, !tbaa !55, !alias.scope !159
  %352 = load i32, ptr %351, align 8, !tbaa !58, !noalias !159
  %353 = add nsw i32 %352, 1
  store i32 %353, ptr %351, align 8, !tbaa !58, !noalias !159
  %354 = getelementptr inbounds %"class.cctki_piraha::smart_ptr_guts.20", ptr %351, i64 0, i32 2
  %355 = load ptr, ptr %354, align 8, !tbaa !56
  invoke void @_ZN12cctki_piraha5Group9substringB5cxx11Ev(ptr nonnull sret(%"class.std::__cxx11::basic_string") align 8 %12, ptr noundef nonnull align 8 dereferenceable(80) %355)
          to label %356 unwind label %488

356:                                              ; preds = %345
  %357 = load i32, ptr %351, align 8, !tbaa !58
  %358 = icmp sgt i32 %357, 0
  br i1 %358, label %359, label %363

359:                                              ; preds = %356
  %360 = add nsw i32 %357, -1
  store i32 %360, ptr %351, align 8, !tbaa !58
  %361 = icmp eq i32 %357, 1
  br i1 %361, label %362, label %363

362:                                              ; preds = %359
  call void @_ZN12cctki_piraha14smart_ptr_gutsINS_5GroupEED2Ev(ptr noundef nonnull align 8 dereferenceable(17) %351) #27
  call void @_ZdlPv(ptr noundef nonnull %351) #26
  br label %363

363:                                              ; preds = %356, %359, %362
  call void @llvm.lifetime.end.p0(i64 8, ptr nonnull %13) #27
  call void @llvm.lifetime.start.p0(i64 32, ptr nonnull %14) #27
  %364 = load ptr, ptr %12, align 8, !tbaa !9
  %365 = getelementptr inbounds i8, ptr %12, i64 8
  %366 = load i64, ptr %365, align 8, !tbaa !15
  call void @llvm.experimental.noalias.scope.decl(metadata !162)
  %367 = getelementptr inbounds %"class.std::__cxx11::basic_string", ptr %14, i64 0, i32 2
  store ptr %367, ptr %14, align 8, !tbaa !41, !alias.scope !162
  call void @llvm.lifetime.start.p0(i64 8, ptr nonnull %4) #27, !noalias !162
  store i64 %366, ptr %4, align 8, !tbaa !42, !noalias !162
  %368 = icmp ugt i64 %366, 15
  br i1 %368, label %369, label %373

369:                                              ; preds = %363
  %370 = invoke noundef ptr @_ZNSt7__cxx1112basic_stringIcSt11char_traitsIcESaIcEE9_M_createERmm(ptr noundef nonnull align 8 dereferenceable(32) %14, ptr noundef nonnull align 8 dereferenceable(8) %4, i64 noundef 0)
          to label %371 unwind label %490

371:                                              ; preds = %369
  store ptr %370, ptr %14, align 8, !tbaa !9, !alias.scope !162
  %372 = load i64, ptr %4, align 8, !tbaa !42, !noalias !162
  store i64 %372, ptr %367, align 8, !tbaa !40, !alias.scope !162
  br label %373

373:                                              ; preds = %371, %363
  %374 = phi ptr [ %370, %371 ], [ %367, %363 ]
  switch i64 %366, label %377 [
    i64 1, label %375
    i64 0, label %378
  ]

375:                                              ; preds = %373
  %376 = load i8, ptr %364, align 1, !tbaa !40, !noalias !162
  store i8 %376, ptr %374, align 1, !tbaa !40
  br label %378

377:                                              ; preds = %373
  call void @llvm.memcpy.p0.p0.i64(ptr align 1 %374, ptr align 1 %364, i64 %366, i1 false)
  br label %378

378:                                              ; preds = %377, %375, %373
  %379 = load i64, ptr %4, align 8, !tbaa !42, !noalias !162
  %380 = getelementptr inbounds %"class.std::__cxx11::basic_string", ptr %14, i64 0, i32 1
  store i64 %379, ptr %380, align 8, !tbaa !15, !alias.scope !162
  %381 = load ptr, ptr %14, align 8, !tbaa !9, !alias.scope !162
  %382 = getelementptr inbounds i8, ptr %381, i64 %379
  store i8 0, ptr %382, align 1, !tbaa !40
  call void @llvm.lifetime.end.p0(i64 8, ptr nonnull %4) #27, !noalias !162
  %383 = load ptr, ptr %14, align 8, !tbaa !9, !alias.scope !162
  %384 = load i64, ptr %380, align 8, !tbaa !15
  %385 = getelementptr inbounds i8, ptr %383, i64 %384
  %386 = icmp eq i64 %384, 0
  br i1 %386, label %395, label %387

387:                                              ; preds = %378, %387
  %388 = phi ptr [ %393, %387 ], [ %383, %378 ]
  %389 = load i8, ptr %388, align 1, !tbaa !40
  %390 = sext i8 %389 to i32
  %391 = call noundef i32 @tolower(i32 noundef %390) #27
  %392 = trunc i32 %391 to i8
  store i8 %392, ptr %388, align 1, !tbaa !40
  %393 = getelementptr i8, ptr %388, i64 1
  %394 = icmp eq ptr %393, %385
  br i1 %394, label %395, label %387, !llvm.loop !155

395:                                              ; preds = %387, %378
  %396 = load ptr, ptr %12, align 8, !tbaa !9
  %397 = getelementptr inbounds %"class.std::__cxx11::basic_string", ptr %12, i64 0, i32 2
  %398 = icmp eq ptr %396, %397
  br i1 %398, label %399, label %405

399:                                              ; preds = %395
  %400 = load i64, ptr %365, align 8, !tbaa !15
  %401 = icmp ult i64 %400, 16
  call void @llvm.assume(i1 %401)
  %402 = load ptr, ptr %14, align 8, !tbaa !9
  %403 = icmp eq ptr %402, %367
  %404 = load i64, ptr %380, align 8, !tbaa !15
  br i1 %403, label %409, label %420

405:                                              ; preds = %395
  %406 = load ptr, ptr %14, align 8, !tbaa !9
  %407 = icmp eq ptr %406, %367
  %408 = load i64, ptr %380, align 8, !tbaa !15
  br i1 %407, label %409, label %422

409:                                              ; preds = %405, %399
  %410 = phi i64 [ %408, %405 ], [ %404, %399 ]
  %411 = icmp ult i64 %410, 16
  call void @llvm.assume(i1 %411)
  switch i64 %410, label %414 [
    i64 0, label %415
    i64 1, label %412
  ]

412:                                              ; preds = %409
  %413 = load i8, ptr %367, align 8, !tbaa !40
  store i8 %413, ptr %396, align 1, !tbaa !40
  br label %415

414:                                              ; preds = %409
  call void @llvm.memcpy.p0.p0.i64(ptr align 1 %396, ptr nonnull align 8 %367, i64 %410, i1 false)
  br label %415

415:                                              ; preds = %414, %412, %409
  %416 = load i64, ptr %380, align 8, !tbaa !15
  store i64 %416, ptr %365, align 8, !tbaa !15
  %417 = load ptr, ptr %12, align 8, !tbaa !9
  %418 = getelementptr inbounds i8, ptr %417, i64 %416
  store i8 0, ptr %418, align 1, !tbaa !40
  %419 = load ptr, ptr %14, align 8, !tbaa !9
  br label %428

420:                                              ; preds = %399
  store ptr %402, ptr %12, align 8, !tbaa !9
  store i64 %404, ptr %365, align 8, !tbaa !15
  %421 = load i64, ptr %367, align 8, !tbaa !40
  store i64 %421, ptr %396, align 8, !tbaa !40
  br label %427

422:                                              ; preds = %405
  %423 = load i64, ptr %397, align 8, !tbaa !40
  store ptr %406, ptr %12, align 8, !tbaa !9
  store i64 %408, ptr %365, align 8, !tbaa !15
  %424 = load i64, ptr %367, align 8, !tbaa !40
  store i64 %424, ptr %397, align 8, !tbaa !40
  %425 = icmp eq ptr %396, null
  br i1 %425, label %427, label %426

426:                                              ; preds = %422
  store ptr %396, ptr %14, align 8, !tbaa !9
  store i64 %423, ptr %367, align 8, !tbaa !40
  br label %428

427:                                              ; preds = %422, %420
  store ptr %367, ptr %14, align 8, !tbaa !9
  br label %428

428:                                              ; preds = %415, %426, %427
  %429 = phi ptr [ %419, %415 ], [ %396, %426 ], [ %367, %427 ]
  store i64 0, ptr %380, align 8, !tbaa !15
  store i8 0, ptr %429, align 1, !tbaa !40
  %430 = load ptr, ptr %14, align 8, !tbaa !9
  %431 = icmp eq ptr %430, %367
  br i1 %431, label %432, label %435

432:                                              ; preds = %428
  %433 = load i64, ptr %380, align 8, !tbaa !15
  %434 = icmp ult i64 %433, 16
  call void @llvm.assume(i1 %434)
  br label %436

435:                                              ; preds = %428
  call void @_ZdlPv(ptr noundef %430) #26
  br label %436

436:                                              ; preds = %432, %435
  call void @llvm.lifetime.end.p0(i64 32, ptr nonnull %14) #27
  %437 = load ptr, ptr %1, align 8, !tbaa !55, !nonnull !31, !noundef !31
  %438 = getelementptr inbounds %"class.cctki_piraha::smart_ptr_guts.20", ptr %437, i64 0, i32 2
  %439 = load ptr, ptr %438, align 8, !tbaa !56
  call void @llvm.experimental.noalias.scope.decl(metadata !165)
  %440 = getelementptr inbounds %"class.cctki_piraha::Group", ptr %439, i64 0, i32 5
  %441 = load ptr, ptr %440, align 8, !tbaa !92, !noalias !165
  %442 = getelementptr inbounds %"class.cctki_piraha::smart_ptr.14", ptr %441, i64 1
  %443 = load ptr, ptr %442, align 8, !tbaa !55, !noalias !165
  store ptr %443, ptr %15, align 8, !tbaa !55, !alias.scope !165
  %444 = icmp eq ptr %443, null
  br i1 %444, label %448, label %445

445:                                              ; preds = %436
  %446 = load i32, ptr %443, align 8, !tbaa !58, !noalias !165
  %447 = add nsw i32 %446, 1
  store i32 %447, ptr %443, align 8, !tbaa !58, !noalias !165
  br label %448

448:                                              ; preds = %445, %436
  invoke void @_ZN12cctki_piraha5mevalENS_9smart_ptrINS_5GroupEEE(ptr sret(%"class.cctki_piraha::smart_ptr.13") align 8 %0, ptr noundef nonnull %15)
          to label %449 unwind label %492

449:                                              ; preds = %448
  br i1 %444, label %457, label %450

450:                                              ; preds = %449
  %451 = load i32, ptr %443, align 8, !tbaa !58
  %452 = icmp sgt i32 %451, 0
  br i1 %452, label %453, label %457

453:                                              ; preds = %450
  %454 = add nsw i32 %451, -1
  store i32 %454, ptr %443, align 8, !tbaa !58
  %455 = icmp eq i32 %451, 1
  br i1 %455, label %456, label %457

456:                                              ; preds = %453
  call void @_ZN12cctki_piraha14smart_ptr_gutsINS_5GroupEED2Ev(ptr noundef nonnull align 8 dereferenceable(17) %443) #27
  call void @_ZdlPv(ptr noundef nonnull %443) #26
  store ptr null, ptr %15, align 8, !tbaa !55
  br label %457

457:                                              ; preds = %449, %450, %453, %456
  %458 = load ptr, ptr %0, align 8, !tbaa !45
  %459 = icmp ne ptr %458, null
  br i1 %459, label %463, label %460

460:                                              ; preds = %457
  %461 = load i32, ptr inttoptr (i64 56 to ptr), align 8, !tbaa !49
  %462 = icmp eq i32 %461, 2
  br i1 %462, label %470, label %468

463:                                              ; preds = %457
  %464 = getelementptr inbounds %"class.cctki_piraha::smart_ptr_guts.18", ptr %458, i64 0, i32 2
  %465 = load ptr, ptr %464, align 8, !tbaa !47
  %466 = getelementptr inbounds %"struct.cctki_piraha::Value", ptr %465, i64 0, i32 5
  %467 = load i32, ptr %466, align 8, !tbaa !49
  switch i32 %467, label %761 [
    i32 2, label %470
    i32 1, label %470
    i32 3, label %741
  ]

468:                                              ; preds = %460
  %469 = icmp eq i32 %461, 1
  call void @llvm.assume(i1 %469)
  br label %470

470:                                              ; preds = %463, %463, %468, %460
  %471 = load i64, ptr %365, align 8, !tbaa !15
  %472 = icmp eq i64 %471, 5
  br i1 %472, label %473, label %510

473:                                              ; preds = %470
  %474 = load ptr, ptr %12, align 8, !tbaa !9
  %475 = call i32 @bcmp(ptr noundef nonnull dereferenceable(5) %474, ptr noundef nonnull dereferenceable(5) @.str.36, i64 5)
