; ModuleID = 'source/lac/matrix_lib.cc'
source_filename = "source/lac/matrix_lib.cc"
target datalayout = "e-m:e-p270:32:32-p271:32:32-p272:64:64-i64:64-f80:128-n8:16:32:64-S128"
target triple = "x86_64-pc-linux-gnu"

module asm ".globl _ZSt21ios_base_library_initv"

%"struct.dealii::GrowingVectorMemory<dealii::Vector<float> >::Pool" = type { ptr }
%"class.dealii::LogStream" = type { %"class.std::stack", ptr, ptr, i32, i32, i8, i8, double, double, i8, ptr, %"class.std::map.76" }
%"class.std::stack" = type { %"class.std::deque" }
%"class.std::deque" = type { %"class.std::_Deque_base" }
%"class.std::_Deque_base" = type { %"struct.std::_Deque_base<std::__cxx11::basic_string<char>, std::allocator<std::__cxx11::basic_string<char> > >::_Deque_impl" }
%"struct.std::_Deque_base<std::__cxx11::basic_string<char>, std::allocator<std::__cxx11::basic_string<char> > >::_Deque_impl" = type { %"struct.std::_Deque_base<std::__cxx11::basic_string<char>, std::allocator<std::__cxx11::basic_string<char> > >::_Deque_impl_data" }
%"struct.std::_Deque_base<std::__cxx11::basic_string<char>, std::allocator<std::__cxx11::basic_string<char> > >::_Deque_impl_data" = type { ptr, i64, %"struct.std::_Deque_iterator", %"struct.std::_Deque_iterator" }
%"struct.std::_Deque_iterator" = type { ptr, ptr, ptr, ptr }
%"class.std::map.76" = type { %"class.std::_Rb_tree.77" }
%"class.std::_Rb_tree.77" = type { %"struct.std::_Rb_tree<unsigned int, std::pair<const unsigned int, boost::shared_ptr<std::__cxx11::basic_ostringstream<char> > >, std::_Select1st<std::pair<const unsigned int, boost::shared_ptr<std::__cxx11::basic_ostringstream<char> > > >, std::less<unsigned int> >::_Rb_tree_impl" }
%"struct.std::_Rb_tree<unsigned int, std::pair<const unsigned int, boost::shared_ptr<std::__cxx11::basic_ostringstream<char> > >, std::_Select1st<std::pair<const unsigned int, boost::shared_ptr<std::__cxx11::basic_ostringstream<char> > > >, std::less<unsigned int> >::_Rb_tree_impl" = type { %"struct.std::_Rb_tree_key_compare.81", %"struct.std::_Rb_tree_header" }
%"struct.std::_Rb_tree_key_compare.81" = type { %"struct.std::less.82" }
%"struct.std::less.82" = type { i8 }
%"struct.std::_Rb_tree_header" = type { %"struct.std::_Rb_tree_node_base", i64 }
%"struct.std::_Rb_tree_node_base" = type { i32, ptr, ptr, ptr }
%"struct.dealii::GrowingVectorMemory<>::Pool" = type { ptr }
%"struct.dealii::GrowingVectorMemory<dealii::BlockVector<float> >::Pool" = type { ptr }
%"struct.dealii::GrowingVectorMemory<dealii::BlockVector<double> >::Pool" = type { ptr }
%"class.dealii::ProductSparseMatrix" = type { %"class.dealii::PointerMatrixBase", %"class.dealii::SmartPointer", %"class.dealii::SmartPointer", %"class.dealii::SmartPointer.16" }
%"class.dealii::PointerMatrixBase" = type { %"class.dealii::Subscriptor" }
%"class.dealii::Subscriptor" = type { ptr, i32, %"class.std::map", ptr }
%"class.std::map" = type { %"class.std::_Rb_tree" }
%"class.std::_Rb_tree" = type { %"struct.std::_Rb_tree<const char *, std::pair<const char *const, unsigned int>, std::_Select1st<std::pair<const char *const, unsigned int> >, std::less<const char *> >::_Rb_tree_impl" }
%"struct.std::_Rb_tree<const char *, std::pair<const char *const, unsigned int>, std::_Select1st<std::pair<const char *const, unsigned int> >, std::less<const char *> >::_Rb_tree_impl" = type { %"struct.std::_Rb_tree_key_compare", %"struct.std::_Rb_tree_header" }
%"struct.std::_Rb_tree_key_compare" = type { %"struct.std::less" }
%"struct.std::less" = type { i8 }
%"class.dealii::SmartPointer" = type { ptr, ptr }
%"class.dealii::SmartPointer.16" = type { ptr, ptr }
%"class.dealii::SparseMatrix" = type <{ ptr, %"class.dealii::SmartPointer.17", ptr, i32, [4 x i8], %"class.dealii::Subscriptor" }>
%"class.dealii::SmartPointer.17" = type { ptr, ptr }
%"class.dealii::SparsityPattern" = type <{ %"class.dealii::Subscriptor", i32, i32, i32, [4 x i8], i64, i32, [4 x i8], ptr, ptr, i8, i8, [6 x i8] }>
%"class.dealii::ProductSparseMatrix.18" = type { %"class.dealii::PointerMatrixBase.19", %"class.dealii::SmartPointer", %"class.dealii::SmartPointer", %"class.dealii::SmartPointer.20" }
%"class.dealii::PointerMatrixBase.19" = type { %"class.dealii::Subscriptor" }
%"class.dealii::SmartPointer.20" = type { ptr, ptr }
%"class.dealii::ProductSparseMatrix.23" = type { %"class.dealii::PointerMatrixBase", %"class.dealii::SmartPointer.24", %"class.dealii::SmartPointer.24", %"class.dealii::SmartPointer.16" }
%"class.dealii::SmartPointer.24" = type { ptr, ptr }
%"class.dealii::SparseMatrix.25" = type <{ ptr, %"class.dealii::SmartPointer.17", ptr, i32, [4 x i8], %"class.dealii::Subscriptor" }>
%"class.dealii::ProductSparseMatrix.27" = type { %"class.dealii::PointerMatrixBase.19", %"class.dealii::SmartPointer.24", %"class.dealii::SmartPointer.24", %"class.dealii::SmartPointer.20" }
%"class.dealii::Vector.22" = type { %"class.dealii::Subscriptor", i32, i32, ptr }
%"class.dealii::Vector" = type { %"class.dealii::Subscriptor", i32, i32, ptr }
%"class.dealii::BlockVectorBase" = type { %"class.dealii::Subscriptor", %"class.std::vector", %"class.dealii::BlockIndices" }
%"class.std::vector" = type { %"struct.std::_Vector_base" }
%"struct.std::_Vector_base" = type { %"struct.std::_Vector_base<dealii::Vector<float>, std::allocator<dealii::Vector<float> > >::_Vector_impl" }
%"struct.std::_Vector_base<dealii::Vector<float>, std::allocator<dealii::Vector<float> > >::_Vector_impl" = type { %"struct.std::_Vector_base<dealii::Vector<float>, std::allocator<dealii::Vector<float> > >::_Vector_impl_data" }
%"struct.std::_Vector_base<dealii::Vector<float>, std::allocator<dealii::Vector<float> > >::_Vector_impl_data" = type { ptr, ptr, ptr }
%"class.dealii::BlockIndices" = type { i32, %"class.std::vector.31" }
%"class.std::vector.31" = type { %"struct.std::_Vector_base.32" }
%"struct.std::_Vector_base.32" = type { %"struct.std::_Vector_base<unsigned int, std::allocator<unsigned int> >::_Vector_impl" }
%"struct.std::_Vector_base<unsigned int, std::allocator<unsigned int> >::_Vector_impl" = type { %"struct.std::_Vector_base<unsigned int, std::allocator<unsigned int> >::_Vector_impl_data" }
%"struct.std::_Vector_base<unsigned int, std::allocator<unsigned int> >::_Vector_impl_data" = type { ptr, ptr, ptr }
%"class.dealii::MeanValueFilter" = type <{ %"class.dealii::Subscriptor", i32, [4 x i8] }>
%"class.dealii::BlockVectorBase.37" = type { %"class.dealii::Subscriptor", %"class.std::vector.38", %"class.dealii::BlockIndices" }
%"class.std::vector.38" = type { %"struct.std::_Vector_base.39" }
%"struct.std::_Vector_base.39" = type { %"struct.std::_Vector_base<dealii::Vector<double>, std::allocator<dealii::Vector<double> > >::_Vector_impl" }
%"struct.std::_Vector_base<dealii::Vector<double>, std::allocator<dealii::Vector<double> > >::_Vector_impl" = type { %"struct.std::_Vector_base<dealii::Vector<double>, std::allocator<dealii::Vector<double> > >::_Vector_impl_data" }
%"struct.std::_Vector_base<dealii::Vector<double>, std::allocator<dealii::Vector<double> > >::_Vector_impl_data" = type { ptr, ptr, ptr }
%"struct.dealii::SolverRichardson<dealii::Vector<float> >::AdditionalData" = type <{ double, i8, [7 x i8] }>
%"class.dealii::InverseMatrixRichardson" = type { %"class.dealii::Subscriptor", ptr, %"class.dealii::SolverRichardson", ptr, ptr }
%"class.dealii::SolverRichardson" = type <{ %"class.dealii::Solver", ptr, ptr, %"struct.dealii::SolverRichardson<dealii::Vector<float> >::AdditionalData", float, [4 x i8] }>
%"class.dealii::Solver" = type { %"class.dealii::Subscriptor", %"class.dealii::GrowingVectorMemory", ptr, ptr }
%"class.dealii::GrowingVectorMemory" = type <{ %"class.dealii::VectorMemory.21", i32, i32, i8, [7 x i8] }>
%"class.dealii::VectorMemory.21" = type { %"class.dealii::Subscriptor" }
%"class.std::__cxx11::basic_string" = type { %"struct.std::__cxx11::basic_string<char>::_Alloc_hider", i64, %union.anon }
%"struct.std::__cxx11::basic_string<char>::_Alloc_hider" = type { ptr }
%union.anon = type { i64, [8 x i8] }
%"struct.dealii::SolverRichardson<>::AdditionalData" = type <{ double, i8, [7 x i8] }>
%"class.dealii::InverseMatrixRichardson.48" = type { %"class.dealii::Subscriptor", ptr, %"class.dealii::SolverRichardson.49", ptr, ptr }
%"class.dealii::SolverRichardson.49" = type { %"class.dealii::Solver.50", ptr, ptr, %"struct.dealii::SolverRichardson<>::AdditionalData", double }
%"class.dealii::Solver.50" = type { %"class.dealii::Subscriptor", %"class.dealii::GrowingVectorMemory.51", ptr, ptr }
%"class.dealii::GrowingVectorMemory.51" = type <{ %"class.dealii::VectorMemory", i32, i32, i8, [7 x i8] }>
%"class.dealii::VectorMemory" = type { %"class.dealii::Subscriptor" }
%"struct.dealii::SolverRichardson<dealii::BlockVector<float> >::AdditionalData" = type <{ double, i8, [7 x i8] }>
%"class.dealii::InverseMatrixRichardson.53" = type { %"class.dealii::Subscriptor", ptr, %"class.dealii::SolverRichardson.54", ptr, ptr }
%"class.dealii::SolverRichardson.54" = type <{ %"class.dealii::Solver.55", ptr, ptr, %"struct.dealii::SolverRichardson<dealii::BlockVector<float> >::AdditionalData", float, [4 x i8] }>
%"class.dealii::Solver.55" = type { %"class.dealii::Subscriptor", %"class.dealii::GrowingVectorMemory.56", ptr, ptr }
%"class.dealii::GrowingVectorMemory.56" = type <{ %"class.dealii::VectorMemory.57", i32, i32, i8, [7 x i8] }>
%"class.dealii::VectorMemory.57" = type { %"class.dealii::Subscriptor" }
%"struct.dealii::SolverRichardson<dealii::BlockVector<double> >::AdditionalData" = type <{ double, i8, [7 x i8] }>
%"class.dealii::InverseMatrixRichardson.61" = type { %"class.dealii::Subscriptor", ptr, %"class.dealii::SolverRichardson.62", ptr, ptr }
%"class.dealii::SolverRichardson.62" = type { %"class.dealii::Solver.63", ptr, ptr, %"struct.dealii::SolverRichardson<dealii::BlockVector<double> >::AdditionalData", double }
%"class.dealii::Solver.63" = type { %"class.dealii::Subscriptor", %"class.dealii::GrowingVectorMemory.64", ptr, ptr }
%"class.dealii::GrowingVectorMemory.64" = type <{ %"class.dealii::VectorMemory.65", i32, i32, i8, [7 x i8] }>
%"class.dealii::VectorMemory.65" = type { %"class.dealii::Subscriptor" }
%"class.dealii::StandardExceptions::ExcMemoryLeak" = type { %"class.dealii::ExceptionBase.base", i32 }
%"class.dealii::ExceptionBase.base" = type <{ %"class.std::exception", ptr, i32, [4 x i8], ptr, ptr, ptr, ptr, i32 }>
%"class.std::exception" = type { ptr }
%"struct.std::_Vector_base<std::pair<bool, dealii::Vector<float> *>, std::allocator<std::pair<bool, dealii::Vector<float> *> > >::_Vector_impl_data" = type { ptr, ptr, ptr }
%"struct.std::pair" = type { i8, ptr }
%"class.std::basic_ios" = type { %"class.std::ios_base", ptr, i8, i8, ptr, ptr, ptr, ptr }
%"class.std::ios_base" = type { ptr, i64, i64, i32, i32, i32, ptr, %"struct.std::ios_base::_Words", [8 x %"struct.std::ios_base::_Words"], i32, ptr, %"class.std::locale" }
%"struct.std::ios_base::_Words" = type { ptr, i64 }
%"class.std::locale" = type { ptr }
%"class.std::ctype" = type <{ %"class.std::locale::facet.base", [4 x i8], ptr, i8, [7 x i8], ptr, ptr, ptr, i8, [256 x i8], [256 x i8], i8, [6 x i8] }>
%"class.std::locale::facet.base" = type <{ ptr, i32 }>
%"struct.std::_Vector_base<std::pair<bool, dealii::Vector<double> *>, std::allocator<std::pair<bool, dealii::Vector<double> *> > >::_Vector_impl_data" = type { ptr, ptr, ptr }
%"struct.std::pair.92" = type { i8, ptr }
%"struct.std::_Vector_base<std::pair<bool, dealii::BlockVector<float> *>, std::allocator<std::pair<bool, dealii::BlockVector<float> *> > >::_Vector_impl_data" = type { ptr, ptr, ptr }
%"struct.std::pair.100" = type { i8, ptr }
%"struct.std::_Vector_base<std::pair<bool, dealii::BlockVector<double> *>, std::allocator<std::pair<bool, dealii::BlockVector<double> *> > >::_Vector_impl_data" = type { ptr, ptr, ptr }
%"struct.std::pair.108" = type { i8, ptr }

$_ZN6dealii19ProductSparseMatrixIddEC5ERKNS_12SparseMatrixIdEES5_RNS_12VectorMemoryINS_6VectorIdEEEE = comdat any

$__clang_call_terminate = comdat any

$_ZN6dealii19ProductSparseMatrixIddEC5Ev = comdat any

$_ZN6dealii19ProductSparseMatrixIddE10initializeERKNS_12SparseMatrixIdEES5_RNS_12VectorMemoryINS_6VectorIdEEEE = comdat any

$_ZN6dealii19ProductSparseMatrixIddE5clearEv = comdat any

$_ZNK6dealii19ProductSparseMatrixIddE5vmultERNS_6VectorIdEERKS3_ = comdat any

$_ZNK6dealii19ProductSparseMatrixIddE6TvmultERNS_6VectorIdEERKS3_ = comdat any

$_ZNK6dealii19ProductSparseMatrixIddE9vmult_addERNS_6VectorIdEERKS3_ = comdat any

$_ZNK6dealii19ProductSparseMatrixIddE10Tvmult_addERNS_6VectorIdEERKS3_ = comdat any

$_ZNK6dealii19ProductSparseMatrixIddE3getEv = comdat any

$_ZN6dealii19ProductSparseMatrixIdfEC5ERKNS_12SparseMatrixIdEES5_RNS_12VectorMemoryINS_6VectorIfEEEE = comdat any

$_ZN6dealii19ProductSparseMatrixIdfEC5Ev = comdat any

$_ZN6dealii19ProductSparseMatrixIdfE10initializeERKNS_12SparseMatrixIdEES5_RNS_12VectorMemoryINS_6VectorIfEEEE = comdat any

$_ZN6dealii19ProductSparseMatrixIdfE5clearEv = comdat any

$_ZNK6dealii19ProductSparseMatrixIdfE5vmultERNS_6VectorIfEERKS3_ = comdat any

$_ZNK6dealii19ProductSparseMatrixIdfE6TvmultERNS_6VectorIfEERKS3_ = comdat any

$_ZNK6dealii19ProductSparseMatrixIdfE9vmult_addERNS_6VectorIfEERKS3_ = comdat any

$_ZNK6dealii19ProductSparseMatrixIdfE10Tvmult_addERNS_6VectorIfEERKS3_ = comdat any

$_ZNK6dealii19ProductSparseMatrixIdfE3getEv = comdat any

$_ZN6dealii19ProductSparseMatrixIfdEC5ERKNS_12SparseMatrixIfEES5_RNS_12VectorMemoryINS_6VectorIdEEEE = comdat any

$_ZN6dealii19ProductSparseMatrixIfdEC5Ev = comdat any

$_ZN6dealii19ProductSparseMatrixIfdE10initializeERKNS_12SparseMatrixIfEES5_RNS_12VectorMemoryINS_6VectorIdEEEE = comdat any

$_ZN6dealii19ProductSparseMatrixIfdE5clearEv = comdat any

$_ZNK6dealii19ProductSparseMatrixIfdE5vmultERNS_6VectorIdEERKS3_ = comdat any

$_ZNK6dealii19ProductSparseMatrixIfdE6TvmultERNS_6VectorIdEERKS3_ = comdat any

$_ZNK6dealii19ProductSparseMatrixIfdE9vmult_addERNS_6VectorIdEERKS3_ = comdat any

$_ZNK6dealii19ProductSparseMatrixIfdE10Tvmult_addERNS_6VectorIdEERKS3_ = comdat any

$_ZNK6dealii19ProductSparseMatrixIfdE3getEv = comdat any

$_ZN6dealii19ProductSparseMatrixIffEC5ERKNS_12SparseMatrixIfEES5_RNS_12VectorMemoryINS_6VectorIfEEEE = comdat any

$_ZN6dealii19ProductSparseMatrixIffEC5Ev = comdat any

$_ZN6dealii19ProductSparseMatrixIffE10initializeERKNS_12SparseMatrixIfEES5_RNS_12VectorMemoryINS_6VectorIfEEEE = comdat any

$_ZN6dealii19ProductSparseMatrixIffE5clearEv = comdat any

$_ZNK6dealii19ProductSparseMatrixIffE5vmultERNS_6VectorIfEERKS3_ = comdat any

$_ZNK6dealii19ProductSparseMatrixIffE6TvmultERNS_6VectorIfEERKS3_ = comdat any

$_ZNK6dealii19ProductSparseMatrixIffE9vmult_addERNS_6VectorIfEERKS3_ = comdat any

$_ZNK6dealii19ProductSparseMatrixIffE10Tvmult_addERNS_6VectorIfEERKS3_ = comdat any

$_ZNK6dealii19ProductSparseMatrixIffE3getEv = comdat any

$_ZNK6dealii15MeanValueFilter6filterIfEEvRNS_6VectorIT_EE = comdat any

$_ZNK6dealii15MeanValueFilter6filterIdEEvRNS_6VectorIT_EE = comdat any

$_ZNK6dealii15MeanValueFilter6filterIfEEvRNS_11BlockVectorIT_EE = comdat any

$_ZNK6dealii15MeanValueFilter5vmultIfEEvRNS_6VectorIT_EERKS4_ = comdat any

$_ZNK6dealii15MeanValueFilter6filterIdEEvRNS_11BlockVectorIT_EE = comdat any

$_ZNK6dealii15MeanValueFilter5vmultIdEEvRNS_6VectorIT_EERKS4_ = comdat any

$_ZNK6dealii15MeanValueFilter5vmultIfEEvRNS_11BlockVectorIT_EERKS4_ = comdat any

$_ZNK6dealii15MeanValueFilter5vmultIdEEvRNS_11BlockVectorIT_EERKS4_ = comdat any

$_ZNK6dealii15MeanValueFilter9vmult_addIfEEvRNS_6VectorIT_EERKS4_ = comdat any

$_ZNK6dealii15MeanValueFilter9vmult_addIdEEvRNS_6VectorIT_EERKS4_ = comdat any

$_ZNK6dealii15MeanValueFilter9vmult_addIfEEvRNS_11BlockVectorIT_EERKS4_ = comdat any

$_ZNK6dealii15MeanValueFilter9vmult_addIdEEvRNS_11BlockVectorIT_EERKS4_ = comdat any

$_ZN6dealii23InverseMatrixRichardsonINS_6VectorIfEEEC5ERNS_13SolverControlERNS_12VectorMemoryIS2_EE = comdat any

$_ZN6dealii16SolverRichardsonINS_6VectorIfEEEC2ERNS_13SolverControlERNS_12VectorMemoryIS2_EERKNS3_14AdditionalDataE = comdat any

$_ZN6dealii23InverseMatrixRichardsonINS_6VectorIfEEED5Ev = comdat any

$_ZN6dealii6SolverINS_6VectorIfEEED2Ev = comdat any

$_ZNK6dealii23InverseMatrixRichardsonINS_6VectorIfEEE5vmultERS2_RKS2_ = comdat any

$_ZN6dealii16SolverRichardsonINS_6VectorIfEEE5solveINS_17PointerMatrixBaseIS2_EES6_EEvRKT_RS2_RKS2_RKT0_ = comdat any

$_ZNK6dealii23InverseMatrixRichardsonINS_6VectorIfEEE9vmult_addERS2_RKS2_ = comdat any

$_ZNK6dealii23InverseMatrixRichardsonINS_6VectorIfEEE6TvmultERS2_RKS2_ = comdat any

$_ZN6dealii16SolverRichardsonINS_6VectorIfEEE6TsolveINS_17PointerMatrixBaseIS2_EES6_EEvRKT_RS2_RKS2_RKT0_ = comdat any

$_ZNK6dealii23InverseMatrixRichardsonINS_6VectorIfEEE10Tvmult_addERS2_RKS2_ = comdat any

$_ZN6dealii23InverseMatrixRichardsonINS_6VectorIdEEEC5ERNS_13SolverControlERNS_12VectorMemoryIS2_EE = comdat any

$_ZN6dealii16SolverRichardsonINS_6VectorIdEEEC2ERNS_13SolverControlERNS_12VectorMemoryIS2_EERKNS3_14AdditionalDataE = comdat any

$_ZN6dealii23InverseMatrixRichardsonINS_6VectorIdEEED5Ev = comdat any

$_ZN6dealii6SolverINS_6VectorIdEEED2Ev = comdat any

$_ZNK6dealii23InverseMatrixRichardsonINS_6VectorIdEEE5vmultERS2_RKS2_ = comdat any

$_ZN6dealii16SolverRichardsonINS_6VectorIdEEE5solveINS_17PointerMatrixBaseIS2_EES6_EEvRKT_RS2_RKS2_RKT0_ = comdat any

$_ZNK6dealii23InverseMatrixRichardsonINS_6VectorIdEEE9vmult_addERS2_RKS2_ = comdat any

$_ZNK6dealii23InverseMatrixRichardsonINS_6VectorIdEEE6TvmultERS2_RKS2_ = comdat any

$_ZN6dealii16SolverRichardsonINS_6VectorIdEEE6TsolveINS_17PointerMatrixBaseIS2_EES6_EEvRKT_RS2_RKS2_RKT0_ = comdat any

$_ZNK6dealii23InverseMatrixRichardsonINS_6VectorIdEEE10Tvmult_addERS2_RKS2_ = comdat any

$_ZN6dealii23InverseMatrixRichardsonINS_11BlockVectorIfEEEC5ERNS_13SolverControlERNS_12VectorMemoryIS2_EE = comdat any

$_ZN6dealii16SolverRichardsonINS_11BlockVectorIfEEEC2ERNS_13SolverControlERNS_12VectorMemoryIS2_EERKNS3_14AdditionalDataE = comdat any

$_ZN6dealii23InverseMatrixRichardsonINS_11BlockVectorIfEEED5Ev = comdat any

$_ZN6dealii6SolverINS_11BlockVectorIfEEED2Ev = comdat any

$_ZNK6dealii23InverseMatrixRichardsonINS_11BlockVectorIfEEE5vmultERS2_RKS2_ = comdat any

$_ZN6dealii16SolverRichardsonINS_11BlockVectorIfEEE5solveINS_17PointerMatrixBaseIS2_EES6_EEvRKT_RS2_RKS2_RKT0_ = comdat any

$_ZNK6dealii23InverseMatrixRichardsonINS_11BlockVectorIfEEE9vmult_addERS2_RKS2_ = comdat any

$_ZNK6dealii23InverseMatrixRichardsonINS_11BlockVectorIfEEE6TvmultERS2_RKS2_ = comdat any

$_ZN6dealii16SolverRichardsonINS_11BlockVectorIfEEE6TsolveINS_17PointerMatrixBaseIS2_EES6_EEvRKT_RS2_RKS2_RKT0_ = comdat any

$_ZNK6dealii23InverseMatrixRichardsonINS_11BlockVectorIfEEE10Tvmult_addERS2_RKS2_ = comdat any

$_ZN6dealii23InverseMatrixRichardsonINS_11BlockVectorIdEEEC5ERNS_13SolverControlERNS_12VectorMemoryIS2_EE = comdat any

$_ZN6dealii16SolverRichardsonINS_11BlockVectorIdEEEC2ERNS_13SolverControlERNS_12VectorMemoryIS2_EERKNS3_14AdditionalDataE = comdat any

$_ZN6dealii23InverseMatrixRichardsonINS_11BlockVectorIdEEED5Ev = comdat any

$_ZN6dealii6SolverINS_11BlockVectorIdEEED2Ev = comdat any

$_ZNK6dealii23InverseMatrixRichardsonINS_11BlockVectorIdEEE5vmultERS2_RKS2_ = comdat any

$_ZN6dealii16SolverRichardsonINS_11BlockVectorIdEEE5solveINS_17PointerMatrixBaseIS2_EES6_EEvRKT_RS2_RKS2_RKT0_ = comdat any

$_ZNK6dealii23InverseMatrixRichardsonINS_11BlockVectorIdEEE9vmult_addERS2_RKS2_ = comdat any

$_ZNK6dealii23InverseMatrixRichardsonINS_11BlockVectorIdEEE6TvmultERS2_RKS2_ = comdat any

$_ZN6dealii16SolverRichardsonINS_11BlockVectorIdEEE6TsolveINS_17PointerMatrixBaseIS2_EES6_EEvRKT_RS2_RKS2_RKT0_ = comdat any

$_ZNK6dealii23InverseMatrixRichardsonINS_11BlockVectorIdEEE10Tvmult_addERS2_RKS2_ = comdat any

$_ZN6dealii19ProductSparseMatrixIddED2Ev = comdat any

$_ZN6dealii19ProductSparseMatrixIddED0Ev = comdat any

$_ZN6dealii19ProductSparseMatrixIdfED2Ev = comdat any

$_ZN6dealii19ProductSparseMatrixIdfED0Ev = comdat any

$_ZN6dealii19ProductSparseMatrixIfdED2Ev = comdat any

$_ZN6dealii19ProductSparseMatrixIfdED0Ev = comdat any

$_ZN6dealii19ProductSparseMatrixIffED2Ev = comdat any

$_ZN6dealii19ProductSparseMatrixIffED0Ev = comdat any

$_ZN6dealii15MeanValueFilterD0Ev = comdat any

$_ZN6dealii16SolverRichardsonINS_6VectorIfEEED0Ev = comdat any

$_ZNK6dealii16SolverRichardsonINS_6VectorIfEEE13print_vectorsEjRKS2_S5_S5_ = comdat any

$_ZN6dealii16SolverRichardsonINS_6VectorIfEEE9criterionEv = comdat any

$_ZN6dealii6SolverINS_6VectorIfEEED0Ev = comdat any

$_ZN6dealii19GrowingVectorMemoryINS_6VectorIfEEED2Ev = comdat any

$_ZN6dealii19GrowingVectorMemoryINS_6VectorIfEEED0Ev = comdat any

$_ZN6dealii19GrowingVectorMemoryINS_6VectorIfEEE5allocEv = comdat any

$_ZN6dealii19GrowingVectorMemoryINS_6VectorIfEEE4freeEPKS2_ = comdat any

$_ZN6dealii6VectorIfED2Ev = comdat any

$_ZN6dealii6VectorIfED0Ev = comdat any

$_ZN6dealii6VectorIfE6reinitEjb = comdat any

$_ZN6dealii6VectorIfE4swapERS1_ = comdat any

$_ZN6dealii18StandardExceptions13ExcMemoryLeakD0Ev = comdat any

$_ZNK6dealii18StandardExceptions13ExcMemoryLeak10print_infoERSo = comdat any

$_ZN6dealii16SolverRichardsonINS_6VectorIdEEED0Ev = comdat any

$_ZNK6dealii16SolverRichardsonINS_6VectorIdEEE13print_vectorsEjRKS2_S5_S5_ = comdat any

$_ZN6dealii16SolverRichardsonINS_6VectorIdEEE9criterionEv = comdat any

$_ZN6dealii6SolverINS_6VectorIdEEED0Ev = comdat any

$_ZN6dealii19GrowingVectorMemoryINS_6VectorIdEEED2Ev = comdat any

$_ZN6dealii19GrowingVectorMemoryINS_6VectorIdEEED0Ev = comdat any

$_ZN6dealii19GrowingVectorMemoryINS_6VectorIdEEE5allocEv = comdat any

$_ZN6dealii19GrowingVectorMemoryINS_6VectorIdEEE4freeEPKS2_ = comdat any

$_ZN6dealii6VectorIdED2Ev = comdat any

$_ZN6dealii6VectorIdED0Ev = comdat any

$_ZN6dealii6VectorIdE6reinitEjb = comdat any

$_ZN6dealii6VectorIdE4swapERS1_ = comdat any

$_ZN6dealii16SolverRichardsonINS_11BlockVectorIfEEED0Ev = comdat any

$_ZNK6dealii16SolverRichardsonINS_11BlockVectorIfEEE13print_vectorsEjRKS2_S5_S5_ = comdat any

$_ZN6dealii16SolverRichardsonINS_11BlockVectorIfEEE9criterionEv = comdat any

$_ZN6dealii6SolverINS_11BlockVectorIfEEED0Ev = comdat any

$_ZN6dealii19GrowingVectorMemoryINS_11BlockVectorIfEEED2Ev = comdat any

$_ZN6dealii19GrowingVectorMemoryINS_11BlockVectorIfEEED0Ev = comdat any

$_ZN6dealii19GrowingVectorMemoryINS_11BlockVectorIfEEE5allocEv = comdat any

$_ZN6dealii19GrowingVectorMemoryINS_11BlockVectorIfEEE4freeEPKS2_ = comdat any

$_ZN6dealii16SolverRichardsonINS_11BlockVectorIdEEED0Ev = comdat any

$_ZNK6dealii16SolverRichardsonINS_11BlockVectorIdEEE13print_vectorsEjRKS2_S5_S5_ = comdat any

$_ZN6dealii16SolverRichardsonINS_11BlockVectorIdEEE9criterionEv = comdat any

$_ZN6dealii6SolverINS_11BlockVectorIdEEED0Ev = comdat any

$_ZN6dealii19GrowingVectorMemoryINS_11BlockVectorIdEEED2Ev = comdat any

$_ZN6dealii19GrowingVectorMemoryINS_11BlockVectorIdEEED0Ev = comdat any

$_ZN6dealii19GrowingVectorMemoryINS_11BlockVectorIdEEE5allocEv = comdat any

$_ZN6dealii19GrowingVectorMemoryINS_11BlockVectorIdEEE4freeEPKS2_ = comdat any

$_ZTVN6dealii19ProductSparseMatrixIddEE = comdat any

$_ZTVN6dealii19ProductSparseMatrixIdfEE = comdat any

$_ZTVN6dealii19ProductSparseMatrixIfdEE = comdat any

$_ZTVN6dealii19ProductSparseMatrixIffEE = comdat any

$_ZTVN6dealii23InverseMatrixRichardsonINS_6VectorIfEEEE = comdat any

$_ZTVN6dealii23InverseMatrixRichardsonINS_6VectorIdEEEE = comdat any

$_ZTVN6dealii23InverseMatrixRichardsonINS_11BlockVectorIfEEEE = comdat any

$_ZTVN6dealii23InverseMatrixRichardsonINS_11BlockVectorIdEEEE = comdat any

$_ZTVN6dealii15MeanValueFilterE = comdat any

$_ZTSN6dealii19ProductSparseMatrixIddEE = comdat any

$_ZTSN6dealii17PointerMatrixBaseINS_6VectorIdEEEE = comdat any

$_ZTIN6dealii17PointerMatrixBaseINS_6VectorIdEEEE = comdat any

$_ZTIN6dealii19ProductSparseMatrixIddEE = comdat any

$_ZTSN6dealii19ProductSparseMatrixIdfEE = comdat any

$_ZTSN6dealii17PointerMatrixBaseINS_6VectorIfEEEE = comdat any

$_ZTIN6dealii17PointerMatrixBaseINS_6VectorIfEEEE = comdat any

$_ZTIN6dealii19ProductSparseMatrixIdfEE = comdat any

$_ZTSN6dealii19ProductSparseMatrixIfdEE = comdat any

$_ZTIN6dealii19ProductSparseMatrixIfdEE = comdat any

$_ZTSN6dealii19ProductSparseMatrixIffEE = comdat any

$_ZTIN6dealii19ProductSparseMatrixIffEE = comdat any

$_ZTSN6dealii23InverseMatrixRichardsonINS_6VectorIfEEEE = comdat any

$_ZTIN6dealii23InverseMatrixRichardsonINS_6VectorIfEEEE = comdat any

$_ZTSN6dealii23InverseMatrixRichardsonINS_6VectorIdEEEE = comdat any

$_ZTIN6dealii23InverseMatrixRichardsonINS_6VectorIdEEEE = comdat any

$_ZTSN6dealii23InverseMatrixRichardsonINS_11BlockVectorIfEEEE = comdat any

$_ZTIN6dealii23InverseMatrixRichardsonINS_11BlockVectorIfEEEE = comdat any

$_ZTSN6dealii23InverseMatrixRichardsonINS_11BlockVectorIdEEEE = comdat any

$_ZTIN6dealii23InverseMatrixRichardsonINS_11BlockVectorIdEEEE = comdat any

$_ZTSN6dealii15MeanValueFilterE = comdat any

$_ZTIN6dealii15MeanValueFilterE = comdat any

$_ZTVN6dealii16SolverRichardsonINS_6VectorIfEEEE = comdat any

$_ZTSN6dealii16SolverRichardsonINS_6VectorIfEEEE = comdat any

$_ZTSN6dealii6SolverINS_6VectorIfEEEE = comdat any

$_ZTIN6dealii6SolverINS_6VectorIfEEEE = comdat any

$_ZTIN6dealii16SolverRichardsonINS_6VectorIfEEEE = comdat any

$_ZTVN6dealii6SolverINS_6VectorIfEEEE = comdat any

$_ZTVN6dealii19GrowingVectorMemoryINS_6VectorIfEEEE = comdat any

$_ZTSN6dealii19GrowingVectorMemoryINS_6VectorIfEEEE = comdat any

$_ZTSN6dealii12VectorMemoryINS_6VectorIfEEEE = comdat any

$_ZTIN6dealii12VectorMemoryINS_6VectorIfEEEE = comdat any

$_ZTIN6dealii19GrowingVectorMemoryINS_6VectorIfEEEE = comdat any

$_ZTVN6dealii6VectorIfEE = comdat any

$_ZTSN6dealii6VectorIfEE = comdat any

$_ZTIN6dealii6VectorIfEE = comdat any

$_ZTSN6dealii18StandardExceptions13ExcMemoryLeakE = comdat any

$_ZTIN6dealii18StandardExceptions13ExcMemoryLeakE = comdat any

$_ZTVN6dealii18StandardExceptions13ExcMemoryLeakE = comdat any

$_ZTVN6dealii16SolverRichardsonINS_6VectorIdEEEE = comdat any

$_ZTSN6dealii16SolverRichardsonINS_6VectorIdEEEE = comdat any

$_ZTSN6dealii6SolverINS_6VectorIdEEEE = comdat any

$_ZTIN6dealii6SolverINS_6VectorIdEEEE = comdat any

$_ZTIN6dealii16SolverRichardsonINS_6VectorIdEEEE = comdat any

$_ZTVN6dealii6SolverINS_6VectorIdEEEE = comdat any

$_ZTVN6dealii19GrowingVectorMemoryINS_6VectorIdEEEE = comdat any

$_ZTSN6dealii19GrowingVectorMemoryINS_6VectorIdEEEE = comdat any

$_ZTSN6dealii12VectorMemoryINS_6VectorIdEEEE = comdat any

$_ZTIN6dealii12VectorMemoryINS_6VectorIdEEEE = comdat any

$_ZTIN6dealii19GrowingVectorMemoryINS_6VectorIdEEEE = comdat any

$_ZTVN6dealii6VectorIdEE = comdat any

$_ZTSN6dealii6VectorIdEE = comdat any

$_ZTIN6dealii6VectorIdEE = comdat any

$_ZTVN6dealii16SolverRichardsonINS_11BlockVectorIfEEEE = comdat any

$_ZTSN6dealii16SolverRichardsonINS_11BlockVectorIfEEEE = comdat any

$_ZTSN6dealii6SolverINS_11BlockVectorIfEEEE = comdat any

$_ZTIN6dealii6SolverINS_11BlockVectorIfEEEE = comdat any

$_ZTIN6dealii16SolverRichardsonINS_11BlockVectorIfEEEE = comdat any

$_ZTVN6dealii6SolverINS_11BlockVectorIfEEEE = comdat any

$_ZTVN6dealii19GrowingVectorMemoryINS_11BlockVectorIfEEEE = comdat any

$_ZTSN6dealii19GrowingVectorMemoryINS_11BlockVectorIfEEEE = comdat any

$_ZTSN6dealii12VectorMemoryINS_11BlockVectorIfEEEE = comdat any

$_ZTIN6dealii12VectorMemoryINS_11BlockVectorIfEEEE = comdat any

$_ZTIN6dealii19GrowingVectorMemoryINS_11BlockVectorIfEEEE = comdat any

$_ZTVN6dealii16SolverRichardsonINS_11BlockVectorIdEEEE = comdat any

$_ZTSN6dealii16SolverRichardsonINS_11BlockVectorIdEEEE = comdat any

$_ZTSN6dealii6SolverINS_11BlockVectorIdEEEE = comdat any

$_ZTIN6dealii6SolverINS_11BlockVectorIdEEEE = comdat any

$_ZTIN6dealii16SolverRichardsonINS_11BlockVectorIdEEEE = comdat any

$_ZTVN6dealii6SolverINS_11BlockVectorIdEEEE = comdat any

$_ZTVN6dealii19GrowingVectorMemoryINS_11BlockVectorIdEEEE = comdat any

$_ZTSN6dealii19GrowingVectorMemoryINS_11BlockVectorIdEEEE = comdat any

$_ZTSN6dealii12VectorMemoryINS_11BlockVectorIdEEEE = comdat any

$_ZTIN6dealii12VectorMemoryINS_11BlockVectorIdEEEE = comdat any

$_ZTIN6dealii19GrowingVectorMemoryINS_11BlockVectorIdEEEE = comdat any

@_ZTVN6dealii19ProductSparseMatrixIddEE = weak_odr dso_local unnamed_addr constant { [10 x ptr] } { [10 x ptr] [ptr null, ptr @_ZTIN6dealii19ProductSparseMatrixIddEE, ptr @_ZN6dealii19ProductSparseMatrixIddED2Ev, ptr @_ZN6dealii19ProductSparseMatrixIddED0Ev, ptr @_ZN6dealii19ProductSparseMatrixIddE5clearEv, ptr @_ZNK6dealii19ProductSparseMatrixIddE5vmultERNS_6VectorIdEERKS3_, ptr @_ZNK6dealii19ProductSparseMatrixIddE6TvmultERNS_6VectorIdEERKS3_, ptr @_ZNK6dealii19ProductSparseMatrixIddE9vmult_addERNS_6VectorIdEERKS3_, ptr @_ZNK6dealii19ProductSparseMatrixIddE10Tvmult_addERNS_6VectorIdEERKS3_, ptr @_ZNK6dealii19ProductSparseMatrixIddE3getEv] }, comdat, align 8
@_ZTVN6dealii19ProductSparseMatrixIdfEE = weak_odr dso_local unnamed_addr constant { [10 x ptr] } { [10 x ptr] [ptr null, ptr @_ZTIN6dealii19ProductSparseMatrixIdfEE, ptr @_ZN6dealii19ProductSparseMatrixIdfED2Ev, ptr @_ZN6dealii19ProductSparseMatrixIdfED0Ev, ptr @_ZN6dealii19ProductSparseMatrixIdfE5clearEv, ptr @_ZNK6dealii19ProductSparseMatrixIdfE5vmultERNS_6VectorIfEERKS3_, ptr @_ZNK6dealii19ProductSparseMatrixIdfE6TvmultERNS_6VectorIfEERKS3_, ptr @_ZNK6dealii19ProductSparseMatrixIdfE9vmult_addERNS_6VectorIfEERKS3_, ptr @_ZNK6dealii19ProductSparseMatrixIdfE10Tvmult_addERNS_6VectorIfEERKS3_, ptr @_ZNK6dealii19ProductSparseMatrixIdfE3getEv] }, comdat, align 8
@_ZTVN6dealii19ProductSparseMatrixIfdEE = weak_odr dso_local unnamed_addr constant { [10 x ptr] } { [10 x ptr] [ptr null, ptr @_ZTIN6dealii19ProductSparseMatrixIfdEE, ptr @_ZN6dealii19ProductSparseMatrixIfdED2Ev, ptr @_ZN6dealii19ProductSparseMatrixIfdED0Ev, ptr @_ZN6dealii19ProductSparseMatrixIfdE5clearEv, ptr @_ZNK6dealii19ProductSparseMatrixIfdE5vmultERNS_6VectorIdEERKS3_, ptr @_ZNK6dealii19ProductSparseMatrixIfdE6TvmultERNS_6VectorIdEERKS3_, ptr @_ZNK6dealii19ProductSparseMatrixIfdE9vmult_addERNS_6VectorIdEERKS3_, ptr @_ZNK6dealii19ProductSparseMatrixIfdE10Tvmult_addERNS_6VectorIdEERKS3_, ptr @_ZNK6dealii19ProductSparseMatrixIfdE3getEv] }, comdat, align 8
@_ZTVN6dealii19ProductSparseMatrixIffEE = weak_odr dso_local unnamed_addr constant { [10 x ptr] } { [10 x ptr] [ptr null, ptr @_ZTIN6dealii19ProductSparseMatrixIffEE, ptr @_ZN6dealii19ProductSparseMatrixIffED2Ev, ptr @_ZN6dealii19ProductSparseMatrixIffED0Ev, ptr @_ZN6dealii19ProductSparseMatrixIffE5clearEv, ptr @_ZNK6dealii19ProductSparseMatrixIffE5vmultERNS_6VectorIfEERKS3_, ptr @_ZNK6dealii19ProductSparseMatrixIffE6TvmultERNS_6VectorIfEERKS3_, ptr @_ZNK6dealii19ProductSparseMatrixIffE9vmult_addERNS_6VectorIfEERKS3_, ptr @_ZNK6dealii19ProductSparseMatrixIffE10Tvmult_addERNS_6VectorIfEERKS3_, ptr @_ZNK6dealii19ProductSparseMatrixIffE3getEv] }, comdat, align 8
@_ZTVN6dealii23InverseMatrixRichardsonINS_6VectorIfEEEE = weak_odr dso_local unnamed_addr constant { [4 x ptr] } { [4 x ptr] [ptr null, ptr @_ZTIN6dealii23InverseMatrixRichardsonINS_6VectorIfEEEE, ptr @_ZN6dealii23InverseMatrixRichardsonINS_6VectorIfEEED2Ev, ptr @_ZN6dealii23InverseMatrixRichardsonINS_6VectorIfEEED0Ev] }, comdat, align 8
@_ZTVN6dealii23InverseMatrixRichardsonINS_6VectorIdEEEE = weak_odr dso_local unnamed_addr constant { [4 x ptr] } { [4 x ptr] [ptr null, ptr @_ZTIN6dealii23InverseMatrixRichardsonINS_6VectorIdEEEE, ptr @_ZN6dealii23InverseMatrixRichardsonINS_6VectorIdEEED2Ev, ptr @_ZN6dealii23InverseMatrixRichardsonINS_6VectorIdEEED0Ev] }, comdat, align 8
@_ZTVN6dealii23InverseMatrixRichardsonINS_11BlockVectorIfEEEE = weak_odr dso_local unnamed_addr constant { [4 x ptr] } { [4 x ptr] [ptr null, ptr @_ZTIN6dealii23InverseMatrixRichardsonINS_11BlockVectorIfEEEE, ptr @_ZN6dealii23InverseMatrixRichardsonINS_11BlockVectorIfEEED2Ev, ptr @_ZN6dealii23InverseMatrixRichardsonINS_11BlockVectorIfEEED0Ev] }, comdat, align 8
@_ZTVN6dealii23InverseMatrixRichardsonINS_11BlockVectorIdEEEE = weak_odr dso_local unnamed_addr constant { [4 x ptr] } { [4 x ptr] [ptr null, ptr @_ZTIN6dealii23InverseMatrixRichardsonINS_11BlockVectorIdEEEE, ptr @_ZN6dealii23InverseMatrixRichardsonINS_11BlockVectorIdEEED2Ev, ptr @_ZN6dealii23InverseMatrixRichardsonINS_11BlockVectorIdEEED0Ev] }, comdat, align 8
@_ZTVN6dealii15MeanValueFilterE = linkonce_odr dso_local unnamed_addr constant { [4 x ptr] } { [4 x ptr] [ptr null, ptr @_ZTIN6dealii15MeanValueFilterE, ptr @_ZN6dealii11SubscriptorD2Ev, ptr @_ZN6dealii15MeanValueFilterD0Ev] }, comdat, align 8
@_ZTVN10__cxxabiv120__si_class_type_infoE = external global ptr
@_ZTSN6dealii19ProductSparseMatrixIddEE = weak_odr dso_local constant [35 x i8] c"N6dealii19ProductSparseMatrixIddEE\00", comdat, align 1
@_ZTSN6dealii17PointerMatrixBaseINS_6VectorIdEEEE = linkonce_odr dso_local constant [45 x i8] c"N6dealii17PointerMatrixBaseINS_6VectorIdEEEE\00", comdat, align 1
@_ZTIN6dealii11SubscriptorE = external constant ptr
@_ZTIN6dealii17PointerMatrixBaseINS_6VectorIdEEEE = linkonce_odr dso_local constant { ptr, ptr, ptr } { ptr getelementptr inbounds (ptr, ptr @_ZTVN10__cxxabiv120__si_class_type_infoE, i64 2), ptr @_ZTSN6dealii17PointerMatrixBaseINS_6VectorIdEEEE, ptr @_ZTIN6dealii11SubscriptorE }, comdat, align 8
@_ZTIN6dealii19ProductSparseMatrixIddEE = weak_odr dso_local constant { ptr, ptr, ptr } { ptr getelementptr inbounds (ptr, ptr @_ZTVN10__cxxabiv120__si_class_type_infoE, i64 2), ptr @_ZTSN6dealii19ProductSparseMatrixIddEE, ptr @_ZTIN6dealii17PointerMatrixBaseINS_6VectorIdEEEE }, comdat, align 8
@_ZTSN6dealii19ProductSparseMatrixIdfEE = weak_odr dso_local constant [35 x i8] c"N6dealii19ProductSparseMatrixIdfEE\00", comdat, align 1
@_ZTSN6dealii17PointerMatrixBaseINS_6VectorIfEEEE = linkonce_odr dso_local constant [45 x i8] c"N6dealii17PointerMatrixBaseINS_6VectorIfEEEE\00", comdat, align 1
@_ZTIN6dealii17PointerMatrixBaseINS_6VectorIfEEEE = linkonce_odr dso_local constant { ptr, ptr, ptr } { ptr getelementptr inbounds (ptr, ptr @_ZTVN10__cxxabiv120__si_class_type_infoE, i64 2), ptr @_ZTSN6dealii17PointerMatrixBaseINS_6VectorIfEEEE, ptr @_ZTIN6dealii11SubscriptorE }, comdat, align 8
@_ZTIN6dealii19ProductSparseMatrixIdfEE = weak_odr dso_local constant { ptr, ptr, ptr } { ptr getelementptr inbounds (ptr, ptr @_ZTVN10__cxxabiv120__si_class_type_infoE, i64 2), ptr @_ZTSN6dealii19ProductSparseMatrixIdfEE, ptr @_ZTIN6dealii17PointerMatrixBaseINS_6VectorIfEEEE }, comdat, align 8
@_ZTSN6dealii19ProductSparseMatrixIfdEE = weak_odr dso_local constant [35 x i8] c"N6dealii19ProductSparseMatrixIfdEE\00", comdat, align 1
@_ZTIN6dealii19ProductSparseMatrixIfdEE = weak_odr dso_local constant { ptr, ptr, ptr } { ptr getelementptr inbounds (ptr, ptr @_ZTVN10__cxxabiv120__si_class_type_infoE, i64 2), ptr @_ZTSN6dealii19ProductSparseMatrixIfdEE, ptr @_ZTIN6dealii17PointerMatrixBaseINS_6VectorIdEEEE }, comdat, align 8
@_ZTSN6dealii19ProductSparseMatrixIffEE = weak_odr dso_local constant [35 x i8] c"N6dealii19ProductSparseMatrixIffEE\00", comdat, align 1
@_ZTIN6dealii19ProductSparseMatrixIffEE = weak_odr dso_local constant { ptr, ptr, ptr } { ptr getelementptr inbounds (ptr, ptr @_ZTVN10__cxxabiv120__si_class_type_infoE, i64 2), ptr @_ZTSN6dealii19ProductSparseMatrixIffEE, ptr @_ZTIN6dealii17PointerMatrixBaseINS_6VectorIfEEEE }, comdat, align 8
@_ZTSN6dealii23InverseMatrixRichardsonINS_6VectorIfEEEE = weak_odr dso_local constant [51 x i8] c"N6dealii23InverseMatrixRichardsonINS_6VectorIfEEEE\00", comdat, align 1
@_ZTIN6dealii23InverseMatrixRichardsonINS_6VectorIfEEEE = weak_odr dso_local constant { ptr, ptr, ptr } { ptr getelementptr inbounds (ptr, ptr @_ZTVN10__cxxabiv120__si_class_type_infoE, i64 2), ptr @_ZTSN6dealii23InverseMatrixRichardsonINS_6VectorIfEEEE, ptr @_ZTIN6dealii11SubscriptorE }, comdat, align 8
@_ZTSN6dealii23InverseMatrixRichardsonINS_6VectorIdEEEE = weak_odr dso_local constant [51 x i8] c"N6dealii23InverseMatrixRichardsonINS_6VectorIdEEEE\00", comdat, align 1
@_ZTIN6dealii23InverseMatrixRichardsonINS_6VectorIdEEEE = weak_odr dso_local constant { ptr, ptr, ptr } { ptr getelementptr inbounds (ptr, ptr @_ZTVN10__cxxabiv120__si_class_type_infoE, i64 2), ptr @_ZTSN6dealii23InverseMatrixRichardsonINS_6VectorIdEEEE, ptr @_ZTIN6dealii11SubscriptorE }, comdat, align 8
@_ZTSN6dealii23InverseMatrixRichardsonINS_11BlockVectorIfEEEE = weak_odr dso_local constant [57 x i8] c"N6dealii23InverseMatrixRichardsonINS_11BlockVectorIfEEEE\00", comdat, align 1
@_ZTIN6dealii23InverseMatrixRichardsonINS_11BlockVectorIfEEEE = weak_odr dso_local constant { ptr, ptr, ptr } { ptr getelementptr inbounds (ptr, ptr @_ZTVN10__cxxabiv120__si_class_type_infoE, i64 2), ptr @_ZTSN6dealii23InverseMatrixRichardsonINS_11BlockVectorIfEEEE, ptr @_ZTIN6dealii11SubscriptorE }, comdat, align 8
@_ZTSN6dealii23InverseMatrixRichardsonINS_11BlockVectorIdEEEE = weak_odr dso_local constant [57 x i8] c"N6dealii23InverseMatrixRichardsonINS_11BlockVectorIdEEEE\00", comdat, align 1
@_ZTIN6dealii23InverseMatrixRichardsonINS_11BlockVectorIdEEEE = weak_odr dso_local constant { ptr, ptr, ptr } { ptr getelementptr inbounds (ptr, ptr @_ZTVN10__cxxabiv120__si_class_type_infoE, i64 2), ptr @_ZTSN6dealii23InverseMatrixRichardsonINS_11BlockVectorIdEEEE, ptr @_ZTIN6dealii11SubscriptorE }, comdat, align 8
@_ZTSN6dealii15MeanValueFilterE = linkonce_odr dso_local constant [27 x i8] c"N6dealii15MeanValueFilterE\00", comdat, align 1
@_ZTIN6dealii15MeanValueFilterE = linkonce_odr dso_local constant { ptr, ptr, ptr } { ptr getelementptr inbounds (ptr, ptr @_ZTVN10__cxxabiv120__si_class_type_infoE, i64 2), ptr @_ZTSN6dealii15MeanValueFilterE, ptr @_ZTIN6dealii11SubscriptorE }, comdat, align 8
@_ZTVN6dealii16SolverRichardsonINS_6VectorIfEEEE = linkonce_odr dso_local unnamed_addr constant { [6 x ptr] } { [6 x ptr] [ptr null, ptr @_ZTIN6dealii16SolverRichardsonINS_6VectorIfEEEE, ptr @_ZN6dealii6SolverINS_6VectorIfEEED2Ev, ptr @_ZN6dealii16SolverRichardsonINS_6VectorIfEEED0Ev, ptr @_ZNK6dealii16SolverRichardsonINS_6VectorIfEEE13print_vectorsEjRKS2_S5_S5_, ptr @_ZN6dealii16SolverRichardsonINS_6VectorIfEEE9criterionEv] }, comdat, align 8
@_ZTSN6dealii16SolverRichardsonINS_6VectorIfEEEE = linkonce_odr dso_local constant [44 x i8] c"N6dealii16SolverRichardsonINS_6VectorIfEEEE\00", comdat, align 1
@_ZTSN6dealii6SolverINS_6VectorIfEEEE = linkonce_odr dso_local constant [33 x i8] c"N6dealii6SolverINS_6VectorIfEEEE\00", comdat, align 1
@_ZTIN6dealii6SolverINS_6VectorIfEEEE = linkonce_odr dso_local constant { ptr, ptr, ptr } { ptr getelementptr inbounds (ptr, ptr @_ZTVN10__cxxabiv120__si_class_type_infoE, i64 2), ptr @_ZTSN6dealii6SolverINS_6VectorIfEEEE, ptr @_ZTIN6dealii11SubscriptorE }, comdat, align 8
@_ZTIN6dealii16SolverRichardsonINS_6VectorIfEEEE = linkonce_odr dso_local constant { ptr, ptr, ptr } { ptr getelementptr inbounds (ptr, ptr @_ZTVN10__cxxabiv120__si_class_type_infoE, i64 2), ptr @_ZTSN6dealii16SolverRichardsonINS_6VectorIfEEEE, ptr @_ZTIN6dealii6SolverINS_6VectorIfEEEE }, comdat, align 8
@_ZTVN6dealii6SolverINS_6VectorIfEEEE = linkonce_odr dso_local unnamed_addr constant { [4 x ptr] } { [4 x ptr] [ptr null, ptr @_ZTIN6dealii6SolverINS_6VectorIfEEEE, ptr @_ZN6dealii6SolverINS_6VectorIfEEED2Ev, ptr @_ZN6dealii6SolverINS_6VectorIfEEED0Ev] }, comdat, align 8
@_ZTVN6dealii19GrowingVectorMemoryINS_6VectorIfEEEE = linkonce_odr dso_local unnamed_addr constant { [6 x ptr] } { [6 x ptr] [ptr null, ptr @_ZTIN6dealii19GrowingVectorMemoryINS_6VectorIfEEEE, ptr @_ZN6dealii19GrowingVectorMemoryINS_6VectorIfEEED2Ev, ptr @_ZN6dealii19GrowingVectorMemoryINS_6VectorIfEEED0Ev, ptr @_ZN6dealii19GrowingVectorMemoryINS_6VectorIfEEE5allocEv, ptr @_ZN6dealii19GrowingVectorMemoryINS_6VectorIfEEE4freeEPKS2_] }, comdat, align 8
@_ZN6dealii19GrowingVectorMemoryINS_6VectorIfEEE4poolE = external local_unnamed_addr global %"struct.dealii::GrowingVectorMemory<dealii::Vector<float> >::Pool", align 8
@_ZTSN6dealii19GrowingVectorMemoryINS_6VectorIfEEEE = linkonce_odr dso_local constant [47 x i8] c"N6dealii19GrowingVectorMemoryINS_6VectorIfEEEE\00", comdat, align 1
@_ZTSN6dealii12VectorMemoryINS_6VectorIfEEEE = linkonce_odr dso_local constant [40 x i8] c"N6dealii12VectorMemoryINS_6VectorIfEEEE\00", comdat, align 1
@_ZTIN6dealii12VectorMemoryINS_6VectorIfEEEE = linkonce_odr dso_local constant { ptr, ptr, ptr } { ptr getelementptr inbounds (ptr, ptr @_ZTVN10__cxxabiv120__si_class_type_infoE, i64 2), ptr @_ZTSN6dealii12VectorMemoryINS_6VectorIfEEEE, ptr @_ZTIN6dealii11SubscriptorE }, comdat, align 8
@_ZTIN6dealii19GrowingVectorMemoryINS_6VectorIfEEEE = linkonce_odr dso_local constant { ptr, ptr, ptr } { ptr getelementptr inbounds (ptr, ptr @_ZTVN10__cxxabiv120__si_class_type_infoE, i64 2), ptr @_ZTSN6dealii19GrowingVectorMemoryINS_6VectorIfEEEE, ptr @_ZTIN6dealii12VectorMemoryINS_6VectorIfEEEE }, comdat, align 8
@_ZTVN6dealii6VectorIfEE = linkonce_odr dso_local unnamed_addr constant { [6 x ptr] } { [6 x ptr] [ptr null, ptr @_ZTIN6dealii6VectorIfEE, ptr @_ZN6dealii6VectorIfED2Ev, ptr @_ZN6dealii6VectorIfED0Ev, ptr @_ZN6dealii6VectorIfE6reinitEjb, ptr @_ZN6dealii6VectorIfE4swapERS1_] }, comdat, align 8
@_ZTSN6dealii6VectorIfEE = linkonce_odr dso_local constant [20 x i8] c"N6dealii6VectorIfEE\00", comdat, align 1
@_ZTIN6dealii6VectorIfEE = linkonce_odr dso_local constant { ptr, ptr, ptr } { ptr getelementptr inbounds (ptr, ptr @_ZTVN10__cxxabiv120__si_class_type_infoE, i64 2), ptr @_ZTSN6dealii6VectorIfEE, ptr @_ZTIN6dealii11SubscriptorE }, comdat, align 8
@.str.9 = private unnamed_addr constant [28 x i8] c"include/lac/vector_memory.h\00", align 1
@.str.10 = private unnamed_addr constant [1 x i8] zeroinitializer, align 1
@.str.11 = private unnamed_addr constant [19 x i8] c"current_alloc == 0\00", align 1
@.str.12 = private unnamed_addr constant [49 x i8] c"StandardExceptions::ExcMemoryLeak(current_alloc)\00", align 1
@_ZN6dealii7deallogE = external global %"class.dealii::LogStream", align 8
@.str.13 = private unnamed_addr constant [48 x i8] c"GrowingVectorMemory:Overall allocated vectors: \00", align 1
@.str.14 = private unnamed_addr constant [48 x i8] c"GrowingVectorMemory:Maximum allocated vectors: \00", align 1
@_ZTSN6dealii18StandardExceptions13ExcMemoryLeakE = linkonce_odr dso_local constant [45 x i8] c"N6dealii18StandardExceptions13ExcMemoryLeakE\00", comdat, align 1
@_ZTIN6dealii13ExceptionBaseE = external constant ptr
@_ZTIN6dealii18StandardExceptions13ExcMemoryLeakE = linkonce_odr dso_local constant { ptr, ptr, ptr } { ptr getelementptr inbounds (ptr, ptr @_ZTVN10__cxxabiv120__si_class_type_infoE, i64 2), ptr @_ZTSN6dealii18StandardExceptions13ExcMemoryLeakE, ptr @_ZTIN6dealii13ExceptionBaseE }, comdat, align 8
@_ZTVN6dealii18StandardExceptions13ExcMemoryLeakE = linkonce_odr dso_local unnamed_addr constant { [6 x ptr] } { [6 x ptr] [ptr null, ptr @_ZTIN6dealii18StandardExceptions13ExcMemoryLeakE, ptr @_ZN6dealii13ExceptionBaseD2Ev, ptr @_ZN6dealii18StandardExceptions13ExcMemoryLeakD0Ev, ptr @_ZNK6dealii13ExceptionBase4whatEv, ptr @_ZNK6dealii18StandardExceptions13ExcMemoryLeak10print_infoERSo] }, comdat, align 8
@.str.15 = private unnamed_addr constant [33 x i8] c"Destroying memory handler while \00", align 1
@.str.16 = private unnamed_addr constant [29 x i8] c" objects are still allocated\00", align 1
@.str.17 = private unnamed_addr constant [26 x i8] c"vector::_M_realloc_insert\00", align 1
@.str.18 = private unnamed_addr constant [11 x i8] c"Richardson\00", align 1
@_ZTIN6dealii13SolverControl13NoConvergenceE = external constant ptr
@.str.20 = private unnamed_addr constant [12 x i8] c"RichardsonT\00", align 1
@_ZTVN6dealii16SolverRichardsonINS_6VectorIdEEEE = linkonce_odr dso_local unnamed_addr constant { [6 x ptr] } { [6 x ptr] [ptr null, ptr @_ZTIN6dealii16SolverRichardsonINS_6VectorIdEEEE, ptr @_ZN6dealii6SolverINS_6VectorIdEEED2Ev, ptr @_ZN6dealii16SolverRichardsonINS_6VectorIdEEED0Ev, ptr @_ZNK6dealii16SolverRichardsonINS_6VectorIdEEE13print_vectorsEjRKS2_S5_S5_, ptr @_ZN6dealii16SolverRichardsonINS_6VectorIdEEE9criterionEv] }, comdat, align 8
@_ZTSN6dealii16SolverRichardsonINS_6VectorIdEEEE = linkonce_odr dso_local constant [44 x i8] c"N6dealii16SolverRichardsonINS_6VectorIdEEEE\00", comdat, align 1
@_ZTSN6dealii6SolverINS_6VectorIdEEEE = linkonce_odr dso_local constant [33 x i8] c"N6dealii6SolverINS_6VectorIdEEEE\00", comdat, align 1
@_ZTIN6dealii6SolverINS_6VectorIdEEEE = linkonce_odr dso_local constant { ptr, ptr, ptr } { ptr getelementptr inbounds (ptr, ptr @_ZTVN10__cxxabiv120__si_class_type_infoE, i64 2), ptr @_ZTSN6dealii6SolverINS_6VectorIdEEEE, ptr @_ZTIN6dealii11SubscriptorE }, comdat, align 8
@_ZTIN6dealii16SolverRichardsonINS_6VectorIdEEEE = linkonce_odr dso_local constant { ptr, ptr, ptr } { ptr getelementptr inbounds (ptr, ptr @_ZTVN10__cxxabiv120__si_class_type_infoE, i64 2), ptr @_ZTSN6dealii16SolverRichardsonINS_6VectorIdEEEE, ptr @_ZTIN6dealii6SolverINS_6VectorIdEEEE }, comdat, align 8
@_ZTVN6dealii6SolverINS_6VectorIdEEEE = linkonce_odr dso_local unnamed_addr constant { [4 x ptr] } { [4 x ptr] [ptr null, ptr @_ZTIN6dealii6SolverINS_6VectorIdEEEE, ptr @_ZN6dealii6SolverINS_6VectorIdEEED2Ev, ptr @_ZN6dealii6SolverINS_6VectorIdEEED0Ev] }, comdat, align 8
@_ZTVN6dealii19GrowingVectorMemoryINS_6VectorIdEEEE = linkonce_odr dso_local unnamed_addr constant { [6 x ptr] } { [6 x ptr] [ptr null, ptr @_ZTIN6dealii19GrowingVectorMemoryINS_6VectorIdEEEE, ptr @_ZN6dealii19GrowingVectorMemoryINS_6VectorIdEEED2Ev, ptr @_ZN6dealii19GrowingVectorMemoryINS_6VectorIdEEED0Ev, ptr @_ZN6dealii19GrowingVectorMemoryINS_6VectorIdEEE5allocEv, ptr @_ZN6dealii19GrowingVectorMemoryINS_6VectorIdEEE4freeEPKS2_] }, comdat, align 8
@_ZN6dealii19GrowingVectorMemoryINS_6VectorIdEEE4poolE = external local_unnamed_addr global %"struct.dealii::GrowingVectorMemory<>::Pool", align 8
@_ZTSN6dealii19GrowingVectorMemoryINS_6VectorIdEEEE = linkonce_odr dso_local constant [47 x i8] c"N6dealii19GrowingVectorMemoryINS_6VectorIdEEEE\00", comdat, align 1
@_ZTSN6dealii12VectorMemoryINS_6VectorIdEEEE = linkonce_odr dso_local constant [40 x i8] c"N6dealii12VectorMemoryINS_6VectorIdEEEE\00", comdat, align 1
@_ZTIN6dealii12VectorMemoryINS_6VectorIdEEEE = linkonce_odr dso_local constant { ptr, ptr, ptr } { ptr getelementptr inbounds (ptr, ptr @_ZTVN10__cxxabiv120__si_class_type_infoE, i64 2), ptr @_ZTSN6dealii12VectorMemoryINS_6VectorIdEEEE, ptr @_ZTIN6dealii11SubscriptorE }, comdat, align 8
@_ZTIN6dealii19GrowingVectorMemoryINS_6VectorIdEEEE = linkonce_odr dso_local constant { ptr, ptr, ptr } { ptr getelementptr inbounds (ptr, ptr @_ZTVN10__cxxabiv120__si_class_type_infoE, i64 2), ptr @_ZTSN6dealii19GrowingVectorMemoryINS_6VectorIdEEEE, ptr @_ZTIN6dealii12VectorMemoryINS_6VectorIdEEEE }, comdat, align 8
@_ZTVN6dealii6VectorIdEE = linkonce_odr dso_local unnamed_addr constant { [6 x ptr] } { [6 x ptr] [ptr null, ptr @_ZTIN6dealii6VectorIdEE, ptr @_ZN6dealii6VectorIdED2Ev, ptr @_ZN6dealii6VectorIdED0Ev, ptr @_ZN6dealii6VectorIdE6reinitEjb, ptr @_ZN6dealii6VectorIdE4swapERS1_] }, comdat, align 8
@_ZTSN6dealii6VectorIdEE = linkonce_odr dso_local constant [20 x i8] c"N6dealii6VectorIdEE\00", comdat, align 1
@_ZTIN6dealii6VectorIdEE = linkonce_odr dso_local constant { ptr, ptr, ptr } { ptr getelementptr inbounds (ptr, ptr @_ZTVN10__cxxabiv120__si_class_type_infoE, i64 2), ptr @_ZTSN6dealii6VectorIdEE, ptr @_ZTIN6dealii11SubscriptorE }, comdat, align 8
@_ZTVN6dealii16SolverRichardsonINS_11BlockVectorIfEEEE = linkonce_odr dso_local unnamed_addr constant { [6 x ptr] } { [6 x ptr] [ptr null, ptr @_ZTIN6dealii16SolverRichardsonINS_11BlockVectorIfEEEE, ptr @_ZN6dealii6SolverINS_11BlockVectorIfEEED2Ev, ptr @_ZN6dealii16SolverRichardsonINS_11BlockVectorIfEEED0Ev, ptr @_ZNK6dealii16SolverRichardsonINS_11BlockVectorIfEEE13print_vectorsEjRKS2_S5_S5_, ptr @_ZN6dealii16SolverRichardsonINS_11BlockVectorIfEEE9criterionEv] }, comdat, align 8
@_ZTSN6dealii16SolverRichardsonINS_11BlockVectorIfEEEE = linkonce_odr dso_local constant [50 x i8] c"N6dealii16SolverRichardsonINS_11BlockVectorIfEEEE\00", comdat, align 1
@_ZTSN6dealii6SolverINS_11BlockVectorIfEEEE = linkonce_odr dso_local constant [39 x i8] c"N6dealii6SolverINS_11BlockVectorIfEEEE\00", comdat, align 1
@_ZTIN6dealii6SolverINS_11BlockVectorIfEEEE = linkonce_odr dso_local constant { ptr, ptr, ptr } { ptr getelementptr inbounds (ptr, ptr @_ZTVN10__cxxabiv120__si_class_type_infoE, i64 2), ptr @_ZTSN6dealii6SolverINS_11BlockVectorIfEEEE, ptr @_ZTIN6dealii11SubscriptorE }, comdat, align 8
@_ZTIN6dealii16SolverRichardsonINS_11BlockVectorIfEEEE = linkonce_odr dso_local constant { ptr, ptr, ptr } { ptr getelementptr inbounds (ptr, ptr @_ZTVN10__cxxabiv120__si_class_type_infoE, i64 2), ptr @_ZTSN6dealii16SolverRichardsonINS_11BlockVectorIfEEEE, ptr @_ZTIN6dealii6SolverINS_11BlockVectorIfEEEE }, comdat, align 8
@_ZTVN6dealii6SolverINS_11BlockVectorIfEEEE = linkonce_odr dso_local unnamed_addr constant { [4 x ptr] } { [4 x ptr] [ptr null, ptr @_ZTIN6dealii6SolverINS_11BlockVectorIfEEEE, ptr @_ZN6dealii6SolverINS_11BlockVectorIfEEED2Ev, ptr @_ZN6dealii6SolverINS_11BlockVectorIfEEED0Ev] }, comdat, align 8
@_ZTVN6dealii19GrowingVectorMemoryINS_11BlockVectorIfEEEE = linkonce_odr dso_local unnamed_addr constant { [6 x ptr] } { [6 x ptr] [ptr null, ptr @_ZTIN6dealii19GrowingVectorMemoryINS_11BlockVectorIfEEEE, ptr @_ZN6dealii19GrowingVectorMemoryINS_11BlockVectorIfEEED2Ev, ptr @_ZN6dealii19GrowingVectorMemoryINS_11BlockVectorIfEEED0Ev, ptr @_ZN6dealii19GrowingVectorMemoryINS_11BlockVectorIfEEE5allocEv, ptr @_ZN6dealii19GrowingVectorMemoryINS_11BlockVectorIfEEE4freeEPKS2_] }, comdat, align 8
@_ZN6dealii19GrowingVectorMemoryINS_11BlockVectorIfEEE4poolE = external local_unnamed_addr global %"struct.dealii::GrowingVectorMemory<dealii::BlockVector<float> >::Pool", align 8
@_ZTSN6dealii19GrowingVectorMemoryINS_11BlockVectorIfEEEE = linkonce_odr dso_local constant [53 x i8] c"N6dealii19GrowingVectorMemoryINS_11BlockVectorIfEEEE\00", comdat, align 1
@_ZTSN6dealii12VectorMemoryINS_11BlockVectorIfEEEE = linkonce_odr dso_local constant [46 x i8] c"N6dealii12VectorMemoryINS_11BlockVectorIfEEEE\00", comdat, align 1
@_ZTIN6dealii12VectorMemoryINS_11BlockVectorIfEEEE = linkonce_odr dso_local constant { ptr, ptr, ptr } { ptr getelementptr inbounds (ptr, ptr @_ZTVN10__cxxabiv120__si_class_type_infoE, i64 2), ptr @_ZTSN6dealii12VectorMemoryINS_11BlockVectorIfEEEE, ptr @_ZTIN6dealii11SubscriptorE }, comdat, align 8
@_ZTIN6dealii19GrowingVectorMemoryINS_11BlockVectorIfEEEE = linkonce_odr dso_local constant { ptr, ptr, ptr } { ptr getelementptr inbounds (ptr, ptr @_ZTVN10__cxxabiv120__si_class_type_infoE, i64 2), ptr @_ZTSN6dealii19GrowingVectorMemoryINS_11BlockVectorIfEEEE, ptr @_ZTIN6dealii12VectorMemoryINS_11BlockVectorIfEEEE }, comdat, align 8
@_ZTVN6dealii16SolverRichardsonINS_11BlockVectorIdEEEE = linkonce_odr dso_local unnamed_addr constant { [6 x ptr] } { [6 x ptr] [ptr null, ptr @_ZTIN6dealii16SolverRichardsonINS_11BlockVectorIdEEEE, ptr @_ZN6dealii6SolverINS_11BlockVectorIdEEED2Ev, ptr @_ZN6dealii16SolverRichardsonINS_11BlockVectorIdEEED0Ev, ptr @_ZNK6dealii16SolverRichardsonINS_11BlockVectorIdEEE13print_vectorsEjRKS2_S5_S5_, ptr @_ZN6dealii16SolverRichardsonINS_11BlockVectorIdEEE9criterionEv] }, comdat, align 8
@_ZTSN6dealii16SolverRichardsonINS_11BlockVectorIdEEEE = linkonce_odr dso_local constant [50 x i8] c"N6dealii16SolverRichardsonINS_11BlockVectorIdEEEE\00", comdat, align 1
@_ZTSN6dealii6SolverINS_11BlockVectorIdEEEE = linkonce_odr dso_local constant [39 x i8] c"N6dealii6SolverINS_11BlockVectorIdEEEE\00", comdat, align 1
@_ZTIN6dealii6SolverINS_11BlockVectorIdEEEE = linkonce_odr dso_local constant { ptr, ptr, ptr } { ptr getelementptr inbounds (ptr, ptr @_ZTVN10__cxxabiv120__si_class_type_infoE, i64 2), ptr @_ZTSN6dealii6SolverINS_11BlockVectorIdEEEE, ptr @_ZTIN6dealii11SubscriptorE }, comdat, align 8
@_ZTIN6dealii16SolverRichardsonINS_11BlockVectorIdEEEE = linkonce_odr dso_local constant { ptr, ptr, ptr } { ptr getelementptr inbounds (ptr, ptr @_ZTVN10__cxxabiv120__si_class_type_infoE, i64 2), ptr @_ZTSN6dealii16SolverRichardsonINS_11BlockVectorIdEEEE, ptr @_ZTIN6dealii6SolverINS_11BlockVectorIdEEEE }, comdat, align 8
@_ZTVN6dealii6SolverINS_11BlockVectorIdEEEE = linkonce_odr dso_local unnamed_addr constant { [4 x ptr] } { [4 x ptr] [ptr null, ptr @_ZTIN6dealii6SolverINS_11BlockVectorIdEEEE, ptr @_ZN6dealii6SolverINS_11BlockVectorIdEEED2Ev, ptr @_ZN6dealii6SolverINS_11BlockVectorIdEEED0Ev] }, comdat, align 8
@_ZTVN6dealii19GrowingVectorMemoryINS_11BlockVectorIdEEEE = linkonce_odr dso_local unnamed_addr constant { [6 x ptr] } { [6 x ptr] [ptr null, ptr @_ZTIN6dealii19GrowingVectorMemoryINS_11BlockVectorIdEEEE, ptr @_ZN6dealii19GrowingVectorMemoryINS_11BlockVectorIdEEED2Ev, ptr @_ZN6dealii19GrowingVectorMemoryINS_11BlockVectorIdEEED0Ev, ptr @_ZN6dealii19GrowingVectorMemoryINS_11BlockVectorIdEEE5allocEv, ptr @_ZN6dealii19GrowingVectorMemoryINS_11BlockVectorIdEEE4freeEPKS2_] }, comdat, align 8
@_ZN6dealii19GrowingVectorMemoryINS_11BlockVectorIdEEE4poolE = external local_unnamed_addr global %"struct.dealii::GrowingVectorMemory<dealii::BlockVector<double> >::Pool", align 8
@_ZTSN6dealii19GrowingVectorMemoryINS_11BlockVectorIdEEEE = linkonce_odr dso_local constant [53 x i8] c"N6dealii19GrowingVectorMemoryINS_11BlockVectorIdEEEE\00", comdat, align 1
@_ZTSN6dealii12VectorMemoryINS_11BlockVectorIdEEEE = linkonce_odr dso_local constant [46 x i8] c"N6dealii12VectorMemoryINS_11BlockVectorIdEEEE\00", comdat, align 1
@_ZTIN6dealii12VectorMemoryINS_11BlockVectorIdEEEE = linkonce_odr dso_local constant { ptr, ptr, ptr } { ptr getelementptr inbounds (ptr, ptr @_ZTVN10__cxxabiv120__si_class_type_infoE, i64 2), ptr @_ZTSN6dealii12VectorMemoryINS_11BlockVectorIdEEEE, ptr @_ZTIN6dealii11SubscriptorE }, comdat, align 8
@_ZTIN6dealii19GrowingVectorMemoryINS_11BlockVectorIdEEEE = linkonce_odr dso_local constant { ptr, ptr, ptr } { ptr getelementptr inbounds (ptr, ptr @_ZTVN10__cxxabiv120__si_class_type_infoE, i64 2), ptr @_ZTSN6dealii19GrowingVectorMemoryINS_11BlockVectorIdEEEE, ptr @_ZTIN6dealii12VectorMemoryINS_11BlockVectorIdEEEE }, comdat, align 8
@llvm.global_ctors = appending global [0 x { i32, ptr, ptr }] zeroinitializer

@_ZN6dealii19ProductSparseMatrixIddEC1ERKNS_12SparseMatrixIdEES5_RNS_12VectorMemoryINS_6VectorIdEEEE = weak_odr dso_local unnamed_addr alias void (ptr, ptr, ptr, ptr), ptr @_ZN6dealii19ProductSparseMatrixIddEC2ERKNS_12SparseMatrixIdEES5_RNS_12VectorMemoryINS_6VectorIdEEEE
@_ZN6dealii19ProductSparseMatrixIddEC1Ev = weak_odr dso_local unnamed_addr alias void (ptr), ptr @_ZN6dealii19ProductSparseMatrixIddEC2Ev
@_ZN6dealii19ProductSparseMatrixIdfEC1ERKNS_12SparseMatrixIdEES5_RNS_12VectorMemoryINS_6VectorIfEEEE = weak_odr dso_local unnamed_addr alias void (ptr, ptr, ptr, ptr), ptr @_ZN6dealii19ProductSparseMatrixIdfEC2ERKNS_12SparseMatrixIdEES5_RNS_12VectorMemoryINS_6VectorIfEEEE
@_ZN6dealii19ProductSparseMatrixIdfEC1Ev = weak_odr dso_local unnamed_addr alias void (ptr), ptr @_ZN6dealii19ProductSparseMatrixIdfEC2Ev
@_ZN6dealii19ProductSparseMatrixIfdEC1ERKNS_12SparseMatrixIfEES5_RNS_12VectorMemoryINS_6VectorIdEEEE = weak_odr dso_local unnamed_addr alias void (ptr, ptr, ptr, ptr), ptr @_ZN6dealii19ProductSparseMatrixIfdEC2ERKNS_12SparseMatrixIfEES5_RNS_12VectorMemoryINS_6VectorIdEEEE
@_ZN6dealii19ProductSparseMatrixIfdEC1Ev = weak_odr dso_local unnamed_addr alias void (ptr), ptr @_ZN6dealii19ProductSparseMatrixIfdEC2Ev
@_ZN6dealii19ProductSparseMatrixIffEC1ERKNS_12SparseMatrixIfEES5_RNS_12VectorMemoryINS_6VectorIfEEEE = weak_odr dso_local unnamed_addr alias void (ptr, ptr, ptr, ptr), ptr @_ZN6dealii19ProductSparseMatrixIffEC2ERKNS_12SparseMatrixIfEES5_RNS_12VectorMemoryINS_6VectorIfEEEE
@_ZN6dealii19ProductSparseMatrixIffEC1Ev = weak_odr dso_local unnamed_addr alias void (ptr), ptr @_ZN6dealii19ProductSparseMatrixIffEC2Ev
@_ZN6dealii23InverseMatrixRichardsonINS_6VectorIfEEEC1ERNS_13SolverControlERNS_12VectorMemoryIS2_EE = weak_odr dso_local unnamed_addr alias void (ptr, ptr, ptr), ptr @_ZN6dealii23InverseMatrixRichardsonINS_6VectorIfEEEC2ERNS_13SolverControlERNS_12VectorMemoryIS2_EE
@_ZN6dealii23InverseMatrixRichardsonINS_6VectorIfEEED1Ev = weak_odr dso_local unnamed_addr alias void (ptr), ptr @_ZN6dealii23InverseMatrixRichardsonINS_6VectorIfEEED2Ev
@_ZN6dealii23InverseMatrixRichardsonINS_6VectorIdEEEC1ERNS_13SolverControlERNS_12VectorMemoryIS2_EE = weak_odr dso_local unnamed_addr alias void (ptr, ptr, ptr), ptr @_ZN6dealii23InverseMatrixRichardsonINS_6VectorIdEEEC2ERNS_13SolverControlERNS_12VectorMemoryIS2_EE
@_ZN6dealii23InverseMatrixRichardsonINS_6VectorIdEEED1Ev = weak_odr dso_local unnamed_addr alias void (ptr), ptr @_ZN6dealii23InverseMatrixRichardsonINS_6VectorIdEEED2Ev
@_ZN6dealii23InverseMatrixRichardsonINS_11BlockVectorIfEEEC1ERNS_13SolverControlERNS_12VectorMemoryIS2_EE = weak_odr dso_local unnamed_addr alias void (ptr, ptr, ptr), ptr @_ZN6dealii23InverseMatrixRichardsonINS_11BlockVectorIfEEEC2ERNS_13SolverControlERNS_12VectorMemoryIS2_EE
@_ZN6dealii23InverseMatrixRichardsonINS_11BlockVectorIfEEED1Ev = weak_odr dso_local unnamed_addr alias void (ptr), ptr @_ZN6dealii23InverseMatrixRichardsonINS_11BlockVectorIfEEED2Ev
@_ZN6dealii23InverseMatrixRichardsonINS_11BlockVectorIdEEEC1ERNS_13SolverControlERNS_12VectorMemoryIS2_EE = weak_odr dso_local unnamed_addr alias void (ptr, ptr, ptr), ptr @_ZN6dealii23InverseMatrixRichardsonINS_11BlockVectorIdEEEC2ERNS_13SolverControlERNS_12VectorMemoryIS2_EE
@_ZN6dealii23InverseMatrixRichardsonINS_11BlockVectorIdEEED1Ev = weak_odr dso_local unnamed_addr alias void (ptr), ptr @_ZN6dealii23InverseMatrixRichardsonINS_11BlockVectorIdEEED2Ev
@_ZN6dealii15MeanValueFilterC1Ej = dso_local unnamed_addr alias void (ptr, i32), ptr @_ZN6dealii15MeanValueFilterC2Ej

; Function Attrs: sspstrong uwtable
define weak_odr dso_local void @_ZN6dealii19ProductSparseMatrixIddEC2ERKNS_12SparseMatrixIdEES5_RNS_12VectorMemoryINS_6VectorIdEEEE(ptr noundef nonnull align 8 dereferenceable(120) %0, ptr noundef nonnull align 8 dereferenceable(36) %1, ptr noundef nonnull align 8 dereferenceable(36) %2, ptr noundef nonnull align 8 dereferenceable(72) %3) unnamed_addr #0 comdat($_ZN6dealii19ProductSparseMatrixIddEC5ERKNS_12SparseMatrixIdEES5_RNS_12VectorMemoryINS_6VectorIdEEEE) align 2 personality ptr @__gxx_personality_v0 {
  tail call void @_ZN6dealii11SubscriptorC2Ev(ptr noundef nonnull align 8 dereferenceable(72) %0)
  store ptr getelementptr inbounds ({ [10 x ptr] }, ptr @_ZTVN6dealii19ProductSparseMatrixIddEE, i64 0, inrange i32 0, i64 2), ptr %0, align 8, !tbaa !5
  %5 = getelementptr inbounds %"class.dealii::ProductSparseMatrix", ptr %0, i64 0, i32 1
  store ptr %1, ptr %5, align 8, !tbaa !8
  %6 = getelementptr inbounds %"class.dealii::ProductSparseMatrix", ptr %0, i64 0, i32 1, i32 1
  store ptr @_ZTSN6dealii19ProductSparseMatrixIddEE, ptr %6, align 8, !tbaa !12
  %7 = getelementptr inbounds %"class.dealii::ProductSparseMatrix", ptr %0, i64 0, i32 2
  store ptr %2, ptr %7, align 8, !tbaa !8
  %8 = getelementptr inbounds %"class.dealii::ProductSparseMatrix", ptr %0, i64 0, i32 2, i32 1
  store ptr @_ZTSN6dealii19ProductSparseMatrixIddEE, ptr %8, align 8, !tbaa !12
  %9 = getelementptr inbounds %"class.dealii::ProductSparseMatrix", ptr %0, i64 0, i32 3
  store ptr %3, ptr %9, align 8, !tbaa !13
  %10 = getelementptr inbounds %"class.dealii::ProductSparseMatrix", ptr %0, i64 0, i32 3, i32 1
  store ptr @_ZTSN6dealii19ProductSparseMatrixIddEE, ptr %10, align 8, !tbaa !15
  ret void
}

declare i32 @__gxx_personality_v0(...)

; Function Attrs: noinline noreturn nounwind sspstrong uwtable
define linkonce_odr hidden void @__clang_call_terminate(ptr noundef %0) local_unnamed_addr #1 comdat {
  %2 = tail call ptr @__cxa_begin_catch(ptr %0) #16
  tail call void @_ZSt9terminatev() #17
  unreachable
}

declare ptr @__cxa_begin_catch(ptr) local_unnamed_addr

declare void @_ZSt9terminatev() local_unnamed_addr

; Function Attrs: sspstrong uwtable
define weak_odr dso_local void @_ZN6dealii19ProductSparseMatrixIddEC2Ev(ptr noundef nonnull align 8 dereferenceable(120) %0) unnamed_addr #0 comdat($_ZN6dealii19ProductSparseMatrixIddEC5Ev) align 2 personality ptr @__gxx_personality_v0 {
  tail call void @_ZN6dealii11SubscriptorC2Ev(ptr noundef nonnull align 8 dereferenceable(72) %0)
  store ptr getelementptr inbounds ({ [10 x ptr] }, ptr @_ZTVN6dealii19ProductSparseMatrixIddEE, i64 0, inrange i32 0, i64 2), ptr %0, align 8, !tbaa !5
  %2 = getelementptr inbounds %"class.dealii::ProductSparseMatrix", ptr %0, i64 0, i32 1
  store ptr null, ptr %2, align 8, !tbaa !8
  %3 = getelementptr inbounds %"class.dealii::ProductSparseMatrix", ptr %0, i64 0, i32 1, i32 1
  store ptr @_ZTSN6dealii19ProductSparseMatrixIddEE, ptr %3, align 8, !tbaa !12
  %4 = getelementptr inbounds %"class.dealii::ProductSparseMatrix", ptr %0, i64 0, i32 2
  store ptr null, ptr %4, align 8, !tbaa !8
  %5 = getelementptr inbounds %"class.dealii::ProductSparseMatrix", ptr %0, i64 0, i32 2, i32 1
  store ptr @_ZTSN6dealii19ProductSparseMatrixIddEE, ptr %5, align 8, !tbaa !12
  %6 = getelementptr inbounds %"class.dealii::ProductSparseMatrix", ptr %0, i64 0, i32 3
  store ptr null, ptr %6, align 8, !tbaa !13
  %7 = getelementptr inbounds %"class.dealii::ProductSparseMatrix", ptr %0, i64 0, i32 3, i32 1
  store ptr @_ZTSN6dealii19ProductSparseMatrixIddEE, ptr %7, align 8, !tbaa !15
  ret void
}

; Function Attrs: sspstrong uwtable
define weak_odr dso_local void @_ZN6dealii19ProductSparseMatrixIddE10initializeERKNS_12SparseMatrixIdEES5_RNS_12VectorMemoryINS_6VectorIdEEEE(ptr noundef nonnull align 8 dereferenceable(120) %0, ptr noundef nonnull align 8 dereferenceable(36) %1, ptr noundef nonnull align 8 dereferenceable(36) %2, ptr noundef nonnull align 8 dereferenceable(72) %3) local_unnamed_addr #0 comdat align 2 {
  %5 = getelementptr inbounds %"class.dealii::ProductSparseMatrix", ptr %0, i64 0, i32 3
  %6 = load ptr, ptr %5, align 8, !tbaa !13
  %7 = icmp eq ptr %6, %3
  br i1 %7, label %9, label %8

8:                                                ; preds = %4
  store ptr %3, ptr %5, align 8, !tbaa !13
  br label %9

9:                                                ; preds = %4, %8
  %10 = getelementptr inbounds %"class.dealii::ProductSparseMatrix", ptr %0, i64 0, i32 1
  %11 = load ptr, ptr %10, align 8, !tbaa !8
  %12 = icmp eq ptr %11, %1
  br i1 %12, label %14, label %13

13:                                               ; preds = %9
  store ptr %1, ptr %10, align 8, !tbaa !8
  br label %14

14:                                               ; preds = %9, %13
  %15 = getelementptr inbounds %"class.dealii::ProductSparseMatrix", ptr %0, i64 0, i32 2
  %16 = load ptr, ptr %15, align 8, !tbaa !8
  %17 = icmp eq ptr %16, %2
  br i1 %17, label %19, label %18

18:                                               ; preds = %14
  store ptr %2, ptr %15, align 8, !tbaa !8
  br label %19

19:                                               ; preds = %14, %18
  ret void
}

; Function Attrs: sspstrong uwtable
define weak_odr dso_local void @_ZN6dealii19ProductSparseMatrixIddE5clearEv(ptr noundef nonnull align 8 dereferenceable(120) %0) unnamed_addr #0 comdat align 2 {
  %2 = getelementptr inbounds %"class.dealii::ProductSparseMatrix", ptr %0, i64 0, i32 1
  %3 = load ptr, ptr %2, align 8, !tbaa !8
  %4 = icmp eq ptr %3, null
  br i1 %4, label %6, label %5

5:                                                ; preds = %1
  store ptr null, ptr %2, align 8, !tbaa !8
  br label %6

6:                                                ; preds = %1, %5
  %7 = getelementptr inbounds %"class.dealii::ProductSparseMatrix", ptr %0, i64 0, i32 2
  %8 = load ptr, ptr %7, align 8, !tbaa !8
  %9 = icmp eq ptr %8, null
  br i1 %9, label %11, label %10

10:                                               ; preds = %6
  store ptr null, ptr %7, align 8, !tbaa !8
  br label %11

11:                                               ; preds = %6, %10
  ret void
}

; Function Attrs: sspstrong uwtable
define weak_odr dso_local void @_ZNK6dealii19ProductSparseMatrixIddE5vmultERNS_6VectorIdEERKS3_(ptr noundef nonnull align 8 dereferenceable(120) %0, ptr noundef nonnull align 8 dereferenceable(88) %1, ptr noundef nonnull align 8 dereferenceable(88) %2) unnamed_addr #0 comdat align 2 {
  %4 = getelementptr inbounds %"class.dealii::ProductSparseMatrix", ptr %0, i64 0, i32 3
  %5 = load ptr, ptr %4, align 8, !tbaa !13
  %6 = load ptr, ptr %5, align 8, !tbaa !5
  %7 = getelementptr inbounds ptr, ptr %6, i64 2
  %8 = load ptr, ptr %7, align 8
  %9 = tail call noundef ptr %8(ptr noundef nonnull align 8 dereferenceable(72) %5)
  %10 = getelementptr inbounds %"class.dealii::ProductSparseMatrix", ptr %0, i64 0, i32 1
  %11 = load ptr, ptr %10, align 8, !tbaa !8
  %12 = getelementptr inbounds %"class.dealii::SparseMatrix", ptr %11, i64 0, i32 1
  %13 = load ptr, ptr %12, align 8, !tbaa !16
  %14 = getelementptr inbounds %"class.dealii::SparsityPattern", ptr %13, i64 0, i32 3
  %15 = load i32, ptr %14, align 8, !tbaa !18
  %16 = load ptr, ptr %9, align 8, !tbaa !5
  %17 = getelementptr inbounds ptr, ptr %16, i64 2
  %18 = load ptr, ptr %17, align 8
  tail call void %18(ptr noundef nonnull align 8 dereferenceable(88) %9, i32 noundef %15, i1 noundef zeroext false)
  %19 = getelementptr inbounds %"class.dealii::ProductSparseMatrix", ptr %0, i64 0, i32 2
  %20 = load ptr, ptr %19, align 8, !tbaa !8
  tail call void @_ZNK6dealii12SparseMatrixIdE5vmultINS_6VectorIdEES4_EEvRT_RKT0_(ptr noundef nonnull align 8 dereferenceable(36) %20, ptr noundef nonnull align 8 dereferenceable(88) %9, ptr noundef nonnull align 8 dereferenceable(88) %2)
  %21 = load ptr, ptr %10, align 8, !tbaa !8
  tail call void @_ZNK6dealii12SparseMatrixIdE5vmultINS_6VectorIdEES4_EEvRT_RKT0_(ptr noundef nonnull align 8 dereferenceable(36) %21, ptr noundef nonnull align 8 dereferenceable(88) %1, ptr noundef nonnull align 8 dereferenceable(88) %9)
  %22 = load ptr, ptr %4, align 8, !tbaa !13
  %23 = load ptr, ptr %22, align 8, !tbaa !5
  %24 = getelementptr inbounds ptr, ptr %23, i64 3
  %25 = load ptr, ptr %24, align 8
  tail call void %25(ptr noundef nonnull align 8 dereferenceable(72) %22, ptr noundef nonnull %9)
  ret void
}

; Function Attrs: mustprogress nocallback nofree nosync nounwind willreturn memory(argmem: readwrite)
declare void @llvm.lifetime.start.p0(i64 immarg, ptr nocapture) #2

declare void @_ZNK6dealii12SparseMatrixIdE5vmultINS_6VectorIdEES4_EEvRT_RKT0_(ptr noundef nonnull align 8 dereferenceable(36), ptr noundef nonnull align 8 dereferenceable(88), ptr noundef nonnull align 8 dereferenceable(88)) local_unnamed_addr #3

; Function Attrs: mustprogress nocallback nofree nosync nounwind willreturn memory(argmem: readwrite)
declare void @llvm.lifetime.end.p0(i64 immarg, ptr nocapture) #2

; Function Attrs: sspstrong uwtable
define weak_odr dso_local void @_ZNK6dealii19ProductSparseMatrixIddE6TvmultERNS_6VectorIdEERKS3_(ptr noundef nonnull align 8 dereferenceable(120) %0, ptr noundef nonnull align 8 dereferenceable(88) %1, ptr noundef nonnull align 8 dereferenceable(88) %2) unnamed_addr #0 comdat align 2 {
  %4 = getelementptr inbounds %"class.dealii::ProductSparseMatrix", ptr %0, i64 0, i32 3
  %5 = load ptr, ptr %4, align 8, !tbaa !13
  %6 = load ptr, ptr %5, align 8, !tbaa !5
  %7 = getelementptr inbounds ptr, ptr %6, i64 2
  %8 = load ptr, ptr %7, align 8
  %9 = tail call noundef ptr %8(ptr noundef nonnull align 8 dereferenceable(72) %5)
  %10 = getelementptr inbounds %"class.dealii::ProductSparseMatrix", ptr %0, i64 0, i32 1
  %11 = load ptr, ptr %10, align 8, !tbaa !8
  %12 = getelementptr inbounds %"class.dealii::SparseMatrix", ptr %11, i64 0, i32 1
  %13 = load ptr, ptr %12, align 8, !tbaa !16
  %14 = getelementptr inbounds %"class.dealii::SparsityPattern", ptr %13, i64 0, i32 3
  %15 = load i32, ptr %14, align 8, !tbaa !18
  %16 = load ptr, ptr %9, align 8, !tbaa !5
  %17 = getelementptr inbounds ptr, ptr %16, i64 2
  %18 = load ptr, ptr %17, align 8
  tail call void %18(ptr noundef nonnull align 8 dereferenceable(88) %9, i32 noundef %15, i1 noundef zeroext false)
  %19 = load ptr, ptr %10, align 8, !tbaa !8
  tail call void @_ZNK6dealii12SparseMatrixIdE6TvmultINS_6VectorIdEES4_EEvRT_RKT0_(ptr noundef nonnull align 8 dereferenceable(36) %19, ptr noundef nonnull align 8 dereferenceable(88) %9, ptr noundef nonnull align 8 dereferenceable(88) %2)
  %20 = getelementptr inbounds %"class.dealii::ProductSparseMatrix", ptr %0, i64 0, i32 2
  %21 = load ptr, ptr %20, align 8, !tbaa !8
  tail call void @_ZNK6dealii12SparseMatrixIdE6TvmultINS_6VectorIdEES4_EEvRT_RKT0_(ptr noundef nonnull align 8 dereferenceable(36) %21, ptr noundef nonnull align 8 dereferenceable(88) %1, ptr noundef nonnull align 8 dereferenceable(88) %9)
  %22 = load ptr, ptr %4, align 8, !tbaa !13
  %23 = load ptr, ptr %22, align 8, !tbaa !5
  %24 = getelementptr inbounds ptr, ptr %23, i64 3
  %25 = load ptr, ptr %24, align 8
  tail call void %25(ptr noundef nonnull align 8 dereferenceable(72) %22, ptr noundef nonnull %9)
  ret void
}

declare void @_ZNK6dealii12SparseMatrixIdE6TvmultINS_6VectorIdEES4_EEvRT_RKT0_(ptr noundef nonnull align 8 dereferenceable(36), ptr noundef nonnull align 8 dereferenceable(88), ptr noundef nonnull align 8 dereferenceable(88)) local_unnamed_addr #3

; Function Attrs: sspstrong uwtable
define weak_odr dso_local void @_ZNK6dealii19ProductSparseMatrixIddE9vmult_addERNS_6VectorIdEERKS3_(ptr noundef nonnull align 8 dereferenceable(120) %0, ptr noundef nonnull align 8 dereferenceable(88) %1, ptr noundef nonnull align 8 dereferenceable(88) %2) unnamed_addr #0 comdat align 2 {
  %4 = getelementptr inbounds %"class.dealii::ProductSparseMatrix", ptr %0, i64 0, i32 3
  %5 = load ptr, ptr %4, align 8, !tbaa !13
  %6 = load ptr, ptr %5, align 8, !tbaa !5
  %7 = getelementptr inbounds ptr, ptr %6, i64 2
  %8 = load ptr, ptr %7, align 8
  %9 = tail call noundef ptr %8(ptr noundef nonnull align 8 dereferenceable(72) %5)
  %10 = getelementptr inbounds %"class.dealii::ProductSparseMatrix", ptr %0, i64 0, i32 1
  %11 = load ptr, ptr %10, align 8, !tbaa !8
  %12 = getelementptr inbounds %"class.dealii::SparseMatrix", ptr %11, i64 0, i32 1
  %13 = load ptr, ptr %12, align 8, !tbaa !16
  %14 = getelementptr inbounds %"class.dealii::SparsityPattern", ptr %13, i64 0, i32 3
  %15 = load i32, ptr %14, align 8, !tbaa !18
  %16 = load ptr, ptr %9, align 8, !tbaa !5
  %17 = getelementptr inbounds ptr, ptr %16, i64 2
  %18 = load ptr, ptr %17, align 8
  tail call void %18(ptr noundef nonnull align 8 dereferenceable(88) %9, i32 noundef %15, i1 noundef zeroext false)
  %19 = getelementptr inbounds %"class.dealii::ProductSparseMatrix", ptr %0, i64 0, i32 2
  %20 = load ptr, ptr %19, align 8, !tbaa !8
  tail call void @_ZNK6dealii12SparseMatrixIdE5vmultINS_6VectorIdEES4_EEvRT_RKT0_(ptr noundef nonnull align 8 dereferenceable(36) %20, ptr noundef nonnull align 8 dereferenceable(88) %9, ptr noundef nonnull align 8 dereferenceable(88) %2)
  %21 = load ptr, ptr %10, align 8, !tbaa !8
  tail call void @_ZNK6dealii12SparseMatrixIdE9vmult_addINS_6VectorIdEES4_EEvRT_RKT0_(ptr noundef nonnull align 8 dereferenceable(36) %21, ptr noundef nonnull align 8 dereferenceable(88) %1, ptr noundef nonnull align 8 dereferenceable(88) %9)
  %22 = load ptr, ptr %4, align 8, !tbaa !13
  %23 = load ptr, ptr %22, align 8, !tbaa !5
  %24 = getelementptr inbounds ptr, ptr %23, i64 3
  %25 = load ptr, ptr %24, align 8
  tail call void %25(ptr noundef nonnull align 8 dereferenceable(72) %22, ptr noundef nonnull %9)
  ret void
}

declare void @_ZNK6dealii12SparseMatrixIdE9vmult_addINS_6VectorIdEES4_EEvRT_RKT0_(ptr noundef nonnull align 8 dereferenceable(36), ptr noundef nonnull align 8 dereferenceable(88), ptr noundef nonnull align 8 dereferenceable(88)) local_unnamed_addr #3

; Function Attrs: sspstrong uwtable
define weak_odr dso_local void @_ZNK6dealii19ProductSparseMatrixIddE10Tvmult_addERNS_6VectorIdEERKS3_(ptr noundef nonnull align 8 dereferenceable(120) %0, ptr noundef nonnull align 8 dereferenceable(88) %1, ptr noundef nonnull align 8 dereferenceable(88) %2) unnamed_addr #0 comdat align 2 {
  %4 = getelementptr inbounds %"class.dealii::ProductSparseMatrix", ptr %0, i64 0, i32 3
  %5 = load ptr, ptr %4, align 8, !tbaa !13
  %6 = load ptr, ptr %5, align 8, !tbaa !5
  %7 = getelementptr inbounds ptr, ptr %6, i64 2
  %8 = load ptr, ptr %7, align 8
  %9 = tail call noundef ptr %8(ptr noundef nonnull align 8 dereferenceable(72) %5)
  %10 = getelementptr inbounds %"class.dealii::ProductSparseMatrix", ptr %0, i64 0, i32 1
  %11 = load ptr, ptr %10, align 8, !tbaa !8
  %12 = getelementptr inbounds %"class.dealii::SparseMatrix", ptr %11, i64 0, i32 1
  %13 = load ptr, ptr %12, align 8, !tbaa !16
  %14 = getelementptr inbounds %"class.dealii::SparsityPattern", ptr %13, i64 0, i32 3
  %15 = load i32, ptr %14, align 8, !tbaa !18
  %16 = load ptr, ptr %9, align 8, !tbaa !5
  %17 = getelementptr inbounds ptr, ptr %16, i64 2
  %18 = load ptr, ptr %17, align 8
  tail call void %18(ptr noundef nonnull align 8 dereferenceable(88) %9, i32 noundef %15, i1 noundef zeroext false)
  %19 = load ptr, ptr %10, align 8, !tbaa !8
  tail call void @_ZNK6dealii12SparseMatrixIdE6TvmultINS_6VectorIdEES4_EEvRT_RKT0_(ptr noundef nonnull align 8 dereferenceable(36) %19, ptr noundef nonnull align 8 dereferenceable(88) %9, ptr noundef nonnull align 8 dereferenceable(88) %2)
  %20 = getelementptr inbounds %"class.dealii::ProductSparseMatrix", ptr %0, i64 0, i32 2
  %21 = load ptr, ptr %20, align 8, !tbaa !8
  tail call void @_ZNK6dealii12SparseMatrixIdE10Tvmult_addINS_6VectorIdEES4_EEvRT_RKT0_(ptr noundef nonnull align 8 dereferenceable(36) %21, ptr noundef nonnull align 8 dereferenceable(88) %1, ptr noundef nonnull align 8 dereferenceable(88) %9)
  %22 = load ptr, ptr %4, align 8, !tbaa !13
  %23 = load ptr, ptr %22, align 8, !tbaa !5
  %24 = getelementptr inbounds ptr, ptr %23, i64 3
  %25 = load ptr, ptr %24, align 8
  tail call void %25(ptr noundef nonnull align 8 dereferenceable(72) %22, ptr noundef nonnull %9)
  ret void
}

declare void @_ZNK6dealii12SparseMatrixIdE10Tvmult_addINS_6VectorIdEES4_EEvRT_RKT0_(ptr noundef nonnull align 8 dereferenceable(36), ptr noundef nonnull align 8 dereferenceable(88), ptr noundef nonnull align 8 dereferenceable(88)) local_unnamed_addr #3

; Function Attrs: sspstrong uwtable
define weak_odr dso_local noundef ptr @_ZNK6dealii19ProductSparseMatrixIddE3getEv(ptr noundef nonnull align 8 dereferenceable(120) %0) unnamed_addr #0 comdat align 2 {
  %2 = getelementptr inbounds %"class.dealii::ProductSparseMatrix", ptr %0, i64 0, i32 1
  %3 = load ptr, ptr %2, align 8, !tbaa !8
  ret ptr %3
}

; Function Attrs: sspstrong uwtable
define weak_odr dso_local void @_ZN6dealii19ProductSparseMatrixIdfEC2ERKNS_12SparseMatrixIdEES5_RNS_12VectorMemoryINS_6VectorIfEEEE(ptr noundef nonnull align 8 dereferenceable(120) %0, ptr noundef nonnull align 8 dereferenceable(36) %1, ptr noundef nonnull align 8 dereferenceable(36) %2, ptr noundef nonnull align 8 dereferenceable(72) %3) unnamed_addr #0 comdat($_ZN6dealii19ProductSparseMatrixIdfEC5ERKNS_12SparseMatrixIdEES5_RNS_12VectorMemoryINS_6VectorIfEEEE) align 2 personality ptr @__gxx_personality_v0 {
  tail call void @_ZN6dealii11SubscriptorC2Ev(ptr noundef nonnull align 8 dereferenceable(72) %0)
  store ptr getelementptr inbounds ({ [10 x ptr] }, ptr @_ZTVN6dealii19ProductSparseMatrixIdfEE, i64 0, inrange i32 0, i64 2), ptr %0, align 8, !tbaa !5
  %5 = getelementptr inbounds %"class.dealii::ProductSparseMatrix.18", ptr %0, i64 0, i32 1
  store ptr %1, ptr %5, align 8, !tbaa !8
  %6 = getelementptr inbounds %"class.dealii::ProductSparseMatrix.18", ptr %0, i64 0, i32 1, i32 1
  store ptr @_ZTSN6dealii19ProductSparseMatrixIdfEE, ptr %6, align 8, !tbaa !12
  %7 = getelementptr inbounds %"class.dealii::ProductSparseMatrix.18", ptr %0, i64 0, i32 2
  store ptr %2, ptr %7, align 8, !tbaa !8
  %8 = getelementptr inbounds %"class.dealii::ProductSparseMatrix.18", ptr %0, i64 0, i32 2, i32 1
  store ptr @_ZTSN6dealii19ProductSparseMatrixIdfEE, ptr %8, align 8, !tbaa !12
  %9 = getelementptr inbounds %"class.dealii::ProductSparseMatrix.18", ptr %0, i64 0, i32 3
  store ptr %3, ptr %9, align 8, !tbaa !32
  %10 = getelementptr inbounds %"class.dealii::ProductSparseMatrix.18", ptr %0, i64 0, i32 3, i32 1
  store ptr @_ZTSN6dealii19ProductSparseMatrixIdfEE, ptr %10, align 8, !tbaa !34
  ret void
}

; Function Attrs: sspstrong uwtable
define weak_odr dso_local void @_ZN6dealii19ProductSparseMatrixIdfEC2Ev(ptr noundef nonnull align 8 dereferenceable(120) %0) unnamed_addr #0 comdat($_ZN6dealii19ProductSparseMatrixIdfEC5Ev) align 2 personality ptr @__gxx_personality_v0 {
  tail call void @_ZN6dealii11SubscriptorC2Ev(ptr noundef nonnull align 8 dereferenceable(72) %0)
  store ptr getelementptr inbounds ({ [10 x ptr] }, ptr @_ZTVN6dealii19ProductSparseMatrixIdfEE, i64 0, inrange i32 0, i64 2), ptr %0, align 8, !tbaa !5
  %2 = getelementptr inbounds %"class.dealii::ProductSparseMatrix.18", ptr %0, i64 0, i32 1
  store ptr null, ptr %2, align 8, !tbaa !8
  %3 = getelementptr inbounds %"class.dealii::ProductSparseMatrix.18", ptr %0, i64 0, i32 1, i32 1
  store ptr @_ZTSN6dealii19ProductSparseMatrixIdfEE, ptr %3, align 8, !tbaa !12
  %4 = getelementptr inbounds %"class.dealii::ProductSparseMatrix.18", ptr %0, i64 0, i32 2
  store ptr null, ptr %4, align 8, !tbaa !8
  %5 = getelementptr inbounds %"class.dealii::ProductSparseMatrix.18", ptr %0, i64 0, i32 2, i32 1
  store ptr @_ZTSN6dealii19ProductSparseMatrixIdfEE, ptr %5, align 8, !tbaa !12
  %6 = getelementptr inbounds %"class.dealii::ProductSparseMatrix.18", ptr %0, i64 0, i32 3
  store ptr null, ptr %6, align 8, !tbaa !32
  %7 = getelementptr inbounds %"class.dealii::ProductSparseMatrix.18", ptr %0, i64 0, i32 3, i32 1
  store ptr @_ZTSN6dealii19ProductSparseMatrixIdfEE, ptr %7, align 8, !tbaa !34
  ret void
}

; Function Attrs: sspstrong uwtable
define weak_odr dso_local void @_ZN6dealii19ProductSparseMatrixIdfE10initializeERKNS_12SparseMatrixIdEES5_RNS_12VectorMemoryINS_6VectorIfEEEE(ptr noundef nonnull align 8 dereferenceable(120) %0, ptr noundef nonnull align 8 dereferenceable(36) %1, ptr noundef nonnull align 8 dereferenceable(36) %2, ptr noundef nonnull align 8 dereferenceable(72) %3) local_unnamed_addr #0 comdat align 2 {
  %5 = getelementptr inbounds %"class.dealii::ProductSparseMatrix.18", ptr %0, i64 0, i32 3
  %6 = load ptr, ptr %5, align 8, !tbaa !32
  %7 = icmp eq ptr %6, %3
  br i1 %7, label %9, label %8

8:                                                ; preds = %4
  store ptr %3, ptr %5, align 8, !tbaa !32
  br label %9

9:                                                ; preds = %4, %8
  %10 = getelementptr inbounds %"class.dealii::ProductSparseMatrix.18", ptr %0, i64 0, i32 1
  %11 = load ptr, ptr %10, align 8, !tbaa !8
  %12 = icmp eq ptr %11, %1
  br i1 %12, label %14, label %13

13:                                               ; preds = %9
  store ptr %1, ptr %10, align 8, !tbaa !8
  br label %14

14:                                               ; preds = %9, %13
  %15 = getelementptr inbounds %"class.dealii::ProductSparseMatrix.18", ptr %0, i64 0, i32 2
  %16 = load ptr, ptr %15, align 8, !tbaa !8
  %17 = icmp eq ptr %16, %2
  br i1 %17, label %19, label %18

18:                                               ; preds = %14
  store ptr %2, ptr %15, align 8, !tbaa !8
  br label %19

19:                                               ; preds = %14, %18
  ret void
}

; Function Attrs: sspstrong uwtable
define weak_odr dso_local void @_ZN6dealii19ProductSparseMatrixIdfE5clearEv(ptr noundef nonnull align 8 dereferenceable(120) %0) unnamed_addr #0 comdat align 2 {
  %2 = getelementptr inbounds %"class.dealii::ProductSparseMatrix.18", ptr %0, i64 0, i32 1
  %3 = load ptr, ptr %2, align 8, !tbaa !8
  %4 = icmp eq ptr %3, null
  br i1 %4, label %6, label %5

5:                                                ; preds = %1
  store ptr null, ptr %2, align 8, !tbaa !8
  br label %6

6:                                                ; preds = %1, %5
  %7 = getelementptr inbounds %"class.dealii::ProductSparseMatrix.18", ptr %0, i64 0, i32 2
  %8 = load ptr, ptr %7, align 8, !tbaa !8
  %9 = icmp eq ptr %8, null
  br i1 %9, label %11, label %10

10:                                               ; preds = %6
  store ptr null, ptr %7, align 8, !tbaa !8
  br label %11

11:                                               ; preds = %6, %10
  ret void
}

; Function Attrs: sspstrong uwtable
define weak_odr dso_local void @_ZNK6dealii19ProductSparseMatrixIdfE5vmultERNS_6VectorIfEERKS3_(ptr noundef nonnull align 8 dereferenceable(120) %0, ptr noundef nonnull align 8 dereferenceable(88) %1, ptr noundef nonnull align 8 dereferenceable(88) %2) unnamed_addr #0 comdat align 2 {
  %4 = getelementptr inbounds %"class.dealii::ProductSparseMatrix.18", ptr %0, i64 0, i32 3
  %5 = load ptr, ptr %4, align 8, !tbaa !32
  %6 = load ptr, ptr %5, align 8, !tbaa !5
  %7 = getelementptr inbounds ptr, ptr %6, i64 2
  %8 = load ptr, ptr %7, align 8
  %9 = tail call noundef ptr %8(ptr noundef nonnull align 8 dereferenceable(72) %5)
  %10 = getelementptr inbounds %"class.dealii::ProductSparseMatrix.18", ptr %0, i64 0, i32 1
  %11 = load ptr, ptr %10, align 8, !tbaa !8
  %12 = getelementptr inbounds %"class.dealii::SparseMatrix", ptr %11, i64 0, i32 1
  %13 = load ptr, ptr %12, align 8, !tbaa !16
  %14 = getelementptr inbounds %"class.dealii::SparsityPattern", ptr %13, i64 0, i32 3
  %15 = load i32, ptr %14, align 8, !tbaa !18
  %16 = load ptr, ptr %9, align 8, !tbaa !5
  %17 = getelementptr inbounds ptr, ptr %16, i64 2
  %18 = load ptr, ptr %17, align 8
  tail call void %18(ptr noundef nonnull align 8 dereferenceable(88) %9, i32 noundef %15, i1 noundef zeroext false)
  %19 = getelementptr inbounds %"class.dealii::ProductSparseMatrix.18", ptr %0, i64 0, i32 2
  %20 = load ptr, ptr %19, align 8, !tbaa !8
  tail call void @_ZNK6dealii12SparseMatrixIdE5vmultINS_6VectorIfEES4_EEvRT_RKT0_(ptr noundef nonnull align 8 dereferenceable(36) %20, ptr noundef nonnull align 8 dereferenceable(88) %9, ptr noundef nonnull align 8 dereferenceable(88) %2)
  %21 = load ptr, ptr %10, align 8, !tbaa !8
  tail call void @_ZNK6dealii12SparseMatrixIdE5vmultINS_6VectorIfEES4_EEvRT_RKT0_(ptr noundef nonnull align 8 dereferenceable(36) %21, ptr noundef nonnull align 8 dereferenceable(88) %1, ptr noundef nonnull align 8 dereferenceable(88) %9)
  %22 = load ptr, ptr %4, align 8, !tbaa !32
  %23 = load ptr, ptr %22, align 8, !tbaa !5
  %24 = getelementptr inbounds ptr, ptr %23, i64 3
  %25 = load ptr, ptr %24, align 8
  tail call void %25(ptr noundef nonnull align 8 dereferenceable(72) %22, ptr noundef nonnull %9)
  ret void
}

declare void @_ZNK6dealii12SparseMatrixIdE5vmultINS_6VectorIfEES4_EEvRT_RKT0_(ptr noundef nonnull align 8 dereferenceable(36), ptr noundef nonnull align 8 dereferenceable(88), ptr noundef nonnull align 8 dereferenceable(88)) local_unnamed_addr #3

; Function Attrs: sspstrong uwtable
define weak_odr dso_local void @_ZNK6dealii19ProductSparseMatrixIdfE6TvmultERNS_6VectorIfEERKS3_(ptr noundef nonnull align 8 dereferenceable(120) %0, ptr noundef nonnull align 8 dereferenceable(88) %1, ptr noundef nonnull align 8 dereferenceable(88) %2) unnamed_addr #0 comdat align 2 {
  %4 = getelementptr inbounds %"class.dealii::ProductSparseMatrix.18", ptr %0, i64 0, i32 3
  %5 = load ptr, ptr %4, align 8, !tbaa !32
  %6 = load ptr, ptr %5, align 8, !tbaa !5
  %7 = getelementptr inbounds ptr, ptr %6, i64 2
  %8 = load ptr, ptr %7, align 8
  %9 = tail call noundef ptr %8(ptr noundef nonnull align 8 dereferenceable(72) %5)
  %10 = getelementptr inbounds %"class.dealii::ProductSparseMatrix.18", ptr %0, i64 0, i32 1
  %11 = load ptr, ptr %10, align 8, !tbaa !8
  %12 = getelementptr inbounds %"class.dealii::SparseMatrix", ptr %11, i64 0, i32 1
  %13 = load ptr, ptr %12, align 8, !tbaa !16
  %14 = getelementptr inbounds %"class.dealii::SparsityPattern", ptr %13, i64 0, i32 3
  %15 = load i32, ptr %14, align 8, !tbaa !18
  %16 = load ptr, ptr %9, align 8, !tbaa !5
  %17 = getelementptr inbounds ptr, ptr %16, i64 2
  %18 = load ptr, ptr %17, align 8
  tail call void %18(ptr noundef nonnull align 8 dereferenceable(88) %9, i32 noundef %15, i1 noundef zeroext false)
  %19 = load ptr, ptr %10, align 8, !tbaa !8
  tail call void @_ZNK6dealii12SparseMatrixIdE6TvmultINS_6VectorIfEES4_EEvRT_RKT0_(ptr noundef nonnull align 8 dereferenceable(36) %19, ptr noundef nonnull align 8 dereferenceable(88) %9, ptr noundef nonnull align 8 dereferenceable(88) %2)
  %20 = getelementptr inbounds %"class.dealii::ProductSparseMatrix.18", ptr %0, i64 0, i32 2
  %21 = load ptr, ptr %20, align 8, !tbaa !8
  tail call void @_ZNK6dealii12SparseMatrixIdE6TvmultINS_6VectorIfEES4_EEvRT_RKT0_(ptr noundef nonnull align 8 dereferenceable(36) %21, ptr noundef nonnull align 8 dereferenceable(88) %1, ptr noundef nonnull align 8 dereferenceable(88) %9)
  %22 = load ptr, ptr %4, align 8, !tbaa !32
  %23 = load ptr, ptr %22, align 8, !tbaa !5
  %24 = getelementptr inbounds ptr, ptr %23, i64 3
  %25 = load ptr, ptr %24, align 8
  tail call void %25(ptr noundef nonnull align 8 dereferenceable(72) %22, ptr noundef nonnull %9)
  ret void
}

declare void @_ZNK6dealii12SparseMatrixIdE6TvmultINS_6VectorIfEES4_EEvRT_RKT0_(ptr noundef nonnull align 8 dereferenceable(36), ptr noundef nonnull align 8 dereferenceable(88), ptr noundef nonnull align 8 dereferenceable(88)) local_unnamed_addr #3

; Function Attrs: sspstrong uwtable
define weak_odr dso_local void @_ZNK6dealii19ProductSparseMatrixIdfE9vmult_addERNS_6VectorIfEERKS3_(ptr noundef nonnull align 8 dereferenceable(120) %0, ptr noundef nonnull align 8 dereferenceable(88) %1, ptr noundef nonnull align 8 dereferenceable(88) %2) unnamed_addr #0 comdat align 2 {
  %4 = getelementptr inbounds %"class.dealii::ProductSparseMatrix.18", ptr %0, i64 0, i32 3
  %5 = load ptr, ptr %4, align 8, !tbaa !32
  %6 = load ptr, ptr %5, align 8, !tbaa !5
  %7 = getelementptr inbounds ptr, ptr %6, i64 2
  %8 = load ptr, ptr %7, align 8
  %9 = tail call noundef ptr %8(ptr noundef nonnull align 8 dereferenceable(72) %5)
  %10 = getelementptr inbounds %"class.dealii::ProductSparseMatrix.18", ptr %0, i64 0, i32 1
  %11 = load ptr, ptr %10, align 8, !tbaa !8
  %12 = getelementptr inbounds %"class.dealii::SparseMatrix", ptr %11, i64 0, i32 1
  %13 = load ptr, ptr %12, align 8, !tbaa !16
  %14 = getelementptr inbounds %"class.dealii::SparsityPattern", ptr %13, i64 0, i32 3
  %15 = load i32, ptr %14, align 8, !tbaa !18
  %16 = load ptr, ptr %9, align 8, !tbaa !5
  %17 = getelementptr inbounds ptr, ptr %16, i64 2
  %18 = load ptr, ptr %17, align 8
  tail call void %18(ptr noundef nonnull align 8 dereferenceable(88) %9, i32 noundef %15, i1 noundef zeroext false)
  %19 = getelementptr inbounds %"class.dealii::ProductSparseMatrix.18", ptr %0, i64 0, i32 2
  %20 = load ptr, ptr %19, align 8, !tbaa !8
  tail call void @_ZNK6dealii12SparseMatrixIdE5vmultINS_6VectorIfEES4_EEvRT_RKT0_(ptr noundef nonnull align 8 dereferenceable(36) %20, ptr noundef nonnull align 8 dereferenceable(88) %9, ptr noundef nonnull align 8 dereferenceable(88) %2)
  %21 = load ptr, ptr %10, align 8, !tbaa !8
  tail call void @_ZNK6dealii12SparseMatrixIdE9vmult_addINS_6VectorIfEES4_EEvRT_RKT0_(ptr noundef nonnull align 8 dereferenceable(36) %21, ptr noundef nonnull align 8 dereferenceable(88) %1, ptr noundef nonnull align 8 dereferenceable(88) %9)
  %22 = load ptr, ptr %4, align 8, !tbaa !32
  %23 = load ptr, ptr %22, align 8, !tbaa !5
  %24 = getelementptr inbounds ptr, ptr %23, i64 3
  %25 = load ptr, ptr %24, align 8
  tail call void %25(ptr noundef nonnull align 8 dereferenceable(72) %22, ptr noundef nonnull %9)
  ret void
}

declare void @_ZNK6dealii12SparseMatrixIdE9vmult_addINS_6VectorIfEES4_EEvRT_RKT0_(ptr noundef nonnull align 8 dereferenceable(36), ptr noundef nonnull align 8 dereferenceable(88), ptr noundef nonnull align 8 dereferenceable(88)) local_unnamed_addr #3

; Function Attrs: sspstrong uwtable
define weak_odr dso_local void @_ZNK6dealii19ProductSparseMatrixIdfE10Tvmult_addERNS_6VectorIfEERKS3_(ptr noundef nonnull align 8 dereferenceable(120) %0, ptr noundef nonnull align 8 dereferenceable(88) %1, ptr noundef nonnull align 8 dereferenceable(88) %2) unnamed_addr #0 comdat align 2 {
  %4 = getelementptr inbounds %"class.dealii::ProductSparseMatrix.18", ptr %0, i64 0, i32 3
  %5 = load ptr, ptr %4, align 8, !tbaa !32
  %6 = load ptr, ptr %5, align 8, !tbaa !5
  %7 = getelementptr inbounds ptr, ptr %6, i64 2
  %8 = load ptr, ptr %7, align 8
  %9 = tail call noundef ptr %8(ptr noundef nonnull align 8 dereferenceable(72) %5)
  %10 = getelementptr inbounds %"class.dealii::ProductSparseMatrix.18", ptr %0, i64 0, i32 1
  %11 = load ptr, ptr %10, align 8, !tbaa !8
  %12 = getelementptr inbounds %"class.dealii::SparseMatrix", ptr %11, i64 0, i32 1
  %13 = load ptr, ptr %12, align 8, !tbaa !16
  %14 = getelementptr inbounds %"class.dealii::SparsityPattern", ptr %13, i64 0, i32 3
  %15 = load i32, ptr %14, align 8, !tbaa !18
  %16 = load ptr, ptr %9, align 8, !tbaa !5
  %17 = getelementptr inbounds ptr, ptr %16, i64 2
  %18 = load ptr, ptr %17, align 8
  tail call void %18(ptr noundef nonnull align 8 dereferenceable(88) %9, i32 noundef %15, i1 noundef zeroext false)
  %19 = load ptr, ptr %10, align 8, !tbaa !8
  tail call void @_ZNK6dealii12SparseMatrixIdE6TvmultINS_6VectorIfEES4_EEvRT_RKT0_(ptr noundef nonnull align 8 dereferenceable(36) %19, ptr noundef nonnull align 8 dereferenceable(88) %9, ptr noundef nonnull align 8 dereferenceable(88) %2)
  %20 = getelementptr inbounds %"class.dealii::ProductSparseMatrix.18", ptr %0, i64 0, i32 2
  %21 = load ptr, ptr %20, align 8, !tbaa !8
  tail call void @_ZNK6dealii12SparseMatrixIdE10Tvmult_addINS_6VectorIfEES4_EEvRT_RKT0_(ptr noundef nonnull align 8 dereferenceable(36) %21, ptr noundef nonnull align 8 dereferenceable(88) %1, ptr noundef nonnull align 8 dereferenceable(88) %9)
  %22 = load ptr, ptr %4, align 8, !tbaa !32
  %23 = load ptr, ptr %22, align 8, !tbaa !5
  %24 = getelementptr inbounds ptr, ptr %23, i64 3
  %25 = load ptr, ptr %24, align 8
  tail call void %25(ptr noundef nonnull align 8 dereferenceable(72) %22, ptr noundef nonnull %9)
  ret void
}

declare void @_ZNK6dealii12SparseMatrixIdE10Tvmult_addINS_6VectorIfEES4_EEvRT_RKT0_(ptr noundef nonnull align 8 dereferenceable(36), ptr noundef nonnull align 8 dereferenceable(88), ptr noundef nonnull align 8 dereferenceable(88)) local_unnamed_addr #3

; Function Attrs: sspstrong uwtable
define weak_odr dso_local noundef ptr @_ZNK6dealii19ProductSparseMatrixIdfE3getEv(ptr noundef nonnull align 8 dereferenceable(120) %0) unnamed_addr #0 comdat align 2 {
  %2 = getelementptr inbounds %"class.dealii::ProductSparseMatrix.18", ptr %0, i64 0, i32 1
  %3 = load ptr, ptr %2, align 8, !tbaa !8
  ret ptr %3
}

; Function Attrs: sspstrong uwtable
define weak_odr dso_local void @_ZN6dealii19ProductSparseMatrixIfdEC2ERKNS_12SparseMatrixIfEES5_RNS_12VectorMemoryINS_6VectorIdEEEE(ptr noundef nonnull align 8 dereferenceable(120) %0, ptr noundef nonnull align 8 dereferenceable(36) %1, ptr noundef nonnull align 8 dereferenceable(36) %2, ptr noundef nonnull align 8 dereferenceable(72) %3) unnamed_addr #0 comdat($_ZN6dealii19ProductSparseMatrixIfdEC5ERKNS_12SparseMatrixIfEES5_RNS_12VectorMemoryINS_6VectorIdEEEE) align 2 personality ptr @__gxx_personality_v0 {
  tail call void @_ZN6dealii11SubscriptorC2Ev(ptr noundef nonnull align 8 dereferenceable(72) %0)
  store ptr getelementptr inbounds ({ [10 x ptr] }, ptr @_ZTVN6dealii19ProductSparseMatrixIfdEE, i64 0, inrange i32 0, i64 2), ptr %0, align 8, !tbaa !5
  %5 = getelementptr inbounds %"class.dealii::ProductSparseMatrix.23", ptr %0, i64 0, i32 1
  store ptr %1, ptr %5, align 8, !tbaa !35
  %6 = getelementptr inbounds %"class.dealii::ProductSparseMatrix.23", ptr %0, i64 0, i32 1, i32 1
  store ptr @_ZTSN6dealii19ProductSparseMatrixIfdEE, ptr %6, align 8, !tbaa !37
  %7 = getelementptr inbounds %"class.dealii::ProductSparseMatrix.23", ptr %0, i64 0, i32 2
  store ptr %2, ptr %7, align 8, !tbaa !35
  %8 = getelementptr inbounds %"class.dealii::ProductSparseMatrix.23", ptr %0, i64 0, i32 2, i32 1
  store ptr @_ZTSN6dealii19ProductSparseMatrixIfdEE, ptr %8, align 8, !tbaa !37
  %9 = getelementptr inbounds %"class.dealii::ProductSparseMatrix.23", ptr %0, i64 0, i32 3
  store ptr %3, ptr %9, align 8, !tbaa !13
  %10 = getelementptr inbounds %"class.dealii::ProductSparseMatrix.23", ptr %0, i64 0, i32 3, i32 1
  store ptr @_ZTSN6dealii19ProductSparseMatrixIfdEE, ptr %10, align 8, !tbaa !15
  ret void
}

; Function Attrs: sspstrong uwtable
define weak_odr dso_local void @_ZN6dealii19ProductSparseMatrixIfdEC2Ev(ptr noundef nonnull align 8 dereferenceable(120) %0) unnamed_addr #0 comdat($_ZN6dealii19ProductSparseMatrixIfdEC5Ev) align 2 personality ptr @__gxx_personality_v0 {
  tail call void @_ZN6dealii11SubscriptorC2Ev(ptr noundef nonnull align 8 dereferenceable(72) %0)
  store ptr getelementptr inbounds ({ [10 x ptr] }, ptr @_ZTVN6dealii19ProductSparseMatrixIfdEE, i64 0, inrange i32 0, i64 2), ptr %0, align 8, !tbaa !5
  %2 = getelementptr inbounds %"class.dealii::ProductSparseMatrix.23", ptr %0, i64 0, i32 1
  store ptr null, ptr %2, align 8, !tbaa !35
  %3 = getelementptr inbounds %"class.dealii::ProductSparseMatrix.23", ptr %0, i64 0, i32 1, i32 1
  store ptr @_ZTSN6dealii19ProductSparseMatrixIfdEE, ptr %3, align 8, !tbaa !37
  %4 = getelementptr inbounds %"class.dealii::ProductSparseMatrix.23", ptr %0, i64 0, i32 2
  store ptr null, ptr %4, align 8, !tbaa !35
  %5 = getelementptr inbounds %"class.dealii::ProductSparseMatrix.23", ptr %0, i64 0, i32 2, i32 1
  store ptr @_ZTSN6dealii19ProductSparseMatrixIfdEE, ptr %5, align 8, !tbaa !37
  %6 = getelementptr inbounds %"class.dealii::ProductSparseMatrix.23", ptr %0, i64 0, i32 3
  store ptr null, ptr %6, align 8, !tbaa !13
  %7 = getelementptr inbounds %"class.dealii::ProductSparseMatrix.23", ptr %0, i64 0, i32 3, i32 1
  store ptr @_ZTSN6dealii19ProductSparseMatrixIfdEE, ptr %7, align 8, !tbaa !15
  ret void
}

; Function Attrs: sspstrong uwtable
define weak_odr dso_local void @_ZN6dealii19ProductSparseMatrixIfdE10initializeERKNS_12SparseMatrixIfEES5_RNS_12VectorMemoryINS_6VectorIdEEEE(ptr noundef nonnull align 8 dereferenceable(120) %0, ptr noundef nonnull align 8 dereferenceable(36) %1, ptr noundef nonnull align 8 dereferenceable(36) %2, ptr noundef nonnull align 8 dereferenceable(72) %3) local_unnamed_addr #0 comdat align 2 {
  %5 = getelementptr inbounds %"class.dealii::ProductSparseMatrix.23", ptr %0, i64 0, i32 3
  %6 = load ptr, ptr %5, align 8, !tbaa !13
  %7 = icmp eq ptr %6, %3
  br i1 %7, label %9, label %8

8:                                                ; preds = %4
  store ptr %3, ptr %5, align 8, !tbaa !13
  br label %9

9:                                                ; preds = %4, %8
  %10 = getelementptr inbounds %"class.dealii::ProductSparseMatrix.23", ptr %0, i64 0, i32 1
  %11 = load ptr, ptr %10, align 8, !tbaa !35
  %12 = icmp eq ptr %11, %1
  br i1 %12, label %14, label %13

13:                                               ; preds = %9
  store ptr %1, ptr %10, align 8, !tbaa !35
  br label %14

14:                                               ; preds = %9, %13
  %15 = getelementptr inbounds %"class.dealii::ProductSparseMatrix.23", ptr %0, i64 0, i32 2
  %16 = load ptr, ptr %15, align 8, !tbaa !35
  %17 = icmp eq ptr %16, %2
  br i1 %17, label %19, label %18

18:                                               ; preds = %14
  store ptr %2, ptr %15, align 8, !tbaa !35
  br label %19

19:                                               ; preds = %14, %18
  ret void
}

; Function Attrs: sspstrong uwtable
define weak_odr dso_local void @_ZN6dealii19ProductSparseMatrixIfdE5clearEv(ptr noundef nonnull align 8 dereferenceable(120) %0) unnamed_addr #0 comdat align 2 {
  %2 = getelementptr inbounds %"class.dealii::ProductSparseMatrix.23", ptr %0, i64 0, i32 1
  %3 = load ptr, ptr %2, align 8, !tbaa !35
  %4 = icmp eq ptr %3, null
  br i1 %4, label %6, label %5

5:                                                ; preds = %1
  store ptr null, ptr %2, align 8, !tbaa !35
  br label %6

6:                                                ; preds = %1, %5
  %7 = getelementptr inbounds %"class.dealii::ProductSparseMatrix.23", ptr %0, i64 0, i32 2
  %8 = load ptr, ptr %7, align 8, !tbaa !35
  %9 = icmp eq ptr %8, null
  br i1 %9, label %11, label %10

10:                                               ; preds = %6
  store ptr null, ptr %7, align 8, !tbaa !35
  br label %11

11:                                               ; preds = %6, %10
  ret void
}

; Function Attrs: sspstrong uwtable
define weak_odr dso_local void @_ZNK6dealii19ProductSparseMatrixIfdE5vmultERNS_6VectorIdEERKS3_(ptr noundef nonnull align 8 dereferenceable(120) %0, ptr noundef nonnull align 8 dereferenceable(88) %1, ptr noundef nonnull align 8 dereferenceable(88) %2) unnamed_addr #0 comdat align 2 {
  %4 = getelementptr inbounds %"class.dealii::ProductSparseMatrix.23", ptr %0, i64 0, i32 3
  %5 = load ptr, ptr %4, align 8, !tbaa !13
  %6 = load ptr, ptr %5, align 8, !tbaa !5
  %7 = getelementptr inbounds ptr, ptr %6, i64 2
  %8 = load ptr, ptr %7, align 8
  %9 = tail call noundef ptr %8(ptr noundef nonnull align 8 dereferenceable(72) %5)
  %10 = getelementptr inbounds %"class.dealii::ProductSparseMatrix.23", ptr %0, i64 0, i32 1
  %11 = load ptr, ptr %10, align 8, !tbaa !35
  %12 = getelementptr inbounds %"class.dealii::SparseMatrix.25", ptr %11, i64 0, i32 1
  %13 = load ptr, ptr %12, align 8, !tbaa !16
  %14 = getelementptr inbounds %"class.dealii::SparsityPattern", ptr %13, i64 0, i32 3
  %15 = load i32, ptr %14, align 8, !tbaa !18
  %16 = load ptr, ptr %9, align 8, !tbaa !5
  %17 = getelementptr inbounds ptr, ptr %16, i64 2
  %18 = load ptr, ptr %17, align 8
  tail call void %18(ptr noundef nonnull align 8 dereferenceable(88) %9, i32 noundef %15, i1 noundef zeroext false)
  %19 = getelementptr inbounds %"class.dealii::ProductSparseMatrix.23", ptr %0, i64 0, i32 2
  %20 = load ptr, ptr %19, align 8, !tbaa !35
  tail call void @_ZNK6dealii12SparseMatrixIfE5vmultINS_6VectorIdEES4_EEvRT_RKT0_(ptr noundef nonnull align 8 dereferenceable(36) %20, ptr noundef nonnull align 8 dereferenceable(88) %9, ptr noundef nonnull align 8 dereferenceable(88) %2)
  %21 = load ptr, ptr %10, align 8, !tbaa !35
  tail call void @_ZNK6dealii12SparseMatrixIfE5vmultINS_6VectorIdEES4_EEvRT_RKT0_(ptr noundef nonnull align 8 dereferenceable(36) %21, ptr noundef nonnull align 8 dereferenceable(88) %1, ptr noundef nonnull align 8 dereferenceable(88) %9)
  %22 = load ptr, ptr %4, align 8, !tbaa !13
  %23 = load ptr, ptr %22, align 8, !tbaa !5
  %24 = getelementptr inbounds ptr, ptr %23, i64 3
  %25 = load ptr, ptr %24, align 8
  tail call void %25(ptr noundef nonnull align 8 dereferenceable(72) %22, ptr noundef nonnull %9)
  ret void
}

declare void @_ZNK6dealii12SparseMatrixIfE5vmultINS_6VectorIdEES4_EEvRT_RKT0_(ptr noundef nonnull align 8 dereferenceable(36), ptr noundef nonnull align 8 dereferenceable(88), ptr noundef nonnull align 8 dereferenceable(88)) local_unnamed_addr #3

; Function Attrs: sspstrong uwtable
define weak_odr dso_local void @_ZNK6dealii19ProductSparseMatrixIfdE6TvmultERNS_6VectorIdEERKS3_(ptr noundef nonnull align 8 dereferenceable(120) %0, ptr noundef nonnull align 8 dereferenceable(88) %1, ptr noundef nonnull align 8 dereferenceable(88) %2) unnamed_addr #0 comdat align 2 {
  %4 = getelementptr inbounds %"class.dealii::ProductSparseMatrix.23", ptr %0, i64 0, i32 3
  %5 = load ptr, ptr %4, align 8, !tbaa !13
  %6 = load ptr, ptr %5, align 8, !tbaa !5
  %7 = getelementptr inbounds ptr, ptr %6, i64 2
  %8 = load ptr, ptr %7, align 8
  %9 = tail call noundef ptr %8(ptr noundef nonnull align 8 dereferenceable(72) %5)
  %10 = getelementptr inbounds %"class.dealii::ProductSparseMatrix.23", ptr %0, i64 0, i32 1
  %11 = load ptr, ptr %10, align 8, !tbaa !35
  %12 = getelementptr inbounds %"class.dealii::SparseMatrix.25", ptr %11, i64 0, i32 1
  %13 = load ptr, ptr %12, align 8, !tbaa !16
  %14 = getelementptr inbounds %"class.dealii::SparsityPattern", ptr %13, i64 0, i32 3
  %15 = load i32, ptr %14, align 8, !tbaa !18
  %16 = load ptr, ptr %9, align 8, !tbaa !5
  %17 = getelementptr inbounds ptr, ptr %16, i64 2
  %18 = load ptr, ptr %17, align 8
  tail call void %18(ptr noundef nonnull align 8 dereferenceable(88) %9, i32 noundef %15, i1 noundef zeroext false)
  %19 = load ptr, ptr %10, align 8, !tbaa !35
  tail call void @_ZNK6dealii12SparseMatrixIfE6TvmultINS_6VectorIdEES4_EEvRT_RKT0_(ptr noundef nonnull align 8 dereferenceable(36) %19, ptr noundef nonnull align 8 dereferenceable(88) %9, ptr noundef nonnull align 8 dereferenceable(88) %2)
  %20 = getelementptr inbounds %"class.dealii::ProductSparseMatrix.23", ptr %0, i64 0, i32 2
  %21 = load ptr, ptr %20, align 8, !tbaa !35
  tail call void @_ZNK6dealii12SparseMatrixIfE6TvmultINS_6VectorIdEES4_EEvRT_RKT0_(ptr noundef nonnull align 8 dereferenceable(36) %21, ptr noundef nonnull align 8 dereferenceable(88) %1, ptr noundef nonnull align 8 dereferenceable(88) %9)
  %22 = load ptr, ptr %4, align 8, !tbaa !13
  %23 = load ptr, ptr %22, align 8, !tbaa !5
  %24 = getelementptr inbounds ptr, ptr %23, i64 3
  %25 = load ptr, ptr %24, align 8
  tail call void %25(ptr noundef nonnull align 8 dereferenceable(72) %22, ptr noundef nonnull %9)
  ret void
}

declare void @_ZNK6dealii12SparseMatrixIfE6TvmultINS_6VectorIdEES4_EEvRT_RKT0_(ptr noundef nonnull align 8 dereferenceable(36), ptr noundef nonnull align 8 dereferenceable(88), ptr noundef nonnull align 8 dereferenceable(88)) local_unnamed_addr #3

; Function Attrs: sspstrong uwtable
define weak_odr dso_local void @_ZNK6dealii19ProductSparseMatrixIfdE9vmult_addERNS_6VectorIdEERKS3_(ptr noundef nonnull align 8 dereferenceable(120) %0, ptr noundef nonnull align 8 dereferenceable(88) %1, ptr noundef nonnull align 8 dereferenceable(88) %2) unnamed_addr #0 comdat align 2 {
  %4 = getelementptr inbounds %"class.dealii::ProductSparseMatrix.23", ptr %0, i64 0, i32 3
  %5 = load ptr, ptr %4, align 8, !tbaa !13
  %6 = load ptr, ptr %5, align 8, !tbaa !5
  %7 = getelementptr inbounds ptr, ptr %6, i64 2
  %8 = load ptr, ptr %7, align 8
  %9 = tail call noundef ptr %8(ptr noundef nonnull align 8 dereferenceable(72) %5)
  %10 = getelementptr inbounds %"class.dealii::ProductSparseMatrix.23", ptr %0, i64 0, i32 1
  %11 = load ptr, ptr %10, align 8, !tbaa !35
  %12 = getelementptr inbounds %"class.dealii::SparseMatrix.25", ptr %11, i64 0, i32 1
  %13 = load ptr, ptr %12, align 8, !tbaa !16
  %14 = getelementptr inbounds %"class.dealii::SparsityPattern", ptr %13, i64 0, i32 3
  %15 = load i32, ptr %14, align 8, !tbaa !18
  %16 = load ptr, ptr %9, align 8, !tbaa !5
  %17 = getelementptr inbounds ptr, ptr %16, i64 2
  %18 = load ptr, ptr %17, align 8
  tail call void %18(ptr noundef nonnull align 8 dereferenceable(88) %9, i32 noundef %15, i1 noundef zeroext false)
  %19 = getelementptr inbounds %"class.dealii::ProductSparseMatrix.23", ptr %0, i64 0, i32 2
  %20 = load ptr, ptr %19, align 8, !tbaa !35
  tail call void @_ZNK6dealii12SparseMatrixIfE5vmultINS_6VectorIdEES4_EEvRT_RKT0_(ptr noundef nonnull align 8 dereferenceable(36) %20, ptr noundef nonnull align 8 dereferenceable(88) %9, ptr noundef nonnull align 8 dereferenceable(88) %2)
  %21 = load ptr, ptr %10, align 8, !tbaa !35
  tail call void @_ZNK6dealii12SparseMatrixIfE9vmult_addINS_6VectorIdEES4_EEvRT_RKT0_(ptr noundef nonnull align 8 dereferenceable(36) %21, ptr noundef nonnull align 8 dereferenceable(88) %1, ptr noundef nonnull align 8 dereferenceable(88) %9)
  %22 = load ptr, ptr %4, align 8, !tbaa !13
  %23 = load ptr, ptr %22, align 8, !tbaa !5
  %24 = getelementptr inbounds ptr, ptr %23, i64 3
  %25 = load ptr, ptr %24, align 8
  tail call void %25(ptr noundef nonnull align 8 dereferenceable(72) %22, ptr noundef nonnull %9)
  ret void
}

declare void @_ZNK6dealii12SparseMatrixIfE9vmult_addINS_6VectorIdEES4_EEvRT_RKT0_(ptr noundef nonnull align 8 dereferenceable(36), ptr noundef nonnull align 8 dereferenceable(88), ptr noundef nonnull align 8 dereferenceable(88)) local_unnamed_addr #3

; Function Attrs: sspstrong uwtable
define weak_odr dso_local void @_ZNK6dealii19ProductSparseMatrixIfdE10Tvmult_addERNS_6VectorIdEERKS3_(ptr noundef nonnull align 8 dereferenceable(120) %0, ptr noundef nonnull align 8 dereferenceable(88) %1, ptr noundef nonnull align 8 dereferenceable(88) %2) unnamed_addr #0 comdat align 2 {
  %4 = getelementptr inbounds %"class.dealii::ProductSparseMatrix.23", ptr %0, i64 0, i32 3
  %5 = load ptr, ptr %4, align 8, !tbaa !13
  %6 = load ptr, ptr %5, align 8, !tbaa !5
  %7 = getelementptr inbounds ptr, ptr %6, i64 2
  %8 = load ptr, ptr %7, align 8
  %9 = tail call noundef ptr %8(ptr noundef nonnull align 8 dereferenceable(72) %5)
  %10 = getelementptr inbounds %"class.dealii::ProductSparseMatrix.23", ptr %0, i64 0, i32 1
  %11 = load ptr, ptr %10, align 8, !tbaa !35
  %12 = getelementptr inbounds %"class.dealii::SparseMatrix.25", ptr %11, i64 0, i32 1
  %13 = load ptr, ptr %12, align 8, !tbaa !16
  %14 = getelementptr inbounds %"class.dealii::SparsityPattern", ptr %13, i64 0, i32 3
  %15 = load i32, ptr %14, align 8, !tbaa !18
  %16 = load ptr, ptr %9, align 8, !tbaa !5
  %17 = getelementptr inbounds ptr, ptr %16, i64 2
  %18 = load ptr, ptr %17, align 8
  tail call void %18(ptr noundef nonnull align 8 dereferenceable(88) %9, i32 noundef %15, i1 noundef zeroext false)
  %19 = load ptr, ptr %10, align 8, !tbaa !35
  tail call void @_ZNK6dealii12SparseMatrixIfE6TvmultINS_6VectorIdEES4_EEvRT_RKT0_(ptr noundef nonnull align 8 dereferenceable(36) %19, ptr noundef nonnull align 8 dereferenceable(88) %9, ptr noundef nonnull align 8 dereferenceable(88) %2)
  %20 = getelementptr inbounds %"class.dealii::ProductSparseMatrix.23", ptr %0, i64 0, i32 2
  %21 = load ptr, ptr %20, align 8, !tbaa !35
  tail call void @_ZNK6dealii12SparseMatrixIfE10Tvmult_addINS_6VectorIdEES4_EEvRT_RKT0_(ptr noundef nonnull align 8 dereferenceable(36) %21, ptr noundef nonnull align 8 dereferenceable(88) %1, ptr noundef nonnull align 8 dereferenceable(88) %9)
  %22 = load ptr, ptr %4, align 8, !tbaa !13
  %23 = load ptr, ptr %22, align 8, !tbaa !5
  %24 = getelementptr inbounds ptr, ptr %23, i64 3
  %25 = load ptr, ptr %24, align 8
  tail call void %25(ptr noundef nonnull align 8 dereferenceable(72) %22, ptr noundef nonnull %9)
  ret void
}

declare void @_ZNK6dealii12SparseMatrixIfE10Tvmult_addINS_6VectorIdEES4_EEvRT_RKT0_(ptr noundef nonnull align 8 dereferenceable(36), ptr noundef nonnull align 8 dereferenceable(88), ptr noundef nonnull align 8 dereferenceable(88)) local_unnamed_addr #3

; Function Attrs: sspstrong uwtable
define weak_odr dso_local noundef ptr @_ZNK6dealii19ProductSparseMatrixIfdE3getEv(ptr noundef nonnull align 8 dereferenceable(120) %0) unnamed_addr #0 comdat align 2 {
  %2 = getelementptr inbounds %"class.dealii::ProductSparseMatrix.23", ptr %0, i64 0, i32 1
  %3 = load ptr, ptr %2, align 8, !tbaa !35
  ret ptr %3
}

; Function Attrs: sspstrong uwtable
define weak_odr dso_local void @_ZN6dealii19ProductSparseMatrixIffEC2ERKNS_12SparseMatrixIfEES5_RNS_12VectorMemoryINS_6VectorIfEEEE(ptr noundef nonnull align 8 dereferenceable(120) %0, ptr noundef nonnull align 8 dereferenceable(36) %1, ptr noundef nonnull align 8 dereferenceable(36) %2, ptr noundef nonnull align 8 dereferenceable(72) %3) unnamed_addr #0 comdat($_ZN6dealii19ProductSparseMatrixIffEC5ERKNS_12SparseMatrixIfEES5_RNS_12VectorMemoryINS_6VectorIfEEEE) align 2 personality ptr @__gxx_personality_v0 {
  tail call void @_ZN6dealii11SubscriptorC2Ev(ptr noundef nonnull align 8 dereferenceable(72) %0)
  store ptr getelementptr inbounds ({ [10 x ptr] }, ptr @_ZTVN6dealii19ProductSparseMatrixIffEE, i64 0, inrange i32 0, i64 2), ptr %0, align 8, !tbaa !5
  %5 = getelementptr inbounds %"class.dealii::ProductSparseMatrix.27", ptr %0, i64 0, i32 1
  store ptr %1, ptr %5, align 8, !tbaa !35
  %6 = getelementptr inbounds %"class.dealii::ProductSparseMatrix.27", ptr %0, i64 0, i32 1, i32 1
  store ptr @_ZTSN6dealii19ProductSparseMatrixIffEE, ptr %6, align 8, !tbaa !37
  %7 = getelementptr inbounds %"class.dealii::ProductSparseMatrix.27", ptr %0, i64 0, i32 2
  store ptr %2, ptr %7, align 8, !tbaa !35
  %8 = getelementptr inbounds %"class.dealii::ProductSparseMatrix.27", ptr %0, i64 0, i32 2, i32 1
  store ptr @_ZTSN6dealii19ProductSparseMatrixIffEE, ptr %8, align 8, !tbaa !37
  %9 = getelementptr inbounds %"class.dealii::ProductSparseMatrix.27", ptr %0, i64 0, i32 3
  store ptr %3, ptr %9, align 8, !tbaa !32
  %10 = getelementptr inbounds %"class.dealii::ProductSparseMatrix.27", ptr %0, i64 0, i32 3, i32 1
  store ptr @_ZTSN6dealii19ProductSparseMatrixIffEE, ptr %10, align 8, !tbaa !34
  ret void
}

; Function Attrs: sspstrong uwtable
define weak_odr dso_local void @_ZN6dealii19ProductSparseMatrixIffEC2Ev(ptr noundef nonnull align 8 dereferenceable(120) %0) unnamed_addr #0 comdat($_ZN6dealii19ProductSparseMatrixIffEC5Ev) align 2 personality ptr @__gxx_personality_v0 {
  tail call void @_ZN6dealii11SubscriptorC2Ev(ptr noundef nonnull align 8 dereferenceable(72) %0)
  store ptr getelementptr inbounds ({ [10 x ptr] }, ptr @_ZTVN6dealii19ProductSparseMatrixIffEE, i64 0, inrange i32 0, i64 2), ptr %0, align 8, !tbaa !5
  %2 = getelementptr inbounds %"class.dealii::ProductSparseMatrix.27", ptr %0, i64 0, i32 1
  store ptr null, ptr %2, align 8, !tbaa !35
  %3 = getelementptr inbounds %"class.dealii::ProductSparseMatrix.27", ptr %0, i64 0, i32 1, i32 1
  store ptr @_ZTSN6dealii19ProductSparseMatrixIffEE, ptr %3, align 8, !tbaa !37
  %4 = getelementptr inbounds %"class.dealii::ProductSparseMatrix.27", ptr %0, i64 0, i32 2
  store ptr null, ptr %4, align 8, !tbaa !35
  %5 = getelementptr inbounds %"class.dealii::ProductSparseMatrix.27", ptr %0, i64 0, i32 2, i32 1
  store ptr @_ZTSN6dealii19ProductSparseMatrixIffEE, ptr %5, align 8, !tbaa !37
  %6 = getelementptr inbounds %"class.dealii::ProductSparseMatrix.27", ptr %0, i64 0, i32 3
  store ptr null, ptr %6, align 8, !tbaa !32
  %7 = getelementptr inbounds %"class.dealii::ProductSparseMatrix.27", ptr %0, i64 0, i32 3, i32 1
  store ptr @_ZTSN6dealii19ProductSparseMatrixIffEE, ptr %7, align 8, !tbaa !34
  ret void
}

; Function Attrs: sspstrong uwtable
define weak_odr dso_local void @_ZN6dealii19ProductSparseMatrixIffE10initializeERKNS_12SparseMatrixIfEES5_RNS_12VectorMemoryINS_6VectorIfEEEE(ptr noundef nonnull align 8 dereferenceable(120) %0, ptr noundef nonnull align 8 dereferenceable(36) %1, ptr noundef nonnull align 8 dereferenceable(36) %2, ptr noundef nonnull align 8 dereferenceable(72) %3) local_unnamed_addr #0 comdat align 2 {
  %5 = getelementptr inbounds %"class.dealii::ProductSparseMatrix.27", ptr %0, i64 0, i32 3
  %6 = load ptr, ptr %5, align 8, !tbaa !32
  %7 = icmp eq ptr %6, %3
  br i1 %7, label %9, label %8

8:                                                ; preds = %4
  store ptr %3, ptr %5, align 8, !tbaa !32
  br label %9

9:                                                ; preds = %4, %8
  %10 = getelementptr inbounds %"class.dealii::ProductSparseMatrix.27", ptr %0, i64 0, i32 1
  %11 = load ptr, ptr %10, align 8, !tbaa !35
  %12 = icmp eq ptr %11, %1
  br i1 %12, label %14, label %13

13:                                               ; preds = %9
  store ptr %1, ptr %10, align 8, !tbaa !35
  br label %14

14:                                               ; preds = %9, %13
  %15 = getelementptr inbounds %"class.dealii::ProductSparseMatrix.27", ptr %0, i64 0, i32 2
  %16 = load ptr, ptr %15, align 8, !tbaa !35
  %17 = icmp eq ptr %16, %2
  br i1 %17, label %19, label %18

18:                                               ; preds = %14
  store ptr %2, ptr %15, align 8, !tbaa !35
  br label %19

19:                                               ; preds = %14, %18
  ret void
}

; Function Attrs: sspstrong uwtable
define weak_odr dso_local void @_ZN6dealii19ProductSparseMatrixIffE5clearEv(ptr noundef nonnull align 8 dereferenceable(120) %0) unnamed_addr #0 comdat align 2 {
  %2 = getelementptr inbounds %"class.dealii::ProductSparseMatrix.27", ptr %0, i64 0, i32 1
  %3 = load ptr, ptr %2, align 8, !tbaa !35
  %4 = icmp eq ptr %3, null
  br i1 %4, label %6, label %5

5:                                                ; preds = %1
  store ptr null, ptr %2, align 8, !tbaa !35
  br label %6

6:                                                ; preds = %1, %5
  %7 = getelementptr inbounds %"class.dealii::ProductSparseMatrix.27", ptr %0, i64 0, i32 2
  %8 = load ptr, ptr %7, align 8, !tbaa !35
  %9 = icmp eq ptr %8, null
  br i1 %9, label %11, label %10

10:                                               ; preds = %6
  store ptr null, ptr %7, align 8, !tbaa !35
  br label %11

11:                                               ; preds = %6, %10
  ret void
}

; Function Attrs: sspstrong uwtable
define weak_odr dso_local void @_ZNK6dealii19ProductSparseMatrixIffE5vmultERNS_6VectorIfEERKS3_(ptr noundef nonnull align 8 dereferenceable(120) %0, ptr noundef nonnull align 8 dereferenceable(88) %1, ptr noundef nonnull align 8 dereferenceable(88) %2) unnamed_addr #0 comdat align 2 {
  %4 = getelementptr inbounds %"class.dealii::ProductSparseMatrix.27", ptr %0, i64 0, i32 3
  %5 = load ptr, ptr %4, align 8, !tbaa !32
  %6 = load ptr, ptr %5, align 8, !tbaa !5
  %7 = getelementptr inbounds ptr, ptr %6, i64 2
  %8 = load ptr, ptr %7, align 8
  %9 = tail call noundef ptr %8(ptr noundef nonnull align 8 dereferenceable(72) %5)
  %10 = getelementptr inbounds %"class.dealii::ProductSparseMatrix.27", ptr %0, i64 0, i32 1
  %11 = load ptr, ptr %10, align 8, !tbaa !35
  %12 = getelementptr inbounds %"class.dealii::SparseMatrix.25", ptr %11, i64 0, i32 1
  %13 = load ptr, ptr %12, align 8, !tbaa !16
  %14 = getelementptr inbounds %"class.dealii::SparsityPattern", ptr %13, i64 0, i32 3
  %15 = load i32, ptr %14, align 8, !tbaa !18
  %16 = load ptr, ptr %9, align 8, !tbaa !5
  %17 = getelementptr inbounds ptr, ptr %16, i64 2
  %18 = load ptr, ptr %17, align 8
  tail call void %18(ptr noundef nonnull align 8 dereferenceable(88) %9, i32 noundef %15, i1 noundef zeroext false)
  %19 = getelementptr inbounds %"class.dealii::ProductSparseMatrix.27", ptr %0, i64 0, i32 2
  %20 = load ptr, ptr %19, align 8, !tbaa !35
  tail call void @_ZNK6dealii12SparseMatrixIfE5vmultINS_6VectorIfEES4_EEvRT_RKT0_(ptr noundef nonnull align 8 dereferenceable(36) %20, ptr noundef nonnull align 8 dereferenceable(88) %9, ptr noundef nonnull align 8 dereferenceable(88) %2)
  %21 = load ptr, ptr %10, align 8, !tbaa !35
  tail call void @_ZNK6dealii12SparseMatrixIfE5vmultINS_6VectorIfEES4_EEvRT_RKT0_(ptr noundef nonnull align 8 dereferenceable(36) %21, ptr noundef nonnull align 8 dereferenceable(88) %1, ptr noundef nonnull align 8 dereferenceable(88) %9)
  %22 = load ptr, ptr %4, align 8, !tbaa !32
  %23 = load ptr, ptr %22, align 8, !tbaa !5
  %24 = getelementptr inbounds ptr, ptr %23, i64 3
  %25 = load ptr, ptr %24, align 8
  tail call void %25(ptr noundef nonnull align 8 dereferenceable(72) %22, ptr noundef nonnull %9)
  ret void
}

declare void @_ZNK6dealii12SparseMatrixIfE5vmultINS_6VectorIfEES4_EEvRT_RKT0_(ptr noundef nonnull align 8 dereferenceable(36), ptr noundef nonnull align 8 dereferenceable(88), ptr noundef nonnull align 8 dereferenceable(88)) local_unnamed_addr #3

; Function Attrs: sspstrong uwtable
define weak_odr dso_local void @_ZNK6dealii19ProductSparseMatrixIffE6TvmultERNS_6VectorIfEERKS3_(ptr noundef nonnull align 8 dereferenceable(120) %0, ptr noundef nonnull align 8 dereferenceable(88) %1, ptr noundef nonnull align 8 dereferenceable(88) %2) unnamed_addr #0 comdat align 2 {
  %4 = getelementptr inbounds %"class.dealii::ProductSparseMatrix.27", ptr %0, i64 0, i32 3
  %5 = load ptr, ptr %4, align 8, !tbaa !32
  %6 = load ptr, ptr %5, align 8, !tbaa !5
  %7 = getelementptr inbounds ptr, ptr %6, i64 2
  %8 = load ptr, ptr %7, align 8
  %9 = tail call noundef ptr %8(ptr noundef nonnull align 8 dereferenceable(72) %5)
  %10 = getelementptr inbounds %"class.dealii::ProductSparseMatrix.27", ptr %0, i64 0, i32 1
  %11 = load ptr, ptr %10, align 8, !tbaa !35
  %12 = getelementptr inbounds %"class.dealii::SparseMatrix.25", ptr %11, i64 0, i32 1
  %13 = load ptr, ptr %12, align 8, !tbaa !16
  %14 = getelementptr inbounds %"class.dealii::SparsityPattern", ptr %13, i64 0, i32 3
  %15 = load i32, ptr %14, align 8, !tbaa !18
  %16 = load ptr, ptr %9, align 8, !tbaa !5
  %17 = getelementptr inbounds ptr, ptr %16, i64 2
  %18 = load ptr, ptr %17, align 8
  tail call void %18(ptr noundef nonnull align 8 dereferenceable(88) %9, i32 noundef %15, i1 noundef zeroext false)
  %19 = load ptr, ptr %10, align 8, !tbaa !35
  tail call void @_ZNK6dealii12SparseMatrixIfE6TvmultINS_6VectorIfEES4_EEvRT_RKT0_(ptr noundef nonnull align 8 dereferenceable(36) %19, ptr noundef nonnull align 8 dereferenceable(88) %9, ptr noundef nonnull align 8 dereferenceable(88) %2)
  %20 = getelementptr inbounds %"class.dealii::ProductSparseMatrix.27", ptr %0, i64 0, i32 2
  %21 = load ptr, ptr %20, align 8, !tbaa !35
  tail call void @_ZNK6dealii12SparseMatrixIfE6TvmultINS_6VectorIfEES4_EEvRT_RKT0_(ptr noundef nonnull align 8 dereferenceable(36) %21, ptr noundef nonnull align 8 dereferenceable(88) %1, ptr noundef nonnull align 8 dereferenceable(88) %9)
  %22 = load ptr, ptr %4, align 8, !tbaa !32
  %23 = load ptr, ptr %22, align 8, !tbaa !5
  %24 = getelementptr inbounds ptr, ptr %23, i64 3
  %25 = load ptr, ptr %24, align 8
  tail call void %25(ptr noundef nonnull align 8 dereferenceable(72) %22, ptr noundef nonnull %9)
  ret void
}

declare void @_ZNK6dealii12SparseMatrixIfE6TvmultINS_6VectorIfEES4_EEvRT_RKT0_(ptr noundef nonnull align 8 dereferenceable(36), ptr noundef nonnull align 8 dereferenceable(88), ptr noundef nonnull align 8 dereferenceable(88)) local_unnamed_addr #3

; Function Attrs: sspstrong uwtable
define weak_odr dso_local void @_ZNK6dealii19ProductSparseMatrixIffE9vmult_addERNS_6VectorIfEERKS3_(ptr noundef nonnull align 8 dereferenceable(120) %0, ptr noundef nonnull align 8 dereferenceable(88) %1, ptr noundef nonnull align 8 dereferenceable(88) %2) unnamed_addr #0 comdat align 2 {
  %4 = getelementptr inbounds %"class.dealii::ProductSparseMatrix.27", ptr %0, i64 0, i32 3
  %5 = load ptr, ptr %4, align 8, !tbaa !32
  %6 = load ptr, ptr %5, align 8, !tbaa !5
  %7 = getelementptr inbounds ptr, ptr %6, i64 2
  %8 = load ptr, ptr %7, align 8
  %9 = tail call noundef ptr %8(ptr noundef nonnull align 8 dereferenceable(72) %5)
  %10 = getelementptr inbounds %"class.dealii::ProductSparseMatrix.27", ptr %0, i64 0, i32 1
  %11 = load ptr, ptr %10, align 8, !tbaa !35
  %12 = getelementptr inbounds %"class.dealii::SparseMatrix.25", ptr %11, i64 0, i32 1
  %13 = load ptr, ptr %12, align 8, !tbaa !16
  %14 = getelementptr inbounds %"class.dealii::SparsityPattern", ptr %13, i64 0, i32 3
  %15 = load i32, ptr %14, align 8, !tbaa !18
  %16 = load ptr, ptr %9, align 8, !tbaa !5
  %17 = getelementptr inbounds ptr, ptr %16, i64 2
  %18 = load ptr, ptr %17, align 8
  tail call void %18(ptr noundef nonnull align 8 dereferenceable(88) %9, i32 noundef %15, i1 noundef zeroext false)
  %19 = getelementptr inbounds %"class.dealii::ProductSparseMatrix.27", ptr %0, i64 0, i32 2
  %20 = load ptr, ptr %19, align 8, !tbaa !35
  tail call void @_ZNK6dealii12SparseMatrixIfE5vmultINS_6VectorIfEES4_EEvRT_RKT0_(ptr noundef nonnull align 8 dereferenceable(36) %20, ptr noundef nonnull align 8 dereferenceable(88) %9, ptr noundef nonnull align 8 dereferenceable(88) %2)
  %21 = load ptr, ptr %10, align 8, !tbaa !35
  tail call void @_ZNK6dealii12SparseMatrixIfE9vmult_addINS_6VectorIfEES4_EEvRT_RKT0_(ptr noundef nonnull align 8 dereferenceable(36) %21, ptr noundef nonnull align 8 dereferenceable(88) %1, ptr noundef nonnull align 8 dereferenceable(88) %9)
  %22 = load ptr, ptr %4, align 8, !tbaa !32
  %23 = load ptr, ptr %22, align 8, !tbaa !5
  %24 = getelementptr inbounds ptr, ptr %23, i64 3
  %25 = load ptr, ptr %24, align 8
  tail call void %25(ptr noundef nonnull align 8 dereferenceable(72) %22, ptr noundef nonnull %9)
  ret void
}

declare void @_ZNK6dealii12SparseMatrixIfE9vmult_addINS_6VectorIfEES4_EEvRT_RKT0_(ptr noundef nonnull align 8 dereferenceable(36), ptr noundef nonnull align 8 dereferenceable(88), ptr noundef nonnull align 8 dereferenceable(88)) local_unnamed_addr #3

; Function Attrs: sspstrong uwtable
define weak_odr dso_local void @_ZNK6dealii19ProductSparseMatrixIffE10Tvmult_addERNS_6VectorIfEERKS3_(ptr noundef nonnull align 8 dereferenceable(120) %0, ptr noundef nonnull align 8 dereferenceable(88) %1, ptr noundef nonnull align 8 dereferenceable(88) %2) unnamed_addr #0 comdat align 2 {
  %4 = getelementptr inbounds %"class.dealii::ProductSparseMatrix.27", ptr %0, i64 0, i32 3
  %5 = load ptr, ptr %4, align 8, !tbaa !32
  %6 = load ptr, ptr %5, align 8, !tbaa !5
  %7 = getelementptr inbounds ptr, ptr %6, i64 2
  %8 = load ptr, ptr %7, align 8
  %9 = tail call noundef ptr %8(ptr noundef nonnull align 8 dereferenceable(72) %5)
  %10 = getelementptr inbounds %"class.dealii::ProductSparseMatrix.27", ptr %0, i64 0, i32 1
  %11 = load ptr, ptr %10, align 8, !tbaa !35
  %12 = getelementptr inbounds %"class.dealii::SparseMatrix.25", ptr %11, i64 0, i32 1
  %13 = load ptr, ptr %12, align 8, !tbaa !16
  %14 = getelementptr inbounds %"class.dealii::SparsityPattern", ptr %13, i64 0, i32 3
  %15 = load i32, ptr %14, align 8, !tbaa !18
  %16 = load ptr, ptr %9, align 8, !tbaa !5
  %17 = getelementptr inbounds ptr, ptr %16, i64 2
  %18 = load ptr, ptr %17, align 8
  tail call void %18(ptr noundef nonnull align 8 dereferenceable(88) %9, i32 noundef %15, i1 noundef zeroext false)
  %19 = load ptr, ptr %10, align 8, !tbaa !35
  tail call void @_ZNK6dealii12SparseMatrixIfE6TvmultINS_6VectorIfEES4_EEvRT_RKT0_(ptr noundef nonnull align 8 dereferenceable(36) %19, ptr noundef nonnull align 8 dereferenceable(88) %9, ptr noundef nonnull align 8 dereferenceable(88) %2)
  %20 = getelementptr inbounds %"class.dealii::ProductSparseMatrix.27", ptr %0, i64 0, i32 2
  %21 = load ptr, ptr %20, align 8, !tbaa !35
  tail call void @_ZNK6dealii12SparseMatrixIfE10Tvmult_addINS_6VectorIfEES4_EEvRT_RKT0_(ptr noundef nonnull align 8 dereferenceable(36) %21, ptr noundef nonnull align 8 dereferenceable(88) %1, ptr noundef nonnull align 8 dereferenceable(88) %9)
  %22 = load ptr, ptr %4, align 8, !tbaa !32
  %23 = load ptr, ptr %22, align 8, !tbaa !5
  %24 = getelementptr inbounds ptr, ptr %23, i64 3
  %25 = load ptr, ptr %24, align 8
  tail call void %25(ptr noundef nonnull align 8 dereferenceable(72) %22, ptr noundef nonnull %9)
  ret void
}

declare void @_ZNK6dealii12SparseMatrixIfE10Tvmult_addINS_6VectorIfEES4_EEvRT_RKT0_(ptr noundef nonnull align 8 dereferenceable(36), ptr noundef nonnull align 8 dereferenceable(88), ptr noundef nonnull align 8 dereferenceable(88)) local_unnamed_addr #3

; Function Attrs: sspstrong uwtable
define weak_odr dso_local noundef ptr @_ZNK6dealii19ProductSparseMatrixIffE3getEv(ptr noundef nonnull align 8 dereferenceable(120) %0) unnamed_addr #0 comdat align 2 {
  %2 = getelementptr inbounds %"class.dealii::ProductSparseMatrix.27", ptr %0, i64 0, i32 1
  %3 = load ptr, ptr %2, align 8, !tbaa !35
  ret ptr %3
}

; Function Attrs: sspstrong uwtable
define weak_odr dso_local void @_ZNK6dealii15MeanValueFilter6filterIfEEvRNS_6VectorIT_EE(ptr noundef nonnull align 8 dereferenceable(76) %0, ptr noundef nonnull align 8 dereferenceable(88) %1) local_unnamed_addr #0 comdat align 2 {
  %3 = tail call noundef float @_ZNK6dealii6VectorIfE10mean_valueEv(ptr noundef nonnull align 8 dereferenceable(88) %1)
  %4 = getelementptr inbounds %"class.dealii::Vector.22", ptr %1, i64 0, i32 1
  %5 = load i32, ptr %4, align 8, !tbaa !38
  %6 = icmp eq i32 %5, 0
  br i1 %6, label %42, label %7

7:                                                ; preds = %2
  %8 = getelementptr inbounds %"class.dealii::Vector.22", ptr %1, i64 0, i32 3
  %9 = load ptr, ptr %8, align 8, !tbaa !40
  %10 = zext i32 %5 to i64
  %11 = icmp ult i32 %5, 32
  br i1 %11, label %40, label %12

12:                                               ; preds = %7
  %13 = and i64 %10, 4294967264
  %14 = insertelement <8 x float> poison, float %3, i64 0
  %15 = shufflevector <8 x float> %14, <8 x float> poison, <8 x i32> zeroinitializer
  %16 = insertelement <8 x float> poison, float %3, i64 0
  %17 = shufflevector <8 x float> %16, <8 x float> poison, <8 x i32> zeroinitializer
  %18 = insertelement <8 x float> poison, float %3, i64 0
  %19 = shufflevector <8 x float> %18, <8 x float> poison, <8 x i32> zeroinitializer
  %20 = insertelement <8 x float> poison, float %3, i64 0
  %21 = shufflevector <8 x float> %20, <8 x float> poison, <8 x i32> zeroinitializer
  br label %22

22:                                               ; preds = %22, %12
  %23 = phi i64 [ 0, %12 ], [ %36, %22 ]
  %24 = getelementptr inbounds float, ptr %9, i64 %23
  %25 = load <8 x float>, ptr %24, align 4, !tbaa !41
  %26 = getelementptr inbounds float, ptr %24, i64 8
  %27 = load <8 x float>, ptr %26, align 4, !tbaa !41
  %28 = getelementptr inbounds float, ptr %24, i64 16
  %29 = load <8 x float>, ptr %28, align 4, !tbaa !41
  %30 = getelementptr inbounds float, ptr %24, i64 24
  %31 = load <8 x float>, ptr %30, align 4, !tbaa !41
  %32 = fsub <8 x float> %25, %15
  %33 = fsub <8 x float> %27, %17
  %34 = fsub <8 x float> %29, %19
  %35 = fsub <8 x float> %31, %21
  store <8 x float> %32, ptr %24, align 4, !tbaa !41
  store <8 x float> %33, ptr %26, align 4, !tbaa !41
  store <8 x float> %34, ptr %28, align 4, !tbaa !41
  store <8 x float> %35, ptr %30, align 4, !tbaa !41
  %36 = add nuw i64 %23, 32
  %37 = icmp eq i64 %36, %13
  br i1 %37, label %38, label %22, !llvm.loop !43

38:                                               ; preds = %22
  %39 = icmp eq i64 %13, %10
  br i1 %39, label %42, label %40

40:                                               ; preds = %7, %38
  %41 = phi i64 [ 0, %7 ], [ %13, %38 ]
  br label %43

42:                                               ; preds = %43, %38, %2
  ret void

43:                                               ; preds = %40, %43
  %44 = phi i64 [ %48, %43 ], [ %41, %40 ]
  %45 = getelementptr inbounds float, ptr %9, i64 %44
  %46 = load float, ptr %45, align 4, !tbaa !41
  %47 = fsub float %46, %3
  store float %47, ptr %45, align 4, !tbaa !41
  %48 = add nuw nsw i64 %44, 1
  %49 = icmp eq i64 %48, %10
  br i1 %49, label %42, label %43, !llvm.loop !46
}

declare noundef float @_ZNK6dealii6VectorIfE10mean_valueEv(ptr noundef nonnull align 8 dereferenceable(88)) local_unnamed_addr #3

; Function Attrs: sspstrong uwtable
define weak_odr dso_local void @_ZNK6dealii15MeanValueFilter6filterIdEEvRNS_6VectorIT_EE(ptr noundef nonnull align 8 dereferenceable(76) %0, ptr noundef nonnull align 8 dereferenceable(88) %1) local_unnamed_addr #0 comdat align 2 {
  %3 = tail call noundef double @_ZNK6dealii6VectorIdE10mean_valueEv(ptr noundef nonnull align 8 dereferenceable(88) %1)
  %4 = getelementptr inbounds %"class.dealii::Vector", ptr %1, i64 0, i32 1
  %5 = load i32, ptr %4, align 8, !tbaa !47
  %6 = icmp eq i32 %5, 0
  br i1 %6, label %42, label %7

7:                                                ; preds = %2
  %8 = getelementptr inbounds %"class.dealii::Vector", ptr %1, i64 0, i32 3
  %9 = load ptr, ptr %8, align 8, !tbaa !49
  %10 = zext i32 %5 to i64
  %11 = icmp ult i32 %5, 16
  br i1 %11, label %40, label %12

12:                                               ; preds = %7
  %13 = and i64 %10, 4294967280
  %14 = insertelement <4 x double> poison, double %3, i64 0
  %15 = shufflevector <4 x double> %14, <4 x double> poison, <4 x i32> zeroinitializer
  %16 = insertelement <4 x double> poison, double %3, i64 0
  %17 = shufflevector <4 x double> %16, <4 x double> poison, <4 x i32> zeroinitializer
  %18 = insertelement <4 x double> poison, double %3, i64 0
  %19 = shufflevector <4 x double> %18, <4 x double> poison, <4 x i32> zeroinitializer
  %20 = insertelement <4 x double> poison, double %3, i64 0
  %21 = shufflevector <4 x double> %20, <4 x double> poison, <4 x i32> zeroinitializer
  br label %22

22:                                               ; preds = %22, %12
  %23 = phi i64 [ 0, %12 ], [ %36, %22 ]
  %24 = getelementptr inbounds double, ptr %9, i64 %23
  %25 = load <4 x double>, ptr %24, align 8, !tbaa !50
  %26 = getelementptr inbounds double, ptr %24, i64 4
  %27 = load <4 x double>, ptr %26, align 8, !tbaa !50
  %28 = getelementptr inbounds double, ptr %24, i64 8
  %29 = load <4 x double>, ptr %28, align 8, !tbaa !50
  %30 = getelementptr inbounds double, ptr %24, i64 12
  %31 = load <4 x double>, ptr %30, align 8, !tbaa !50
  %32 = fsub <4 x double> %25, %15
  %33 = fsub <4 x double> %27, %17
  %34 = fsub <4 x double> %29, %19
  %35 = fsub <4 x double> %31, %21
  store <4 x double> %32, ptr %24, align 8, !tbaa !50
  store <4 x double> %33, ptr %26, align 8, !tbaa !50
  store <4 x double> %34, ptr %28, align 8, !tbaa !50
  store <4 x double> %35, ptr %30, align 8, !tbaa !50
  %36 = add nuw i64 %23, 16
  %37 = icmp eq i64 %36, %13
  br i1 %37, label %38, label %22, !llvm.loop !52

38:                                               ; preds = %22
  %39 = icmp eq i64 %13, %10
  br i1 %39, label %42, label %40

40:                                               ; preds = %7, %38
  %41 = phi i64 [ 0, %7 ], [ %13, %38 ]
  br label %43

42:                                               ; preds = %43, %38, %2
  ret void

43:                                               ; preds = %40, %43
  %44 = phi i64 [ %48, %43 ], [ %41, %40 ]
  %45 = getelementptr inbounds double, ptr %9, i64 %44
  %46 = load double, ptr %45, align 8, !tbaa !50
  %47 = fsub double %46, %3
  store double %47, ptr %45, align 8, !tbaa !50
  %48 = add nuw nsw i64 %44, 1
  %49 = icmp eq i64 %48, %10
  br i1 %49, label %42, label %43, !llvm.loop !53
}

declare noundef double @_ZNK6dealii6VectorIdE10mean_valueEv(ptr noundef nonnull align 8 dereferenceable(88)) local_unnamed_addr #3

; Function Attrs: sspstrong uwtable
define weak_odr dso_local void @_ZNK6dealii15MeanValueFilter6filterIfEEvRNS_11BlockVectorIT_EE(ptr noundef nonnull align 8 dereferenceable(76) %0, ptr noundef nonnull align 8 dereferenceable(128) %1) local_unnamed_addr #0 comdat align 2 {
  %3 = getelementptr inbounds %"class.dealii::BlockVectorBase", ptr %1, i64 0, i32 2
  %4 = load i32, ptr %3, align 8, !tbaa !54
  %5 = icmp eq i32 %4, 0
  br i1 %5, label %9, label %6

6:                                                ; preds = %2
  %7 = getelementptr inbounds %"class.dealii::MeanValueFilter", ptr %0, i64 0, i32 1
  %8 = getelementptr inbounds %"class.dealii::BlockVectorBase", ptr %1, i64 0, i32 1
  br label %10

9:                                                ; preds = %66, %2
  ret void

10:                                               ; preds = %6, %66
  %11 = phi i64 [ 0, %6 ], [ %67, %66 ]
  %12 = load i32, ptr %7, align 8, !tbaa !60
  %13 = zext i32 %12 to i64
  %14 = icmp eq i64 %11, %13
  %15 = load ptr, ptr %8, align 8, !tbaa !62
  %16 = getelementptr inbounds %"class.dealii::Vector.22", ptr %15, i64 %11
  br i1 %14, label %17, label %64

17:                                               ; preds = %10
  %18 = tail call noundef float @_ZNK6dealii6VectorIfE10mean_valueEv(ptr noundef nonnull align 8 dereferenceable(88) %16)
  %19 = getelementptr inbounds %"class.dealii::Vector.22", ptr %15, i64 %11, i32 1
  %20 = load i32, ptr %19, align 8, !tbaa !38
  %21 = icmp eq i32 %20, 0
  br i1 %21, label %66, label %22

22:                                               ; preds = %17
  %23 = getelementptr inbounds %"class.dealii::Vector.22", ptr %15, i64 %11, i32 3
  %24 = load ptr, ptr %23, align 8, !tbaa !40
  %25 = zext i32 %20 to i64
  %26 = icmp ult i32 %20, 32
  br i1 %26, label %55, label %27

27:                                               ; preds = %22
  %28 = and i64 %25, 4294967264
  %29 = insertelement <8 x float> poison, float %18, i64 0
  %30 = shufflevector <8 x float> %29, <8 x float> poison, <8 x i32> zeroinitializer
  %31 = insertelement <8 x float> poison, float %18, i64 0
  %32 = shufflevector <8 x float> %31, <8 x float> poison, <8 x i32> zeroinitializer
  %33 = insertelement <8 x float> poison, float %18, i64 0
  %34 = shufflevector <8 x float> %33, <8 x float> poison, <8 x i32> zeroinitializer
  %35 = insertelement <8 x float> poison, float %18, i64 0
  %36 = shufflevector <8 x float> %35, <8 x float> poison, <8 x i32> zeroinitializer
  br label %37

37:                                               ; preds = %37, %27
  %38 = phi i64 [ 0, %27 ], [ %51, %37 ]
  %39 = getelementptr inbounds float, ptr %24, i64 %38
  %40 = load <8 x float>, ptr %39, align 4, !tbaa !41
  %41 = getelementptr inbounds float, ptr %39, i64 8
  %42 = load <8 x float>, ptr %41, align 4, !tbaa !41
  %43 = getelementptr inbounds float, ptr %39, i64 16
  %44 = load <8 x float>, ptr %43, align 4, !tbaa !41
  %45 = getelementptr inbounds float, ptr %39, i64 24
  %46 = load <8 x float>, ptr %45, align 4, !tbaa !41
  %47 = fsub <8 x float> %40, %30
  %48 = fsub <8 x float> %42, %32
  %49 = fsub <8 x float> %44, %34
  %50 = fsub <8 x float> %46, %36
  store <8 x float> %47, ptr %39, align 4, !tbaa !41
  store <8 x float> %48, ptr %41, align 4, !tbaa !41
  store <8 x float> %49, ptr %43, align 4, !tbaa !41
  store <8 x float> %50, ptr %45, align 4, !tbaa !41
  %51 = add nuw i64 %38, 32
  %52 = icmp eq i64 %51, %28
  br i1 %52, label %53, label %37, !llvm.loop !64

53:                                               ; preds = %37
  %54 = icmp eq i64 %28, %25
  br i1 %54, label %66, label %55

55:                                               ; preds = %22, %53
  %56 = phi i64 [ 0, %22 ], [ %28, %53 ]
  br label %57

57:                                               ; preds = %55, %57
  %58 = phi i64 [ %62, %57 ], [ %56, %55 ]
  %59 = getelementptr inbounds float, ptr %24, i64 %58
  %60 = load float, ptr %59, align 4, !tbaa !41
  %61 = fsub float %60, %18
  store float %61, ptr %59, align 4, !tbaa !41
  %62 = add nuw nsw i64 %58, 1
  %63 = icmp eq i64 %62, %25
  br i1 %63, label %66, label %57, !llvm.loop !65

64:                                               ; preds = %10
  %65 = tail call noundef nonnull align 8 dereferenceable(88) ptr @_ZN6dealii6VectorIfEaSERKS1_(ptr noundef nonnull align 8 dereferenceable(88) %16, ptr noundef nonnull align 8 dereferenceable(88) %16)
  br label %66

66:                                               ; preds = %57, %53, %17, %64
  %67 = add nuw nsw i64 %11, 1
  %68 = load i32, ptr %3, align 8, !tbaa !54
  %69 = zext i32 %68 to i64
  %70 = icmp ult i64 %67, %69
  br i1 %70, label %10, label %9
}

; Function Attrs: sspstrong uwtable
define weak_odr dso_local void @_ZNK6dealii15MeanValueFilter5vmultIfEEvRNS_6VectorIT_EERKS4_(ptr noundef nonnull align 8 dereferenceable(76) %0, ptr noundef nonnull align 8 dereferenceable(88) %1, ptr noundef nonnull align 8 dereferenceable(88) %2) local_unnamed_addr #0 comdat align 2 {
  %4 = tail call noundef float @_ZNK6dealii6VectorIfE10mean_valueEv(ptr noundef nonnull align 8 dereferenceable(88) %2)
  %5 = getelementptr inbounds %"class.dealii::Vector.22", ptr %1, i64 0, i32 1
  %6 = load i32, ptr %5, align 8, !tbaa !38
  %7 = icmp eq i32 %6, 0
  br i1 %7, label %71, label %8

8:                                                ; preds = %3
  %9 = getelementptr inbounds %"class.dealii::Vector.22", ptr %2, i64 0, i32 3
  %10 = load ptr, ptr %9, align 8, !tbaa !40
  %11 = getelementptr inbounds %"class.dealii::Vector.22", ptr %1, i64 0, i32 3
  %12 = load ptr, ptr %11, align 8, !tbaa !40
  %13 = zext i32 %6 to i64
  %14 = icmp ult i32 %6, 32
  %15 = ptrtoint ptr %12 to i64
  %16 = ptrtoint ptr %10 to i64
  %17 = sub i64 %15, %16
  %18 = icmp ult i64 %17, 128
  %19 = select i1 %14, i1 true, i1 %18
  br i1 %19, label %52, label %20

20:                                               ; preds = %8
  %21 = and i64 %13, 4294967264
  %22 = insertelement <8 x float> poison, float %4, i64 0
  %23 = shufflevector <8 x float> %22, <8 x float> poison, <8 x i32> zeroinitializer
  %24 = insertelement <8 x float> poison, float %4, i64 0
  %25 = shufflevector <8 x float> %24, <8 x float> poison, <8 x i32> zeroinitializer
  %26 = insertelement <8 x float> poison, float %4, i64 0
  %27 = shufflevector <8 x float> %26, <8 x float> poison, <8 x i32> zeroinitializer
  %28 = insertelement <8 x float> poison, float %4, i64 0
  %29 = shufflevector <8 x float> %28, <8 x float> poison, <8 x i32> zeroinitializer
  br label %30

30:                                               ; preds = %30, %20
  %31 = phi i64 [ 0, %20 ], [ %48, %30 ]
  %32 = getelementptr inbounds float, ptr %10, i64 %31
  %33 = load <8 x float>, ptr %32, align 4, !tbaa !41
  %34 = getelementptr inbounds float, ptr %32, i64 8
  %35 = load <8 x float>, ptr %34, align 4, !tbaa !41
  %36 = getelementptr inbounds float, ptr %32, i64 16
  %37 = load <8 x float>, ptr %36, align 4, !tbaa !41
  %38 = getelementptr inbounds float, ptr %32, i64 24
  %39 = load <8 x float>, ptr %38, align 4, !tbaa !41
  %40 = fsub <8 x float> %33, %23
  %41 = fsub <8 x float> %35, %25
  %42 = fsub <8 x float> %37, %27
  %43 = fsub <8 x float> %39, %29
  %44 = getelementptr inbounds float, ptr %12, i64 %31
  store <8 x float> %40, ptr %44, align 4, !tbaa !41
  %45 = getelementptr inbounds float, ptr %44, i64 8
  store <8 x float> %41, ptr %45, align 4, !tbaa !41
  %46 = getelementptr inbounds float, ptr %44, i64 16
  store <8 x float> %42, ptr %46, align 4, !tbaa !41
  %47 = getelementptr inbounds float, ptr %44, i64 24
  store <8 x float> %43, ptr %47, align 4, !tbaa !41
  %48 = add nuw i64 %31, 32
  %49 = icmp eq i64 %48, %21
  br i1 %49, label %50, label %30, !llvm.loop !66

50:                                               ; preds = %30
  %51 = icmp eq i64 %21, %13
  br i1 %51, label %71, label %52

52:                                               ; preds = %8, %50
  %53 = phi i64 [ 0, %8 ], [ %21, %50 ]
  %54 = xor i64 %53, -1
  %55 = add nsw i64 %54, %13
  %56 = and i64 %13, 3
  %57 = icmp eq i64 %56, 0
  br i1 %57, label %68, label %58

58:                                               ; preds = %52, %58
  %59 = phi i64 [ %65, %58 ], [ %53, %52 ]
  %60 = phi i64 [ %66, %58 ], [ 0, %52 ]
  %61 = getelementptr inbounds float, ptr %10, i64 %59
  %62 = load float, ptr %61, align 4, !tbaa !41
  %63 = fsub float %62, %4
  %64 = getelementptr inbounds float, ptr %12, i64 %59
  store float %63, ptr %64, align 4, !tbaa !41
  %65 = add nuw nsw i64 %59, 1
  %66 = add i64 %60, 1
  %67 = icmp eq i64 %66, %56
  br i1 %67, label %68, label %58, !llvm.loop !67

68:                                               ; preds = %58, %52
  %69 = phi i64 [ %53, %52 ], [ %65, %58 ]
  %70 = icmp ult i64 %55, 3
  br i1 %70, label %71, label %72

71:                                               ; preds = %68, %72, %50, %3
  ret void

72:                                               ; preds = %68, %72
  %73 = phi i64 [ %93, %72 ], [ %69, %68 ]
  %74 = getelementptr inbounds float, ptr %10, i64 %73
  %75 = load float, ptr %74, align 4, !tbaa !41
  %76 = fsub float %75, %4
  %77 = getelementptr inbounds float, ptr %12, i64 %73
  store float %76, ptr %77, align 4, !tbaa !41
  %78 = add nuw nsw i64 %73, 1
  %79 = getelementptr inbounds float, ptr %10, i64 %78
  %80 = load float, ptr %79, align 4, !tbaa !41
  %81 = fsub float %80, %4
  %82 = getelementptr inbounds float, ptr %12, i64 %78
  store float %81, ptr %82, align 4, !tbaa !41
  %83 = add nuw nsw i64 %73, 2
  %84 = getelementptr inbounds float, ptr %10, i64 %83
  %85 = load float, ptr %84, align 4, !tbaa !41
  %86 = fsub float %85, %4
  %87 = getelementptr inbounds float, ptr %12, i64 %83
  store float %86, ptr %87, align 4, !tbaa !41
  %88 = add nuw nsw i64 %73, 3
  %89 = getelementptr inbounds float, ptr %10, i64 %88
  %90 = load float, ptr %89, align 4, !tbaa !41
  %91 = fsub float %90, %4
  %92 = getelementptr inbounds float, ptr %12, i64 %88
  store float %91, ptr %92, align 4, !tbaa !41
  %93 = add nuw nsw i64 %73, 4
  %94 = icmp eq i64 %93, %13
  br i1 %94, label %71, label %72, !llvm.loop !69
}

declare noundef nonnull align 8 dereferenceable(88) ptr @_ZN6dealii6VectorIfEaSERKS1_(ptr noundef nonnull align 8 dereferenceable(88), ptr noundef nonnull align 8 dereferenceable(88)) local_unnamed_addr #3

; Function Attrs: sspstrong uwtable
define weak_odr dso_local void @_ZNK6dealii15MeanValueFilter6filterIdEEvRNS_11BlockVectorIT_EE(ptr noundef nonnull align 8 dereferenceable(76) %0, ptr noundef nonnull align 8 dereferenceable(128) %1) local_unnamed_addr #0 comdat align 2 {
  %3 = getelementptr inbounds %"class.dealii::BlockVectorBase.37", ptr %1, i64 0, i32 2
  %4 = load i32, ptr %3, align 8, !tbaa !54
  %5 = icmp eq i32 %4, 0
  br i1 %5, label %9, label %6

6:                                                ; preds = %2
  %7 = getelementptr inbounds %"class.dealii::MeanValueFilter", ptr %0, i64 0, i32 1
  %8 = getelementptr inbounds %"class.dealii::BlockVectorBase.37", ptr %1, i64 0, i32 1
  br label %10

9:                                                ; preds = %66, %2
  ret void

10:                                               ; preds = %6, %66
  %11 = phi i64 [ 0, %6 ], [ %67, %66 ]
  %12 = load i32, ptr %7, align 8, !tbaa !60
  %13 = zext i32 %12 to i64
  %14 = icmp eq i64 %11, %13
  %15 = load ptr, ptr %8, align 8, !tbaa !70
  %16 = getelementptr inbounds %"class.dealii::Vector", ptr %15, i64 %11
  br i1 %14, label %17, label %64

17:                                               ; preds = %10
  %18 = tail call noundef double @_ZNK6dealii6VectorIdE10mean_valueEv(ptr noundef nonnull align 8 dereferenceable(88) %16)
  %19 = getelementptr inbounds %"class.dealii::Vector", ptr %15, i64 %11, i32 1
  %20 = load i32, ptr %19, align 8, !tbaa !47
  %21 = icmp eq i32 %20, 0
  br i1 %21, label %66, label %22

22:                                               ; preds = %17
  %23 = getelementptr inbounds %"class.dealii::Vector", ptr %15, i64 %11, i32 3
  %24 = load ptr, ptr %23, align 8, !tbaa !49
  %25 = zext i32 %20 to i64
  %26 = icmp ult i32 %20, 16
  br i1 %26, label %55, label %27

27:                                               ; preds = %22
  %28 = and i64 %25, 4294967280
  %29 = insertelement <4 x double> poison, double %18, i64 0
  %30 = shufflevector <4 x double> %29, <4 x double> poison, <4 x i32> zeroinitializer
  %31 = insertelement <4 x double> poison, double %18, i64 0
  %32 = shufflevector <4 x double> %31, <4 x double> poison, <4 x i32> zeroinitializer
  %33 = insertelement <4 x double> poison, double %18, i64 0
  %34 = shufflevector <4 x double> %33, <4 x double> poison, <4 x i32> zeroinitializer
  %35 = insertelement <4 x double> poison, double %18, i64 0
  %36 = shufflevector <4 x double> %35, <4 x double> poison, <4 x i32> zeroinitializer
  br label %37

37:                                               ; preds = %37, %27
  %38 = phi i64 [ 0, %27 ], [ %51, %37 ]
  %39 = getelementptr inbounds double, ptr %24, i64 %38
  %40 = load <4 x double>, ptr %39, align 8, !tbaa !50
  %41 = getelementptr inbounds double, ptr %39, i64 4
  %42 = load <4 x double>, ptr %41, align 8, !tbaa !50
  %43 = getelementptr inbounds double, ptr %39, i64 8
  %44 = load <4 x double>, ptr %43, align 8, !tbaa !50
  %45 = getelementptr inbounds double, ptr %39, i64 12
  %46 = load <4 x double>, ptr %45, align 8, !tbaa !50
  %47 = fsub <4 x double> %40, %30
  %48 = fsub <4 x double> %42, %32
  %49 = fsub <4 x double> %44, %34
  %50 = fsub <4 x double> %46, %36
  store <4 x double> %47, ptr %39, align 8, !tbaa !50
  store <4 x double> %48, ptr %41, align 8, !tbaa !50
  store <4 x double> %49, ptr %43, align 8, !tbaa !50
  store <4 x double> %50, ptr %45, align 8, !tbaa !50
  %51 = add nuw i64 %38, 16
  %52 = icmp eq i64 %51, %28
  br i1 %52, label %53, label %37, !llvm.loop !72

53:                                               ; preds = %37
  %54 = icmp eq i64 %28, %25
  br i1 %54, label %66, label %55

55:                                               ; preds = %22, %53
  %56 = phi i64 [ 0, %22 ], [ %28, %53 ]
  br label %57

57:                                               ; preds = %55, %57
  %58 = phi i64 [ %62, %57 ], [ %56, %55 ]
  %59 = getelementptr inbounds double, ptr %24, i64 %58
  %60 = load double, ptr %59, align 8, !tbaa !50
  %61 = fsub double %60, %18
  store double %61, ptr %59, align 8, !tbaa !50
  %62 = add nuw nsw i64 %58, 1
  %63 = icmp eq i64 %62, %25
  br i1 %63, label %66, label %57, !llvm.loop !73

64:                                               ; preds = %10
  %65 = tail call noundef nonnull align 8 dereferenceable(88) ptr @_ZN6dealii6VectorIdEaSERKS1_(ptr noundef nonnull align 8 dereferenceable(88) %16, ptr noundef nonnull align 8 dereferenceable(88) %16)
  br label %66

66:                                               ; preds = %57, %53, %17, %64
  %67 = add nuw nsw i64 %11, 1
  %68 = load i32, ptr %3, align 8, !tbaa !54
  %69 = zext i32 %68 to i64
  %70 = icmp ult i64 %67, %69
  br i1 %70, label %10, label %9
}

; Function Attrs: sspstrong uwtable
define weak_odr dso_local void @_ZNK6dealii15MeanValueFilter5vmultIdEEvRNS_6VectorIT_EERKS4_(ptr noundef nonnull align 8 dereferenceable(76) %0, ptr noundef nonnull align 8 dereferenceable(88) %1, ptr noundef nonnull align 8 dereferenceable(88) %2) local_unnamed_addr #0 comdat align 2 {
  %4 = tail call noundef double @_ZNK6dealii6VectorIdE10mean_valueEv(ptr noundef nonnull align 8 dereferenceable(88) %2)
  %5 = getelementptr inbounds %"class.dealii::Vector", ptr %1, i64 0, i32 1
  %6 = load i32, ptr %5, align 8, !tbaa !47
  %7 = icmp eq i32 %6, 0
  br i1 %7, label %71, label %8

8:                                                ; preds = %3
  %9 = getelementptr inbounds %"class.dealii::Vector", ptr %2, i64 0, i32 3
  %10 = load ptr, ptr %9, align 8, !tbaa !49
  %11 = getelementptr inbounds %"class.dealii::Vector", ptr %1, i64 0, i32 3
  %12 = load ptr, ptr %11, align 8, !tbaa !49
  %13 = zext i32 %6 to i64
  %14 = icmp ult i32 %6, 16
  %15 = ptrtoint ptr %12 to i64
  %16 = ptrtoint ptr %10 to i64
  %17 = sub i64 %15, %16
  %18 = icmp ult i64 %17, 128
  %19 = select i1 %14, i1 true, i1 %18
  br i1 %19, label %52, label %20

20:                                               ; preds = %8
  %21 = and i64 %13, 4294967280
  %22 = insertelement <4 x double> poison, double %4, i64 0
  %23 = shufflevector <4 x double> %22, <4 x double> poison, <4 x i32> zeroinitializer
  %24 = insertelement <4 x double> poison, double %4, i64 0
  %25 = shufflevector <4 x double> %24, <4 x double> poison, <4 x i32> zeroinitializer
  %26 = insertelement <4 x double> poison, double %4, i64 0
  %27 = shufflevector <4 x double> %26, <4 x double> poison, <4 x i32> zeroinitializer
  %28 = insertelement <4 x double> poison, double %4, i64 0
  %29 = shufflevector <4 x double> %28, <4 x double> poison, <4 x i32> zeroinitializer
  br label %30

30:                                               ; preds = %30, %20
  %31 = phi i64 [ 0, %20 ], [ %48, %30 ]
  %32 = getelementptr inbounds double, ptr %10, i64 %31
  %33 = load <4 x double>, ptr %32, align 8, !tbaa !50
  %34 = getelementptr inbounds double, ptr %32, i64 4
  %35 = load <4 x double>, ptr %34, align 8, !tbaa !50
  %36 = getelementptr inbounds double, ptr %32, i64 8
  %37 = load <4 x double>, ptr %36, align 8, !tbaa !50
  %38 = getelementptr inbounds double, ptr %32, i64 12
  %39 = load <4 x double>, ptr %38, align 8, !tbaa !50
  %40 = fsub <4 x double> %33, %23
  %41 = fsub <4 x double> %35, %25
  %42 = fsub <4 x double> %37, %27
  %43 = fsub <4 x double> %39, %29
  %44 = getelementptr inbounds double, ptr %12, i64 %31
  store <4 x double> %40, ptr %44, align 8, !tbaa !50
  %45 = getelementptr inbounds double, ptr %44, i64 4
  store <4 x double> %41, ptr %45, align 8, !tbaa !50
  %46 = getelementptr inbounds double, ptr %44, i64 8
  store <4 x double> %42, ptr %46, align 8, !tbaa !50
  %47 = getelementptr inbounds double, ptr %44, i64 12
  store <4 x double> %43, ptr %47, align 8, !tbaa !50
  %48 = add nuw i64 %31, 16
  %49 = icmp eq i64 %48, %21
  br i1 %49, label %50, label %30, !llvm.loop !74

50:                                               ; preds = %30
  %51 = icmp eq i64 %21, %13
  br i1 %51, label %71, label %52

52:                                               ; preds = %8, %50
  %53 = phi i64 [ 0, %8 ], [ %21, %50 ]
  %54 = xor i64 %53, -1
  %55 = add nsw i64 %54, %13
  %56 = and i64 %13, 3
  %57 = icmp eq i64 %56, 0
  br i1 %57, label %68, label %58

58:                                               ; preds = %52, %58
  %59 = phi i64 [ %65, %58 ], [ %53, %52 ]
  %60 = phi i64 [ %66, %58 ], [ 0, %52 ]
  %61 = getelementptr inbounds double, ptr %10, i64 %59
  %62 = load double, ptr %61, align 8, !tbaa !50
  %63 = fsub double %62, %4
  %64 = getelementptr inbounds double, ptr %12, i64 %59
  store double %63, ptr %64, align 8, !tbaa !50
  %65 = add nuw nsw i64 %59, 1
  %66 = add i64 %60, 1
  %67 = icmp eq i64 %66, %56
  br i1 %67, label %68, label %58, !llvm.loop !75

68:                                               ; preds = %58, %52
  %69 = phi i64 [ %53, %52 ], [ %65, %58 ]
  %70 = icmp ult i64 %55, 3
  br i1 %70, label %71, label %72

71:                                               ; preds = %68, %72, %50, %3
  ret void

72:                                               ; preds = %68, %72
  %73 = phi i64 [ %93, %72 ], [ %69, %68 ]
  %74 = getelementptr inbounds double, ptr %10, i64 %73
  %75 = load double, ptr %74, align 8, !tbaa !50
  %76 = fsub double %75, %4
  %77 = getelementptr inbounds double, ptr %12, i64 %73
  store double %76, ptr %77, align 8, !tbaa !50
  %78 = add nuw nsw i64 %73, 1
  %79 = getelementptr inbounds double, ptr %10, i64 %78
  %80 = load double, ptr %79, align 8, !tbaa !50
  %81 = fsub double %80, %4
  %82 = getelementptr inbounds double, ptr %12, i64 %78
  store double %81, ptr %82, align 8, !tbaa !50
  %83 = add nuw nsw i64 %73, 2
  %84 = getelementptr inbounds double, ptr %10, i64 %83
  %85 = load double, ptr %84, align 8, !tbaa !50
  %86 = fsub double %85, %4
  %87 = getelementptr inbounds double, ptr %12, i64 %83
  store double %86, ptr %87, align 8, !tbaa !50
  %88 = add nuw nsw i64 %73, 3
  %89 = getelementptr inbounds double, ptr %10, i64 %88
  %90 = load double, ptr %89, align 8, !tbaa !50
  %91 = fsub double %90, %4
  %92 = getelementptr inbounds double, ptr %12, i64 %88
  store double %91, ptr %92, align 8, !tbaa !50
  %93 = add nuw nsw i64 %73, 4
  %94 = icmp eq i64 %93, %13
  br i1 %94, label %71, label %72, !llvm.loop !76
}

declare noundef nonnull align 8 dereferenceable(88) ptr @_ZN6dealii6VectorIdEaSERKS1_(ptr noundef nonnull align 8 dereferenceable(88), ptr noundef nonnull align 8 dereferenceable(88)) local_unnamed_addr #3

; Function Attrs: sspstrong uwtable
define weak_odr dso_local void @_ZNK6dealii15MeanValueFilter5vmultIfEEvRNS_11BlockVectorIT_EERKS4_(ptr noundef nonnull align 8 dereferenceable(76) %0, ptr noundef nonnull align 8 dereferenceable(128) %1, ptr noundef nonnull align 8 dereferenceable(128) %2) local_unnamed_addr #0 comdat align 2 {
  %4 = getelementptr inbounds %"class.dealii::BlockVectorBase", ptr %1, i64 0, i32 2
  %5 = load i32, ptr %4, align 8, !tbaa !54
  %6 = icmp eq i32 %5, 0
  br i1 %6, label %11, label %7

7:                                                ; preds = %3
  %8 = getelementptr inbounds %"class.dealii::MeanValueFilter", ptr %0, i64 0, i32 1
  %9 = getelementptr inbounds %"class.dealii::BlockVectorBase", ptr %2, i64 0, i32 1
  %10 = getelementptr inbounds %"class.dealii::BlockVectorBase", ptr %1, i64 0, i32 1
  br label %12

11:                                               ; preds = %117, %3
  ret void

12:                                               ; preds = %7, %117
  %13 = phi i64 [ 0, %7 ], [ %118, %117 ]
  %14 = load i32, ptr %8, align 8, !tbaa !60
  %15 = zext i32 %14 to i64
  %16 = icmp eq i64 %13, %15
  br i1 %16, label %17, label %111

17:                                               ; preds = %12
  %18 = load ptr, ptr %10, align 8, !tbaa !62
  %19 = load ptr, ptr %9, align 8, !tbaa !62
  %20 = getelementptr inbounds %"class.dealii::Vector.22", ptr %19, i64 %13
  %21 = tail call noundef float @_ZNK6dealii6VectorIfE10mean_valueEv(ptr noundef nonnull align 8 dereferenceable(88) %20)
  %22 = getelementptr inbounds %"class.dealii::Vector.22", ptr %18, i64 %13, i32 1
  %23 = load i32, ptr %22, align 8, !tbaa !38
  %24 = icmp eq i32 %23, 0
  br i1 %24, label %117, label %25

25:                                               ; preds = %17
  %26 = getelementptr inbounds %"class.dealii::Vector.22", ptr %19, i64 %13, i32 3
  %27 = load ptr, ptr %26, align 8, !tbaa !40
  %28 = getelementptr inbounds %"class.dealii::Vector.22", ptr %18, i64 %13, i32 3
  %29 = load ptr, ptr %28, align 8, !tbaa !40
  %30 = zext i32 %23 to i64
  %31 = icmp ult i32 %23, 32
  %32 = ptrtoint ptr %29 to i64
  %33 = ptrtoint ptr %27 to i64
  %34 = sub i64 %32, %33
  %35 = icmp ult i64 %34, 128
  %36 = select i1 %31, i1 true, i1 %35
  br i1 %36, label %69, label %37

37:                                               ; preds = %25
  %38 = and i64 %30, 4294967264
  %39 = insertelement <8 x float> poison, float %21, i64 0
  %40 = shufflevector <8 x float> %39, <8 x float> poison, <8 x i32> zeroinitializer
  %41 = insertelement <8 x float> poison, float %21, i64 0
  %42 = shufflevector <8 x float> %41, <8 x float> poison, <8 x i32> zeroinitializer
  %43 = insertelement <8 x float> poison, float %21, i64 0
  %44 = shufflevector <8 x float> %43, <8 x float> poison, <8 x i32> zeroinitializer
  %45 = insertelement <8 x float> poison, float %21, i64 0
  %46 = shufflevector <8 x float> %45, <8 x float> poison, <8 x i32> zeroinitializer
  br label %47

47:                                               ; preds = %47, %37
  %48 = phi i64 [ 0, %37 ], [ %65, %47 ]
  %49 = getelementptr inbounds float, ptr %27, i64 %48
  %50 = load <8 x float>, ptr %49, align 4, !tbaa !41
  %51 = getelementptr inbounds float, ptr %49, i64 8
  %52 = load <8 x float>, ptr %51, align 4, !tbaa !41
  %53 = getelementptr inbounds float, ptr %49, i64 16
  %54 = load <8 x float>, ptr %53, align 4, !tbaa !41
  %55 = getelementptr inbounds float, ptr %49, i64 24
  %56 = load <8 x float>, ptr %55, align 4, !tbaa !41
  %57 = fsub <8 x float> %50, %40
  %58 = fsub <8 x float> %52, %42
  %59 = fsub <8 x float> %54, %44
  %60 = fsub <8 x float> %56, %46
  %61 = getelementptr inbounds float, ptr %29, i64 %48
  store <8 x float> %57, ptr %61, align 4, !tbaa !41
  %62 = getelementptr inbounds float, ptr %61, i64 8
  store <8 x float> %58, ptr %62, align 4, !tbaa !41
  %63 = getelementptr inbounds float, ptr %61, i64 16
  store <8 x float> %59, ptr %63, align 4, !tbaa !41
  %64 = getelementptr inbounds float, ptr %61, i64 24
  store <8 x float> %60, ptr %64, align 4, !tbaa !41
  %65 = add nuw i64 %48, 32
  %66 = icmp eq i64 %65, %38
  br i1 %66, label %67, label %47, !llvm.loop !77

67:                                               ; preds = %47
  %68 = icmp eq i64 %38, %30
  br i1 %68, label %117, label %69

69:                                               ; preds = %25, %67
  %70 = phi i64 [ 0, %25 ], [ %38, %67 ]
  %71 = xor i64 %70, -1
  %72 = add nsw i64 %71, %30
  %73 = and i64 %30, 3
  %74 = icmp eq i64 %73, 0
  br i1 %74, label %85, label %75

75:                                               ; preds = %69, %75
  %76 = phi i64 [ %82, %75 ], [ %70, %69 ]
  %77 = phi i64 [ %83, %75 ], [ 0, %69 ]
  %78 = getelementptr inbounds float, ptr %27, i64 %76
  %79 = load float, ptr %78, align 4, !tbaa !41
  %80 = fsub float %79, %21
  %81 = getelementptr inbounds float, ptr %29, i64 %76
  store float %80, ptr %81, align 4, !tbaa !41
  %82 = add nuw nsw i64 %76, 1
  %83 = add i64 %77, 1
  %84 = icmp eq i64 %83, %73
  br i1 %84, label %85, label %75, !llvm.loop !78

85:                                               ; preds = %75, %69
  %86 = phi i64 [ %70, %69 ], [ %82, %75 ]
  %87 = icmp ult i64 %72, 3
  br i1 %87, label %117, label %88

88:                                               ; preds = %85, %88
  %89 = phi i64 [ %109, %88 ], [ %86, %85 ]
  %90 = getelementptr inbounds float, ptr %27, i64 %89
  %91 = load float, ptr %90, align 4, !tbaa !41
  %92 = fsub float %91, %21
  %93 = getelementptr inbounds float, ptr %29, i64 %89
  store float %92, ptr %93, align 4, !tbaa !41
  %94 = add nuw nsw i64 %89, 1
  %95 = getelementptr inbounds float, ptr %27, i64 %94
  %96 = load float, ptr %95, align 4, !tbaa !41
  %97 = fsub float %96, %21
  %98 = getelementptr inbounds float, ptr %29, i64 %94
  store float %97, ptr %98, align 4, !tbaa !41
  %99 = add nuw nsw i64 %89, 2
  %100 = getelementptr inbounds float, ptr %27, i64 %99
  %101 = load float, ptr %100, align 4, !tbaa !41
  %102 = fsub float %101, %21
  %103 = getelementptr inbounds float, ptr %29, i64 %99
  store float %102, ptr %103, align 4, !tbaa !41
  %104 = add nuw nsw i64 %89, 3
  %105 = getelementptr inbounds float, ptr %27, i64 %104
  %106 = load float, ptr %105, align 4, !tbaa !41
  %107 = fsub float %106, %21
  %108 = getelementptr inbounds float, ptr %29, i64 %104
  store float %107, ptr %108, align 4, !tbaa !41
  %109 = add nuw nsw i64 %89, 4
  %110 = icmp eq i64 %109, %30
  br i1 %110, label %117, label %88, !llvm.loop !79

111:                                              ; preds = %12
  %112 = load ptr, ptr %9, align 8, !tbaa !62
  %113 = getelementptr inbounds %"class.dealii::Vector.22", ptr %112, i64 %13
  %114 = load ptr, ptr %10, align 8, !tbaa !62
  %115 = getelementptr inbounds %"class.dealii::Vector.22", ptr %114, i64 %13
  %116 = tail call noundef nonnull align 8 dereferenceable(88) ptr @_ZN6dealii6VectorIfEaSERKS1_(ptr noundef nonnull align 8 dereferenceable(88) %115, ptr noundef nonnull align 8 dereferenceable(88) %113)
  br label %117

117:                                              ; preds = %85, %88, %67, %17, %111
  %118 = add nuw nsw i64 %13, 1
  %119 = load i32, ptr %4, align 8, !tbaa !54
  %120 = zext i32 %119 to i64
  %121 = icmp ult i64 %118, %120
  br i1 %121, label %12, label %11
}

; Function Attrs: sspstrong uwtable
define weak_odr dso_local void @_ZNK6dealii15MeanValueFilter5vmultIdEEvRNS_11BlockVectorIT_EERKS4_(ptr noundef nonnull align 8 dereferenceable(76) %0, ptr noundef nonnull align 8 dereferenceable(128) %1, ptr noundef nonnull align 8 dereferenceable(128) %2) local_unnamed_addr #0 comdat align 2 {
  %4 = getelementptr inbounds %"class.dealii::BlockVectorBase.37", ptr %1, i64 0, i32 2
  %5 = load i32, ptr %4, align 8, !tbaa !54
  %6 = icmp eq i32 %5, 0
  br i1 %6, label %11, label %7

7:                                                ; preds = %3
  %8 = getelementptr inbounds %"class.dealii::MeanValueFilter", ptr %0, i64 0, i32 1
  %9 = getelementptr inbounds %"class.dealii::BlockVectorBase.37", ptr %2, i64 0, i32 1
  %10 = getelementptr inbounds %"class.dealii::BlockVectorBase.37", ptr %1, i64 0, i32 1
  br label %12

11:                                               ; preds = %117, %3
  ret void

12:                                               ; preds = %7, %117
  %13 = phi i64 [ 0, %7 ], [ %118, %117 ]
  %14 = load i32, ptr %8, align 8, !tbaa !60
  %15 = zext i32 %14 to i64
  %16 = icmp eq i64 %13, %15
  br i1 %16, label %17, label %111

17:                                               ; preds = %12
  %18 = load ptr, ptr %10, align 8, !tbaa !70
  %19 = load ptr, ptr %9, align 8, !tbaa !70
  %20 = getelementptr inbounds %"class.dealii::Vector", ptr %19, i64 %13
  %21 = tail call noundef double @_ZNK6dealii6VectorIdE10mean_valueEv(ptr noundef nonnull align 8 dereferenceable(88) %20)
  %22 = getelementptr inbounds %"class.dealii::Vector", ptr %18, i64 %13, i32 1
  %23 = load i32, ptr %22, align 8, !tbaa !47
  %24 = icmp eq i32 %23, 0
  br i1 %24, label %117, label %25

25:                                               ; preds = %17
  %26 = getelementptr inbounds %"class.dealii::Vector", ptr %19, i64 %13, i32 3
  %27 = load ptr, ptr %26, align 8, !tbaa !49
  %28 = getelementptr inbounds %"class.dealii::Vector", ptr %18, i64 %13, i32 3
  %29 = load ptr, ptr %28, align 8, !tbaa !49
  %30 = zext i32 %23 to i64
  %31 = icmp ult i32 %23, 16
  %32 = ptrtoint ptr %29 to i64
  %33 = ptrtoint ptr %27 to i64
  %34 = sub i64 %32, %33
  %35 = icmp ult i64 %34, 128
  %36 = select i1 %31, i1 true, i1 %35
  br i1 %36, label %69, label %37

37:                                               ; preds = %25
  %38 = and i64 %30, 4294967280
  %39 = insertelement <4 x double> poison, double %21, i64 0
  %40 = shufflevector <4 x double> %39, <4 x double> poison, <4 x i32> zeroinitializer
  %41 = insertelement <4 x double> poison, double %21, i64 0
  %42 = shufflevector <4 x double> %41, <4 x double> poison, <4 x i32> zeroinitializer
  %43 = insertelement <4 x double> poison, double %21, i64 0
  %44 = shufflevector <4 x double> %43, <4 x double> poison, <4 x i32> zeroinitializer
  %45 = insertelement <4 x double> poison, double %21, i64 0
  %46 = shufflevector <4 x double> %45, <4 x double> poison, <4 x i32> zeroinitializer
  br label %47

47:                                               ; preds = %47, %37
  %48 = phi i64 [ 0, %37 ], [ %65, %47 ]
  %49 = getelementptr inbounds double, ptr %27, i64 %48
  %50 = load <4 x double>, ptr %49, align 8, !tbaa !50
  %51 = getelementptr inbounds double, ptr %49, i64 4
  %52 = load <4 x double>, ptr %51, align 8, !tbaa !50
  %53 = getelementptr inbounds double, ptr %49, i64 8
  %54 = load <4 x double>, ptr %53, align 8, !tbaa !50
  %55 = getelementptr inbounds double, ptr %49, i64 12
  %56 = load <4 x double>, ptr %55, align 8, !tbaa !50
  %57 = fsub <4 x double> %50, %40
  %58 = fsub <4 x double> %52, %42
  %59 = fsub <4 x double> %54, %44
  %60 = fsub <4 x double> %56, %46
  %61 = getelementptr inbounds double, ptr %29, i64 %48
  store <4 x double> %57, ptr %61, align 8, !tbaa !50
  %62 = getelementptr inbounds double, ptr %61, i64 4
  store <4 x double> %58, ptr %62, align 8, !tbaa !50
  %63 = getelementptr inbounds double, ptr %61, i64 8
  store <4 x double> %59, ptr %63, align 8, !tbaa !50
  %64 = getelementptr inbounds double, ptr %61, i64 12
  store <4 x double> %60, ptr %64, align 8, !tbaa !50
  %65 = add nuw i64 %48, 16
  %66 = icmp eq i64 %65, %38
  br i1 %66, label %67, label %47, !llvm.loop !80

67:                                               ; preds = %47
  %68 = icmp eq i64 %38, %30
  br i1 %68, label %117, label %69

69:                                               ; preds = %25, %67
  %70 = phi i64 [ 0, %25 ], [ %38, %67 ]
  %71 = xor i64 %70, -1
  %72 = add nsw i64 %71, %30
  %73 = and i64 %30, 3
  %74 = icmp eq i64 %73, 0
  br i1 %74, label %85, label %75

75:                                               ; preds = %69, %75
  %76 = phi i64 [ %82, %75 ], [ %70, %69 ]
  %77 = phi i64 [ %83, %75 ], [ 0, %69 ]
  %78 = getelementptr inbounds double, ptr %27, i64 %76
  %79 = load double, ptr %78, align 8, !tbaa !50
  %80 = fsub double %79, %21
  %81 = getelementptr inbounds double, ptr %29, i64 %76
  store double %80, ptr %81, align 8, !tbaa !50
  %82 = add nuw nsw i64 %76, 1
  %83 = add i64 %77, 1
  %84 = icmp eq i64 %83, %73
  br i1 %84, label %85, label %75, !llvm.loop !81

85:                                               ; preds = %75, %69
  %86 = phi i64 [ %70, %69 ], [ %82, %75 ]
  %87 = icmp ult i64 %72, 3
  br i1 %87, label %117, label %88

88:                                               ; preds = %85, %88
  %89 = phi i64 [ %109, %88 ], [ %86, %85 ]
  %90 = getelementptr inbounds double, ptr %27, i64 %89
  %91 = load double, ptr %90, align 8, !tbaa !50
  %92 = fsub double %91, %21
  %93 = getelementptr inbounds double, ptr %29, i64 %89
  store double %92, ptr %93, align 8, !tbaa !50
  %94 = add nuw nsw i64 %89, 1
  %95 = getelementptr inbounds double, ptr %27, i64 %94
  %96 = load double, ptr %95, align 8, !tbaa !50
  %97 = fsub double %96, %21
  %98 = getelementptr inbounds double, ptr %29, i64 %94
  store double %97, ptr %98, align 8, !tbaa !50
  %99 = add nuw nsw i64 %89, 2
  %100 = getelementptr inbounds double, ptr %27, i64 %99
  %101 = load double, ptr %100, align 8, !tbaa !50
  %102 = fsub double %101, %21
  %103 = getelementptr inbounds double, ptr %29, i64 %99
  store double %102, ptr %103, align 8, !tbaa !50
  %104 = add nuw nsw i64 %89, 3
  %105 = getelementptr inbounds double, ptr %27, i64 %104
  %106 = load double, ptr %105, align 8, !tbaa !50
  %107 = fsub double %106, %21
  %108 = getelementptr inbounds double, ptr %29, i64 %104
  store double %107, ptr %108, align 8, !tbaa !50
  %109 = add nuw nsw i64 %89, 4
  %110 = icmp eq i64 %109, %30
  br i1 %110, label %117, label %88, !llvm.loop !82

111:                                              ; preds = %12
  %112 = load ptr, ptr %9, align 8, !tbaa !70
  %113 = getelementptr inbounds %"class.dealii::Vector", ptr %112, i64 %13
  %114 = load ptr, ptr %10, align 8, !tbaa !70
  %115 = getelementptr inbounds %"class.dealii::Vector", ptr %114, i64 %13
  %116 = tail call noundef nonnull align 8 dereferenceable(88) ptr @_ZN6dealii6VectorIdEaSERKS1_(ptr noundef nonnull align 8 dereferenceable(88) %115, ptr noundef nonnull align 8 dereferenceable(88) %113)
  br label %117

117:                                              ; preds = %85, %88, %67, %17, %111
  %118 = add nuw nsw i64 %13, 1
  %119 = load i32, ptr %4, align 8, !tbaa !54
  %120 = zext i32 %119 to i64
  %121 = icmp ult i64 %118, %120
  br i1 %121, label %12, label %11
}

; Function Attrs: sspstrong uwtable
define weak_odr dso_local void @_ZNK6dealii15MeanValueFilter9vmult_addIfEEvRNS_6VectorIT_EERKS4_(ptr noundef nonnull align 8 dereferenceable(76) %0, ptr noundef nonnull align 8 dereferenceable(88) %1, ptr noundef nonnull align 8 dereferenceable(88) %2) local_unnamed_addr #0 comdat align 2 {
  %4 = tail call noundef float @_ZNK6dealii6VectorIfE10mean_valueEv(ptr noundef nonnull align 8 dereferenceable(88) %2)
  %5 = getelementptr inbounds %"class.dealii::Vector.22", ptr %1, i64 0, i32 1
  %6 = load i32, ptr %5, align 8, !tbaa !38
  %7 = icmp eq i32 %6, 0
  br i1 %7, label %79, label %8

8:                                                ; preds = %3
  %9 = getelementptr inbounds %"class.dealii::Vector.22", ptr %2, i64 0, i32 3
  %10 = load ptr, ptr %9, align 8, !tbaa !40
  %11 = getelementptr inbounds %"class.dealii::Vector.22", ptr %1, i64 0, i32 3
  %12 = load ptr, ptr %11, align 8, !tbaa !40
  %13 = zext i32 %6 to i64
  %14 = icmp ult i32 %6, 32
  br i1 %14, label %62, label %15

15:                                               ; preds = %8
  %16 = shl nuw nsw i64 %13, 2
  %17 = getelementptr i8, ptr %12, i64 %16
  %18 = getelementptr i8, ptr %10, i64 %16
  %19 = icmp ult ptr %12, %18
  %20 = icmp ult ptr %10, %17
  %21 = and i1 %19, %20
  br i1 %21, label %62, label %22

22:                                               ; preds = %15
  %23 = and i64 %13, 4294967264
  %24 = insertelement <8 x float> poison, float %4, i64 0
  %25 = shufflevector <8 x float> %24, <8 x float> poison, <8 x i32> zeroinitializer
  %26 = insertelement <8 x float> poison, float %4, i64 0
  %27 = shufflevector <8 x float> %26, <8 x float> poison, <8 x i32> zeroinitializer
  %28 = insertelement <8 x float> poison, float %4, i64 0
  %29 = shufflevector <8 x float> %28, <8 x float> poison, <8 x i32> zeroinitializer
  %30 = insertelement <8 x float> poison, float %4, i64 0
  %31 = shufflevector <8 x float> %30, <8 x float> poison, <8 x i32> zeroinitializer
  br label %32

32:                                               ; preds = %32, %22
  %33 = phi i64 [ 0, %22 ], [ %58, %32 ]
  %34 = getelementptr inbounds float, ptr %10, i64 %33
  %35 = load <8 x float>, ptr %34, align 4, !tbaa !41, !alias.scope !83
  %36 = getelementptr inbounds float, ptr %34, i64 8
  %37 = load <8 x float>, ptr %36, align 4, !tbaa !41, !alias.scope !83
  %38 = getelementptr inbounds float, ptr %34, i64 16
  %39 = load <8 x float>, ptr %38, align 4, !tbaa !41, !alias.scope !83
  %40 = getelementptr inbounds float, ptr %34, i64 24
  %41 = load <8 x float>, ptr %40, align 4, !tbaa !41, !alias.scope !83
  %42 = fsub <8 x float> %35, %25
  %43 = fsub <8 x float> %37, %27
  %44 = fsub <8 x float> %39, %29
  %45 = fsub <8 x float> %41, %31
  %46 = getelementptr inbounds float, ptr %12, i64 %33
  %47 = load <8 x float>, ptr %46, align 4, !tbaa !41, !alias.scope !86, !noalias !83
  %48 = getelementptr inbounds float, ptr %46, i64 8
  %49 = load <8 x float>, ptr %48, align 4, !tbaa !41, !alias.scope !86, !noalias !83
  %50 = getelementptr inbounds float, ptr %46, i64 16
  %51 = load <8 x float>, ptr %50, align 4, !tbaa !41, !alias.scope !86, !noalias !83
  %52 = getelementptr inbounds float, ptr %46, i64 24
  %53 = load <8 x float>, ptr %52, align 4, !tbaa !41, !alias.scope !86, !noalias !83
  %54 = fadd <8 x float> %42, %47
  %55 = fadd <8 x float> %43, %49
  %56 = fadd <8 x float> %44, %51
  %57 = fadd <8 x float> %45, %53
  store <8 x float> %54, ptr %46, align 4, !tbaa !41, !alias.scope !86, !noalias !83
  store <8 x float> %55, ptr %48, align 4, !tbaa !41, !alias.scope !86, !noalias !83
  store <8 x float> %56, ptr %50, align 4, !tbaa !41, !alias.scope !86, !noalias !83
  store <8 x float> %57, ptr %52, align 4, !tbaa !41, !alias.scope !86, !noalias !83
  %58 = add nuw i64 %33, 32
  %59 = icmp eq i64 %58, %23
  br i1 %59, label %60, label %32, !llvm.loop !88

60:                                               ; preds = %32
  %61 = icmp eq i64 %23, %13
  br i1 %61, label %79, label %62

62:                                               ; preds = %15, %8, %60
  %63 = phi i64 [ 0, %15 ], [ 0, %8 ], [ %23, %60 ]
  %64 = xor i64 %63, -1
  %65 = and i64 %13, 1
  %66 = icmp eq i64 %65, 0
  br i1 %66, label %75, label %67

67:                                               ; preds = %62
  %68 = getelementptr inbounds float, ptr %10, i64 %63
  %69 = load float, ptr %68, align 4, !tbaa !41
  %70 = fsub float %69, %4
  %71 = getelementptr inbounds float, ptr %12, i64 %63
  %72 = load float, ptr %71, align 4, !tbaa !41
  %73 = fadd float %70, %72
  store float %73, ptr %71, align 4, !tbaa !41
  %74 = or i64 %63, 1
  br label %75

75:                                               ; preds = %67, %62
  %76 = phi i64 [ %63, %62 ], [ %74, %67 ]
  %77 = sub nsw i64 0, %13
  %78 = icmp eq i64 %64, %77
  br i1 %78, label %79, label %80

79:                                               ; preds = %75, %80, %60, %3
  ret void

80:                                               ; preds = %75, %80
  %81 = phi i64 [ %95, %80 ], [ %76, %75 ]
  %82 = getelementptr inbounds float, ptr %10, i64 %81
  %83 = load float, ptr %82, align 4, !tbaa !41
  %84 = fsub float %83, %4
  %85 = getelementptr inbounds float, ptr %12, i64 %81
  %86 = load float, ptr %85, align 4, !tbaa !41
  %87 = fadd float %84, %86
  store float %87, ptr %85, align 4, !tbaa !41
  %88 = add nuw nsw i64 %81, 1
  %89 = getelementptr inbounds float, ptr %10, i64 %88
  %90 = load float, ptr %89, align 4, !tbaa !41
  %91 = fsub float %90, %4
  %92 = getelementptr inbounds float, ptr %12, i64 %88
  %93 = load float, ptr %92, align 4, !tbaa !41
  %94 = fadd float %91, %93
  store float %94, ptr %92, align 4, !tbaa !41
  %95 = add nuw nsw i64 %81, 2
  %96 = icmp eq i64 %95, %13
  br i1 %96, label %79, label %80, !llvm.loop !89
}

; Function Attrs: sspstrong uwtable
define weak_odr dso_local void @_ZNK6dealii15MeanValueFilter9vmult_addIdEEvRNS_6VectorIT_EERKS4_(ptr noundef nonnull align 8 dereferenceable(76) %0, ptr noundef nonnull align 8 dereferenceable(88) %1, ptr noundef nonnull align 8 dereferenceable(88) %2) local_unnamed_addr #0 comdat align 2 {
  %4 = tail call noundef double @_ZNK6dealii6VectorIdE10mean_valueEv(ptr noundef nonnull align 8 dereferenceable(88) %2)
  %5 = getelementptr inbounds %"class.dealii::Vector", ptr %1, i64 0, i32 1
  %6 = load i32, ptr %5, align 8, !tbaa !47
  %7 = icmp eq i32 %6, 0
  br i1 %7, label %79, label %8

8:                                                ; preds = %3
  %9 = getelementptr inbounds %"class.dealii::Vector", ptr %2, i64 0, i32 3
  %10 = load ptr, ptr %9, align 8, !tbaa !49
  %11 = getelementptr inbounds %"class.dealii::Vector", ptr %1, i64 0, i32 3
  %12 = load ptr, ptr %11, align 8, !tbaa !49
  %13 = zext i32 %6 to i64
  %14 = icmp ult i32 %6, 16
  br i1 %14, label %62, label %15

15:                                               ; preds = %8
  %16 = shl nuw nsw i64 %13, 3
  %17 = getelementptr i8, ptr %12, i64 %16
  %18 = getelementptr i8, ptr %10, i64 %16
  %19 = icmp ult ptr %12, %18
  %20 = icmp ult ptr %10, %17
  %21 = and i1 %19, %20
  br i1 %21, label %62, label %22

22:                                               ; preds = %15
  %23 = and i64 %13, 4294967280
  %24 = insertelement <4 x double> poison, double %4, i64 0
  %25 = shufflevector <4 x double> %24, <4 x double> poison, <4 x i32> zeroinitializer
  %26 = insertelement <4 x double> poison, double %4, i64 0
  %27 = shufflevector <4 x double> %26, <4 x double> poison, <4 x i32> zeroinitializer
  %28 = insertelement <4 x double> poison, double %4, i64 0
  %29 = shufflevector <4 x double> %28, <4 x double> poison, <4 x i32> zeroinitializer
  %30 = insertelement <4 x double> poison, double %4, i64 0
  %31 = shufflevector <4 x double> %30, <4 x double> poison, <4 x i32> zeroinitializer
  br label %32

32:                                               ; preds = %32, %22
  %33 = phi i64 [ 0, %22 ], [ %58, %32 ]
  %34 = getelementptr inbounds double, ptr %10, i64 %33
  %35 = load <4 x double>, ptr %34, align 8, !tbaa !50, !alias.scope !90
  %36 = getelementptr inbounds double, ptr %34, i64 4
  %37 = load <4 x double>, ptr %36, align 8, !tbaa !50, !alias.scope !90
  %38 = getelementptr inbounds double, ptr %34, i64 8
  %39 = load <4 x double>, ptr %38, align 8, !tbaa !50, !alias.scope !90
  %40 = getelementptr inbounds double, ptr %34, i64 12
  %41 = load <4 x double>, ptr %40, align 8, !tbaa !50, !alias.scope !90
  %42 = fsub <4 x double> %35, %25
  %43 = fsub <4 x double> %37, %27
  %44 = fsub <4 x double> %39, %29
  %45 = fsub <4 x double> %41, %31
  %46 = getelementptr inbounds double, ptr %12, i64 %33
  %47 = load <4 x double>, ptr %46, align 8, !tbaa !50, !alias.scope !93, !noalias !90
  %48 = getelementptr inbounds double, ptr %46, i64 4
  %49 = load <4 x double>, ptr %48, align 8, !tbaa !50, !alias.scope !93, !noalias !90
  %50 = getelementptr inbounds double, ptr %46, i64 8
  %51 = load <4 x double>, ptr %50, align 8, !tbaa !50, !alias.scope !93, !noalias !90
  %52 = getelementptr inbounds double, ptr %46, i64 12
  %53 = load <4 x double>, ptr %52, align 8, !tbaa !50, !alias.scope !93, !noalias !90
  %54 = fadd <4 x double> %42, %47
  %55 = fadd <4 x double> %43, %49
  %56 = fadd <4 x double> %44, %51
  %57 = fadd <4 x double> %45, %53
  store <4 x double> %54, ptr %46, align 8, !tbaa !50, !alias.scope !93, !noalias !90
  store <4 x double> %55, ptr %48, align 8, !tbaa !50, !alias.scope !93, !noalias !90
  store <4 x double> %56, ptr %50, align 8, !tbaa !50, !alias.scope !93, !noalias !90
  store <4 x double> %57, ptr %52, align 8, !tbaa !50, !alias.scope !93, !noalias !90
  %58 = add nuw i64 %33, 16
  %59 = icmp eq i64 %58, %23
  br i1 %59, label %60, label %32, !llvm.loop !95

60:                                               ; preds = %32
  %61 = icmp eq i64 %23, %13
  br i1 %61, label %79, label %62

62:                                               ; preds = %15, %8, %60
  %63 = phi i64 [ 0, %15 ], [ 0, %8 ], [ %23, %60 ]
  %64 = xor i64 %63, -1
  %65 = and i64 %13, 1
  %66 = icmp eq i64 %65, 0
  br i1 %66, label %75, label %67

67:                                               ; preds = %62
  %68 = getelementptr inbounds double, ptr %10, i64 %63
  %69 = load double, ptr %68, align 8, !tbaa !50
  %70 = fsub double %69, %4
  %71 = getelementptr inbounds double, ptr %12, i64 %63
  %72 = load double, ptr %71, align 8, !tbaa !50
  %73 = fadd double %70, %72
  store double %73, ptr %71, align 8, !tbaa !50
  %74 = or i64 %63, 1
  br label %75

75:                                               ; preds = %67, %62
  %76 = phi i64 [ %63, %62 ], [ %74, %67 ]
  %77 = sub nsw i64 0, %13
  %78 = icmp eq i64 %64, %77
  br i1 %78, label %79, label %80

79:                                               ; preds = %75, %80, %60, %3
  ret void

80:                                               ; preds = %75, %80
  %81 = phi i64 [ %95, %80 ], [ %76, %75 ]
  %82 = getelementptr inbounds double, ptr %10, i64 %81
  %83 = load double, ptr %82, align 8, !tbaa !50
  %84 = fsub double %83, %4
  %85 = getelementptr inbounds double, ptr %12, i64 %81
  %86 = load double, ptr %85, align 8, !tbaa !50
  %87 = fadd double %84, %86
  store double %87, ptr %85, align 8, !tbaa !50
  %88 = add nuw nsw i64 %81, 1
  %89 = getelementptr inbounds double, ptr %10, i64 %88
  %90 = load double, ptr %89, align 8, !tbaa !50
  %91 = fsub double %90, %4
  %92 = getelementptr inbounds double, ptr %12, i64 %88
  %93 = load double, ptr %92, align 8, !tbaa !50
  %94 = fadd double %91, %93
  store double %94, ptr %92, align 8, !tbaa !50
  %95 = add nuw nsw i64 %81, 2
  %96 = icmp eq i64 %95, %13
  br i1 %96, label %79, label %80, !llvm.loop !96
}

; Function Attrs: sspstrong uwtable
define weak_odr dso_local void @_ZNK6dealii15MeanValueFilter9vmult_addIfEEvRNS_11BlockVectorIT_EERKS4_(ptr noundef nonnull align 8 dereferenceable(76) %0, ptr noundef nonnull align 8 dereferenceable(128) %1, ptr noundef nonnull align 8 dereferenceable(128) %2) local_unnamed_addr #0 comdat align 2 {
  %4 = getelementptr inbounds %"class.dealii::BlockVectorBase", ptr %1, i64 0, i32 2
  %5 = load i32, ptr %4, align 8, !tbaa !54
  %6 = icmp eq i32 %5, 0
  br i1 %6, label %11, label %7

7:                                                ; preds = %3
  %8 = getelementptr inbounds %"class.dealii::MeanValueFilter", ptr %0, i64 0, i32 1
  %9 = getelementptr inbounds %"class.dealii::BlockVectorBase", ptr %1, i64 0, i32 1
  %10 = getelementptr inbounds %"class.dealii::BlockVectorBase", ptr %2, i64 0, i32 1
  br label %12

11:                                               ; preds = %117, %3
  ret void

12:                                               ; preds = %7, %117
  %13 = phi i64 [ 0, %7 ], [ %118, %117 ]
  %14 = load i32, ptr %8, align 8, !tbaa !60
  %15 = zext i32 %14 to i64
  %16 = icmp eq i64 %13, %15
  %17 = load ptr, ptr %9, align 8, !tbaa !62
  br i1 %16, label %18, label %113

18:                                               ; preds = %12
  %19 = load ptr, ptr %10, align 8, !tbaa !62
  %20 = getelementptr inbounds %"class.dealii::Vector.22", ptr %19, i64 %13
  %21 = tail call noundef float @_ZNK6dealii6VectorIfE10mean_valueEv(ptr noundef nonnull align 8 dereferenceable(88) %20)
  %22 = getelementptr inbounds %"class.dealii::Vector.22", ptr %17, i64 %13, i32 1
  %23 = load i32, ptr %22, align 8, !tbaa !38
  %24 = icmp eq i32 %23, 0
  br i1 %24, label %117, label %25

25:                                               ; preds = %18
  %26 = getelementptr inbounds %"class.dealii::Vector.22", ptr %19, i64 %13, i32 3
  %27 = load ptr, ptr %26, align 8, !tbaa !40
  %28 = getelementptr inbounds %"class.dealii::Vector.22", ptr %17, i64 %13, i32 3
  %29 = load ptr, ptr %28, align 8, !tbaa !40
  %30 = zext i32 %23 to i64
  %31 = icmp ult i32 %23, 32
  br i1 %31, label %79, label %32

32:                                               ; preds = %25
  %33 = shl nuw nsw i64 %30, 2
  %34 = getelementptr i8, ptr %29, i64 %33
  %35 = getelementptr i8, ptr %27, i64 %33
  %36 = icmp ult ptr %29, %35
  %37 = icmp ult ptr %27, %34
  %38 = and i1 %36, %37
  br i1 %38, label %79, label %39

39:                                               ; preds = %32
  %40 = and i64 %30, 4294967264
  %41 = insertelement <8 x float> poison, float %21, i64 0
  %42 = shufflevector <8 x float> %41, <8 x float> poison, <8 x i32> zeroinitializer
  %43 = insertelement <8 x float> poison, float %21, i64 0
  %44 = shufflevector <8 x float> %43, <8 x float> poison, <8 x i32> zeroinitializer
  %45 = insertelement <8 x float> poison, float %21, i64 0
  %46 = shufflevector <8 x float> %45, <8 x float> poison, <8 x i32> zeroinitializer
  %47 = insertelement <8 x float> poison, float %21, i64 0
  %48 = shufflevector <8 x float> %47, <8 x float> poison, <8 x i32> zeroinitializer
  br label %49

49:                                               ; preds = %49, %39
  %50 = phi i64 [ 0, %39 ], [ %75, %49 ]
  %51 = getelementptr inbounds float, ptr %27, i64 %50
  %52 = load <8 x float>, ptr %51, align 4, !tbaa !41, !alias.scope !97
  %53 = getelementptr inbounds float, ptr %51, i64 8
  %54 = load <8 x float>, ptr %53, align 4, !tbaa !41, !alias.scope !97
  %55 = getelementptr inbounds float, ptr %51, i64 16
  %56 = load <8 x float>, ptr %55, align 4, !tbaa !41, !alias.scope !97
  %57 = getelementptr inbounds float, ptr %51, i64 24
  %58 = load <8 x float>, ptr %57, align 4, !tbaa !41, !alias.scope !97
  %59 = fsub <8 x float> %52, %42
  %60 = fsub <8 x float> %54, %44
  %61 = fsub <8 x float> %56, %46
  %62 = fsub <8 x float> %58, %48
  %63 = getelementptr inbounds float, ptr %29, i64 %50
  %64 = load <8 x float>, ptr %63, align 4, !tbaa !41, !alias.scope !100, !noalias !97
  %65 = getelementptr inbounds float, ptr %63, i64 8
  %66 = load <8 x float>, ptr %65, align 4, !tbaa !41, !alias.scope !100, !noalias !97
  %67 = getelementptr inbounds float, ptr %63, i64 16
  %68 = load <8 x float>, ptr %67, align 4, !tbaa !41, !alias.scope !100, !noalias !97
  %69 = getelementptr inbounds float, ptr %63, i64 24
  %70 = load <8 x float>, ptr %69, align 4, !tbaa !41, !alias.scope !100, !noalias !97
  %71 = fadd <8 x float> %59, %64
  %72 = fadd <8 x float> %60, %66
  %73 = fadd <8 x float> %61, %68
  %74 = fadd <8 x float> %62, %70
  store <8 x float> %71, ptr %63, align 4, !tbaa !41, !alias.scope !100, !noalias !97
  store <8 x float> %72, ptr %65, align 4, !tbaa !41, !alias.scope !100, !noalias !97
  store <8 x float> %73, ptr %67, align 4, !tbaa !41, !alias.scope !100, !noalias !97
  store <8 x float> %74, ptr %69, align 4, !tbaa !41, !alias.scope !100, !noalias !97
  %75 = add nuw i64 %50, 32
  %76 = icmp eq i64 %75, %40
  br i1 %76, label %77, label %49, !llvm.loop !102

77:                                               ; preds = %49
  %78 = icmp eq i64 %40, %30
  br i1 %78, label %117, label %79

79:                                               ; preds = %32, %25, %77
  %80 = phi i64 [ 0, %32 ], [ 0, %25 ], [ %40, %77 ]
  %81 = xor i64 %80, -1
  %82 = and i64 %30, 1
  %83 = icmp eq i64 %82, 0
  br i1 %83, label %92, label %84

84:                                               ; preds = %79
  %85 = getelementptr inbounds float, ptr %27, i64 %80
  %86 = load float, ptr %85, align 4, !tbaa !41
  %87 = fsub float %86, %21
  %88 = getelementptr inbounds float, ptr %29, i64 %80
  %89 = load float, ptr %88, align 4, !tbaa !41
  %90 = fadd float %87, %89
  store float %90, ptr %88, align 4, !tbaa !41
  %91 = or i64 %80, 1
  br label %92

92:                                               ; preds = %84, %79
  %93 = phi i64 [ %80, %79 ], [ %91, %84 ]
  %94 = sub nsw i64 0, %30
  %95 = icmp eq i64 %81, %94
  br i1 %95, label %117, label %96

96:                                               ; preds = %92, %96
  %97 = phi i64 [ %111, %96 ], [ %93, %92 ]
  %98 = getelementptr inbounds float, ptr %27, i64 %97
  %99 = load float, ptr %98, align 4, !tbaa !41
  %100 = fsub float %99, %21
  %101 = getelementptr inbounds float, ptr %29, i64 %97
  %102 = load float, ptr %101, align 4, !tbaa !41
  %103 = fadd float %100, %102
  store float %103, ptr %101, align 4, !tbaa !41
  %104 = add nuw nsw i64 %97, 1
  %105 = getelementptr inbounds float, ptr %27, i64 %104
  %106 = load float, ptr %105, align 4, !tbaa !41
  %107 = fsub float %106, %21
  %108 = getelementptr inbounds float, ptr %29, i64 %104
  %109 = load float, ptr %108, align 4, !tbaa !41
  %110 = fadd float %107, %109
  store float %110, ptr %108, align 4, !tbaa !41
  %111 = add nuw nsw i64 %97, 2
  %112 = icmp eq i64 %111, %30
  br i1 %112, label %117, label %96, !llvm.loop !103

113:                                              ; preds = %12
  %114 = getelementptr inbounds %"class.dealii::Vector.22", ptr %17, i64 %13
  %115 = load ptr, ptr %10, align 8, !tbaa !62
  %116 = getelementptr inbounds %"class.dealii::Vector.22", ptr %115, i64 %13
  tail call void @_ZN6dealii6VectorIfE3addERKS1_(ptr noundef nonnull align 8 dereferenceable(88) %114, ptr noundef nonnull align 8 dereferenceable(88) %116)
  br label %117

117:                                              ; preds = %92, %96, %77, %18, %113
  %118 = add nuw nsw i64 %13, 1
  %119 = load i32, ptr %4, align 8, !tbaa !54
  %120 = zext i32 %119 to i64
  %121 = icmp ult i64 %118, %120
  br i1 %121, label %12, label %11
}

declare void @_ZN6dealii6VectorIfE3addERKS1_(ptr noundef nonnull align 8 dereferenceable(88), ptr noundef nonnull align 8 dereferenceable(88)) local_unnamed_addr #3

; Function Attrs: sspstrong uwtable
define weak_odr dso_local void @_ZNK6dealii15MeanValueFilter9vmult_addIdEEvRNS_11BlockVectorIT_EERKS4_(ptr noundef nonnull align 8 dereferenceable(76) %0, ptr noundef nonnull align 8 dereferenceable(128) %1, ptr noundef nonnull align 8 dereferenceable(128) %2) local_unnamed_addr #0 comdat align 2 {
  %4 = getelementptr inbounds %"class.dealii::BlockVectorBase.37", ptr %1, i64 0, i32 2
  %5 = load i32, ptr %4, align 8, !tbaa !54
  %6 = icmp eq i32 %5, 0
  br i1 %6, label %11, label %7

7:                                                ; preds = %3
  %8 = getelementptr inbounds %"class.dealii::MeanValueFilter", ptr %0, i64 0, i32 1
  %9 = getelementptr inbounds %"class.dealii::BlockVectorBase.37", ptr %1, i64 0, i32 1
  %10 = getelementptr inbounds %"class.dealii::BlockVectorBase.37", ptr %2, i64 0, i32 1
  br label %12

11:                                               ; preds = %117, %3
  ret void

12:                                               ; preds = %7, %117
  %13 = phi i64 [ 0, %7 ], [ %118, %117 ]
  %14 = load i32, ptr %8, align 8, !tbaa !60
  %15 = zext i32 %14 to i64
  %16 = icmp eq i64 %13, %15
  %17 = load ptr, ptr %9, align 8, !tbaa !70
  br i1 %16, label %18, label %113

18:                                               ; preds = %12
  %19 = load ptr, ptr %10, align 8, !tbaa !70
  %20 = getelementptr inbounds %"class.dealii::Vector", ptr %19, i64 %13
  %21 = tail call noundef double @_ZNK6dealii6VectorIdE10mean_valueEv(ptr noundef nonnull align 8 dereferenceable(88) %20)
  %22 = getelementptr inbounds %"class.dealii::Vector", ptr %17, i64 %13, i32 1
  %23 = load i32, ptr %22, align 8, !tbaa !47
  %24 = icmp eq i32 %23, 0
  br i1 %24, label %117, label %25

25:                                               ; preds = %18
  %26 = getelementptr inbounds %"class.dealii::Vector", ptr %19, i64 %13, i32 3
  %27 = load ptr, ptr %26, align 8, !tbaa !49
  %28 = getelementptr inbounds %"class.dealii::Vector", ptr %17, i64 %13, i32 3
  %29 = load ptr, ptr %28, align 8, !tbaa !49
  %30 = zext i32 %23 to i64
  %31 = icmp ult i32 %23, 16
  br i1 %31, label %79, label %32

32:                                               ; preds = %25
  %33 = shl nuw nsw i64 %30, 3
  %34 = getelementptr i8, ptr %29, i64 %33
  %35 = getelementptr i8, ptr %27, i64 %33
  %36 = icmp ult ptr %29, %35
  %37 = icmp ult ptr %27, %34
  %38 = and i1 %36, %37
  br i1 %38, label %79, label %39

39:                                               ; preds = %32
  %40 = and i64 %30, 4294967280
  %41 = insertelement <4 x double> poison, double %21, i64 0
  %42 = shufflevector <4 x double> %41, <4 x double> poison, <4 x i32> zeroinitializer
  %43 = insertelement <4 x double> poison, double %21, i64 0
  %44 = shufflevector <4 x double> %43, <4 x double> poison, <4 x i32> zeroinitializer
  %45 = insertelement <4 x double> poison, double %21, i64 0
  %46 = shufflevector <4 x double> %45, <4 x double> poison, <4 x i32> zeroinitializer
  %47 = insertelement <4 x double> poison, double %21, i64 0
  %48 = shufflevector <4 x double> %47, <4 x double> poison, <4 x i32> zeroinitializer
  br label %49

49:                                               ; preds = %49, %39
  %50 = phi i64 [ 0, %39 ], [ %75, %49 ]
  %51 = getelementptr inbounds double, ptr %27, i64 %50
  %52 = load <4 x double>, ptr %51, align 8, !tbaa !50, !alias.scope !104
  %53 = getelementptr inbounds double, ptr %51, i64 4
  %54 = load <4 x double>, ptr %53, align 8, !tbaa !50, !alias.scope !104
  %55 = getelementptr inbounds double, ptr %51, i64 8
  %56 = load <4 x double>, ptr %55, align 8, !tbaa !50, !alias.scope !104
  %57 = getelementptr inbounds double, ptr %51, i64 12
  %58 = load <4 x double>, ptr %57, align 8, !tbaa !50, !alias.scope !104
  %59 = fsub <4 x double> %52, %42
  %60 = fsub <4 x double> %54, %44
  %61 = fsub <4 x double> %56, %46
  %62 = fsub <4 x double> %58, %48
  %63 = getelementptr inbounds double, ptr %29, i64 %50
  %64 = load <4 x double>, ptr %63, align 8, !tbaa !50, !alias.scope !107, !noalias !104
  %65 = getelementptr inbounds double, ptr %63, i64 4
  %66 = load <4 x double>, ptr %65, align 8, !tbaa !50, !alias.scope !107, !noalias !104
  %67 = getelementptr inbounds double, ptr %63, i64 8
  %68 = load <4 x double>, ptr %67, align 8, !tbaa !50, !alias.scope !107, !noalias !104
  %69 = getelementptr inbounds double, ptr %63, i64 12
  %70 = load <4 x double>, ptr %69, align 8, !tbaa !50, !alias.scope !107, !noalias !104
  %71 = fadd <4 x double> %59, %64
  %72 = fadd <4 x double> %60, %66
  %73 = fadd <4 x double> %61, %68
  %74 = fadd <4 x double> %62, %70
  store <4 x double> %71, ptr %63, align 8, !tbaa !50, !alias.scope !107, !noalias !104
  store <4 x double> %72, ptr %65, align 8, !tbaa !50, !alias.scope !107, !noalias !104
  store <4 x double> %73, ptr %67, align 8, !tbaa !50, !alias.scope !107, !noalias !104
  store <4 x double> %74, ptr %69, align 8, !tbaa !50, !alias.scope !107, !noalias !104
  %75 = add nuw i64 %50, 16
  %76 = icmp eq i64 %75, %40
  br i1 %76, label %77, label %49, !llvm.loop !109

77:                                               ; preds = %49
  %78 = icmp eq i64 %40, %30
  br i1 %78, label %117, label %79

79:                                               ; preds = %32, %25, %77
  %80 = phi i64 [ 0, %32 ], [ 0, %25 ], [ %40, %77 ]
  %81 = xor i64 %80, -1
  %82 = and i64 %30, 1
  %83 = icmp eq i64 %82, 0
  br i1 %83, label %92, label %84

84:                                               ; preds = %79
  %85 = getelementptr inbounds double, ptr %27, i64 %80
  %86 = load double, ptr %85, align 8, !tbaa !50
  %87 = fsub double %86, %21
  %88 = getelementptr inbounds double, ptr %29, i64 %80
  %89 = load double, ptr %88, align 8, !tbaa !50
  %90 = fadd double %87, %89
  store double %90, ptr %88, align 8, !tbaa !50
  %91 = or i64 %80, 1
  br label %92

92:                                               ; preds = %84, %79
  %93 = phi i64 [ %80, %79 ], [ %91, %84 ]
  %94 = sub nsw i64 0, %30
  %95 = icmp eq i64 %81, %94
  br i1 %95, label %117, label %96

96:                                               ; preds = %92, %96
  %97 = phi i64 [ %111, %96 ], [ %93, %92 ]
  %98 = getelementptr inbounds double, ptr %27, i64 %97
  %99 = load double, ptr %98, align 8, !tbaa !50
  %100 = fsub double %99, %21
  %101 = getelementptr inbounds double, ptr %29, i64 %97
  %102 = load double, ptr %101, align 8, !tbaa !50
  %103 = fadd double %100, %102
  store double %103, ptr %101, align 8, !tbaa !50
  %104 = add nuw nsw i64 %97, 1
  %105 = getelementptr inbounds double, ptr %27, i64 %104
  %106 = load double, ptr %105, align 8, !tbaa !50
  %107 = fsub double %106, %21
  %108 = getelementptr inbounds double, ptr %29, i64 %104
  %109 = load double, ptr %108, align 8, !tbaa !50
  %110 = fadd double %107, %109
  store double %110, ptr %108, align 8, !tbaa !50
  %111 = add nuw nsw i64 %97, 2
  %112 = icmp eq i64 %111, %30
  br i1 %112, label %117, label %96, !llvm.loop !110

113:                                              ; preds = %12
  %114 = getelementptr inbounds %"class.dealii::Vector", ptr %17, i64 %13
  %115 = load ptr, ptr %10, align 8, !tbaa !70
  %116 = getelementptr inbounds %"class.dealii::Vector", ptr %115, i64 %13
  tail call void @_ZN6dealii6VectorIdE3addERKS1_(ptr noundef nonnull align 8 dereferenceable(88) %114, ptr noundef nonnull align 8 dereferenceable(88) %116)
  br label %117

117:                                              ; preds = %92, %96, %77, %18, %113
  %118 = add nuw nsw i64 %13, 1
  %119 = load i32, ptr %4, align 8, !tbaa !54
  %120 = zext i32 %119 to i64
  %121 = icmp ult i64 %118, %120
  br i1 %121, label %12, label %11
}

declare void @_ZN6dealii6VectorIdE3addERKS1_(ptr noundef nonnull align 8 dereferenceable(88), ptr noundef nonnull align 8 dereferenceable(88)) local_unnamed_addr #3

; Function Attrs: sspstrong uwtable
define weak_odr dso_local void @_ZN6dealii23InverseMatrixRichardsonINS_6VectorIfEEEC2ERNS_13SolverControlERNS_12VectorMemoryIS2_EE(ptr noundef nonnull align 8 dereferenceable(312) %0, ptr noundef nonnull align 8 dereferenceable(176) %1, ptr noundef nonnull align 8 dereferenceable(72) %2) unnamed_addr #0 comdat($_ZN6dealii23InverseMatrixRichardsonINS_6VectorIfEEEC5ERNS_13SolverControlERNS_12VectorMemoryIS2_EE) align 2 personality ptr @__gxx_personality_v0 {
  %4 = alloca %"struct.dealii::SolverRichardson<dealii::Vector<float> >::AdditionalData", align 8
  tail call void @_ZN6dealii11SubscriptorC2Ev(ptr noundef nonnull align 8 dereferenceable(72) %0)
  store ptr getelementptr inbounds ({ [4 x ptr] }, ptr @_ZTVN6dealii23InverseMatrixRichardsonINS_6VectorIfEEEE, i64 0, inrange i32 0, i64 2), ptr %0, align 8, !tbaa !5
  %5 = getelementptr inbounds %"class.dealii::InverseMatrixRichardson", ptr %0, i64 0, i32 1
  store ptr %2, ptr %5, align 8, !tbaa !111
  %6 = getelementptr inbounds %"class.dealii::InverseMatrixRichardson", ptr %0, i64 0, i32 2
  call void @llvm.lifetime.start.p0(i64 16, ptr nonnull %4) #16
  store double 1.000000e+00, ptr %4, align 8, !tbaa !112
  %7 = getelementptr inbounds %"struct.dealii::SolverRichardson<dealii::Vector<float> >::AdditionalData", ptr %4, i64 0, i32 1
  store i8 0, ptr %7, align 8, !tbaa !114
  invoke void @_ZN6dealii16SolverRichardsonINS_6VectorIfEEEC2ERNS_13SolverControlERNS_12VectorMemoryIS2_EERKNS3_14AdditionalDataE(ptr noundef nonnull align 8 dereferenceable(212) %6, ptr noundef nonnull align 8 dereferenceable(176) %1, ptr noundef nonnull align 8 dereferenceable(72) %2, ptr noundef nonnull align 8 dereferenceable(9) %4)
          to label %8 unwind label %10

8:                                                ; preds = %3
  call void @llvm.lifetime.end.p0(i64 16, ptr nonnull %4) #16
  %9 = getelementptr inbounds %"class.dealii::InverseMatrixRichardson", ptr %0, i64 0, i32 3
  call void @llvm.memset.p0.i64(ptr noundef nonnull align 8 dereferenceable(16) %9, i8 0, i64 16, i1 false)
  ret void

10:                                               ; preds = %3
  %11 = landingpad { ptr, i32 }
          cleanup
  call void @llvm.lifetime.end.p0(i64 16, ptr nonnull %4) #16
  invoke void @_ZN6dealii11SubscriptorD2Ev(ptr noundef nonnull align 8 dereferenceable(72) %0)
          to label %12 unwind label %13

12:                                               ; preds = %10
  resume { ptr, i32 } %11

13:                                               ; preds = %10
  %14 = landingpad { ptr, i32 }
          catch ptr null
  %15 = extractvalue { ptr, i32 } %14, 0
  call void @__clang_call_terminate(ptr %15) #17
  unreachable
}

declare void @_ZN6dealii11SubscriptorC2Ev(ptr noundef nonnull align 8 dereferenceable(72)) unnamed_addr #3

; Function Attrs: sspstrong uwtable
define linkonce_odr dso_local void @_ZN6dealii16SolverRichardsonINS_6VectorIfEEEC2ERNS_13SolverControlERNS_12VectorMemoryIS2_EERKNS3_14AdditionalDataE(ptr noundef nonnull align 8 dereferenceable(212) %0, ptr noundef nonnull align 8 dereferenceable(176) %1, ptr noundef nonnull align 8 dereferenceable(72) %2, ptr noundef nonnull align 8 dereferenceable(9) %3) unnamed_addr #0 comdat align 2 personality ptr @__gxx_personality_v0 {
  tail call void @_ZN6dealii11SubscriptorC2Ev(ptr noundef nonnull align 8 dereferenceable(72) %0)
  store ptr getelementptr inbounds ({ [4 x ptr] }, ptr @_ZTVN6dealii6SolverINS_6VectorIfEEEE, i64 0, inrange i32 0, i64 2), ptr %0, align 8, !tbaa !5
  %5 = getelementptr inbounds %"class.dealii::Solver", ptr %0, i64 0, i32 1
  invoke void @_ZN6dealii11SubscriptorC2Ev(ptr noundef nonnull align 8 dereferenceable(72) %5)
          to label %6 unwind label %18

6:                                                ; preds = %4
  store ptr getelementptr inbounds ({ [6 x ptr] }, ptr @_ZTVN6dealii19GrowingVectorMemoryINS_6VectorIfEEEE, i64 0, inrange i32 0, i64 2), ptr %5, align 8, !tbaa !5
  %7 = getelementptr inbounds %"class.dealii::Solver", ptr %0, i64 0, i32 1, i32 1
  tail call void @llvm.memset.p0.i64(ptr noundef nonnull align 8 dereferenceable(9) %7, i8 0, i64 9, i1 false)
  %8 = load ptr, ptr @_ZN6dealii19GrowingVectorMemoryINS_6VectorIfEEE4poolE, align 8, !tbaa !115
  %9 = icmp eq ptr %8, null
  br i1 %9, label %10, label %26

10:                                               ; preds = %6
  %11 = invoke noalias noundef nonnull dereferenceable(24) ptr @_Znwm(i64 noundef 24) #18
          to label %12 unwind label %13

12:                                               ; preds = %10
  tail call void @llvm.memset.p0.i64(ptr noundef nonnull align 8 dereferenceable(24) %11, i8 0, i64 24, i1 false)
  store ptr %11, ptr @_ZN6dealii19GrowingVectorMemoryINS_6VectorIfEEE4poolE, align 8, !tbaa !115
  br label %26

13:                                               ; preds = %10
  %14 = landingpad { ptr, i32 }
          cleanup
  invoke void @_ZN6dealii11SubscriptorD2Ev(ptr noundef nonnull align 8 dereferenceable(72) %5)
          to label %20 unwind label %15

15:                                               ; preds = %13
  %16 = landingpad { ptr, i32 }
          catch ptr null
  %17 = extractvalue { ptr, i32 } %16, 0
  tail call void @__clang_call_terminate(ptr %17) #17
  unreachable

18:                                               ; preds = %4
  %19 = landingpad { ptr, i32 }
          cleanup
  br label %20

20:                                               ; preds = %18, %13
  %21 = phi { ptr, i32 } [ %19, %18 ], [ %14, %13 ]
  invoke void @_ZN6dealii11SubscriptorD2Ev(ptr noundef nonnull align 8 dereferenceable(72) %0)
          to label %22 unwind label %23

22:                                               ; preds = %20
  resume { ptr, i32 } %21

23:                                               ; preds = %20
  %24 = landingpad { ptr, i32 }
          catch ptr null
  %25 = extractvalue { ptr, i32 } %24, 0
  tail call void @__clang_call_terminate(ptr %25) #17
  unreachable

26:                                               ; preds = %6, %12
  %27 = getelementptr inbounds %"class.dealii::Solver", ptr %0, i64 0, i32 2
  store ptr %1, ptr %27, align 8, !tbaa !111
  %28 = getelementptr inbounds %"class.dealii::Solver", ptr %0, i64 0, i32 3
  store ptr %2, ptr %28, align 8, !tbaa !111
  store ptr getelementptr inbounds ({ [6 x ptr] }, ptr @_ZTVN6dealii16SolverRichardsonINS_6VectorIfEEEE, i64 0, inrange i32 0, i64 2), ptr %0, align 8, !tbaa !5
  %29 = getelementptr inbounds %"class.dealii::SolverRichardson", ptr %0, i64 0, i32 3
  tail call void @llvm.memcpy.p0.p0.i64(ptr noundef nonnull align 8 dereferenceable(16) %29, ptr noundef nonnull align 8 dereferenceable(16) %3, i64 16, i1 false), !tbaa.struct !117
  ret void
}

; Function Attrs: sspstrong uwtable
define weak_odr dso_local void @_ZN6dealii23InverseMatrixRichardsonINS_6VectorIfEEED2Ev(ptr noundef nonnull align 8 dereferenceable(312) %0) unnamed_addr #0 comdat($_ZN6dealii23InverseMatrixRichardsonINS_6VectorIfEEED5Ev) align 2 personality ptr @__gxx_personality_v0 {
  store ptr getelementptr inbounds ({ [4 x ptr] }, ptr @_ZTVN6dealii23InverseMatrixRichardsonINS_6VectorIfEEEE, i64 0, inrange i32 0, i64 2), ptr %0, align 8, !tbaa !5
  %2 = getelementptr inbounds %"class.dealii::InverseMatrixRichardson", ptr %0, i64 0, i32 3
  %3 = load ptr, ptr %2, align 8, !tbaa !119
  %4 = icmp eq ptr %3, null
  br i1 %4, label %12, label %5

5:                                                ; preds = %1
  %6 = load ptr, ptr %3, align 8, !tbaa !5
  %7 = getelementptr inbounds ptr, ptr %6, i64 1
  %8 = load ptr, ptr %7, align 8
  invoke void %8(ptr noundef nonnull align 8 dereferenceable(72) %3)
          to label %12 unwind label %9

9:                                                ; preds = %16, %5
  %10 = landingpad { ptr, i32 }
          cleanup
  %11 = getelementptr inbounds %"class.dealii::InverseMatrixRichardson", ptr %0, i64 0, i32 2
  invoke void @_ZN6dealii6SolverINS_6VectorIfEEED2Ev(ptr noundef nonnull align 8 dereferenceable(212) %11)
          to label %32 unwind label %35

12:                                               ; preds = %5, %1
  %13 = getelementptr inbounds %"class.dealii::InverseMatrixRichardson", ptr %0, i64 0, i32 4
  %14 = load ptr, ptr %13, align 8, !tbaa !125
  %15 = icmp eq ptr %14, null
  br i1 %15, label %20, label %16

16:                                               ; preds = %12
  %17 = load ptr, ptr %14, align 8, !tbaa !5
  %18 = getelementptr inbounds ptr, ptr %17, i64 1
  %19 = load ptr, ptr %18, align 8
  invoke void %19(ptr noundef nonnull align 8 dereferenceable(72) %14)
          to label %20 unwind label %9

20:                                               ; preds = %16, %12
  %21 = getelementptr inbounds %"class.dealii::InverseMatrixRichardson", ptr %0, i64 0, i32 2
  store ptr getelementptr inbounds ({ [4 x ptr] }, ptr @_ZTVN6dealii6SolverINS_6VectorIfEEEE, i64 0, inrange i32 0, i64 2), ptr %21, align 8, !tbaa !5
  %22 = getelementptr inbounds %"class.dealii::InverseMatrixRichardson", ptr %0, i64 0, i32 2, i32 0, i32 1
  invoke void @_ZN6dealii19GrowingVectorMemoryINS_6VectorIfEEED2Ev(ptr noundef nonnull align 8 dereferenceable(81) %22)
          to label %23 unwind label %24

23:                                               ; preds = %20
  invoke void @_ZN6dealii11SubscriptorD2Ev(ptr noundef nonnull align 8 dereferenceable(72) %21)
          to label %29 unwind label %30

24:                                               ; preds = %20
  %25 = landingpad { ptr, i32 }
          cleanup
  invoke void @_ZN6dealii11SubscriptorD2Ev(ptr noundef nonnull align 8 dereferenceable(72) %21)
          to label %32 unwind label %26

26:                                               ; preds = %24
  %27 = landingpad { ptr, i32 }
          catch ptr null
  %28 = extractvalue { ptr, i32 } %27, 0
  tail call void @__clang_call_terminate(ptr %28) #17
  unreachable

29:                                               ; preds = %23
  tail call void @_ZN6dealii11SubscriptorD2Ev(ptr noundef nonnull align 8 dereferenceable(72) %0)
  ret void

30:                                               ; preds = %23
  %31 = landingpad { ptr, i32 }
          cleanup
  br label %32

32:                                               ; preds = %30, %24, %9
  %33 = phi { ptr, i32 } [ %10, %9 ], [ %31, %30 ], [ %25, %24 ]
  invoke void @_ZN6dealii11SubscriptorD2Ev(ptr noundef nonnull align 8 dereferenceable(72) %0)
          to label %34 unwind label %35

34:                                               ; preds = %32
  resume { ptr, i32 } %33

35:                                               ; preds = %32, %9
  %36 = landingpad { ptr, i32 }
          catch ptr null
  %37 = extractvalue { ptr, i32 } %36, 0
  tail call void @__clang_call_terminate(ptr %37) #17
  unreachable
}

; Function Attrs: inlinehint sspstrong uwtable
define linkonce_odr dso_local void @_ZN6dealii6SolverINS_6VectorIfEEED2Ev(ptr noundef nonnull align 8 dereferenceable(176) %0) unnamed_addr #4 comdat align 2 personality ptr @__gxx_personality_v0 {
  store ptr getelementptr inbounds ({ [4 x ptr] }, ptr @_ZTVN6dealii6SolverINS_6VectorIfEEEE, i64 0, inrange i32 0, i64 2), ptr %0, align 8, !tbaa !5
  %2 = getelementptr inbounds %"class.dealii::Solver", ptr %0, i64 0, i32 1
  invoke void @_ZN6dealii19GrowingVectorMemoryINS_6VectorIfEEED2Ev(ptr noundef nonnull align 8 dereferenceable(81) %2)
          to label %3 unwind label %4

3:                                                ; preds = %1
  tail call void @_ZN6dealii11SubscriptorD2Ev(ptr noundef nonnull align 8 dereferenceable(72) %0)
  ret void

4:                                                ; preds = %1
  %5 = landingpad { ptr, i32 }
          cleanup
  invoke void @_ZN6dealii11SubscriptorD2Ev(ptr noundef nonnull align 8 dereferenceable(72) %0)
          to label %6 unwind label %7

6:                                                ; preds = %4
  resume { ptr, i32 } %5

7:                                                ; preds = %4
  %8 = landingpad { ptr, i32 }
          catch ptr null
  %9 = extractvalue { ptr, i32 } %8, 0
  tail call void @__clang_call_terminate(ptr %9) #17
  unreachable
}

; Function Attrs: sspstrong uwtable
define weak_odr dso_local void @_ZN6dealii23InverseMatrixRichardsonINS_6VectorIfEEED0Ev(ptr noundef nonnull align 8 dereferenceable(312) %0) unnamed_addr #0 comdat($_ZN6dealii23InverseMatrixRichardsonINS_6VectorIfEEED5Ev) align 2 personality ptr @__gxx_personality_v0 {
  invoke void @_ZN6dealii23InverseMatrixRichardsonINS_6VectorIfEEED2Ev(ptr noundef nonnull align 8 dereferenceable(312) %0)
          to label %2 unwind label %3

2:                                                ; preds = %1
  tail call void @_ZdlPv(ptr noundef nonnull %0) #19
  ret void

3:                                                ; preds = %1
  %4 = landingpad { ptr, i32 }
          cleanup
  tail call void @_ZdlPv(ptr noundef nonnull %0) #19
  resume { ptr, i32 } %4
}

; Function Attrs: nobuiltin nounwind
declare void @_ZdlPv(ptr noundef) local_unnamed_addr #5

; Function Attrs: sspstrong uwtable
define weak_odr dso_local void @_ZNK6dealii23InverseMatrixRichardsonINS_6VectorIfEEE5vmultERS2_RKS2_(ptr noundef nonnull align 8 dereferenceable(312) %0, ptr noundef nonnull align 8 dereferenceable(88) %1, ptr noundef nonnull align 8 dereferenceable(88) %2) local_unnamed_addr #0 comdat align 2 personality ptr @__gxx_personality_v0 {
  %4 = getelementptr inbounds %"class.dealii::Vector.22", ptr %1, i64 0, i32 1
  %5 = load i32, ptr %4, align 8, !tbaa !38
  %6 = icmp eq i32 %5, 0
  br i1 %6, label %12, label %7

7:                                                ; preds = %3
  %8 = getelementptr inbounds %"class.dealii::Vector.22", ptr %1, i64 0, i32 3
  %9 = load ptr, ptr %8, align 8, !tbaa !40
  %10 = zext i32 %5 to i64
  %11 = shl nuw nsw i64 %10, 2
  tail call void @llvm.memset.p0.i64(ptr align 4 %9, i8 0, i64 %11, i1 false), !tbaa !41
  br label %12

12:                                               ; preds = %7, %3
  %13 = getelementptr inbounds %"class.dealii::InverseMatrixRichardson", ptr %0, i64 0, i32 2
  %14 = getelementptr inbounds %"class.dealii::InverseMatrixRichardson", ptr %0, i64 0, i32 3
  %15 = load ptr, ptr %14, align 8, !tbaa !119
  %16 = getelementptr inbounds %"class.dealii::InverseMatrixRichardson", ptr %0, i64 0, i32 4
  %17 = load ptr, ptr %16, align 8, !tbaa !125
  invoke void @_ZN6dealii16SolverRichardsonINS_6VectorIfEEE5solveINS_17PointerMatrixBaseIS2_EES6_EEvRKT_RS2_RKS2_RKT0_(ptr noundef nonnull align 8 dereferenceable(212) %13, ptr noundef nonnull align 8 dereferenceable(72) %15, ptr noundef nonnull align 8 dereferenceable(88) %1, ptr noundef nonnull align 8 dereferenceable(88) %2, ptr noundef nonnull align 8 dereferenceable(72) %17)
          to label %22 unwind label %18

18:                                               ; preds = %12
  %19 = landingpad { ptr, i32 }
          catch ptr null
  %20 = extractvalue { ptr, i32 } %19, 0
  %21 = tail call ptr @__cxa_begin_catch(ptr %20) #16
  tail call void @__cxa_end_catch()
  br label %22

22:                                               ; preds = %12, %18
  ret void
}

; Function Attrs: sspstrong uwtable
define linkonce_odr dso_local void @_ZN6dealii16SolverRichardsonINS_6VectorIfEEE5solveINS_17PointerMatrixBaseIS2_EES6_EEvRKT_RS2_RKS2_RKT0_(ptr noundef nonnull align 8 dereferenceable(212) %0, ptr noundef nonnull align 8 dereferenceable(72) %1, ptr noundef nonnull align 8 dereferenceable(88) %2, ptr noundef nonnull align 8 dereferenceable(88) %3, ptr noundef nonnull align 8 dereferenceable(72) %4) local_unnamed_addr #0 comdat align 2 personality ptr @__gxx_personality_v0 {
  %6 = alloca %"class.std::__cxx11::basic_string", align 8
  %7 = getelementptr inbounds %"class.dealii::Solver", ptr %0, i64 0, i32 3
  %8 = load ptr, ptr %7, align 8, !tbaa !126
  %9 = load ptr, ptr %8, align 8, !tbaa !5
  %10 = getelementptr inbounds ptr, ptr %9, i64 2
  %11 = load ptr, ptr %10, align 8
  %12 = tail call noundef ptr %11(ptr noundef nonnull align 8 dereferenceable(72) %8)
  %13 = getelementptr inbounds %"class.dealii::SolverRichardson", ptr %0, i64 0, i32 1
  store ptr %12, ptr %13, align 8, !tbaa !127
  tail call void @_ZN6dealii6VectorIfE6reinitIfEEvRKNS0_IT_EEb(ptr noundef nonnull align 8 dereferenceable(88) %12, ptr noundef nonnull align 8 dereferenceable(88) %2, i1 noundef zeroext false)
  %14 = load ptr, ptr %7, align 8, !tbaa !126
  %15 = load ptr, ptr %14, align 8, !tbaa !5
  %16 = getelementptr inbounds ptr, ptr %15, i64 2
  %17 = load ptr, ptr %16, align 8
  %18 = tail call noundef ptr %17(ptr noundef nonnull align 8 dereferenceable(72) %14)
  %19 = getelementptr inbounds %"class.dealii::SolverRichardson", ptr %0, i64 0, i32 2
  store ptr %18, ptr %19, align 8, !tbaa !128
  tail call void @_ZN6dealii6VectorIfE6reinitIfEEvRKNS0_IT_EEb(ptr noundef nonnull align 8 dereferenceable(88) %18, ptr noundef nonnull align 8 dereferenceable(88) %2, i1 noundef zeroext false)
  call void @llvm.lifetime.start.p0(i64 32, ptr nonnull %6) #16
  %20 = getelementptr inbounds %"class.std::__cxx11::basic_string", ptr %6, i64 0, i32 2
  store ptr %20, ptr %6, align 8, !tbaa !129
  call void @llvm.memcpy.p0.p0.i64(ptr noundef nonnull align 8 dereferenceable(10) %20, ptr noundef nonnull align 1 dereferenceable(10) @.str.18, i64 10, i1 false)
  %21 = getelementptr inbounds %"class.std::__cxx11::basic_string", ptr %6, i64 0, i32 1
  store i64 10, ptr %21, align 8, !tbaa !131
  %22 = getelementptr inbounds %"class.std::__cxx11::basic_string", ptr %6, i64 0, i32 2, i32 1, i64 2
  store i8 0, ptr %22, align 2, !tbaa !133
  invoke void @_ZN6dealii9LogStream4pushERKNSt7__cxx1112basic_stringIcSt11char_traitsIcESaIcEEE(ptr noundef nonnull align 8 dereferenceable(192) @_ZN6dealii7deallogE, ptr noundef nonnull align 8 dereferenceable(32) %6)
          to label %23 unwind label %44

23:                                               ; preds = %5
  %24 = load ptr, ptr %6, align 8, !tbaa !134
  %25 = icmp eq ptr %24, %20
  br i1 %25, label %26, label %29

26:                                               ; preds = %23
  %27 = load i64, ptr %21, align 8, !tbaa !131
  %28 = icmp ult i64 %27, 16
  call void @llvm.assume(i1 %28)
  br label %30

29:                                               ; preds = %23
  call void @_ZdlPv(ptr noundef %24) #19
  br label %30

30:                                               ; preds = %29, %26
  call void @llvm.lifetime.end.p0(i64 32, ptr nonnull %6) #16
  %31 = getelementptr inbounds %"class.dealii::Vector.22", ptr %12, i64 0, i32 3
  %32 = getelementptr inbounds %"class.dealii::Vector.22", ptr %12, i64 0, i32 1
  %33 = getelementptr inbounds %"class.dealii::Vector.22", ptr %3, i64 0, i32 3
  %34 = getelementptr inbounds %"class.dealii::Solver", ptr %0, i64 0, i32 2
  %35 = getelementptr inbounds %"class.dealii::SolverRichardson", ptr %0, i64 0, i32 3
  %36 = getelementptr inbounds %"class.dealii::Vector.22", ptr %2, i64 0, i32 3
  %37 = getelementptr inbounds %"class.dealii::Vector.22", ptr %2, i64 0, i32 1
  %38 = getelementptr inbounds %"class.dealii::Vector.22", ptr %18, i64 0, i32 3
  br label %39

39:                                               ; preds = %232, %30
  %40 = phi i32 [ 0, %30 ], [ %233, %232 ]
  %41 = load ptr, ptr %1, align 8, !tbaa !5
  %42 = getelementptr inbounds ptr, ptr %41, i64 3
  %43 = load ptr, ptr %42, align 8
  invoke void %43(ptr noundef nonnull align 8 dereferenceable(72) %1, ptr noundef nonnull align 8 dereferenceable(88) %12, ptr noundef nonnull align 8 dereferenceable(88) %2)
          to label %53 unwind label %136

44:                                               ; preds = %5
  %45 = landingpad { ptr, i32 }
          cleanup
  %46 = load ptr, ptr %6, align 8, !tbaa !134
  %47 = icmp eq ptr %46, %20
  br i1 %47, label %48, label %51

48:                                               ; preds = %44
  %49 = load i64, ptr %21, align 8, !tbaa !131
  %50 = icmp ult i64 %49, 16
  call void @llvm.assume(i1 %50)
  br label %52

51:                                               ; preds = %44
  call void @_ZdlPv(ptr noundef %46) #19
  br label %52

52:                                               ; preds = %51, %48
  call void @llvm.lifetime.end.p0(i64 32, ptr nonnull %6) #16
  br label %262

53:                                               ; preds = %39
  %54 = load ptr, ptr %31, align 8, !tbaa !40
  %55 = load i32, ptr %32, align 8, !tbaa !38
  %56 = zext i32 %55 to i64
  %57 = getelementptr inbounds float, ptr %54, i64 %56
  %58 = icmp eq i32 %55, 0
  br i1 %58, label %118, label %59

59:                                               ; preds = %53
  %60 = load ptr, ptr %33, align 8, !tbaa !40
  %61 = add nuw nsw i64 %56, 4611686018427387903
  %62 = and i64 %61, 4611686018427387903
  %63 = add nuw nsw i64 %62, 1
  %64 = icmp ult i64 %62, 31
  br i1 %64, label %106, label %65

65:                                               ; preds = %59
  %66 = shl nuw nsw i64 %56, 2
  %67 = getelementptr i8, ptr %54, i64 %66
  %68 = getelementptr i8, ptr %60, i64 %66
  %69 = icmp ult ptr %54, %68
  %70 = icmp ult ptr %60, %67
  %71 = and i1 %69, %70
  br i1 %71, label %106, label %72

72:                                               ; preds = %65
  %73 = and i64 %63, 9223372036854775776
  %74 = shl i64 %73, 2
  %75 = getelementptr i8, ptr %60, i64 %74
  %76 = shl i64 %73, 2
  %77 = getelementptr i8, ptr %54, i64 %76
  br label %78

78:                                               ; preds = %78, %72
  %79 = phi i64 [ 0, %72 ], [ %102, %78 ]
  %80 = shl i64 %79, 2
  %81 = getelementptr i8, ptr %60, i64 %80
  %82 = shl i64 %79, 2
  %83 = getelementptr i8, ptr %54, i64 %82
  %84 = load <8 x float>, ptr %83, align 4, !tbaa !41, !alias.scope !135, !noalias !138
  %85 = getelementptr float, ptr %83, i64 8
  %86 = load <8 x float>, ptr %85, align 4, !tbaa !41, !alias.scope !135, !noalias !138
  %87 = getelementptr float, ptr %83, i64 16
  %88 = load <8 x float>, ptr %87, align 4, !tbaa !41, !alias.scope !135, !noalias !138
  %89 = getelementptr float, ptr %83, i64 24
  %90 = load <8 x float>, ptr %89, align 4, !tbaa !41, !alias.scope !135, !noalias !138
  %91 = load <8 x float>, ptr %81, align 4, !tbaa !41, !alias.scope !138
  %92 = getelementptr float, ptr %81, i64 8
  %93 = load <8 x float>, ptr %92, align 4, !tbaa !41, !alias.scope !138
  %94 = getelementptr float, ptr %81, i64 16
  %95 = load <8 x float>, ptr %94, align 4, !tbaa !41, !alias.scope !138
  %96 = getelementptr float, ptr %81, i64 24
  %97 = load <8 x float>, ptr %96, align 4, !tbaa !41, !alias.scope !138
  %98 = call <8 x float> @llvm.fmuladd.v8f32(<8 x float> %84, <8 x float> <float -1.000000e+00, float -1.000000e+00, float -1.000000e+00, float -1.000000e+00, float -1.000000e+00, float -1.000000e+00, float -1.000000e+00, float -1.000000e+00>, <8 x float> %91)
  %99 = call <8 x float> @llvm.fmuladd.v8f32(<8 x float> %86, <8 x float> <float -1.000000e+00, float -1.000000e+00, float -1.000000e+00, float -1.000000e+00, float -1.000000e+00, float -1.000000e+00, float -1.000000e+00, float -1.000000e+00>, <8 x float> %93)
  %100 = call <8 x float> @llvm.fmuladd.v8f32(<8 x float> %88, <8 x float> <float -1.000000e+00, float -1.000000e+00, float -1.000000e+00, float -1.000000e+00, float -1.000000e+00, float -1.000000e+00, float -1.000000e+00, float -1.000000e+00>, <8 x float> %95)
  %101 = call <8 x float> @llvm.fmuladd.v8f32(<8 x float> %90, <8 x float> <float -1.000000e+00, float -1.000000e+00, float -1.000000e+00, float -1.000000e+00, float -1.000000e+00, float -1.000000e+00, float -1.000000e+00, float -1.000000e+00>, <8 x float> %97)
  store <8 x float> %98, ptr %83, align 4, !tbaa !41, !alias.scope !135, !noalias !138
  store <8 x float> %99, ptr %85, align 4, !tbaa !41, !alias.scope !135, !noalias !138
  store <8 x float> %100, ptr %87, align 4, !tbaa !41, !alias.scope !135, !noalias !138
  store <8 x float> %101, ptr %89, align 4, !tbaa !41, !alias.scope !135, !noalias !138
  %102 = add nuw i64 %79, 32
  %103 = icmp eq i64 %102, %73
  br i1 %103, label %104, label %78, !llvm.loop !140

104:                                              ; preds = %78
  %105 = icmp eq i64 %63, %73
  br i1 %105, label %118, label %106

106:                                              ; preds = %65, %59, %104
  %107 = phi ptr [ %60, %65 ], [ %60, %59 ], [ %75, %104 ]
  %108 = phi ptr [ %54, %65 ], [ %54, %59 ], [ %77, %104 ]
  br label %109

109:                                              ; preds = %106, %109
  %110 = phi ptr [ %113, %109 ], [ %107, %106 ]
  %111 = phi ptr [ %116, %109 ], [ %108, %106 ]
  %112 = load float, ptr %111, align 4, !tbaa !41
  %113 = getelementptr inbounds float, ptr %110, i64 1
  %114 = load float, ptr %110, align 4, !tbaa !41
  %115 = call float @llvm.fmuladd.f32(float %112, float -1.000000e+00, float %114)
  store float %115, ptr %111, align 4, !tbaa !41
  %116 = getelementptr inbounds float, ptr %111, i64 1
  %117 = icmp eq ptr %116, %57
  br i1 %117, label %118, label %109, !llvm.loop !141

118:                                              ; preds = %109, %104, %53
  %119 = load ptr, ptr %4, align 8, !tbaa !5
  %120 = getelementptr inbounds ptr, ptr %119, i64 3
  %121 = load ptr, ptr %120, align 8
  invoke void %121(ptr noundef nonnull align 8 dereferenceable(72) %4, ptr noundef nonnull align 8 dereferenceable(88) %18, ptr noundef nonnull align 8 dereferenceable(88) %12)
          to label %122 unwind label %136

122:                                              ; preds = %118
  %123 = load ptr, ptr %34, align 8, !tbaa !142
  %124 = load ptr, ptr %0, align 8, !tbaa !5
  %125 = getelementptr inbounds ptr, ptr %124, i64 3
  %126 = load ptr, ptr %125, align 8
  %127 = invoke noundef float %126(ptr noundef nonnull align 8 dereferenceable(212) %0)
          to label %128 unwind label %136

128:                                              ; preds = %122
  %129 = fpext float %127 to double
  %130 = load ptr, ptr %123, align 8, !tbaa !5
  %131 = getelementptr inbounds ptr, ptr %130, i64 2
  %132 = load ptr, ptr %131, align 8
  %133 = invoke noundef i32 %132(ptr noundef nonnull align 8 dereferenceable(176) %123, i32 noundef %40, double noundef %129)
          to label %134 unwind label %136

134:                                              ; preds = %128
  %135 = icmp eq i32 %133, 0
  br i1 %135, label %153, label %234

136:                                              ; preds = %228, %128, %122, %118, %39
  %137 = landingpad { ptr, i32 }
          catch ptr null
  %138 = extractvalue { ptr, i32 } %137, 0
  %139 = call ptr @__cxa_begin_catch(ptr %138) #16
  %140 = load ptr, ptr %7, align 8, !tbaa !126
  %141 = load ptr, ptr %13, align 8, !tbaa !127
  %142 = load ptr, ptr %140, align 8, !tbaa !5
  %143 = getelementptr inbounds ptr, ptr %142, i64 3
  %144 = load ptr, ptr %143, align 8
  invoke void %144(ptr noundef nonnull align 8 dereferenceable(72) %140, ptr noundef %141)
          to label %145 unwind label %248

145:                                              ; preds = %136
  %146 = load ptr, ptr %7, align 8, !tbaa !126
  %147 = load ptr, ptr %19, align 8, !tbaa !128
  %148 = load ptr, ptr %146, align 8, !tbaa !5
  %149 = getelementptr inbounds ptr, ptr %148, i64 3
  %150 = load ptr, ptr %149, align 8
  invoke void %150(ptr noundef nonnull align 8 dereferenceable(72) %146, ptr noundef %147)
          to label %151 unwind label %248

151:                                              ; preds = %145
  invoke void @_ZN6dealii9LogStream3popEv(ptr noundef nonnull align 8 dereferenceable(192) @_ZN6dealii7deallogE)
          to label %152 unwind label %248

152:                                              ; preds = %151
  invoke void @__cxa_rethrow() #20
          to label %267 unwind label %248

153:                                              ; preds = %134
  %154 = load double, ptr %35, align 8, !tbaa !143
  %155 = fptrunc double %154 to float
  %156 = load ptr, ptr %36, align 8, !tbaa !40
  %157 = load i32, ptr %37, align 8, !tbaa !38
  %158 = zext i32 %157 to i64
  %159 = getelementptr inbounds float, ptr %156, i64 %158
  %160 = icmp eq i32 %157, 0
  br i1 %160, label %228, label %161

161:                                              ; preds = %153
  %162 = load ptr, ptr %38, align 8, !tbaa !40
  %163 = add nuw nsw i64 %158, 4611686018427387903
  %164 = and i64 %163, 4611686018427387903
  %165 = add nuw nsw i64 %164, 1
  %166 = icmp ult i64 %164, 31
  br i1 %166, label %216, label %167

167:                                              ; preds = %161
  %168 = shl nuw nsw i64 %158, 2
  %169 = getelementptr i8, ptr %156, i64 %168
  %170 = getelementptr i8, ptr %162, i64 %168
  %171 = icmp ult ptr %156, %170
  %172 = icmp ult ptr %162, %169
  %173 = and i1 %171, %172
  br i1 %173, label %216, label %174

174:                                              ; preds = %167
  %175 = and i64 %165, 9223372036854775776
  %176 = shl i64 %175, 2
  %177 = getelementptr i8, ptr %162, i64 %176
  %178 = shl i64 %175, 2
  %179 = getelementptr i8, ptr %156, i64 %178
  %180 = insertelement <8 x float> poison, float %155, i64 0
  %181 = shufflevector <8 x float> %180, <8 x float> poison, <8 x i32> zeroinitializer
  %182 = insertelement <8 x float> poison, float %155, i64 0
  %183 = shufflevector <8 x float> %182, <8 x float> poison, <8 x i32> zeroinitializer
  %184 = insertelement <8 x float> poison, float %155, i64 0
  %185 = shufflevector <8 x float> %184, <8 x float> poison, <8 x i32> zeroinitializer
  %186 = insertelement <8 x float> poison, float %155, i64 0
  %187 = shufflevector <8 x float> %186, <8 x float> poison, <8 x i32> zeroinitializer
  br label %188

188:                                              ; preds = %188, %174
  %189 = phi i64 [ 0, %174 ], [ %212, %188 ]
  %190 = shl i64 %189, 2
  %191 = getelementptr i8, ptr %162, i64 %190
  %192 = shl i64 %189, 2
  %193 = getelementptr i8, ptr %156, i64 %192
  %194 = load <8 x float>, ptr %191, align 4, !tbaa !41, !alias.scope !144
  %195 = getelementptr float, ptr %191, i64 8
  %196 = load <8 x float>, ptr %195, align 4, !tbaa !41, !alias.scope !144
  %197 = getelementptr float, ptr %191, i64 16
  %198 = load <8 x float>, ptr %197, align 4, !tbaa !41, !alias.scope !144
  %199 = getelementptr float, ptr %191, i64 24
  %200 = load <8 x float>, ptr %199, align 4, !tbaa !41, !alias.scope !144
  %201 = load <8 x float>, ptr %193, align 4, !tbaa !41, !alias.scope !147, !noalias !144
  %202 = getelementptr float, ptr %193, i64 8
  %203 = load <8 x float>, ptr %202, align 4, !tbaa !41, !alias.scope !147, !noalias !144
  %204 = getelementptr float, ptr %193, i64 16
  %205 = load <8 x float>, ptr %204, align 4, !tbaa !41, !alias.scope !147, !noalias !144
  %206 = getelementptr float, ptr %193, i64 24
  %207 = load <8 x float>, ptr %206, align 4, !tbaa !41, !alias.scope !147, !noalias !144
  %208 = call <8 x float> @llvm.fmuladd.v8f32(<8 x float> %181, <8 x float> %194, <8 x float> %201)
  %209 = call <8 x float> @llvm.fmuladd.v8f32(<8 x float> %183, <8 x float> %196, <8 x float> %203)
  %210 = call <8 x float> @llvm.fmuladd.v8f32(<8 x float> %185, <8 x float> %198, <8 x float> %205)
  %211 = call <8 x float> @llvm.fmuladd.v8f32(<8 x float> %187, <8 x float> %200, <8 x float> %207)
  store <8 x float> %208, ptr %193, align 4, !tbaa !41, !alias.scope !147, !noalias !144
  store <8 x float> %209, ptr %202, align 4, !tbaa !41, !alias.scope !147, !noalias !144
  store <8 x float> %210, ptr %204, align 4, !tbaa !41, !alias.scope !147, !noalias !144
  store <8 x float> %211, ptr %206, align 4, !tbaa !41, !alias.scope !147, !noalias !144
  %212 = add nuw i64 %189, 32
  %213 = icmp eq i64 %212, %175
  br i1 %213, label %214, label %188, !llvm.loop !149

214:                                              ; preds = %188
  %215 = icmp eq i64 %165, %175
  br i1 %215, label %228, label %216

216:                                              ; preds = %167, %161, %214
  %217 = phi ptr [ %162, %167 ], [ %162, %161 ], [ %177, %214 ]
  %218 = phi ptr [ %156, %167 ], [ %156, %161 ], [ %179, %214 ]
  br label %219

219:                                              ; preds = %216, %219
  %220 = phi ptr [ %222, %219 ], [ %217, %216 ]
  %221 = phi ptr [ %224, %219 ], [ %218, %216 ]
  %222 = getelementptr inbounds float, ptr %220, i64 1
  %223 = load float, ptr %220, align 4, !tbaa !41
  %224 = getelementptr inbounds float, ptr %221, i64 1
  %225 = load float, ptr %221, align 4, !tbaa !41
  %226 = call float @llvm.fmuladd.f32(float %155, float %223, float %225)
  store float %226, ptr %221, align 4, !tbaa !41
  %227 = icmp eq ptr %224, %159
  br i1 %227, label %228, label %219, !llvm.loop !150

228:                                              ; preds = %219, %214, %153
  %229 = load ptr, ptr %0, align 8, !tbaa !5
  %230 = getelementptr inbounds ptr, ptr %229, i64 2
  %231 = load ptr, ptr %230, align 8
  invoke void %231(ptr noundef nonnull align 8 dereferenceable(212) %0, i32 noundef %40, ptr noundef nonnull align 8 dereferenceable(88) %2, ptr noundef nonnull align 8 dereferenceable(88) %12, ptr noundef nonnull align 8 dereferenceable(88) %18)
          to label %232 unwind label %136

232:                                              ; preds = %228
  %233 = add nuw nsw i32 %40, 1
  br label %39

234:                                              ; preds = %134
  %235 = load ptr, ptr %7, align 8, !tbaa !126
  %236 = load ptr, ptr %13, align 8, !tbaa !127
  %237 = load ptr, ptr %235, align 8, !tbaa !5
  %238 = getelementptr inbounds ptr, ptr %237, i64 3
  %239 = load ptr, ptr %238, align 8
  call void %239(ptr noundef nonnull align 8 dereferenceable(72) %235, ptr noundef %236)
  %240 = load ptr, ptr %7, align 8, !tbaa !126
  %241 = load ptr, ptr %19, align 8, !tbaa !128
  %242 = load ptr, ptr %240, align 8, !tbaa !5
  %243 = getelementptr inbounds ptr, ptr %242, i64 3
  %244 = load ptr, ptr %243, align 8
  call void %244(ptr noundef nonnull align 8 dereferenceable(72) %240, ptr noundef %241)
  call void @_ZN6dealii9LogStream3popEv(ptr noundef nonnull align 8 dereferenceable(192) @_ZN6dealii7deallogE)
  %245 = load ptr, ptr %34, align 8, !tbaa !142
  %246 = call noundef i32 @_ZNK6dealii13SolverControl10last_checkEv(ptr noundef nonnull align 8 dereferenceable(176) %245)
  %247 = icmp eq i32 %246, 1
  br i1 %247, label %261, label %250

248:                                              ; preds = %152, %151, %145, %136
  %249 = landingpad { ptr, i32 }
          cleanup
  invoke void @__cxa_end_catch()
          to label %262 unwind label %264

250:                                              ; preds = %234
  %251 = call ptr @__cxa_allocate_exception(i64 24) #16
  %252 = load ptr, ptr %34, align 8, !tbaa !142
  %253 = invoke noundef i32 @_ZNK6dealii13SolverControl9last_stepEv(ptr noundef nonnull align 8 dereferenceable(176) %252)
          to label %254 unwind label %259

254:                                              ; preds = %250
  %255 = load ptr, ptr %34, align 8, !tbaa !142
  %256 = invoke noundef double @_ZNK6dealii13SolverControl10last_valueEv(ptr noundef nonnull align 8 dereferenceable(176) %255)
          to label %257 unwind label %259

257:                                              ; preds = %254
  invoke void @_ZN6dealii13SolverControl13NoConvergenceC1Ejd(ptr noundef nonnull align 8 dereferenceable(24) %251, i32 noundef %253, double noundef %256)
          to label %258 unwind label %259

258:                                              ; preds = %257
  call void @__cxa_throw(ptr nonnull %251, ptr nonnull @_ZTIN6dealii13SolverControl13NoConvergenceE, ptr nonnull @_ZNSt9exceptionD2Ev) #20
  unreachable

259:                                              ; preds = %257, %254, %250
  %260 = landingpad { ptr, i32 }
          cleanup
  call void @__cxa_free_exception(ptr %251) #16
  br label %262

261:                                              ; preds = %234
  ret void

262:                                              ; preds = %248, %259, %52
  %263 = phi { ptr, i32 } [ %260, %259 ], [ %249, %248 ], [ %45, %52 ]
  resume { ptr, i32 } %263

264:                                              ; preds = %248
  %265 = landingpad { ptr, i32 }
          catch ptr null
  %266 = extractvalue { ptr, i32 } %265, 0
  call void @__clang_call_terminate(ptr %266) #17
  unreachable

267:                                              ; preds = %152
  unreachable
}

declare void @__cxa_end_catch() local_unnamed_addr

; Function Attrs: sspstrong uwtable
define weak_odr dso_local void @_ZNK6dealii23InverseMatrixRichardsonINS_6VectorIfEEE9vmult_addERS2_RKS2_(ptr noundef nonnull align 8 dereferenceable(312) %0, ptr noundef nonnull align 8 dereferenceable(88) %1, ptr noundef nonnull align 8 dereferenceable(88) %2) local_unnamed_addr #0 comdat align 2 personality ptr @__gxx_personality_v0 {
  %4 = getelementptr inbounds %"class.dealii::InverseMatrixRichardson", ptr %0, i64 0, i32 1
  %5 = load ptr, ptr %4, align 8, !tbaa !151
  %6 = load ptr, ptr %5, align 8, !tbaa !5
  %7 = getelementptr inbounds ptr, ptr %6, i64 2
  %8 = load ptr, ptr %7, align 8
  %9 = tail call noundef ptr %8(ptr noundef nonnull align 8 dereferenceable(72) %5)
  tail call void @_ZN6dealii6VectorIfE6reinitIfEEvRKNS0_IT_EEb(ptr noundef nonnull align 8 dereferenceable(88) %9, ptr noundef nonnull align 8 dereferenceable(88) %1, i1 noundef zeroext false)
  %10 = getelementptr inbounds %"class.dealii::InverseMatrixRichardson", ptr %0, i64 0, i32 2
  %11 = getelementptr inbounds %"class.dealii::InverseMatrixRichardson", ptr %0, i64 0, i32 3
  %12 = load ptr, ptr %11, align 8, !tbaa !119
  %13 = getelementptr inbounds %"class.dealii::InverseMatrixRichardson", ptr %0, i64 0, i32 4
  %14 = load ptr, ptr %13, align 8, !tbaa !125
  invoke void @_ZN6dealii16SolverRichardsonINS_6VectorIfEEE5solveINS_17PointerMatrixBaseIS2_EES6_EEvRKT_RS2_RKS2_RKT0_(ptr noundef nonnull align 8 dereferenceable(212) %10, ptr noundef nonnull align 8 dereferenceable(72) %12, ptr noundef nonnull align 8 dereferenceable(88) %9, ptr noundef nonnull align 8 dereferenceable(88) %2, ptr noundef nonnull align 8 dereferenceable(72) %14)
          to label %19 unwind label %15

15:                                               ; preds = %3
  %16 = landingpad { ptr, i32 }
          catch ptr null
  %17 = extractvalue { ptr, i32 } %16, 0
  %18 = tail call ptr @__cxa_begin_catch(ptr %17) #16
  tail call void @__cxa_end_catch()
  br label %19

19:                                               ; preds = %3, %15
  %20 = tail call noundef nonnull align 8 dereferenceable(88) ptr @_ZN6dealii6VectorIfEpLERKS1_(ptr noundef nonnull align 8 dereferenceable(88) %1, ptr noundef nonnull align 8 dereferenceable(88) %9)
  %21 = load ptr, ptr %4, align 8, !tbaa !151
  %22 = load ptr, ptr %21, align 8, !tbaa !5
  %23 = getelementptr inbounds ptr, ptr %22, i64 3
  %24 = load ptr, ptr %23, align 8
  tail call void %24(ptr noundef nonnull align 8 dereferenceable(72) %21, ptr noundef nonnull %9)
  ret void
}

declare void @_ZN6dealii6VectorIfE6reinitIfEEvRKNS0_IT_EEb(ptr noundef nonnull align 8 dereferenceable(88), ptr noundef nonnull align 8 dereferenceable(88), i1 noundef zeroext) local_unnamed_addr #3

declare noundef nonnull align 8 dereferenceable(88) ptr @_ZN6dealii6VectorIfEpLERKS1_(ptr noundef nonnull align 8 dereferenceable(88), ptr noundef nonnull align 8 dereferenceable(88)) local_unnamed_addr #3

; Function Attrs: sspstrong uwtable
define weak_odr dso_local void @_ZNK6dealii23InverseMatrixRichardsonINS_6VectorIfEEE6TvmultERS2_RKS2_(ptr noundef nonnull align 8 dereferenceable(312) %0, ptr noundef nonnull align 8 dereferenceable(88) %1, ptr noundef nonnull align 8 dereferenceable(88) %2) local_unnamed_addr #0 comdat align 2 personality ptr @__gxx_personality_v0 {
  %4 = getelementptr inbounds %"class.dealii::Vector.22", ptr %1, i64 0, i32 1
  %5 = load i32, ptr %4, align 8, !tbaa !38
  %6 = icmp eq i32 %5, 0
  br i1 %6, label %12, label %7

7:                                                ; preds = %3
  %8 = getelementptr inbounds %"class.dealii::Vector.22", ptr %1, i64 0, i32 3
  %9 = load ptr, ptr %8, align 8, !tbaa !40
  %10 = zext i32 %5 to i64
  %11 = shl nuw nsw i64 %10, 2
  tail call void @llvm.memset.p0.i64(ptr align 4 %9, i8 0, i64 %11, i1 false), !tbaa !41
  br label %12

12:                                               ; preds = %7, %3
  %13 = getelementptr inbounds %"class.dealii::InverseMatrixRichardson", ptr %0, i64 0, i32 2
  %14 = getelementptr inbounds %"class.dealii::InverseMatrixRichardson", ptr %0, i64 0, i32 3
  %15 = load ptr, ptr %14, align 8, !tbaa !119
  %16 = getelementptr inbounds %"class.dealii::InverseMatrixRichardson", ptr %0, i64 0, i32 4
  %17 = load ptr, ptr %16, align 8, !tbaa !125
  invoke void @_ZN6dealii16SolverRichardsonINS_6VectorIfEEE6TsolveINS_17PointerMatrixBaseIS2_EES6_EEvRKT_RS2_RKS2_RKT0_(ptr noundef nonnull align 8 dereferenceable(212) %13, ptr noundef nonnull align 8 dereferenceable(72) %15, ptr noundef nonnull align 8 dereferenceable(88) %1, ptr noundef nonnull align 8 dereferenceable(88) %2, ptr noundef nonnull align 8 dereferenceable(72) %17)
          to label %22 unwind label %18

18:                                               ; preds = %12
  %19 = landingpad { ptr, i32 }
          catch ptr null
  %20 = extractvalue { ptr, i32 } %19, 0
  %21 = tail call ptr @__cxa_begin_catch(ptr %20) #16
  tail call void @__cxa_end_catch()
  br label %22

22:                                               ; preds = %12, %18
  ret void
}

; Function Attrs: sspstrong uwtable
define linkonce_odr dso_local void @_ZN6dealii16SolverRichardsonINS_6VectorIfEEE6TsolveINS_17PointerMatrixBaseIS2_EES6_EEvRKT_RS2_RKS2_RKT0_(ptr noundef nonnull align 8 dereferenceable(212) %0, ptr noundef nonnull align 8 dereferenceable(72) %1, ptr noundef nonnull align 8 dereferenceable(88) %2, ptr noundef nonnull align 8 dereferenceable(88) %3, ptr noundef nonnull align 8 dereferenceable(72) %4) local_unnamed_addr #0 comdat align 2 personality ptr @__gxx_personality_v0 {
  %6 = alloca %"class.std::__cxx11::basic_string", align 8
  %7 = getelementptr inbounds %"class.dealii::Solver", ptr %0, i64 0, i32 3
  %8 = load ptr, ptr %7, align 8, !tbaa !126
  %9 = load ptr, ptr %8, align 8, !tbaa !5
  %10 = getelementptr inbounds ptr, ptr %9, i64 2
  %11 = load ptr, ptr %10, align 8
  %12 = tail call noundef ptr %11(ptr noundef nonnull align 8 dereferenceable(72) %8)
  %13 = getelementptr inbounds %"class.dealii::SolverRichardson", ptr %0, i64 0, i32 1
  store ptr %12, ptr %13, align 8, !tbaa !127
  tail call void @_ZN6dealii6VectorIfE6reinitIfEEvRKNS0_IT_EEb(ptr noundef nonnull align 8 dereferenceable(88) %12, ptr noundef nonnull align 8 dereferenceable(88) %2, i1 noundef zeroext false)
  %14 = load ptr, ptr %7, align 8, !tbaa !126
  %15 = load ptr, ptr %14, align 8, !tbaa !5
  %16 = getelementptr inbounds ptr, ptr %15, i64 2
  %17 = load ptr, ptr %16, align 8
  %18 = tail call noundef ptr %17(ptr noundef nonnull align 8 dereferenceable(72) %14)
  %19 = getelementptr inbounds %"class.dealii::SolverRichardson", ptr %0, i64 0, i32 2
  store ptr %18, ptr %19, align 8, !tbaa !128
  tail call void @_ZN6dealii6VectorIfE6reinitIfEEvRKNS0_IT_EEb(ptr noundef nonnull align 8 dereferenceable(88) %18, ptr noundef nonnull align 8 dereferenceable(88) %2, i1 noundef zeroext false)
  call void @llvm.lifetime.start.p0(i64 32, ptr nonnull %6) #16
  %20 = getelementptr inbounds %"class.std::__cxx11::basic_string", ptr %6, i64 0, i32 2
  store ptr %20, ptr %6, align 8, !tbaa !129
  call void @llvm.memcpy.p0.p0.i64(ptr noundef nonnull align 8 dereferenceable(11) %20, ptr noundef nonnull align 1 dereferenceable(11) @.str.20, i64 11, i1 false)
  %21 = getelementptr inbounds %"class.std::__cxx11::basic_string", ptr %6, i64 0, i32 1
  store i64 11, ptr %21, align 8, !tbaa !131
  %22 = getelementptr inbounds %"class.std::__cxx11::basic_string", ptr %6, i64 0, i32 2, i32 1, i64 3
  store i8 0, ptr %22, align 1, !tbaa !133
  invoke void @_ZN6dealii9LogStream4pushERKNSt7__cxx1112basic_stringIcSt11char_traitsIcESaIcEEE(ptr noundef nonnull align 8 dereferenceable(192) @_ZN6dealii7deallogE, ptr noundef nonnull align 8 dereferenceable(32) %6)
          to label %23 unwind label %44

23:                                               ; preds = %5
  %24 = load ptr, ptr %6, align 8, !tbaa !134
  %25 = icmp eq ptr %24, %20
  br i1 %25, label %26, label %29

26:                                               ; preds = %23
  %27 = load i64, ptr %21, align 8, !tbaa !131
  %28 = icmp ult i64 %27, 16
  call void @llvm.assume(i1 %28)
  br label %30

29:                                               ; preds = %23
  call void @_ZdlPv(ptr noundef %24) #19
  br label %30

30:                                               ; preds = %29, %26
  call void @llvm.lifetime.end.p0(i64 32, ptr nonnull %6) #16
  %31 = getelementptr inbounds %"class.dealii::Vector.22", ptr %12, i64 0, i32 3
  %32 = getelementptr inbounds %"class.dealii::Vector.22", ptr %12, i64 0, i32 1
  %33 = getelementptr inbounds %"class.dealii::Vector.22", ptr %3, i64 0, i32 3
  %34 = getelementptr inbounds %"class.dealii::Solver", ptr %0, i64 0, i32 2
  %35 = getelementptr inbounds %"class.dealii::SolverRichardson", ptr %0, i64 0, i32 3
  %36 = getelementptr inbounds %"class.dealii::Vector.22", ptr %2, i64 0, i32 3
  %37 = getelementptr inbounds %"class.dealii::Vector.22", ptr %2, i64 0, i32 1
  %38 = getelementptr inbounds %"class.dealii::Vector.22", ptr %18, i64 0, i32 3
  br label %39

39:                                               ; preds = %232, %30
  %40 = phi i32 [ 0, %30 ], [ %233, %232 ]
  %41 = load ptr, ptr %1, align 8, !tbaa !5
  %42 = getelementptr inbounds ptr, ptr %41, i64 4
  %43 = load ptr, ptr %42, align 8
  invoke void %43(ptr noundef nonnull align 8 dereferenceable(72) %1, ptr noundef nonnull align 8 dereferenceable(88) %12, ptr noundef nonnull align 8 dereferenceable(88) %2)
          to label %53 unwind label %136

44:                                               ; preds = %5
  %45 = landingpad { ptr, i32 }
          cleanup
  %46 = load ptr, ptr %6, align 8, !tbaa !134
  %47 = icmp eq ptr %46, %20
  br i1 %47, label %48, label %51

48:                                               ; preds = %44
  %49 = load i64, ptr %21, align 8, !tbaa !131
  %50 = icmp ult i64 %49, 16
  call void @llvm.assume(i1 %50)
  br label %52

51:                                               ; preds = %44
  call void @_ZdlPv(ptr noundef %46) #19
  br label %52

52:                                               ; preds = %51, %48
  call void @llvm.lifetime.end.p0(i64 32, ptr nonnull %6) #16
  br label %262

53:                                               ; preds = %39
  %54 = load ptr, ptr %31, align 8, !tbaa !40
  %55 = load i32, ptr %32, align 8, !tbaa !38
  %56 = zext i32 %55 to i64
  %57 = getelementptr inbounds float, ptr %54, i64 %56
  %58 = icmp eq i32 %55, 0
  br i1 %58, label %118, label %59

59:                                               ; preds = %53
  %60 = load ptr, ptr %33, align 8, !tbaa !40
  %61 = add nuw nsw i64 %56, 4611686018427387903
  %62 = and i64 %61, 4611686018427387903
  %63 = add nuw nsw i64 %62, 1
  %64 = icmp ult i64 %62, 31
  br i1 %64, label %106, label %65

65:                                               ; preds = %59
  %66 = shl nuw nsw i64 %56, 2
  %67 = getelementptr i8, ptr %54, i64 %66
  %68 = getelementptr i8, ptr %60, i64 %66
  %69 = icmp ult ptr %54, %68
  %70 = icmp ult ptr %60, %67
  %71 = and i1 %69, %70
  br i1 %71, label %106, label %72

72:                                               ; preds = %65
  %73 = and i64 %63, 9223372036854775776
  %74 = shl i64 %73, 2
  %75 = getelementptr i8, ptr %60, i64 %74
  %76 = shl i64 %73, 2
  %77 = getelementptr i8, ptr %54, i64 %76
  br label %78

78:                                               ; preds = %78, %72
  %79 = phi i64 [ 0, %72 ], [ %102, %78 ]
  %80 = shl i64 %79, 2
  %81 = getelementptr i8, ptr %60, i64 %80
  %82 = shl i64 %79, 2
  %83 = getelementptr i8, ptr %54, i64 %82
  %84 = load <8 x float>, ptr %83, align 4, !tbaa !41, !alias.scope !152, !noalias !155
  %85 = getelementptr float, ptr %83, i64 8
  %86 = load <8 x float>, ptr %85, align 4, !tbaa !41, !alias.scope !152, !noalias !155
  %87 = getelementptr float, ptr %83, i64 16
  %88 = load <8 x float>, ptr %87, align 4, !tbaa !41, !alias.scope !152, !noalias !155
  %89 = getelementptr float, ptr %83, i64 24
  %90 = load <8 x float>, ptr %89, align 4, !tbaa !41, !alias.scope !152, !noalias !155
  %91 = load <8 x float>, ptr %81, align 4, !tbaa !41, !alias.scope !155
  %92 = getelementptr float, ptr %81, i64 8
  %93 = load <8 x float>, ptr %92, align 4, !tbaa !41, !alias.scope !155
  %94 = getelementptr float, ptr %81, i64 16
  %95 = load <8 x float>, ptr %94, align 4, !tbaa !41, !alias.scope !155
  %96 = getelementptr float, ptr %81, i64 24
  %97 = load <8 x float>, ptr %96, align 4, !tbaa !41, !alias.scope !155
  %98 = call <8 x float> @llvm.fmuladd.v8f32(<8 x float> %84, <8 x float> <float -1.000000e+00, float -1.000000e+00, float -1.000000e+00, float -1.000000e+00, float -1.000000e+00, float -1.000000e+00, float -1.000000e+00, float -1.000000e+00>, <8 x float> %91)
  %99 = call <8 x float> @llvm.fmuladd.v8f32(<8 x float> %86, <8 x float> <float -1.000000e+00, float -1.000000e+00, float -1.000000e+00, float -1.000000e+00, float -1.000000e+00, float -1.000000e+00, float -1.000000e+00, float -1.000000e+00>, <8 x float> %93)
  %100 = call <8 x float> @llvm.fmuladd.v8f32(<8 x float> %88, <8 x float> <float -1.000000e+00, float -1.000000e+00, float -1.000000e+00, float -1.000000e+00, float -1.000000e+00, float -1.000000e+00, float -1.000000e+00, float -1.000000e+00>, <8 x float> %95)
  %101 = call <8 x float> @llvm.fmuladd.v8f32(<8 x float> %90, <8 x float> <float -1.000000e+00, float -1.000000e+00, float -1.000000e+00, float -1.000000e+00, float -1.000000e+00, float -1.000000e+00, float -1.000000e+00, float -1.000000e+00>, <8 x float> %97)
  store <8 x float> %98, ptr %83, align 4, !tbaa !41, !alias.scope !152, !noalias !155
  store <8 x float> %99, ptr %85, align 4, !tbaa !41, !alias.scope !152, !noalias !155
  store <8 x float> %100, ptr %87, align 4, !tbaa !41, !alias.scope !152, !noalias !155
  store <8 x float> %101, ptr %89, align 4, !tbaa !41, !alias.scope !152, !noalias !155
  %102 = add nuw i64 %79, 32
  %103 = icmp eq i64 %102, %73
  br i1 %103, label %104, label %78, !llvm.loop !157

104:                                              ; preds = %78
  %105 = icmp eq i64 %63, %73
  br i1 %105, label %118, label %106

106:                                              ; preds = %65, %59, %104
  %107 = phi ptr [ %60, %65 ], [ %60, %59 ], [ %75, %104 ]
  %108 = phi ptr [ %54, %65 ], [ %54, %59 ], [ %77, %104 ]
  br label %109

109:                                              ; preds = %106, %109
  %110 = phi ptr [ %113, %109 ], [ %107, %106 ]
  %111 = phi ptr [ %116, %109 ], [ %108, %106 ]
  %112 = load float, ptr %111, align 4, !tbaa !41
  %113 = getelementptr inbounds float, ptr %110, i64 1
  %114 = load float, ptr %110, align 4, !tbaa !41
  %115 = call float @llvm.fmuladd.f32(float %112, float -1.000000e+00, float %114)
  store float %115, ptr %111, align 4, !tbaa !41
  %116 = getelementptr inbounds float, ptr %111, i64 1
  %117 = icmp eq ptr %116, %57
  br i1 %117, label %118, label %109, !llvm.loop !158

118:                                              ; preds = %109, %104, %53
  %119 = load ptr, ptr %4, align 8, !tbaa !5
  %120 = getelementptr inbounds ptr, ptr %119, i64 4
  %121 = load ptr, ptr %120, align 8
  invoke void %121(ptr noundef nonnull align 8 dereferenceable(72) %4, ptr noundef nonnull align 8 dereferenceable(88) %18, ptr noundef nonnull align 8 dereferenceable(88) %12)
          to label %122 unwind label %136

122:                                              ; preds = %118
  %123 = load ptr, ptr %34, align 8, !tbaa !142
  %124 = load ptr, ptr %0, align 8, !tbaa !5
  %125 = getelementptr inbounds ptr, ptr %124, i64 3
  %126 = load ptr, ptr %125, align 8
  %127 = invoke noundef float %126(ptr noundef nonnull align 8 dereferenceable(212) %0)
          to label %128 unwind label %136

128:                                              ; preds = %122
  %129 = fpext float %127 to double
  %130 = load ptr, ptr %123, align 8, !tbaa !5
  %131 = getelementptr inbounds ptr, ptr %130, i64 2
  %132 = load ptr, ptr %131, align 8
  %133 = invoke noundef i32 %132(ptr noundef nonnull align 8 dereferenceable(176) %123, i32 noundef %40, double noundef %129)
          to label %134 unwind label %136

134:                                              ; preds = %128
  %135 = icmp eq i32 %133, 0
  br i1 %135, label %153, label %234

136:                                              ; preds = %228, %128, %122, %118, %39
  %137 = landingpad { ptr, i32 }
          catch ptr null
  %138 = extractvalue { ptr, i32 } %137, 0
  %139 = call ptr @__cxa_begin_catch(ptr %138) #16
  %140 = load ptr, ptr %7, align 8, !tbaa !126
  %141 = load ptr, ptr %13, align 8, !tbaa !127
  %142 = load ptr, ptr %140, align 8, !tbaa !5
  %143 = getelementptr inbounds ptr, ptr %142, i64 3
  %144 = load ptr, ptr %143, align 8
  invoke void %144(ptr noundef nonnull align 8 dereferenceable(72) %140, ptr noundef %141)
          to label %145 unwind label %248

145:                                              ; preds = %136
  %146 = load ptr, ptr %7, align 8, !tbaa !126
  %147 = load ptr, ptr %19, align 8, !tbaa !128
  %148 = load ptr, ptr %146, align 8, !tbaa !5
  %149 = getelementptr inbounds ptr, ptr %148, i64 3
  %150 = load ptr, ptr %149, align 8
  invoke void %150(ptr noundef nonnull align 8 dereferenceable(72) %146, ptr noundef %147)
          to label %151 unwind label %248

151:                                              ; preds = %145
  invoke void @_ZN6dealii9LogStream3popEv(ptr noundef nonnull align 8 dereferenceable(192) @_ZN6dealii7deallogE)
          to label %152 unwind label %248

152:                                              ; preds = %151
  invoke void @__cxa_rethrow() #20
          to label %267 unwind label %248

153:                                              ; preds = %134
  %154 = load double, ptr %35, align 8, !tbaa !143
  %155 = fptrunc double %154 to float
  %156 = load ptr, ptr %36, align 8, !tbaa !40
  %157 = load i32, ptr %37, align 8, !tbaa !38
  %158 = zext i32 %157 to i64
  %159 = getelementptr inbounds float, ptr %156, i64 %158
  %160 = icmp eq i32 %157, 0
  br i1 %160, label %228, label %161

161:                                              ; preds = %153
  %162 = load ptr, ptr %38, align 8, !tbaa !40
  %163 = add nuw nsw i64 %158, 4611686018427387903
  %164 = and i64 %163, 4611686018427387903
  %165 = add nuw nsw i64 %164, 1
  %166 = icmp ult i64 %164, 31
  br i1 %166, label %216, label %167

167:                                              ; preds = %161
  %168 = shl nuw nsw i64 %158, 2
  %169 = getelementptr i8, ptr %156, i64 %168
  %170 = getelementptr i8, ptr %162, i64 %168
  %171 = icmp ult ptr %156, %170
  %172 = icmp ult ptr %162, %169
  %173 = and i1 %171, %172
  br i1 %173, label %216, label %174

174:                                              ; preds = %167
  %175 = and i64 %165, 9223372036854775776
  %176 = shl i64 %175, 2
  %177 = getelementptr i8, ptr %162, i64 %176
  %178 = shl i64 %175, 2
  %179 = getelementptr i8, ptr %156, i64 %178
  %180 = insertelement <8 x float> poison, float %155, i64 0
  %181 = shufflevector <8 x float> %180, <8 x float> poison, <8 x i32> zeroinitializer
  %182 = insertelement <8 x float> poison, float %155, i64 0
  %183 = shufflevector <8 x float> %182, <8 x float> poison, <8 x i32> zeroinitializer
  %184 = insertelement <8 x float> poison, float %155, i64 0
  %185 = shufflevector <8 x float> %184, <8 x float> poison, <8 x i32> zeroinitializer
  %186 = insertelement <8 x float> poison, float %155, i64 0
  %187 = shufflevector <8 x float> %186, <8 x float> poison, <8 x i32> zeroinitializer
  br label %188

188:                                              ; preds = %188, %174
  %189 = phi i64 [ 0, %174 ], [ %212, %188 ]
  %190 = shl i64 %189, 2
  %191 = getelementptr i8, ptr %162, i64 %190
  %192 = shl i64 %189, 2
  %193 = getelementptr i8, ptr %156, i64 %192
  %194 = load <8 x float>, ptr %191, align 4, !tbaa !41, !alias.scope !159
  %195 = getelementptr float, ptr %191, i64 8
  %196 = load <8 x float>, ptr %195, align 4, !tbaa !41, !alias.scope !159
  %197 = getelementptr float, ptr %191, i64 16
  %198 = load <8 x float>, ptr %197, align 4, !tbaa !41, !alias.scope !159
