; ModuleID = 'source/lac/sparse_matrix_ez.cc'
source_filename = "source/lac/sparse_matrix_ez.cc"
target datalayout = "e-m:e-p270:32:32-p271:32:32-p272:64:64-i64:64-f80:128-n8:16:32:64-S128"
target triple = "x86_64-pc-linux-gnu"

module asm ".globl _ZSt21ios_base_library_initv"

%"struct.dealii::SparseMatrixEZ<double>::Entry" = type { i32, double }
%"struct.dealii::SparseMatrixEZ<double>::RowInfo" = type { i32, i16, i16 }
%"class.dealii::SparseMatrixEZ<double>::const_iterator::Accessor" = type <{ ptr, i32, i16, [2 x i8] }>
%"class.dealii::SparseMatrixEZ" = type <{ %"class.dealii::Subscriptor", i32, [4 x i8], %"class.std::vector", %"class.std::vector.3", i32, [4 x i8] }>
%"class.dealii::Subscriptor" = type { ptr, i32, %"class.std::map", ptr }
%"class.std::map" = type { %"class.std::_Rb_tree" }
%"class.std::_Rb_tree" = type { %"struct.std::_Rb_tree<const char *, std::pair<const char *const, unsigned int>, std::_Select1st<std::pair<const char *const, unsigned int> >, std::less<const char *> >::_Rb_tree_impl" }
%"struct.std::_Rb_tree<const char *, std::pair<const char *const, unsigned int>, std::_Select1st<std::pair<const char *const, unsigned int> >, std::less<const char *> >::_Rb_tree_impl" = type { %"struct.std::_Rb_tree_key_compare", %"struct.std::_Rb_tree_header" }
%"struct.std::_Rb_tree_key_compare" = type { %"struct.std::less" }
%"struct.std::less" = type { i8 }
%"struct.std::_Rb_tree_header" = type { %"struct.std::_Rb_tree_node_base", i64 }
%"struct.std::_Rb_tree_node_base" = type { i32, ptr, ptr, ptr }
%"class.std::vector" = type { %"struct.std::_Vector_base" }
%"struct.std::_Vector_base" = type { %"struct.std::_Vector_base<dealii::SparseMatrixEZ<double>::RowInfo, std::allocator<dealii::SparseMatrixEZ<double>::RowInfo> >::_Vector_impl" }
%"struct.std::_Vector_base<dealii::SparseMatrixEZ<double>::RowInfo, std::allocator<dealii::SparseMatrixEZ<double>::RowInfo> >::_Vector_impl" = type { %"struct.std::_Vector_base<dealii::SparseMatrixEZ<double>::RowInfo, std::allocator<dealii::SparseMatrixEZ<double>::RowInfo> >::_Vector_impl_data" }
%"struct.std::_Vector_base<dealii::SparseMatrixEZ<double>::RowInfo, std::allocator<dealii::SparseMatrixEZ<double>::RowInfo> >::_Vector_impl_data" = type { ptr, ptr, ptr }
%"class.std::vector.3" = type { %"struct.std::_Vector_base.4" }
%"struct.std::_Vector_base.4" = type { %"struct.std::_Vector_base<dealii::SparseMatrixEZ<double>::Entry, std::allocator<dealii::SparseMatrixEZ<double>::Entry> >::_Vector_impl" }
%"struct.std::_Vector_base<dealii::SparseMatrixEZ<double>::Entry, std::allocator<dealii::SparseMatrixEZ<double>::Entry> >::_Vector_impl" = type { %"struct.std::_Vector_base<dealii::SparseMatrixEZ<double>::Entry, std::allocator<dealii::SparseMatrixEZ<double>::Entry> >::_Vector_impl_data" }
%"struct.std::_Vector_base<dealii::SparseMatrixEZ<double>::Entry, std::allocator<dealii::SparseMatrixEZ<double>::Entry> >::_Vector_impl_data" = type { ptr, ptr, ptr }
%"class.dealii::StandardExceptions::ExcIO" = type { %"class.dealii::ExceptionBase.base", [4 x i8] }
%"class.dealii::ExceptionBase.base" = type <{ %"class.std::exception", ptr, i32, [4 x i8], ptr, ptr, ptr, ptr, i32 }>
%"class.std::exception" = type { ptr }
%"class.std::ios_base" = type { ptr, i64, i64, i32, i32, i32, ptr, %"struct.std::ios_base::_Words", [8 x %"struct.std::ios_base::_Words"], i32, ptr, %"class.std::locale" }
%"struct.std::ios_base::_Words" = type { ptr, i64 }
%"class.std::locale" = type { ptr }
%"class.std::basic_ios" = type { %"class.std::ios_base", ptr, i8, i8, ptr, ptr, ptr, ptr }
%"class.std::ctype" = type <{ %"class.std::locale::facet.base", [4 x i8], ptr, i8, [7 x i8], ptr, ptr, ptr, i8, [256 x i8], [256 x i8], i8, [6 x i8] }>
%"class.std::locale::facet.base" = type <{ ptr, i32 }>
%"class.dealii::StandardExceptions::ExcMessage" = type { %"class.dealii::ExceptionBase.base", ptr }
%"struct.std::_Vector_base<unsigned int, std::allocator<unsigned int> >::_Vector_impl_data" = type { ptr, ptr, ptr }
%"class.dealii::SparseMatrixEZ<double>::ExcInvalidEntry" = type { %"class.dealii::ExceptionBase.base", i32, i32, [4 x i8] }
%"class.dealii::SparseMatrixEZ<double>::ExcEntryAllocationFailure" = type { %"class.dealii::ExceptionBase.base", i32, i32, [4 x i8] }
%"struct.dealii::SparseMatrixEZ<float>::Entry" = type { i32, float }
%"struct.dealii::SparseMatrixEZ<float>::RowInfo" = type { i32, i16, i16 }
%"class.dealii::SparseMatrixEZ<float>::const_iterator::Accessor" = type <{ ptr, i32, i16, [2 x i8] }>
%"class.dealii::SparseMatrixEZ.15" = type <{ %"class.dealii::Subscriptor", i32, [4 x i8], %"class.std::vector.16", %"class.std::vector.21", i32, [4 x i8] }>
%"class.std::vector.16" = type { %"struct.std::_Vector_base.17" }
%"struct.std::_Vector_base.17" = type { %"struct.std::_Vector_base<dealii::SparseMatrixEZ<float>::RowInfo, std::allocator<dealii::SparseMatrixEZ<float>::RowInfo> >::_Vector_impl" }
%"struct.std::_Vector_base<dealii::SparseMatrixEZ<float>::RowInfo, std::allocator<dealii::SparseMatrixEZ<float>::RowInfo> >::_Vector_impl" = type { %"struct.std::_Vector_base<dealii::SparseMatrixEZ<float>::RowInfo, std::allocator<dealii::SparseMatrixEZ<float>::RowInfo> >::_Vector_impl_data" }
%"struct.std::_Vector_base<dealii::SparseMatrixEZ<float>::RowInfo, std::allocator<dealii::SparseMatrixEZ<float>::RowInfo> >::_Vector_impl_data" = type { ptr, ptr, ptr }
%"class.std::vector.21" = type { %"struct.std::_Vector_base.22" }
%"struct.std::_Vector_base.22" = type { %"struct.std::_Vector_base<dealii::SparseMatrixEZ<float>::Entry, std::allocator<dealii::SparseMatrixEZ<float>::Entry> >::_Vector_impl" }
%"struct.std::_Vector_base<dealii::SparseMatrixEZ<float>::Entry, std::allocator<dealii::SparseMatrixEZ<float>::Entry> >::_Vector_impl" = type { %"struct.std::_Vector_base<dealii::SparseMatrixEZ<float>::Entry, std::allocator<dealii::SparseMatrixEZ<float>::Entry> >::_Vector_impl_data" }
%"struct.std::_Vector_base<dealii::SparseMatrixEZ<float>::Entry, std::allocator<dealii::SparseMatrixEZ<float>::Entry> >::_Vector_impl_data" = type { ptr, ptr, ptr }
%"class.dealii::SparseMatrixEZ<float>::ExcInvalidEntry" = type { %"class.dealii::ExceptionBase.base", i32, i32, [4 x i8] }
%"class.dealii::SparseMatrixEZ<float>::ExcEntryAllocationFailure" = type { %"class.dealii::ExceptionBase.base", i32, i32, [4 x i8] }
%"struct.dealii::SparseMatrixEZ<long double>::Entry" = type { i32, x86_fp80 }
%"struct.dealii::SparseMatrixEZ<long double>::RowInfo" = type { i32, i16, i16 }
%"class.dealii::SparseMatrixEZ<long double>::const_iterator::Accessor" = type <{ ptr, i32, i16, [2 x i8] }>
%"class.dealii::SparseMatrixEZ.30" = type <{ %"class.dealii::Subscriptor", i32, [4 x i8], %"class.std::vector.31", %"class.std::vector.36", i32, [4 x i8] }>
%"class.std::vector.31" = type { %"struct.std::_Vector_base.32" }
%"struct.std::_Vector_base.32" = type { %"struct.std::_Vector_base<dealii::SparseMatrixEZ<long double>::RowInfo, std::allocator<dealii::SparseMatrixEZ<long double>::RowInfo> >::_Vector_impl" }
%"struct.std::_Vector_base<dealii::SparseMatrixEZ<long double>::RowInfo, std::allocator<dealii::SparseMatrixEZ<long double>::RowInfo> >::_Vector_impl" = type { %"struct.std::_Vector_base<dealii::SparseMatrixEZ<long double>::RowInfo, std::allocator<dealii::SparseMatrixEZ<long double>::RowInfo> >::_Vector_impl_data" }
%"struct.std::_Vector_base<dealii::SparseMatrixEZ<long double>::RowInfo, std::allocator<dealii::SparseMatrixEZ<long double>::RowInfo> >::_Vector_impl_data" = type { ptr, ptr, ptr }
%"class.std::vector.36" = type { %"struct.std::_Vector_base.37" }
%"struct.std::_Vector_base.37" = type { %"struct.std::_Vector_base<dealii::SparseMatrixEZ<long double>::Entry, std::allocator<dealii::SparseMatrixEZ<long double>::Entry> >::_Vector_impl" }
%"struct.std::_Vector_base<dealii::SparseMatrixEZ<long double>::Entry, std::allocator<dealii::SparseMatrixEZ<long double>::Entry> >::_Vector_impl" = type { %"struct.std::_Vector_base<dealii::SparseMatrixEZ<long double>::Entry, std::allocator<dealii::SparseMatrixEZ<long double>::Entry> >::_Vector_impl_data" }
%"struct.std::_Vector_base<dealii::SparseMatrixEZ<long double>::Entry, std::allocator<dealii::SparseMatrixEZ<long double>::Entry> >::_Vector_impl_data" = type { ptr, ptr, ptr }
%"class.dealii::SparseMatrixEZ<long double>::ExcInvalidEntry" = type { %"class.dealii::ExceptionBase.base", i32, i32, [4 x i8] }
%"class.dealii::SparseMatrixEZ<long double>::ExcEntryAllocationFailure" = type { %"class.dealii::ExceptionBase.base", i32, i32, [4 x i8] }
%"class.dealii::Vector" = type { %"class.dealii::Subscriptor", i32, i32, ptr }
%"class.dealii::Vector.45" = type { %"class.dealii::Subscriptor", i32, i32, ptr }
%"class.dealii::Vector.46" = type { %"class.dealii::Subscriptor", i32, i32, ptr }

$_ZN6dealii14SparseMatrixEZIdE5EntryC5Ev = comdat any

$_ZN6dealii14SparseMatrixEZIdE5EntryC5EjRKd = comdat any

$_ZN6dealii14SparseMatrixEZIdE7RowInfoC5Ej = comdat any

$_ZN6dealii14SparseMatrixEZIdE14const_iterator8AccessorC5EPKS1_jt = comdat any

$_ZNK6dealii14SparseMatrixEZIdE14const_iterator8Accessor3rowEv = comdat any

$_ZNK6dealii14SparseMatrixEZIdE14const_iterator8Accessor5indexEv = comdat any

$_ZNK6dealii14SparseMatrixEZIdE14const_iterator8Accessor6columnEv = comdat any

$_ZNK6dealii14SparseMatrixEZIdE14const_iterator8Accessor5valueEv = comdat any

$_ZN6dealii14SparseMatrixEZIdE14const_iteratorC5EPKS1_jt = comdat any

$_ZNK6dealii14SparseMatrixEZIdE1mEv = comdat any

$_ZN6dealii14SparseMatrixEZIdE14const_iteratorppEv = comdat any

$_ZNK6dealii14SparseMatrixEZIdE14const_iteratordeEv = comdat any

$_ZNK6dealii14SparseMatrixEZIdE14const_iteratorptEv = comdat any

$_ZNK6dealii14SparseMatrixEZIdE14const_iteratoreqERKS2_ = comdat any

$_ZNK6dealii14SparseMatrixEZIdE14const_iteratorneERKS2_ = comdat any

$_ZNK6dealii14SparseMatrixEZIdE14const_iteratorltERKS2_ = comdat any

$_ZN6dealii14SparseMatrixEZIdEC5Ev = comdat any

$__clang_call_terminate = comdat any

$_ZN6dealii14SparseMatrixEZIdEC5ERKS1_ = comdat any

$_ZN6dealii14SparseMatrixEZIdEC5Ejjjj = comdat any

$_ZN6dealii14SparseMatrixEZIdE6reinitEjjjjj = comdat any

$_ZN6dealii14SparseMatrixEZIdED5Ev = comdat any

$_ZN6dealii14SparseMatrixEZIdEaSERKS1_ = comdat any

$_ZN6dealii14SparseMatrixEZIdEaSEd = comdat any

$_ZN6dealii14SparseMatrixEZIdE5clearEv = comdat any

$_ZNK6dealii14SparseMatrixEZIdE5emptyEv = comdat any

$_ZNK6dealii14SparseMatrixEZIdE1nEv = comdat any

$_ZN6dealii14SparseMatrixEZIdE3setEjjd = comdat any

$_ZN6dealii14SparseMatrixEZIdE6locateEjj = comdat any

$_ZN6dealii14SparseMatrixEZIdE8allocateEjj = comdat any

$_ZN6dealii14SparseMatrixEZIdE3addEjjd = comdat any

$_ZNK6dealii14SparseMatrixEZIdEclEjj = comdat any

$_ZNK6dealii14SparseMatrixEZIdE6locateEjj = comdat any

$_ZNK6dealii14SparseMatrixEZIdE2elEjj = comdat any

$_ZNK6dealii14SparseMatrixEZIdE7l2_normEv = comdat any

$_ZNK6dealii14SparseMatrixEZIdE5beginEv = comdat any

$_ZNK6dealii14SparseMatrixEZIdE3endEv = comdat any

$_ZNK6dealii14SparseMatrixEZIdE5beginEj = comdat any

$_ZNK6dealii14SparseMatrixEZIdE3endEj = comdat any

$_ZNK6dealii14SparseMatrixEZIdE5printERSo = comdat any

$_ZNK6dealii14SparseMatrixEZIdE15print_formattedERSojbjPKcd = comdat any

$_ZNK6dealii14SparseMatrixEZIdE11block_writeERSo = comdat any

$_ZN6dealii14SparseMatrixEZIdE10block_readERSi = comdat any

$_ZNK6dealii14SparseMatrixEZIdE18memory_consumptionEv = comdat any

$_ZNK6dealii14SparseMatrixEZIdE18compute_statisticsERjS2_S2_RSt6vectorIjSaIjEEb = comdat any

$_ZN6dealii14SparseMatrixEZIdE15ExcInvalidEntryC5Eii = comdat any

$_ZN6dealii14SparseMatrixEZIdE15ExcInvalidEntryD5Ev = comdat any

$_ZNK6dealii14SparseMatrixEZIdE15ExcInvalidEntry10print_infoERSo = comdat any

$_ZN6dealii14SparseMatrixEZIdE25ExcEntryAllocationFailureC5Eii = comdat any

$_ZN6dealii14SparseMatrixEZIdE25ExcEntryAllocationFailureD5Ev = comdat any

$_ZNK6dealii14SparseMatrixEZIdE25ExcEntryAllocationFailure10print_infoERSo = comdat any

$_ZN6dealii14SparseMatrixEZIfE5EntryC5Ev = comdat any

$_ZN6dealii14SparseMatrixEZIfE5EntryC5EjRKf = comdat any

$_ZN6dealii14SparseMatrixEZIfE7RowInfoC5Ej = comdat any

$_ZN6dealii14SparseMatrixEZIfE14const_iterator8AccessorC5EPKS1_jt = comdat any

$_ZNK6dealii14SparseMatrixEZIfE14const_iterator8Accessor3rowEv = comdat any

$_ZNK6dealii14SparseMatrixEZIfE14const_iterator8Accessor5indexEv = comdat any

$_ZNK6dealii14SparseMatrixEZIfE14const_iterator8Accessor6columnEv = comdat any

$_ZNK6dealii14SparseMatrixEZIfE14const_iterator8Accessor5valueEv = comdat any

$_ZN6dealii14SparseMatrixEZIfE14const_iteratorC5EPKS1_jt = comdat any

$_ZNK6dealii14SparseMatrixEZIfE1mEv = comdat any

$_ZN6dealii14SparseMatrixEZIfE14const_iteratorppEv = comdat any

$_ZNK6dealii14SparseMatrixEZIfE14const_iteratordeEv = comdat any

$_ZNK6dealii14SparseMatrixEZIfE14const_iteratorptEv = comdat any

$_ZNK6dealii14SparseMatrixEZIfE14const_iteratoreqERKS2_ = comdat any

$_ZNK6dealii14SparseMatrixEZIfE14const_iteratorneERKS2_ = comdat any

$_ZNK6dealii14SparseMatrixEZIfE14const_iteratorltERKS2_ = comdat any

$_ZN6dealii14SparseMatrixEZIfEC5Ev = comdat any

$_ZN6dealii14SparseMatrixEZIfEC5ERKS1_ = comdat any

$_ZN6dealii14SparseMatrixEZIfEC5Ejjjj = comdat any

$_ZN6dealii14SparseMatrixEZIfE6reinitEjjjjj = comdat any

$_ZN6dealii14SparseMatrixEZIfED5Ev = comdat any

$_ZN6dealii14SparseMatrixEZIfEaSERKS1_ = comdat any

$_ZN6dealii14SparseMatrixEZIfEaSEd = comdat any

$_ZN6dealii14SparseMatrixEZIfE5clearEv = comdat any

$_ZNK6dealii14SparseMatrixEZIfE5emptyEv = comdat any

$_ZNK6dealii14SparseMatrixEZIfE1nEv = comdat any

$_ZN6dealii14SparseMatrixEZIfE3setEjjf = comdat any

$_ZN6dealii14SparseMatrixEZIfE6locateEjj = comdat any

$_ZN6dealii14SparseMatrixEZIfE8allocateEjj = comdat any

$_ZN6dealii14SparseMatrixEZIfE3addEjjf = comdat any

$_ZNK6dealii14SparseMatrixEZIfEclEjj = comdat any

$_ZNK6dealii14SparseMatrixEZIfE6locateEjj = comdat any

$_ZNK6dealii14SparseMatrixEZIfE2elEjj = comdat any

$_ZNK6dealii14SparseMatrixEZIfE7l2_normEv = comdat any

$_ZNK6dealii14SparseMatrixEZIfE5beginEv = comdat any

$_ZNK6dealii14SparseMatrixEZIfE3endEv = comdat any

$_ZNK6dealii14SparseMatrixEZIfE5beginEj = comdat any

$_ZNK6dealii14SparseMatrixEZIfE3endEj = comdat any

$_ZNK6dealii14SparseMatrixEZIfE5printERSo = comdat any

$_ZNK6dealii14SparseMatrixEZIfE15print_formattedERSojbjPKcd = comdat any

$_ZNK6dealii14SparseMatrixEZIfE11block_writeERSo = comdat any

$_ZN6dealii14SparseMatrixEZIfE10block_readERSi = comdat any

$_ZNK6dealii14SparseMatrixEZIfE18memory_consumptionEv = comdat any

$_ZNK6dealii14SparseMatrixEZIfE18compute_statisticsERjS2_S2_RSt6vectorIjSaIjEEb = comdat any

$_ZN6dealii14SparseMatrixEZIfE15ExcInvalidEntryC5Eii = comdat any

$_ZN6dealii14SparseMatrixEZIfE15ExcInvalidEntryD5Ev = comdat any

$_ZNK6dealii14SparseMatrixEZIfE15ExcInvalidEntry10print_infoERSo = comdat any

$_ZN6dealii14SparseMatrixEZIfE25ExcEntryAllocationFailureC5Eii = comdat any

$_ZN6dealii14SparseMatrixEZIfE25ExcEntryAllocationFailureD5Ev = comdat any

$_ZNK6dealii14SparseMatrixEZIfE25ExcEntryAllocationFailure10print_infoERSo = comdat any

$_ZN6dealii14SparseMatrixEZIeE5EntryC5Ev = comdat any

$_ZN6dealii14SparseMatrixEZIeE5EntryC5EjRKe = comdat any

$_ZN6dealii14SparseMatrixEZIeE7RowInfoC5Ej = comdat any

$_ZN6dealii14SparseMatrixEZIeE14const_iterator8AccessorC5EPKS1_jt = comdat any

$_ZNK6dealii14SparseMatrixEZIeE14const_iterator8Accessor3rowEv = comdat any

$_ZNK6dealii14SparseMatrixEZIeE14const_iterator8Accessor5indexEv = comdat any

$_ZNK6dealii14SparseMatrixEZIeE14const_iterator8Accessor6columnEv = comdat any

$_ZNK6dealii14SparseMatrixEZIeE14const_iterator8Accessor5valueEv = comdat any

$_ZN6dealii14SparseMatrixEZIeE14const_iteratorC5EPKS1_jt = comdat any

$_ZNK6dealii14SparseMatrixEZIeE1mEv = comdat any

$_ZN6dealii14SparseMatrixEZIeE14const_iteratorppEv = comdat any

$_ZNK6dealii14SparseMatrixEZIeE14const_iteratordeEv = comdat any

$_ZNK6dealii14SparseMatrixEZIeE14const_iteratorptEv = comdat any

$_ZNK6dealii14SparseMatrixEZIeE14const_iteratoreqERKS2_ = comdat any

$_ZNK6dealii14SparseMatrixEZIeE14const_iteratorneERKS2_ = comdat any

$_ZNK6dealii14SparseMatrixEZIeE14const_iteratorltERKS2_ = comdat any

$_ZN6dealii14SparseMatrixEZIeEC5Ev = comdat any

$_ZN6dealii14SparseMatrixEZIeEC5ERKS1_ = comdat any

$_ZN6dealii14SparseMatrixEZIeEC5Ejjjj = comdat any

$_ZN6dealii14SparseMatrixEZIeE6reinitEjjjjj = comdat any

$_ZN6dealii14SparseMatrixEZIeED5Ev = comdat any

$_ZN6dealii14SparseMatrixEZIeEaSERKS1_ = comdat any

$_ZN6dealii14SparseMatrixEZIeEaSEd = comdat any

$_ZN6dealii14SparseMatrixEZIeE5clearEv = comdat any

$_ZNK6dealii14SparseMatrixEZIeE5emptyEv = comdat any

$_ZNK6dealii14SparseMatrixEZIeE1nEv = comdat any

$_ZN6dealii14SparseMatrixEZIeE3setEjje = comdat any

$_ZN6dealii14SparseMatrixEZIeE6locateEjj = comdat any

$_ZN6dealii14SparseMatrixEZIeE8allocateEjj = comdat any

$_ZN6dealii14SparseMatrixEZIeE3addEjje = comdat any

$_ZNK6dealii14SparseMatrixEZIeEclEjj = comdat any

$_ZNK6dealii14SparseMatrixEZIeE6locateEjj = comdat any

$_ZNK6dealii14SparseMatrixEZIeE2elEjj = comdat any

$_ZNK6dealii14SparseMatrixEZIeE7l2_normEv = comdat any

$_ZNK6dealii14SparseMatrixEZIeE5beginEv = comdat any

$_ZNK6dealii14SparseMatrixEZIeE3endEv = comdat any

$_ZNK6dealii14SparseMatrixEZIeE5beginEj = comdat any

$_ZNK6dealii14SparseMatrixEZIeE3endEj = comdat any

$_ZNK6dealii14SparseMatrixEZIeE5printERSo = comdat any

$_ZNK6dealii14SparseMatrixEZIeE15print_formattedERSojbjPKcd = comdat any

$_ZNK6dealii14SparseMatrixEZIeE11block_writeERSo = comdat any

$_ZN6dealii14SparseMatrixEZIeE10block_readERSi = comdat any

$_ZNK6dealii14SparseMatrixEZIeE18memory_consumptionEv = comdat any

$_ZNK6dealii14SparseMatrixEZIeE18compute_statisticsERjS2_S2_RSt6vectorIjSaIjEEb = comdat any

$_ZN6dealii14SparseMatrixEZIeE15ExcInvalidEntryC5Eii = comdat any

$_ZN6dealii14SparseMatrixEZIeE15ExcInvalidEntryD5Ev = comdat any

$_ZNK6dealii14SparseMatrixEZIeE15ExcInvalidEntry10print_infoERSo = comdat any

$_ZN6dealii14SparseMatrixEZIeE25ExcEntryAllocationFailureC5Eii = comdat any

$_ZN6dealii14SparseMatrixEZIeE25ExcEntryAllocationFailureD5Ev = comdat any

$_ZNK6dealii14SparseMatrixEZIeE25ExcEntryAllocationFailure10print_infoERSo = comdat any

$_ZNK6dealii14SparseMatrixEZIdE5vmultIdEEvRNS_6VectorIT_EERKS5_ = comdat any

$_ZNK6dealii14SparseMatrixEZIdE6TvmultIdEEvRNS_6VectorIT_EERKS5_ = comdat any

$_ZNK6dealii14SparseMatrixEZIdE10Tvmult_addIdEEvRNS_6VectorIT_EERKS5_ = comdat any

$_ZNK6dealii14SparseMatrixEZIdE9vmult_addIdEEvRNS_6VectorIT_EERKS5_ = comdat any

$_ZNK6dealii14SparseMatrixEZIdE17precondition_SSORIdEEvRNS_6VectorIT_EERKS5_dRKSt6vectorIjSaIjEE = comdat any

$_ZNK6dealii14SparseMatrixEZIdE16precondition_SORIdEEvRNS_6VectorIT_EERKS5_d = comdat any

$_ZNK6dealii14SparseMatrixEZIdE17precondition_TSORIdEEvRNS_6VectorIT_EERKS5_d = comdat any

$_ZNK6dealii14SparseMatrixEZIdE19precondition_JacobiIdEEvRNS_6VectorIT_EERKS5_d = comdat any

$_ZNK6dealii14SparseMatrixEZIdE5vmultIfEEvRNS_6VectorIT_EERKS5_ = comdat any

$_ZNK6dealii14SparseMatrixEZIdE6TvmultIfEEvRNS_6VectorIT_EERKS5_ = comdat any

$_ZNK6dealii14SparseMatrixEZIdE10Tvmult_addIfEEvRNS_6VectorIT_EERKS5_ = comdat any

$_ZNK6dealii14SparseMatrixEZIdE9vmult_addIfEEvRNS_6VectorIT_EERKS5_ = comdat any

$_ZNK6dealii14SparseMatrixEZIdE17precondition_SSORIfEEvRNS_6VectorIT_EERKS5_dRKSt6vectorIjSaIjEE = comdat any

$_ZNK6dealii14SparseMatrixEZIdE16precondition_SORIfEEvRNS_6VectorIT_EERKS5_d = comdat any

$_ZNK6dealii14SparseMatrixEZIdE17precondition_TSORIfEEvRNS_6VectorIT_EERKS5_d = comdat any

$_ZNK6dealii14SparseMatrixEZIdE19precondition_JacobiIfEEvRNS_6VectorIT_EERKS5_d = comdat any

$_ZNK6dealii14SparseMatrixEZIdE5vmultIeEEvRNS_6VectorIT_EERKS5_ = comdat any

$_ZNK6dealii14SparseMatrixEZIdE6TvmultIeEEvRNS_6VectorIT_EERKS5_ = comdat any

$_ZNK6dealii14SparseMatrixEZIdE10Tvmult_addIeEEvRNS_6VectorIT_EERKS5_ = comdat any

$_ZNK6dealii14SparseMatrixEZIdE9vmult_addIeEEvRNS_6VectorIT_EERKS5_ = comdat any

$_ZNK6dealii14SparseMatrixEZIdE17precondition_SSORIeEEvRNS_6VectorIT_EERKS5_dRKSt6vectorIjSaIjEE = comdat any

$_ZNK6dealii14SparseMatrixEZIdE16precondition_SORIeEEvRNS_6VectorIT_EERKS5_d = comdat any

$_ZNK6dealii14SparseMatrixEZIdE17precondition_TSORIeEEvRNS_6VectorIT_EERKS5_d = comdat any

$_ZNK6dealii14SparseMatrixEZIdE19precondition_JacobiIeEEvRNS_6VectorIT_EERKS5_d = comdat any

$_ZNK6dealii14SparseMatrixEZIfE5vmultIdEEvRNS_6VectorIT_EERKS5_ = comdat any

$_ZNK6dealii14SparseMatrixEZIfE6TvmultIdEEvRNS_6VectorIT_EERKS5_ = comdat any

$_ZNK6dealii14SparseMatrixEZIfE10Tvmult_addIdEEvRNS_6VectorIT_EERKS5_ = comdat any

$_ZNK6dealii14SparseMatrixEZIfE9vmult_addIdEEvRNS_6VectorIT_EERKS5_ = comdat any

$_ZNK6dealii14SparseMatrixEZIfE17precondition_SSORIdEEvRNS_6VectorIT_EERKS5_fRKSt6vectorIjSaIjEE = comdat any

$_ZNK6dealii14SparseMatrixEZIfE16precondition_SORIdEEvRNS_6VectorIT_EERKS5_f = comdat any

$_ZNK6dealii14SparseMatrixEZIfE17precondition_TSORIdEEvRNS_6VectorIT_EERKS5_f = comdat any

$_ZNK6dealii14SparseMatrixEZIfE19precondition_JacobiIdEEvRNS_6VectorIT_EERKS5_f = comdat any

$_ZNK6dealii14SparseMatrixEZIfE5vmultIfEEvRNS_6VectorIT_EERKS5_ = comdat any

$_ZNK6dealii14SparseMatrixEZIfE6TvmultIfEEvRNS_6VectorIT_EERKS5_ = comdat any

$_ZNK6dealii14SparseMatrixEZIfE10Tvmult_addIfEEvRNS_6VectorIT_EERKS5_ = comdat any

$_ZNK6dealii14SparseMatrixEZIfE9vmult_addIfEEvRNS_6VectorIT_EERKS5_ = comdat any

$_ZNK6dealii14SparseMatrixEZIfE17precondition_SSORIfEEvRNS_6VectorIT_EERKS5_fRKSt6vectorIjSaIjEE = comdat any

$_ZNK6dealii14SparseMatrixEZIfE16precondition_SORIfEEvRNS_6VectorIT_EERKS5_f = comdat any

$_ZNK6dealii14SparseMatrixEZIfE17precondition_TSORIfEEvRNS_6VectorIT_EERKS5_f = comdat any

$_ZNK6dealii14SparseMatrixEZIfE19precondition_JacobiIfEEvRNS_6VectorIT_EERKS5_f = comdat any

$_ZNK6dealii14SparseMatrixEZIfE5vmultIeEEvRNS_6VectorIT_EERKS5_ = comdat any

$_ZNK6dealii14SparseMatrixEZIfE6TvmultIeEEvRNS_6VectorIT_EERKS5_ = comdat any

$_ZNK6dealii14SparseMatrixEZIfE10Tvmult_addIeEEvRNS_6VectorIT_EERKS5_ = comdat any

$_ZNK6dealii14SparseMatrixEZIfE9vmult_addIeEEvRNS_6VectorIT_EERKS5_ = comdat any

$_ZNK6dealii14SparseMatrixEZIfE17precondition_SSORIeEEvRNS_6VectorIT_EERKS5_fRKSt6vectorIjSaIjEE = comdat any

$_ZNK6dealii14SparseMatrixEZIfE16precondition_SORIeEEvRNS_6VectorIT_EERKS5_f = comdat any

$_ZNK6dealii14SparseMatrixEZIfE17precondition_TSORIeEEvRNS_6VectorIT_EERKS5_f = comdat any

$_ZNK6dealii14SparseMatrixEZIfE19precondition_JacobiIeEEvRNS_6VectorIT_EERKS5_f = comdat any

$_ZNK6dealii14SparseMatrixEZIeE5vmultIdEEvRNS_6VectorIT_EERKS5_ = comdat any

$_ZNK6dealii14SparseMatrixEZIeE6TvmultIdEEvRNS_6VectorIT_EERKS5_ = comdat any

$_ZNK6dealii14SparseMatrixEZIeE10Tvmult_addIdEEvRNS_6VectorIT_EERKS5_ = comdat any

$_ZNK6dealii14SparseMatrixEZIeE9vmult_addIdEEvRNS_6VectorIT_EERKS5_ = comdat any

$_ZNK6dealii14SparseMatrixEZIeE17precondition_SSORIdEEvRNS_6VectorIT_EERKS5_eRKSt6vectorIjSaIjEE = comdat any

$_ZNK6dealii14SparseMatrixEZIeE16precondition_SORIdEEvRNS_6VectorIT_EERKS5_e = comdat any

$_ZNK6dealii14SparseMatrixEZIeE17precondition_TSORIdEEvRNS_6VectorIT_EERKS5_e = comdat any

$_ZNK6dealii14SparseMatrixEZIeE19precondition_JacobiIdEEvRNS_6VectorIT_EERKS5_e = comdat any

$_ZNK6dealii14SparseMatrixEZIeE5vmultIfEEvRNS_6VectorIT_EERKS5_ = comdat any

$_ZNK6dealii14SparseMatrixEZIeE6TvmultIfEEvRNS_6VectorIT_EERKS5_ = comdat any

$_ZNK6dealii14SparseMatrixEZIeE10Tvmult_addIfEEvRNS_6VectorIT_EERKS5_ = comdat any

$_ZNK6dealii14SparseMatrixEZIeE9vmult_addIfEEvRNS_6VectorIT_EERKS5_ = comdat any

$_ZNK6dealii14SparseMatrixEZIeE17precondition_SSORIfEEvRNS_6VectorIT_EERKS5_eRKSt6vectorIjSaIjEE = comdat any

$_ZNK6dealii14SparseMatrixEZIeE16precondition_SORIfEEvRNS_6VectorIT_EERKS5_e = comdat any

$_ZNK6dealii14SparseMatrixEZIeE17precondition_TSORIfEEvRNS_6VectorIT_EERKS5_e = comdat any

$_ZNK6dealii14SparseMatrixEZIeE19precondition_JacobiIfEEvRNS_6VectorIT_EERKS5_e = comdat any

$_ZNK6dealii14SparseMatrixEZIeE5vmultIeEEvRNS_6VectorIT_EERKS5_ = comdat any

$_ZNK6dealii14SparseMatrixEZIeE6TvmultIeEEvRNS_6VectorIT_EERKS5_ = comdat any

$_ZNK6dealii14SparseMatrixEZIeE10Tvmult_addIeEEvRNS_6VectorIT_EERKS5_ = comdat any

$_ZNK6dealii14SparseMatrixEZIeE9vmult_addIeEEvRNS_6VectorIT_EERKS5_ = comdat any

$_ZNK6dealii14SparseMatrixEZIeE17precondition_SSORIeEEvRNS_6VectorIT_EERKS5_eRKSt6vectorIjSaIjEE = comdat any

$_ZNK6dealii14SparseMatrixEZIeE16precondition_SORIeEEvRNS_6VectorIT_EERKS5_e = comdat any

$_ZNK6dealii14SparseMatrixEZIeE17precondition_TSORIeEEvRNS_6VectorIT_EERKS5_e = comdat any

$_ZNK6dealii14SparseMatrixEZIeE19precondition_JacobiIeEEvRNS_6VectorIT_EERKS5_e = comdat any

$_ZN6dealii14SparseMatrixEZIdE13ExcNoDiagonalD0Ev = comdat any

$_ZN6dealii14SparseMatrixEZIfE13ExcNoDiagonalD0Ev = comdat any

$_ZN6dealii14SparseMatrixEZIeE13ExcNoDiagonalD0Ev = comdat any

$_ZN6dealii18StandardExceptions5ExcIOD0Ev = comdat any

$_ZN6dealii18StandardExceptions10ExcMessageD0Ev = comdat any

$_ZNK6dealii18StandardExceptions10ExcMessage10print_infoERSo = comdat any

$_ZNSt6vectorIjSaIjEE14_M_fill_insertEN9__gnu_cxx17__normal_iteratorIPjS1_EEmRKj = comdat any

$_ZNSt6vectorIN6dealii14SparseMatrixEZIdE7RowInfoESaIS3_EE14_M_fill_insertEN9__gnu_cxx17__normal_iteratorIPS3_S5_EEmRKS3_ = comdat any

$_ZNSt6vectorIN6dealii14SparseMatrixEZIdE5EntryESaIS3_EE14_M_fill_insertEN9__gnu_cxx17__normal_iteratorIPS3_S5_EEmRKS3_ = comdat any

$_ZNSt6vectorIN6dealii14SparseMatrixEZIfE7RowInfoESaIS3_EE14_M_fill_insertEN9__gnu_cxx17__normal_iteratorIPS3_S5_EEmRKS3_ = comdat any

$_ZNSt6vectorIN6dealii14SparseMatrixEZIfE5EntryESaIS3_EE14_M_fill_insertEN9__gnu_cxx17__normal_iteratorIPS3_S5_EEmRKS3_ = comdat any

$_ZNSt6vectorIN6dealii14SparseMatrixEZIeE7RowInfoESaIS3_EE14_M_fill_insertEN9__gnu_cxx17__normal_iteratorIPS3_S5_EEmRKS3_ = comdat any

$_ZNSt6vectorIN6dealii14SparseMatrixEZIeE5EntryESaIS3_EE14_M_fill_insertEN9__gnu_cxx17__normal_iteratorIPS3_S5_EEmRKS3_ = comdat any

$_ZTVN6dealii14SparseMatrixEZIdEE = comdat any

$_ZTVN6dealii14SparseMatrixEZIdE15ExcInvalidEntryE = comdat any

$_ZTVN6dealii14SparseMatrixEZIdE25ExcEntryAllocationFailureE = comdat any

$_ZTVN6dealii14SparseMatrixEZIfEE = comdat any

$_ZTVN6dealii14SparseMatrixEZIfE15ExcInvalidEntryE = comdat any

$_ZTVN6dealii14SparseMatrixEZIfE25ExcEntryAllocationFailureE = comdat any

$_ZTVN6dealii14SparseMatrixEZIeEE = comdat any

$_ZTVN6dealii14SparseMatrixEZIeE15ExcInvalidEntryE = comdat any

$_ZTVN6dealii14SparseMatrixEZIeE25ExcEntryAllocationFailureE = comdat any

$_ZTSN6dealii14SparseMatrixEZIdEE = comdat any

$_ZTIN6dealii14SparseMatrixEZIdEE = comdat any

$_ZTVN6dealii14SparseMatrixEZIdE13ExcNoDiagonalE = comdat any

$_ZTSN6dealii14SparseMatrixEZIdE13ExcNoDiagonalE = comdat any

$_ZTIN6dealii14SparseMatrixEZIdE13ExcNoDiagonalE = comdat any

$_ZTSN6dealii14SparseMatrixEZIdE15ExcInvalidEntryE = comdat any

$_ZTIN6dealii14SparseMatrixEZIdE15ExcInvalidEntryE = comdat any

$_ZTSN6dealii14SparseMatrixEZIdE25ExcEntryAllocationFailureE = comdat any

$_ZTIN6dealii14SparseMatrixEZIdE25ExcEntryAllocationFailureE = comdat any

$_ZTSN6dealii14SparseMatrixEZIfEE = comdat any

$_ZTIN6dealii14SparseMatrixEZIfEE = comdat any

$_ZTVN6dealii14SparseMatrixEZIfE13ExcNoDiagonalE = comdat any

$_ZTSN6dealii14SparseMatrixEZIfE13ExcNoDiagonalE = comdat any

$_ZTIN6dealii14SparseMatrixEZIfE13ExcNoDiagonalE = comdat any

$_ZTSN6dealii14SparseMatrixEZIfE15ExcInvalidEntryE = comdat any

$_ZTIN6dealii14SparseMatrixEZIfE15ExcInvalidEntryE = comdat any

$_ZTSN6dealii14SparseMatrixEZIfE25ExcEntryAllocationFailureE = comdat any

$_ZTIN6dealii14SparseMatrixEZIfE25ExcEntryAllocationFailureE = comdat any

$_ZTSN6dealii14SparseMatrixEZIeEE = comdat any

$_ZTIN6dealii14SparseMatrixEZIeEE = comdat any

$_ZTVN6dealii14SparseMatrixEZIeE13ExcNoDiagonalE = comdat any

$_ZTSN6dealii14SparseMatrixEZIeE13ExcNoDiagonalE = comdat any

$_ZTIN6dealii14SparseMatrixEZIeE13ExcNoDiagonalE = comdat any

$_ZTSN6dealii14SparseMatrixEZIeE15ExcInvalidEntryE = comdat any

$_ZTIN6dealii14SparseMatrixEZIeE15ExcInvalidEntryE = comdat any

$_ZTSN6dealii14SparseMatrixEZIeE25ExcEntryAllocationFailureE = comdat any

$_ZTIN6dealii14SparseMatrixEZIeE25ExcEntryAllocationFailureE = comdat any

$_ZTVN6dealii18StandardExceptions5ExcIOE = comdat any

$_ZTSN6dealii18StandardExceptions5ExcIOE = comdat any

$_ZTIN6dealii18StandardExceptions5ExcIOE = comdat any

$_ZTVN6dealii18StandardExceptions10ExcMessageE = comdat any

$_ZTSN6dealii18StandardExceptions10ExcMessageE = comdat any

$_ZTIN6dealii18StandardExceptions10ExcMessageE = comdat any

@_ZTVN6dealii14SparseMatrixEZIdEE = weak_odr dso_local unnamed_addr constant { [4 x ptr] } { [4 x ptr] [ptr null, ptr @_ZTIN6dealii14SparseMatrixEZIdEE, ptr @_ZN6dealii14SparseMatrixEZIdED2Ev, ptr @_ZN6dealii14SparseMatrixEZIdED0Ev] }, comdat, align 8
@.str = private unnamed_addr constant [41 x i8] c"include/lac/sparse_matrix_ez.templates.h\00", align 1
@.str.1 = private unnamed_addr constant [1 x i8] zeroinitializer, align 1
@.str.2 = private unnamed_addr constant [4 x i8] c"out\00", align 1
@.str.3 = private unnamed_addr constant [8 x i8] c"ExcIO()\00", align 1
@.str.4 = private unnamed_addr constant [3 x i8] c"][\00", align 1
@.str.5 = private unnamed_addr constant [3 x i8] c"in\00", align 1
@.str.6 = private unnamed_addr constant [9 x i8] c"c == '['\00", align 1
@.str.7 = private unnamed_addr constant [51 x i8] c"ExcMessage(\22Unexpected character in input stream\22)\00", align 1
@.str.8 = private unnamed_addr constant [37 x i8] c"Unexpected character in input stream\00", align 1
@.str.9 = private unnamed_addr constant [9 x i8] c"c == ']'\00", align 1
@_ZTVN6dealii14SparseMatrixEZIdE15ExcInvalidEntryE = weak_odr dso_local unnamed_addr constant { [6 x ptr] } { [6 x ptr] [ptr null, ptr @_ZTIN6dealii14SparseMatrixEZIdE15ExcInvalidEntryE, ptr @_ZN6dealii14SparseMatrixEZIdE15ExcInvalidEntryD2Ev, ptr @_ZN6dealii14SparseMatrixEZIdE15ExcInvalidEntryD0Ev, ptr @_ZNK6dealii13ExceptionBase4whatEv, ptr @_ZNK6dealii14SparseMatrixEZIdE15ExcInvalidEntry10print_infoERSo] }, comdat, align 8
@.str.10 = private unnamed_addr constant [23 x i8] c"The entry with index (\00", align 1
@.str.11 = private unnamed_addr constant [18 x i8] c") does not exist.\00", align 1
@_ZTVN6dealii14SparseMatrixEZIdE25ExcEntryAllocationFailureE = weak_odr dso_local unnamed_addr constant { [6 x ptr] } { [6 x ptr] [ptr null, ptr @_ZTIN6dealii14SparseMatrixEZIdE25ExcEntryAllocationFailureE, ptr @_ZN6dealii14SparseMatrixEZIdE25ExcEntryAllocationFailureD2Ev, ptr @_ZN6dealii14SparseMatrixEZIdE25ExcEntryAllocationFailureD0Ev, ptr @_ZNK6dealii13ExceptionBase4whatEv, ptr @_ZNK6dealii14SparseMatrixEZIdE25ExcEntryAllocationFailure10print_infoERSo] }, comdat, align 8
@.str.12 = private unnamed_addr constant [22 x i8] c"An entry with index (\00", align 1
@.str.13 = private unnamed_addr constant [23 x i8] c") cannot be allocated.\00", align 1
@_ZTVN6dealii14SparseMatrixEZIfEE = weak_odr dso_local unnamed_addr constant { [4 x ptr] } { [4 x ptr] [ptr null, ptr @_ZTIN6dealii14SparseMatrixEZIfEE, ptr @_ZN6dealii14SparseMatrixEZIfED2Ev, ptr @_ZN6dealii14SparseMatrixEZIfED0Ev] }, comdat, align 8
@_ZTVN6dealii14SparseMatrixEZIfE15ExcInvalidEntryE = weak_odr dso_local unnamed_addr constant { [6 x ptr] } { [6 x ptr] [ptr null, ptr @_ZTIN6dealii14SparseMatrixEZIfE15ExcInvalidEntryE, ptr @_ZN6dealii14SparseMatrixEZIfE15ExcInvalidEntryD2Ev, ptr @_ZN6dealii14SparseMatrixEZIfE15ExcInvalidEntryD0Ev, ptr @_ZNK6dealii13ExceptionBase4whatEv, ptr @_ZNK6dealii14SparseMatrixEZIfE15ExcInvalidEntry10print_infoERSo] }, comdat, align 8
@_ZTVN6dealii14SparseMatrixEZIfE25ExcEntryAllocationFailureE = weak_odr dso_local unnamed_addr constant { [6 x ptr] } { [6 x ptr] [ptr null, ptr @_ZTIN6dealii14SparseMatrixEZIfE25ExcEntryAllocationFailureE, ptr @_ZN6dealii14SparseMatrixEZIfE25ExcEntryAllocationFailureD2Ev, ptr @_ZN6dealii14SparseMatrixEZIfE25ExcEntryAllocationFailureD0Ev, ptr @_ZNK6dealii13ExceptionBase4whatEv, ptr @_ZNK6dealii14SparseMatrixEZIfE25ExcEntryAllocationFailure10print_infoERSo] }, comdat, align 8
@_ZTVN6dealii14SparseMatrixEZIeEE = weak_odr dso_local unnamed_addr constant { [4 x ptr] } { [4 x ptr] [ptr null, ptr @_ZTIN6dealii14SparseMatrixEZIeEE, ptr @_ZN6dealii14SparseMatrixEZIeED2Ev, ptr @_ZN6dealii14SparseMatrixEZIeED0Ev] }, comdat, align 8
@_ZTVN6dealii14SparseMatrixEZIeE15ExcInvalidEntryE = weak_odr dso_local unnamed_addr constant { [6 x ptr] } { [6 x ptr] [ptr null, ptr @_ZTIN6dealii14SparseMatrixEZIeE15ExcInvalidEntryE, ptr @_ZN6dealii14SparseMatrixEZIeE15ExcInvalidEntryD2Ev, ptr @_ZN6dealii14SparseMatrixEZIeE15ExcInvalidEntryD0Ev, ptr @_ZNK6dealii13ExceptionBase4whatEv, ptr @_ZNK6dealii14SparseMatrixEZIeE15ExcInvalidEntry10print_infoERSo] }, comdat, align 8
@_ZTVN6dealii14SparseMatrixEZIeE25ExcEntryAllocationFailureE = weak_odr dso_local unnamed_addr constant { [6 x ptr] } { [6 x ptr] [ptr null, ptr @_ZTIN6dealii14SparseMatrixEZIeE25ExcEntryAllocationFailureE, ptr @_ZN6dealii14SparseMatrixEZIeE25ExcEntryAllocationFailureD2Ev, ptr @_ZN6dealii14SparseMatrixEZIeE25ExcEntryAllocationFailureD0Ev, ptr @_ZNK6dealii13ExceptionBase4whatEv, ptr @_ZNK6dealii14SparseMatrixEZIeE25ExcEntryAllocationFailure10print_infoERSo] }, comdat, align 8
@_ZTVN10__cxxabiv120__si_class_type_infoE = external global ptr
@_ZTSN6dealii14SparseMatrixEZIdEE = weak_odr dso_local constant [29 x i8] c"N6dealii14SparseMatrixEZIdEE\00", comdat, align 1
@_ZTIN6dealii11SubscriptorE = external constant ptr
@_ZTIN6dealii14SparseMatrixEZIdEE = weak_odr dso_local constant { ptr, ptr, ptr } { ptr getelementptr inbounds (ptr, ptr @_ZTVN10__cxxabiv120__si_class_type_infoE, i64 2), ptr @_ZTSN6dealii14SparseMatrixEZIdEE, ptr @_ZTIN6dealii11SubscriptorE }, comdat, align 8
@_ZTVN6dealii14SparseMatrixEZIdE13ExcNoDiagonalE = weak_odr dso_local unnamed_addr constant { [6 x ptr] } { [6 x ptr] [ptr null, ptr @_ZTIN6dealii14SparseMatrixEZIdE13ExcNoDiagonalE, ptr @_ZN6dealii13ExceptionBaseD2Ev, ptr @_ZN6dealii14SparseMatrixEZIdE13ExcNoDiagonalD0Ev, ptr @_ZNK6dealii13ExceptionBase4whatEv, ptr @_ZNK6dealii13ExceptionBase10print_infoERSo] }, comdat, align 8
@_ZTSN6dealii14SparseMatrixEZIdE13ExcNoDiagonalE = weak_odr dso_local constant [44 x i8] c"N6dealii14SparseMatrixEZIdE13ExcNoDiagonalE\00", comdat, align 1
@_ZTIN6dealii13ExceptionBaseE = external constant ptr
@_ZTIN6dealii14SparseMatrixEZIdE13ExcNoDiagonalE = weak_odr dso_local constant { ptr, ptr, ptr } { ptr getelementptr inbounds (ptr, ptr @_ZTVN10__cxxabiv120__si_class_type_infoE, i64 2), ptr @_ZTSN6dealii14SparseMatrixEZIdE13ExcNoDiagonalE, ptr @_ZTIN6dealii13ExceptionBaseE }, comdat, align 8
@_ZTSN6dealii14SparseMatrixEZIdE15ExcInvalidEntryE = weak_odr dso_local constant [46 x i8] c"N6dealii14SparseMatrixEZIdE15ExcInvalidEntryE\00", comdat, align 1
@_ZTIN6dealii14SparseMatrixEZIdE15ExcInvalidEntryE = weak_odr dso_local constant { ptr, ptr, ptr } { ptr getelementptr inbounds (ptr, ptr @_ZTVN10__cxxabiv120__si_class_type_infoE, i64 2), ptr @_ZTSN6dealii14SparseMatrixEZIdE15ExcInvalidEntryE, ptr @_ZTIN6dealii13ExceptionBaseE }, comdat, align 8
@_ZTSN6dealii14SparseMatrixEZIdE25ExcEntryAllocationFailureE = weak_odr dso_local constant [56 x i8] c"N6dealii14SparseMatrixEZIdE25ExcEntryAllocationFailureE\00", comdat, align 1
@_ZTIN6dealii14SparseMatrixEZIdE25ExcEntryAllocationFailureE = weak_odr dso_local constant { ptr, ptr, ptr } { ptr getelementptr inbounds (ptr, ptr @_ZTVN10__cxxabiv120__si_class_type_infoE, i64 2), ptr @_ZTSN6dealii14SparseMatrixEZIdE25ExcEntryAllocationFailureE, ptr @_ZTIN6dealii13ExceptionBaseE }, comdat, align 8
@_ZTSN6dealii14SparseMatrixEZIfEE = weak_odr dso_local constant [29 x i8] c"N6dealii14SparseMatrixEZIfEE\00", comdat, align 1
@_ZTIN6dealii14SparseMatrixEZIfEE = weak_odr dso_local constant { ptr, ptr, ptr } { ptr getelementptr inbounds (ptr, ptr @_ZTVN10__cxxabiv120__si_class_type_infoE, i64 2), ptr @_ZTSN6dealii14SparseMatrixEZIfEE, ptr @_ZTIN6dealii11SubscriptorE }, comdat, align 8
@_ZTVN6dealii14SparseMatrixEZIfE13ExcNoDiagonalE = weak_odr dso_local unnamed_addr constant { [6 x ptr] } { [6 x ptr] [ptr null, ptr @_ZTIN6dealii14SparseMatrixEZIfE13ExcNoDiagonalE, ptr @_ZN6dealii13ExceptionBaseD2Ev, ptr @_ZN6dealii14SparseMatrixEZIfE13ExcNoDiagonalD0Ev, ptr @_ZNK6dealii13ExceptionBase4whatEv, ptr @_ZNK6dealii13ExceptionBase10print_infoERSo] }, comdat, align 8
@_ZTSN6dealii14SparseMatrixEZIfE13ExcNoDiagonalE = weak_odr dso_local constant [44 x i8] c"N6dealii14SparseMatrixEZIfE13ExcNoDiagonalE\00", comdat, align 1
@_ZTIN6dealii14SparseMatrixEZIfE13ExcNoDiagonalE = weak_odr dso_local constant { ptr, ptr, ptr } { ptr getelementptr inbounds (ptr, ptr @_ZTVN10__cxxabiv120__si_class_type_infoE, i64 2), ptr @_ZTSN6dealii14SparseMatrixEZIfE13ExcNoDiagonalE, ptr @_ZTIN6dealii13ExceptionBaseE }, comdat, align 8
@_ZTSN6dealii14SparseMatrixEZIfE15ExcInvalidEntryE = weak_odr dso_local constant [46 x i8] c"N6dealii14SparseMatrixEZIfE15ExcInvalidEntryE\00", comdat, align 1
@_ZTIN6dealii14SparseMatrixEZIfE15ExcInvalidEntryE = weak_odr dso_local constant { ptr, ptr, ptr } { ptr getelementptr inbounds (ptr, ptr @_ZTVN10__cxxabiv120__si_class_type_infoE, i64 2), ptr @_ZTSN6dealii14SparseMatrixEZIfE15ExcInvalidEntryE, ptr @_ZTIN6dealii13ExceptionBaseE }, comdat, align 8
@_ZTSN6dealii14SparseMatrixEZIfE25ExcEntryAllocationFailureE = weak_odr dso_local constant [56 x i8] c"N6dealii14SparseMatrixEZIfE25ExcEntryAllocationFailureE\00", comdat, align 1
@_ZTIN6dealii14SparseMatrixEZIfE25ExcEntryAllocationFailureE = weak_odr dso_local constant { ptr, ptr, ptr } { ptr getelementptr inbounds (ptr, ptr @_ZTVN10__cxxabiv120__si_class_type_infoE, i64 2), ptr @_ZTSN6dealii14SparseMatrixEZIfE25ExcEntryAllocationFailureE, ptr @_ZTIN6dealii13ExceptionBaseE }, comdat, align 8
@_ZTSN6dealii14SparseMatrixEZIeEE = weak_odr dso_local constant [29 x i8] c"N6dealii14SparseMatrixEZIeEE\00", comdat, align 1
@_ZTIN6dealii14SparseMatrixEZIeEE = weak_odr dso_local constant { ptr, ptr, ptr } { ptr getelementptr inbounds (ptr, ptr @_ZTVN10__cxxabiv120__si_class_type_infoE, i64 2), ptr @_ZTSN6dealii14SparseMatrixEZIeEE, ptr @_ZTIN6dealii11SubscriptorE }, comdat, align 8
@_ZTVN6dealii14SparseMatrixEZIeE13ExcNoDiagonalE = weak_odr dso_local unnamed_addr constant { [6 x ptr] } { [6 x ptr] [ptr null, ptr @_ZTIN6dealii14SparseMatrixEZIeE13ExcNoDiagonalE, ptr @_ZN6dealii13ExceptionBaseD2Ev, ptr @_ZN6dealii14SparseMatrixEZIeE13ExcNoDiagonalD0Ev, ptr @_ZNK6dealii13ExceptionBase4whatEv, ptr @_ZNK6dealii13ExceptionBase10print_infoERSo] }, comdat, align 8
@_ZTSN6dealii14SparseMatrixEZIeE13ExcNoDiagonalE = weak_odr dso_local constant [44 x i8] c"N6dealii14SparseMatrixEZIeE13ExcNoDiagonalE\00", comdat, align 1
@_ZTIN6dealii14SparseMatrixEZIeE13ExcNoDiagonalE = weak_odr dso_local constant { ptr, ptr, ptr } { ptr getelementptr inbounds (ptr, ptr @_ZTVN10__cxxabiv120__si_class_type_infoE, i64 2), ptr @_ZTSN6dealii14SparseMatrixEZIeE13ExcNoDiagonalE, ptr @_ZTIN6dealii13ExceptionBaseE }, comdat, align 8
@_ZTSN6dealii14SparseMatrixEZIeE15ExcInvalidEntryE = weak_odr dso_local constant [46 x i8] c"N6dealii14SparseMatrixEZIeE15ExcInvalidEntryE\00", comdat, align 1
@_ZTIN6dealii14SparseMatrixEZIeE15ExcInvalidEntryE = weak_odr dso_local constant { ptr, ptr, ptr } { ptr getelementptr inbounds (ptr, ptr @_ZTVN10__cxxabiv120__si_class_type_infoE, i64 2), ptr @_ZTSN6dealii14SparseMatrixEZIeE15ExcInvalidEntryE, ptr @_ZTIN6dealii13ExceptionBaseE }, comdat, align 8
@_ZTSN6dealii14SparseMatrixEZIeE25ExcEntryAllocationFailureE = weak_odr dso_local constant [56 x i8] c"N6dealii14SparseMatrixEZIeE25ExcEntryAllocationFailureE\00", comdat, align 1
@_ZTIN6dealii14SparseMatrixEZIeE25ExcEntryAllocationFailureE = weak_odr dso_local constant { ptr, ptr, ptr } { ptr getelementptr inbounds (ptr, ptr @_ZTVN10__cxxabiv120__si_class_type_infoE, i64 2), ptr @_ZTSN6dealii14SparseMatrixEZIeE25ExcEntryAllocationFailureE, ptr @_ZTIN6dealii13ExceptionBaseE }, comdat, align 8
@_ZTVN6dealii18StandardExceptions5ExcIOE = linkonce_odr dso_local unnamed_addr constant { [6 x ptr] } { [6 x ptr] [ptr null, ptr @_ZTIN6dealii18StandardExceptions5ExcIOE, ptr @_ZN6dealii13ExceptionBaseD2Ev, ptr @_ZN6dealii18StandardExceptions5ExcIOD0Ev, ptr @_ZNK6dealii13ExceptionBase4whatEv, ptr @_ZNK6dealii13ExceptionBase10print_infoERSo] }, comdat, align 8
@_ZTSN6dealii18StandardExceptions5ExcIOE = linkonce_odr dso_local constant [36 x i8] c"N6dealii18StandardExceptions5ExcIOE\00", comdat, align 1
@_ZTIN6dealii18StandardExceptions5ExcIOE = linkonce_odr dso_local constant { ptr, ptr, ptr } { ptr getelementptr inbounds (ptr, ptr @_ZTVN10__cxxabiv120__si_class_type_infoE, i64 2), ptr @_ZTSN6dealii18StandardExceptions5ExcIOE, ptr @_ZTIN6dealii13ExceptionBaseE }, comdat, align 8
@_ZTVN6dealii18StandardExceptions10ExcMessageE = linkonce_odr dso_local unnamed_addr constant { [6 x ptr] } { [6 x ptr] [ptr null, ptr @_ZTIN6dealii18StandardExceptions10ExcMessageE, ptr @_ZN6dealii13ExceptionBaseD2Ev, ptr @_ZN6dealii18StandardExceptions10ExcMessageD0Ev, ptr @_ZNK6dealii13ExceptionBase4whatEv, ptr @_ZNK6dealii18StandardExceptions10ExcMessage10print_infoERSo] }, comdat, align 8
@_ZTSN6dealii18StandardExceptions10ExcMessageE = linkonce_odr dso_local constant [42 x i8] c"N6dealii18StandardExceptions10ExcMessageE\00", comdat, align 1
@_ZTIN6dealii18StandardExceptions10ExcMessageE = linkonce_odr dso_local constant { ptr, ptr, ptr } { ptr getelementptr inbounds (ptr, ptr @_ZTVN10__cxxabiv120__si_class_type_infoE, i64 2), ptr @_ZTSN6dealii18StandardExceptions10ExcMessageE, ptr @_ZTIN6dealii13ExceptionBaseE }, comdat, align 8
@.str.14 = private unnamed_addr constant [23 x i8] c"vector::_M_fill_insert\00", align 1
@.str.16 = private unnamed_addr constant [26 x i8] c"vector::_M_realloc_insert\00", align 1

@_ZN6dealii14SparseMatrixEZIdE5EntryC1Ev = weak_odr dso_local unnamed_addr alias void (ptr), ptr @_ZN6dealii14SparseMatrixEZIdE5EntryC2Ev
@_ZN6dealii14SparseMatrixEZIdE5EntryC1EjRKd = weak_odr dso_local unnamed_addr alias void (ptr, i32, ptr), ptr @_ZN6dealii14SparseMatrixEZIdE5EntryC2EjRKd
@_ZN6dealii14SparseMatrixEZIdE7RowInfoC1Ej = weak_odr dso_local unnamed_addr alias void (ptr, i32), ptr @_ZN6dealii14SparseMatrixEZIdE7RowInfoC2Ej
@_ZN6dealii14SparseMatrixEZIdE14const_iterator8AccessorC1EPKS1_jt = weak_odr dso_local unnamed_addr alias void (ptr, ptr, i32, i16), ptr @_ZN6dealii14SparseMatrixEZIdE14const_iterator8AccessorC2EPKS1_jt
@_ZN6dealii14SparseMatrixEZIdE14const_iteratorC1EPKS1_jt = weak_odr dso_local unnamed_addr alias void (ptr, ptr, i32, i16), ptr @_ZN6dealii14SparseMatrixEZIdE14const_iteratorC2EPKS1_jt
@_ZN6dealii14SparseMatrixEZIdEC1Ev = weak_odr dso_local unnamed_addr alias void (ptr), ptr @_ZN6dealii14SparseMatrixEZIdEC2Ev
@_ZN6dealii14SparseMatrixEZIdEC1ERKS1_ = weak_odr dso_local unnamed_addr alias void (ptr, ptr), ptr @_ZN6dealii14SparseMatrixEZIdEC2ERKS1_
@_ZN6dealii14SparseMatrixEZIdEC1Ejjjj = weak_odr dso_local unnamed_addr alias void (ptr, i32, i32, i32, i32), ptr @_ZN6dealii14SparseMatrixEZIdEC2Ejjjj
@_ZN6dealii14SparseMatrixEZIdED1Ev = weak_odr dso_local unnamed_addr alias void (ptr), ptr @_ZN6dealii14SparseMatrixEZIdED2Ev
@_ZN6dealii14SparseMatrixEZIdE15ExcInvalidEntryC1Eii = weak_odr dso_local unnamed_addr alias void (ptr, i32, i32), ptr @_ZN6dealii14SparseMatrixEZIdE15ExcInvalidEntryC2Eii
@_ZN6dealii14SparseMatrixEZIdE15ExcInvalidEntryD1Ev = weak_odr dso_local unnamed_addr alias void (ptr), ptr @_ZN6dealii14SparseMatrixEZIdE15ExcInvalidEntryD2Ev
@_ZN6dealii14SparseMatrixEZIdE25ExcEntryAllocationFailureC1Eii = weak_odr dso_local unnamed_addr alias void (ptr, i32, i32), ptr @_ZN6dealii14SparseMatrixEZIdE25ExcEntryAllocationFailureC2Eii
@_ZN6dealii14SparseMatrixEZIdE25ExcEntryAllocationFailureD1Ev = weak_odr dso_local unnamed_addr alias void (ptr), ptr @_ZN6dealii14SparseMatrixEZIdE25ExcEntryAllocationFailureD2Ev
@_ZN6dealii14SparseMatrixEZIfE5EntryC1Ev = weak_odr dso_local unnamed_addr alias void (ptr), ptr @_ZN6dealii14SparseMatrixEZIfE5EntryC2Ev
@_ZN6dealii14SparseMatrixEZIfE5EntryC1EjRKf = weak_odr dso_local unnamed_addr alias void (ptr, i32, ptr), ptr @_ZN6dealii14SparseMatrixEZIfE5EntryC2EjRKf
@_ZN6dealii14SparseMatrixEZIfE7RowInfoC1Ej = weak_odr dso_local unnamed_addr alias void (ptr, i32), ptr @_ZN6dealii14SparseMatrixEZIfE7RowInfoC2Ej
@_ZN6dealii14SparseMatrixEZIfE14const_iterator8AccessorC1EPKS1_jt = weak_odr dso_local unnamed_addr alias void (ptr, ptr, i32, i16), ptr @_ZN6dealii14SparseMatrixEZIfE14const_iterator8AccessorC2EPKS1_jt
@_ZN6dealii14SparseMatrixEZIfE14const_iteratorC1EPKS1_jt = weak_odr dso_local unnamed_addr alias void (ptr, ptr, i32, i16), ptr @_ZN6dealii14SparseMatrixEZIfE14const_iteratorC2EPKS1_jt
@_ZN6dealii14SparseMatrixEZIfEC1Ev = weak_odr dso_local unnamed_addr alias void (ptr), ptr @_ZN6dealii14SparseMatrixEZIfEC2Ev
@_ZN6dealii14SparseMatrixEZIfEC1ERKS1_ = weak_odr dso_local unnamed_addr alias void (ptr, ptr), ptr @_ZN6dealii14SparseMatrixEZIfEC2ERKS1_
@_ZN6dealii14SparseMatrixEZIfEC1Ejjjj = weak_odr dso_local unnamed_addr alias void (ptr, i32, i32, i32, i32), ptr @_ZN6dealii14SparseMatrixEZIfEC2Ejjjj
@_ZN6dealii14SparseMatrixEZIfED1Ev = weak_odr dso_local unnamed_addr alias void (ptr), ptr @_ZN6dealii14SparseMatrixEZIfED2Ev
@_ZN6dealii14SparseMatrixEZIfE15ExcInvalidEntryC1Eii = weak_odr dso_local unnamed_addr alias void (ptr, i32, i32), ptr @_ZN6dealii14SparseMatrixEZIfE15ExcInvalidEntryC2Eii
@_ZN6dealii14SparseMatrixEZIfE15ExcInvalidEntryD1Ev = weak_odr dso_local unnamed_addr alias void (ptr), ptr @_ZN6dealii14SparseMatrixEZIfE15ExcInvalidEntryD2Ev
@_ZN6dealii14SparseMatrixEZIfE25ExcEntryAllocationFailureC1Eii = weak_odr dso_local unnamed_addr alias void (ptr, i32, i32), ptr @_ZN6dealii14SparseMatrixEZIfE25ExcEntryAllocationFailureC2Eii
@_ZN6dealii14SparseMatrixEZIfE25ExcEntryAllocationFailureD1Ev = weak_odr dso_local unnamed_addr alias void (ptr), ptr @_ZN6dealii14SparseMatrixEZIfE25ExcEntryAllocationFailureD2Ev
@_ZN6dealii14SparseMatrixEZIeE5EntryC1Ev = weak_odr dso_local unnamed_addr alias void (ptr), ptr @_ZN6dealii14SparseMatrixEZIeE5EntryC2Ev
@_ZN6dealii14SparseMatrixEZIeE5EntryC1EjRKe = weak_odr dso_local unnamed_addr alias void (ptr, i32, ptr), ptr @_ZN6dealii14SparseMatrixEZIeE5EntryC2EjRKe
@_ZN6dealii14SparseMatrixEZIeE7RowInfoC1Ej = weak_odr dso_local unnamed_addr alias void (ptr, i32), ptr @_ZN6dealii14SparseMatrixEZIeE7RowInfoC2Ej
@_ZN6dealii14SparseMatrixEZIeE14const_iterator8AccessorC1EPKS1_jt = weak_odr dso_local unnamed_addr alias void (ptr, ptr, i32, i16), ptr @_ZN6dealii14SparseMatrixEZIeE14const_iterator8AccessorC2EPKS1_jt
@_ZN6dealii14SparseMatrixEZIeE14const_iteratorC1EPKS1_jt = weak_odr dso_local unnamed_addr alias void (ptr, ptr, i32, i16), ptr @_ZN6dealii14SparseMatrixEZIeE14const_iteratorC2EPKS1_jt
@_ZN6dealii14SparseMatrixEZIeEC1Ev = weak_odr dso_local unnamed_addr alias void (ptr), ptr @_ZN6dealii14SparseMatrixEZIeEC2Ev
@_ZN6dealii14SparseMatrixEZIeEC1ERKS1_ = weak_odr dso_local unnamed_addr alias void (ptr, ptr), ptr @_ZN6dealii14SparseMatrixEZIeEC2ERKS1_
@_ZN6dealii14SparseMatrixEZIeEC1Ejjjj = weak_odr dso_local unnamed_addr alias void (ptr, i32, i32, i32, i32), ptr @_ZN6dealii14SparseMatrixEZIeEC2Ejjjj
@_ZN6dealii14SparseMatrixEZIeED1Ev = weak_odr dso_local unnamed_addr alias void (ptr), ptr @_ZN6dealii14SparseMatrixEZIeED2Ev
@_ZN6dealii14SparseMatrixEZIeE15ExcInvalidEntryC1Eii = weak_odr dso_local unnamed_addr alias void (ptr, i32, i32), ptr @_ZN6dealii14SparseMatrixEZIeE15ExcInvalidEntryC2Eii
@_ZN6dealii14SparseMatrixEZIeE15ExcInvalidEntryD1Ev = weak_odr dso_local unnamed_addr alias void (ptr), ptr @_ZN6dealii14SparseMatrixEZIeE15ExcInvalidEntryD2Ev
@_ZN6dealii14SparseMatrixEZIeE25ExcEntryAllocationFailureC1Eii = weak_odr dso_local unnamed_addr alias void (ptr, i32, i32), ptr @_ZN6dealii14SparseMatrixEZIeE25ExcEntryAllocationFailureC2Eii
@_ZN6dealii14SparseMatrixEZIeE25ExcEntryAllocationFailureD1Ev = weak_odr dso_local unnamed_addr alias void (ptr), ptr @_ZN6dealii14SparseMatrixEZIeE25ExcEntryAllocationFailureD2Ev

; Function Attrs: inlinehint nounwind sspstrong uwtable
define weak_odr dso_local void @_ZN6dealii14SparseMatrixEZIdE5EntryC2Ev(ptr noundef nonnull align 8 dereferenceable(16) %0) unnamed_addr #0 comdat($_ZN6dealii14SparseMatrixEZIdE5EntryC5Ev) align 2 {
  store i32 -1, ptr %0, align 8, !tbaa !5
  %2 = getelementptr inbounds %"struct.dealii::SparseMatrixEZ<double>::Entry", ptr %0, i64 0, i32 1
  store double 0.000000e+00, ptr %2, align 8, !tbaa !11
  ret void
}

; Function Attrs: inlinehint nounwind sspstrong uwtable
define weak_odr dso_local void @_ZN6dealii14SparseMatrixEZIdE5EntryC2EjRKd(ptr noundef nonnull align 8 dereferenceable(16) %0, i32 noundef %1, ptr noundef nonnull align 8 dereferenceable(8) %2) unnamed_addr #0 comdat($_ZN6dealii14SparseMatrixEZIdE5EntryC5EjRKd) align 2 {
  store i32 %1, ptr %0, align 8, !tbaa !5
  %4 = getelementptr inbounds %"struct.dealii::SparseMatrixEZ<double>::Entry", ptr %0, i64 0, i32 1
  %5 = load double, ptr %2, align 8, !tbaa !12
  store double %5, ptr %4, align 8, !tbaa !11
  ret void
}

; Function Attrs: inlinehint nounwind sspstrong uwtable
define weak_odr dso_local void @_ZN6dealii14SparseMatrixEZIdE7RowInfoC2Ej(ptr noundef nonnull align 4 dereferenceable(8) %0, i32 noundef %1) unnamed_addr #0 comdat($_ZN6dealii14SparseMatrixEZIdE7RowInfoC5Ej) align 2 {
  store i32 %1, ptr %0, align 4, !tbaa !13
  %3 = getelementptr inbounds %"struct.dealii::SparseMatrixEZ<double>::RowInfo", ptr %0, i64 0, i32 1
  store i16 0, ptr %3, align 4, !tbaa !16
  %4 = getelementptr inbounds %"struct.dealii::SparseMatrixEZ<double>::RowInfo", ptr %0, i64 0, i32 2
  store i16 -1, ptr %4, align 2, !tbaa !17
  ret void
}

; Function Attrs: inlinehint nounwind sspstrong uwtable
define weak_odr dso_local void @_ZN6dealii14SparseMatrixEZIdE14const_iterator8AccessorC2EPKS1_jt(ptr noundef nonnull align 8 dereferenceable(14) %0, ptr noundef %1, i32 noundef %2, i16 noundef zeroext %3) unnamed_addr #0 comdat($_ZN6dealii14SparseMatrixEZIdE14const_iterator8AccessorC5EPKS1_jt) align 2 {
  store ptr %1, ptr %0, align 8, !tbaa !18
  %5 = getelementptr inbounds %"class.dealii::SparseMatrixEZ<double>::const_iterator::Accessor", ptr %0, i64 0, i32 1
  store i32 %2, ptr %5, align 8, !tbaa !21
  %6 = getelementptr inbounds %"class.dealii::SparseMatrixEZ<double>::const_iterator::Accessor", ptr %0, i64 0, i32 2
  store i16 %3, ptr %6, align 4, !tbaa !22
  ret void
}

; Function Attrs: inlinehint nounwind sspstrong uwtable
define weak_odr dso_local noundef i32 @_ZNK6dealii14SparseMatrixEZIdE14const_iterator8Accessor3rowEv(ptr noundef nonnull align 8 dereferenceable(14) %0) local_unnamed_addr #0 comdat align 2 {
  %2 = getelementptr inbounds %"class.dealii::SparseMatrixEZ<double>::const_iterator::Accessor", ptr %0, i64 0, i32 1
  %3 = load i32, ptr %2, align 8, !tbaa !21
  ret i32 %3
}

; Function Attrs: inlinehint nounwind sspstrong uwtable
define weak_odr dso_local noundef zeroext i16 @_ZNK6dealii14SparseMatrixEZIdE14const_iterator8Accessor5indexEv(ptr noundef nonnull align 8 dereferenceable(14) %0) local_unnamed_addr #0 comdat align 2 {
  %2 = getelementptr inbounds %"class.dealii::SparseMatrixEZ<double>::const_iterator::Accessor", ptr %0, i64 0, i32 2
  %3 = load i16, ptr %2, align 4, !tbaa !22
  ret i16 %3
}

; Function Attrs: inlinehint sspstrong uwtable
define weak_odr dso_local noundef i32 @_ZNK6dealii14SparseMatrixEZIdE14const_iterator8Accessor6columnEv(ptr noundef nonnull align 8 dereferenceable(14) %0) local_unnamed_addr #1 comdat align 2 {
  %2 = load ptr, ptr %0, align 8, !tbaa !18
  %3 = getelementptr inbounds %"class.dealii::SparseMatrixEZ", ptr %2, i64 0, i32 4
  %4 = getelementptr inbounds %"class.dealii::SparseMatrixEZ", ptr %2, i64 0, i32 3
  %5 = getelementptr inbounds %"class.dealii::SparseMatrixEZ<double>::const_iterator::Accessor", ptr %0, i64 0, i32 1
  %6 = load i32, ptr %5, align 8, !tbaa !21
  %7 = zext i32 %6 to i64
  %8 = load ptr, ptr %4, align 8, !tbaa !23
  %9 = getelementptr inbounds %"struct.dealii::SparseMatrixEZ<double>::RowInfo", ptr %8, i64 %7
  %10 = load i32, ptr %9, align 4, !tbaa !13
  %11 = getelementptr inbounds %"class.dealii::SparseMatrixEZ<double>::const_iterator::Accessor", ptr %0, i64 0, i32 2
  %12 = load i16, ptr %11, align 4, !tbaa !22
  %13 = zext i16 %12 to i32
  %14 = add i32 %10, %13
  %15 = zext i32 %14 to i64
  %16 = load ptr, ptr %3, align 8, !tbaa !25
  %17 = getelementptr inbounds %"struct.dealii::SparseMatrixEZ<double>::Entry", ptr %16, i64 %15
  %18 = load i32, ptr %17, align 8, !tbaa !5
  ret i32 %18
}

; Function Attrs: inlinehint sspstrong uwtable
define weak_odr dso_local noundef double @_ZNK6dealii14SparseMatrixEZIdE14const_iterator8Accessor5valueEv(ptr noundef nonnull align 8 dereferenceable(14) %0) local_unnamed_addr #1 comdat align 2 {
  %2 = load ptr, ptr %0, align 8, !tbaa !18
  %3 = getelementptr inbounds %"class.dealii::SparseMatrixEZ", ptr %2, i64 0, i32 4
  %4 = getelementptr inbounds %"class.dealii::SparseMatrixEZ", ptr %2, i64 0, i32 3
  %5 = getelementptr inbounds %"class.dealii::SparseMatrixEZ<double>::const_iterator::Accessor", ptr %0, i64 0, i32 1
  %6 = load i32, ptr %5, align 8, !tbaa !21
  %7 = zext i32 %6 to i64
  %8 = load ptr, ptr %4, align 8, !tbaa !23
  %9 = getelementptr inbounds %"struct.dealii::SparseMatrixEZ<double>::RowInfo", ptr %8, i64 %7
  %10 = load i32, ptr %9, align 4, !tbaa !13
  %11 = getelementptr inbounds %"class.dealii::SparseMatrixEZ<double>::const_iterator::Accessor", ptr %0, i64 0, i32 2
  %12 = load i16, ptr %11, align 4, !tbaa !22
  %13 = zext i16 %12 to i32
  %14 = add i32 %10, %13
  %15 = zext i32 %14 to i64
  %16 = load ptr, ptr %3, align 8, !tbaa !25
  %17 = getelementptr inbounds %"struct.dealii::SparseMatrixEZ<double>::Entry", ptr %16, i64 %15, i32 1
  %18 = load double, ptr %17, align 8, !tbaa !11
  ret double %18
}

; Function Attrs: inlinehint sspstrong uwtable
define weak_odr dso_local void @_ZN6dealii14SparseMatrixEZIdE14const_iteratorC2EPKS1_jt(ptr noundef nonnull align 8 dereferenceable(16) %0, ptr noundef %1, i32 noundef %2, i16 noundef zeroext %3) unnamed_addr #1 comdat($_ZN6dealii14SparseMatrixEZIdE14const_iteratorC5EPKS1_jt) align 2 {
  store ptr %1, ptr %0, align 8, !tbaa !18
  %5 = getelementptr inbounds %"class.dealii::SparseMatrixEZ<double>::const_iterator::Accessor", ptr %0, i64 0, i32 1
  store i32 %2, ptr %5, align 8, !tbaa !21
  %6 = getelementptr inbounds %"class.dealii::SparseMatrixEZ<double>::const_iterator::Accessor", ptr %0, i64 0, i32 2
  store i16 %3, ptr %6, align 4, !tbaa !22
  %7 = getelementptr inbounds %"class.dealii::SparseMatrixEZ", ptr %1, i64 0, i32 3
  %8 = getelementptr inbounds %"class.dealii::SparseMatrixEZ", ptr %1, i64 0, i32 3, i32 0, i32 0, i32 0, i32 1
  %9 = load ptr, ptr %8, align 8, !tbaa !27
  %10 = load ptr, ptr %7, align 8, !tbaa !23
  %11 = ptrtoint ptr %9 to i64
  %12 = ptrtoint ptr %10 to i64
  %13 = sub i64 %11, %12
  %14 = lshr exact i64 %13, 3
  %15 = trunc i64 %14 to i32
  %16 = icmp eq i32 %15, %2
  %17 = icmp eq i16 %3, 0
  %18 = and i1 %17, %16
  br i1 %18, label %38, label %19

19:                                               ; preds = %4
  %20 = zext i32 %2 to i64
  %21 = getelementptr inbounds %"struct.dealii::SparseMatrixEZ<double>::RowInfo", ptr %10, i64 %20, i32 1
  %22 = load i16, ptr %21, align 4, !tbaa !16
  %23 = icmp ugt i16 %22, %3
  br i1 %23, label %38, label %24

24:                                               ; preds = %19
  %25 = add i32 %2, 1
  %26 = tail call i32 @llvm.umax.i32(i32 %25, i32 %15)
  br label %27

27:                                               ; preds = %24, %31
  %28 = phi i32 [ %2, %24 ], [ %29, %31 ]
  %29 = add i32 %28, 1
  %30 = icmp ult i32 %29, %15
  br i1 %30, label %31, label %36

31:                                               ; preds = %27
  %32 = zext i32 %29 to i64
  %33 = getelementptr inbounds %"struct.dealii::SparseMatrixEZ<double>::RowInfo", ptr %10, i64 %32, i32 1
  %34 = load i16, ptr %33, align 4, !tbaa !16
  %35 = icmp eq i16 %34, 0
  br i1 %35, label %27, label %36

36:                                               ; preds = %31, %27
  %37 = phi i32 [ %29, %31 ], [ %26, %27 ]
  store i32 %37, ptr %5, align 8, !tbaa !28
  br label %38

38:                                               ; preds = %36, %4, %19
  ret void
}

; Function Attrs: inlinehint sspstrong uwtable
define weak_odr dso_local noundef i32 @_ZNK6dealii14SparseMatrixEZIdE1mEv(ptr noundef nonnull align 8 dereferenceable(132) %0) local_unnamed_addr #1 comdat align 2 {
  %2 = getelementptr inbounds %"class.dealii::SparseMatrixEZ", ptr %0, i64 0, i32 3
  %3 = getelementptr inbounds %"class.dealii::SparseMatrixEZ", ptr %0, i64 0, i32 3, i32 0, i32 0, i32 0, i32 1
  %4 = load ptr, ptr %3, align 8, !tbaa !27
  %5 = load ptr, ptr %2, align 8, !tbaa !23
  %6 = ptrtoint ptr %4 to i64
  %7 = ptrtoint ptr %5 to i64
  %8 = sub i64 %6, %7
  %9 = lshr exact i64 %8, 3
  %10 = trunc i64 %9 to i32
  ret i32 %10
}

; Function Attrs: inlinehint sspstrong uwtable
define weak_odr dso_local noundef nonnull align 8 dereferenceable(16) ptr @_ZN6dealii14SparseMatrixEZIdE14const_iteratorppEv(ptr noundef nonnull align 8 dereferenceable(16) %0) local_unnamed_addr #1 comdat align 2 {
  %2 = getelementptr inbounds %"class.dealii::SparseMatrixEZ<double>::const_iterator::Accessor", ptr %0, i64 0, i32 2
  %3 = load i16, ptr %2, align 4, !tbaa !30
  %4 = add i16 %3, 1
  store i16 %4, ptr %2, align 4, !tbaa !30
  %5 = load ptr, ptr %0, align 8, !tbaa !31
  %6 = getelementptr inbounds %"class.dealii::SparseMatrixEZ", ptr %5, i64 0, i32 3
  %7 = getelementptr inbounds %"class.dealii::SparseMatrixEZ<double>::const_iterator::Accessor", ptr %0, i64 0, i32 1
  %8 = load i32, ptr %7, align 8, !tbaa !28
  %9 = zext i32 %8 to i64
  %10 = load ptr, ptr %6, align 8, !tbaa !23
  %11 = getelementptr inbounds %"struct.dealii::SparseMatrixEZ<double>::RowInfo", ptr %10, i64 %9, i32 1
  %12 = load i16, ptr %11, align 4, !tbaa !16
  %13 = icmp ult i16 %4, %12
  br i1 %13, label %35, label %14

14:                                               ; preds = %1
  store i16 0, ptr %2, align 4, !tbaa !30
  %15 = getelementptr inbounds %"class.dealii::SparseMatrixEZ", ptr %5, i64 0, i32 3, i32 0, i32 0, i32 0, i32 1
  %16 = load ptr, ptr %15, align 8, !tbaa !27
  %17 = ptrtoint ptr %16 to i64
  %18 = ptrtoint ptr %10 to i64
  %19 = sub i64 %17, %18
  %20 = lshr exact i64 %19, 3
  %21 = trunc i64 %20 to i32
  %22 = add i32 %8, 1
  %23 = tail call i32 @llvm.umax.i32(i32 %22, i32 %21)
  br label %24

24:                                               ; preds = %28, %14
  %25 = phi i32 [ %26, %28 ], [ %8, %14 ]
  %26 = add i32 %25, 1
  %27 = icmp ult i32 %26, %21
  br i1 %27, label %28, label %33

28:                                               ; preds = %24
  %29 = zext i32 %26 to i64
  %30 = getelementptr inbounds %"struct.dealii::SparseMatrixEZ<double>::RowInfo", ptr %10, i64 %29, i32 1
  %31 = load i16, ptr %30, align 4, !tbaa !16
  %32 = icmp eq i16 %31, 0
  br i1 %32, label %24, label %33

33:                                               ; preds = %28, %24
  %34 = phi i32 [ %26, %28 ], [ %23, %24 ]
  store i32 %34, ptr %7, align 8, !tbaa !28
  br label %35

35:                                               ; preds = %33, %1
  ret ptr %0
}

; Function Attrs: inlinehint nounwind sspstrong uwtable
define weak_odr dso_local noundef nonnull align 8 dereferenceable(14) ptr @_ZNK6dealii14SparseMatrixEZIdE14const_iteratordeEv(ptr noundef nonnull align 8 dereferenceable(16) %0) local_unnamed_addr #0 comdat align 2 {
  ret ptr %0
}

; Function Attrs: inlinehint nounwind sspstrong uwtable
define weak_odr dso_local noundef ptr @_ZNK6dealii14SparseMatrixEZIdE14const_iteratorptEv(ptr noundef nonnull align 8 dereferenceable(16) %0) local_unnamed_addr #0 comdat align 2 {
  ret ptr %0
}

; Function Attrs: inlinehint nounwind sspstrong uwtable
define weak_odr dso_local noundef zeroext i1 @_ZNK6dealii14SparseMatrixEZIdE14const_iteratoreqERKS2_(ptr noundef nonnull align 8 dereferenceable(16) %0, ptr noundef nonnull align 8 dereferenceable(16) %1) local_unnamed_addr #0 comdat align 2 {
  %3 = getelementptr inbounds %"class.dealii::SparseMatrixEZ<double>::const_iterator::Accessor", ptr %0, i64 0, i32 1
  %4 = load i32, ptr %3, align 8, !tbaa !21
  %5 = getelementptr inbounds %"class.dealii::SparseMatrixEZ<double>::const_iterator::Accessor", ptr %1, i64 0, i32 1
  %6 = load i32, ptr %5, align 8, !tbaa !21
  %7 = icmp eq i32 %4, %6
  %8 = getelementptr inbounds %"class.dealii::SparseMatrixEZ<double>::const_iterator::Accessor", ptr %0, i64 0, i32 2
  %9 = load i16, ptr %8, align 4
  %10 = getelementptr inbounds %"class.dealii::SparseMatrixEZ<double>::const_iterator::Accessor", ptr %1, i64 0, i32 2
  %11 = load i16, ptr %10, align 4
  %12 = icmp eq i16 %9, %11
  %13 = select i1 %7, i1 %12, i1 false
  ret i1 %13
}

; Function Attrs: inlinehint nounwind sspstrong uwtable
define weak_odr dso_local noundef zeroext i1 @_ZNK6dealii14SparseMatrixEZIdE14const_iteratorneERKS2_(ptr noundef nonnull align 8 dereferenceable(16) %0, ptr noundef nonnull align 8 dereferenceable(16) %1) local_unnamed_addr #0 comdat align 2 {
  %3 = getelementptr inbounds %"class.dealii::SparseMatrixEZ<double>::const_iterator::Accessor", ptr %0, i64 0, i32 1
  %4 = load i32, ptr %3, align 8, !tbaa !21
  %5 = getelementptr inbounds %"class.dealii::SparseMatrixEZ<double>::const_iterator::Accessor", ptr %1, i64 0, i32 1
  %6 = load i32, ptr %5, align 8, !tbaa !21
  %7 = icmp ne i32 %4, %6
  %8 = getelementptr inbounds %"class.dealii::SparseMatrixEZ<double>::const_iterator::Accessor", ptr %0, i64 0, i32 2
  %9 = load i16, ptr %8, align 4
  %10 = getelementptr inbounds %"class.dealii::SparseMatrixEZ<double>::const_iterator::Accessor", ptr %1, i64 0, i32 2
  %11 = load i16, ptr %10, align 4
  %12 = icmp ne i16 %9, %11
  %13 = select i1 %7, i1 true, i1 %12
  ret i1 %13
}

; Function Attrs: inlinehint nounwind sspstrong uwtable
define weak_odr dso_local noundef zeroext i1 @_ZNK6dealii14SparseMatrixEZIdE14const_iteratorltERKS2_(ptr noundef nonnull align 8 dereferenceable(16) %0, ptr noundef nonnull align 8 dereferenceable(16) %1) local_unnamed_addr #0 comdat align 2 {
  %3 = getelementptr inbounds %"class.dealii::SparseMatrixEZ<double>::const_iterator::Accessor", ptr %0, i64 0, i32 1
  %4 = load i32, ptr %3, align 8, !tbaa !21
  %5 = getelementptr inbounds %"class.dealii::SparseMatrixEZ<double>::const_iterator::Accessor", ptr %1, i64 0, i32 1
  %6 = load i32, ptr %5, align 8, !tbaa !21
  %7 = icmp ult i32 %4, %6
  br i1 %7, label %16, label %8

8:                                                ; preds = %2
  %9 = icmp eq i32 %4, %6
  br i1 %9, label %10, label %16

10:                                               ; preds = %8
  %11 = getelementptr inbounds %"class.dealii::SparseMatrixEZ<double>::const_iterator::Accessor", ptr %0, i64 0, i32 2
  %12 = load i16, ptr %11, align 4, !tbaa !22
  %13 = getelementptr inbounds %"class.dealii::SparseMatrixEZ<double>::const_iterator::Accessor", ptr %1, i64 0, i32 2
  %14 = load i16, ptr %13, align 4, !tbaa !22
  %15 = icmp ult i16 %12, %14
  br label %16

16:                                               ; preds = %8, %10, %2
  %17 = phi i1 [ true, %2 ], [ false, %8 ], [ %15, %10 ]
  ret i1 %17
}

; Function Attrs: sspstrong uwtable
define weak_odr dso_local void @_ZN6dealii14SparseMatrixEZIdEC2Ev(ptr noundef nonnull align 8 dereferenceable(132) %0) unnamed_addr #2 comdat($_ZN6dealii14SparseMatrixEZIdEC5Ev) align 2 personality ptr @__gxx_personality_v0 {
  tail call void @_ZN6dealii11SubscriptorC2Ev(ptr noundef nonnull align 8 dereferenceable(72) %0)
  store ptr getelementptr inbounds ({ [4 x ptr] }, ptr @_ZTVN6dealii14SparseMatrixEZIdEE, i64 0, inrange i32 0, i64 2), ptr %0, align 8, !tbaa !32
  %2 = getelementptr inbounds %"class.dealii::SparseMatrixEZ", ptr %0, i64 0, i32 3
  %3 = getelementptr inbounds %"class.dealii::SparseMatrixEZ", ptr %0, i64 0, i32 1
  store i32 0, ptr %3, align 8, !tbaa !34
  tail call void @llvm.memset.p0.i64(ptr noundef nonnull align 8 dereferenceable(48) %2, i8 0, i64 48, i1 false)
  ret void
}

declare void @_ZN6dealii11SubscriptorC2Ev(ptr noundef nonnull align 8 dereferenceable(72)) unnamed_addr #3

declare i32 @__gxx_personality_v0(...)

; Function Attrs: noinline noreturn nounwind sspstrong uwtable
define linkonce_odr hidden void @__clang_call_terminate(ptr noundef %0) local_unnamed_addr #4 comdat {
  %2 = tail call ptr @__cxa_begin_catch(ptr %0) #17
  tail call void @_ZSt9terminatev() #18
  unreachable
}

declare ptr @__cxa_begin_catch(ptr) local_unnamed_addr

declare void @_ZSt9terminatev() local_unnamed_addr

declare void @_ZN6dealii11SubscriptorD2Ev(ptr noundef nonnull align 8 dereferenceable(72)) unnamed_addr #3

; Function Attrs: sspstrong uwtable
define weak_odr dso_local void @_ZN6dealii14SparseMatrixEZIdEC2ERKS1_(ptr noundef nonnull align 8 dereferenceable(132) %0, ptr noundef nonnull align 8 dereferenceable(132) %1) unnamed_addr #2 comdat($_ZN6dealii14SparseMatrixEZIdEC5ERKS1_) align 2 personality ptr @__gxx_personality_v0 {
  tail call void @_ZN6dealii11SubscriptorC2ERKS0_(ptr noundef nonnull align 8 dereferenceable(72) %0, ptr noundef nonnull align 8 dereferenceable(72) %1)
  store ptr getelementptr inbounds ({ [4 x ptr] }, ptr @_ZTVN6dealii14SparseMatrixEZIdEE, i64 0, inrange i32 0, i64 2), ptr %0, align 8, !tbaa !32
  %3 = getelementptr inbounds %"class.dealii::SparseMatrixEZ", ptr %0, i64 0, i32 3
  tail call void @llvm.memset.p0.i64(ptr noundef nonnull align 8 dereferenceable(48) %3, i8 0, i64 48, i1 false)
  ret void
}

declare void @_ZN6dealii11SubscriptorC2ERKS0_(ptr noundef nonnull align 8 dereferenceable(72), ptr noundef nonnull align 8 dereferenceable(72)) unnamed_addr #3

; Function Attrs: sspstrong uwtable
define weak_odr dso_local void @_ZN6dealii14SparseMatrixEZIdEC2Ejjjj(ptr noundef nonnull align 8 dereferenceable(132) %0, i32 noundef %1, i32 noundef %2, i32 noundef %3, i32 noundef %4) unnamed_addr #2 comdat($_ZN6dealii14SparseMatrixEZIdEC5Ejjjj) align 2 personality ptr @__gxx_personality_v0 {
  tail call void @_ZN6dealii11SubscriptorC2Ev(ptr noundef nonnull align 8 dereferenceable(72) %0)
  store ptr getelementptr inbounds ({ [4 x ptr] }, ptr @_ZTVN6dealii14SparseMatrixEZIdEE, i64 0, inrange i32 0, i64 2), ptr %0, align 8, !tbaa !32
  %6 = getelementptr inbounds %"class.dealii::SparseMatrixEZ", ptr %0, i64 0, i32 3
  tail call void @llvm.memset.p0.i64(ptr noundef nonnull align 8 dereferenceable(48) %6, i8 0, i64 48, i1 false)
  invoke void @_ZN6dealii14SparseMatrixEZIdE6reinitEjjjjj(ptr noundef nonnull align 8 dereferenceable(132) %0, i32 noundef %1, i32 noundef %2, i32 noundef %3, i32 noundef %4, i32 noundef 0)
          to label %7 unwind label %8

7:                                                ; preds = %5
  ret void

8:                                                ; preds = %5
  %9 = landingpad { ptr, i32 }
          cleanup
  %10 = getelementptr inbounds %"class.dealii::SparseMatrixEZ", ptr %0, i64 0, i32 4
  %11 = load ptr, ptr %10, align 8, !tbaa !25
  %12 = icmp eq ptr %11, null
  br i1 %12, label %14, label %13

13:                                               ; preds = %8
  tail call void @_ZdlPv(ptr noundef nonnull %11) #19
  br label %14

14:                                               ; preds = %13, %8
  %15 = load ptr, ptr %6, align 8, !tbaa !23
  %16 = icmp eq ptr %15, null
  br i1 %16, label %18, label %17

17:                                               ; preds = %14
  tail call void @_ZdlPv(ptr noundef nonnull %15) #19
  br label %18

18:                                               ; preds = %17, %14
  invoke void @_ZN6dealii11SubscriptorD2Ev(ptr noundef nonnull align 8 dereferenceable(72) %0)
          to label %19 unwind label %20

19:                                               ; preds = %18
  resume { ptr, i32 } %9

20:                                               ; preds = %18
  %21 = landingpad { ptr, i32 }
          catch ptr null
  %22 = extractvalue { ptr, i32 } %21, 0
  tail call void @__clang_call_terminate(ptr %22) #18
  unreachable
}

; Function Attrs: sspstrong uwtable
define weak_odr dso_local void @_ZN6dealii14SparseMatrixEZIdE6reinitEjjjjj(ptr noundef nonnull align 8 dereferenceable(132) %0, i32 noundef %1, i32 noundef %2, i32 noundef %3, i32 noundef %4, i32 noundef %5) local_unnamed_addr #2 comdat align 2 personality ptr @__gxx_personality_v0 {
  %7 = alloca %"struct.dealii::SparseMatrixEZ<double>::Entry", align 8
  %8 = alloca %"struct.dealii::SparseMatrixEZ<double>::RowInfo", align 8
  %9 = getelementptr inbounds %"class.dealii::SparseMatrixEZ", ptr %0, i64 0, i32 1
  %10 = getelementptr inbounds %"class.dealii::SparseMatrixEZ", ptr %0, i64 0, i32 3
  %11 = getelementptr inbounds %"class.dealii::SparseMatrixEZ", ptr %0, i64 0, i32 3, i32 0, i32 0, i32 0, i32 1
  %12 = load ptr, ptr %11, align 8, !tbaa !52
  %13 = load ptr, ptr %10, align 8, !tbaa !23
  %14 = icmp eq ptr %12, %13
  br i1 %14, label %16, label %15

15:                                               ; preds = %6
  store ptr %13, ptr %11, align 8, !tbaa !27
  br label %16

16:                                               ; preds = %15, %6
  %17 = phi ptr [ %13, %15 ], [ %12, %6 ]
  %18 = getelementptr inbounds %"class.dealii::SparseMatrixEZ", ptr %0, i64 0, i32 4
  %19 = getelementptr inbounds %"class.dealii::SparseMatrixEZ", ptr %0, i64 0, i32 4, i32 0, i32 0, i32 0, i32 1
  %20 = load ptr, ptr %19, align 8, !tbaa !52
  %21 = load ptr, ptr %18, align 8, !tbaa !25
  %22 = icmp eq ptr %20, %21
  br i1 %22, label %24, label %23

23:                                               ; preds = %16
  store ptr %21, ptr %19, align 8, !tbaa !53
  br label %24

24:                                               ; preds = %16, %23
  %25 = getelementptr inbounds %"class.dealii::SparseMatrixEZ", ptr %0, i64 0, i32 5
  store i32 %4, ptr %25, align 8, !tbaa !54
  store i32 %2, ptr %9, align 8, !tbaa !34
  %26 = zext i32 %1 to i64
  call void @llvm.lifetime.start.p0(i64 8, ptr nonnull %8)
  store i64 -281470681743361, ptr %8, align 8
  %27 = ptrtoint ptr %17 to i64
  %28 = ptrtoint ptr %13 to i64
  %29 = sub i64 %27, %28
  %30 = ashr exact i64 %29, 3
  %31 = icmp ult i64 %30, %26
  br i1 %31, label %32, label %34

32:                                               ; preds = %24
  %33 = sub nsw i64 %26, %30
  call void @_ZNSt6vectorIN6dealii14SparseMatrixEZIdE7RowInfoESaIS3_EE14_M_fill_insertEN9__gnu_cxx17__normal_iteratorIPS3_S5_EEmRKS3_(ptr noundef nonnull align 8 dereferenceable(24) %10, ptr %17, i64 noundef %33, ptr noundef nonnull align 4 dereferenceable(8) %8)
  br label %40

34:                                               ; preds = %24
  %35 = icmp ugt i64 %30, %26
  br i1 %35, label %36, label %40

36:                                               ; preds = %34
  %37 = getelementptr inbounds %"struct.dealii::SparseMatrixEZ<double>::RowInfo", ptr %13, i64 %26
  %38 = icmp eq ptr %17, %37
  br i1 %38, label %40, label %39

39:                                               ; preds = %36
  store ptr %37, ptr %11, align 8, !tbaa !27
  br label %40

40:                                               ; preds = %32, %34, %36, %39
  call void @llvm.lifetime.end.p0(i64 8, ptr nonnull %8)
  %41 = icmp eq i32 %5, 0
  br i1 %41, label %42, label %45

42:                                               ; preds = %40
  %43 = load ptr, ptr %19, align 8, !tbaa !52
  %44 = load ptr, ptr %18, align 8, !tbaa !25
  br label %71

45:                                               ; preds = %40
  %46 = zext i32 %5 to i64
  %47 = getelementptr inbounds %"class.dealii::SparseMatrixEZ", ptr %0, i64 0, i32 4, i32 0, i32 0, i32 0, i32 2
  %48 = load ptr, ptr %47, align 8, !tbaa !55
  %49 = load ptr, ptr %18, align 8, !tbaa !25
  %50 = ptrtoint ptr %48 to i64
  %51 = ptrtoint ptr %49 to i64
  %52 = sub i64 %50, %51
  %53 = ashr exact i64 %52, 4
  %54 = icmp ult i64 %53, %46
  %55 = load ptr, ptr %19, align 8, !tbaa !52
  br i1 %54, label %56, label %71

56:                                               ; preds = %45
  %57 = ptrtoint ptr %55 to i64
  %58 = sub i64 %57, %51
  %59 = ashr exact i64 %58, 4
  %60 = shl nuw nsw i64 %46, 4
  %61 = call noalias noundef nonnull ptr @_Znwm(i64 noundef %60) #20
  %62 = icmp eq ptr %49, %55
  br i1 %62, label %65, label %63

63:                                               ; preds = %56
  %64 = and i64 %58, -16
  call void @llvm.memcpy.p0.p0.i64(ptr nonnull align 8 %61, ptr align 8 %49, i64 %64, i1 false)
  br label %65

65:                                               ; preds = %63, %56
  %66 = icmp eq ptr %49, null
  br i1 %66, label %68, label %67

67:                                               ; preds = %65
  call void @_ZdlPv(ptr noundef nonnull %49) #19
  br label %68

68:                                               ; preds = %67, %65
  store ptr %61, ptr %18, align 8, !tbaa !25
  %69 = getelementptr inbounds %"struct.dealii::SparseMatrixEZ<double>::Entry", ptr %61, i64 %59
  store ptr %69, ptr %19, align 8, !tbaa !53
  %70 = getelementptr inbounds %"struct.dealii::SparseMatrixEZ<double>::Entry", ptr %61, i64 %46
  store ptr %70, ptr %47, align 8, !tbaa !55
  br label %71

71:                                               ; preds = %42, %68, %45
  %72 = phi ptr [ %44, %42 ], [ %61, %68 ], [ %49, %45 ]
  %73 = phi ptr [ %43, %42 ], [ %69, %68 ], [ %55, %45 ]
  %74 = mul i32 %3, %1
  %75 = zext i32 %74 to i64
  call void @llvm.lifetime.start.p0(i64 16, ptr nonnull %7)
  store i32 -1, ptr %7, align 8
  %76 = getelementptr inbounds { i32, double }, ptr %7, i64 0, i32 1
  store double 0.000000e+00, ptr %76, align 8
  %77 = ptrtoint ptr %73 to i64
  %78 = ptrtoint ptr %72 to i64
  %79 = sub i64 %77, %78
  %80 = ashr exact i64 %79, 4
  %81 = icmp ult i64 %80, %75
  br i1 %81, label %82, label %84

82:                                               ; preds = %71
  %83 = sub nsw i64 %75, %80
  call void @_ZNSt6vectorIN6dealii14SparseMatrixEZIdE5EntryESaIS3_EE14_M_fill_insertEN9__gnu_cxx17__normal_iteratorIPS3_S5_EEmRKS3_(ptr noundef nonnull align 8 dereferenceable(24) %18, ptr %73, i64 noundef %83, ptr noundef nonnull align 8 dereferenceable(16) %7)
  br label %90

84:                                               ; preds = %71
  %85 = icmp ugt i64 %80, %75
  br i1 %85, label %86, label %90

86:                                               ; preds = %84
  %87 = getelementptr inbounds %"struct.dealii::SparseMatrixEZ<double>::Entry", ptr %72, i64 %75
  %88 = icmp eq ptr %73, %87
  br i1 %88, label %90, label %89

89:                                               ; preds = %86
  store ptr %87, ptr %19, align 8, !tbaa !53
  br label %90

90:                                               ; preds = %82, %84, %86, %89
  call void @llvm.lifetime.end.p0(i64 16, ptr nonnull %7)
  %91 = icmp eq i32 %1, 0
  br i1 %91, label %110, label %92

92:                                               ; preds = %90
  %93 = load ptr, ptr %10, align 8, !tbaa !23
  %94 = and i64 %26, 3
  %95 = icmp ult i32 %1, 4
  br i1 %95, label %98, label %96

96:                                               ; preds = %92
  %97 = and i64 %26, 4294967292
  br label %111

98:                                               ; preds = %111, %92
  %99 = phi i64 [ 0, %92 ], [ %129, %111 ]
  %100 = icmp eq i64 %94, 0
  br i1 %100, label %110, label %101

101:                                              ; preds = %98, %101
  %102 = phi i64 [ %107, %101 ], [ %99, %98 ]
  %103 = phi i64 [ %108, %101 ], [ 0, %98 ]
  %104 = trunc i64 %102 to i32
  %105 = mul i32 %104, %3
  %106 = getelementptr inbounds %"struct.dealii::SparseMatrixEZ<double>::RowInfo", ptr %93, i64 %102
  store i32 %105, ptr %106, align 4, !tbaa !13
  %107 = add nuw nsw i64 %102, 1
  %108 = add i64 %103, 1
  %109 = icmp eq i64 %108, %94
  br i1 %109, label %110, label %101, !llvm.loop !56

110:                                              ; preds = %98, %101, %90
  ret void

111:                                              ; preds = %111, %96
  %112 = phi i64 [ 0, %96 ], [ %129, %111 ]
  %113 = phi i64 [ 0, %96 ], [ %130, %111 ]
  %114 = trunc i64 %112 to i32
  %115 = mul i32 %114, %3
  %116 = getelementptr inbounds %"struct.dealii::SparseMatrixEZ<double>::RowInfo", ptr %93, i64 %112
  store i32 %115, ptr %116, align 4, !tbaa !13
  %117 = or i64 %112, 1
  %118 = trunc i64 %117 to i32
  %119 = mul i32 %118, %3
  %120 = getelementptr inbounds %"struct.dealii::SparseMatrixEZ<double>::RowInfo", ptr %93, i64 %117
  store i32 %119, ptr %120, align 4, !tbaa !13
  %121 = or i64 %112, 2
  %122 = trunc i64 %121 to i32
  %123 = mul i32 %122, %3
  %124 = getelementptr inbounds %"struct.dealii::SparseMatrixEZ<double>::RowInfo", ptr %93, i64 %121
  store i32 %123, ptr %124, align 4, !tbaa !13
  %125 = or i64 %112, 3
  %126 = trunc i64 %125 to i32
  %127 = mul i32 %126, %3
  %128 = getelementptr inbounds %"struct.dealii::SparseMatrixEZ<double>::RowInfo", ptr %93, i64 %125
  store i32 %127, ptr %128, align 4, !tbaa !13
  %129 = add nuw nsw i64 %112, 4
  %130 = add i64 %113, 4
  %131 = icmp eq i64 %130, %97
  br i1 %131, label %98, label %111
}

; Function Attrs: sspstrong uwtable
define weak_odr dso_local void @_ZN6dealii14SparseMatrixEZIdED2Ev(ptr noundef nonnull align 8 dereferenceable(132) %0) unnamed_addr #2 comdat($_ZN6dealii14SparseMatrixEZIdED5Ev) align 2 personality ptr @__gxx_personality_v0 {
  store ptr getelementptr inbounds ({ [4 x ptr] }, ptr @_ZTVN6dealii14SparseMatrixEZIdEE, i64 0, inrange i32 0, i64 2), ptr %0, align 8, !tbaa !32
  %2 = getelementptr inbounds %"class.dealii::SparseMatrixEZ", ptr %0, i64 0, i32 4
  %3 = load ptr, ptr %2, align 8, !tbaa !25
  %4 = icmp eq ptr %3, null
  br i1 %4, label %6, label %5

5:                                                ; preds = %1
  tail call void @_ZdlPv(ptr noundef nonnull %3) #19
  br label %6

6:                                                ; preds = %5, %1
  %7 = getelementptr inbounds %"class.dealii::SparseMatrixEZ", ptr %0, i64 0, i32 3
  %8 = load ptr, ptr %7, align 8, !tbaa !23
  %9 = icmp eq ptr %8, null
  br i1 %9, label %11, label %10

10:                                               ; preds = %6
  tail call void @_ZdlPv(ptr noundef nonnull %8) #19
  br label %11

11:                                               ; preds = %10, %6
  tail call void @_ZN6dealii11SubscriptorD2Ev(ptr noundef nonnull align 8 dereferenceable(72) %0)
  ret void
}

; Function Attrs: sspstrong uwtable
define weak_odr dso_local void @_ZN6dealii14SparseMatrixEZIdED0Ev(ptr noundef nonnull align 8 dereferenceable(132) %0) unnamed_addr #2 comdat($_ZN6dealii14SparseMatrixEZIdED5Ev) align 2 personality ptr @__gxx_personality_v0 {
  store ptr getelementptr inbounds ({ [4 x ptr] }, ptr @_ZTVN6dealii14SparseMatrixEZIdEE, i64 0, inrange i32 0, i64 2), ptr %0, align 8, !tbaa !32
  %2 = getelementptr inbounds %"class.dealii::SparseMatrixEZ", ptr %0, i64 0, i32 4
  %3 = load ptr, ptr %2, align 8, !tbaa !25
  %4 = icmp eq ptr %3, null
  br i1 %4, label %6, label %5

5:                                                ; preds = %1
  tail call void @_ZdlPv(ptr noundef nonnull %3) #19
  br label %6

6:                                                ; preds = %5, %1
  %7 = getelementptr inbounds %"class.dealii::SparseMatrixEZ", ptr %0, i64 0, i32 3
  %8 = load ptr, ptr %7, align 8, !tbaa !23
  %9 = icmp eq ptr %8, null
  br i1 %9, label %11, label %10

10:                                               ; preds = %6
  tail call void @_ZdlPv(ptr noundef nonnull %8) #19
  br label %11

11:                                               ; preds = %10, %6
  invoke void @_ZN6dealii11SubscriptorD2Ev(ptr noundef nonnull align 8 dereferenceable(72) %0)
          to label %12 unwind label %13

12:                                               ; preds = %11
  tail call void @_ZdlPv(ptr noundef nonnull %0) #19
  ret void

13:                                               ; preds = %11
  %14 = landingpad { ptr, i32 }
          cleanup
  tail call void @_ZdlPv(ptr noundef nonnull %0) #19
  resume { ptr, i32 } %14
}

; Function Attrs: nobuiltin nounwind
declare void @_ZdlPv(ptr noundef) local_unnamed_addr #5

; Function Attrs: nounwind sspstrong uwtable
define weak_odr dso_local noundef nonnull align 8 dereferenceable(132) ptr @_ZN6dealii14SparseMatrixEZIdEaSERKS1_(ptr noundef nonnull align 8 dereferenceable(132) %0, ptr noundef nonnull align 8 dereferenceable(132) %1) local_unnamed_addr #6 comdat align 2 {
  ret ptr %0
}

; Function Attrs: sspstrong uwtable
define weak_odr dso_local noundef nonnull align 8 dereferenceable(132) ptr @_ZN6dealii14SparseMatrixEZIdEaSEd(ptr noundef nonnull align 8 dereferenceable(132) %0, double noundef %1) local_unnamed_addr #2 comdat align 2 {
  %3 = getelementptr inbounds %"class.dealii::SparseMatrixEZ", ptr %0, i64 0, i32 4
  %4 = load ptr, ptr %3, align 8, !tbaa !52
  %5 = getelementptr inbounds %"class.dealii::SparseMatrixEZ", ptr %0, i64 0, i32 4, i32 0, i32 0, i32 0, i32 1
  %6 = load ptr, ptr %5, align 8, !tbaa !52
  %7 = icmp eq ptr %4, %6
  br i1 %7, label %13, label %8

8:                                                ; preds = %2, %8
  %9 = phi ptr [ %10, %8 ], [ %4, %2 ]
  %10 = getelementptr inbounds %"struct.dealii::SparseMatrixEZ<double>::Entry", ptr %9, i64 1
  %11 = getelementptr inbounds %"struct.dealii::SparseMatrixEZ<double>::Entry", ptr %9, i64 0, i32 1
  store double 0.000000e+00, ptr %11, align 8, !tbaa !11
  %12 = icmp eq ptr %10, %6
  br i1 %12, label %13, label %8

13:                                               ; preds = %8, %2
  ret ptr %0
}

; Function Attrs: mustprogress nocallback nofree nosync nounwind willreturn memory(argmem: readwrite)
declare void @llvm.lifetime.start.p0(i64 immarg, ptr nocapture) #7

; Function Attrs: mustprogress nocallback nofree nosync nounwind willreturn memory(argmem: readwrite)
declare void @llvm.lifetime.end.p0(i64 immarg, ptr nocapture) #7

; Function Attrs: sspstrong uwtable
define weak_odr dso_local void @_ZN6dealii14SparseMatrixEZIdE5clearEv(ptr noundef nonnull align 8 dereferenceable(132) %0) local_unnamed_addr #2 comdat align 2 {
  %2 = getelementptr inbounds %"class.dealii::SparseMatrixEZ", ptr %0, i64 0, i32 1
  store i32 0, ptr %2, align 8, !tbaa !34
  %3 = getelementptr inbounds %"class.dealii::SparseMatrixEZ", ptr %0, i64 0, i32 3
  %4 = getelementptr inbounds %"class.dealii::SparseMatrixEZ", ptr %0, i64 0, i32 3, i32 0, i32 0, i32 0, i32 1
  %5 = load ptr, ptr %4, align 8, !tbaa !52
  %6 = load ptr, ptr %3, align 8, !tbaa !23
  %7 = icmp eq ptr %5, %6
  br i1 %7, label %9, label %8

8:                                                ; preds = %1
  store ptr %6, ptr %4, align 8, !tbaa !27
  br label %9

9:                                                ; preds = %1, %8
  %10 = getelementptr inbounds %"class.dealii::SparseMatrixEZ", ptr %0, i64 0, i32 4
  %11 = getelementptr inbounds %"class.dealii::SparseMatrixEZ", ptr %0, i64 0, i32 4, i32 0, i32 0, i32 0, i32 1
  %12 = load ptr, ptr %11, align 8, !tbaa !52
  %13 = load ptr, ptr %10, align 8, !tbaa !25
  %14 = icmp eq ptr %12, %13
  br i1 %14, label %16, label %15

15:                                               ; preds = %9
  store ptr %13, ptr %11, align 8, !tbaa !53
  br label %16

16:                                               ; preds = %9, %15
  ret void
}

; Function Attrs: sspstrong uwtable
define weak_odr dso_local noundef zeroext i1 @_ZNK6dealii14SparseMatrixEZIdE5emptyEv(ptr noundef nonnull align 8 dereferenceable(132) %0) local_unnamed_addr #2 comdat align 2 {
  %2 = getelementptr inbounds %"class.dealii::SparseMatrixEZ", ptr %0, i64 0, i32 1
  %3 = load i32, ptr %2, align 8, !tbaa !34
  %4 = icmp eq i32 %3, 0
  %5 = getelementptr inbounds %"class.dealii::SparseMatrixEZ", ptr %0, i64 0, i32 3
  %6 = getelementptr inbounds %"class.dealii::SparseMatrixEZ", ptr %0, i64 0, i32 3, i32 0, i32 0, i32 0, i32 1
  %7 = load ptr, ptr %6, align 8
  %8 = load ptr, ptr %5, align 8
  %9 = icmp eq ptr %7, %8
  %10 = select i1 %4, i1 %9, i1 false
  ret i1 %10
}

; Function Attrs: inlinehint nounwind sspstrong uwtable
define weak_odr dso_local noundef i32 @_ZNK6dealii14SparseMatrixEZIdE1nEv(ptr noundef nonnull align 8 dereferenceable(132) %0) local_unnamed_addr #0 comdat align 2 {
  %2 = getelementptr inbounds %"class.dealii::SparseMatrixEZ", ptr %0, i64 0, i32 1
  %3 = load i32, ptr %2, align 8, !tbaa !34
  ret i32 %3
}

; Function Attrs: inlinehint sspstrong uwtable
define weak_odr dso_local void @_ZN6dealii14SparseMatrixEZIdE3setEjjd(ptr noundef nonnull align 8 dereferenceable(132) %0, i32 noundef %1, i32 noundef %2, double noundef %3) local_unnamed_addr #1 comdat align 2 {
  %5 = fcmp oeq double %3, 0.000000e+00
  br i1 %5, label %6, label %34

6:                                                ; preds = %4
  %7 = getelementptr inbounds %"class.dealii::SparseMatrixEZ", ptr %0, i64 0, i32 3
  %8 = zext i32 %1 to i64
  %9 = load ptr, ptr %7, align 8, !tbaa !23
  %10 = getelementptr inbounds %"struct.dealii::SparseMatrixEZ<double>::RowInfo", ptr %9, i64 %8
  %11 = load i32, ptr %10, align 4, !tbaa !13
  %12 = getelementptr inbounds %"struct.dealii::SparseMatrixEZ<double>::RowInfo", ptr %9, i64 %8, i32 1
  %13 = load i16, ptr %12, align 4, !tbaa !16
  %14 = zext i16 %13 to i32
  %15 = add i32 %11, %14
  %16 = icmp ult i32 %11, %15
  br i1 %16, label %17, label %37

17:                                               ; preds = %6
  %18 = getelementptr inbounds %"class.dealii::SparseMatrixEZ", ptr %0, i64 0, i32 4
  %19 = load ptr, ptr %18, align 8, !tbaa !25
  %20 = zext i32 %11 to i64
  br label %21

21:                                               ; preds = %26, %17
  %22 = phi i64 [ %20, %17 ], [ %28, %26 ]
  %23 = getelementptr inbounds %"struct.dealii::SparseMatrixEZ<double>::Entry", ptr %19, i64 %22
  %24 = load i32, ptr %23, align 8, !tbaa !5
  %25 = icmp eq i32 %24, %2
  br i1 %25, label %32, label %26

26:                                               ; preds = %21
  %27 = icmp eq i32 %24, -1
  %28 = add nuw nsw i64 %22, 1
  %29 = trunc i64 %28 to i32
  %30 = icmp eq i32 %15, %29
  %31 = select i1 %27, i1 true, i1 %30
  br i1 %31, label %37, label %21

32:                                               ; preds = %21
  %33 = getelementptr inbounds %"struct.dealii::SparseMatrixEZ<double>::Entry", ptr %19, i64 %22, i32 1
  store double 0.000000e+00, ptr %33, align 8, !tbaa !11
  br label %37

34:                                               ; preds = %4
  %35 = tail call noundef ptr @_ZN6dealii14SparseMatrixEZIdE8allocateEjj(ptr noundef nonnull align 8 dereferenceable(132) %0, i32 noundef %1, i32 noundef %2)
  %36 = getelementptr inbounds %"struct.dealii::SparseMatrixEZ<double>::Entry", ptr %35, i64 0, i32 1
  store double %3, ptr %36, align 8, !tbaa !11
  br label %37

37:                                               ; preds = %26, %6, %32, %34
  ret void
}

; Function Attrs: inlinehint sspstrong uwtable
define weak_odr dso_local noundef ptr @_ZN6dealii14SparseMatrixEZIdE6locateEjj(ptr noundef nonnull align 8 dereferenceable(132) %0, i32 noundef %1, i32 noundef %2) local_unnamed_addr #1 comdat align 2 {
  %4 = getelementptr inbounds %"class.dealii::SparseMatrixEZ", ptr %0, i64 0, i32 3
  %5 = zext i32 %1 to i64
  %6 = load ptr, ptr %4, align 8, !tbaa !23
  %7 = getelementptr inbounds %"struct.dealii::SparseMatrixEZ<double>::RowInfo", ptr %6, i64 %5
  %8 = load i32, ptr %7, align 4, !tbaa !13
  %9 = getelementptr inbounds %"struct.dealii::SparseMatrixEZ<double>::RowInfo", ptr %6, i64 %5, i32 1
  %10 = load i16, ptr %9, align 4, !tbaa !16
  %11 = zext i16 %10 to i32
  %12 = add i32 %8, %11
  %13 = icmp ult i32 %8, %12
  br i1 %13, label %14, label %29

14:                                               ; preds = %3
  %15 = getelementptr inbounds %"class.dealii::SparseMatrixEZ", ptr %0, i64 0, i32 4
  %16 = load ptr, ptr %15, align 8, !tbaa !25
  %17 = zext i32 %8 to i64
  br label %18

18:                                               ; preds = %23, %14
  %19 = phi i64 [ %17, %14 ], [ %25, %23 ]
  %20 = getelementptr inbounds %"struct.dealii::SparseMatrixEZ<double>::Entry", ptr %16, i64 %19
  %21 = load i32, ptr %20, align 8, !tbaa !5
  %22 = icmp eq i32 %21, %2
  br i1 %22, label %29, label %23

23:                                               ; preds = %18
  %24 = icmp eq i32 %21, -1
  %25 = add nuw nsw i64 %19, 1
  %26 = trunc i64 %25 to i32
  %27 = icmp eq i32 %12, %26
  %28 = select i1 %24, i1 true, i1 %27
  br i1 %28, label %29, label %18

29:                                               ; preds = %23, %18, %3
  %30 = phi ptr [ null, %3 ], [ %20, %18 ], [ null, %23 ]
  ret ptr %30
}

; Function Attrs: inlinehint sspstrong uwtable
define weak_odr dso_local noundef ptr @_ZN6dealii14SparseMatrixEZIdE8allocateEjj(ptr noundef nonnull align 8 dereferenceable(132) %0, i32 noundef %1, i32 noundef %2) local_unnamed_addr #1 comdat align 2 personality ptr @__gxx_personality_v0 {
  %4 = alloca %"struct.dealii::SparseMatrixEZ<double>::Entry", align 8
  %5 = alloca %"struct.dealii::SparseMatrixEZ<double>::Entry", align 8
  %6 = alloca %"struct.dealii::SparseMatrixEZ<double>::Entry", align 8
  %7 = getelementptr inbounds %"class.dealii::SparseMatrixEZ", ptr %0, i64 0, i32 3
  %8 = zext i32 %1 to i64
  %9 = load ptr, ptr %7, align 8, !tbaa !23
  %10 = getelementptr inbounds %"struct.dealii::SparseMatrixEZ<double>::RowInfo", ptr %9, i64 %8
  %11 = load i32, ptr %10, align 4, !tbaa !13
  %12 = getelementptr inbounds %"struct.dealii::SparseMatrixEZ<double>::RowInfo", ptr %9, i64 %8, i32 1
  %13 = load i16, ptr %12, align 4, !tbaa !16
  %14 = zext i16 %13 to i32
  %15 = add i32 %11, %14
  %16 = getelementptr inbounds %"struct.dealii::SparseMatrixEZ<double>::RowInfo", ptr %9, i64 %8, i32 2
  %17 = load i16, ptr %16, align 2, !tbaa !17
  %18 = zext i16 %17 to i32
  %19 = icmp eq i16 %17, -1
  %20 = icmp ult i32 %2, %1
  %21 = or i1 %20, %19
  %22 = select i1 %21, i32 0, i32 %18
  %23 = add i32 %22, %11
  %24 = icmp ult i32 %23, %15
  br i1 %24, label %25, label %40

25:                                               ; preds = %3
  %26 = getelementptr inbounds %"class.dealii::SparseMatrixEZ", ptr %0, i64 0, i32 4
  %27 = load ptr, ptr %26, align 8, !tbaa !25
  %28 = zext i32 %23 to i64
  br label %29

29:                                               ; preds = %25, %34
  %30 = phi i64 [ %28, %25 ], [ %35, %34 ]
  %31 = getelementptr inbounds %"struct.dealii::SparseMatrixEZ<double>::Entry", ptr %27, i64 %30
  %32 = load i32, ptr %31, align 8, !tbaa !5
  %33 = icmp ult i32 %32, %2
  br i1 %33, label %34, label %38

34:                                               ; preds = %29
  %35 = add nuw nsw i64 %30, 1
  %36 = trunc i64 %35 to i32
  %37 = icmp eq i32 %15, %36
  br i1 %37, label %50, label %29

38:                                               ; preds = %29
  %39 = trunc i64 %30 to i32
  br label %40

40:                                               ; preds = %38, %3
  %41 = phi i32 [ %23, %3 ], [ %39, %38 ]
  %42 = icmp eq i32 %41, %15
  br i1 %42, label %50, label %43

43:                                               ; preds = %40
  %44 = getelementptr inbounds %"class.dealii::SparseMatrixEZ", ptr %0, i64 0, i32 4
  %45 = zext i32 %41 to i64
  %46 = load ptr, ptr %44, align 8, !tbaa !25
  %47 = getelementptr inbounds %"struct.dealii::SparseMatrixEZ<double>::Entry", ptr %46, i64 %45
  %48 = load i32, ptr %47, align 8, !tbaa !5
  %49 = icmp eq i32 %48, %2
  br i1 %49, label %186, label %50

50:                                               ; preds = %34, %43, %40
  %51 = phi i1 [ false, %43 ], [ true, %40 ], [ true, %34 ]
  %52 = phi i32 [ %41, %43 ], [ %41, %40 ], [ %15, %34 ]
  %53 = getelementptr inbounds %"class.dealii::SparseMatrixEZ", ptr %0, i64 0, i32 3, i32 0, i32 0, i32 0, i32 1
  %54 = load ptr, ptr %53, align 8, !tbaa !27
  %55 = ptrtoint ptr %54 to i64
  %56 = ptrtoint ptr %9 to i64
  %57 = sub i64 %55, %56
  %58 = ashr exact i64 %57, 3
  %59 = add nsw i64 %58, -1
  %60 = icmp eq i64 %59, %8
  br i1 %60, label %94, label %61

61:                                               ; preds = %50
  %62 = add i32 %1, 1
  %63 = zext i32 %62 to i64
  %64 = getelementptr inbounds %"struct.dealii::SparseMatrixEZ<double>::RowInfo", ptr %9, i64 %63
  %65 = load i32, ptr %64, align 4, !tbaa !13
  %66 = icmp ult i32 %15, %65
  br i1 %66, label %145, label %67

67:                                               ; preds = %61
  %68 = getelementptr inbounds %"class.dealii::SparseMatrixEZ", ptr %0, i64 0, i32 4
  %69 = load ptr, ptr %68, align 8, !tbaa !52
  %70 = zext i32 %15 to i64
  %71 = getelementptr inbounds %"struct.dealii::SparseMatrixEZ<double>::Entry", ptr %69, i64 %70
  %72 = getelementptr inbounds %"class.dealii::SparseMatrixEZ", ptr %0, i64 0, i32 5
  %73 = load i32, ptr %72, align 8, !tbaa !54
  %74 = zext i32 %73 to i64
  call void @llvm.lifetime.start.p0(i64 16, ptr nonnull %5) #17
  store i32 -1, ptr %5, align 8, !tbaa !5
  %75 = getelementptr inbounds %"struct.dealii::SparseMatrixEZ<double>::Entry", ptr %5, i64 0, i32 1
  store double 0.000000e+00, ptr %75, align 8, !tbaa !11
  call void @_ZNSt6vectorIN6dealii14SparseMatrixEZIdE5EntryESaIS3_EE14_M_fill_insertEN9__gnu_cxx17__normal_iteratorIPS3_S5_EEmRKS3_(ptr noundef nonnull align 8 dereferenceable(24) %68, ptr %71, i64 noundef %74, ptr noundef nonnull align 8 dereferenceable(16) %5)
  call void @llvm.lifetime.end.p0(i64 16, ptr nonnull %5) #17
  %76 = load ptr, ptr %53, align 8, !tbaa !27
  %77 = load ptr, ptr %7, align 8, !tbaa !23
  %78 = ptrtoint ptr %76 to i64
  %79 = ptrtoint ptr %77 to i64
  %80 = sub i64 %78, %79
  %81 = ashr exact i64 %80, 3
  %82 = icmp ugt i64 %81, %63
  br i1 %82, label %83, label %145

83:                                               ; preds = %67
  %84 = load i32, ptr %72, align 8, !tbaa !54
  br label %85

85:                                               ; preds = %83, %85
  %86 = phi i64 [ %63, %83 ], [ %92, %85 ]
  %87 = phi i32 [ %62, %83 ], [ %91, %85 ]
  %88 = getelementptr inbounds %"struct.dealii::SparseMatrixEZ<double>::RowInfo", ptr %77, i64 %86
  %89 = load i32, ptr %88, align 4, !tbaa !13
  %90 = add i32 %89, %84
  store i32 %90, ptr %88, align 4, !tbaa !13
  %91 = add i32 %87, 1
  %92 = zext i32 %91 to i64
  %93 = icmp ugt i64 %81, %92
  br i1 %93, label %85, label %145

94:                                               ; preds = %50
  %95 = zext i32 %15 to i64
  %96 = getelementptr inbounds %"class.dealii::SparseMatrixEZ", ptr %0, i64 0, i32 4
  %97 = getelementptr inbounds %"class.dealii::SparseMatrixEZ", ptr %0, i64 0, i32 4, i32 0, i32 0, i32 0, i32 1
  %98 = load ptr, ptr %97, align 8, !tbaa !52
  %99 = load ptr, ptr %96, align 8, !tbaa !52
  %100 = ptrtoint ptr %98 to i64
  %101 = ptrtoint ptr %99 to i64
  %102 = sub i64 %100, %101
  %103 = ashr exact i64 %102, 4
  %104 = icmp ugt i64 %103, %95
  br i1 %104, label %145, label %105

105:                                              ; preds = %94
  %106 = getelementptr inbounds %"class.dealii::SparseMatrixEZ", ptr %0, i64 0, i32 4, i32 0, i32 0, i32 0, i32 2
  %107 = load ptr, ptr %106, align 8, !tbaa !55
  %108 = icmp eq ptr %98, %107
  br i1 %108, label %113, label %109

109:                                              ; preds = %105
  store i32 -1, ptr %98, align 8, !tbaa.struct !58
  %110 = getelementptr inbounds i8, ptr %98, i64 8
  store double 0.000000e+00, ptr %110, align 8, !tbaa.struct !60
  %111 = load ptr, ptr %97, align 8, !tbaa !53
  %112 = getelementptr inbounds %"struct.dealii::SparseMatrixEZ<double>::Entry", ptr %111, i64 1
  store ptr %112, ptr %97, align 8, !tbaa !53
  br label %145

113:                                              ; preds = %105
  %114 = icmp eq i64 %102, 9223372036854775792
  br i1 %114, label %115, label %116

115:                                              ; preds = %113
  tail call void @_ZSt20__throw_length_errorPKc(ptr noundef nonnull @.str.16) #21
  unreachable

116:                                              ; preds = %113
  %117 = tail call i64 @llvm.umax.i64(i64 %103, i64 1)
  %118 = add i64 %117, %103
  %119 = icmp ult i64 %118, %103
  %120 = icmp ugt i64 %118, 576460752303423487
  %121 = or i1 %119, %120
  %122 = select i1 %121, i64 576460752303423487, i64 %118
  %123 = icmp eq i64 %122, 0
  br i1 %123, label %127, label %124

124:                                              ; preds = %116
  %125 = shl nuw nsw i64 %122, 4
  %126 = tail call noalias noundef nonnull ptr @_Znwm(i64 noundef %125) #20
  br label %127

127:                                              ; preds = %124, %116
  %128 = phi ptr [ %126, %124 ], [ null, %116 ]
  %129 = getelementptr inbounds %"struct.dealii::SparseMatrixEZ<double>::Entry", ptr %128, i64 %103
  store i32 -1, ptr %129, align 8, !tbaa.struct !58
  %130 = getelementptr inbounds i8, ptr %129, i64 8
  store double 0.000000e+00, ptr %130, align 8, !tbaa.struct !60
  %131 = icmp eq ptr %99, %98
  br i1 %131, label %138, label %132

132:                                              ; preds = %127, %132
  %133 = phi ptr [ %136, %132 ], [ %128, %127 ]
  %134 = phi ptr [ %135, %132 ], [ %99, %127 ]
  tail call void @llvm.memcpy.p0.p0.i64(ptr noundef nonnull align 8 dereferenceable(16) %133, ptr noundef nonnull align 8 dereferenceable(16) %134, i64 16, i1 false), !tbaa.struct !58
  %135 = getelementptr inbounds %"struct.dealii::SparseMatrixEZ<double>::Entry", ptr %134, i64 1
  %136 = getelementptr inbounds %"struct.dealii::SparseMatrixEZ<double>::Entry", ptr %133, i64 1
  %137 = icmp eq ptr %135, %98
  br i1 %137, label %138, label %132

138:                                              ; preds = %132, %127
  %139 = phi ptr [ %128, %127 ], [ %136, %132 ]
  %140 = getelementptr %"struct.dealii::SparseMatrixEZ<double>::Entry", ptr %139, i64 1
  %141 = icmp eq ptr %99, null
  br i1 %141, label %143, label %142

142:                                              ; preds = %138
  tail call void @_ZdlPv(ptr noundef nonnull %99) #19
  br label %143

143:                                              ; preds = %142, %138
  store ptr %128, ptr %96, align 8, !tbaa !25
  store ptr %140, ptr %97, align 8, !tbaa !53
  %144 = getelementptr inbounds %"struct.dealii::SparseMatrixEZ<double>::Entry", ptr %128, i64 %122
  store ptr %144, ptr %106, align 8, !tbaa !55
  br label %145

145:                                              ; preds = %85, %67, %143, %109, %94, %61
  %146 = getelementptr inbounds %"class.dealii::SparseMatrixEZ", ptr %0, i64 0, i32 4
  %147 = zext i32 %52 to i64
  %148 = load ptr, ptr %146, align 8, !tbaa !25
  %149 = getelementptr inbounds %"struct.dealii::SparseMatrixEZ<double>::Entry", ptr %148, i64 %147
  call void @llvm.lifetime.start.p0(i64 16, ptr nonnull %6)
  call void @llvm.memcpy.p0.p0.i64(ptr noundef nonnull align 8 dereferenceable(16) %6, ptr noundef nonnull align 8 dereferenceable(16) %149, i64 16, i1 false), !tbaa.struct !58
  store i32 %2, ptr %149, align 8, !tbaa !5
  %150 = getelementptr inbounds %"struct.dealii::SparseMatrixEZ<double>::Entry", ptr %148, i64 %147, i32 1
  store double 0.000000e+00, ptr %150, align 8, !tbaa !11
  %151 = load i16, ptr %12, align 4, !tbaa !16
  %152 = add i16 %151, 1
  store i16 %152, ptr %12, align 4, !tbaa !16
  %153 = icmp eq i32 %2, %1
  br i1 %153, label %154, label %158

154:                                              ; preds = %145
  %155 = load i32, ptr %10, align 4, !tbaa !13
  %156 = sub i32 %52, %155
  %157 = trunc i32 %156 to i16
  br label %164

158:                                              ; preds = %145
  br i1 %20, label %159, label %166

159:                                              ; preds = %158
  %160 = load i16, ptr %16, align 2, !tbaa !17
  %161 = icmp eq i16 %160, -1
  br i1 %161, label %166, label %162

162:                                              ; preds = %159
  %163 = add nuw i16 %160, 1
  br label %164

164:                                              ; preds = %154, %162
  %165 = phi i16 [ %163, %162 ], [ %157, %154 ]
  store i16 %165, ptr %16, align 2, !tbaa !17
  br label %166

166:                                              ; preds = %164, %158, %159
  br i1 %51, label %185, label %167

167:                                              ; preds = %166
  %168 = add i32 %52, 1
  %169 = icmp ult i32 %168, %15
  br i1 %169, label %170, label %174

170:                                              ; preds = %167
  %171 = zext i32 %168 to i64
  br label %178

172:                                              ; preds = %178
  %173 = load ptr, ptr %146, align 8, !tbaa !25
  br label %174

174:                                              ; preds = %172, %167
  %175 = phi ptr [ %173, %172 ], [ %148, %167 ]
  %176 = zext i32 %15 to i64
  %177 = getelementptr inbounds %"struct.dealii::SparseMatrixEZ<double>::Entry", ptr %175, i64 %176
  call void @llvm.memcpy.p0.p0.i64(ptr noundef nonnull align 8 dereferenceable(16) %177, ptr noundef nonnull align 8 dereferenceable(16) %6, i64 16, i1 false), !tbaa.struct !58
  br label %185

178:                                              ; preds = %170, %178
  %179 = phi i64 [ %171, %170 ], [ %182, %178 ]
  %180 = load ptr, ptr %146, align 8, !tbaa !25
  %181 = getelementptr inbounds %"struct.dealii::SparseMatrixEZ<double>::Entry", ptr %180, i64 %179
  call void @llvm.lifetime.start.p0(i64 16, ptr nonnull %4)
  call void @llvm.memcpy.p0.p0.i64(ptr noundef nonnull align 8 dereferenceable(16) %4, ptr noundef nonnull align 8 dereferenceable(16) %181, i64 16, i1 false), !tbaa.struct !58
  call void @llvm.memcpy.p0.p0.i64(ptr noundef nonnull align 8 dereferenceable(16) %181, ptr noundef nonnull align 8 dereferenceable(16) %6, i64 16, i1 false), !tbaa.struct !58
  call void @llvm.memcpy.p0.p0.i64(ptr noundef nonnull align 8 dereferenceable(16) %6, ptr noundef nonnull align 8 dereferenceable(16) %4, i64 16, i1 false), !tbaa.struct !58
  call void @llvm.lifetime.end.p0(i64 16, ptr nonnull %4)
  %182 = add nuw nsw i64 %179, 1
  %183 = trunc i64 %182 to i32
  %184 = icmp eq i32 %15, %183
  br i1 %184, label %172, label %178

185:                                              ; preds = %166, %174
  call void @llvm.lifetime.end.p0(i64 16, ptr nonnull %6)
  br label %186

186:                                              ; preds = %43, %185
  %187 = phi ptr [ %149, %185 ], [ %47, %43 ]
  ret ptr %187
}

; Function Attrs: inlinehint sspstrong uwtable
define weak_odr dso_local void @_ZN6dealii14SparseMatrixEZIdE3addEjjd(ptr noundef nonnull align 8 dereferenceable(132) %0, i32 noundef %1, i32 noundef %2, double noundef %3) local_unnamed_addr #1 comdat align 2 {
  %5 = fcmp oeq double %3, 0.000000e+00
  br i1 %5, label %11, label %6

6:                                                ; preds = %4
  %7 = tail call noundef ptr @_ZN6dealii14SparseMatrixEZIdE8allocateEjj(ptr noundef nonnull align 8 dereferenceable(132) %0, i32 noundef %1, i32 noundef %2)
  %8 = getelementptr inbounds %"struct.dealii::SparseMatrixEZ<double>::Entry", ptr %7, i64 0, i32 1
  %9 = load double, ptr %8, align 8, !tbaa !11
  %10 = fadd double %9, %3
  store double %10, ptr %8, align 8, !tbaa !11
  br label %11

11:                                               ; preds = %4, %6
  ret void
}

; Function Attrs: inlinehint sspstrong uwtable
define weak_odr dso_local noundef double @_ZNK6dealii14SparseMatrixEZIdEclEjj(ptr noundef nonnull align 8 dereferenceable(132) %0, i32 noundef %1, i32 noundef %2) local_unnamed_addr #1 comdat align 2 {
  %4 = getelementptr inbounds %"class.dealii::SparseMatrixEZ", ptr %0, i64 0, i32 3
  %5 = zext i32 %1 to i64
  %6 = load ptr, ptr %4, align 8, !tbaa !23
  %7 = getelementptr inbounds %"struct.dealii::SparseMatrixEZ<double>::RowInfo", ptr %6, i64 %5
  %8 = load i32, ptr %7, align 4, !tbaa !13
  %9 = getelementptr inbounds %"struct.dealii::SparseMatrixEZ<double>::RowInfo", ptr %6, i64 %5, i32 1
  %10 = load i16, ptr %9, align 4, !tbaa !16
  %11 = zext i16 %10 to i32
  %12 = add i32 %8, %11
  %13 = icmp ult i32 %8, %12
  br i1 %13, label %14, label %32

14:                                               ; preds = %3
  %15 = getelementptr inbounds %"class.dealii::SparseMatrixEZ", ptr %0, i64 0, i32 4
  %16 = load ptr, ptr %15, align 8, !tbaa !25
  %17 = zext i32 %8 to i64
  br label %18

18:                                               ; preds = %23, %14
  %19 = phi i64 [ %17, %14 ], [ %25, %23 ]
  %20 = getelementptr inbounds %"struct.dealii::SparseMatrixEZ<double>::Entry", ptr %16, i64 %19
  %21 = load i32, ptr %20, align 8, !tbaa !5
  %22 = icmp eq i32 %21, %2
  br i1 %22, label %29, label %23

23:                                               ; preds = %18
  %24 = icmp eq i32 %21, -1
  %25 = add nuw nsw i64 %19, 1
  %26 = trunc i64 %25 to i32
  %27 = icmp eq i32 %12, %26
  %28 = select i1 %24, i1 true, i1 %27
  br i1 %28, label %32, label %18

29:                                               ; preds = %18
  %30 = getelementptr inbounds %"struct.dealii::SparseMatrixEZ<double>::Entry", ptr %16, i64 %19, i32 1
  %31 = load double, ptr %30, align 8, !tbaa !11
  br label %32

32:                                               ; preds = %23, %3, %29
  %33 = phi double [ %31, %29 ], [ 0.000000e+00, %3 ], [ 0.000000e+00, %23 ]
  ret double %33
}

; Function Attrs: inlinehint sspstrong uwtable
define weak_odr dso_local noundef ptr @_ZNK6dealii14SparseMatrixEZIdE6locateEjj(ptr noundef nonnull align 8 dereferenceable(132) %0, i32 noundef %1, i32 noundef %2) local_unnamed_addr #1 comdat align 2 {
  %4 = getelementptr inbounds %"class.dealii::SparseMatrixEZ", ptr %0, i64 0, i32 3
  %5 = zext i32 %1 to i64
  %6 = load ptr, ptr %4, align 8, !tbaa !23
  %7 = getelementptr inbounds %"struct.dealii::SparseMatrixEZ<double>::RowInfo", ptr %6, i64 %5
  %8 = load i32, ptr %7, align 4, !tbaa !13
  %9 = getelementptr inbounds %"struct.dealii::SparseMatrixEZ<double>::RowInfo", ptr %6, i64 %5, i32 1
  %10 = load i16, ptr %9, align 4, !tbaa !16
  %11 = zext i16 %10 to i32
  %12 = add i32 %8, %11
  %13 = icmp ult i32 %8, %12
  br i1 %13, label %14, label %29

14:                                               ; preds = %3
  %15 = getelementptr inbounds %"class.dealii::SparseMatrixEZ", ptr %0, i64 0, i32 4
  %16 = load ptr, ptr %15, align 8, !tbaa !25
  %17 = zext i32 %8 to i64
  br label %18

18:                                               ; preds = %23, %14
  %19 = phi i64 [ %17, %14 ], [ %25, %23 ]
  %20 = getelementptr inbounds %"struct.dealii::SparseMatrixEZ<double>::Entry", ptr %16, i64 %19
  %21 = load i32, ptr %20, align 8, !tbaa !5
  %22 = icmp eq i32 %21, %2
  br i1 %22, label %29, label %23

23:                                               ; preds = %18
  %24 = icmp eq i32 %21, -1
  %25 = add nuw nsw i64 %19, 1
  %26 = trunc i64 %25 to i32
  %27 = icmp eq i32 %12, %26
  %28 = select i1 %24, i1 true, i1 %27
  br i1 %28, label %29, label %18

29:                                               ; preds = %18, %23, %3
  %30 = phi ptr [ null, %3 ], [ null, %23 ], [ %20, %18 ]
  ret ptr %30
}

; Function Attrs: inlinehint sspstrong uwtable
define weak_odr dso_local noundef double @_ZNK6dealii14SparseMatrixEZIdE2elEjj(ptr noundef nonnull align 8 dereferenceable(132) %0, i32 noundef %1, i32 noundef %2) local_unnamed_addr #1 comdat align 2 {
  %4 = getelementptr inbounds %"class.dealii::SparseMatrixEZ", ptr %0, i64 0, i32 3
  %5 = zext i32 %1 to i64
  %6 = load ptr, ptr %4, align 8, !tbaa !23
  %7 = getelementptr inbounds %"struct.dealii::SparseMatrixEZ<double>::RowInfo", ptr %6, i64 %5
  %8 = load i32, ptr %7, align 4, !tbaa !13
  %9 = getelementptr inbounds %"struct.dealii::SparseMatrixEZ<double>::RowInfo", ptr %6, i64 %5, i32 1
  %10 = load i16, ptr %9, align 4, !tbaa !16
  %11 = zext i16 %10 to i32
  %12 = add i32 %8, %11
  %13 = icmp ult i32 %8, %12
  br i1 %13, label %14, label %32

14:                                               ; preds = %3
  %15 = getelementptr inbounds %"class.dealii::SparseMatrixEZ", ptr %0, i64 0, i32 4
  %16 = load ptr, ptr %15, align 8, !tbaa !25
  %17 = zext i32 %8 to i64
  br label %18

18:                                               ; preds = %23, %14
  %19 = phi i64 [ %17, %14 ], [ %25, %23 ]
  %20 = getelementptr inbounds %"struct.dealii::SparseMatrixEZ<double>::Entry", ptr %16, i64 %19
  %21 = load i32, ptr %20, align 8, !tbaa !5
  %22 = icmp eq i32 %21, %2
  br i1 %22, label %29, label %23

23:                                               ; preds = %18
  %24 = icmp eq i32 %21, -1
  %25 = add nuw nsw i64 %19, 1
  %26 = trunc i64 %25 to i32
  %27 = icmp eq i32 %12, %26
  %28 = select i1 %24, i1 true, i1 %27
  br i1 %28, label %32, label %18

29:                                               ; preds = %18
  %30 = getelementptr inbounds %"struct.dealii::SparseMatrixEZ<double>::Entry", ptr %16, i64 %19, i32 1
  %31 = load double, ptr %30, align 8, !tbaa !11
  br label %32

32:                                               ; preds = %23, %3, %29
  %33 = phi double [ %31, %29 ], [ 0.000000e+00, %3 ], [ 0.000000e+00, %23 ]
  ret double %33
}

; Function Attrs: sspstrong uwtable
define weak_odr dso_local noundef double @_ZNK6dealii14SparseMatrixEZIdE7l2_normEv(ptr noundef nonnull align 8 dereferenceable(132) %0) local_unnamed_addr #2 comdat align 2 {
  %2 = getelementptr inbounds %"class.dealii::SparseMatrixEZ", ptr %0, i64 0, i32 3
  %3 = getelementptr inbounds %"class.dealii::SparseMatrixEZ", ptr %0, i64 0, i32 3, i32 0, i32 0, i32 0, i32 1
  %4 = load ptr, ptr %3, align 8, !tbaa !27
  %5 = load ptr, ptr %2, align 8, !tbaa !23
  %6 = ptrtoint ptr %4 to i64
  %7 = ptrtoint ptr %5 to i64
  %8 = sub i64 %6, %7
  %9 = lshr exact i64 %8, 3
  %10 = and i64 %8, 34359738360
  %11 = icmp eq i64 %10, 0
  br i1 %11, label %27, label %12

12:                                               ; preds = %1
  %13 = getelementptr inbounds %"struct.dealii::SparseMatrixEZ<double>::RowInfo", ptr %5, i64 0, i32 1
  %14 = load i16, ptr %13, align 4, !tbaa !16
  %15 = icmp eq i16 %14, 0
  br i1 %15, label %16, label %27

16:                                               ; preds = %12
  %17 = add nuw nsw i64 %9, 4294967295
  %18 = and i64 %17, 4294967295
  br label %19

19:                                               ; preds = %22, %16
  %20 = phi i64 [ %23, %22 ], [ 0, %16 ]
  %21 = icmp eq i64 %20, %18
  br i1 %21, label %27, label %22

22:                                               ; preds = %19
  %23 = add nuw nsw i64 %20, 1
  %24 = getelementptr inbounds %"struct.dealii::SparseMatrixEZ<double>::RowInfo", ptr %5, i64 %23, i32 1
  %25 = load i16, ptr %24, align 4, !tbaa !16
  %26 = icmp eq i16 %25, 0
  br i1 %26, label %19, label %27

27:                                               ; preds = %22, %19, %1, %12
  %28 = phi i64 [ 0, %1 ], [ 0, %12 ], [ %23, %22 ], [ %9, %19 ]
  %29 = trunc i64 %9 to i32
  %30 = trunc i64 %28 to i32
  %31 = icmp eq i32 %30, %29
  br i1 %31, label %83, label %32

32:                                               ; preds = %27
  %33 = and i64 %28, 4294967295
  %34 = getelementptr inbounds %"class.dealii::SparseMatrixEZ", ptr %0, i64 0, i32 4
  %35 = load ptr, ptr %34, align 8, !tbaa !25
  br label %36

36:                                               ; preds = %32, %75
  %37 = phi i16 [ 0, %32 ], [ %80, %75 ]
  %38 = phi i64 [ 0, %32 ], [ %79, %75 ]
  %39 = phi double [ 0.000000e+00, %32 ], [ %50, %75 ]
  %40 = phi i64 [ %33, %32 ], [ %76, %75 ]
  %41 = and i64 %40, 4294967295
  %42 = getelementptr inbounds %"struct.dealii::SparseMatrixEZ<double>::RowInfo", ptr %5, i64 %41
  %43 = load i32, ptr %42, align 4, !tbaa !13
  %44 = trunc i64 %38 to i32
  %45 = and i32 %44, 65535
  %46 = add i32 %43, %45
  %47 = zext i32 %46 to i64
  %48 = getelementptr inbounds %"struct.dealii::SparseMatrixEZ<double>::Entry", ptr %35, i64 %47, i32 1
  %49 = load double, ptr %48, align 8, !tbaa !11
  %50 = tail call double @llvm.fmuladd.f64(double %49, double %49, double %39)
  %51 = add i16 %37, 1
  %52 = zext i16 %51 to i64
  %53 = shl nuw nsw i64 %52, 32
  %54 = and i64 %40, -281470681743361
  %55 = or i64 %53, %54
  %56 = getelementptr inbounds %"struct.dealii::SparseMatrixEZ<double>::RowInfo", ptr %5, i64 %41, i32 1
  %57 = load i16, ptr %56, align 4, !tbaa !16
  %58 = icmp ult i16 %51, %57
  br i1 %58, label %75, label %59

59:                                               ; preds = %36
  %60 = trunc i64 %40 to i32
  %61 = add i32 %60, 1
  %62 = tail call i32 @llvm.umax.i32(i32 %61, i32 %29)
  %63 = add i32 %62, -1
  br label %64

64:                                               ; preds = %69, %59
  %65 = phi i32 [ %70, %69 ], [ %60, %59 ]
  %66 = icmp eq i32 %65, %63
  br i1 %66, label %67, label %69

67:                                               ; preds = %64
  %68 = zext i32 %62 to i64
  br label %75

69:                                               ; preds = %64
  %70 = add i32 %65, 1
  %71 = zext i32 %70 to i64
  %72 = getelementptr inbounds %"struct.dealii::SparseMatrixEZ<double>::RowInfo", ptr %5, i64 %71, i32 1
  %73 = load i16, ptr %72, align 4, !tbaa !16
  %74 = icmp eq i16 %73, 0
  br i1 %74, label %64, label %75

75:                                               ; preds = %69, %67, %36
  %76 = phi i64 [ %55, %36 ], [ %68, %67 ], [ %71, %69 ]
  %77 = trunc i64 %76 to i32
  %78 = icmp ne i32 %77, %29
  %79 = lshr i64 %76, 32
  %80 = trunc i64 %79 to i16
  %81 = icmp ne i16 %80, 0
  %82 = or i1 %78, %81
  br i1 %82, label %36, label %83

83:                                               ; preds = %75, %27
  %84 = phi double [ 0.000000e+00, %27 ], [ %50, %75 ]
  %85 = tail call double @sqrt(double noundef %84) #17
  ret double %85
}

; Function Attrs: inlinehint sspstrong uwtable
define weak_odr dso_local { ptr, i64 } @_ZNK6dealii14SparseMatrixEZIdE5beginEv(ptr noundef nonnull align 8 dereferenceable(132) %0) local_unnamed_addr #1 comdat align 2 {
  %2 = getelementptr inbounds %"class.dealii::SparseMatrixEZ", ptr %0, i64 0, i32 3
  %3 = getelementptr inbounds %"class.dealii::SparseMatrixEZ", ptr %0, i64 0, i32 3, i32 0, i32 0, i32 0, i32 1
  %4 = load ptr, ptr %3, align 8, !tbaa !27
  %5 = load ptr, ptr %2, align 8, !tbaa !23
  %6 = ptrtoint ptr %4 to i64
  %7 = ptrtoint ptr %5 to i64
  %8 = sub i64 %6, %7
  %9 = lshr exact i64 %8, 3
  %10 = and i64 %8, 34359738360
  %11 = icmp eq i64 %10, 0
  br i1 %11, label %27, label %12

12:                                               ; preds = %1
  %13 = getelementptr inbounds %"struct.dealii::SparseMatrixEZ<double>::RowInfo", ptr %5, i64 0, i32 1
  %14 = load i16, ptr %13, align 4, !tbaa !16
  %15 = icmp eq i16 %14, 0
  br i1 %15, label %16, label %27

16:                                               ; preds = %12
  %17 = add nuw nsw i64 %9, 4294967295
  %18 = and i64 %17, 4294967295
  br label %19

19:                                               ; preds = %22, %16
  %20 = phi i64 [ %23, %22 ], [ 0, %16 ]
  %21 = icmp eq i64 %20, %18
  br i1 %21, label %27, label %22

22:                                               ; preds = %19
  %23 = add nuw nsw i64 %20, 1
  %24 = getelementptr inbounds %"struct.dealii::SparseMatrixEZ<double>::RowInfo", ptr %5, i64 %23, i32 1
  %25 = load i16, ptr %24, align 4, !tbaa !16
  %26 = icmp eq i16 %25, 0
  br i1 %26, label %19, label %27

27:                                               ; preds = %19, %22, %1, %12
  %28 = phi i64 [ 0, %1 ], [ 0, %12 ], [ %9, %19 ], [ %23, %22 ]
  %29 = insertvalue { ptr, i64 } poison, ptr %0, 0
  %30 = and i64 %28, 4294967295
  %31 = insertvalue { ptr, i64 } %29, i64 %30, 1
  ret { ptr, i64 } %31
}

; Function Attrs: inlinehint sspstrong uwtable
define weak_odr dso_local { ptr, i64 } @_ZNK6dealii14SparseMatrixEZIdE3endEv(ptr noundef nonnull align 8 dereferenceable(132) %0) local_unnamed_addr #1 comdat align 2 {
  %2 = getelementptr inbounds %"class.dealii::SparseMatrixEZ", ptr %0, i64 0, i32 3
  %3 = getelementptr inbounds %"class.dealii::SparseMatrixEZ", ptr %0, i64 0, i32 3, i32 0, i32 0, i32 0, i32 1
  %4 = load ptr, ptr %3, align 8, !tbaa !27
  %5 = load ptr, ptr %2, align 8, !tbaa !23
  %6 = ptrtoint ptr %4 to i64
  %7 = ptrtoint ptr %5 to i64
  %8 = sub i64 %6, %7
  %9 = lshr exact i64 %8, 3
  %10 = insertvalue { ptr, i64 } poison, ptr %0, 0
  %11 = and i64 %9, 4294967295
  %12 = insertvalue { ptr, i64 } %10, i64 %11, 1
  ret { ptr, i64 } %12
}

; Function Attrs: mustprogress nocallback nofree nosync nounwind speculatable willreturn memory(none)
declare double @llvm.fmuladd.f64(double, double, double) #8

; Function Attrs: mustprogress nofree nounwind willreturn memory(write)
declare double @sqrt(double noundef) local_unnamed_addr #9

; Function Attrs: inlinehint sspstrong uwtable
define weak_odr dso_local { ptr, i64 } @_ZNK6dealii14SparseMatrixEZIdE5beginEj(ptr noundef nonnull align 8 dereferenceable(132) %0, i32 noundef %1) local_unnamed_addr #1 comdat align 2 {
  %3 = getelementptr inbounds %"class.dealii::SparseMatrixEZ", ptr %0, i64 0, i32 3
  %4 = getelementptr inbounds %"class.dealii::SparseMatrixEZ", ptr %0, i64 0, i32 3, i32 0, i32 0, i32 0, i32 1
  %5 = load ptr, ptr %4, align 8, !tbaa !27
  %6 = load ptr, ptr %3, align 8, !tbaa !23
  %7 = ptrtoint ptr %5 to i64
  %8 = ptrtoint ptr %6 to i64
  %9 = sub i64 %7, %8
  %10 = lshr exact i64 %9, 3
  %11 = trunc i64 %10 to i32
  %12 = icmp eq i32 %11, %1
  br i1 %12, label %30, label %13

13:                                               ; preds = %2
  %14 = zext i32 %1 to i64
  %15 = getelementptr inbounds %"struct.dealii::SparseMatrixEZ<double>::RowInfo", ptr %6, i64 %14, i32 1
  %16 = load i16, ptr %15, align 4, !tbaa !16
  %17 = icmp eq i16 %16, 0
  br i1 %17, label %18, label %30

18:                                               ; preds = %13
  %19 = add i32 %1, 1
  %20 = tail call i32 @llvm.umax.i32(i32 %19, i32 %11)
  br label %21

21:                                               ; preds = %25, %18
  %22 = phi i32 [ %1, %18 ], [ %23, %25 ]
  %23 = add i32 %22, 1
  %24 = icmp ult i32 %23, %11
  br i1 %24, label %25, label %30

25:                                               ; preds = %21
  %26 = zext i32 %23 to i64
  %27 = getelementptr inbounds %"struct.dealii::SparseMatrixEZ<double>::RowInfo", ptr %6, i64 %26, i32 1
  %28 = load i16, ptr %27, align 4, !tbaa !16
  %29 = icmp eq i16 %28, 0
  br i1 %29, label %21, label %30

30:                                               ; preds = %21, %25, %2, %13
  %31 = phi i32 [ %1, %2 ], [ %1, %13 ], [ %20, %21 ], [ %23, %25 ]
  %32 = insertvalue { ptr, i64 } poison, ptr %0, 0
  %33 = zext i32 %31 to i64
  %34 = insertvalue { ptr, i64 } %32, i64 %33, 1
  ret { ptr, i64 } %34
}

; Function Attrs: inlinehint sspstrong uwtable
define weak_odr dso_local { ptr, i64 } @_ZNK6dealii14SparseMatrixEZIdE3endEj(ptr noundef nonnull align 8 dereferenceable(132) %0, i32 noundef %1) local_unnamed_addr #1 comdat align 2 {
  %3 = add i32 %1, 1
  %4 = getelementptr inbounds %"class.dealii::SparseMatrixEZ", ptr %0, i64 0, i32 3
  %5 = getelementptr inbounds %"class.dealii::SparseMatrixEZ", ptr %0, i64 0, i32 3, i32 0, i32 0, i32 0, i32 1
  %6 = load ptr, ptr %5, align 8, !tbaa !27
  %7 = load ptr, ptr %4, align 8, !tbaa !23
  %8 = ptrtoint ptr %6 to i64
  %9 = ptrtoint ptr %7 to i64
  %10 = sub i64 %8, %9
  %11 = lshr exact i64 %10, 3
  %12 = trunc i64 %11 to i32
  %13 = icmp eq i32 %3, %12
  br i1 %13, label %31, label %14

14:                                               ; preds = %2
  %15 = zext i32 %3 to i64
  %16 = getelementptr inbounds %"struct.dealii::SparseMatrixEZ<double>::RowInfo", ptr %7, i64 %15, i32 1
  %17 = load i16, ptr %16, align 4, !tbaa !16
  %18 = icmp eq i16 %17, 0
  br i1 %18, label %19, label %31

19:                                               ; preds = %14
  %20 = add i32 %1, 2
  %21 = tail call i32 @llvm.umax.i32(i32 %20, i32 %12)
  br label %22

22:                                               ; preds = %26, %19
  %23 = phi i32 [ %3, %19 ], [ %24, %26 ]
  %24 = add i32 %23, 1
  %25 = icmp ult i32 %24, %12
  br i1 %25, label %26, label %31

26:                                               ; preds = %22
  %27 = zext i32 %24 to i64
  %28 = getelementptr inbounds %"struct.dealii::SparseMatrixEZ<double>::RowInfo", ptr %7, i64 %27, i32 1
  %29 = load i16, ptr %28, align 4, !tbaa !16
  %30 = icmp eq i16 %29, 0
  br i1 %30, label %22, label %31

31:                                               ; preds = %22, %26, %2, %14
  %32 = phi i32 [ %3, %2 ], [ %3, %14 ], [ %21, %22 ], [ %24, %26 ]
  %33 = insertvalue { ptr, i64 } poison, ptr %0, 0
  %34 = zext i32 %32 to i64
  %35 = insertvalue { ptr, i64 } %33, i64 %34, 1
  ret { ptr, i64 } %35
}

; Function Attrs: sspstrong uwtable
define weak_odr dso_local void @_ZNK6dealii14SparseMatrixEZIdE5printERSo(ptr noundef nonnull align 8 dereferenceable(132) %0, ptr noundef nonnull align 8 dereferenceable(8) %1) local_unnamed_addr #2 comdat align 2 personality ptr @__gxx_personality_v0 {
  %3 = alloca i8, align 1
  %4 = alloca i8, align 1
  %5 = alloca %"class.dealii::StandardExceptions::ExcIO", align 8
  %6 = load ptr, ptr %1, align 8, !tbaa !32
  %7 = getelementptr i8, ptr %6, i64 -24
  %8 = load i64, ptr %7, align 8
  %9 = getelementptr inbounds i8, ptr %1, i64 %8
  %10 = getelementptr inbounds %"class.std::ios_base", ptr %9, i64 0, i32 5
  %11 = load i32, ptr %10, align 8, !tbaa !61
  %12 = and i32 %11, 5
  %13 = icmp eq i32 %12, 0
  br i1 %13, label %25, label %14

14:                                               ; preds = %2
  call void @llvm.memset.p0.i64(ptr noundef nonnull align 8 dereferenceable(64) %5, i8 0, i64 64, i1 false)
  call void @_ZN6dealii13ExceptionBaseC2Ev(ptr noundef nonnull align 8 dereferenceable(60) %5)
  store ptr getelementptr inbounds ({ [6 x ptr] }, ptr @_ZTVN6dealii18StandardExceptions5ExcIOE, i64 0, inrange i32 0, i64 2), ptr %5, align 8, !tbaa !32
  invoke void @_ZN6dealii13ExceptionBase10set_fieldsEPKciS2_S2_S2_(ptr noundef nonnull align 8 dereferenceable(60) %5, ptr noundef nonnull @.str, i32 noundef 433, ptr noundef nonnull @.str.1, ptr noundef nonnull @.str.2, ptr noundef nonnull @.str.3)
          to label %15 unwind label %21

15:                                               ; preds = %14
  %16 = call ptr @__cxa_allocate_exception(i64 64) #17
  invoke void @_ZN6dealii13ExceptionBaseC2ERKS0_(ptr noundef nonnull align 8 dereferenceable(60) %16, ptr noundef nonnull align 8 dereferenceable(60) %5)
          to label %17 unwind label %19

17:                                               ; preds = %15
  store ptr getelementptr inbounds ({ [6 x ptr] }, ptr @_ZTVN6dealii18StandardExceptions5ExcIOE, i64 0, inrange i32 0, i64 2), ptr %16, align 8, !tbaa !32
  invoke void @__cxa_throw(ptr nonnull %16, ptr nonnull @_ZTIN6dealii18StandardExceptions5ExcIOE, ptr nonnull @_ZN6dealii13ExceptionBaseD2Ev) #21
          to label %18 unwind label %21

18:                                               ; preds = %17
  unreachable

19:                                               ; preds = %15
  %20 = landingpad { ptr, i32 }
          cleanup
  call void @__cxa_free_exception(ptr %16) #17
  br label %23

21:                                               ; preds = %17, %14
  %22 = landingpad { ptr, i32 }
          cleanup
  br label %23

23:                                               ; preds = %19, %21
  %24 = phi { ptr, i32 } [ %22, %21 ], [ %20, %19 ]
  call void @_ZN6dealii13ExceptionBaseD2Ev(ptr noundef nonnull align 8 dereferenceable(60) %5) #17
  resume { ptr, i32 } %24

25:                                               ; preds = %2
  %26 = getelementptr inbounds %"class.dealii::SparseMatrixEZ", ptr %0, i64 0, i32 3
  %27 = getelementptr inbounds %"class.dealii::SparseMatrixEZ", ptr %0, i64 0, i32 3, i32 0, i32 0, i32 0, i32 1
  %28 = load ptr, ptr %27, align 8, !tbaa !27
  %29 = load ptr, ptr %26, align 8, !tbaa !23
  %30 = ptrtoint ptr %28 to i64
  %31 = ptrtoint ptr %29 to i64
  %32 = sub i64 %30, %31
  %33 = lshr exact i64 %32, 3
  %34 = and i64 %32, 34359738360
  %35 = icmp eq i64 %34, 0
  br i1 %35, label %51, label %36

36:                                               ; preds = %25
  %37 = getelementptr inbounds %"struct.dealii::SparseMatrixEZ<double>::RowInfo", ptr %29, i64 0, i32 1
  %38 = load i16, ptr %37, align 4, !tbaa !16
  %39 = icmp eq i16 %38, 0
  br i1 %39, label %40, label %51

40:                                               ; preds = %36
  %41 = add nuw nsw i64 %33, 4294967295
  %42 = and i64 %41, 4294967295
  br label %43

43:                                               ; preds = %46, %40
  %44 = phi i64 [ %47, %46 ], [ 0, %40 ]
  %45 = icmp eq i64 %44, %42
  br i1 %45, label %51, label %46

46:                                               ; preds = %43
  %47 = add nuw nsw i64 %44, 1
  %48 = getelementptr inbounds %"struct.dealii::SparseMatrixEZ<double>::RowInfo", ptr %29, i64 %47, i32 1
  %49 = load i16, ptr %48, align 4, !tbaa !16
  %50 = icmp eq i16 %49, 0
  br i1 %50, label %43, label %51

51:                                               ; preds = %46, %43, %25, %36
  %52 = phi i64 [ 0, %25 ], [ 0, %36 ], [ %47, %46 ], [ %33, %43 ]
  %53 = trunc i64 %33 to i32
  %54 = trunc i64 %52 to i32
  %55 = icmp eq i32 %54, %53
  br i1 %55, label %175, label %56

56:                                               ; preds = %51
  %57 = and i64 %52, 4294967295
  %58 = getelementptr inbounds %"class.dealii::SparseMatrixEZ", ptr %0, i64 0, i32 4
  br label %59

59:                                               ; preds = %56, %167
  %60 = phi i16 [ 0, %56 ], [ %172, %167 ]
  %61 = phi i64 [ 0, %56 ], [ %171, %167 ]
  %62 = phi i64 [ %57, %56 ], [ %168, %167 ]
  %63 = and i64 %62, 4294967295
  %64 = call noundef nonnull align 8 dereferenceable(8) ptr @_ZNSo9_M_insertImEERSoT_(ptr noundef nonnull align 8 dereferenceable(8) %1, i64 noundef %63)
  call void @llvm.lifetime.start.p0(i64 1, ptr nonnull %4)
  store i8 9, ptr %4, align 1, !tbaa !67
  %65 = load ptr, ptr %64, align 8, !tbaa !32
  %66 = getelementptr i8, ptr %65, i64 -24
  %67 = load i64, ptr %66, align 8
  %68 = getelementptr inbounds i8, ptr %64, i64 %67
  %69 = getelementptr inbounds %"class.std::ios_base", ptr %68, i64 0, i32 2
  %70 = load i64, ptr %69, align 8, !tbaa !68
  %71 = icmp eq i64 %70, 0
  br i1 %71, label %74, label %72

72:                                               ; preds = %59
  %73 = call noundef nonnull align 8 dereferenceable(8) ptr @_ZSt16__ostream_insertIcSt11char_traitsIcEERSt13basic_ostreamIT_T0_ES6_PKS3_l(ptr noundef nonnull align 8 dereferenceable(8) %64, ptr noundef nonnull %4, i64 noundef 1)
  br label %76

74:                                               ; preds = %59
  %75 = call noundef nonnull align 8 dereferenceable(8) ptr @_ZNSo3putEc(ptr noundef nonnull align 8 dereferenceable(8) %64, i8 noundef signext 9)
  br label %76

76:                                               ; preds = %72, %74
  %77 = phi ptr [ %73, %72 ], [ %64, %74 ]
  call void @llvm.lifetime.end.p0(i64 1, ptr nonnull %4)
  %78 = load ptr, ptr %26, align 8, !tbaa !23
  %79 = getelementptr inbounds %"struct.dealii::SparseMatrixEZ<double>::RowInfo", ptr %78, i64 %63
  %80 = load i32, ptr %79, align 4, !tbaa !13
  %81 = trunc i64 %61 to i32
  %82 = and i32 %81, 65535
  %83 = add i32 %80, %82
  %84 = zext i32 %83 to i64
  %85 = load ptr, ptr %58, align 8, !tbaa !25
  %86 = getelementptr inbounds %"struct.dealii::SparseMatrixEZ<double>::Entry", ptr %85, i64 %84
  %87 = load i32, ptr %86, align 8, !tbaa !5
  %88 = zext i32 %87 to i64
  %89 = call noundef nonnull align 8 dereferenceable(8) ptr @_ZNSo9_M_insertImEERSoT_(ptr noundef nonnull align 8 dereferenceable(8) %77, i64 noundef %88)
  call void @llvm.lifetime.start.p0(i64 1, ptr nonnull %3)
  store i8 9, ptr %3, align 1, !tbaa !67
  %90 = load ptr, ptr %89, align 8, !tbaa !32
  %91 = getelementptr i8, ptr %90, i64 -24
  %92 = load i64, ptr %91, align 8
  %93 = getelementptr inbounds i8, ptr %89, i64 %92
  %94 = getelementptr inbounds %"class.std::ios_base", ptr %93, i64 0, i32 2
  %95 = load i64, ptr %94, align 8, !tbaa !68
  %96 = icmp eq i64 %95, 0
  br i1 %96, label %99, label %97

97:                                               ; preds = %76
  %98 = call noundef nonnull align 8 dereferenceable(8) ptr @_ZSt16__ostream_insertIcSt11char_traitsIcEERSt13basic_ostreamIT_T0_ES6_PKS3_l(ptr noundef nonnull align 8 dereferenceable(8) %89, ptr noundef nonnull %3, i64 noundef 1)
  br label %101

99:                                               ; preds = %76
  %100 = call noundef nonnull align 8 dereferenceable(8) ptr @_ZNSo3putEc(ptr noundef nonnull align 8 dereferenceable(8) %89, i8 noundef signext 9)
  br label %101

101:                                              ; preds = %97, %99
  %102 = phi ptr [ %98, %97 ], [ %89, %99 ]
  call void @llvm.lifetime.end.p0(i64 1, ptr nonnull %3)
  %103 = load ptr, ptr %26, align 8, !tbaa !23
  %104 = getelementptr inbounds %"struct.dealii::SparseMatrixEZ<double>::RowInfo", ptr %103, i64 %63
  %105 = load i32, ptr %104, align 4, !tbaa !13
  %106 = add i32 %105, %82
  %107 = zext i32 %106 to i64
  %108 = load ptr, ptr %58, align 8, !tbaa !25
  %109 = getelementptr inbounds %"struct.dealii::SparseMatrixEZ<double>::Entry", ptr %108, i64 %107, i32 1
  %110 = load double, ptr %109, align 8, !tbaa !11
  %111 = call noundef nonnull align 8 dereferenceable(8) ptr @_ZNSo9_M_insertIdEERSoT_(ptr noundef nonnull align 8 dereferenceable(8) %102, double noundef %110)
  %112 = load ptr, ptr %111, align 8, !tbaa !32
  %113 = getelementptr i8, ptr %112, i64 -24
  %114 = load i64, ptr %113, align 8
  %115 = getelementptr inbounds i8, ptr %111, i64 %114
  %116 = getelementptr inbounds %"class.std::basic_ios", ptr %115, i64 0, i32 5
  %117 = load ptr, ptr %116, align 8, !tbaa !69
  %118 = icmp eq ptr %117, null
  br i1 %118, label %119, label %120

119:                                              ; preds = %101
  call void @_ZSt16__throw_bad_castv() #21
  unreachable

120:                                              ; preds = %101
  %121 = getelementptr inbounds %"class.std::ctype", ptr %117, i64 0, i32 8
  %122 = load i8, ptr %121, align 8, !tbaa !72
  %123 = icmp eq i8 %122, 0
  br i1 %123, label %127, label %124

124:                                              ; preds = %120
  %125 = getelementptr inbounds %"class.std::ctype", ptr %117, i64 0, i32 9, i64 10
  %126 = load i8, ptr %125, align 1, !tbaa !67
  br label %132

127:                                              ; preds = %120
  call void @_ZNKSt5ctypeIcE13_M_widen_initEv(ptr noundef nonnull align 8 dereferenceable(570) %117)
  %128 = load ptr, ptr %117, align 8, !tbaa !32
  %129 = getelementptr inbounds ptr, ptr %128, i64 6
  %130 = load ptr, ptr %129, align 8
  %131 = call noundef signext i8 %130(ptr noundef nonnull align 8 dereferenceable(570) %117, i8 noundef signext 10)
  br label %132

132:                                              ; preds = %124, %127
  %133 = phi i8 [ %126, %124 ], [ %131, %127 ]
  %134 = call noundef nonnull align 8 dereferenceable(8) ptr @_ZNSo3putEc(ptr noundef nonnull align 8 dereferenceable(8) %111, i8 noundef signext %133)
  %135 = call noundef nonnull align 8 dereferenceable(8) ptr @_ZNSo5flushEv(ptr noundef nonnull align 8 dereferenceable(8) %134)
  %136 = add i16 %60, 1
  %137 = zext i16 %136 to i64
  %138 = shl nuw nsw i64 %137, 32
  %139 = and i64 %62, -281470681743361
  %140 = or i64 %138, %139
  %141 = load ptr, ptr %26, align 8, !tbaa !23
  %142 = getelementptr inbounds %"struct.dealii::SparseMatrixEZ<double>::RowInfo", ptr %141, i64 %63, i32 1
  %143 = load i16, ptr %142, align 4, !tbaa !16
  %144 = icmp ult i16 %136, %143
  br i1 %144, label %167, label %145

145:                                              ; preds = %132
  %146 = trunc i64 %62 to i32
  %147 = load ptr, ptr %27, align 8, !tbaa !27
  %148 = ptrtoint ptr %147 to i64
  %149 = ptrtoint ptr %141 to i64
  %150 = sub i64 %148, %149
  %151 = lshr exact i64 %150, 3
  %152 = trunc i64 %151 to i32
  %153 = add i32 %146, 1
  %154 = call i32 @llvm.umax.i32(i32 %153, i32 %152)
  %155 = add i32 %154, -1
  br label %156

156:                                              ; preds = %161, %145
  %157 = phi i32 [ %162, %161 ], [ %146, %145 ]
  %158 = icmp eq i32 %157, %155
  br i1 %158, label %159, label %161

159:                                              ; preds = %156
  %160 = zext i32 %154 to i64
  br label %167

161:                                              ; preds = %156
  %162 = add i32 %157, 1
  %163 = zext i32 %162 to i64
  %164 = getelementptr inbounds %"struct.dealii::SparseMatrixEZ<double>::RowInfo", ptr %141, i64 %163, i32 1
  %165 = load i16, ptr %164, align 4, !tbaa !16
  %166 = icmp eq i16 %165, 0
  br i1 %166, label %156, label %167

167:                                              ; preds = %161, %159, %132
  %168 = phi i64 [ %140, %132 ], [ %160, %159 ], [ %163, %161 ]
  %169 = trunc i64 %168 to i32
  %170 = icmp ne i32 %169, %53
  %171 = lshr i64 %168, 32
  %172 = trunc i64 %171 to i16
  %173 = icmp ne i16 %172, 0
  %174 = or i1 %170, %173
  br i1 %174, label %59, label %175

175:                                              ; preds = %167, %51
  ret void
}

; Function Attrs: mustprogress nocallback nofree nounwind willreturn memory(argmem: write)
declare void @llvm.memset.p0.i64(ptr nocapture writeonly, i8, i64, i1 immarg) #10

; Function Attrs: sspstrong uwtable
define weak_odr dso_local void @_ZNK6dealii14SparseMatrixEZIdE15print_formattedERSojbjPKcd(ptr noundef nonnull align 8 dereferenceable(132) %0, ptr noundef nonnull align 8 dereferenceable(8) %1, i32 noundef %2, i1 noundef zeroext %3, i32 noundef %4, ptr noundef %5, double noundef %6) local_unnamed_addr #2 comdat align 2 personality ptr @__gxx_personality_v0 {
  %8 = alloca i8, align 1
  %9 = alloca i8, align 1
  %10 = alloca %"class.dealii::StandardExceptions::ExcIO", align 8
  %11 = load ptr, ptr %1, align 8, !tbaa !32
  %12 = getelementptr i8, ptr %11, i64 -24
  %13 = load i64, ptr %12, align 8
  %14 = getelementptr inbounds i8, ptr %1, i64 %13
  %15 = getelementptr inbounds %"class.std::ios_base", ptr %14, i64 0, i32 5
  %16 = load i32, ptr %15, align 8, !tbaa !61
  %17 = and i32 %16, 5
  %18 = icmp eq i32 %17, 0
  br i1 %18, label %30, label %19

19:                                               ; preds = %7
  call void @llvm.memset.p0.i64(ptr noundef nonnull align 8 dereferenceable(64) %10, i8 0, i64 64, i1 false)
  call void @_ZN6dealii13ExceptionBaseC2Ev(ptr noundef nonnull align 8 dereferenceable(60) %10)
  store ptr getelementptr inbounds ({ [6 x ptr] }, ptr @_ZTVN6dealii18StandardExceptions5ExcIOE, i64 0, inrange i32 0, i64 2), ptr %10, align 8, !tbaa !32
  invoke void @_ZN6dealii13ExceptionBase10set_fieldsEPKciS2_S2_S2_(ptr noundef nonnull align 8 dereferenceable(60) %10, ptr noundef nonnull @.str, i32 noundef 456, ptr noundef nonnull @.str.1, ptr noundef nonnull @.str.2, ptr noundef nonnull @.str.3)
          to label %20 unwind label %26

20:                                               ; preds = %19
  %21 = call ptr @__cxa_allocate_exception(i64 64) #17
  invoke void @_ZN6dealii13ExceptionBaseC2ERKS0_(ptr noundef nonnull align 8 dereferenceable(60) %21, ptr noundef nonnull align 8 dereferenceable(60) %10)
          to label %22 unwind label %24

22:                                               ; preds = %20
  store ptr getelementptr inbounds ({ [6 x ptr] }, ptr @_ZTVN6dealii18StandardExceptions5ExcIOE, i64 0, inrange i32 0, i64 2), ptr %21, align 8, !tbaa !32
  invoke void @__cxa_throw(ptr nonnull %21, ptr nonnull @_ZTIN6dealii18StandardExceptions5ExcIOE, ptr nonnull @_ZN6dealii13ExceptionBaseD2Ev) #21
          to label %23 unwind label %26

23:                                               ; preds = %22
  unreachable

24:                                               ; preds = %20
  %25 = landingpad { ptr, i32 }
          cleanup
  call void @__cxa_free_exception(ptr %21) #17
  br label %28

26:                                               ; preds = %22, %19
  %27 = landingpad { ptr, i32 }
          cleanup
  br label %28

28:                                               ; preds = %24, %26
  %29 = phi { ptr, i32 } [ %27, %26 ], [ %25, %24 ]
  call void @_ZN6dealii13ExceptionBaseD2Ev(ptr noundef nonnull align 8 dereferenceable(60) %10) #17
  resume { ptr, i32 } %29

30:                                               ; preds = %7
  %31 = getelementptr inbounds %"class.std::ios_base", ptr %14, i64 0, i32 3
  %32 = load i32, ptr %31, align 8, !tbaa !75
  %33 = zext i32 %2 to i64
  %34 = getelementptr inbounds %"class.std::ios_base", ptr %14, i64 0, i32 1
  %35 = load i64, ptr %34, align 8, !tbaa !76
  store i64 %33, ptr %34, align 8, !tbaa !76
  %36 = load i64, ptr %12, align 8
  %37 = getelementptr inbounds i8, ptr %1, i64 %36
  %38 = getelementptr inbounds %"class.std::ios_base", ptr %37, i64 0, i32 3
  %39 = load i32, ptr %38, align 8, !tbaa !77
  %40 = and i32 %39, -261
  %41 = select i1 %3, i32 256, i32 4
  %42 = or i32 %40, %41
  store i32 %42, ptr %38, align 8, !tbaa !77
  %43 = getelementptr inbounds %"class.dealii::SparseMatrixEZ", ptr %0, i64 0, i32 3
  %44 = getelementptr inbounds %"class.dealii::SparseMatrixEZ", ptr %0, i64 0, i32 3, i32 0, i32 0, i32 0, i32 1
  %45 = getelementptr %"class.std::basic_ios", ptr %1, i64 0, i32 5
  %46 = load ptr, ptr %44, align 8, !tbaa !27
  %47 = load ptr, ptr %43, align 8, !tbaa !23
  %48 = ptrtoint ptr %46 to i64
  %49 = ptrtoint ptr %47 to i64
  %50 = sub i64 %48, %49
  %51 = and i64 %50, 34359738360
  %52 = icmp eq i64 %51, 0
  br i1 %52, label %69, label %53

53:                                               ; preds = %30
  %54 = icmp eq i32 %4, 0
  %55 = select i1 %3, i32 7, i32 2
  %56 = add i32 %55, %2
  %57 = select i1 %54, i32 %56, i32 %4
  %58 = getelementptr inbounds %"class.dealii::SparseMatrixEZ", ptr %0, i64 0, i32 1
  %59 = getelementptr %"class.std::ios_base", ptr %1, i64 0, i32 2
  %60 = getelementptr inbounds %"class.dealii::SparseMatrixEZ", ptr %0, i64 0, i32 4
  %61 = sext i32 %57 to i64
  %62 = icmp eq ptr %5, null
  br label %63

63:                                               ; preds = %53, %99
  %64 = phi i64 [ 0, %53 ], [ %103, %99 ]
  %65 = load i32, ptr %58, align 8, !tbaa !34
  %66 = icmp eq i32 %65, 0
  br i1 %66, label %79, label %112

67:                                               ; preds = %99
  %68 = load ptr, ptr %1, align 8, !tbaa !32
  br label %69

69:                                               ; preds = %67, %30
  %70 = phi ptr [ %68, %67 ], [ %11, %30 ]
  %71 = getelementptr i8, ptr %70, i64 -24
  %72 = load i64, ptr %71, align 8
  %73 = getelementptr inbounds i8, ptr %1, i64 %72
  %74 = and i64 %35, 4294967295
  %75 = getelementptr inbounds %"class.std::ios_base", ptr %73, i64 0, i32 1
  store i64 %74, ptr %75, align 8, !tbaa !76
  %76 = load i64, ptr %71, align 8
  %77 = getelementptr inbounds i8, ptr %1, i64 %76
  %78 = getelementptr inbounds %"class.std::ios_base", ptr %77, i64 0, i32 3
  store i32 %32, ptr %78, align 8, !tbaa !75
  ret void

79:                                               ; preds = %183, %63
  %80 = load ptr, ptr %1, align 8, !tbaa !32
  %81 = getelementptr i8, ptr %80, i64 -24
  %82 = load i64, ptr %81, align 8
  %83 = getelementptr i8, ptr %45, i64 %82
  %84 = load ptr, ptr %83, align 8, !tbaa !69
  %85 = icmp eq ptr %84, null
  br i1 %85, label %86, label %87

86:                                               ; preds = %79
  call void @_ZSt16__throw_bad_castv() #21
  unreachable

87:                                               ; preds = %79
  %88 = getelementptr inbounds %"class.std::ctype", ptr %84, i64 0, i32 8
  %89 = load i8, ptr %88, align 8, !tbaa !72
  %90 = icmp eq i8 %89, 0
  br i1 %90, label %94, label %91

91:                                               ; preds = %87
  %92 = getelementptr inbounds %"class.std::ctype", ptr %84, i64 0, i32 9, i64 10
  %93 = load i8, ptr %92, align 1, !tbaa !67
  br label %99

94:                                               ; preds = %87
  call void @_ZNKSt5ctypeIcE13_M_widen_initEv(ptr noundef nonnull align 8 dereferenceable(570) %84)
  %95 = load ptr, ptr %84, align 8, !tbaa !32
  %96 = getelementptr inbounds ptr, ptr %95, i64 6
  %97 = load ptr, ptr %96, align 8
  %98 = call noundef signext i8 %97(ptr noundef nonnull align 8 dereferenceable(570) %84, i8 noundef signext 10)
  br label %99

99:                                               ; preds = %91, %94
  %100 = phi i8 [ %93, %91 ], [ %98, %94 ]
  %101 = call noundef nonnull align 8 dereferenceable(8) ptr @_ZNSo3putEc(ptr noundef nonnull align 8 dereferenceable(8) %1, i8 noundef signext %100)
  %102 = call noundef nonnull align 8 dereferenceable(8) ptr @_ZNSo5flushEv(ptr noundef nonnull align 8 dereferenceable(8) %101)
  %103 = add nuw nsw i64 %64, 1
  %104 = load ptr, ptr %44, align 8, !tbaa !27
  %105 = load ptr, ptr %43, align 8, !tbaa !23
  %106 = ptrtoint ptr %104 to i64
  %107 = ptrtoint ptr %105 to i64
  %108 = sub i64 %106, %107
  %109 = lshr exact i64 %108, 3
  %110 = and i64 %109, 4294967295
  %111 = icmp ult i64 %103, %110
  br i1 %111, label %63, label %67

112:                                              ; preds = %63, %183
  %113 = phi i32 [ %184, %183 ], [ 0, %63 ]
  %114 = load ptr, ptr %43, align 8, !tbaa !23
  %115 = getelementptr inbounds %"struct.dealii::SparseMatrixEZ<double>::RowInfo", ptr %114, i64 %64
  %116 = load i32, ptr %115, align 4, !tbaa !13
  %117 = getelementptr inbounds %"struct.dealii::SparseMatrixEZ<double>::RowInfo", ptr %114, i64 %64, i32 1
  %118 = load i16, ptr %117, align 4, !tbaa !16
  %119 = zext i16 %118 to i32
  %120 = add i32 %116, %119
  %121 = icmp ult i32 %116, %120
  br i1 %121, label %122, label %157

122:                                              ; preds = %112
  %123 = load ptr, ptr %60, align 8, !tbaa !25
  %124 = zext i32 %116 to i64
  br label %125

125:                                              ; preds = %130, %122
  %126 = phi i64 [ %124, %122 ], [ %132, %130 ]
  %127 = getelementptr inbounds %"struct.dealii::SparseMatrixEZ<double>::Entry", ptr %123, i64 %126
  %128 = load i32, ptr %127, align 8, !tbaa !5
  %129 = icmp eq i32 %128, %113
  br i1 %129, label %136, label %130

130:                                              ; preds = %125
  %131 = icmp eq i32 %128, -1
  %132 = add nuw nsw i64 %126, 1
  %133 = trunc i64 %132 to i32
  %134 = icmp eq i32 %120, %133
  %135 = select i1 %131, i1 true, i1 %134
  br i1 %135, label %157, label %125

136:                                              ; preds = %125
  %137 = load ptr, ptr %1, align 8, !tbaa !32
  %138 = getelementptr i8, ptr %137, i64 -24
  %139 = load i64, ptr %138, align 8
  %140 = getelementptr i8, ptr %59, i64 %139
  store i64 %61, ptr %140, align 8, !tbaa !68
  %141 = getelementptr inbounds %"struct.dealii::SparseMatrixEZ<double>::Entry", ptr %123, i64 %126, i32 1
  %142 = load double, ptr %141, align 8, !tbaa !11
  %143 = fmul double %142, %6
  %144 = call noundef nonnull align 8 dereferenceable(8) ptr @_ZNSo9_M_insertIdEERSoT_(ptr noundef nonnull align 8 dereferenceable(8) %1, double noundef %143)
  call void @llvm.lifetime.start.p0(i64 1, ptr nonnull %9)
  store i8 32, ptr %9, align 1, !tbaa !67
  %145 = load ptr, ptr %144, align 8, !tbaa !32
  %146 = getelementptr i8, ptr %145, i64 -24
  %147 = load i64, ptr %146, align 8
  %148 = getelementptr inbounds i8, ptr %144, i64 %147
  %149 = getelementptr inbounds %"class.std::ios_base", ptr %148, i64 0, i32 2
  %150 = load i64, ptr %149, align 8, !tbaa !68
  %151 = icmp eq i64 %150, 0
  br i1 %151, label %154, label %152

152:                                              ; preds = %136
  %153 = call noundef nonnull align 8 dereferenceable(8) ptr @_ZSt16__ostream_insertIcSt11char_traitsIcEERSt13basic_ostreamIT_T0_ES6_PKS3_l(ptr noundef nonnull align 8 dereferenceable(8) %144, ptr noundef nonnull %9, i64 noundef 1)
  br label %156

154:                                              ; preds = %136
  %155 = call noundef nonnull align 8 dereferenceable(8) ptr @_ZNSo3putEc(ptr noundef nonnull align 8 dereferenceable(8) %144, i8 noundef signext 32)
  br label %156

156:                                              ; preds = %152, %154
  call void @llvm.lifetime.end.p0(i64 1, ptr nonnull %9)
  br label %183

157:                                              ; preds = %130, %112
  %158 = load ptr, ptr %1, align 8, !tbaa !32
  %159 = getelementptr i8, ptr %158, i64 -24
  %160 = load i64, ptr %159, align 8
  %161 = getelementptr i8, ptr %59, i64 %160
  store i64 %61, ptr %161, align 8, !tbaa !68
  br i1 %62, label %162, label %168

162:                                              ; preds = %157
  %163 = load i64, ptr %159, align 8
  %164 = getelementptr inbounds i8, ptr %1, i64 %163
  %165 = getelementptr inbounds %"class.std::ios_base", ptr %164, i64 0, i32 5
  %166 = load i32, ptr %165, align 8, !tbaa !61
  %167 = or i32 %166, 1
  call void @_ZNSt9basic_iosIcSt11char_traitsIcEE5clearESt12_Ios_Iostate(ptr noundef nonnull align 8 dereferenceable(264) %164, i32 noundef %167)
  br label %171

168:                                              ; preds = %157
  %169 = call i64 @strlen(ptr noundef nonnull dereferenceable(1) %5) #17
  %170 = call noundef nonnull align 8 dereferenceable(8) ptr @_ZSt16__ostream_insertIcSt11char_traitsIcEERSt13basic_ostreamIT_T0_ES6_PKS3_l(ptr noundef nonnull align 8 dereferenceable(8) %1, ptr noundef nonnull %5, i64 noundef %169)
  br label %171

171:                                              ; preds = %162, %168
  call void @llvm.lifetime.start.p0(i64 1, ptr nonnull %8)
  store i8 32, ptr %8, align 1, !tbaa !67
  %172 = load ptr, ptr %1, align 8, !tbaa !32
  %173 = getelementptr i8, ptr %172, i64 -24
  %174 = load i64, ptr %173, align 8
  %175 = getelementptr i8, ptr %59, i64 %174
  %176 = load i64, ptr %175, align 8, !tbaa !68
  %177 = icmp eq i64 %176, 0
  br i1 %177, label %180, label %178

178:                                              ; preds = %171
  %179 = call noundef nonnull align 8 dereferenceable(8) ptr @_ZSt16__ostream_insertIcSt11char_traitsIcEERSt13basic_ostreamIT_T0_ES6_PKS3_l(ptr noundef nonnull align 8 dereferenceable(8) %1, ptr noundef nonnull %8, i64 noundef 1)
  br label %182

180:                                              ; preds = %171
  %181 = call noundef nonnull align 8 dereferenceable(8) ptr @_ZNSo3putEc(ptr noundef nonnull align 8 dereferenceable(8) %1, i8 noundef signext 32)
  br label %182

182:                                              ; preds = %178, %180
  call void @llvm.lifetime.end.p0(i64 1, ptr nonnull %8)
  br label %183

183:                                              ; preds = %182, %156
  %184 = add nuw i32 %113, 1
  %185 = load i32, ptr %58, align 8, !tbaa !34
  %186 = icmp ult i32 %184, %185
  br i1 %186, label %112, label %79
}

; Function Attrs: sspstrong uwtable
define weak_odr dso_local void @_ZNK6dealii14SparseMatrixEZIdE11block_writeERSo(ptr noundef nonnull align 8 dereferenceable(132) %0, ptr noundef nonnull align 8 dereferenceable(8) %1) local_unnamed_addr #2 comdat align 2 personality ptr @__gxx_personality_v0 {
  %3 = alloca i8, align 1
  %4 = alloca i8, align 1
  %5 = alloca %"class.dealii::StandardExceptions::ExcIO", align 8
  %6 = alloca %"class.dealii::StandardExceptions::ExcIO", align 8
  %7 = load ptr, ptr %1, align 8, !tbaa !32
  %8 = getelementptr i8, ptr %7, i64 -24
  %9 = load i64, ptr %8, align 8
  %10 = getelementptr inbounds i8, ptr %1, i64 %9
  %11 = getelementptr inbounds %"class.std::ios_base", ptr %10, i64 0, i32 5
  %12 = load i32, ptr %11, align 8, !tbaa !61
  %13 = and i32 %12, 5
  %14 = icmp eq i32 %13, 0
  br i1 %14, label %24, label %15

15:                                               ; preds = %2
  call void @llvm.memset.p0.i64(ptr noundef nonnull align 8 dereferenceable(64) %5, i8 0, i64 64, i1 false)
  call void @_ZN6dealii13ExceptionBaseC2Ev(ptr noundef nonnull align 8 dereferenceable(60) %5)
  store ptr getelementptr inbounds ({ [6 x ptr] }, ptr @_ZTVN6dealii18StandardExceptions5ExcIOE, i64 0, inrange i32 0, i64 2), ptr %5, align 8, !tbaa !32
  invoke void @_ZN6dealii13ExceptionBase10set_fieldsEPKciS2_S2_S2_(ptr noundef nonnull align 8 dereferenceable(60) %5, ptr noundef nonnull @.str, i32 noundef 501, ptr noundef nonnull @.str.1, ptr noundef nonnull @.str.2, ptr noundef nonnull @.str.3)
          to label %16 unwind label %22

16:                                               ; preds = %15
  %17 = call ptr @__cxa_allocate_exception(i64 64) #17
  invoke void @_ZN6dealii13ExceptionBaseC2ERKS0_(ptr noundef nonnull align 8 dereferenceable(60) %17, ptr noundef nonnull align 8 dereferenceable(60) %5)
          to label %18 unwind label %20

18:                                               ; preds = %16
  store ptr getelementptr inbounds ({ [6 x ptr] }, ptr @_ZTVN6dealii18StandardExceptions5ExcIOE, i64 0, inrange i32 0, i64 2), ptr %17, align 8, !tbaa !32
  invoke void @__cxa_throw(ptr nonnull %17, ptr nonnull @_ZTIN6dealii18StandardExceptions5ExcIOE, ptr nonnull @_ZN6dealii13ExceptionBaseD2Ev) #21
          to label %19 unwind label %22

19:                                               ; preds = %18
  unreachable

20:                                               ; preds = %16
  %21 = landingpad { ptr, i32 }
          cleanup
  call void @__cxa_free_exception(ptr %17) #17
  br label %107

22:                                               ; preds = %18, %15
  %23 = landingpad { ptr, i32 }
          cleanup
  br label %107

24:                                               ; preds = %2
  call void @llvm.lifetime.start.p0(i64 1, ptr nonnull %4)
  store i8 91, ptr %4, align 1, !tbaa !67
  %25 = getelementptr inbounds %"class.std::ios_base", ptr %10, i64 0, i32 2
  %26 = load i64, ptr %25, align 8, !tbaa !68
  %27 = icmp eq i64 %26, 0
  br i1 %27, label %30, label %28

28:                                               ; preds = %24
  %29 = call noundef nonnull align 8 dereferenceable(8) ptr @_ZSt16__ostream_insertIcSt11char_traitsIcEERSt13basic_ostreamIT_T0_ES6_PKS3_l(ptr noundef nonnull align 8 dereferenceable(8) %1, ptr noundef nonnull %4, i64 noundef 1)
  br label %32

30:                                               ; preds = %24
  %31 = tail call noundef nonnull align 8 dereferenceable(8) ptr @_ZNSo3putEc(ptr noundef nonnull align 8 dereferenceable(8) %1, i8 noundef signext 91)
  br label %32

32:                                               ; preds = %28, %30
  %33 = phi ptr [ %29, %28 ], [ %1, %30 ]
  call void @llvm.lifetime.end.p0(i64 1, ptr nonnull %4)
  %34 = getelementptr inbounds %"class.dealii::SparseMatrixEZ", ptr %0, i64 0, i32 3
  %35 = getelementptr inbounds %"class.dealii::SparseMatrixEZ", ptr %0, i64 0, i32 3, i32 0, i32 0, i32 0, i32 1
  %36 = load ptr, ptr %35, align 8, !tbaa !27
  %37 = load ptr, ptr %34, align 8, !tbaa !23
  %38 = ptrtoint ptr %36 to i64
  %39 = ptrtoint ptr %37 to i64
  %40 = sub i64 %38, %39
  %41 = ashr exact i64 %40, 3
  %42 = call noundef nonnull align 8 dereferenceable(8) ptr @_ZNSo9_M_insertImEERSoT_(ptr noundef nonnull align 8 dereferenceable(8) %33, i64 noundef %41)
  %43 = call noundef nonnull align 8 dereferenceable(8) ptr @_ZSt16__ostream_insertIcSt11char_traitsIcEERSt13basic_ostreamIT_T0_ES6_PKS3_l(ptr noundef nonnull align 8 dereferenceable(8) %42, ptr noundef nonnull @.str.4, i64 noundef 2)
  %44 = getelementptr inbounds %"class.dealii::SparseMatrixEZ", ptr %0, i64 0, i32 1
  %45 = load i32, ptr %44, align 8, !tbaa !34
  %46 = zext i32 %45 to i64
  %47 = call noundef nonnull align 8 dereferenceable(8) ptr @_ZNSo9_M_insertImEERSoT_(ptr noundef nonnull align 8 dereferenceable(8) %42, i64 noundef %46)
  %48 = call noundef nonnull align 8 dereferenceable(8) ptr @_ZSt16__ostream_insertIcSt11char_traitsIcEERSt13basic_ostreamIT_T0_ES6_PKS3_l(ptr noundef nonnull align 8 dereferenceable(8) %47, ptr noundef nonnull @.str.4, i64 noundef 2)
  %49 = getelementptr inbounds %"class.dealii::SparseMatrixEZ", ptr %0, i64 0, i32 4
  %50 = getelementptr inbounds %"class.dealii::SparseMatrixEZ", ptr %0, i64 0, i32 4, i32 0, i32 0, i32 0, i32 1
  %51 = load ptr, ptr %50, align 8, !tbaa !53
  %52 = load ptr, ptr %49, align 8, !tbaa !25
  %53 = ptrtoint ptr %51 to i64
  %54 = ptrtoint ptr %52 to i64
  %55 = sub i64 %53, %54
  %56 = ashr exact i64 %55, 4
  %57 = call noundef nonnull align 8 dereferenceable(8) ptr @_ZNSo9_M_insertImEERSoT_(ptr noundef nonnull align 8 dereferenceable(8) %47, i64 noundef %56)
  %58 = call noundef nonnull align 8 dereferenceable(8) ptr @_ZSt16__ostream_insertIcSt11char_traitsIcEERSt13basic_ostreamIT_T0_ES6_PKS3_l(ptr noundef nonnull align 8 dereferenceable(8) %57, ptr noundef nonnull @.str.4, i64 noundef 2)
  %59 = getelementptr inbounds %"class.dealii::SparseMatrixEZ", ptr %0, i64 0, i32 5
  %60 = load i32, ptr %59, align 8, !tbaa !54
  %61 = zext i32 %60 to i64
  %62 = call noundef nonnull align 8 dereferenceable(8) ptr @_ZNSo9_M_insertImEERSoT_(ptr noundef nonnull align 8 dereferenceable(8) %57, i64 noundef %61)
  %63 = call noundef nonnull align 8 dereferenceable(8) ptr @_ZSt16__ostream_insertIcSt11char_traitsIcEERSt13basic_ostreamIT_T0_ES6_PKS3_l(ptr noundef nonnull align 8 dereferenceable(8) %62, ptr noundef nonnull @.str.4, i64 noundef 2)
  %64 = load ptr, ptr %34, align 8, !tbaa !52
  %65 = load ptr, ptr %35, align 8, !tbaa !27
  %66 = ptrtoint ptr %65 to i64
  %67 = ptrtoint ptr %64 to i64
  %68 = sub i64 %66, %67
  %69 = call noundef nonnull align 8 dereferenceable(8) ptr @_ZNSo5writeEPKcl(ptr noundef nonnull align 8 dereferenceable(8) %1, ptr noundef nonnull %64, i64 noundef %68)
  %70 = call noundef nonnull align 8 dereferenceable(8) ptr @_ZSt16__ostream_insertIcSt11char_traitsIcEERSt13basic_ostreamIT_T0_ES6_PKS3_l(ptr noundef nonnull align 8 dereferenceable(8) %1, ptr noundef nonnull @.str.4, i64 noundef 2)
  %71 = load ptr, ptr %49, align 8, !tbaa !52
  %72 = load ptr, ptr %50, align 8, !tbaa !53
  %73 = ptrtoint ptr %72 to i64
  %74 = ptrtoint ptr %71 to i64
  %75 = sub i64 %73, %74
  %76 = call noundef nonnull align 8 dereferenceable(8) ptr @_ZNSo5writeEPKcl(ptr noundef nonnull align 8 dereferenceable(8) %1, ptr noundef nonnull %71, i64 noundef %75)
  call void @llvm.lifetime.start.p0(i64 1, ptr nonnull %3)
  store i8 93, ptr %3, align 1, !tbaa !67
  %77 = load ptr, ptr %1, align 8, !tbaa !32
  %78 = getelementptr i8, ptr %77, i64 -24
  %79 = load i64, ptr %78, align 8
  %80 = getelementptr inbounds i8, ptr %1, i64 %79
  %81 = getelementptr inbounds %"class.std::ios_base", ptr %80, i64 0, i32 2
  %82 = load i64, ptr %81, align 8, !tbaa !68
  %83 = icmp eq i64 %82, 0
  br i1 %83, label %86, label %84

84:                                               ; preds = %32
  %85 = call noundef nonnull align 8 dereferenceable(8) ptr @_ZSt16__ostream_insertIcSt11char_traitsIcEERSt13basic_ostreamIT_T0_ES6_PKS3_l(ptr noundef nonnull align 8 dereferenceable(8) %1, ptr noundef nonnull %3, i64 noundef 1)
  br label %88

86:                                               ; preds = %32
  %87 = call noundef nonnull align 8 dereferenceable(8) ptr @_ZNSo3putEc(ptr noundef nonnull align 8 dereferenceable(8) %1, i8 noundef signext 93)
  br label %88

88:                                               ; preds = %84, %86
  call void @llvm.lifetime.end.p0(i64 1, ptr nonnull %3)
  %89 = load ptr, ptr %1, align 8, !tbaa !32
  %90 = getelementptr i8, ptr %89, i64 -24
  %91 = load i64, ptr %90, align 8
  %92 = getelementptr inbounds i8, ptr %1, i64 %91
  %93 = getelementptr inbounds %"class.std::ios_base", ptr %92, i64 0, i32 5
  %94 = load i32, ptr %93, align 8, !tbaa !61
  %95 = and i32 %94, 5
  %96 = icmp eq i32 %95, 0
  br i1 %96, label %106, label %97

97:                                               ; preds = %88
  call void @llvm.memset.p0.i64(ptr noundef nonnull align 8 dereferenceable(64) %6, i8 0, i64 64, i1 false)
  call void @_ZN6dealii13ExceptionBaseC2Ev(ptr noundef nonnull align 8 dereferenceable(60) %6)
  store ptr getelementptr inbounds ({ [6 x ptr] }, ptr @_ZTVN6dealii18StandardExceptions5ExcIOE, i64 0, inrange i32 0, i64 2), ptr %6, align 8, !tbaa !32
  invoke void @_ZN6dealii13ExceptionBase10set_fieldsEPKciS2_S2_S2_(ptr noundef nonnull align 8 dereferenceable(60) %6, ptr noundef nonnull @.str, i32 noundef 542, ptr noundef nonnull @.str.1, ptr noundef nonnull @.str.2, ptr noundef nonnull @.str.3)
          to label %98 unwind label %104

98:                                               ; preds = %97
  %99 = call ptr @__cxa_allocate_exception(i64 64) #17
  invoke void @_ZN6dealii13ExceptionBaseC2ERKS0_(ptr noundef nonnull align 8 dereferenceable(60) %99, ptr noundef nonnull align 8 dereferenceable(60) %6)
          to label %100 unwind label %102

100:                                              ; preds = %98
  store ptr getelementptr inbounds ({ [6 x ptr] }, ptr @_ZTVN6dealii18StandardExceptions5ExcIOE, i64 0, inrange i32 0, i64 2), ptr %99, align 8, !tbaa !32
  invoke void @__cxa_throw(ptr nonnull %99, ptr nonnull @_ZTIN6dealii18StandardExceptions5ExcIOE, ptr nonnull @_ZN6dealii13ExceptionBaseD2Ev) #21
          to label %101 unwind label %104

101:                                              ; preds = %100
  unreachable

102:                                              ; preds = %98
  %103 = landingpad { ptr, i32 }
          cleanup
  call void @__cxa_free_exception(ptr %99) #17
  br label %107

104:                                              ; preds = %100, %97
  %105 = landingpad { ptr, i32 }
          cleanup
  br label %107

106:                                              ; preds = %88
  ret void

107:                                              ; preds = %104, %102, %22, %20
  %108 = phi ptr [ %5, %20 ], [ %5, %22 ], [ %6, %102 ], [ %6, %104 ]
  %109 = phi { ptr, i32 } [ %21, %20 ], [ %23, %22 ], [ %103, %102 ], [ %105, %104 ]
  call void @_ZN6dealii13ExceptionBaseD2Ev(ptr noundef nonnull align 8 dereferenceable(60) %108) #17
  resume { ptr, i32 } %109
}

declare noundef nonnull align 8 dereferenceable(8) ptr @_ZNSo5writeEPKcl(ptr noundef nonnull align 8 dereferenceable(8), ptr noundef, i64 noundef) local_unnamed_addr #3

; Function Attrs: sspstrong uwtable
define weak_odr dso_local void @_ZN6dealii14SparseMatrixEZIdE10block_readERSi(ptr noundef nonnull align 8 dereferenceable(132) %0, ptr noundef nonnull align 8 dereferenceable(16) %1) local_unnamed_addr #2 comdat align 2 personality ptr @__gxx_personality_v0 {
  %3 = alloca %"struct.dealii::SparseMatrixEZ<double>::Entry", align 8
  %4 = alloca %"struct.dealii::SparseMatrixEZ<double>::RowInfo", align 8
  %5 = alloca %"class.dealii::StandardExceptions::ExcIO", align 8
  %6 = alloca i8, align 1
  %7 = alloca i32, align 4
  %8 = alloca %"class.dealii::StandardExceptions::ExcMessage", align 8
  %9 = alloca %"class.dealii::StandardExceptions::ExcMessage", align 8
  %10 = alloca %"class.dealii::StandardExceptions::ExcMessage", align 8
  %11 = alloca %"class.dealii::StandardExceptions::ExcMessage", align 8
  %12 = alloca %"class.dealii::StandardExceptions::ExcMessage", align 8
  %13 = alloca %"class.dealii::StandardExceptions::ExcMessage", align 8
  %14 = alloca %"class.dealii::StandardExceptions::ExcMessage", align 8
  %15 = alloca %"class.dealii::StandardExceptions::ExcMessage", align 8
  %16 = alloca %"class.dealii::StandardExceptions::ExcMessage", align 8
  %17 = alloca %"class.dealii::StandardExceptions::ExcMessage", align 8
  %18 = alloca %"class.dealii::StandardExceptions::ExcMessage", align 8
  %19 = alloca %"class.dealii::StandardExceptions::ExcMessage", align 8
  %20 = load ptr, ptr %1, align 8, !tbaa !32
  %21 = getelementptr i8, ptr %20, i64 -24
  %22 = load i64, ptr %21, align 8
  %23 = getelementptr inbounds i8, ptr %1, i64 %22
  %24 = getelementptr inbounds %"class.std::ios_base", ptr %23, i64 0, i32 5
  %25 = load i32, ptr %24, align 8, !tbaa !61
  %26 = and i32 %25, 5
  %27 = icmp eq i32 %26, 0
  br i1 %27, label %39, label %28

28:                                               ; preds = %2
  call void @llvm.memset.p0.i64(ptr noundef nonnull align 8 dereferenceable(64) %5, i8 0, i64 64, i1 false)
  call void @_ZN6dealii13ExceptionBaseC2Ev(ptr noundef nonnull align 8 dereferenceable(60) %5)
  store ptr getelementptr inbounds ({ [6 x ptr] }, ptr @_ZTVN6dealii18StandardExceptions5ExcIOE, i64 0, inrange i32 0, i64 2), ptr %5, align 8, !tbaa !32
  invoke void @_ZN6dealii13ExceptionBase10set_fieldsEPKciS2_S2_S2_(ptr noundef nonnull align 8 dereferenceable(60) %5, ptr noundef nonnull @.str, i32 noundef 554, ptr noundef nonnull @.str.1, ptr noundef nonnull @.str.5, ptr noundef nonnull @.str.3)
          to label %29 unwind label %35

29:                                               ; preds = %28
  %30 = call ptr @__cxa_allocate_exception(i64 64) #17
  invoke void @_ZN6dealii13ExceptionBaseC2ERKS0_(ptr noundef nonnull align 8 dereferenceable(60) %30, ptr noundef nonnull align 8 dereferenceable(60) %5)
          to label %31 unwind label %33

31:                                               ; preds = %29
  store ptr getelementptr inbounds ({ [6 x ptr] }, ptr @_ZTVN6dealii18StandardExceptions5ExcIOE, i64 0, inrange i32 0, i64 2), ptr %30, align 8, !tbaa !32
  invoke void @__cxa_throw(ptr nonnull %30, ptr nonnull @_ZTIN6dealii18StandardExceptions5ExcIOE, ptr nonnull @_ZN6dealii13ExceptionBaseD2Ev) #21
          to label %32 unwind label %35

32:                                               ; preds = %31
  unreachable

33:                                               ; preds = %29
  %34 = landingpad { ptr, i32 }
          cleanup
  call void @__cxa_free_exception(ptr %30) #17
  br label %37

35:                                               ; preds = %31, %28
  %36 = landingpad { ptr, i32 }
          cleanup
  br label %37

37:                                               ; preds = %33, %35
  %38 = phi { ptr, i32 } [ %36, %35 ], [ %34, %33 ]
  call void @_ZN6dealii13ExceptionBaseD2Ev(ptr noundef nonnull align 8 dereferenceable(60) %5) #17
  br label %294

39:                                               ; preds = %2
  call void @llvm.lifetime.start.p0(i64 1, ptr nonnull %6) #17
  call void @llvm.lifetime.start.p0(i64 4, ptr nonnull %7) #17
  %40 = call noundef nonnull align 8 dereferenceable(16) ptr @_ZStrsIcSt11char_traitsIcEERSt13basic_istreamIT_T0_ES6_RS3_(ptr noundef nonnull align 8 dereferenceable(16) %1, ptr noundef nonnull align 1 dereferenceable(1) %6)
  %41 = load i8, ptr %6, align 1, !tbaa !67
  %42 = icmp eq i8 %41, 91
  br i1 %42, label %55, label %43

43:                                               ; preds = %39
  call void @_ZN6dealii13ExceptionBaseC2Ev(ptr noundef nonnull align 8 dereferenceable(60) %8)
  store ptr getelementptr inbounds ({ [6 x ptr] }, ptr @_ZTVN6dealii18StandardExceptions10ExcMessageE, i64 0, inrange i32 0, i64 2), ptr %8, align 8, !tbaa !32
  %44 = getelementptr inbounds %"class.dealii::StandardExceptions::ExcMessage", ptr %8, i64 0, i32 1
  store ptr @.str.8, ptr %44, align 8, !tbaa !78
  invoke void @_ZN6dealii13ExceptionBase10set_fieldsEPKciS2_S2_S2_(ptr noundef nonnull align 8 dereferenceable(60) %8, ptr noundef nonnull @.str, i32 noundef 559, ptr noundef nonnull @.str.1, ptr noundef nonnull @.str.6, ptr noundef nonnull @.str.7)
          to label %45 unwind label %53

45:                                               ; preds = %43
  %46 = call ptr @__cxa_allocate_exception(i64 72) #17
  invoke void @_ZN6dealii13ExceptionBaseC2ERKS0_(ptr noundef nonnull align 8 dereferenceable(60) %46, ptr noundef nonnull align 8 dereferenceable(60) %8)
          to label %47 unwind label %51

47:                                               ; preds = %45
  store ptr getelementptr inbounds ({ [6 x ptr] }, ptr @_ZTVN6dealii18StandardExceptions10ExcMessageE, i64 0, inrange i32 0, i64 2), ptr %46, align 8, !tbaa !32
  %48 = getelementptr inbounds %"class.dealii::StandardExceptions::ExcMessage", ptr %46, i64 0, i32 1
  %49 = load ptr, ptr %44, align 8, !tbaa !78
  store ptr %49, ptr %48, align 8, !tbaa !78
  invoke void @__cxa_throw(ptr nonnull %46, ptr nonnull @_ZTIN6dealii18StandardExceptions10ExcMessageE, ptr nonnull @_ZN6dealii13ExceptionBaseD2Ev) #21
          to label %50 unwind label %53

50:                                               ; preds = %47
  unreachable

51:                                               ; preds = %45
  %52 = landingpad { ptr, i32 }
          cleanup
  call void @__cxa_free_exception(ptr %46) #17
  br label %291

53:                                               ; preds = %47, %43
  %54 = landingpad { ptr, i32 }
          cleanup
  br label %291

55:                                               ; preds = %39
  %56 = call noundef nonnull align 8 dereferenceable(16) ptr @_ZNSirsERi(ptr noundef nonnull align 8 dereferenceable(16) %1, ptr noundef nonnull align 4 dereferenceable(4) %7)
  %57 = getelementptr inbounds %"class.dealii::SparseMatrixEZ", ptr %0, i64 0, i32 3
  %58 = load i32, ptr %7, align 4, !tbaa !59
  %59 = sext i32 %58 to i64
  call void @llvm.lifetime.start.p0(i64 8, ptr nonnull %4)
  store i64 -281470681743361, ptr %4, align 8
  %60 = getelementptr inbounds %"class.dealii::SparseMatrixEZ", ptr %0, i64 0, i32 3, i32 0, i32 0, i32 0, i32 1
  %61 = load ptr, ptr %60, align 8, !tbaa !52
  %62 = load ptr, ptr %57, align 8, !tbaa !23
  %63 = ptrtoint ptr %61 to i64
  %64 = ptrtoint ptr %62 to i64
  %65 = sub i64 %63, %64
  %66 = ashr exact i64 %65, 3
  %67 = icmp ult i64 %66, %59
  br i1 %67, label %68, label %70

68:                                               ; preds = %55
  %69 = sub nsw i64 %59, %66
  call void @_ZNSt6vectorIN6dealii14SparseMatrixEZIdE7RowInfoESaIS3_EE14_M_fill_insertEN9__gnu_cxx17__normal_iteratorIPS3_S5_EEmRKS3_(ptr noundef nonnull align 8 dereferenceable(24) %57, ptr %61, i64 noundef %69, ptr noundef nonnull align 4 dereferenceable(8) %4)
  br label %76

70:                                               ; preds = %55
  %71 = icmp ugt i64 %66, %59
  br i1 %71, label %72, label %76

72:                                               ; preds = %70
  %73 = getelementptr inbounds %"struct.dealii::SparseMatrixEZ<double>::RowInfo", ptr %62, i64 %59
  %74 = icmp eq ptr %61, %73
  br i1 %74, label %76, label %75

75:                                               ; preds = %72
  store ptr %73, ptr %60, align 8, !tbaa !27
  br label %76

76:                                               ; preds = %68, %70, %72, %75
  call void @llvm.lifetime.end.p0(i64 8, ptr nonnull %4)
  %77 = call noundef nonnull align 8 dereferenceable(16) ptr @_ZStrsIcSt11char_traitsIcEERSt13basic_istreamIT_T0_ES6_RS3_(ptr noundef nonnull align 8 dereferenceable(16) %1, ptr noundef nonnull align 1 dereferenceable(1) %6)
  %78 = load i8, ptr %6, align 1, !tbaa !67
  %79 = icmp eq i8 %78, 93
  br i1 %79, label %92, label %80

80:                                               ; preds = %76
  call void @_ZN6dealii13ExceptionBaseC2Ev(ptr noundef nonnull align 8 dereferenceable(60) %9)
  store ptr getelementptr inbounds ({ [6 x ptr] }, ptr @_ZTVN6dealii18StandardExceptions10ExcMessageE, i64 0, inrange i32 0, i64 2), ptr %9, align 8, !tbaa !32
  %81 = getelementptr inbounds %"class.dealii::StandardExceptions::ExcMessage", ptr %9, i64 0, i32 1
  store ptr @.str.8, ptr %81, align 8, !tbaa !78
  invoke void @_ZN6dealii13ExceptionBase10set_fieldsEPKciS2_S2_S2_(ptr noundef nonnull align 8 dereferenceable(60) %9, ptr noundef nonnull @.str, i32 noundef 563, ptr noundef nonnull @.str.1, ptr noundef nonnull @.str.9, ptr noundef nonnull @.str.7)
          to label %82 unwind label %90

82:                                               ; preds = %80
  %83 = call ptr @__cxa_allocate_exception(i64 72) #17
  invoke void @_ZN6dealii13ExceptionBaseC2ERKS0_(ptr noundef nonnull align 8 dereferenceable(60) %83, ptr noundef nonnull align 8 dereferenceable(60) %9)
          to label %84 unwind label %88

84:                                               ; preds = %82
  store ptr getelementptr inbounds ({ [6 x ptr] }, ptr @_ZTVN6dealii18StandardExceptions10ExcMessageE, i64 0, inrange i32 0, i64 2), ptr %83, align 8, !tbaa !32
  %85 = getelementptr inbounds %"class.dealii::StandardExceptions::ExcMessage", ptr %83, i64 0, i32 1
  %86 = load ptr, ptr %81, align 8, !tbaa !78
  store ptr %86, ptr %85, align 8, !tbaa !78
  invoke void @__cxa_throw(ptr nonnull %83, ptr nonnull @_ZTIN6dealii18StandardExceptions10ExcMessageE, ptr nonnull @_ZN6dealii13ExceptionBaseD2Ev) #21
          to label %87 unwind label %90

87:                                               ; preds = %84
  unreachable

88:                                               ; preds = %82
  %89 = landingpad { ptr, i32 }
          cleanup
  call void @__cxa_free_exception(ptr %83) #17
  br label %291

90:                                               ; preds = %84, %80
  %91 = landingpad { ptr, i32 }
          cleanup
  br label %291

92:                                               ; preds = %76
  %93 = call noundef nonnull align 8 dereferenceable(16) ptr @_ZStrsIcSt11char_traitsIcEERSt13basic_istreamIT_T0_ES6_RS3_(ptr noundef nonnull align 8 dereferenceable(16) %1, ptr noundef nonnull align 1 dereferenceable(1) %6)
  %94 = load i8, ptr %6, align 1, !tbaa !67
  %95 = icmp eq i8 %94, 91
  br i1 %95, label %108, label %96

96:                                               ; preds = %92
  call void @_ZN6dealii13ExceptionBaseC2Ev(ptr noundef nonnull align 8 dereferenceable(60) %10)
  store ptr getelementptr inbounds ({ [6 x ptr] }, ptr @_ZTVN6dealii18StandardExceptions10ExcMessageE, i64 0, inrange i32 0, i64 2), ptr %10, align 8, !tbaa !32
  %97 = getelementptr inbounds %"class.dealii::StandardExceptions::ExcMessage", ptr %10, i64 0, i32 1
  store ptr @.str.8, ptr %97, align 8, !tbaa !78
  invoke void @_ZN6dealii13ExceptionBase10set_fieldsEPKciS2_S2_S2_(ptr noundef nonnull align 8 dereferenceable(60) %10, ptr noundef nonnull @.str, i32 noundef 564, ptr noundef nonnull @.str.1, ptr noundef nonnull @.str.6, ptr noundef nonnull @.str.7)
          to label %98 unwind label %106

98:                                               ; preds = %96
  %99 = call ptr @__cxa_allocate_exception(i64 72) #17
  invoke void @_ZN6dealii13ExceptionBaseC2ERKS0_(ptr noundef nonnull align 8 dereferenceable(60) %99, ptr noundef nonnull align 8 dereferenceable(60) %10)
          to label %100 unwind label %104

100:                                              ; preds = %98
  store ptr getelementptr inbounds ({ [6 x ptr] }, ptr @_ZTVN6dealii18StandardExceptions10ExcMessageE, i64 0, inrange i32 0, i64 2), ptr %99, align 8, !tbaa !32
  %101 = getelementptr inbounds %"class.dealii::StandardExceptions::ExcMessage", ptr %99, i64 0, i32 1
  %102 = load ptr, ptr %97, align 8, !tbaa !78
  store ptr %102, ptr %101, align 8, !tbaa !78
  invoke void @__cxa_throw(ptr nonnull %99, ptr nonnull @_ZTIN6dealii18StandardExceptions10ExcMessageE, ptr nonnull @_ZN6dealii13ExceptionBaseD2Ev) #21
          to label %103 unwind label %106

103:                                              ; preds = %100
  unreachable

104:                                              ; preds = %98
  %105 = landingpad { ptr, i32 }
          cleanup
  call void @__cxa_free_exception(ptr %99) #17
  br label %291

106:                                              ; preds = %100, %96
  %107 = landingpad { ptr, i32 }
          cleanup
  br label %291

108:                                              ; preds = %92
  %109 = getelementptr inbounds %"class.dealii::SparseMatrixEZ", ptr %0, i64 0, i32 1
  %110 = call noundef nonnull align 8 dereferenceable(16) ptr @_ZNSi10_M_extractIjEERSiRT_(ptr noundef nonnull align 8 dereferenceable(16) %1, ptr noundef nonnull align 4 dereferenceable(4) %109)
  %111 = call noundef nonnull align 8 dereferenceable(16) ptr @_ZStrsIcSt11char_traitsIcEERSt13basic_istreamIT_T0_ES6_RS3_(ptr noundef nonnull align 8 dereferenceable(16) %1, ptr noundef nonnull align 1 dereferenceable(1) %6)
  %112 = load i8, ptr %6, align 1, !tbaa !67
  %113 = icmp eq i8 %112, 93
  br i1 %113, label %126, label %114

114:                                              ; preds = %108
  call void @_ZN6dealii13ExceptionBaseC2Ev(ptr noundef nonnull align 8 dereferenceable(60) %11)
  store ptr getelementptr inbounds ({ [6 x ptr] }, ptr @_ZTVN6dealii18StandardExceptions10ExcMessageE, i64 0, inrange i32 0, i64 2), ptr %11, align 8, !tbaa !32
  %115 = getelementptr inbounds %"class.dealii::StandardExceptions::ExcMessage", ptr %11, i64 0, i32 1
  store ptr @.str.8, ptr %115, align 8, !tbaa !78
  invoke void @_ZN6dealii13ExceptionBase10set_fieldsEPKciS2_S2_S2_(ptr noundef nonnull align 8 dereferenceable(60) %11, ptr noundef nonnull @.str, i32 noundef 567, ptr noundef nonnull @.str.1, ptr noundef nonnull @.str.9, ptr noundef nonnull @.str.7)
          to label %116 unwind label %124

116:                                              ; preds = %114
  %117 = call ptr @__cxa_allocate_exception(i64 72) #17
  invoke void @_ZN6dealii13ExceptionBaseC2ERKS0_(ptr noundef nonnull align 8 dereferenceable(60) %117, ptr noundef nonnull align 8 dereferenceable(60) %11)
          to label %118 unwind label %122

118:                                              ; preds = %116
  store ptr getelementptr inbounds ({ [6 x ptr] }, ptr @_ZTVN6dealii18StandardExceptions10ExcMessageE, i64 0, inrange i32 0, i64 2), ptr %117, align 8, !tbaa !32
  %119 = getelementptr inbounds %"class.dealii::StandardExceptions::ExcMessage", ptr %117, i64 0, i32 1
  %120 = load ptr, ptr %115, align 8, !tbaa !78
  store ptr %120, ptr %119, align 8, !tbaa !78
  invoke void @__cxa_throw(ptr nonnull %117, ptr nonnull @_ZTIN6dealii18StandardExceptions10ExcMessageE, ptr nonnull @_ZN6dealii13ExceptionBaseD2Ev) #21
          to label %121 unwind label %124

121:                                              ; preds = %118
  unreachable

122:                                              ; preds = %116
  %123 = landingpad { ptr, i32 }
          cleanup
  call void @__cxa_free_exception(ptr %117) #17
  br label %291

124:                                              ; preds = %118, %114
  %125 = landingpad { ptr, i32 }
          cleanup
  br label %291

126:                                              ; preds = %108
  %127 = call noundef nonnull align 8 dereferenceable(16) ptr @_ZStrsIcSt11char_traitsIcEERSt13basic_istreamIT_T0_ES6_RS3_(ptr noundef nonnull align 8 dereferenceable(16) %1, ptr noundef nonnull align 1 dereferenceable(1) %6)
  %128 = load i8, ptr %6, align 1, !tbaa !67
  %129 = icmp eq i8 %128, 91
  br i1 %129, label %142, label %130

130:                                              ; preds = %126
  call void @_ZN6dealii13ExceptionBaseC2Ev(ptr noundef nonnull align 8 dereferenceable(60) %12)
  store ptr getelementptr inbounds ({ [6 x ptr] }, ptr @_ZTVN6dealii18StandardExceptions10ExcMessageE, i64 0, inrange i32 0, i64 2), ptr %12, align 8, !tbaa !32
  %131 = getelementptr inbounds %"class.dealii::StandardExceptions::ExcMessage", ptr %12, i64 0, i32 1
  store ptr @.str.8, ptr %131, align 8, !tbaa !78
  invoke void @_ZN6dealii13ExceptionBase10set_fieldsEPKciS2_S2_S2_(ptr noundef nonnull align 8 dereferenceable(60) %12, ptr noundef nonnull @.str, i32 noundef 568, ptr noundef nonnull @.str.1, ptr noundef nonnull @.str.6, ptr noundef nonnull @.str.7)
          to label %132 unwind label %140

132:                                              ; preds = %130
  %133 = call ptr @__cxa_allocate_exception(i64 72) #17
  invoke void @_ZN6dealii13ExceptionBaseC2ERKS0_(ptr noundef nonnull align 8 dereferenceable(60) %133, ptr noundef nonnull align 8 dereferenceable(60) %12)
          to label %134 unwind label %138

134:                                              ; preds = %132
  store ptr getelementptr inbounds ({ [6 x ptr] }, ptr @_ZTVN6dealii18StandardExceptions10ExcMessageE, i64 0, inrange i32 0, i64 2), ptr %133, align 8, !tbaa !32
  %135 = getelementptr inbounds %"class.dealii::StandardExceptions::ExcMessage", ptr %133, i64 0, i32 1
  %136 = load ptr, ptr %131, align 8, !tbaa !78
  store ptr %136, ptr %135, align 8, !tbaa !78
  invoke void @__cxa_throw(ptr nonnull %133, ptr nonnull @_ZTIN6dealii18StandardExceptions10ExcMessageE, ptr nonnull @_ZN6dealii13ExceptionBaseD2Ev) #21
          to label %137 unwind label %140

137:                                              ; preds = %134
  unreachable

138:                                              ; preds = %132
  %139 = landingpad { ptr, i32 }
          cleanup
  call void @__cxa_free_exception(ptr %133) #17
  br label %291

140:                                              ; preds = %134, %130
  %141 = landingpad { ptr, i32 }
          cleanup
  br label %291

142:                                              ; preds = %126
  %143 = call noundef nonnull align 8 dereferenceable(16) ptr @_ZNSirsERi(ptr noundef nonnull align 8 dereferenceable(16) %1, ptr noundef nonnull align 4 dereferenceable(4) %7)
  %144 = getelementptr inbounds %"class.dealii::SparseMatrixEZ", ptr %0, i64 0, i32 4
  %145 = load i32, ptr %7, align 4, !tbaa !59
  %146 = sext i32 %145 to i64
  call void @llvm.lifetime.start.p0(i64 16, ptr nonnull %3)
  store i32 -1, ptr %3, align 8
  %147 = getelementptr inbounds { i32, double }, ptr %3, i64 0, i32 1
  store double 0.000000e+00, ptr %147, align 8
  %148 = getelementptr inbounds %"class.dealii::SparseMatrixEZ", ptr %0, i64 0, i32 4, i32 0, i32 0, i32 0, i32 1
  %149 = load ptr, ptr %148, align 8, !tbaa !52
  %150 = load ptr, ptr %144, align 8, !tbaa !25
  %151 = ptrtoint ptr %149 to i64
  %152 = ptrtoint ptr %150 to i64
  %153 = sub i64 %151, %152
  %154 = ashr exact i64 %153, 4
  %155 = icmp ult i64 %154, %146
  br i1 %155, label %156, label %158

156:                                              ; preds = %142
  %157 = sub nsw i64 %146, %154
  call void @_ZNSt6vectorIN6dealii14SparseMatrixEZIdE5EntryESaIS3_EE14_M_fill_insertEN9__gnu_cxx17__normal_iteratorIPS3_S5_EEmRKS3_(ptr noundef nonnull align 8 dereferenceable(24) %144, ptr %149, i64 noundef %157, ptr noundef nonnull align 8 dereferenceable(16) %3)
  br label %164

158:                                              ; preds = %142
  %159 = icmp ugt i64 %154, %146
  br i1 %159, label %160, label %164

160:                                              ; preds = %158
  %161 = getelementptr inbounds %"struct.dealii::SparseMatrixEZ<double>::Entry", ptr %150, i64 %146
  %162 = icmp eq ptr %149, %161
  br i1 %162, label %164, label %163

163:                                              ; preds = %160
  store ptr %161, ptr %148, align 8, !tbaa !53
  br label %164

164:                                              ; preds = %156, %158, %160, %163
  call void @llvm.lifetime.end.p0(i64 16, ptr nonnull %3)
  %165 = call noundef nonnull align 8 dereferenceable(16) ptr @_ZStrsIcSt11char_traitsIcEERSt13basic_istreamIT_T0_ES6_RS3_(ptr noundef nonnull align 8 dereferenceable(16) %1, ptr noundef nonnull align 1 dereferenceable(1) %6)
  %166 = load i8, ptr %6, align 1, !tbaa !67
  %167 = icmp eq i8 %166, 93
  br i1 %167, label %180, label %168

168:                                              ; preds = %164
  call void @_ZN6dealii13ExceptionBaseC2Ev(ptr noundef nonnull align 8 dereferenceable(60) %13)
  store ptr getelementptr inbounds ({ [6 x ptr] }, ptr @_ZTVN6dealii18StandardExceptions10ExcMessageE, i64 0, inrange i32 0, i64 2), ptr %13, align 8, !tbaa !32
  %169 = getelementptr inbounds %"class.dealii::StandardExceptions::ExcMessage", ptr %13, i64 0, i32 1
  store ptr @.str.8, ptr %169, align 8, !tbaa !78
  invoke void @_ZN6dealii13ExceptionBase10set_fieldsEPKciS2_S2_S2_(ptr noundef nonnull align 8 dereferenceable(60) %13, ptr noundef nonnull @.str, i32 noundef 572, ptr noundef nonnull @.str.1, ptr noundef nonnull @.str.9, ptr noundef nonnull @.str.7)
          to label %170 unwind label %178

170:                                              ; preds = %168
  %171 = call ptr @__cxa_allocate_exception(i64 72) #17
  invoke void @_ZN6dealii13ExceptionBaseC2ERKS0_(ptr noundef nonnull align 8 dereferenceable(60) %171, ptr noundef nonnull align 8 dereferenceable(60) %13)
          to label %172 unwind label %176

172:                                              ; preds = %170
  store ptr getelementptr inbounds ({ [6 x ptr] }, ptr @_ZTVN6dealii18StandardExceptions10ExcMessageE, i64 0, inrange i32 0, i64 2), ptr %171, align 8, !tbaa !32
  %173 = getelementptr inbounds %"class.dealii::StandardExceptions::ExcMessage", ptr %171, i64 0, i32 1
  %174 = load ptr, ptr %169, align 8, !tbaa !78
  store ptr %174, ptr %173, align 8, !tbaa !78
  invoke void @__cxa_throw(ptr nonnull %171, ptr nonnull @_ZTIN6dealii18StandardExceptions10ExcMessageE, ptr nonnull @_ZN6dealii13ExceptionBaseD2Ev) #21
          to label %175 unwind label %178

175:                                              ; preds = %172
  unreachable

176:                                              ; preds = %170
  %177 = landingpad { ptr, i32 }
          cleanup
  call void @__cxa_free_exception(ptr %171) #17
  br label %291

178:                                              ; preds = %172, %168
  %179 = landingpad { ptr, i32 }
          cleanup
  br label %291

180:                                              ; preds = %164
  %181 = call noundef nonnull align 8 dereferenceable(16) ptr @_ZStrsIcSt11char_traitsIcEERSt13basic_istreamIT_T0_ES6_RS3_(ptr noundef nonnull align 8 dereferenceable(16) %1, ptr noundef nonnull align 1 dereferenceable(1) %6)
  %182 = load i8, ptr %6, align 1, !tbaa !67
  %183 = icmp eq i8 %182, 91
  br i1 %183, label %196, label %184

184:                                              ; preds = %180
  call void @_ZN6dealii13ExceptionBaseC2Ev(ptr noundef nonnull align 8 dereferenceable(60) %14)
  store ptr getelementptr inbounds ({ [6 x ptr] }, ptr @_ZTVN6dealii18StandardExceptions10ExcMessageE, i64 0, inrange i32 0, i64 2), ptr %14, align 8, !tbaa !32
  %185 = getelementptr inbounds %"class.dealii::StandardExceptions::ExcMessage", ptr %14, i64 0, i32 1
  store ptr @.str.8, ptr %185, align 8, !tbaa !78
  invoke void @_ZN6dealii13ExceptionBase10set_fieldsEPKciS2_S2_S2_(ptr noundef nonnull align 8 dereferenceable(60) %14, ptr noundef nonnull @.str, i32 noundef 573, ptr noundef nonnull @.str.1, ptr noundef nonnull @.str.6, ptr noundef nonnull @.str.7)
          to label %186 unwind label %194

186:                                              ; preds = %184
  %187 = call ptr @__cxa_allocate_exception(i64 72) #17
  invoke void @_ZN6dealii13ExceptionBaseC2ERKS0_(ptr noundef nonnull align 8 dereferenceable(60) %187, ptr noundef nonnull align 8 dereferenceable(60) %14)
          to label %188 unwind label %192

188:                                              ; preds = %186
  store ptr getelementptr inbounds ({ [6 x ptr] }, ptr @_ZTVN6dealii18StandardExceptions10ExcMessageE, i64 0, inrange i32 0, i64 2), ptr %187, align 8, !tbaa !32
  %189 = getelementptr inbounds %"class.dealii::StandardExceptions::ExcMessage", ptr %187, i64 0, i32 1
  %190 = load ptr, ptr %185, align 8, !tbaa !78
  store ptr %190, ptr %189, align 8, !tbaa !78
  invoke void @__cxa_throw(ptr nonnull %187, ptr nonnull @_ZTIN6dealii18StandardExceptions10ExcMessageE, ptr nonnull @_ZN6dealii13ExceptionBaseD2Ev) #21
          to label %191 unwind label %194

191:                                              ; preds = %188
  unreachable

192:                                              ; preds = %186
  %193 = landingpad { ptr, i32 }
          cleanup
  call void @__cxa_free_exception(ptr %187) #17
  br label %291

194:                                              ; preds = %188, %184
  %195 = landingpad { ptr, i32 }
          cleanup
  br label %291

196:                                              ; preds = %180
  %197 = getelementptr inbounds %"class.dealii::SparseMatrixEZ", ptr %0, i64 0, i32 5
  %198 = call noundef nonnull align 8 dereferenceable(16) ptr @_ZNSi10_M_extractIjEERSiRT_(ptr noundef nonnull align 8 dereferenceable(16) %1, ptr noundef nonnull align 4 dereferenceable(4) %197)
  %199 = call noundef nonnull align 8 dereferenceable(16) ptr @_ZStrsIcSt11char_traitsIcEERSt13basic_istreamIT_T0_ES6_RS3_(ptr noundef nonnull align 8 dereferenceable(16) %1, ptr noundef nonnull align 1 dereferenceable(1) %6)
  %200 = load i8, ptr %6, align 1, !tbaa !67
  %201 = icmp eq i8 %200, 93
  br i1 %201, label %214, label %202

202:                                              ; preds = %196
  call void @_ZN6dealii13ExceptionBaseC2Ev(ptr noundef nonnull align 8 dereferenceable(60) %15)
  store ptr getelementptr inbounds ({ [6 x ptr] }, ptr @_ZTVN6dealii18StandardExceptions10ExcMessageE, i64 0, inrange i32 0, i64 2), ptr %15, align 8, !tbaa !32
  %203 = getelementptr inbounds %"class.dealii::StandardExceptions::ExcMessage", ptr %15, i64 0, i32 1
  store ptr @.str.8, ptr %203, align 8, !tbaa !78
  invoke void @_ZN6dealii13ExceptionBase10set_fieldsEPKciS2_S2_S2_(ptr noundef nonnull align 8 dereferenceable(60) %15, ptr noundef nonnull @.str, i32 noundef 576, ptr noundef nonnull @.str.1, ptr noundef nonnull @.str.9, ptr noundef nonnull @.str.7)
          to label %204 unwind label %212

204:                                              ; preds = %202
  %205 = call ptr @__cxa_allocate_exception(i64 72) #17
  invoke void @_ZN6dealii13ExceptionBaseC2ERKS0_(ptr noundef nonnull align 8 dereferenceable(60) %205, ptr noundef nonnull align 8 dereferenceable(60) %15)
          to label %206 unwind label %210

206:                                              ; preds = %204
  store ptr getelementptr inbounds ({ [6 x ptr] }, ptr @_ZTVN6dealii18StandardExceptions10ExcMessageE, i64 0, inrange i32 0, i64 2), ptr %205, align 8, !tbaa !32
  %207 = getelementptr inbounds %"class.dealii::StandardExceptions::ExcMessage", ptr %205, i64 0, i32 1
  %208 = load ptr, ptr %203, align 8, !tbaa !78
  store ptr %208, ptr %207, align 8, !tbaa !78
  invoke void @__cxa_throw(ptr nonnull %205, ptr nonnull @_ZTIN6dealii18StandardExceptions10ExcMessageE, ptr nonnull @_ZN6dealii13ExceptionBaseD2Ev) #21
          to label %209 unwind label %212

209:                                              ; preds = %206
  unreachable

210:                                              ; preds = %204
  %211 = landingpad { ptr, i32 }
          cleanup
  call void @__cxa_free_exception(ptr %205) #17
  br label %291

212:                                              ; preds = %206, %202
  %213 = landingpad { ptr, i32 }
          cleanup
  br label %291

214:                                              ; preds = %196
  %215 = call noundef nonnull align 8 dereferenceable(16) ptr @_ZStrsIcSt11char_traitsIcEERSt13basic_istreamIT_T0_ES6_RS3_(ptr noundef nonnull align 8 dereferenceable(16) %1, ptr noundef nonnull align 1 dereferenceable(1) %6)
  %216 = load i8, ptr %6, align 1, !tbaa !67
  %217 = icmp eq i8 %216, 91
  br i1 %217, label %230, label %218

218:                                              ; preds = %214
  call void @_ZN6dealii13ExceptionBaseC2Ev(ptr noundef nonnull align 8 dereferenceable(60) %16)
  store ptr getelementptr inbounds ({ [6 x ptr] }, ptr @_ZTVN6dealii18StandardExceptions10ExcMessageE, i64 0, inrange i32 0, i64 2), ptr %16, align 8, !tbaa !32
  %219 = getelementptr inbounds %"class.dealii::StandardExceptions::ExcMessage", ptr %16, i64 0, i32 1
  store ptr @.str.8, ptr %219, align 8, !tbaa !78
  invoke void @_ZN6dealii13ExceptionBase10set_fieldsEPKciS2_S2_S2_(ptr noundef nonnull align 8 dereferenceable(60) %16, ptr noundef nonnull @.str, i32 noundef 577, ptr noundef nonnull @.str.1, ptr noundef nonnull @.str.6, ptr noundef nonnull @.str.7)
          to label %220 unwind label %228

220:                                              ; preds = %218
  %221 = call ptr @__cxa_allocate_exception(i64 72) #17
  invoke void @_ZN6dealii13ExceptionBaseC2ERKS0_(ptr noundef nonnull align 8 dereferenceable(60) %221, ptr noundef nonnull align 8 dereferenceable(60) %16)
          to label %222 unwind label %226

222:                                              ; preds = %220
  store ptr getelementptr inbounds ({ [6 x ptr] }, ptr @_ZTVN6dealii18StandardExceptions10ExcMessageE, i64 0, inrange i32 0, i64 2), ptr %221, align 8, !tbaa !32
  %223 = getelementptr inbounds %"class.dealii::StandardExceptions::ExcMessage", ptr %221, i64 0, i32 1
  %224 = load ptr, ptr %219, align 8, !tbaa !78
  store ptr %224, ptr %223, align 8, !tbaa !78
  invoke void @__cxa_throw(ptr nonnull %221, ptr nonnull @_ZTIN6dealii18StandardExceptions10ExcMessageE, ptr nonnull @_ZN6dealii13ExceptionBaseD2Ev) #21
          to label %225 unwind label %228

225:                                              ; preds = %222
  unreachable

226:                                              ; preds = %220
  %227 = landingpad { ptr, i32 }
          cleanup
  call void @__cxa_free_exception(ptr %221) #17
  br label %291

228:                                              ; preds = %222, %218
  %229 = landingpad { ptr, i32 }
          cleanup
  br label %291

230:                                              ; preds = %214
  %231 = load ptr, ptr %57, align 8, !tbaa !23
  %232 = load ptr, ptr %60, align 8, !tbaa !27
  %233 = ptrtoint ptr %232 to i64
  %234 = ptrtoint ptr %231 to i64
  %235 = sub i64 %233, %234
  %236 = call noundef nonnull align 8 dereferenceable(16) ptr @_ZNSi4readEPcl(ptr noundef nonnull align 8 dereferenceable(16) %1, ptr noundef nonnull %231, i64 noundef %235)
  %237 = call noundef nonnull align 8 dereferenceable(16) ptr @_ZStrsIcSt11char_traitsIcEERSt13basic_istreamIT_T0_ES6_RS3_(ptr noundef nonnull align 8 dereferenceable(16) %1, ptr noundef nonnull align 1 dereferenceable(1) %6)
  %238 = load i8, ptr %6, align 1, !tbaa !67
  %239 = icmp eq i8 %238, 93
  br i1 %239, label %252, label %240

240:                                              ; preds = %230
  call void @_ZN6dealii13ExceptionBaseC2Ev(ptr noundef nonnull align 8 dereferenceable(60) %17)
  store ptr getelementptr inbounds ({ [6 x ptr] }, ptr @_ZTVN6dealii18StandardExceptions10ExcMessageE, i64 0, inrange i32 0, i64 2), ptr %17, align 8, !tbaa !32
  %241 = getelementptr inbounds %"class.dealii::StandardExceptions::ExcMessage", ptr %17, i64 0, i32 1
  store ptr @.str.8, ptr %241, align 8, !tbaa !78
  invoke void @_ZN6dealii13ExceptionBase10set_fieldsEPKciS2_S2_S2_(ptr noundef nonnull align 8 dereferenceable(60) %17, ptr noundef nonnull @.str, i32 noundef 583, ptr noundef nonnull @.str.1, ptr noundef nonnull @.str.9, ptr noundef nonnull @.str.7)
          to label %242 unwind label %250

242:                                              ; preds = %240
  %243 = call ptr @__cxa_allocate_exception(i64 72) #17
  invoke void @_ZN6dealii13ExceptionBaseC2ERKS0_(ptr noundef nonnull align 8 dereferenceable(60) %243, ptr noundef nonnull align 8 dereferenceable(60) %17)
          to label %244 unwind label %248

244:                                              ; preds = %242
  store ptr getelementptr inbounds ({ [6 x ptr] }, ptr @_ZTVN6dealii18StandardExceptions10ExcMessageE, i64 0, inrange i32 0, i64 2), ptr %243, align 8, !tbaa !32
  %245 = getelementptr inbounds %"class.dealii::StandardExceptions::ExcMessage", ptr %243, i64 0, i32 1
  %246 = load ptr, ptr %241, align 8, !tbaa !78
  store ptr %246, ptr %245, align 8, !tbaa !78
  invoke void @__cxa_throw(ptr nonnull %243, ptr nonnull @_ZTIN6dealii18StandardExceptions10ExcMessageE, ptr nonnull @_ZN6dealii13ExceptionBaseD2Ev) #21
          to label %247 unwind label %250

247:                                              ; preds = %244
  unreachable

248:                                              ; preds = %242
  %249 = landingpad { ptr, i32 }
          cleanup
  call void @__cxa_free_exception(ptr %243) #17
  br label %291

250:                                              ; preds = %244, %240
  %251 = landingpad { ptr, i32 }
          cleanup
  br label %291

252:                                              ; preds = %230
  %253 = call noundef nonnull align 8 dereferenceable(16) ptr @_ZStrsIcSt11char_traitsIcEERSt13basic_istreamIT_T0_ES6_RS3_(ptr noundef nonnull align 8 dereferenceable(16) %1, ptr noundef nonnull align 1 dereferenceable(1) %6)
  %254 = load i8, ptr %6, align 1, !tbaa !67
  %255 = icmp eq i8 %254, 91
  br i1 %255, label %268, label %256

256:                                              ; preds = %252
  call void @_ZN6dealii13ExceptionBaseC2Ev(ptr noundef nonnull align 8 dereferenceable(60) %18)
  store ptr getelementptr inbounds ({ [6 x ptr] }, ptr @_ZTVN6dealii18StandardExceptions10ExcMessageE, i64 0, inrange i32 0, i64 2), ptr %18, align 8, !tbaa !32
  %257 = getelementptr inbounds %"class.dealii::StandardExceptions::ExcMessage", ptr %18, i64 0, i32 1
  store ptr @.str.8, ptr %257, align 8, !tbaa !78
  invoke void @_ZN6dealii13ExceptionBase10set_fieldsEPKciS2_S2_S2_(ptr noundef nonnull align 8 dereferenceable(60) %18, ptr noundef nonnull @.str, i32 noundef 584, ptr noundef nonnull @.str.1, ptr noundef nonnull @.str.6, ptr noundef nonnull @.str.7)
          to label %258 unwind label %266

258:                                              ; preds = %256
  %259 = call ptr @__cxa_allocate_exception(i64 72) #17
  invoke void @_ZN6dealii13ExceptionBaseC2ERKS0_(ptr noundef nonnull align 8 dereferenceable(60) %259, ptr noundef nonnull align 8 dereferenceable(60) %18)
          to label %260 unwind label %264

260:                                              ; preds = %258
  store ptr getelementptr inbounds ({ [6 x ptr] }, ptr @_ZTVN6dealii18StandardExceptions10ExcMessageE, i64 0, inrange i32 0, i64 2), ptr %259, align 8, !tbaa !32
  %261 = getelementptr inbounds %"class.dealii::StandardExceptions::ExcMessage", ptr %259, i64 0, i32 1
  %262 = load ptr, ptr %257, align 8, !tbaa !78
  store ptr %262, ptr %261, align 8, !tbaa !78
  invoke void @__cxa_throw(ptr nonnull %259, ptr nonnull @_ZTIN6dealii18StandardExceptions10ExcMessageE, ptr nonnull @_ZN6dealii13ExceptionBaseD2Ev) #21
          to label %263 unwind label %266

263:                                              ; preds = %260
  unreachable

264:                                              ; preds = %258
  %265 = landingpad { ptr, i32 }
          cleanup
  call void @__cxa_free_exception(ptr %259) #17
  br label %291

266:                                              ; preds = %260, %256
  %267 = landingpad { ptr, i32 }
          cleanup
  br label %291

268:                                              ; preds = %252
  %269 = load ptr, ptr %144, align 8, !tbaa !25
  %270 = load ptr, ptr %148, align 8, !tbaa !53
  %271 = ptrtoint ptr %270 to i64
  %272 = ptrtoint ptr %269 to i64
  %273 = sub i64 %271, %272
  %274 = call noundef nonnull align 8 dereferenceable(16) ptr @_ZNSi4readEPcl(ptr noundef nonnull align 8 dereferenceable(16) %1, ptr noundef nonnull %269, i64 noundef %273)
  %275 = call noundef nonnull align 8 dereferenceable(16) ptr @_ZStrsIcSt11char_traitsIcEERSt13basic_istreamIT_T0_ES6_RS3_(ptr noundef nonnull align 8 dereferenceable(16) %1, ptr noundef nonnull align 1 dereferenceable(1) %6)
  %276 = load i8, ptr %6, align 1, !tbaa !67
  %277 = icmp eq i8 %276, 93
  br i1 %277, label %290, label %278

278:                                              ; preds = %268
  call void @_ZN6dealii13ExceptionBaseC2Ev(ptr noundef nonnull align 8 dereferenceable(60) %19)
  store ptr getelementptr inbounds ({ [6 x ptr] }, ptr @_ZTVN6dealii18StandardExceptions10ExcMessageE, i64 0, inrange i32 0, i64 2), ptr %19, align 8, !tbaa !32
  %279 = getelementptr inbounds %"class.dealii::StandardExceptions::ExcMessage", ptr %19, i64 0, i32 1
  store ptr @.str.8, ptr %279, align 8, !tbaa !78
  invoke void @_ZN6dealii13ExceptionBase10set_fieldsEPKciS2_S2_S2_(ptr noundef nonnull align 8 dereferenceable(60) %19, ptr noundef nonnull @.str, i32 noundef 589, ptr noundef nonnull @.str.1, ptr noundef nonnull @.str.9, ptr noundef nonnull @.str.7)
          to label %280 unwind label %288

280:                                              ; preds = %278
  %281 = call ptr @__cxa_allocate_exception(i64 72) #17
  invoke void @_ZN6dealii13ExceptionBaseC2ERKS0_(ptr noundef nonnull align 8 dereferenceable(60) %281, ptr noundef nonnull align 8 dereferenceable(60) %19)
          to label %282 unwind label %286

282:                                              ; preds = %280
  store ptr getelementptr inbounds ({ [6 x ptr] }, ptr @_ZTVN6dealii18StandardExceptions10ExcMessageE, i64 0, inrange i32 0, i64 2), ptr %281, align 8, !tbaa !32
  %283 = getelementptr inbounds %"class.dealii::StandardExceptions::ExcMessage", ptr %281, i64 0, i32 1
  %284 = load ptr, ptr %279, align 8, !tbaa !78
  store ptr %284, ptr %283, align 8, !tbaa !78
  invoke void @__cxa_throw(ptr nonnull %281, ptr nonnull @_ZTIN6dealii18StandardExceptions10ExcMessageE, ptr nonnull @_ZN6dealii13ExceptionBaseD2Ev) #21
          to label %285 unwind label %288

285:                                              ; preds = %282
  unreachable

286:                                              ; preds = %280
  %287 = landingpad { ptr, i32 }
          cleanup
  call void @__cxa_free_exception(ptr %281) #17
  br label %291

288:                                              ; preds = %282, %278
  %289 = landingpad { ptr, i32 }
          cleanup
  br label %291

290:                                              ; preds = %268
  call void @llvm.lifetime.end.p0(i64 4, ptr nonnull %7) #17
  call void @llvm.lifetime.end.p0(i64 1, ptr nonnull %6) #17
  ret void

291:                                              ; preds = %288, %286, %266, %264, %250, %248, %228, %226, %212, %210, %194, %192, %178, %176, %140, %138, %124, %122, %106, %104, %90, %88, %53, %51
  %292 = phi ptr [ %8, %51 ], [ %8, %53 ], [ %9, %88 ], [ %9, %90 ], [ %10, %104 ], [ %10, %106 ], [ %11, %122 ], [ %11, %124 ], [ %12, %138 ], [ %12, %140 ], [ %13, %176 ], [ %13, %178 ], [ %14, %192 ], [ %14, %194 ], [ %15, %210 ], [ %15, %212 ], [ %16, %226 ], [ %16, %228 ], [ %17, %248 ], [ %17, %250 ], [ %18, %264 ], [ %18, %266 ], [ %19, %286 ], [ %19, %288 ]
  %293 = phi { ptr, i32 } [ %52, %51 ], [ %54, %53 ], [ %89, %88 ], [ %91, %90 ], [ %105, %104 ], [ %107, %106 ], [ %123, %122 ], [ %125, %124 ], [ %139, %138 ], [ %141, %140 ], [ %177, %176 ], [ %179, %178 ], [ %193, %192 ], [ %195, %194 ], [ %211, %210 ], [ %213, %212 ], [ %227, %226 ], [ %229, %228 ], [ %249, %248 ], [ %251, %250 ], [ %265, %264 ], [ %267, %266 ], [ %287, %286 ], [ %289, %288 ]
  call void @_ZN6dealii13ExceptionBaseD2Ev(ptr noundef nonnull align 8 dereferenceable(72) %292) #17
  call void @llvm.lifetime.end.p0(i64 4, ptr nonnull %7) #17
  call void @llvm.lifetime.end.p0(i64 1, ptr nonnull %6) #17
  br label %294

294:                                              ; preds = %291, %37
  %295 = phi { ptr, i32 } [ %293, %291 ], [ %38, %37 ]
  resume { ptr, i32 } %295
}

declare noundef nonnull align 8 dereferenceable(16) ptr @_ZStrsIcSt11char_traitsIcEERSt13basic_istreamIT_T0_ES6_RS3_(ptr noundef nonnull align 8 dereferenceable(16), ptr noundef nonnull align 1 dereferenceable(1)) local_unnamed_addr #3

declare noundef nonnull align 8 dereferenceable(16) ptr @_ZNSirsERi(ptr noundef nonnull align 8 dereferenceable(16), ptr noundef nonnull align 4 dereferenceable(4)) local_unnamed_addr #3

declare noundef nonnull align 8 dereferenceable(16) ptr @_ZNSi4readEPcl(ptr noundef nonnull align 8 dereferenceable(16), ptr noundef, i64 noundef) local_unnamed_addr #3

; Function Attrs: sspstrong uwtable
define weak_odr dso_local noundef i32 @_ZNK6dealii14SparseMatrixEZIdE18memory_consumptionEv(ptr noundef nonnull align 8 dereferenceable(132) %0) local_unnamed_addr #2 comdat align 2 {
  %2 = getelementptr inbounds %"class.dealii::SparseMatrixEZ", ptr %0, i64 0, i32 3
  %3 = getelementptr inbounds %"class.dealii::SparseMatrixEZ", ptr %0, i64 0, i32 3, i32 0, i32 0, i32 0, i32 2
  %4 = load ptr, ptr %3, align 8, !tbaa !82
  %5 = load ptr, ptr %2, align 8, !tbaa !23
  %6 = ptrtoint ptr %4 to i64
  %7 = ptrtoint ptr %5 to i64
  %8 = sub i64 %6, %7
  %9 = lshr exact i64 %8, 1
  %10 = getelementptr inbounds %"class.dealii::SparseMatrixEZ", ptr %0, i64 0, i32 4
  %11 = getelementptr inbounds %"class.dealii::SparseMatrixEZ", ptr %0, i64 0, i32 4, i32 0, i32 0, i32 0, i32 2
  %12 = load ptr, ptr %11, align 8, !tbaa !55
  %13 = load ptr, ptr %10, align 8, !tbaa !25
  %14 = ptrtoint ptr %12 to i64
  %15 = ptrtoint ptr %13 to i64
  %16 = add i64 %14, 136
  %17 = add i64 %16, %9
  %18 = sub i64 %17, %15
  %19 = trunc i64 %18 to i32
  ret i32 %19
}

; Function Attrs: sspstrong uwtable
define weak_odr dso_local void @_ZNK6dealii14SparseMatrixEZIdE18compute_statisticsERjS2_S2_RSt6vectorIjSaIjEEb(ptr noundef nonnull align 8 dereferenceable(132) %0, ptr noundef nonnull align 4 dereferenceable(4) %1, ptr noundef nonnull align 4 dereferenceable(4) %2, ptr noundef nonnull align 4 dereferenceable(4) %3, ptr noundef nonnull align 8 dereferenceable(24) %4, i1 noundef zeroext %5) local_unnamed_addr #2 comdat align 2 {
  %7 = alloca i32, align 4
  %8 = getelementptr inbounds %"class.dealii::SparseMatrixEZ", ptr %0, i64 0, i32 3
  %9 = load ptr, ptr %8, align 8, !tbaa !52
  %10 = getelementptr inbounds %"class.dealii::SparseMatrixEZ", ptr %0, i64 0, i32 3, i32 0, i32 0, i32 0, i32 1
  %11 = load ptr, ptr %10, align 8, !tbaa !52
  store i32 0, ptr %1, align 4, !tbaa !59
  %12 = icmp eq ptr %9, %11
  br i1 %12, label %174, label %13

13:                                               ; preds = %6
  %14 = ptrtoint ptr %11 to i64
  %15 = ptrtoint ptr %9 to i64
  %16 = add i64 %14, -8
  %17 = sub i64 %16, %15
  %18 = icmp ult i64 %17, 128
  br i1 %18, label %156, label %19

19:                                               ; preds = %13
  %20 = lshr i64 %17, 3
  %21 = add nuw nsw i64 %20, 1
  %22 = and i64 %21, 15
  %23 = icmp eq i64 %22, 0
  %24 = select i1 %23, i64 16, i64 %22
  %25 = sub nsw i64 %21, %24
  %26 = shl i64 %25, 3
  %27 = getelementptr i8, ptr %9, i64 %26
  %28 = getelementptr %"struct.dealii::SparseMatrixEZ<double>::RowInfo", ptr %9, i64 0, i32 1
  %29 = getelementptr %"struct.dealii::SparseMatrixEZ<double>::RowInfo", ptr %9, i64 0, i32 1
  %30 = getelementptr %"struct.dealii::SparseMatrixEZ<double>::RowInfo", ptr %9, i64 0, i32 1
  %31 = getelementptr %"struct.dealii::SparseMatrixEZ<double>::RowInfo", ptr %9, i64 0, i32 1
  %32 = getelementptr %"struct.dealii::SparseMatrixEZ<double>::RowInfo", ptr %9, i64 0, i32 1
  %33 = getelementptr %"struct.dealii::SparseMatrixEZ<double>::RowInfo", ptr %9, i64 0, i32 1
  %34 = getelementptr %"struct.dealii::SparseMatrixEZ<double>::RowInfo", ptr %9, i64 0, i32 1
  %35 = getelementptr %"struct.dealii::SparseMatrixEZ<double>::RowInfo", ptr %9, i64 0, i32 1
  %36 = getelementptr %"struct.dealii::SparseMatrixEZ<double>::RowInfo", ptr %9, i64 0, i32 1
  %37 = getelementptr %"struct.dealii::SparseMatrixEZ<double>::RowInfo", ptr %9, i64 0, i32 1
  %38 = getelementptr %"struct.dealii::SparseMatrixEZ<double>::RowInfo", ptr %9, i64 0, i32 1
  %39 = getelementptr %"struct.dealii::SparseMatrixEZ<double>::RowInfo", ptr %9, i64 0, i32 1
  %40 = getelementptr %"struct.dealii::SparseMatrixEZ<double>::RowInfo", ptr %9, i64 0, i32 1
  %41 = getelementptr %"struct.dealii::SparseMatrixEZ<double>::RowInfo", ptr %9, i64 0, i32 1
  %42 = getelementptr %"struct.dealii::SparseMatrixEZ<double>::RowInfo", ptr %9, i64 0, i32 1
  %43 = getelementptr %"struct.dealii::SparseMatrixEZ<double>::RowInfo", ptr %9, i64 0, i32 1
  br label %44

44:                                               ; preds = %44, %19
  %45 = phi i64 [ 0, %19 ], [ %145, %44 ]
  %46 = phi <4 x i32> [ zeroinitializer, %19 ], [ %141, %44 ]
  %47 = phi <4 x i32> [ zeroinitializer, %19 ], [ %142, %44 ]
  %48 = phi <4 x i32> [ zeroinitializer, %19 ], [ %143, %44 ]
  %49 = phi <4 x i32> [ zeroinitializer, %19 ], [ %144, %44 ]
  %50 = phi <4 x i32> [ zeroinitializer, %19 ], [ %137, %44 ]
  %51 = phi <4 x i32> [ zeroinitializer, %19 ], [ %138, %44 ]
  %52 = phi <4 x i32> [ zeroinitializer, %19 ], [ %139, %44 ]
  %53 = phi <4 x i32> [ zeroinitializer, %19 ], [ %140, %44 ]
  %54 = shl i64 %45, 3
  %55 = shl i64 %45, 3
  %56 = or i64 %55, 8
  %57 = shl i64 %45, 3
  %58 = or i64 %57, 16
  %59 = shl i64 %45, 3
  %60 = or i64 %59, 24
  %61 = shl i64 %45, 3
  %62 = or i64 %61, 32
  %63 = shl i64 %45, 3
  %64 = or i64 %63, 40
  %65 = shl i64 %45, 3
  %66 = or i64 %65, 48
  %67 = shl i64 %45, 3
  %68 = or i64 %67, 56
  %69 = shl i64 %45, 3
  %70 = or i64 %69, 64
  %71 = shl i64 %45, 3
  %72 = or i64 %71, 72
  %73 = shl i64 %45, 3
  %74 = or i64 %73, 80
  %75 = shl i64 %45, 3
  %76 = or i64 %75, 88
  %77 = shl i64 %45, 3
  %78 = or i64 %77, 96
  %79 = shl i64 %45, 3
  %80 = or i64 %79, 104
  %81 = shl i64 %45, 3
  %82 = or i64 %81, 112
  %83 = shl i64 %45, 3
  %84 = or i64 %83, 120
  %85 = getelementptr i8, ptr %28, i64 %54
  %86 = getelementptr i8, ptr %29, i64 %56
  %87 = getelementptr i8, ptr %30, i64 %58
  %88 = getelementptr i8, ptr %31, i64 %60
  %89 = getelementptr i8, ptr %32, i64 %62
  %90 = getelementptr i8, ptr %33, i64 %64
  %91 = getelementptr i8, ptr %34, i64 %66
  %92 = getelementptr i8, ptr %35, i64 %68
  %93 = getelementptr i8, ptr %36, i64 %70
  %94 = getelementptr i8, ptr %37, i64 %72
  %95 = getelementptr i8, ptr %38, i64 %74
  %96 = getelementptr i8, ptr %39, i64 %76
  %97 = getelementptr i8, ptr %40, i64 %78
  %98 = getelementptr i8, ptr %41, i64 %80
  %99 = getelementptr i8, ptr %42, i64 %82
  %100 = getelementptr i8, ptr %43, i64 %84
  %101 = load i16, ptr %85, align 4, !tbaa !16
  %102 = load i16, ptr %86, align 4, !tbaa !16
  %103 = load i16, ptr %87, align 4, !tbaa !16
  %104 = load i16, ptr %88, align 4, !tbaa !16
  %105 = insertelement <4 x i16> poison, i16 %101, i64 0
  %106 = insertelement <4 x i16> %105, i16 %102, i64 1
  %107 = insertelement <4 x i16> %106, i16 %103, i64 2
  %108 = insertelement <4 x i16> %107, i16 %104, i64 3
  %109 = load i16, ptr %89, align 4, !tbaa !16
  %110 = load i16, ptr %90, align 4, !tbaa !16
  %111 = load i16, ptr %91, align 4, !tbaa !16
  %112 = load i16, ptr %92, align 4, !tbaa !16
  %113 = insertelement <4 x i16> poison, i16 %109, i64 0
  %114 = insertelement <4 x i16> %113, i16 %110, i64 1
  %115 = insertelement <4 x i16> %114, i16 %111, i64 2
  %116 = insertelement <4 x i16> %115, i16 %112, i64 3
  %117 = load i16, ptr %93, align 4, !tbaa !16
  %118 = load i16, ptr %94, align 4, !tbaa !16
  %119 = load i16, ptr %95, align 4, !tbaa !16
  %120 = load i16, ptr %96, align 4, !tbaa !16
  %121 = insertelement <4 x i16> poison, i16 %117, i64 0
  %122 = insertelement <4 x i16> %121, i16 %118, i64 1
  %123 = insertelement <4 x i16> %122, i16 %119, i64 2
  %124 = insertelement <4 x i16> %123, i16 %120, i64 3
  %125 = load i16, ptr %97, align 4, !tbaa !16
  %126 = load i16, ptr %98, align 4, !tbaa !16
  %127 = load i16, ptr %99, align 4, !tbaa !16
  %128 = load i16, ptr %100, align 4, !tbaa !16
  %129 = insertelement <4 x i16> poison, i16 %125, i64 0
  %130 = insertelement <4 x i16> %129, i16 %126, i64 1
  %131 = insertelement <4 x i16> %130, i16 %127, i64 2
  %132 = insertelement <4 x i16> %131, i16 %128, i64 3
  %133 = zext <4 x i16> %108 to <4 x i32>
  %134 = zext <4 x i16> %116 to <4 x i32>
  %135 = zext <4 x i16> %124 to <4 x i32>
  %136 = zext <4 x i16> %132 to <4 x i32>
  %137 = add <4 x i32> %50, %133
  %138 = add <4 x i32> %51, %134
  %139 = add <4 x i32> %52, %135
  %140 = add <4 x i32> %53, %136
  %141 = tail call <4 x i32> @llvm.umax.v4i32(<4 x i32> %46, <4 x i32> %133)
  %142 = tail call <4 x i32> @llvm.umax.v4i32(<4 x i32> %47, <4 x i32> %134)
  %143 = tail call <4 x i32> @llvm.umax.v4i32(<4 x i32> %48, <4 x i32> %135)
  %144 = tail call <4 x i32> @llvm.umax.v4i32(<4 x i32> %49, <4 x i32> %136)
  %145 = add nuw i64 %45, 16
  %146 = icmp eq i64 %145, %25
  br i1 %146, label %147, label %44, !llvm.loop !83

147:                                              ; preds = %44
  %148 = add <4 x i32> %138, %137
  %149 = add <4 x i32> %139, %148
  %150 = add <4 x i32> %140, %149
  %151 = tail call i32 @llvm.vector.reduce.add.v4i32(<4 x i32> %150)
  %152 = tail call <4 x i32> @llvm.umax.v4i32(<4 x i32> %141, <4 x i32> %142)
  %153 = tail call <4 x i32> @llvm.umax.v4i32(<4 x i32> %152, <4 x i32> %143)
  %154 = tail call <4 x i32> @llvm.umax.v4i32(<4 x i32> %153, <4 x i32> %144)
  %155 = tail call i32 @llvm.vector.reduce.umax.v4i32(<4 x i32> %154)
  br label %156

156:                                              ; preds = %13, %147
  %157 = phi i32 [ 0, %13 ], [ %155, %147 ]
  %158 = phi ptr [ %9, %13 ], [ %27, %147 ]
  %159 = phi i32 [ 0, %13 ], [ %151, %147 ]
  br label %160

160:                                              ; preds = %156, %160
  %161 = phi i32 [ %168, %160 ], [ %157, %156 ]
  %162 = phi ptr [ %169, %160 ], [ %158, %156 ]
  %163 = phi i32 [ %167, %160 ], [ %159, %156 ]
  %164 = getelementptr inbounds %"struct.dealii::SparseMatrixEZ<double>::RowInfo", ptr %162, i64 0, i32 1
  %165 = load i16, ptr %164, align 4, !tbaa !16
  %166 = zext i16 %165 to i32
  %167 = add i32 %163, %166
  %168 = tail call i32 @llvm.umax.i32(i32 %161, i32 %166)
  %169 = getelementptr inbounds %"struct.dealii::SparseMatrixEZ<double>::RowInfo", ptr %162, i64 1
  %170 = icmp eq ptr %169, %11
  br i1 %170, label %171, label %160, !llvm.loop !86

171:                                              ; preds = %160
  store i32 %167, ptr %1, align 4, !tbaa !59
  %172 = add nuw nsw i32 %168, 1
  %173 = zext i32 %172 to i64
  br label %174

174:                                              ; preds = %171, %6
  %175 = phi ptr [ %11, %171 ], [ %9, %6 ]
  %176 = phi i64 [ %173, %171 ], [ 1, %6 ]
  %177 = getelementptr inbounds %"struct.dealii::SparseMatrixEZ<double>::RowInfo", ptr %175, i64 -1
  %178 = load i32, ptr %177, align 4, !tbaa !13
  %179 = getelementptr %"struct.dealii::SparseMatrixEZ<double>::RowInfo", ptr %175, i64 -1, i32 1
  %180 = load i16, ptr %179, align 4, !tbaa !16
  %181 = zext i16 %180 to i32
  %182 = add i32 %178, %181
  store i32 %182, ptr %2, align 4, !tbaa !59
  %183 = getelementptr inbounds %"class.dealii::SparseMatrixEZ", ptr %0, i64 0, i32 4
  %184 = getelementptr inbounds %"class.dealii::SparseMatrixEZ", ptr %0, i64 0, i32 4, i32 0, i32 0, i32 0, i32 2
  %185 = load ptr, ptr %184, align 8, !tbaa !55
  %186 = load ptr, ptr %183, align 8, !tbaa !25
  %187 = ptrtoint ptr %185 to i64
  %188 = ptrtoint ptr %186 to i64
  %189 = sub i64 %187, %188
  %190 = lshr exact i64 %189, 4
  %191 = trunc i64 %190 to i32
  store i32 %191, ptr %3, align 4, !tbaa !59
  br i1 %5, label %192, label %224

192:                                              ; preds = %174
  call void @llvm.lifetime.start.p0(i64 4, ptr nonnull %7)
  store i32 0, ptr %7, align 4, !tbaa !59
  %193 = getelementptr inbounds %"struct.std::_Vector_base<unsigned int, std::allocator<unsigned int> >::_Vector_impl_data", ptr %4, i64 0, i32 1
  %194 = load ptr, ptr %193, align 8, !tbaa !52
  %195 = load ptr, ptr %4, align 8, !tbaa !87
  %196 = ptrtoint ptr %194 to i64
  %197 = ptrtoint ptr %195 to i64
  %198 = sub i64 %196, %197
  %199 = ashr exact i64 %198, 2
  %200 = icmp ult i64 %199, %176
  br i1 %200, label %201, label %203

201:                                              ; preds = %192
  %202 = sub nsw i64 %176, %199
  call void @_ZNSt6vectorIjSaIjEE14_M_fill_insertEN9__gnu_cxx17__normal_iteratorIPjS1_EEmRKj(ptr noundef nonnull align 8 dereferenceable(24) %4, ptr %194, i64 noundef %202, ptr noundef nonnull align 4 dereferenceable(4) %7)
  br label %209

203:                                              ; preds = %192
  %204 = icmp ugt i64 %199, %176
  br i1 %204, label %205, label %209

205:                                              ; preds = %203
  %206 = getelementptr inbounds i32, ptr %195, i64 %176
  %207 = icmp eq ptr %194, %206
  br i1 %207, label %209, label %208

208:                                              ; preds = %205
  store ptr %206, ptr %193, align 8, !tbaa !89
  br label %209

209:                                              ; preds = %201, %203, %205, %208
  call void @llvm.lifetime.end.p0(i64 4, ptr nonnull %7)
  %210 = load ptr, ptr %8, align 8, !tbaa !52
  %211 = icmp eq ptr %210, %11
  br i1 %211, label %224, label %212

212:                                              ; preds = %209
  %213 = load ptr, ptr %4, align 8, !tbaa !87
  br label %214

214:                                              ; preds = %212, %214
  %215 = phi ptr [ %210, %212 ], [ %222, %214 ]
  %216 = getelementptr inbounds %"struct.dealii::SparseMatrixEZ<double>::RowInfo", ptr %215, i64 0, i32 1
  %217 = load i16, ptr %216, align 4, !tbaa !16
  %218 = zext i16 %217 to i64
  %219 = getelementptr inbounds i32, ptr %213, i64 %218
  %220 = load i32, ptr %219, align 4, !tbaa !59
  %221 = add i32 %220, 1
  store i32 %221, ptr %219, align 4, !tbaa !59
  %222 = getelementptr inbounds %"struct.dealii::SparseMatrixEZ<double>::RowInfo", ptr %215, i64 1
  %223 = icmp eq ptr %222, %11
  br i1 %223, label %224, label %214

224:                                              ; preds = %214, %209, %174
  ret void
}

; Function Attrs: mustprogress nocallback nofree nounwind willreturn memory(argmem: readwrite)
declare void @llvm.memcpy.p0.p0.i64(ptr noalias nocapture writeonly, ptr noalias nocapture readonly, i64, i1 immarg) #11

; Function Attrs: sspstrong uwtable
define weak_odr dso_local void @_ZN6dealii14SparseMatrixEZIdE15ExcInvalidEntryC2Eii(ptr noundef nonnull align 8 dereferenceable(68) %0, i32 noundef %1, i32 noundef %2) unnamed_addr #2 comdat($_ZN6dealii14SparseMatrixEZIdE15ExcInvalidEntryC5Eii) align 2 {
  tail call void @_ZN6dealii13ExceptionBaseC2Ev(ptr noundef nonnull align 8 dereferenceable(60) %0)
  store ptr getelementptr inbounds ({ [6 x ptr] }, ptr @_ZTVN6dealii14SparseMatrixEZIdE15ExcInvalidEntryE, i64 0, inrange i32 0, i64 2), ptr %0, align 8, !tbaa !32
  %4 = getelementptr inbounds %"class.dealii::SparseMatrixEZ<double>::ExcInvalidEntry", ptr %0, i64 0, i32 1
  store i32 %1, ptr %4, align 4, !tbaa !90
  %5 = getelementptr inbounds %"class.dealii::SparseMatrixEZ<double>::ExcInvalidEntry", ptr %0, i64 0, i32 2
  store i32 %2, ptr %5, align 8, !tbaa !92
  ret void
}

declare void @_ZN6dealii13ExceptionBaseC2Ev(ptr noundef nonnull align 8 dereferenceable(60)) unnamed_addr #3

; Function Attrs: nounwind sspstrong uwtable
define weak_odr dso_local void @_ZN6dealii14SparseMatrixEZIdE15ExcInvalidEntryD2Ev(ptr noundef nonnull align 8 dereferenceable(68) %0) unnamed_addr #6 comdat($_ZN6dealii14SparseMatrixEZIdE15ExcInvalidEntryD5Ev) align 2 {
  tail call void @_ZN6dealii13ExceptionBaseD2Ev(ptr noundef nonnull align 8 dereferenceable(60) %0) #17
  ret void
}

; Function Attrs: nounwind sspstrong uwtable
define weak_odr dso_local void @_ZN6dealii14SparseMatrixEZIdE15ExcInvalidEntryD0Ev(ptr noundef nonnull align 8 dereferenceable(68) %0) unnamed_addr #6 comdat($_ZN6dealii14SparseMatrixEZIdE15ExcInvalidEntryD5Ev) align 2 {
  tail call void @_ZN6dealii13ExceptionBaseD2Ev(ptr noundef nonnull align 8 dereferenceable(60) %0) #17
  tail call void @_ZdlPv(ptr noundef nonnull %0) #19
  ret void
}

; Function Attrs: sspstrong uwtable
define weak_odr dso_local void @_ZNK6dealii14SparseMatrixEZIdE15ExcInvalidEntry10print_infoERSo(ptr noundef nonnull align 8 dereferenceable(68) %0, ptr noundef nonnull align 8 dereferenceable(8) %1) unnamed_addr #2 comdat align 2 {
  %3 = alloca i8, align 1
  %4 = tail call noundef nonnull align 8 dereferenceable(8) ptr @_ZSt16__ostream_insertIcSt11char_traitsIcEERSt13basic_ostreamIT_T0_ES6_PKS3_l(ptr noundef nonnull align 8 dereferenceable(8) %1, ptr noundef nonnull @.str.10, i64 noundef 22)
  %5 = getelementptr inbounds %"class.dealii::SparseMatrixEZ<double>::ExcInvalidEntry", ptr %0, i64 0, i32 1
  %6 = load i32, ptr %5, align 4, !tbaa !90
  %7 = tail call noundef nonnull align 8 dereferenceable(8) ptr @_ZNSolsEi(ptr noundef nonnull align 8 dereferenceable(8) %1, i32 noundef %6)
  call void @llvm.lifetime.start.p0(i64 1, ptr nonnull %3)
  store i8 44, ptr %3, align 1, !tbaa !67
  %8 = load ptr, ptr %7, align 8, !tbaa !32
  %9 = getelementptr i8, ptr %8, i64 -24
  %10 = load i64, ptr %9, align 8
  %11 = getelementptr inbounds i8, ptr %7, i64 %10
  %12 = getelementptr inbounds %"class.std::ios_base", ptr %11, i64 0, i32 2
  %13 = load i64, ptr %12, align 8, !tbaa !68
  %14 = icmp eq i64 %13, 0
  br i1 %14, label %17, label %15

15:                                               ; preds = %2
  %16 = call noundef nonnull align 8 dereferenceable(8) ptr @_ZSt16__ostream_insertIcSt11char_traitsIcEERSt13basic_ostreamIT_T0_ES6_PKS3_l(ptr noundef nonnull align 8 dereferenceable(8) %7, ptr noundef nonnull %3, i64 noundef 1)
  br label %19

17:                                               ; preds = %2
  %18 = tail call noundef nonnull align 8 dereferenceable(8) ptr @_ZNSo3putEc(ptr noundef nonnull align 8 dereferenceable(8) %7, i8 noundef signext 44)
  br label %19

19:                                               ; preds = %15, %17
  %20 = phi ptr [ %16, %15 ], [ %7, %17 ]
  call void @llvm.lifetime.end.p0(i64 1, ptr nonnull %3)
  %21 = getelementptr inbounds %"class.dealii::SparseMatrixEZ<double>::ExcInvalidEntry", ptr %0, i64 0, i32 2
  %22 = load i32, ptr %21, align 8, !tbaa !92
  %23 = call noundef nonnull align 8 dereferenceable(8) ptr @_ZNSolsEi(ptr noundef nonnull align 8 dereferenceable(8) %20, i32 noundef %22)
  %24 = call noundef nonnull align 8 dereferenceable(8) ptr @_ZSt16__ostream_insertIcSt11char_traitsIcEERSt13basic_ostreamIT_T0_ES6_PKS3_l(ptr noundef nonnull align 8 dereferenceable(8) %23, ptr noundef nonnull @.str.11, i64 noundef 17)
  %25 = load ptr, ptr %23, align 8, !tbaa !32
  %26 = getelementptr i8, ptr %25, i64 -24
  %27 = load i64, ptr %26, align 8
  %28 = getelementptr inbounds i8, ptr %23, i64 %27
  %29 = getelementptr inbounds %"class.std::basic_ios", ptr %28, i64 0, i32 5
  %30 = load ptr, ptr %29, align 8, !tbaa !69
  %31 = icmp eq ptr %30, null
  br i1 %31, label %32, label %33

32:                                               ; preds = %19
  call void @_ZSt16__throw_bad_castv() #21
  unreachable

33:                                               ; preds = %19
  %34 = getelementptr inbounds %"class.std::ctype", ptr %30, i64 0, i32 8
  %35 = load i8, ptr %34, align 8, !tbaa !72
  %36 = icmp eq i8 %35, 0
  br i1 %36, label %40, label %37

37:                                               ; preds = %33
  %38 = getelementptr inbounds %"class.std::ctype", ptr %30, i64 0, i32 9, i64 10
  %39 = load i8, ptr %38, align 1, !tbaa !67
  br label %45

40:                                               ; preds = %33
  call void @_ZNKSt5ctypeIcE13_M_widen_initEv(ptr noundef nonnull align 8 dereferenceable(570) %30)
  %41 = load ptr, ptr %30, align 8, !tbaa !32
  %42 = getelementptr inbounds ptr, ptr %41, i64 6
  %43 = load ptr, ptr %42, align 8
  %44 = call noundef signext i8 %43(ptr noundef nonnull align 8 dereferenceable(570) %30, i8 noundef signext 10)
  br label %45

45:                                               ; preds = %37, %40
  %46 = phi i8 [ %39, %37 ], [ %44, %40 ]
  %47 = call noundef nonnull align 8 dereferenceable(8) ptr @_ZNSo3putEc(ptr noundef nonnull align 8 dereferenceable(8) %23, i8 noundef signext %46)
  %48 = call noundef nonnull align 8 dereferenceable(8) ptr @_ZNSo5flushEv(ptr noundef nonnull align 8 dereferenceable(8) %47)
  ret void
}

declare noundef nonnull align 8 dereferenceable(8) ptr @_ZNSolsEi(ptr noundef nonnull align 8 dereferenceable(8), i32 noundef) local_unnamed_addr #3

; Function Attrs: sspstrong uwtable
define weak_odr dso_local void @_ZN6dealii14SparseMatrixEZIdE25ExcEntryAllocationFailureC2Eii(ptr noundef nonnull align 8 dereferenceable(68) %0, i32 noundef %1, i32 noundef %2) unnamed_addr #2 comdat($_ZN6dealii14SparseMatrixEZIdE25ExcEntryAllocationFailureC5Eii) align 2 {
  tail call void @_ZN6dealii13ExceptionBaseC2Ev(ptr noundef nonnull align 8 dereferenceable(60) %0)
  store ptr getelementptr inbounds ({ [6 x ptr] }, ptr @_ZTVN6dealii14SparseMatrixEZIdE25ExcEntryAllocationFailureE, i64 0, inrange i32 0, i64 2), ptr %0, align 8, !tbaa !32
  %4 = getelementptr inbounds %"class.dealii::SparseMatrixEZ<double>::ExcEntryAllocationFailure", ptr %0, i64 0, i32 1
  store i32 %1, ptr %4, align 4, !tbaa !93
  %5 = getelementptr inbounds %"class.dealii::SparseMatrixEZ<double>::ExcEntryAllocationFailure", ptr %0, i64 0, i32 2
  store i32 %2, ptr %5, align 8, !tbaa !95
  ret void
}

; Function Attrs: nounwind sspstrong uwtable
define weak_odr dso_local void @_ZN6dealii14SparseMatrixEZIdE25ExcEntryAllocationFailureD2Ev(ptr noundef nonnull align 8 dereferenceable(68) %0) unnamed_addr #6 comdat($_ZN6dealii14SparseMatrixEZIdE25ExcEntryAllocationFailureD5Ev) align 2 {
  tail call void @_ZN6dealii13ExceptionBaseD2Ev(ptr noundef nonnull align 8 dereferenceable(60) %0) #17
  ret void
}

; Function Attrs: nounwind sspstrong uwtable
define weak_odr dso_local void @_ZN6dealii14SparseMatrixEZIdE25ExcEntryAllocationFailureD0Ev(ptr noundef nonnull align 8 dereferenceable(68) %0) unnamed_addr #6 comdat($_ZN6dealii14SparseMatrixEZIdE25ExcEntryAllocationFailureD5Ev) align 2 {
  tail call void @_ZN6dealii13ExceptionBaseD2Ev(ptr noundef nonnull align 8 dereferenceable(60) %0) #17
  tail call void @_ZdlPv(ptr noundef nonnull %0) #19
  ret void
}

; Function Attrs: sspstrong uwtable
define weak_odr dso_local void @_ZNK6dealii14SparseMatrixEZIdE25ExcEntryAllocationFailure10print_infoERSo(ptr noundef nonnull align 8 dereferenceable(68) %0, ptr noundef nonnull align 8 dereferenceable(8) %1) unnamed_addr #2 comdat align 2 {
  %3 = alloca i8, align 1
  %4 = tail call noundef nonnull align 8 dereferenceable(8) ptr @_ZSt16__ostream_insertIcSt11char_traitsIcEERSt13basic_ostreamIT_T0_ES6_PKS3_l(ptr noundef nonnull align 8 dereferenceable(8) %1, ptr noundef nonnull @.str.12, i64 noundef 21)
  %5 = getelementptr inbounds %"class.dealii::SparseMatrixEZ<double>::ExcEntryAllocationFailure", ptr %0, i64 0, i32 1
  %6 = load i32, ptr %5, align 4, !tbaa !93
  %7 = tail call noundef nonnull align 8 dereferenceable(8) ptr @_ZNSolsEi(ptr noundef nonnull align 8 dereferenceable(8) %1, i32 noundef %6)
  call void @llvm.lifetime.start.p0(i64 1, ptr nonnull %3)
  store i8 44, ptr %3, align 1, !tbaa !67
  %8 = load ptr, ptr %7, align 8, !tbaa !32
  %9 = getelementptr i8, ptr %8, i64 -24
  %10 = load i64, ptr %9, align 8
  %11 = getelementptr inbounds i8, ptr %7, i64 %10
  %12 = getelementptr inbounds %"class.std::ios_base", ptr %11, i64 0, i32 2
  %13 = load i64, ptr %12, align 8, !tbaa !68
  %14 = icmp eq i64 %13, 0
  br i1 %14, label %17, label %15

15:                                               ; preds = %2
  %16 = call noundef nonnull align 8 dereferenceable(8) ptr @_ZSt16__ostream_insertIcSt11char_traitsIcEERSt13basic_ostreamIT_T0_ES6_PKS3_l(ptr noundef nonnull align 8 dereferenceable(8) %7, ptr noundef nonnull %3, i64 noundef 1)
  br label %19

17:                                               ; preds = %2
  %18 = tail call noundef nonnull align 8 dereferenceable(8) ptr @_ZNSo3putEc(ptr noundef nonnull align 8 dereferenceable(8) %7, i8 noundef signext 44)
  br label %19

19:                                               ; preds = %15, %17
  %20 = phi ptr [ %16, %15 ], [ %7, %17 ]
  call void @llvm.lifetime.end.p0(i64 1, ptr nonnull %3)
  %21 = getelementptr inbounds %"class.dealii::SparseMatrixEZ<double>::ExcEntryAllocationFailure", ptr %0, i64 0, i32 2
  %22 = load i32, ptr %21, align 8, !tbaa !95
  %23 = call noundef nonnull align 8 dereferenceable(8) ptr @_ZNSolsEi(ptr noundef nonnull align 8 dereferenceable(8) %20, i32 noundef %22)
  %24 = call noundef nonnull align 8 dereferenceable(8) ptr @_ZSt16__ostream_insertIcSt11char_traitsIcEERSt13basic_ostreamIT_T0_ES6_PKS3_l(ptr noundef nonnull align 8 dereferenceable(8) %23, ptr noundef nonnull @.str.13, i64 noundef 22)
  %25 = load ptr, ptr %23, align 8, !tbaa !32
  %26 = getelementptr i8, ptr %25, i64 -24
  %27 = load i64, ptr %26, align 8
  %28 = getelementptr inbounds i8, ptr %23, i64 %27
  %29 = getelementptr inbounds %"class.std::basic_ios", ptr %28, i64 0, i32 5
  %30 = load ptr, ptr %29, align 8, !tbaa !69
  %31 = icmp eq ptr %30, null
  br i1 %31, label %32, label %33

32:                                               ; preds = %19
  call void @_ZSt16__throw_bad_castv() #21
  unreachable

33:                                               ; preds = %19
  %34 = getelementptr inbounds %"class.std::ctype", ptr %30, i64 0, i32 8
  %35 = load i8, ptr %34, align 8, !tbaa !72
  %36 = icmp eq i8 %35, 0
  br i1 %36, label %40, label %37

37:                                               ; preds = %33
  %38 = getelementptr inbounds %"class.std::ctype", ptr %30, i64 0, i32 9, i64 10
  %39 = load i8, ptr %38, align 1, !tbaa !67
  br label %45

40:                                               ; preds = %33
  call void @_ZNKSt5ctypeIcE13_M_widen_initEv(ptr noundef nonnull align 8 dereferenceable(570) %30)
  %41 = load ptr, ptr %30, align 8, !tbaa !32
  %42 = getelementptr inbounds ptr, ptr %41, i64 6
  %43 = load ptr, ptr %42, align 8
  %44 = call noundef signext i8 %43(ptr noundef nonnull align 8 dereferenceable(570) %30, i8 noundef signext 10)
  br label %45

45:                                               ; preds = %37, %40
  %46 = phi i8 [ %39, %37 ], [ %44, %40 ]
  %47 = call noundef nonnull align 8 dereferenceable(8) ptr @_ZNSo3putEc(ptr noundef nonnull align 8 dereferenceable(8) %23, i8 noundef signext %46)
  %48 = call noundef nonnull align 8 dereferenceable(8) ptr @_ZNSo5flushEv(ptr noundef nonnull align 8 dereferenceable(8) %47)
  ret void
}

; Function Attrs: inlinehint nounwind sspstrong uwtable
define weak_odr dso_local void @_ZN6dealii14SparseMatrixEZIfE5EntryC2Ev(ptr noundef nonnull align 4 dereferenceable(8) %0) unnamed_addr #0 comdat($_ZN6dealii14SparseMatrixEZIfE5EntryC5Ev) align 2 {
  store i32 -1, ptr %0, align 4, !tbaa !96
  %2 = getelementptr inbounds %"struct.dealii::SparseMatrixEZ<float>::Entry", ptr %0, i64 0, i32 1
  store float 0.000000e+00, ptr %2, align 4, !tbaa !99
  ret void
}

; Function Attrs: inlinehint nounwind sspstrong uwtable
define weak_odr dso_local void @_ZN6dealii14SparseMatrixEZIfE5EntryC2EjRKf(ptr noundef nonnull align 4 dereferenceable(8) %0, i32 noundef %1, ptr noundef nonnull align 4 dereferenceable(4) %2) unnamed_addr #0 comdat($_ZN6dealii14SparseMatrixEZIfE5EntryC5EjRKf) align 2 {
  store i32 %1, ptr %0, align 4, !tbaa !96
  %4 = getelementptr inbounds %"struct.dealii::SparseMatrixEZ<float>::Entry", ptr %0, i64 0, i32 1
  %5 = load float, ptr %2, align 4, !tbaa !100
  store float %5, ptr %4, align 4, !tbaa !99
  ret void
}

; Function Attrs: inlinehint nounwind sspstrong uwtable
define weak_odr dso_local void @_ZN6dealii14SparseMatrixEZIfE7RowInfoC2Ej(ptr noundef nonnull align 4 dereferenceable(8) %0, i32 noundef %1) unnamed_addr #0 comdat($_ZN6dealii14SparseMatrixEZIfE7RowInfoC5Ej) align 2 {
  store i32 %1, ptr %0, align 4, !tbaa !101
  %3 = getelementptr inbounds %"struct.dealii::SparseMatrixEZ<float>::RowInfo", ptr %0, i64 0, i32 1
  store i16 0, ptr %3, align 4, !tbaa !103
  %4 = getelementptr inbounds %"struct.dealii::SparseMatrixEZ<float>::RowInfo", ptr %0, i64 0, i32 2
  store i16 -1, ptr %4, align 2, !tbaa !104
  ret void
}

; Function Attrs: inlinehint nounwind sspstrong uwtable
define weak_odr dso_local void @_ZN6dealii14SparseMatrixEZIfE14const_iterator8AccessorC2EPKS1_jt(ptr noundef nonnull align 8 dereferenceable(14) %0, ptr noundef %1, i32 noundef %2, i16 noundef zeroext %3) unnamed_addr #0 comdat($_ZN6dealii14SparseMatrixEZIfE14const_iterator8AccessorC5EPKS1_jt) align 2 {
  store ptr %1, ptr %0, align 8, !tbaa !105
  %5 = getelementptr inbounds %"class.dealii::SparseMatrixEZ<float>::const_iterator::Accessor", ptr %0, i64 0, i32 1
  store i32 %2, ptr %5, align 8, !tbaa !107
  %6 = getelementptr inbounds %"class.dealii::SparseMatrixEZ<float>::const_iterator::Accessor", ptr %0, i64 0, i32 2
  store i16 %3, ptr %6, align 4, !tbaa !108
  ret void
}

; Function Attrs: inlinehint nounwind sspstrong uwtable
define weak_odr dso_local noundef i32 @_ZNK6dealii14SparseMatrixEZIfE14const_iterator8Accessor3rowEv(ptr noundef nonnull align 8 dereferenceable(14) %0) local_unnamed_addr #0 comdat align 2 {
  %2 = getelementptr inbounds %"class.dealii::SparseMatrixEZ<float>::const_iterator::Accessor", ptr %0, i64 0, i32 1
  %3 = load i32, ptr %2, align 8, !tbaa !107
  ret i32 %3
}

; Function Attrs: inlinehint nounwind sspstrong uwtable
define weak_odr dso_local noundef zeroext i16 @_ZNK6dealii14SparseMatrixEZIfE14const_iterator8Accessor5indexEv(ptr noundef nonnull align 8 dereferenceable(14) %0) local_unnamed_addr #0 comdat align 2 {
  %2 = getelementptr inbounds %"class.dealii::SparseMatrixEZ<float>::const_iterator::Accessor", ptr %0, i64 0, i32 2
  %3 = load i16, ptr %2, align 4, !tbaa !108
  ret i16 %3
}

; Function Attrs: inlinehint sspstrong uwtable
define weak_odr dso_local noundef i32 @_ZNK6dealii14SparseMatrixEZIfE14const_iterator8Accessor6columnEv(ptr noundef nonnull align 8 dereferenceable(14) %0) local_unnamed_addr #1 comdat align 2 {
  %2 = load ptr, ptr %0, align 8, !tbaa !105
  %3 = getelementptr inbounds %"class.dealii::SparseMatrixEZ.15", ptr %2, i64 0, i32 4
  %4 = getelementptr inbounds %"class.dealii::SparseMatrixEZ.15", ptr %2, i64 0, i32 3
  %5 = getelementptr inbounds %"class.dealii::SparseMatrixEZ<float>::const_iterator::Accessor", ptr %0, i64 0, i32 1
  %6 = load i32, ptr %5, align 8, !tbaa !107
  %7 = zext i32 %6 to i64
  %8 = load ptr, ptr %4, align 8, !tbaa !109
  %9 = getelementptr inbounds %"struct.dealii::SparseMatrixEZ<float>::RowInfo", ptr %8, i64 %7
  %10 = load i32, ptr %9, align 4, !tbaa !101
  %11 = getelementptr inbounds %"class.dealii::SparseMatrixEZ<float>::const_iterator::Accessor", ptr %0, i64 0, i32 2
  %12 = load i16, ptr %11, align 4, !tbaa !108
  %13 = zext i16 %12 to i32
  %14 = add i32 %10, %13
  %15 = zext i32 %14 to i64
  %16 = load ptr, ptr %3, align 8, !tbaa !111
  %17 = getelementptr inbounds %"struct.dealii::SparseMatrixEZ<float>::Entry", ptr %16, i64 %15
  %18 = load i32, ptr %17, align 4, !tbaa !96
  ret i32 %18
}

; Function Attrs: inlinehint sspstrong uwtable
define weak_odr dso_local noundef float @_ZNK6dealii14SparseMatrixEZIfE14const_iterator8Accessor5valueEv(ptr noundef nonnull align 8 dereferenceable(14) %0) local_unnamed_addr #1 comdat align 2 {
  %2 = load ptr, ptr %0, align 8, !tbaa !105
  %3 = getelementptr inbounds %"class.dealii::SparseMatrixEZ.15", ptr %2, i64 0, i32 4
  %4 = getelementptr inbounds %"class.dealii::SparseMatrixEZ.15", ptr %2, i64 0, i32 3
  %5 = getelementptr inbounds %"class.dealii::SparseMatrixEZ<float>::const_iterator::Accessor", ptr %0, i64 0, i32 1
  %6 = load i32, ptr %5, align 8, !tbaa !107
  %7 = zext i32 %6 to i64
  %8 = load ptr, ptr %4, align 8, !tbaa !109
  %9 = getelementptr inbounds %"struct.dealii::SparseMatrixEZ<float>::RowInfo", ptr %8, i64 %7
  %10 = load i32, ptr %9, align 4, !tbaa !101
  %11 = getelementptr inbounds %"class.dealii::SparseMatrixEZ<float>::const_iterator::Accessor", ptr %0, i64 0, i32 2
  %12 = load i16, ptr %11, align 4, !tbaa !108
  %13 = zext i16 %12 to i32
  %14 = add i32 %10, %13
  %15 = zext i32 %14 to i64
  %16 = load ptr, ptr %3, align 8, !tbaa !111
  %17 = getelementptr inbounds %"struct.dealii::SparseMatrixEZ<float>::Entry", ptr %16, i64 %15, i32 1
  %18 = load float, ptr %17, align 4, !tbaa !99
  ret float %18
}

; Function Attrs: inlinehint sspstrong uwtable
define weak_odr dso_local void @_ZN6dealii14SparseMatrixEZIfE14const_iteratorC2EPKS1_jt(ptr noundef nonnull align 8 dereferenceable(16) %0, ptr noundef %1, i32 noundef %2, i16 noundef zeroext %3) unnamed_addr #1 comdat($_ZN6dealii14SparseMatrixEZIfE14const_iteratorC5EPKS1_jt) align 2 {
  store ptr %1, ptr %0, align 8, !tbaa !105
  %5 = getelementptr inbounds %"class.dealii::SparseMatrixEZ<float>::const_iterator::Accessor", ptr %0, i64 0, i32 1
  store i32 %2, ptr %5, align 8, !tbaa !107
  %6 = getelementptr inbounds %"class.dealii::SparseMatrixEZ<float>::const_iterator::Accessor", ptr %0, i64 0, i32 2
  store i16 %3, ptr %6, align 4, !tbaa !108
  %7 = getelementptr inbounds %"class.dealii::SparseMatrixEZ.15", ptr %1, i64 0, i32 3
  %8 = getelementptr inbounds %"class.dealii::SparseMatrixEZ.15", ptr %1, i64 0, i32 3, i32 0, i32 0, i32 0, i32 1
  %9 = load ptr, ptr %8, align 8, !tbaa !113
  %10 = load ptr, ptr %7, align 8, !tbaa !109
  %11 = ptrtoint ptr %9 to i64
  %12 = ptrtoint ptr %10 to i64
  %13 = sub i64 %11, %12
  %14 = lshr exact i64 %13, 3
  %15 = trunc i64 %14 to i32
  %16 = icmp eq i32 %15, %2
  %17 = icmp eq i16 %3, 0
  %18 = and i1 %17, %16
  br i1 %18, label %38, label %19

19:                                               ; preds = %4
  %20 = zext i32 %2 to i64
  %21 = getelementptr inbounds %"struct.dealii::SparseMatrixEZ<float>::RowInfo", ptr %10, i64 %20, i32 1
  %22 = load i16, ptr %21, align 4, !tbaa !103
  %23 = icmp ugt i16 %22, %3
  br i1 %23, label %38, label %24

24:                                               ; preds = %19
  %25 = add i32 %2, 1
  %26 = tail call i32 @llvm.umax.i32(i32 %25, i32 %15)
  br label %27

27:                                               ; preds = %24, %31
  %28 = phi i32 [ %2, %24 ], [ %29, %31 ]
  %29 = add i32 %28, 1
  %30 = icmp ult i32 %29, %15
  br i1 %30, label %31, label %36

31:                                               ; preds = %27
  %32 = zext i32 %29 to i64
  %33 = getelementptr inbounds %"struct.dealii::SparseMatrixEZ<float>::RowInfo", ptr %10, i64 %32, i32 1
  %34 = load i16, ptr %33, align 4, !tbaa !103
  %35 = icmp eq i16 %34, 0
  br i1 %35, label %27, label %36

36:                                               ; preds = %31, %27
  %37 = phi i32 [ %29, %31 ], [ %26, %27 ]
  store i32 %37, ptr %5, align 8, !tbaa !114
  br label %38

38:                                               ; preds = %36, %4, %19
  ret void
}

; Function Attrs: inlinehint sspstrong uwtable
define weak_odr dso_local noundef i32 @_ZNK6dealii14SparseMatrixEZIfE1mEv(ptr noundef nonnull align 8 dereferenceable(132) %0) local_unnamed_addr #1 comdat align 2 {
  %2 = getelementptr inbounds %"class.dealii::SparseMatrixEZ.15", ptr %0, i64 0, i32 3
  %3 = getelementptr inbounds %"class.dealii::SparseMatrixEZ.15", ptr %0, i64 0, i32 3, i32 0, i32 0, i32 0, i32 1
  %4 = load ptr, ptr %3, align 8, !tbaa !113
  %5 = load ptr, ptr %2, align 8, !tbaa !109
  %6 = ptrtoint ptr %4 to i64
  %7 = ptrtoint ptr %5 to i64
  %8 = sub i64 %6, %7
  %9 = lshr exact i64 %8, 3
  %10 = trunc i64 %9 to i32
  ret i32 %10
}

; Function Attrs: inlinehint sspstrong uwtable
define weak_odr dso_local noundef nonnull align 8 dereferenceable(16) ptr @_ZN6dealii14SparseMatrixEZIfE14const_iteratorppEv(ptr noundef nonnull align 8 dereferenceable(16) %0) local_unnamed_addr #1 comdat align 2 {
  %2 = getelementptr inbounds %"class.dealii::SparseMatrixEZ<float>::const_iterator::Accessor", ptr %0, i64 0, i32 2
  %3 = load i16, ptr %2, align 4, !tbaa !116
  %4 = add i16 %3, 1
  store i16 %4, ptr %2, align 4, !tbaa !116
  %5 = load ptr, ptr %0, align 8, !tbaa !117
  %6 = getelementptr inbounds %"class.dealii::SparseMatrixEZ.15", ptr %5, i64 0, i32 3
  %7 = getelementptr inbounds %"class.dealii::SparseMatrixEZ<float>::const_iterator::Accessor", ptr %0, i64 0, i32 1
  %8 = load i32, ptr %7, align 8, !tbaa !114
  %9 = zext i32 %8 to i64
  %10 = load ptr, ptr %6, align 8, !tbaa !109
  %11 = getelementptr inbounds %"struct.dealii::SparseMatrixEZ<float>::RowInfo", ptr %10, i64 %9, i32 1
  %12 = load i16, ptr %11, align 4, !tbaa !103
  %13 = icmp ult i16 %4, %12
  br i1 %13, label %35, label %14

14:                                               ; preds = %1
  store i16 0, ptr %2, align 4, !tbaa !116
  %15 = getelementptr inbounds %"class.dealii::SparseMatrixEZ.15", ptr %5, i64 0, i32 3, i32 0, i32 0, i32 0, i32 1
  %16 = load ptr, ptr %15, align 8, !tbaa !113
  %17 = ptrtoint ptr %16 to i64
  %18 = ptrtoint ptr %10 to i64
  %19 = sub i64 %17, %18
  %20 = lshr exact i64 %19, 3
  %21 = trunc i64 %20 to i32
  %22 = add i32 %8, 1
  %23 = tail call i32 @llvm.umax.i32(i32 %22, i32 %21)
  br label %24

24:                                               ; preds = %28, %14
  %25 = phi i32 [ %26, %28 ], [ %8, %14 ]
  %26 = add i32 %25, 1
  %27 = icmp ult i32 %26, %21
  br i1 %27, label %28, label %33

28:                                               ; preds = %24
  %29 = zext i32 %26 to i64
  %30 = getelementptr inbounds %"struct.dealii::SparseMatrixEZ<float>::RowInfo", ptr %10, i64 %29, i32 1
  %31 = load i16, ptr %30, align 4, !tbaa !103
  %32 = icmp eq i16 %31, 0
  br i1 %32, label %24, label %33

33:                                               ; preds = %28, %24
  %34 = phi i32 [ %26, %28 ], [ %23, %24 ]
  store i32 %34, ptr %7, align 8, !tbaa !114
  br label %35

35:                                               ; preds = %33, %1
  ret ptr %0
}

; Function Attrs: inlinehint nounwind sspstrong uwtable
define weak_odr dso_local noundef nonnull align 8 dereferenceable(14) ptr @_ZNK6dealii14SparseMatrixEZIfE14const_iteratordeEv(ptr noundef nonnull align 8 dereferenceable(16) %0) local_unnamed_addr #0 comdat align 2 {
  ret ptr %0
}

; Function Attrs: inlinehint nounwind sspstrong uwtable
define weak_odr dso_local noundef ptr @_ZNK6dealii14SparseMatrixEZIfE14const_iteratorptEv(ptr noundef nonnull align 8 dereferenceable(16) %0) local_unnamed_addr #0 comdat align 2 {
  ret ptr %0
}

; Function Attrs: inlinehint nounwind sspstrong uwtable
define weak_odr dso_local noundef zeroext i1 @_ZNK6dealii14SparseMatrixEZIfE14const_iteratoreqERKS2_(ptr noundef nonnull align 8 dereferenceable(16) %0, ptr noundef nonnull align 8 dereferenceable(16) %1) local_unnamed_addr #0 comdat align 2 {
  %3 = getelementptr inbounds %"class.dealii::SparseMatrixEZ<float>::const_iterator::Accessor", ptr %0, i64 0, i32 1
  %4 = load i32, ptr %3, align 8, !tbaa !107
  %5 = getelementptr inbounds %"class.dealii::SparseMatrixEZ<float>::const_iterator::Accessor", ptr %1, i64 0, i32 1
  %6 = load i32, ptr %5, align 8, !tbaa !107
  %7 = icmp eq i32 %4, %6
  %8 = getelementptr inbounds %"class.dealii::SparseMatrixEZ<float>::const_iterator::Accessor", ptr %0, i64 0, i32 2
  %9 = load i16, ptr %8, align 4
  %10 = getelementptr inbounds %"class.dealii::SparseMatrixEZ<float>::const_iterator::Accessor", ptr %1, i64 0, i32 2
  %11 = load i16, ptr %10, align 4
  %12 = icmp eq i16 %9, %11
  %13 = select i1 %7, i1 %12, i1 false
  ret i1 %13
}

; Function Attrs: inlinehint nounwind sspstrong uwtable
define weak_odr dso_local noundef zeroext i1 @_ZNK6dealii14SparseMatrixEZIfE14const_iteratorneERKS2_(ptr noundef nonnull align 8 dereferenceable(16) %0, ptr noundef nonnull align 8 dereferenceable(16) %1) local_unnamed_addr #0 comdat align 2 {
  %3 = getelementptr inbounds %"class.dealii::SparseMatrixEZ<float>::const_iterator::Accessor", ptr %0, i64 0, i32 1
  %4 = load i32, ptr %3, align 8, !tbaa !107
  %5 = getelementptr inbounds %"class.dealii::SparseMatrixEZ<float>::const_iterator::Accessor", ptr %1, i64 0, i32 1
  %6 = load i32, ptr %5, align 8, !tbaa !107
  %7 = icmp ne i32 %4, %6
  %8 = getelementptr inbounds %"class.dealii::SparseMatrixEZ<float>::const_iterator::Accessor", ptr %0, i64 0, i32 2
  %9 = load i16, ptr %8, align 4
  %10 = getelementptr inbounds %"class.dealii::SparseMatrixEZ<float>::const_iterator::Accessor", ptr %1, i64 0, i32 2
  %11 = load i16, ptr %10, align 4
  %12 = icmp ne i16 %9, %11
  %13 = select i1 %7, i1 true, i1 %12
  ret i1 %13
}

; Function Attrs: inlinehint nounwind sspstrong uwtable
define weak_odr dso_local noundef zeroext i1 @_ZNK6dealii14SparseMatrixEZIfE14const_iteratorltERKS2_(ptr noundef nonnull align 8 dereferenceable(16) %0, ptr noundef nonnull align 8 dereferenceable(16) %1) local_unnamed_addr #0 comdat align 2 {
  %3 = getelementptr inbounds %"class.dealii::SparseMatrixEZ<float>::const_iterator::Accessor", ptr %0, i64 0, i32 1
  %4 = load i32, ptr %3, align 8, !tbaa !107
  %5 = getelementptr inbounds %"class.dealii::SparseMatrixEZ<float>::const_iterator::Accessor", ptr %1, i64 0, i32 1
  %6 = load i32, ptr %5, align 8, !tbaa !107
  %7 = icmp ult i32 %4, %6
  br i1 %7, label %16, label %8

8:                                                ; preds = %2
  %9 = icmp eq i32 %4, %6
  br i1 %9, label %10, label %16

10:                                               ; preds = %8
  %11 = getelementptr inbounds %"class.dealii::SparseMatrixEZ<float>::const_iterator::Accessor", ptr %0, i64 0, i32 2
  %12 = load i16, ptr %11, align 4, !tbaa !108
  %13 = getelementptr inbounds %"class.dealii::SparseMatrixEZ<float>::const_iterator::Accessor", ptr %1, i64 0, i32 2
  %14 = load i16, ptr %13, align 4, !tbaa !108
  %15 = icmp ult i16 %12, %14
  br label %16

16:                                               ; preds = %8, %10, %2
  %17 = phi i1 [ true, %2 ], [ false, %8 ], [ %15, %10 ]
  ret i1 %17
}

; Function Attrs: sspstrong uwtable
define weak_odr dso_local void @_ZN6dealii14SparseMatrixEZIfEC2Ev(ptr noundef nonnull align 8 dereferenceable(132) %0) unnamed_addr #2 comdat($_ZN6dealii14SparseMatrixEZIfEC5Ev) align 2 personality ptr @__gxx_personality_v0 {
  tail call void @_ZN6dealii11SubscriptorC2Ev(ptr noundef nonnull align 8 dereferenceable(72) %0)
  store ptr getelementptr inbounds ({ [4 x ptr] }, ptr @_ZTVN6dealii14SparseMatrixEZIfEE, i64 0, inrange i32 0, i64 2), ptr %0, align 8, !tbaa !32
  %2 = getelementptr inbounds %"class.dealii::SparseMatrixEZ.15", ptr %0, i64 0, i32 3
  %3 = getelementptr inbounds %"class.dealii::SparseMatrixEZ.15", ptr %0, i64 0, i32 1
  store i32 0, ptr %3, align 8, !tbaa !118
  tail call void @llvm.memset.p0.i64(ptr noundef nonnull align 8 dereferenceable(48) %2, i8 0, i64 48, i1 false)
  ret void
}

; Function Attrs: sspstrong uwtable
define weak_odr dso_local void @_ZN6dealii14SparseMatrixEZIfEC2ERKS1_(ptr noundef nonnull align 8 dereferenceable(132) %0, ptr noundef nonnull align 8 dereferenceable(132) %1) unnamed_addr #2 comdat($_ZN6dealii14SparseMatrixEZIfEC5ERKS1_) align 2 personality ptr @__gxx_personality_v0 {
  tail call void @_ZN6dealii11SubscriptorC2ERKS0_(ptr noundef nonnull align 8 dereferenceable(72) %0, ptr noundef nonnull align 8 dereferenceable(72) %1)
  store ptr getelementptr inbounds ({ [4 x ptr] }, ptr @_ZTVN6dealii14SparseMatrixEZIfEE, i64 0, inrange i32 0, i64 2), ptr %0, align 8, !tbaa !32
  %3 = getelementptr inbounds %"class.dealii::SparseMatrixEZ.15", ptr %0, i64 0, i32 3
  tail call void @llvm.memset.p0.i64(ptr noundef nonnull align 8 dereferenceable(48) %3, i8 0, i64 48, i1 false)
  ret void
}

; Function Attrs: sspstrong uwtable
define weak_odr dso_local void @_ZN6dealii14SparseMatrixEZIfEC2Ejjjj(ptr noundef nonnull align 8 dereferenceable(132) %0, i32 noundef %1, i32 noundef %2, i32 noundef %3, i32 noundef %4) unnamed_addr #2 comdat($_ZN6dealii14SparseMatrixEZIfEC5Ejjjj) align 2 personality ptr @__gxx_personality_v0 {
  tail call void @_ZN6dealii11SubscriptorC2Ev(ptr noundef nonnull align 8 dereferenceable(72) %0)
  store ptr getelementptr inbounds ({ [4 x ptr] }, ptr @_ZTVN6dealii14SparseMatrixEZIfEE, i64 0, inrange i32 0, i64 2), ptr %0, align 8, !tbaa !32
  %6 = getelementptr inbounds %"class.dealii::SparseMatrixEZ.15", ptr %0, i64 0, i32 3
  tail call void @llvm.memset.p0.i64(ptr noundef nonnull align 8 dereferenceable(48) %6, i8 0, i64 48, i1 false)
  invoke void @_ZN6dealii14SparseMatrixEZIfE6reinitEjjjjj(ptr noundef nonnull align 8 dereferenceable(132) %0, i32 noundef %1, i32 noundef %2, i32 noundef %3, i32 noundef %4, i32 noundef 0)
          to label %7 unwind label %8

7:                                                ; preds = %5
  ret void

8:                                                ; preds = %5
  %9 = landingpad { ptr, i32 }
          cleanup
  %10 = getelementptr inbounds %"class.dealii::SparseMatrixEZ.15", ptr %0, i64 0, i32 4
  %11 = load ptr, ptr %10, align 8, !tbaa !111
  %12 = icmp eq ptr %11, null
  br i1 %12, label %14, label %13

13:                                               ; preds = %8
  tail call void @_ZdlPv(ptr noundef nonnull %11) #19
  br label %14

14:                                               ; preds = %13, %8
  %15 = load ptr, ptr %6, align 8, !tbaa !109
  %16 = icmp eq ptr %15, null
  br i1 %16, label %18, label %17

17:                                               ; preds = %14
  tail call void @_ZdlPv(ptr noundef nonnull %15) #19
  br label %18

18:                                               ; preds = %17, %14
  invoke void @_ZN6dealii11SubscriptorD2Ev(ptr noundef nonnull align 8 dereferenceable(72) %0)
          to label %19 unwind label %20

19:                                               ; preds = %18
  resume { ptr, i32 } %9

20:                                               ; preds = %18
  %21 = landingpad { ptr, i32 }
          catch ptr null
  %22 = extractvalue { ptr, i32 } %21, 0
  tail call void @__clang_call_terminate(ptr %22) #18
  unreachable
}

; Function Attrs: sspstrong uwtable
define weak_odr dso_local void @_ZN6dealii14SparseMatrixEZIfE6reinitEjjjjj(ptr noundef nonnull align 8 dereferenceable(132) %0, i32 noundef %1, i32 noundef %2, i32 noundef %3, i32 noundef %4, i32 noundef %5) local_unnamed_addr #2 comdat align 2 personality ptr @__gxx_personality_v0 {
  %7 = alloca %"struct.dealii::SparseMatrixEZ<float>::Entry", align 8
  %8 = alloca %"struct.dealii::SparseMatrixEZ<float>::RowInfo", align 8
  %9 = getelementptr inbounds %"class.dealii::SparseMatrixEZ.15", ptr %0, i64 0, i32 1
  %10 = getelementptr inbounds %"class.dealii::SparseMatrixEZ.15", ptr %0, i64 0, i32 3
  %11 = getelementptr inbounds %"class.dealii::SparseMatrixEZ.15", ptr %0, i64 0, i32 3, i32 0, i32 0, i32 0, i32 1
  %12 = load ptr, ptr %11, align 8, !tbaa !52
  %13 = load ptr, ptr %10, align 8, !tbaa !109
  %14 = icmp eq ptr %12, %13
  br i1 %14, label %16, label %15

15:                                               ; preds = %6
  store ptr %13, ptr %11, align 8, !tbaa !113
  br label %16

16:                                               ; preds = %15, %6
  %17 = phi ptr [ %13, %15 ], [ %12, %6 ]
  %18 = getelementptr inbounds %"class.dealii::SparseMatrixEZ.15", ptr %0, i64 0, i32 4
  %19 = getelementptr inbounds %"class.dealii::SparseMatrixEZ.15", ptr %0, i64 0, i32 4, i32 0, i32 0, i32 0, i32 1
  %20 = load ptr, ptr %19, align 8, !tbaa !52
  %21 = load ptr, ptr %18, align 8, !tbaa !111
  %22 = icmp eq ptr %20, %21
  br i1 %22, label %24, label %23

23:                                               ; preds = %16
  store ptr %21, ptr %19, align 8, !tbaa !126
  br label %24

24:                                               ; preds = %16, %23
  %25 = getelementptr inbounds %"class.dealii::SparseMatrixEZ.15", ptr %0, i64 0, i32 5
  store i32 %4, ptr %25, align 8, !tbaa !127
  store i32 %2, ptr %9, align 8, !tbaa !118
  %26 = zext i32 %1 to i64
  call void @llvm.lifetime.start.p0(i64 8, ptr nonnull %8)
  store i64 -281470681743361, ptr %8, align 8
  %27 = ptrtoint ptr %17 to i64
  %28 = ptrtoint ptr %13 to i64
  %29 = sub i64 %27, %28
  %30 = ashr exact i64 %29, 3
  %31 = icmp ult i64 %30, %26
  br i1 %31, label %32, label %34

32:                                               ; preds = %24
  %33 = sub nsw i64 %26, %30
  call void @_ZNSt6vectorIN6dealii14SparseMatrixEZIfE7RowInfoESaIS3_EE14_M_fill_insertEN9__gnu_cxx17__normal_iteratorIPS3_S5_EEmRKS3_(ptr noundef nonnull align 8 dereferenceable(24) %10, ptr %17, i64 noundef %33, ptr noundef nonnull align 4 dereferenceable(8) %8)
  br label %40

34:                                               ; preds = %24
  %35 = icmp ugt i64 %30, %26
  br i1 %35, label %36, label %40

36:                                               ; preds = %34
  %37 = getelementptr inbounds %"struct.dealii::SparseMatrixEZ<float>::RowInfo", ptr %13, i64 %26
  %38 = icmp eq ptr %17, %37
  br i1 %38, label %40, label %39

39:                                               ; preds = %36
  store ptr %37, ptr %11, align 8, !tbaa !113
  br label %40

40:                                               ; preds = %32, %34, %36, %39
  call void @llvm.lifetime.end.p0(i64 8, ptr nonnull %8)
  %41 = icmp eq i32 %5, 0
  br i1 %41, label %42, label %45

42:                                               ; preds = %40
  %43 = load ptr, ptr %19, align 8, !tbaa !52
  %44 = load ptr, ptr %18, align 8, !tbaa !111
  br label %71

45:                                               ; preds = %40
  %46 = zext i32 %5 to i64
  %47 = getelementptr inbounds %"class.dealii::SparseMatrixEZ.15", ptr %0, i64 0, i32 4, i32 0, i32 0, i32 0, i32 2
  %48 = load ptr, ptr %47, align 8, !tbaa !128
  %49 = load ptr, ptr %18, align 8, !tbaa !111
  %50 = ptrtoint ptr %48 to i64
  %51 = ptrtoint ptr %49 to i64
  %52 = sub i64 %50, %51
  %53 = ashr exact i64 %52, 3
  %54 = icmp ult i64 %53, %46
  %55 = load ptr, ptr %19, align 8, !tbaa !52
  br i1 %54, label %56, label %71

56:                                               ; preds = %45
  %57 = ptrtoint ptr %55 to i64
  %58 = sub i64 %57, %51
  %59 = ashr exact i64 %58, 3
  %60 = shl nuw nsw i64 %46, 3
  %61 = call noalias noundef nonnull ptr @_Znwm(i64 noundef %60) #20
  %62 = icmp eq ptr %49, %55
  br i1 %62, label %65, label %63

63:                                               ; preds = %56
  %64 = and i64 %58, -8
  call void @llvm.memcpy.p0.p0.i64(ptr nonnull align 4 %61, ptr align 4 %49, i64 %64, i1 false)
  br label %65

65:                                               ; preds = %63, %56
  %66 = icmp eq ptr %49, null
  br i1 %66, label %68, label %67

67:                                               ; preds = %65
  call void @_ZdlPv(ptr noundef nonnull %49) #19
  br label %68

68:                                               ; preds = %67, %65
  store ptr %61, ptr %18, align 8, !tbaa !111
  %69 = getelementptr inbounds %"struct.dealii::SparseMatrixEZ<float>::Entry", ptr %61, i64 %59
  store ptr %69, ptr %19, align 8, !tbaa !126
