; ModuleID = 'source/lac/sparse_matrix.cc'
source_filename = "source/lac/sparse_matrix.cc"
target datalayout = "e-m:e-p270:32:32-p271:32:32-p272:64:64-i64:64-f80:128-n8:16:32:64-S128"
target triple = "x86_64-pc-linux-gnu"

module asm ".globl _ZSt21ios_base_library_initv"

%"class.dealii::SparseMatrix" = type <{ ptr, %"class.dealii::SmartPointer", ptr, i32, [4 x i8], %"class.dealii::Subscriptor" }>
%"class.dealii::SmartPointer" = type { ptr, ptr }
%"class.dealii::Subscriptor" = type { ptr, i32, %"class.std::map", ptr }
%"class.std::map" = type { %"class.std::_Rb_tree" }
%"class.std::_Rb_tree" = type { %"struct.std::_Rb_tree<const char *, std::pair<const char *const, unsigned int>, std::_Select1st<std::pair<const char *const, unsigned int> >, std::less<const char *> >::_Rb_tree_impl" }
%"struct.std::_Rb_tree<const char *, std::pair<const char *const, unsigned int>, std::_Select1st<std::pair<const char *const, unsigned int> >, std::less<const char *> >::_Rb_tree_impl" = type { %"struct.std::_Rb_tree_key_compare", %"struct.std::_Rb_tree_header" }
%"struct.std::_Rb_tree_key_compare" = type { %"struct.std::less" }
%"struct.std::less" = type { i8 }
%"struct.std::_Rb_tree_header" = type { %"struct.std::_Rb_tree_node_base", i64 }
%"struct.std::_Rb_tree_node_base" = type { i32, ptr, ptr, ptr }
%"class.dealii::SparsityPattern" = type <{ %"class.dealii::Subscriptor", i32, i32, i32, [4 x i8], i64, i32, [4 x i8], ptr, ptr, i8, i8, [6 x i8] }>
%"class.dealii::SparseMatrix<double>::ExcInvalidIndex" = type { %"class.dealii::ExceptionBase.base", i32, i32, [4 x i8] }
%"class.dealii::ExceptionBase.base" = type <{ %"class.std::exception", ptr, i32, [4 x i8], ptr, ptr, ptr, ptr, i32 }>
%"class.std::exception" = type { ptr }
%"class.dealii::Vector" = type { %"class.dealii::Subscriptor", i32, i32, ptr }
%"class.dealii::internals::SparseMatrixIterators::Iterator" = type { %"class.dealii::internals::SparseMatrixIterators::Accessor" }
%"class.dealii::internals::SparseMatrixIterators::Accessor" = type { %"class.dealii::internals::SparsityPatternIterators::Accessor", ptr }
%"class.dealii::internals::SparsityPatternIterators::Accessor" = type { ptr, i32, i32 }
%"class.dealii::internals::SparseMatrixIterators::Iterator.16" = type { %"class.dealii::internals::SparseMatrixIterators::Accessor.17" }
%"class.dealii::internals::SparseMatrixIterators::Accessor.17" = type { %"class.dealii::internals::SparsityPatternIterators::Accessor", ptr }
%"class.dealii::StandardExceptions::ExcIO" = type { %"class.dealii::ExceptionBase.base", [4 x i8] }
%"class.std::ios_base" = type { ptr, i64, i64, i32, i32, i32, ptr, %"struct.std::ios_base::_Words", [8 x %"struct.std::ios_base::_Words"], i32, ptr, %"class.std::locale" }
%"struct.std::ios_base::_Words" = type { ptr, i64 }
%"class.std::locale" = type { ptr }
%"class.std::basic_ios" = type { %"class.std::ios_base", ptr, i8, i8, ptr, ptr, ptr, ptr }
%"class.std::ctype" = type <{ %"class.std::locale::facet.base", [4 x i8], ptr, i8, [7 x i8], ptr, ptr, ptr, i8, [256 x i8], [256 x i8], i8, [6 x i8] }>
%"class.std::locale::facet.base" = type <{ ptr, i32 }>
%"class.dealii::SparseMatrix<double>::ExcInvalidIndex1" = type { %"class.dealii::ExceptionBase.base", i32 }
%"class.dealii::SparseMatrix<double>::ExcIteratorRange" = type { %"class.dealii::ExceptionBase.base", i32, i32, [4 x i8] }
%"class.dealii::SparseMatrix.18" = type <{ ptr, %"class.dealii::SmartPointer", ptr, i32, [4 x i8], %"class.dealii::Subscriptor" }>
%"class.dealii::SparseMatrix<float>::ExcInvalidIndex" = type { %"class.dealii::ExceptionBase.base", i32, i32, [4 x i8] }
%"class.dealii::Vector.20" = type { %"class.dealii::Subscriptor", i32, i32, ptr }
%"class.dealii::internals::SparseMatrixIterators::Iterator.21" = type { %"class.dealii::internals::SparseMatrixIterators::Accessor.22" }
%"class.dealii::internals::SparseMatrixIterators::Accessor.22" = type { %"class.dealii::internals::SparsityPatternIterators::Accessor", ptr }
%"class.dealii::internals::SparseMatrixIterators::Iterator.23" = type { %"class.dealii::internals::SparseMatrixIterators::Accessor.24" }
%"class.dealii::internals::SparseMatrixIterators::Accessor.24" = type { %"class.dealii::internals::SparsityPatternIterators::Accessor", ptr }
%"class.dealii::SparseMatrix<float>::ExcInvalidIndex1" = type { %"class.dealii::ExceptionBase.base", i32 }
%"class.dealii::SparseMatrix<float>::ExcIteratorRange" = type { %"class.dealii::ExceptionBase.base", i32, i32, [4 x i8] }
%"class.dealii::SparseMatrix.25" = type <{ ptr, %"class.dealii::SmartPointer", ptr, i32, [4 x i8], %"class.dealii::Subscriptor" }>
%"class.dealii::SparseMatrix<long double>::ExcInvalidIndex" = type { %"class.dealii::ExceptionBase.base", i32, i32, [4 x i8] }
%"class.dealii::Vector.27" = type { %"class.dealii::Subscriptor", i32, i32, ptr }
%"class.dealii::internals::SparseMatrixIterators::Iterator.28" = type { %"class.dealii::internals::SparseMatrixIterators::Accessor.29" }
%"class.dealii::internals::SparseMatrixIterators::Accessor.29" = type { %"class.dealii::internals::SparsityPatternIterators::Accessor", ptr }
%"class.dealii::internals::SparseMatrixIterators::Iterator.30" = type { %"class.dealii::internals::SparseMatrixIterators::Accessor.31" }
%"class.dealii::internals::SparseMatrixIterators::Accessor.31" = type { %"class.dealii::internals::SparsityPatternIterators::Accessor", ptr }
%"class.dealii::SparseMatrix<long double>::ExcInvalidIndex1" = type { %"class.dealii::ExceptionBase.base", i32 }
%"class.dealii::SparseMatrix<long double>::ExcIteratorRange" = type { %"class.dealii::ExceptionBase.base", i32, i32, [4 x i8] }
%"class.dealii::TableBase" = type <{ %"class.dealii::Subscriptor", ptr, i32, %"class.dealii::TableIndices", [4 x i8] }>
%"class.dealii::TableIndices" = type { %"class.dealii::TableIndicesBase" }
%"class.dealii::TableIndicesBase" = type { [2 x i32] }
%"class.dealii::TableBase.34" = type <{ %"class.dealii::Subscriptor", ptr, i32, %"class.dealii::TableIndices", [4 x i8] }>
%"class.dealii::TableBase.40" = type <{ %"class.dealii::Subscriptor", ptr, i32, %"class.dealii::TableIndices", [4 x i8] }>
%"struct.std::_Vector_base<unsigned int, std::allocator<unsigned int> >::_Vector_impl_data" = type { ptr, ptr, ptr }
%"class.dealii::BlockVectorBase" = type { %"class.dealii::Subscriptor", %"class.std::vector.47", %"class.dealii::BlockIndices" }
%"class.std::vector.47" = type { %"struct.std::_Vector_base.48" }
%"struct.std::_Vector_base.48" = type { %"struct.std::_Vector_base<dealii::Vector<double>, std::allocator<dealii::Vector<double> > >::_Vector_impl" }
%"struct.std::_Vector_base<dealii::Vector<double>, std::allocator<dealii::Vector<double> > >::_Vector_impl" = type { %"struct.std::_Vector_base<dealii::Vector<double>, std::allocator<dealii::Vector<double> > >::_Vector_impl_data" }
%"struct.std::_Vector_base<dealii::Vector<double>, std::allocator<dealii::Vector<double> > >::_Vector_impl_data" = type { ptr, ptr, ptr }
%"class.dealii::BlockIndices" = type { i32, %"class.std::vector" }
%"class.std::vector" = type { %"struct.std::_Vector_base" }
%"struct.std::_Vector_base" = type { %"struct.std::_Vector_base<unsigned int, std::allocator<unsigned int> >::_Vector_impl" }
%"struct.std::_Vector_base<unsigned int, std::allocator<unsigned int> >::_Vector_impl" = type { %"struct.std::_Vector_base<unsigned int, std::allocator<unsigned int> >::_Vector_impl_data" }
%"class.dealii::BlockVectorBase.53" = type { %"class.dealii::Subscriptor", %"class.std::vector.54", %"class.dealii::BlockIndices" }
%"class.std::vector.54" = type { %"struct.std::_Vector_base.55" }
%"struct.std::_Vector_base.55" = type { %"struct.std::_Vector_base<dealii::Vector<float>, std::allocator<dealii::Vector<float> > >::_Vector_impl" }
%"struct.std::_Vector_base<dealii::Vector<float>, std::allocator<dealii::Vector<float> > >::_Vector_impl" = type { %"struct.std::_Vector_base<dealii::Vector<float>, std::allocator<dealii::Vector<float> > >::_Vector_impl_data" }
%"struct.std::_Vector_base<dealii::Vector<float>, std::allocator<dealii::Vector<float> > >::_Vector_impl_data" = type { ptr, ptr, ptr }
%"class.dealii::BlockVectorBase.60" = type { %"class.dealii::Subscriptor", %"class.std::vector.61", %"class.dealii::BlockIndices" }
%"class.std::vector.61" = type { %"struct.std::_Vector_base.62" }
%"struct.std::_Vector_base.62" = type { %"struct.std::_Vector_base<dealii::Vector<long double>, std::allocator<dealii::Vector<long double> > >::_Vector_impl" }
%"struct.std::_Vector_base<dealii::Vector<long double>, std::allocator<dealii::Vector<long double> > >::_Vector_impl" = type { %"struct.std::_Vector_base<dealii::Vector<long double>, std::allocator<dealii::Vector<long double> > >::_Vector_impl_data" }
%"struct.std::_Vector_base<dealii::Vector<long double>, std::allocator<dealii::Vector<long double> > >::_Vector_impl_data" = type { ptr, ptr, ptr }

$_ZN6dealii12SparseMatrixIdEC2Ev = comdat any

$_ZN6dealii12SparseMatrixIdEC1Ev = comdat any

$__clang_call_terminate = comdat any

$_ZN6dealii12SparseMatrixIdEC2ERKS1_ = comdat any

$_ZN6dealii12SparseMatrixIdEC1ERKS1_ = comdat any

$_ZN6dealii12SparseMatrixIdEC2ERKNS_15SparsityPatternE = comdat any

$_ZN6dealii12SparseMatrixIdEC1ERKNS_15SparsityPatternE = comdat any

$_ZN6dealii12SparseMatrixIdEC2ERKNS_15SparsityPatternERKNS_14IdentityMatrixE = comdat any

$_ZNK6dealii12SparseMatrixIdE1nEv = comdat any

$_ZN6dealii12SparseMatrixIdE3setEjjd = comdat any

$_ZN6dealii12SparseMatrixIdEC1ERKNS_15SparsityPatternERKNS_14IdentityMatrixE = comdat any

$_ZN6dealii12SparseMatrixIdED2Ev = comdat any

$_ZN6dealii12SparseMatrixIdED1Ev = comdat any

$_ZTv0_n24_N6dealii12SparseMatrixIdED1Ev = comdat any

$_ZN6dealii12SparseMatrixIdED0Ev = comdat any

$_ZTv0_n24_N6dealii12SparseMatrixIdED0Ev = comdat any

$_ZN6dealii12SparseMatrixIdEaSERKS1_ = comdat any

$_ZN6dealii12SparseMatrixIdEaSERKNS_14IdentityMatrixE = comdat any

$_ZN6dealii12SparseMatrixIdEaSEd = comdat any

$_ZN6dealii12SparseMatrixIdE6reinitERKNS_15SparsityPatternE = comdat any

$_ZN6dealii12SparseMatrixIdE5clearEv = comdat any

$_ZNK6dealii12SparseMatrixIdE5emptyEv = comdat any

$_ZNK6dealii12SparseMatrixIdE1mEv = comdat any

$_ZNK6dealii12SparseMatrixIdE18n_nonzero_elementsEv = comdat any

$_ZNK6dealii12SparseMatrixIdE27n_actually_nonzero_elementsEd = comdat any

$_ZNK6dealii12SparseMatrixIdE20get_sparsity_patternEv = comdat any

$_ZNK6dealii12SparseMatrixIdE18memory_consumptionEv = comdat any

$_ZN6dealii12SparseMatrixIdE3addEjjd = comdat any

$_ZN6dealii12SparseMatrixIdEmLEd = comdat any

$_ZN6dealii12SparseMatrixIdEdVEd = comdat any

$_ZN6dealii12SparseMatrixIdE10symmetrizeEv = comdat any

$_ZNK6dealii12SparseMatrixIdEclEjj = comdat any

$_ZNK6dealii12SparseMatrixIdE2elEjj = comdat any

$_ZNK6dealii12SparseMatrixIdE12diag_elementEj = comdat any

$_ZN6dealii12SparseMatrixIdE12diag_elementEj = comdat any

$_ZNK6dealii12SparseMatrixIdE9raw_entryEjj = comdat any

$_ZNK6dealii12SparseMatrixIdE12global_entryEj = comdat any

$_ZN6dealii12SparseMatrixIdE12global_entryEj = comdat any

$_ZNK6dealii12SparseMatrixIdE7l1_normEv = comdat any

$_ZN6dealii6VectorIdED2Ev = comdat any

$_ZNK6dealii12SparseMatrixIdE11linfty_normEv = comdat any

$_ZNK6dealii12SparseMatrixIdE14frobenius_normEv = comdat any

$_ZNK6dealii12SparseMatrixIdE5beginEv = comdat any

$_ZNK6dealii12SparseMatrixIdE3endEv = comdat any

$_ZN6dealii12SparseMatrixIdE5beginEv = comdat any

$_ZN6dealii12SparseMatrixIdE3endEv = comdat any

$_ZNK6dealii12SparseMatrixIdE5beginEj = comdat any

$_ZNK6dealii12SparseMatrixIdE3endEj = comdat any

$_ZN6dealii12SparseMatrixIdE5beginEj = comdat any

$_ZN6dealii12SparseMatrixIdE3endEj = comdat any

$_ZNK6dealii12SparseMatrixIdE5printERSo = comdat any

$_ZNK6dealii12SparseMatrixIdE15print_formattedERSojbjPKcd = comdat any

$_ZNK6dealii12SparseMatrixIdE13print_patternERSod = comdat any

$_ZNK6dealii12SparseMatrixIdE11block_writeERSo = comdat any

$_ZN6dealii12SparseMatrixIdE10block_readERSi = comdat any

$_ZN6dealii12SparseMatrixIdE15ExcInvalidIndexC5Eii = comdat any

$_ZN6dealii12SparseMatrixIdE15ExcInvalidIndexD5Ev = comdat any

$_ZNK6dealii12SparseMatrixIdE15ExcInvalidIndex10print_infoERSo = comdat any

$_ZN6dealii12SparseMatrixIdE16ExcInvalidIndex1C5Ei = comdat any

$_ZN6dealii12SparseMatrixIdE16ExcInvalidIndex1D5Ev = comdat any

$_ZNK6dealii12SparseMatrixIdE16ExcInvalidIndex110print_infoERSo = comdat any

$_ZN6dealii12SparseMatrixIdE16ExcIteratorRangeC5Eii = comdat any

$_ZN6dealii12SparseMatrixIdE16ExcIteratorRangeD5Ev = comdat any

$_ZNK6dealii12SparseMatrixIdE16ExcIteratorRange10print_infoERSo = comdat any

$_ZN6dealii12SparseMatrixIfEC2Ev = comdat any

$_ZN6dealii12SparseMatrixIfEC1Ev = comdat any

$_ZN6dealii12SparseMatrixIfEC2ERKS1_ = comdat any

$_ZN6dealii12SparseMatrixIfEC1ERKS1_ = comdat any

$_ZN6dealii12SparseMatrixIfEC2ERKNS_15SparsityPatternE = comdat any

$_ZN6dealii12SparseMatrixIfEC1ERKNS_15SparsityPatternE = comdat any

$_ZN6dealii12SparseMatrixIfEC2ERKNS_15SparsityPatternERKNS_14IdentityMatrixE = comdat any

$_ZNK6dealii12SparseMatrixIfE1nEv = comdat any

$_ZN6dealii12SparseMatrixIfE3setEjjf = comdat any

$_ZN6dealii12SparseMatrixIfEC1ERKNS_15SparsityPatternERKNS_14IdentityMatrixE = comdat any

$_ZN6dealii12SparseMatrixIfED2Ev = comdat any

$_ZN6dealii12SparseMatrixIfED1Ev = comdat any

$_ZTv0_n24_N6dealii12SparseMatrixIfED1Ev = comdat any

$_ZN6dealii12SparseMatrixIfED0Ev = comdat any

$_ZTv0_n24_N6dealii12SparseMatrixIfED0Ev = comdat any

$_ZN6dealii12SparseMatrixIfEaSERKS1_ = comdat any

$_ZN6dealii12SparseMatrixIfEaSERKNS_14IdentityMatrixE = comdat any

$_ZN6dealii12SparseMatrixIfEaSEd = comdat any

$_ZN6dealii12SparseMatrixIfE6reinitERKNS_15SparsityPatternE = comdat any

$_ZN6dealii12SparseMatrixIfE5clearEv = comdat any

$_ZNK6dealii12SparseMatrixIfE5emptyEv = comdat any

$_ZNK6dealii12SparseMatrixIfE1mEv = comdat any

$_ZNK6dealii12SparseMatrixIfE18n_nonzero_elementsEv = comdat any

$_ZNK6dealii12SparseMatrixIfE27n_actually_nonzero_elementsEd = comdat any

$_ZNK6dealii12SparseMatrixIfE20get_sparsity_patternEv = comdat any

$_ZNK6dealii12SparseMatrixIfE18memory_consumptionEv = comdat any

$_ZN6dealii12SparseMatrixIfE3addEjjf = comdat any

$_ZN6dealii12SparseMatrixIfEmLEf = comdat any

$_ZN6dealii12SparseMatrixIfEdVEf = comdat any

$_ZN6dealii12SparseMatrixIfE10symmetrizeEv = comdat any

$_ZNK6dealii12SparseMatrixIfEclEjj = comdat any

$_ZNK6dealii12SparseMatrixIfE2elEjj = comdat any

$_ZNK6dealii12SparseMatrixIfE12diag_elementEj = comdat any

$_ZN6dealii12SparseMatrixIfE12diag_elementEj = comdat any

$_ZNK6dealii12SparseMatrixIfE9raw_entryEjj = comdat any

$_ZNK6dealii12SparseMatrixIfE12global_entryEj = comdat any

$_ZN6dealii12SparseMatrixIfE12global_entryEj = comdat any

$_ZNK6dealii12SparseMatrixIfE7l1_normEv = comdat any

$_ZN6dealii6VectorIfED2Ev = comdat any

$_ZNK6dealii12SparseMatrixIfE11linfty_normEv = comdat any

$_ZNK6dealii12SparseMatrixIfE14frobenius_normEv = comdat any

$_ZNK6dealii12SparseMatrixIfE5beginEv = comdat any

$_ZNK6dealii12SparseMatrixIfE3endEv = comdat any

$_ZN6dealii12SparseMatrixIfE5beginEv = comdat any

$_ZN6dealii12SparseMatrixIfE3endEv = comdat any

$_ZNK6dealii12SparseMatrixIfE5beginEj = comdat any

$_ZNK6dealii12SparseMatrixIfE3endEj = comdat any

$_ZN6dealii12SparseMatrixIfE5beginEj = comdat any

$_ZN6dealii12SparseMatrixIfE3endEj = comdat any

$_ZNK6dealii12SparseMatrixIfE5printERSo = comdat any

$_ZNK6dealii12SparseMatrixIfE15print_formattedERSojbjPKcd = comdat any

$_ZNK6dealii12SparseMatrixIfE13print_patternERSod = comdat any

$_ZNK6dealii12SparseMatrixIfE11block_writeERSo = comdat any

$_ZN6dealii12SparseMatrixIfE10block_readERSi = comdat any

$_ZN6dealii12SparseMatrixIfE15ExcInvalidIndexC5Eii = comdat any

$_ZN6dealii12SparseMatrixIfE15ExcInvalidIndexD5Ev = comdat any

$_ZNK6dealii12SparseMatrixIfE15ExcInvalidIndex10print_infoERSo = comdat any

$_ZN6dealii12SparseMatrixIfE16ExcInvalidIndex1C5Ei = comdat any

$_ZN6dealii12SparseMatrixIfE16ExcInvalidIndex1D5Ev = comdat any

$_ZNK6dealii12SparseMatrixIfE16ExcInvalidIndex110print_infoERSo = comdat any

$_ZN6dealii12SparseMatrixIfE16ExcIteratorRangeC5Eii = comdat any

$_ZN6dealii12SparseMatrixIfE16ExcIteratorRangeD5Ev = comdat any

$_ZNK6dealii12SparseMatrixIfE16ExcIteratorRange10print_infoERSo = comdat any

$_ZN6dealii12SparseMatrixIeEC2Ev = comdat any

$_ZN6dealii12SparseMatrixIeEC1Ev = comdat any

$_ZN6dealii12SparseMatrixIeEC2ERKS1_ = comdat any

$_ZN6dealii12SparseMatrixIeEC1ERKS1_ = comdat any

$_ZN6dealii12SparseMatrixIeEC2ERKNS_15SparsityPatternE = comdat any

$_ZN6dealii12SparseMatrixIeEC1ERKNS_15SparsityPatternE = comdat any

$_ZN6dealii12SparseMatrixIeEC2ERKNS_15SparsityPatternERKNS_14IdentityMatrixE = comdat any

$_ZNK6dealii12SparseMatrixIeE1nEv = comdat any

$_ZN6dealii12SparseMatrixIeE3setEjje = comdat any

$_ZN6dealii12SparseMatrixIeEC1ERKNS_15SparsityPatternERKNS_14IdentityMatrixE = comdat any

$_ZN6dealii12SparseMatrixIeED2Ev = comdat any

$_ZN6dealii12SparseMatrixIeED1Ev = comdat any

$_ZTv0_n24_N6dealii12SparseMatrixIeED1Ev = comdat any

$_ZN6dealii12SparseMatrixIeED0Ev = comdat any

$_ZTv0_n24_N6dealii12SparseMatrixIeED0Ev = comdat any

$_ZN6dealii12SparseMatrixIeEaSERKS1_ = comdat any

$_ZN6dealii12SparseMatrixIeEaSERKNS_14IdentityMatrixE = comdat any

$_ZN6dealii12SparseMatrixIeEaSEd = comdat any

$_ZN6dealii12SparseMatrixIeE6reinitERKNS_15SparsityPatternE = comdat any

$_ZN6dealii12SparseMatrixIeE5clearEv = comdat any

$_ZNK6dealii12SparseMatrixIeE5emptyEv = comdat any

$_ZNK6dealii12SparseMatrixIeE1mEv = comdat any

$_ZNK6dealii12SparseMatrixIeE18n_nonzero_elementsEv = comdat any

$_ZNK6dealii12SparseMatrixIeE27n_actually_nonzero_elementsEd = comdat any

$_ZNK6dealii12SparseMatrixIeE20get_sparsity_patternEv = comdat any

$_ZNK6dealii12SparseMatrixIeE18memory_consumptionEv = comdat any

$_ZN6dealii12SparseMatrixIeE3addEjje = comdat any

$_ZN6dealii12SparseMatrixIeEmLEe = comdat any

$_ZN6dealii12SparseMatrixIeEdVEe = comdat any

$_ZN6dealii12SparseMatrixIeE10symmetrizeEv = comdat any

$_ZNK6dealii12SparseMatrixIeEclEjj = comdat any

$_ZNK6dealii12SparseMatrixIeE2elEjj = comdat any

$_ZNK6dealii12SparseMatrixIeE12diag_elementEj = comdat any

$_ZN6dealii12SparseMatrixIeE12diag_elementEj = comdat any

$_ZNK6dealii12SparseMatrixIeE9raw_entryEjj = comdat any

$_ZNK6dealii12SparseMatrixIeE12global_entryEj = comdat any

$_ZN6dealii12SparseMatrixIeE12global_entryEj = comdat any

$_ZNK6dealii12SparseMatrixIeE7l1_normEv = comdat any

$_ZN6dealii6VectorIeED2Ev = comdat any

$_ZNK6dealii12SparseMatrixIeE11linfty_normEv = comdat any

$_ZNK6dealii12SparseMatrixIeE14frobenius_normEv = comdat any

$_ZNK6dealii12SparseMatrixIeE5beginEv = comdat any

$_ZNK6dealii12SparseMatrixIeE3endEv = comdat any

$_ZN6dealii12SparseMatrixIeE5beginEv = comdat any

$_ZN6dealii12SparseMatrixIeE3endEv = comdat any

$_ZNK6dealii12SparseMatrixIeE5beginEj = comdat any

$_ZNK6dealii12SparseMatrixIeE3endEj = comdat any

$_ZN6dealii12SparseMatrixIeE5beginEj = comdat any

$_ZN6dealii12SparseMatrixIeE3endEj = comdat any

$_ZNK6dealii12SparseMatrixIeE5printERSo = comdat any

$_ZNK6dealii12SparseMatrixIeE15print_formattedERSojbjPKcd = comdat any

$_ZNK6dealii12SparseMatrixIeE13print_patternERSod = comdat any

$_ZNK6dealii12SparseMatrixIeE11block_writeERSo = comdat any

$_ZN6dealii12SparseMatrixIeE10block_readERSi = comdat any

$_ZN6dealii12SparseMatrixIeE15ExcInvalidIndexC5Eii = comdat any

$_ZN6dealii12SparseMatrixIeE15ExcInvalidIndexD5Ev = comdat any

$_ZNK6dealii12SparseMatrixIeE15ExcInvalidIndex10print_infoERSo = comdat any

$_ZN6dealii12SparseMatrixIeE16ExcInvalidIndex1C5Ei = comdat any

$_ZN6dealii12SparseMatrixIeE16ExcInvalidIndex1D5Ev = comdat any

$_ZNK6dealii12SparseMatrixIeE16ExcInvalidIndex110print_infoERSo = comdat any

$_ZN6dealii12SparseMatrixIeE16ExcIteratorRangeC5Eii = comdat any

$_ZN6dealii12SparseMatrixIeE16ExcIteratorRangeD5Ev = comdat any

$_ZNK6dealii12SparseMatrixIeE16ExcIteratorRange10print_infoERSo = comdat any

$_ZN6dealii12SparseMatrixIdE9copy_fromIdEERS1_RKNS0_IT_EE = comdat any

$_ZN6dealii12SparseMatrixIdE9copy_fromIdEEvRKNS_10FullMatrixIT_EE = comdat any

$_ZN6dealii12SparseMatrixIdE3addIdEEvdRKNS0_IT_EE = comdat any

$_ZN6dealii12SparseMatrixIdE3addIdEEvjjPKjPKT_bb = comdat any

$_ZN6dealii12SparseMatrixIdE3setIdEEvjjPKjPKT_b = comdat any

$_ZN6dealii12SparseMatrixIdE9copy_fromIfEERS1_RKNS0_IT_EE = comdat any

$_ZN6dealii12SparseMatrixIdE9copy_fromIfEEvRKNS_10FullMatrixIT_EE = comdat any

$_ZN6dealii12SparseMatrixIdE3addIfEEvdRKNS0_IT_EE = comdat any

$_ZN6dealii12SparseMatrixIdE3addIfEEvjjPKjPKT_bb = comdat any

$_ZN6dealii12SparseMatrixIdE3setIfEEvjjPKjPKT_b = comdat any

$_ZN6dealii12SparseMatrixIdE9copy_fromIeEERS1_RKNS0_IT_EE = comdat any

$_ZN6dealii12SparseMatrixIdE9copy_fromIeEEvRKNS_10FullMatrixIT_EE = comdat any

$_ZN6dealii12SparseMatrixIdE3addIeEEvdRKNS0_IT_EE = comdat any

$_ZN6dealii12SparseMatrixIdE3addIeEEvjjPKjPKT_bb = comdat any

$_ZN6dealii12SparseMatrixIdE3setIeEEvjjPKjPKT_b = comdat any

$_ZN6dealii12SparseMatrixIfE9copy_fromIdEERS1_RKNS0_IT_EE = comdat any

$_ZN6dealii12SparseMatrixIfE9copy_fromIdEEvRKNS_10FullMatrixIT_EE = comdat any

$_ZN6dealii12SparseMatrixIfE3addIdEEvfRKNS0_IT_EE = comdat any

$_ZN6dealii12SparseMatrixIfE3addIdEEvjjPKjPKT_bb = comdat any

$_ZN6dealii12SparseMatrixIfE3setIdEEvjjPKjPKT_b = comdat any

$_ZN6dealii12SparseMatrixIfE9copy_fromIfEERS1_RKNS0_IT_EE = comdat any

$_ZN6dealii12SparseMatrixIfE9copy_fromIfEEvRKNS_10FullMatrixIT_EE = comdat any

$_ZN6dealii12SparseMatrixIfE3addIfEEvfRKNS0_IT_EE = comdat any

$_ZN6dealii12SparseMatrixIfE3addIfEEvjjPKjPKT_bb = comdat any

$_ZN6dealii12SparseMatrixIfE3setIfEEvjjPKjPKT_b = comdat any

$_ZN6dealii12SparseMatrixIfE9copy_fromIeEERS1_RKNS0_IT_EE = comdat any

$_ZN6dealii12SparseMatrixIfE9copy_fromIeEEvRKNS_10FullMatrixIT_EE = comdat any

$_ZN6dealii12SparseMatrixIfE3addIeEEvfRKNS0_IT_EE = comdat any

$_ZN6dealii12SparseMatrixIfE3addIeEEvjjPKjPKT_bb = comdat any

$_ZN6dealii12SparseMatrixIfE3setIeEEvjjPKjPKT_b = comdat any

$_ZN6dealii12SparseMatrixIeE9copy_fromIdEERS1_RKNS0_IT_EE = comdat any

$_ZN6dealii12SparseMatrixIeE9copy_fromIdEEvRKNS_10FullMatrixIT_EE = comdat any

$_ZN6dealii12SparseMatrixIeE3addIdEEveRKNS0_IT_EE = comdat any

$_ZN6dealii12SparseMatrixIeE3addIdEEvjjPKjPKT_bb = comdat any

$_ZN6dealii12SparseMatrixIeE3setIdEEvjjPKjPKT_b = comdat any

$_ZN6dealii12SparseMatrixIeE9copy_fromIfEERS1_RKNS0_IT_EE = comdat any

$_ZN6dealii12SparseMatrixIeE9copy_fromIfEEvRKNS_10FullMatrixIT_EE = comdat any

$_ZN6dealii12SparseMatrixIeE3addIfEEveRKNS0_IT_EE = comdat any

$_ZN6dealii12SparseMatrixIeE3addIfEEvjjPKjPKT_bb = comdat any

$_ZN6dealii12SparseMatrixIeE3setIfEEvjjPKjPKT_b = comdat any

$_ZN6dealii12SparseMatrixIeE9copy_fromIeEERS1_RKNS0_IT_EE = comdat any

$_ZN6dealii12SparseMatrixIeE9copy_fromIeEEvRKNS_10FullMatrixIT_EE = comdat any

$_ZN6dealii12SparseMatrixIeE3addIeEEveRKNS0_IT_EE = comdat any

$_ZN6dealii12SparseMatrixIeE3addIeEEvjjPKjPKT_bb = comdat any

$_ZN6dealii12SparseMatrixIeE3setIeEEvjjPKjPKT_b = comdat any

$_ZNK6dealii12SparseMatrixIdE18matrix_norm_squareIdEET_RKNS_6VectorIS3_EE = comdat any

$_ZNK6dealii12SparseMatrixIdE21matrix_scalar_productIdEET_RKNS_6VectorIS3_EES7_ = comdat any

$_ZNK6dealii12SparseMatrixIdE8residualIdEET_RNS_6VectorIS3_EERKS5_S8_ = comdat any

$_ZNK6dealii12SparseMatrixIdE17precondition_SSORIdEEvRNS_6VectorIT_EERKS5_dRKSt6vectorIjSaIjEE = comdat any

$_ZNK6dealii12SparseMatrixIdE16precondition_SORIdEEvRNS_6VectorIT_EERKS5_d = comdat any

$_ZNK6dealii12SparseMatrixIdE3SORIdEEvRNS_6VectorIT_EEd = comdat any

$_ZNK6dealii12SparseMatrixIdE17precondition_TSORIdEEvRNS_6VectorIT_EERKS5_d = comdat any

$_ZNK6dealii12SparseMatrixIdE4TSORIdEEvRNS_6VectorIT_EEd = comdat any

$_ZNK6dealii12SparseMatrixIdE19precondition_JacobiIdEEvRNS_6VectorIT_EERKS5_d = comdat any

$_ZNK6dealii12SparseMatrixIdE4SSORIdEEvRNS_6VectorIT_EEd = comdat any

$_ZNK6dealii12SparseMatrixIdE4PSORIdEEvRNS_6VectorIT_EERKSt6vectorIjSaIjEESB_d = comdat any

$_ZNK6dealii12SparseMatrixIdE5TPSORIdEEvRNS_6VectorIT_EERKSt6vectorIjSaIjEESB_d = comdat any

$_ZNK6dealii12SparseMatrixIdE8SOR_stepIdEEvRNS_6VectorIT_EERKS5_d = comdat any

$_ZNK6dealii12SparseMatrixIdE9TSOR_stepIdEEvRNS_6VectorIT_EERKS5_d = comdat any

$_ZNK6dealii12SparseMatrixIdE9SSOR_stepIdEEvRNS_6VectorIT_EERKS5_d = comdat any

$_ZNK6dealii12SparseMatrixIdE18matrix_norm_squareIfEET_RKNS_6VectorIS3_EE = comdat any

$_ZNK6dealii12SparseMatrixIdE21matrix_scalar_productIfEET_RKNS_6VectorIS3_EES7_ = comdat any

$_ZNK6dealii12SparseMatrixIdE8residualIfEET_RNS_6VectorIS3_EERKS5_S8_ = comdat any

$_ZNK6dealii12SparseMatrixIdE17precondition_SSORIfEEvRNS_6VectorIT_EERKS5_dRKSt6vectorIjSaIjEE = comdat any

$_ZNK6dealii12SparseMatrixIdE16precondition_SORIfEEvRNS_6VectorIT_EERKS5_d = comdat any

$_ZNK6dealii12SparseMatrixIdE3SORIfEEvRNS_6VectorIT_EEd = comdat any

$_ZNK6dealii12SparseMatrixIdE17precondition_TSORIfEEvRNS_6VectorIT_EERKS5_d = comdat any

$_ZNK6dealii12SparseMatrixIdE4TSORIfEEvRNS_6VectorIT_EEd = comdat any

$_ZNK6dealii12SparseMatrixIdE19precondition_JacobiIfEEvRNS_6VectorIT_EERKS5_d = comdat any

$_ZNK6dealii12SparseMatrixIdE4SSORIfEEvRNS_6VectorIT_EEd = comdat any

$_ZNK6dealii12SparseMatrixIdE4PSORIfEEvRNS_6VectorIT_EERKSt6vectorIjSaIjEESB_d = comdat any

$_ZNK6dealii12SparseMatrixIdE5TPSORIfEEvRNS_6VectorIT_EERKSt6vectorIjSaIjEESB_d = comdat any

$_ZNK6dealii12SparseMatrixIdE8SOR_stepIfEEvRNS_6VectorIT_EERKS5_d = comdat any

$_ZNK6dealii12SparseMatrixIdE9TSOR_stepIfEEvRNS_6VectorIT_EERKS5_d = comdat any

$_ZNK6dealii12SparseMatrixIdE9SSOR_stepIfEEvRNS_6VectorIT_EERKS5_d = comdat any

$_ZNK6dealii12SparseMatrixIdE18matrix_norm_squareIeEET_RKNS_6VectorIS3_EE = comdat any

$_ZNK6dealii12SparseMatrixIdE21matrix_scalar_productIeEET_RKNS_6VectorIS3_EES7_ = comdat any

$_ZNK6dealii12SparseMatrixIdE8residualIeEET_RNS_6VectorIS3_EERKS5_S8_ = comdat any

$_ZNK6dealii12SparseMatrixIdE17precondition_SSORIeEEvRNS_6VectorIT_EERKS5_dRKSt6vectorIjSaIjEE = comdat any

$_ZNK6dealii12SparseMatrixIdE16precondition_SORIeEEvRNS_6VectorIT_EERKS5_d = comdat any

$_ZNK6dealii12SparseMatrixIdE3SORIeEEvRNS_6VectorIT_EEd = comdat any

$_ZNK6dealii12SparseMatrixIdE17precondition_TSORIeEEvRNS_6VectorIT_EERKS5_d = comdat any

$_ZNK6dealii12SparseMatrixIdE4TSORIeEEvRNS_6VectorIT_EEd = comdat any

$_ZNK6dealii12SparseMatrixIdE19precondition_JacobiIeEEvRNS_6VectorIT_EERKS5_d = comdat any

$_ZNK6dealii12SparseMatrixIdE4SSORIeEEvRNS_6VectorIT_EEd = comdat any

$_ZNK6dealii12SparseMatrixIdE4PSORIeEEvRNS_6VectorIT_EERKSt6vectorIjSaIjEESB_d = comdat any

$_ZNK6dealii12SparseMatrixIdE5TPSORIeEEvRNS_6VectorIT_EERKSt6vectorIjSaIjEESB_d = comdat any

$_ZNK6dealii12SparseMatrixIdE8SOR_stepIeEEvRNS_6VectorIT_EERKS5_d = comdat any

$_ZNK6dealii12SparseMatrixIdE9TSOR_stepIeEEvRNS_6VectorIT_EERKS5_d = comdat any

$_ZNK6dealii12SparseMatrixIdE9SSOR_stepIeEEvRNS_6VectorIT_EERKS5_d = comdat any

$_ZNK6dealii12SparseMatrixIfE18matrix_norm_squareIdEET_RKNS_6VectorIS3_EE = comdat any

$_ZNK6dealii12SparseMatrixIfE21matrix_scalar_productIdEET_RKNS_6VectorIS3_EES7_ = comdat any

$_ZNK6dealii12SparseMatrixIfE8residualIdEET_RNS_6VectorIS3_EERKS5_S8_ = comdat any

$_ZNK6dealii12SparseMatrixIfE17precondition_SSORIdEEvRNS_6VectorIT_EERKS5_fRKSt6vectorIjSaIjEE = comdat any

$_ZNK6dealii12SparseMatrixIfE16precondition_SORIdEEvRNS_6VectorIT_EERKS5_f = comdat any

$_ZNK6dealii12SparseMatrixIfE3SORIdEEvRNS_6VectorIT_EEf = comdat any

$_ZNK6dealii12SparseMatrixIfE17precondition_TSORIdEEvRNS_6VectorIT_EERKS5_f = comdat any

$_ZNK6dealii12SparseMatrixIfE4TSORIdEEvRNS_6VectorIT_EEf = comdat any

$_ZNK6dealii12SparseMatrixIfE19precondition_JacobiIdEEvRNS_6VectorIT_EERKS5_f = comdat any

$_ZNK6dealii12SparseMatrixIfE4SSORIdEEvRNS_6VectorIT_EEf = comdat any

$_ZNK6dealii12SparseMatrixIfE4PSORIdEEvRNS_6VectorIT_EERKSt6vectorIjSaIjEESB_f = comdat any

$_ZNK6dealii12SparseMatrixIfE5TPSORIdEEvRNS_6VectorIT_EERKSt6vectorIjSaIjEESB_f = comdat any

$_ZNK6dealii12SparseMatrixIfE8SOR_stepIdEEvRNS_6VectorIT_EERKS5_f = comdat any

$_ZNK6dealii12SparseMatrixIfE9TSOR_stepIdEEvRNS_6VectorIT_EERKS5_f = comdat any

$_ZNK6dealii12SparseMatrixIfE9SSOR_stepIdEEvRNS_6VectorIT_EERKS5_f = comdat any

$_ZNK6dealii12SparseMatrixIfE18matrix_norm_squareIfEET_RKNS_6VectorIS3_EE = comdat any

$_ZNK6dealii12SparseMatrixIfE21matrix_scalar_productIfEET_RKNS_6VectorIS3_EES7_ = comdat any

$_ZNK6dealii12SparseMatrixIfE8residualIfEET_RNS_6VectorIS3_EERKS5_S8_ = comdat any

$_ZNK6dealii12SparseMatrixIfE17precondition_SSORIfEEvRNS_6VectorIT_EERKS5_fRKSt6vectorIjSaIjEE = comdat any

$_ZNK6dealii12SparseMatrixIfE16precondition_SORIfEEvRNS_6VectorIT_EERKS5_f = comdat any

$_ZNK6dealii12SparseMatrixIfE3SORIfEEvRNS_6VectorIT_EEf = comdat any

$_ZNK6dealii12SparseMatrixIfE17precondition_TSORIfEEvRNS_6VectorIT_EERKS5_f = comdat any

$_ZNK6dealii12SparseMatrixIfE4TSORIfEEvRNS_6VectorIT_EEf = comdat any

$_ZNK6dealii12SparseMatrixIfE19precondition_JacobiIfEEvRNS_6VectorIT_EERKS5_f = comdat any

$_ZNK6dealii12SparseMatrixIfE4SSORIfEEvRNS_6VectorIT_EEf = comdat any

$_ZNK6dealii12SparseMatrixIfE4PSORIfEEvRNS_6VectorIT_EERKSt6vectorIjSaIjEESB_f = comdat any

$_ZNK6dealii12SparseMatrixIfE5TPSORIfEEvRNS_6VectorIT_EERKSt6vectorIjSaIjEESB_f = comdat any

$_ZNK6dealii12SparseMatrixIfE8SOR_stepIfEEvRNS_6VectorIT_EERKS5_f = comdat any

$_ZNK6dealii12SparseMatrixIfE9TSOR_stepIfEEvRNS_6VectorIT_EERKS5_f = comdat any

$_ZNK6dealii12SparseMatrixIfE9SSOR_stepIfEEvRNS_6VectorIT_EERKS5_f = comdat any

$_ZNK6dealii12SparseMatrixIfE18matrix_norm_squareIeEET_RKNS_6VectorIS3_EE = comdat any

$_ZNK6dealii12SparseMatrixIfE21matrix_scalar_productIeEET_RKNS_6VectorIS3_EES7_ = comdat any

$_ZNK6dealii12SparseMatrixIfE8residualIeEET_RNS_6VectorIS3_EERKS5_S8_ = comdat any

$_ZNK6dealii12SparseMatrixIfE17precondition_SSORIeEEvRNS_6VectorIT_EERKS5_fRKSt6vectorIjSaIjEE = comdat any

$_ZNK6dealii12SparseMatrixIfE16precondition_SORIeEEvRNS_6VectorIT_EERKS5_f = comdat any

$_ZNK6dealii12SparseMatrixIfE3SORIeEEvRNS_6VectorIT_EEf = comdat any

$_ZNK6dealii12SparseMatrixIfE17precondition_TSORIeEEvRNS_6VectorIT_EERKS5_f = comdat any

$_ZNK6dealii12SparseMatrixIfE4TSORIeEEvRNS_6VectorIT_EEf = comdat any

$_ZNK6dealii12SparseMatrixIfE19precondition_JacobiIeEEvRNS_6VectorIT_EERKS5_f = comdat any

$_ZNK6dealii12SparseMatrixIfE4SSORIeEEvRNS_6VectorIT_EEf = comdat any

$_ZNK6dealii12SparseMatrixIfE4PSORIeEEvRNS_6VectorIT_EERKSt6vectorIjSaIjEESB_f = comdat any

$_ZNK6dealii12SparseMatrixIfE5TPSORIeEEvRNS_6VectorIT_EERKSt6vectorIjSaIjEESB_f = comdat any

$_ZNK6dealii12SparseMatrixIfE8SOR_stepIeEEvRNS_6VectorIT_EERKS5_f = comdat any

$_ZNK6dealii12SparseMatrixIfE9TSOR_stepIeEEvRNS_6VectorIT_EERKS5_f = comdat any

$_ZNK6dealii12SparseMatrixIfE9SSOR_stepIeEEvRNS_6VectorIT_EERKS5_f = comdat any

$_ZNK6dealii12SparseMatrixIeE18matrix_norm_squareIdEET_RKNS_6VectorIS3_EE = comdat any

$_ZNK6dealii12SparseMatrixIeE21matrix_scalar_productIdEET_RKNS_6VectorIS3_EES7_ = comdat any

$_ZNK6dealii12SparseMatrixIeE8residualIdEET_RNS_6VectorIS3_EERKS5_S8_ = comdat any

$_ZNK6dealii12SparseMatrixIeE17precondition_SSORIdEEvRNS_6VectorIT_EERKS5_eRKSt6vectorIjSaIjEE = comdat any

$_ZNK6dealii12SparseMatrixIeE16precondition_SORIdEEvRNS_6VectorIT_EERKS5_e = comdat any

$_ZNK6dealii12SparseMatrixIeE3SORIdEEvRNS_6VectorIT_EEe = comdat any

$_ZNK6dealii12SparseMatrixIeE17precondition_TSORIdEEvRNS_6VectorIT_EERKS5_e = comdat any

$_ZNK6dealii12SparseMatrixIeE4TSORIdEEvRNS_6VectorIT_EEe = comdat any

$_ZNK6dealii12SparseMatrixIeE19precondition_JacobiIdEEvRNS_6VectorIT_EERKS5_e = comdat any

$_ZNK6dealii12SparseMatrixIeE4SSORIdEEvRNS_6VectorIT_EEe = comdat any

$_ZNK6dealii12SparseMatrixIeE4PSORIdEEvRNS_6VectorIT_EERKSt6vectorIjSaIjEESB_e = comdat any

$_ZNK6dealii12SparseMatrixIeE5TPSORIdEEvRNS_6VectorIT_EERKSt6vectorIjSaIjEESB_e = comdat any

$_ZNK6dealii12SparseMatrixIeE8SOR_stepIdEEvRNS_6VectorIT_EERKS5_e = comdat any

$_ZNK6dealii12SparseMatrixIeE9TSOR_stepIdEEvRNS_6VectorIT_EERKS5_e = comdat any

$_ZNK6dealii12SparseMatrixIeE9SSOR_stepIdEEvRNS_6VectorIT_EERKS5_e = comdat any

$_ZNK6dealii12SparseMatrixIeE18matrix_norm_squareIfEET_RKNS_6VectorIS3_EE = comdat any

$_ZNK6dealii12SparseMatrixIeE21matrix_scalar_productIfEET_RKNS_6VectorIS3_EES7_ = comdat any

$_ZNK6dealii12SparseMatrixIeE8residualIfEET_RNS_6VectorIS3_EERKS5_S8_ = comdat any

$_ZNK6dealii12SparseMatrixIeE17precondition_SSORIfEEvRNS_6VectorIT_EERKS5_eRKSt6vectorIjSaIjEE = comdat any

$_ZNK6dealii12SparseMatrixIeE16precondition_SORIfEEvRNS_6VectorIT_EERKS5_e = comdat any

$_ZNK6dealii12SparseMatrixIeE3SORIfEEvRNS_6VectorIT_EEe = comdat any

$_ZNK6dealii12SparseMatrixIeE17precondition_TSORIfEEvRNS_6VectorIT_EERKS5_e = comdat any

$_ZNK6dealii12SparseMatrixIeE4TSORIfEEvRNS_6VectorIT_EEe = comdat any

$_ZNK6dealii12SparseMatrixIeE19precondition_JacobiIfEEvRNS_6VectorIT_EERKS5_e = comdat any

$_ZNK6dealii12SparseMatrixIeE4SSORIfEEvRNS_6VectorIT_EEe = comdat any

$_ZNK6dealii12SparseMatrixIeE4PSORIfEEvRNS_6VectorIT_EERKSt6vectorIjSaIjEESB_e = comdat any

$_ZNK6dealii12SparseMatrixIeE5TPSORIfEEvRNS_6VectorIT_EERKSt6vectorIjSaIjEESB_e = comdat any

$_ZNK6dealii12SparseMatrixIeE8SOR_stepIfEEvRNS_6VectorIT_EERKS5_e = comdat any

$_ZNK6dealii12SparseMatrixIeE9TSOR_stepIfEEvRNS_6VectorIT_EERKS5_e = comdat any

$_ZNK6dealii12SparseMatrixIeE9SSOR_stepIfEEvRNS_6VectorIT_EERKS5_e = comdat any

$_ZNK6dealii12SparseMatrixIeE18matrix_norm_squareIeEET_RKNS_6VectorIS3_EE = comdat any

$_ZNK6dealii12SparseMatrixIeE21matrix_scalar_productIeEET_RKNS_6VectorIS3_EES7_ = comdat any

$_ZNK6dealii12SparseMatrixIeE8residualIeEET_RNS_6VectorIS3_EERKS5_S8_ = comdat any

$_ZNK6dealii12SparseMatrixIeE17precondition_SSORIeEEvRNS_6VectorIT_EERKS5_eRKSt6vectorIjSaIjEE = comdat any

$_ZNK6dealii12SparseMatrixIeE16precondition_SORIeEEvRNS_6VectorIT_EERKS5_e = comdat any

$_ZNK6dealii12SparseMatrixIeE3SORIeEEvRNS_6VectorIT_EEe = comdat any

$_ZNK6dealii12SparseMatrixIeE17precondition_TSORIeEEvRNS_6VectorIT_EERKS5_e = comdat any

$_ZNK6dealii12SparseMatrixIeE4TSORIeEEvRNS_6VectorIT_EEe = comdat any

$_ZNK6dealii12SparseMatrixIeE19precondition_JacobiIeEEvRNS_6VectorIT_EERKS5_e = comdat any

$_ZNK6dealii12SparseMatrixIeE4SSORIeEEvRNS_6VectorIT_EEe = comdat any

$_ZNK6dealii12SparseMatrixIeE4PSORIeEEvRNS_6VectorIT_EERKSt6vectorIjSaIjEESB_e = comdat any

$_ZNK6dealii12SparseMatrixIeE5TPSORIeEEvRNS_6VectorIT_EERKSt6vectorIjSaIjEESB_e = comdat any

$_ZNK6dealii12SparseMatrixIeE8SOR_stepIeEEvRNS_6VectorIT_EERKS5_e = comdat any

$_ZNK6dealii12SparseMatrixIeE9TSOR_stepIeEEvRNS_6VectorIT_EERKS5_e = comdat any

$_ZNK6dealii12SparseMatrixIeE9SSOR_stepIeEEvRNS_6VectorIT_EERKS5_e = comdat any

$_ZNK6dealii12SparseMatrixIdE5vmultINS_6VectorIdEES4_EEvRT_RKT0_ = comdat any

$_ZNK6dealii12SparseMatrixIdE6TvmultINS_6VectorIdEES4_EEvRT_RKT0_ = comdat any

$_ZNK6dealii12SparseMatrixIdE9vmult_addINS_6VectorIdEES4_EEvRT_RKT0_ = comdat any

$_ZNK6dealii12SparseMatrixIdE10Tvmult_addINS_6VectorIdEES4_EEvRT_RKT0_ = comdat any

$_ZNK6dealii12SparseMatrixIdE5vmultINS_6VectorIdEENS_11BlockVectorIdEEEEvRT_RKT0_ = comdat any

$_ZNK6dealii12SparseMatrixIdE6TvmultINS_6VectorIdEENS_11BlockVectorIdEEEEvRT_RKT0_ = comdat any

$_ZNK6dealii12SparseMatrixIdE9vmult_addINS_6VectorIdEENS_11BlockVectorIdEEEEvRT_RKT0_ = comdat any

$_ZNK6dealii12SparseMatrixIdE10Tvmult_addINS_6VectorIdEENS_11BlockVectorIdEEEEvRT_RKT0_ = comdat any

$_ZNK6dealii12SparseMatrixIdE5vmultINS_11BlockVectorIdEENS_6VectorIdEEEEvRT_RKT0_ = comdat any

$_ZNK6dealii12SparseMatrixIdE6TvmultINS_11BlockVectorIdEENS_6VectorIdEEEEvRT_RKT0_ = comdat any

$_ZNK6dealii12SparseMatrixIdE9vmult_addINS_11BlockVectorIdEENS_6VectorIdEEEEvRT_RKT0_ = comdat any

$_ZNK6dealii12SparseMatrixIdE10Tvmult_addINS_11BlockVectorIdEENS_6VectorIdEEEEvRT_RKT0_ = comdat any

$_ZNK6dealii12SparseMatrixIdE5vmultINS_11BlockVectorIdEES4_EEvRT_RKT0_ = comdat any

$_ZNK6dealii12SparseMatrixIdE6TvmultINS_11BlockVectorIdEES4_EEvRT_RKT0_ = comdat any

$_ZNK6dealii12SparseMatrixIdE9vmult_addINS_11BlockVectorIdEES4_EEvRT_RKT0_ = comdat any

$_ZNK6dealii12SparseMatrixIdE10Tvmult_addINS_11BlockVectorIdEES4_EEvRT_RKT0_ = comdat any

$_ZNK6dealii12SparseMatrixIdE5vmultINS_6VectorIdEENS3_IfEEEEvRT_RKT0_ = comdat any

$_ZNK6dealii12SparseMatrixIdE6TvmultINS_6VectorIdEENS3_IfEEEEvRT_RKT0_ = comdat any

$_ZNK6dealii12SparseMatrixIdE9vmult_addINS_6VectorIdEENS3_IfEEEEvRT_RKT0_ = comdat any

$_ZNK6dealii12SparseMatrixIdE10Tvmult_addINS_6VectorIdEENS3_IfEEEEvRT_RKT0_ = comdat any

$_ZNK6dealii12SparseMatrixIdE5vmultINS_6VectorIdEENS_11BlockVectorIfEEEEvRT_RKT0_ = comdat any

$_ZNK6dealii12SparseMatrixIdE6TvmultINS_6VectorIdEENS_11BlockVectorIfEEEEvRT_RKT0_ = comdat any

$_ZNK6dealii12SparseMatrixIdE9vmult_addINS_6VectorIdEENS_11BlockVectorIfEEEEvRT_RKT0_ = comdat any

$_ZNK6dealii12SparseMatrixIdE10Tvmult_addINS_6VectorIdEENS_11BlockVectorIfEEEEvRT_RKT0_ = comdat any

$_ZNK6dealii12SparseMatrixIdE5vmultINS_11BlockVectorIdEENS_6VectorIfEEEEvRT_RKT0_ = comdat any

$_ZNK6dealii12SparseMatrixIdE6TvmultINS_11BlockVectorIdEENS_6VectorIfEEEEvRT_RKT0_ = comdat any

$_ZNK6dealii12SparseMatrixIdE9vmult_addINS_11BlockVectorIdEENS_6VectorIfEEEEvRT_RKT0_ = comdat any

$_ZNK6dealii12SparseMatrixIdE10Tvmult_addINS_11BlockVectorIdEENS_6VectorIfEEEEvRT_RKT0_ = comdat any

$_ZNK6dealii12SparseMatrixIdE5vmultINS_11BlockVectorIdEENS3_IfEEEEvRT_RKT0_ = comdat any

$_ZNK6dealii12SparseMatrixIdE6TvmultINS_11BlockVectorIdEENS3_IfEEEEvRT_RKT0_ = comdat any

$_ZNK6dealii12SparseMatrixIdE9vmult_addINS_11BlockVectorIdEENS3_IfEEEEvRT_RKT0_ = comdat any

$_ZNK6dealii12SparseMatrixIdE10Tvmult_addINS_11BlockVectorIdEENS3_IfEEEEvRT_RKT0_ = comdat any

$_ZNK6dealii12SparseMatrixIdE5vmultINS_6VectorIdEENS3_IeEEEEvRT_RKT0_ = comdat any

$_ZNK6dealii12SparseMatrixIdE6TvmultINS_6VectorIdEENS3_IeEEEEvRT_RKT0_ = comdat any

$_ZNK6dealii12SparseMatrixIdE9vmult_addINS_6VectorIdEENS3_IeEEEEvRT_RKT0_ = comdat any

$_ZNK6dealii12SparseMatrixIdE10Tvmult_addINS_6VectorIdEENS3_IeEEEEvRT_RKT0_ = comdat any

$_ZNK6dealii12SparseMatrixIdE5vmultINS_6VectorIdEENS_11BlockVectorIeEEEEvRT_RKT0_ = comdat any

$_ZNK6dealii12SparseMatrixIdE6TvmultINS_6VectorIdEENS_11BlockVectorIeEEEEvRT_RKT0_ = comdat any

$_ZNK6dealii12SparseMatrixIdE9vmult_addINS_6VectorIdEENS_11BlockVectorIeEEEEvRT_RKT0_ = comdat any

$_ZNK6dealii12SparseMatrixIdE10Tvmult_addINS_6VectorIdEENS_11BlockVectorIeEEEEvRT_RKT0_ = comdat any

$_ZNK6dealii12SparseMatrixIdE5vmultINS_11BlockVectorIdEENS_6VectorIeEEEEvRT_RKT0_ = comdat any

$_ZNK6dealii12SparseMatrixIdE6TvmultINS_11BlockVectorIdEENS_6VectorIeEEEEvRT_RKT0_ = comdat any

$_ZNK6dealii12SparseMatrixIdE9vmult_addINS_11BlockVectorIdEENS_6VectorIeEEEEvRT_RKT0_ = comdat any

$_ZNK6dealii12SparseMatrixIdE10Tvmult_addINS_11BlockVectorIdEENS_6VectorIeEEEEvRT_RKT0_ = comdat any

$_ZNK6dealii12SparseMatrixIdE5vmultINS_11BlockVectorIdEENS3_IeEEEEvRT_RKT0_ = comdat any

$_ZNK6dealii12SparseMatrixIdE6TvmultINS_11BlockVectorIdEENS3_IeEEEEvRT_RKT0_ = comdat any

$_ZNK6dealii12SparseMatrixIdE9vmult_addINS_11BlockVectorIdEENS3_IeEEEEvRT_RKT0_ = comdat any

$_ZNK6dealii12SparseMatrixIdE10Tvmult_addINS_11BlockVectorIdEENS3_IeEEEEvRT_RKT0_ = comdat any

$_ZNK6dealii12SparseMatrixIdE5vmultINS_6VectorIfEENS3_IdEEEEvRT_RKT0_ = comdat any

$_ZNK6dealii12SparseMatrixIdE6TvmultINS_6VectorIfEENS3_IdEEEEvRT_RKT0_ = comdat any

$_ZNK6dealii12SparseMatrixIdE9vmult_addINS_6VectorIfEENS3_IdEEEEvRT_RKT0_ = comdat any

$_ZNK6dealii12SparseMatrixIdE10Tvmult_addINS_6VectorIfEENS3_IdEEEEvRT_RKT0_ = comdat any

$_ZNK6dealii12SparseMatrixIdE5vmultINS_6VectorIfEENS_11BlockVectorIdEEEEvRT_RKT0_ = comdat any

$_ZNK6dealii12SparseMatrixIdE6TvmultINS_6VectorIfEENS_11BlockVectorIdEEEEvRT_RKT0_ = comdat any

$_ZNK6dealii12SparseMatrixIdE9vmult_addINS_6VectorIfEENS_11BlockVectorIdEEEEvRT_RKT0_ = comdat any

$_ZNK6dealii12SparseMatrixIdE10Tvmult_addINS_6VectorIfEENS_11BlockVectorIdEEEEvRT_RKT0_ = comdat any

$_ZNK6dealii12SparseMatrixIdE5vmultINS_11BlockVectorIfEENS_6VectorIdEEEEvRT_RKT0_ = comdat any

$_ZNK6dealii12SparseMatrixIdE6TvmultINS_11BlockVectorIfEENS_6VectorIdEEEEvRT_RKT0_ = comdat any

$_ZNK6dealii12SparseMatrixIdE9vmult_addINS_11BlockVectorIfEENS_6VectorIdEEEEvRT_RKT0_ = comdat any

$_ZNK6dealii12SparseMatrixIdE10Tvmult_addINS_11BlockVectorIfEENS_6VectorIdEEEEvRT_RKT0_ = comdat any

$_ZNK6dealii12SparseMatrixIdE5vmultINS_11BlockVectorIfEENS3_IdEEEEvRT_RKT0_ = comdat any

$_ZNK6dealii12SparseMatrixIdE6TvmultINS_11BlockVectorIfEENS3_IdEEEEvRT_RKT0_ = comdat any

$_ZNK6dealii12SparseMatrixIdE9vmult_addINS_11BlockVectorIfEENS3_IdEEEEvRT_RKT0_ = comdat any

$_ZNK6dealii12SparseMatrixIdE10Tvmult_addINS_11BlockVectorIfEENS3_IdEEEEvRT_RKT0_ = comdat any

$_ZNK6dealii12SparseMatrixIdE5vmultINS_6VectorIfEES4_EEvRT_RKT0_ = comdat any

$_ZNK6dealii12SparseMatrixIdE6TvmultINS_6VectorIfEES4_EEvRT_RKT0_ = comdat any

$_ZNK6dealii12SparseMatrixIdE9vmult_addINS_6VectorIfEES4_EEvRT_RKT0_ = comdat any

$_ZNK6dealii12SparseMatrixIdE10Tvmult_addINS_6VectorIfEES4_EEvRT_RKT0_ = comdat any

$_ZNK6dealii12SparseMatrixIdE5vmultINS_6VectorIfEENS_11BlockVectorIfEEEEvRT_RKT0_ = comdat any

$_ZNK6dealii12SparseMatrixIdE6TvmultINS_6VectorIfEENS_11BlockVectorIfEEEEvRT_RKT0_ = comdat any

$_ZNK6dealii12SparseMatrixIdE9vmult_addINS_6VectorIfEENS_11BlockVectorIfEEEEvRT_RKT0_ = comdat any

$_ZNK6dealii12SparseMatrixIdE10Tvmult_addINS_6VectorIfEENS_11BlockVectorIfEEEEvRT_RKT0_ = comdat any

$_ZNK6dealii12SparseMatrixIdE5vmultINS_11BlockVectorIfEENS_6VectorIfEEEEvRT_RKT0_ = comdat any

$_ZNK6dealii12SparseMatrixIdE6TvmultINS_11BlockVectorIfEENS_6VectorIfEEEEvRT_RKT0_ = comdat any

$_ZNK6dealii12SparseMatrixIdE9vmult_addINS_11BlockVectorIfEENS_6VectorIfEEEEvRT_RKT0_ = comdat any

$_ZNK6dealii12SparseMatrixIdE10Tvmult_addINS_11BlockVectorIfEENS_6VectorIfEEEEvRT_RKT0_ = comdat any

$_ZNK6dealii12SparseMatrixIdE5vmultINS_11BlockVectorIfEES4_EEvRT_RKT0_ = comdat any

$_ZNK6dealii12SparseMatrixIdE6TvmultINS_11BlockVectorIfEES4_EEvRT_RKT0_ = comdat any

$_ZNK6dealii12SparseMatrixIdE9vmult_addINS_11BlockVectorIfEES4_EEvRT_RKT0_ = comdat any

$_ZNK6dealii12SparseMatrixIdE10Tvmult_addINS_11BlockVectorIfEES4_EEvRT_RKT0_ = comdat any

$_ZNK6dealii12SparseMatrixIdE5vmultINS_6VectorIfEENS3_IeEEEEvRT_RKT0_ = comdat any

$_ZNK6dealii12SparseMatrixIdE6TvmultINS_6VectorIfEENS3_IeEEEEvRT_RKT0_ = comdat any

$_ZNK6dealii12SparseMatrixIdE9vmult_addINS_6VectorIfEENS3_IeEEEEvRT_RKT0_ = comdat any

$_ZNK6dealii12SparseMatrixIdE10Tvmult_addINS_6VectorIfEENS3_IeEEEEvRT_RKT0_ = comdat any

$_ZNK6dealii12SparseMatrixIdE5vmultINS_6VectorIfEENS_11BlockVectorIeEEEEvRT_RKT0_ = comdat any

$_ZNK6dealii12SparseMatrixIdE6TvmultINS_6VectorIfEENS_11BlockVectorIeEEEEvRT_RKT0_ = comdat any

$_ZNK6dealii12SparseMatrixIdE9vmult_addINS_6VectorIfEENS_11BlockVectorIeEEEEvRT_RKT0_ = comdat any

$_ZNK6dealii12SparseMatrixIdE10Tvmult_addINS_6VectorIfEENS_11BlockVectorIeEEEEvRT_RKT0_ = comdat any

$_ZNK6dealii12SparseMatrixIdE5vmultINS_11BlockVectorIfEENS_6VectorIeEEEEvRT_RKT0_ = comdat any

$_ZNK6dealii12SparseMatrixIdE6TvmultINS_11BlockVectorIfEENS_6VectorIeEEEEvRT_RKT0_ = comdat any

$_ZNK6dealii12SparseMatrixIdE9vmult_addINS_11BlockVectorIfEENS_6VectorIeEEEEvRT_RKT0_ = comdat any

$_ZNK6dealii12SparseMatrixIdE10Tvmult_addINS_11BlockVectorIfEENS_6VectorIeEEEEvRT_RKT0_ = comdat any

$_ZNK6dealii12SparseMatrixIdE5vmultINS_11BlockVectorIfEENS3_IeEEEEvRT_RKT0_ = comdat any

$_ZNK6dealii12SparseMatrixIdE6TvmultINS_11BlockVectorIfEENS3_IeEEEEvRT_RKT0_ = comdat any

$_ZNK6dealii12SparseMatrixIdE9vmult_addINS_11BlockVectorIfEENS3_IeEEEEvRT_RKT0_ = comdat any

$_ZNK6dealii12SparseMatrixIdE10Tvmult_addINS_11BlockVectorIfEENS3_IeEEEEvRT_RKT0_ = comdat any

$_ZNK6dealii12SparseMatrixIdE5vmultINS_6VectorIeEENS3_IdEEEEvRT_RKT0_ = comdat any

$_ZNK6dealii12SparseMatrixIdE6TvmultINS_6VectorIeEENS3_IdEEEEvRT_RKT0_ = comdat any

$_ZNK6dealii12SparseMatrixIdE9vmult_addINS_6VectorIeEENS3_IdEEEEvRT_RKT0_ = comdat any

$_ZNK6dealii12SparseMatrixIdE10Tvmult_addINS_6VectorIeEENS3_IdEEEEvRT_RKT0_ = comdat any

$_ZNK6dealii12SparseMatrixIdE5vmultINS_6VectorIeEENS_11BlockVectorIdEEEEvRT_RKT0_ = comdat any

$_ZNK6dealii12SparseMatrixIdE6TvmultINS_6VectorIeEENS_11BlockVectorIdEEEEvRT_RKT0_ = comdat any

$_ZNK6dealii12SparseMatrixIdE9vmult_addINS_6VectorIeEENS_11BlockVectorIdEEEEvRT_RKT0_ = comdat any

$_ZNK6dealii12SparseMatrixIdE10Tvmult_addINS_6VectorIeEENS_11BlockVectorIdEEEEvRT_RKT0_ = comdat any

$_ZNK6dealii12SparseMatrixIdE5vmultINS_11BlockVectorIeEENS_6VectorIdEEEEvRT_RKT0_ = comdat any

$_ZNK6dealii12SparseMatrixIdE6TvmultINS_11BlockVectorIeEENS_6VectorIdEEEEvRT_RKT0_ = comdat any

$_ZNK6dealii12SparseMatrixIdE9vmult_addINS_11BlockVectorIeEENS_6VectorIdEEEEvRT_RKT0_ = comdat any

$_ZNK6dealii12SparseMatrixIdE10Tvmult_addINS_11BlockVectorIeEENS_6VectorIdEEEEvRT_RKT0_ = comdat any

$_ZNK6dealii12SparseMatrixIdE5vmultINS_11BlockVectorIeEENS3_IdEEEEvRT_RKT0_ = comdat any

$_ZNK6dealii12SparseMatrixIdE6TvmultINS_11BlockVectorIeEENS3_IdEEEEvRT_RKT0_ = comdat any

$_ZNK6dealii12SparseMatrixIdE9vmult_addINS_11BlockVectorIeEENS3_IdEEEEvRT_RKT0_ = comdat any

$_ZNK6dealii12SparseMatrixIdE10Tvmult_addINS_11BlockVectorIeEENS3_IdEEEEvRT_RKT0_ = comdat any

$_ZNK6dealii12SparseMatrixIdE5vmultINS_6VectorIeEENS3_IfEEEEvRT_RKT0_ = comdat any

$_ZNK6dealii12SparseMatrixIdE6TvmultINS_6VectorIeEENS3_IfEEEEvRT_RKT0_ = comdat any

$_ZNK6dealii12SparseMatrixIdE9vmult_addINS_6VectorIeEENS3_IfEEEEvRT_RKT0_ = comdat any

$_ZNK6dealii12SparseMatrixIdE10Tvmult_addINS_6VectorIeEENS3_IfEEEEvRT_RKT0_ = comdat any

$_ZNK6dealii12SparseMatrixIdE5vmultINS_6VectorIeEENS_11BlockVectorIfEEEEvRT_RKT0_ = comdat any

$_ZNK6dealii12SparseMatrixIdE6TvmultINS_6VectorIeEENS_11BlockVectorIfEEEEvRT_RKT0_ = comdat any

$_ZNK6dealii12SparseMatrixIdE9vmult_addINS_6VectorIeEENS_11BlockVectorIfEEEEvRT_RKT0_ = comdat any

$_ZNK6dealii12SparseMatrixIdE10Tvmult_addINS_6VectorIeEENS_11BlockVectorIfEEEEvRT_RKT0_ = comdat any

$_ZNK6dealii12SparseMatrixIdE5vmultINS_11BlockVectorIeEENS_6VectorIfEEEEvRT_RKT0_ = comdat any

$_ZNK6dealii12SparseMatrixIdE6TvmultINS_11BlockVectorIeEENS_6VectorIfEEEEvRT_RKT0_ = comdat any

$_ZNK6dealii12SparseMatrixIdE9vmult_addINS_11BlockVectorIeEENS_6VectorIfEEEEvRT_RKT0_ = comdat any

$_ZNK6dealii12SparseMatrixIdE10Tvmult_addINS_11BlockVectorIeEENS_6VectorIfEEEEvRT_RKT0_ = comdat any

$_ZNK6dealii12SparseMatrixIdE5vmultINS_11BlockVectorIeEENS3_IfEEEEvRT_RKT0_ = comdat any

$_ZNK6dealii12SparseMatrixIdE6TvmultINS_11BlockVectorIeEENS3_IfEEEEvRT_RKT0_ = comdat any

$_ZNK6dealii12SparseMatrixIdE9vmult_addINS_11BlockVectorIeEENS3_IfEEEEvRT_RKT0_ = comdat any

$_ZNK6dealii12SparseMatrixIdE10Tvmult_addINS_11BlockVectorIeEENS3_IfEEEEvRT_RKT0_ = comdat any

$_ZNK6dealii12SparseMatrixIdE5vmultINS_6VectorIeEES4_EEvRT_RKT0_ = comdat any

$_ZNK6dealii12SparseMatrixIdE6TvmultINS_6VectorIeEES4_EEvRT_RKT0_ = comdat any

$_ZNK6dealii12SparseMatrixIdE9vmult_addINS_6VectorIeEES4_EEvRT_RKT0_ = comdat any

$_ZNK6dealii12SparseMatrixIdE10Tvmult_addINS_6VectorIeEES4_EEvRT_RKT0_ = comdat any

$_ZNK6dealii12SparseMatrixIdE5vmultINS_6VectorIeEENS_11BlockVectorIeEEEEvRT_RKT0_ = comdat any

$_ZNK6dealii12SparseMatrixIdE6TvmultINS_6VectorIeEENS_11BlockVectorIeEEEEvRT_RKT0_ = comdat any

$_ZNK6dealii12SparseMatrixIdE9vmult_addINS_6VectorIeEENS_11BlockVectorIeEEEEvRT_RKT0_ = comdat any

$_ZNK6dealii12SparseMatrixIdE10Tvmult_addINS_6VectorIeEENS_11BlockVectorIeEEEEvRT_RKT0_ = comdat any

$_ZNK6dealii12SparseMatrixIdE5vmultINS_11BlockVectorIeEENS_6VectorIeEEEEvRT_RKT0_ = comdat any

$_ZNK6dealii12SparseMatrixIdE6TvmultINS_11BlockVectorIeEENS_6VectorIeEEEEvRT_RKT0_ = comdat any

$_ZNK6dealii12SparseMatrixIdE9vmult_addINS_11BlockVectorIeEENS_6VectorIeEEEEvRT_RKT0_ = comdat any

$_ZNK6dealii12SparseMatrixIdE10Tvmult_addINS_11BlockVectorIeEENS_6VectorIeEEEEvRT_RKT0_ = comdat any

$_ZNK6dealii12SparseMatrixIdE5vmultINS_11BlockVectorIeEES4_EEvRT_RKT0_ = comdat any

$_ZNK6dealii12SparseMatrixIdE6TvmultINS_11BlockVectorIeEES4_EEvRT_RKT0_ = comdat any

$_ZNK6dealii12SparseMatrixIdE9vmult_addINS_11BlockVectorIeEES4_EEvRT_RKT0_ = comdat any

$_ZNK6dealii12SparseMatrixIdE10Tvmult_addINS_11BlockVectorIeEES4_EEvRT_RKT0_ = comdat any

$_ZNK6dealii12SparseMatrixIfE5vmultINS_6VectorIdEES4_EEvRT_RKT0_ = comdat any

$_ZNK6dealii12SparseMatrixIfE6TvmultINS_6VectorIdEES4_EEvRT_RKT0_ = comdat any

$_ZNK6dealii12SparseMatrixIfE9vmult_addINS_6VectorIdEES4_EEvRT_RKT0_ = comdat any

$_ZNK6dealii12SparseMatrixIfE10Tvmult_addINS_6VectorIdEES4_EEvRT_RKT0_ = comdat any

$_ZNK6dealii12SparseMatrixIfE5vmultINS_6VectorIdEENS_11BlockVectorIdEEEEvRT_RKT0_ = comdat any

$_ZNK6dealii12SparseMatrixIfE6TvmultINS_6VectorIdEENS_11BlockVectorIdEEEEvRT_RKT0_ = comdat any

$_ZNK6dealii12SparseMatrixIfE9vmult_addINS_6VectorIdEENS_11BlockVectorIdEEEEvRT_RKT0_ = comdat any

$_ZNK6dealii12SparseMatrixIfE10Tvmult_addINS_6VectorIdEENS_11BlockVectorIdEEEEvRT_RKT0_ = comdat any

$_ZNK6dealii12SparseMatrixIfE5vmultINS_11BlockVectorIdEENS_6VectorIdEEEEvRT_RKT0_ = comdat any

$_ZNK6dealii12SparseMatrixIfE6TvmultINS_11BlockVectorIdEENS_6VectorIdEEEEvRT_RKT0_ = comdat any

$_ZNK6dealii12SparseMatrixIfE9vmult_addINS_11BlockVectorIdEENS_6VectorIdEEEEvRT_RKT0_ = comdat any

$_ZNK6dealii12SparseMatrixIfE10Tvmult_addINS_11BlockVectorIdEENS_6VectorIdEEEEvRT_RKT0_ = comdat any

$_ZNK6dealii12SparseMatrixIfE5vmultINS_11BlockVectorIdEES4_EEvRT_RKT0_ = comdat any

$_ZNK6dealii12SparseMatrixIfE6TvmultINS_11BlockVectorIdEES4_EEvRT_RKT0_ = comdat any

$_ZNK6dealii12SparseMatrixIfE9vmult_addINS_11BlockVectorIdEES4_EEvRT_RKT0_ = comdat any

$_ZNK6dealii12SparseMatrixIfE10Tvmult_addINS_11BlockVectorIdEES4_EEvRT_RKT0_ = comdat any

$_ZNK6dealii12SparseMatrixIfE5vmultINS_6VectorIdEENS3_IfEEEEvRT_RKT0_ = comdat any

$_ZNK6dealii12SparseMatrixIfE6TvmultINS_6VectorIdEENS3_IfEEEEvRT_RKT0_ = comdat any

$_ZNK6dealii12SparseMatrixIfE9vmult_addINS_6VectorIdEENS3_IfEEEEvRT_RKT0_ = comdat any

$_ZNK6dealii12SparseMatrixIfE10Tvmult_addINS_6VectorIdEENS3_IfEEEEvRT_RKT0_ = comdat any

$_ZNK6dealii12SparseMatrixIfE5vmultINS_6VectorIdEENS_11BlockVectorIfEEEEvRT_RKT0_ = comdat any

$_ZNK6dealii12SparseMatrixIfE6TvmultINS_6VectorIdEENS_11BlockVectorIfEEEEvRT_RKT0_ = comdat any

$_ZNK6dealii12SparseMatrixIfE9vmult_addINS_6VectorIdEENS_11BlockVectorIfEEEEvRT_RKT0_ = comdat any

$_ZNK6dealii12SparseMatrixIfE10Tvmult_addINS_6VectorIdEENS_11BlockVectorIfEEEEvRT_RKT0_ = comdat any

$_ZNK6dealii12SparseMatrixIfE5vmultINS_11BlockVectorIdEENS_6VectorIfEEEEvRT_RKT0_ = comdat any

$_ZNK6dealii12SparseMatrixIfE6TvmultINS_11BlockVectorIdEENS_6VectorIfEEEEvRT_RKT0_ = comdat any

$_ZNK6dealii12SparseMatrixIfE9vmult_addINS_11BlockVectorIdEENS_6VectorIfEEEEvRT_RKT0_ = comdat any

$_ZNK6dealii12SparseMatrixIfE10Tvmult_addINS_11BlockVectorIdEENS_6VectorIfEEEEvRT_RKT0_ = comdat any

$_ZNK6dealii12SparseMatrixIfE5vmultINS_11BlockVectorIdEENS3_IfEEEEvRT_RKT0_ = comdat any

$_ZNK6dealii12SparseMatrixIfE6TvmultINS_11BlockVectorIdEENS3_IfEEEEvRT_RKT0_ = comdat any

$_ZNK6dealii12SparseMatrixIfE9vmult_addINS_11BlockVectorIdEENS3_IfEEEEvRT_RKT0_ = comdat any

$_ZNK6dealii12SparseMatrixIfE10Tvmult_addINS_11BlockVectorIdEENS3_IfEEEEvRT_RKT0_ = comdat any

$_ZNK6dealii12SparseMatrixIfE5vmultINS_6VectorIdEENS3_IeEEEEvRT_RKT0_ = comdat any

$_ZNK6dealii12SparseMatrixIfE6TvmultINS_6VectorIdEENS3_IeEEEEvRT_RKT0_ = comdat any

$_ZNK6dealii12SparseMatrixIfE9vmult_addINS_6VectorIdEENS3_IeEEEEvRT_RKT0_ = comdat any

$_ZNK6dealii12SparseMatrixIfE10Tvmult_addINS_6VectorIdEENS3_IeEEEEvRT_RKT0_ = comdat any

$_ZNK6dealii12SparseMatrixIfE5vmultINS_6VectorIdEENS_11BlockVectorIeEEEEvRT_RKT0_ = comdat any

$_ZNK6dealii12SparseMatrixIfE6TvmultINS_6VectorIdEENS_11BlockVectorIeEEEEvRT_RKT0_ = comdat any

$_ZNK6dealii12SparseMatrixIfE9vmult_addINS_6VectorIdEENS_11BlockVectorIeEEEEvRT_RKT0_ = comdat any

$_ZNK6dealii12SparseMatrixIfE10Tvmult_addINS_6VectorIdEENS_11BlockVectorIeEEEEvRT_RKT0_ = comdat any

$_ZNK6dealii12SparseMatrixIfE5vmultINS_11BlockVectorIdEENS_6VectorIeEEEEvRT_RKT0_ = comdat any

$_ZNK6dealii12SparseMatrixIfE6TvmultINS_11BlockVectorIdEENS_6VectorIeEEEEvRT_RKT0_ = comdat any

$_ZNK6dealii12SparseMatrixIfE9vmult_addINS_11BlockVectorIdEENS_6VectorIeEEEEvRT_RKT0_ = comdat any

$_ZNK6dealii12SparseMatrixIfE10Tvmult_addINS_11BlockVectorIdEENS_6VectorIeEEEEvRT_RKT0_ = comdat any

$_ZNK6dealii12SparseMatrixIfE5vmultINS_11BlockVectorIdEENS3_IeEEEEvRT_RKT0_ = comdat any

$_ZNK6dealii12SparseMatrixIfE6TvmultINS_11BlockVectorIdEENS3_IeEEEEvRT_RKT0_ = comdat any

$_ZNK6dealii12SparseMatrixIfE9vmult_addINS_11BlockVectorIdEENS3_IeEEEEvRT_RKT0_ = comdat any

$_ZNK6dealii12SparseMatrixIfE10Tvmult_addINS_11BlockVectorIdEENS3_IeEEEEvRT_RKT0_ = comdat any

$_ZNK6dealii12SparseMatrixIfE5vmultINS_6VectorIfEENS3_IdEEEEvRT_RKT0_ = comdat any

$_ZNK6dealii12SparseMatrixIfE6TvmultINS_6VectorIfEENS3_IdEEEEvRT_RKT0_ = comdat any

$_ZNK6dealii12SparseMatrixIfE9vmult_addINS_6VectorIfEENS3_IdEEEEvRT_RKT0_ = comdat any

$_ZNK6dealii12SparseMatrixIfE10Tvmult_addINS_6VectorIfEENS3_IdEEEEvRT_RKT0_ = comdat any

$_ZNK6dealii12SparseMatrixIfE5vmultINS_6VectorIfEENS_11BlockVectorIdEEEEvRT_RKT0_ = comdat any

$_ZNK6dealii12SparseMatrixIfE6TvmultINS_6VectorIfEENS_11BlockVectorIdEEEEvRT_RKT0_ = comdat any

$_ZNK6dealii12SparseMatrixIfE9vmult_addINS_6VectorIfEENS_11BlockVectorIdEEEEvRT_RKT0_ = comdat any

$_ZNK6dealii12SparseMatrixIfE10Tvmult_addINS_6VectorIfEENS_11BlockVectorIdEEEEvRT_RKT0_ = comdat any

$_ZNK6dealii12SparseMatrixIfE5vmultINS_11BlockVectorIfEENS_6VectorIdEEEEvRT_RKT0_ = comdat any

$_ZNK6dealii12SparseMatrixIfE6TvmultINS_11BlockVectorIfEENS_6VectorIdEEEEvRT_RKT0_ = comdat any

$_ZNK6dealii12SparseMatrixIfE9vmult_addINS_11BlockVectorIfEENS_6VectorIdEEEEvRT_RKT0_ = comdat any

$_ZNK6dealii12SparseMatrixIfE10Tvmult_addINS_11BlockVectorIfEENS_6VectorIdEEEEvRT_RKT0_ = comdat any

$_ZNK6dealii12SparseMatrixIfE5vmultINS_11BlockVectorIfEENS3_IdEEEEvRT_RKT0_ = comdat any

$_ZNK6dealii12SparseMatrixIfE6TvmultINS_11BlockVectorIfEENS3_IdEEEEvRT_RKT0_ = comdat any

$_ZNK6dealii12SparseMatrixIfE9vmult_addINS_11BlockVectorIfEENS3_IdEEEEvRT_RKT0_ = comdat any

$_ZNK6dealii12SparseMatrixIfE10Tvmult_addINS_11BlockVectorIfEENS3_IdEEEEvRT_RKT0_ = comdat any

$_ZNK6dealii12SparseMatrixIfE5vmultINS_6VectorIfEES4_EEvRT_RKT0_ = comdat any

$_ZNK6dealii12SparseMatrixIfE6TvmultINS_6VectorIfEES4_EEvRT_RKT0_ = comdat any

$_ZNK6dealii12SparseMatrixIfE9vmult_addINS_6VectorIfEES4_EEvRT_RKT0_ = comdat any

$_ZNK6dealii12SparseMatrixIfE10Tvmult_addINS_6VectorIfEES4_EEvRT_RKT0_ = comdat any

$_ZNK6dealii12SparseMatrixIfE5vmultINS_6VectorIfEENS_11BlockVectorIfEEEEvRT_RKT0_ = comdat any

$_ZNK6dealii12SparseMatrixIfE6TvmultINS_6VectorIfEENS_11BlockVectorIfEEEEvRT_RKT0_ = comdat any

$_ZNK6dealii12SparseMatrixIfE9vmult_addINS_6VectorIfEENS_11BlockVectorIfEEEEvRT_RKT0_ = comdat any

$_ZNK6dealii12SparseMatrixIfE10Tvmult_addINS_6VectorIfEENS_11BlockVectorIfEEEEvRT_RKT0_ = comdat any

$_ZNK6dealii12SparseMatrixIfE5vmultINS_11BlockVectorIfEENS_6VectorIfEEEEvRT_RKT0_ = comdat any

$_ZNK6dealii12SparseMatrixIfE6TvmultINS_11BlockVectorIfEENS_6VectorIfEEEEvRT_RKT0_ = comdat any

$_ZNK6dealii12SparseMatrixIfE9vmult_addINS_11BlockVectorIfEENS_6VectorIfEEEEvRT_RKT0_ = comdat any

$_ZNK6dealii12SparseMatrixIfE10Tvmult_addINS_11BlockVectorIfEENS_6VectorIfEEEEvRT_RKT0_ = comdat any

$_ZNK6dealii12SparseMatrixIfE5vmultINS_11BlockVectorIfEES4_EEvRT_RKT0_ = comdat any

$_ZNK6dealii12SparseMatrixIfE6TvmultINS_11BlockVectorIfEES4_EEvRT_RKT0_ = comdat any

$_ZNK6dealii12SparseMatrixIfE9vmult_addINS_11BlockVectorIfEES4_EEvRT_RKT0_ = comdat any

$_ZNK6dealii12SparseMatrixIfE10Tvmult_addINS_11BlockVectorIfEES4_EEvRT_RKT0_ = comdat any

$_ZNK6dealii12SparseMatrixIfE5vmultINS_6VectorIfEENS3_IeEEEEvRT_RKT0_ = comdat any

$_ZNK6dealii12SparseMatrixIfE6TvmultINS_6VectorIfEENS3_IeEEEEvRT_RKT0_ = comdat any

$_ZNK6dealii12SparseMatrixIfE9vmult_addINS_6VectorIfEENS3_IeEEEEvRT_RKT0_ = comdat any

$_ZNK6dealii12SparseMatrixIfE10Tvmult_addINS_6VectorIfEENS3_IeEEEEvRT_RKT0_ = comdat any

$_ZNK6dealii12SparseMatrixIfE5vmultINS_6VectorIfEENS_11BlockVectorIeEEEEvRT_RKT0_ = comdat any

$_ZNK6dealii12SparseMatrixIfE6TvmultINS_6VectorIfEENS_11BlockVectorIeEEEEvRT_RKT0_ = comdat any

$_ZNK6dealii12SparseMatrixIfE9vmult_addINS_6VectorIfEENS_11BlockVectorIeEEEEvRT_RKT0_ = comdat any

$_ZNK6dealii12SparseMatrixIfE10Tvmult_addINS_6VectorIfEENS_11BlockVectorIeEEEEvRT_RKT0_ = comdat any

$_ZNK6dealii12SparseMatrixIfE5vmultINS_11BlockVectorIfEENS_6VectorIeEEEEvRT_RKT0_ = comdat any

$_ZNK6dealii12SparseMatrixIfE6TvmultINS_11BlockVectorIfEENS_6VectorIeEEEEvRT_RKT0_ = comdat any

$_ZNK6dealii12SparseMatrixIfE9vmult_addINS_11BlockVectorIfEENS_6VectorIeEEEEvRT_RKT0_ = comdat any

$_ZNK6dealii12SparseMatrixIfE10Tvmult_addINS_11BlockVectorIfEENS_6VectorIeEEEEvRT_RKT0_ = comdat any

$_ZNK6dealii12SparseMatrixIfE5vmultINS_11BlockVectorIfEENS3_IeEEEEvRT_RKT0_ = comdat any

$_ZNK6dealii12SparseMatrixIfE6TvmultINS_11BlockVectorIfEENS3_IeEEEEvRT_RKT0_ = comdat any

$_ZNK6dealii12SparseMatrixIfE9vmult_addINS_11BlockVectorIfEENS3_IeEEEEvRT_RKT0_ = comdat any

$_ZNK6dealii12SparseMatrixIfE10Tvmult_addINS_11BlockVectorIfEENS3_IeEEEEvRT_RKT0_ = comdat any

$_ZNK6dealii12SparseMatrixIfE5vmultINS_6VectorIeEENS3_IdEEEEvRT_RKT0_ = comdat any

$_ZNK6dealii12SparseMatrixIfE6TvmultINS_6VectorIeEENS3_IdEEEEvRT_RKT0_ = comdat any

$_ZNK6dealii12SparseMatrixIfE9vmult_addINS_6VectorIeEENS3_IdEEEEvRT_RKT0_ = comdat any

$_ZNK6dealii12SparseMatrixIfE10Tvmult_addINS_6VectorIeEENS3_IdEEEEvRT_RKT0_ = comdat any

$_ZNK6dealii12SparseMatrixIfE5vmultINS_6VectorIeEENS_11BlockVectorIdEEEEvRT_RKT0_ = comdat any

$_ZNK6dealii12SparseMatrixIfE6TvmultINS_6VectorIeEENS_11BlockVectorIdEEEEvRT_RKT0_ = comdat any

$_ZNK6dealii12SparseMatrixIfE9vmult_addINS_6VectorIeEENS_11BlockVectorIdEEEEvRT_RKT0_ = comdat any

$_ZNK6dealii12SparseMatrixIfE10Tvmult_addINS_6VectorIeEENS_11BlockVectorIdEEEEvRT_RKT0_ = comdat any

$_ZNK6dealii12SparseMatrixIfE5vmultINS_11BlockVectorIeEENS_6VectorIdEEEEvRT_RKT0_ = comdat any

$_ZNK6dealii12SparseMatrixIfE6TvmultINS_11BlockVectorIeEENS_6VectorIdEEEEvRT_RKT0_ = comdat any

$_ZNK6dealii12SparseMatrixIfE9vmult_addINS_11BlockVectorIeEENS_6VectorIdEEEEvRT_RKT0_ = comdat any

$_ZNK6dealii12SparseMatrixIfE10Tvmult_addINS_11BlockVectorIeEENS_6VectorIdEEEEvRT_RKT0_ = comdat any

$_ZNK6dealii12SparseMatrixIfE5vmultINS_11BlockVectorIeEENS3_IdEEEEvRT_RKT0_ = comdat any

$_ZNK6dealii12SparseMatrixIfE6TvmultINS_11BlockVectorIeEENS3_IdEEEEvRT_RKT0_ = comdat any

$_ZNK6dealii12SparseMatrixIfE9vmult_addINS_11BlockVectorIeEENS3_IdEEEEvRT_RKT0_ = comdat any

$_ZNK6dealii12SparseMatrixIfE10Tvmult_addINS_11BlockVectorIeEENS3_IdEEEEvRT_RKT0_ = comdat any

$_ZNK6dealii12SparseMatrixIfE5vmultINS_6VectorIeEENS3_IfEEEEvRT_RKT0_ = comdat any

$_ZNK6dealii12SparseMatrixIfE6TvmultINS_6VectorIeEENS3_IfEEEEvRT_RKT0_ = comdat any

$_ZNK6dealii12SparseMatrixIfE9vmult_addINS_6VectorIeEENS3_IfEEEEvRT_RKT0_ = comdat any

$_ZNK6dealii12SparseMatrixIfE10Tvmult_addINS_6VectorIeEENS3_IfEEEEvRT_RKT0_ = comdat any

$_ZNK6dealii12SparseMatrixIfE5vmultINS_6VectorIeEENS_11BlockVectorIfEEEEvRT_RKT0_ = comdat any

$_ZNK6dealii12SparseMatrixIfE6TvmultINS_6VectorIeEENS_11BlockVectorIfEEEEvRT_RKT0_ = comdat any

$_ZNK6dealii12SparseMatrixIfE9vmult_addINS_6VectorIeEENS_11BlockVectorIfEEEEvRT_RKT0_ = comdat any

$_ZNK6dealii12SparseMatrixIfE10Tvmult_addINS_6VectorIeEENS_11BlockVectorIfEEEEvRT_RKT0_ = comdat any

$_ZNK6dealii12SparseMatrixIfE5vmultINS_11BlockVectorIeEENS_6VectorIfEEEEvRT_RKT0_ = comdat any

$_ZNK6dealii12SparseMatrixIfE6TvmultINS_11BlockVectorIeEENS_6VectorIfEEEEvRT_RKT0_ = comdat any

$_ZNK6dealii12SparseMatrixIfE9vmult_addINS_11BlockVectorIeEENS_6VectorIfEEEEvRT_RKT0_ = comdat any

$_ZNK6dealii12SparseMatrixIfE10Tvmult_addINS_11BlockVectorIeEENS_6VectorIfEEEEvRT_RKT0_ = comdat any

$_ZNK6dealii12SparseMatrixIfE5vmultINS_11BlockVectorIeEENS3_IfEEEEvRT_RKT0_ = comdat any

$_ZNK6dealii12SparseMatrixIfE6TvmultINS_11BlockVectorIeEENS3_IfEEEEvRT_RKT0_ = comdat any

$_ZNK6dealii12SparseMatrixIfE9vmult_addINS_11BlockVectorIeEENS3_IfEEEEvRT_RKT0_ = comdat any

$_ZNK6dealii12SparseMatrixIfE10Tvmult_addINS_11BlockVectorIeEENS3_IfEEEEvRT_RKT0_ = comdat any

$_ZNK6dealii12SparseMatrixIfE5vmultINS_6VectorIeEES4_EEvRT_RKT0_ = comdat any

$_ZNK6dealii12SparseMatrixIfE6TvmultINS_6VectorIeEES4_EEvRT_RKT0_ = comdat any

$_ZNK6dealii12SparseMatrixIfE9vmult_addINS_6VectorIeEES4_EEvRT_RKT0_ = comdat any

$_ZNK6dealii12SparseMatrixIfE10Tvmult_addINS_6VectorIeEES4_EEvRT_RKT0_ = comdat any

$_ZNK6dealii12SparseMatrixIfE5vmultINS_6VectorIeEENS_11BlockVectorIeEEEEvRT_RKT0_ = comdat any

$_ZNK6dealii12SparseMatrixIfE6TvmultINS_6VectorIeEENS_11BlockVectorIeEEEEvRT_RKT0_ = comdat any

$_ZNK6dealii12SparseMatrixIfE9vmult_addINS_6VectorIeEENS_11BlockVectorIeEEEEvRT_RKT0_ = comdat any

$_ZNK6dealii12SparseMatrixIfE10Tvmult_addINS_6VectorIeEENS_11BlockVectorIeEEEEvRT_RKT0_ = comdat any

$_ZNK6dealii12SparseMatrixIfE5vmultINS_11BlockVectorIeEENS_6VectorIeEEEEvRT_RKT0_ = comdat any

$_ZNK6dealii12SparseMatrixIfE6TvmultINS_11BlockVectorIeEENS_6VectorIeEEEEvRT_RKT0_ = comdat any

$_ZNK6dealii12SparseMatrixIfE9vmult_addINS_11BlockVectorIeEENS_6VectorIeEEEEvRT_RKT0_ = comdat any

$_ZNK6dealii12SparseMatrixIfE10Tvmult_addINS_11BlockVectorIeEENS_6VectorIeEEEEvRT_RKT0_ = comdat any

$_ZNK6dealii12SparseMatrixIfE5vmultINS_11BlockVectorIeEES4_EEvRT_RKT0_ = comdat any

$_ZNK6dealii12SparseMatrixIfE6TvmultINS_11BlockVectorIeEES4_EEvRT_RKT0_ = comdat any

$_ZNK6dealii12SparseMatrixIfE9vmult_addINS_11BlockVectorIeEES4_EEvRT_RKT0_ = comdat any

$_ZNK6dealii12SparseMatrixIfE10Tvmult_addINS_11BlockVectorIeEES4_EEvRT_RKT0_ = comdat any

$_ZNK6dealii12SparseMatrixIeE5vmultINS_6VectorIdEES4_EEvRT_RKT0_ = comdat any

$_ZNK6dealii12SparseMatrixIeE6TvmultINS_6VectorIdEES4_EEvRT_RKT0_ = comdat any

$_ZNK6dealii12SparseMatrixIeE9vmult_addINS_6VectorIdEES4_EEvRT_RKT0_ = comdat any

$_ZNK6dealii12SparseMatrixIeE10Tvmult_addINS_6VectorIdEES4_EEvRT_RKT0_ = comdat any

$_ZNK6dealii12SparseMatrixIeE5vmultINS_6VectorIdEENS_11BlockVectorIdEEEEvRT_RKT0_ = comdat any

$_ZNK6dealii12SparseMatrixIeE6TvmultINS_6VectorIdEENS_11BlockVectorIdEEEEvRT_RKT0_ = comdat any

$_ZNK6dealii12SparseMatrixIeE9vmult_addINS_6VectorIdEENS_11BlockVectorIdEEEEvRT_RKT0_ = comdat any

$_ZNK6dealii12SparseMatrixIeE10Tvmult_addINS_6VectorIdEENS_11BlockVectorIdEEEEvRT_RKT0_ = comdat any

$_ZNK6dealii12SparseMatrixIeE5vmultINS_11BlockVectorIdEENS_6VectorIdEEEEvRT_RKT0_ = comdat any

$_ZNK6dealii12SparseMatrixIeE6TvmultINS_11BlockVectorIdEENS_6VectorIdEEEEvRT_RKT0_ = comdat any

$_ZNK6dealii12SparseMatrixIeE9vmult_addINS_11BlockVectorIdEENS_6VectorIdEEEEvRT_RKT0_ = comdat any

$_ZNK6dealii12SparseMatrixIeE10Tvmult_addINS_11BlockVectorIdEENS_6VectorIdEEEEvRT_RKT0_ = comdat any

$_ZNK6dealii12SparseMatrixIeE5vmultINS_11BlockVectorIdEES4_EEvRT_RKT0_ = comdat any

$_ZNK6dealii12SparseMatrixIeE6TvmultINS_11BlockVectorIdEES4_EEvRT_RKT0_ = comdat any

$_ZNK6dealii12SparseMatrixIeE9vmult_addINS_11BlockVectorIdEES4_EEvRT_RKT0_ = comdat any

$_ZNK6dealii12SparseMatrixIeE10Tvmult_addINS_11BlockVectorIdEES4_EEvRT_RKT0_ = comdat any

$_ZNK6dealii12SparseMatrixIeE5vmultINS_6VectorIdEENS3_IfEEEEvRT_RKT0_ = comdat any

$_ZNK6dealii12SparseMatrixIeE6TvmultINS_6VectorIdEENS3_IfEEEEvRT_RKT0_ = comdat any

$_ZNK6dealii12SparseMatrixIeE9vmult_addINS_6VectorIdEENS3_IfEEEEvRT_RKT0_ = comdat any

$_ZNK6dealii12SparseMatrixIeE10Tvmult_addINS_6VectorIdEENS3_IfEEEEvRT_RKT0_ = comdat any

$_ZNK6dealii12SparseMatrixIeE5vmultINS_6VectorIdEENS_11BlockVectorIfEEEEvRT_RKT0_ = comdat any

$_ZNK6dealii12SparseMatrixIeE6TvmultINS_6VectorIdEENS_11BlockVectorIfEEEEvRT_RKT0_ = comdat any

$_ZNK6dealii12SparseMatrixIeE9vmult_addINS_6VectorIdEENS_11BlockVectorIfEEEEvRT_RKT0_ = comdat any

$_ZNK6dealii12SparseMatrixIeE10Tvmult_addINS_6VectorIdEENS_11BlockVectorIfEEEEvRT_RKT0_ = comdat any

$_ZNK6dealii12SparseMatrixIeE5vmultINS_11BlockVectorIdEENS_6VectorIfEEEEvRT_RKT0_ = comdat any

$_ZNK6dealii12SparseMatrixIeE6TvmultINS_11BlockVectorIdEENS_6VectorIfEEEEvRT_RKT0_ = comdat any

$_ZNK6dealii12SparseMatrixIeE9vmult_addINS_11BlockVectorIdEENS_6VectorIfEEEEvRT_RKT0_ = comdat any

$_ZNK6dealii12SparseMatrixIeE10Tvmult_addINS_11BlockVectorIdEENS_6VectorIfEEEEvRT_RKT0_ = comdat any

$_ZNK6dealii12SparseMatrixIeE5vmultINS_11BlockVectorIdEENS3_IfEEEEvRT_RKT0_ = comdat any

$_ZNK6dealii12SparseMatrixIeE6TvmultINS_11BlockVectorIdEENS3_IfEEEEvRT_RKT0_ = comdat any

$_ZNK6dealii12SparseMatrixIeE9vmult_addINS_11BlockVectorIdEENS3_IfEEEEvRT_RKT0_ = comdat any

$_ZNK6dealii12SparseMatrixIeE10Tvmult_addINS_11BlockVectorIdEENS3_IfEEEEvRT_RKT0_ = comdat any

$_ZNK6dealii12SparseMatrixIeE5vmultINS_6VectorIdEENS3_IeEEEEvRT_RKT0_ = comdat any

$_ZNK6dealii12SparseMatrixIeE6TvmultINS_6VectorIdEENS3_IeEEEEvRT_RKT0_ = comdat any

$_ZNK6dealii12SparseMatrixIeE9vmult_addINS_6VectorIdEENS3_IeEEEEvRT_RKT0_ = comdat any

$_ZNK6dealii12SparseMatrixIeE10Tvmult_addINS_6VectorIdEENS3_IeEEEEvRT_RKT0_ = comdat any

$_ZNK6dealii12SparseMatrixIeE5vmultINS_6VectorIdEENS_11BlockVectorIeEEEEvRT_RKT0_ = comdat any

$_ZNK6dealii12SparseMatrixIeE6TvmultINS_6VectorIdEENS_11BlockVectorIeEEEEvRT_RKT0_ = comdat any

$_ZNK6dealii12SparseMatrixIeE9vmult_addINS_6VectorIdEENS_11BlockVectorIeEEEEvRT_RKT0_ = comdat any

$_ZNK6dealii12SparseMatrixIeE10Tvmult_addINS_6VectorIdEENS_11BlockVectorIeEEEEvRT_RKT0_ = comdat any

$_ZNK6dealii12SparseMatrixIeE5vmultINS_11BlockVectorIdEENS_6VectorIeEEEEvRT_RKT0_ = comdat any

$_ZNK6dealii12SparseMatrixIeE6TvmultINS_11BlockVectorIdEENS_6VectorIeEEEEvRT_RKT0_ = comdat any

$_ZNK6dealii12SparseMatrixIeE9vmult_addINS_11BlockVectorIdEENS_6VectorIeEEEEvRT_RKT0_ = comdat any

$_ZNK6dealii12SparseMatrixIeE10Tvmult_addINS_11BlockVectorIdEENS_6VectorIeEEEEvRT_RKT0_ = comdat any

$_ZNK6dealii12SparseMatrixIeE5vmultINS_11BlockVectorIdEENS3_IeEEEEvRT_RKT0_ = comdat any

$_ZNK6dealii12SparseMatrixIeE6TvmultINS_11BlockVectorIdEENS3_IeEEEEvRT_RKT0_ = comdat any

$_ZNK6dealii12SparseMatrixIeE9vmult_addINS_11BlockVectorIdEENS3_IeEEEEvRT_RKT0_ = comdat any

$_ZNK6dealii12SparseMatrixIeE10Tvmult_addINS_11BlockVectorIdEENS3_IeEEEEvRT_RKT0_ = comdat any

$_ZNK6dealii12SparseMatrixIeE5vmultINS_6VectorIfEENS3_IdEEEEvRT_RKT0_ = comdat any

$_ZNK6dealii12SparseMatrixIeE6TvmultINS_6VectorIfEENS3_IdEEEEvRT_RKT0_ = comdat any

$_ZNK6dealii12SparseMatrixIeE9vmult_addINS_6VectorIfEENS3_IdEEEEvRT_RKT0_ = comdat any

$_ZNK6dealii12SparseMatrixIeE10Tvmult_addINS_6VectorIfEENS3_IdEEEEvRT_RKT0_ = comdat any

$_ZNK6dealii12SparseMatrixIeE5vmultINS_6VectorIfEENS_11BlockVectorIdEEEEvRT_RKT0_ = comdat any

$_ZNK6dealii12SparseMatrixIeE6TvmultINS_6VectorIfEENS_11BlockVectorIdEEEEvRT_RKT0_ = comdat any

$_ZNK6dealii12SparseMatrixIeE9vmult_addINS_6VectorIfEENS_11BlockVectorIdEEEEvRT_RKT0_ = comdat any

$_ZNK6dealii12SparseMatrixIeE10Tvmult_addINS_6VectorIfEENS_11BlockVectorIdEEEEvRT_RKT0_ = comdat any

$_ZNK6dealii12SparseMatrixIeE5vmultINS_11BlockVectorIfEENS_6VectorIdEEEEvRT_RKT0_ = comdat any

$_ZNK6dealii12SparseMatrixIeE6TvmultINS_11BlockVectorIfEENS_6VectorIdEEEEvRT_RKT0_ = comdat any

$_ZNK6dealii12SparseMatrixIeE9vmult_addINS_11BlockVectorIfEENS_6VectorIdEEEEvRT_RKT0_ = comdat any

$_ZNK6dealii12SparseMatrixIeE10Tvmult_addINS_11BlockVectorIfEENS_6VectorIdEEEEvRT_RKT0_ = comdat any

$_ZNK6dealii12SparseMatrixIeE5vmultINS_11BlockVectorIfEENS3_IdEEEEvRT_RKT0_ = comdat any

$_ZNK6dealii12SparseMatrixIeE6TvmultINS_11BlockVectorIfEENS3_IdEEEEvRT_RKT0_ = comdat any

$_ZNK6dealii12SparseMatrixIeE9vmult_addINS_11BlockVectorIfEENS3_IdEEEEvRT_RKT0_ = comdat any

$_ZNK6dealii12SparseMatrixIeE10Tvmult_addINS_11BlockVectorIfEENS3_IdEEEEvRT_RKT0_ = comdat any

$_ZNK6dealii12SparseMatrixIeE5vmultINS_6VectorIfEES4_EEvRT_RKT0_ = comdat any

$_ZNK6dealii12SparseMatrixIeE6TvmultINS_6VectorIfEES4_EEvRT_RKT0_ = comdat any

$_ZNK6dealii12SparseMatrixIeE9vmult_addINS_6VectorIfEES4_EEvRT_RKT0_ = comdat any

$_ZNK6dealii12SparseMatrixIeE10Tvmult_addINS_6VectorIfEES4_EEvRT_RKT0_ = comdat any

$_ZNK6dealii12SparseMatrixIeE5vmultINS_6VectorIfEENS_11BlockVectorIfEEEEvRT_RKT0_ = comdat any

$_ZNK6dealii12SparseMatrixIeE6TvmultINS_6VectorIfEENS_11BlockVectorIfEEEEvRT_RKT0_ = comdat any

$_ZNK6dealii12SparseMatrixIeE9vmult_addINS_6VectorIfEENS_11BlockVectorIfEEEEvRT_RKT0_ = comdat any

$_ZNK6dealii12SparseMatrixIeE10Tvmult_addINS_6VectorIfEENS_11BlockVectorIfEEEEvRT_RKT0_ = comdat any

$_ZNK6dealii12SparseMatrixIeE5vmultINS_11BlockVectorIfEENS_6VectorIfEEEEvRT_RKT0_ = comdat any

$_ZNK6dealii12SparseMatrixIeE6TvmultINS_11BlockVectorIfEENS_6VectorIfEEEEvRT_RKT0_ = comdat any

$_ZNK6dealii12SparseMatrixIeE9vmult_addINS_11BlockVectorIfEENS_6VectorIfEEEEvRT_RKT0_ = comdat any

$_ZNK6dealii12SparseMatrixIeE10Tvmult_addINS_11BlockVectorIfEENS_6VectorIfEEEEvRT_RKT0_ = comdat any

$_ZNK6dealii12SparseMatrixIeE5vmultINS_11BlockVectorIfEES4_EEvRT_RKT0_ = comdat any

$_ZNK6dealii12SparseMatrixIeE6TvmultINS_11BlockVectorIfEES4_EEvRT_RKT0_ = comdat any

$_ZNK6dealii12SparseMatrixIeE9vmult_addINS_11BlockVectorIfEES4_EEvRT_RKT0_ = comdat any

$_ZNK6dealii12SparseMatrixIeE10Tvmult_addINS_11BlockVectorIfEES4_EEvRT_RKT0_ = comdat any

$_ZNK6dealii12SparseMatrixIeE5vmultINS_6VectorIfEENS3_IeEEEEvRT_RKT0_ = comdat any

$_ZNK6dealii12SparseMatrixIeE6TvmultINS_6VectorIfEENS3_IeEEEEvRT_RKT0_ = comdat any

$_ZNK6dealii12SparseMatrixIeE9vmult_addINS_6VectorIfEENS3_IeEEEEvRT_RKT0_ = comdat any

$_ZNK6dealii12SparseMatrixIeE10Tvmult_addINS_6VectorIfEENS3_IeEEEEvRT_RKT0_ = comdat any

$_ZNK6dealii12SparseMatrixIeE5vmultINS_6VectorIfEENS_11BlockVectorIeEEEEvRT_RKT0_ = comdat any

$_ZNK6dealii12SparseMatrixIeE6TvmultINS_6VectorIfEENS_11BlockVectorIeEEEEvRT_RKT0_ = comdat any

$_ZNK6dealii12SparseMatrixIeE9vmult_addINS_6VectorIfEENS_11BlockVectorIeEEEEvRT_RKT0_ = comdat any

$_ZNK6dealii12SparseMatrixIeE10Tvmult_addINS_6VectorIfEENS_11BlockVectorIeEEEEvRT_RKT0_ = comdat any

$_ZNK6dealii12SparseMatrixIeE5vmultINS_11BlockVectorIfEENS_6VectorIeEEEEvRT_RKT0_ = comdat any

$_ZNK6dealii12SparseMatrixIeE6TvmultINS_11BlockVectorIfEENS_6VectorIeEEEEvRT_RKT0_ = comdat any

$_ZNK6dealii12SparseMatrixIeE9vmult_addINS_11BlockVectorIfEENS_6VectorIeEEEEvRT_RKT0_ = comdat any

$_ZNK6dealii12SparseMatrixIeE10Tvmult_addINS_11BlockVectorIfEENS_6VectorIeEEEEvRT_RKT0_ = comdat any

$_ZNK6dealii12SparseMatrixIeE5vmultINS_11BlockVectorIfEENS3_IeEEEEvRT_RKT0_ = comdat any

$_ZNK6dealii12SparseMatrixIeE6TvmultINS_11BlockVectorIfEENS3_IeEEEEvRT_RKT0_ = comdat any

$_ZNK6dealii12SparseMatrixIeE9vmult_addINS_11BlockVectorIfEENS3_IeEEEEvRT_RKT0_ = comdat any

$_ZNK6dealii12SparseMatrixIeE10Tvmult_addINS_11BlockVectorIfEENS3_IeEEEEvRT_RKT0_ = comdat any

$_ZNK6dealii12SparseMatrixIeE5vmultINS_6VectorIeEENS3_IdEEEEvRT_RKT0_ = comdat any

$_ZNK6dealii12SparseMatrixIeE6TvmultINS_6VectorIeEENS3_IdEEEEvRT_RKT0_ = comdat any

$_ZNK6dealii12SparseMatrixIeE9vmult_addINS_6VectorIeEENS3_IdEEEEvRT_RKT0_ = comdat any

$_ZNK6dealii12SparseMatrixIeE10Tvmult_addINS_6VectorIeEENS3_IdEEEEvRT_RKT0_ = comdat any

$_ZNK6dealii12SparseMatrixIeE5vmultINS_6VectorIeEENS_11BlockVectorIdEEEEvRT_RKT0_ = comdat any

$_ZNK6dealii12SparseMatrixIeE6TvmultINS_6VectorIeEENS_11BlockVectorIdEEEEvRT_RKT0_ = comdat any

$_ZNK6dealii12SparseMatrixIeE9vmult_addINS_6VectorIeEENS_11BlockVectorIdEEEEvRT_RKT0_ = comdat any

$_ZNK6dealii12SparseMatrixIeE10Tvmult_addINS_6VectorIeEENS_11BlockVectorIdEEEEvRT_RKT0_ = comdat any

$_ZNK6dealii12SparseMatrixIeE5vmultINS_11BlockVectorIeEENS_6VectorIdEEEEvRT_RKT0_ = comdat any

$_ZNK6dealii12SparseMatrixIeE6TvmultINS_11BlockVectorIeEENS_6VectorIdEEEEvRT_RKT0_ = comdat any

$_ZNK6dealii12SparseMatrixIeE9vmult_addINS_11BlockVectorIeEENS_6VectorIdEEEEvRT_RKT0_ = comdat any

$_ZNK6dealii12SparseMatrixIeE10Tvmult_addINS_11BlockVectorIeEENS_6VectorIdEEEEvRT_RKT0_ = comdat any

$_ZNK6dealii12SparseMatrixIeE5vmultINS_11BlockVectorIeEENS3_IdEEEEvRT_RKT0_ = comdat any

$_ZNK6dealii12SparseMatrixIeE6TvmultINS_11BlockVectorIeEENS3_IdEEEEvRT_RKT0_ = comdat any

$_ZNK6dealii12SparseMatrixIeE9vmult_addINS_11BlockVectorIeEENS3_IdEEEEvRT_RKT0_ = comdat any

$_ZNK6dealii12SparseMatrixIeE10Tvmult_addINS_11BlockVectorIeEENS3_IdEEEEvRT_RKT0_ = comdat any

$_ZNK6dealii12SparseMatrixIeE5vmultINS_6VectorIeEENS3_IfEEEEvRT_RKT0_ = comdat any

$_ZNK6dealii12SparseMatrixIeE6TvmultINS_6VectorIeEENS3_IfEEEEvRT_RKT0_ = comdat any

$_ZNK6dealii12SparseMatrixIeE9vmult_addINS_6VectorIeEENS3_IfEEEEvRT_RKT0_ = comdat any

$_ZNK6dealii12SparseMatrixIeE10Tvmult_addINS_6VectorIeEENS3_IfEEEEvRT_RKT0_ = comdat any

$_ZNK6dealii12SparseMatrixIeE5vmultINS_6VectorIeEENS_11BlockVectorIfEEEEvRT_RKT0_ = comdat any

$_ZNK6dealii12SparseMatrixIeE6TvmultINS_6VectorIeEENS_11BlockVectorIfEEEEvRT_RKT0_ = comdat any

$_ZNK6dealii12SparseMatrixIeE9vmult_addINS_6VectorIeEENS_11BlockVectorIfEEEEvRT_RKT0_ = comdat any

$_ZNK6dealii12SparseMatrixIeE10Tvmult_addINS_6VectorIeEENS_11BlockVectorIfEEEEvRT_RKT0_ = comdat any

$_ZNK6dealii12SparseMatrixIeE5vmultINS_11BlockVectorIeEENS_6VectorIfEEEEvRT_RKT0_ = comdat any

$_ZNK6dealii12SparseMatrixIeE6TvmultINS_11BlockVectorIeEENS_6VectorIfEEEEvRT_RKT0_ = comdat any

$_ZNK6dealii12SparseMatrixIeE9vmult_addINS_11BlockVectorIeEENS_6VectorIfEEEEvRT_RKT0_ = comdat any

$_ZNK6dealii12SparseMatrixIeE10Tvmult_addINS_11BlockVectorIeEENS_6VectorIfEEEEvRT_RKT0_ = comdat any

$_ZNK6dealii12SparseMatrixIeE5vmultINS_11BlockVectorIeEENS3_IfEEEEvRT_RKT0_ = comdat any

$_ZNK6dealii12SparseMatrixIeE6TvmultINS_11BlockVectorIeEENS3_IfEEEEvRT_RKT0_ = comdat any

$_ZNK6dealii12SparseMatrixIeE9vmult_addINS_11BlockVectorIeEENS3_IfEEEEvRT_RKT0_ = comdat any

$_ZNK6dealii12SparseMatrixIeE10Tvmult_addINS_11BlockVectorIeEENS3_IfEEEEvRT_RKT0_ = comdat any

$_ZNK6dealii12SparseMatrixIeE5vmultINS_6VectorIeEES4_EEvRT_RKT0_ = comdat any

$_ZNK6dealii12SparseMatrixIeE6TvmultINS_6VectorIeEES4_EEvRT_RKT0_ = comdat any

$_ZNK6dealii12SparseMatrixIeE9vmult_addINS_6VectorIeEES4_EEvRT_RKT0_ = comdat any

$_ZNK6dealii12SparseMatrixIeE10Tvmult_addINS_6VectorIeEES4_EEvRT_RKT0_ = comdat any

$_ZNK6dealii12SparseMatrixIeE5vmultINS_6VectorIeEENS_11BlockVectorIeEEEEvRT_RKT0_ = comdat any

$_ZNK6dealii12SparseMatrixIeE6TvmultINS_6VectorIeEENS_11BlockVectorIeEEEEvRT_RKT0_ = comdat any

$_ZNK6dealii12SparseMatrixIeE9vmult_addINS_6VectorIeEENS_11BlockVectorIeEEEEvRT_RKT0_ = comdat any

$_ZNK6dealii12SparseMatrixIeE10Tvmult_addINS_6VectorIeEENS_11BlockVectorIeEEEEvRT_RKT0_ = comdat any

$_ZNK6dealii12SparseMatrixIeE5vmultINS_11BlockVectorIeEENS_6VectorIeEEEEvRT_RKT0_ = comdat any

$_ZNK6dealii12SparseMatrixIeE6TvmultINS_11BlockVectorIeEENS_6VectorIeEEEEvRT_RKT0_ = comdat any

$_ZNK6dealii12SparseMatrixIeE9vmult_addINS_11BlockVectorIeEENS_6VectorIeEEEEvRT_RKT0_ = comdat any

$_ZNK6dealii12SparseMatrixIeE10Tvmult_addINS_11BlockVectorIeEENS_6VectorIeEEEEvRT_RKT0_ = comdat any

$_ZNK6dealii12SparseMatrixIeE5vmultINS_11BlockVectorIeEES4_EEvRT_RKT0_ = comdat any

$_ZNK6dealii12SparseMatrixIeE6TvmultINS_11BlockVectorIeEES4_EEvRT_RKT0_ = comdat any

$_ZNK6dealii12SparseMatrixIeE9vmult_addINS_11BlockVectorIeEES4_EEvRT_RKT0_ = comdat any

$_ZNK6dealii12SparseMatrixIeE10Tvmult_addINS_11BlockVectorIeEES4_EEvRT_RKT0_ = comdat any

$_ZN6dealii12SparseMatrixIdE28ExcDifferentSparsityPatternsD0Ev = comdat any

$_ZN6dealii12SparseMatrixIdE26ExcSourceEqualsDestinationD0Ev = comdat any

$_ZN6dealii12SparseMatrixIfE28ExcDifferentSparsityPatternsD0Ev = comdat any

$_ZN6dealii12SparseMatrixIfE26ExcSourceEqualsDestinationD0Ev = comdat any

$_ZN6dealii12SparseMatrixIeE28ExcDifferentSparsityPatternsD0Ev = comdat any

$_ZN6dealii12SparseMatrixIeE26ExcSourceEqualsDestinationD0Ev = comdat any

$_ZN6dealii18StandardExceptions5ExcIOD0Ev = comdat any

$_ZN6dealii6VectorIdED0Ev = comdat any

$_ZN6dealii6VectorIdE6reinitEjb = comdat any

$_ZN6dealii6VectorIdE4swapERS1_ = comdat any

$_ZN6dealii6VectorIfED0Ev = comdat any

$_ZN6dealii6VectorIfE6reinitEjb = comdat any

$_ZN6dealii6VectorIfE4swapERS1_ = comdat any

$_ZN6dealii6VectorIeED0Ev = comdat any

$_ZN6dealii6VectorIeE6reinitEjb = comdat any

$_ZN6dealii6VectorIeE4swapERS1_ = comdat any

$_ZTVN6dealii12SparseMatrixIdEE = comdat any

$_ZTTN6dealii12SparseMatrixIdEE = comdat any

$_ZTVN6dealii12SparseMatrixIdE15ExcInvalidIndexE = comdat any

$_ZTVN6dealii12SparseMatrixIdE16ExcInvalidIndex1E = comdat any

$_ZTVN6dealii12SparseMatrixIdE16ExcIteratorRangeE = comdat any

$_ZTVN6dealii12SparseMatrixIfEE = comdat any

$_ZTTN6dealii12SparseMatrixIfEE = comdat any

$_ZTVN6dealii12SparseMatrixIfE15ExcInvalidIndexE = comdat any

$_ZTVN6dealii12SparseMatrixIfE16ExcInvalidIndex1E = comdat any

$_ZTVN6dealii12SparseMatrixIfE16ExcIteratorRangeE = comdat any

$_ZTVN6dealii12SparseMatrixIeEE = comdat any

$_ZTTN6dealii12SparseMatrixIeEE = comdat any

$_ZTVN6dealii12SparseMatrixIeE15ExcInvalidIndexE = comdat any

$_ZTVN6dealii12SparseMatrixIeE16ExcInvalidIndex1E = comdat any

$_ZTVN6dealii12SparseMatrixIeE16ExcIteratorRangeE = comdat any

$_ZTSN6dealii12SparseMatrixIdEE = comdat any

$_ZTIN6dealii12SparseMatrixIdEE = comdat any

$_ZTSN6dealii12SparseMatrixIdE16ExcInvalidIndex1E = comdat any

$_ZTIN6dealii12SparseMatrixIdE16ExcInvalidIndex1E = comdat any

$_ZTVN6dealii12SparseMatrixIdE28ExcDifferentSparsityPatternsE = comdat any

$_ZTSN6dealii12SparseMatrixIdE28ExcDifferentSparsityPatternsE = comdat any

$_ZTIN6dealii12SparseMatrixIdE28ExcDifferentSparsityPatternsE = comdat any

$_ZTSN6dealii12SparseMatrixIdE16ExcIteratorRangeE = comdat any

$_ZTIN6dealii12SparseMatrixIdE16ExcIteratorRangeE = comdat any

$_ZTVN6dealii12SparseMatrixIdE26ExcSourceEqualsDestinationE = comdat any

$_ZTSN6dealii12SparseMatrixIdE26ExcSourceEqualsDestinationE = comdat any

$_ZTIN6dealii12SparseMatrixIdE26ExcSourceEqualsDestinationE = comdat any

$_ZTSN6dealii12SparseMatrixIfEE = comdat any

$_ZTIN6dealii12SparseMatrixIfEE = comdat any

$_ZTSN6dealii12SparseMatrixIfE16ExcInvalidIndex1E = comdat any

$_ZTIN6dealii12SparseMatrixIfE16ExcInvalidIndex1E = comdat any

$_ZTVN6dealii12SparseMatrixIfE28ExcDifferentSparsityPatternsE = comdat any

$_ZTSN6dealii12SparseMatrixIfE28ExcDifferentSparsityPatternsE = comdat any

$_ZTIN6dealii12SparseMatrixIfE28ExcDifferentSparsityPatternsE = comdat any

$_ZTSN6dealii12SparseMatrixIfE16ExcIteratorRangeE = comdat any

$_ZTIN6dealii12SparseMatrixIfE16ExcIteratorRangeE = comdat any

$_ZTVN6dealii12SparseMatrixIfE26ExcSourceEqualsDestinationE = comdat any

$_ZTSN6dealii12SparseMatrixIfE26ExcSourceEqualsDestinationE = comdat any

$_ZTIN6dealii12SparseMatrixIfE26ExcSourceEqualsDestinationE = comdat any

$_ZTSN6dealii12SparseMatrixIeEE = comdat any

$_ZTIN6dealii12SparseMatrixIeEE = comdat any

$_ZTSN6dealii12SparseMatrixIeE16ExcInvalidIndex1E = comdat any

$_ZTIN6dealii12SparseMatrixIeE16ExcInvalidIndex1E = comdat any

$_ZTVN6dealii12SparseMatrixIeE28ExcDifferentSparsityPatternsE = comdat any

$_ZTSN6dealii12SparseMatrixIeE28ExcDifferentSparsityPatternsE = comdat any

$_ZTIN6dealii12SparseMatrixIeE28ExcDifferentSparsityPatternsE = comdat any

$_ZTSN6dealii12SparseMatrixIeE16ExcIteratorRangeE = comdat any

$_ZTIN6dealii12SparseMatrixIeE16ExcIteratorRangeE = comdat any

$_ZTVN6dealii12SparseMatrixIeE26ExcSourceEqualsDestinationE = comdat any

$_ZTSN6dealii12SparseMatrixIeE26ExcSourceEqualsDestinationE = comdat any

$_ZTIN6dealii12SparseMatrixIeE26ExcSourceEqualsDestinationE = comdat any

$_ZTSN6dealii12SparseMatrixIdE15ExcInvalidIndexE = comdat any

$_ZTIN6dealii12SparseMatrixIdE15ExcInvalidIndexE = comdat any

$_ZTSN6dealii12SparseMatrixIfE15ExcInvalidIndexE = comdat any

$_ZTIN6dealii12SparseMatrixIfE15ExcInvalidIndexE = comdat any

$_ZTSN6dealii12SparseMatrixIeE15ExcInvalidIndexE = comdat any

$_ZTIN6dealii12SparseMatrixIeE15ExcInvalidIndexE = comdat any

$_ZTVN6dealii18StandardExceptions5ExcIOE = comdat any

$_ZTSN6dealii18StandardExceptions5ExcIOE = comdat any

$_ZTIN6dealii18StandardExceptions5ExcIOE = comdat any

$_ZTVN6dealii6VectorIdEE = comdat any

$_ZTSN6dealii6VectorIdEE = comdat any

$_ZTIN6dealii6VectorIdEE = comdat any

$_ZTVN6dealii6VectorIfEE = comdat any

$_ZTSN6dealii6VectorIfEE = comdat any

$_ZTIN6dealii6VectorIfEE = comdat any

$_ZTVN6dealii6VectorIeEE = comdat any

$_ZTSN6dealii6VectorIeEE = comdat any

$_ZTIN6dealii6VectorIeEE = comdat any

@.str = private unnamed_addr constant [13 x i8] c"SparseMatrix\00", align 1
@_ZTVN6dealii12SparseMatrixIdEE = weak_odr dso_local unnamed_addr constant { [7 x ptr], [5 x ptr] } { [7 x ptr] [ptr inttoptr (i64 40 to ptr), ptr null, ptr @_ZTIN6dealii12SparseMatrixIdEE, ptr @_ZN6dealii12SparseMatrixIdED1Ev, ptr @_ZN6dealii12SparseMatrixIdED0Ev, ptr @_ZN6dealii12SparseMatrixIdE6reinitERKNS_15SparsityPatternE, ptr @_ZN6dealii12SparseMatrixIdE5clearEv], [5 x ptr] [ptr inttoptr (i64 -40 to ptr), ptr inttoptr (i64 -40 to ptr), ptr @_ZTIN6dealii12SparseMatrixIdEE, ptr @_ZTv0_n24_N6dealii12SparseMatrixIdED1Ev, ptr @_ZTv0_n24_N6dealii12SparseMatrixIdED0Ev] }, comdat, align 8
@_ZTTN6dealii12SparseMatrixIdEE = weak_odr dso_local unnamed_addr constant [2 x ptr] [ptr getelementptr inbounds ({ [7 x ptr], [5 x ptr] }, ptr @_ZTVN6dealii12SparseMatrixIdEE, i32 0, inrange i32 0, i32 3), ptr getelementptr inbounds ({ [7 x ptr], [5 x ptr] }, ptr @_ZTVN6dealii12SparseMatrixIdEE, i32 0, inrange i32 1, i32 3)], comdat, align 8
@.str.9 = private unnamed_addr constant [28 x i8] c"include/lac/sparse_matrix.h\00", align 1
@.str.10 = private unnamed_addr constant [1 x i8] zeroinitializer, align 1
@.str.11 = private unnamed_addr constant [56 x i8] c"cols->operator()(i,j) != SparsityPattern::invalid_entry\00", align 1
@.str.12 = private unnamed_addr constant [21 x i8] c"ExcInvalidIndex(i,j)\00", align 1
@.str.13 = private unnamed_addr constant [2 x i8] c"(\00", align 1
@.str.14 = private unnamed_addr constant [2 x i8] c",\00", align 1
@.str.15 = private unnamed_addr constant [3 x i8] c") \00", align 1
@.str.16 = private unnamed_addr constant [38 x i8] c"include/lac/sparse_matrix.templates.h\00", align 1
@.str.17 = private unnamed_addr constant [4 x i8] c"out\00", align 1
@.str.18 = private unnamed_addr constant [8 x i8] c"ExcIO()\00", align 1
@.str.19 = private unnamed_addr constant [3 x i8] c"][\00", align 1
@.str.20 = private unnamed_addr constant [3 x i8] c"in\00", align 1
@.str.21 = private unnamed_addr constant [9 x i8] c"c == '['\00", align 1
@.str.22 = private unnamed_addr constant [9 x i8] c"c == ']'\00", align 1
@_ZTVN6dealii12SparseMatrixIdE15ExcInvalidIndexE = linkonce_odr dso_local unnamed_addr constant { [6 x ptr] } { [6 x ptr] [ptr null, ptr @_ZTIN6dealii12SparseMatrixIdE15ExcInvalidIndexE, ptr @_ZN6dealii12SparseMatrixIdE15ExcInvalidIndexD2Ev, ptr @_ZN6dealii12SparseMatrixIdE15ExcInvalidIndexD0Ev, ptr @_ZNK6dealii13ExceptionBase4whatEv, ptr @_ZNK6dealii12SparseMatrixIdE15ExcInvalidIndex10print_infoERSo] }, comdat, align 8
@.str.23 = private unnamed_addr constant [23 x i8] c"The entry with index <\00", align 1
@.str.24 = private unnamed_addr constant [18 x i8] c"> does not exist.\00", align 1
@_ZTVN6dealii12SparseMatrixIdE16ExcInvalidIndex1E = weak_odr dso_local unnamed_addr constant { [6 x ptr] } { [6 x ptr] [ptr null, ptr @_ZTIN6dealii12SparseMatrixIdE16ExcInvalidIndex1E, ptr @_ZN6dealii12SparseMatrixIdE16ExcInvalidIndex1D2Ev, ptr @_ZN6dealii12SparseMatrixIdE16ExcInvalidIndex1D0Ev, ptr @_ZNK6dealii13ExceptionBase4whatEv, ptr @_ZNK6dealii12SparseMatrixIdE16ExcInvalidIndex110print_infoERSo] }, comdat, align 8
@.str.25 = private unnamed_addr constant [11 x i8] c"The index \00", align 1
@.str.26 = private unnamed_addr constant [30 x i8] c" is not in the allowed range.\00", align 1
@_ZTVN6dealii12SparseMatrixIdE16ExcIteratorRangeE = weak_odr dso_local unnamed_addr constant { [6 x ptr] } { [6 x ptr] [ptr null, ptr @_ZTIN6dealii12SparseMatrixIdE16ExcIteratorRangeE, ptr @_ZN6dealii12SparseMatrixIdE16ExcIteratorRangeD2Ev, ptr @_ZN6dealii12SparseMatrixIdE16ExcIteratorRangeD0Ev, ptr @_ZNK6dealii13ExceptionBase4whatEv, ptr @_ZNK6dealii12SparseMatrixIdE16ExcIteratorRange10print_infoERSo] }, comdat, align 8
@.str.27 = private unnamed_addr constant [33 x i8] c"The iterators denote a range of \00", align 1
@.str.28 = private unnamed_addr constant [45 x i8] c" elements, but the given number of rows was \00", align 1
@_ZTVN6dealii12SparseMatrixIfEE = weak_odr dso_local unnamed_addr constant { [7 x ptr], [5 x ptr] } { [7 x ptr] [ptr inttoptr (i64 40 to ptr), ptr null, ptr @_ZTIN6dealii12SparseMatrixIfEE, ptr @_ZN6dealii12SparseMatrixIfED1Ev, ptr @_ZN6dealii12SparseMatrixIfED0Ev, ptr @_ZN6dealii12SparseMatrixIfE6reinitERKNS_15SparsityPatternE, ptr @_ZN6dealii12SparseMatrixIfE5clearEv], [5 x ptr] [ptr inttoptr (i64 -40 to ptr), ptr inttoptr (i64 -40 to ptr), ptr @_ZTIN6dealii12SparseMatrixIfEE, ptr @_ZTv0_n24_N6dealii12SparseMatrixIfED1Ev, ptr @_ZTv0_n24_N6dealii12SparseMatrixIfED0Ev] }, comdat, align 8
@_ZTTN6dealii12SparseMatrixIfEE = weak_odr dso_local unnamed_addr constant [2 x ptr] [ptr getelementptr inbounds ({ [7 x ptr], [5 x ptr] }, ptr @_ZTVN6dealii12SparseMatrixIfEE, i32 0, inrange i32 0, i32 3), ptr getelementptr inbounds ({ [7 x ptr], [5 x ptr] }, ptr @_ZTVN6dealii12SparseMatrixIfEE, i32 0, inrange i32 1, i32 3)], comdat, align 8
@_ZTVN6dealii12SparseMatrixIfE15ExcInvalidIndexE = linkonce_odr dso_local unnamed_addr constant { [6 x ptr] } { [6 x ptr] [ptr null, ptr @_ZTIN6dealii12SparseMatrixIfE15ExcInvalidIndexE, ptr @_ZN6dealii12SparseMatrixIfE15ExcInvalidIndexD2Ev, ptr @_ZN6dealii12SparseMatrixIfE15ExcInvalidIndexD0Ev, ptr @_ZNK6dealii13ExceptionBase4whatEv, ptr @_ZNK6dealii12SparseMatrixIfE15ExcInvalidIndex10print_infoERSo] }, comdat, align 8
@_ZTVN6dealii12SparseMatrixIfE16ExcInvalidIndex1E = weak_odr dso_local unnamed_addr constant { [6 x ptr] } { [6 x ptr] [ptr null, ptr @_ZTIN6dealii12SparseMatrixIfE16ExcInvalidIndex1E, ptr @_ZN6dealii12SparseMatrixIfE16ExcInvalidIndex1D2Ev, ptr @_ZN6dealii12SparseMatrixIfE16ExcInvalidIndex1D0Ev, ptr @_ZNK6dealii13ExceptionBase4whatEv, ptr @_ZNK6dealii12SparseMatrixIfE16ExcInvalidIndex110print_infoERSo] }, comdat, align 8
@_ZTVN6dealii12SparseMatrixIfE16ExcIteratorRangeE = weak_odr dso_local unnamed_addr constant { [6 x ptr] } { [6 x ptr] [ptr null, ptr @_ZTIN6dealii12SparseMatrixIfE16ExcIteratorRangeE, ptr @_ZN6dealii12SparseMatrixIfE16ExcIteratorRangeD2Ev, ptr @_ZN6dealii12SparseMatrixIfE16ExcIteratorRangeD0Ev, ptr @_ZNK6dealii13ExceptionBase4whatEv, ptr @_ZNK6dealii12SparseMatrixIfE16ExcIteratorRange10print_infoERSo] }, comdat, align 8
@_ZTVN6dealii12SparseMatrixIeEE = weak_odr dso_local unnamed_addr constant { [7 x ptr], [5 x ptr] } { [7 x ptr] [ptr inttoptr (i64 40 to ptr), ptr null, ptr @_ZTIN6dealii12SparseMatrixIeEE, ptr @_ZN6dealii12SparseMatrixIeED1Ev, ptr @_ZN6dealii12SparseMatrixIeED0Ev, ptr @_ZN6dealii12SparseMatrixIeE6reinitERKNS_15SparsityPatternE, ptr @_ZN6dealii12SparseMatrixIeE5clearEv], [5 x ptr] [ptr inttoptr (i64 -40 to ptr), ptr inttoptr (i64 -40 to ptr), ptr @_ZTIN6dealii12SparseMatrixIeEE, ptr @_ZTv0_n24_N6dealii12SparseMatrixIeED1Ev, ptr @_ZTv0_n24_N6dealii12SparseMatrixIeED0Ev] }, comdat, align 8
@_ZTTN6dealii12SparseMatrixIeEE = weak_odr dso_local unnamed_addr constant [2 x ptr] [ptr getelementptr inbounds ({ [7 x ptr], [5 x ptr] }, ptr @_ZTVN6dealii12SparseMatrixIeEE, i32 0, inrange i32 0, i32 3), ptr getelementptr inbounds ({ [7 x ptr], [5 x ptr] }, ptr @_ZTVN6dealii12SparseMatrixIeEE, i32 0, inrange i32 1, i32 3)], comdat, align 8
@_ZTVN6dealii12SparseMatrixIeE15ExcInvalidIndexE = linkonce_odr dso_local unnamed_addr constant { [6 x ptr] } { [6 x ptr] [ptr null, ptr @_ZTIN6dealii12SparseMatrixIeE15ExcInvalidIndexE, ptr @_ZN6dealii12SparseMatrixIeE15ExcInvalidIndexD2Ev, ptr @_ZN6dealii12SparseMatrixIeE15ExcInvalidIndexD0Ev, ptr @_ZNK6dealii13ExceptionBase4whatEv, ptr @_ZNK6dealii12SparseMatrixIeE15ExcInvalidIndex10print_infoERSo] }, comdat, align 8
@_ZTVN6dealii12SparseMatrixIeE16ExcInvalidIndex1E = weak_odr dso_local unnamed_addr constant { [6 x ptr] } { [6 x ptr] [ptr null, ptr @_ZTIN6dealii12SparseMatrixIeE16ExcInvalidIndex1E, ptr @_ZN6dealii12SparseMatrixIeE16ExcInvalidIndex1D2Ev, ptr @_ZN6dealii12SparseMatrixIeE16ExcInvalidIndex1D0Ev, ptr @_ZNK6dealii13ExceptionBase4whatEv, ptr @_ZNK6dealii12SparseMatrixIeE16ExcInvalidIndex110print_infoERSo] }, comdat, align 8
@_ZTVN6dealii12SparseMatrixIeE16ExcIteratorRangeE = weak_odr dso_local unnamed_addr constant { [6 x ptr] } { [6 x ptr] [ptr null, ptr @_ZTIN6dealii12SparseMatrixIeE16ExcIteratorRangeE, ptr @_ZN6dealii12SparseMatrixIeE16ExcIteratorRangeD2Ev, ptr @_ZN6dealii12SparseMatrixIeE16ExcIteratorRangeD0Ev, ptr @_ZNK6dealii13ExceptionBase4whatEv, ptr @_ZNK6dealii12SparseMatrixIeE16ExcIteratorRange10print_infoERSo] }, comdat, align 8
@_ZTVN10__cxxabiv121__vmi_class_type_infoE = external global ptr
@_ZTSN6dealii12SparseMatrixIdEE = weak_odr dso_local constant [27 x i8] c"N6dealii12SparseMatrixIdEE\00", comdat, align 1
@_ZTIN6dealii11SubscriptorE = external constant ptr
@_ZTIN6dealii12SparseMatrixIdEE = weak_odr dso_local constant { ptr, ptr, i32, i32, ptr, i64 } { ptr getelementptr inbounds (ptr, ptr @_ZTVN10__cxxabiv121__vmi_class_type_infoE, i64 2), ptr @_ZTSN6dealii12SparseMatrixIdEE, i32 0, i32 1, ptr @_ZTIN6dealii11SubscriptorE, i64 -6141 }, comdat, align 8
@_ZTVN10__cxxabiv120__si_class_type_infoE = external global ptr
@_ZTSN6dealii12SparseMatrixIdE16ExcInvalidIndex1E = weak_odr dso_local constant [45 x i8] c"N6dealii12SparseMatrixIdE16ExcInvalidIndex1E\00", comdat, align 1
@_ZTIN6dealii13ExceptionBaseE = external constant ptr
@_ZTIN6dealii12SparseMatrixIdE16ExcInvalidIndex1E = weak_odr dso_local constant { ptr, ptr, ptr } { ptr getelementptr inbounds (ptr, ptr @_ZTVN10__cxxabiv120__si_class_type_infoE, i64 2), ptr @_ZTSN6dealii12SparseMatrixIdE16ExcInvalidIndex1E, ptr @_ZTIN6dealii13ExceptionBaseE }, comdat, align 8
@_ZTVN6dealii12SparseMatrixIdE28ExcDifferentSparsityPatternsE = weak_odr dso_local unnamed_addr constant { [6 x ptr] } { [6 x ptr] [ptr null, ptr @_ZTIN6dealii12SparseMatrixIdE28ExcDifferentSparsityPatternsE, ptr @_ZN6dealii13ExceptionBaseD2Ev, ptr @_ZN6dealii12SparseMatrixIdE28ExcDifferentSparsityPatternsD0Ev, ptr @_ZNK6dealii13ExceptionBase4whatEv, ptr @_ZNK6dealii13ExceptionBase10print_infoERSo] }, comdat, align 8
@_ZTSN6dealii12SparseMatrixIdE28ExcDifferentSparsityPatternsE = weak_odr dso_local constant [57 x i8] c"N6dealii12SparseMatrixIdE28ExcDifferentSparsityPatternsE\00", comdat, align 1
@_ZTIN6dealii12SparseMatrixIdE28ExcDifferentSparsityPatternsE = weak_odr dso_local constant { ptr, ptr, ptr } { ptr getelementptr inbounds (ptr, ptr @_ZTVN10__cxxabiv120__si_class_type_infoE, i64 2), ptr @_ZTSN6dealii12SparseMatrixIdE28ExcDifferentSparsityPatternsE, ptr @_ZTIN6dealii13ExceptionBaseE }, comdat, align 8
@_ZTSN6dealii12SparseMatrixIdE16ExcIteratorRangeE = weak_odr dso_local constant [45 x i8] c"N6dealii12SparseMatrixIdE16ExcIteratorRangeE\00", comdat, align 1
@_ZTIN6dealii12SparseMatrixIdE16ExcIteratorRangeE = weak_odr dso_local constant { ptr, ptr, ptr } { ptr getelementptr inbounds (ptr, ptr @_ZTVN10__cxxabiv120__si_class_type_infoE, i64 2), ptr @_ZTSN6dealii12SparseMatrixIdE16ExcIteratorRangeE, ptr @_ZTIN6dealii13ExceptionBaseE }, comdat, align 8
@_ZTVN6dealii12SparseMatrixIdE26ExcSourceEqualsDestinationE = weak_odr dso_local unnamed_addr constant { [6 x ptr] } { [6 x ptr] [ptr null, ptr @_ZTIN6dealii12SparseMatrixIdE26ExcSourceEqualsDestinationE, ptr @_ZN6dealii13ExceptionBaseD2Ev, ptr @_ZN6dealii12SparseMatrixIdE26ExcSourceEqualsDestinationD0Ev, ptr @_ZNK6dealii13ExceptionBase4whatEv, ptr @_ZNK6dealii13ExceptionBase10print_infoERSo] }, comdat, align 8
@_ZTSN6dealii12SparseMatrixIdE26ExcSourceEqualsDestinationE = weak_odr dso_local constant [55 x i8] c"N6dealii12SparseMatrixIdE26ExcSourceEqualsDestinationE\00", comdat, align 1
@_ZTIN6dealii12SparseMatrixIdE26ExcSourceEqualsDestinationE = weak_odr dso_local constant { ptr, ptr, ptr } { ptr getelementptr inbounds (ptr, ptr @_ZTVN10__cxxabiv120__si_class_type_infoE, i64 2), ptr @_ZTSN6dealii12SparseMatrixIdE26ExcSourceEqualsDestinationE, ptr @_ZTIN6dealii13ExceptionBaseE }, comdat, align 8
@_ZTSN6dealii12SparseMatrixIfEE = weak_odr dso_local constant [27 x i8] c"N6dealii12SparseMatrixIfEE\00", comdat, align 1
@_ZTIN6dealii12SparseMatrixIfEE = weak_odr dso_local constant { ptr, ptr, i32, i32, ptr, i64 } { ptr getelementptr inbounds (ptr, ptr @_ZTVN10__cxxabiv121__vmi_class_type_infoE, i64 2), ptr @_ZTSN6dealii12SparseMatrixIfEE, i32 0, i32 1, ptr @_ZTIN6dealii11SubscriptorE, i64 -6141 }, comdat, align 8
@_ZTSN6dealii12SparseMatrixIfE16ExcInvalidIndex1E = weak_odr dso_local constant [45 x i8] c"N6dealii12SparseMatrixIfE16ExcInvalidIndex1E\00", comdat, align 1
@_ZTIN6dealii12SparseMatrixIfE16ExcInvalidIndex1E = weak_odr dso_local constant { ptr, ptr, ptr } { ptr getelementptr inbounds (ptr, ptr @_ZTVN10__cxxabiv120__si_class_type_infoE, i64 2), ptr @_ZTSN6dealii12SparseMatrixIfE16ExcInvalidIndex1E, ptr @_ZTIN6dealii13ExceptionBaseE }, comdat, align 8
@_ZTVN6dealii12SparseMatrixIfE28ExcDifferentSparsityPatternsE = weak_odr dso_local unnamed_addr constant { [6 x ptr] } { [6 x ptr] [ptr null, ptr @_ZTIN6dealii12SparseMatrixIfE28ExcDifferentSparsityPatternsE, ptr @_ZN6dealii13ExceptionBaseD2Ev, ptr @_ZN6dealii12SparseMatrixIfE28ExcDifferentSparsityPatternsD0Ev, ptr @_ZNK6dealii13ExceptionBase4whatEv, ptr @_ZNK6dealii13ExceptionBase10print_infoERSo] }, comdat, align 8
@_ZTSN6dealii12SparseMatrixIfE28ExcDifferentSparsityPatternsE = weak_odr dso_local constant [57 x i8] c"N6dealii12SparseMatrixIfE28ExcDifferentSparsityPatternsE\00", comdat, align 1
@_ZTIN6dealii12SparseMatrixIfE28ExcDifferentSparsityPatternsE = weak_odr dso_local constant { ptr, ptr, ptr } { ptr getelementptr inbounds (ptr, ptr @_ZTVN10__cxxabiv120__si_class_type_infoE, i64 2), ptr @_ZTSN6dealii12SparseMatrixIfE28ExcDifferentSparsityPatternsE, ptr @_ZTIN6dealii13ExceptionBaseE }, comdat, align 8
@_ZTSN6dealii12SparseMatrixIfE16ExcIteratorRangeE = weak_odr dso_local constant [45 x i8] c"N6dealii12SparseMatrixIfE16ExcIteratorRangeE\00", comdat, align 1
@_ZTIN6dealii12SparseMatrixIfE16ExcIteratorRangeE = weak_odr dso_local constant { ptr, ptr, ptr } { ptr getelementptr inbounds (ptr, ptr @_ZTVN10__cxxabiv120__si_class_type_infoE, i64 2), ptr @_ZTSN6dealii12SparseMatrixIfE16ExcIteratorRangeE, ptr @_ZTIN6dealii13ExceptionBaseE }, comdat, align 8
@_ZTVN6dealii12SparseMatrixIfE26ExcSourceEqualsDestinationE = weak_odr dso_local unnamed_addr constant { [6 x ptr] } { [6 x ptr] [ptr null, ptr @_ZTIN6dealii12SparseMatrixIfE26ExcSourceEqualsDestinationE, ptr @_ZN6dealii13ExceptionBaseD2Ev, ptr @_ZN6dealii12SparseMatrixIfE26ExcSourceEqualsDestinationD0Ev, ptr @_ZNK6dealii13ExceptionBase4whatEv, ptr @_ZNK6dealii13ExceptionBase10print_infoERSo] }, comdat, align 8
@_ZTSN6dealii12SparseMatrixIfE26ExcSourceEqualsDestinationE = weak_odr dso_local constant [55 x i8] c"N6dealii12SparseMatrixIfE26ExcSourceEqualsDestinationE\00", comdat, align 1
@_ZTIN6dealii12SparseMatrixIfE26ExcSourceEqualsDestinationE = weak_odr dso_local constant { ptr, ptr, ptr } { ptr getelementptr inbounds (ptr, ptr @_ZTVN10__cxxabiv120__si_class_type_infoE, i64 2), ptr @_ZTSN6dealii12SparseMatrixIfE26ExcSourceEqualsDestinationE, ptr @_ZTIN6dealii13ExceptionBaseE }, comdat, align 8
@_ZTSN6dealii12SparseMatrixIeEE = weak_odr dso_local constant [27 x i8] c"N6dealii12SparseMatrixIeEE\00", comdat, align 1
@_ZTIN6dealii12SparseMatrixIeEE = weak_odr dso_local constant { ptr, ptr, i32, i32, ptr, i64 } { ptr getelementptr inbounds (ptr, ptr @_ZTVN10__cxxabiv121__vmi_class_type_infoE, i64 2), ptr @_ZTSN6dealii12SparseMatrixIeEE, i32 0, i32 1, ptr @_ZTIN6dealii11SubscriptorE, i64 -6141 }, comdat, align 8
@_ZTSN6dealii12SparseMatrixIeE16ExcInvalidIndex1E = weak_odr dso_local constant [45 x i8] c"N6dealii12SparseMatrixIeE16ExcInvalidIndex1E\00", comdat, align 1
@_ZTIN6dealii12SparseMatrixIeE16ExcInvalidIndex1E = weak_odr dso_local constant { ptr, ptr, ptr } { ptr getelementptr inbounds (ptr, ptr @_ZTVN10__cxxabiv120__si_class_type_infoE, i64 2), ptr @_ZTSN6dealii12SparseMatrixIeE16ExcInvalidIndex1E, ptr @_ZTIN6dealii13ExceptionBaseE }, comdat, align 8
@_ZTVN6dealii12SparseMatrixIeE28ExcDifferentSparsityPatternsE = weak_odr dso_local unnamed_addr constant { [6 x ptr] } { [6 x ptr] [ptr null, ptr @_ZTIN6dealii12SparseMatrixIeE28ExcDifferentSparsityPatternsE, ptr @_ZN6dealii13ExceptionBaseD2Ev, ptr @_ZN6dealii12SparseMatrixIeE28ExcDifferentSparsityPatternsD0Ev, ptr @_ZNK6dealii13ExceptionBase4whatEv, ptr @_ZNK6dealii13ExceptionBase10print_infoERSo] }, comdat, align 8
@_ZTSN6dealii12SparseMatrixIeE28ExcDifferentSparsityPatternsE = weak_odr dso_local constant [57 x i8] c"N6dealii12SparseMatrixIeE28ExcDifferentSparsityPatternsE\00", comdat, align 1
@_ZTIN6dealii12SparseMatrixIeE28ExcDifferentSparsityPatternsE = weak_odr dso_local constant { ptr, ptr, ptr } { ptr getelementptr inbounds (ptr, ptr @_ZTVN10__cxxabiv120__si_class_type_infoE, i64 2), ptr @_ZTSN6dealii12SparseMatrixIeE28ExcDifferentSparsityPatternsE, ptr @_ZTIN6dealii13ExceptionBaseE }, comdat, align 8
@_ZTSN6dealii12SparseMatrixIeE16ExcIteratorRangeE = weak_odr dso_local constant [45 x i8] c"N6dealii12SparseMatrixIeE16ExcIteratorRangeE\00", comdat, align 1
@_ZTIN6dealii12SparseMatrixIeE16ExcIteratorRangeE = weak_odr dso_local constant { ptr, ptr, ptr } { ptr getelementptr inbounds (ptr, ptr @_ZTVN10__cxxabiv120__si_class_type_infoE, i64 2), ptr @_ZTSN6dealii12SparseMatrixIeE16ExcIteratorRangeE, ptr @_ZTIN6dealii13ExceptionBaseE }, comdat, align 8
@_ZTVN6dealii12SparseMatrixIeE26ExcSourceEqualsDestinationE = weak_odr dso_local unnamed_addr constant { [6 x ptr] } { [6 x ptr] [ptr null, ptr @_ZTIN6dealii12SparseMatrixIeE26ExcSourceEqualsDestinationE, ptr @_ZN6dealii13ExceptionBaseD2Ev, ptr @_ZN6dealii12SparseMatrixIeE26ExcSourceEqualsDestinationD0Ev, ptr @_ZNK6dealii13ExceptionBase4whatEv, ptr @_ZNK6dealii13ExceptionBase10print_infoERSo] }, comdat, align 8
@_ZTSN6dealii12SparseMatrixIeE26ExcSourceEqualsDestinationE = weak_odr dso_local constant [55 x i8] c"N6dealii12SparseMatrixIeE26ExcSourceEqualsDestinationE\00", comdat, align 1
@_ZTIN6dealii12SparseMatrixIeE26ExcSourceEqualsDestinationE = weak_odr dso_local constant { ptr, ptr, ptr } { ptr getelementptr inbounds (ptr, ptr @_ZTVN10__cxxabiv120__si_class_type_infoE, i64 2), ptr @_ZTSN6dealii12SparseMatrixIeE26ExcSourceEqualsDestinationE, ptr @_ZTIN6dealii13ExceptionBaseE }, comdat, align 8
@_ZTSN6dealii12SparseMatrixIdE15ExcInvalidIndexE = linkonce_odr dso_local constant [44 x i8] c"N6dealii12SparseMatrixIdE15ExcInvalidIndexE\00", comdat, align 1
@_ZTIN6dealii12SparseMatrixIdE15ExcInvalidIndexE = linkonce_odr dso_local constant { ptr, ptr, ptr } { ptr getelementptr inbounds (ptr, ptr @_ZTVN10__cxxabiv120__si_class_type_infoE, i64 2), ptr @_ZTSN6dealii12SparseMatrixIdE15ExcInvalidIndexE, ptr @_ZTIN6dealii13ExceptionBaseE }, comdat, align 8
@_ZTSN6dealii12SparseMatrixIfE15ExcInvalidIndexE = linkonce_odr dso_local constant [44 x i8] c"N6dealii12SparseMatrixIfE15ExcInvalidIndexE\00", comdat, align 1
@_ZTIN6dealii12SparseMatrixIfE15ExcInvalidIndexE = linkonce_odr dso_local constant { ptr, ptr, ptr } { ptr getelementptr inbounds (ptr, ptr @_ZTVN10__cxxabiv120__si_class_type_infoE, i64 2), ptr @_ZTSN6dealii12SparseMatrixIfE15ExcInvalidIndexE, ptr @_ZTIN6dealii13ExceptionBaseE }, comdat, align 8
@_ZTSN6dealii12SparseMatrixIeE15ExcInvalidIndexE = linkonce_odr dso_local constant [44 x i8] c"N6dealii12SparseMatrixIeE15ExcInvalidIndexE\00", comdat, align 1
@_ZTIN6dealii12SparseMatrixIeE15ExcInvalidIndexE = linkonce_odr dso_local constant { ptr, ptr, ptr } { ptr getelementptr inbounds (ptr, ptr @_ZTVN10__cxxabiv120__si_class_type_infoE, i64 2), ptr @_ZTSN6dealii12SparseMatrixIeE15ExcInvalidIndexE, ptr @_ZTIN6dealii13ExceptionBaseE }, comdat, align 8
@_ZTVN6dealii18StandardExceptions5ExcIOE = linkonce_odr dso_local unnamed_addr constant { [6 x ptr] } { [6 x ptr] [ptr null, ptr @_ZTIN6dealii18StandardExceptions5ExcIOE, ptr @_ZN6dealii13ExceptionBaseD2Ev, ptr @_ZN6dealii18StandardExceptions5ExcIOD0Ev, ptr @_ZNK6dealii13ExceptionBase4whatEv, ptr @_ZNK6dealii13ExceptionBase10print_infoERSo] }, comdat, align 8
@_ZTSN6dealii18StandardExceptions5ExcIOE = linkonce_odr dso_local constant [36 x i8] c"N6dealii18StandardExceptions5ExcIOE\00", comdat, align 1
@_ZTIN6dealii18StandardExceptions5ExcIOE = linkonce_odr dso_local constant { ptr, ptr, ptr } { ptr getelementptr inbounds (ptr, ptr @_ZTVN10__cxxabiv120__si_class_type_infoE, i64 2), ptr @_ZTSN6dealii18StandardExceptions5ExcIOE, ptr @_ZTIN6dealii13ExceptionBaseE }, comdat, align 8
@_ZTVN6dealii6VectorIdEE = linkonce_odr dso_local unnamed_addr constant { [6 x ptr] } { [6 x ptr] [ptr null, ptr @_ZTIN6dealii6VectorIdEE, ptr @_ZN6dealii6VectorIdED2Ev, ptr @_ZN6dealii6VectorIdED0Ev, ptr @_ZN6dealii6VectorIdE6reinitEjb, ptr @_ZN6dealii6VectorIdE4swapERS1_] }, comdat, align 8
@_ZTSN6dealii6VectorIdEE = linkonce_odr dso_local constant [20 x i8] c"N6dealii6VectorIdEE\00", comdat, align 1
@_ZTIN6dealii6VectorIdEE = linkonce_odr dso_local constant { ptr, ptr, ptr } { ptr getelementptr inbounds (ptr, ptr @_ZTVN10__cxxabiv120__si_class_type_infoE, i64 2), ptr @_ZTSN6dealii6VectorIdEE, ptr @_ZTIN6dealii11SubscriptorE }, comdat, align 8
@_ZTVN6dealii6VectorIfEE = linkonce_odr dso_local unnamed_addr constant { [6 x ptr] } { [6 x ptr] [ptr null, ptr @_ZTIN6dealii6VectorIfEE, ptr @_ZN6dealii6VectorIfED2Ev, ptr @_ZN6dealii6VectorIfED0Ev, ptr @_ZN6dealii6VectorIfE6reinitEjb, ptr @_ZN6dealii6VectorIfE4swapERS1_] }, comdat, align 8
@_ZTSN6dealii6VectorIfEE = linkonce_odr dso_local constant [20 x i8] c"N6dealii6VectorIfEE\00", comdat, align 1
@_ZTIN6dealii6VectorIfEE = linkonce_odr dso_local constant { ptr, ptr, ptr } { ptr getelementptr inbounds (ptr, ptr @_ZTVN10__cxxabiv120__si_class_type_infoE, i64 2), ptr @_ZTSN6dealii6VectorIfEE, ptr @_ZTIN6dealii11SubscriptorE }, comdat, align 8
@_ZTVN6dealii6VectorIeEE = linkonce_odr dso_local unnamed_addr constant { [6 x ptr] } { [6 x ptr] [ptr null, ptr @_ZTIN6dealii6VectorIeEE, ptr @_ZN6dealii6VectorIeED2Ev, ptr @_ZN6dealii6VectorIeED0Ev, ptr @_ZN6dealii6VectorIeE6reinitEjb, ptr @_ZN6dealii6VectorIeE4swapERS1_] }, comdat, align 8
@_ZTSN6dealii6VectorIeEE = linkonce_odr dso_local constant [20 x i8] c"N6dealii6VectorIeEE\00", comdat, align 1
@_ZTIN6dealii6VectorIeEE = linkonce_odr dso_local constant { ptr, ptr, ptr } { ptr getelementptr inbounds (ptr, ptr @_ZTVN10__cxxabiv120__si_class_type_infoE, i64 2), ptr @_ZTSN6dealii6VectorIeEE, ptr @_ZTIN6dealii11SubscriptorE }, comdat, align 8
@llvm.global_ctors = appending global [0 x { i32, ptr, ptr }] zeroinitializer

@_ZN6dealii12SparseMatrixIdE15ExcInvalidIndexC1Eii = weak_odr dso_local unnamed_addr alias void (ptr, i32, i32), ptr @_ZN6dealii12SparseMatrixIdE15ExcInvalidIndexC2Eii
@_ZN6dealii12SparseMatrixIdE15ExcInvalidIndexD1Ev = weak_odr dso_local unnamed_addr alias void (ptr), ptr @_ZN6dealii12SparseMatrixIdE15ExcInvalidIndexD2Ev
@_ZN6dealii12SparseMatrixIdE16ExcInvalidIndex1C1Ei = weak_odr dso_local unnamed_addr alias void (ptr, i32), ptr @_ZN6dealii12SparseMatrixIdE16ExcInvalidIndex1C2Ei
@_ZN6dealii12SparseMatrixIdE16ExcInvalidIndex1D1Ev = weak_odr dso_local unnamed_addr alias void (ptr), ptr @_ZN6dealii12SparseMatrixIdE16ExcInvalidIndex1D2Ev
@_ZN6dealii12SparseMatrixIdE16ExcIteratorRangeC1Eii = weak_odr dso_local unnamed_addr alias void (ptr, i32, i32), ptr @_ZN6dealii12SparseMatrixIdE16ExcIteratorRangeC2Eii
@_ZN6dealii12SparseMatrixIdE16ExcIteratorRangeD1Ev = weak_odr dso_local unnamed_addr alias void (ptr), ptr @_ZN6dealii12SparseMatrixIdE16ExcIteratorRangeD2Ev
@_ZN6dealii12SparseMatrixIfE15ExcInvalidIndexC1Eii = weak_odr dso_local unnamed_addr alias void (ptr, i32, i32), ptr @_ZN6dealii12SparseMatrixIfE15ExcInvalidIndexC2Eii
@_ZN6dealii12SparseMatrixIfE15ExcInvalidIndexD1Ev = weak_odr dso_local unnamed_addr alias void (ptr), ptr @_ZN6dealii12SparseMatrixIfE15ExcInvalidIndexD2Ev
@_ZN6dealii12SparseMatrixIfE16ExcInvalidIndex1C1Ei = weak_odr dso_local unnamed_addr alias void (ptr, i32), ptr @_ZN6dealii12SparseMatrixIfE16ExcInvalidIndex1C2Ei
@_ZN6dealii12SparseMatrixIfE16ExcInvalidIndex1D1Ev = weak_odr dso_local unnamed_addr alias void (ptr), ptr @_ZN6dealii12SparseMatrixIfE16ExcInvalidIndex1D2Ev
@_ZN6dealii12SparseMatrixIfE16ExcIteratorRangeC1Eii = weak_odr dso_local unnamed_addr alias void (ptr, i32, i32), ptr @_ZN6dealii12SparseMatrixIfE16ExcIteratorRangeC2Eii
@_ZN6dealii12SparseMatrixIfE16ExcIteratorRangeD1Ev = weak_odr dso_local unnamed_addr alias void (ptr), ptr @_ZN6dealii12SparseMatrixIfE16ExcIteratorRangeD2Ev
@_ZN6dealii12SparseMatrixIeE15ExcInvalidIndexC1Eii = weak_odr dso_local unnamed_addr alias void (ptr, i32, i32), ptr @_ZN6dealii12SparseMatrixIeE15ExcInvalidIndexC2Eii
@_ZN6dealii12SparseMatrixIeE15ExcInvalidIndexD1Ev = weak_odr dso_local unnamed_addr alias void (ptr), ptr @_ZN6dealii12SparseMatrixIeE15ExcInvalidIndexD2Ev
@_ZN6dealii12SparseMatrixIeE16ExcInvalidIndex1C1Ei = weak_odr dso_local unnamed_addr alias void (ptr, i32), ptr @_ZN6dealii12SparseMatrixIeE16ExcInvalidIndex1C2Ei
@_ZN6dealii12SparseMatrixIeE16ExcInvalidIndex1D1Ev = weak_odr dso_local unnamed_addr alias void (ptr), ptr @_ZN6dealii12SparseMatrixIeE16ExcInvalidIndex1D2Ev
@_ZN6dealii12SparseMatrixIeE16ExcIteratorRangeC1Eii = weak_odr dso_local unnamed_addr alias void (ptr, i32, i32), ptr @_ZN6dealii12SparseMatrixIeE16ExcIteratorRangeC2Eii
@_ZN6dealii12SparseMatrixIeE16ExcIteratorRangeD1Ev = weak_odr dso_local unnamed_addr alias void (ptr), ptr @_ZN6dealii12SparseMatrixIeE16ExcIteratorRangeD2Ev

; Function Attrs: sspstrong uwtable
define weak_odr dso_local void @_ZN6dealii12SparseMatrixIdEC2Ev(ptr noundef nonnull align 8 dereferenceable(36) %0, ptr noundef %1) unnamed_addr #0 comdat align 2 {
  %3 = load ptr, ptr %1, align 8
  store ptr %3, ptr %0, align 8, !tbaa !5
  %4 = getelementptr inbounds ptr, ptr %1, i64 1
  %5 = load ptr, ptr %4, align 8
  %6 = getelementptr i8, ptr %3, i64 -24
  %7 = load i64, ptr %6, align 8
  %8 = getelementptr inbounds i8, ptr %0, i64 %7
  store ptr %5, ptr %8, align 8, !tbaa !5
  %9 = getelementptr inbounds %"class.dealii::SparseMatrix", ptr %0, i64 0, i32 1
  store ptr null, ptr %9, align 8, !tbaa !8
  %10 = getelementptr inbounds %"class.dealii::SparseMatrix", ptr %0, i64 0, i32 1, i32 1
  store ptr @.str, ptr %10, align 8, !tbaa !12
  %11 = getelementptr inbounds %"class.dealii::SparseMatrix", ptr %0, i64 0, i32 2
  store ptr null, ptr %11, align 8, !tbaa !13
  %12 = getelementptr inbounds %"class.dealii::SparseMatrix", ptr %0, i64 0, i32 3
  store i32 0, ptr %12, align 8, !tbaa !16
  ret void
}

; Function Attrs: sspstrong uwtable
define weak_odr dso_local void @_ZN6dealii12SparseMatrixIdEC1Ev(ptr noundef nonnull align 8 dereferenceable(36) %0) unnamed_addr #0 comdat align 2 personality ptr @__gxx_personality_v0 {
  %2 = getelementptr inbounds i8, ptr %0, i64 40
  tail call void @_ZN6dealii11SubscriptorC2Ev(ptr noundef nonnull align 8 dereferenceable(72) %2)
  store ptr getelementptr inbounds ({ [7 x ptr], [5 x ptr] }, ptr @_ZTVN6dealii12SparseMatrixIdEE, i64 0, inrange i32 0, i64 3), ptr %0, align 8, !tbaa !5
  store ptr getelementptr inbounds ({ [7 x ptr], [5 x ptr] }, ptr @_ZTVN6dealii12SparseMatrixIdEE, i64 0, inrange i32 1, i64 3), ptr %2, align 8, !tbaa !5
  %3 = getelementptr inbounds %"class.dealii::SparseMatrix", ptr %0, i64 0, i32 1
  store ptr null, ptr %3, align 8, !tbaa !8
  %4 = getelementptr inbounds %"class.dealii::SparseMatrix", ptr %0, i64 0, i32 1, i32 1
  store ptr @.str, ptr %4, align 8, !tbaa !12
  %5 = getelementptr inbounds %"class.dealii::SparseMatrix", ptr %0, i64 0, i32 2
  store ptr null, ptr %5, align 8, !tbaa !13
  %6 = getelementptr inbounds %"class.dealii::SparseMatrix", ptr %0, i64 0, i32 3
  store i32 0, ptr %6, align 8, !tbaa !16
  ret void
}

declare void @_ZN6dealii11SubscriptorC2Ev(ptr noundef nonnull align 8 dereferenceable(72)) unnamed_addr #1

declare i32 @__gxx_personality_v0(...)

declare void @_ZN6dealii11SubscriptorD2Ev(ptr noundef nonnull align 8 dereferenceable(72)) unnamed_addr #1

; Function Attrs: noinline noreturn nounwind sspstrong uwtable
define linkonce_odr hidden void @__clang_call_terminate(ptr noundef %0) local_unnamed_addr #2 comdat {
  %2 = tail call ptr @__cxa_begin_catch(ptr %0) #17
  tail call void @_ZSt9terminatev() #18
  unreachable
}

declare ptr @__cxa_begin_catch(ptr) local_unnamed_addr

declare void @_ZSt9terminatev() local_unnamed_addr

; Function Attrs: sspstrong uwtable
define weak_odr dso_local void @_ZN6dealii12SparseMatrixIdEC2ERKS1_(ptr noundef nonnull align 8 dereferenceable(36) %0, ptr noundef %1, ptr noundef nonnull align 8 dereferenceable(36) %2) unnamed_addr #0 comdat align 2 {
  %4 = load ptr, ptr %1, align 8
  store ptr %4, ptr %0, align 8, !tbaa !5
  %5 = getelementptr inbounds ptr, ptr %1, i64 1
  %6 = load ptr, ptr %5, align 8
  %7 = getelementptr i8, ptr %4, i64 -24
  %8 = load i64, ptr %7, align 8
  %9 = getelementptr inbounds i8, ptr %0, i64 %8
  store ptr %6, ptr %9, align 8, !tbaa !5
  %10 = getelementptr inbounds %"class.dealii::SparseMatrix", ptr %0, i64 0, i32 1
  store ptr null, ptr %10, align 8, !tbaa !8
  %11 = getelementptr inbounds %"class.dealii::SparseMatrix", ptr %0, i64 0, i32 1, i32 1
  store ptr @.str, ptr %11, align 8, !tbaa !12
  %12 = getelementptr inbounds %"class.dealii::SparseMatrix", ptr %0, i64 0, i32 2
  store ptr null, ptr %12, align 8, !tbaa !13
  %13 = getelementptr inbounds %"class.dealii::SparseMatrix", ptr %0, i64 0, i32 3
  store i32 0, ptr %13, align 8, !tbaa !16
  ret void
}

; Function Attrs: sspstrong uwtable
define weak_odr dso_local void @_ZN6dealii12SparseMatrixIdEC1ERKS1_(ptr noundef nonnull align 8 dereferenceable(36) %0, ptr noundef nonnull align 8 dereferenceable(36) %1) unnamed_addr #0 comdat align 2 personality ptr @__gxx_personality_v0 {
  %3 = getelementptr inbounds i8, ptr %0, i64 40
  %4 = load ptr, ptr %1, align 8, !tbaa !5
  %5 = getelementptr i8, ptr %4, i64 -24
  %6 = load i64, ptr %5, align 8
  %7 = getelementptr inbounds i8, ptr %1, i64 %6
  tail call void @_ZN6dealii11SubscriptorC2ERKS0_(ptr noundef nonnull align 8 dereferenceable(72) %3, ptr noundef nonnull align 8 dereferenceable(72) %7)
  store ptr getelementptr inbounds ({ [7 x ptr], [5 x ptr] }, ptr @_ZTVN6dealii12SparseMatrixIdEE, i64 0, inrange i32 0, i64 3), ptr %0, align 8, !tbaa !5
  store ptr getelementptr inbounds ({ [7 x ptr], [5 x ptr] }, ptr @_ZTVN6dealii12SparseMatrixIdEE, i64 0, inrange i32 1, i64 3), ptr %3, align 8, !tbaa !5
  %8 = getelementptr inbounds %"class.dealii::SparseMatrix", ptr %0, i64 0, i32 1
  store ptr null, ptr %8, align 8, !tbaa !8
  %9 = getelementptr inbounds %"class.dealii::SparseMatrix", ptr %0, i64 0, i32 1, i32 1
  store ptr @.str, ptr %9, align 8, !tbaa !12
  %10 = getelementptr inbounds %"class.dealii::SparseMatrix", ptr %0, i64 0, i32 2
  store ptr null, ptr %10, align 8, !tbaa !13
  %11 = getelementptr inbounds %"class.dealii::SparseMatrix", ptr %0, i64 0, i32 3
  store i32 0, ptr %11, align 8, !tbaa !16
  ret void
}

declare void @_ZN6dealii11SubscriptorC2ERKS0_(ptr noundef nonnull align 8 dereferenceable(72), ptr noundef nonnull align 8 dereferenceable(72)) unnamed_addr #1

; Function Attrs: sspstrong uwtable
define weak_odr dso_local void @_ZN6dealii12SparseMatrixIdEC2ERKNS_15SparsityPatternE(ptr noundef nonnull align 8 dereferenceable(36) %0, ptr noundef %1, ptr noundef nonnull align 8 dereferenceable(122) %2) unnamed_addr #0 comdat align 2 personality ptr @__gxx_personality_v0 {
  %4 = load ptr, ptr %1, align 8
  store ptr %4, ptr %0, align 8, !tbaa !5
  %5 = getelementptr inbounds ptr, ptr %1, i64 1
  %6 = load ptr, ptr %5, align 8
  %7 = getelementptr i8, ptr %4, i64 -24
  %8 = load i64, ptr %7, align 8
  %9 = getelementptr inbounds i8, ptr %0, i64 %8
  store ptr %6, ptr %9, align 8, !tbaa !5
  %10 = getelementptr inbounds %"class.dealii::SparseMatrix", ptr %0, i64 0, i32 1
  store ptr null, ptr %10, align 8, !tbaa !8
  %11 = getelementptr inbounds %"class.dealii::SparseMatrix", ptr %0, i64 0, i32 1, i32 1
  store ptr @.str, ptr %11, align 8, !tbaa !12
  %12 = getelementptr inbounds %"class.dealii::SparseMatrix", ptr %0, i64 0, i32 2
  store ptr null, ptr %12, align 8, !tbaa !13
  %13 = getelementptr inbounds %"class.dealii::SparseMatrix", ptr %0, i64 0, i32 3
  store i32 0, ptr %13, align 8, !tbaa !16
  %14 = load ptr, ptr %0, align 8, !tbaa !5
  %15 = getelementptr inbounds ptr, ptr %14, i64 2
  %16 = load ptr, ptr %15, align 8
  tail call void %16(ptr noundef nonnull align 8 dereferenceable(36) %0, ptr noundef nonnull align 8 dereferenceable(122) %2)
  ret void
}

; Function Attrs: sspstrong uwtable
define weak_odr dso_local void @_ZN6dealii12SparseMatrixIdEC1ERKNS_15SparsityPatternE(ptr noundef nonnull align 8 dereferenceable(36) %0, ptr noundef nonnull align 8 dereferenceable(122) %1) unnamed_addr #0 comdat align 2 personality ptr @__gxx_personality_v0 {
  %3 = getelementptr inbounds i8, ptr %0, i64 40
  tail call void @_ZN6dealii11SubscriptorC2Ev(ptr noundef nonnull align 8 dereferenceable(72) %3)
  store ptr getelementptr inbounds ({ [7 x ptr], [5 x ptr] }, ptr @_ZTVN6dealii12SparseMatrixIdEE, i64 0, inrange i32 0, i64 3), ptr %0, align 8, !tbaa !5
  store ptr getelementptr inbounds ({ [7 x ptr], [5 x ptr] }, ptr @_ZTVN6dealii12SparseMatrixIdEE, i64 0, inrange i32 1, i64 3), ptr %3, align 8, !tbaa !5
  %4 = getelementptr inbounds %"class.dealii::SparseMatrix", ptr %0, i64 0, i32 1
  store ptr null, ptr %4, align 8, !tbaa !8
  %5 = getelementptr inbounds %"class.dealii::SparseMatrix", ptr %0, i64 0, i32 1, i32 1
  store ptr @.str, ptr %5, align 8, !tbaa !12
  %6 = getelementptr inbounds %"class.dealii::SparseMatrix", ptr %0, i64 0, i32 2
  store ptr null, ptr %6, align 8, !tbaa !13
  %7 = getelementptr inbounds %"class.dealii::SparseMatrix", ptr %0, i64 0, i32 3
  store i32 0, ptr %7, align 8, !tbaa !16
  invoke void @_ZN6dealii12SparseMatrixIdE6reinitERKNS_15SparsityPatternE(ptr noundef nonnull align 8 dereferenceable(36) %0, ptr noundef nonnull align 8 dereferenceable(122) %1)
          to label %8 unwind label %9

8:                                                ; preds = %2
  ret void

9:                                                ; preds = %2
  %10 = landingpad { ptr, i32 }
          cleanup
  invoke void @_ZN6dealii11SubscriptorD2Ev(ptr noundef nonnull align 8 dereferenceable(72) %3)
          to label %11 unwind label %12

11:                                               ; preds = %9
  resume { ptr, i32 } %10

12:                                               ; preds = %9
  %13 = landingpad { ptr, i32 }
          catch ptr null
  %14 = extractvalue { ptr, i32 } %13, 0
  tail call void @__clang_call_terminate(ptr %14) #18
  unreachable
}

; Function Attrs: sspstrong uwtable
define weak_odr dso_local void @_ZN6dealii12SparseMatrixIdEC2ERKNS_15SparsityPatternERKNS_14IdentityMatrixE(ptr noundef nonnull align 8 dereferenceable(36) %0, ptr noundef %1, ptr noundef nonnull align 8 dereferenceable(122) %2, ptr noundef nonnull align 4 dereferenceable(4) %3) unnamed_addr #0 comdat align 2 personality ptr @__gxx_personality_v0 {
  %5 = load ptr, ptr %1, align 8
  store ptr %5, ptr %0, align 8, !tbaa !5
  %6 = getelementptr inbounds ptr, ptr %1, i64 1
  %7 = load ptr, ptr %6, align 8
  %8 = getelementptr i8, ptr %5, i64 -24
  %9 = load i64, ptr %8, align 8
  %10 = getelementptr inbounds i8, ptr %0, i64 %9
  store ptr %7, ptr %10, align 8, !tbaa !5
  %11 = getelementptr inbounds %"class.dealii::SparseMatrix", ptr %0, i64 0, i32 1
  store ptr null, ptr %11, align 8, !tbaa !8
  %12 = getelementptr inbounds %"class.dealii::SparseMatrix", ptr %0, i64 0, i32 1, i32 1
  store ptr @.str, ptr %12, align 8, !tbaa !12
  %13 = getelementptr inbounds %"class.dealii::SparseMatrix", ptr %0, i64 0, i32 2
  store ptr null, ptr %13, align 8, !tbaa !13
  %14 = getelementptr inbounds %"class.dealii::SparseMatrix", ptr %0, i64 0, i32 3
  store i32 0, ptr %14, align 8, !tbaa !16
  %15 = load ptr, ptr %0, align 8, !tbaa !5
  %16 = getelementptr inbounds ptr, ptr %15, i64 2
  %17 = load ptr, ptr %16, align 8
  tail call void %17(ptr noundef nonnull align 8 dereferenceable(36) %0, ptr noundef nonnull align 8 dereferenceable(122) %2)
  %18 = load ptr, ptr %11, align 8, !tbaa !8
  %19 = getelementptr inbounds %"class.dealii::SparsityPattern", ptr %18, i64 0, i32 3
  %20 = load i32, ptr %19, align 8, !tbaa !17
  %21 = icmp eq i32 %20, 0
  br i1 %21, label %22, label %23

22:                                               ; preds = %32, %4
  ret void

23:                                               ; preds = %4, %32
  %24 = phi ptr [ %34, %32 ], [ %18, %4 ]
  %25 = phi i32 [ %33, %32 ], [ 0, %4 ]
  %26 = tail call noundef i32 @_ZNK6dealii15SparsityPatternclEjj(ptr noundef nonnull align 8 dereferenceable(122) %24, i32 noundef %25, i32 noundef %25)
  %27 = icmp eq i32 %26, -1
  br i1 %27, label %32, label %28

28:                                               ; preds = %23
  %29 = load ptr, ptr %13, align 8, !tbaa !13
  %30 = zext i32 %26 to i64
  %31 = getelementptr inbounds double, ptr %29, i64 %30
  store double 1.000000e+00, ptr %31, align 8, !tbaa !30
  br label %32

32:                                               ; preds = %28, %23
  %33 = add nuw i32 %25, 1
  %34 = load ptr, ptr %11, align 8, !tbaa !8
  %35 = getelementptr inbounds %"class.dealii::SparsityPattern", ptr %34, i64 0, i32 3
  %36 = load i32, ptr %35, align 8, !tbaa !17
  %37 = icmp ult i32 %33, %36
  br i1 %37, label %23, label %22
}

; Function Attrs: mustprogress nocallback nofree nosync nounwind willreturn memory(argmem: readwrite)
declare void @llvm.lifetime.start.p0(i64 immarg, ptr nocapture) #3

; Function Attrs: inlinehint sspstrong uwtable
define weak_odr dso_local noundef i32 @_ZNK6dealii12SparseMatrixIdE1nEv(ptr noundef nonnull align 8 dereferenceable(36) %0) local_unnamed_addr #4 comdat align 2 {
  %2 = getelementptr inbounds %"class.dealii::SparseMatrix", ptr %0, i64 0, i32 1
  %3 = load ptr, ptr %2, align 8, !tbaa !8
  %4 = getelementptr inbounds %"class.dealii::SparsityPattern", ptr %3, i64 0, i32 3
  %5 = load i32, ptr %4, align 8, !tbaa !17
  ret i32 %5
}

; Function Attrs: inlinehint sspstrong uwtable
define weak_odr dso_local void @_ZN6dealii12SparseMatrixIdE3setEjjd(ptr noundef nonnull align 8 dereferenceable(36) %0, i32 noundef %1, i32 noundef %2, double noundef %3) local_unnamed_addr #4 comdat align 2 {
  %5 = getelementptr inbounds %"class.dealii::SparseMatrix", ptr %0, i64 0, i32 1
  %6 = load ptr, ptr %5, align 8, !tbaa !8
  %7 = tail call noundef i32 @_ZNK6dealii15SparsityPatternclEjj(ptr noundef nonnull align 8 dereferenceable(122) %6, i32 noundef %1, i32 noundef %2)
  %8 = icmp eq i32 %7, -1
  br i1 %8, label %14, label %9

9:                                                ; preds = %4
  %10 = getelementptr inbounds %"class.dealii::SparseMatrix", ptr %0, i64 0, i32 2
  %11 = load ptr, ptr %10, align 8, !tbaa !13
  %12 = zext i32 %7 to i64
  %13 = getelementptr inbounds double, ptr %11, i64 %12
  store double %3, ptr %13, align 8, !tbaa !30
  br label %14

14:                                               ; preds = %4, %9
  ret void
}

; Function Attrs: mustprogress nocallback nofree nosync nounwind willreturn memory(argmem: readwrite)
declare void @llvm.lifetime.end.p0(i64 immarg, ptr nocapture) #3

; Function Attrs: sspstrong uwtable
define weak_odr dso_local void @_ZN6dealii12SparseMatrixIdEC1ERKNS_15SparsityPatternERKNS_14IdentityMatrixE(ptr noundef nonnull align 8 dereferenceable(36) %0, ptr noundef nonnull align 8 dereferenceable(122) %1, ptr noundef nonnull align 4 dereferenceable(4) %2) unnamed_addr #0 comdat align 2 personality ptr @__gxx_personality_v0 {
  %4 = getelementptr inbounds i8, ptr %0, i64 40
  tail call void @_ZN6dealii11SubscriptorC2Ev(ptr noundef nonnull align 8 dereferenceable(72) %4)
  store ptr getelementptr inbounds ({ [7 x ptr], [5 x ptr] }, ptr @_ZTVN6dealii12SparseMatrixIdEE, i64 0, inrange i32 0, i64 3), ptr %0, align 8, !tbaa !5
  store ptr getelementptr inbounds ({ [7 x ptr], [5 x ptr] }, ptr @_ZTVN6dealii12SparseMatrixIdEE, i64 0, inrange i32 1, i64 3), ptr %4, align 8, !tbaa !5
  %5 = getelementptr inbounds %"class.dealii::SparseMatrix", ptr %0, i64 0, i32 1
  store ptr null, ptr %5, align 8, !tbaa !8
  %6 = getelementptr inbounds %"class.dealii::SparseMatrix", ptr %0, i64 0, i32 1, i32 1
  store ptr @.str, ptr %6, align 8, !tbaa !12
  %7 = getelementptr inbounds %"class.dealii::SparseMatrix", ptr %0, i64 0, i32 2
  store ptr null, ptr %7, align 8, !tbaa !13
  %8 = getelementptr inbounds %"class.dealii::SparseMatrix", ptr %0, i64 0, i32 3
  store i32 0, ptr %8, align 8, !tbaa !16
  invoke void @_ZN6dealii12SparseMatrixIdE6reinitERKNS_15SparsityPatternE(ptr noundef nonnull align 8 dereferenceable(36) %0, ptr noundef nonnull align 8 dereferenceable(122) %1)
          to label %9 unwind label %15

9:                                                ; preds = %3
  %10 = load ptr, ptr %5, align 8, !tbaa !8
  %11 = getelementptr inbounds %"class.dealii::SparsityPattern", ptr %10, i64 0, i32 3
  %12 = load i32, ptr %11, align 8, !tbaa !17
  %13 = icmp eq i32 %12, 0
  br i1 %13, label %14, label %19

14:                                               ; preds = %29, %9
  ret void

15:                                               ; preds = %3
  %16 = landingpad { ptr, i32 }
          cleanup
  br label %35

17:                                               ; preds = %19
  %18 = landingpad { ptr, i32 }
          cleanup
  br label %35

19:                                               ; preds = %9, %29
  %20 = phi ptr [ %31, %29 ], [ %10, %9 ]
  %21 = phi i32 [ %30, %29 ], [ 0, %9 ]
  %22 = invoke noundef i32 @_ZNK6dealii15SparsityPatternclEjj(ptr noundef nonnull align 8 dereferenceable(122) %20, i32 noundef %21, i32 noundef %21)
          to label %23 unwind label %17

23:                                               ; preds = %19
  %24 = icmp eq i32 %22, -1
  br i1 %24, label %29, label %25

25:                                               ; preds = %23
  %26 = load ptr, ptr %7, align 8, !tbaa !13
  %27 = zext i32 %22 to i64
  %28 = getelementptr inbounds double, ptr %26, i64 %27
  store double 1.000000e+00, ptr %28, align 8, !tbaa !30
  br label %29

29:                                               ; preds = %25, %23
  %30 = add nuw i32 %21, 1
  %31 = load ptr, ptr %5, align 8, !tbaa !8
  %32 = getelementptr inbounds %"class.dealii::SparsityPattern", ptr %31, i64 0, i32 3
  %33 = load i32, ptr %32, align 8, !tbaa !17
  %34 = icmp ult i32 %30, %33
  br i1 %34, label %19, label %14

35:                                               ; preds = %15, %17
  %36 = phi { ptr, i32 } [ %18, %17 ], [ %16, %15 ]
  invoke void @_ZN6dealii11SubscriptorD2Ev(ptr noundef nonnull align 8 dereferenceable(72) %4)
          to label %37 unwind label %38

37:                                               ; preds = %35
  resume { ptr, i32 } %36

38:                                               ; preds = %35
  %39 = landingpad { ptr, i32 }
          catch ptr null
  %40 = extractvalue { ptr, i32 } %39, 0
  tail call void @__clang_call_terminate(ptr %40) #18
  unreachable
}

; Function Attrs: sspstrong uwtable
define weak_odr dso_local void @_ZN6dealii12SparseMatrixIdED2Ev(ptr noundef nonnull align 8 dereferenceable(36) %0, ptr noundef %1) unnamed_addr #0 comdat align 2 personality ptr @__gxx_personality_v0 {
  %3 = load ptr, ptr %1, align 8
  store ptr %3, ptr %0, align 8, !tbaa !5
  %4 = getelementptr inbounds ptr, ptr %1, i64 1
  %5 = load ptr, ptr %4, align 8
  %6 = getelementptr i8, ptr %3, i64 -24
  %7 = load i64, ptr %6, align 8
  %8 = getelementptr inbounds i8, ptr %0, i64 %7
  store ptr %5, ptr %8, align 8, !tbaa !5
  %9 = getelementptr inbounds %"class.dealii::SparseMatrix", ptr %0, i64 0, i32 1
  %10 = load ptr, ptr %9, align 8, !tbaa !8
  %11 = icmp eq ptr %10, null
  br i1 %11, label %13, label %12

12:                                               ; preds = %2
  store ptr null, ptr %9, align 8, !tbaa !8
  br label %13

13:                                               ; preds = %2, %12
  %14 = getelementptr inbounds %"class.dealii::SparseMatrix", ptr %0, i64 0, i32 2
  %15 = load ptr, ptr %14, align 8, !tbaa !13
  %16 = icmp eq ptr %15, null
  br i1 %16, label %18, label %17

17:                                               ; preds = %13
  tail call void @_ZdaPv(ptr noundef nonnull %15) #19
  br label %18

18:                                               ; preds = %17, %13
  ret void
}

; Function Attrs: nobuiltin nounwind
declare void @_ZdaPv(ptr noundef) local_unnamed_addr #5

; Function Attrs: sspstrong uwtable
define weak_odr dso_local void @_ZN6dealii12SparseMatrixIdED1Ev(ptr noundef nonnull align 8 dereferenceable(36) %0) unnamed_addr #0 comdat align 2 personality ptr @__gxx_personality_v0 {
  store ptr getelementptr inbounds ({ [7 x ptr], [5 x ptr] }, ptr @_ZTVN6dealii12SparseMatrixIdEE, i64 0, inrange i32 0, i64 3), ptr %0, align 8, !tbaa !5
  %2 = getelementptr inbounds i8, ptr %0, i64 40
  store ptr getelementptr inbounds ({ [7 x ptr], [5 x ptr] }, ptr @_ZTVN6dealii12SparseMatrixIdEE, i64 0, inrange i32 1, i64 3), ptr %2, align 8, !tbaa !5
  %3 = getelementptr inbounds %"class.dealii::SparseMatrix", ptr %0, i64 0, i32 1
  %4 = load ptr, ptr %3, align 8, !tbaa !8
  %5 = icmp eq ptr %4, null
  br i1 %5, label %7, label %6

6:                                                ; preds = %1
  store ptr null, ptr %3, align 8, !tbaa !8
  br label %7

7:                                                ; preds = %6, %1
  %8 = getelementptr inbounds %"class.dealii::SparseMatrix", ptr %0, i64 0, i32 2
  %9 = load ptr, ptr %8, align 8, !tbaa !13
  %10 = icmp eq ptr %9, null
  br i1 %10, label %12, label %11

11:                                               ; preds = %7
  tail call void @_ZdaPv(ptr noundef nonnull %9) #19
  br label %12

12:                                               ; preds = %11, %7
  tail call void @_ZN6dealii11SubscriptorD2Ev(ptr noundef nonnull align 8 dereferenceable(72) %2)
  ret void
}

; Function Attrs: sspstrong uwtable
define weak_odr dso_local void @_ZTv0_n24_N6dealii12SparseMatrixIdED1Ev(ptr noundef %0) unnamed_addr #0 comdat align 2 personality ptr @__gxx_personality_v0 {
  %2 = load ptr, ptr %0, align 8
  %3 = getelementptr inbounds i8, ptr %2, i64 -24
  %4 = load i64, ptr %3, align 8
  %5 = getelementptr inbounds i8, ptr %0, i64 %4
  store ptr getelementptr inbounds ({ [7 x ptr], [5 x ptr] }, ptr @_ZTVN6dealii12SparseMatrixIdEE, i64 0, inrange i32 0, i64 3), ptr %5, align 8, !tbaa !5
  %6 = getelementptr inbounds i8, ptr %5, i64 40
  store ptr getelementptr inbounds ({ [7 x ptr], [5 x ptr] }, ptr @_ZTVN6dealii12SparseMatrixIdEE, i64 0, inrange i32 1, i64 3), ptr %6, align 8, !tbaa !5
  %7 = getelementptr inbounds %"class.dealii::SparseMatrix", ptr %5, i64 0, i32 1
  %8 = load ptr, ptr %7, align 8, !tbaa !8
  %9 = icmp eq ptr %8, null
  br i1 %9, label %11, label %10

10:                                               ; preds = %1
  store ptr null, ptr %7, align 8, !tbaa !8
  br label %11

11:                                               ; preds = %10, %1
  %12 = getelementptr inbounds %"class.dealii::SparseMatrix", ptr %5, i64 0, i32 2
  %13 = load ptr, ptr %12, align 8, !tbaa !13
  %14 = icmp eq ptr %13, null
  br i1 %14, label %16, label %15

15:                                               ; preds = %11
  tail call void @_ZdaPv(ptr noundef nonnull %13) #19
  br label %16

16:                                               ; preds = %11, %15
  tail call void @_ZN6dealii11SubscriptorD2Ev(ptr noundef nonnull align 8 dereferenceable(72) %6)
  ret void
}

; Function Attrs: sspstrong uwtable
define weak_odr dso_local void @_ZN6dealii12SparseMatrixIdED0Ev(ptr noundef nonnull align 8 dereferenceable(36) %0) unnamed_addr #0 comdat align 2 personality ptr @__gxx_personality_v0 {
  store ptr getelementptr inbounds ({ [7 x ptr], [5 x ptr] }, ptr @_ZTVN6dealii12SparseMatrixIdEE, i64 0, inrange i32 0, i64 3), ptr %0, align 8, !tbaa !5
  %2 = getelementptr inbounds i8, ptr %0, i64 40
  store ptr getelementptr inbounds ({ [7 x ptr], [5 x ptr] }, ptr @_ZTVN6dealii12SparseMatrixIdEE, i64 0, inrange i32 1, i64 3), ptr %2, align 8, !tbaa !5
  %3 = getelementptr inbounds %"class.dealii::SparseMatrix", ptr %0, i64 0, i32 1
  %4 = load ptr, ptr %3, align 8, !tbaa !8
  %5 = icmp eq ptr %4, null
  br i1 %5, label %7, label %6

6:                                                ; preds = %1
  store ptr null, ptr %3, align 8, !tbaa !8
  br label %7

7:                                                ; preds = %6, %1
  %8 = getelementptr inbounds %"class.dealii::SparseMatrix", ptr %0, i64 0, i32 2
  %9 = load ptr, ptr %8, align 8, !tbaa !13
  %10 = icmp eq ptr %9, null
  br i1 %10, label %12, label %11

11:                                               ; preds = %7
  tail call void @_ZdaPv(ptr noundef nonnull %9) #19
  br label %12

12:                                               ; preds = %11, %7
  invoke void @_ZN6dealii11SubscriptorD2Ev(ptr noundef nonnull align 8 dereferenceable(72) %2)
          to label %13 unwind label %14

13:                                               ; preds = %12
  tail call void @_ZdlPv(ptr noundef nonnull %0) #19
  ret void

14:                                               ; preds = %12
  %15 = landingpad { ptr, i32 }
          cleanup
  tail call void @_ZdlPv(ptr noundef nonnull %0) #19
  resume { ptr, i32 } %15
}

; Function Attrs: nobuiltin nounwind
declare void @_ZdlPv(ptr noundef) local_unnamed_addr #5

; Function Attrs: sspstrong uwtable
define weak_odr dso_local void @_ZTv0_n24_N6dealii12SparseMatrixIdED0Ev(ptr noundef %0) unnamed_addr #0 comdat align 2 personality ptr @__gxx_personality_v0 {
  %2 = load ptr, ptr %0, align 8
  %3 = getelementptr inbounds i8, ptr %2, i64 -24
  %4 = load i64, ptr %3, align 8
  %5 = getelementptr inbounds i8, ptr %0, i64 %4
  store ptr getelementptr inbounds ({ [7 x ptr], [5 x ptr] }, ptr @_ZTVN6dealii12SparseMatrixIdEE, i64 0, inrange i32 0, i64 3), ptr %5, align 8, !tbaa !5
  %6 = getelementptr inbounds i8, ptr %5, i64 40
  store ptr getelementptr inbounds ({ [7 x ptr], [5 x ptr] }, ptr @_ZTVN6dealii12SparseMatrixIdEE, i64 0, inrange i32 1, i64 3), ptr %6, align 8, !tbaa !5
  %7 = getelementptr inbounds %"class.dealii::SparseMatrix", ptr %5, i64 0, i32 1
  %8 = load ptr, ptr %7, align 8, !tbaa !8
  %9 = icmp eq ptr %8, null
  br i1 %9, label %11, label %10

10:                                               ; preds = %1
  store ptr null, ptr %7, align 8, !tbaa !8
  br label %11

11:                                               ; preds = %10, %1
  %12 = getelementptr inbounds %"class.dealii::SparseMatrix", ptr %5, i64 0, i32 2
  %13 = load ptr, ptr %12, align 8, !tbaa !13
  %14 = icmp eq ptr %13, null
  br i1 %14, label %16, label %15

15:                                               ; preds = %11
  tail call void @_ZdaPv(ptr noundef nonnull %13) #19
  br label %16

16:                                               ; preds = %15, %11
  invoke void @_ZN6dealii11SubscriptorD2Ev(ptr noundef nonnull align 8 dereferenceable(72) %6)
          to label %19 unwind label %17

17:                                               ; preds = %16
  %18 = landingpad { ptr, i32 }
          cleanup
  tail call void @_ZdlPv(ptr noundef nonnull %5) #19
  resume { ptr, i32 } %18

19:                                               ; preds = %16
  tail call void @_ZdlPv(ptr noundef nonnull %5) #19
  ret void
}

; Function Attrs: nounwind sspstrong uwtable
define weak_odr dso_local noundef nonnull align 8 dereferenceable(36) ptr @_ZN6dealii12SparseMatrixIdEaSERKS1_(ptr noundef nonnull align 8 dereferenceable(36) %0, ptr noundef nonnull align 8 dereferenceable(36) %1) local_unnamed_addr #6 comdat align 2 {
  ret ptr %0
}

; Function Attrs: sspstrong uwtable
define weak_odr dso_local noundef nonnull align 8 dereferenceable(36) ptr @_ZN6dealii12SparseMatrixIdEaSERKNS_14IdentityMatrixE(ptr noundef nonnull align 8 dereferenceable(36) %0, ptr noundef nonnull align 4 dereferenceable(4) %1) local_unnamed_addr #0 comdat align 2 {
  %3 = getelementptr inbounds %"class.dealii::SparseMatrix", ptr %0, i64 0, i32 2
  %4 = load ptr, ptr %3, align 8, !tbaa !13
  %5 = icmp eq ptr %4, null
  %6 = getelementptr inbounds %"class.dealii::SparseMatrix", ptr %0, i64 0, i32 1
  %7 = load ptr, ptr %6, align 8, !tbaa !8
  br i1 %5, label %22, label %8

8:                                                ; preds = %2
  %9 = getelementptr inbounds %"class.dealii::SparsityPattern", ptr %7, i64 0, i32 8
  %10 = load ptr, ptr %9, align 8, !tbaa !32
  %11 = getelementptr inbounds %"class.dealii::SparsityPattern", ptr %7, i64 0, i32 2
  %12 = load i32, ptr %11, align 4, !tbaa !33
  %13 = zext i32 %12 to i64
  %14 = getelementptr inbounds i64, ptr %10, i64 %13
  %15 = load i64, ptr %14, align 8, !tbaa !34
  %16 = load i64, ptr %10, align 8, !tbaa !34
  %17 = sub i64 %15, %16
  %18 = and i64 %17, 4294967295
  %19 = icmp eq i64 %18, 0
  br i1 %19, label %22, label %20

20:                                               ; preds = %8
  %21 = shl nuw nsw i64 %18, 3
  tail call void @llvm.memset.p0.i64(ptr nonnull align 8 %4, i8 0, i64 %21, i1 false), !tbaa !30
  br label %22

22:                                               ; preds = %2, %8, %20
  %23 = getelementptr inbounds %"class.dealii::SparseMatrix", ptr %0, i64 0, i32 1
  %24 = getelementptr inbounds %"class.dealii::SparsityPattern", ptr %7, i64 0, i32 3
  %25 = load i32, ptr %24, align 8, !tbaa !17
  %26 = icmp eq i32 %25, 0
  br i1 %26, label %27, label %28

27:                                               ; preds = %37, %22
  ret ptr %0

28:                                               ; preds = %22, %37
  %29 = phi ptr [ %39, %37 ], [ %7, %22 ]
  %30 = phi i32 [ %38, %37 ], [ 0, %22 ]
  %31 = tail call noundef i32 @_ZNK6dealii15SparsityPatternclEjj(ptr noundef nonnull align 8 dereferenceable(122) %29, i32 noundef %30, i32 noundef %30)
  %32 = icmp eq i32 %31, -1
  br i1 %32, label %37, label %33

33:                                               ; preds = %28
  %34 = load ptr, ptr %3, align 8, !tbaa !13
  %35 = zext i32 %31 to i64
  %36 = getelementptr inbounds double, ptr %34, i64 %35
  store double 1.000000e+00, ptr %36, align 8, !tbaa !30
  br label %37

37:                                               ; preds = %28, %33
  %38 = add nuw i32 %30, 1
  %39 = load ptr, ptr %23, align 8, !tbaa !8
  %40 = getelementptr inbounds %"class.dealii::SparsityPattern", ptr %39, i64 0, i32 3
  %41 = load i32, ptr %40, align 8, !tbaa !17
  %42 = icmp ult i32 %38, %41
  br i1 %42, label %28, label %27
}

; Function Attrs: sspstrong uwtable
define weak_odr dso_local noundef nonnull align 8 dereferenceable(36) ptr @_ZN6dealii12SparseMatrixIdEaSEd(ptr noundef nonnull align 8 dereferenceable(36) %0, double noundef %1) local_unnamed_addr #0 comdat align 2 {
  %3 = getelementptr inbounds %"class.dealii::SparseMatrix", ptr %0, i64 0, i32 2
  %4 = load ptr, ptr %3, align 8, !tbaa !13
  %5 = icmp eq ptr %4, null
  br i1 %5, label %22, label %6

6:                                                ; preds = %2
  %7 = getelementptr inbounds %"class.dealii::SparseMatrix", ptr %0, i64 0, i32 1
  %8 = load ptr, ptr %7, align 8, !tbaa !8
  %9 = getelementptr inbounds %"class.dealii::SparsityPattern", ptr %8, i64 0, i32 8
  %10 = load ptr, ptr %9, align 8, !tbaa !32
  %11 = getelementptr inbounds %"class.dealii::SparsityPattern", ptr %8, i64 0, i32 2
  %12 = load i32, ptr %11, align 4, !tbaa !33
  %13 = zext i32 %12 to i64
  %14 = getelementptr inbounds i64, ptr %10, i64 %13
  %15 = load i64, ptr %14, align 8, !tbaa !34
  %16 = load i64, ptr %10, align 8, !tbaa !34
  %17 = sub i64 %15, %16
  %18 = and i64 %17, 4294967295
  %19 = icmp eq i64 %18, 0
  br i1 %19, label %22, label %20

20:                                               ; preds = %6
  %21 = shl nuw nsw i64 %18, 3
  tail call void @llvm.memset.p0.i64(ptr nonnull align 8 %4, i8 0, i64 %21, i1 false), !tbaa !30
  br label %22

22:                                               ; preds = %20, %6, %2
  ret ptr %0
}

; Function Attrs: sspstrong uwtable
define weak_odr dso_local void @_ZN6dealii12SparseMatrixIdE6reinitERKNS_15SparsityPatternE(ptr noundef nonnull align 8 dereferenceable(36) %0, ptr noundef nonnull align 8 dereferenceable(122) %1) unnamed_addr #0 comdat align 2 {
  %3 = getelementptr inbounds %"class.dealii::SparseMatrix", ptr %0, i64 0, i32 1
  %4 = load ptr, ptr %3, align 8, !tbaa !8
  %5 = icmp eq ptr %4, %1
  br i1 %5, label %7, label %6

6:                                                ; preds = %2
  store ptr %1, ptr %3, align 8, !tbaa !8
  br label %7

7:                                                ; preds = %2, %6
  %8 = tail call noundef zeroext i1 @_ZNK6dealii15SparsityPattern5emptyEv(ptr noundef nonnull align 8 dereferenceable(122) %1)
  br i1 %8, label %9, label %16

9:                                                ; preds = %7
  %10 = getelementptr inbounds %"class.dealii::SparseMatrix", ptr %0, i64 0, i32 2
  %11 = load ptr, ptr %10, align 8, !tbaa !13
  %12 = icmp eq ptr %11, null
  br i1 %12, label %14, label %13

13:                                               ; preds = %9
  tail call void @_ZdaPv(ptr noundef nonnull %11) #19
  br label %14

14:                                               ; preds = %13, %9
  store ptr null, ptr %10, align 8, !tbaa !13
  %15 = getelementptr inbounds %"class.dealii::SparseMatrix", ptr %0, i64 0, i32 3
  store i32 0, ptr %15, align 8, !tbaa !16
  br label %50

16:                                               ; preds = %7
  %17 = load ptr, ptr %3, align 8, !tbaa !8
  %18 = getelementptr inbounds %"class.dealii::SparsityPattern", ptr %17, i64 0, i32 8
  %19 = load ptr, ptr %18, align 8, !tbaa !32
  %20 = getelementptr inbounds %"class.dealii::SparsityPattern", ptr %17, i64 0, i32 2
  %21 = load i32, ptr %20, align 4, !tbaa !33
  %22 = zext i32 %21 to i64
  %23 = getelementptr inbounds i64, ptr %19, i64 %22
  %24 = load i64, ptr %23, align 8, !tbaa !34
  %25 = load i64, ptr %19, align 8, !tbaa !34
  %26 = sub i64 %24, %25
  %27 = trunc i64 %26 to i32
  %28 = getelementptr inbounds %"class.dealii::SparseMatrix", ptr %0, i64 0, i32 3
  %29 = load i32, ptr %28, align 8, !tbaa !16
  %30 = icmp ult i32 %29, %27
  %31 = icmp eq i32 %29, 0
  %32 = or i1 %31, %30
  %33 = getelementptr inbounds %"class.dealii::SparseMatrix", ptr %0, i64 0, i32 2
  %34 = load ptr, ptr %33, align 8, !tbaa !13
  br i1 %32, label %35, label %42

35:                                               ; preds = %16
  %36 = icmp eq ptr %34, null
  br i1 %36, label %38, label %37

37:                                               ; preds = %35
  tail call void @_ZdaPv(ptr noundef nonnull %34) #19
  br label %38

38:                                               ; preds = %37, %35
  %39 = shl i64 %26, 3
  %40 = and i64 %39, 34359738360
  %41 = tail call noalias noundef nonnull ptr @_Znam(i64 noundef %40) #20
  store ptr %41, ptr %33, align 8, !tbaa !13
  store i32 %27, ptr %28, align 8, !tbaa !16
  br label %42

42:                                               ; preds = %16, %38
  %43 = phi ptr [ %41, %38 ], [ %34, %16 ]
  %44 = icmp eq ptr %43, null
  %45 = icmp eq i32 %27, 0
  %46 = or i1 %45, %44
  br i1 %46, label %50, label %47

47:                                               ; preds = %42
  %48 = shl i64 %26, 3
  %49 = and i64 %48, 34359738360
  tail call void @llvm.memset.p0.i64(ptr nonnull align 8 %43, i8 0, i64 %49, i1 false), !tbaa !30
  br label %50

50:                                               ; preds = %47, %42, %14
  ret void
}

declare noundef zeroext i1 @_ZNK6dealii15SparsityPattern5emptyEv(ptr noundef nonnull align 8 dereferenceable(122)) local_unnamed_addr #1

; Function Attrs: nobuiltin allocsize(0)
declare noundef nonnull ptr @_Znam(i64 noundef) local_unnamed_addr #7

; Function Attrs: sspstrong uwtable
define weak_odr dso_local void @_ZN6dealii12SparseMatrixIdE5clearEv(ptr noundef nonnull align 8 dereferenceable(36) %0) unnamed_addr #0 comdat align 2 {
  %2 = getelementptr inbounds %"class.dealii::SparseMatrix", ptr %0, i64 0, i32 1
  %3 = load ptr, ptr %2, align 8, !tbaa !8
  %4 = icmp eq ptr %3, null
  br i1 %4, label %6, label %5

5:                                                ; preds = %1
  store ptr null, ptr %2, align 8, !tbaa !8
  br label %6

6:                                                ; preds = %1, %5
  %7 = getelementptr inbounds %"class.dealii::SparseMatrix", ptr %0, i64 0, i32 2
  %8 = load ptr, ptr %7, align 8, !tbaa !13
  %9 = icmp eq ptr %8, null
  br i1 %9, label %11, label %10

10:                                               ; preds = %6
  tail call void @_ZdaPv(ptr noundef nonnull %8) #19
  br label %11

11:                                               ; preds = %10, %6
  store ptr null, ptr %7, align 8, !tbaa !13
  %12 = getelementptr inbounds %"class.dealii::SparseMatrix", ptr %0, i64 0, i32 3
  store i32 0, ptr %12, align 8, !tbaa !16
  ret void
}

; Function Attrs: sspstrong uwtable
define weak_odr dso_local noundef zeroext i1 @_ZNK6dealii12SparseMatrixIdE5emptyEv(ptr noundef nonnull align 8 dereferenceable(36) %0) local_unnamed_addr #0 comdat align 2 {
  %2 = getelementptr inbounds %"class.dealii::SparseMatrix", ptr %0, i64 0, i32 1
  %3 = load ptr, ptr %2, align 8, !tbaa !8
  %4 = icmp eq ptr %3, null
  br i1 %4, label %7, label %5

5:                                                ; preds = %1
  %6 = tail call noundef zeroext i1 @_ZNK6dealii15SparsityPattern5emptyEv(ptr noundef nonnull align 8 dereferenceable(122) %3)
  br label %7

7:                                                ; preds = %1, %5
  %8 = phi i1 [ %6, %5 ], [ true, %1 ]
  ret i1 %8
}

; Function Attrs: inlinehint sspstrong uwtable
define weak_odr dso_local noundef i32 @_ZNK6dealii12SparseMatrixIdE1mEv(ptr noundef nonnull align 8 dereferenceable(36) %0) local_unnamed_addr #4 comdat align 2 {
  %2 = getelementptr inbounds %"class.dealii::SparseMatrix", ptr %0, i64 0, i32 1
  %3 = load ptr, ptr %2, align 8, !tbaa !8
  %4 = getelementptr inbounds %"class.dealii::SparsityPattern", ptr %3, i64 0, i32 2
  %5 = load i32, ptr %4, align 4, !tbaa !33
  ret i32 %5
}

; Function Attrs: sspstrong uwtable
define weak_odr dso_local noundef i32 @_ZNK6dealii12SparseMatrixIdE18n_nonzero_elementsEv(ptr noundef nonnull align 8 dereferenceable(36) %0) local_unnamed_addr #0 comdat align 2 {
  %2 = getelementptr inbounds %"class.dealii::SparseMatrix", ptr %0, i64 0, i32 1
  %3 = load ptr, ptr %2, align 8, !tbaa !8
  %4 = getelementptr inbounds %"class.dealii::SparsityPattern", ptr %3, i64 0, i32 8
  %5 = load ptr, ptr %4, align 8, !tbaa !32
  %6 = getelementptr inbounds %"class.dealii::SparsityPattern", ptr %3, i64 0, i32 2
  %7 = load i32, ptr %6, align 4, !tbaa !33
  %8 = zext i32 %7 to i64
  %9 = getelementptr inbounds i64, ptr %5, i64 %8
  %10 = load i64, ptr %9, align 8, !tbaa !34
  %11 = load i64, ptr %5, align 8, !tbaa !34
  %12 = sub i64 %10, %11
  %13 = trunc i64 %12 to i32
  ret i32 %13
}

; Function Attrs: sspstrong uwtable
define weak_odr dso_local noundef i32 @_ZNK6dealii12SparseMatrixIdE27n_actually_nonzero_elementsEd(ptr noundef nonnull align 8 dereferenceable(36) %0, double noundef %1) local_unnamed_addr #0 comdat align 2 {
  %3 = getelementptr inbounds %"class.dealii::SparseMatrix", ptr %0, i64 0, i32 1
  %4 = load ptr, ptr %3, align 8, !tbaa !8
  %5 = getelementptr inbounds %"class.dealii::SparsityPattern", ptr %4, i64 0, i32 8
  %6 = load ptr, ptr %5, align 8, !tbaa !32
  %7 = getelementptr inbounds %"class.dealii::SparsityPattern", ptr %4, i64 0, i32 2
  %8 = load i32, ptr %7, align 4, !tbaa !33
  %9 = zext i32 %8 to i64
  %10 = getelementptr inbounds i64, ptr %6, i64 %9
  %11 = load i64, ptr %10, align 8, !tbaa !34
  %12 = load i64, ptr %6, align 8, !tbaa !34
  %13 = sub i64 %11, %12
  %14 = and i64 %13, 4294967295
  %15 = icmp eq i64 %14, 0
  br i1 %15, label %73, label %16

16:                                               ; preds = %2
  %17 = getelementptr inbounds %"class.dealii::SparseMatrix", ptr %0, i64 0, i32 2
  %18 = load ptr, ptr %17, align 8, !tbaa !13
  %19 = and i64 %13, 4294967295
  %20 = icmp ult i64 %19, 16
  br i1 %20, label %70, label %21

21:                                               ; preds = %16
  %22 = and i64 %13, 15
  %23 = sub nsw i64 %19, %22
  %24 = insertelement <4 x double> poison, double %1, i64 0
  %25 = shufflevector <4 x double> %24, <4 x double> poison, <4 x i32> zeroinitializer
  %26 = insertelement <4 x double> poison, double %1, i64 0
  %27 = shufflevector <4 x double> %26, <4 x double> poison, <4 x i32> zeroinitializer
  %28 = insertelement <4 x double> poison, double %1, i64 0
  %29 = shufflevector <4 x double> %28, <4 x double> poison, <4 x i32> zeroinitializer
  %30 = insertelement <4 x double> poison, double %1, i64 0
  %31 = shufflevector <4 x double> %30, <4 x double> poison, <4 x i32> zeroinitializer
  br label %32

32:                                               ; preds = %32, %21
  %33 = phi i64 [ 0, %21 ], [ %62, %32 ]
  %34 = phi <4 x i32> [ zeroinitializer, %21 ], [ %58, %32 ]
  %35 = phi <4 x i32> [ zeroinitializer, %21 ], [ %59, %32 ]
  %36 = phi <4 x i32> [ zeroinitializer, %21 ], [ %60, %32 ]
  %37 = phi <4 x i32> [ zeroinitializer, %21 ], [ %61, %32 ]
  %38 = getelementptr inbounds double, ptr %18, i64 %33
  %39 = load <4 x double>, ptr %38, align 8, !tbaa !30
  %40 = getelementptr inbounds double, ptr %38, i64 4
  %41 = load <4 x double>, ptr %40, align 8, !tbaa !30
  %42 = getelementptr inbounds double, ptr %38, i64 8
  %43 = load <4 x double>, ptr %42, align 8, !tbaa !30
  %44 = getelementptr inbounds double, ptr %38, i64 12
  %45 = load <4 x double>, ptr %44, align 8, !tbaa !30
  %46 = tail call <4 x double> @llvm.fabs.v4f64(<4 x double> %39)
  %47 = tail call <4 x double> @llvm.fabs.v4f64(<4 x double> %41)
  %48 = tail call <4 x double> @llvm.fabs.v4f64(<4 x double> %43)
  %49 = tail call <4 x double> @llvm.fabs.v4f64(<4 x double> %45)
  %50 = fcmp ogt <4 x double> %46, %25
  %51 = fcmp ogt <4 x double> %47, %27
  %52 = fcmp ogt <4 x double> %48, %29
  %53 = fcmp ogt <4 x double> %49, %31
  %54 = zext <4 x i1> %50 to <4 x i32>
  %55 = zext <4 x i1> %51 to <4 x i32>
  %56 = zext <4 x i1> %52 to <4 x i32>
  %57 = zext <4 x i1> %53 to <4 x i32>
  %58 = add <4 x i32> %34, %54
  %59 = add <4 x i32> %35, %55
  %60 = add <4 x i32> %36, %56
  %61 = add <4 x i32> %37, %57
  %62 = add nuw i64 %33, 16
  %63 = icmp eq i64 %62, %23
  br i1 %63, label %64, label %32, !llvm.loop !35

64:                                               ; preds = %32
  %65 = add <4 x i32> %59, %58
  %66 = add <4 x i32> %60, %65
  %67 = add <4 x i32> %61, %66
  %68 = tail call i32 @llvm.vector.reduce.add.v4i32(<4 x i32> %67)
  %69 = icmp eq i64 %22, 0
  br i1 %69, label %73, label %70

70:                                               ; preds = %16, %64
  %71 = phi i64 [ 0, %16 ], [ %23, %64 ]
  %72 = phi i32 [ 0, %16 ], [ %68, %64 ]
  br label %75

73:                                               ; preds = %75, %64, %2
  %74 = phi i32 [ 0, %2 ], [ %68, %64 ], [ %83, %75 ]
  ret i32 %74

75:                                               ; preds = %70, %75
  %76 = phi i64 [ %84, %75 ], [ %71, %70 ]
  %77 = phi i32 [ %83, %75 ], [ %72, %70 ]
  %78 = getelementptr inbounds double, ptr %18, i64 %76
  %79 = load double, ptr %78, align 8, !tbaa !30
  %80 = tail call double @llvm.fabs.f64(double %79)
  %81 = fcmp ogt double %80, %1
  %82 = zext i1 %81 to i32
  %83 = add i32 %77, %82
  %84 = add nuw nsw i64 %76, 1
  %85 = icmp eq i64 %84, %19
  br i1 %85, label %73, label %75, !llvm.loop !38
}

; Function Attrs: mustprogress nocallback nofree nosync nounwind speculatable willreturn memory(none)
declare double @llvm.fabs.f64(double) #8

; Function Attrs: sspstrong uwtable
define weak_odr dso_local noundef nonnull align 8 dereferenceable(122) ptr @_ZNK6dealii12SparseMatrixIdE20get_sparsity_patternEv(ptr noundef nonnull align 8 dereferenceable(36) %0) local_unnamed_addr #0 comdat align 2 {
  %2 = getelementptr inbounds %"class.dealii::SparseMatrix", ptr %0, i64 0, i32 1
  %3 = load ptr, ptr %2, align 8, !tbaa !8
  ret ptr %3
}

; Function Attrs: nounwind sspstrong uwtable
define weak_odr dso_local noundef i32 @_ZNK6dealii12SparseMatrixIdE18memory_consumptionEv(ptr noundef nonnull align 8 dereferenceable(36) %0) local_unnamed_addr #6 comdat align 2 {
  %2 = getelementptr inbounds %"class.dealii::SparseMatrix", ptr %0, i64 0, i32 3
  %3 = load i32, ptr %2, align 8, !tbaa !16
  %4 = shl i32 %3, 3
  %5 = add i32 %4, 112
  ret i32 %5
}

declare noundef i32 @_ZNK6dealii15SparsityPatternclEjj(ptr noundef nonnull align 8 dereferenceable(122), i32 noundef, i32 noundef) local_unnamed_addr #1

; Function Attrs: inlinehint sspstrong uwtable
define weak_odr dso_local void @_ZN6dealii12SparseMatrixIdE3addEjjd(ptr noundef nonnull align 8 dereferenceable(36) %0, i32 noundef %1, i32 noundef %2, double noundef %3) local_unnamed_addr #4 comdat align 2 {
  %5 = fcmp oeq double %3, 0.000000e+00
  br i1 %5, label %18, label %6

6:                                                ; preds = %4
  %7 = getelementptr inbounds %"class.dealii::SparseMatrix", ptr %0, i64 0, i32 1
  %8 = load ptr, ptr %7, align 8, !tbaa !8
  %9 = tail call noundef i32 @_ZNK6dealii15SparsityPatternclEjj(ptr noundef nonnull align 8 dereferenceable(122) %8, i32 noundef %1, i32 noundef %2)
  %10 = icmp eq i32 %9, -1
  br i1 %10, label %18, label %11

11:                                               ; preds = %6
  %12 = getelementptr inbounds %"class.dealii::SparseMatrix", ptr %0, i64 0, i32 2
  %13 = load ptr, ptr %12, align 8, !tbaa !13
  %14 = zext i32 %9 to i64
  %15 = getelementptr inbounds double, ptr %13, i64 %14
  %16 = load double, ptr %15, align 8, !tbaa !30
  %17 = fadd double %16, %3
  store double %17, ptr %15, align 8, !tbaa !30
  br label %18

18:                                               ; preds = %11, %6, %4
  ret void
}

; Function Attrs: inlinehint sspstrong uwtable
define weak_odr dso_local noundef nonnull align 8 dereferenceable(36) ptr @_ZN6dealii12SparseMatrixIdEmLEd(ptr noundef nonnull align 8 dereferenceable(36) %0, double noundef %1) local_unnamed_addr #4 comdat align 2 {
  %3 = getelementptr inbounds %"class.dealii::SparseMatrix", ptr %0, i64 0, i32 2
  %4 = load ptr, ptr %3, align 8, !tbaa !13
  %5 = getelementptr inbounds %"class.dealii::SparseMatrix", ptr %0, i64 0, i32 1
  %6 = load ptr, ptr %5, align 8, !tbaa !8
  %7 = getelementptr inbounds %"class.dealii::SparsityPattern", ptr %6, i64 0, i32 8
  %8 = load ptr, ptr %7, align 8, !tbaa !32
  %9 = getelementptr inbounds %"class.dealii::SparsityPattern", ptr %6, i64 0, i32 2
  %10 = load i32, ptr %9, align 4, !tbaa !33
  %11 = zext i32 %10 to i64
  %12 = getelementptr inbounds i64, ptr %8, i64 %11
  %13 = load i64, ptr %12, align 8, !tbaa !34
  %14 = load i64, ptr %8, align 8, !tbaa !34
  %15 = sub i64 %13, %14
  %16 = and i64 %15, 4294967295
  %17 = getelementptr inbounds double, ptr %4, i64 %16
  %18 = icmp eq i64 %16, 0
  br i1 %18, label %63, label %19

19:                                               ; preds = %2
  %20 = add nuw nsw i64 %16, 2305843009213693951
  %21 = and i64 %20, 2305843009213693951
  %22 = add nuw nsw i64 %21, 1
  %23 = icmp ult i64 %21, 15
  br i1 %23, label %55, label %24

24:                                               ; preds = %19
  %25 = and i64 %22, 4611686018427387888
  %26 = shl i64 %25, 3
  %27 = getelementptr i8, ptr %4, i64 %26
  %28 = insertelement <4 x double> poison, double %1, i64 0
  %29 = shufflevector <4 x double> %28, <4 x double> poison, <4 x i32> zeroinitializer
  %30 = insertelement <4 x double> poison, double %1, i64 0
  %31 = shufflevector <4 x double> %30, <4 x double> poison, <4 x i32> zeroinitializer
  %32 = insertelement <4 x double> poison, double %1, i64 0
  %33 = shufflevector <4 x double> %32, <4 x double> poison, <4 x i32> zeroinitializer
  %34 = insertelement <4 x double> poison, double %1, i64 0
  %35 = shufflevector <4 x double> %34, <4 x double> poison, <4 x i32> zeroinitializer
  br label %36

36:                                               ; preds = %36, %24
  %37 = phi i64 [ 0, %24 ], [ %51, %36 ]
  %38 = shl i64 %37, 3
  %39 = getelementptr i8, ptr %4, i64 %38
  %40 = load <4 x double>, ptr %39, align 8, !tbaa !30
  %41 = getelementptr double, ptr %39, i64 4
  %42 = load <4 x double>, ptr %41, align 8, !tbaa !30
  %43 = getelementptr double, ptr %39, i64 8
  %44 = load <4 x double>, ptr %43, align 8, !tbaa !30
  %45 = getelementptr double, ptr %39, i64 12
  %46 = load <4 x double>, ptr %45, align 8, !tbaa !30
  %47 = fmul <4 x double> %40, %29
  %48 = fmul <4 x double> %42, %31
  %49 = fmul <4 x double> %44, %33
  %50 = fmul <4 x double> %46, %35
  store <4 x double> %47, ptr %39, align 8, !tbaa !30
  store <4 x double> %48, ptr %41, align 8, !tbaa !30
  store <4 x double> %49, ptr %43, align 8, !tbaa !30
  store <4 x double> %50, ptr %45, align 8, !tbaa !30
  %51 = add nuw i64 %37, 16
  %52 = icmp eq i64 %51, %25
  br i1 %52, label %53, label %36, !llvm.loop !39

53:                                               ; preds = %36
  %54 = icmp eq i64 %22, %25
  br i1 %54, label %63, label %55

55:                                               ; preds = %19, %53
  %56 = phi ptr [ %4, %19 ], [ %27, %53 ]
  br label %57

57:                                               ; preds = %55, %57
  %58 = phi ptr [ %59, %57 ], [ %56, %55 ]
  %59 = getelementptr inbounds double, ptr %58, i64 1
  %60 = load double, ptr %58, align 8, !tbaa !30
  %61 = fmul double %60, %1
  store double %61, ptr %58, align 8, !tbaa !30
  %62 = icmp eq ptr %59, %17
  br i1 %62, label %63, label %57, !llvm.loop !40

63:                                               ; preds = %57, %53, %2
  ret ptr %0
}

; Function Attrs: inlinehint sspstrong uwtable
define weak_odr dso_local noundef nonnull align 8 dereferenceable(36) ptr @_ZN6dealii12SparseMatrixIdEdVEd(ptr noundef nonnull align 8 dereferenceable(36) %0, double noundef %1) local_unnamed_addr #4 comdat align 2 {
  %3 = fdiv double 1.000000e+00, %1
  %4 = getelementptr inbounds %"class.dealii::SparseMatrix", ptr %0, i64 0, i32 2
  %5 = load ptr, ptr %4, align 8, !tbaa !13
  %6 = getelementptr inbounds %"class.dealii::SparseMatrix", ptr %0, i64 0, i32 1
  %7 = load ptr, ptr %6, align 8, !tbaa !8
  %8 = getelementptr inbounds %"class.dealii::SparsityPattern", ptr %7, i64 0, i32 8
  %9 = load ptr, ptr %8, align 8, !tbaa !32
  %10 = getelementptr inbounds %"class.dealii::SparsityPattern", ptr %7, i64 0, i32 2
  %11 = load i32, ptr %10, align 4, !tbaa !33
  %12 = zext i32 %11 to i64
  %13 = getelementptr inbounds i64, ptr %9, i64 %12
  %14 = load i64, ptr %13, align 8, !tbaa !34
  %15 = load i64, ptr %9, align 8, !tbaa !34
  %16 = sub i64 %14, %15
  %17 = and i64 %16, 4294967295
  %18 = getelementptr inbounds double, ptr %5, i64 %17
  %19 = icmp eq i64 %17, 0
  br i1 %19, label %64, label %20

20:                                               ; preds = %2
  %21 = add nuw nsw i64 %17, 2305843009213693951
  %22 = and i64 %21, 2305843009213693951
  %23 = add nuw nsw i64 %22, 1
  %24 = icmp ult i64 %22, 15
  br i1 %24, label %56, label %25

25:                                               ; preds = %20
  %26 = and i64 %23, 4611686018427387888
  %27 = shl i64 %26, 3
  %28 = getelementptr i8, ptr %5, i64 %27
  %29 = insertelement <4 x double> poison, double %3, i64 0
  %30 = shufflevector <4 x double> %29, <4 x double> poison, <4 x i32> zeroinitializer
  %31 = insertelement <4 x double> poison, double %3, i64 0
  %32 = shufflevector <4 x double> %31, <4 x double> poison, <4 x i32> zeroinitializer
  %33 = insertelement <4 x double> poison, double %3, i64 0
  %34 = shufflevector <4 x double> %33, <4 x double> poison, <4 x i32> zeroinitializer
  %35 = insertelement <4 x double> poison, double %3, i64 0
  %36 = shufflevector <4 x double> %35, <4 x double> poison, <4 x i32> zeroinitializer
  br label %37

37:                                               ; preds = %37, %25
  %38 = phi i64 [ 0, %25 ], [ %52, %37 ]
  %39 = shl i64 %38, 3
  %40 = getelementptr i8, ptr %5, i64 %39
  %41 = load <4 x double>, ptr %40, align 8, !tbaa !30
  %42 = getelementptr double, ptr %40, i64 4
  %43 = load <4 x double>, ptr %42, align 8, !tbaa !30
  %44 = getelementptr double, ptr %40, i64 8
  %45 = load <4 x double>, ptr %44, align 8, !tbaa !30
  %46 = getelementptr double, ptr %40, i64 12
  %47 = load <4 x double>, ptr %46, align 8, !tbaa !30
  %48 = fmul <4 x double> %30, %41
  %49 = fmul <4 x double> %32, %43
  %50 = fmul <4 x double> %34, %45
  %51 = fmul <4 x double> %36, %47
  store <4 x double> %48, ptr %40, align 8, !tbaa !30
  store <4 x double> %49, ptr %42, align 8, !tbaa !30
  store <4 x double> %50, ptr %44, align 8, !tbaa !30
  store <4 x double> %51, ptr %46, align 8, !tbaa !30
  %52 = add nuw i64 %38, 16
  %53 = icmp eq i64 %52, %26
  br i1 %53, label %54, label %37, !llvm.loop !41

54:                                               ; preds = %37
  %55 = icmp eq i64 %23, %26
  br i1 %55, label %64, label %56

56:                                               ; preds = %20, %54
  %57 = phi ptr [ %5, %20 ], [ %28, %54 ]
  br label %58

58:                                               ; preds = %56, %58
  %59 = phi ptr [ %60, %58 ], [ %57, %56 ]
  %60 = getelementptr inbounds double, ptr %59, i64 1
  %61 = load double, ptr %59, align 8, !tbaa !30
  %62 = fmul double %3, %61
  store double %62, ptr %59, align 8, !tbaa !30
  %63 = icmp eq ptr %60, %18
  br i1 %63, label %64, label %58, !llvm.loop !42

64:                                               ; preds = %58, %54, %2
  ret ptr %0
}

; Function Attrs: sspstrong uwtable
define weak_odr dso_local void @_ZN6dealii12SparseMatrixIdE10symmetrizeEv(ptr noundef nonnull align 8 dereferenceable(36) %0) local_unnamed_addr #0 comdat align 2 {
  %2 = getelementptr inbounds %"class.dealii::SparseMatrix", ptr %0, i64 0, i32 1
  %3 = load ptr, ptr %2, align 8, !tbaa !8
  %4 = getelementptr inbounds %"class.dealii::SparsityPattern", ptr %3, i64 0, i32 2
  %5 = load i32, ptr %4, align 4, !tbaa !33
  %6 = icmp eq i32 %5, 0
  br i1 %6, label %10, label %7

7:                                                ; preds = %1
  %8 = getelementptr inbounds %"class.dealii::SparseMatrix", ptr %0, i64 0, i32 2
  %9 = zext i32 %5 to i64
  br label %11

10:                                               ; preds = %63, %1
  ret void

11:                                               ; preds = %7, %63
  %12 = phi i64 [ 0, %7 ], [ %24, %63 ]
  %13 = load ptr, ptr %8, align 8, !tbaa !13
  %14 = load ptr, ptr %2, align 8, !tbaa !8
  %15 = getelementptr inbounds %"class.dealii::SparsityPattern", ptr %14, i64 0, i32 8
  %16 = load ptr, ptr %15, align 8, !tbaa !32
  %17 = getelementptr inbounds i64, ptr %16, i64 %12
  %18 = load i64, ptr %17, align 8, !tbaa !34
  %19 = getelementptr inbounds double, ptr %13, i64 %18
  %20 = getelementptr inbounds %"class.dealii::SparsityPattern", ptr %14, i64 0, i32 11
  %21 = load i8, ptr %20, align 1, !tbaa !43, !range !44, !noundef !45
  %22 = zext i8 %21 to i64
  %23 = getelementptr inbounds double, ptr %19, i64 %22
  %24 = add nuw nsw i64 %12, 1
  %25 = getelementptr inbounds i64, ptr %16, i64 %24
  %26 = load i64, ptr %25, align 8, !tbaa !34
  %27 = getelementptr inbounds double, ptr %13, i64 %26
  %28 = icmp eq ptr %23, %27
  br i1 %28, label %63, label %29

29:                                               ; preds = %11
  %30 = getelementptr inbounds %"class.dealii::SparsityPattern", ptr %14, i64 0, i32 9
  %31 = load ptr, ptr %30, align 8, !tbaa !46
  %32 = add i64 %18, 1
  %33 = getelementptr inbounds i32, ptr %31, i64 %32
  %34 = trunc i64 %12 to i32
  br label %35

35:                                               ; preds = %29, %59
  %36 = phi ptr [ %60, %59 ], [ %23, %29 ]
  %37 = phi ptr [ %61, %59 ], [ %33, %29 ]
  %38 = load i32, ptr %37, align 4, !tbaa !47
  %39 = zext i32 %38 to i64
  %40 = icmp ugt i64 %12, %39
  br i1 %40, label %41, label %63

41:                                               ; preds = %35
  %42 = load double, ptr %36, align 8, !tbaa !30
  %43 = load ptr, ptr %8, align 8, !tbaa !13
  %44 = load ptr, ptr %2, align 8, !tbaa !8
  %45 = tail call noundef i32 @_ZNK6dealii15SparsityPatternclEjj(ptr noundef nonnull align 8 dereferenceable(122) %44, i32 noundef %38, i32 noundef %34)
  %46 = zext i32 %45 to i64
  %47 = getelementptr inbounds double, ptr %43, i64 %46
  %48 = load double, ptr %47, align 8, !tbaa !30
  %49 = fadd double %42, %48
  %50 = fmul double %49, 5.000000e-01
  store double %50, ptr %36, align 8, !tbaa !30
  %51 = load i32, ptr %37, align 4, !tbaa !47
  %52 = load ptr, ptr %2, align 8, !tbaa !8
  %53 = tail call noundef i32 @_ZNK6dealii15SparsityPatternclEjj(ptr noundef nonnull align 8 dereferenceable(122) %52, i32 noundef %51, i32 noundef %34)
  %54 = icmp eq i32 %53, -1
  br i1 %54, label %59, label %55

55:                                               ; preds = %41
  %56 = load ptr, ptr %8, align 8, !tbaa !13
  %57 = zext i32 %53 to i64
  %58 = getelementptr inbounds double, ptr %56, i64 %57
  store double %50, ptr %58, align 8, !tbaa !30
  br label %59

59:                                               ; preds = %41, %55
  %60 = getelementptr inbounds double, ptr %36, i64 1
  %61 = getelementptr inbounds i32, ptr %37, i64 1
  %62 = icmp eq ptr %60, %27
  br i1 %62, label %63, label %35

63:                                               ; preds = %35, %59, %11
  %64 = icmp eq i64 %24, %9
  br i1 %64, label %10, label %11
}

; Function Attrs: inlinehint sspstrong uwtable
define weak_odr dso_local noundef double @_ZNK6dealii12SparseMatrixIdEclEjj(ptr noundef nonnull align 8 dereferenceable(36) %0, i32 noundef %1, i32 noundef %2) local_unnamed_addr #4 comdat align 2 personality ptr @__gxx_personality_v0 {
  %4 = alloca %"class.dealii::SparseMatrix<double>::ExcInvalidIndex", align 8
  %5 = getelementptr inbounds %"class.dealii::SparseMatrix", ptr %0, i64 0, i32 1
  %6 = load ptr, ptr %5, align 8, !tbaa !8
  %7 = tail call noundef i32 @_ZNK6dealii15SparsityPatternclEjj(ptr noundef nonnull align 8 dereferenceable(122) %6, i32 noundef %1, i32 noundef %2)
  %8 = icmp eq i32 %7, -1
  br i1 %8, label %9, label %24

9:                                                ; preds = %3
  call void @_ZN6dealii13ExceptionBaseC2Ev(ptr noundef nonnull align 8 dereferenceable(60) %4)
  store ptr getelementptr inbounds ({ [6 x ptr] }, ptr @_ZTVN6dealii12SparseMatrixIdE15ExcInvalidIndexE, i64 0, inrange i32 0, i64 2), ptr %4, align 8, !tbaa !5
  %10 = getelementptr inbounds %"class.dealii::SparseMatrix<double>::ExcInvalidIndex", ptr %4, i64 0, i32 1
  store i32 %1, ptr %10, align 4, !tbaa !48
  %11 = getelementptr inbounds %"class.dealii::SparseMatrix<double>::ExcInvalidIndex", ptr %4, i64 0, i32 2
  store i32 %2, ptr %11, align 8, !tbaa !52
  invoke void @_ZN6dealii13ExceptionBase10set_fieldsEPKciS2_S2_S2_(ptr noundef nonnull align 8 dereferenceable(60) %4, ptr noundef nonnull @.str.9, i32 noundef 2270, ptr noundef nonnull @.str.10, ptr noundef nonnull @.str.11, ptr noundef nonnull @.str.12)
          to label %12 unwind label %20

12:                                               ; preds = %9
  %13 = call ptr @__cxa_allocate_exception(i64 72) #17
  invoke void @_ZN6dealii13ExceptionBaseC2ERKS0_(ptr noundef nonnull align 8 dereferenceable(60) %13, ptr noundef nonnull align 8 dereferenceable(60) %4)
          to label %14 unwind label %18

14:                                               ; preds = %12
  store ptr getelementptr inbounds ({ [6 x ptr] }, ptr @_ZTVN6dealii12SparseMatrixIdE15ExcInvalidIndexE, i64 0, inrange i32 0, i64 2), ptr %13, align 8, !tbaa !5
  %15 = getelementptr inbounds %"class.dealii::SparseMatrix<double>::ExcInvalidIndex", ptr %13, i64 0, i32 1
  %16 = load i64, ptr %10, align 4
  store i64 %16, ptr %15, align 4
  invoke void @__cxa_throw(ptr nonnull %13, ptr nonnull @_ZTIN6dealii12SparseMatrixIdE15ExcInvalidIndexE, ptr nonnull @_ZN6dealii12SparseMatrixIdE15ExcInvalidIndexD2Ev) #21
          to label %17 unwind label %20

17:                                               ; preds = %14
  unreachable

18:                                               ; preds = %12
  %19 = landingpad { ptr, i32 }
          cleanup
  call void @__cxa_free_exception(ptr %13) #17
  br label %22

20:                                               ; preds = %14, %9
  %21 = landingpad { ptr, i32 }
          cleanup
  br label %22

22:                                               ; preds = %18, %20
  %23 = phi { ptr, i32 } [ %21, %20 ], [ %19, %18 ]
  call void @_ZN6dealii13ExceptionBaseD2Ev(ptr noundef nonnull align 8 dereferenceable(60) %4) #17
  resume { ptr, i32 } %23

24:                                               ; preds = %3
  %25 = getelementptr inbounds %"class.dealii::SparseMatrix", ptr %0, i64 0, i32 2
  %26 = load ptr, ptr %25, align 8, !tbaa !13
  %27 = load ptr, ptr %5, align 8, !tbaa !8
  %28 = tail call noundef i32 @_ZNK6dealii15SparsityPatternclEjj(ptr noundef nonnull align 8 dereferenceable(122) %27, i32 noundef %1, i32 noundef %2)
  %29 = zext i32 %28 to i64
  %30 = getelementptr inbounds double, ptr %26, i64 %29
  %31 = load double, ptr %30, align 8, !tbaa !30
  ret double %31
}

; Function Attrs: inlinehint sspstrong uwtable
define weak_odr dso_local noundef double @_ZNK6dealii12SparseMatrixIdE2elEjj(ptr noundef nonnull align 8 dereferenceable(36) %0, i32 noundef %1, i32 noundef %2) local_unnamed_addr #4 comdat align 2 {
  %4 = getelementptr inbounds %"class.dealii::SparseMatrix", ptr %0, i64 0, i32 1
  %5 = load ptr, ptr %4, align 8, !tbaa !8
  %6 = tail call noundef i32 @_ZNK6dealii15SparsityPatternclEjj(ptr noundef nonnull align 8 dereferenceable(122) %5, i32 noundef %1, i32 noundef %2)
  %7 = icmp eq i32 %6, -1
  br i1 %7, label %14, label %8

8:                                                ; preds = %3
  %9 = getelementptr inbounds %"class.dealii::SparseMatrix", ptr %0, i64 0, i32 2
  %10 = load ptr, ptr %9, align 8, !tbaa !13
  %11 = zext i32 %6 to i64
  %12 = getelementptr inbounds double, ptr %10, i64 %11
  %13 = load double, ptr %12, align 8, !tbaa !30
  br label %14

14:                                               ; preds = %3, %8
  %15 = phi double [ %13, %8 ], [ 0.000000e+00, %3 ]
  ret double %15
}

; Function Attrs: inlinehint sspstrong uwtable
define weak_odr dso_local noundef double @_ZNK6dealii12SparseMatrixIdE12diag_elementEj(ptr noundef nonnull align 8 dereferenceable(36) %0, i32 noundef %1) local_unnamed_addr #4 comdat align 2 {
  %3 = getelementptr inbounds %"class.dealii::SparseMatrix", ptr %0, i64 0, i32 2
  %4 = load ptr, ptr %3, align 8, !tbaa !13
  %5 = getelementptr inbounds %"class.dealii::SparseMatrix", ptr %0, i64 0, i32 1
  %6 = load ptr, ptr %5, align 8, !tbaa !8
  %7 = getelementptr inbounds %"class.dealii::SparsityPattern", ptr %6, i64 0, i32 8
  %8 = load ptr, ptr %7, align 8, !tbaa !32
  %9 = zext i32 %1 to i64
  %10 = getelementptr inbounds i64, ptr %8, i64 %9
  %11 = load i64, ptr %10, align 8, !tbaa !34
  %12 = getelementptr inbounds double, ptr %4, i64 %11
  %13 = load double, ptr %12, align 8, !tbaa !30
  ret double %13
}

; Function Attrs: inlinehint sspstrong uwtable
define weak_odr dso_local noundef nonnull align 8 dereferenceable(8) ptr @_ZN6dealii12SparseMatrixIdE12diag_elementEj(ptr noundef nonnull align 8 dereferenceable(36) %0, i32 noundef %1) local_unnamed_addr #4 comdat align 2 {
  %3 = getelementptr inbounds %"class.dealii::SparseMatrix", ptr %0, i64 0, i32 2
  %4 = load ptr, ptr %3, align 8, !tbaa !13
  %5 = getelementptr inbounds %"class.dealii::SparseMatrix", ptr %0, i64 0, i32 1
  %6 = load ptr, ptr %5, align 8, !tbaa !8
  %7 = getelementptr inbounds %"class.dealii::SparsityPattern", ptr %6, i64 0, i32 8
  %8 = load ptr, ptr %7, align 8, !tbaa !32
  %9 = zext i32 %1 to i64
  %10 = getelementptr inbounds i64, ptr %8, i64 %9
  %11 = load i64, ptr %10, align 8, !tbaa !34
  %12 = getelementptr inbounds double, ptr %4, i64 %11
  ret ptr %12
}

; Function Attrs: inlinehint sspstrong uwtable
define weak_odr dso_local noundef double @_ZNK6dealii12SparseMatrixIdE9raw_entryEjj(ptr noundef nonnull align 8 dereferenceable(36) %0, i32 noundef %1, i32 noundef %2) local_unnamed_addr #4 comdat align 2 {
  %4 = getelementptr inbounds %"class.dealii::SparseMatrix", ptr %0, i64 0, i32 2
  %5 = load ptr, ptr %4, align 8, !tbaa !13
  %6 = getelementptr inbounds %"class.dealii::SparseMatrix", ptr %0, i64 0, i32 1
  %7 = load ptr, ptr %6, align 8, !tbaa !8
  %8 = getelementptr inbounds %"class.dealii::SparsityPattern", ptr %7, i64 0, i32 8
  %9 = load ptr, ptr %8, align 8, !tbaa !32
  %10 = zext i32 %1 to i64
  %11 = getelementptr inbounds i64, ptr %9, i64 %10
  %12 = load i64, ptr %11, align 8, !tbaa !34
  %13 = zext i32 %2 to i64
  %14 = add i64 %12, %13
  %15 = getelementptr inbounds double, ptr %5, i64 %14
  %16 = load double, ptr %15, align 8, !tbaa !30
  ret double %16
}

; Function Attrs: inlinehint nounwind sspstrong uwtable
define weak_odr dso_local noundef double @_ZNK6dealii12SparseMatrixIdE12global_entryEj(ptr noundef nonnull align 8 dereferenceable(36) %0, i32 noundef %1) local_unnamed_addr #9 comdat align 2 {
  %3 = getelementptr inbounds %"class.dealii::SparseMatrix", ptr %0, i64 0, i32 2
  %4 = load ptr, ptr %3, align 8, !tbaa !13
  %5 = zext i32 %1 to i64
  %6 = getelementptr inbounds double, ptr %4, i64 %5
  %7 = load double, ptr %6, align 8, !tbaa !30
  ret double %7
}

; Function Attrs: inlinehint nounwind sspstrong uwtable
define weak_odr dso_local noundef nonnull align 8 dereferenceable(8) ptr @_ZN6dealii12SparseMatrixIdE12global_entryEj(ptr noundef nonnull align 8 dereferenceable(36) %0, i32 noundef %1) local_unnamed_addr #9 comdat align 2 {
  %3 = getelementptr inbounds %"class.dealii::SparseMatrix", ptr %0, i64 0, i32 2
  %4 = load ptr, ptr %3, align 8, !tbaa !13
  %5 = zext i32 %1 to i64
  %6 = getelementptr inbounds double, ptr %4, i64 %5
  ret ptr %6
}

; Function Attrs: sspstrong uwtable
define weak_odr dso_local noundef double @_ZNK6dealii12SparseMatrixIdE7l1_normEv(ptr noundef nonnull align 8 dereferenceable(36) %0) local_unnamed_addr #0 comdat align 2 personality ptr @__gxx_personality_v0 {
  %2 = alloca %"class.dealii::Vector", align 8
  call void @llvm.lifetime.start.p0(i64 88, ptr nonnull %2) #17
  %3 = getelementptr inbounds %"class.dealii::SparseMatrix", ptr %0, i64 0, i32 1
  %4 = load ptr, ptr %3, align 8, !tbaa !8
  %5 = getelementptr inbounds %"class.dealii::SparsityPattern", ptr %4, i64 0, i32 3
  %6 = load i32, ptr %5, align 8, !tbaa !17
  call void @_ZN6dealii11SubscriptorC2Ev(ptr noundef nonnull align 8 dereferenceable(72) %2)
  store ptr getelementptr inbounds ({ [6 x ptr] }, ptr @_ZTVN6dealii6VectorIdEE, i64 0, inrange i32 0, i64 2), ptr %2, align 8, !tbaa !5
  %7 = getelementptr inbounds %"class.dealii::Vector", ptr %2, i64 0, i32 1
  call void @llvm.memset.p0.i64(ptr noundef nonnull align 8 dereferenceable(16) %7, i8 0, i64 16, i1 false)
  %8 = icmp eq i32 %6, 0
  br i1 %8, label %23, label %9

9:                                                ; preds = %1
  %10 = zext i32 %6 to i64
  %11 = shl nuw nsw i64 %10, 3
  %12 = invoke noalias noundef nonnull ptr @_Znam(i64 noundef %11) #20
          to label %13 unwind label %16

13:                                               ; preds = %9
  %14 = getelementptr inbounds %"class.dealii::Vector", ptr %2, i64 0, i32 3
  %15 = getelementptr inbounds %"class.dealii::Vector", ptr %2, i64 0, i32 2
  store ptr %12, ptr %14, align 8, !tbaa !53
  store i32 %6, ptr %15, align 4, !tbaa !55
  store i32 %6, ptr %7, align 8, !tbaa !56
  call void @llvm.memset.p0.i64(ptr nonnull align 8 %12, i8 0, i64 %11, i1 false), !tbaa !30
  br label %23

16:                                               ; preds = %9
  %17 = landingpad { ptr, i32 }
          cleanup
  invoke void @_ZN6dealii11SubscriptorD2Ev(ptr noundef nonnull align 8 dereferenceable(72) %2)
          to label %18 unwind label %20

18:                                               ; preds = %16, %75
  %19 = phi { ptr, i32 } [ %42, %75 ], [ %17, %16 ]
  resume { ptr, i32 } %19

20:                                               ; preds = %16
  %21 = landingpad { ptr, i32 }
          catch ptr null
  %22 = extractvalue { ptr, i32 } %21, 0
  call void @__clang_call_terminate(ptr %22) #18
  unreachable

23:                                               ; preds = %1, %13
  %24 = phi ptr [ null, %1 ], [ %12, %13 ]
  %25 = load ptr, ptr %3, align 8, !tbaa !8
  %26 = getelementptr inbounds %"class.dealii::SparsityPattern", ptr %25, i64 0, i32 2
  %27 = load i32, ptr %26, align 4, !tbaa !33
  %28 = icmp eq i32 %27, 0
  br i1 %28, label %39, label %29

29:                                               ; preds = %23
  %30 = getelementptr inbounds %"class.dealii::SparsityPattern", ptr %25, i64 0, i32 8
  %31 = load ptr, ptr %30, align 8, !tbaa !32
  %32 = getelementptr inbounds %"class.dealii::SparseMatrix", ptr %0, i64 0, i32 2
  %33 = load ptr, ptr %32, align 8
  %34 = getelementptr inbounds %"class.dealii::SparsityPattern", ptr %25, i64 0, i32 9
  %35 = zext i32 %27 to i64
  %36 = load i64, ptr %31, align 8, !tbaa !34
  br label %43

37:                                               ; preds = %54, %43
  %38 = icmp eq i64 %46, %35
  br i1 %38, label %39, label %43

39:                                               ; preds = %37, %23
  %40 = invoke noundef double @_ZNK6dealii6VectorIdE11linfty_normEv(ptr noundef nonnull align 8 dereferenceable(88) %2)
          to label %69 unwind label %41

41:                                               ; preds = %39
  %42 = landingpad { ptr, i32 }
          cleanup
  invoke void @_ZN6dealii6VectorIdED2Ev(ptr noundef nonnull align 8 dereferenceable(88) %2)
          to label %75 unwind label %76

43:                                               ; preds = %29, %37
  %44 = phi i64 [ %36, %29 ], [ %48, %37 ]
  %45 = phi i64 [ 0, %29 ], [ %46, %37 ]
  %46 = add nuw nsw i64 %45, 1
  %47 = getelementptr inbounds i64, ptr %31, i64 %46
  %48 = load i64, ptr %47, align 8, !tbaa !34
  %49 = and i64 %44, 4294967295
  %50 = icmp ugt i64 %48, %49
  br i1 %50, label %51, label %37

51:                                               ; preds = %43
  %52 = trunc i64 %44 to i32
  %53 = load ptr, ptr %34, align 8, !tbaa !46
  br label %54

54:                                               ; preds = %51, %54
  %55 = phi i64 [ %49, %51 ], [ %67, %54 ]
  %56 = phi i32 [ %52, %51 ], [ %66, %54 ]
  %57 = getelementptr inbounds double, ptr %33, i64 %55
  %58 = load double, ptr %57, align 8, !tbaa !30
  %59 = call double @llvm.fabs.f64(double %58)
  %60 = getelementptr inbounds i32, ptr %53, i64 %55
  %61 = load i32, ptr %60, align 4, !tbaa !47
  %62 = zext i32 %61 to i64
  %63 = getelementptr inbounds double, ptr %24, i64 %62
  %64 = load double, ptr %63, align 8, !tbaa !30
  %65 = fadd double %59, %64
  store double %65, ptr %63, align 8, !tbaa !30
  %66 = add i32 %56, 1
  %67 = zext i32 %66 to i64
  %68 = icmp ugt i64 %48, %67
  br i1 %68, label %54, label %37

69:                                               ; preds = %39
  store ptr getelementptr inbounds ({ [6 x ptr] }, ptr @_ZTVN6dealii6VectorIdEE, i64 0, inrange i32 0, i64 2), ptr %2, align 8, !tbaa !5
  %70 = getelementptr inbounds %"class.dealii::Vector", ptr %2, i64 0, i32 3
  %71 = load ptr, ptr %70, align 8, !tbaa !53
  %72 = icmp eq ptr %71, null
  br i1 %72, label %74, label %73

73:                                               ; preds = %69
  call void @_ZdaPv(ptr noundef nonnull %71) #19
  store ptr null, ptr %70, align 8, !tbaa !53
  br label %74

74:                                               ; preds = %69, %73
  call void @_ZN6dealii11SubscriptorD2Ev(ptr noundef nonnull align 8 dereferenceable(72) %2)
  call void @llvm.lifetime.end.p0(i64 88, ptr nonnull %2) #17
  ret double %40

75:                                               ; preds = %41
  call void @llvm.lifetime.end.p0(i64 88, ptr nonnull %2) #17
  br label %18

76:                                               ; preds = %41
  %77 = landingpad { ptr, i32 }
          catch ptr null
  %78 = extractvalue { ptr, i32 } %77, 0
  call void @__clang_call_terminate(ptr %78) #18
  unreachable
}

declare noundef double @_ZNK6dealii6VectorIdE11linfty_normEv(ptr noundef nonnull align 8 dereferenceable(88)) local_unnamed_addr #1

; Function Attrs: inlinehint sspstrong uwtable
define linkonce_odr dso_local void @_ZN6dealii6VectorIdED2Ev(ptr noundef nonnull align 8 dereferenceable(88) %0) unnamed_addr #4 comdat align 2 {
  store ptr getelementptr inbounds ({ [6 x ptr] }, ptr @_ZTVN6dealii6VectorIdEE, i64 0, inrange i32 0, i64 2), ptr %0, align 8, !tbaa !5
  %2 = getelementptr inbounds %"class.dealii::Vector", ptr %0, i64 0, i32 3
  %3 = load ptr, ptr %2, align 8, !tbaa !53
  %4 = icmp eq ptr %3, null
  br i1 %4, label %6, label %5

5:                                                ; preds = %1
  tail call void @_ZdaPv(ptr noundef nonnull %3) #19
  store ptr null, ptr %2, align 8, !tbaa !53
  br label %6

6:                                                ; preds = %5, %1
  tail call void @_ZN6dealii11SubscriptorD2Ev(ptr noundef nonnull align 8 dereferenceable(72) %0)
  ret void
}

; Function Attrs: sspstrong uwtable
define weak_odr dso_local noundef double @_ZNK6dealii12SparseMatrixIdE11linfty_normEv(ptr noundef nonnull align 8 dereferenceable(36) %0) local_unnamed_addr #0 comdat align 2 {
  %2 = getelementptr inbounds %"class.dealii::SparseMatrix", ptr %0, i64 0, i32 2
  %3 = load ptr, ptr %2, align 8, !tbaa !13
  %4 = getelementptr inbounds %"class.dealii::SparseMatrix", ptr %0, i64 0, i32 1
  %5 = load ptr, ptr %4, align 8, !tbaa !8
  %6 = getelementptr inbounds %"class.dealii::SparsityPattern", ptr %5, i64 0, i32 8
  %7 = load ptr, ptr %6, align 8, !tbaa !32
  %8 = getelementptr inbounds %"class.dealii::SparsityPattern", ptr %5, i64 0, i32 2
  %9 = load i32, ptr %8, align 4, !tbaa !33
  %10 = icmp eq i32 %9, 0
  br i1 %10, label %15, label %11

11:                                               ; preds = %1
  %12 = load i64, ptr %7, align 8, !tbaa !34
  %13 = getelementptr inbounds double, ptr %3, i64 %12
  %14 = zext i32 %9 to i64
  br label %17

15:                                               ; preds = %34, %1
  %16 = phi double [ 0.000000e+00, %1 ], [ %38, %34 ]
  ret double %16

17:                                               ; preds = %11, %34
  %18 = phi i64 [ 0, %11 ], [ %21, %34 ]
  %19 = phi ptr [ %13, %11 ], [ %36, %34 ]
  %20 = phi double [ 0.000000e+00, %11 ], [ %38, %34 ]
  %21 = add nuw nsw i64 %18, 1
  %22 = getelementptr inbounds i64, ptr %7, i64 %21
  %23 = load i64, ptr %22, align 8, !tbaa !34
  %24 = getelementptr inbounds double, ptr %3, i64 %23
  %25 = icmp eq ptr %19, %24
  br i1 %25, label %34, label %26

26:                                               ; preds = %17, %26
  %27 = phi ptr [ %29, %26 ], [ %19, %17 ]
  %28 = phi double [ %32, %26 ], [ 0.000000e+00, %17 ]
  %29 = getelementptr inbounds double, ptr %27, i64 1
  %30 = load double, ptr %27, align 8, !tbaa !30
  %31 = tail call double @llvm.fabs.f64(double %30)
  %32 = fadd double %28, %31
  %33 = icmp eq ptr %29, %24
  br i1 %33, label %34, label %26

34:                                               ; preds = %26, %17
  %35 = phi double [ 0.000000e+00, %17 ], [ %32, %26 ]
  %36 = phi ptr [ %19, %17 ], [ %24, %26 ]
  %37 = fcmp ogt double %35, %20
  %38 = select i1 %37, double %35, double %20
  %39 = icmp eq i64 %21, %14
  br i1 %39, label %15, label %17
}

; Function Attrs: sspstrong uwtable
define weak_odr dso_local noundef double @_ZNK6dealii12SparseMatrixIdE14frobenius_normEv(ptr noundef nonnull align 8 dereferenceable(36) %0) local_unnamed_addr #0 comdat align 2 {
  %2 = getelementptr inbounds %"class.dealii::SparseMatrix", ptr %0, i64 0, i32 1
  %3 = load ptr, ptr %2, align 8, !tbaa !8
  %4 = getelementptr inbounds %"class.dealii::SparsityPattern", ptr %3, i64 0, i32 2
  %5 = load i32, ptr %4, align 4, !tbaa !33
  %6 = getelementptr inbounds %"class.dealii::SparseMatrix", ptr %0, i64 0, i32 2
  %7 = load ptr, ptr %6, align 8, !tbaa !13
  %8 = getelementptr inbounds %"class.dealii::SparsityPattern", ptr %3, i64 0, i32 8
  %9 = load ptr, ptr %8, align 8, !tbaa !32
  %10 = zext i32 %5 to i64
  %11 = getelementptr inbounds i64, ptr %9, i64 %10
  %12 = load i64, ptr %11, align 8, !tbaa !34
  %13 = getelementptr inbounds double, ptr %7, i64 %12
  %14 = icmp eq i64 %12, 0
  br i1 %14, label %15, label %18

15:                                               ; preds = %18, %1
  %16 = phi double [ 0.000000e+00, %1 ], [ %23, %18 ]
  %17 = tail call double @sqrt(double noundef %16) #17
  ret double %17

18:                                               ; preds = %1, %18
  %19 = phi ptr [ %24, %18 ], [ %7, %1 ]
  %20 = phi double [ %23, %18 ], [ 0.000000e+00, %1 ]
  %21 = load double, ptr %19, align 8, !tbaa !30
  %22 = fmul double %21, %21
  %23 = fadd double %20, %22
  %24 = getelementptr inbounds double, ptr %19, i64 1
  %25 = icmp eq ptr %24, %13
  br i1 %25, label %15, label %18
}

; Function Attrs: mustprogress nofree nounwind willreturn memory(write)
declare double @sqrt(double noundef) local_unnamed_addr #10

; Function Attrs: inlinehint sspstrong uwtable
define weak_odr dso_local void @_ZNK6dealii12SparseMatrixIdE5beginEv(ptr noalias sret(%"class.dealii::internals::SparseMatrixIterators::Iterator") align 8 %0, ptr noundef nonnull align 8 dereferenceable(36) %1) local_unnamed_addr #4 comdat align 2 {
  %3 = getelementptr inbounds %"class.dealii::SparseMatrix", ptr %1, i64 0, i32 1
  %4 = load ptr, ptr %3, align 8, !tbaa !8
  %5 = getelementptr inbounds %"class.dealii::SparsityPattern", ptr %4, i64 0, i32 2
  %6 = load i32, ptr %5, align 4, !tbaa !33
  %7 = getelementptr inbounds %"class.dealii::SparsityPattern", ptr %4, i64 0, i32 8
  %8 = zext i32 %6 to i64
  br label %9

9:                                                ; preds = %12, %2
  %10 = phi i64 [ %14, %12 ], [ 0, %2 ]
  %11 = icmp eq i64 %10, %8
  br i1 %11, label %24, label %12

12:                                               ; preds = %9
  %13 = load ptr, ptr %7, align 8, !tbaa !32
  %14 = add nuw nsw i64 %10, 1
  %15 = getelementptr inbounds i64, ptr %13, i64 %14
  %16 = load i64, ptr %15, align 8, !tbaa !34
  %17 = getelementptr inbounds i64, ptr %13, i64 %10
  %18 = load i64, ptr %17, align 8, !tbaa !34
  %19 = sub i64 %16, %18
  %20 = and i64 %19, 4294967295
  %21 = icmp eq i64 %20, 0
  br i1 %21, label %9, label %22

22:                                               ; preds = %12
  %23 = trunc i64 %10 to i32
  br label %24

24:                                               ; preds = %9, %22
  %25 = phi i32 [ %23, %22 ], [ %6, %9 ]
  store ptr %4, ptr %0, align 8, !tbaa !57
  %26 = getelementptr inbounds %"class.dealii::internals::SparsityPatternIterators::Accessor", ptr %0, i64 0, i32 1
  store i32 %25, ptr %26, align 8, !tbaa !59
  %27 = getelementptr inbounds %"class.dealii::internals::SparsityPatternIterators::Accessor", ptr %0, i64 0, i32 2
  store i32 0, ptr %27, align 4, !tbaa !60
  %28 = getelementptr inbounds %"class.dealii::internals::SparseMatrixIterators::Accessor", ptr %0, i64 0, i32 1
  store ptr %1, ptr %28, align 8, !tbaa !61
  ret void
}

; Function Attrs: inlinehint sspstrong uwtable
define weak_odr dso_local void @_ZNK6dealii12SparseMatrixIdE3endEv(ptr noalias sret(%"class.dealii::internals::SparseMatrixIterators::Iterator") align 8 %0, ptr noundef nonnull align 8 dereferenceable(36) %1) local_unnamed_addr #4 comdat align 2 {
  %3 = getelementptr inbounds %"class.dealii::SparseMatrix", ptr %1, i64 0, i32 1
  %4 = load ptr, ptr %3, align 8, !tbaa !8
  store ptr %4, ptr %0, align 8, !tbaa !57
  %5 = getelementptr inbounds %"class.dealii::internals::SparsityPatternIterators::Accessor", ptr %0, i64 0, i32 1
  %6 = getelementptr inbounds %"class.dealii::SparsityPattern", ptr %4, i64 0, i32 2
  %7 = load i32, ptr %6, align 4, !tbaa !33
  store i32 %7, ptr %5, align 8, !tbaa !59
  %8 = getelementptr inbounds %"class.dealii::internals::SparsityPatternIterators::Accessor", ptr %0, i64 0, i32 2
  store i32 0, ptr %8, align 4, !tbaa !60
  %9 = getelementptr inbounds %"class.dealii::internals::SparseMatrixIterators::Accessor", ptr %0, i64 0, i32 1
  store ptr %1, ptr %9, align 8, !tbaa !61
  ret void
}

; Function Attrs: inlinehint sspstrong uwtable
define weak_odr dso_local void @_ZN6dealii12SparseMatrixIdE5beginEv(ptr noalias sret(%"class.dealii::internals::SparseMatrixIterators::Iterator.16") align 8 %0, ptr noundef nonnull align 8 dereferenceable(36) %1) local_unnamed_addr #4 comdat align 2 {
  %3 = getelementptr inbounds %"class.dealii::SparseMatrix", ptr %1, i64 0, i32 1
  %4 = load ptr, ptr %3, align 8, !tbaa !8
  %5 = getelementptr inbounds %"class.dealii::SparsityPattern", ptr %4, i64 0, i32 2
  %6 = load i32, ptr %5, align 4, !tbaa !33
  %7 = getelementptr inbounds %"class.dealii::SparsityPattern", ptr %4, i64 0, i32 8
  %8 = zext i32 %6 to i64
  br label %9

9:                                                ; preds = %12, %2
  %10 = phi i64 [ %14, %12 ], [ 0, %2 ]
  %11 = icmp eq i64 %10, %8
  br i1 %11, label %24, label %12

12:                                               ; preds = %9
  %13 = load ptr, ptr %7, align 8, !tbaa !32
  %14 = add nuw nsw i64 %10, 1
  %15 = getelementptr inbounds i64, ptr %13, i64 %14
  %16 = load i64, ptr %15, align 8, !tbaa !34
  %17 = getelementptr inbounds i64, ptr %13, i64 %10
  %18 = load i64, ptr %17, align 8, !tbaa !34
  %19 = sub i64 %16, %18
  %20 = and i64 %19, 4294967295
  %21 = icmp eq i64 %20, 0
  br i1 %21, label %9, label %22

22:                                               ; preds = %12
  %23 = trunc i64 %10 to i32
  br label %24

24:                                               ; preds = %9, %22
  %25 = phi i32 [ %23, %22 ], [ %6, %9 ]
  store ptr %4, ptr %0, align 8, !tbaa !57
  %26 = getelementptr inbounds %"class.dealii::internals::SparsityPatternIterators::Accessor", ptr %0, i64 0, i32 1
  store i32 %25, ptr %26, align 8, !tbaa !59
  %27 = getelementptr inbounds %"class.dealii::internals::SparsityPatternIterators::Accessor", ptr %0, i64 0, i32 2
  store i32 0, ptr %27, align 4, !tbaa !60
  %28 = getelementptr inbounds %"class.dealii::internals::SparseMatrixIterators::Accessor.17", ptr %0, i64 0, i32 1
  store ptr %1, ptr %28, align 8, !tbaa !63
  ret void
}

; Function Attrs: inlinehint sspstrong uwtable
define weak_odr dso_local void @_ZN6dealii12SparseMatrixIdE3endEv(ptr noalias sret(%"class.dealii::internals::SparseMatrixIterators::Iterator.16") align 8 %0, ptr noundef nonnull align 8 dereferenceable(36) %1) local_unnamed_addr #4 comdat align 2 {
  %3 = getelementptr inbounds %"class.dealii::SparseMatrix", ptr %1, i64 0, i32 1
  %4 = load ptr, ptr %3, align 8, !tbaa !8
  %5 = getelementptr inbounds %"class.dealii::SparsityPattern", ptr %4, i64 0, i32 2
  %6 = load i32, ptr %5, align 4, !tbaa !33
  store ptr %4, ptr %0, align 8, !tbaa !57
  %7 = getelementptr inbounds %"class.dealii::internals::SparsityPatternIterators::Accessor", ptr %0, i64 0, i32 1
  store i32 %6, ptr %7, align 8, !tbaa !59
  %8 = getelementptr inbounds %"class.dealii::internals::SparsityPatternIterators::Accessor", ptr %0, i64 0, i32 2
  store i32 0, ptr %8, align 4, !tbaa !60
  %9 = getelementptr inbounds %"class.dealii::internals::SparseMatrixIterators::Accessor.17", ptr %0, i64 0, i32 1
  store ptr %1, ptr %9, align 8, !tbaa !63
  ret void
}

; Function Attrs: inlinehint sspstrong uwtable
define weak_odr dso_local void @_ZNK6dealii12SparseMatrixIdE5beginEj(ptr noalias sret(%"class.dealii::internals::SparseMatrixIterators::Iterator") align 8 %0, ptr noundef nonnull align 8 dereferenceable(36) %1, i32 noundef %2) local_unnamed_addr #4 comdat align 2 {
  %4 = getelementptr inbounds %"class.dealii::SparseMatrix", ptr %1, i64 0, i32 1
  %5 = load ptr, ptr %4, align 8, !tbaa !8
  %6 = getelementptr inbounds %"class.dealii::SparsityPattern", ptr %5, i64 0, i32 8
  %7 = load ptr, ptr %6, align 8, !tbaa !32
  %8 = add i32 %2, 1
  %9 = zext i32 %8 to i64
  %10 = getelementptr inbounds i64, ptr %7, i64 %9
  %11 = load i64, ptr %10, align 8, !tbaa !34
  %12 = zext i32 %2 to i64
  %13 = getelementptr inbounds i64, ptr %7, i64 %12
  %14 = load i64, ptr %13, align 8, !tbaa !34
  %15 = sub i64 %11, %14
  %16 = and i64 %15, 4294967295
  %17 = icmp eq i64 %16, 0
  br i1 %17, label %18, label %34

18:                                               ; preds = %3
  %19 = getelementptr inbounds %"class.dealii::SparsityPattern", ptr %5, i64 0, i32 2
  %20 = load i32, ptr %19, align 4, !tbaa !33, !noalias !65
  br label %21

21:                                               ; preds = %26, %18
  %22 = phi i64 [ %11, %18 ], [ %30, %26 ]
  %23 = phi i32 [ %2, %18 ], [ %24, %26 ]
  %24 = add i32 %23, 1
  %25 = icmp ult i32 %24, %20
  br i1 %25, label %26, label %34

26:                                               ; preds = %21
  %27 = add i32 %23, 2
  %28 = zext i32 %27 to i64
  %29 = getelementptr inbounds i64, ptr %7, i64 %28
  %30 = load i64, ptr %29, align 8, !tbaa !34, !noalias !65
  %31 = sub i64 %30, %22
  %32 = and i64 %31, 4294967295
  %33 = icmp eq i64 %32, 0
  br i1 %33, label %21, label %34

34:                                               ; preds = %26, %21, %3
  %35 = phi i32 [ %2, %3 ], [ %24, %26 ], [ %20, %21 ]
  store ptr %5, ptr %0, align 8, !tbaa !57
  %36 = getelementptr inbounds %"class.dealii::internals::SparsityPatternIterators::Accessor", ptr %0, i64 0, i32 1
  store i32 %35, ptr %36, align 8, !tbaa !59
  %37 = getelementptr inbounds %"class.dealii::internals::SparsityPatternIterators::Accessor", ptr %0, i64 0, i32 2
  store i32 0, ptr %37, align 4, !tbaa !60
  %38 = getelementptr inbounds %"class.dealii::internals::SparseMatrixIterators::Accessor", ptr %0, i64 0, i32 1
  store ptr %1, ptr %38, align 8, !tbaa !61
  ret void
}

; Function Attrs: inlinehint sspstrong uwtable
define weak_odr dso_local void @_ZNK6dealii12SparseMatrixIdE3endEj(ptr noalias sret(%"class.dealii::internals::SparseMatrixIterators::Iterator") align 8 %0, ptr noundef nonnull align 8 dereferenceable(36) %1, i32 noundef %2) local_unnamed_addr #4 comdat align 2 {
  %4 = getelementptr inbounds %"class.dealii::SparseMatrix", ptr %1, i64 0, i32 1
  %5 = load ptr, ptr %4, align 8, !tbaa !8
  %6 = getelementptr inbounds %"class.dealii::SparsityPattern", ptr %5, i64 0, i32 2
  %7 = load i32, ptr %6, align 4, !tbaa !33
  %8 = getelementptr inbounds %"class.dealii::SparsityPattern", ptr %5, i64 0, i32 8
  br label %9

9:                                                ; preds = %13, %3
  %10 = phi i32 [ %2, %3 ], [ %11, %13 ]
  %11 = add i32 %10, 1
  %12 = icmp ult i32 %11, %7
  br i1 %12, label %13, label %25

13:                                               ; preds = %9
  %14 = load ptr, ptr %8, align 8, !tbaa !32
  %15 = add i32 %10, 2
  %16 = zext i32 %15 to i64
  %17 = getelementptr inbounds i64, ptr %14, i64 %16
  %18 = load i64, ptr %17, align 8, !tbaa !34
  %19 = zext i32 %11 to i64
  %20 = getelementptr inbounds i64, ptr %14, i64 %19
  %21 = load i64, ptr %20, align 8, !tbaa !34
  %22 = sub i64 %18, %21
  %23 = and i64 %22, 4294967295
  %24 = icmp eq i64 %23, 0
  br i1 %24, label %9, label %25

25:                                               ; preds = %9, %13
  %26 = phi i32 [ %11, %13 ], [ %7, %9 ]
  store ptr %5, ptr %0, align 8, !tbaa !57
  %27 = getelementptr inbounds %"class.dealii::internals::SparsityPatternIterators::Accessor", ptr %0, i64 0, i32 1
  store i32 %26, ptr %27, align 8, !tbaa !59
  %28 = getelementptr inbounds %"class.dealii::internals::SparsityPatternIterators::Accessor", ptr %0, i64 0, i32 2
  store i32 0, ptr %28, align 4, !tbaa !60
  %29 = getelementptr inbounds %"class.dealii::internals::SparseMatrixIterators::Accessor", ptr %0, i64 0, i32 1
  store ptr %1, ptr %29, align 8, !tbaa !61
  ret void
}

; Function Attrs: inlinehint sspstrong uwtable
define weak_odr dso_local void @_ZN6dealii12SparseMatrixIdE5beginEj(ptr noalias sret(%"class.dealii::internals::SparseMatrixIterators::Iterator.16") align 8 %0, ptr noundef nonnull align 8 dereferenceable(36) %1, i32 noundef %2) local_unnamed_addr #4 comdat align 2 {
  %4 = getelementptr inbounds %"class.dealii::SparseMatrix", ptr %1, i64 0, i32 1
  %5 = load ptr, ptr %4, align 8, !tbaa !8
  %6 = getelementptr inbounds %"class.dealii::SparsityPattern", ptr %5, i64 0, i32 8
  %7 = load ptr, ptr %6, align 8, !tbaa !32
  %8 = add i32 %2, 1
  %9 = zext i32 %8 to i64
  %10 = getelementptr inbounds i64, ptr %7, i64 %9
  %11 = load i64, ptr %10, align 8, !tbaa !34
  %12 = zext i32 %2 to i64
  %13 = getelementptr inbounds i64, ptr %7, i64 %12
  %14 = load i64, ptr %13, align 8, !tbaa !34
  %15 = sub i64 %11, %14
  %16 = and i64 %15, 4294967295
  %17 = icmp eq i64 %16, 0
  br i1 %17, label %18, label %34

18:                                               ; preds = %3
  %19 = getelementptr inbounds %"class.dealii::SparsityPattern", ptr %5, i64 0, i32 2
  %20 = load i32, ptr %19, align 4, !tbaa !33, !noalias !68
  br label %21

21:                                               ; preds = %26, %18
  %22 = phi i64 [ %11, %18 ], [ %30, %26 ]
  %23 = phi i32 [ %2, %18 ], [ %24, %26 ]
  %24 = add i32 %23, 1
  %25 = icmp ult i32 %24, %20
  br i1 %25, label %26, label %34

26:                                               ; preds = %21
  %27 = add i32 %23, 2
  %28 = zext i32 %27 to i64
  %29 = getelementptr inbounds i64, ptr %7, i64 %28
  %30 = load i64, ptr %29, align 8, !tbaa !34, !noalias !68
  %31 = sub i64 %30, %22
  %32 = and i64 %31, 4294967295
  %33 = icmp eq i64 %32, 0
  br i1 %33, label %21, label %34

34:                                               ; preds = %26, %21, %3
  %35 = phi i32 [ %2, %3 ], [ %24, %26 ], [ %20, %21 ]
  store ptr %5, ptr %0, align 8, !tbaa !57
  %36 = getelementptr inbounds %"class.dealii::internals::SparsityPatternIterators::Accessor", ptr %0, i64 0, i32 1
  store i32 %35, ptr %36, align 8, !tbaa !59
  %37 = getelementptr inbounds %"class.dealii::internals::SparsityPatternIterators::Accessor", ptr %0, i64 0, i32 2
  store i32 0, ptr %37, align 4, !tbaa !60
  %38 = getelementptr inbounds %"class.dealii::internals::SparseMatrixIterators::Accessor.17", ptr %0, i64 0, i32 1
  store ptr %1, ptr %38, align 8, !tbaa !63
  ret void
}

; Function Attrs: inlinehint sspstrong uwtable
define weak_odr dso_local void @_ZN6dealii12SparseMatrixIdE3endEj(ptr noalias sret(%"class.dealii::internals::SparseMatrixIterators::Iterator.16") align 8 %0, ptr noundef nonnull align 8 dereferenceable(36) %1, i32 noundef %2) local_unnamed_addr #4 comdat align 2 {
  %4 = getelementptr inbounds %"class.dealii::SparseMatrix", ptr %1, i64 0, i32 1
  %5 = load ptr, ptr %4, align 8, !tbaa !8
  %6 = getelementptr inbounds %"class.dealii::SparsityPattern", ptr %5, i64 0, i32 2
  %7 = load i32, ptr %6, align 4, !tbaa !33
  %8 = getelementptr inbounds %"class.dealii::SparsityPattern", ptr %5, i64 0, i32 8
  br label %9

9:                                                ; preds = %13, %3
  %10 = phi i32 [ %2, %3 ], [ %11, %13 ]
  %11 = add i32 %10, 1
  %12 = icmp ult i32 %11, %7
  br i1 %12, label %13, label %25

13:                                               ; preds = %9
  %14 = load ptr, ptr %8, align 8, !tbaa !32
  %15 = add i32 %10, 2
  %16 = zext i32 %15 to i64
  %17 = getelementptr inbounds i64, ptr %14, i64 %16
  %18 = load i64, ptr %17, align 8, !tbaa !34
  %19 = zext i32 %11 to i64
  %20 = getelementptr inbounds i64, ptr %14, i64 %19
  %21 = load i64, ptr %20, align 8, !tbaa !34
  %22 = sub i64 %18, %21
  %23 = and i64 %22, 4294967295
  %24 = icmp eq i64 %23, 0
  br i1 %24, label %9, label %25

25:                                               ; preds = %9, %13
  %26 = phi i32 [ %11, %13 ], [ %7, %9 ]
  store ptr %5, ptr %0, align 8, !tbaa !57
  %27 = getelementptr inbounds %"class.dealii::internals::SparsityPatternIterators::Accessor", ptr %0, i64 0, i32 1
  store i32 %26, ptr %27, align 8, !tbaa !59
  %28 = getelementptr inbounds %"class.dealii::internals::SparsityPatternIterators::Accessor", ptr %0, i64 0, i32 2
  store i32 0, ptr %28, align 4, !tbaa !60
  %29 = getelementptr inbounds %"class.dealii::internals::SparseMatrixIterators::Accessor.17", ptr %0, i64 0, i32 1
  store ptr %1, ptr %29, align 8, !tbaa !63
  ret void
}

; Function Attrs: sspstrong uwtable
define weak_odr dso_local void @_ZNK6dealii12SparseMatrixIdE5printERSo(ptr noundef nonnull align 8 dereferenceable(36) %0, ptr noundef nonnull align 8 dereferenceable(8) %1) local_unnamed_addr #0 comdat align 2 personality ptr @__gxx_personality_v0 {
  %3 = alloca %"class.dealii::StandardExceptions::ExcIO", align 8
  %4 = getelementptr inbounds %"class.dealii::SparseMatrix", ptr %0, i64 0, i32 1
  %5 = load ptr, ptr %4, align 8, !tbaa !8
  %6 = getelementptr inbounds %"class.dealii::SparsityPattern", ptr %5, i64 0, i32 2
  %7 = load i32, ptr %6, align 4, !tbaa !33
  %8 = icmp eq i32 %7, 0
  br i1 %8, label %17, label %9

9:                                                ; preds = %2
  %10 = getelementptr inbounds %"class.dealii::SparseMatrix", ptr %0, i64 0, i32 2
  br label %26

11:                                               ; preds = %78, %26
  %12 = phi ptr [ %27, %26 ], [ %84, %78 ]
  %13 = getelementptr inbounds %"class.dealii::SparsityPattern", ptr %12, i64 0, i32 2
  %14 = load i32, ptr %13, align 4, !tbaa !33
  %15 = zext i32 %14 to i64
  %16 = icmp ult i64 %33, %15
  br i1 %16, label %26, label %17

17:                                               ; preds = %11, %2
  %18 = load ptr, ptr %1, align 8, !tbaa !5
  %19 = getelementptr i8, ptr %18, i64 -24
  %20 = load i64, ptr %19, align 8
  %21 = getelementptr inbounds i8, ptr %1, i64 %20
  %22 = getelementptr inbounds %"class.std::ios_base", ptr %21, i64 0, i32 5
  %23 = load i32, ptr %22, align 8, !tbaa !71
  %24 = and i32 %23, 5
  %25 = icmp eq i32 %24, 0
  br i1 %25, label %101, label %90

26:                                               ; preds = %9, %11
  %27 = phi ptr [ %5, %9 ], [ %12, %11 ]
  %28 = phi i64 [ 0, %9 ], [ %33, %11 ]
  %29 = getelementptr inbounds %"class.dealii::SparsityPattern", ptr %27, i64 0, i32 8
  %30 = load ptr, ptr %29, align 8, !tbaa !32
  %31 = getelementptr inbounds i64, ptr %30, i64 %28
  %32 = load i64, ptr %31, align 8, !tbaa !34
  %33 = add nuw nsw i64 %28, 1
  %34 = and i64 %32, 4294967295
  %35 = getelementptr inbounds i64, ptr %30, i64 %33
  %36 = load i64, ptr %35, align 8, !tbaa !34
  %37 = icmp ugt i64 %36, %34
  br i1 %37, label %38, label %11

38:                                               ; preds = %26
  %39 = trunc i64 %32 to i32
  br label %40

40:                                               ; preds = %38, %78
  %41 = phi i64 [ %83, %78 ], [ %34, %38 ]
  %42 = phi i32 [ %82, %78 ], [ %39, %38 ]
  %43 = tail call noundef nonnull align 8 dereferenceable(8) ptr @_ZSt16__ostream_insertIcSt11char_traitsIcEERSt13basic_ostreamIT_T0_ES6_PKS3_l(ptr noundef nonnull align 8 dereferenceable(8) %1, ptr noundef nonnull @.str.13, i64 noundef 1)
  %44 = tail call noundef nonnull align 8 dereferenceable(8) ptr @_ZNSo9_M_insertImEERSoT_(ptr noundef nonnull align 8 dereferenceable(8) %1, i64 noundef %28)
  %45 = tail call noundef nonnull align 8 dereferenceable(8) ptr @_ZSt16__ostream_insertIcSt11char_traitsIcEERSt13basic_ostreamIT_T0_ES6_PKS3_l(ptr noundef nonnull align 8 dereferenceable(8) %44, ptr noundef nonnull @.str.14, i64 noundef 1)
  %46 = load ptr, ptr %4, align 8, !tbaa !8
  %47 = getelementptr inbounds %"class.dealii::SparsityPattern", ptr %46, i64 0, i32 9
  %48 = load ptr, ptr %47, align 8, !tbaa !46
  %49 = getelementptr inbounds i32, ptr %48, i64 %41
  %50 = load i32, ptr %49, align 4, !tbaa !47
  %51 = zext i32 %50 to i64
  %52 = tail call noundef nonnull align 8 dereferenceable(8) ptr @_ZNSo9_M_insertImEERSoT_(ptr noundef nonnull align 8 dereferenceable(8) %44, i64 noundef %51)
  %53 = tail call noundef nonnull align 8 dereferenceable(8) ptr @_ZSt16__ostream_insertIcSt11char_traitsIcEERSt13basic_ostreamIT_T0_ES6_PKS3_l(ptr noundef nonnull align 8 dereferenceable(8) %52, ptr noundef nonnull @.str.15, i64 noundef 2)
  %54 = load ptr, ptr %10, align 8, !tbaa !13
  %55 = getelementptr inbounds double, ptr %54, i64 %41
  %56 = load double, ptr %55, align 8, !tbaa !30
  %57 = tail call noundef nonnull align 8 dereferenceable(8) ptr @_ZNSo9_M_insertIdEERSoT_(ptr noundef nonnull align 8 dereferenceable(8) %52, double noundef %56)
  %58 = load ptr, ptr %57, align 8, !tbaa !5
  %59 = getelementptr i8, ptr %58, i64 -24
  %60 = load i64, ptr %59, align 8
  %61 = getelementptr inbounds i8, ptr %57, i64 %60
  %62 = getelementptr inbounds %"class.std::basic_ios", ptr %61, i64 0, i32 5
  %63 = load ptr, ptr %62, align 8, !tbaa !77
  %64 = icmp eq ptr %63, null
  br i1 %64, label %65, label %66

65:                                               ; preds = %40
  tail call void @_ZSt16__throw_bad_castv() #21
  unreachable

66:                                               ; preds = %40
  %67 = getelementptr inbounds %"class.std::ctype", ptr %63, i64 0, i32 8
  %68 = load i8, ptr %67, align 8, !tbaa !79
  %69 = icmp eq i8 %68, 0
  br i1 %69, label %73, label %70

70:                                               ; preds = %66
  %71 = getelementptr inbounds %"class.std::ctype", ptr %63, i64 0, i32 9, i64 10
  %72 = load i8, ptr %71, align 1, !tbaa !82
  br label %78

73:                                               ; preds = %66
  tail call void @_ZNKSt5ctypeIcE13_M_widen_initEv(ptr noundef nonnull align 8 dereferenceable(570) %63)
  %74 = load ptr, ptr %63, align 8, !tbaa !5
  %75 = getelementptr inbounds ptr, ptr %74, i64 6
  %76 = load ptr, ptr %75, align 8
  %77 = tail call noundef signext i8 %76(ptr noundef nonnull align 8 dereferenceable(570) %63, i8 noundef signext 10)
  br label %78

78:                                               ; preds = %70, %73
  %79 = phi i8 [ %72, %70 ], [ %77, %73 ]
  %80 = tail call noundef nonnull align 8 dereferenceable(8) ptr @_ZNSo3putEc(ptr noundef nonnull align 8 dereferenceable(8) %57, i8 noundef signext %79)
  %81 = tail call noundef nonnull align 8 dereferenceable(8) ptr @_ZNSo5flushEv(ptr noundef nonnull align 8 dereferenceable(8) %80)
  %82 = add i32 %42, 1
  %83 = zext i32 %82 to i64
  %84 = load ptr, ptr %4, align 8, !tbaa !8
  %85 = getelementptr inbounds %"class.dealii::SparsityPattern", ptr %84, i64 0, i32 8
  %86 = load ptr, ptr %85, align 8, !tbaa !32
  %87 = getelementptr inbounds i64, ptr %86, i64 %33
  %88 = load i64, ptr %87, align 8, !tbaa !34
  %89 = icmp ugt i64 %88, %83
  br i1 %89, label %40, label %11

90:                                               ; preds = %17
  call void @llvm.memset.p0.i64(ptr noundef nonnull align 8 dereferenceable(64) %3, i8 0, i64 64, i1 false)
  call void @_ZN6dealii13ExceptionBaseC2Ev(ptr noundef nonnull align 8 dereferenceable(60) %3)
  store ptr getelementptr inbounds ({ [6 x ptr] }, ptr @_ZTVN6dealii18StandardExceptions5ExcIOE, i64 0, inrange i32 0, i64 2), ptr %3, align 8, !tbaa !5
  invoke void @_ZN6dealii13ExceptionBase10set_fieldsEPKciS2_S2_S2_(ptr noundef nonnull align 8 dereferenceable(60) %3, ptr noundef nonnull @.str.16, i32 noundef 1591, ptr noundef nonnull @.str.10, ptr noundef nonnull @.str.17, ptr noundef nonnull @.str.18)
          to label %91 unwind label %97

91:                                               ; preds = %90
  %92 = call ptr @__cxa_allocate_exception(i64 64) #17
  invoke void @_ZN6dealii13ExceptionBaseC2ERKS0_(ptr noundef nonnull align 8 dereferenceable(60) %92, ptr noundef nonnull align 8 dereferenceable(60) %3)
          to label %93 unwind label %95

93:                                               ; preds = %91
  store ptr getelementptr inbounds ({ [6 x ptr] }, ptr @_ZTVN6dealii18StandardExceptions5ExcIOE, i64 0, inrange i32 0, i64 2), ptr %92, align 8, !tbaa !5
  invoke void @__cxa_throw(ptr nonnull %92, ptr nonnull @_ZTIN6dealii18StandardExceptions5ExcIOE, ptr nonnull @_ZN6dealii13ExceptionBaseD2Ev) #21
          to label %94 unwind label %97

94:                                               ; preds = %93
  unreachable

95:                                               ; preds = %91
  %96 = landingpad { ptr, i32 }
          cleanup
  call void @__cxa_free_exception(ptr %92) #17
  br label %99

97:                                               ; preds = %93, %90
  %98 = landingpad { ptr, i32 }
          cleanup
  br label %99

99:                                               ; preds = %95, %97
  %100 = phi { ptr, i32 } [ %98, %97 ], [ %96, %95 ]
  call void @_ZN6dealii13ExceptionBaseD2Ev(ptr noundef nonnull align 8 dereferenceable(60) %3) #17
  resume { ptr, i32 } %100

101:                                              ; preds = %17
  ret void
}

; Function Attrs: mustprogress nocallback nofree nounwind willreturn memory(argmem: write)
declare void @llvm.memset.p0.i64(ptr nocapture writeonly, i8, i64, i1 immarg) #11

; Function Attrs: sspstrong uwtable
define weak_odr dso_local void @_ZNK6dealii12SparseMatrixIdE15print_formattedERSojbjPKcd(ptr noundef nonnull align 8 dereferenceable(36) %0, ptr noundef nonnull align 8 dereferenceable(8) %1, i32 noundef %2, i1 noundef zeroext %3, i32 noundef %4, ptr noundef %5, double noundef %6) local_unnamed_addr #0 comdat align 2 personality ptr @__gxx_personality_v0 {
  %8 = alloca i8, align 1
  %9 = alloca i8, align 1
  %10 = alloca %"class.dealii::StandardExceptions::ExcIO", align 8
  %11 = load ptr, ptr %1, align 8, !tbaa !5
  %12 = getelementptr i8, ptr %11, i64 -24
  %13 = load i64, ptr %12, align 8
  %14 = getelementptr inbounds i8, ptr %1, i64 %13
  %15 = getelementptr inbounds %"class.std::ios_base", ptr %14, i64 0, i32 3
  %16 = load i32, ptr %15, align 8, !tbaa !83
  %17 = zext i32 %2 to i64
  %18 = getelementptr inbounds %"class.std::ios_base", ptr %14, i64 0, i32 1
  %19 = load i64, ptr %18, align 8, !tbaa !84
  store i64 %17, ptr %18, align 8, !tbaa !84
  %20 = load i64, ptr %12, align 8
  %21 = getelementptr inbounds i8, ptr %1, i64 %20
  %22 = getelementptr inbounds %"class.std::ios_base", ptr %21, i64 0, i32 3
  %23 = load i32, ptr %22, align 8, !tbaa !85
  %24 = and i32 %23, -261
  %25 = select i1 %3, i32 256, i32 4
  %26 = or i32 %24, %25
  store i32 %26, ptr %22, align 8, !tbaa !85
  %27 = getelementptr inbounds %"class.dealii::SparseMatrix", ptr %0, i64 0, i32 1
  %28 = getelementptr %"class.std::basic_ios", ptr %1, i64 0, i32 5
  %29 = load ptr, ptr %27, align 8, !tbaa !8
  %30 = getelementptr inbounds %"class.dealii::SparsityPattern", ptr %29, i64 0, i32 2
  %31 = load i32, ptr %30, align 4, !tbaa !33
  %32 = icmp eq i32 %31, 0
  br i1 %32, label %50, label %33

33:                                               ; preds = %7
  %34 = icmp eq i32 %4, 0
  %35 = select i1 %3, i32 7, i32 2
  %36 = add i32 %35, %2
  %37 = select i1 %34, i32 %36, i32 %4
  %38 = getelementptr %"class.std::ios_base", ptr %1, i64 0, i32 2
  %39 = sext i32 %37 to i64
  %40 = getelementptr inbounds %"class.dealii::SparseMatrix", ptr %0, i64 0, i32 2
  %41 = icmp eq ptr %5, null
  br label %42

42:                                               ; preds = %33, %79
  %43 = phi ptr [ %29, %33 ], [ %84, %79 ]
  %44 = phi i32 [ 0, %33 ], [ %83, %79 ]
  %45 = getelementptr inbounds %"class.dealii::SparsityPattern", ptr %43, i64 0, i32 3
  %46 = load i32, ptr %45, align 8, !tbaa !17
  %47 = icmp eq i32 %46, 0
  br i1 %47, label %59, label %88

48:                                               ; preds = %79
  %49 = load ptr, ptr %1, align 8, !tbaa !5
  br label %50

50:                                               ; preds = %48, %7
  %51 = phi ptr [ %49, %48 ], [ %11, %7 ]
  %52 = getelementptr i8, ptr %51, i64 -24
  %53 = load i64, ptr %52, align 8
  %54 = getelementptr inbounds i8, ptr %1, i64 %53
  %55 = getelementptr inbounds %"class.std::ios_base", ptr %54, i64 0, i32 5
  %56 = load i32, ptr %55, align 8, !tbaa !71
  %57 = and i32 %56, 5
  %58 = icmp eq i32 %57, 0
  br i1 %58, label %157, label %146

59:                                               ; preds = %140, %42
  %60 = load ptr, ptr %1, align 8, !tbaa !5
  %61 = getelementptr i8, ptr %60, i64 -24
  %62 = load i64, ptr %61, align 8
  %63 = getelementptr i8, ptr %28, i64 %62
  %64 = load ptr, ptr %63, align 8, !tbaa !77
  %65 = icmp eq ptr %64, null
  br i1 %65, label %66, label %67

66:                                               ; preds = %59
  call void @_ZSt16__throw_bad_castv() #21
  unreachable

67:                                               ; preds = %59
  %68 = getelementptr inbounds %"class.std::ctype", ptr %64, i64 0, i32 8
  %69 = load i8, ptr %68, align 8, !tbaa !79
  %70 = icmp eq i8 %69, 0
  br i1 %70, label %74, label %71

71:                                               ; preds = %67
  %72 = getelementptr inbounds %"class.std::ctype", ptr %64, i64 0, i32 9, i64 10
  %73 = load i8, ptr %72, align 1, !tbaa !82
  br label %79

74:                                               ; preds = %67
  call void @_ZNKSt5ctypeIcE13_M_widen_initEv(ptr noundef nonnull align 8 dereferenceable(570) %64)
  %75 = load ptr, ptr %64, align 8, !tbaa !5
  %76 = getelementptr inbounds ptr, ptr %75, i64 6
  %77 = load ptr, ptr %76, align 8
  %78 = call noundef signext i8 %77(ptr noundef nonnull align 8 dereferenceable(570) %64, i8 noundef signext 10)
  br label %79

79:                                               ; preds = %71, %74
  %80 = phi i8 [ %73, %71 ], [ %78, %74 ]
  %81 = call noundef nonnull align 8 dereferenceable(8) ptr @_ZNSo3putEc(ptr noundef nonnull align 8 dereferenceable(8) %1, i8 noundef signext %80)
  %82 = call noundef nonnull align 8 dereferenceable(8) ptr @_ZNSo5flushEv(ptr noundef nonnull align 8 dereferenceable(8) %81)
  %83 = add nuw i32 %44, 1
  %84 = load ptr, ptr %27, align 8, !tbaa !8
  %85 = getelementptr inbounds %"class.dealii::SparsityPattern", ptr %84, i64 0, i32 2
  %86 = load i32, ptr %85, align 4, !tbaa !33
  %87 = icmp ult i32 %83, %86
  br i1 %87, label %42, label %48

88:                                               ; preds = %42, %140
  %89 = phi ptr [ %142, %140 ], [ %43, %42 ]
  %90 = phi i32 [ %141, %140 ], [ 0, %42 ]
  %91 = call noundef i32 @_ZNK6dealii15SparsityPatternclEjj(ptr noundef nonnull align 8 dereferenceable(122) %89, i32 noundef %44, i32 noundef %90)
  %92 = icmp eq i32 %91, -1
  %93 = load ptr, ptr %1, align 8, !tbaa !5
  %94 = getelementptr i8, ptr %93, i64 -24
  %95 = load i64, ptr %94, align 8
  %96 = getelementptr i8, ptr %38, i64 %95
  store i64 %39, ptr %96, align 8, !tbaa !86
  br i1 %92, label %118, label %97

97:                                               ; preds = %88
  %98 = load ptr, ptr %40, align 8, !tbaa !13
  %99 = load ptr, ptr %27, align 8, !tbaa !8
  %100 = call noundef i32 @_ZNK6dealii15SparsityPatternclEjj(ptr noundef nonnull align 8 dereferenceable(122) %99, i32 noundef %44, i32 noundef %90)
  %101 = zext i32 %100 to i64
  %102 = getelementptr inbounds double, ptr %98, i64 %101
  %103 = load double, ptr %102, align 8, !tbaa !30
  %104 = fmul double %103, %6
  %105 = call noundef nonnull align 8 dereferenceable(8) ptr @_ZNSo9_M_insertIdEERSoT_(ptr noundef nonnull align 8 dereferenceable(8) %1, double noundef %104)
  call void @llvm.lifetime.start.p0(i64 1, ptr nonnull %9)
  store i8 32, ptr %9, align 1, !tbaa !82
  %106 = load ptr, ptr %105, align 8, !tbaa !5
  %107 = getelementptr i8, ptr %106, i64 -24
  %108 = load i64, ptr %107, align 8
  %109 = getelementptr inbounds i8, ptr %105, i64 %108
  %110 = getelementptr inbounds %"class.std::ios_base", ptr %109, i64 0, i32 2
  %111 = load i64, ptr %110, align 8, !tbaa !86
  %112 = icmp eq i64 %111, 0
  br i1 %112, label %115, label %113

113:                                              ; preds = %97
  %114 = call noundef nonnull align 8 dereferenceable(8) ptr @_ZSt16__ostream_insertIcSt11char_traitsIcEERSt13basic_ostreamIT_T0_ES6_PKS3_l(ptr noundef nonnull align 8 dereferenceable(8) %105, ptr noundef nonnull %9, i64 noundef 1)
  br label %117

115:                                              ; preds = %97
  %116 = call noundef nonnull align 8 dereferenceable(8) ptr @_ZNSo3putEc(ptr noundef nonnull align 8 dereferenceable(8) %105, i8 noundef signext 32)
  br label %117

117:                                              ; preds = %113, %115
  call void @llvm.lifetime.end.p0(i64 1, ptr nonnull %9)
  br label %140

118:                                              ; preds = %88
  br i1 %41, label %119, label %125

119:                                              ; preds = %118
  %120 = load i64, ptr %94, align 8
  %121 = getelementptr inbounds i8, ptr %1, i64 %120
  %122 = getelementptr inbounds %"class.std::ios_base", ptr %121, i64 0, i32 5
  %123 = load i32, ptr %122, align 8, !tbaa !71
  %124 = or i32 %123, 1
  call void @_ZNSt9basic_iosIcSt11char_traitsIcEE5clearESt12_Ios_Iostate(ptr noundef nonnull align 8 dereferenceable(264) %121, i32 noundef %124)
  br label %128

125:                                              ; preds = %118
  %126 = call i64 @strlen(ptr noundef nonnull dereferenceable(1) %5) #17
  %127 = call noundef nonnull align 8 dereferenceable(8) ptr @_ZSt16__ostream_insertIcSt11char_traitsIcEERSt13basic_ostreamIT_T0_ES6_PKS3_l(ptr noundef nonnull align 8 dereferenceable(8) %1, ptr noundef nonnull %5, i64 noundef %126)
  br label %128

128:                                              ; preds = %119, %125
  call void @llvm.lifetime.start.p0(i64 1, ptr nonnull %8)
  store i8 32, ptr %8, align 1, !tbaa !82
  %129 = load ptr, ptr %1, align 8, !tbaa !5
  %130 = getelementptr i8, ptr %129, i64 -24
  %131 = load i64, ptr %130, align 8
  %132 = getelementptr i8, ptr %38, i64 %131
  %133 = load i64, ptr %132, align 8, !tbaa !86
  %134 = icmp eq i64 %133, 0
  br i1 %134, label %137, label %135

135:                                              ; preds = %128
  %136 = call noundef nonnull align 8 dereferenceable(8) ptr @_ZSt16__ostream_insertIcSt11char_traitsIcEERSt13basic_ostreamIT_T0_ES6_PKS3_l(ptr noundef nonnull align 8 dereferenceable(8) %1, ptr noundef nonnull %8, i64 noundef 1)
  br label %139

137:                                              ; preds = %128
  %138 = call noundef nonnull align 8 dereferenceable(8) ptr @_ZNSo3putEc(ptr noundef nonnull align 8 dereferenceable(8) %1, i8 noundef signext 32)
  br label %139

139:                                              ; preds = %135, %137
  call void @llvm.lifetime.end.p0(i64 1, ptr nonnull %8)
  br label %140

140:                                              ; preds = %117, %139
  %141 = add nuw i32 %90, 1
  %142 = load ptr, ptr %27, align 8, !tbaa !8
  %143 = getelementptr inbounds %"class.dealii::SparsityPattern", ptr %142, i64 0, i32 3
  %144 = load i32, ptr %143, align 8, !tbaa !17
  %145 = icmp ult i32 %141, %144
  br i1 %145, label %88, label %59

146:                                              ; preds = %50
  call void @llvm.memset.p0.i64(ptr noundef nonnull align 8 dereferenceable(64) %10, i8 0, i64 64, i1 false)
  call void @_ZN6dealii13ExceptionBaseC2Ev(ptr noundef nonnull align 8 dereferenceable(60) %10)
  store ptr getelementptr inbounds ({ [6 x ptr] }, ptr @_ZTVN6dealii18StandardExceptions5ExcIOE, i64 0, inrange i32 0, i64 2), ptr %10, align 8, !tbaa !5
  invoke void @_ZN6dealii13ExceptionBase10set_fieldsEPKciS2_S2_S2_(ptr noundef nonnull align 8 dereferenceable(60) %10, ptr noundef nonnull @.str.16, i32 noundef 1632, ptr noundef nonnull @.str.10, ptr noundef nonnull @.str.17, ptr noundef nonnull @.str.18)
          to label %147 unwind label %153

147:                                              ; preds = %146
  %148 = call ptr @__cxa_allocate_exception(i64 64) #17
  invoke void @_ZN6dealii13ExceptionBaseC2ERKS0_(ptr noundef nonnull align 8 dereferenceable(60) %148, ptr noundef nonnull align 8 dereferenceable(60) %10)
          to label %149 unwind label %151

149:                                              ; preds = %147
  store ptr getelementptr inbounds ({ [6 x ptr] }, ptr @_ZTVN6dealii18StandardExceptions5ExcIOE, i64 0, inrange i32 0, i64 2), ptr %148, align 8, !tbaa !5
  invoke void @__cxa_throw(ptr nonnull %148, ptr nonnull @_ZTIN6dealii18StandardExceptions5ExcIOE, ptr nonnull @_ZN6dealii13ExceptionBaseD2Ev) #21
          to label %150 unwind label %153

150:                                              ; preds = %149
  unreachable

151:                                              ; preds = %147
  %152 = landingpad { ptr, i32 }
          cleanup
  call void @__cxa_free_exception(ptr %148) #17
  br label %155

153:                                              ; preds = %149, %146
  %154 = landingpad { ptr, i32 }
          cleanup
  br label %155

155:                                              ; preds = %151, %153
  %156 = phi { ptr, i32 } [ %154, %153 ], [ %152, %151 ]
  call void @_ZN6dealii13ExceptionBaseD2Ev(ptr noundef nonnull align 8 dereferenceable(60) %10) #17
  resume { ptr, i32 } %156

157:                                              ; preds = %50
  %158 = and i64 %19, 4294967295
  %159 = getelementptr inbounds %"class.std::ios_base", ptr %54, i64 0, i32 1
  store i64 %158, ptr %159, align 8, !tbaa !84
  %160 = load i64, ptr %52, align 8
  %161 = getelementptr inbounds i8, ptr %1, i64 %160
  %162 = getelementptr inbounds %"class.std::ios_base", ptr %161, i64 0, i32 3
  store i32 %16, ptr %162, align 8, !tbaa !83
  ret void
}

; Function Attrs: sspstrong uwtable
define weak_odr dso_local void @_ZNK6dealii12SparseMatrixIdE13print_patternERSod(ptr noundef nonnull align 8 dereferenceable(36) %0, ptr noundef nonnull align 8 dereferenceable(8) %1, double noundef %2) local_unnamed_addr #0 comdat align 2 personality ptr @__gxx_personality_v0 {
  %4 = alloca i8, align 1
  %5 = alloca i8, align 1
  %6 = alloca i8, align 1
  %7 = alloca %"class.dealii::StandardExceptions::ExcIO", align 8
  %8 = getelementptr inbounds %"class.dealii::SparseMatrix", ptr %0, i64 0, i32 1
  %9 = getelementptr %"class.std::basic_ios", ptr %1, i64 0, i32 5
  %10 = load ptr, ptr %8, align 8, !tbaa !8
  %11 = getelementptr inbounds %"class.dealii::SparsityPattern", ptr %10, i64 0, i32 2
  %12 = load i32, ptr %11, align 4, !tbaa !33
  %13 = icmp eq i32 %12, 0
  br i1 %13, label %23, label %14

14:                                               ; preds = %3
  %15 = getelementptr %"class.std::ios_base", ptr %1, i64 0, i32 2
  %16 = getelementptr inbounds %"class.dealii::SparseMatrix", ptr %0, i64 0, i32 2
  br label %17

17:                                               ; preds = %14, %52
  %18 = phi ptr [ %10, %14 ], [ %57, %52 ]
  %19 = phi i32 [ 0, %14 ], [ %56, %52 ]
  %20 = getelementptr inbounds %"class.dealii::SparsityPattern", ptr %18, i64 0, i32 3
  %21 = load i32, ptr %20, align 8, !tbaa !17
  %22 = icmp eq i32 %21, 0
  br i1 %22, label %32, label %61

23:                                               ; preds = %52, %3
  %24 = load ptr, ptr %1, align 8, !tbaa !5
  %25 = getelementptr i8, ptr %24, i64 -24
  %26 = load i64, ptr %25, align 8
  %27 = getelementptr inbounds i8, ptr %1, i64 %26
  %28 = getelementptr inbounds %"class.std::ios_base", ptr %27, i64 0, i32 5
  %29 = load i32, ptr %28, align 8, !tbaa !71
  %30 = and i32 %29, 5
  %31 = icmp eq i32 %30, 0
  br i1 %31, label %128, label %117

32:                                               ; preds = %111, %17
  %33 = load ptr, ptr %1, align 8, !tbaa !5
  %34 = getelementptr i8, ptr %33, i64 -24
  %35 = load i64, ptr %34, align 8
  %36 = getelementptr i8, ptr %9, i64 %35
  %37 = load ptr, ptr %36, align 8, !tbaa !77
  %38 = icmp eq ptr %37, null
  br i1 %38, label %39, label %40

39:                                               ; preds = %32
  call void @_ZSt16__throw_bad_castv() #21
  unreachable

40:                                               ; preds = %32
  %41 = getelementptr inbounds %"class.std::ctype", ptr %37, i64 0, i32 8
  %42 = load i8, ptr %41, align 8, !tbaa !79
  %43 = icmp eq i8 %42, 0
  br i1 %43, label %47, label %44

44:                                               ; preds = %40
  %45 = getelementptr inbounds %"class.std::ctype", ptr %37, i64 0, i32 9, i64 10
  %46 = load i8, ptr %45, align 1, !tbaa !82
  br label %52

47:                                               ; preds = %40
  call void @_ZNKSt5ctypeIcE13_M_widen_initEv(ptr noundef nonnull align 8 dereferenceable(570) %37)
  %48 = load ptr, ptr %37, align 8, !tbaa !5
  %49 = getelementptr inbounds ptr, ptr %48, i64 6
  %50 = load ptr, ptr %49, align 8
  %51 = call noundef signext i8 %50(ptr noundef nonnull align 8 dereferenceable(570) %37, i8 noundef signext 10)
  br label %52

52:                                               ; preds = %44, %47
  %53 = phi i8 [ %46, %44 ], [ %51, %47 ]
  %54 = call noundef nonnull align 8 dereferenceable(8) ptr @_ZNSo3putEc(ptr noundef nonnull align 8 dereferenceable(8) %1, i8 noundef signext %53)
  %55 = call noundef nonnull align 8 dereferenceable(8) ptr @_ZNSo5flushEv(ptr noundef nonnull align 8 dereferenceable(8) %54)
  %56 = add nuw i32 %19, 1
  %57 = load ptr, ptr %8, align 8, !tbaa !8
  %58 = getelementptr inbounds %"class.dealii::SparsityPattern", ptr %57, i64 0, i32 2
  %59 = load i32, ptr %58, align 4, !tbaa !33
  %60 = icmp ult i32 %56, %59
  br i1 %60, label %17, label %23

61:                                               ; preds = %17, %111
  %62 = phi ptr [ %113, %111 ], [ %18, %17 ]
  %63 = phi i32 [ %112, %111 ], [ 0, %17 ]
  %64 = call noundef i32 @_ZNK6dealii15SparsityPatternclEjj(ptr noundef nonnull align 8 dereferenceable(122) %62, i32 noundef %19, i32 noundef %63)
  %65 = icmp eq i32 %64, -1
  br i1 %65, label %66, label %78

66:                                               ; preds = %61
  call void @llvm.lifetime.start.p0(i64 1, ptr nonnull %6)
  store i8 46, ptr %6, align 1, !tbaa !82
  %67 = load ptr, ptr %1, align 8, !tbaa !5
  %68 = getelementptr i8, ptr %67, i64 -24
  %69 = load i64, ptr %68, align 8
  %70 = getelementptr i8, ptr %15, i64 %69
  %71 = load i64, ptr %70, align 8, !tbaa !86
  %72 = icmp eq i64 %71, 0
  br i1 %72, label %75, label %73

73:                                               ; preds = %66
  %74 = call noundef nonnull align 8 dereferenceable(8) ptr @_ZSt16__ostream_insertIcSt11char_traitsIcEERSt13basic_ostreamIT_T0_ES6_PKS3_l(ptr noundef nonnull align 8 dereferenceable(8) %1, ptr noundef nonnull %6, i64 noundef 1)
  br label %77

75:                                               ; preds = %66
  %76 = call noundef nonnull align 8 dereferenceable(8) ptr @_ZNSo3putEc(ptr noundef nonnull align 8 dereferenceable(8) %1, i8 noundef signext 46)
  br label %77

77:                                               ; preds = %73, %75
  call void @llvm.lifetime.end.p0(i64 1, ptr nonnull %6)
  br label %111

78:                                               ; preds = %61
  %79 = load ptr, ptr %16, align 8, !tbaa !13
  %80 = load ptr, ptr %8, align 8, !tbaa !8
  %81 = call noundef i32 @_ZNK6dealii15SparsityPatternclEjj(ptr noundef nonnull align 8 dereferenceable(122) %80, i32 noundef %19, i32 noundef %63)
  %82 = zext i32 %81 to i64
  %83 = getelementptr inbounds double, ptr %79, i64 %82
  %84 = load double, ptr %83, align 8, !tbaa !30
  %85 = call double @llvm.fabs.f64(double %84)
  %86 = fcmp ogt double %85, %2
  br i1 %86, label %87, label %99

87:                                               ; preds = %78
  call void @llvm.lifetime.start.p0(i64 1, ptr nonnull %5)
  store i8 42, ptr %5, align 1, !tbaa !82
  %88 = load ptr, ptr %1, align 8, !tbaa !5
  %89 = getelementptr i8, ptr %88, i64 -24
  %90 = load i64, ptr %89, align 8
  %91 = getelementptr i8, ptr %15, i64 %90
  %92 = load i64, ptr %91, align 8, !tbaa !86
  %93 = icmp eq i64 %92, 0
  br i1 %93, label %96, label %94

94:                                               ; preds = %87
  %95 = call noundef nonnull align 8 dereferenceable(8) ptr @_ZSt16__ostream_insertIcSt11char_traitsIcEERSt13basic_ostreamIT_T0_ES6_PKS3_l(ptr noundef nonnull align 8 dereferenceable(8) %1, ptr noundef nonnull %5, i64 noundef 1)
  br label %98

96:                                               ; preds = %87
  %97 = call noundef nonnull align 8 dereferenceable(8) ptr @_ZNSo3putEc(ptr noundef nonnull align 8 dereferenceable(8) %1, i8 noundef signext 42)
  br label %98

98:                                               ; preds = %94, %96
  call void @llvm.lifetime.end.p0(i64 1, ptr nonnull %5)
  br label %111

99:                                               ; preds = %78
  call void @llvm.lifetime.start.p0(i64 1, ptr nonnull %4)
  store i8 58, ptr %4, align 1, !tbaa !82
  %100 = load ptr, ptr %1, align 8, !tbaa !5
  %101 = getelementptr i8, ptr %100, i64 -24
  %102 = load i64, ptr %101, align 8
  %103 = getelementptr i8, ptr %15, i64 %102
  %104 = load i64, ptr %103, align 8, !tbaa !86
  %105 = icmp eq i64 %104, 0
  br i1 %105, label %108, label %106

106:                                              ; preds = %99
  %107 = call noundef nonnull align 8 dereferenceable(8) ptr @_ZSt16__ostream_insertIcSt11char_traitsIcEERSt13basic_ostreamIT_T0_ES6_PKS3_l(ptr noundef nonnull align 8 dereferenceable(8) %1, ptr noundef nonnull %4, i64 noundef 1)
  br label %110

108:                                              ; preds = %99
  %109 = call noundef nonnull align 8 dereferenceable(8) ptr @_ZNSo3putEc(ptr noundef nonnull align 8 dereferenceable(8) %1, i8 noundef signext 58)
  br label %110

110:                                              ; preds = %106, %108
  call void @llvm.lifetime.end.p0(i64 1, ptr nonnull %4)
  br label %111

111:                                              ; preds = %77, %110, %98
  %112 = add nuw i32 %63, 1
  %113 = load ptr, ptr %8, align 8, !tbaa !8
  %114 = getelementptr inbounds %"class.dealii::SparsityPattern", ptr %113, i64 0, i32 3
  %115 = load i32, ptr %114, align 8, !tbaa !17
  %116 = icmp ult i32 %112, %115
  br i1 %116, label %61, label %32

117:                                              ; preds = %23
  call void @llvm.memset.p0.i64(ptr noundef nonnull align 8 dereferenceable(64) %7, i8 0, i64 64, i1 false)
  call void @_ZN6dealii13ExceptionBaseC2Ev(ptr noundef nonnull align 8 dereferenceable(60) %7)
  store ptr getelementptr inbounds ({ [6 x ptr] }, ptr @_ZTVN6dealii18StandardExceptions5ExcIOE, i64 0, inrange i32 0, i64 2), ptr %7, align 8, !tbaa !5
  invoke void @_ZN6dealii13ExceptionBase10set_fieldsEPKciS2_S2_S2_(ptr noundef nonnull align 8 dereferenceable(60) %7, ptr noundef nonnull @.str.16, i32 noundef 1660, ptr noundef nonnull @.str.10, ptr noundef nonnull @.str.17, ptr noundef nonnull @.str.18)
          to label %118 unwind label %124

118:                                              ; preds = %117
  %119 = call ptr @__cxa_allocate_exception(i64 64) #17
  invoke void @_ZN6dealii13ExceptionBaseC2ERKS0_(ptr noundef nonnull align 8 dereferenceable(60) %119, ptr noundef nonnull align 8 dereferenceable(60) %7)
          to label %120 unwind label %122

120:                                              ; preds = %118
  store ptr getelementptr inbounds ({ [6 x ptr] }, ptr @_ZTVN6dealii18StandardExceptions5ExcIOE, i64 0, inrange i32 0, i64 2), ptr %119, align 8, !tbaa !5
  invoke void @__cxa_throw(ptr nonnull %119, ptr nonnull @_ZTIN6dealii18StandardExceptions5ExcIOE, ptr nonnull @_ZN6dealii13ExceptionBaseD2Ev) #21
          to label %121 unwind label %124

121:                                              ; preds = %120
  unreachable

122:                                              ; preds = %118
  %123 = landingpad { ptr, i32 }
          cleanup
  call void @__cxa_free_exception(ptr %119) #17
  br label %126

124:                                              ; preds = %120, %117
  %125 = landingpad { ptr, i32 }
          cleanup
  br label %126

126:                                              ; preds = %122, %124
  %127 = phi { ptr, i32 } [ %125, %124 ], [ %123, %122 ]
  call void @_ZN6dealii13ExceptionBaseD2Ev(ptr noundef nonnull align 8 dereferenceable(60) %7) #17
  resume { ptr, i32 } %127

128:                                              ; preds = %23
  ret void
}

; Function Attrs: sspstrong uwtable
define weak_odr dso_local void @_ZNK6dealii12SparseMatrixIdE11block_writeERSo(ptr noundef nonnull align 8 dereferenceable(36) %0, ptr noundef nonnull align 8 dereferenceable(8) %1) local_unnamed_addr #0 comdat align 2 personality ptr @__gxx_personality_v0 {
  %3 = alloca i8, align 1
  %4 = alloca i8, align 1
  %5 = alloca %"class.dealii::StandardExceptions::ExcIO", align 8
  %6 = alloca %"class.dealii::StandardExceptions::ExcIO", align 8
  %7 = load ptr, ptr %1, align 8, !tbaa !5
  %8 = getelementptr i8, ptr %7, i64 -24
  %9 = load i64, ptr %8, align 8
  %10 = getelementptr inbounds i8, ptr %1, i64 %9
  %11 = getelementptr inbounds %"class.std::ios_base", ptr %10, i64 0, i32 5
  %12 = load i32, ptr %11, align 8, !tbaa !71
  %13 = and i32 %12, 5
  %14 = icmp eq i32 %13, 0
  br i1 %14, label %24, label %15

15:                                               ; preds = %2
  call void @llvm.memset.p0.i64(ptr noundef nonnull align 8 dereferenceable(64) %5, i8 0, i64 64, i1 false)
  call void @_ZN6dealii13ExceptionBaseC2Ev(ptr noundef nonnull align 8 dereferenceable(60) %5)
  store ptr getelementptr inbounds ({ [6 x ptr] }, ptr @_ZTVN6dealii18StandardExceptions5ExcIOE, i64 0, inrange i32 0, i64 2), ptr %5, align 8, !tbaa !5
  invoke void @_ZN6dealii13ExceptionBase10set_fieldsEPKciS2_S2_S2_(ptr noundef nonnull align 8 dereferenceable(60) %5, ptr noundef nonnull @.str.16, i32 noundef 1669, ptr noundef nonnull @.str.10, ptr noundef nonnull @.str.17, ptr noundef nonnull @.str.18)
          to label %16 unwind label %22

16:                                               ; preds = %15
  %17 = call ptr @__cxa_allocate_exception(i64 64) #17
  invoke void @_ZN6dealii13ExceptionBaseC2ERKS0_(ptr noundef nonnull align 8 dereferenceable(60) %17, ptr noundef nonnull align 8 dereferenceable(60) %5)
          to label %18 unwind label %20

18:                                               ; preds = %16
  store ptr getelementptr inbounds ({ [6 x ptr] }, ptr @_ZTVN6dealii18StandardExceptions5ExcIOE, i64 0, inrange i32 0, i64 2), ptr %17, align 8, !tbaa !5
  invoke void @__cxa_throw(ptr nonnull %17, ptr nonnull @_ZTIN6dealii18StandardExceptions5ExcIOE, ptr nonnull @_ZN6dealii13ExceptionBaseD2Ev) #21
          to label %19 unwind label %22

19:                                               ; preds = %18
  unreachable

20:                                               ; preds = %16
  %21 = landingpad { ptr, i32 }
          cleanup
  call void @__cxa_free_exception(ptr %17) #17
  br label %75

22:                                               ; preds = %18, %15
  %23 = landingpad { ptr, i32 }
          cleanup
  br label %75

24:                                               ; preds = %2
  call void @llvm.lifetime.start.p0(i64 1, ptr nonnull %4)
  store i8 91, ptr %4, align 1, !tbaa !82
  %25 = getelementptr inbounds %"class.std::ios_base", ptr %10, i64 0, i32 2
  %26 = load i64, ptr %25, align 8, !tbaa !86
  %27 = icmp eq i64 %26, 0
  br i1 %27, label %30, label %28

28:                                               ; preds = %24
  %29 = call noundef nonnull align 8 dereferenceable(8) ptr @_ZSt16__ostream_insertIcSt11char_traitsIcEERSt13basic_ostreamIT_T0_ES6_PKS3_l(ptr noundef nonnull align 8 dereferenceable(8) %1, ptr noundef nonnull %4, i64 noundef 1)
  br label %32

30:                                               ; preds = %24
  %31 = tail call noundef nonnull align 8 dereferenceable(8) ptr @_ZNSo3putEc(ptr noundef nonnull align 8 dereferenceable(8) %1, i8 noundef signext 91)
  br label %32

32:                                               ; preds = %28, %30
  %33 = phi ptr [ %29, %28 ], [ %1, %30 ]
  call void @llvm.lifetime.end.p0(i64 1, ptr nonnull %4)
  %34 = getelementptr inbounds %"class.dealii::SparseMatrix", ptr %0, i64 0, i32 3
  %35 = load i32, ptr %34, align 8, !tbaa !16
  %36 = zext i32 %35 to i64
  %37 = call noundef nonnull align 8 dereferenceable(8) ptr @_ZNSo9_M_insertImEERSoT_(ptr noundef nonnull align 8 dereferenceable(8) %33, i64 noundef %36)
  %38 = call noundef nonnull align 8 dereferenceable(8) ptr @_ZSt16__ostream_insertIcSt11char_traitsIcEERSt13basic_ostreamIT_T0_ES6_PKS3_l(ptr noundef nonnull align 8 dereferenceable(8) %37, ptr noundef nonnull @.str.19, i64 noundef 2)
  %39 = getelementptr inbounds %"class.dealii::SparseMatrix", ptr %0, i64 0, i32 2
  %40 = load ptr, ptr %39, align 8, !tbaa !13
  %41 = load i32, ptr %34, align 8, !tbaa !16
  %42 = zext i32 %41 to i64
  %43 = shl nuw nsw i64 %42, 3
  %44 = call noundef nonnull align 8 dereferenceable(8) ptr @_ZNSo5writeEPKcl(ptr noundef nonnull align 8 dereferenceable(8) %1, ptr noundef %40, i64 noundef %43)
  call void @llvm.lifetime.start.p0(i64 1, ptr nonnull %3)
  store i8 93, ptr %3, align 1, !tbaa !82
  %45 = load ptr, ptr %1, align 8, !tbaa !5
  %46 = getelementptr i8, ptr %45, i64 -24
  %47 = load i64, ptr %46, align 8
  %48 = getelementptr inbounds i8, ptr %1, i64 %47
  %49 = getelementptr inbounds %"class.std::ios_base", ptr %48, i64 0, i32 2
  %50 = load i64, ptr %49, align 8, !tbaa !86
  %51 = icmp eq i64 %50, 0
  br i1 %51, label %54, label %52

52:                                               ; preds = %32
  %53 = call noundef nonnull align 8 dereferenceable(8) ptr @_ZSt16__ostream_insertIcSt11char_traitsIcEERSt13basic_ostreamIT_T0_ES6_PKS3_l(ptr noundef nonnull align 8 dereferenceable(8) %1, ptr noundef nonnull %3, i64 noundef 1)
  br label %56

54:                                               ; preds = %32
  %55 = call noundef nonnull align 8 dereferenceable(8) ptr @_ZNSo3putEc(ptr noundef nonnull align 8 dereferenceable(8) %1, i8 noundef signext 93)
  br label %56

56:                                               ; preds = %52, %54
  call void @llvm.lifetime.end.p0(i64 1, ptr nonnull %3)
  %57 = load ptr, ptr %1, align 8, !tbaa !5
  %58 = getelementptr i8, ptr %57, i64 -24
  %59 = load i64, ptr %58, align 8
  %60 = getelementptr inbounds i8, ptr %1, i64 %59
  %61 = getelementptr inbounds %"class.std::ios_base", ptr %60, i64 0, i32 5
  %62 = load i32, ptr %61, align 8, !tbaa !71
  %63 = and i32 %62, 5
  %64 = icmp eq i32 %63, 0
  br i1 %64, label %74, label %65

65:                                               ; preds = %56
  call void @llvm.memset.p0.i64(ptr noundef nonnull align 8 dereferenceable(64) %6, i8 0, i64 64, i1 false)
  call void @_ZN6dealii13ExceptionBaseC2Ev(ptr noundef nonnull align 8 dereferenceable(60) %6)
  store ptr getelementptr inbounds ({ [6 x ptr] }, ptr @_ZTVN6dealii18StandardExceptions5ExcIOE, i64 0, inrange i32 0, i64 2), ptr %6, align 8, !tbaa !5
  invoke void @_ZN6dealii13ExceptionBase10set_fieldsEPKciS2_S2_S2_(ptr noundef nonnull align 8 dereferenceable(60) %6, ptr noundef nonnull @.str.16, i32 noundef 1680, ptr noundef nonnull @.str.10, ptr noundef nonnull @.str.17, ptr noundef nonnull @.str.18)
          to label %66 unwind label %72

66:                                               ; preds = %65
  %67 = call ptr @__cxa_allocate_exception(i64 64) #17
  invoke void @_ZN6dealii13ExceptionBaseC2ERKS0_(ptr noundef nonnull align 8 dereferenceable(60) %67, ptr noundef nonnull align 8 dereferenceable(60) %6)
          to label %68 unwind label %70

68:                                               ; preds = %66
  store ptr getelementptr inbounds ({ [6 x ptr] }, ptr @_ZTVN6dealii18StandardExceptions5ExcIOE, i64 0, inrange i32 0, i64 2), ptr %67, align 8, !tbaa !5
  invoke void @__cxa_throw(ptr nonnull %67, ptr nonnull @_ZTIN6dealii18StandardExceptions5ExcIOE, ptr nonnull @_ZN6dealii13ExceptionBaseD2Ev) #21
          to label %69 unwind label %72

69:                                               ; preds = %68
  unreachable

70:                                               ; preds = %66
  %71 = landingpad { ptr, i32 }
          cleanup
  call void @__cxa_free_exception(ptr %67) #17
  br label %75

72:                                               ; preds = %68, %65
  %73 = landingpad { ptr, i32 }
          cleanup
  br label %75

74:                                               ; preds = %56
  ret void

75:                                               ; preds = %72, %70, %22, %20
  %76 = phi ptr [ %5, %20 ], [ %5, %22 ], [ %6, %70 ], [ %6, %72 ]
  %77 = phi { ptr, i32 } [ %21, %20 ], [ %23, %22 ], [ %71, %70 ], [ %73, %72 ]
  call void @_ZN6dealii13ExceptionBaseD2Ev(ptr noundef nonnull align 8 dereferenceable(60) %76) #17
  resume { ptr, i32 } %77
}

declare noundef nonnull align 8 dereferenceable(8) ptr @_ZNSo5writeEPKcl(ptr noundef nonnull align 8 dereferenceable(8), ptr noundef, i64 noundef) local_unnamed_addr #1

; Function Attrs: sspstrong uwtable
define weak_odr dso_local void @_ZN6dealii12SparseMatrixIdE10block_readERSi(ptr noundef nonnull align 8 dereferenceable(36) %0, ptr noundef nonnull align 8 dereferenceable(16) %1) local_unnamed_addr #0 comdat align 2 personality ptr @__gxx_personality_v0 {
  %3 = alloca %"class.dealii::StandardExceptions::ExcIO", align 8
  %4 = alloca i8, align 1
  %5 = alloca %"class.dealii::StandardExceptions::ExcIO", align 8
  %6 = alloca %"class.dealii::StandardExceptions::ExcIO", align 8
  %7 = alloca %"class.dealii::StandardExceptions::ExcIO", align 8
  %8 = alloca %"class.dealii::StandardExceptions::ExcIO", align 8
  %9 = load ptr, ptr %1, align 8, !tbaa !5
  %10 = getelementptr i8, ptr %9, i64 -24
  %11 = load i64, ptr %10, align 8
  %12 = getelementptr inbounds i8, ptr %1, i64 %11
  %13 = getelementptr inbounds %"class.std::ios_base", ptr %12, i64 0, i32 5
  %14 = load i32, ptr %13, align 8, !tbaa !71
  %15 = and i32 %14, 5
  %16 = icmp eq i32 %15, 0
  br i1 %16, label %28, label %17

17:                                               ; preds = %2
  call void @llvm.memset.p0.i64(ptr noundef nonnull align 8 dereferenceable(64) %3, i8 0, i64 64, i1 false)
  call void @_ZN6dealii13ExceptionBaseC2Ev(ptr noundef nonnull align 8 dereferenceable(60) %3)
  store ptr getelementptr inbounds ({ [6 x ptr] }, ptr @_ZTVN6dealii18StandardExceptions5ExcIOE, i64 0, inrange i32 0, i64 2), ptr %3, align 8, !tbaa !5
  invoke void @_ZN6dealii13ExceptionBase10set_fieldsEPKciS2_S2_S2_(ptr noundef nonnull align 8 dereferenceable(60) %3, ptr noundef nonnull @.str.16, i32 noundef 1689, ptr noundef nonnull @.str.10, ptr noundef nonnull @.str.20, ptr noundef nonnull @.str.18)
          to label %18 unwind label %24

18:                                               ; preds = %17
  %19 = call ptr @__cxa_allocate_exception(i64 64) #17
  invoke void @_ZN6dealii13ExceptionBaseC2ERKS0_(ptr noundef nonnull align 8 dereferenceable(60) %19, ptr noundef nonnull align 8 dereferenceable(60) %3)
          to label %20 unwind label %22

20:                                               ; preds = %18
  store ptr getelementptr inbounds ({ [6 x ptr] }, ptr @_ZTVN6dealii18StandardExceptions5ExcIOE, i64 0, inrange i32 0, i64 2), ptr %19, align 8, !tbaa !5
  invoke void @__cxa_throw(ptr nonnull %19, ptr nonnull @_ZTIN6dealii18StandardExceptions5ExcIOE, ptr nonnull @_ZN6dealii13ExceptionBaseD2Ev) #21
          to label %21 unwind label %24

21:                                               ; preds = %20
  unreachable

22:                                               ; preds = %18
  %23 = landingpad { ptr, i32 }
          cleanup
  call void @__cxa_free_exception(ptr %19) #17
  br label %26

24:                                               ; preds = %20, %17
  %25 = landingpad { ptr, i32 }
          cleanup
  br label %26

26:                                               ; preds = %22, %24
  %27 = phi { ptr, i32 } [ %25, %24 ], [ %23, %22 ]
  call void @_ZN6dealii13ExceptionBaseD2Ev(ptr noundef nonnull align 8 dereferenceable(60) %3) #17
  br label %96

28:                                               ; preds = %2
  call void @llvm.lifetime.start.p0(i64 1, ptr nonnull %4) #17
  %29 = call noundef nonnull align 8 dereferenceable(16) ptr @_ZStrsIcSt11char_traitsIcEERSt13basic_istreamIT_T0_ES6_RS3_(ptr noundef nonnull align 8 dereferenceable(16) %1, ptr noundef nonnull align 1 dereferenceable(1) %4)
  %30 = load i8, ptr %4, align 1, !tbaa !82
  %31 = icmp eq i8 %30, 91
  br i1 %31, label %41, label %32

32:                                               ; preds = %28
  call void @llvm.memset.p0.i64(ptr noundef nonnull align 8 dereferenceable(64) %5, i8 0, i64 64, i1 false)
  call void @_ZN6dealii13ExceptionBaseC2Ev(ptr noundef nonnull align 8 dereferenceable(60) %5)
  store ptr getelementptr inbounds ({ [6 x ptr] }, ptr @_ZTVN6dealii18StandardExceptions5ExcIOE, i64 0, inrange i32 0, i64 2), ptr %5, align 8, !tbaa !5
  invoke void @_ZN6dealii13ExceptionBase10set_fieldsEPKciS2_S2_S2_(ptr noundef nonnull align 8 dereferenceable(60) %5, ptr noundef nonnull @.str.16, i32 noundef 1695, ptr noundef nonnull @.str.10, ptr noundef nonnull @.str.21, ptr noundef nonnull @.str.18)
          to label %33 unwind label %39

33:                                               ; preds = %32
  %34 = call ptr @__cxa_allocate_exception(i64 64) #17
  invoke void @_ZN6dealii13ExceptionBaseC2ERKS0_(ptr noundef nonnull align 8 dereferenceable(60) %34, ptr noundef nonnull align 8 dereferenceable(60) %5)
          to label %35 unwind label %37

35:                                               ; preds = %33
  store ptr getelementptr inbounds ({ [6 x ptr] }, ptr @_ZTVN6dealii18StandardExceptions5ExcIOE, i64 0, inrange i32 0, i64 2), ptr %34, align 8, !tbaa !5
  invoke void @__cxa_throw(ptr nonnull %34, ptr nonnull @_ZTIN6dealii18StandardExceptions5ExcIOE, ptr nonnull @_ZN6dealii13ExceptionBaseD2Ev) #21
          to label %36 unwind label %39

36:                                               ; preds = %35
  unreachable

37:                                               ; preds = %33
  %38 = landingpad { ptr, i32 }
          cleanup
  call void @__cxa_free_exception(ptr %34) #17
  br label %93

39:                                               ; preds = %35, %32
  %40 = landingpad { ptr, i32 }
          cleanup
  br label %93

41:                                               ; preds = %28
  %42 = getelementptr inbounds %"class.dealii::SparseMatrix", ptr %0, i64 0, i32 3
  %43 = call noundef nonnull align 8 dereferenceable(16) ptr @_ZNSi10_M_extractIjEERSiRT_(ptr noundef nonnull align 8 dereferenceable(16) %1, ptr noundef nonnull align 4 dereferenceable(4) %42)
  %44 = call noundef nonnull align 8 dereferenceable(16) ptr @_ZStrsIcSt11char_traitsIcEERSt13basic_istreamIT_T0_ES6_RS3_(ptr noundef nonnull align 8 dereferenceable(16) %1, ptr noundef nonnull align 1 dereferenceable(1) %4)
  %45 = load i8, ptr %4, align 1, !tbaa !82
  %46 = icmp eq i8 %45, 93
  br i1 %46, label %56, label %47

47:                                               ; preds = %41
  call void @llvm.memset.p0.i64(ptr noundef nonnull align 8 dereferenceable(64) %6, i8 0, i64 64, i1 false)
  call void @_ZN6dealii13ExceptionBaseC2Ev(ptr noundef nonnull align 8 dereferenceable(60) %6)
  store ptr getelementptr inbounds ({ [6 x ptr] }, ptr @_ZTVN6dealii18StandardExceptions5ExcIOE, i64 0, inrange i32 0, i64 2), ptr %6, align 8, !tbaa !5
  invoke void @_ZN6dealii13ExceptionBase10set_fieldsEPKciS2_S2_S2_(ptr noundef nonnull align 8 dereferenceable(60) %6, ptr noundef nonnull @.str.16, i32 noundef 1699, ptr noundef nonnull @.str.10, ptr noundef nonnull @.str.22, ptr noundef nonnull @.str.18)
          to label %48 unwind label %54

48:                                               ; preds = %47
  %49 = call ptr @__cxa_allocate_exception(i64 64) #17
  invoke void @_ZN6dealii13ExceptionBaseC2ERKS0_(ptr noundef nonnull align 8 dereferenceable(60) %49, ptr noundef nonnull align 8 dereferenceable(60) %6)
          to label %50 unwind label %52

50:                                               ; preds = %48
  store ptr getelementptr inbounds ({ [6 x ptr] }, ptr @_ZTVN6dealii18StandardExceptions5ExcIOE, i64 0, inrange i32 0, i64 2), ptr %49, align 8, !tbaa !5
  invoke void @__cxa_throw(ptr nonnull %49, ptr nonnull @_ZTIN6dealii18StandardExceptions5ExcIOE, ptr nonnull @_ZN6dealii13ExceptionBaseD2Ev) #21
          to label %51 unwind label %54

51:                                               ; preds = %50
  unreachable

52:                                               ; preds = %48
  %53 = landingpad { ptr, i32 }
          cleanup
  call void @__cxa_free_exception(ptr %49) #17
  br label %93

54:                                               ; preds = %50, %47
  %55 = landingpad { ptr, i32 }
          cleanup
  br label %93

56:                                               ; preds = %41
  %57 = call noundef nonnull align 8 dereferenceable(16) ptr @_ZStrsIcSt11char_traitsIcEERSt13basic_istreamIT_T0_ES6_RS3_(ptr noundef nonnull align 8 dereferenceable(16) %1, ptr noundef nonnull align 1 dereferenceable(1) %4)
  %58 = load i8, ptr %4, align 1, !tbaa !82
  %59 = icmp eq i8 %58, 91
  br i1 %59, label %69, label %60

60:                                               ; preds = %56
  call void @llvm.memset.p0.i64(ptr noundef nonnull align 8 dereferenceable(64) %7, i8 0, i64 64, i1 false)
  call void @_ZN6dealii13ExceptionBaseC2Ev(ptr noundef nonnull align 8 dereferenceable(60) %7)
  store ptr getelementptr inbounds ({ [6 x ptr] }, ptr @_ZTVN6dealii18StandardExceptions5ExcIOE, i64 0, inrange i32 0, i64 2), ptr %7, align 8, !tbaa !5
  invoke void @_ZN6dealii13ExceptionBase10set_fieldsEPKciS2_S2_S2_(ptr noundef nonnull align 8 dereferenceable(60) %7, ptr noundef nonnull @.str.16, i32 noundef 1701, ptr noundef nonnull @.str.10, ptr noundef nonnull @.str.21, ptr noundef nonnull @.str.18)
          to label %61 unwind label %67

61:                                               ; preds = %60
  %62 = call ptr @__cxa_allocate_exception(i64 64) #17
  invoke void @_ZN6dealii13ExceptionBaseC2ERKS0_(ptr noundef nonnull align 8 dereferenceable(60) %62, ptr noundef nonnull align 8 dereferenceable(60) %7)
          to label %63 unwind label %65

63:                                               ; preds = %61
  store ptr getelementptr inbounds ({ [6 x ptr] }, ptr @_ZTVN6dealii18StandardExceptions5ExcIOE, i64 0, inrange i32 0, i64 2), ptr %62, align 8, !tbaa !5
  invoke void @__cxa_throw(ptr nonnull %62, ptr nonnull @_ZTIN6dealii18StandardExceptions5ExcIOE, ptr nonnull @_ZN6dealii13ExceptionBaseD2Ev) #21
          to label %64 unwind label %67

64:                                               ; preds = %63
  unreachable

65:                                               ; preds = %61
  %66 = landingpad { ptr, i32 }
          cleanup
  call void @__cxa_free_exception(ptr %62) #17
  br label %93

67:                                               ; preds = %63, %60
  %68 = landingpad { ptr, i32 }
          cleanup
  br label %93

69:                                               ; preds = %56
  %70 = getelementptr inbounds %"class.dealii::SparseMatrix", ptr %0, i64 0, i32 2
  %71 = load ptr, ptr %70, align 8, !tbaa !13
  %72 = icmp eq ptr %71, null
  br i1 %72, label %74, label %73

73:                                               ; preds = %69
  call void @_ZdaPv(ptr noundef nonnull %71) #19
  br label %74

74:                                               ; preds = %73, %69
  %75 = load i32, ptr %42, align 8, !tbaa !16
  %76 = zext i32 %75 to i64
  %77 = shl nuw nsw i64 %76, 3
  %78 = call noalias noundef nonnull ptr @_Znam(i64 noundef %77) #20
  store ptr %78, ptr %70, align 8, !tbaa !13
  %79 = call noundef nonnull align 8 dereferenceable(16) ptr @_ZNSi4readEPcl(ptr noundef nonnull align 8 dereferenceable(16) %1, ptr noundef nonnull %78, i64 noundef %77)
  %80 = call noundef nonnull align 8 dereferenceable(16) ptr @_ZStrsIcSt11char_traitsIcEERSt13basic_istreamIT_T0_ES6_RS3_(ptr noundef nonnull align 8 dereferenceable(16) %1, ptr noundef nonnull align 1 dereferenceable(1) %4)
  %81 = load i8, ptr %4, align 1, !tbaa !82
  %82 = icmp eq i8 %81, 93
  br i1 %82, label %92, label %83

83:                                               ; preds = %74
  call void @llvm.memset.p0.i64(ptr noundef nonnull align 8 dereferenceable(64) %8, i8 0, i64 64, i1 false)
  call void @_ZN6dealii13ExceptionBaseC2Ev(ptr noundef nonnull align 8 dereferenceable(60) %8)
  store ptr getelementptr inbounds ({ [6 x ptr] }, ptr @_ZTVN6dealii18StandardExceptions5ExcIOE, i64 0, inrange i32 0, i64 2), ptr %8, align 8, !tbaa !5
  invoke void @_ZN6dealii13ExceptionBase10set_fieldsEPKciS2_S2_S2_(ptr noundef nonnull align 8 dereferenceable(60) %8, ptr noundef nonnull @.str.16, i32 noundef 1712, ptr noundef nonnull @.str.10, ptr noundef nonnull @.str.22, ptr noundef nonnull @.str.18)
          to label %84 unwind label %90

84:                                               ; preds = %83
  %85 = call ptr @__cxa_allocate_exception(i64 64) #17
  invoke void @_ZN6dealii13ExceptionBaseC2ERKS0_(ptr noundef nonnull align 8 dereferenceable(60) %85, ptr noundef nonnull align 8 dereferenceable(60) %8)
          to label %86 unwind label %88

86:                                               ; preds = %84
  store ptr getelementptr inbounds ({ [6 x ptr] }, ptr @_ZTVN6dealii18StandardExceptions5ExcIOE, i64 0, inrange i32 0, i64 2), ptr %85, align 8, !tbaa !5
  invoke void @__cxa_throw(ptr nonnull %85, ptr nonnull @_ZTIN6dealii18StandardExceptions5ExcIOE, ptr nonnull @_ZN6dealii13ExceptionBaseD2Ev) #21
          to label %87 unwind label %90

87:                                               ; preds = %86
  unreachable

88:                                               ; preds = %84
  %89 = landingpad { ptr, i32 }
          cleanup
  call void @__cxa_free_exception(ptr %85) #17
  br label %93

90:                                               ; preds = %86, %83
  %91 = landingpad { ptr, i32 }
          cleanup
  br label %93

92:                                               ; preds = %74
  call void @llvm.lifetime.end.p0(i64 1, ptr nonnull %4) #17
  ret void

93:                                               ; preds = %90, %88, %67, %65, %54, %52, %39, %37
  %94 = phi ptr [ %5, %37 ], [ %5, %39 ], [ %6, %52 ], [ %6, %54 ], [ %7, %65 ], [ %7, %67 ], [ %8, %88 ], [ %8, %90 ]
  %95 = phi { ptr, i32 } [ %38, %37 ], [ %40, %39 ], [ %53, %52 ], [ %55, %54 ], [ %66, %65 ], [ %68, %67 ], [ %89, %88 ], [ %91, %90 ]
  call void @_ZN6dealii13ExceptionBaseD2Ev(ptr noundef nonnull align 8 dereferenceable(60) %94) #17
  call void @llvm.lifetime.end.p0(i64 1, ptr nonnull %4) #17
  br label %96

96:                                               ; preds = %93, %26
  %97 = phi { ptr, i32 } [ %95, %93 ], [ %27, %26 ]
  resume { ptr, i32 } %97
}

declare noundef nonnull align 8 dereferenceable(16) ptr @_ZStrsIcSt11char_traitsIcEERSt13basic_istreamIT_T0_ES6_RS3_(ptr noundef nonnull align 8 dereferenceable(16), ptr noundef nonnull align 1 dereferenceable(1)) local_unnamed_addr #1

declare noundef nonnull align 8 dereferenceable(16) ptr @_ZNSi4readEPcl(ptr noundef nonnull align 8 dereferenceable(16), ptr noundef, i64 noundef) local_unnamed_addr #1

; Function Attrs: sspstrong uwtable
define weak_odr dso_local void @_ZN6dealii12SparseMatrixIdE15ExcInvalidIndexC2Eii(ptr noundef nonnull align 8 dereferenceable(68) %0, i32 noundef %1, i32 noundef %2) unnamed_addr #0 comdat($_ZN6dealii12SparseMatrixIdE15ExcInvalidIndexC5Eii) align 2 {
  tail call void @_ZN6dealii13ExceptionBaseC2Ev(ptr noundef nonnull align 8 dereferenceable(60) %0)
  store ptr getelementptr inbounds ({ [6 x ptr] }, ptr @_ZTVN6dealii12SparseMatrixIdE15ExcInvalidIndexE, i64 0, inrange i32 0, i64 2), ptr %0, align 8, !tbaa !5
  %4 = getelementptr inbounds %"class.dealii::SparseMatrix<double>::ExcInvalidIndex", ptr %0, i64 0, i32 1
  store i32 %1, ptr %4, align 4, !tbaa !48
  %5 = getelementptr inbounds %"class.dealii::SparseMatrix<double>::ExcInvalidIndex", ptr %0, i64 0, i32 2
  store i32 %2, ptr %5, align 8, !tbaa !52
  ret void
}

declare void @_ZN6dealii13ExceptionBaseC2Ev(ptr noundef nonnull align 8 dereferenceable(60)) unnamed_addr #1

; Function Attrs: nounwind sspstrong uwtable
define weak_odr dso_local void @_ZN6dealii12SparseMatrixIdE15ExcInvalidIndexD2Ev(ptr noundef nonnull align 8 dereferenceable(68) %0) unnamed_addr #6 comdat($_ZN6dealii12SparseMatrixIdE15ExcInvalidIndexD5Ev) align 2 {
  tail call void @_ZN6dealii13ExceptionBaseD2Ev(ptr noundef nonnull align 8 dereferenceable(60) %0) #17
  ret void
}

; Function Attrs: nounwind sspstrong uwtable
define weak_odr dso_local void @_ZN6dealii12SparseMatrixIdE15ExcInvalidIndexD0Ev(ptr noundef nonnull align 8 dereferenceable(68) %0) unnamed_addr #6 comdat($_ZN6dealii12SparseMatrixIdE15ExcInvalidIndexD5Ev) align 2 {
  tail call void @_ZN6dealii13ExceptionBaseD2Ev(ptr noundef nonnull align 8 dereferenceable(60) %0) #17
  tail call void @_ZdlPv(ptr noundef nonnull %0) #19
  ret void
}

; Function Attrs: sspstrong uwtable
define weak_odr dso_local void @_ZNK6dealii12SparseMatrixIdE15ExcInvalidIndex10print_infoERSo(ptr noundef nonnull align 8 dereferenceable(68) %0, ptr noundef nonnull align 8 dereferenceable(8) %1) unnamed_addr #0 comdat align 2 {
  %3 = alloca i8, align 1
  %4 = tail call noundef nonnull align 8 dereferenceable(8) ptr @_ZSt16__ostream_insertIcSt11char_traitsIcEERSt13basic_ostreamIT_T0_ES6_PKS3_l(ptr noundef nonnull align 8 dereferenceable(8) %1, ptr noundef nonnull @.str.23, i64 noundef 22)
  %5 = getelementptr inbounds %"class.dealii::SparseMatrix<double>::ExcInvalidIndex", ptr %0, i64 0, i32 1
  %6 = load i32, ptr %5, align 4, !tbaa !48
  %7 = tail call noundef nonnull align 8 dereferenceable(8) ptr @_ZNSolsEi(ptr noundef nonnull align 8 dereferenceable(8) %1, i32 noundef %6)
  call void @llvm.lifetime.start.p0(i64 1, ptr nonnull %3)
  store i8 44, ptr %3, align 1, !tbaa !82
  %8 = load ptr, ptr %7, align 8, !tbaa !5
  %9 = getelementptr i8, ptr %8, i64 -24
  %10 = load i64, ptr %9, align 8
  %11 = getelementptr inbounds i8, ptr %7, i64 %10
  %12 = getelementptr inbounds %"class.std::ios_base", ptr %11, i64 0, i32 2
  %13 = load i64, ptr %12, align 8, !tbaa !86
  %14 = icmp eq i64 %13, 0
  br i1 %14, label %17, label %15

15:                                               ; preds = %2
  %16 = call noundef nonnull align 8 dereferenceable(8) ptr @_ZSt16__ostream_insertIcSt11char_traitsIcEERSt13basic_ostreamIT_T0_ES6_PKS3_l(ptr noundef nonnull align 8 dereferenceable(8) %7, ptr noundef nonnull %3, i64 noundef 1)
  br label %19

17:                                               ; preds = %2
  %18 = tail call noundef nonnull align 8 dereferenceable(8) ptr @_ZNSo3putEc(ptr noundef nonnull align 8 dereferenceable(8) %7, i8 noundef signext 44)
  br label %19

19:                                               ; preds = %15, %17
  %20 = phi ptr [ %16, %15 ], [ %7, %17 ]
  call void @llvm.lifetime.end.p0(i64 1, ptr nonnull %3)
  %21 = getelementptr inbounds %"class.dealii::SparseMatrix<double>::ExcInvalidIndex", ptr %0, i64 0, i32 2
  %22 = load i32, ptr %21, align 8, !tbaa !52
  %23 = call noundef nonnull align 8 dereferenceable(8) ptr @_ZNSolsEi(ptr noundef nonnull align 8 dereferenceable(8) %20, i32 noundef %22)
  %24 = call noundef nonnull align 8 dereferenceable(8) ptr @_ZSt16__ostream_insertIcSt11char_traitsIcEERSt13basic_ostreamIT_T0_ES6_PKS3_l(ptr noundef nonnull align 8 dereferenceable(8) %23, ptr noundef nonnull @.str.24, i64 noundef 17)
  %25 = load ptr, ptr %23, align 8, !tbaa !5
  %26 = getelementptr i8, ptr %25, i64 -24
  %27 = load i64, ptr %26, align 8
  %28 = getelementptr inbounds i8, ptr %23, i64 %27
  %29 = getelementptr inbounds %"class.std::basic_ios", ptr %28, i64 0, i32 5
  %30 = load ptr, ptr %29, align 8, !tbaa !77
  %31 = icmp eq ptr %30, null
  br i1 %31, label %32, label %33

32:                                               ; preds = %19
  call void @_ZSt16__throw_bad_castv() #21
  unreachable

33:                                               ; preds = %19
  %34 = getelementptr inbounds %"class.std::ctype", ptr %30, i64 0, i32 8
  %35 = load i8, ptr %34, align 8, !tbaa !79
  %36 = icmp eq i8 %35, 0
  br i1 %36, label %40, label %37

37:                                               ; preds = %33
  %38 = getelementptr inbounds %"class.std::ctype", ptr %30, i64 0, i32 9, i64 10
  %39 = load i8, ptr %38, align 1, !tbaa !82
  br label %45

40:                                               ; preds = %33
  call void @_ZNKSt5ctypeIcE13_M_widen_initEv(ptr noundef nonnull align 8 dereferenceable(570) %30)
  %41 = load ptr, ptr %30, align 8, !tbaa !5
  %42 = getelementptr inbounds ptr, ptr %41, i64 6
  %43 = load ptr, ptr %42, align 8
  %44 = call noundef signext i8 %43(ptr noundef nonnull align 8 dereferenceable(570) %30, i8 noundef signext 10)
  br label %45

45:                                               ; preds = %37, %40
  %46 = phi i8 [ %39, %37 ], [ %44, %40 ]
  %47 = call noundef nonnull align 8 dereferenceable(8) ptr @_ZNSo3putEc(ptr noundef nonnull align 8 dereferenceable(8) %23, i8 noundef signext %46)
  %48 = call noundef nonnull align 8 dereferenceable(8) ptr @_ZNSo5flushEv(ptr noundef nonnull align 8 dereferenceable(8) %47)
  ret void
}

declare noundef nonnull align 8 dereferenceable(8) ptr @_ZNSolsEi(ptr noundef nonnull align 8 dereferenceable(8), i32 noundef) local_unnamed_addr #1

; Function Attrs: sspstrong uwtable
define weak_odr dso_local void @_ZN6dealii12SparseMatrixIdE16ExcInvalidIndex1C2Ei(ptr noundef nonnull align 8 dereferenceable(64) %0, i32 noundef %1) unnamed_addr #0 comdat($_ZN6dealii12SparseMatrixIdE16ExcInvalidIndex1C5Ei) align 2 {
  tail call void @_ZN6dealii13ExceptionBaseC2Ev(ptr noundef nonnull align 8 dereferenceable(60) %0)
  store ptr getelementptr inbounds ({ [6 x ptr] }, ptr @_ZTVN6dealii12SparseMatrixIdE16ExcInvalidIndex1E, i64 0, inrange i32 0, i64 2), ptr %0, align 8, !tbaa !5
  %3 = getelementptr inbounds %"class.dealii::SparseMatrix<double>::ExcInvalidIndex1", ptr %0, i64 0, i32 1
  store i32 %1, ptr %3, align 4, !tbaa !87
  ret void
}

; Function Attrs: nounwind sspstrong uwtable
define weak_odr dso_local void @_ZN6dealii12SparseMatrixIdE16ExcInvalidIndex1D2Ev(ptr noundef nonnull align 8 dereferenceable(64) %0) unnamed_addr #6 comdat($_ZN6dealii12SparseMatrixIdE16ExcInvalidIndex1D5Ev) align 2 {
  tail call void @_ZN6dealii13ExceptionBaseD2Ev(ptr noundef nonnull align 8 dereferenceable(60) %0) #17
  ret void
}

; Function Attrs: nounwind sspstrong uwtable
define weak_odr dso_local void @_ZN6dealii12SparseMatrixIdE16ExcInvalidIndex1D0Ev(ptr noundef nonnull align 8 dereferenceable(64) %0) unnamed_addr #6 comdat($_ZN6dealii12SparseMatrixIdE16ExcInvalidIndex1D5Ev) align 2 {
  tail call void @_ZN6dealii13ExceptionBaseD2Ev(ptr noundef nonnull align 8 dereferenceable(60) %0) #17
  tail call void @_ZdlPv(ptr noundef nonnull %0) #19
  ret void
}

; Function Attrs: sspstrong uwtable
define weak_odr dso_local void @_ZNK6dealii12SparseMatrixIdE16ExcInvalidIndex110print_infoERSo(ptr noundef nonnull align 8 dereferenceable(64) %0, ptr noundef nonnull align 8 dereferenceable(8) %1) unnamed_addr #0 comdat align 2 {
  %3 = tail call noundef nonnull align 8 dereferenceable(8) ptr @_ZSt16__ostream_insertIcSt11char_traitsIcEERSt13basic_ostreamIT_T0_ES6_PKS3_l(ptr noundef nonnull align 8 dereferenceable(8) %1, ptr noundef nonnull @.str.25, i64 noundef 10)
  %4 = getelementptr inbounds %"class.dealii::SparseMatrix<double>::ExcInvalidIndex1", ptr %0, i64 0, i32 1
  %5 = load i32, ptr %4, align 4, !tbaa !87
  %6 = tail call noundef nonnull align 8 dereferenceable(8) ptr @_ZNSolsEi(ptr noundef nonnull align 8 dereferenceable(8) %1, i32 noundef %5)
  %7 = tail call noundef nonnull align 8 dereferenceable(8) ptr @_ZSt16__ostream_insertIcSt11char_traitsIcEERSt13basic_ostreamIT_T0_ES6_PKS3_l(ptr noundef nonnull align 8 dereferenceable(8) %6, ptr noundef nonnull @.str.26, i64 noundef 29)
  %8 = load ptr, ptr %6, align 8, !tbaa !5
  %9 = getelementptr i8, ptr %8, i64 -24
  %10 = load i64, ptr %9, align 8
  %11 = getelementptr inbounds i8, ptr %6, i64 %10
  %12 = getelementptr inbounds %"class.std::basic_ios", ptr %11, i64 0, i32 5
  %13 = load ptr, ptr %12, align 8, !tbaa !77
  %14 = icmp eq ptr %13, null
  br i1 %14, label %15, label %16

15:                                               ; preds = %2
  tail call void @_ZSt16__throw_bad_castv() #21
  unreachable

16:                                               ; preds = %2
  %17 = getelementptr inbounds %"class.std::ctype", ptr %13, i64 0, i32 8
  %18 = load i8, ptr %17, align 8, !tbaa !79
  %19 = icmp eq i8 %18, 0
  br i1 %19, label %23, label %20

20:                                               ; preds = %16
  %21 = getelementptr inbounds %"class.std::ctype", ptr %13, i64 0, i32 9, i64 10
  %22 = load i8, ptr %21, align 1, !tbaa !82
  br label %28

23:                                               ; preds = %16
  tail call void @_ZNKSt5ctypeIcE13_M_widen_initEv(ptr noundef nonnull align 8 dereferenceable(570) %13)
  %24 = load ptr, ptr %13, align 8, !tbaa !5
  %25 = getelementptr inbounds ptr, ptr %24, i64 6
  %26 = load ptr, ptr %25, align 8
  %27 = tail call noundef signext i8 %26(ptr noundef nonnull align 8 dereferenceable(570) %13, i8 noundef signext 10)
  br label %28

28:                                               ; preds = %20, %23
  %29 = phi i8 [ %22, %20 ], [ %27, %23 ]
  %30 = tail call noundef nonnull align 8 dereferenceable(8) ptr @_ZNSo3putEc(ptr noundef nonnull align 8 dereferenceable(8) %6, i8 noundef signext %29)
  %31 = tail call noundef nonnull align 8 dereferenceable(8) ptr @_ZNSo5flushEv(ptr noundef nonnull align 8 dereferenceable(8) %30)
  ret void
}

; Function Attrs: sspstrong uwtable
define weak_odr dso_local void @_ZN6dealii12SparseMatrixIdE16ExcIteratorRangeC2Eii(ptr noundef nonnull align 8 dereferenceable(68) %0, i32 noundef %1, i32 noundef %2) unnamed_addr #0 comdat($_ZN6dealii12SparseMatrixIdE16ExcIteratorRangeC5Eii) align 2 {
  tail call void @_ZN6dealii13ExceptionBaseC2Ev(ptr noundef nonnull align 8 dereferenceable(60) %0)
  store ptr getelementptr inbounds ({ [6 x ptr] }, ptr @_ZTVN6dealii12SparseMatrixIdE16ExcIteratorRangeE, i64 0, inrange i32 0, i64 2), ptr %0, align 8, !tbaa !5
  %4 = getelementptr inbounds %"class.dealii::SparseMatrix<double>::ExcIteratorRange", ptr %0, i64 0, i32 1
  store i32 %1, ptr %4, align 4, !tbaa !89
  %5 = getelementptr inbounds %"class.dealii::SparseMatrix<double>::ExcIteratorRange", ptr %0, i64 0, i32 2
  store i32 %2, ptr %5, align 8, !tbaa !91
  ret void
}

; Function Attrs: nounwind sspstrong uwtable
define weak_odr dso_local void @_ZN6dealii12SparseMatrixIdE16ExcIteratorRangeD2Ev(ptr noundef nonnull align 8 dereferenceable(68) %0) unnamed_addr #6 comdat($_ZN6dealii12SparseMatrixIdE16ExcIteratorRangeD5Ev) align 2 {
  tail call void @_ZN6dealii13ExceptionBaseD2Ev(ptr noundef nonnull align 8 dereferenceable(60) %0) #17
  ret void
}

; Function Attrs: nounwind sspstrong uwtable
define weak_odr dso_local void @_ZN6dealii12SparseMatrixIdE16ExcIteratorRangeD0Ev(ptr noundef nonnull align 8 dereferenceable(68) %0) unnamed_addr #6 comdat($_ZN6dealii12SparseMatrixIdE16ExcIteratorRangeD5Ev) align 2 {
  tail call void @_ZN6dealii13ExceptionBaseD2Ev(ptr noundef nonnull align 8 dereferenceable(60) %0) #17
  tail call void @_ZdlPv(ptr noundef nonnull %0) #19
  ret void
}

; Function Attrs: sspstrong uwtable
define weak_odr dso_local void @_ZNK6dealii12SparseMatrixIdE16ExcIteratorRange10print_infoERSo(ptr noundef nonnull align 8 dereferenceable(68) %0, ptr noundef nonnull align 8 dereferenceable(8) %1) unnamed_addr #0 comdat align 2 {
  %3 = tail call noundef nonnull align 8 dereferenceable(8) ptr @_ZSt16__ostream_insertIcSt11char_traitsIcEERSt13basic_ostreamIT_T0_ES6_PKS3_l(ptr noundef nonnull align 8 dereferenceable(8) %1, ptr noundef nonnull @.str.27, i64 noundef 32)
  %4 = getelementptr inbounds %"class.dealii::SparseMatrix<double>::ExcIteratorRange", ptr %0, i64 0, i32 1
  %5 = load i32, ptr %4, align 4, !tbaa !89
  %6 = tail call noundef nonnull align 8 dereferenceable(8) ptr @_ZNSolsEi(ptr noundef nonnull align 8 dereferenceable(8) %1, i32 noundef %5)
  %7 = tail call noundef nonnull align 8 dereferenceable(8) ptr @_ZSt16__ostream_insertIcSt11char_traitsIcEERSt13basic_ostreamIT_T0_ES6_PKS3_l(ptr noundef nonnull align 8 dereferenceable(8) %6, ptr noundef nonnull @.str.28, i64 noundef 44)
  %8 = getelementptr inbounds %"class.dealii::SparseMatrix<double>::ExcIteratorRange", ptr %0, i64 0, i32 2
  %9 = load i32, ptr %8, align 8, !tbaa !91
  %10 = tail call noundef nonnull align 8 dereferenceable(8) ptr @_ZNSolsEi(ptr noundef nonnull align 8 dereferenceable(8) %6, i32 noundef %9)
  %11 = load ptr, ptr %10, align 8, !tbaa !5
  %12 = getelementptr i8, ptr %11, i64 -24
  %13 = load i64, ptr %12, align 8
  %14 = getelementptr inbounds i8, ptr %10, i64 %13
  %15 = getelementptr inbounds %"class.std::basic_ios", ptr %14, i64 0, i32 5
  %16 = load ptr, ptr %15, align 8, !tbaa !77
  %17 = icmp eq ptr %16, null
  br i1 %17, label %18, label %19

18:                                               ; preds = %2
  tail call void @_ZSt16__throw_bad_castv() #21
  unreachable

19:                                               ; preds = %2
  %20 = getelementptr inbounds %"class.std::ctype", ptr %16, i64 0, i32 8
  %21 = load i8, ptr %20, align 8, !tbaa !79
  %22 = icmp eq i8 %21, 0
  br i1 %22, label %26, label %23

23:                                               ; preds = %19
  %24 = getelementptr inbounds %"class.std::ctype", ptr %16, i64 0, i32 9, i64 10
  %25 = load i8, ptr %24, align 1, !tbaa !82
  br label %31

26:                                               ; preds = %19
  tail call void @_ZNKSt5ctypeIcE13_M_widen_initEv(ptr noundef nonnull align 8 dereferenceable(570) %16)
  %27 = load ptr, ptr %16, align 8, !tbaa !5
  %28 = getelementptr inbounds ptr, ptr %27, i64 6
  %29 = load ptr, ptr %28, align 8
  %30 = tail call noundef signext i8 %29(ptr noundef nonnull align 8 dereferenceable(570) %16, i8 noundef signext 10)
  br label %31

31:                                               ; preds = %23, %26
  %32 = phi i8 [ %25, %23 ], [ %30, %26 ]
  %33 = tail call noundef nonnull align 8 dereferenceable(8) ptr @_ZNSo3putEc(ptr noundef nonnull align 8 dereferenceable(8) %10, i8 noundef signext %32)
  %34 = tail call noundef nonnull align 8 dereferenceable(8) ptr @_ZNSo5flushEv(ptr noundef nonnull align 8 dereferenceable(8) %33)
  ret void
}

; Function Attrs: sspstrong uwtable
define weak_odr dso_local void @_ZN6dealii12SparseMatrixIfEC2Ev(ptr noundef nonnull align 8 dereferenceable(36) %0, ptr noundef %1) unnamed_addr #0 comdat align 2 {
  %3 = load ptr, ptr %1, align 8
  store ptr %3, ptr %0, align 8, !tbaa !5
  %4 = getelementptr inbounds ptr, ptr %1, i64 1
  %5 = load ptr, ptr %4, align 8
  %6 = getelementptr i8, ptr %3, i64 -24
  %7 = load i64, ptr %6, align 8
  %8 = getelementptr inbounds i8, ptr %0, i64 %7
  store ptr %5, ptr %8, align 8, !tbaa !5
  %9 = getelementptr inbounds %"class.dealii::SparseMatrix.18", ptr %0, i64 0, i32 1
  store ptr null, ptr %9, align 8, !tbaa !8
  %10 = getelementptr inbounds %"class.dealii::SparseMatrix.18", ptr %0, i64 0, i32 1, i32 1
  store ptr @.str, ptr %10, align 8, !tbaa !12
  %11 = getelementptr inbounds %"class.dealii::SparseMatrix.18", ptr %0, i64 0, i32 2
  store ptr null, ptr %11, align 8, !tbaa !92
  %12 = getelementptr inbounds %"class.dealii::SparseMatrix.18", ptr %0, i64 0, i32 3
  store i32 0, ptr %12, align 8, !tbaa !94
  ret void
}

; Function Attrs: sspstrong uwtable
define weak_odr dso_local void @_ZN6dealii12SparseMatrixIfEC1Ev(ptr noundef nonnull align 8 dereferenceable(36) %0) unnamed_addr #0 comdat align 2 personality ptr @__gxx_personality_v0 {
  %2 = getelementptr inbounds i8, ptr %0, i64 40
  tail call void @_ZN6dealii11SubscriptorC2Ev(ptr noundef nonnull align 8 dereferenceable(72) %2)
  store ptr getelementptr inbounds ({ [7 x ptr], [5 x ptr] }, ptr @_ZTVN6dealii12SparseMatrixIfEE, i64 0, inrange i32 0, i64 3), ptr %0, align 8, !tbaa !5
  store ptr getelementptr inbounds ({ [7 x ptr], [5 x ptr] }, ptr @_ZTVN6dealii12SparseMatrixIfEE, i64 0, inrange i32 1, i64 3), ptr %2, align 8, !tbaa !5
  %3 = getelementptr inbounds %"class.dealii::SparseMatrix.18", ptr %0, i64 0, i32 1
  store ptr null, ptr %3, align 8, !tbaa !8
  %4 = getelementptr inbounds %"class.dealii::SparseMatrix.18", ptr %0, i64 0, i32 1, i32 1
  store ptr @.str, ptr %4, align 8, !tbaa !12
  %5 = getelementptr inbounds %"class.dealii::SparseMatrix.18", ptr %0, i64 0, i32 2
  store ptr null, ptr %5, align 8, !tbaa !92
  %6 = getelementptr inbounds %"class.dealii::SparseMatrix.18", ptr %0, i64 0, i32 3
  store i32 0, ptr %6, align 8, !tbaa !94
  ret void
}

; Function Attrs: sspstrong uwtable
define weak_odr dso_local void @_ZN6dealii12SparseMatrixIfEC2ERKS1_(ptr noundef nonnull align 8 dereferenceable(36) %0, ptr noundef %1, ptr noundef nonnull align 8 dereferenceable(36) %2) unnamed_addr #0 comdat align 2 {
  %4 = load ptr, ptr %1, align 8
  store ptr %4, ptr %0, align 8, !tbaa !5
  %5 = getelementptr inbounds ptr, ptr %1, i64 1
  %6 = load ptr, ptr %5, align 8
  %7 = getelementptr i8, ptr %4, i64 -24
  %8 = load i64, ptr %7, align 8
  %9 = getelementptr inbounds i8, ptr %0, i64 %8
  store ptr %6, ptr %9, align 8, !tbaa !5
  %10 = getelementptr inbounds %"class.dealii::SparseMatrix.18", ptr %0, i64 0, i32 1
  store ptr null, ptr %10, align 8, !tbaa !8
  %11 = getelementptr inbounds %"class.dealii::SparseMatrix.18", ptr %0, i64 0, i32 1, i32 1
  store ptr @.str, ptr %11, align 8, !tbaa !12
  %12 = getelementptr inbounds %"class.dealii::SparseMatrix.18", ptr %0, i64 0, i32 2
  store ptr null, ptr %12, align 8, !tbaa !92
  %13 = getelementptr inbounds %"class.dealii::SparseMatrix.18", ptr %0, i64 0, i32 3
  store i32 0, ptr %13, align 8, !tbaa !94
  ret void
}

; Function Attrs: sspstrong uwtable
define weak_odr dso_local void @_ZN6dealii12SparseMatrixIfEC1ERKS1_(ptr noundef nonnull align 8 dereferenceable(36) %0, ptr noundef nonnull align 8 dereferenceable(36) %1) unnamed_addr #0 comdat align 2 personality ptr @__gxx_personality_v0 {
  %3 = getelementptr inbounds i8, ptr %0, i64 40
  %4 = load ptr, ptr %1, align 8, !tbaa !5
  %5 = getelementptr i8, ptr %4, i64 -24
  %6 = load i64, ptr %5, align 8
  %7 = getelementptr inbounds i8, ptr %1, i64 %6
  tail call void @_ZN6dealii11SubscriptorC2ERKS0_(ptr noundef nonnull align 8 dereferenceable(72) %3, ptr noundef nonnull align 8 dereferenceable(72) %7)
  store ptr getelementptr inbounds ({ [7 x ptr], [5 x ptr] }, ptr @_ZTVN6dealii12SparseMatrixIfEE, i64 0, inrange i32 0, i64 3), ptr %0, align 8, !tbaa !5
  store ptr getelementptr inbounds ({ [7 x ptr], [5 x ptr] }, ptr @_ZTVN6dealii12SparseMatrixIfEE, i64 0, inrange i32 1, i64 3), ptr %3, align 8, !tbaa !5
  %8 = getelementptr inbounds %"class.dealii::SparseMatrix.18", ptr %0, i64 0, i32 1
  store ptr null, ptr %8, align 8, !tbaa !8
  %9 = getelementptr inbounds %"class.dealii::SparseMatrix.18", ptr %0, i64 0, i32 1, i32 1
  store ptr @.str, ptr %9, align 8, !tbaa !12
  %10 = getelementptr inbounds %"class.dealii::SparseMatrix.18", ptr %0, i64 0, i32 2
  store ptr null, ptr %10, align 8, !tbaa !92
  %11 = getelementptr inbounds %"class.dealii::SparseMatrix.18", ptr %0, i64 0, i32 3
  store i32 0, ptr %11, align 8, !tbaa !94
  ret void
}

; Function Attrs: sspstrong uwtable
define weak_odr dso_local void @_ZN6dealii12SparseMatrixIfEC2ERKNS_15SparsityPatternE(ptr noundef nonnull align 8 dereferenceable(36) %0, ptr noundef %1, ptr noundef nonnull align 8 dereferenceable(122) %2) unnamed_addr #0 comdat align 2 personality ptr @__gxx_personality_v0 {
  %4 = load ptr, ptr %1, align 8
  store ptr %4, ptr %0, align 8, !tbaa !5
  %5 = getelementptr inbounds ptr, ptr %1, i64 1
  %6 = load ptr, ptr %5, align 8
  %7 = getelementptr i8, ptr %4, i64 -24
  %8 = load i64, ptr %7, align 8
  %9 = getelementptr inbounds i8, ptr %0, i64 %8
  store ptr %6, ptr %9, align 8, !tbaa !5
  %10 = getelementptr inbounds %"class.dealii::SparseMatrix.18", ptr %0, i64 0, i32 1
  store ptr null, ptr %10, align 8, !tbaa !8
  %11 = getelementptr inbounds %"class.dealii::SparseMatrix.18", ptr %0, i64 0, i32 1, i32 1
  store ptr @.str, ptr %11, align 8, !tbaa !12
  %12 = getelementptr inbounds %"class.dealii::SparseMatrix.18", ptr %0, i64 0, i32 2
  store ptr null, ptr %12, align 8, !tbaa !92
  %13 = getelementptr inbounds %"class.dealii::SparseMatrix.18", ptr %0, i64 0, i32 3
  store i32 0, ptr %13, align 8, !tbaa !94
  %14 = load ptr, ptr %0, align 8, !tbaa !5
  %15 = getelementptr inbounds ptr, ptr %14, i64 2
  %16 = load ptr, ptr %15, align 8
  tail call void %16(ptr noundef nonnull align 8 dereferenceable(36) %0, ptr noundef nonnull align 8 dereferenceable(122) %2)
  ret void
}

; Function Attrs: sspstrong uwtable
define weak_odr dso_local void @_ZN6dealii12SparseMatrixIfEC1ERKNS_15SparsityPatternE(ptr noundef nonnull align 8 dereferenceable(36) %0, ptr noundef nonnull align 8 dereferenceable(122) %1) unnamed_addr #0 comdat align 2 personality ptr @__gxx_personality_v0 {
  %3 = getelementptr inbounds i8, ptr %0, i64 40
  tail call void @_ZN6dealii11SubscriptorC2Ev(ptr noundef nonnull align 8 dereferenceable(72) %3)
  store ptr getelementptr inbounds ({ [7 x ptr], [5 x ptr] }, ptr @_ZTVN6dealii12SparseMatrixIfEE, i64 0, inrange i32 0, i64 3), ptr %0, align 8, !tbaa !5
  store ptr getelementptr inbounds ({ [7 x ptr], [5 x ptr] }, ptr @_ZTVN6dealii12SparseMatrixIfEE, i64 0, inrange i32 1, i64 3), ptr %3, align 8, !tbaa !5
  %4 = getelementptr inbounds %"class.dealii::SparseMatrix.18", ptr %0, i64 0, i32 1
  store ptr null, ptr %4, align 8, !tbaa !8
  %5 = getelementptr inbounds %"class.dealii::SparseMatrix.18", ptr %0, i64 0, i32 1, i32 1
  store ptr @.str, ptr %5, align 8, !tbaa !12
  %6 = getelementptr inbounds %"class.dealii::SparseMatrix.18", ptr %0, i64 0, i32 2
  store ptr null, ptr %6, align 8, !tbaa !92
  %7 = getelementptr inbounds %"class.dealii::SparseMatrix.18", ptr %0, i64 0, i32 3
  store i32 0, ptr %7, align 8, !tbaa !94
  invoke void @_ZN6dealii12SparseMatrixIfE6reinitERKNS_15SparsityPatternE(ptr noundef nonnull align 8 dereferenceable(36) %0, ptr noundef nonnull align 8 dereferenceable(122) %1)
          to label %8 unwind label %9

8:                                                ; preds = %2
  ret void

9:                                                ; preds = %2
  %10 = landingpad { ptr, i32 }
          cleanup
  invoke void @_ZN6dealii11SubscriptorD2Ev(ptr noundef nonnull align 8 dereferenceable(72) %3)
          to label %11 unwind label %12

11:                                               ; preds = %9
  resume { ptr, i32 } %10

12:                                               ; preds = %9
  %13 = landingpad { ptr, i32 }
          catch ptr null
  %14 = extractvalue { ptr, i32 } %13, 0
  tail call void @__clang_call_terminate(ptr %14) #18
  unreachable
}

; Function Attrs: sspstrong uwtable
define weak_odr dso_local void @_ZN6dealii12SparseMatrixIfEC2ERKNS_15SparsityPatternERKNS_14IdentityMatrixE(ptr noundef nonnull align 8 dereferenceable(36) %0, ptr noundef %1, ptr noundef nonnull align 8 dereferenceable(122) %2, ptr noundef nonnull align 4 dereferenceable(4) %3) unnamed_addr #0 comdat align 2 personality ptr @__gxx_personality_v0 {
  %5 = load ptr, ptr %1, align 8
  store ptr %5, ptr %0, align 8, !tbaa !5
  %6 = getelementptr inbounds ptr, ptr %1, i64 1
  %7 = load ptr, ptr %6, align 8
  %8 = getelementptr i8, ptr %5, i64 -24
  %9 = load i64, ptr %8, align 8
  %10 = getelementptr inbounds i8, ptr %0, i64 %9
  store ptr %7, ptr %10, align 8, !tbaa !5
  %11 = getelementptr inbounds %"class.dealii::SparseMatrix.18", ptr %0, i64 0, i32 1
  store ptr null, ptr %11, align 8, !tbaa !8
  %12 = getelementptr inbounds %"class.dealii::SparseMatrix.18", ptr %0, i64 0, i32 1, i32 1
  store ptr @.str, ptr %12, align 8, !tbaa !12
  %13 = getelementptr inbounds %"class.dealii::SparseMatrix.18", ptr %0, i64 0, i32 2
  store ptr null, ptr %13, align 8, !tbaa !92
  %14 = getelementptr inbounds %"class.dealii::SparseMatrix.18", ptr %0, i64 0, i32 3
  store i32 0, ptr %14, align 8, !tbaa !94
  %15 = load ptr, ptr %0, align 8, !tbaa !5
  %16 = getelementptr inbounds ptr, ptr %15, i64 2
  %17 = load ptr, ptr %16, align 8
  tail call void %17(ptr noundef nonnull align 8 dereferenceable(36) %0, ptr noundef nonnull align 8 dereferenceable(122) %2)
  %18 = load ptr, ptr %11, align 8, !tbaa !8
  %19 = getelementptr inbounds %"class.dealii::SparsityPattern", ptr %18, i64 0, i32 3
  %20 = load i32, ptr %19, align 8, !tbaa !17
  %21 = icmp eq i32 %20, 0
  br i1 %21, label %22, label %23

22:                                               ; preds = %32, %4
  ret void

23:                                               ; preds = %4, %32
  %24 = phi ptr [ %34, %32 ], [ %18, %4 ]
  %25 = phi i32 [ %33, %32 ], [ 0, %4 ]
  %26 = tail call noundef i32 @_ZNK6dealii15SparsityPatternclEjj(ptr noundef nonnull align 8 dereferenceable(122) %24, i32 noundef %25, i32 noundef %25)
  %27 = icmp eq i32 %26, -1
  br i1 %27, label %32, label %28

28:                                               ; preds = %23
  %29 = load ptr, ptr %13, align 8, !tbaa !92
  %30 = zext i32 %26 to i64
  %31 = getelementptr inbounds float, ptr %29, i64 %30
  store float 1.000000e+00, ptr %31, align 4, !tbaa !95
  br label %32

32:                                               ; preds = %28, %23
  %33 = add nuw i32 %25, 1
  %34 = load ptr, ptr %11, align 8, !tbaa !8
  %35 = getelementptr inbounds %"class.dealii::SparsityPattern", ptr %34, i64 0, i32 3
  %36 = load i32, ptr %35, align 8, !tbaa !17
  %37 = icmp ult i32 %33, %36
  br i1 %37, label %23, label %22
}

; Function Attrs: inlinehint sspstrong uwtable
define weak_odr dso_local noundef i32 @_ZNK6dealii12SparseMatrixIfE1nEv(ptr noundef nonnull align 8 dereferenceable(36) %0) local_unnamed_addr #4 comdat align 2 {
  %2 = getelementptr inbounds %"class.dealii::SparseMatrix.18", ptr %0, i64 0, i32 1
  %3 = load ptr, ptr %2, align 8, !tbaa !8
  %4 = getelementptr inbounds %"class.dealii::SparsityPattern", ptr %3, i64 0, i32 3
  %5 = load i32, ptr %4, align 8, !tbaa !17
  ret i32 %5
}

; Function Attrs: inlinehint sspstrong uwtable
define weak_odr dso_local void @_ZN6dealii12SparseMatrixIfE3setEjjf(ptr noundef nonnull align 8 dereferenceable(36) %0, i32 noundef %1, i32 noundef %2, float noundef %3) local_unnamed_addr #4 comdat align 2 {
  %5 = getelementptr inbounds %"class.dealii::SparseMatrix.18", ptr %0, i64 0, i32 1
  %6 = load ptr, ptr %5, align 8, !tbaa !8
  %7 = tail call noundef i32 @_ZNK6dealii15SparsityPatternclEjj(ptr noundef nonnull align 8 dereferenceable(122) %6, i32 noundef %1, i32 noundef %2)
  %8 = icmp eq i32 %7, -1
  br i1 %8, label %14, label %9

9:                                                ; preds = %4
  %10 = getelementptr inbounds %"class.dealii::SparseMatrix.18", ptr %0, i64 0, i32 2
  %11 = load ptr, ptr %10, align 8, !tbaa !92
  %12 = zext i32 %7 to i64
  %13 = getelementptr inbounds float, ptr %11, i64 %12
  store float %3, ptr %13, align 4, !tbaa !95
  br label %14

14:                                               ; preds = %4, %9
  ret void
}

; Function Attrs: sspstrong uwtable
define weak_odr dso_local void @_ZN6dealii12SparseMatrixIfEC1ERKNS_15SparsityPatternERKNS_14IdentityMatrixE(ptr noundef nonnull align 8 dereferenceable(36) %0, ptr noundef nonnull align 8 dereferenceable(122) %1, ptr noundef nonnull align 4 dereferenceable(4) %2) unnamed_addr #0 comdat align 2 personality ptr @__gxx_personality_v0 {
  %4 = getelementptr inbounds i8, ptr %0, i64 40
  tail call void @_ZN6dealii11SubscriptorC2Ev(ptr noundef nonnull align 8 dereferenceable(72) %4)
  store ptr getelementptr inbounds ({ [7 x ptr], [5 x ptr] }, ptr @_ZTVN6dealii12SparseMatrixIfEE, i64 0, inrange i32 0, i64 3), ptr %0, align 8, !tbaa !5
  store ptr getelementptr inbounds ({ [7 x ptr], [5 x ptr] }, ptr @_ZTVN6dealii12SparseMatrixIfEE, i64 0, inrange i32 1, i64 3), ptr %4, align 8, !tbaa !5
  %5 = getelementptr inbounds %"class.dealii::SparseMatrix.18", ptr %0, i64 0, i32 1
  store ptr null, ptr %5, align 8, !tbaa !8
  %6 = getelementptr inbounds %"class.dealii::SparseMatrix.18", ptr %0, i64 0, i32 1, i32 1
  store ptr @.str, ptr %6, align 8, !tbaa !12
  %7 = getelementptr inbounds %"class.dealii::SparseMatrix.18", ptr %0, i64 0, i32 2
  store ptr null, ptr %7, align 8, !tbaa !92
  %8 = getelementptr inbounds %"class.dealii::SparseMatrix.18", ptr %0, i64 0, i32 3
  store i32 0, ptr %8, align 8, !tbaa !94
  invoke void @_ZN6dealii12SparseMatrixIfE6reinitERKNS_15SparsityPatternE(ptr noundef nonnull align 8 dereferenceable(36) %0, ptr noundef nonnull align 8 dereferenceable(122) %1)
          to label %9 unwind label %15

9:                                                ; preds = %3
  %10 = load ptr, ptr %5, align 8, !tbaa !8
  %11 = getelementptr inbounds %"class.dealii::SparsityPattern", ptr %10, i64 0, i32 3
  %12 = load i32, ptr %11, align 8, !tbaa !17
  %13 = icmp eq i32 %12, 0
  br i1 %13, label %14, label %19

14:                                               ; preds = %29, %9
  ret void

15:                                               ; preds = %3
  %16 = landingpad { ptr, i32 }
          cleanup
  br label %35

17:                                               ; preds = %19
  %18 = landingpad { ptr, i32 }
          cleanup
  br label %35

19:                                               ; preds = %9, %29
  %20 = phi ptr [ %31, %29 ], [ %10, %9 ]
  %21 = phi i32 [ %30, %29 ], [ 0, %9 ]
  %22 = invoke noundef i32 @_ZNK6dealii15SparsityPatternclEjj(ptr noundef nonnull align 8 dereferenceable(122) %20, i32 noundef %21, i32 noundef %21)
          to label %23 unwind label %17

23:                                               ; preds = %19
  %24 = icmp eq i32 %22, -1
  br i1 %24, label %29, label %25

25:                                               ; preds = %23
  %26 = load ptr, ptr %7, align 8, !tbaa !92
  %27 = zext i32 %22 to i64
  %28 = getelementptr inbounds float, ptr %26, i64 %27
  store float 1.000000e+00, ptr %28, align 4, !tbaa !95
  br label %29

29:                                               ; preds = %25, %23
  %30 = add nuw i32 %21, 1
  %31 = load ptr, ptr %5, align 8, !tbaa !8
  %32 = getelementptr inbounds %"class.dealii::SparsityPattern", ptr %31, i64 0, i32 3
  %33 = load i32, ptr %32, align 8, !tbaa !17
  %34 = icmp ult i32 %30, %33
  br i1 %34, label %19, label %14

35:                                               ; preds = %15, %17
  %36 = phi { ptr, i32 } [ %18, %17 ], [ %16, %15 ]
  invoke void @_ZN6dealii11SubscriptorD2Ev(ptr noundef nonnull align 8 dereferenceable(72) %4)
          to label %37 unwind label %38

37:                                               ; preds = %35
  resume { ptr, i32 } %36

38:                                               ; preds = %35
  %39 = landingpad { ptr, i32 }
          catch ptr null
  %40 = extractvalue { ptr, i32 } %39, 0
  tail call void @__clang_call_terminate(ptr %40) #18
  unreachable
}

; Function Attrs: sspstrong uwtable
define weak_odr dso_local void @_ZN6dealii12SparseMatrixIfED2Ev(ptr noundef nonnull align 8 dereferenceable(36) %0, ptr noundef %1) unnamed_addr #0 comdat align 2 personality ptr @__gxx_personality_v0 {
  %3 = load ptr, ptr %1, align 8
  store ptr %3, ptr %0, align 8, !tbaa !5
  %4 = getelementptr inbounds ptr, ptr %1, i64 1
  %5 = load ptr, ptr %4, align 8
  %6 = getelementptr i8, ptr %3, i64 -24
  %7 = load i64, ptr %6, align 8
  %8 = getelementptr inbounds i8, ptr %0, i64 %7
  store ptr %5, ptr %8, align 8, !tbaa !5
  %9 = getelementptr inbounds %"class.dealii::SparseMatrix.18", ptr %0, i64 0, i32 1
  %10 = load ptr, ptr %9, align 8, !tbaa !8
  %11 = icmp eq ptr %10, null
  br i1 %11, label %13, label %12

12:                                               ; preds = %2
  store ptr null, ptr %9, align 8, !tbaa !8
  br label %13

13:                                               ; preds = %2, %12
  %14 = getelementptr inbounds %"class.dealii::SparseMatrix.18", ptr %0, i64 0, i32 2
  %15 = load ptr, ptr %14, align 8, !tbaa !92
  %16 = icmp eq ptr %15, null
  br i1 %16, label %18, label %17

17:                                               ; preds = %13
  tail call void @_ZdaPv(ptr noundef nonnull %15) #19
  br label %18

18:                                               ; preds = %17, %13
  ret void
}

; Function Attrs: sspstrong uwtable
define weak_odr dso_local void @_ZN6dealii12SparseMatrixIfED1Ev(ptr noundef nonnull align 8 dereferenceable(36) %0) unnamed_addr #0 comdat align 2 personality ptr @__gxx_personality_v0 {
  store ptr getelementptr inbounds ({ [7 x ptr], [5 x ptr] }, ptr @_ZTVN6dealii12SparseMatrixIfEE, i64 0, inrange i32 0, i64 3), ptr %0, align 8, !tbaa !5
  %2 = getelementptr inbounds i8, ptr %0, i64 40
  store ptr getelementptr inbounds ({ [7 x ptr], [5 x ptr] }, ptr @_ZTVN6dealii12SparseMatrixIfEE, i64 0, inrange i32 1, i64 3), ptr %2, align 8, !tbaa !5
  %3 = getelementptr inbounds %"class.dealii::SparseMatrix.18", ptr %0, i64 0, i32 1
  %4 = load ptr, ptr %3, align 8, !tbaa !8
  %5 = icmp eq ptr %4, null
  br i1 %5, label %7, label %6

6:                                                ; preds = %1
  store ptr null, ptr %3, align 8, !tbaa !8
  br label %7

7:                                                ; preds = %6, %1
  %8 = getelementptr inbounds %"class.dealii::SparseMatrix.18", ptr %0, i64 0, i32 2
  %9 = load ptr, ptr %8, align 8, !tbaa !92
  %10 = icmp eq ptr %9, null
  br i1 %10, label %12, label %11

11:                                               ; preds = %7
  tail call void @_ZdaPv(ptr noundef nonnull %9) #19
  br label %12

12:                                               ; preds = %11, %7
  tail call void @_ZN6dealii11SubscriptorD2Ev(ptr noundef nonnull align 8 dereferenceable(72) %2)
  ret void
}

; Function Attrs: sspstrong uwtable
define weak_odr dso_local void @_ZTv0_n24_N6dealii12SparseMatrixIfED1Ev(ptr noundef %0) unnamed_addr #0 comdat align 2 personality ptr @__gxx_personality_v0 {
  %2 = load ptr, ptr %0, align 8
  %3 = getelementptr inbounds i8, ptr %2, i64 -24
  %4 = load i64, ptr %3, align 8
  %5 = getelementptr inbounds i8, ptr %0, i64 %4
  store ptr getelementptr inbounds ({ [7 x ptr], [5 x ptr] }, ptr @_ZTVN6dealii12SparseMatrixIfEE, i64 0, inrange i32 0, i64 3), ptr %5, align 8, !tbaa !5
  %6 = getelementptr inbounds i8, ptr %5, i64 40
  store ptr getelementptr inbounds ({ [7 x ptr], [5 x ptr] }, ptr @_ZTVN6dealii12SparseMatrixIfEE, i64 0, inrange i32 1, i64 3), ptr %6, align 8, !tbaa !5
  %7 = getelementptr inbounds %"class.dealii::SparseMatrix.18", ptr %5, i64 0, i32 1
  %8 = load ptr, ptr %7, align 8, !tbaa !8
  %9 = icmp eq ptr %8, null
  br i1 %9, label %11, label %10

10:                                               ; preds = %1
  store ptr null, ptr %7, align 8, !tbaa !8
  br label %11

11:                                               ; preds = %10, %1
  %12 = getelementptr inbounds %"class.dealii::SparseMatrix.18", ptr %5, i64 0, i32 2
  %13 = load ptr, ptr %12, align 8, !tbaa !92
  %14 = icmp eq ptr %13, null
  br i1 %14, label %16, label %15

15:                                               ; preds = %11
  tail call void @_ZdaPv(ptr noundef nonnull %13) #19
  br label %16

16:                                               ; preds = %11, %15
  tail call void @_ZN6dealii11SubscriptorD2Ev(ptr noundef nonnull align 8 dereferenceable(72) %6)
  ret void
}

; Function Attrs: sspstrong uwtable
define weak_odr dso_local void @_ZN6dealii12SparseMatrixIfED0Ev(ptr noundef nonnull align 8 dereferenceable(36) %0) unnamed_addr #0 comdat align 2 personality ptr @__gxx_personality_v0 {
  store ptr getelementptr inbounds ({ [7 x ptr], [5 x ptr] }, ptr @_ZTVN6dealii12SparseMatrixIfEE, i64 0, inrange i32 0, i64 3), ptr %0, align 8, !tbaa !5
  %2 = getelementptr inbounds i8, ptr %0, i64 40
  store ptr getelementptr inbounds ({ [7 x ptr], [5 x ptr] }, ptr @_ZTVN6dealii12SparseMatrixIfEE, i64 0, inrange i32 1, i64 3), ptr %2, align 8, !tbaa !5
  %3 = getelementptr inbounds %"class.dealii::SparseMatrix.18", ptr %0, i64 0, i32 1
  %4 = load ptr, ptr %3, align 8, !tbaa !8
  %5 = icmp eq ptr %4, null
  br i1 %5, label %7, label %6

6:                                                ; preds = %1
  store ptr null, ptr %3, align 8, !tbaa !8
  br label %7

7:                                                ; preds = %6, %1
  %8 = getelementptr inbounds %"class.dealii::SparseMatrix.18", ptr %0, i64 0, i32 2
  %9 = load ptr, ptr %8, align 8, !tbaa !92
  %10 = icmp eq ptr %9, null
  br i1 %10, label %12, label %11

11:                                               ; preds = %7
  tail call void @_ZdaPv(ptr noundef nonnull %9) #19
  br label %12

12:                                               ; preds = %11, %7
  invoke void @_ZN6dealii11SubscriptorD2Ev(ptr noundef nonnull align 8 dereferenceable(72) %2)
          to label %13 unwind label %14

13:                                               ; preds = %12
  tail call void @_ZdlPv(ptr noundef nonnull %0) #19
  ret void

14:                                               ; preds = %12
  %15 = landingpad { ptr, i32 }
          cleanup
  tail call void @_ZdlPv(ptr noundef nonnull %0) #19
  resume { ptr, i32 } %15
}

; Function Attrs: sspstrong uwtable
define weak_odr dso_local void @_ZTv0_n24_N6dealii12SparseMatrixIfED0Ev(ptr noundef %0) unnamed_addr #0 comdat align 2 personality ptr @__gxx_personality_v0 {
  %2 = load ptr, ptr %0, align 8
  %3 = getelementptr inbounds i8, ptr %2, i64 -24
  %4 = load i64, ptr %3, align 8
  %5 = getelementptr inbounds i8, ptr %0, i64 %4
  store ptr getelementptr inbounds ({ [7 x ptr], [5 x ptr] }, ptr @_ZTVN6dealii12SparseMatrixIfEE, i64 0, inrange i32 0, i64 3), ptr %5, align 8, !tbaa !5
  %6 = getelementptr inbounds i8, ptr %5, i64 40
  store ptr getelementptr inbounds ({ [7 x ptr], [5 x ptr] }, ptr @_ZTVN6dealii12SparseMatrixIfEE, i64 0, inrange i32 1, i64 3), ptr %6, align 8, !tbaa !5
  %7 = getelementptr inbounds %"class.dealii::SparseMatrix.18", ptr %5, i64 0, i32 1
  %8 = load ptr, ptr %7, align 8, !tbaa !8
  %9 = icmp eq ptr %8, null
  br i1 %9, label %11, label %10

10:                                               ; preds = %1
  store ptr null, ptr %7, align 8, !tbaa !8
  br label %11

11:                                               ; preds = %10, %1
  %12 = getelementptr inbounds %"class.dealii::SparseMatrix.18", ptr %5, i64 0, i32 2
  %13 = load ptr, ptr %12, align 8, !tbaa !92
  %14 = icmp eq ptr %13, null
  br i1 %14, label %16, label %15

15:                                               ; preds = %11
  tail call void @_ZdaPv(ptr noundef nonnull %13) #19
  br label %16

16:                                               ; preds = %15, %11
  invoke void @_ZN6dealii11SubscriptorD2Ev(ptr noundef nonnull align 8 dereferenceable(72) %6)
          to label %19 unwind label %17

17:                                               ; preds = %16
  %18 = landingpad { ptr, i32 }
          cleanup
  tail call void @_ZdlPv(ptr noundef nonnull %5) #19
  resume { ptr, i32 } %18

19:                                               ; preds = %16
  tail call void @_ZdlPv(ptr noundef nonnull %5) #19
  ret void
}

; Function Attrs: nounwind sspstrong uwtable
define weak_odr dso_local noundef nonnull align 8 dereferenceable(36) ptr @_ZN6dealii12SparseMatrixIfEaSERKS1_(ptr noundef nonnull align 8 dereferenceable(36) %0, ptr noundef nonnull align 8 dereferenceable(36) %1) local_unnamed_addr #6 comdat align 2 {
  ret ptr %0
}

; Function Attrs: sspstrong uwtable
define weak_odr dso_local noundef nonnull align 8 dereferenceable(36) ptr @_ZN6dealii12SparseMatrixIfEaSERKNS_14IdentityMatrixE(ptr noundef nonnull align 8 dereferenceable(36) %0, ptr noundef nonnull align 4 dereferenceable(4) %1) local_unnamed_addr #0 comdat align 2 {
  %3 = getelementptr inbounds %"class.dealii::SparseMatrix.18", ptr %0, i64 0, i32 2
  %4 = load ptr, ptr %3, align 8, !tbaa !92
  %5 = icmp eq ptr %4, null
  %6 = getelementptr inbounds %"class.dealii::SparseMatrix.18", ptr %0, i64 0, i32 1
  %7 = load ptr, ptr %6, align 8, !tbaa !8
  br i1 %5, label %22, label %8

8:                                                ; preds = %2
  %9 = getelementptr inbounds %"class.dealii::SparsityPattern", ptr %7, i64 0, i32 8
  %10 = load ptr, ptr %9, align 8, !tbaa !32
  %11 = getelementptr inbounds %"class.dealii::SparsityPattern", ptr %7, i64 0, i32 2
  %12 = load i32, ptr %11, align 4, !tbaa !33
  %13 = zext i32 %12 to i64
  %14 = getelementptr inbounds i64, ptr %10, i64 %13
  %15 = load i64, ptr %14, align 8, !tbaa !34
  %16 = load i64, ptr %10, align 8, !tbaa !34
  %17 = sub i64 %15, %16
  %18 = and i64 %17, 4294967295
  %19 = icmp eq i64 %18, 0
  br i1 %19, label %22, label %20

20:                                               ; preds = %8
  %21 = shl nuw nsw i64 %18, 2
  tail call void @llvm.memset.p0.i64(ptr nonnull align 4 %4, i8 0, i64 %21, i1 false), !tbaa !95
  br label %22

22:                                               ; preds = %2, %8, %20
  %23 = getelementptr inbounds %"class.dealii::SparseMatrix.18", ptr %0, i64 0, i32 1
  %24 = getelementptr inbounds %"class.dealii::SparsityPattern", ptr %7, i64 0, i32 3
  %25 = load i32, ptr %24, align 8, !tbaa !17
  %26 = icmp eq i32 %25, 0
  br i1 %26, label %27, label %28

27:                                               ; preds = %37, %22
  ret ptr %0

28:                                               ; preds = %22, %37
  %29 = phi ptr [ %39, %37 ], [ %7, %22 ]
  %30 = phi i32 [ %38, %37 ], [ 0, %22 ]
  %31 = tail call noundef i32 @_ZNK6dealii15SparsityPatternclEjj(ptr noundef nonnull align 8 dereferenceable(122) %29, i32 noundef %30, i32 noundef %30)
  %32 = icmp eq i32 %31, -1
  br i1 %32, label %37, label %33

33:                                               ; preds = %28
  %34 = load ptr, ptr %3, align 8, !tbaa !92
  %35 = zext i32 %31 to i64
  %36 = getelementptr inbounds float, ptr %34, i64 %35
  store float 1.000000e+00, ptr %36, align 4, !tbaa !95
  br label %37

37:                                               ; preds = %28, %33
  %38 = add nuw i32 %30, 1
  %39 = load ptr, ptr %23, align 8, !tbaa !8
  %40 = getelementptr inbounds %"class.dealii::SparsityPattern", ptr %39, i64 0, i32 3
  %41 = load i32, ptr %40, align 8, !tbaa !17
  %42 = icmp ult i32 %38, %41
  br i1 %42, label %28, label %27
}

; Function Attrs: sspstrong uwtable
define weak_odr dso_local noundef nonnull align 8 dereferenceable(36) ptr @_ZN6dealii12SparseMatrixIfEaSEd(ptr noundef nonnull align 8 dereferenceable(36) %0, double noundef %1) local_unnamed_addr #0 comdat align 2 {
  %3 = getelementptr inbounds %"class.dealii::SparseMatrix.18", ptr %0, i64 0, i32 2
  %4 = load ptr, ptr %3, align 8, !tbaa !92
  %5 = icmp eq ptr %4, null
  br i1 %5, label %22, label %6

6:                                                ; preds = %2
  %7 = getelementptr inbounds %"class.dealii::SparseMatrix.18", ptr %0, i64 0, i32 1
  %8 = load ptr, ptr %7, align 8, !tbaa !8
  %9 = getelementptr inbounds %"class.dealii::SparsityPattern", ptr %8, i64 0, i32 8
  %10 = load ptr, ptr %9, align 8, !tbaa !32
  %11 = getelementptr inbounds %"class.dealii::SparsityPattern", ptr %8, i64 0, i32 2
  %12 = load i32, ptr %11, align 4, !tbaa !33
  %13 = zext i32 %12 to i64
  %14 = getelementptr inbounds i64, ptr %10, i64 %13
  %15 = load i64, ptr %14, align 8, !tbaa !34
  %16 = load i64, ptr %10, align 8, !tbaa !34
  %17 = sub i64 %15, %16
  %18 = and i64 %17, 4294967295
  %19 = icmp eq i64 %18, 0
  br i1 %19, label %22, label %20

20:                                               ; preds = %6
  %21 = shl nuw nsw i64 %18, 2
  tail call void @llvm.memset.p0.i64(ptr nonnull align 4 %4, i8 0, i64 %21, i1 false), !tbaa !95
  br label %22

22:                                               ; preds = %20, %6, %2
  ret ptr %0
}

; Function Attrs: sspstrong uwtable
define weak_odr dso_local void @_ZN6dealii12SparseMatrixIfE6reinitERKNS_15SparsityPatternE(ptr noundef nonnull align 8 dereferenceable(36) %0, ptr noundef nonnull align 8 dereferenceable(122) %1) unnamed_addr #0 comdat align 2 {
  %3 = getelementptr inbounds %"class.dealii::SparseMatrix.18", ptr %0, i64 0, i32 1
  %4 = load ptr, ptr %3, align 8, !tbaa !8
  %5 = icmp eq ptr %4, %1
  br i1 %5, label %7, label %6

6:                                                ; preds = %2
  store ptr %1, ptr %3, align 8, !tbaa !8
  br label %7

7:                                                ; preds = %2, %6
  %8 = tail call noundef zeroext i1 @_ZNK6dealii15SparsityPattern5emptyEv(ptr noundef nonnull align 8 dereferenceable(122) %1)
  br i1 %8, label %9, label %16

9:                                                ; preds = %7
  %10 = getelementptr inbounds %"class.dealii::SparseMatrix.18", ptr %0, i64 0, i32 2
  %11 = load ptr, ptr %10, align 8, !tbaa !92
  %12 = icmp eq ptr %11, null
  br i1 %12, label %14, label %13

13:                                               ; preds = %9
  tail call void @_ZdaPv(ptr noundef nonnull %11) #19
  br label %14

14:                                               ; preds = %13, %9
  store ptr null, ptr %10, align 8, !tbaa !92
  %15 = getelementptr inbounds %"class.dealii::SparseMatrix.18", ptr %0, i64 0, i32 3
  store i32 0, ptr %15, align 8, !tbaa !94
  br label %50

16:                                               ; preds = %7
  %17 = load ptr, ptr %3, align 8, !tbaa !8
  %18 = getelementptr inbounds %"class.dealii::SparsityPattern", ptr %17, i64 0, i32 8
  %19 = load ptr, ptr %18, align 8, !tbaa !32
  %20 = getelementptr inbounds %"class.dealii::SparsityPattern", ptr %17, i64 0, i32 2
  %21 = load i32, ptr %20, align 4, !tbaa !33
  %22 = zext i32 %21 to i64
  %23 = getelementptr inbounds i64, ptr %19, i64 %22
  %24 = load i64, ptr %23, align 8, !tbaa !34
  %25 = load i64, ptr %19, align 8, !tbaa !34
  %26 = sub i64 %24, %25
  %27 = trunc i64 %26 to i32
  %28 = getelementptr inbounds %"class.dealii::SparseMatrix.18", ptr %0, i64 0, i32 3
  %29 = load i32, ptr %28, align 8, !tbaa !94
  %30 = icmp ult i32 %29, %27
  %31 = icmp eq i32 %29, 0
  %32 = or i1 %31, %30
  %33 = getelementptr inbounds %"class.dealii::SparseMatrix.18", ptr %0, i64 0, i32 2
  %34 = load ptr, ptr %33, align 8, !tbaa !92
  br i1 %32, label %35, label %42

35:                                               ; preds = %16
  %36 = icmp eq ptr %34, null
  br i1 %36, label %38, label %37

37:                                               ; preds = %35
  tail call void @_ZdaPv(ptr noundef nonnull %34) #19
  br label %38

38:                                               ; preds = %37, %35
  %39 = shl i64 %26, 2
  %40 = and i64 %39, 17179869180
  %41 = tail call noalias noundef nonnull ptr @_Znam(i64 noundef %40) #20
  store ptr %41, ptr %33, align 8, !tbaa !92
  store i32 %27, ptr %28, align 8, !tbaa !94
  br label %42

42:                                               ; preds = %16, %38
  %43 = phi ptr [ %41, %38 ], [ %34, %16 ]
  %44 = icmp eq ptr %43, null
  %45 = icmp eq i32 %27, 0
  %46 = or i1 %45, %44
  br i1 %46, label %50, label %47

47:                                               ; preds = %42
  %48 = shl i64 %26, 2
  %49 = and i64 %48, 17179869180
  tail call void @llvm.memset.p0.i64(ptr nonnull align 4 %43, i8 0, i64 %49, i1 false), !tbaa !95
  br label %50

50:                                               ; preds = %47, %42, %14
  ret void
}

; Function Attrs: sspstrong uwtable
define weak_odr dso_local void @_ZN6dealii12SparseMatrixIfE5clearEv(ptr noundef nonnull align 8 dereferenceable(36) %0) unnamed_addr #0 comdat align 2 {
  %2 = getelementptr inbounds %"class.dealii::SparseMatrix.18", ptr %0, i64 0, i32 1
  %3 = load ptr, ptr %2, align 8, !tbaa !8
  %4 = icmp eq ptr %3, null
  br i1 %4, label %6, label %5

5:                                                ; preds = %1
  store ptr null, ptr %2, align 8, !tbaa !8
  br label %6

6:                                                ; preds = %1, %5
  %7 = getelementptr inbounds %"class.dealii::SparseMatrix.18", ptr %0, i64 0, i32 2
  %8 = load ptr, ptr %7, align 8, !tbaa !92
  %9 = icmp eq ptr %8, null
  br i1 %9, label %11, label %10

10:                                               ; preds = %6
  tail call void @_ZdaPv(ptr noundef nonnull %8) #19
  br label %11

11:                                               ; preds = %10, %6
  store ptr null, ptr %7, align 8, !tbaa !92
  %12 = getelementptr inbounds %"class.dealii::SparseMatrix.18", ptr %0, i64 0, i32 3
  store i32 0, ptr %12, align 8, !tbaa !94
  ret void
}

; Function Attrs: sspstrong uwtable
define weak_odr dso_local noundef zeroext i1 @_ZNK6dealii12SparseMatrixIfE5emptyEv(ptr noundef nonnull align 8 dereferenceable(36) %0) local_unnamed_addr #0 comdat align 2 {
  %2 = getelementptr inbounds %"class.dealii::SparseMatrix.18", ptr %0, i64 0, i32 1
  %3 = load ptr, ptr %2, align 8, !tbaa !8
  %4 = icmp eq ptr %3, null
  br i1 %4, label %7, label %5

5:                                                ; preds = %1
  %6 = tail call noundef zeroext i1 @_ZNK6dealii15SparsityPattern5emptyEv(ptr noundef nonnull align 8 dereferenceable(122) %3)
  br label %7

7:                                                ; preds = %1, %5
  %8 = phi i1 [ %6, %5 ], [ true, %1 ]
  ret i1 %8
}

; Function Attrs: inlinehint sspstrong uwtable
define weak_odr dso_local noundef i32 @_ZNK6dealii12SparseMatrixIfE1mEv(ptr noundef nonnull align 8 dereferenceable(36) %0) local_unnamed_addr #4 comdat align 2 {
  %2 = getelementptr inbounds %"class.dealii::SparseMatrix.18", ptr %0, i64 0, i32 1
  %3 = load ptr, ptr %2, align 8, !tbaa !8
  %4 = getelementptr inbounds %"class.dealii::SparsityPattern", ptr %3, i64 0, i32 2
  %5 = load i32, ptr %4, align 4, !tbaa !33
  ret i32 %5
}

; Function Attrs: sspstrong uwtable
define weak_odr dso_local noundef i32 @_ZNK6dealii12SparseMatrixIfE18n_nonzero_elementsEv(ptr noundef nonnull align 8 dereferenceable(36) %0) local_unnamed_addr #0 comdat align 2 {
  %2 = getelementptr inbounds %"class.dealii::SparseMatrix.18", ptr %0, i64 0, i32 1
  %3 = load ptr, ptr %2, align 8, !tbaa !8
  %4 = getelementptr inbounds %"class.dealii::SparsityPattern", ptr %3, i64 0, i32 8
  %5 = load ptr, ptr %4, align 8, !tbaa !32
  %6 = getelementptr inbounds %"class.dealii::SparsityPattern", ptr %3, i64 0, i32 2
  %7 = load i32, ptr %6, align 4, !tbaa !33
  %8 = zext i32 %7 to i64
  %9 = getelementptr inbounds i64, ptr %5, i64 %8
  %10 = load i64, ptr %9, align 8, !tbaa !34
  %11 = load i64, ptr %5, align 8, !tbaa !34
  %12 = sub i64 %10, %11
  %13 = trunc i64 %12 to i32
  ret i32 %13
}

; Function Attrs: sspstrong uwtable
define weak_odr dso_local noundef i32 @_ZNK6dealii12SparseMatrixIfE27n_actually_nonzero_elementsEd(ptr noundef nonnull align 8 dereferenceable(36) %0, double noundef %1) local_unnamed_addr #0 comdat align 2 {
  %3 = getelementptr inbounds %"class.dealii::SparseMatrix.18", ptr %0, i64 0, i32 1
  %4 = load ptr, ptr %3, align 8, !tbaa !8
  %5 = getelementptr inbounds %"class.dealii::SparsityPattern", ptr %4, i64 0, i32 8
  %6 = load ptr, ptr %5, align 8, !tbaa !32
  %7 = getelementptr inbounds %"class.dealii::SparsityPattern", ptr %4, i64 0, i32 2
  %8 = load i32, ptr %7, align 4, !tbaa !33
  %9 = zext i32 %8 to i64
  %10 = getelementptr inbounds i64, ptr %6, i64 %9
  %11 = load i64, ptr %10, align 8, !tbaa !34
  %12 = load i64, ptr %6, align 8, !tbaa !34
  %13 = sub i64 %11, %12
  %14 = and i64 %13, 4294967295
  %15 = icmp eq i64 %14, 0
  br i1 %15, label %77, label %16

16:                                               ; preds = %2
  %17 = getelementptr inbounds %"class.dealii::SparseMatrix.18", ptr %0, i64 0, i32 2
  %18 = load ptr, ptr %17, align 8, !tbaa !92
  %19 = and i64 %13, 4294967295
  %20 = icmp ult i64 %19, 16
  br i1 %20, label %74, label %21

21:                                               ; preds = %16
  %22 = and i64 %13, 15
  %23 = sub nsw i64 %19, %22
  %24 = insertelement <4 x double> poison, double %1, i64 0
  %25 = shufflevector <4 x double> %24, <4 x double> poison, <4 x i32> zeroinitializer
  %26 = insertelement <4 x double> poison, double %1, i64 0
  %27 = shufflevector <4 x double> %26, <4 x double> poison, <4 x i32> zeroinitializer
  %28 = insertelement <4 x double> poison, double %1, i64 0
  %29 = shufflevector <4 x double> %28, <4 x double> poison, <4 x i32> zeroinitializer
  %30 = insertelement <4 x double> poison, double %1, i64 0
  %31 = shufflevector <4 x double> %30, <4 x double> poison, <4 x i32> zeroinitializer
  br label %32

32:                                               ; preds = %32, %21
  %33 = phi i64 [ 0, %21 ], [ %66, %32 ]
  %34 = phi <4 x i32> [ zeroinitializer, %21 ], [ %62, %32 ]
  %35 = phi <4 x i32> [ zeroinitializer, %21 ], [ %63, %32 ]
  %36 = phi <4 x i32> [ zeroinitializer, %21 ], [ %64, %32 ]
  %37 = phi <4 x i32> [ zeroinitializer, %21 ], [ %65, %32 ]
  %38 = getelementptr inbounds float, ptr %18, i64 %33
  %39 = load <4 x float>, ptr %38, align 4, !tbaa !95
  %40 = getelementptr inbounds float, ptr %38, i64 4
  %41 = load <4 x float>, ptr %40, align 4, !tbaa !95
  %42 = getelementptr inbounds float, ptr %38, i64 8
  %43 = load <4 x float>, ptr %42, align 4, !tbaa !95
  %44 = getelementptr inbounds float, ptr %38, i64 12
  %45 = load <4 x float>, ptr %44, align 4, !tbaa !95
  %46 = tail call <4 x float> @llvm.fabs.v4f32(<4 x float> %39)
  %47 = tail call <4 x float> @llvm.fabs.v4f32(<4 x float> %41)
  %48 = tail call <4 x float> @llvm.fabs.v4f32(<4 x float> %43)
  %49 = tail call <4 x float> @llvm.fabs.v4f32(<4 x float> %45)
  %50 = fpext <4 x float> %46 to <4 x double>
  %51 = fpext <4 x float> %47 to <4 x double>
  %52 = fpext <4 x float> %48 to <4 x double>
  %53 = fpext <4 x float> %49 to <4 x double>
  %54 = fcmp olt <4 x double> %25, %50
  %55 = fcmp olt <4 x double> %27, %51
  %56 = fcmp olt <4 x double> %29, %52
  %57 = fcmp olt <4 x double> %31, %53
  %58 = zext <4 x i1> %54 to <4 x i32>
  %59 = zext <4 x i1> %55 to <4 x i32>
  %60 = zext <4 x i1> %56 to <4 x i32>
  %61 = zext <4 x i1> %57 to <4 x i32>
  %62 = add <4 x i32> %34, %58
  %63 = add <4 x i32> %35, %59
  %64 = add <4 x i32> %36, %60
  %65 = add <4 x i32> %37, %61
  %66 = add nuw i64 %33, 16
  %67 = icmp eq i64 %66, %23
  br i1 %67, label %68, label %32, !llvm.loop !97

68:                                               ; preds = %32
  %69 = add <4 x i32> %63, %62
  %70 = add <4 x i32> %64, %69
  %71 = add <4 x i32> %65, %70
  %72 = tail call i32 @llvm.vector.reduce.add.v4i32(<4 x i32> %71)
  %73 = icmp eq i64 %22, 0
  br i1 %73, label %77, label %74

74:                                               ; preds = %16, %68
  %75 = phi i64 [ 0, %16 ], [ %23, %68 ]
  %76 = phi i32 [ 0, %16 ], [ %72, %68 ]
  br label %79

77:                                               ; preds = %79, %68, %2
  %78 = phi i32 [ 0, %2 ], [ %72, %68 ], [ %88, %79 ]
  ret i32 %78

79:                                               ; preds = %74, %79
  %80 = phi i64 [ %89, %79 ], [ %75, %74 ]
  %81 = phi i32 [ %88, %79 ], [ %76, %74 ]
  %82 = getelementptr inbounds float, ptr %18, i64 %80
  %83 = load float, ptr %82, align 4, !tbaa !95
  %84 = tail call float @llvm.fabs.f32(float %83)
  %85 = fpext float %84 to double
  %86 = fcmp ogt double %85, %1
  %87 = zext i1 %86 to i32
  %88 = add i32 %81, %87
  %89 = add nuw nsw i64 %80, 1
  %90 = icmp eq i64 %89, %19
  br i1 %90, label %77, label %79, !llvm.loop !98
}

; Function Attrs: sspstrong uwtable
define weak_odr dso_local noundef nonnull align 8 dereferenceable(122) ptr @_ZNK6dealii12SparseMatrixIfE20get_sparsity_patternEv(ptr noundef nonnull align 8 dereferenceable(36) %0) local_unnamed_addr #0 comdat align 2 {
  %2 = getelementptr inbounds %"class.dealii::SparseMatrix.18", ptr %0, i64 0, i32 1
  %3 = load ptr, ptr %2, align 8, !tbaa !8
  ret ptr %3
}

; Function Attrs: nounwind sspstrong uwtable
define weak_odr dso_local noundef i32 @_ZNK6dealii12SparseMatrixIfE18memory_consumptionEv(ptr noundef nonnull align 8 dereferenceable(36) %0) local_unnamed_addr #6 comdat align 2 {
  %2 = getelementptr inbounds %"class.dealii::SparseMatrix.18", ptr %0, i64 0, i32 3
  %3 = load i32, ptr %2, align 8, !tbaa !94
  %4 = shl i32 %3, 2
  %5 = add i32 %4, 112
  ret i32 %5
}

; Function Attrs: inlinehint sspstrong uwtable
define weak_odr dso_local void @_ZN6dealii12SparseMatrixIfE3addEjjf(ptr noundef nonnull align 8 dereferenceable(36) %0, i32 noundef %1, i32 noundef %2, float noundef %3) local_unnamed_addr #4 comdat align 2 {
  %5 = fcmp oeq float %3, 0.000000e+00
  br i1 %5, label %18, label %6

6:                                                ; preds = %4
  %7 = getelementptr inbounds %"class.dealii::SparseMatrix.18", ptr %0, i64 0, i32 1
  %8 = load ptr, ptr %7, align 8, !tbaa !8
  %9 = tail call noundef i32 @_ZNK6dealii15SparsityPatternclEjj(ptr noundef nonnull align 8 dereferenceable(122) %8, i32 noundef %1, i32 noundef %2)
  %10 = icmp eq i32 %9, -1
  br i1 %10, label %18, label %11

11:                                               ; preds = %6
  %12 = getelementptr inbounds %"class.dealii::SparseMatrix.18", ptr %0, i64 0, i32 2
  %13 = load ptr, ptr %12, align 8, !tbaa !92
  %14 = zext i32 %9 to i64
  %15 = getelementptr inbounds float, ptr %13, i64 %14
  %16 = load float, ptr %15, align 4, !tbaa !95
  %17 = fadd float %16, %3
  store float %17, ptr %15, align 4, !tbaa !95
  br label %18

18:                                               ; preds = %11, %6, %4
  ret void
}

; Function Attrs: inlinehint sspstrong uwtable
define weak_odr dso_local noundef nonnull align 8 dereferenceable(36) ptr @_ZN6dealii12SparseMatrixIfEmLEf(ptr noundef nonnull align 8 dereferenceable(36) %0, float noundef %1) local_unnamed_addr #4 comdat align 2 {
  %3 = getelementptr inbounds %"class.dealii::SparseMatrix.18", ptr %0, i64 0, i32 2
  %4 = load ptr, ptr %3, align 8, !tbaa !92
  %5 = getelementptr inbounds %"class.dealii::SparseMatrix.18", ptr %0, i64 0, i32 1
  %6 = load ptr, ptr %5, align 8, !tbaa !8
  %7 = getelementptr inbounds %"class.dealii::SparsityPattern", ptr %6, i64 0, i32 8
  %8 = load ptr, ptr %7, align 8, !tbaa !32
  %9 = getelementptr inbounds %"class.dealii::SparsityPattern", ptr %6, i64 0, i32 2
  %10 = load i32, ptr %9, align 4, !tbaa !33
  %11 = zext i32 %10 to i64
  %12 = getelementptr inbounds i64, ptr %8, i64 %11
  %13 = load i64, ptr %12, align 8, !tbaa !34
  %14 = load i64, ptr %8, align 8, !tbaa !34
  %15 = sub i64 %13, %14
  %16 = and i64 %15, 4294967295
  %17 = getelementptr inbounds float, ptr %4, i64 %16
  %18 = icmp eq i64 %16, 0
  br i1 %18, label %63, label %19

19:                                               ; preds = %2
  %20 = add nuw nsw i64 %16, 4611686018427387903
  %21 = and i64 %20, 4611686018427387903
  %22 = add nuw nsw i64 %21, 1
  %23 = icmp ult i64 %21, 31
  br i1 %23, label %55, label %24

24:                                               ; preds = %19
  %25 = and i64 %22, 9223372036854775776
  %26 = shl i64 %25, 2
  %27 = getelementptr i8, ptr %4, i64 %26
  %28 = insertelement <8 x float> poison, float %1, i64 0
  %29 = shufflevector <8 x float> %28, <8 x float> poison, <8 x i32> zeroinitializer
  %30 = insertelement <8 x float> poison, float %1, i64 0
  %31 = shufflevector <8 x float> %30, <8 x float> poison, <8 x i32> zeroinitializer
  %32 = insertelement <8 x float> poison, float %1, i64 0
  %33 = shufflevector <8 x float> %32, <8 x float> poison, <8 x i32> zeroinitializer
  %34 = insertelement <8 x float> poison, float %1, i64 0
  %35 = shufflevector <8 x float> %34, <8 x float> poison, <8 x i32> zeroinitializer
  br label %36

36:                                               ; preds = %36, %24
  %37 = phi i64 [ 0, %24 ], [ %51, %36 ]
  %38 = shl i64 %37, 2
  %39 = getelementptr i8, ptr %4, i64 %38
  %40 = load <8 x float>, ptr %39, align 4, !tbaa !95
  %41 = getelementptr float, ptr %39, i64 8
  %42 = load <8 x float>, ptr %41, align 4, !tbaa !95
  %43 = getelementptr float, ptr %39, i64 16
  %44 = load <8 x float>, ptr %43, align 4, !tbaa !95
  %45 = getelementptr float, ptr %39, i64 24
  %46 = load <8 x float>, ptr %45, align 4, !tbaa !95
  %47 = fmul <8 x float> %40, %29
  %48 = fmul <8 x float> %42, %31
  %49 = fmul <8 x float> %44, %33
  %50 = fmul <8 x float> %46, %35
  store <8 x float> %47, ptr %39, align 4, !tbaa !95
  store <8 x float> %48, ptr %41, align 4, !tbaa !95
  store <8 x float> %49, ptr %43, align 4, !tbaa !95
  store <8 x float> %50, ptr %45, align 4, !tbaa !95
  %51 = add nuw i64 %37, 32
  %52 = icmp eq i64 %51, %25
  br i1 %52, label %53, label %36, !llvm.loop !99

53:                                               ; preds = %36
  %54 = icmp eq i64 %22, %25
  br i1 %54, label %63, label %55

55:                                               ; preds = %19, %53
  %56 = phi ptr [ %4, %19 ], [ %27, %53 ]
  br label %57

57:                                               ; preds = %55, %57
  %58 = phi ptr [ %59, %57 ], [ %56, %55 ]
  %59 = getelementptr inbounds float, ptr %58, i64 1
  %60 = load float, ptr %58, align 4, !tbaa !95
  %61 = fmul float %60, %1
  store float %61, ptr %58, align 4, !tbaa !95
  %62 = icmp eq ptr %59, %17
  br i1 %62, label %63, label %57, !llvm.loop !100

63:                                               ; preds = %57, %53, %2
  ret ptr %0
}

; Function Attrs: inlinehint sspstrong uwtable
define weak_odr dso_local noundef nonnull align 8 dereferenceable(36) ptr @_ZN6dealii12SparseMatrixIfEdVEf(ptr noundef nonnull align 8 dereferenceable(36) %0, float noundef %1) local_unnamed_addr #4 comdat align 2 {
  %3 = fdiv float 1.000000e+00, %1
  %4 = getelementptr inbounds %"class.dealii::SparseMatrix.18", ptr %0, i64 0, i32 2
  %5 = load ptr, ptr %4, align 8, !tbaa !92
  %6 = getelementptr inbounds %"class.dealii::SparseMatrix.18", ptr %0, i64 0, i32 1
  %7 = load ptr, ptr %6, align 8, !tbaa !8
  %8 = getelementptr inbounds %"class.dealii::SparsityPattern", ptr %7, i64 0, i32 8
  %9 = load ptr, ptr %8, align 8, !tbaa !32
  %10 = getelementptr inbounds %"class.dealii::SparsityPattern", ptr %7, i64 0, i32 2
  %11 = load i32, ptr %10, align 4, !tbaa !33
  %12 = zext i32 %11 to i64
  %13 = getelementptr inbounds i64, ptr %9, i64 %12
  %14 = load i64, ptr %13, align 8, !tbaa !34
  %15 = load i64, ptr %9, align 8, !tbaa !34
  %16 = sub i64 %14, %15
  %17 = and i64 %16, 4294967295
  %18 = getelementptr inbounds float, ptr %5, i64 %17
  %19 = icmp eq i64 %17, 0
  br i1 %19, label %64, label %20

20:                                               ; preds = %2
  %21 = add nuw nsw i64 %17, 4611686018427387903
  %22 = and i64 %21, 4611686018427387903
  %23 = add nuw nsw i64 %22, 1
  %24 = icmp ult i64 %22, 31
  br i1 %24, label %56, label %25

25:                                               ; preds = %20
  %26 = and i64 %23, 9223372036854775776
  %27 = shl i64 %26, 2
  %28 = getelementptr i8, ptr %5, i64 %27
  %29 = insertelement <8 x float> poison, float %3, i64 0
  %30 = shufflevector <8 x float> %29, <8 x float> poison, <8 x i32> zeroinitializer
  %31 = insertelement <8 x float> poison, float %3, i64 0
  %32 = shufflevector <8 x float> %31, <8 x float> poison, <8 x i32> zeroinitializer
  %33 = insertelement <8 x float> poison, float %3, i64 0
  %34 = shufflevector <8 x float> %33, <8 x float> poison, <8 x i32> zeroinitializer
  %35 = insertelement <8 x float> poison, float %3, i64 0
  %36 = shufflevector <8 x float> %35, <8 x float> poison, <8 x i32> zeroinitializer
  br label %37

37:                                               ; preds = %37, %25
  %38 = phi i64 [ 0, %25 ], [ %52, %37 ]
  %39 = shl i64 %38, 2
  %40 = getelementptr i8, ptr %5, i64 %39
  %41 = load <8 x float>, ptr %40, align 4, !tbaa !95
  %42 = getelementptr float, ptr %40, i64 8
  %43 = load <8 x float>, ptr %42, align 4, !tbaa !95
  %44 = getelementptr float, ptr %40, i64 16
  %45 = load <8 x float>, ptr %44, align 4, !tbaa !95
  %46 = getelementptr float, ptr %40, i64 24
  %47 = load <8 x float>, ptr %46, align 4, !tbaa !95
  %48 = fmul <8 x float> %30, %41
  %49 = fmul <8 x float> %32, %43
  %50 = fmul <8 x float> %34, %45
  %51 = fmul <8 x float> %36, %47
  store <8 x float> %48, ptr %40, align 4, !tbaa !95
  store <8 x float> %49, ptr %42, align 4, !tbaa !95
  store <8 x float> %50, ptr %44, align 4, !tbaa !95
  store <8 x float> %51, ptr %46, align 4, !tbaa !95
  %52 = add nuw i64 %38, 32
  %53 = icmp eq i64 %52, %26
  br i1 %53, label %54, label %37, !llvm.loop !101

54:                                               ; preds = %37
  %55 = icmp eq i64 %23, %26
  br i1 %55, label %64, label %56

56:                                               ; preds = %20, %54
  %57 = phi ptr [ %5, %20 ], [ %28, %54 ]
  br label %58

58:                                               ; preds = %56, %58
  %59 = phi ptr [ %60, %58 ], [ %57, %56 ]
  %60 = getelementptr inbounds float, ptr %59, i64 1
  %61 = load float, ptr %59, align 4, !tbaa !95
  %62 = fmul float %3, %61
  store float %62, ptr %59, align 4, !tbaa !95
  %63 = icmp eq ptr %60, %18
  br i1 %63, label %64, label %58, !llvm.loop !102

64:                                               ; preds = %58, %54, %2
  ret ptr %0
}

; Function Attrs: sspstrong uwtable
define weak_odr dso_local void @_ZN6dealii12SparseMatrixIfE10symmetrizeEv(ptr noundef nonnull align 8 dereferenceable(36) %0) local_unnamed_addr #0 comdat align 2 {
  %2 = getelementptr inbounds %"class.dealii::SparseMatrix.18", ptr %0, i64 0, i32 1
  %3 = load ptr, ptr %2, align 8, !tbaa !8
  %4 = getelementptr inbounds %"class.dealii::SparsityPattern", ptr %3, i64 0, i32 2
  %5 = load i32, ptr %4, align 4, !tbaa !33
  %6 = icmp eq i32 %5, 0
  br i1 %6, label %10, label %7

7:                                                ; preds = %1
  %8 = getelementptr inbounds %"class.dealii::SparseMatrix.18", ptr %0, i64 0, i32 2
  %9 = zext i32 %5 to i64
  br label %11

10:                                               ; preds = %63, %1
  ret void

11:                                               ; preds = %7, %63
  %12 = phi i64 [ 0, %7 ], [ %24, %63 ]
  %13 = load ptr, ptr %8, align 8, !tbaa !92
  %14 = load ptr, ptr %2, align 8, !tbaa !8
  %15 = getelementptr inbounds %"class.dealii::SparsityPattern", ptr %14, i64 0, i32 8
  %16 = load ptr, ptr %15, align 8, !tbaa !32
  %17 = getelementptr inbounds i64, ptr %16, i64 %12
  %18 = load i64, ptr %17, align 8, !tbaa !34
  %19 = getelementptr inbounds float, ptr %13, i64 %18
  %20 = getelementptr inbounds %"class.dealii::SparsityPattern", ptr %14, i64 0, i32 11
  %21 = load i8, ptr %20, align 1, !tbaa !43, !range !44, !noundef !45
  %22 = zext i8 %21 to i64
  %23 = getelementptr inbounds float, ptr %19, i64 %22
  %24 = add nuw nsw i64 %12, 1
  %25 = getelementptr inbounds i64, ptr %16, i64 %24
  %26 = load i64, ptr %25, align 8, !tbaa !34
  %27 = getelementptr inbounds float, ptr %13, i64 %26
  %28 = icmp eq ptr %23, %27
  br i1 %28, label %63, label %29

29:                                               ; preds = %11
  %30 = getelementptr inbounds %"class.dealii::SparsityPattern", ptr %14, i64 0, i32 9
  %31 = load ptr, ptr %30, align 8, !tbaa !46
  %32 = add i64 %18, 1
  %33 = getelementptr inbounds i32, ptr %31, i64 %32
  %34 = trunc i64 %12 to i32
  br label %35

35:                                               ; preds = %29, %59
  %36 = phi ptr [ %60, %59 ], [ %23, %29 ]
  %37 = phi ptr [ %61, %59 ], [ %33, %29 ]
  %38 = load i32, ptr %37, align 4, !tbaa !47
  %39 = zext i32 %38 to i64
  %40 = icmp ugt i64 %12, %39
  br i1 %40, label %41, label %63

41:                                               ; preds = %35
  %42 = load float, ptr %36, align 4, !tbaa !95
  %43 = load ptr, ptr %8, align 8, !tbaa !92
  %44 = load ptr, ptr %2, align 8, !tbaa !8
  %45 = tail call noundef i32 @_ZNK6dealii15SparsityPatternclEjj(ptr noundef nonnull align 8 dereferenceable(122) %44, i32 noundef %38, i32 noundef %34)
  %46 = zext i32 %45 to i64
  %47 = getelementptr inbounds float, ptr %43, i64 %46
  %48 = load float, ptr %47, align 4, !tbaa !95
  %49 = fadd float %42, %48
  %50 = fmul float %49, 5.000000e-01
  store float %50, ptr %36, align 4, !tbaa !95
  %51 = load i32, ptr %37, align 4, !tbaa !47
  %52 = load ptr, ptr %2, align 8, !tbaa !8
  %53 = tail call noundef i32 @_ZNK6dealii15SparsityPatternclEjj(ptr noundef nonnull align 8 dereferenceable(122) %52, i32 noundef %51, i32 noundef %34)
  %54 = icmp eq i32 %53, -1
  br i1 %54, label %59, label %55

55:                                               ; preds = %41
  %56 = load ptr, ptr %8, align 8, !tbaa !92
  %57 = zext i32 %53 to i64
  %58 = getelementptr inbounds float, ptr %56, i64 %57
  store float %50, ptr %58, align 4, !tbaa !95
  br label %59

59:                                               ; preds = %41, %55
  %60 = getelementptr inbounds float, ptr %36, i64 1
  %61 = getelementptr inbounds i32, ptr %37, i64 1
  %62 = icmp eq ptr %60, %27
  br i1 %62, label %63, label %35

63:                                               ; preds = %35, %59, %11
  %64 = icmp eq i64 %24, %9
  br i1 %64, label %10, label %11
}

; Function Attrs: inlinehint sspstrong uwtable
define weak_odr dso_local noundef float @_ZNK6dealii12SparseMatrixIfEclEjj(ptr noundef nonnull align 8 dereferenceable(36) %0, i32 noundef %1, i32 noundef %2) local_unnamed_addr #4 comdat align 2 personality ptr @__gxx_personality_v0 {
  %4 = alloca %"class.dealii::SparseMatrix<float>::ExcInvalidIndex", align 8
  %5 = getelementptr inbounds %"class.dealii::SparseMatrix.18", ptr %0, i64 0, i32 1
  %6 = load ptr, ptr %5, align 8, !tbaa !8
  %7 = tail call noundef i32 @_ZNK6dealii15SparsityPatternclEjj(ptr noundef nonnull align 8 dereferenceable(122) %6, i32 noundef %1, i32 noundef %2)
  %8 = icmp eq i32 %7, -1
  br i1 %8, label %9, label %24

9:                                                ; preds = %3
  call void @_ZN6dealii13ExceptionBaseC2Ev(ptr noundef nonnull align 8 dereferenceable(60) %4)
  store ptr getelementptr inbounds ({ [6 x ptr] }, ptr @_ZTVN6dealii12SparseMatrixIfE15ExcInvalidIndexE, i64 0, inrange i32 0, i64 2), ptr %4, align 8, !tbaa !5
  %10 = getelementptr inbounds %"class.dealii::SparseMatrix<float>::ExcInvalidIndex", ptr %4, i64 0, i32 1
  store i32 %1, ptr %10, align 4, !tbaa !103
  %11 = getelementptr inbounds %"class.dealii::SparseMatrix<float>::ExcInvalidIndex", ptr %4, i64 0, i32 2
  store i32 %2, ptr %11, align 8, !tbaa !105
  invoke void @_ZN6dealii13ExceptionBase10set_fieldsEPKciS2_S2_S2_(ptr noundef nonnull align 8 dereferenceable(60) %4, ptr noundef nonnull @.str.9, i32 noundef 2270, ptr noundef nonnull @.str.10, ptr noundef nonnull @.str.11, ptr noundef nonnull @.str.12)
          to label %12 unwind label %20

12:                                               ; preds = %9
  %13 = call ptr @__cxa_allocate_exception(i64 72) #17
  invoke void @_ZN6dealii13ExceptionBaseC2ERKS0_(ptr noundef nonnull align 8 dereferenceable(60) %13, ptr noundef nonnull align 8 dereferenceable(60) %4)
          to label %14 unwind label %18

14:                                               ; preds = %12
  store ptr getelementptr inbounds ({ [6 x ptr] }, ptr @_ZTVN6dealii12SparseMatrixIfE15ExcInvalidIndexE, i64 0, inrange i32 0, i64 2), ptr %13, align 8, !tbaa !5
  %15 = getelementptr inbounds %"class.dealii::SparseMatrix<float>::ExcInvalidIndex", ptr %13, i64 0, i32 1
  %16 = load i64, ptr %10, align 4
  store i64 %16, ptr %15, align 4
  invoke void @__cxa_throw(ptr nonnull %13, ptr nonnull @_ZTIN6dealii12SparseMatrixIfE15ExcInvalidIndexE, ptr nonnull @_ZN6dealii12SparseMatrixIfE15ExcInvalidIndexD2Ev) #21
          to label %17 unwind label %20

17:                                               ; preds = %14
  unreachable

18:                                               ; preds = %12
  %19 = landingpad { ptr, i32 }
          cleanup
  call void @__cxa_free_exception(ptr %13) #17
  br label %22

20:                                               ; preds = %14, %9
  %21 = landingpad { ptr, i32 }
          cleanup
  br label %22

22:                                               ; preds = %18, %20
  %23 = phi { ptr, i32 } [ %21, %20 ], [ %19, %18 ]
  call void @_ZN6dealii13ExceptionBaseD2Ev(ptr noundef nonnull align 8 dereferenceable(60) %4) #17
  resume { ptr, i32 } %23

24:                                               ; preds = %3
  %25 = getelementptr inbounds %"class.dealii::SparseMatrix.18", ptr %0, i64 0, i32 2
  %26 = load ptr, ptr %25, align 8, !tbaa !92
  %27 = load ptr, ptr %5, align 8, !tbaa !8
  %28 = tail call noundef i32 @_ZNK6dealii15SparsityPatternclEjj(ptr noundef nonnull align 8 dereferenceable(122) %27, i32 noundef %1, i32 noundef %2)
  %29 = zext i32 %28 to i64
  %30 = getelementptr inbounds float, ptr %26, i64 %29
  %31 = load float, ptr %30, align 4, !tbaa !95
  ret float %31
}

; Function Attrs: inlinehint sspstrong uwtable
define weak_odr dso_local noundef float @_ZNK6dealii12SparseMatrixIfE2elEjj(ptr noundef nonnull align 8 dereferenceable(36) %0, i32 noundef %1, i32 noundef %2) local_unnamed_addr #4 comdat align 2 {
  %4 = getelementptr inbounds %"class.dealii::SparseMatrix.18", ptr %0, i64 0, i32 1
  %5 = load ptr, ptr %4, align 8, !tbaa !8
  %6 = tail call noundef i32 @_ZNK6dealii15SparsityPatternclEjj(ptr noundef nonnull align 8 dereferenceable(122) %5, i32 noundef %1, i32 noundef %2)
  %7 = icmp eq i32 %6, -1
  br i1 %7, label %14, label %8

8:                                                ; preds = %3
  %9 = getelementptr inbounds %"class.dealii::SparseMatrix.18", ptr %0, i64 0, i32 2
  %10 = load ptr, ptr %9, align 8, !tbaa !92
  %11 = zext i32 %6 to i64
  %12 = getelementptr inbounds float, ptr %10, i64 %11
  %13 = load float, ptr %12, align 4, !tbaa !95
  br label %14

14:                                               ; preds = %3, %8
  %15 = phi float [ %13, %8 ], [ 0.000000e+00, %3 ]
  ret float %15
}

; Function Attrs: inlinehint sspstrong uwtable
define weak_odr dso_local noundef float @_ZNK6dealii12SparseMatrixIfE12diag_elementEj(ptr noundef nonnull align 8 dereferenceable(36) %0, i32 noundef %1) local_unnamed_addr #4 comdat align 2 {
  %3 = getelementptr inbounds %"class.dealii::SparseMatrix.18", ptr %0, i64 0, i32 2
  %4 = load ptr, ptr %3, align 8, !tbaa !92
  %5 = getelementptr inbounds %"class.dealii::SparseMatrix.18", ptr %0, i64 0, i32 1
  %6 = load ptr, ptr %5, align 8, !tbaa !8
  %7 = getelementptr inbounds %"class.dealii::SparsityPattern", ptr %6, i64 0, i32 8
  %8 = load ptr, ptr %7, align 8, !tbaa !32
  %9 = zext i32 %1 to i64
  %10 = getelementptr inbounds i64, ptr %8, i64 %9
  %11 = load i64, ptr %10, align 8, !tbaa !34
  %12 = getelementptr inbounds float, ptr %4, i64 %11
  %13 = load float, ptr %12, align 4, !tbaa !95
  ret float %13
}

; Function Attrs: inlinehint sspstrong uwtable
define weak_odr dso_local noundef nonnull align 4 dereferenceable(4) ptr @_ZN6dealii12SparseMatrixIfE12diag_elementEj(ptr noundef nonnull align 8 dereferenceable(36) %0, i32 noundef %1) local_unnamed_addr #4 comdat align 2 {
  %3 = getelementptr inbounds %"class.dealii::SparseMatrix.18", ptr %0, i64 0, i32 2
  %4 = load ptr, ptr %3, align 8, !tbaa !92
  %5 = getelementptr inbounds %"class.dealii::SparseMatrix.18", ptr %0, i64 0, i32 1
  %6 = load ptr, ptr %5, align 8, !tbaa !8
  %7 = getelementptr inbounds %"class.dealii::SparsityPattern", ptr %6, i64 0, i32 8
  %8 = load ptr, ptr %7, align 8, !tbaa !32
  %9 = zext i32 %1 to i64
  %10 = getelementptr inbounds i64, ptr %8, i64 %9
  %11 = load i64, ptr %10, align 8, !tbaa !34
  %12 = getelementptr inbounds float, ptr %4, i64 %11
  ret ptr %12
}

; Function Attrs: inlinehint sspstrong uwtable
define weak_odr dso_local noundef float @_ZNK6dealii12SparseMatrixIfE9raw_entryEjj(ptr noundef nonnull align 8 dereferenceable(36) %0, i32 noundef %1, i32 noundef %2) local_unnamed_addr #4 comdat align 2 {
  %4 = getelementptr inbounds %"class.dealii::SparseMatrix.18", ptr %0, i64 0, i32 2
  %5 = load ptr, ptr %4, align 8, !tbaa !92
  %6 = getelementptr inbounds %"class.dealii::SparseMatrix.18", ptr %0, i64 0, i32 1
  %7 = load ptr, ptr %6, align 8, !tbaa !8
  %8 = getelementptr inbounds %"class.dealii::SparsityPattern", ptr %7, i64 0, i32 8
  %9 = load ptr, ptr %8, align 8, !tbaa !32
  %10 = zext i32 %1 to i64
  %11 = getelementptr inbounds i64, ptr %9, i64 %10
  %12 = load i64, ptr %11, align 8, !tbaa !34
  %13 = zext i32 %2 to i64
  %14 = add i64 %12, %13
  %15 = getelementptr inbounds float, ptr %5, i64 %14
  %16 = load float, ptr %15, align 4, !tbaa !95
  ret float %16
}

; Function Attrs: inlinehint nounwind sspstrong uwtable
define weak_odr dso_local noundef float @_ZNK6dealii12SparseMatrixIfE12global_entryEj(ptr noundef nonnull align 8 dereferenceable(36) %0, i32 noundef %1) local_unnamed_addr #9 comdat align 2 {
  %3 = getelementptr inbounds %"class.dealii::SparseMatrix.18", ptr %0, i64 0, i32 2
  %4 = load ptr, ptr %3, align 8, !tbaa !92
  %5 = zext i32 %1 to i64
  %6 = getelementptr inbounds float, ptr %4, i64 %5
  %7 = load float, ptr %6, align 4, !tbaa !95
  ret float %7
}

; Function Attrs: inlinehint nounwind sspstrong uwtable
define weak_odr dso_local noundef nonnull align 4 dereferenceable(4) ptr @_ZN6dealii12SparseMatrixIfE12global_entryEj(ptr noundef nonnull align 8 dereferenceable(36) %0, i32 noundef %1) local_unnamed_addr #9 comdat align 2 {
  %3 = getelementptr inbounds %"class.dealii::SparseMatrix.18", ptr %0, i64 0, i32 2
  %4 = load ptr, ptr %3, align 8, !tbaa !92
  %5 = zext i32 %1 to i64
  %6 = getelementptr inbounds float, ptr %4, i64 %5
  ret ptr %6
}

; Function Attrs: sspstrong uwtable
define weak_odr dso_local noundef float @_ZNK6dealii12SparseMatrixIfE7l1_normEv(ptr noundef nonnull align 8 dereferenceable(36) %0) local_unnamed_addr #0 comdat align 2 personality ptr @__gxx_personality_v0 {
  %2 = alloca %"class.dealii::Vector.20", align 8
  call void @llvm.lifetime.start.p0(i64 88, ptr nonnull %2) #17
  %3 = getelementptr inbounds %"class.dealii::SparseMatrix.18", ptr %0, i64 0, i32 1
  %4 = load ptr, ptr %3, align 8, !tbaa !8
  %5 = getelementptr inbounds %"class.dealii::SparsityPattern", ptr %4, i64 0, i32 3
  %6 = load i32, ptr %5, align 8, !tbaa !17
  call void @_ZN6dealii11SubscriptorC2Ev(ptr noundef nonnull align 8 dereferenceable(72) %2)
  store ptr getelementptr inbounds ({ [6 x ptr] }, ptr @_ZTVN6dealii6VectorIfEE, i64 0, inrange i32 0, i64 2), ptr %2, align 8, !tbaa !5
  %7 = getelementptr inbounds %"class.dealii::Vector.20", ptr %2, i64 0, i32 1
  call void @llvm.memset.p0.i64(ptr noundef nonnull align 8 dereferenceable(16) %7, i8 0, i64 16, i1 false)
  %8 = icmp eq i32 %6, 0
  br i1 %8, label %23, label %9

9:                                                ; preds = %1
  %10 = zext i32 %6 to i64
  %11 = shl nuw nsw i64 %10, 2
  %12 = invoke noalias noundef nonnull ptr @_Znam(i64 noundef %11) #20
          to label %13 unwind label %16

13:                                               ; preds = %9
  %14 = getelementptr inbounds %"class.dealii::Vector.20", ptr %2, i64 0, i32 3
  %15 = getelementptr inbounds %"class.dealii::Vector.20", ptr %2, i64 0, i32 2
  store ptr %12, ptr %14, align 8, !tbaa !106
  store i32 %6, ptr %15, align 4, !tbaa !108
  store i32 %6, ptr %7, align 8, !tbaa !109
  call void @llvm.memset.p0.i64(ptr nonnull align 4 %12, i8 0, i64 %11, i1 false), !tbaa !95
  br label %23

16:                                               ; preds = %9
  %17 = landingpad { ptr, i32 }
          cleanup
  invoke void @_ZN6dealii11SubscriptorD2Ev(ptr noundef nonnull align 8 dereferenceable(72) %2)
          to label %18 unwind label %20

18:                                               ; preds = %16, %75
  %19 = phi { ptr, i32 } [ %42, %75 ], [ %17, %16 ]
  resume { ptr, i32 } %19

20:                                               ; preds = %16
  %21 = landingpad { ptr, i32 }
          catch ptr null
  %22 = extractvalue { ptr, i32 } %21, 0
  call void @__clang_call_terminate(ptr %22) #18
  unreachable

23:                                               ; preds = %1, %13
  %24 = phi ptr [ null, %1 ], [ %12, %13 ]
  %25 = load ptr, ptr %3, align 8, !tbaa !8
  %26 = getelementptr inbounds %"class.dealii::SparsityPattern", ptr %25, i64 0, i32 2
  %27 = load i32, ptr %26, align 4, !tbaa !33
  %28 = icmp eq i32 %27, 0
  br i1 %28, label %39, label %29

29:                                               ; preds = %23
  %30 = getelementptr inbounds %"class.dealii::SparsityPattern", ptr %25, i64 0, i32 8
  %31 = load ptr, ptr %30, align 8, !tbaa !32
  %32 = getelementptr inbounds %"class.dealii::SparseMatrix.18", ptr %0, i64 0, i32 2
  %33 = load ptr, ptr %32, align 8
  %34 = getelementptr inbounds %"class.dealii::SparsityPattern", ptr %25, i64 0, i32 9
  %35 = zext i32 %27 to i64
  %36 = load i64, ptr %31, align 8, !tbaa !34
  br label %43

37:                                               ; preds = %54, %43
  %38 = icmp eq i64 %46, %35
  br i1 %38, label %39, label %43

39:                                               ; preds = %37, %23
  %40 = invoke noundef float @_ZNK6dealii6VectorIfE11linfty_normEv(ptr noundef nonnull align 8 dereferenceable(88) %2)
          to label %69 unwind label %41

41:                                               ; preds = %39
  %42 = landingpad { ptr, i32 }
          cleanup
  invoke void @_ZN6dealii6VectorIfED2Ev(ptr noundef nonnull align 8 dereferenceable(88) %2)
          to label %75 unwind label %76

43:                                               ; preds = %29, %37
  %44 = phi i64 [ %36, %29 ], [ %48, %37 ]
  %45 = phi i64 [ 0, %29 ], [ %46, %37 ]
  %46 = add nuw nsw i64 %45, 1
  %47 = getelementptr inbounds i64, ptr %31, i64 %46
  %48 = load i64, ptr %47, align 8, !tbaa !34
  %49 = and i64 %44, 4294967295
  %50 = icmp ugt i64 %48, %49
  br i1 %50, label %51, label %37

51:                                               ; preds = %43
  %52 = trunc i64 %44 to i32
  %53 = load ptr, ptr %34, align 8, !tbaa !46
  br label %54

54:                                               ; preds = %51, %54
  %55 = phi i64 [ %49, %51 ], [ %67, %54 ]
  %56 = phi i32 [ %52, %51 ], [ %66, %54 ]
  %57 = getelementptr inbounds float, ptr %33, i64 %55
  %58 = load float, ptr %57, align 4, !tbaa !95
  %59 = call float @llvm.fabs.f32(float %58)
  %60 = getelementptr inbounds i32, ptr %53, i64 %55
  %61 = load i32, ptr %60, align 4, !tbaa !47
  %62 = zext i32 %61 to i64
  %63 = getelementptr inbounds float, ptr %24, i64 %62
  %64 = load float, ptr %63, align 4, !tbaa !95
  %65 = fadd float %59, %64
  store float %65, ptr %63, align 4, !tbaa !95
  %66 = add i32 %56, 1
  %67 = zext i32 %66 to i64
  %68 = icmp ugt i64 %48, %67
  br i1 %68, label %54, label %37

69:                                               ; preds = %39
  store ptr getelementptr inbounds ({ [6 x ptr] }, ptr @_ZTVN6dealii6VectorIfEE, i64 0, inrange i32 0, i64 2), ptr %2, align 8, !tbaa !5
  %70 = getelementptr inbounds %"class.dealii::Vector.20", ptr %2, i64 0, i32 3
  %71 = load ptr, ptr %70, align 8, !tbaa !106
  %72 = icmp eq ptr %71, null
  br i1 %72, label %74, label %73

73:                                               ; preds = %69
  call void @_ZdaPv(ptr noundef nonnull %71) #19
  store ptr null, ptr %70, align 8, !tbaa !106
  br label %74

74:                                               ; preds = %69, %73
  call void @_ZN6dealii11SubscriptorD2Ev(ptr noundef nonnull align 8 dereferenceable(72) %2)
  call void @llvm.lifetime.end.p0(i64 88, ptr nonnull %2) #17
  ret float %40

75:                                               ; preds = %41
  call void @llvm.lifetime.end.p0(i64 88, ptr nonnull %2) #17
  br label %18

76:                                               ; preds = %41
  %77 = landingpad { ptr, i32 }
          catch ptr null
  %78 = extractvalue { ptr, i32 } %77, 0
  call void @__clang_call_terminate(ptr %78) #18
  unreachable
}

declare noundef float @_ZNK6dealii6VectorIfE11linfty_normEv(ptr noundef nonnull align 8 dereferenceable(88)) local_unnamed_addr #1

; Function Attrs: inlinehint sspstrong uwtable
define linkonce_odr dso_local void @_ZN6dealii6VectorIfED2Ev(ptr noundef nonnull align 8 dereferenceable(88) %0) unnamed_addr #4 comdat align 2 {
  store ptr getelementptr inbounds ({ [6 x ptr] }, ptr @_ZTVN6dealii6VectorIfEE, i64 0, inrange i32 0, i64 2), ptr %0, align 8, !tbaa !5
  %2 = getelementptr inbounds %"class.dealii::Vector.20", ptr %0, i64 0, i32 3
  %3 = load ptr, ptr %2, align 8, !tbaa !106
  %4 = icmp eq ptr %3, null
  br i1 %4, label %6, label %5

5:                                                ; preds = %1
  tail call void @_ZdaPv(ptr noundef nonnull %3) #19
  store ptr null, ptr %2, align 8, !tbaa !106
  br label %6

6:                                                ; preds = %5, %1
  tail call void @_ZN6dealii11SubscriptorD2Ev(ptr noundef nonnull align 8 dereferenceable(72) %0)
  ret void
}

; Function Attrs: sspstrong uwtable
define weak_odr dso_local noundef float @_ZNK6dealii12SparseMatrixIfE11linfty_normEv(ptr noundef nonnull align 8 dereferenceable(36) %0) local_unnamed_addr #0 comdat align 2 {
  %2 = getelementptr inbounds %"class.dealii::SparseMatrix.18", ptr %0, i64 0, i32 2
  %3 = load ptr, ptr %2, align 8, !tbaa !92
  %4 = getelementptr inbounds %"class.dealii::SparseMatrix.18", ptr %0, i64 0, i32 1
  %5 = load ptr, ptr %4, align 8, !tbaa !8
  %6 = getelementptr inbounds %"class.dealii::SparsityPattern", ptr %5, i64 0, i32 8
  %7 = load ptr, ptr %6, align 8, !tbaa !32
  %8 = getelementptr inbounds %"class.dealii::SparsityPattern", ptr %5, i64 0, i32 2
  %9 = load i32, ptr %8, align 4, !tbaa !33
  %10 = icmp eq i32 %9, 0
  br i1 %10, label %15, label %11

11:                                               ; preds = %1
  %12 = load i64, ptr %7, align 8, !tbaa !34
  %13 = getelementptr inbounds float, ptr %3, i64 %12
  %14 = zext i32 %9 to i64
  br label %17

15:                                               ; preds = %34, %1
  %16 = phi float [ 0.000000e+00, %1 ], [ %38, %34 ]
  ret float %16

17:                                               ; preds = %11, %34
  %18 = phi i64 [ 0, %11 ], [ %21, %34 ]
  %19 = phi ptr [ %13, %11 ], [ %36, %34 ]
  %20 = phi float [ 0.000000e+00, %11 ], [ %38, %34 ]
  %21 = add nuw nsw i64 %18, 1
  %22 = getelementptr inbounds i64, ptr %7, i64 %21
  %23 = load i64, ptr %22, align 8, !tbaa !34
  %24 = getelementptr inbounds float, ptr %3, i64 %23
  %25 = icmp eq ptr %19, %24
  br i1 %25, label %34, label %26

26:                                               ; preds = %17, %26
  %27 = phi ptr [ %29, %26 ], [ %19, %17 ]
  %28 = phi float [ %32, %26 ], [ 0.000000e+00, %17 ]
  %29 = getelementptr inbounds float, ptr %27, i64 1
  %30 = load float, ptr %27, align 4, !tbaa !95
  %31 = tail call float @llvm.fabs.f32(float %30)
  %32 = fadd float %28, %31
  %33 = icmp eq ptr %29, %24
  br i1 %33, label %34, label %26

34:                                               ; preds = %26, %17
  %35 = phi float [ 0.000000e+00, %17 ], [ %32, %26 ]
  %36 = phi ptr [ %19, %17 ], [ %24, %26 ]
  %37 = fcmp ogt float %35, %20
  %38 = select i1 %37, float %35, float %20
  %39 = icmp eq i64 %21, %14
  br i1 %39, label %15, label %17
}

; Function Attrs: sspstrong uwtable
define weak_odr dso_local noundef float @_ZNK6dealii12SparseMatrixIfE14frobenius_normEv(ptr noundef nonnull align 8 dereferenceable(36) %0) local_unnamed_addr #0 comdat align 2 {
  %2 = getelementptr inbounds %"class.dealii::SparseMatrix.18", ptr %0, i64 0, i32 1
  %3 = load ptr, ptr %2, align 8, !tbaa !8
  %4 = getelementptr inbounds %"class.dealii::SparsityPattern", ptr %3, i64 0, i32 2
  %5 = load i32, ptr %4, align 4, !tbaa !33
  %6 = getelementptr inbounds %"class.dealii::SparseMatrix.18", ptr %0, i64 0, i32 2
  %7 = load ptr, ptr %6, align 8, !tbaa !92
  %8 = getelementptr inbounds %"class.dealii::SparsityPattern", ptr %3, i64 0, i32 8
  %9 = load ptr, ptr %8, align 8, !tbaa !32
  %10 = zext i32 %5 to i64
  %11 = getelementptr inbounds i64, ptr %9, i64 %10
  %12 = load i64, ptr %11, align 8, !tbaa !34
  %13 = getelementptr inbounds float, ptr %7, i64 %12
  %14 = icmp eq i64 %12, 0
  br i1 %14, label %15, label %18

15:                                               ; preds = %18, %1
  %16 = phi float [ 0.000000e+00, %1 ], [ %23, %18 ]
  %17 = tail call float @sqrtf(float noundef %16) #17
  ret float %17

18:                                               ; preds = %1, %18
  %19 = phi ptr [ %24, %18 ], [ %7, %1 ]
  %20 = phi float [ %23, %18 ], [ 0.000000e+00, %1 ]
  %21 = load float, ptr %19, align 4, !tbaa !95
  %22 = fmul float %21, %21
  %23 = fadd float %20, %22
  %24 = getelementptr inbounds float, ptr %19, i64 1
  %25 = icmp eq ptr %24, %13
  br i1 %25, label %15, label %18
}

; Function Attrs: inlinehint sspstrong uwtable
define weak_odr dso_local void @_ZNK6dealii12SparseMatrixIfE5beginEv(ptr noalias sret(%"class.dealii::internals::SparseMatrixIterators::Iterator.21") align 8 %0, ptr noundef nonnull align 8 dereferenceable(36) %1) local_unnamed_addr #4 comdat align 2 {
  %3 = getelementptr inbounds %"class.dealii::SparseMatrix.18", ptr %1, i64 0, i32 1
  %4 = load ptr, ptr %3, align 8, !tbaa !8
  %5 = getelementptr inbounds %"class.dealii::SparsityPattern", ptr %4, i64 0, i32 2
  %6 = load i32, ptr %5, align 4, !tbaa !33
  %7 = getelementptr inbounds %"class.dealii::SparsityPattern", ptr %4, i64 0, i32 8
  %8 = zext i32 %6 to i64
  br label %9

9:                                                ; preds = %12, %2
  %10 = phi i64 [ %14, %12 ], [ 0, %2 ]
  %11 = icmp eq i64 %10, %8
  br i1 %11, label %24, label %12

12:                                               ; preds = %9
  %13 = load ptr, ptr %7, align 8, !tbaa !32
  %14 = add nuw nsw i64 %10, 1
  %15 = getelementptr inbounds i64, ptr %13, i64 %14
  %16 = load i64, ptr %15, align 8, !tbaa !34
  %17 = getelementptr inbounds i64, ptr %13, i64 %10
  %18 = load i64, ptr %17, align 8, !tbaa !34
  %19 = sub i64 %16, %18
  %20 = and i64 %19, 4294967295
  %21 = icmp eq i64 %20, 0
  br i1 %21, label %9, label %22

22:                                               ; preds = %12
  %23 = trunc i64 %10 to i32
  br label %24

24:                                               ; preds = %9, %22
  %25 = phi i32 [ %23, %22 ], [ %6, %9 ]
  store ptr %4, ptr %0, align 8, !tbaa !57
  %26 = getelementptr inbounds %"class.dealii::internals::SparsityPatternIterators::Accessor", ptr %0, i64 0, i32 1
  store i32 %25, ptr %26, align 8, !tbaa !59
  %27 = getelementptr inbounds %"class.dealii::internals::SparsityPatternIterators::Accessor", ptr %0, i64 0, i32 2
  store i32 0, ptr %27, align 4, !tbaa !60
  %28 = getelementptr inbounds %"class.dealii::internals::SparseMatrixIterators::Accessor.22", ptr %0, i64 0, i32 1
  store ptr %1, ptr %28, align 8, !tbaa !110
  ret void
}

; Function Attrs: inlinehint sspstrong uwtable
define weak_odr dso_local void @_ZNK6dealii12SparseMatrixIfE3endEv(ptr noalias sret(%"class.dealii::internals::SparseMatrixIterators::Iterator.21") align 8 %0, ptr noundef nonnull align 8 dereferenceable(36) %1) local_unnamed_addr #4 comdat align 2 {
  %3 = getelementptr inbounds %"class.dealii::SparseMatrix.18", ptr %1, i64 0, i32 1
  %4 = load ptr, ptr %3, align 8, !tbaa !8
  store ptr %4, ptr %0, align 8, !tbaa !57
  %5 = getelementptr inbounds %"class.dealii::internals::SparsityPatternIterators::Accessor", ptr %0, i64 0, i32 1
  %6 = getelementptr inbounds %"class.dealii::SparsityPattern", ptr %4, i64 0, i32 2
  %7 = load i32, ptr %6, align 4, !tbaa !33
  store i32 %7, ptr %5, align 8, !tbaa !59
  %8 = getelementptr inbounds %"class.dealii::internals::SparsityPatternIterators::Accessor", ptr %0, i64 0, i32 2
  store i32 0, ptr %8, align 4, !tbaa !60
  %9 = getelementptr inbounds %"class.dealii::internals::SparseMatrixIterators::Accessor.22", ptr %0, i64 0, i32 1
  store ptr %1, ptr %9, align 8, !tbaa !110
  ret void
}

; Function Attrs: inlinehint sspstrong uwtable
define weak_odr dso_local void @_ZN6dealii12SparseMatrixIfE5beginEv(ptr noalias sret(%"class.dealii::internals::SparseMatrixIterators::Iterator.23") align 8 %0, ptr noundef nonnull align 8 dereferenceable(36) %1) local_unnamed_addr #4 comdat align 2 {
  %3 = getelementptr inbounds %"class.dealii::SparseMatrix.18", ptr %1, i64 0, i32 1
  %4 = load ptr, ptr %3, align 8, !tbaa !8
  %5 = getelementptr inbounds %"class.dealii::SparsityPattern", ptr %4, i64 0, i32 2
  %6 = load i32, ptr %5, align 4, !tbaa !33
  %7 = getelementptr inbounds %"class.dealii::SparsityPattern", ptr %4, i64 0, i32 8
  %8 = zext i32 %6 to i64
  br label %9

9:                                                ; preds = %12, %2
  %10 = phi i64 [ %14, %12 ], [ 0, %2 ]
  %11 = icmp eq i64 %10, %8
  br i1 %11, label %24, label %12

12:                                               ; preds = %9
  %13 = load ptr, ptr %7, align 8, !tbaa !32
  %14 = add nuw nsw i64 %10, 1
  %15 = getelementptr inbounds i64, ptr %13, i64 %14
  %16 = load i64, ptr %15, align 8, !tbaa !34
  %17 = getelementptr inbounds i64, ptr %13, i64 %10
  %18 = load i64, ptr %17, align 8, !tbaa !34
  %19 = sub i64 %16, %18
  %20 = and i64 %19, 4294967295
  %21 = icmp eq i64 %20, 0
  br i1 %21, label %9, label %22

22:                                               ; preds = %12
  %23 = trunc i64 %10 to i32
  br label %24

24:                                               ; preds = %9, %22
  %25 = phi i32 [ %23, %22 ], [ %6, %9 ]
  store ptr %4, ptr %0, align 8, !tbaa !57
  %26 = getelementptr inbounds %"class.dealii::internals::SparsityPatternIterators::Accessor", ptr %0, i64 0, i32 1
  store i32 %25, ptr %26, align 8, !tbaa !59
  %27 = getelementptr inbounds %"class.dealii::internals::SparsityPatternIterators::Accessor", ptr %0, i64 0, i32 2
  store i32 0, ptr %27, align 4, !tbaa !60
  %28 = getelementptr inbounds %"class.dealii::internals::SparseMatrixIterators::Accessor.24", ptr %0, i64 0, i32 1
  store ptr %1, ptr %28, align 8, !tbaa !112
  ret void
}

; Function Attrs: inlinehint sspstrong uwtable
define weak_odr dso_local void @_ZN6dealii12SparseMatrixIfE3endEv(ptr noalias sret(%"class.dealii::internals::SparseMatrixIterators::Iterator.23") align 8 %0, ptr noundef nonnull align 8 dereferenceable(36) %1) local_unnamed_addr #4 comdat align 2 {
  %3 = getelementptr inbounds %"class.dealii::SparseMatrix.18", ptr %1, i64 0, i32 1
  %4 = load ptr, ptr %3, align 8, !tbaa !8
  %5 = getelementptr inbounds %"class.dealii::SparsityPattern", ptr %4, i64 0, i32 2
  %6 = load i32, ptr %5, align 4, !tbaa !33
  store ptr %4, ptr %0, align 8, !tbaa !57
  %7 = getelementptr inbounds %"class.dealii::internals::SparsityPatternIterators::Accessor", ptr %0, i64 0, i32 1
  store i32 %6, ptr %7, align 8, !tbaa !59
  %8 = getelementptr inbounds %"class.dealii::internals::SparsityPatternIterators::Accessor", ptr %0, i64 0, i32 2
  store i32 0, ptr %8, align 4, !tbaa !60
  %9 = getelementptr inbounds %"class.dealii::internals::SparseMatrixIterators::Accessor.24", ptr %0, i64 0, i32 1
  store ptr %1, ptr %9, align 8, !tbaa !112
  ret void
}

; Function Attrs: inlinehint sspstrong uwtable
define weak_odr dso_local void @_ZNK6dealii12SparseMatrixIfE5beginEj(ptr noalias sret(%"class.dealii::internals::SparseMatrixIterators::Iterator.21") align 8 %0, ptr noundef nonnull align 8 dereferenceable(36) %1, i32 noundef %2) local_unnamed_addr #4 comdat align 2 {
  %4 = getelementptr inbounds %"class.dealii::SparseMatrix.18", ptr %1, i64 0, i32 1
  %5 = load ptr, ptr %4, align 8, !tbaa !8
  %6 = getelementptr inbounds %"class.dealii::SparsityPattern", ptr %5, i64 0, i32 8
  %7 = load ptr, ptr %6, align 8, !tbaa !32
  %8 = add i32 %2, 1
  %9 = zext i32 %8 to i64
  %10 = getelementptr inbounds i64, ptr %7, i64 %9
  %11 = load i64, ptr %10, align 8, !tbaa !34
  %12 = zext i32 %2 to i64
  %13 = getelementptr inbounds i64, ptr %7, i64 %12
  %14 = load i64, ptr %13, align 8, !tbaa !34
  %15 = sub i64 %11, %14
  %16 = and i64 %15, 4294967295
  %17 = icmp eq i64 %16, 0
  br i1 %17, label %18, label %34

18:                                               ; preds = %3
  %19 = getelementptr inbounds %"class.dealii::SparsityPattern", ptr %5, i64 0, i32 2
  %20 = load i32, ptr %19, align 4, !tbaa !33, !noalias !114
  br label %21

21:                                               ; preds = %26, %18
  %22 = phi i64 [ %11, %18 ], [ %30, %26 ]
  %23 = phi i32 [ %2, %18 ], [ %24, %26 ]
  %24 = add i32 %23, 1
  %25 = icmp ult i32 %24, %20
  br i1 %25, label %26, label %34

26:                                               ; preds = %21
  %27 = add i32 %23, 2
  %28 = zext i32 %27 to i64
  %29 = getelementptr inbounds i64, ptr %7, i64 %28
  %30 = load i64, ptr %29, align 8, !tbaa !34, !noalias !114
  %31 = sub i64 %30, %22
  %32 = and i64 %31, 4294967295
  %33 = icmp eq i64 %32, 0
  br i1 %33, label %21, label %34

34:                                               ; preds = %26, %21, %3
  %35 = phi i32 [ %2, %3 ], [ %24, %26 ], [ %20, %21 ]
  store ptr %5, ptr %0, align 8, !tbaa !57
  %36 = getelementptr inbounds %"class.dealii::internals::SparsityPatternIterators::Accessor", ptr %0, i64 0, i32 1
  store i32 %35, ptr %36, align 8, !tbaa !59
  %37 = getelementptr inbounds %"class.dealii::internals::SparsityPatternIterators::Accessor", ptr %0, i64 0, i32 2
  store i32 0, ptr %37, align 4, !tbaa !60
  %38 = getelementptr inbounds %"class.dealii::internals::SparseMatrixIterators::Accessor.22", ptr %0, i64 0, i32 1
  store ptr %1, ptr %38, align 8, !tbaa !110
  ret void
}

; Function Attrs: inlinehint sspstrong uwtable
define weak_odr dso_local void @_ZNK6dealii12SparseMatrixIfE3endEj(ptr noalias sret(%"class.dealii::internals::SparseMatrixIterators::Iterator.21") align 8 %0, ptr noundef nonnull align 8 dereferenceable(36) %1, i32 noundef %2) local_unnamed_addr #4 comdat align 2 {
  %4 = getelementptr inbounds %"class.dealii::SparseMatrix.18", ptr %1, i64 0, i32 1
  %5 = load ptr, ptr %4, align 8, !tbaa !8
  %6 = getelementptr inbounds %"class.dealii::SparsityPattern", ptr %5, i64 0, i32 2
  %7 = load i32, ptr %6, align 4, !tbaa !33
  %8 = getelementptr inbounds %"class.dealii::SparsityPattern", ptr %5, i64 0, i32 8
  br label %9

9:                                                ; preds = %13, %3
  %10 = phi i32 [ %2, %3 ], [ %11, %13 ]
  %11 = add i32 %10, 1
  %12 = icmp ult i32 %11, %7
  br i1 %12, label %13, label %25

13:                                               ; preds = %9
  %14 = load ptr, ptr %8, align 8, !tbaa !32
  %15 = add i32 %10, 2
  %16 = zext i32 %15 to i64
  %17 = getelementptr inbounds i64, ptr %14, i64 %16
  %18 = load i64, ptr %17, align 8, !tbaa !34
  %19 = zext i32 %11 to i64
  %20 = getelementptr inbounds i64, ptr %14, i64 %19
  %21 = load i64, ptr %20, align 8, !tbaa !34
  %22 = sub i64 %18, %21
  %23 = and i64 %22, 4294967295
  %24 = icmp eq i64 %23, 0
  br i1 %24, label %9, label %25

25:                                               ; preds = %9, %13
  %26 = phi i32 [ %11, %13 ], [ %7, %9 ]
  store ptr %5, ptr %0, align 8, !tbaa !57
  %27 = getelementptr inbounds %"class.dealii::internals::SparsityPatternIterators::Accessor", ptr %0, i64 0, i32 1
  store i32 %26, ptr %27, align 8, !tbaa !59
  %28 = getelementptr inbounds %"class.dealii::internals::SparsityPatternIterators::Accessor", ptr %0, i64 0, i32 2
  store i32 0, ptr %28, align 4, !tbaa !60
  %29 = getelementptr inbounds %"class.dealii::internals::SparseMatrixIterators::Accessor.22", ptr %0, i64 0, i32 1
  store ptr %1, ptr %29, align 8, !tbaa !110
  ret void
}

; Function Attrs: inlinehint sspstrong uwtable
define weak_odr dso_local void @_ZN6dealii12SparseMatrixIfE5beginEj(ptr noalias sret(%"class.dealii::internals::SparseMatrixIterators::Iterator.23") align 8 %0, ptr noundef nonnull align 8 dereferenceable(36) %1, i32 noundef %2) local_unnamed_addr #4 comdat align 2 {
  %4 = getelementptr inbounds %"class.dealii::SparseMatrix.18", ptr %1, i64 0, i32 1
  %5 = load ptr, ptr %4, align 8, !tbaa !8
  %6 = getelementptr inbounds %"class.dealii::SparsityPattern", ptr %5, i64 0, i32 8
  %7 = load ptr, ptr %6, align 8, !tbaa !32
  %8 = add i32 %2, 1
  %9 = zext i32 %8 to i64
  %10 = getelementptr inbounds i64, ptr %7, i64 %9
  %11 = load i64, ptr %10, align 8, !tbaa !34
  %12 = zext i32 %2 to i64
  %13 = getelementptr inbounds i64, ptr %7, i64 %12
  %14 = load i64, ptr %13, align 8, !tbaa !34
  %15 = sub i64 %11, %14
  %16 = and i64 %15, 4294967295
  %17 = icmp eq i64 %16, 0
  br i1 %17, label %18, label %34

18:                                               ; preds = %3
  %19 = getelementptr inbounds %"class.dealii::SparsityPattern", ptr %5, i64 0, i32 2
  %20 = load i32, ptr %19, align 4, !tbaa !33, !noalias !117
  br label %21

21:                                               ; preds = %26, %18
  %22 = phi i64 [ %11, %18 ], [ %30, %26 ]
  %23 = phi i32 [ %2, %18 ], [ %24, %26 ]
  %24 = add i32 %23, 1
  %25 = icmp ult i32 %24, %20
  br i1 %25, label %26, label %34

26:                                               ; preds = %21
  %27 = add i32 %23, 2
  %28 = zext i32 %27 to i64
  %29 = getelementptr inbounds i64, ptr %7, i64 %28
  %30 = load i64, ptr %29, align 8, !tbaa !34, !noalias !117
  %31 = sub i64 %30, %22
  %32 = and i64 %31, 4294967295
  %33 = icmp eq i64 %32, 0
  br i1 %33, label %21, label %34

34:                                               ; preds = %26, %21, %3
  %35 = phi i32 [ %2, %3 ], [ %24, %26 ], [ %20, %21 ]
  store ptr %5, ptr %0, align 8, !tbaa !57
  %36 = getelementptr inbounds %"class.dealii::internals::SparsityPatternIterators::Accessor", ptr %0, i64 0, i32 1
  store i32 %35, ptr %36, align 8, !tbaa !59
  %37 = getelementptr inbounds %"class.dealii::internals::SparsityPatternIterators::Accessor", ptr %0, i64 0, i32 2
  store i32 0, ptr %37, align 4, !tbaa !60
  %38 = getelementptr inbounds %"class.dealii::internals::SparseMatrixIterators::Accessor.24", ptr %0, i64 0, i32 1
  store ptr %1, ptr %38, align 8, !tbaa !112
  ret void
}

; Function Attrs: inlinehint sspstrong uwtable
define weak_odr dso_local void @_ZN6dealii12SparseMatrixIfE3endEj(ptr noalias sret(%"class.dealii::internals::SparseMatrixIterators::Iterator.23") align 8 %0, ptr noundef nonnull align 8 dereferenceable(36) %1, i32 noundef %2) local_unnamed_addr #4 comdat align 2 {
  %4 = getelementptr inbounds %"class.dealii::SparseMatrix.18", ptr %1, i64 0, i32 1
  %5 = load ptr, ptr %4, align 8, !tbaa !8
  %6 = getelementptr inbounds %"class.dealii::SparsityPattern", ptr %5, i64 0, i32 2
  %7 = load i32, ptr %6, align 4, !tbaa !33
  %8 = getelementptr inbounds %"class.dealii::SparsityPattern", ptr %5, i64 0, i32 8
  br label %9

9:                                                ; preds = %13, %3
  %10 = phi i32 [ %2, %3 ], [ %11, %13 ]
  %11 = add i32 %10, 1
  %12 = icmp ult i32 %11, %7
  br i1 %12, label %13, label %25

13:                                               ; preds = %9
  %14 = load ptr, ptr %8, align 8, !tbaa !32
  %15 = add i32 %10, 2
  %16 = zext i32 %15 to i64
  %17 = getelementptr inbounds i64, ptr %14, i64 %16
  %18 = load i64, ptr %17, align 8, !tbaa !34
  %19 = zext i32 %11 to i64
  %20 = getelementptr inbounds i64, ptr %14, i64 %19
  %21 = load i64, ptr %20, align 8, !tbaa !34
  %22 = sub i64 %18, %21
  %23 = and i64 %22, 4294967295
  %24 = icmp eq i64 %23, 0
  br i1 %24, label %9, label %25

25:                                               ; preds = %9, %13
  %26 = phi i32 [ %11, %13 ], [ %7, %9 ]
  store ptr %5, ptr %0, align 8, !tbaa !57
  %27 = getelementptr inbounds %"class.dealii::internals::SparsityPatternIterators::Accessor", ptr %0, i64 0, i32 1
  store i32 %26, ptr %27, align 8, !tbaa !59
  %28 = getelementptr inbounds %"class.dealii::internals::SparsityPatternIterators::Accessor", ptr %0, i64 0, i32 2
  store i32 0, ptr %28, align 4, !tbaa !60
  %29 = getelementptr inbounds %"class.dealii::internals::SparseMatrixIterators::Accessor.24", ptr %0, i64 0, i32 1
  store ptr %1, ptr %29, align 8, !tbaa !112
  ret void
}

; Function Attrs: sspstrong uwtable
define weak_odr dso_local void @_ZNK6dealii12SparseMatrixIfE5printERSo(ptr noundef nonnull align 8 dereferenceable(36) %0, ptr noundef nonnull align 8 dereferenceable(8) %1) local_unnamed_addr #0 comdat align 2 personality ptr @__gxx_personality_v0 {
  %3 = alloca %"class.dealii::StandardExceptions::ExcIO", align 8
  %4 = getelementptr inbounds %"class.dealii::SparseMatrix.18", ptr %0, i64 0, i32 1
  %5 = load ptr, ptr %4, align 8, !tbaa !8
  %6 = getelementptr inbounds %"class.dealii::SparsityPattern", ptr %5, i64 0, i32 2
  %7 = load i32, ptr %6, align 4, !tbaa !33
  %8 = icmp eq i32 %7, 0
  br i1 %8, label %17, label %9

9:                                                ; preds = %2
  %10 = getelementptr inbounds %"class.dealii::SparseMatrix.18", ptr %0, i64 0, i32 2
  br label %26

11:                                               ; preds = %79, %26
  %12 = phi ptr [ %27, %26 ], [ %85, %79 ]
  %13 = getelementptr inbounds %"class.dealii::SparsityPattern", ptr %12, i64 0, i32 2
  %14 = load i32, ptr %13, align 4, !tbaa !33
  %15 = zext i32 %14 to i64
  %16 = icmp ult i64 %33, %15
  br i1 %16, label %26, label %17

17:                                               ; preds = %11, %2
  %18 = load ptr, ptr %1, align 8, !tbaa !5
  %19 = getelementptr i8, ptr %18, i64 -24
  %20 = load i64, ptr %19, align 8
  %21 = getelementptr inbounds i8, ptr %1, i64 %20
  %22 = getelementptr inbounds %"class.std::ios_base", ptr %21, i64 0, i32 5
  %23 = load i32, ptr %22, align 8, !tbaa !71
  %24 = and i32 %23, 5
  %25 = icmp eq i32 %24, 0
  br i1 %25, label %102, label %91

26:                                               ; preds = %9, %11
  %27 = phi ptr [ %5, %9 ], [ %12, %11 ]
  %28 = phi i64 [ 0, %9 ], [ %33, %11 ]
  %29 = getelementptr inbounds %"class.dealii::SparsityPattern", ptr %27, i64 0, i32 8
  %30 = load ptr, ptr %29, align 8, !tbaa !32
  %31 = getelementptr inbounds i64, ptr %30, i64 %28
  %32 = load i64, ptr %31, align 8, !tbaa !34
  %33 = add nuw nsw i64 %28, 1
  %34 = and i64 %32, 4294967295
  %35 = getelementptr inbounds i64, ptr %30, i64 %33
  %36 = load i64, ptr %35, align 8, !tbaa !34
  %37 = icmp ugt i64 %36, %34
  br i1 %37, label %38, label %11

38:                                               ; preds = %26
  %39 = trunc i64 %32 to i32
  br label %40

40:                                               ; preds = %38, %79
  %41 = phi i64 [ %84, %79 ], [ %34, %38 ]
  %42 = phi i32 [ %83, %79 ], [ %39, %38 ]
  %43 = tail call noundef nonnull align 8 dereferenceable(8) ptr @_ZSt16__ostream_insertIcSt11char_traitsIcEERSt13basic_ostreamIT_T0_ES6_PKS3_l(ptr noundef nonnull align 8 dereferenceable(8) %1, ptr noundef nonnull @.str.13, i64 noundef 1)
  %44 = tail call noundef nonnull align 8 dereferenceable(8) ptr @_ZNSo9_M_insertImEERSoT_(ptr noundef nonnull align 8 dereferenceable(8) %1, i64 noundef %28)
  %45 = tail call noundef nonnull align 8 dereferenceable(8) ptr @_ZSt16__ostream_insertIcSt11char_traitsIcEERSt13basic_ostreamIT_T0_ES6_PKS3_l(ptr noundef nonnull align 8 dereferenceable(8) %44, ptr noundef nonnull @.str.14, i64 noundef 1)
  %46 = load ptr, ptr %4, align 8, !tbaa !8
  %47 = getelementptr inbounds %"class.dealii::SparsityPattern", ptr %46, i64 0, i32 9
  %48 = load ptr, ptr %47, align 8, !tbaa !46
  %49 = getelementptr inbounds i32, ptr %48, i64 %41
  %50 = load i32, ptr %49, align 4, !tbaa !47
  %51 = zext i32 %50 to i64
  %52 = tail call noundef nonnull align 8 dereferenceable(8) ptr @_ZNSo9_M_insertImEERSoT_(ptr noundef nonnull align 8 dereferenceable(8) %44, i64 noundef %51)
  %53 = tail call noundef nonnull align 8 dereferenceable(8) ptr @_ZSt16__ostream_insertIcSt11char_traitsIcEERSt13basic_ostreamIT_T0_ES6_PKS3_l(ptr noundef nonnull align 8 dereferenceable(8) %52, ptr noundef nonnull @.str.15, i64 noundef 2)
  %54 = load ptr, ptr %10, align 8, !tbaa !92
  %55 = getelementptr inbounds float, ptr %54, i64 %41
  %56 = load float, ptr %55, align 4, !tbaa !95
  %57 = fpext float %56 to double
  %58 = tail call noundef nonnull align 8 dereferenceable(8) ptr @_ZNSo9_M_insertIdEERSoT_(ptr noundef nonnull align 8 dereferenceable(8) %52, double noundef %57)
  %59 = load ptr, ptr %58, align 8, !tbaa !5
  %60 = getelementptr i8, ptr %59, i64 -24
  %61 = load i64, ptr %60, align 8
  %62 = getelementptr inbounds i8, ptr %58, i64 %61
  %63 = getelementptr inbounds %"class.std::basic_ios", ptr %62, i64 0, i32 5
  %64 = load ptr, ptr %63, align 8, !tbaa !77
  %65 = icmp eq ptr %64, null
  br i1 %65, label %66, label %67

66:                                               ; preds = %40
  tail call void @_ZSt16__throw_bad_castv() #21
  unreachable

67:                                               ; preds = %40
  %68 = getelementptr inbounds %"class.std::ctype", ptr %64, i64 0, i32 8
  %69 = load i8, ptr %68, align 8, !tbaa !79
  %70 = icmp eq i8 %69, 0
  br i1 %70, label %74, label %71

71:                                               ; preds = %67
  %72 = getelementptr inbounds %"class.std::ctype", ptr %64, i64 0, i32 9, i64 10
  %73 = load i8, ptr %72, align 1, !tbaa !82
  br label %79

74:                                               ; preds = %67
  tail call void @_ZNKSt5ctypeIcE13_M_widen_initEv(ptr noundef nonnull align 8 dereferenceable(570) %64)
  %75 = load ptr, ptr %64, align 8, !tbaa !5
  %76 = getelementptr inbounds ptr, ptr %75, i64 6
  %77 = load ptr, ptr %76, align 8
  %78 = tail call noundef signext i8 %77(ptr noundef nonnull align 8 dereferenceable(570) %64, i8 noundef signext 10)
  br label %79

79:                                               ; preds = %71, %74
  %80 = phi i8 [ %73, %71 ], [ %78, %74 ]
  %81 = tail call noundef nonnull align 8 dereferenceable(8) ptr @_ZNSo3putEc(ptr noundef nonnull align 8 dereferenceable(8) %58, i8 noundef signext %80)
  %82 = tail call noundef nonnull align 8 dereferenceable(8) ptr @_ZNSo5flushEv(ptr noundef nonnull align 8 dereferenceable(8) %81)
  %83 = add i32 %42, 1
  %84 = zext i32 %83 to i64
  %85 = load ptr, ptr %4, align 8, !tbaa !8
  %86 = getelementptr inbounds %"class.dealii::SparsityPattern", ptr %85, i64 0, i32 8
  %87 = load ptr, ptr %86, align 8, !tbaa !32
  %88 = getelementptr inbounds i64, ptr %87, i64 %33
  %89 = load i64, ptr %88, align 8, !tbaa !34
  %90 = icmp ugt i64 %89, %84
  br i1 %90, label %40, label %11

91:                                               ; preds = %17
  call void @llvm.memset.p0.i64(ptr noundef nonnull align 8 dereferenceable(64) %3, i8 0, i64 64, i1 false)
  call void @_ZN6dealii13ExceptionBaseC2Ev(ptr noundef nonnull align 8 dereferenceable(60) %3)
  store ptr getelementptr inbounds ({ [6 x ptr] }, ptr @_ZTVN6dealii18StandardExceptions5ExcIOE, i64 0, inrange i32 0, i64 2), ptr %3, align 8, !tbaa !5
  invoke void @_ZN6dealii13ExceptionBase10set_fieldsEPKciS2_S2_S2_(ptr noundef nonnull align 8 dereferenceable(60) %3, ptr noundef nonnull @.str.16, i32 noundef 1591, ptr noundef nonnull @.str.10, ptr noundef nonnull @.str.17, ptr noundef nonnull @.str.18)
          to label %92 unwind label %98

92:                                               ; preds = %91
  %93 = call ptr @__cxa_allocate_exception(i64 64) #17
  invoke void @_ZN6dealii13ExceptionBaseC2ERKS0_(ptr noundef nonnull align 8 dereferenceable(60) %93, ptr noundef nonnull align 8 dereferenceable(60) %3)
          to label %94 unwind label %96

94:                                               ; preds = %92
  store ptr getelementptr inbounds ({ [6 x ptr] }, ptr @_ZTVN6dealii18StandardExceptions5ExcIOE, i64 0, inrange i32 0, i64 2), ptr %93, align 8, !tbaa !5
  invoke void @__cxa_throw(ptr nonnull %93, ptr nonnull @_ZTIN6dealii18StandardExceptions5ExcIOE, ptr nonnull @_ZN6dealii13ExceptionBaseD2Ev) #21
          to label %95 unwind label %98

95:                                               ; preds = %94
  unreachable

96:                                               ; preds = %92
  %97 = landingpad { ptr, i32 }
          cleanup
  call void @__cxa_free_exception(ptr %93) #17
  br label %100

98:                                               ; preds = %94, %91
  %99 = landingpad { ptr, i32 }
          cleanup
  br label %100

100:                                              ; preds = %96, %98
  %101 = phi { ptr, i32 } [ %99, %98 ], [ %97, %96 ]
  call void @_ZN6dealii13ExceptionBaseD2Ev(ptr noundef nonnull align 8 dereferenceable(60) %3) #17
  resume { ptr, i32 } %101

102:                                              ; preds = %17
  ret void
}

; Function Attrs: sspstrong uwtable
define weak_odr dso_local void @_ZNK6dealii12SparseMatrixIfE15print_formattedERSojbjPKcd(ptr noundef nonnull align 8 dereferenceable(36) %0, ptr noundef nonnull align 8 dereferenceable(8) %1, i32 noundef %2, i1 noundef zeroext %3, i32 noundef %4, ptr noundef %5, double noundef %6) local_unnamed_addr #0 comdat align 2 personality ptr @__gxx_personality_v0 {
  %8 = alloca i8, align 1
  %9 = alloca i8, align 1
  %10 = alloca %"class.dealii::StandardExceptions::ExcIO", align 8
  %11 = load ptr, ptr %1, align 8, !tbaa !5
  %12 = getelementptr i8, ptr %11, i64 -24
  %13 = load i64, ptr %12, align 8
  %14 = getelementptr inbounds i8, ptr %1, i64 %13
  %15 = getelementptr inbounds %"class.std::ios_base", ptr %14, i64 0, i32 3
  %16 = load i32, ptr %15, align 8, !tbaa !83
  %17 = zext i32 %2 to i64
  %18 = getelementptr inbounds %"class.std::ios_base", ptr %14, i64 0, i32 1
  %19 = load i64, ptr %18, align 8, !tbaa !84
  store i64 %17, ptr %18, align 8, !tbaa !84
  %20 = load i64, ptr %12, align 8
  %21 = getelementptr inbounds i8, ptr %1, i64 %20
  %22 = getelementptr inbounds %"class.std::ios_base", ptr %21, i64 0, i32 3
  %23 = load i32, ptr %22, align 8, !tbaa !85
  %24 = and i32 %23, -261
  %25 = select i1 %3, i32 256, i32 4
  %26 = or i32 %24, %25
  store i32 %26, ptr %22, align 8, !tbaa !85
  %27 = getelementptr inbounds %"class.dealii::SparseMatrix.18", ptr %0, i64 0, i32 1
  %28 = getelementptr %"class.std::basic_ios", ptr %1, i64 0, i32 5
  %29 = load ptr, ptr %27, align 8, !tbaa !8
  %30 = getelementptr inbounds %"class.dealii::SparsityPattern", ptr %29, i64 0, i32 2
  %31 = load i32, ptr %30, align 4, !tbaa !33
  %32 = icmp eq i32 %31, 0
  br i1 %32, label %50, label %33

33:                                               ; preds = %7
  %34 = icmp eq i32 %4, 0
  %35 = select i1 %3, i32 7, i32 2
  %36 = add i32 %35, %2
  %37 = select i1 %34, i32 %36, i32 %4
  %38 = getelementptr %"class.std::ios_base", ptr %1, i64 0, i32 2
  %39 = sext i32 %37 to i64
  %40 = getelementptr inbounds %"class.dealii::SparseMatrix.18", ptr %0, i64 0, i32 2
  %41 = icmp eq ptr %5, null
  br label %42

42:                                               ; preds = %33, %79
  %43 = phi ptr [ %29, %33 ], [ %84, %79 ]
  %44 = phi i32 [ 0, %33 ], [ %83, %79 ]
  %45 = getelementptr inbounds %"class.dealii::SparsityPattern", ptr %43, i64 0, i32 3
  %46 = load i32, ptr %45, align 8, !tbaa !17
  %47 = icmp eq i32 %46, 0
  br i1 %47, label %59, label %88

48:                                               ; preds = %79
  %49 = load ptr, ptr %1, align 8, !tbaa !5
  br label %50

50:                                               ; preds = %48, %7
  %51 = phi ptr [ %49, %48 ], [ %11, %7 ]
  %52 = getelementptr i8, ptr %51, i64 -24
  %53 = load i64, ptr %52, align 8
  %54 = getelementptr inbounds i8, ptr %1, i64 %53
  %55 = getelementptr inbounds %"class.std::ios_base", ptr %54, i64 0, i32 5
  %56 = load i32, ptr %55, align 8, !tbaa !71
  %57 = and i32 %56, 5
  %58 = icmp eq i32 %57, 0
  br i1 %58, label %158, label %147

59:                                               ; preds = %141, %42
  %60 = load ptr, ptr %1, align 8, !tbaa !5
  %61 = getelementptr i8, ptr %60, i64 -24
  %62 = load i64, ptr %61, align 8
  %63 = getelementptr i8, ptr %28, i64 %62
  %64 = load ptr, ptr %63, align 8, !tbaa !77
  %65 = icmp eq ptr %64, null
  br i1 %65, label %66, label %67

66:                                               ; preds = %59
  call void @_ZSt16__throw_bad_castv() #21
  unreachable

67:                                               ; preds = %59
  %68 = getelementptr inbounds %"class.std::ctype", ptr %64, i64 0, i32 8
  %69 = load i8, ptr %68, align 8, !tbaa !79
  %70 = icmp eq i8 %69, 0
  br i1 %70, label %74, label %71

71:                                               ; preds = %67
  %72 = getelementptr inbounds %"class.std::ctype", ptr %64, i64 0, i32 9, i64 10
  %73 = load i8, ptr %72, align 1, !tbaa !82
  br label %79

74:                                               ; preds = %67
  call void @_ZNKSt5ctypeIcE13_M_widen_initEv(ptr noundef nonnull align 8 dereferenceable(570) %64)
  %75 = load ptr, ptr %64, align 8, !tbaa !5
  %76 = getelementptr inbounds ptr, ptr %75, i64 6
  %77 = load ptr, ptr %76, align 8
  %78 = call noundef signext i8 %77(ptr noundef nonnull align 8 dereferenceable(570) %64, i8 noundef signext 10)
  br label %79

79:                                               ; preds = %71, %74
  %80 = phi i8 [ %73, %71 ], [ %78, %74 ]
  %81 = call noundef nonnull align 8 dereferenceable(8) ptr @_ZNSo3putEc(ptr noundef nonnull align 8 dereferenceable(8) %1, i8 noundef signext %80)
  %82 = call noundef nonnull align 8 dereferenceable(8) ptr @_ZNSo5flushEv(ptr noundef nonnull align 8 dereferenceable(8) %81)
  %83 = add nuw i32 %44, 1
  %84 = load ptr, ptr %27, align 8, !tbaa !8
  %85 = getelementptr inbounds %"class.dealii::SparsityPattern", ptr %84, i64 0, i32 2
  %86 = load i32, ptr %85, align 4, !tbaa !33
  %87 = icmp ult i32 %83, %86
  br i1 %87, label %42, label %48

88:                                               ; preds = %42, %141
  %89 = phi ptr [ %143, %141 ], [ %43, %42 ]
  %90 = phi i32 [ %142, %141 ], [ 0, %42 ]
  %91 = call noundef i32 @_ZNK6dealii15SparsityPatternclEjj(ptr noundef nonnull align 8 dereferenceable(122) %89, i32 noundef %44, i32 noundef %90)
  %92 = icmp eq i32 %91, -1
  %93 = load ptr, ptr %1, align 8, !tbaa !5
  %94 = getelementptr i8, ptr %93, i64 -24
  %95 = load i64, ptr %94, align 8
  %96 = getelementptr i8, ptr %38, i64 %95
  store i64 %39, ptr %96, align 8, !tbaa !86
  br i1 %92, label %119, label %97

97:                                               ; preds = %88
  %98 = load ptr, ptr %40, align 8, !tbaa !92
  %99 = load ptr, ptr %27, align 8, !tbaa !8
  %100 = call noundef i32 @_ZNK6dealii15SparsityPatternclEjj(ptr noundef nonnull align 8 dereferenceable(122) %99, i32 noundef %44, i32 noundef %90)
  %101 = zext i32 %100 to i64
  %102 = getelementptr inbounds float, ptr %98, i64 %101
  %103 = load float, ptr %102, align 4, !tbaa !95
  %104 = fpext float %103 to double
  %105 = fmul double %104, %6
  %106 = call noundef nonnull align 8 dereferenceable(8) ptr @_ZNSo9_M_insertIdEERSoT_(ptr noundef nonnull align 8 dereferenceable(8) %1, double noundef %105)
  call void @llvm.lifetime.start.p0(i64 1, ptr nonnull %9)
  store i8 32, ptr %9, align 1, !tbaa !82
  %107 = load ptr, ptr %106, align 8, !tbaa !5
  %108 = getelementptr i8, ptr %107, i64 -24
  %109 = load i64, ptr %108, align 8
  %110 = getelementptr inbounds i8, ptr %106, i64 %109
  %111 = getelementptr inbounds %"class.std::ios_base", ptr %110, i64 0, i32 2
  %112 = load i64, ptr %111, align 8, !tbaa !86
  %113 = icmp eq i64 %112, 0
  br i1 %113, label %116, label %114

114:                                              ; preds = %97
  %115 = call noundef nonnull align 8 dereferenceable(8) ptr @_ZSt16__ostream_insertIcSt11char_traitsIcEERSt13basic_ostreamIT_T0_ES6_PKS3_l(ptr noundef nonnull align 8 dereferenceable(8) %106, ptr noundef nonnull %9, i64 noundef 1)
  br label %118

116:                                              ; preds = %97
  %117 = call noundef nonnull align 8 dereferenceable(8) ptr @_ZNSo3putEc(ptr noundef nonnull align 8 dereferenceable(8) %106, i8 noundef signext 32)
  br label %118

118:                                              ; preds = %114, %116
  call void @llvm.lifetime.end.p0(i64 1, ptr nonnull %9)
  br label %141

119:                                              ; preds = %88
  br i1 %41, label %120, label %126

120:                                              ; preds = %119
  %121 = load i64, ptr %94, align 8
  %122 = getelementptr inbounds i8, ptr %1, i64 %121
  %123 = getelementptr inbounds %"class.std::ios_base", ptr %122, i64 0, i32 5
  %124 = load i32, ptr %123, align 8, !tbaa !71
  %125 = or i32 %124, 1
  call void @_ZNSt9basic_iosIcSt11char_traitsIcEE5clearESt12_Ios_Iostate(ptr noundef nonnull align 8 dereferenceable(264) %122, i32 noundef %125)
  br label %129

126:                                              ; preds = %119
  %127 = call i64 @strlen(ptr noundef nonnull dereferenceable(1) %5) #17
  %128 = call noundef nonnull align 8 dereferenceable(8) ptr @_ZSt16__ostream_insertIcSt11char_traitsIcEERSt13basic_ostreamIT_T0_ES6_PKS3_l(ptr noundef nonnull align 8 dereferenceable(8) %1, ptr noundef nonnull %5, i64 noundef %127)
  br label %129

129:                                              ; preds = %120, %126
  call void @llvm.lifetime.start.p0(i64 1, ptr nonnull %8)
  store i8 32, ptr %8, align 1, !tbaa !82
  %130 = load ptr, ptr %1, align 8, !tbaa !5
  %131 = getelementptr i8, ptr %130, i64 -24
  %132 = load i64, ptr %131, align 8
  %133 = getelementptr i8, ptr %38, i64 %132
  %134 = load i64, ptr %133, align 8, !tbaa !86
  %135 = icmp eq i64 %134, 0
  br i1 %135, label %138, label %136

136:                                              ; preds = %129
  %137 = call noundef nonnull align 8 dereferenceable(8) ptr @_ZSt16__ostream_insertIcSt11char_traitsIcEERSt13basic_ostreamIT_T0_ES6_PKS3_l(ptr noundef nonnull align 8 dereferenceable(8) %1, ptr noundef nonnull %8, i64 noundef 1)
  br label %140

138:                                              ; preds = %129
  %139 = call noundef nonnull align 8 dereferenceable(8) ptr @_ZNSo3putEc(ptr noundef nonnull align 8 dereferenceable(8) %1, i8 noundef signext 32)
  br label %140

140:                                              ; preds = %136, %138
  call void @llvm.lifetime.end.p0(i64 1, ptr nonnull %8)
  br label %141

141:                                              ; preds = %118, %140
  %142 = add nuw i32 %90, 1
  %143 = load ptr, ptr %27, align 8, !tbaa !8
  %144 = getelementptr inbounds %"class.dealii::SparsityPattern", ptr %143, i64 0, i32 3
  %145 = load i32, ptr %144, align 8, !tbaa !17
  %146 = icmp ult i32 %142, %145
  br i1 %146, label %88, label %59

147:                                              ; preds = %50
  call void @llvm.memset.p0.i64(ptr noundef nonnull align 8 dereferenceable(64) %10, i8 0, i64 64, i1 false)
  call void @_ZN6dealii13ExceptionBaseC2Ev(ptr noundef nonnull align 8 dereferenceable(60) %10)
  store ptr getelementptr inbounds ({ [6 x ptr] }, ptr @_ZTVN6dealii18StandardExceptions5ExcIOE, i64 0, inrange i32 0, i64 2), ptr %10, align 8, !tbaa !5
  invoke void @_ZN6dealii13ExceptionBase10set_fieldsEPKciS2_S2_S2_(ptr noundef nonnull align 8 dereferenceable(60) %10, ptr noundef nonnull @.str.16, i32 noundef 1632, ptr noundef nonnull @.str.10, ptr noundef nonnull @.str.17, ptr noundef nonnull @.str.18)
          to label %148 unwind label %154

148:                                              ; preds = %147
  %149 = call ptr @__cxa_allocate_exception(i64 64) #17
  invoke void @_ZN6dealii13ExceptionBaseC2ERKS0_(ptr noundef nonnull align 8 dereferenceable(60) %149, ptr noundef nonnull align 8 dereferenceable(60) %10)
          to label %150 unwind label %152

150:                                              ; preds = %148
  store ptr getelementptr inbounds ({ [6 x ptr] }, ptr @_ZTVN6dealii18StandardExceptions5ExcIOE, i64 0, inrange i32 0, i64 2), ptr %149, align 8, !tbaa !5
  invoke void @__cxa_throw(ptr nonnull %149, ptr nonnull @_ZTIN6dealii18StandardExceptions5ExcIOE, ptr nonnull @_ZN6dealii13ExceptionBaseD2Ev) #21
          to label %151 unwind label %154

151:                                              ; preds = %150
  unreachable

152:                                              ; preds = %148
  %153 = landingpad { ptr, i32 }
          cleanup
  call void @__cxa_free_exception(ptr %149) #17
  br label %156

154:                                              ; preds = %150, %147
  %155 = landingpad { ptr, i32 }
          cleanup
  br label %156

156:                                              ; preds = %152, %154
  %157 = phi { ptr, i32 } [ %155, %154 ], [ %153, %152 ]
  call void @_ZN6dealii13ExceptionBaseD2Ev(ptr noundef nonnull align 8 dereferenceable(60) %10) #17
  resume { ptr, i32 } %157

158:                                              ; preds = %50
  %159 = and i64 %19, 4294967295
  %160 = getelementptr inbounds %"class.std::ios_base", ptr %54, i64 0, i32 1
  store i64 %159, ptr %160, align 8, !tbaa !84
  %161 = load i64, ptr %52, align 8
  %162 = getelementptr inbounds i8, ptr %1, i64 %161
  %163 = getelementptr inbounds %"class.std::ios_base", ptr %162, i64 0, i32 3
  store i32 %16, ptr %163, align 8, !tbaa !83
  ret void
}

; Function Attrs: sspstrong uwtable
define weak_odr dso_local void @_ZNK6dealii12SparseMatrixIfE13print_patternERSod(ptr noundef nonnull align 8 dereferenceable(36) %0, ptr noundef nonnull align 8 dereferenceable(8) %1, double noundef %2) local_unnamed_addr #0 comdat align 2 personality ptr @__gxx_personality_v0 {
  %4 = alloca i8, align 1
  %5 = alloca i8, align 1
  %6 = alloca i8, align 1
  %7 = alloca %"class.dealii::StandardExceptions::ExcIO", align 8
  %8 = getelementptr inbounds %"class.dealii::SparseMatrix.18", ptr %0, i64 0, i32 1
  %9 = getelementptr %"class.std::basic_ios", ptr %1, i64 0, i32 5
  %10 = load ptr, ptr %8, align 8, !tbaa !8
  %11 = getelementptr inbounds %"class.dealii::SparsityPattern", ptr %10, i64 0, i32 2
  %12 = load i32, ptr %11, align 4, !tbaa !33
  %13 = icmp eq i32 %12, 0
  br i1 %13, label %23, label %14

14:                                               ; preds = %3
  %15 = getelementptr %"class.std::ios_base", ptr %1, i64 0, i32 2
  %16 = getelementptr inbounds %"class.dealii::SparseMatrix.18", ptr %0, i64 0, i32 2
  br label %17

17:                                               ; preds = %14, %52
  %18 = phi ptr [ %10, %14 ], [ %57, %52 ]
  %19 = phi i32 [ 0, %14 ], [ %56, %52 ]
  %20 = getelementptr inbounds %"class.dealii::SparsityPattern", ptr %18, i64 0, i32 3
  %21 = load i32, ptr %20, align 8, !tbaa !17
  %22 = icmp eq i32 %21, 0
  br i1 %22, label %32, label %61

23:                                               ; preds = %52, %3
  %24 = load ptr, ptr %1, align 8, !tbaa !5
  %25 = getelementptr i8, ptr %24, i64 -24
  %26 = load i64, ptr %25, align 8
  %27 = getelementptr inbounds i8, ptr %1, i64 %26
  %28 = getelementptr inbounds %"class.std::ios_base", ptr %27, i64 0, i32 5
  %29 = load i32, ptr %28, align 8, !tbaa !71
  %30 = and i32 %29, 5
  %31 = icmp eq i32 %30, 0
  br i1 %31, label %129, label %118

32:                                               ; preds = %112, %17
  %33 = load ptr, ptr %1, align 8, !tbaa !5
  %34 = getelementptr i8, ptr %33, i64 -24
  %35 = load i64, ptr %34, align 8
  %36 = getelementptr i8, ptr %9, i64 %35
  %37 = load ptr, ptr %36, align 8, !tbaa !77
  %38 = icmp eq ptr %37, null
  br i1 %38, label %39, label %40

39:                                               ; preds = %32
  call void @_ZSt16__throw_bad_castv() #21
  unreachable

40:                                               ; preds = %32
  %41 = getelementptr inbounds %"class.std::ctype", ptr %37, i64 0, i32 8
  %42 = load i8, ptr %41, align 8, !tbaa !79
  %43 = icmp eq i8 %42, 0
  br i1 %43, label %47, label %44

44:                                               ; preds = %40
  %45 = getelementptr inbounds %"class.std::ctype", ptr %37, i64 0, i32 9, i64 10
  %46 = load i8, ptr %45, align 1, !tbaa !82
  br label %52

47:                                               ; preds = %40
  call void @_ZNKSt5ctypeIcE13_M_widen_initEv(ptr noundef nonnull align 8 dereferenceable(570) %37)
  %48 = load ptr, ptr %37, align 8, !tbaa !5
  %49 = getelementptr inbounds ptr, ptr %48, i64 6
  %50 = load ptr, ptr %49, align 8
  %51 = call noundef signext i8 %50(ptr noundef nonnull align 8 dereferenceable(570) %37, i8 noundef signext 10)
  br label %52

52:                                               ; preds = %44, %47
  %53 = phi i8 [ %46, %44 ], [ %51, %47 ]
  %54 = call noundef nonnull align 8 dereferenceable(8) ptr @_ZNSo3putEc(ptr noundef nonnull align 8 dereferenceable(8) %1, i8 noundef signext %53)
  %55 = call noundef nonnull align 8 dereferenceable(8) ptr @_ZNSo5flushEv(ptr noundef nonnull align 8 dereferenceable(8) %54)
  %56 = add nuw i32 %19, 1
  %57 = load ptr, ptr %8, align 8, !tbaa !8
  %58 = getelementptr inbounds %"class.dealii::SparsityPattern", ptr %57, i64 0, i32 2
  %59 = load i32, ptr %58, align 4, !tbaa !33
  %60 = icmp ult i32 %56, %59
  br i1 %60, label %17, label %23

61:                                               ; preds = %17, %112
  %62 = phi ptr [ %114, %112 ], [ %18, %17 ]
  %63 = phi i32 [ %113, %112 ], [ 0, %17 ]
  %64 = call noundef i32 @_ZNK6dealii15SparsityPatternclEjj(ptr noundef nonnull align 8 dereferenceable(122) %62, i32 noundef %19, i32 noundef %63)
  %65 = icmp eq i32 %64, -1
  br i1 %65, label %66, label %78

66:                                               ; preds = %61
  call void @llvm.lifetime.start.p0(i64 1, ptr nonnull %6)
  store i8 46, ptr %6, align 1, !tbaa !82
  %67 = load ptr, ptr %1, align 8, !tbaa !5
  %68 = getelementptr i8, ptr %67, i64 -24
  %69 = load i64, ptr %68, align 8
  %70 = getelementptr i8, ptr %15, i64 %69
  %71 = load i64, ptr %70, align 8, !tbaa !86
  %72 = icmp eq i64 %71, 0
  br i1 %72, label %75, label %73

73:                                               ; preds = %66
  %74 = call noundef nonnull align 8 dereferenceable(8) ptr @_ZSt16__ostream_insertIcSt11char_traitsIcEERSt13basic_ostreamIT_T0_ES6_PKS3_l(ptr noundef nonnull align 8 dereferenceable(8) %1, ptr noundef nonnull %6, i64 noundef 1)
  br label %77

75:                                               ; preds = %66
  %76 = call noundef nonnull align 8 dereferenceable(8) ptr @_ZNSo3putEc(ptr noundef nonnull align 8 dereferenceable(8) %1, i8 noundef signext 46)
  br label %77

77:                                               ; preds = %73, %75
  call void @llvm.lifetime.end.p0(i64 1, ptr nonnull %6)
  br label %112

78:                                               ; preds = %61
  %79 = load ptr, ptr %16, align 8, !tbaa !92
  %80 = load ptr, ptr %8, align 8, !tbaa !8
  %81 = call noundef i32 @_ZNK6dealii15SparsityPatternclEjj(ptr noundef nonnull align 8 dereferenceable(122) %80, i32 noundef %19, i32 noundef %63)
  %82 = zext i32 %81 to i64
  %83 = getelementptr inbounds float, ptr %79, i64 %82
  %84 = load float, ptr %83, align 4, !tbaa !95
  %85 = call float @llvm.fabs.f32(float %84)
  %86 = fpext float %85 to double
  %87 = fcmp ogt double %86, %2
  br i1 %87, label %88, label %100

88:                                               ; preds = %78
  call void @llvm.lifetime.start.p0(i64 1, ptr nonnull %5)
  store i8 42, ptr %5, align 1, !tbaa !82
  %89 = load ptr, ptr %1, align 8, !tbaa !5
  %90 = getelementptr i8, ptr %89, i64 -24
  %91 = load i64, ptr %90, align 8
  %92 = getelementptr i8, ptr %15, i64 %91
  %93 = load i64, ptr %92, align 8, !tbaa !86
  %94 = icmp eq i64 %93, 0
  br i1 %94, label %97, label %95

95:                                               ; preds = %88
  %96 = call noundef nonnull align 8 dereferenceable(8) ptr @_ZSt16__ostream_insertIcSt11char_traitsIcEERSt13basic_ostreamIT_T0_ES6_PKS3_l(ptr noundef nonnull align 8 dereferenceable(8) %1, ptr noundef nonnull %5, i64 noundef 1)
  br label %99

97:                                               ; preds = %88
  %98 = call noundef nonnull align 8 dereferenceable(8) ptr @_ZNSo3putEc(ptr noundef nonnull align 8 dereferenceable(8) %1, i8 noundef signext 42)
  br label %99

99:                                               ; preds = %95, %97
  call void @llvm.lifetime.end.p0(i64 1, ptr nonnull %5)
  br label %112

100:                                              ; preds = %78
  call void @llvm.lifetime.start.p0(i64 1, ptr nonnull %4)
  store i8 58, ptr %4, align 1, !tbaa !82
  %101 = load ptr, ptr %1, align 8, !tbaa !5
  %102 = getelementptr i8, ptr %101, i64 -24
  %103 = load i64, ptr %102, align 8
  %104 = getelementptr i8, ptr %15, i64 %103
  %105 = load i64, ptr %104, align 8, !tbaa !86
  %106 = icmp eq i64 %105, 0
  br i1 %106, label %109, label %107

107:                                              ; preds = %100
  %108 = call noundef nonnull align 8 dereferenceable(8) ptr @_ZSt16__ostream_insertIcSt11char_traitsIcEERSt13basic_ostreamIT_T0_ES6_PKS3_l(ptr noundef nonnull align 8 dereferenceable(8) %1, ptr noundef nonnull %4, i64 noundef 1)
  br label %111

109:                                              ; preds = %100
  %110 = call noundef nonnull align 8 dereferenceable(8) ptr @_ZNSo3putEc(ptr noundef nonnull align 8 dereferenceable(8) %1, i8 noundef signext 58)
  br label %111

111:                                              ; preds = %107, %109
  call void @llvm.lifetime.end.p0(i64 1, ptr nonnull %4)
  br label %112

112:                                              ; preds = %77, %111, %99
  %113 = add nuw i32 %63, 1
  %114 = load ptr, ptr %8, align 8, !tbaa !8
  %115 = getelementptr inbounds %"class.dealii::SparsityPattern", ptr %114, i64 0, i32 3
  %116 = load i32, ptr %115, align 8, !tbaa !17
  %117 = icmp ult i32 %113, %116
  br i1 %117, label %61, label %32

118:                                              ; preds = %23
  call void @llvm.memset.p0.i64(ptr noundef nonnull align 8 dereferenceable(64) %7, i8 0, i64 64, i1 false)
  call void @_ZN6dealii13ExceptionBaseC2Ev(ptr noundef nonnull align 8 dereferenceable(60) %7)
  store ptr getelementptr inbounds ({ [6 x ptr] }, ptr @_ZTVN6dealii18StandardExceptions5ExcIOE, i64 0, inrange i32 0, i64 2), ptr %7, align 8, !tbaa !5
  invoke void @_ZN6dealii13ExceptionBase10set_fieldsEPKciS2_S2_S2_(ptr noundef nonnull align 8 dereferenceable(60) %7, ptr noundef nonnull @.str.16, i32 noundef 1660, ptr noundef nonnull @.str.10, ptr noundef nonnull @.str.17, ptr noundef nonnull @.str.18)
          to label %119 unwind label %125

119:                                              ; preds = %118
  %120 = call ptr @__cxa_allocate_exception(i64 64) #17
  invoke void @_ZN6dealii13ExceptionBaseC2ERKS0_(ptr noundef nonnull align 8 dereferenceable(60) %120, ptr noundef nonnull align 8 dereferenceable(60) %7)
          to label %121 unwind label %123

121:                                              ; preds = %119
  store ptr getelementptr inbounds ({ [6 x ptr] }, ptr @_ZTVN6dealii18StandardExceptions5ExcIOE, i64 0, inrange i32 0, i64 2), ptr %120, align 8, !tbaa !5
  invoke void @__cxa_throw(ptr nonnull %120, ptr nonnull @_ZTIN6dealii18StandardExceptions5ExcIOE, ptr nonnull @_ZN6dealii13ExceptionBaseD2Ev) #21
          to label %122 unwind label %125

122:                                              ; preds = %121
  unreachable

123:                                              ; preds = %119
  %124 = landingpad { ptr, i32 }
          cleanup
  call void @__cxa_free_exception(ptr %120) #17
  br label %127

125:                                              ; preds = %121, %118
  %126 = landingpad { ptr, i32 }
          cleanup
  br label %127

127:                                              ; preds = %123, %125
  %128 = phi { ptr, i32 } [ %126, %125 ], [ %124, %123 ]
  call void @_ZN6dealii13ExceptionBaseD2Ev(ptr noundef nonnull align 8 dereferenceable(60) %7) #17
  resume { ptr, i32 } %128

129:                                              ; preds = %23
  ret void
}

; Function Attrs: sspstrong uwtable
define weak_odr dso_local void @_ZNK6dealii12SparseMatrixIfE11block_writeERSo(ptr noundef nonnull align 8 dereferenceable(36) %0, ptr noundef nonnull align 8 dereferenceable(8) %1) local_unnamed_addr #0 comdat align 2 personality ptr @__gxx_personality_v0 {
  %3 = alloca i8, align 1
  %4 = alloca i8, align 1
  %5 = alloca %"class.dealii::StandardExceptions::ExcIO", align 8
  %6 = alloca %"class.dealii::StandardExceptions::ExcIO", align 8
  %7 = load ptr, ptr %1, align 8, !tbaa !5
  %8 = getelementptr i8, ptr %7, i64 -24
  %9 = load i64, ptr %8, align 8
  %10 = getelementptr inbounds i8, ptr %1, i64 %9
  %11 = getelementptr inbounds %"class.std::ios_base", ptr %10, i64 0, i32 5
  %12 = load i32, ptr %11, align 8, !tbaa !71
  %13 = and i32 %12, 5
  %14 = icmp eq i32 %13, 0
  br i1 %14, label %24, label %15

15:                                               ; preds = %2
  call void @llvm.memset.p0.i64(ptr noundef nonnull align 8 dereferenceable(64) %5, i8 0, i64 64, i1 false)
  call void @_ZN6dealii13ExceptionBaseC2Ev(ptr noundef nonnull align 8 dereferenceable(60) %5)
  store ptr getelementptr inbounds ({ [6 x ptr] }, ptr @_ZTVN6dealii18StandardExceptions5ExcIOE, i64 0, inrange i32 0, i64 2), ptr %5, align 8, !tbaa !5
  invoke void @_ZN6dealii13ExceptionBase10set_fieldsEPKciS2_S2_S2_(ptr noundef nonnull align 8 dereferenceable(60) %5, ptr noundef nonnull @.str.16, i32 noundef 1669, ptr noundef nonnull @.str.10, ptr noundef nonnull @.str.17, ptr noundef nonnull @.str.18)
          to label %16 unwind label %22

16:                                               ; preds = %15
  %17 = call ptr @__cxa_allocate_exception(i64 64) #17
  invoke void @_ZN6dealii13ExceptionBaseC2ERKS0_(ptr noundef nonnull align 8 dereferenceable(60) %17, ptr noundef nonnull align 8 dereferenceable(60) %5)
          to label %18 unwind label %20

18:                                               ; preds = %16
  store ptr getelementptr inbounds ({ [6 x ptr] }, ptr @_ZTVN6dealii18StandardExceptions5ExcIOE, i64 0, inrange i32 0, i64 2), ptr %17, align 8, !tbaa !5
  invoke void @__cxa_throw(ptr nonnull %17, ptr nonnull @_ZTIN6dealii18StandardExceptions5ExcIOE, ptr nonnull @_ZN6dealii13ExceptionBaseD2Ev) #21
          to label %19 unwind label %22

19:                                               ; preds = %18
  unreachable

20:                                               ; preds = %16
  %21 = landingpad { ptr, i32 }
          cleanup
  call void @__cxa_free_exception(ptr %17) #17
  br label %75

22:                                               ; preds = %18, %15
  %23 = landingpad { ptr, i32 }
          cleanup
  br label %75

24:                                               ; preds = %2
  call void @llvm.lifetime.start.p0(i64 1, ptr nonnull %4)
  store i8 91, ptr %4, align 1, !tbaa !82
  %25 = getelementptr inbounds %"class.std::ios_base", ptr %10, i64 0, i32 2
  %26 = load i64, ptr %25, align 8, !tbaa !86
  %27 = icmp eq i64 %26, 0
  br i1 %27, label %30, label %28

28:                                               ; preds = %24
  %29 = call noundef nonnull align 8 dereferenceable(8) ptr @_ZSt16__ostream_insertIcSt11char_traitsIcEERSt13basic_ostreamIT_T0_ES6_PKS3_l(ptr noundef nonnull align 8 dereferenceable(8) %1, ptr noundef nonnull %4, i64 noundef 1)
  br label %32

30:                                               ; preds = %24
  %31 = tail call noundef nonnull align 8 dereferenceable(8) ptr @_ZNSo3putEc(ptr noundef nonnull align 8 dereferenceable(8) %1, i8 noundef signext 91)
  br label %32

32:                                               ; preds = %28, %30
  %33 = phi ptr [ %29, %28 ], [ %1, %30 ]
  call void @llvm.lifetime.end.p0(i64 1, ptr nonnull %4)
  %34 = getelementptr inbounds %"class.dealii::SparseMatrix.18", ptr %0, i64 0, i32 3
  %35 = load i32, ptr %34, align 8, !tbaa !94
  %36 = zext i32 %35 to i64
  %37 = call noundef nonnull align 8 dereferenceable(8) ptr @_ZNSo9_M_insertImEERSoT_(ptr noundef nonnull align 8 dereferenceable(8) %33, i64 noundef %36)
  %38 = call noundef nonnull align 8 dereferenceable(8) ptr @_ZSt16__ostream_insertIcSt11char_traitsIcEERSt13basic_ostreamIT_T0_ES6_PKS3_l(ptr noundef nonnull align 8 dereferenceable(8) %37, ptr noundef nonnull @.str.19, i64 noundef 2)
  %39 = getelementptr inbounds %"class.dealii::SparseMatrix.18", ptr %0, i64 0, i32 2
  %40 = load ptr, ptr %39, align 8, !tbaa !92
  %41 = load i32, ptr %34, align 8, !tbaa !94
  %42 = zext i32 %41 to i64
  %43 = shl nuw nsw i64 %42, 2
  %44 = call noundef nonnull align 8 dereferenceable(8) ptr @_ZNSo5writeEPKcl(ptr noundef nonnull align 8 dereferenceable(8) %1, ptr noundef %40, i64 noundef %43)
  call void @llvm.lifetime.start.p0(i64 1, ptr nonnull %3)
  store i8 93, ptr %3, align 1, !tbaa !82
  %45 = load ptr, ptr %1, align 8, !tbaa !5
  %46 = getelementptr i8, ptr %45, i64 -24
  %47 = load i64, ptr %46, align 8
  %48 = getelementptr inbounds i8, ptr %1, i64 %47
  %49 = getelementptr inbounds %"class.std::ios_base", ptr %48, i64 0, i32 2
  %50 = load i64, ptr %49, align 8, !tbaa !86
  %51 = icmp eq i64 %50, 0
  br i1 %51, label %54, label %52

52:                                               ; preds = %32
  %53 = call noundef nonnull align 8 dereferenceable(8) ptr @_ZSt16__ostream_insertIcSt11char_traitsIcEERSt13basic_ostreamIT_T0_ES6_PKS3_l(ptr noundef nonnull align 8 dereferenceable(8) %1, ptr noundef nonnull %3, i64 noundef 1)
  br label %56

54:                                               ; preds = %32
  %55 = call noundef nonnull align 8 dereferenceable(8) ptr @_ZNSo3putEc(ptr noundef nonnull align 8 dereferenceable(8) %1, i8 noundef signext 93)
  br label %56

56:                                               ; preds = %52, %54
  call void @llvm.lifetime.end.p0(i64 1, ptr nonnull %3)
  %57 = load ptr, ptr %1, align 8, !tbaa !5
  %58 = getelementptr i8, ptr %57, i64 -24
  %59 = load i64, ptr %58, align 8
  %60 = getelementptr inbounds i8, ptr %1, i64 %59
  %61 = getelementptr inbounds %"class.std::ios_base", ptr %60, i64 0, i32 5
  %62 = load i32, ptr %61, align 8, !tbaa !71
  %63 = and i32 %62, 5
  %64 = icmp eq i32 %63, 0
  br i1 %64, label %74, label %65

65:                                               ; preds = %56
  call void @llvm.memset.p0.i64(ptr noundef nonnull align 8 dereferenceable(64) %6, i8 0, i64 64, i1 false)
  call void @_ZN6dealii13ExceptionBaseC2Ev(ptr noundef nonnull align 8 dereferenceable(60) %6)
  store ptr getelementptr inbounds ({ [6 x ptr] }, ptr @_ZTVN6dealii18StandardExceptions5ExcIOE, i64 0, inrange i32 0, i64 2), ptr %6, align 8, !tbaa !5
  invoke void @_ZN6dealii13ExceptionBase10set_fieldsEPKciS2_S2_S2_(ptr noundef nonnull align 8 dereferenceable(60) %6, ptr noundef nonnull @.str.16, i32 noundef 1680, ptr noundef nonnull @.str.10, ptr noundef nonnull @.str.17, ptr noundef nonnull @.str.18)
          to label %66 unwind label %72

66:                                               ; preds = %65
  %67 = call ptr @__cxa_allocate_exception(i64 64) #17
  invoke void @_ZN6dealii13ExceptionBaseC2ERKS0_(ptr noundef nonnull align 8 dereferenceable(60) %67, ptr noundef nonnull align 8 dereferenceable(60) %6)
          to label %68 unwind label %70

68:                                               ; preds = %66
  store ptr getelementptr inbounds ({ [6 x ptr] }, ptr @_ZTVN6dealii18StandardExceptions5ExcIOE, i64 0, inrange i32 0, i64 2), ptr %67, align 8, !tbaa !5
  invoke void @__cxa_throw(ptr nonnull %67, ptr nonnull @_ZTIN6dealii18StandardExceptions5ExcIOE, ptr nonnull @_ZN6dealii13ExceptionBaseD2Ev) #21
          to label %69 unwind label %72

69:                                               ; preds = %68
  unreachable

70:                                               ; preds = %66
  %71 = landingpad { ptr, i32 }
          cleanup
  call void @__cxa_free_exception(ptr %67) #17
  br label %75

72:                                               ; preds = %68, %65
  %73 = landingpad { ptr, i32 }
          cleanup
  br label %75

74:                                               ; preds = %56
  ret void

75:                                               ; preds = %72, %70, %22, %20
  %76 = phi ptr [ %5, %20 ], [ %5, %22 ], [ %6, %70 ], [ %6, %72 ]
  %77 = phi { ptr, i32 } [ %21, %20 ], [ %23, %22 ], [ %71, %70 ], [ %73, %72 ]
  call void @_ZN6dealii13ExceptionBaseD2Ev(ptr noundef nonnull align 8 dereferenceable(60) %76) #17
  resume { ptr, i32 } %77
}

; Function Attrs: sspstrong uwtable
define weak_odr dso_local void @_ZN6dealii12SparseMatrixIfE10block_readERSi(ptr noundef nonnull align 8 dereferenceable(36) %0, ptr noundef nonnull align 8 dereferenceable(16) %1) local_unnamed_addr #0 comdat align 2 personality ptr @__gxx_personality_v0 {
  %3 = alloca %"class.dealii::StandardExceptions::ExcIO", align 8
  %4 = alloca i8, align 1
  %5 = alloca %"class.dealii::StandardExceptions::ExcIO", align 8
  %6 = alloca %"class.dealii::StandardExceptions::ExcIO", align 8
  %7 = alloca %"class.dealii::StandardExceptions::ExcIO", align 8
  %8 = alloca %"class.dealii::StandardExceptions::ExcIO", align 8
  %9 = load ptr, ptr %1, align 8, !tbaa !5
  %10 = getelementptr i8, ptr %9, i64 -24
  %11 = load i64, ptr %10, align 8
  %12 = getelementptr inbounds i8, ptr %1, i64 %11
  %13 = getelementptr inbounds %"class.std::ios_base", ptr %12, i64 0, i32 5
  %14 = load i32, ptr %13, align 8, !tbaa !71
  %15 = and i32 %14, 5
  %16 = icmp eq i32 %15, 0
  br i1 %16, label %28, label %17

17:                                               ; preds = %2
  call void @llvm.memset.p0.i64(ptr noundef nonnull align 8 dereferenceable(64) %3, i8 0, i64 64, i1 false)
  call void @_ZN6dealii13ExceptionBaseC2Ev(ptr noundef nonnull align 8 dereferenceable(60) %3)
  store ptr getelementptr inbounds ({ [6 x ptr] }, ptr @_ZTVN6dealii18StandardExceptions5ExcIOE, i64 0, inrange i32 0, i64 2), ptr %3, align 8, !tbaa !5
  invoke void @_ZN6dealii13ExceptionBase10set_fieldsEPKciS2_S2_S2_(ptr noundef nonnull align 8 dereferenceable(60) %3, ptr noundef nonnull @.str.16, i32 noundef 1689, ptr noundef nonnull @.str.10, ptr noundef nonnull @.str.20, ptr noundef nonnull @.str.18)
          to label %18 unwind label %24

18:                                               ; preds = %17
  %19 = call ptr @__cxa_allocate_exception(i64 64) #17
  invoke void @_ZN6dealii13ExceptionBaseC2ERKS0_(ptr noundef nonnull align 8 dereferenceable(60) %19, ptr noundef nonnull align 8 dereferenceable(60) %3)
          to label %20 unwind label %22

20:                                               ; preds = %18
  store ptr getelementptr inbounds ({ [6 x ptr] }, ptr @_ZTVN6dealii18StandardExceptions5ExcIOE, i64 0, inrange i32 0, i64 2), ptr %19, align 8, !tbaa !5
  invoke void @__cxa_throw(ptr nonnull %19, ptr nonnull @_ZTIN6dealii18StandardExceptions5ExcIOE, ptr nonnull @_ZN6dealii13ExceptionBaseD2Ev) #21
          to label %21 unwind label %24

21:                                               ; preds = %20
  unreachable

22:                                               ; preds = %18
  %23 = landingpad { ptr, i32 }
          cleanup
  call void @__cxa_free_exception(ptr %19) #17
  br label %26

24:                                               ; preds = %20, %17
  %25 = landingpad { ptr, i32 }
          cleanup
  br label %26

26:                                               ; preds = %22, %24
  %27 = phi { ptr, i32 } [ %25, %24 ], [ %23, %22 ]
  call void @_ZN6dealii13ExceptionBaseD2Ev(ptr noundef nonnull align 8 dereferenceable(60) %3) #17
  br label %96

28:                                               ; preds = %2
  call void @llvm.lifetime.start.p0(i64 1, ptr nonnull %4) #17
  %29 = call noundef nonnull align 8 dereferenceable(16) ptr @_ZStrsIcSt11char_traitsIcEERSt13basic_istreamIT_T0_ES6_RS3_(ptr noundef nonnull align 8 dereferenceable(16) %1, ptr noundef nonnull align 1 dereferenceable(1) %4)
  %30 = load i8, ptr %4, align 1, !tbaa !82
  %31 = icmp eq i8 %30, 91
  br i1 %31, label %41, label %32

32:                                               ; preds = %28
  call void @llvm.memset.p0.i64(ptr noundef nonnull align 8 dereferenceable(64) %5, i8 0, i64 64, i1 false)
  call void @_ZN6dealii13ExceptionBaseC2Ev(ptr noundef nonnull align 8 dereferenceable(60) %5)
  store ptr getelementptr inbounds ({ [6 x ptr] }, ptr @_ZTVN6dealii18StandardExceptions5ExcIOE, i64 0, inrange i32 0, i64 2), ptr %5, align 8, !tbaa !5
  invoke void @_ZN6dealii13ExceptionBase10set_fieldsEPKciS2_S2_S2_(ptr noundef nonnull align 8 dereferenceable(60) %5, ptr noundef nonnull @.str.16, i32 noundef 1695, ptr noundef nonnull @.str.10, ptr noundef nonnull @.str.21, ptr noundef nonnull @.str.18)
          to label %33 unwind label %39

33:                                               ; preds = %32
  %34 = call ptr @__cxa_allocate_exception(i64 64) #17
  invoke void @_ZN6dealii13ExceptionBaseC2ERKS0_(ptr noundef nonnull align 8 dereferenceable(60) %34, ptr noundef nonnull align 8 dereferenceable(60) %5)
          to label %35 unwind label %37

35:                                               ; preds = %33
  store ptr getelementptr inbounds ({ [6 x ptr] }, ptr @_ZTVN6dealii18StandardExceptions5ExcIOE, i64 0, inrange i32 0, i64 2), ptr %34, align 8, !tbaa !5
  invoke void @__cxa_throw(ptr nonnull %34, ptr nonnull @_ZTIN6dealii18StandardExceptions5ExcIOE, ptr nonnull @_ZN6dealii13ExceptionBaseD2Ev) #21
          to label %36 unwind label %39

36:                                               ; preds = %35
  unreachable

37:                                               ; preds = %33
  %38 = landingpad { ptr, i32 }
          cleanup
  call void @__cxa_free_exception(ptr %34) #17
  br label %93

39:                                               ; preds = %35, %32
  %40 = landingpad { ptr, i32 }
          cleanup
  br label %93

41:                                               ; preds = %28
  %42 = getelementptr inbounds %"class.dealii::SparseMatrix.18", ptr %0, i64 0, i32 3
  %43 = call noundef nonnull align 8 dereferenceable(16) ptr @_ZNSi10_M_extractIjEERSiRT_(ptr noundef nonnull align 8 dereferenceable(16) %1, ptr noundef nonnull align 4 dereferenceable(4) %42)
  %44 = call noundef nonnull align 8 dereferenceable(16) ptr @_ZStrsIcSt11char_traitsIcEERSt13basic_istreamIT_T0_ES6_RS3_(ptr noundef nonnull align 8 dereferenceable(16) %1, ptr noundef nonnull align 1 dereferenceable(1) %4)
  %45 = load i8, ptr %4, align 1, !tbaa !82
  %46 = icmp eq i8 %45, 93
  br i1 %46, label %56, label %47

47:                                               ; preds = %41
  call void @llvm.memset.p0.i64(ptr noundef nonnull align 8 dereferenceable(64) %6, i8 0, i64 64, i1 false)
  call void @_ZN6dealii13ExceptionBaseC2Ev(ptr noundef nonnull align 8 dereferenceable(60) %6)
  store ptr getelementptr inbounds ({ [6 x ptr] }, ptr @_ZTVN6dealii18StandardExceptions5ExcIOE, i64 0, inrange i32 0, i64 2), ptr %6, align 8, !tbaa !5
  invoke void @_ZN6dealii13ExceptionBase10set_fieldsEPKciS2_S2_S2_(ptr noundef nonnull align 8 dereferenceable(60) %6, ptr noundef nonnull @.str.16, i32 noundef 1699, ptr noundef nonnull @.str.10, ptr noundef nonnull @.str.22, ptr noundef nonnull @.str.18)
          to label %48 unwind label %54

48:                                               ; preds = %47
  %49 = call ptr @__cxa_allocate_exception(i64 64) #17
  invoke void @_ZN6dealii13ExceptionBaseC2ERKS0_(ptr noundef nonnull align 8 dereferenceable(60) %49, ptr noundef nonnull align 8 dereferenceable(60) %6)
          to label %50 unwind label %52

50:                                               ; preds = %48
  store ptr getelementptr inbounds ({ [6 x ptr] }, ptr @_ZTVN6dealii18StandardExceptions5ExcIOE, i64 0, inrange i32 0, i64 2), ptr %49, align 8, !tbaa !5
  invoke void @__cxa_throw(ptr nonnull %49, ptr nonnull @_ZTIN6dealii18StandardExceptions5ExcIOE, ptr nonnull @_ZN6dealii13ExceptionBaseD2Ev) #21
          to label %51 unwind label %54

51:                                               ; preds = %50
  unreachable

52:                                               ; preds = %48
  %53 = landingpad { ptr, i32 }
          cleanup
  call void @__cxa_free_exception(ptr %49) #17
  br label %93

54:                                               ; preds = %50, %47
  %55 = landingpad { ptr, i32 }
          cleanup
  br label %93

56:                                               ; preds = %41
  %57 = call noundef nonnull align 8 dereferenceable(16) ptr @_ZStrsIcSt11char_traitsIcEERSt13basic_istreamIT_T0_ES6_RS3_(ptr noundef nonnull align 8 dereferenceable(16) %1, ptr noundef nonnull align 1 dereferenceable(1) %4)
  %58 = load i8, ptr %4, align 1, !tbaa !82
  %59 = icmp eq i8 %58, 91
  br i1 %59, label %69, label %60

60:                                               ; preds = %56
  call void @llvm.memset.p0.i64(ptr noundef nonnull align 8 dereferenceable(64) %7, i8 0, i64 64, i1 false)
  call void @_ZN6dealii13ExceptionBaseC2Ev(ptr noundef nonnull align 8 dereferenceable(60) %7)
  store ptr getelementptr inbounds ({ [6 x ptr] }, ptr @_ZTVN6dealii18StandardExceptions5ExcIOE, i64 0, inrange i32 0, i64 2), ptr %7, align 8, !tbaa !5
  invoke void @_ZN6dealii13ExceptionBase10set_fieldsEPKciS2_S2_S2_(ptr noundef nonnull align 8 dereferenceable(60) %7, ptr noundef nonnull @.str.16, i32 noundef 1701, ptr noundef nonnull @.str.10, ptr noundef nonnull @.str.21, ptr noundef nonnull @.str.18)
          to label %61 unwind label %67

61:                                               ; preds = %60
  %62 = call ptr @__cxa_allocate_exception(i64 64) #17
  invoke void @_ZN6dealii13ExceptionBaseC2ERKS0_(ptr noundef nonnull align 8 dereferenceable(60) %62, ptr noundef nonnull align 8 dereferenceable(60) %7)
          to label %63 unwind label %65

63:                                               ; preds = %61
  store ptr getelementptr inbounds ({ [6 x ptr] }, ptr @_ZTVN6dealii18StandardExceptions5ExcIOE, i64 0, inrange i32 0, i64 2), ptr %62, align 8, !tbaa !5
  invoke void @__cxa_throw(ptr nonnull %62, ptr nonnull @_ZTIN6dealii18StandardExceptions5ExcIOE, ptr nonnull @_ZN6dealii13ExceptionBaseD2Ev) #21
          to label %64 unwind label %67

64:                                               ; preds = %63
  unreachable

65:                                               ; preds = %61
  %66 = landingpad { ptr, i32 }
          cleanup
  call void @__cxa_free_exception(ptr %62) #17
  br label %93

67:                                               ; preds = %63, %60
  %68 = landingpad { ptr, i32 }
          cleanup
  br label %93

69:                                               ; preds = %56
  %70 = getelementptr inbounds %"class.dealii::SparseMatrix.18", ptr %0, i64 0, i32 2
  %71 = load ptr, ptr %70, align 8, !tbaa !92
  %72 = icmp eq ptr %71, null
  br i1 %72, label %74, label %73

73:                                               ; preds = %69
  call void @_ZdaPv(ptr noundef nonnull %71) #19
  br label %74

74:                                               ; preds = %73, %69
  %75 = load i32, ptr %42, align 8, !tbaa !94
  %76 = zext i32 %75 to i64
  %77 = shl nuw nsw i64 %76, 2
  %78 = call noalias noundef nonnull ptr @_Znam(i64 noundef %77) #20
  store ptr %78, ptr %70, align 8, !tbaa !92
  %79 = call noundef nonnull align 8 dereferenceable(16) ptr @_ZNSi4readEPcl(ptr noundef nonnull align 8 dereferenceable(16) %1, ptr noundef nonnull %78, i64 noundef %77)
  %80 = call noundef nonnull align 8 dereferenceable(16) ptr @_ZStrsIcSt11char_traitsIcEERSt13basic_istreamIT_T0_ES6_RS3_(ptr noundef nonnull align 8 dereferenceable(16) %1, ptr noundef nonnull align 1 dereferenceable(1) %4)
  %81 = load i8, ptr %4, align 1, !tbaa !82
  %82 = icmp eq i8 %81, 93
  br i1 %82, label %92, label %83

83:                                               ; preds = %74
  call void @llvm.memset.p0.i64(ptr noundef nonnull align 8 dereferenceable(64) %8, i8 0, i64 64, i1 false)
  call void @_ZN6dealii13ExceptionBaseC2Ev(ptr noundef nonnull align 8 dereferenceable(60) %8)
  store ptr getelementptr inbounds ({ [6 x ptr] }, ptr @_ZTVN6dealii18StandardExceptions5ExcIOE, i64 0, inrange i32 0, i64 2), ptr %8, align 8, !tbaa !5
  invoke void @_ZN6dealii13ExceptionBase10set_fieldsEPKciS2_S2_S2_(ptr noundef nonnull align 8 dereferenceable(60) %8, ptr noundef nonnull @.str.16, i32 noundef 1712, ptr noundef nonnull @.str.10, ptr noundef nonnull @.str.22, ptr noundef nonnull @.str.18)
          to label %84 unwind label %90

84:                                               ; preds = %83
  %85 = call ptr @__cxa_allocate_exception(i64 64) #17
  invoke void @_ZN6dealii13ExceptionBaseC2ERKS0_(ptr noundef nonnull align 8 dereferenceable(60) %85, ptr noundef nonnull align 8 dereferenceable(60) %8)
          to label %86 unwind label %88

86:                                               ; preds = %84
  store ptr getelementptr inbounds ({ [6 x ptr] }, ptr @_ZTVN6dealii18StandardExceptions5ExcIOE, i64 0, inrange i32 0, i64 2), ptr %85, align 8, !tbaa !5
  invoke void @__cxa_throw(ptr nonnull %85, ptr nonnull @_ZTIN6dealii18StandardExceptions5ExcIOE, ptr nonnull @_ZN6dealii13ExceptionBaseD2Ev) #21
          to label %87 unwind label %90

87:                                               ; preds = %86
  unreachable

88:                                               ; preds = %84
  %89 = landingpad { ptr, i32 }
          cleanup
  call void @__cxa_free_exception(ptr %85) #17
  br label %93

90:                                               ; preds = %86, %83
  %91 = landingpad { ptr, i32 }
          cleanup
  br label %93

92:                                               ; preds = %74
  call void @llvm.lifetime.end.p0(i64 1, ptr nonnull %4) #17
  ret void

93:                                               ; preds = %90, %88, %67, %65, %54, %52, %39, %37
  %94 = phi ptr [ %5, %37 ], [ %5, %39 ], [ %6, %52 ], [ %6, %54 ], [ %7, %65 ], [ %7, %67 ], [ %8, %88 ], [ %8, %90 ]
  %95 = phi { ptr, i32 } [ %38, %37 ], [ %40, %39 ], [ %53, %52 ], [ %55, %54 ], [ %66, %65 ], [ %68, %67 ], [ %89, %88 ], [ %91, %90 ]
  call void @_ZN6dealii13ExceptionBaseD2Ev(ptr noundef nonnull align 8 dereferenceable(60) %94) #17
  call void @llvm.lifetime.end.p0(i64 1, ptr nonnull %4) #17
  br label %96

96:                                               ; preds = %93, %26
  %97 = phi { ptr, i32 } [ %95, %93 ], [ %27, %26 ]
  resume { ptr, i32 } %97
}

; Function Attrs: sspstrong uwtable
define weak_odr dso_local void @_ZN6dealii12SparseMatrixIfE15ExcInvalidIndexC2Eii(ptr noundef nonnull align 8 dereferenceable(68) %0, i32 noundef %1, i32 noundef %2) unnamed_addr #0 comdat($_ZN6dealii12SparseMatrixIfE15ExcInvalidIndexC5Eii) align 2 {
  tail call void @_ZN6dealii13ExceptionBaseC2Ev(ptr noundef nonnull align 8 dereferenceable(60) %0)
  store ptr getelementptr inbounds ({ [6 x ptr] }, ptr @_ZTVN6dealii12SparseMatrixIfE15ExcInvalidIndexE, i64 0, inrange i32 0, i64 2), ptr %0, align 8, !tbaa !5
  %4 = getelementptr inbounds %"class.dealii::SparseMatrix<float>::ExcInvalidIndex", ptr %0, i64 0, i32 1
  store i32 %1, ptr %4, align 4, !tbaa !103
  %5 = getelementptr inbounds %"class.dealii::SparseMatrix<float>::ExcInvalidIndex", ptr %0, i64 0, i32 2
  store i32 %2, ptr %5, align 8, !tbaa !105
  ret void
}

; Function Attrs: nounwind sspstrong uwtable
define weak_odr dso_local void @_ZN6dealii12SparseMatrixIfE15ExcInvalidIndexD2Ev(ptr noundef nonnull align 8 dereferenceable(68) %0) unnamed_addr #6 comdat($_ZN6dealii12SparseMatrixIfE15ExcInvalidIndexD5Ev) align 2 {
  tail call void @_ZN6dealii13ExceptionBaseD2Ev(ptr noundef nonnull align 8 dereferenceable(60) %0) #17
  ret void
}

; Function Attrs: nounwind sspstrong uwtable
define weak_odr dso_local void @_ZN6dealii12SparseMatrixIfE15ExcInvalidIndexD0Ev(ptr noundef nonnull align 8 dereferenceable(68) %0) unnamed_addr #6 comdat($_ZN6dealii12SparseMatrixIfE15ExcInvalidIndexD5Ev) align 2 {
  tail call void @_ZN6dealii13ExceptionBaseD2Ev(ptr noundef nonnull align 8 dereferenceable(60) %0) #17
  tail call void @_ZdlPv(ptr noundef nonnull %0) #19
  ret void
}

; Function Attrs: sspstrong uwtable
define weak_odr dso_local void @_ZNK6dealii12SparseMatrixIfE15ExcInvalidIndex10print_infoERSo(ptr noundef nonnull align 8 dereferenceable(68) %0, ptr noundef nonnull align 8 dereferenceable(8) %1) unnamed_addr #0 comdat align 2 {
  %3 = alloca i8, align 1
  %4 = tail call noundef nonnull align 8 dereferenceable(8) ptr @_ZSt16__ostream_insertIcSt11char_traitsIcEERSt13basic_ostreamIT_T0_ES6_PKS3_l(ptr noundef nonnull align 8 dereferenceable(8) %1, ptr noundef nonnull @.str.23, i64 noundef 22)
  %5 = getelementptr inbounds %"class.dealii::SparseMatrix<float>::ExcInvalidIndex", ptr %0, i64 0, i32 1
  %6 = load i32, ptr %5, align 4, !tbaa !103
  %7 = tail call noundef nonnull align 8 dereferenceable(8) ptr @_ZNSolsEi(ptr noundef nonnull align 8 dereferenceable(8) %1, i32 noundef %6)
  call void @llvm.lifetime.start.p0(i64 1, ptr nonnull %3)
  store i8 44, ptr %3, align 1, !tbaa !82
  %8 = load ptr, ptr %7, align 8, !tbaa !5
  %9 = getelementptr i8, ptr %8, i64 -24
  %10 = load i64, ptr %9, align 8
  %11 = getelementptr inbounds i8, ptr %7, i64 %10
  %12 = getelementptr inbounds %"class.std::ios_base", ptr %11, i64 0, i32 2
  %13 = load i64, ptr %12, align 8, !tbaa !86
  %14 = icmp eq i64 %13, 0
  br i1 %14, label %17, label %15

15:                                               ; preds = %2
  %16 = call noundef nonnull align 8 dereferenceable(8) ptr @_ZSt16__ostream_insertIcSt11char_traitsIcEERSt13basic_ostreamIT_T0_ES6_PKS3_l(ptr noundef nonnull align 8 dereferenceable(8) %7, ptr noundef nonnull %3, i64 noundef 1)
  br label %19

17:                                               ; preds = %2
  %18 = tail call noundef nonnull align 8 dereferenceable(8) ptr @_ZNSo3putEc(ptr noundef nonnull align 8 dereferenceable(8) %7, i8 noundef signext 44)
  br label %19

19:                                               ; preds = %15, %17
  %20 = phi ptr [ %16, %15 ], [ %7, %17 ]
  call void @llvm.lifetime.end.p0(i64 1, ptr nonnull %3)
  %21 = getelementptr inbounds %"class.dealii::SparseMatrix<float>::ExcInvalidIndex", ptr %0, i64 0, i32 2
  %22 = load i32, ptr %21, align 8, !tbaa !105
  %23 = call noundef nonnull align 8 dereferenceable(8) ptr @_ZNSolsEi(ptr noundef nonnull align 8 dereferenceable(8) %20, i32 noundef %22)
  %24 = call noundef nonnull align 8 dereferenceable(8) ptr @_ZSt16__ostream_insertIcSt11char_traitsIcEERSt13basic_ostreamIT_T0_ES6_PKS3_l(ptr noundef nonnull align 8 dereferenceable(8) %23, ptr noundef nonnull @.str.24, i64 noundef 17)
  %25 = load ptr, ptr %23, align 8, !tbaa !5
  %26 = getelementptr i8, ptr %25, i64 -24
  %27 = load i64, ptr %26, align 8
  %28 = getelementptr inbounds i8, ptr %23, i64 %27
  %29 = getelementptr inbounds %"class.std::basic_ios", ptr %28, i64 0, i32 5
  %30 = load ptr, ptr %29, align 8, !tbaa !77
  %31 = icmp eq ptr %30, null
  br i1 %31, label %32, label %33

32:                                               ; preds = %19
  call void @_ZSt16__throw_bad_castv() #21
  unreachable

33:                                               ; preds = %19
  %34 = getelementptr inbounds %"class.std::ctype", ptr %30, i64 0, i32 8
  %35 = load i8, ptr %34, align 8, !tbaa !79
  %36 = icmp eq i8 %35, 0
  br i1 %36, label %40, label %37

37:                                               ; preds = %33
  %38 = getelementptr inbounds %"class.std::ctype", ptr %30, i64 0, i32 9, i64 10
  %39 = load i8, ptr %38, align 1, !tbaa !82
  br label %45

40:                                               ; preds = %33
  call void @_ZNKSt5ctypeIcE13_M_widen_initEv(ptr noundef nonnull align 8 dereferenceable(570) %30)
  %41 = load ptr, ptr %30, align 8, !tbaa !5
  %42 = getelementptr inbounds ptr, ptr %41, i64 6
  %43 = load ptr, ptr %42, align 8
  %44 = call noundef signext i8 %43(ptr noundef nonnull align 8 dereferenceable(570) %30, i8 noundef signext 10)
  br label %45

45:                                               ; preds = %37, %40
  %46 = phi i8 [ %39, %37 ], [ %44, %40 ]
  %47 = call noundef nonnull align 8 dereferenceable(8) ptr @_ZNSo3putEc(ptr noundef nonnull align 8 dereferenceable(8) %23, i8 noundef signext %46)
  %48 = call noundef nonnull align 8 dereferenceable(8) ptr @_ZNSo5flushEv(ptr noundef nonnull align 8 dereferenceable(8) %47)
  ret void
}

; Function Attrs: sspstrong uwtable
define weak_odr dso_local void @_ZN6dealii12SparseMatrixIfE16ExcInvalidIndex1C2Ei(ptr noundef nonnull align 8 dereferenceable(64) %0, i32 noundef %1) unnamed_addr #0 comdat($_ZN6dealii12SparseMatrixIfE16ExcInvalidIndex1C5Ei) align 2 {
  tail call void @_ZN6dealii13ExceptionBaseC2Ev(ptr noundef nonnull align 8 dereferenceable(60) %0)
  store ptr getelementptr inbounds ({ [6 x ptr] }, ptr @_ZTVN6dealii12SparseMatrixIfE16ExcInvalidIndex1E, i64 0, inrange i32 0, i64 2), ptr %0, align 8, !tbaa !5
  %3 = getelementptr inbounds %"class.dealii::SparseMatrix<float>::ExcInvalidIndex1", ptr %0, i64 0, i32 1
  store i32 %1, ptr %3, align 4, !tbaa !120
  ret void
}

; Function Attrs: nounwind sspstrong uwtable
define weak_odr dso_local void @_ZN6dealii12SparseMatrixIfE16ExcInvalidIndex1D2Ev(ptr noundef nonnull align 8 dereferenceable(64) %0) unnamed_addr #6 comdat($_ZN6dealii12SparseMatrixIfE16ExcInvalidIndex1D5Ev) align 2 {
  tail call void @_ZN6dealii13ExceptionBaseD2Ev(ptr noundef nonnull align 8 dereferenceable(60) %0) #17
  ret void
}

; Function Attrs: nounwind sspstrong uwtable
define weak_odr dso_local void @_ZN6dealii12SparseMatrixIfE16ExcInvalidIndex1D0Ev(ptr noundef nonnull align 8 dereferenceable(64) %0) unnamed_addr #6 comdat($_ZN6dealii12SparseMatrixIfE16ExcInvalidIndex1D5Ev) align 2 {
  tail call void @_ZN6dealii13ExceptionBaseD2Ev(ptr noundef nonnull align 8 dereferenceable(60) %0) #17
  tail call void @_ZdlPv(ptr noundef nonnull %0) #19
  ret void
}

; Function Attrs: sspstrong uwtable
define weak_odr dso_local void @_ZNK6dealii12SparseMatrixIfE16ExcInvalidIndex110print_infoERSo(ptr noundef nonnull align 8 dereferenceable(64) %0, ptr noundef nonnull align 8 dereferenceable(8) %1) unnamed_addr #0 comdat align 2 {
  %3 = tail call noundef nonnull align 8 dereferenceable(8) ptr @_ZSt16__ostream_insertIcSt11char_traitsIcEERSt13basic_ostreamIT_T0_ES6_PKS3_l(ptr noundef nonnull align 8 dereferenceable(8) %1, ptr noundef nonnull @.str.25, i64 noundef 10)
  %4 = getelementptr inbounds %"class.dealii::SparseMatrix<float>::ExcInvalidIndex1", ptr %0, i64 0, i32 1
  %5 = load i32, ptr %4, align 4, !tbaa !120
  %6 = tail call noundef nonnull align 8 dereferenceable(8) ptr @_ZNSolsEi(ptr noundef nonnull align 8 dereferenceable(8) %1, i32 noundef %5)
  %7 = tail call noundef nonnull align 8 dereferenceable(8) ptr @_ZSt16__ostream_insertIcSt11char_traitsIcEERSt13basic_ostreamIT_T0_ES6_PKS3_l(ptr noundef nonnull align 8 dereferenceable(8) %6, ptr noundef nonnull @.str.26, i64 noundef 29)
  %8 = load ptr, ptr %6, align 8, !tbaa !5
  %9 = getelementptr i8, ptr %8, i64 -24
  %10 = load i64, ptr %9, align 8
  %11 = getelementptr inbounds i8, ptr %6, i64 %10
  %12 = getelementptr inbounds %"class.std::basic_ios", ptr %11, i64 0, i32 5
  %13 = load ptr, ptr %12, align 8, !tbaa !77
  %14 = icmp eq ptr %13, null
  br i1 %14, label %15, label %16

15:                                               ; preds = %2
  tail call void @_ZSt16__throw_bad_castv() #21
  unreachable

16:                                               ; preds = %2
  %17 = getelementptr inbounds %"class.std::ctype", ptr %13, i64 0, i32 8
  %18 = load i8, ptr %17, align 8, !tbaa !79
  %19 = icmp eq i8 %18, 0
  br i1 %19, label %23, label %20

20:                                               ; preds = %16
  %21 = getelementptr inbounds %"class.std::ctype", ptr %13, i64 0, i32 9, i64 10
  %22 = load i8, ptr %21, align 1, !tbaa !82
  br label %28

23:                                               ; preds = %16
  tail call void @_ZNKSt5ctypeIcE13_M_widen_initEv(ptr noundef nonnull align 8 dereferenceable(570) %13)
  %24 = load ptr, ptr %13, align 8, !tbaa !5
  %25 = getelementptr inbounds ptr, ptr %24, i64 6
  %26 = load ptr, ptr %25, align 8
  %27 = tail call noundef signext i8 %26(ptr noundef nonnull align 8 dereferenceable(570) %13, i8 noundef signext 10)
  br label %28

28:                                               ; preds = %20, %23
  %29 = phi i8 [ %22, %20 ], [ %27, %23 ]
  %30 = tail call noundef nonnull align 8 dereferenceable(8) ptr @_ZNSo3putEc(ptr noundef nonnull align 8 dereferenceable(8) %6, i8 noundef signext %29)
  %31 = tail call noundef nonnull align 8 dereferenceable(8) ptr @_ZNSo5flushEv(ptr noundef nonnull align 8 dereferenceable(8) %30)
  ret void
}

; Function Attrs: sspstrong uwtable
define weak_odr dso_local void @_ZN6dealii12SparseMatrixIfE16ExcIteratorRangeC2Eii(ptr noundef nonnull align 8 dereferenceable(68) %0, i32 noundef %1, i32 noundef %2) unnamed_addr #0 comdat($_ZN6dealii12SparseMatrixIfE16ExcIteratorRangeC5Eii) align 2 {
  tail call void @_ZN6dealii13ExceptionBaseC2Ev(ptr noundef nonnull align 8 dereferenceable(60) %0)
  store ptr getelementptr inbounds ({ [6 x ptr] }, ptr @_ZTVN6dealii12SparseMatrixIfE16ExcIteratorRangeE, i64 0, inrange i32 0, i64 2), ptr %0, align 8, !tbaa !5
  %4 = getelementptr inbounds %"class.dealii::SparseMatrix<float>::ExcIteratorRange", ptr %0, i64 0, i32 1
  store i32 %1, ptr %4, align 4, !tbaa !122
  %5 = getelementptr inbounds %"class.dealii::SparseMatrix<float>::ExcIteratorRange", ptr %0, i64 0, i32 2
  store i32 %2, ptr %5, align 8, !tbaa !124
  ret void
}

; Function Attrs: nounwind sspstrong uwtable
define weak_odr dso_local void @_ZN6dealii12SparseMatrixIfE16ExcIteratorRangeD2Ev(ptr noundef nonnull align 8 dereferenceable(68) %0) unnamed_addr #6 comdat($_ZN6dealii12SparseMatrixIfE16ExcIteratorRangeD5Ev) align 2 {
  tail call void @_ZN6dealii13ExceptionBaseD2Ev(ptr noundef nonnull align 8 dereferenceable(60) %0) #17
  ret void
}

; Function Attrs: nounwind sspstrong uwtable
define weak_odr dso_local void @_ZN6dealii12SparseMatrixIfE16ExcIteratorRangeD0Ev(ptr noundef nonnull align 8 dereferenceable(68) %0) unnamed_addr #6 comdat($_ZN6dealii12SparseMatrixIfE16ExcIteratorRangeD5Ev) align 2 {
  tail call void @_ZN6dealii13ExceptionBaseD2Ev(ptr noundef nonnull align 8 dereferenceable(60) %0) #17
  tail call void @_ZdlPv(ptr noundef nonnull %0) #19
  ret void
}

; Function Attrs: sspstrong uwtable
define weak_odr dso_local void @_ZNK6dealii12SparseMatrixIfE16ExcIteratorRange10print_infoERSo(ptr noundef nonnull align 8 dereferenceable(68) %0, ptr noundef nonnull align 8 dereferenceable(8) %1) unnamed_addr #0 comdat align 2 {
  %3 = tail call noundef nonnull align 8 dereferenceable(8) ptr @_ZSt16__ostream_insertIcSt11char_traitsIcEERSt13basic_ostreamIT_T0_ES6_PKS3_l(ptr noundef nonnull align 8 dereferenceable(8) %1, ptr noundef nonnull @.str.27, i64 noundef 32)
  %4 = getelementptr inbounds %"class.dealii::SparseMatrix<float>::ExcIteratorRange", ptr %0, i64 0, i32 1
  %5 = load i32, ptr %4, align 4, !tbaa !122
  %6 = tail call noundef nonnull align 8 dereferenceable(8) ptr @_ZNSolsEi(ptr noundef nonnull align 8 dereferenceable(8) %1, i32 noundef %5)
  %7 = tail call noundef nonnull align 8 dereferenceable(8) ptr @_ZSt16__ostream_insertIcSt11char_traitsIcEERSt13basic_ostreamIT_T0_ES6_PKS3_l(ptr noundef nonnull align 8 dereferenceable(8) %6, ptr noundef nonnull @.str.28, i64 noundef 44)
  %8 = getelementptr inbounds %"class.dealii::SparseMatrix<float>::ExcIteratorRange", ptr %0, i64 0, i32 2
  %9 = load i32, ptr %8, align 8, !tbaa !124
  %10 = tail call noundef nonnull align 8 dereferenceable(8) ptr @_ZNSolsEi(ptr noundef nonnull align 8 dereferenceable(8) %6, i32 noundef %9)
  %11 = load ptr, ptr %10, align 8, !tbaa !5
  %12 = getelementptr i8, ptr %11, i64 -24
  %13 = load i64, ptr %12, align 8
  %14 = getelementptr inbounds i8, ptr %10, i64 %13
  %15 = getelementptr inbounds %"class.std::basic_ios", ptr %14, i64 0, i32 5
  %16 = load ptr, ptr %15, align 8, !tbaa !77
  %17 = icmp eq ptr %16, null
  br i1 %17, label %18, label %19

18:                                               ; preds = %2
  tail call void @_ZSt16__throw_bad_castv() #21
  unreachable

19:                                               ; preds = %2
  %20 = getelementptr inbounds %"class.std::ctype", ptr %16, i64 0, i32 8
  %21 = load i8, ptr %20, align 8, !tbaa !79
  %22 = icmp eq i8 %21, 0
  br i1 %22, label %26, label %23

23:                                               ; preds = %19
  %24 = getelementptr inbounds %"class.std::ctype", ptr %16, i64 0, i32 9, i64 10
  %25 = load i8, ptr %24, align 1, !tbaa !82
  br label %31

26:                                               ; preds = %19
  tail call void @_ZNKSt5ctypeIcE13_M_widen_initEv(ptr noundef nonnull align 8 dereferenceable(570) %16)
  %27 = load ptr, ptr %16, align 8, !tbaa !5
  %28 = getelementptr inbounds ptr, ptr %27, i64 6
  %29 = load ptr, ptr %28, align 8
  %30 = tail call noundef signext i8 %29(ptr noundef nonnull align 8 dereferenceable(570) %16, i8 noundef signext 10)
  br label %31

31:                                               ; preds = %23, %26
  %32 = phi i8 [ %25, %23 ], [ %30, %26 ]
  %33 = tail call noundef nonnull align 8 dereferenceable(8) ptr @_ZNSo3putEc(ptr noundef nonnull align 8 dereferenceable(8) %10, i8 noundef signext %32)
  %34 = tail call noundef nonnull align 8 dereferenceable(8) ptr @_ZNSo5flushEv(ptr noundef nonnull align 8 dereferenceable(8) %33)
  ret void
}

; Function Attrs: sspstrong uwtable
define weak_odr dso_local void @_ZN6dealii12SparseMatrixIeEC2Ev(ptr noundef nonnull align 8 dereferenceable(36) %0, ptr noundef %1) unnamed_addr #0 comdat align 2 {
  %3 = load ptr, ptr %1, align 8
  store ptr %3, ptr %0, align 8, !tbaa !5
  %4 = getelementptr inbounds ptr, ptr %1, i64 1
  %5 = load ptr, ptr %4, align 8
  %6 = getelementptr i8, ptr %3, i64 -24
  %7 = load i64, ptr %6, align 8
  %8 = getelementptr inbounds i8, ptr %0, i64 %7
  store ptr %5, ptr %8, align 8, !tbaa !5
  %9 = getelementptr inbounds %"class.dealii::SparseMatrix.25", ptr %0, i64 0, i32 1
  store ptr null, ptr %9, align 8, !tbaa !8
  %10 = getelementptr inbounds %"class.dealii::SparseMatrix.25", ptr %0, i64 0, i32 1, i32 1
  store ptr @.str, ptr %10, align 8, !tbaa !12
  %11 = getelementptr inbounds %"class.dealii::SparseMatrix.25", ptr %0, i64 0, i32 2
  store ptr null, ptr %11, align 8, !tbaa !125
  %12 = getelementptr inbounds %"class.dealii::SparseMatrix.25", ptr %0, i64 0, i32 3
  store i32 0, ptr %12, align 8, !tbaa !127
  ret void
}

; Function Attrs: sspstrong uwtable
define weak_odr dso_local void @_ZN6dealii12SparseMatrixIeEC1Ev(ptr noundef nonnull align 8 dereferenceable(36) %0) unnamed_addr #0 comdat align 2 personality ptr @__gxx_personality_v0 {
  %2 = getelementptr inbounds i8, ptr %0, i64 40
  tail call void @_ZN6dealii11SubscriptorC2Ev(ptr noundef nonnull align 8 dereferenceable(72) %2)
  store ptr getelementptr inbounds ({ [7 x ptr], [5 x ptr] }, ptr @_ZTVN6dealii12SparseMatrixIeEE, i64 0, inrange i32 0, i64 3), ptr %0, align 8, !tbaa !5
  store ptr getelementptr inbounds ({ [7 x ptr], [5 x ptr] }, ptr @_ZTVN6dealii12SparseMatrixIeEE, i64 0, inrange i32 1, i64 3), ptr %2, align 8, !tbaa !5
  %3 = getelementptr inbounds %"class.dealii::SparseMatrix.25", ptr %0, i64 0, i32 1
  store ptr null, ptr %3, align 8, !tbaa !8
  %4 = getelementptr inbounds %"class.dealii::SparseMatrix.25", ptr %0, i64 0, i32 1, i32 1
  store ptr @.str, ptr %4, align 8, !tbaa !12
  %5 = getelementptr inbounds %"class.dealii::SparseMatrix.25", ptr %0, i64 0, i32 2
  store ptr null, ptr %5, align 8, !tbaa !125
  %6 = getelementptr inbounds %"class.dealii::SparseMatrix.25", ptr %0, i64 0, i32 3
  store i32 0, ptr %6, align 8, !tbaa !127
  ret void
}

; Function Attrs: sspstrong uwtable
define weak_odr dso_local void @_ZN6dealii12SparseMatrixIeEC2ERKS1_(ptr noundef nonnull align 8 dereferenceable(36) %0, ptr noundef %1, ptr noundef nonnull align 8 dereferenceable(36) %2) unnamed_addr #0 comdat align 2 {
  %4 = load ptr, ptr %1, align 8
  store ptr %4, ptr %0, align 8, !tbaa !5
  %5 = getelementptr inbounds ptr, ptr %1, i64 1
  %6 = load ptr, ptr %5, align 8
  %7 = getelementptr i8, ptr %4, i64 -24
  %8 = load i64, ptr %7, align 8
  %9 = getelementptr inbounds i8, ptr %0, i64 %8
  store ptr %6, ptr %9, align 8, !tbaa !5
  %10 = getelementptr inbounds %"class.dealii::SparseMatrix.25", ptr %0, i64 0, i32 1
  store ptr null, ptr %10, align 8, !tbaa !8
  %11 = getelementptr inbounds %"class.dealii::SparseMatrix.25", ptr %0, i64 0, i32 1, i32 1
  store ptr @.str, ptr %11, align 8, !tbaa !12
  %12 = getelementptr inbounds %"class.dealii::SparseMatrix.25", ptr %0, i64 0, i32 2
  store ptr null, ptr %12, align 8, !tbaa !125
  %13 = getelementptr inbounds %"class.dealii::SparseMatrix.25", ptr %0, i64 0, i32 3
  store i32 0, ptr %13, align 8, !tbaa !127
  ret void
}

; Function Attrs: sspstrong uwtable
define weak_odr dso_local void @_ZN6dealii12SparseMatrixIeEC1ERKS1_(ptr noundef nonnull align 8 dereferenceable(36) %0, ptr noundef nonnull align 8 dereferenceable(36) %1) unnamed_addr #0 comdat align 2 personality ptr @__gxx_personality_v0 {
  %3 = getelementptr inbounds i8, ptr %0, i64 40
  %4 = load ptr, ptr %1, align 8, !tbaa !5
  %5 = getelementptr i8, ptr %4, i64 -24
  %6 = load i64, ptr %5, align 8
  %7 = getelementptr inbounds i8, ptr %1, i64 %6
  tail call void @_ZN6dealii11SubscriptorC2ERKS0_(ptr noundef nonnull align 8 dereferenceable(72) %3, ptr noundef nonnull align 8 dereferenceable(72) %7)
  store ptr getelementptr inbounds ({ [7 x ptr], [5 x ptr] }, ptr @_ZTVN6dealii12SparseMatrixIeEE, i64 0, inrange i32 0, i64 3), ptr %0, align 8, !tbaa !5
  store ptr getelementptr inbounds ({ [7 x ptr], [5 x ptr] }, ptr @_ZTVN6dealii12SparseMatrixIeEE, i64 0, inrange i32 1, i64 3), ptr %3, align 8, !tbaa !5
  %8 = getelementptr inbounds %"class.dealii::SparseMatrix.25", ptr %0, i64 0, i32 1
  store ptr null, ptr %8, align 8, !tbaa !8
  %9 = getelementptr inbounds %"class.dealii::SparseMatrix.25", ptr %0, i64 0, i32 1, i32 1
  store ptr @.str, ptr %9, align 8, !tbaa !12
  %10 = getelementptr inbounds %"class.dealii::SparseMatrix.25", ptr %0, i64 0, i32 2
  store ptr null, ptr %10, align 8, !tbaa !125
  %11 = getelementptr inbounds %"class.dealii::SparseMatrix.25", ptr %0, i64 0, i32 3
  store i32 0, ptr %11, align 8, !tbaa !127
  ret void
}

; Function Attrs: sspstrong uwtable
define weak_odr dso_local void @_ZN6dealii12SparseMatrixIeEC2ERKNS_15SparsityPatternE(ptr noundef nonnull align 8 dereferenceable(36) %0, ptr noundef %1, ptr noundef nonnull align 8 dereferenceable(122) %2) unnamed_addr #0 comdat align 2 personality ptr @__gxx_personality_v0 {
  %4 = load ptr, ptr %1, align 8
  store ptr %4, ptr %0, align 8, !tbaa !5
  %5 = getelementptr inbounds ptr, ptr %1, i64 1
  %6 = load ptr, ptr %5, align 8
  %7 = getelementptr i8, ptr %4, i64 -24
  %8 = load i64, ptr %7, align 8
  %9 = getelementptr inbounds i8, ptr %0, i64 %8
  store ptr %6, ptr %9, align 8, !tbaa !5
  %10 = getelementptr inbounds %"class.dealii::SparseMatrix.25", ptr %0, i64 0, i32 1
  store ptr null, ptr %10, align 8, !tbaa !8
  %11 = getelementptr inbounds %"class.dealii::SparseMatrix.25", ptr %0, i64 0, i32 1, i32 1
  store ptr @.str, ptr %11, align 8, !tbaa !12
  %12 = getelementptr inbounds %"class.dealii::SparseMatrix.25", ptr %0, i64 0, i32 2
  store ptr null, ptr %12, align 8, !tbaa !125
  %13 = getelementptr inbounds %"class.dealii::SparseMatrix.25", ptr %0, i64 0, i32 3
  store i32 0, ptr %13, align 8, !tbaa !127
  %14 = load ptr, ptr %0, align 8, !tbaa !5
  %15 = getelementptr inbounds ptr, ptr %14, i64 2
  %16 = load ptr, ptr %15, align 8
  tail call void %16(ptr noundef nonnull align 8 dereferenceable(36) %0, ptr noundef nonnull align 8 dereferenceable(122) %2)
  ret void
}

; Function Attrs: sspstrong uwtable
define weak_odr dso_local void @_ZN6dealii12SparseMatrixIeEC1ERKNS_15SparsityPatternE(ptr noundef nonnull align 8 dereferenceable(36) %0, ptr noundef nonnull align 8 dereferenceable(122) %1) unnamed_addr #0 comdat align 2 personality ptr @__gxx_personality_v0 {
  %3 = getelementptr inbounds i8, ptr %0, i64 40
  tail call void @_ZN6dealii11SubscriptorC2Ev(ptr noundef nonnull align 8 dereferenceable(72) %3)
  store ptr getelementptr inbounds ({ [7 x ptr], [5 x ptr] }, ptr @_ZTVN6dealii12SparseMatrixIeEE, i64 0, inrange i32 0, i64 3), ptr %0, align 8, !tbaa !5
  store ptr getelementptr inbounds ({ [7 x ptr], [5 x ptr] }, ptr @_ZTVN6dealii12SparseMatrixIeEE, i64 0, inrange i32 1, i64 3), ptr %3, align 8, !tbaa !5
  %4 = getelementptr inbounds %"class.dealii::SparseMatrix.25", ptr %0, i64 0, i32 1
  store ptr null, ptr %4, align 8, !tbaa !8
  %5 = getelementptr inbounds %"class.dealii::SparseMatrix.25", ptr %0, i64 0, i32 1, i32 1
  store ptr @.str, ptr %5, align 8, !tbaa !12
  %6 = getelementptr inbounds %"class.dealii::SparseMatrix.25", ptr %0, i64 0, i32 2
  store ptr null, ptr %6, align 8, !tbaa !125
  %7 = getelementptr inbounds %"class.dealii::SparseMatrix.25", ptr %0, i64 0, i32 3
  store i32 0, ptr %7, align 8, !tbaa !127
  invoke void @_ZN6dealii12SparseMatrixIeE6reinitERKNS_15SparsityPatternE(ptr noundef nonnull align 8 dereferenceable(36) %0, ptr noundef nonnull align 8 dereferenceable(122) %1)
          to label %8 unwind label %9

8:                                                ; preds = %2
  ret void

9:                                                ; preds = %2
  %10 = landingpad { ptr, i32 }
          cleanup
  invoke void @_ZN6dealii11SubscriptorD2Ev(ptr noundef nonnull align 8 dereferenceable(72) %3)
          to label %11 unwind label %12

11:                                               ; preds = %9
  resume { ptr, i32 } %10

12:                                               ; preds = %9
  %13 = landingpad { ptr, i32 }
          catch ptr null
  %14 = extractvalue { ptr, i32 } %13, 0
  tail call void @__clang_call_terminate(ptr %14) #18
  unreachable
}

; Function Attrs: sspstrong uwtable
define weak_odr dso_local void @_ZN6dealii12SparseMatrixIeEC2ERKNS_15SparsityPatternERKNS_14IdentityMatrixE(ptr noundef nonnull align 8 dereferenceable(36) %0, ptr noundef %1, ptr noundef nonnull align 8 dereferenceable(122) %2, ptr noundef nonnull align 4 dereferenceable(4) %3) unnamed_addr #0 comdat align 2 personality ptr @__gxx_personality_v0 {
  %5 = load ptr, ptr %1, align 8
  store ptr %5, ptr %0, align 8, !tbaa !5
  %6 = getelementptr inbounds ptr, ptr %1, i64 1
  %7 = load ptr, ptr %6, align 8
  %8 = getelementptr i8, ptr %5, i64 -24
  %9 = load i64, ptr %8, align 8
  %10 = getelementptr inbounds i8, ptr %0, i64 %9
  store ptr %7, ptr %10, align 8, !tbaa !5
  %11 = getelementptr inbounds %"class.dealii::SparseMatrix.25", ptr %0, i64 0, i32 1
  store ptr null, ptr %11, align 8, !tbaa !8
  %12 = getelementptr inbounds %"class.dealii::SparseMatrix.25", ptr %0, i64 0, i32 1, i32 1
  store ptr @.str, ptr %12, align 8, !tbaa !12
  %13 = getelementptr inbounds %"class.dealii::SparseMatrix.25", ptr %0, i64 0, i32 2
  store ptr null, ptr %13, align 8, !tbaa !125
  %14 = getelementptr inbounds %"class.dealii::SparseMatrix.25", ptr %0, i64 0, i32 3
  store i32 0, ptr %14, align 8, !tbaa !127
  %15 = load ptr, ptr %0, align 8, !tbaa !5
  %16 = getelementptr inbounds ptr, ptr %15, i64 2
  %17 = load ptr, ptr %16, align 8
  tail call void %17(ptr noundef nonnull align 8 dereferenceable(36) %0, ptr noundef nonnull align 8 dereferenceable(122) %2)
  %18 = load ptr, ptr %11, align 8, !tbaa !8
  %19 = getelementptr inbounds %"class.dealii::SparsityPattern", ptr %18, i64 0, i32 3
  %20 = load i32, ptr %19, align 8, !tbaa !17
  %21 = icmp eq i32 %20, 0
  br i1 %21, label %22, label %23

22:                                               ; preds = %32, %4
  ret void

23:                                               ; preds = %4, %32
  %24 = phi ptr [ %34, %32 ], [ %18, %4 ]
  %25 = phi i32 [ %33, %32 ], [ 0, %4 ]
  %26 = tail call noundef i32 @_ZNK6dealii15SparsityPatternclEjj(ptr noundef nonnull align 8 dereferenceable(122) %24, i32 noundef %25, i32 noundef %25)
  %27 = icmp eq i32 %26, -1
  br i1 %27, label %32, label %28

28:                                               ; preds = %23
  %29 = load ptr, ptr %13, align 8, !tbaa !125
  %30 = zext i32 %26 to i64
  %31 = getelementptr inbounds x86_fp80, ptr %29, i64 %30
  store x86_fp80 0xK3FFF8000000000000000, ptr %31, align 16, !tbaa !128
  br label %32

32:                                               ; preds = %28, %23
  %33 = add nuw i32 %25, 1
  %34 = load ptr, ptr %11, align 8, !tbaa !8
  %35 = getelementptr inbounds %"class.dealii::SparsityPattern", ptr %34, i64 0, i32 3
  %36 = load i32, ptr %35, align 8, !tbaa !17
  %37 = icmp ult i32 %33, %36
  br i1 %37, label %23, label %22
}

; Function Attrs: inlinehint sspstrong uwtable
define weak_odr dso_local noundef i32 @_ZNK6dealii12SparseMatrixIeE1nEv(ptr noundef nonnull align 8 dereferenceable(36) %0) local_unnamed_addr #4 comdat align 2 {
  %2 = getelementptr inbounds %"class.dealii::SparseMatrix.25", ptr %0, i64 0, i32 1
  %3 = load ptr, ptr %2, align 8, !tbaa !8
  %4 = getelementptr inbounds %"class.dealii::SparsityPattern", ptr %3, i64 0, i32 3
  %5 = load i32, ptr %4, align 8, !tbaa !17
  ret i32 %5
}

; Function Attrs: inlinehint sspstrong uwtable
define weak_odr dso_local void @_ZN6dealii12SparseMatrixIeE3setEjje(ptr noundef nonnull align 8 dereferenceable(36) %0, i32 noundef %1, i32 noundef %2, x86_fp80 noundef %3) local_unnamed_addr #4 comdat align 2 {
  %5 = getelementptr inbounds %"class.dealii::SparseMatrix.25", ptr %0, i64 0, i32 1
  %6 = load ptr, ptr %5, align 8, !tbaa !8
  %7 = tail call noundef i32 @_ZNK6dealii15SparsityPatternclEjj(ptr noundef nonnull align 8 dereferenceable(122) %6, i32 noundef %1, i32 noundef %2)
  %8 = icmp eq i32 %7, -1
  br i1 %8, label %14, label %9

9:                                                ; preds = %4
  %10 = getelementptr inbounds %"class.dealii::SparseMatrix.25", ptr %0, i64 0, i32 2
  %11 = load ptr, ptr %10, align 8, !tbaa !125
  %12 = zext i32 %7 to i64
  %13 = getelementptr inbounds x86_fp80, ptr %11, i64 %12
  store x86_fp80 %3, ptr %13, align 16, !tbaa !128
  br label %14

14:                                               ; preds = %4, %9
  ret void
}

; Function Attrs: sspstrong uwtable
define weak_odr dso_local void @_ZN6dealii12SparseMatrixIeEC1ERKNS_15SparsityPatternERKNS_14IdentityMatrixE(ptr noundef nonnull align 8 dereferenceable(36) %0, ptr noundef nonnull align 8 dereferenceable(122) %1, ptr noundef nonnull align 4 dereferenceable(4) %2) unnamed_addr #0 comdat align 2 personality ptr @__gxx_personality_v0 {
  %4 = getelementptr inbounds i8, ptr %0, i64 40
  tail call void @_ZN6dealii11SubscriptorC2Ev(ptr noundef nonnull align 8 dereferenceable(72) %4)
  store ptr getelementptr inbounds ({ [7 x ptr], [5 x ptr] }, ptr @_ZTVN6dealii12SparseMatrixIeEE, i64 0, inrange i32 0, i64 3), ptr %0, align 8, !tbaa !5
  store ptr getelementptr inbounds ({ [7 x ptr], [5 x ptr] }, ptr @_ZTVN6dealii12SparseMatrixIeEE, i64 0, inrange i32 1, i64 3), ptr %4, align 8, !tbaa !5
  %5 = getelementptr inbounds %"class.dealii::SparseMatrix.25", ptr %0, i64 0, i32 1
  store ptr null, ptr %5, align 8, !tbaa !8
  %6 = getelementptr inbounds %"class.dealii::SparseMatrix.25", ptr %0, i64 0, i32 1, i32 1
  store ptr @.str, ptr %6, align 8, !tbaa !12
  %7 = getelementptr inbounds %"class.dealii::SparseMatrix.25", ptr %0, i64 0, i32 2
  store ptr null, ptr %7, align 8, !tbaa !125
  %8 = getelementptr inbounds %"class.dealii::SparseMatrix.25", ptr %0, i64 0, i32 3
  store i32 0, ptr %8, align 8, !tbaa !127
  invoke void @_ZN6dealii12SparseMatrixIeE6reinitERKNS_15SparsityPatternE(ptr noundef nonnull align 8 dereferenceable(36) %0, ptr noundef nonnull align 8 dereferenceable(122) %1)
          to label %9 unwind label %15

9:                                                ; preds = %3
  %10 = load ptr, ptr %5, align 8, !tbaa !8
  %11 = getelementptr inbounds %"class.dealii::SparsityPattern", ptr %10, i64 0, i32 3
  %12 = load i32, ptr %11, align 8, !tbaa !17
  %13 = icmp eq i32 %12, 0
  br i1 %13, label %14, label %19

14:                                               ; preds = %29, %9
  ret void

15:                                               ; preds = %3
  %16 = landingpad { ptr, i32 }
          cleanup
  br label %35

17:                                               ; preds = %19
  %18 = landingpad { ptr, i32 }
          cleanup
  br label %35

19:                                               ; preds = %9, %29
  %20 = phi ptr [ %31, %29 ], [ %10, %9 ]
  %21 = phi i32 [ %30, %29 ], [ 0, %9 ]
  %22 = invoke noundef i32 @_ZNK6dealii15SparsityPatternclEjj(ptr noundef nonnull align 8 dereferenceable(122) %20, i32 noundef %21, i32 noundef %21)
          to label %23 unwind label %17

23:                                               ; preds = %19
  %24 = icmp eq i32 %22, -1
  br i1 %24, label %29, label %25

25:                                               ; preds = %23
  %26 = load ptr, ptr %7, align 8, !tbaa !125
  %27 = zext i32 %22 to i64
  %28 = getelementptr inbounds x86_fp80, ptr %26, i64 %27
  store x86_fp80 0xK3FFF8000000000000000, ptr %28, align 16, !tbaa !128
  br label %29

29:                                               ; preds = %25, %23
  %30 = add nuw i32 %21, 1
  %31 = load ptr, ptr %5, align 8, !tbaa !8
  %32 = getelementptr inbounds %"class.dealii::SparsityPattern", ptr %31, i64 0, i32 3
  %33 = load i32, ptr %32, align 8, !tbaa !17
  %34 = icmp ult i32 %30, %33
  br i1 %34, label %19, label %14

35:                                               ; preds = %15, %17
  %36 = phi { ptr, i32 } [ %18, %17 ], [ %16, %15 ]
  invoke void @_ZN6dealii11SubscriptorD2Ev(ptr noundef nonnull align 8 dereferenceable(72) %4)
          to label %37 unwind label %38

37:                                               ; preds = %35
  resume { ptr, i32 } %36

38:                                               ; preds = %35
  %39 = landingpad { ptr, i32 }
          catch ptr null
  %40 = extractvalue { ptr, i32 } %39, 0
  tail call void @__clang_call_terminate(ptr %40) #18
  unreachable
}

; Function Attrs: sspstrong uwtable
define weak_odr dso_local void @_ZN6dealii12SparseMatrixIeED2Ev(ptr noundef nonnull align 8 dereferenceable(36) %0, ptr noundef %1) unnamed_addr #0 comdat align 2 personality ptr @__gxx_personality_v0 {
  %3 = load ptr, ptr %1, align 8
  store ptr %3, ptr %0, align 8, !tbaa !5
  %4 = getelementptr inbounds ptr, ptr %1, i64 1
  %5 = load ptr, ptr %4, align 8
  %6 = getelementptr i8, ptr %3, i64 -24
  %7 = load i64, ptr %6, align 8
  %8 = getelementptr inbounds i8, ptr %0, i64 %7
  store ptr %5, ptr %8, align 8, !tbaa !5
  %9 = getelementptr inbounds %"class.dealii::SparseMatrix.25", ptr %0, i64 0, i32 1
  %10 = load ptr, ptr %9, align 8, !tbaa !8
  %11 = icmp eq ptr %10, null
  br i1 %11, label %13, label %12

12:                                               ; preds = %2
  store ptr null, ptr %9, align 8, !tbaa !8
  br label %13

13:                                               ; preds = %2, %12
  %14 = getelementptr inbounds %"class.dealii::SparseMatrix.25", ptr %0, i64 0, i32 2
  %15 = load ptr, ptr %14, align 8, !tbaa !125
  %16 = icmp eq ptr %15, null
  br i1 %16, label %18, label %17

17:                                               ; preds = %13
  tail call void @_ZdaPv(ptr noundef nonnull %15) #19
  br label %18

18:                                               ; preds = %17, %13
  ret void
}

; Function Attrs: sspstrong uwtable
define weak_odr dso_local void @_ZN6dealii12SparseMatrixIeED1Ev(ptr noundef nonnull align 8 dereferenceable(36) %0) unnamed_addr #0 comdat align 2 personality ptr @__gxx_personality_v0 {
  store ptr getelementptr inbounds ({ [7 x ptr], [5 x ptr] }, ptr @_ZTVN6dealii12SparseMatrixIeEE, i64 0, inrange i32 0, i64 3), ptr %0, align 8, !tbaa !5
  %2 = getelementptr inbounds i8, ptr %0, i64 40
  store ptr getelementptr inbounds ({ [7 x ptr], [5 x ptr] }, ptr @_ZTVN6dealii12SparseMatrixIeEE, i64 0, inrange i32 1, i64 3), ptr %2, align 8, !tbaa !5
  %3 = getelementptr inbounds %"class.dealii::SparseMatrix.25", ptr %0, i64 0, i32 1
  %4 = load ptr, ptr %3, align 8, !tbaa !8
  %5 = icmp eq ptr %4, null
  br i1 %5, label %7, label %6

6:                                                ; preds = %1
  store ptr null, ptr %3, align 8, !tbaa !8
  br label %7

7:                                                ; preds = %6, %1
  %8 = getelementptr inbounds %"class.dealii::SparseMatrix.25", ptr %0, i64 0, i32 2
  %9 = load ptr, ptr %8, align 8, !tbaa !125
  %10 = icmp eq ptr %9, null
  br i1 %10, label %12, label %11

11:                                               ; preds = %7
  tail call void @_ZdaPv(ptr noundef nonnull %9) #19
  br label %12

12:                                               ; preds = %11, %7
  tail call void @_ZN6dealii11SubscriptorD2Ev(ptr noundef nonnull align 8 dereferenceable(72) %2)
  ret void
}

; Function Attrs: sspstrong uwtable
define weak_odr dso_local void @_ZTv0_n24_N6dealii12SparseMatrixIeED1Ev(ptr noundef %0) unnamed_addr #0 comdat align 2 personality ptr @__gxx_personality_v0 {
  %2 = load ptr, ptr %0, align 8
  %3 = getelementptr inbounds i8, ptr %2, i64 -24
  %4 = load i64, ptr %3, align 8
  %5 = getelementptr inbounds i8, ptr %0, i64 %4
  store ptr getelementptr inbounds ({ [7 x ptr], [5 x ptr] }, ptr @_ZTVN6dealii12SparseMatrixIeEE, i64 0, inrange i32 0, i64 3), ptr %5, align 8, !tbaa !5
  %6 = getelementptr inbounds i8, ptr %5, i64 40
  store ptr getelementptr inbounds ({ [7 x ptr], [5 x ptr] }, ptr @_ZTVN6dealii12SparseMatrixIeEE, i64 0, inrange i32 1, i64 3), ptr %6, align 8, !tbaa !5
  %7 = getelementptr inbounds %"class.dealii::SparseMatrix.25", ptr %5, i64 0, i32 1
  %8 = load ptr, ptr %7, align 8, !tbaa !8
  %9 = icmp eq ptr %8, null
  br i1 %9, label %11, label %10

10:                                               ; preds = %1
  store ptr null, ptr %7, align 8, !tbaa !8
  br label %11

11:                                               ; preds = %10, %1
  %12 = getelementptr inbounds %"class.dealii::SparseMatrix.25", ptr %5, i64 0, i32 2
  %13 = load ptr, ptr %12, align 8, !tbaa !125
  %14 = icmp eq ptr %13, null
  br i1 %14, label %16, label %15

15:                                               ; preds = %11
  tail call void @_ZdaPv(ptr noundef nonnull %13) #19
  br label %16

16:                                               ; preds = %11, %15
  tail call void @_ZN6dealii11SubscriptorD2Ev(ptr noundef nonnull align 8 dereferenceable(72) %6)
  ret void
}

; Function Attrs: sspstrong uwtable
define weak_odr dso_local void @_ZN6dealii12SparseMatrixIeED0Ev(ptr noundef nonnull align 8 dereferenceable(36) %0) unnamed_addr #0 comdat align 2 personality ptr @__gxx_personality_v0 {
  store ptr getelementptr inbounds ({ [7 x ptr], [5 x ptr] }, ptr @_ZTVN6dealii12SparseMatrixIeEE, i64 0, inrange i32 0, i64 3), ptr %0, align 8, !tbaa !5
  %2 = getelementptr inbounds i8, ptr %0, i64 40
  store ptr getelementptr inbounds ({ [7 x ptr], [5 x ptr] }, ptr @_ZTVN6dealii12SparseMatrixIeEE, i64 0, inrange i32 1, i64 3), ptr %2, align 8, !tbaa !5
  %3 = getelementptr inbounds %"class.dealii::SparseMatrix.25", ptr %0, i64 0, i32 1
  %4 = load ptr, ptr %3, align 8, !tbaa !8
  %5 = icmp eq ptr %4, null
  br i1 %5, label %7, label %6

6:                                                ; preds = %1
  store ptr null, ptr %3, align 8, !tbaa !8
  br label %7

7:                                                ; preds = %6, %1
  %8 = getelementptr inbounds %"class.dealii::SparseMatrix.25", ptr %0, i64 0, i32 2
  %9 = load ptr, ptr %8, align 8, !tbaa !125
  %10 = icmp eq ptr %9, null
  br i1 %10, label %12, label %11

11:                                               ; preds = %7
  tail call void @_ZdaPv(ptr noundef nonnull %9) #19
  br label %12

12:                                               ; preds = %11, %7
  invoke void @_ZN6dealii11SubscriptorD2Ev(ptr noundef nonnull align 8 dereferenceable(72) %2)
          to label %13 unwind label %14

13:                                               ; preds = %12
  tail call void @_ZdlPv(ptr noundef nonnull %0) #19
  ret void

14:                                               ; preds = %12
  %15 = landingpad { ptr, i32 }
          cleanup
  tail call void @_ZdlPv(ptr noundef nonnull %0) #19
  resume { ptr, i32 } %15
}

; Function Attrs: sspstrong uwtable
define weak_odr dso_local void @_ZTv0_n24_N6dealii12SparseMatrixIeED0Ev(ptr noundef %0) unnamed_addr #0 comdat align 2 personality ptr @__gxx_personality_v0 {
  %2 = load ptr, ptr %0, align 8
  %3 = getelementptr inbounds i8, ptr %2, i64 -24
  %4 = load i64, ptr %3, align 8
  %5 = getelementptr inbounds i8, ptr %0, i64 %4
  store ptr getelementptr inbounds ({ [7 x ptr], [5 x ptr] }, ptr @_ZTVN6dealii12SparseMatrixIeEE, i64 0, inrange i32 0, i64 3), ptr %5, align 8, !tbaa !5
  %6 = getelementptr inbounds i8, ptr %5, i64 40
  store ptr getelementptr inbounds ({ [7 x ptr], [5 x ptr] }, ptr @_ZTVN6dealii12SparseMatrixIeEE, i64 0, inrange i32 1, i64 3), ptr %6, align 8, !tbaa !5
  %7 = getelementptr inbounds %"class.dealii::SparseMatrix.25", ptr %5, i64 0, i32 1
  %8 = load ptr, ptr %7, align 8, !tbaa !8
  %9 = icmp eq ptr %8, null
  br i1 %9, label %11, label %10

10:                                               ; preds = %1
  store ptr null, ptr %7, align 8, !tbaa !8
  br label %11

11:                                               ; preds = %10, %1
  %12 = getelementptr inbounds %"class.dealii::SparseMatrix.25", ptr %5, i64 0, i32 2
  %13 = load ptr, ptr %12, align 8, !tbaa !125
  %14 = icmp eq ptr %13, null
  br i1 %14, label %16, label %15

15:                                               ; preds = %11
  tail call void @_ZdaPv(ptr noundef nonnull %13) #19
  br label %16

16:                                               ; preds = %15, %11
  invoke void @_ZN6dealii11SubscriptorD2Ev(ptr noundef nonnull align 8 dereferenceable(72) %6)
          to label %19 unwind label %17

17:                                               ; preds = %16
  %18 = landingpad { ptr, i32 }
          cleanup
  tail call void @_ZdlPv(ptr noundef nonnull %5) #19
  resume { ptr, i32 } %18

19:                                               ; preds = %16
  tail call void @_ZdlPv(ptr noundef nonnull %5) #19
  ret void
}

; Function Attrs: nounwind sspstrong uwtable
define weak_odr dso_local noundef nonnull align 8 dereferenceable(36) ptr @_ZN6dealii12SparseMatrixIeEaSERKS1_(ptr noundef nonnull align 8 dereferenceable(36) %0, ptr noundef nonnull align 8 dereferenceable(36) %1) local_unnamed_addr #6 comdat align 2 {
  ret ptr %0
}

; Function Attrs: sspstrong uwtable
define weak_odr dso_local noundef nonnull align 8 dereferenceable(36) ptr @_ZN6dealii12SparseMatrixIeEaSERKNS_14IdentityMatrixE(ptr noundef nonnull align 8 dereferenceable(36) %0, ptr noundef nonnull align 4 dereferenceable(4) %1) local_unnamed_addr #0 comdat align 2 {
  %3 = getelementptr inbounds %"class.dealii::SparseMatrix.25", ptr %0, i64 0, i32 2
  %4 = load ptr, ptr %3, align 8, !tbaa !125
  %5 = icmp eq ptr %4, null
  %6 = getelementptr inbounds %"class.dealii::SparseMatrix.25", ptr %0, i64 0, i32 1
  %7 = load ptr, ptr %6, align 8, !tbaa !8
  br i1 %5, label %26, label %8

8:                                                ; preds = %2
  %9 = getelementptr inbounds %"class.dealii::SparsityPattern", ptr %7, i64 0, i32 8
  %10 = load ptr, ptr %9, align 8, !tbaa !32
  %11 = getelementptr inbounds %"class.dealii::SparsityPattern", ptr %7, i64 0, i32 2
  %12 = load i32, ptr %11, align 4, !tbaa !33
  %13 = zext i32 %12 to i64
  %14 = getelementptr inbounds i64, ptr %10, i64 %13
  %15 = load i64, ptr %14, align 8, !tbaa !34
  %16 = load i64, ptr %10, align 8, !tbaa !34
  %17 = sub i64 %15, %16
  %18 = and i64 %17, 4294967295
  %19 = icmp eq i64 %18, 0
  br i1 %19, label %26, label %20

20:                                               ; preds = %8
  %21 = getelementptr inbounds x86_fp80, ptr %4, i64 %18
  br label %22

22:                                               ; preds = %22, %20
  %23 = phi ptr [ %4, %20 ], [ %24, %22 ]
  store x86_fp80 0xK00000000000000000000, ptr %23, align 16, !tbaa !128
  %24 = getelementptr inbounds x86_fp80, ptr %23, i64 1
  %25 = icmp eq ptr %24, %21
  br i1 %25, label %26, label %22

26:                                               ; preds = %22, %2, %8
  %27 = getelementptr inbounds %"class.dealii::SparseMatrix.25", ptr %0, i64 0, i32 1
  %28 = getelementptr inbounds %"class.dealii::SparsityPattern", ptr %7, i64 0, i32 3
  %29 = load i32, ptr %28, align 8, !tbaa !17
  %30 = icmp eq i32 %29, 0
  br i1 %30, label %31, label %32

31:                                               ; preds = %41, %26
  ret ptr %0

32:                                               ; preds = %26, %41
  %33 = phi ptr [ %43, %41 ], [ %7, %26 ]
  %34 = phi i32 [ %42, %41 ], [ 0, %26 ]
  %35 = tail call noundef i32 @_ZNK6dealii15SparsityPatternclEjj(ptr noundef nonnull align 8 dereferenceable(122) %33, i32 noundef %34, i32 noundef %34)
  %36 = icmp eq i32 %35, -1
  br i1 %36, label %41, label %37

37:                                               ; preds = %32
  %38 = load ptr, ptr %3, align 8, !tbaa !125
  %39 = zext i32 %35 to i64
  %40 = getelementptr inbounds x86_fp80, ptr %38, i64 %39
  store x86_fp80 0xK3FFF8000000000000000, ptr %40, align 16, !tbaa !128
  br label %41

41:                                               ; preds = %32, %37
  %42 = add nuw i32 %34, 1
  %43 = load ptr, ptr %27, align 8, !tbaa !8
  %44 = getelementptr inbounds %"class.dealii::SparsityPattern", ptr %43, i64 0, i32 3
  %45 = load i32, ptr %44, align 8, !tbaa !17
  %46 = icmp ult i32 %42, %45
  br i1 %46, label %32, label %31
}

; Function Attrs: sspstrong uwtable
define weak_odr dso_local noundef nonnull align 8 dereferenceable(36) ptr @_ZN6dealii12SparseMatrixIeEaSEd(ptr noundef nonnull align 8 dereferenceable(36) %0, double noundef %1) local_unnamed_addr #0 comdat align 2 {
  %3 = getelementptr inbounds %"class.dealii::SparseMatrix.25", ptr %0, i64 0, i32 2
  %4 = load ptr, ptr %3, align 8, !tbaa !125
  %5 = icmp eq ptr %4, null
  br i1 %5, label %26, label %6

6:                                                ; preds = %2
  %7 = getelementptr inbounds %"class.dealii::SparseMatrix.25", ptr %0, i64 0, i32 1
  %8 = load ptr, ptr %7, align 8, !tbaa !8
  %9 = getelementptr inbounds %"class.dealii::SparsityPattern", ptr %8, i64 0, i32 8
  %10 = load ptr, ptr %9, align 8, !tbaa !32
  %11 = getelementptr inbounds %"class.dealii::SparsityPattern", ptr %8, i64 0, i32 2
  %12 = load i32, ptr %11, align 4, !tbaa !33
  %13 = zext i32 %12 to i64
  %14 = getelementptr inbounds i64, ptr %10, i64 %13
  %15 = load i64, ptr %14, align 8, !tbaa !34
  %16 = load i64, ptr %10, align 8, !tbaa !34
  %17 = sub i64 %15, %16
  %18 = and i64 %17, 4294967295
  %19 = icmp eq i64 %18, 0
  br i1 %19, label %26, label %20

20:                                               ; preds = %6
  %21 = getelementptr inbounds x86_fp80, ptr %4, i64 %18
  br label %22

22:                                               ; preds = %22, %20
  %23 = phi ptr [ %4, %20 ], [ %24, %22 ]
  store x86_fp80 0xK00000000000000000000, ptr %23, align 16, !tbaa !128
  %24 = getelementptr inbounds x86_fp80, ptr %23, i64 1
  %25 = icmp eq ptr %24, %21
  br i1 %25, label %26, label %22

26:                                               ; preds = %22, %6, %2
  ret ptr %0
}

; Function Attrs: sspstrong uwtable
define weak_odr dso_local void @_ZN6dealii12SparseMatrixIeE6reinitERKNS_15SparsityPatternE(ptr noundef nonnull align 8 dereferenceable(36) %0, ptr noundef nonnull align 8 dereferenceable(122) %1) unnamed_addr #0 comdat align 2 {
  %3 = getelementptr inbounds %"class.dealii::SparseMatrix.25", ptr %0, i64 0, i32 1
  %4 = load ptr, ptr %3, align 8, !tbaa !8
  %5 = icmp eq ptr %4, %1
  br i1 %5, label %7, label %6

6:                                                ; preds = %2
  store ptr %1, ptr %3, align 8, !tbaa !8
  br label %7

7:                                                ; preds = %2, %6
  %8 = tail call noundef zeroext i1 @_ZNK6dealii15SparsityPattern5emptyEv(ptr noundef nonnull align 8 dereferenceable(122) %1)
  br i1 %8, label %9, label %16

9:                                                ; preds = %7
  %10 = getelementptr inbounds %"class.dealii::SparseMatrix.25", ptr %0, i64 0, i32 2
  %11 = load ptr, ptr %10, align 8, !tbaa !125
  %12 = icmp eq ptr %11, null
  br i1 %12, label %14, label %13

13:                                               ; preds = %9
  tail call void @_ZdaPv(ptr noundef nonnull %11) #19
  br label %14

14:                                               ; preds = %13, %9
  store ptr null, ptr %10, align 8, !tbaa !125
  %15 = getelementptr inbounds %"class.dealii::SparseMatrix.25", ptr %0, i64 0, i32 3
  store i32 0, ptr %15, align 8, !tbaa !127
  br label %54

16:                                               ; preds = %7
  %17 = load ptr, ptr %3, align 8, !tbaa !8
  %18 = getelementptr inbounds %"class.dealii::SparsityPattern", ptr %17, i64 0, i32 8
  %19 = load ptr, ptr %18, align 8, !tbaa !32
  %20 = getelementptr inbounds %"class.dealii::SparsityPattern", ptr %17, i64 0, i32 2
  %21 = load i32, ptr %20, align 4, !tbaa !33
  %22 = zext i32 %21 to i64
  %23 = getelementptr inbounds i64, ptr %19, i64 %22
  %24 = load i64, ptr %23, align 8, !tbaa !34
  %25 = load i64, ptr %19, align 8, !tbaa !34
  %26 = sub i64 %24, %25
  %27 = trunc i64 %26 to i32
  %28 = getelementptr inbounds %"class.dealii::SparseMatrix.25", ptr %0, i64 0, i32 3
  %29 = load i32, ptr %28, align 8, !tbaa !127
  %30 = icmp ult i32 %29, %27
  %31 = icmp eq i32 %29, 0
  %32 = or i1 %31, %30
  %33 = getelementptr inbounds %"class.dealii::SparseMatrix.25", ptr %0, i64 0, i32 2
  %34 = load ptr, ptr %33, align 8, !tbaa !125
  br i1 %32, label %35, label %42

35:                                               ; preds = %16
  %36 = icmp eq ptr %34, null
  br i1 %36, label %38, label %37

37:                                               ; preds = %35
  tail call void @_ZdaPv(ptr noundef nonnull %34) #19
  br label %38

38:                                               ; preds = %37, %35
  %39 = shl i64 %26, 4
  %40 = and i64 %39, 68719476720
  %41 = tail call noalias noundef nonnull ptr @_Znam(i64 noundef %40) #20
  store ptr %41, ptr %33, align 8, !tbaa !125
  store i32 %27, ptr %28, align 8, !tbaa !127
  br label %42

42:                                               ; preds = %16, %38
  %43 = phi ptr [ %41, %38 ], [ %34, %16 ]
  %44 = icmp eq ptr %43, null
  %45 = icmp eq i32 %27, 0
  %46 = or i1 %45, %44
  br i1 %46, label %54, label %47

47:                                               ; preds = %42
  %48 = and i64 %26, 4294967295
  %49 = getelementptr inbounds x86_fp80, ptr %43, i64 %48
  br label %50

50:                                               ; preds = %50, %47
  %51 = phi ptr [ %43, %47 ], [ %52, %50 ]
  store x86_fp80 0xK00000000000000000000, ptr %51, align 16, !tbaa !128
  %52 = getelementptr inbounds x86_fp80, ptr %51, i64 1
  %53 = icmp eq ptr %52, %49
  br i1 %53, label %54, label %50

54:                                               ; preds = %50, %42, %14
  ret void
}

; Function Attrs: sspstrong uwtable
define weak_odr dso_local void @_ZN6dealii12SparseMatrixIeE5clearEv(ptr noundef nonnull align 8 dereferenceable(36) %0) unnamed_addr #0 comdat align 2 {
  %2 = getelementptr inbounds %"class.dealii::SparseMatrix.25", ptr %0, i64 0, i32 1
  %3 = load ptr, ptr %2, align 8, !tbaa !8
  %4 = icmp eq ptr %3, null
  br i1 %4, label %6, label %5

5:                                                ; preds = %1
  store ptr null, ptr %2, align 8, !tbaa !8
  br label %6

6:                                                ; preds = %1, %5
  %7 = getelementptr inbounds %"class.dealii::SparseMatrix.25", ptr %0, i64 0, i32 2
  %8 = load ptr, ptr %7, align 8, !tbaa !125
  %9 = icmp eq ptr %8, null
  br i1 %9, label %11, label %10

10:                                               ; preds = %6
  tail call void @_ZdaPv(ptr noundef nonnull %8) #19
  br label %11

11:                                               ; preds = %10, %6
  store ptr null, ptr %7, align 8, !tbaa !125
  %12 = getelementptr inbounds %"class.dealii::SparseMatrix.25", ptr %0, i64 0, i32 3
  store i32 0, ptr %12, align 8, !tbaa !127
  ret void
}

; Function Attrs: sspstrong uwtable
define weak_odr dso_local noundef zeroext i1 @_ZNK6dealii12SparseMatrixIeE5emptyEv(ptr noundef nonnull align 8 dereferenceable(36) %0) local_unnamed_addr #0 comdat align 2 {
  %2 = getelementptr inbounds %"class.dealii::SparseMatrix.25", ptr %0, i64 0, i32 1
  %3 = load ptr, ptr %2, align 8, !tbaa !8
  %4 = icmp eq ptr %3, null
  br i1 %4, label %7, label %5

5:                                                ; preds = %1
  %6 = tail call noundef zeroext i1 @_ZNK6dealii15SparsityPattern5emptyEv(ptr noundef nonnull align 8 dereferenceable(122) %3)
  br label %7

7:                                                ; preds = %1, %5
  %8 = phi i1 [ %6, %5 ], [ true, %1 ]
  ret i1 %8
}

; Function Attrs: inlinehint sspstrong uwtable
define weak_odr dso_local noundef i32 @_ZNK6dealii12SparseMatrixIeE1mEv(ptr noundef nonnull align 8 dereferenceable(36) %0) local_unnamed_addr #4 comdat align 2 {
  %2 = getelementptr inbounds %"class.dealii::SparseMatrix.25", ptr %0, i64 0, i32 1
  %3 = load ptr, ptr %2, align 8, !tbaa !8
  %4 = getelementptr inbounds %"class.dealii::SparsityPattern", ptr %3, i64 0, i32 2
  %5 = load i32, ptr %4, align 4, !tbaa !33
  ret i32 %5
}

; Function Attrs: sspstrong uwtable
define weak_odr dso_local noundef i32 @_ZNK6dealii12SparseMatrixIeE18n_nonzero_elementsEv(ptr noundef nonnull align 8 dereferenceable(36) %0) local_unnamed_addr #0 comdat align 2 {
  %2 = getelementptr inbounds %"class.dealii::SparseMatrix.25", ptr %0, i64 0, i32 1
  %3 = load ptr, ptr %2, align 8, !tbaa !8
  %4 = getelementptr inbounds %"class.dealii::SparsityPattern", ptr %3, i64 0, i32 8
  %5 = load ptr, ptr %4, align 8, !tbaa !32
  %6 = getelementptr inbounds %"class.dealii::SparsityPattern", ptr %3, i64 0, i32 2
  %7 = load i32, ptr %6, align 4, !tbaa !33
  %8 = zext i32 %7 to i64
  %9 = getelementptr inbounds i64, ptr %5, i64 %8
  %10 = load i64, ptr %9, align 8, !tbaa !34
  %11 = load i64, ptr %5, align 8, !tbaa !34
  %12 = sub i64 %10, %11
  %13 = trunc i64 %12 to i32
  ret i32 %13
}

; Function Attrs: sspstrong uwtable
define weak_odr dso_local noundef i32 @_ZNK6dealii12SparseMatrixIeE27n_actually_nonzero_elementsEd(ptr noundef nonnull align 8 dereferenceable(36) %0, double noundef %1) local_unnamed_addr #0 comdat align 2 {
  %3 = getelementptr inbounds %"class.dealii::SparseMatrix.25", ptr %0, i64 0, i32 1
  %4 = load ptr, ptr %3, align 8, !tbaa !8
  %5 = getelementptr inbounds %"class.dealii::SparsityPattern", ptr %4, i64 0, i32 8
  %6 = load ptr, ptr %5, align 8, !tbaa !32
  %7 = getelementptr inbounds %"class.dealii::SparsityPattern", ptr %4, i64 0, i32 2
  %8 = load i32, ptr %7, align 4, !tbaa !33
  %9 = zext i32 %8 to i64
  %10 = getelementptr inbounds i64, ptr %6, i64 %9
  %11 = load i64, ptr %10, align 8, !tbaa !34
  %12 = load i64, ptr %6, align 8, !tbaa !34
  %13 = sub i64 %11, %12
  %14 = and i64 %13, 4294967295
  %15 = icmp eq i64 %14, 0
  br i1 %15, label %97, label %16

16:                                               ; preds = %2
  %17 = getelementptr inbounds %"class.dealii::SparseMatrix.25", ptr %0, i64 0, i32 2
  %18 = load ptr, ptr %17, align 8, !tbaa !125
  %19 = fpext double %1 to x86_fp80
  %20 = and i64 %13, 4294967295
  %21 = icmp ult i64 %20, 8
  br i1 %21, label %94, label %22

22:                                               ; preds = %16
  %23 = and i64 %13, 7
  %24 = sub nsw i64 %20, %23
  %25 = insertelement <2 x x86_fp80> poison, x86_fp80 %19, i64 0
  %26 = shufflevector <2 x x86_fp80> %25, <2 x x86_fp80> poison, <2 x i32> zeroinitializer
  %27 = insertelement <2 x x86_fp80> poison, x86_fp80 %19, i64 0
  %28 = shufflevector <2 x x86_fp80> %27, <2 x x86_fp80> poison, <2 x i32> zeroinitializer
  %29 = insertelement <2 x x86_fp80> poison, x86_fp80 %19, i64 0
  %30 = shufflevector <2 x x86_fp80> %29, <2 x x86_fp80> poison, <2 x i32> zeroinitializer
  %31 = insertelement <2 x x86_fp80> poison, x86_fp80 %19, i64 0
  %32 = shufflevector <2 x x86_fp80> %31, <2 x x86_fp80> poison, <2 x i32> zeroinitializer
  br label %33

33:                                               ; preds = %33, %22
  %34 = phi i64 [ 0, %22 ], [ %86, %33 ]
  %35 = phi <2 x i32> [ zeroinitializer, %22 ], [ %82, %33 ]
  %36 = phi <2 x i32> [ zeroinitializer, %22 ], [ %83, %33 ]
  %37 = phi <2 x i32> [ zeroinitializer, %22 ], [ %84, %33 ]
  %38 = phi <2 x i32> [ zeroinitializer, %22 ], [ %85, %33 ]
  %39 = or i64 %34, 1
  %40 = or i64 %34, 2
  %41 = or i64 %34, 3
  %42 = or i64 %34, 4
  %43 = or i64 %34, 5
  %44 = or i64 %34, 6
  %45 = or i64 %34, 7
  %46 = getelementptr inbounds x86_fp80, ptr %18, i64 %34
  %47 = getelementptr inbounds x86_fp80, ptr %18, i64 %39
  %48 = getelementptr inbounds x86_fp80, ptr %18, i64 %40
  %49 = getelementptr inbounds x86_fp80, ptr %18, i64 %41
  %50 = getelementptr inbounds x86_fp80, ptr %18, i64 %42
  %51 = getelementptr inbounds x86_fp80, ptr %18, i64 %43
  %52 = getelementptr inbounds x86_fp80, ptr %18, i64 %44
  %53 = getelementptr inbounds x86_fp80, ptr %18, i64 %45
  %54 = load x86_fp80, ptr %46, align 16, !tbaa !128
  %55 = load x86_fp80, ptr %47, align 16, !tbaa !128
  %56 = insertelement <2 x x86_fp80> poison, x86_fp80 %54, i64 0
  %57 = insertelement <2 x x86_fp80> %56, x86_fp80 %55, i64 1
  %58 = load x86_fp80, ptr %48, align 16, !tbaa !128
  %59 = load x86_fp80, ptr %49, align 16, !tbaa !128
  %60 = insertelement <2 x x86_fp80> poison, x86_fp80 %58, i64 0
  %61 = insertelement <2 x x86_fp80> %60, x86_fp80 %59, i64 1
  %62 = load x86_fp80, ptr %50, align 16, !tbaa !128
  %63 = load x86_fp80, ptr %51, align 16, !tbaa !128
  %64 = insertelement <2 x x86_fp80> poison, x86_fp80 %62, i64 0
  %65 = insertelement <2 x x86_fp80> %64, x86_fp80 %63, i64 1
  %66 = load x86_fp80, ptr %52, align 16, !tbaa !128
  %67 = load x86_fp80, ptr %53, align 16, !tbaa !128
  %68 = insertelement <2 x x86_fp80> poison, x86_fp80 %66, i64 0
  %69 = insertelement <2 x x86_fp80> %68, x86_fp80 %67, i64 1
  %70 = tail call <2 x x86_fp80> @llvm.fabs.v2f80(<2 x x86_fp80> %57)
  %71 = tail call <2 x x86_fp80> @llvm.fabs.v2f80(<2 x x86_fp80> %61)
  %72 = tail call <2 x x86_fp80> @llvm.fabs.v2f80(<2 x x86_fp80> %65)
  %73 = tail call <2 x x86_fp80> @llvm.fabs.v2f80(<2 x x86_fp80> %69)
  %74 = fcmp ogt <2 x x86_fp80> %70, %26
  %75 = fcmp ogt <2 x x86_fp80> %71, %28
  %76 = fcmp ogt <2 x x86_fp80> %72, %30
  %77 = fcmp ogt <2 x x86_fp80> %73, %32
  %78 = zext <2 x i1> %74 to <2 x i32>
  %79 = zext <2 x i1> %75 to <2 x i32>
  %80 = zext <2 x i1> %76 to <2 x i32>
  %81 = zext <2 x i1> %77 to <2 x i32>
  %82 = add <2 x i32> %35, %78
  %83 = add <2 x i32> %36, %79
  %84 = add <2 x i32> %37, %80
  %85 = add <2 x i32> %38, %81
  %86 = add nuw i64 %34, 8
  %87 = icmp eq i64 %86, %24
  br i1 %87, label %88, label %33, !llvm.loop !130

88:                                               ; preds = %33
  %89 = add <2 x i32> %83, %82
  %90 = add <2 x i32> %84, %89
  %91 = add <2 x i32> %85, %90
  %92 = tail call i32 @llvm.vector.reduce.add.v2i32(<2 x i32> %91)
  %93 = icmp eq i64 %23, 0
  br i1 %93, label %97, label %94

94:                                               ; preds = %16, %88
  %95 = phi i64 [ 0, %16 ], [ %24, %88 ]
  %96 = phi i32 [ 0, %16 ], [ %92, %88 ]
  br label %99

97:                                               ; preds = %99, %88, %2
  %98 = phi i32 [ 0, %2 ], [ %92, %88 ], [ %107, %99 ]
  ret i32 %98

99:                                               ; preds = %94, %99
  %100 = phi i64 [ %108, %99 ], [ %95, %94 ]
  %101 = phi i32 [ %107, %99 ], [ %96, %94 ]
  %102 = getelementptr inbounds x86_fp80, ptr %18, i64 %100
  %103 = load x86_fp80, ptr %102, align 16, !tbaa !128
  %104 = tail call x86_fp80 @llvm.fabs.f80(x86_fp80 %103)
  %105 = fcmp ogt x86_fp80 %104, %19
  %106 = zext i1 %105 to i32
  %107 = add i32 %101, %106
  %108 = add nuw nsw i64 %100, 1
  %109 = icmp eq i64 %108, %20
  br i1 %109, label %97, label %99, !llvm.loop !131
}

; Function Attrs: sspstrong uwtable
define weak_odr dso_local noundef nonnull align 8 dereferenceable(122) ptr @_ZNK6dealii12SparseMatrixIeE20get_sparsity_patternEv(ptr noundef nonnull align 8 dereferenceable(36) %0) local_unnamed_addr #0 comdat align 2 {
  %2 = getelementptr inbounds %"class.dealii::SparseMatrix.25", ptr %0, i64 0, i32 1
  %3 = load ptr, ptr %2, align 8, !tbaa !8
  ret ptr %3
}

; Function Attrs: nounwind sspstrong uwtable
define weak_odr dso_local noundef i32 @_ZNK6dealii12SparseMatrixIeE18memory_consumptionEv(ptr noundef nonnull align 8 dereferenceable(36) %0) local_unnamed_addr #6 comdat align 2 {
  %2 = getelementptr inbounds %"class.dealii::SparseMatrix.25", ptr %0, i64 0, i32 3
  %3 = load i32, ptr %2, align 8, !tbaa !127
  %4 = shl i32 %3, 4
  %5 = add i32 %4, 112
  ret i32 %5
}

; Function Attrs: inlinehint sspstrong uwtable
define weak_odr dso_local void @_ZN6dealii12SparseMatrixIeE3addEjje(ptr noundef nonnull align 8 dereferenceable(36) %0, i32 noundef %1, i32 noundef %2, x86_fp80 noundef %3) local_unnamed_addr #4 comdat align 2 {
  %5 = fcmp oeq x86_fp80 %3, 0xK00000000000000000000
  br i1 %5, label %18, label %6

6:                                                ; preds = %4
  %7 = getelementptr inbounds %"class.dealii::SparseMatrix.25", ptr %0, i64 0, i32 1
  %8 = load ptr, ptr %7, align 8, !tbaa !8
  %9 = tail call noundef i32 @_ZNK6dealii15SparsityPatternclEjj(ptr noundef nonnull align 8 dereferenceable(122) %8, i32 noundef %1, i32 noundef %2)
  %10 = icmp eq i32 %9, -1
  br i1 %10, label %18, label %11

11:                                               ; preds = %6
  %12 = getelementptr inbounds %"class.dealii::SparseMatrix.25", ptr %0, i64 0, i32 2
  %13 = load ptr, ptr %12, align 8, !tbaa !125
  %14 = zext i32 %9 to i64
  %15 = getelementptr inbounds x86_fp80, ptr %13, i64 %14
  %16 = load x86_fp80, ptr %15, align 16, !tbaa !128
  %17 = fadd x86_fp80 %16, %3
  store x86_fp80 %17, ptr %15, align 16, !tbaa !128
  br label %18

18:                                               ; preds = %11, %6, %4
  ret void
}

; Function Attrs: inlinehint sspstrong uwtable
define weak_odr dso_local noundef nonnull align 8 dereferenceable(36) ptr @_ZN6dealii12SparseMatrixIeEmLEe(ptr noundef nonnull align 8 dereferenceable(36) %0, x86_fp80 noundef %1) local_unnamed_addr #4 comdat align 2 {
  %3 = getelementptr inbounds %"class.dealii::SparseMatrix.25", ptr %0, i64 0, i32 2
  %4 = load ptr, ptr %3, align 8, !tbaa !125
  %5 = getelementptr inbounds %"class.dealii::SparseMatrix.25", ptr %0, i64 0, i32 1
  %6 = load ptr, ptr %5, align 8, !tbaa !8
  %7 = getelementptr inbounds %"class.dealii::SparsityPattern", ptr %6, i64 0, i32 8
  %8 = load ptr, ptr %7, align 8, !tbaa !32
  %9 = getelementptr inbounds %"class.dealii::SparsityPattern", ptr %6, i64 0, i32 2
  %10 = load i32, ptr %9, align 4, !tbaa !33
  %11 = zext i32 %10 to i64
  %12 = getelementptr inbounds i64, ptr %8, i64 %11
  %13 = load i64, ptr %12, align 8, !tbaa !34
  %14 = load i64, ptr %8, align 8, !tbaa !34
  %15 = sub i64 %13, %14
  %16 = and i64 %15, 4294967295
  %17 = getelementptr inbounds x86_fp80, ptr %4, i64 %16
  %18 = icmp eq i64 %16, 0
  br i1 %18, label %25, label %19

19:                                               ; preds = %2, %19
  %20 = phi ptr [ %21, %19 ], [ %4, %2 ]
  %21 = getelementptr inbounds x86_fp80, ptr %20, i64 1
  %22 = load x86_fp80, ptr %20, align 16, !tbaa !128
  %23 = fmul x86_fp80 %22, %1
  store x86_fp80 %23, ptr %20, align 16, !tbaa !128
  %24 = icmp eq ptr %21, %17
  br i1 %24, label %25, label %19

25:                                               ; preds = %19, %2
  ret ptr %0
}

; Function Attrs: inlinehint sspstrong uwtable
define weak_odr dso_local noundef nonnull align 8 dereferenceable(36) ptr @_ZN6dealii12SparseMatrixIeEdVEe(ptr noundef nonnull align 8 dereferenceable(36) %0, x86_fp80 noundef %1) local_unnamed_addr #4 comdat align 2 {
  %3 = fdiv x86_fp80 0xK3FFF8000000000000000, %1
  %4 = getelementptr inbounds %"class.dealii::SparseMatrix.25", ptr %0, i64 0, i32 2
  %5 = load ptr, ptr %4, align 8, !tbaa !125
  %6 = getelementptr inbounds %"class.dealii::SparseMatrix.25", ptr %0, i64 0, i32 1
  %7 = load ptr, ptr %6, align 8, !tbaa !8
  %8 = getelementptr inbounds %"class.dealii::SparsityPattern", ptr %7, i64 0, i32 8
  %9 = load ptr, ptr %8, align 8, !tbaa !32
  %10 = getelementptr inbounds %"class.dealii::SparsityPattern", ptr %7, i64 0, i32 2
  %11 = load i32, ptr %10, align 4, !tbaa !33
  %12 = zext i32 %11 to i64
  %13 = getelementptr inbounds i64, ptr %9, i64 %12
  %14 = load i64, ptr %13, align 8, !tbaa !34
  %15 = load i64, ptr %9, align 8, !tbaa !34
  %16 = sub i64 %14, %15
  %17 = and i64 %16, 4294967295
  %18 = getelementptr inbounds x86_fp80, ptr %5, i64 %17
  %19 = icmp eq i64 %17, 0
  br i1 %19, label %26, label %20

20:                                               ; preds = %2, %20
  %21 = phi ptr [ %22, %20 ], [ %5, %2 ]
  %22 = getelementptr inbounds x86_fp80, ptr %21, i64 1
  %23 = load x86_fp80, ptr %21, align 16, !tbaa !128
  %24 = fmul x86_fp80 %3, %23
  store x86_fp80 %24, ptr %21, align 16, !tbaa !128
  %25 = icmp eq ptr %22, %18
  br i1 %25, label %26, label %20

26:                                               ; preds = %20, %2
  ret ptr %0
}

; Function Attrs: sspstrong uwtable
define weak_odr dso_local void @_ZN6dealii12SparseMatrixIeE10symmetrizeEv(ptr noundef nonnull align 8 dereferenceable(36) %0) local_unnamed_addr #0 comdat align 2 {
  %2 = getelementptr inbounds %"class.dealii::SparseMatrix.25", ptr %0, i64 0, i32 1
  %3 = load ptr, ptr %2, align 8, !tbaa !8
  %4 = getelementptr inbounds %"class.dealii::SparsityPattern", ptr %3, i64 0, i32 2
  %5 = load i32, ptr %4, align 4, !tbaa !33
  %6 = icmp eq i32 %5, 0
  br i1 %6, label %10, label %7

7:                                                ; preds = %1
  %8 = getelementptr inbounds %"class.dealii::SparseMatrix.25", ptr %0, i64 0, i32 2
  %9 = zext i32 %5 to i64
  br label %11

10:                                               ; preds = %63, %1
  ret void

11:                                               ; preds = %7, %63
  %12 = phi i64 [ 0, %7 ], [ %24, %63 ]
  %13 = load ptr, ptr %8, align 8, !tbaa !125
  %14 = load ptr, ptr %2, align 8, !tbaa !8
  %15 = getelementptr inbounds %"class.dealii::SparsityPattern", ptr %14, i64 0, i32 8
  %16 = load ptr, ptr %15, align 8, !tbaa !32
  %17 = getelementptr inbounds i64, ptr %16, i64 %12
  %18 = load i64, ptr %17, align 8, !tbaa !34
  %19 = getelementptr inbounds x86_fp80, ptr %13, i64 %18
  %20 = getelementptr inbounds %"class.dealii::SparsityPattern", ptr %14, i64 0, i32 11
  %21 = load i8, ptr %20, align 1, !tbaa !43, !range !44, !noundef !45
  %22 = zext i8 %21 to i64
  %23 = getelementptr inbounds x86_fp80, ptr %19, i64 %22
  %24 = add nuw nsw i64 %12, 1
  %25 = getelementptr inbounds i64, ptr %16, i64 %24
  %26 = load i64, ptr %25, align 8, !tbaa !34
  %27 = getelementptr inbounds x86_fp80, ptr %13, i64 %26
  %28 = icmp eq ptr %23, %27
  br i1 %28, label %63, label %29

29:                                               ; preds = %11
  %30 = getelementptr inbounds %"class.dealii::SparsityPattern", ptr %14, i64 0, i32 9
  %31 = load ptr, ptr %30, align 8, !tbaa !46
  %32 = add i64 %18, 1
  %33 = getelementptr inbounds i32, ptr %31, i64 %32
  %34 = trunc i64 %12 to i32
  br label %35

35:                                               ; preds = %29, %59
  %36 = phi ptr [ %60, %59 ], [ %23, %29 ]
  %37 = phi ptr [ %61, %59 ], [ %33, %29 ]
  %38 = load i32, ptr %37, align 4, !tbaa !47
  %39 = zext i32 %38 to i64
  %40 = icmp ugt i64 %12, %39
  br i1 %40, label %41, label %63

41:                                               ; preds = %35
  %42 = load x86_fp80, ptr %36, align 16, !tbaa !128
  %43 = load ptr, ptr %8, align 8, !tbaa !125
  %44 = load ptr, ptr %2, align 8, !tbaa !8
  %45 = tail call noundef i32 @_ZNK6dealii15SparsityPatternclEjj(ptr noundef nonnull align 8 dereferenceable(122) %44, i32 noundef %38, i32 noundef %34)
  %46 = zext i32 %45 to i64
  %47 = getelementptr inbounds x86_fp80, ptr %43, i64 %46
  %48 = load x86_fp80, ptr %47, align 16, !tbaa !128
  %49 = fadd x86_fp80 %42, %48
  %50 = fmul x86_fp80 %49, 0xK3FFE8000000000000000
  store x86_fp80 %50, ptr %36, align 16, !tbaa !128
  %51 = load i32, ptr %37, align 4, !tbaa !47
  %52 = load ptr, ptr %2, align 8, !tbaa !8
  %53 = tail call noundef i32 @_ZNK6dealii15SparsityPatternclEjj(ptr noundef nonnull align 8 dereferenceable(122) %52, i32 noundef %51, i32 noundef %34)
  %54 = icmp eq i32 %53, -1
  br i1 %54, label %59, label %55

55:                                               ; preds = %41
  %56 = load ptr, ptr %8, align 8, !tbaa !125
  %57 = zext i32 %53 to i64
  %58 = getelementptr inbounds x86_fp80, ptr %56, i64 %57
  store x86_fp80 %50, ptr %58, align 16, !tbaa !128
  br label %59

59:                                               ; preds = %41, %55
  %60 = getelementptr inbounds x86_fp80, ptr %36, i64 1
  %61 = getelementptr inbounds i32, ptr %37, i64 1
  %62 = icmp eq ptr %60, %27
  br i1 %62, label %63, label %35

63:                                               ; preds = %35, %59, %11
  %64 = icmp eq i64 %24, %9
  br i1 %64, label %10, label %11
}

; Function Attrs: inlinehint sspstrong uwtable
define weak_odr dso_local noundef x86_fp80 @_ZNK6dealii12SparseMatrixIeEclEjj(ptr noundef nonnull align 8 dereferenceable(36) %0, i32 noundef %1, i32 noundef %2) local_unnamed_addr #4 comdat align 2 personality ptr @__gxx_personality_v0 {
  %4 = alloca %"class.dealii::SparseMatrix<long double>::ExcInvalidIndex", align 8
  %5 = getelementptr inbounds %"class.dealii::SparseMatrix.25", ptr %0, i64 0, i32 1
  %6 = load ptr, ptr %5, align 8, !tbaa !8
  %7 = tail call noundef i32 @_ZNK6dealii15SparsityPatternclEjj(ptr noundef nonnull align 8 dereferenceable(122) %6, i32 noundef %1, i32 noundef %2)
  %8 = icmp eq i32 %7, -1
  br i1 %8, label %9, label %24

9:                                                ; preds = %3
  call void @_ZN6dealii13ExceptionBaseC2Ev(ptr noundef nonnull align 8 dereferenceable(60) %4)
  store ptr getelementptr inbounds ({ [6 x ptr] }, ptr @_ZTVN6dealii12SparseMatrixIeE15ExcInvalidIndexE, i64 0, inrange i32 0, i64 2), ptr %4, align 8, !tbaa !5
  %10 = getelementptr inbounds %"class.dealii::SparseMatrix<long double>::ExcInvalidIndex", ptr %4, i64 0, i32 1
  store i32 %1, ptr %10, align 4, !tbaa !132
  %11 = getelementptr inbounds %"class.dealii::SparseMatrix<long double>::ExcInvalidIndex", ptr %4, i64 0, i32 2
  store i32 %2, ptr %11, align 8, !tbaa !134
  invoke void @_ZN6dealii13ExceptionBase10set_fieldsEPKciS2_S2_S2_(ptr noundef nonnull align 8 dereferenceable(60) %4, ptr noundef nonnull @.str.9, i32 noundef 2270, ptr noundef nonnull @.str.10, ptr noundef nonnull @.str.11, ptr noundef nonnull @.str.12)
          to label %12 unwind label %20

12:                                               ; preds = %9
  %13 = call ptr @__cxa_allocate_exception(i64 72) #17
  invoke void @_ZN6dealii13ExceptionBaseC2ERKS0_(ptr noundef nonnull align 8 dereferenceable(60) %13, ptr noundef nonnull align 8 dereferenceable(60) %4)
          to label %14 unwind label %18

14:                                               ; preds = %12
  store ptr getelementptr inbounds ({ [6 x ptr] }, ptr @_ZTVN6dealii12SparseMatrixIeE15ExcInvalidIndexE, i64 0, inrange i32 0, i64 2), ptr %13, align 8, !tbaa !5
  %15 = getelementptr inbounds %"class.dealii::SparseMatrix<long double>::ExcInvalidIndex", ptr %13, i64 0, i32 1
  %16 = load i64, ptr %10, align 4
  store i64 %16, ptr %15, align 4
  invoke void @__cxa_throw(ptr nonnull %13, ptr nonnull @_ZTIN6dealii12SparseMatrixIeE15ExcInvalidIndexE, ptr nonnull @_ZN6dealii12SparseMatrixIeE15ExcInvalidIndexD2Ev) #21
          to label %17 unwind label %20

17:                                               ; preds = %14
  unreachable

18:                                               ; preds = %12
  %19 = landingpad { ptr, i32 }
          cleanup
  call void @__cxa_free_exception(ptr %13) #17
  br label %22

20:                                               ; preds = %14, %9
  %21 = landingpad { ptr, i32 }
          cleanup
  br label %22

22:                                               ; preds = %18, %20
  %23 = phi { ptr, i32 } [ %21, %20 ], [ %19, %18 ]
  call void @_ZN6dealii13ExceptionBaseD2Ev(ptr noundef nonnull align 8 dereferenceable(60) %4) #17
  resume { ptr, i32 } %23

24:                                               ; preds = %3
  %25 = getelementptr inbounds %"class.dealii::SparseMatrix.25", ptr %0, i64 0, i32 2
  %26 = load ptr, ptr %25, align 8, !tbaa !125
  %27 = load ptr, ptr %5, align 8, !tbaa !8
  %28 = tail call noundef i32 @_ZNK6dealii15SparsityPatternclEjj(ptr noundef nonnull align 8 dereferenceable(122) %27, i32 noundef %1, i32 noundef %2)
  %29 = zext i32 %28 to i64
  %30 = getelementptr inbounds x86_fp80, ptr %26, i64 %29
  %31 = load x86_fp80, ptr %30, align 16, !tbaa !128
  ret x86_fp80 %31
}

; Function Attrs: inlinehint sspstrong uwtable
define weak_odr dso_local noundef x86_fp80 @_ZNK6dealii12SparseMatrixIeE2elEjj(ptr noundef nonnull align 8 dereferenceable(36) %0, i32 noundef %1, i32 noundef %2) local_unnamed_addr #4 comdat align 2 {
  %4 = getelementptr inbounds %"class.dealii::SparseMatrix.25", ptr %0, i64 0, i32 1
  %5 = load ptr, ptr %4, align 8, !tbaa !8
  %6 = tail call noundef i32 @_ZNK6dealii15SparsityPatternclEjj(ptr noundef nonnull align 8 dereferenceable(122) %5, i32 noundef %1, i32 noundef %2)
  %7 = icmp eq i32 %6, -1
  br i1 %7, label %14, label %8

8:                                                ; preds = %3
  %9 = getelementptr inbounds %"class.dealii::SparseMatrix.25", ptr %0, i64 0, i32 2
  %10 = load ptr, ptr %9, align 8, !tbaa !125
  %11 = zext i32 %6 to i64
  %12 = getelementptr inbounds x86_fp80, ptr %10, i64 %11
  %13 = load x86_fp80, ptr %12, align 16, !tbaa !128
  br label %14

14:                                               ; preds = %3, %8
  %15 = phi x86_fp80 [ %13, %8 ], [ 0xK00000000000000000000, %3 ]
  ret x86_fp80 %15
}

; Function Attrs: inlinehint sspstrong uwtable
define weak_odr dso_local noundef x86_fp80 @_ZNK6dealii12SparseMatrixIeE12diag_elementEj(ptr noundef nonnull align 8 dereferenceable(36) %0, i32 noundef %1) local_unnamed_addr #4 comdat align 2 {
  %3 = getelementptr inbounds %"class.dealii::SparseMatrix.25", ptr %0, i64 0, i32 2
  %4 = load ptr, ptr %3, align 8, !tbaa !125
  %5 = getelementptr inbounds %"class.dealii::SparseMatrix.25", ptr %0, i64 0, i32 1
  %6 = load ptr, ptr %5, align 8, !tbaa !8
  %7 = getelementptr inbounds %"class.dealii::SparsityPattern", ptr %6, i64 0, i32 8
  %8 = load ptr, ptr %7, align 8, !tbaa !32
  %9 = zext i32 %1 to i64
  %10 = getelementptr inbounds i64, ptr %8, i64 %9
  %11 = load i64, ptr %10, align 8, !tbaa !34
  %12 = getelementptr inbounds x86_fp80, ptr %4, i64 %11
  %13 = load x86_fp80, ptr %12, align 16, !tbaa !128
  ret x86_fp80 %13
}

; Function Attrs: inlinehint sspstrong uwtable
define weak_odr dso_local noundef nonnull align 16 dereferenceable(16) ptr @_ZN6dealii12SparseMatrixIeE12diag_elementEj(ptr noundef nonnull align 8 dereferenceable(36) %0, i32 noundef %1) local_unnamed_addr #4 comdat align 2 {
  %3 = getelementptr inbounds %"class.dealii::SparseMatrix.25", ptr %0, i64 0, i32 2
  %4 = load ptr, ptr %3, align 8, !tbaa !125
  %5 = getelementptr inbounds %"class.dealii::SparseMatrix.25", ptr %0, i64 0, i32 1
  %6 = load ptr, ptr %5, align 8, !tbaa !8
  %7 = getelementptr inbounds %"class.dealii::SparsityPattern", ptr %6, i64 0, i32 8
  %8 = load ptr, ptr %7, align 8, !tbaa !32
  %9 = zext i32 %1 to i64
  %10 = getelementptr inbounds i64, ptr %8, i64 %9
  %11 = load i64, ptr %10, align 8, !tbaa !34
  %12 = getelementptr inbounds x86_fp80, ptr %4, i64 %11
  ret ptr %12
}

; Function Attrs: inlinehint sspstrong uwtable
define weak_odr dso_local noundef x86_fp80 @_ZNK6dealii12SparseMatrixIeE9raw_entryEjj(ptr noundef nonnull align 8 dereferenceable(36) %0, i32 noundef %1, i32 noundef %2) local_unnamed_addr #4 comdat align 2 {
  %4 = getelementptr inbounds %"class.dealii::SparseMatrix.25", ptr %0, i64 0, i32 2
  %5 = load ptr, ptr %4, align 8, !tbaa !125
  %6 = getelementptr inbounds %"class.dealii::SparseMatrix.25", ptr %0, i64 0, i32 1
  %7 = load ptr, ptr %6, align 8, !tbaa !8
  %8 = getelementptr inbounds %"class.dealii::SparsityPattern", ptr %7, i64 0, i32 8
  %9 = load ptr, ptr %8, align 8, !tbaa !32
  %10 = zext i32 %1 to i64
  %11 = getelementptr inbounds i64, ptr %9, i64 %10
  %12 = load i64, ptr %11, align 8, !tbaa !34
  %13 = zext i32 %2 to i64
  %14 = add i64 %12, %13
  %15 = getelementptr inbounds x86_fp80, ptr %5, i64 %14
  %16 = load x86_fp80, ptr %15, align 16, !tbaa !128
  ret x86_fp80 %16
}

; Function Attrs: inlinehint nounwind sspstrong uwtable
define weak_odr dso_local noundef x86_fp80 @_ZNK6dealii12SparseMatrixIeE12global_entryEj(ptr noundef nonnull align 8 dereferenceable(36) %0, i32 noundef %1) local_unnamed_addr #9 comdat align 2 {
  %3 = getelementptr inbounds %"class.dealii::SparseMatrix.25", ptr %0, i64 0, i32 2
  %4 = load ptr, ptr %3, align 8, !tbaa !125
  %5 = zext i32 %1 to i64
  %6 = getelementptr inbounds x86_fp80, ptr %4, i64 %5
  %7 = load x86_fp80, ptr %6, align 16, !tbaa !128
  ret x86_fp80 %7
}

; Function Attrs: inlinehint nounwind sspstrong uwtable
define weak_odr dso_local noundef nonnull align 16 dereferenceable(16) ptr @_ZN6dealii12SparseMatrixIeE12global_entryEj(ptr noundef nonnull align 8 dereferenceable(36) %0, i32 noundef %1) local_unnamed_addr #9 comdat align 2 {
  %3 = getelementptr inbounds %"class.dealii::SparseMatrix.25", ptr %0, i64 0, i32 2
  %4 = load ptr, ptr %3, align 8, !tbaa !125
  %5 = zext i32 %1 to i64
  %6 = getelementptr inbounds x86_fp80, ptr %4, i64 %5
  ret ptr %6
}

; Function Attrs: sspstrong uwtable
define weak_odr dso_local noundef x86_fp80 @_ZNK6dealii12SparseMatrixIeE7l1_normEv(ptr noundef nonnull align 8 dereferenceable(36) %0) local_unnamed_addr #0 comdat align 2 personality ptr @__gxx_personality_v0 {
  %2 = alloca %"class.dealii::Vector.27", align 8
  call void @llvm.lifetime.start.p0(i64 88, ptr nonnull %2) #17
  %3 = getelementptr inbounds %"class.dealii::SparseMatrix.25", ptr %0, i64 0, i32 1
  %4 = load ptr, ptr %3, align 8, !tbaa !8
  %5 = getelementptr inbounds %"class.dealii::SparsityPattern", ptr %4, i64 0, i32 3
  %6 = load i32, ptr %5, align 8, !tbaa !17
  call void @_ZN6dealii11SubscriptorC2Ev(ptr noundef nonnull align 8 dereferenceable(72) %2)
  store ptr getelementptr inbounds ({ [6 x ptr] }, ptr @_ZTVN6dealii6VectorIeEE, i64 0, inrange i32 0, i64 2), ptr %2, align 8, !tbaa !5
  %7 = getelementptr inbounds %"class.dealii::Vector.27", ptr %2, i64 0, i32 1
  call void @llvm.memset.p0.i64(ptr noundef nonnull align 8 dereferenceable(16) %7, i8 0, i64 16, i1 false)
  %8 = icmp eq i32 %6, 0
  br i1 %8, label %28, label %9

9:                                                ; preds = %1
  %10 = zext i32 %6 to i64
  %11 = shl nuw nsw i64 %10, 4
  %12 = invoke noalias noundef nonnull ptr @_Znam(i64 noundef %11) #20
          to label %13 unwind label %21

13:                                               ; preds = %9
  %14 = getelementptr inbounds %"class.dealii::Vector.27", ptr %2, i64 0, i32 3
  %15 = getelementptr inbounds %"class.dealii::Vector.27", ptr %2, i64 0, i32 2
  store ptr %12, ptr %14, align 8, !tbaa !135
  store i32 %6, ptr %15, align 4, !tbaa !137
  store i32 %6, ptr %7, align 8, !tbaa !138
  %16 = getelementptr inbounds x86_fp80, ptr %12, i64 %10
  br label %17

17:                                               ; preds = %17, %13
  %18 = phi ptr [ %19, %17 ], [ %12, %13 ]
  store x86_fp80 0xK00000000000000000000, ptr %18, align 16, !tbaa !128
  %19 = getelementptr inbounds x86_fp80, ptr %18, i64 1
  %20 = icmp eq ptr %19, %16
  br i1 %20, label %28, label %17

21:                                               ; preds = %9
  %22 = landingpad { ptr, i32 }
          cleanup
  invoke void @_ZN6dealii11SubscriptorD2Ev(ptr noundef nonnull align 8 dereferenceable(72) %2)
          to label %23 unwind label %25

23:                                               ; preds = %21, %80
  %24 = phi { ptr, i32 } [ %47, %80 ], [ %22, %21 ]
  resume { ptr, i32 } %24

25:                                               ; preds = %21
  %26 = landingpad { ptr, i32 }
          catch ptr null
  %27 = extractvalue { ptr, i32 } %26, 0
  call void @__clang_call_terminate(ptr %27) #18
  unreachable

28:                                               ; preds = %17, %1
  %29 = phi ptr [ null, %1 ], [ %12, %17 ]
  %30 = load ptr, ptr %3, align 8, !tbaa !8
  %31 = getelementptr inbounds %"class.dealii::SparsityPattern", ptr %30, i64 0, i32 2
  %32 = load i32, ptr %31, align 4, !tbaa !33
  %33 = icmp eq i32 %32, 0
  br i1 %33, label %44, label %34

34:                                               ; preds = %28
  %35 = getelementptr inbounds %"class.dealii::SparsityPattern", ptr %30, i64 0, i32 8
  %36 = load ptr, ptr %35, align 8, !tbaa !32
  %37 = getelementptr inbounds %"class.dealii::SparseMatrix.25", ptr %0, i64 0, i32 2
  %38 = load ptr, ptr %37, align 8
  %39 = getelementptr inbounds %"class.dealii::SparsityPattern", ptr %30, i64 0, i32 9
  %40 = zext i32 %32 to i64
  %41 = load i64, ptr %36, align 8, !tbaa !34
  br label %48

42:                                               ; preds = %59, %48
  %43 = icmp eq i64 %51, %40
  br i1 %43, label %44, label %48

44:                                               ; preds = %42, %28
  %45 = invoke noundef x86_fp80 @_ZNK6dealii6VectorIeE11linfty_normEv(ptr noundef nonnull align 8 dereferenceable(88) %2)
          to label %74 unwind label %46

46:                                               ; preds = %44
  %47 = landingpad { ptr, i32 }
          cleanup
  invoke void @_ZN6dealii6VectorIeED2Ev(ptr noundef nonnull align 8 dereferenceable(88) %2)
          to label %80 unwind label %81

48:                                               ; preds = %34, %42
  %49 = phi i64 [ %41, %34 ], [ %53, %42 ]
  %50 = phi i64 [ 0, %34 ], [ %51, %42 ]
  %51 = add nuw nsw i64 %50, 1
  %52 = getelementptr inbounds i64, ptr %36, i64 %51
  %53 = load i64, ptr %52, align 8, !tbaa !34
  %54 = and i64 %49, 4294967295
  %55 = icmp ugt i64 %53, %54
  br i1 %55, label %56, label %42

56:                                               ; preds = %48
  %57 = trunc i64 %49 to i32
  %58 = load ptr, ptr %39, align 8, !tbaa !46
  br label %59

59:                                               ; preds = %56, %59
  %60 = phi i64 [ %54, %56 ], [ %72, %59 ]
  %61 = phi i32 [ %57, %56 ], [ %71, %59 ]
  %62 = getelementptr inbounds x86_fp80, ptr %38, i64 %60
  %63 = load x86_fp80, ptr %62, align 16, !tbaa !128
  %64 = call x86_fp80 @llvm.fabs.f80(x86_fp80 %63)
  %65 = getelementptr inbounds i32, ptr %58, i64 %60
  %66 = load i32, ptr %65, align 4, !tbaa !47
  %67 = zext i32 %66 to i64
  %68 = getelementptr inbounds x86_fp80, ptr %29, i64 %67
  %69 = load x86_fp80, ptr %68, align 16, !tbaa !128
  %70 = fadd x86_fp80 %64, %69
  store x86_fp80 %70, ptr %68, align 16, !tbaa !128
  %71 = add i32 %61, 1
  %72 = zext i32 %71 to i64
  %73 = icmp ugt i64 %53, %72
  br i1 %73, label %59, label %42

74:                                               ; preds = %44
  store ptr getelementptr inbounds ({ [6 x ptr] }, ptr @_ZTVN6dealii6VectorIeEE, i64 0, inrange i32 0, i64 2), ptr %2, align 8, !tbaa !5
  %75 = getelementptr inbounds %"class.dealii::Vector.27", ptr %2, i64 0, i32 3
  %76 = load ptr, ptr %75, align 8, !tbaa !135
  %77 = icmp eq ptr %76, null
  br i1 %77, label %79, label %78

78:                                               ; preds = %74
  call void @_ZdaPv(ptr noundef nonnull %76) #19
  store ptr null, ptr %75, align 8, !tbaa !135
  br label %79

79:                                               ; preds = %74, %78
  call void @_ZN6dealii11SubscriptorD2Ev(ptr noundef nonnull align 8 dereferenceable(72) %2)
  call void @llvm.lifetime.end.p0(i64 88, ptr nonnull %2) #17
  ret x86_fp80 %45

80:                                               ; preds = %46
  call void @llvm.lifetime.end.p0(i64 88, ptr nonnull %2) #17
  br label %23

81:                                               ; preds = %46
  %82 = landingpad { ptr, i32 }
          catch ptr null
  %83 = extractvalue { ptr, i32 } %82, 0
  call void @__clang_call_terminate(ptr %83) #18
  unreachable
}

declare noundef x86_fp80 @_ZNK6dealii6VectorIeE11linfty_normEv(ptr noundef nonnull align 8 dereferenceable(88)) local_unnamed_addr #1

; Function Attrs: inlinehint sspstrong uwtable
define linkonce_odr dso_local void @_ZN6dealii6VectorIeED2Ev(ptr noundef nonnull align 8 dereferenceable(88) %0) unnamed_addr #4 comdat align 2 {
  store ptr getelementptr inbounds ({ [6 x ptr] }, ptr @_ZTVN6dealii6VectorIeEE, i64 0, inrange i32 0, i64 2), ptr %0, align 8, !tbaa !5
  %2 = getelementptr inbounds %"class.dealii::Vector.27", ptr %0, i64 0, i32 3
  %3 = load ptr, ptr %2, align 8, !tbaa !135
  %4 = icmp eq ptr %3, null
  br i1 %4, label %6, label %5

5:                                                ; preds = %1
  tail call void @_ZdaPv(ptr noundef nonnull %3) #19
  store ptr null, ptr %2, align 8, !tbaa !135
  br label %6

6:                                                ; preds = %5, %1
  tail call void @_ZN6dealii11SubscriptorD2Ev(ptr noundef nonnull align 8 dereferenceable(72) %0)
  ret void
}

; Function Attrs: sspstrong uwtable
define weak_odr dso_local noundef x86_fp80 @_ZNK6dealii12SparseMatrixIeE11linfty_normEv(ptr noundef nonnull align 8 dereferenceable(36) %0) local_unnamed_addr #0 comdat align 2 {
  %2 = getelementptr inbounds %"class.dealii::SparseMatrix.25", ptr %0, i64 0, i32 2
  %3 = load ptr, ptr %2, align 8, !tbaa !125
  %4 = getelementptr inbounds %"class.dealii::SparseMatrix.25", ptr %0, i64 0, i32 1
  %5 = load ptr, ptr %4, align 8, !tbaa !8
  %6 = getelementptr inbounds %"class.dealii::SparsityPattern", ptr %5, i64 0, i32 8
  %7 = load ptr, ptr %6, align 8, !tbaa !32
  %8 = getelementptr inbounds %"class.dealii::SparsityPattern", ptr %5, i64 0, i32 2
  %9 = load i32, ptr %8, align 4, !tbaa !33
  %10 = icmp eq i32 %9, 0
  br i1 %10, label %15, label %11

11:                                               ; preds = %1
  %12 = load i64, ptr %7, align 8, !tbaa !34
  %13 = getelementptr inbounds x86_fp80, ptr %3, i64 %12
  %14 = zext i32 %9 to i64
  br label %17

15:                                               ; preds = %34, %1
  %16 = phi x86_fp80 [ 0xK00000000000000000000, %1 ], [ %38, %34 ]
  ret x86_fp80 %16

17:                                               ; preds = %11, %34
  %18 = phi i64 [ 0, %11 ], [ %21, %34 ]
  %19 = phi ptr [ %13, %11 ], [ %36, %34 ]
  %20 = phi x86_fp80 [ 0xK00000000000000000000, %11 ], [ %38, %34 ]
  %21 = add nuw nsw i64 %18, 1
  %22 = getelementptr inbounds i64, ptr %7, i64 %21
  %23 = load i64, ptr %22, align 8, !tbaa !34
  %24 = getelementptr inbounds x86_fp80, ptr %3, i64 %23
  %25 = icmp eq ptr %19, %24
  br i1 %25, label %34, label %26

26:                                               ; preds = %17, %26
  %27 = phi ptr [ %29, %26 ], [ %19, %17 ]
  %28 = phi x86_fp80 [ %32, %26 ], [ 0xK00000000000000000000, %17 ]
  %29 = getelementptr inbounds x86_fp80, ptr %27, i64 1
  %30 = load x86_fp80, ptr %27, align 16, !tbaa !128
  %31 = tail call x86_fp80 @llvm.fabs.f80(x86_fp80 %30)
  %32 = fadd x86_fp80 %28, %31
  %33 = icmp eq ptr %29, %24
  br i1 %33, label %34, label %26

34:                                               ; preds = %26, %17
  %35 = phi x86_fp80 [ 0xK00000000000000000000, %17 ], [ %32, %26 ]
  %36 = phi ptr [ %19, %17 ], [ %24, %26 ]
  %37 = fcmp ogt x86_fp80 %35, %20
  %38 = select i1 %37, x86_fp80 %35, x86_fp80 %20
  %39 = icmp eq i64 %21, %14
  br i1 %39, label %15, label %17
}

; Function Attrs: sspstrong uwtable
define weak_odr dso_local noundef x86_fp80 @_ZNK6dealii12SparseMatrixIeE14frobenius_normEv(ptr noundef nonnull align 8 dereferenceable(36) %0) local_unnamed_addr #0 comdat align 2 {
  %2 = getelementptr inbounds %"class.dealii::SparseMatrix.25", ptr %0, i64 0, i32 1
  %3 = load ptr, ptr %2, align 8, !tbaa !8
  %4 = getelementptr inbounds %"class.dealii::SparsityPattern", ptr %3, i64 0, i32 2
  %5 = load i32, ptr %4, align 4, !tbaa !33
  %6 = getelementptr inbounds %"class.dealii::SparseMatrix.25", ptr %0, i64 0, i32 2
  %7 = load ptr, ptr %6, align 8, !tbaa !125
  %8 = getelementptr inbounds %"class.dealii::SparsityPattern", ptr %3, i64 0, i32 8
  %9 = load ptr, ptr %8, align 8, !tbaa !32
  %10 = zext i32 %5 to i64
  %11 = getelementptr inbounds i64, ptr %9, i64 %10
  %12 = load i64, ptr %11, align 8, !tbaa !34
  %13 = getelementptr inbounds x86_fp80, ptr %7, i64 %12
  %14 = icmp eq i64 %12, 0
  br i1 %14, label %15, label %18

15:                                               ; preds = %18, %1
  %16 = phi x86_fp80 [ 0xK00000000000000000000, %1 ], [ %23, %18 ]
  %17 = tail call x86_fp80 @sqrtl(x86_fp80 noundef %16) #17
  ret x86_fp80 %17

18:                                               ; preds = %1, %18
  %19 = phi ptr [ %24, %18 ], [ %7, %1 ]
  %20 = phi x86_fp80 [ %23, %18 ], [ 0xK00000000000000000000, %1 ]
  %21 = load x86_fp80, ptr %19, align 16, !tbaa !128
  %22 = fmul x86_fp80 %21, %21
  %23 = fadd x86_fp80 %20, %22
  %24 = getelementptr inbounds x86_fp80, ptr %19, i64 1
  %25 = icmp eq ptr %24, %13
  br i1 %25, label %15, label %18
}

; Function Attrs: inlinehint sspstrong uwtable
define weak_odr dso_local void @_ZNK6dealii12SparseMatrixIeE5beginEv(ptr noalias sret(%"class.dealii::internals::SparseMatrixIterators::Iterator.28") align 8 %0, ptr noundef nonnull align 8 dereferenceable(36) %1) local_unnamed_addr #4 comdat align 2 {
  %3 = getelementptr inbounds %"class.dealii::SparseMatrix.25", ptr %1, i64 0, i32 1
  %4 = load ptr, ptr %3, align 8, !tbaa !8
  %5 = getelementptr inbounds %"class.dealii::SparsityPattern", ptr %4, i64 0, i32 2
  %6 = load i32, ptr %5, align 4, !tbaa !33
  %7 = getelementptr inbounds %"class.dealii::SparsityPattern", ptr %4, i64 0, i32 8
  %8 = zext i32 %6 to i64
  br label %9

9:                                                ; preds = %12, %2
  %10 = phi i64 [ %14, %12 ], [ 0, %2 ]
  %11 = icmp eq i64 %10, %8
  br i1 %11, label %24, label %12

12:                                               ; preds = %9
  %13 = load ptr, ptr %7, align 8, !tbaa !32
  %14 = add nuw nsw i64 %10, 1
  %15 = getelementptr inbounds i64, ptr %13, i64 %14
  %16 = load i64, ptr %15, align 8, !tbaa !34
  %17 = getelementptr inbounds i64, ptr %13, i64 %10
  %18 = load i64, ptr %17, align 8, !tbaa !34
  %19 = sub i64 %16, %18
  %20 = and i64 %19, 4294967295
  %21 = icmp eq i64 %20, 0
  br i1 %21, label %9, label %22

22:                                               ; preds = %12
  %23 = trunc i64 %10 to i32
  br label %24

24:                                               ; preds = %9, %22
  %25 = phi i32 [ %23, %22 ], [ %6, %9 ]
  store ptr %4, ptr %0, align 8, !tbaa !57
  %26 = getelementptr inbounds %"class.dealii::internals::SparsityPatternIterators::Accessor", ptr %0, i64 0, i32 1
  store i32 %25, ptr %26, align 8, !tbaa !59
  %27 = getelementptr inbounds %"class.dealii::internals::SparsityPatternIterators::Accessor", ptr %0, i64 0, i32 2
  store i32 0, ptr %27, align 4, !tbaa !60
  %28 = getelementptr inbounds %"class.dealii::internals::SparseMatrixIterators::Accessor.29", ptr %0, i64 0, i32 1
  store ptr %1, ptr %28, align 8, !tbaa !139
  ret void
}

; Function Attrs: inlinehint sspstrong uwtable
define weak_odr dso_local void @_ZNK6dealii12SparseMatrixIeE3endEv(ptr noalias sret(%"class.dealii::internals::SparseMatrixIterators::Iterator.28") align 8 %0, ptr noundef nonnull align 8 dereferenceable(36) %1) local_unnamed_addr #4 comdat align 2 {
