; ModuleID = 'source/lac/vector.cc'
source_filename = "source/lac/vector.cc"
target datalayout = "e-m:e-p270:32:32-p271:32:32-p272:64:64-i64:64-f80:128-n8:16:32:64-S128"
target triple = "x86_64-pc-linux-gnu"

module asm ".globl _ZSt21ios_base_library_initv"

%"class.dealii::Vector" = type { %"class.dealii::Subscriptor", i32, i32, ptr }
%"class.dealii::Subscriptor" = type { ptr, i32, %"class.std::map", ptr }
%"class.std::map" = type { %"class.std::_Rb_tree" }
%"class.std::_Rb_tree" = type { %"struct.std::_Rb_tree<const char *, std::pair<const char *const, unsigned int>, std::_Select1st<std::pair<const char *const, unsigned int> >, std::less<const char *> >::_Rb_tree_impl" }
%"struct.std::_Rb_tree<const char *, std::pair<const char *const, unsigned int>, std::_Select1st<std::pair<const char *const, unsigned int> >, std::less<const char *> >::_Rb_tree_impl" = type { %"struct.std::_Rb_tree_key_compare", %"struct.std::_Rb_tree_header" }
%"struct.std::_Rb_tree_key_compare" = type { %"struct.std::less" }
%"struct.std::less" = type { i8 }
%"struct.std::_Rb_tree_header" = type { %"struct.std::_Rb_tree_node_base", i64 }
%"struct.std::_Rb_tree_node_base" = type { i32, ptr, ptr, ptr }
%"class.dealii::BlockVectorBase" = type { %"class.dealii::Subscriptor", %"class.std::vector", %"class.dealii::BlockIndices" }
%"class.std::vector" = type { %"struct.std::_Vector_base" }
%"struct.std::_Vector_base" = type { %"struct.std::_Vector_base<dealii::Vector<double>, std::allocator<dealii::Vector<double> > >::_Vector_impl" }
%"struct.std::_Vector_base<dealii::Vector<double>, std::allocator<dealii::Vector<double> > >::_Vector_impl" = type { %"struct.std::_Vector_base<dealii::Vector<double>, std::allocator<dealii::Vector<double> > >::_Vector_impl_data" }
%"struct.std::_Vector_base<dealii::Vector<double>, std::allocator<dealii::Vector<double> > >::_Vector_impl_data" = type { ptr, ptr, ptr }
%"class.dealii::BlockIndices" = type { i32, %"class.std::vector.3" }
%"class.std::vector.3" = type { %"struct.std::_Vector_base.4" }
%"struct.std::_Vector_base.4" = type { %"struct.std::_Vector_base<unsigned int, std::allocator<unsigned int> >::_Vector_impl" }
%"struct.std::_Vector_base<unsigned int, std::allocator<unsigned int> >::_Vector_impl" = type { %"struct.std::_Vector_base<unsigned int, std::allocator<unsigned int> >::_Vector_impl_data" }
%"struct.std::_Vector_base<unsigned int, std::allocator<unsigned int> >::_Vector_impl_data" = type { ptr, ptr, ptr }
%"class.dealii::StandardExceptions::ExcIO" = type { %"class.dealii::ExceptionBase.base", [4 x i8] }
%"class.dealii::ExceptionBase.base" = type <{ %"class.std::exception", ptr, i32, [4 x i8], ptr, ptr, ptr, ptr, i32 }>
%"class.std::exception" = type { ptr }
%"class.std::ios_base" = type { ptr, i64, i64, i32, i32, i32, ptr, %"struct.std::ios_base::_Words", [8 x %"struct.std::ios_base::_Words"], i32, ptr, %"class.std::locale" }
%"struct.std::ios_base::_Words" = type { ptr, i64 }
%"class.std::locale" = type { ptr }
%"class.std::basic_ios" = type { %"class.std::ios_base", ptr, i8, i8, ptr, ptr, ptr, ptr }
%"class.std::ctype" = type <{ %"class.std::locale::facet.base", [4 x i8], ptr, i8, [7 x i8], ptr, ptr, ptr, i8, [256 x i8], [256 x i8], i8, [6 x i8] }>
%"class.std::locale::facet.base" = type <{ ptr, i32 }>
%"class.dealii::Vector.8" = type { %"class.dealii::Subscriptor", i32, i32, ptr }
%"class.dealii::BlockVectorBase.10" = type { %"class.dealii::Subscriptor", %"class.std::vector.11", %"class.dealii::BlockIndices" }
%"class.std::vector.11" = type { %"struct.std::_Vector_base.12" }
%"struct.std::_Vector_base.12" = type { %"struct.std::_Vector_base<dealii::Vector<float>, std::allocator<dealii::Vector<float> > >::_Vector_impl" }
%"struct.std::_Vector_base<dealii::Vector<float>, std::allocator<dealii::Vector<float> > >::_Vector_impl" = type { %"struct.std::_Vector_base<dealii::Vector<float>, std::allocator<dealii::Vector<float> > >::_Vector_impl_data" }
%"struct.std::_Vector_base<dealii::Vector<float>, std::allocator<dealii::Vector<float> > >::_Vector_impl_data" = type { ptr, ptr, ptr }
%"class.dealii::Vector.16" = type { %"class.dealii::Subscriptor", i32, i32, ptr }
%"class.dealii::BlockVectorBase.18" = type { %"class.dealii::Subscriptor", %"class.std::vector.19", %"class.dealii::BlockIndices" }
%"class.std::vector.19" = type { %"struct.std::_Vector_base.20" }
%"struct.std::_Vector_base.20" = type { %"struct.std::_Vector_base<dealii::Vector<long double>, std::allocator<dealii::Vector<long double> > >::_Vector_impl" }
%"struct.std::_Vector_base<dealii::Vector<long double>, std::allocator<dealii::Vector<long double> > >::_Vector_impl" = type { %"struct.std::_Vector_base<dealii::Vector<long double>, std::allocator<dealii::Vector<long double> > >::_Vector_impl_data" }
%"struct.std::_Vector_base<dealii::Vector<long double>, std::allocator<dealii::Vector<long double> > >::_Vector_impl_data" = type { ptr, ptr, ptr }
%"class.dealii::Vector.24" = type { %"class.dealii::Subscriptor", i32, i32, ptr }
%"class.std::complex" = type { { double, double } }
%"class.dealii::BlockVectorBase.26" = type { %"class.dealii::Subscriptor", %"class.std::vector.27", %"class.dealii::BlockIndices" }
%"class.std::vector.27" = type { %"struct.std::_Vector_base.28" }
%"struct.std::_Vector_base.28" = type { %"struct.std::_Vector_base<dealii::Vector<std::complex<double> >, std::allocator<dealii::Vector<std::complex<double> > > >::_Vector_impl" }
%"struct.std::_Vector_base<dealii::Vector<std::complex<double> >, std::allocator<dealii::Vector<std::complex<double> > > >::_Vector_impl" = type { %"struct.std::_Vector_base<dealii::Vector<std::complex<double> >, std::allocator<dealii::Vector<std::complex<double> > > >::_Vector_impl_data" }
%"struct.std::_Vector_base<dealii::Vector<std::complex<double> >, std::allocator<dealii::Vector<std::complex<double> > > >::_Vector_impl_data" = type { ptr, ptr, ptr }
%"class.dealii::Vector.32" = type { %"class.dealii::Subscriptor", i32, i32, ptr }
%"class.std::complex.33" = type { { float, float } }
%"class.dealii::BlockVectorBase.35" = type { %"class.dealii::Subscriptor", %"class.std::vector.36", %"class.dealii::BlockIndices" }
%"class.std::vector.36" = type { %"struct.std::_Vector_base.37" }
%"struct.std::_Vector_base.37" = type { %"struct.std::_Vector_base<dealii::Vector<std::complex<float> >, std::allocator<dealii::Vector<std::complex<float> > > >::_Vector_impl" }
%"struct.std::_Vector_base<dealii::Vector<std::complex<float> >, std::allocator<dealii::Vector<std::complex<float> > > >::_Vector_impl" = type { %"struct.std::_Vector_base<dealii::Vector<std::complex<float> >, std::allocator<dealii::Vector<std::complex<float> > > >::_Vector_impl_data" }
%"struct.std::_Vector_base<dealii::Vector<std::complex<float> >, std::allocator<dealii::Vector<std::complex<float> > > >::_Vector_impl_data" = type { ptr, ptr, ptr }
%"class.dealii::Vector.41" = type { %"class.dealii::Subscriptor", i32, i32, ptr }
%"class.std::complex.42" = type { { x86_fp80, x86_fp80 } }
%"class.dealii::BlockVectorBase.44" = type { %"class.dealii::Subscriptor", %"class.std::vector.45", %"class.dealii::BlockIndices" }
%"class.std::vector.45" = type { %"struct.std::_Vector_base.46" }
%"struct.std::_Vector_base.46" = type { %"struct.std::_Vector_base<dealii::Vector<std::complex<long double> >, std::allocator<dealii::Vector<std::complex<long double> > > >::_Vector_impl" }
%"struct.std::_Vector_base<dealii::Vector<std::complex<long double> >, std::allocator<dealii::Vector<std::complex<long double> > > >::_Vector_impl" = type { %"struct.std::_Vector_base<dealii::Vector<std::complex<long double> >, std::allocator<dealii::Vector<std::complex<long double> > > >::_Vector_impl_data" }
%"struct.std::_Vector_base<dealii::Vector<std::complex<long double> >, std::allocator<dealii::Vector<std::complex<long double> > > >::_Vector_impl_data" = type { ptr, ptr, ptr }

$_ZN6dealii6VectorIdEC5Ev = comdat any

$_ZN6dealii6VectorIdEC5ERKS1_ = comdat any

$_ZNK6dealii6VectorIdE4sizeEv = comdat any

$_ZNK6dealii6VectorIdE5beginEv = comdat any

$_ZNK6dealii6VectorIdE3endEv = comdat any

$_ZN6dealii6VectorIdE5beginEv = comdat any

$__clang_call_terminate = comdat any

$_ZN6dealii6VectorIdEC5Ej = comdat any

$_ZN6dealii6VectorIdED5Ev = comdat any

$_ZNK6dealii6VectorIdE8compressEv = comdat any

$_ZN6dealii6VectorIdE6reinitEjb = comdat any

$_ZN6dealii6VectorIdEaSEd = comdat any

$_ZN6dealii6VectorIdE4swapERS1_ = comdat any

$_ZN6dealii6VectorIdE3endEv = comdat any

$_ZN6dealii6VectorIdEaSERKS1_ = comdat any

$_ZN6dealii6VectorIdEaSERKNS_11BlockVectorIdEE = comdat any

$_ZNK6dealii6VectorIdEclEj = comdat any

$_ZNK6dealii6VectorIdE8norm_sqrEv = comdat any

$_ZNK6dealii6VectorIdE10mean_valueEv = comdat any

$_ZNK6dealii6VectorIdE7l1_normEv = comdat any

$_ZNK6dealii6VectorIdE7l2_normEv = comdat any

$_ZNK6dealii6VectorIdE7lp_normEd = comdat any

$_ZNK6dealii6VectorIdE11linfty_normEv = comdat any

$_ZNK6dealii6VectorIdE8all_zeroEv = comdat any

$_ZNK6dealii6VectorIdE15is_non_negativeEv = comdat any

$_ZN6dealii6VectorIdEclEj = comdat any

$_ZN6dealii6VectorIdEpLERKS1_ = comdat any

$_ZN6dealii6VectorIdE3addERKS1_ = comdat any

$_ZN6dealii6VectorIdEmIERKS1_ = comdat any

$_ZN6dealii6VectorIdE3addEd = comdat any

$_ZN6dealii6VectorIdE3addEdRKS1_ = comdat any

$_ZN6dealii6VectorIdE3addEdRKS1_dS3_ = comdat any

$_ZN6dealii6VectorIdE4saddEdRKS1_ = comdat any

$_ZN6dealii6VectorIdE4saddEddRKS1_ = comdat any

$_ZN6dealii6VectorIdE4saddEddRKS1_dS3_ = comdat any

$_ZN6dealii6VectorIdE4saddEddRKS1_dS3_dS3_ = comdat any

$_ZN6dealii6VectorIdE5scaleEd = comdat any

$_ZN6dealii6VectorIdEmLEd = comdat any

$_ZN6dealii6VectorIdEdVEd = comdat any

$_ZN6dealii6VectorIdE3equEdRKS1_dS3_ = comdat any

$_ZN6dealii6VectorIdE3equEdRKS1_dS3_dS3_ = comdat any

$_ZN6dealii6VectorIdE5ratioERKS1_S3_ = comdat any

$_ZNK6dealii6VectorIdE5printEPKc = comdat any

$_ZNK6dealii6VectorIdE5printERSojbb = comdat any

$_ZNK6dealii6VectorIdE11block_writeERSo = comdat any

$_ZN6dealii6VectorIdE10block_readERSi = comdat any

$_ZNK6dealii6VectorIdE18memory_consumptionEv = comdat any

$_ZN6dealii6VectorIfEC5Ev = comdat any

$_ZN6dealii6VectorIfEC5ERKS1_ = comdat any

$_ZNK6dealii6VectorIfE4sizeEv = comdat any

$_ZNK6dealii6VectorIfE5beginEv = comdat any

$_ZNK6dealii6VectorIfE3endEv = comdat any

$_ZN6dealii6VectorIfE5beginEv = comdat any

$_ZN6dealii6VectorIfEC5Ej = comdat any

$_ZN6dealii6VectorIfED5Ev = comdat any

$_ZNK6dealii6VectorIfE8compressEv = comdat any

$_ZN6dealii6VectorIfE6reinitEjb = comdat any

$_ZN6dealii6VectorIfEaSEf = comdat any

$_ZN6dealii6VectorIfE4swapERS1_ = comdat any

$_ZN6dealii6VectorIfE3endEv = comdat any

$_ZN6dealii6VectorIfEaSERKS1_ = comdat any

$_ZN6dealii6VectorIfEaSERKNS_11BlockVectorIfEE = comdat any

$_ZNK6dealii6VectorIfEclEj = comdat any

$_ZNK6dealii6VectorIfE8norm_sqrEv = comdat any

$_ZNK6dealii6VectorIfE10mean_valueEv = comdat any

$_ZNK6dealii6VectorIfE7l1_normEv = comdat any

$_ZNK6dealii6VectorIfE7l2_normEv = comdat any

$_ZNK6dealii6VectorIfE7lp_normEf = comdat any

$_ZNK6dealii6VectorIfE11linfty_normEv = comdat any

$_ZNK6dealii6VectorIfE8all_zeroEv = comdat any

$_ZNK6dealii6VectorIfE15is_non_negativeEv = comdat any

$_ZN6dealii6VectorIfEclEj = comdat any

$_ZN6dealii6VectorIfEpLERKS1_ = comdat any

$_ZN6dealii6VectorIfE3addERKS1_ = comdat any

$_ZN6dealii6VectorIfEmIERKS1_ = comdat any

$_ZN6dealii6VectorIfE3addEf = comdat any

$_ZN6dealii6VectorIfE3addEfRKS1_ = comdat any

$_ZN6dealii6VectorIfE3addEfRKS1_fS3_ = comdat any

$_ZN6dealii6VectorIfE4saddEfRKS1_ = comdat any

$_ZN6dealii6VectorIfE4saddEffRKS1_ = comdat any

$_ZN6dealii6VectorIfE4saddEffRKS1_fS3_ = comdat any

$_ZN6dealii6VectorIfE4saddEffRKS1_fS3_fS3_ = comdat any

$_ZN6dealii6VectorIfE5scaleEf = comdat any

$_ZN6dealii6VectorIfEmLEf = comdat any

$_ZN6dealii6VectorIfEdVEf = comdat any

$_ZN6dealii6VectorIfE3equEfRKS1_fS3_ = comdat any

$_ZN6dealii6VectorIfE3equEfRKS1_fS3_fS3_ = comdat any

$_ZN6dealii6VectorIfE5ratioERKS1_S3_ = comdat any

$_ZNK6dealii6VectorIfE5printEPKc = comdat any

$_ZNK6dealii6VectorIfE5printERSojbb = comdat any

$_ZNK6dealii6VectorIfE11block_writeERSo = comdat any

$_ZN6dealii6VectorIfE10block_readERSi = comdat any

$_ZNK6dealii6VectorIfE18memory_consumptionEv = comdat any

$_ZN6dealii6VectorIeEC5Ev = comdat any

$_ZN6dealii6VectorIeEC5ERKS1_ = comdat any

$_ZNK6dealii6VectorIeE4sizeEv = comdat any

$_ZNK6dealii6VectorIeE5beginEv = comdat any

$_ZNK6dealii6VectorIeE3endEv = comdat any

$_ZN6dealii6VectorIeE5beginEv = comdat any

$_ZN6dealii6VectorIeEC5Ej = comdat any

$_ZN6dealii6VectorIeED5Ev = comdat any

$_ZNK6dealii6VectorIeE8compressEv = comdat any

$_ZN6dealii6VectorIeE6reinitEjb = comdat any

$_ZN6dealii6VectorIeEaSEe = comdat any

$_ZN6dealii6VectorIeE4swapERS1_ = comdat any

$_ZN6dealii6VectorIeE3endEv = comdat any

$_ZN6dealii6VectorIeEaSERKS1_ = comdat any

$_ZN6dealii6VectorIeEaSERKNS_11BlockVectorIeEE = comdat any

$_ZNK6dealii6VectorIeEclEj = comdat any

$_ZNK6dealii6VectorIeE8norm_sqrEv = comdat any

$_ZNK6dealii6VectorIeE10mean_valueEv = comdat any

$_ZNK6dealii6VectorIeE7l1_normEv = comdat any

$_ZNK6dealii6VectorIeE7l2_normEv = comdat any

$_ZNK6dealii6VectorIeE7lp_normEe = comdat any

$_ZNK6dealii6VectorIeE11linfty_normEv = comdat any

$_ZNK6dealii6VectorIeE8all_zeroEv = comdat any

$_ZNK6dealii6VectorIeE15is_non_negativeEv = comdat any

$_ZN6dealii6VectorIeEclEj = comdat any

$_ZN6dealii6VectorIeEpLERKS1_ = comdat any

$_ZN6dealii6VectorIeE3addERKS1_ = comdat any

$_ZN6dealii6VectorIeEmIERKS1_ = comdat any

$_ZN6dealii6VectorIeE3addEe = comdat any

$_ZN6dealii6VectorIeE3addEeRKS1_ = comdat any

$_ZN6dealii6VectorIeE3addEeRKS1_eS3_ = comdat any

$_ZN6dealii6VectorIeE4saddEeRKS1_ = comdat any

$_ZN6dealii6VectorIeE4saddEeeRKS1_ = comdat any

$_ZN6dealii6VectorIeE4saddEeeRKS1_eS3_ = comdat any

$_ZN6dealii6VectorIeE4saddEeeRKS1_eS3_eS3_ = comdat any

$_ZN6dealii6VectorIeE5scaleEe = comdat any

$_ZN6dealii6VectorIeEmLEe = comdat any

$_ZN6dealii6VectorIeEdVEe = comdat any

$_ZN6dealii6VectorIeE3equEeRKS1_eS3_ = comdat any

$_ZN6dealii6VectorIeE3equEeRKS1_eS3_eS3_ = comdat any

$_ZN6dealii6VectorIeE5ratioERKS1_S3_ = comdat any

$_ZNK6dealii6VectorIeE5printEPKc = comdat any

$_ZNK6dealii6VectorIeE5printERSojbb = comdat any

$_ZNK6dealii6VectorIeE11block_writeERSo = comdat any

$_ZN6dealii6VectorIeE10block_readERSi = comdat any

$_ZNK6dealii6VectorIeE18memory_consumptionEv = comdat any

$_ZNK6dealii6VectorIdEeqIdEEbRKNS0_IT_EE = comdat any

$_ZNK6dealii6VectorIdEmlIdEEdRKNS0_IT_EE = comdat any

$_ZN6dealii6VectorIdE6reinitIdEEvRKNS0_IT_EEb = comdat any

$_ZN6dealii6VectorIdE3equIdEEvdRKNS0_IT_EE = comdat any

$_ZN6dealii6VectorIdE5scaleIdEEvRKNS0_IT_EE = comdat any

$_ZNK6dealii6VectorIdEeqIfEEbRKNS0_IT_EE = comdat any

$_ZNK6dealii6VectorIdEmlIfEEdRKNS0_IT_EE = comdat any

$_ZN6dealii6VectorIdE6reinitIfEEvRKNS0_IT_EEb = comdat any

$_ZN6dealii6VectorIdE3equIfEEvdRKNS0_IT_EE = comdat any

$_ZN6dealii6VectorIdE5scaleIfEEvRKNS0_IT_EE = comdat any

$_ZNK6dealii6VectorIdEeqIeEEbRKNS0_IT_EE = comdat any

$_ZNK6dealii6VectorIdEmlIeEEdRKNS0_IT_EE = comdat any

$_ZN6dealii6VectorIdE6reinitIeEEvRKNS0_IT_EEb = comdat any

$_ZN6dealii6VectorIdE3equIeEEvdRKNS0_IT_EE = comdat any

$_ZN6dealii6VectorIdE5scaleIeEEvRKNS0_IT_EE = comdat any

$_ZNK6dealii6VectorIfEeqIdEEbRKNS0_IT_EE = comdat any

$_ZNK6dealii6VectorIfEmlIdEEfRKNS0_IT_EE = comdat any

$_ZN6dealii6VectorIfE6reinitIdEEvRKNS0_IT_EEb = comdat any

$_ZN6dealii6VectorIfE3equIdEEvfRKNS0_IT_EE = comdat any

$_ZN6dealii6VectorIfE5scaleIdEEvRKNS0_IT_EE = comdat any

$_ZNK6dealii6VectorIfEeqIfEEbRKNS0_IT_EE = comdat any

$_ZNK6dealii6VectorIfEmlIfEEfRKNS0_IT_EE = comdat any

$_ZN6dealii6VectorIfE6reinitIfEEvRKNS0_IT_EEb = comdat any

$_ZN6dealii6VectorIfE3equIfEEvfRKNS0_IT_EE = comdat any

$_ZN6dealii6VectorIfE5scaleIfEEvRKNS0_IT_EE = comdat any

$_ZNK6dealii6VectorIfEeqIeEEbRKNS0_IT_EE = comdat any

$_ZNK6dealii6VectorIfEmlIeEEfRKNS0_IT_EE = comdat any

$_ZN6dealii6VectorIfE6reinitIeEEvRKNS0_IT_EEb = comdat any

$_ZN6dealii6VectorIfE3equIeEEvfRKNS0_IT_EE = comdat any

$_ZN6dealii6VectorIfE5scaleIeEEvRKNS0_IT_EE = comdat any

$_ZNK6dealii6VectorIeEeqIdEEbRKNS0_IT_EE = comdat any

$_ZNK6dealii6VectorIeEmlIdEEeRKNS0_IT_EE = comdat any

$_ZN6dealii6VectorIeE6reinitIdEEvRKNS0_IT_EEb = comdat any

$_ZN6dealii6VectorIeE3equIdEEveRKNS0_IT_EE = comdat any

$_ZN6dealii6VectorIeE5scaleIdEEvRKNS0_IT_EE = comdat any

$_ZNK6dealii6VectorIeEeqIfEEbRKNS0_IT_EE = comdat any

$_ZNK6dealii6VectorIeEmlIfEEeRKNS0_IT_EE = comdat any

$_ZN6dealii6VectorIeE6reinitIfEEvRKNS0_IT_EEb = comdat any

$_ZN6dealii6VectorIeE3equIfEEveRKNS0_IT_EE = comdat any

$_ZN6dealii6VectorIeE5scaleIfEEvRKNS0_IT_EE = comdat any

$_ZNK6dealii6VectorIeEeqIeEEbRKNS0_IT_EE = comdat any

$_ZNK6dealii6VectorIeEmlIeEEeRKNS0_IT_EE = comdat any

$_ZN6dealii6VectorIeE6reinitIeEEvRKNS0_IT_EEb = comdat any

$_ZN6dealii6VectorIeE3equIeEEveRKNS0_IT_EE = comdat any

$_ZN6dealii6VectorIeE5scaleIeEEvRKNS0_IT_EE = comdat any

$_ZN6dealii6VectorISt7complexIdEEC5Ev = comdat any

$_ZN6dealii6VectorISt7complexIdEEC5ERKS3_ = comdat any

$_ZNK6dealii6VectorISt7complexIdEE4sizeEv = comdat any

$_ZNK6dealii6VectorISt7complexIdEE5beginEv = comdat any

$_ZNK6dealii6VectorISt7complexIdEE3endEv = comdat any

$_ZN6dealii6VectorISt7complexIdEE5beginEv = comdat any

$_ZN6dealii6VectorISt7complexIdEEC5Ej = comdat any

$_ZN6dealii6VectorISt7complexIdEED5Ev = comdat any

$_ZNK6dealii6VectorISt7complexIdEE8compressEv = comdat any

$_ZN6dealii6VectorISt7complexIdEE6reinitEjb = comdat any

$_ZN6dealii6VectorISt7complexIdEEaSES2_ = comdat any

$_ZN6dealii6VectorISt7complexIdEE4swapERS3_ = comdat any

$_ZN6dealii6VectorISt7complexIdEE3endEv = comdat any

$_ZN6dealii6VectorISt7complexIdEEaSERKS3_ = comdat any

$_ZN6dealii6VectorISt7complexIdEEaSERKNS_11BlockVectorIS2_EE = comdat any

$_ZNK6dealii6VectorISt7complexIdEEclEj = comdat any

$_ZNK6dealii6VectorISt7complexIdEE8norm_sqrEv = comdat any

$_ZNK6dealii6VectorISt7complexIdEE10mean_valueEv = comdat any

$_ZNK6dealii6VectorISt7complexIdEE7l1_normEv = comdat any

$_ZNK6dealii6VectorISt7complexIdEE7l2_normEv = comdat any

$_ZNK6dealii6VectorISt7complexIdEE7lp_normEd = comdat any

$_ZNK6dealii6VectorISt7complexIdEE11linfty_normEv = comdat any

$_ZNK6dealii6VectorISt7complexIdEE8all_zeroEv = comdat any

$_ZNK6dealii6VectorISt7complexIdEE15is_non_negativeEv = comdat any

$_ZN6dealii6VectorISt7complexIdEEclEj = comdat any

$_ZN6dealii6VectorISt7complexIdEEpLERKS3_ = comdat any

$_ZN6dealii6VectorISt7complexIdEE3addERKS3_ = comdat any

$_ZN6dealii6VectorISt7complexIdEEmIERKS3_ = comdat any

$_ZN6dealii6VectorISt7complexIdEE3addES2_ = comdat any

$_ZN6dealii6VectorISt7complexIdEE3addES2_RKS3_ = comdat any

$_ZN6dealii6VectorISt7complexIdEE3addES2_RKS3_S2_S5_ = comdat any

$_ZN6dealii6VectorISt7complexIdEE4saddES2_RKS3_ = comdat any

$_ZN6dealii6VectorISt7complexIdEE4saddES2_S2_RKS3_ = comdat any

$_ZN6dealii6VectorISt7complexIdEE4saddES2_S2_RKS3_S2_S5_ = comdat any

$_ZN6dealii6VectorISt7complexIdEE4saddES2_S2_RKS3_S2_S5_S2_S5_ = comdat any

$_ZN6dealii6VectorISt7complexIdEE5scaleES2_ = comdat any

$_ZN6dealii6VectorISt7complexIdEEmLES2_ = comdat any

$_ZN6dealii6VectorISt7complexIdEEdVES2_ = comdat any

$_ZN6dealii6VectorISt7complexIdEE3equES2_RKS3_S2_S5_ = comdat any

$_ZN6dealii6VectorISt7complexIdEE3equES2_RKS3_S2_S5_S2_S5_ = comdat any

$_ZN6dealii6VectorISt7complexIdEE5ratioERKS3_S5_ = comdat any

$_ZNK6dealii6VectorISt7complexIdEE5printEPKc = comdat any

$_ZNK6dealii6VectorISt7complexIdEE5printERSojbb = comdat any

$_ZNK6dealii6VectorISt7complexIdEE11block_writeERSo = comdat any

$_ZN6dealii6VectorISt7complexIdEE10block_readERSi = comdat any

$_ZNK6dealii6VectorISt7complexIdEE18memory_consumptionEv = comdat any

$_ZN6dealii6VectorISt7complexIfEEC5Ev = comdat any

$_ZN6dealii6VectorISt7complexIfEEC5ERKS3_ = comdat any

$_ZNK6dealii6VectorISt7complexIfEE4sizeEv = comdat any

$_ZNK6dealii6VectorISt7complexIfEE5beginEv = comdat any

$_ZNK6dealii6VectorISt7complexIfEE3endEv = comdat any

$_ZN6dealii6VectorISt7complexIfEE5beginEv = comdat any

$_ZN6dealii6VectorISt7complexIfEEC5Ej = comdat any

$_ZN6dealii6VectorISt7complexIfEED5Ev = comdat any

$_ZNK6dealii6VectorISt7complexIfEE8compressEv = comdat any

$_ZN6dealii6VectorISt7complexIfEE6reinitEjb = comdat any

$_ZN6dealii6VectorISt7complexIfEEaSES2_ = comdat any

$_ZN6dealii6VectorISt7complexIfEE4swapERS3_ = comdat any

$_ZN6dealii6VectorISt7complexIfEE3endEv = comdat any

$_ZN6dealii6VectorISt7complexIfEEaSERKS3_ = comdat any

$_ZN6dealii6VectorISt7complexIfEEaSERKNS_11BlockVectorIS2_EE = comdat any

$_ZNK6dealii6VectorISt7complexIfEEclEj = comdat any

$_ZNK6dealii6VectorISt7complexIfEE8norm_sqrEv = comdat any

$_ZNK6dealii6VectorISt7complexIfEE10mean_valueEv = comdat any

$_ZNK6dealii6VectorISt7complexIfEE7l1_normEv = comdat any

$_ZNK6dealii6VectorISt7complexIfEE7l2_normEv = comdat any

$_ZNK6dealii6VectorISt7complexIfEE7lp_normEf = comdat any

$_ZNK6dealii6VectorISt7complexIfEE11linfty_normEv = comdat any

$_ZNK6dealii6VectorISt7complexIfEE8all_zeroEv = comdat any

$_ZNK6dealii6VectorISt7complexIfEE15is_non_negativeEv = comdat any

$_ZN6dealii6VectorISt7complexIfEEclEj = comdat any

$_ZN6dealii6VectorISt7complexIfEEpLERKS3_ = comdat any

$_ZN6dealii6VectorISt7complexIfEE3addERKS3_ = comdat any

$_ZN6dealii6VectorISt7complexIfEEmIERKS3_ = comdat any

$_ZN6dealii6VectorISt7complexIfEE3addES2_ = comdat any

$_ZN6dealii6VectorISt7complexIfEE3addES2_RKS3_ = comdat any

$_ZN6dealii6VectorISt7complexIfEE3addES2_RKS3_S2_S5_ = comdat any

$_ZN6dealii6VectorISt7complexIfEE4saddES2_RKS3_ = comdat any

$_ZN6dealii6VectorISt7complexIfEE4saddES2_S2_RKS3_ = comdat any

$_ZN6dealii6VectorISt7complexIfEE4saddES2_S2_RKS3_S2_S5_ = comdat any

$_ZN6dealii6VectorISt7complexIfEE4saddES2_S2_RKS3_S2_S5_S2_S5_ = comdat any

$_ZN6dealii6VectorISt7complexIfEE5scaleES2_ = comdat any

$_ZN6dealii6VectorISt7complexIfEEmLES2_ = comdat any

$_ZN6dealii6VectorISt7complexIfEEdVES2_ = comdat any

$_ZN6dealii6VectorISt7complexIfEE3equES2_RKS3_S2_S5_ = comdat any

$_ZN6dealii6VectorISt7complexIfEE3equES2_RKS3_S2_S5_S2_S5_ = comdat any

$_ZN6dealii6VectorISt7complexIfEE5ratioERKS3_S5_ = comdat any

$_ZNK6dealii6VectorISt7complexIfEE5printEPKc = comdat any

$_ZNK6dealii6VectorISt7complexIfEE5printERSojbb = comdat any

$_ZNK6dealii6VectorISt7complexIfEE11block_writeERSo = comdat any

$_ZN6dealii6VectorISt7complexIfEE10block_readERSi = comdat any

$_ZNK6dealii6VectorISt7complexIfEE18memory_consumptionEv = comdat any

$_ZN6dealii6VectorISt7complexIeEEC5Ev = comdat any

$_ZN6dealii6VectorISt7complexIeEEC5ERKS3_ = comdat any

$_ZNK6dealii6VectorISt7complexIeEE4sizeEv = comdat any

$_ZNK6dealii6VectorISt7complexIeEE5beginEv = comdat any

$_ZNK6dealii6VectorISt7complexIeEE3endEv = comdat any

$_ZN6dealii6VectorISt7complexIeEE5beginEv = comdat any

$_ZN6dealii6VectorISt7complexIeEEC5Ej = comdat any

$_ZN6dealii6VectorISt7complexIeEED5Ev = comdat any

$_ZNK6dealii6VectorISt7complexIeEE8compressEv = comdat any

$_ZN6dealii6VectorISt7complexIeEE6reinitEjb = comdat any

$_ZN6dealii6VectorISt7complexIeEEaSES2_ = comdat any

$_ZN6dealii6VectorISt7complexIeEE4swapERS3_ = comdat any

$_ZN6dealii6VectorISt7complexIeEE3endEv = comdat any

$_ZN6dealii6VectorISt7complexIeEEaSERKS3_ = comdat any

$_ZN6dealii6VectorISt7complexIeEEaSERKNS_11BlockVectorIS2_EE = comdat any

$_ZNK6dealii6VectorISt7complexIeEEclEj = comdat any

$_ZNK6dealii6VectorISt7complexIeEE8norm_sqrEv = comdat any

$_ZNK6dealii6VectorISt7complexIeEE10mean_valueEv = comdat any

$_ZNK6dealii6VectorISt7complexIeEE7l1_normEv = comdat any

$_ZNK6dealii6VectorISt7complexIeEE7l2_normEv = comdat any

$_ZNK6dealii6VectorISt7complexIeEE7lp_normEe = comdat any

$_ZNK6dealii6VectorISt7complexIeEE11linfty_normEv = comdat any

$_ZNK6dealii6VectorISt7complexIeEE8all_zeroEv = comdat any

$_ZNK6dealii6VectorISt7complexIeEE15is_non_negativeEv = comdat any

$_ZN6dealii6VectorISt7complexIeEEclEj = comdat any

$_ZN6dealii6VectorISt7complexIeEEpLERKS3_ = comdat any

$_ZN6dealii6VectorISt7complexIeEE3addERKS3_ = comdat any

$_ZN6dealii6VectorISt7complexIeEEmIERKS3_ = comdat any

$_ZN6dealii6VectorISt7complexIeEE3addES2_ = comdat any

$_ZN6dealii6VectorISt7complexIeEE3addES2_RKS3_ = comdat any

$_ZN6dealii6VectorISt7complexIeEE3addES2_RKS3_S2_S5_ = comdat any

$_ZN6dealii6VectorISt7complexIeEE4saddES2_RKS3_ = comdat any

$_ZN6dealii6VectorISt7complexIeEE4saddES2_S2_RKS3_ = comdat any

$_ZN6dealii6VectorISt7complexIeEE4saddES2_S2_RKS3_S2_S5_ = comdat any

$_ZN6dealii6VectorISt7complexIeEE4saddES2_S2_RKS3_S2_S5_S2_S5_ = comdat any

$_ZN6dealii6VectorISt7complexIeEE5scaleES2_ = comdat any

$_ZN6dealii6VectorISt7complexIeEEmLES2_ = comdat any

$_ZN6dealii6VectorISt7complexIeEEdVES2_ = comdat any

$_ZN6dealii6VectorISt7complexIeEE3equES2_RKS3_S2_S5_ = comdat any

$_ZN6dealii6VectorISt7complexIeEE3equES2_RKS3_S2_S5_S2_S5_ = comdat any

$_ZN6dealii6VectorISt7complexIeEE5ratioERKS3_S5_ = comdat any

$_ZNK6dealii6VectorISt7complexIeEE5printEPKc = comdat any

$_ZNK6dealii6VectorISt7complexIeEE5printERSojbb = comdat any

$_ZNK6dealii6VectorISt7complexIeEE11block_writeERSo = comdat any

$_ZN6dealii6VectorISt7complexIeEE10block_readERSi = comdat any

$_ZNK6dealii6VectorISt7complexIeEE18memory_consumptionEv = comdat any

$_ZNK6dealii6VectorISt7complexIdEEeqIS2_EEbRKNS0_IT_EE = comdat any

$_ZNK6dealii6VectorISt7complexIdEEmlIS2_EES2_RKNS0_IT_EE = comdat any

$_ZN6dealii6VectorISt7complexIdEE6reinitIS2_EEvRKNS0_IT_EEb = comdat any

$_ZN6dealii6VectorISt7complexIdEE3equIS2_EEvS2_RKNS0_IT_EE = comdat any

$_ZN6dealii6VectorISt7complexIdEE5scaleIS2_EEvRKNS0_IT_EE = comdat any

$_ZNK6dealii6VectorISt7complexIdEEeqIS1_IfEEEbRKNS0_IT_EE = comdat any

$_ZNK6dealii6VectorISt7complexIdEEmlIS1_IfEEES2_RKNS0_IT_EE = comdat any

$_ZN6dealii6VectorISt7complexIdEE6reinitIS1_IfEEEvRKNS0_IT_EEb = comdat any

$_ZN6dealii6VectorISt7complexIdEE3equIS1_IfEEEvS2_RKNS0_IT_EE = comdat any

$_ZN6dealii6VectorISt7complexIdEE5scaleIS1_IfEEEvRKNS0_IT_EE = comdat any

$_ZNK6dealii6VectorISt7complexIdEEeqIS1_IeEEEbRKNS0_IT_EE = comdat any

$_ZNK6dealii6VectorISt7complexIdEEmlIS1_IeEEES2_RKNS0_IT_EE = comdat any

$_ZN6dealii6VectorISt7complexIdEE6reinitIS1_IeEEEvRKNS0_IT_EEb = comdat any

$_ZN6dealii6VectorISt7complexIdEE3equIS1_IeEEEvS2_RKNS0_IT_EE = comdat any

$_ZN6dealii6VectorISt7complexIdEE5scaleIS1_IeEEEvRKNS0_IT_EE = comdat any

$_ZNK6dealii6VectorISt7complexIfEEeqIS1_IdEEEbRKNS0_IT_EE = comdat any

$_ZNK6dealii6VectorISt7complexIfEEmlIS1_IdEEES2_RKNS0_IT_EE = comdat any

$_ZN6dealii6VectorISt7complexIfEE6reinitIS1_IdEEEvRKNS0_IT_EEb = comdat any

$_ZN6dealii6VectorISt7complexIfEE3equIS1_IdEEEvS2_RKNS0_IT_EE = comdat any

$_ZN6dealii6VectorISt7complexIfEE5scaleIS1_IdEEEvRKNS0_IT_EE = comdat any

$_ZNK6dealii6VectorISt7complexIfEEeqIS2_EEbRKNS0_IT_EE = comdat any

$_ZNK6dealii6VectorISt7complexIfEEmlIS2_EES2_RKNS0_IT_EE = comdat any

$_ZN6dealii6VectorISt7complexIfEE6reinitIS2_EEvRKNS0_IT_EEb = comdat any

$_ZN6dealii6VectorISt7complexIfEE3equIS2_EEvS2_RKNS0_IT_EE = comdat any

$_ZN6dealii6VectorISt7complexIfEE5scaleIS2_EEvRKNS0_IT_EE = comdat any

$_ZNK6dealii6VectorISt7complexIfEEeqIS1_IeEEEbRKNS0_IT_EE = comdat any

$_ZNK6dealii6VectorISt7complexIfEEmlIS1_IeEEES2_RKNS0_IT_EE = comdat any

$_ZN6dealii6VectorISt7complexIfEE6reinitIS1_IeEEEvRKNS0_IT_EEb = comdat any

$_ZN6dealii6VectorISt7complexIfEE3equIS1_IeEEEvS2_RKNS0_IT_EE = comdat any

$_ZN6dealii6VectorISt7complexIfEE5scaleIS1_IeEEEvRKNS0_IT_EE = comdat any

$_ZNK6dealii6VectorISt7complexIeEEeqIS1_IdEEEbRKNS0_IT_EE = comdat any

$_ZNK6dealii6VectorISt7complexIeEEmlIS1_IdEEES2_RKNS0_IT_EE = comdat any

$_ZN6dealii6VectorISt7complexIeEE6reinitIS1_IdEEEvRKNS0_IT_EEb = comdat any

$_ZN6dealii6VectorISt7complexIeEE3equIS1_IdEEEvS2_RKNS0_IT_EE = comdat any

$_ZN6dealii6VectorISt7complexIeEE5scaleIS1_IdEEEvRKNS0_IT_EE = comdat any

$_ZNK6dealii6VectorISt7complexIeEEeqIS1_IfEEEbRKNS0_IT_EE = comdat any

$_ZNK6dealii6VectorISt7complexIeEEmlIS1_IfEEES2_RKNS0_IT_EE = comdat any

$_ZN6dealii6VectorISt7complexIeEE6reinitIS1_IfEEEvRKNS0_IT_EEb = comdat any

$_ZN6dealii6VectorISt7complexIeEE3equIS1_IfEEEvS2_RKNS0_IT_EE = comdat any

$_ZN6dealii6VectorISt7complexIeEE5scaleIS1_IfEEEvRKNS0_IT_EE = comdat any

$_ZNK6dealii6VectorISt7complexIeEEeqIS2_EEbRKNS0_IT_EE = comdat any

$_ZNK6dealii6VectorISt7complexIeEEmlIS2_EES2_RKNS0_IT_EE = comdat any

$_ZN6dealii6VectorISt7complexIeEE6reinitIS2_EEvRKNS0_IT_EEb = comdat any

$_ZN6dealii6VectorISt7complexIeEE3equIS2_EEvS2_RKNS0_IT_EE = comdat any

$_ZN6dealii6VectorISt7complexIeEE5scaleIS2_EEvRKNS0_IT_EE = comdat any

$_ZN6dealii6VectorIdEC5IfEERKNS0_IT_EE = comdat any

$_ZN6dealii6VectorIfEC5IdEERKNS0_IT_EE = comdat any

$_ZN6dealii6VectorIeEC5IdEERKNS0_IT_EE = comdat any

$_ZN6dealii6VectorIdEC5IeEERKNS0_IT_EE = comdat any

$_ZN6dealii6VectorIeEC5IfEERKNS0_IT_EE = comdat any

$_ZN6dealii6VectorIfEC5IeEERKNS0_IT_EE = comdat any

$_ZN6dealii6VectorISt7complexIdEEC5IS1_IfEEERKNS0_IT_EE = comdat any

$_ZN6dealii6VectorISt7complexIfEEC5IS1_IdEEERKNS0_IT_EE = comdat any

$_ZN6dealii6VectorISt7complexIeEEC5IS1_IdEEERKNS0_IT_EE = comdat any

$_ZN6dealii6VectorISt7complexIdEEC5IS1_IeEEERKNS0_IT_EE = comdat any

$_ZN6dealii6VectorISt7complexIeEEC5IS1_IfEEERKNS0_IT_EE = comdat any

$_ZN6dealii6VectorISt7complexIfEEC5IS1_IeEEERKNS0_IT_EE = comdat any

$_ZN6dealii6VectorIdEaSIfEERS1_RKNS0_IT_EE = comdat any

$_ZN6dealii6VectorIfEaSIdEERS1_RKNS0_IT_EE = comdat any

$_ZN6dealii6VectorIeEaSIdEERS1_RKNS0_IT_EE = comdat any

$_ZN6dealii6VectorIdEaSIeEERS1_RKNS0_IT_EE = comdat any

$_ZN6dealii6VectorIeEaSIfEERS1_RKNS0_IT_EE = comdat any

$_ZN6dealii6VectorIfEaSIeEERS1_RKNS0_IT_EE = comdat any

$_ZN6dealii6VectorISt7complexIdEEaSIS1_IfEEERS3_RKNS0_IT_EE = comdat any

$_ZN6dealii6VectorISt7complexIfEEaSIS1_IdEEERS3_RKNS0_IT_EE = comdat any

$_ZN6dealii6VectorISt7complexIeEEaSIS1_IdEEERS3_RKNS0_IT_EE = comdat any

$_ZN6dealii6VectorISt7complexIdEEaSIS1_IeEEERS3_RKNS0_IT_EE = comdat any

$_ZN6dealii6VectorISt7complexIeEEaSIS1_IfEEERS3_RKNS0_IT_EE = comdat any

$_ZN6dealii6VectorISt7complexIfEEaSIS1_IeEEERS3_RKNS0_IT_EE = comdat any

$_ZN6dealii18StandardExceptions5ExcIOD0Ev = comdat any

$_ZTVN6dealii6VectorIdEE = comdat any

$_ZTVN6dealii6VectorIfEE = comdat any

$_ZTVN6dealii6VectorIeEE = comdat any

$_ZTVN6dealii6VectorISt7complexIdEEE = comdat any

$_ZTVN6dealii6VectorISt7complexIfEEE = comdat any

$_ZTVN6dealii6VectorISt7complexIeEEE = comdat any

$_ZTSN6dealii6VectorIdEE = comdat any

$_ZTIN6dealii6VectorIdEE = comdat any

$_ZTSN6dealii6VectorIfEE = comdat any

$_ZTIN6dealii6VectorIfEE = comdat any

$_ZTSN6dealii6VectorIeEE = comdat any

$_ZTIN6dealii6VectorIeEE = comdat any

$_ZTSN6dealii6VectorISt7complexIdEEE = comdat any

$_ZTIN6dealii6VectorISt7complexIdEEE = comdat any

$_ZTSN6dealii6VectorISt7complexIfEEE = comdat any

$_ZTIN6dealii6VectorISt7complexIfEEE = comdat any

$_ZTSN6dealii6VectorISt7complexIeEEE = comdat any

$_ZTIN6dealii6VectorISt7complexIeEEE = comdat any

$_ZTVN6dealii18StandardExceptions5ExcIOE = comdat any

$_ZTSN6dealii18StandardExceptions5ExcIOE = comdat any

$_ZTIN6dealii18StandardExceptions5ExcIOE = comdat any

@_ZTVN6dealii6VectorIdEE = weak_odr dso_local unnamed_addr constant { [6 x ptr] } { [6 x ptr] [ptr null, ptr @_ZTIN6dealii6VectorIdEE, ptr @_ZN6dealii6VectorIdED2Ev, ptr @_ZN6dealii6VectorIdED0Ev, ptr @_ZN6dealii6VectorIdE6reinitEjb, ptr @_ZN6dealii6VectorIdE4swapERS1_] }, comdat, align 8
@.str.1 = private unnamed_addr constant [31 x i8] c"include/lac/vector.templates.h\00", align 1
@.str.2 = private unnamed_addr constant [1 x i8] zeroinitializer, align 1
@.str.3 = private unnamed_addr constant [4 x i8] c"out\00", align 1
@.str.4 = private unnamed_addr constant [8 x i8] c"ExcIO()\00", align 1
@.str.5 = private unnamed_addr constant [3 x i8] c"%d\00", align 1
@.str.6 = private unnamed_addr constant [3 x i8] c"\0A[\00", align 1
@.str.7 = private unnamed_addr constant [3 x i8] c"in\00", align 1
@.str.8 = private unnamed_addr constant [7 x i8] c"c=='['\00", align 1
@.str.9 = private unnamed_addr constant [7 x i8] c"c==']'\00", align 1
@_ZTVN6dealii6VectorIfEE = weak_odr dso_local unnamed_addr constant { [6 x ptr] } { [6 x ptr] [ptr null, ptr @_ZTIN6dealii6VectorIfEE, ptr @_ZN6dealii6VectorIfED2Ev, ptr @_ZN6dealii6VectorIfED0Ev, ptr @_ZN6dealii6VectorIfE6reinitEjb, ptr @_ZN6dealii6VectorIfE4swapERS1_] }, comdat, align 8
@_ZTVN6dealii6VectorIeEE = weak_odr dso_local unnamed_addr constant { [6 x ptr] } { [6 x ptr] [ptr null, ptr @_ZTIN6dealii6VectorIeEE, ptr @_ZN6dealii6VectorIeED2Ev, ptr @_ZN6dealii6VectorIeED0Ev, ptr @_ZN6dealii6VectorIeE6reinitEjb, ptr @_ZN6dealii6VectorIeE4swapERS1_] }, comdat, align 8
@_ZTVN6dealii6VectorISt7complexIdEEE = weak_odr dso_local unnamed_addr constant { [6 x ptr] } { [6 x ptr] [ptr null, ptr @_ZTIN6dealii6VectorISt7complexIdEEE, ptr @_ZN6dealii6VectorISt7complexIdEED2Ev, ptr @_ZN6dealii6VectorISt7complexIdEED0Ev, ptr @_ZN6dealii6VectorISt7complexIdEE6reinitEjb, ptr @_ZN6dealii6VectorISt7complexIdEE4swapERS3_] }, comdat, align 8
@_ZTVN6dealii6VectorISt7complexIfEEE = weak_odr dso_local unnamed_addr constant { [6 x ptr] } { [6 x ptr] [ptr null, ptr @_ZTIN6dealii6VectorISt7complexIfEEE, ptr @_ZN6dealii6VectorISt7complexIfEED2Ev, ptr @_ZN6dealii6VectorISt7complexIfEED0Ev, ptr @_ZN6dealii6VectorISt7complexIfEE6reinitEjb, ptr @_ZN6dealii6VectorISt7complexIfEE4swapERS3_] }, comdat, align 8
@_ZTVN6dealii6VectorISt7complexIeEEE = weak_odr dso_local unnamed_addr constant { [6 x ptr] } { [6 x ptr] [ptr null, ptr @_ZTIN6dealii6VectorISt7complexIeEEE, ptr @_ZN6dealii6VectorISt7complexIeEED2Ev, ptr @_ZN6dealii6VectorISt7complexIeEED0Ev, ptr @_ZN6dealii6VectorISt7complexIeEE6reinitEjb, ptr @_ZN6dealii6VectorISt7complexIeEE4swapERS3_] }, comdat, align 8
@_ZTVN10__cxxabiv120__si_class_type_infoE = external global ptr
@_ZTSN6dealii6VectorIdEE = weak_odr dso_local constant [20 x i8] c"N6dealii6VectorIdEE\00", comdat, align 1
@_ZTIN6dealii11SubscriptorE = external constant ptr
@_ZTIN6dealii6VectorIdEE = weak_odr dso_local constant { ptr, ptr, ptr } { ptr getelementptr inbounds (ptr, ptr @_ZTVN10__cxxabiv120__si_class_type_infoE, i64 2), ptr @_ZTSN6dealii6VectorIdEE, ptr @_ZTIN6dealii11SubscriptorE }, comdat, align 8
@_ZTSN6dealii6VectorIfEE = weak_odr dso_local constant [20 x i8] c"N6dealii6VectorIfEE\00", comdat, align 1
@_ZTIN6dealii6VectorIfEE = weak_odr dso_local constant { ptr, ptr, ptr } { ptr getelementptr inbounds (ptr, ptr @_ZTVN10__cxxabiv120__si_class_type_infoE, i64 2), ptr @_ZTSN6dealii6VectorIfEE, ptr @_ZTIN6dealii11SubscriptorE }, comdat, align 8
@_ZTSN6dealii6VectorIeEE = weak_odr dso_local constant [20 x i8] c"N6dealii6VectorIeEE\00", comdat, align 1
@_ZTIN6dealii6VectorIeEE = weak_odr dso_local constant { ptr, ptr, ptr } { ptr getelementptr inbounds (ptr, ptr @_ZTVN10__cxxabiv120__si_class_type_infoE, i64 2), ptr @_ZTSN6dealii6VectorIeEE, ptr @_ZTIN6dealii11SubscriptorE }, comdat, align 8
@_ZTSN6dealii6VectorISt7complexIdEEE = weak_odr dso_local constant [32 x i8] c"N6dealii6VectorISt7complexIdEEE\00", comdat, align 1
@_ZTIN6dealii6VectorISt7complexIdEEE = weak_odr dso_local constant { ptr, ptr, ptr } { ptr getelementptr inbounds (ptr, ptr @_ZTVN10__cxxabiv120__si_class_type_infoE, i64 2), ptr @_ZTSN6dealii6VectorISt7complexIdEEE, ptr @_ZTIN6dealii11SubscriptorE }, comdat, align 8
@_ZTSN6dealii6VectorISt7complexIfEEE = weak_odr dso_local constant [32 x i8] c"N6dealii6VectorISt7complexIfEEE\00", comdat, align 1
@_ZTIN6dealii6VectorISt7complexIfEEE = weak_odr dso_local constant { ptr, ptr, ptr } { ptr getelementptr inbounds (ptr, ptr @_ZTVN10__cxxabiv120__si_class_type_infoE, i64 2), ptr @_ZTSN6dealii6VectorISt7complexIfEEE, ptr @_ZTIN6dealii11SubscriptorE }, comdat, align 8
@_ZTSN6dealii6VectorISt7complexIeEEE = weak_odr dso_local constant [32 x i8] c"N6dealii6VectorISt7complexIeEEE\00", comdat, align 1
@_ZTIN6dealii6VectorISt7complexIeEEE = weak_odr dso_local constant { ptr, ptr, ptr } { ptr getelementptr inbounds (ptr, ptr @_ZTVN10__cxxabiv120__si_class_type_infoE, i64 2), ptr @_ZTSN6dealii6VectorISt7complexIeEEE, ptr @_ZTIN6dealii11SubscriptorE }, comdat, align 8
@_ZTVN6dealii18StandardExceptions5ExcIOE = linkonce_odr dso_local unnamed_addr constant { [6 x ptr] } { [6 x ptr] [ptr null, ptr @_ZTIN6dealii18StandardExceptions5ExcIOE, ptr @_ZN6dealii13ExceptionBaseD2Ev, ptr @_ZN6dealii18StandardExceptions5ExcIOD0Ev, ptr @_ZNK6dealii13ExceptionBase4whatEv, ptr @_ZNK6dealii13ExceptionBase10print_infoERSo] }, comdat, align 8
@_ZTSN6dealii18StandardExceptions5ExcIOE = linkonce_odr dso_local constant [36 x i8] c"N6dealii18StandardExceptions5ExcIOE\00", comdat, align 1
@_ZTIN6dealii13ExceptionBaseE = external constant ptr
@_ZTIN6dealii18StandardExceptions5ExcIOE = linkonce_odr dso_local constant { ptr, ptr, ptr } { ptr getelementptr inbounds (ptr, ptr @_ZTVN10__cxxabiv120__si_class_type_infoE, i64 2), ptr @_ZTSN6dealii18StandardExceptions5ExcIOE, ptr @_ZTIN6dealii13ExceptionBaseE }, comdat, align 8
@.str.10 = private unnamed_addr constant [7 x i8] c" %5.2f\00", align 1
@.str.11 = private unnamed_addr constant [14 x i8] c" %5.2f+%5.2fi\00", align 1

@_ZN6dealii6VectorIdEC1Ev = weak_odr dso_local unnamed_addr alias void (ptr), ptr @_ZN6dealii6VectorIdEC2Ev
@_ZN6dealii6VectorIdEC1ERKS1_ = weak_odr dso_local unnamed_addr alias void (ptr, ptr), ptr @_ZN6dealii6VectorIdEC2ERKS1_
@_ZN6dealii6VectorIdEC1Ej = weak_odr dso_local unnamed_addr alias void (ptr, i32), ptr @_ZN6dealii6VectorIdEC2Ej
@_ZN6dealii6VectorIdED1Ev = weak_odr dso_local unnamed_addr alias void (ptr), ptr @_ZN6dealii6VectorIdED2Ev
@_ZN6dealii6VectorIfEC1Ev = weak_odr dso_local unnamed_addr alias void (ptr), ptr @_ZN6dealii6VectorIfEC2Ev
@_ZN6dealii6VectorIfEC1ERKS1_ = weak_odr dso_local unnamed_addr alias void (ptr, ptr), ptr @_ZN6dealii6VectorIfEC2ERKS1_
@_ZN6dealii6VectorIfEC1Ej = weak_odr dso_local unnamed_addr alias void (ptr, i32), ptr @_ZN6dealii6VectorIfEC2Ej
@_ZN6dealii6VectorIfED1Ev = weak_odr dso_local unnamed_addr alias void (ptr), ptr @_ZN6dealii6VectorIfED2Ev
@_ZN6dealii6VectorIeEC1Ev = weak_odr dso_local unnamed_addr alias void (ptr), ptr @_ZN6dealii6VectorIeEC2Ev
@_ZN6dealii6VectorIeEC1ERKS1_ = weak_odr dso_local unnamed_addr alias void (ptr, ptr), ptr @_ZN6dealii6VectorIeEC2ERKS1_
@_ZN6dealii6VectorIeEC1Ej = weak_odr dso_local unnamed_addr alias void (ptr, i32), ptr @_ZN6dealii6VectorIeEC2Ej
@_ZN6dealii6VectorIeED1Ev = weak_odr dso_local unnamed_addr alias void (ptr), ptr @_ZN6dealii6VectorIeED2Ev
@_ZN6dealii6VectorISt7complexIdEEC1Ev = weak_odr dso_local unnamed_addr alias void (ptr), ptr @_ZN6dealii6VectorISt7complexIdEEC2Ev
@_ZN6dealii6VectorISt7complexIdEEC1ERKS3_ = weak_odr dso_local unnamed_addr alias void (ptr, ptr), ptr @_ZN6dealii6VectorISt7complexIdEEC2ERKS3_
@_ZN6dealii6VectorISt7complexIdEEC1Ej = weak_odr dso_local unnamed_addr alias void (ptr, i32), ptr @_ZN6dealii6VectorISt7complexIdEEC2Ej
@_ZN6dealii6VectorISt7complexIdEED1Ev = weak_odr dso_local unnamed_addr alias void (ptr), ptr @_ZN6dealii6VectorISt7complexIdEED2Ev
@_ZN6dealii6VectorISt7complexIfEEC1Ev = weak_odr dso_local unnamed_addr alias void (ptr), ptr @_ZN6dealii6VectorISt7complexIfEEC2Ev
@_ZN6dealii6VectorISt7complexIfEEC1ERKS3_ = weak_odr dso_local unnamed_addr alias void (ptr, ptr), ptr @_ZN6dealii6VectorISt7complexIfEEC2ERKS3_
@_ZN6dealii6VectorISt7complexIfEEC1Ej = weak_odr dso_local unnamed_addr alias void (ptr, i32), ptr @_ZN6dealii6VectorISt7complexIfEEC2Ej
@_ZN6dealii6VectorISt7complexIfEED1Ev = weak_odr dso_local unnamed_addr alias void (ptr), ptr @_ZN6dealii6VectorISt7complexIfEED2Ev
@_ZN6dealii6VectorISt7complexIeEEC1Ev = weak_odr dso_local unnamed_addr alias void (ptr), ptr @_ZN6dealii6VectorISt7complexIeEEC2Ev
@_ZN6dealii6VectorISt7complexIeEEC1ERKS3_ = weak_odr dso_local unnamed_addr alias void (ptr, ptr), ptr @_ZN6dealii6VectorISt7complexIeEEC2ERKS3_
@_ZN6dealii6VectorISt7complexIeEEC1Ej = weak_odr dso_local unnamed_addr alias void (ptr, i32), ptr @_ZN6dealii6VectorISt7complexIeEEC2Ej
@_ZN6dealii6VectorISt7complexIeEED1Ev = weak_odr dso_local unnamed_addr alias void (ptr), ptr @_ZN6dealii6VectorISt7complexIeEED2Ev
@_ZN6dealii6VectorIdEC1IfEERKNS0_IT_EE = weak_odr dso_local unnamed_addr alias void (ptr, ptr), ptr @_ZN6dealii6VectorIdEC2IfEERKNS0_IT_EE
@_ZN6dealii6VectorIfEC1IdEERKNS0_IT_EE = weak_odr dso_local unnamed_addr alias void (ptr, ptr), ptr @_ZN6dealii6VectorIfEC2IdEERKNS0_IT_EE
@_ZN6dealii6VectorIeEC1IdEERKNS0_IT_EE = weak_odr dso_local unnamed_addr alias void (ptr, ptr), ptr @_ZN6dealii6VectorIeEC2IdEERKNS0_IT_EE
@_ZN6dealii6VectorIdEC1IeEERKNS0_IT_EE = weak_odr dso_local unnamed_addr alias void (ptr, ptr), ptr @_ZN6dealii6VectorIdEC2IeEERKNS0_IT_EE
@_ZN6dealii6VectorIeEC1IfEERKNS0_IT_EE = weak_odr dso_local unnamed_addr alias void (ptr, ptr), ptr @_ZN6dealii6VectorIeEC2IfEERKNS0_IT_EE
@_ZN6dealii6VectorIfEC1IeEERKNS0_IT_EE = weak_odr dso_local unnamed_addr alias void (ptr, ptr), ptr @_ZN6dealii6VectorIfEC2IeEERKNS0_IT_EE
@_ZN6dealii6VectorISt7complexIdEEC1IS1_IfEEERKNS0_IT_EE = weak_odr dso_local unnamed_addr alias void (ptr, ptr), ptr @_ZN6dealii6VectorISt7complexIdEEC2IS1_IfEEERKNS0_IT_EE
@_ZN6dealii6VectorISt7complexIfEEC1IS1_IdEEERKNS0_IT_EE = weak_odr dso_local unnamed_addr alias void (ptr, ptr), ptr @_ZN6dealii6VectorISt7complexIfEEC2IS1_IdEEERKNS0_IT_EE
@_ZN6dealii6VectorISt7complexIeEEC1IS1_IdEEERKNS0_IT_EE = weak_odr dso_local unnamed_addr alias void (ptr, ptr), ptr @_ZN6dealii6VectorISt7complexIeEEC2IS1_IdEEERKNS0_IT_EE
@_ZN6dealii6VectorISt7complexIdEEC1IS1_IeEEERKNS0_IT_EE = weak_odr dso_local unnamed_addr alias void (ptr, ptr), ptr @_ZN6dealii6VectorISt7complexIdEEC2IS1_IeEEERKNS0_IT_EE
@_ZN6dealii6VectorISt7complexIeEEC1IS1_IfEEERKNS0_IT_EE = weak_odr dso_local unnamed_addr alias void (ptr, ptr), ptr @_ZN6dealii6VectorISt7complexIeEEC2IS1_IfEEERKNS0_IT_EE
@_ZN6dealii6VectorISt7complexIfEEC1IS1_IeEEERKNS0_IT_EE = weak_odr dso_local unnamed_addr alias void (ptr, ptr), ptr @_ZN6dealii6VectorISt7complexIfEEC2IS1_IeEEERKNS0_IT_EE

; Function Attrs: inlinehint sspstrong uwtable
define weak_odr dso_local void @_ZN6dealii6VectorIdEC2Ev(ptr noundef nonnull align 8 dereferenceable(88) %0) unnamed_addr #0 comdat($_ZN6dealii6VectorIdEC5Ev) align 2 {
  tail call void @_ZN6dealii11SubscriptorC2Ev(ptr noundef nonnull align 8 dereferenceable(72) %0)
  store ptr getelementptr inbounds ({ [6 x ptr] }, ptr @_ZTVN6dealii6VectorIdEE, i64 0, inrange i32 0, i64 2), ptr %0, align 8, !tbaa !5
  %2 = getelementptr inbounds %"class.dealii::Vector", ptr %0, i64 0, i32 1
  tail call void @llvm.memset.p0.i64(ptr noundef nonnull align 8 dereferenceable(16) %2, i8 0, i64 16, i1 false)
  ret void
}

declare void @_ZN6dealii11SubscriptorC2Ev(ptr noundef nonnull align 8 dereferenceable(72)) unnamed_addr #1

; Function Attrs: sspstrong uwtable
define weak_odr dso_local void @_ZN6dealii6VectorIdEC2ERKS1_(ptr noundef nonnull align 8 dereferenceable(88) %0, ptr noundef nonnull align 8 dereferenceable(88) %1) unnamed_addr #2 comdat($_ZN6dealii6VectorIdEC5ERKS1_) align 2 personality ptr @__gxx_personality_v0 {
  tail call void @_ZN6dealii11SubscriptorC2Ev(ptr noundef nonnull align 8 dereferenceable(72) %0)
  store ptr getelementptr inbounds ({ [6 x ptr] }, ptr @_ZTVN6dealii6VectorIdEE, i64 0, inrange i32 0, i64 2), ptr %0, align 8, !tbaa !5
  %3 = getelementptr inbounds %"class.dealii::Vector", ptr %0, i64 0, i32 1
  %4 = getelementptr inbounds %"class.dealii::Vector", ptr %1, i64 0, i32 1
  %5 = load i32, ptr %4, align 8, !tbaa !8
  store i32 %5, ptr %3, align 8, !tbaa !8
  %6 = getelementptr inbounds %"class.dealii::Vector", ptr %0, i64 0, i32 2
  %7 = load i32, ptr %4, align 8, !tbaa !8
  store i32 %7, ptr %6, align 4, !tbaa !23
  %8 = getelementptr inbounds %"class.dealii::Vector", ptr %0, i64 0, i32 3
  store ptr null, ptr %8, align 8, !tbaa !24
  %9 = icmp eq i32 %5, 0
  br i1 %9, label %25, label %10

10:                                               ; preds = %2
  %11 = zext i32 %7 to i64
  %12 = shl nuw nsw i64 %11, 3
  %13 = invoke noalias noundef nonnull ptr @_Znam(i64 noundef %12) #22
          to label %14 unwind label %23

14:                                               ; preds = %10
  store ptr %13, ptr %8, align 8, !tbaa !24
  %15 = getelementptr inbounds %"class.dealii::Vector", ptr %1, i64 0, i32 3
  %16 = load ptr, ptr %15, align 8, !tbaa !24
  %17 = icmp ugt i32 %7, 1
  br i1 %17, label %18, label %19, !prof !25

18:                                               ; preds = %14
  tail call void @llvm.memmove.p0.p0.i64(ptr nonnull align 8 %13, ptr align 8 %16, i64 %12, i1 false)
  br label %25

19:                                               ; preds = %14
  %20 = icmp eq i32 %7, 1
  br i1 %20, label %21, label %25

21:                                               ; preds = %19
  %22 = load double, ptr %16, align 8, !tbaa !26
  store double %22, ptr %13, align 8, !tbaa !26
  br label %25

23:                                               ; preds = %10
  %24 = landingpad { ptr, i32 }
          cleanup
  invoke void @_ZN6dealii11SubscriptorD2Ev(ptr noundef nonnull align 8 dereferenceable(72) %0)
          to label %26 unwind label %27

25:                                               ; preds = %21, %19, %18, %2
  ret void

26:                                               ; preds = %23
  resume { ptr, i32 } %24

27:                                               ; preds = %23
  %28 = landingpad { ptr, i32 }
          catch ptr null
  %29 = extractvalue { ptr, i32 } %28, 0
  tail call void @__clang_call_terminate(ptr %29) #23
  unreachable
}

; Function Attrs: inlinehint nounwind sspstrong uwtable
define weak_odr dso_local noundef i32 @_ZNK6dealii6VectorIdE4sizeEv(ptr noundef nonnull align 8 dereferenceable(88) %0) local_unnamed_addr #3 comdat align 2 {
  %2 = getelementptr inbounds %"class.dealii::Vector", ptr %0, i64 0, i32 1
  %3 = load i32, ptr %2, align 8, !tbaa !8
  ret i32 %3
}

declare i32 @__gxx_personality_v0(...)

; Function Attrs: nobuiltin allocsize(0)
declare noundef nonnull ptr @_Znam(i64 noundef) local_unnamed_addr #4

; Function Attrs: inlinehint nounwind sspstrong uwtable
define weak_odr dso_local noundef ptr @_ZNK6dealii6VectorIdE5beginEv(ptr noundef nonnull align 8 dereferenceable(88) %0) local_unnamed_addr #3 comdat align 2 {
  %2 = getelementptr inbounds %"class.dealii::Vector", ptr %0, i64 0, i32 3
  %3 = load ptr, ptr %2, align 8, !tbaa !24
  ret ptr %3
}

; Function Attrs: inlinehint nounwind sspstrong uwtable
define weak_odr dso_local noundef ptr @_ZNK6dealii6VectorIdE3endEv(ptr noundef nonnull align 8 dereferenceable(88) %0) local_unnamed_addr #3 comdat align 2 {
  %2 = getelementptr inbounds %"class.dealii::Vector", ptr %0, i64 0, i32 3
  %3 = load ptr, ptr %2, align 8, !tbaa !24
  %4 = getelementptr inbounds %"class.dealii::Vector", ptr %0, i64 0, i32 1
  %5 = load i32, ptr %4, align 8, !tbaa !8
  %6 = zext i32 %5 to i64
  %7 = getelementptr inbounds double, ptr %3, i64 %6
  ret ptr %7
}

; Function Attrs: inlinehint nounwind sspstrong uwtable
define weak_odr dso_local noundef ptr @_ZN6dealii6VectorIdE5beginEv(ptr noundef nonnull align 8 dereferenceable(88) %0) local_unnamed_addr #3 comdat align 2 {
  %2 = getelementptr inbounds %"class.dealii::Vector", ptr %0, i64 0, i32 3
  %3 = load ptr, ptr %2, align 8, !tbaa !24
  ret ptr %3
}

declare void @_ZN6dealii11SubscriptorD2Ev(ptr noundef nonnull align 8 dereferenceable(72)) unnamed_addr #1

; Function Attrs: noinline noreturn nounwind sspstrong uwtable
define linkonce_odr hidden void @__clang_call_terminate(ptr noundef %0) local_unnamed_addr #5 comdat {
  %2 = tail call ptr @__cxa_begin_catch(ptr %0) #24
  tail call void @_ZSt9terminatev() #23
  unreachable
}

declare ptr @__cxa_begin_catch(ptr) local_unnamed_addr

declare void @_ZSt9terminatev() local_unnamed_addr

; Function Attrs: inlinehint sspstrong uwtable
define weak_odr dso_local void @_ZN6dealii6VectorIdEC2Ej(ptr noundef nonnull align 8 dereferenceable(88) %0, i32 noundef %1) unnamed_addr #0 comdat($_ZN6dealii6VectorIdEC5Ej) align 2 personality ptr @__gxx_personality_v0 {
  tail call void @_ZN6dealii11SubscriptorC2Ev(ptr noundef nonnull align 8 dereferenceable(72) %0)
  store ptr getelementptr inbounds ({ [6 x ptr] }, ptr @_ZTVN6dealii6VectorIdEE, i64 0, inrange i32 0, i64 2), ptr %0, align 8, !tbaa !5
  %3 = getelementptr inbounds %"class.dealii::Vector", ptr %0, i64 0, i32 1
  tail call void @llvm.memset.p0.i64(ptr noundef nonnull align 8 dereferenceable(16) %3, i8 0, i64 16, i1 false)
  %4 = icmp eq i32 %1, 0
  br i1 %4, label %12, label %5

5:                                                ; preds = %2
  %6 = zext i32 %1 to i64
  %7 = shl nuw nsw i64 %6, 3
  %8 = invoke noalias noundef nonnull ptr @_Znam(i64 noundef %7) #22
          to label %9 unwind label %13

9:                                                ; preds = %5
  %10 = getelementptr inbounds %"class.dealii::Vector", ptr %0, i64 0, i32 3
  %11 = getelementptr inbounds %"class.dealii::Vector", ptr %0, i64 0, i32 2
  store ptr %8, ptr %10, align 8, !tbaa !24
  store i32 %1, ptr %11, align 4, !tbaa !23
  store i32 %1, ptr %3, align 8, !tbaa !8
  tail call void @llvm.memset.p0.i64(ptr nonnull align 8 %8, i8 0, i64 %7, i1 false), !tbaa !26
  br label %12

12:                                               ; preds = %2, %9
  ret void

13:                                               ; preds = %5
  %14 = landingpad { ptr, i32 }
          cleanup
  invoke void @_ZN6dealii11SubscriptorD2Ev(ptr noundef nonnull align 8 dereferenceable(72) %0)
          to label %15 unwind label %16

15:                                               ; preds = %13
  resume { ptr, i32 } %14

16:                                               ; preds = %13
  %17 = landingpad { ptr, i32 }
          catch ptr null
  %18 = extractvalue { ptr, i32 } %17, 0
  tail call void @__clang_call_terminate(ptr %18) #23
  unreachable
}

; Function Attrs: inlinehint sspstrong uwtable
define weak_odr dso_local void @_ZN6dealii6VectorIdED2Ev(ptr noundef nonnull align 8 dereferenceable(88) %0) unnamed_addr #0 comdat($_ZN6dealii6VectorIdED5Ev) align 2 {
  store ptr getelementptr inbounds ({ [6 x ptr] }, ptr @_ZTVN6dealii6VectorIdEE, i64 0, inrange i32 0, i64 2), ptr %0, align 8, !tbaa !5
  %2 = getelementptr inbounds %"class.dealii::Vector", ptr %0, i64 0, i32 3
  %3 = load ptr, ptr %2, align 8, !tbaa !24
  %4 = icmp eq ptr %3, null
  br i1 %4, label %6, label %5

5:                                                ; preds = %1
  tail call void @_ZdaPv(ptr noundef nonnull %3) #25
  store ptr null, ptr %2, align 8, !tbaa !24
  br label %6

6:                                                ; preds = %5, %1
  tail call void @_ZN6dealii11SubscriptorD2Ev(ptr noundef nonnull align 8 dereferenceable(72) %0)
  ret void
}

; Function Attrs: nobuiltin nounwind
declare void @_ZdaPv(ptr noundef) local_unnamed_addr #6

; Function Attrs: inlinehint sspstrong uwtable
define weak_odr dso_local void @_ZN6dealii6VectorIdED0Ev(ptr noundef nonnull align 8 dereferenceable(88) %0) unnamed_addr #0 comdat($_ZN6dealii6VectorIdED5Ev) align 2 personality ptr @__gxx_personality_v0 {
  store ptr getelementptr inbounds ({ [6 x ptr] }, ptr @_ZTVN6dealii6VectorIdEE, i64 0, inrange i32 0, i64 2), ptr %0, align 8, !tbaa !5
  %2 = getelementptr inbounds %"class.dealii::Vector", ptr %0, i64 0, i32 3
  %3 = load ptr, ptr %2, align 8, !tbaa !24
  %4 = icmp eq ptr %3, null
  br i1 %4, label %6, label %5

5:                                                ; preds = %1
  tail call void @_ZdaPv(ptr noundef nonnull %3) #25
  store ptr null, ptr %2, align 8, !tbaa !24
  br label %6

6:                                                ; preds = %5, %1
  invoke void @_ZN6dealii11SubscriptorD2Ev(ptr noundef nonnull align 8 dereferenceable(72) %0)
          to label %7 unwind label %8

7:                                                ; preds = %6
  tail call void @_ZdlPv(ptr noundef nonnull %0) #25
  ret void

8:                                                ; preds = %6
  %9 = landingpad { ptr, i32 }
          cleanup
  tail call void @_ZdlPv(ptr noundef nonnull %0) #25
  resume { ptr, i32 } %9
}

; Function Attrs: nobuiltin nounwind
declare void @_ZdlPv(ptr noundef) local_unnamed_addr #6

; Function Attrs: inlinehint nounwind sspstrong uwtable
define weak_odr dso_local void @_ZNK6dealii6VectorIdE8compressEv(ptr noundef nonnull align 8 dereferenceable(88) %0) local_unnamed_addr #3 comdat align 2 {
  ret void
}

; Function Attrs: inlinehint sspstrong uwtable
define weak_odr dso_local void @_ZN6dealii6VectorIdE6reinitEjb(ptr noundef nonnull align 8 dereferenceable(88) %0, i32 noundef %1, i1 noundef zeroext %2) unnamed_addr #0 comdat align 2 {
  %4 = icmp eq i32 %1, 0
  br i1 %4, label %5, label %12

5:                                                ; preds = %3
  %6 = getelementptr inbounds %"class.dealii::Vector", ptr %0, i64 0, i32 3
  %7 = load ptr, ptr %6, align 8, !tbaa !24
  %8 = icmp eq ptr %7, null
  br i1 %8, label %10, label %9

9:                                                ; preds = %5
  tail call void @_ZdaPv(ptr noundef nonnull %7) #25
  br label %10

10:                                               ; preds = %9, %5
  %11 = getelementptr inbounds %"class.dealii::Vector", ptr %0, i64 0, i32 1
  tail call void @llvm.memset.p0.i64(ptr noundef nonnull align 8 dereferenceable(16) %11, i8 0, i64 16, i1 false)
  br label %32

12:                                               ; preds = %3
  %13 = getelementptr inbounds %"class.dealii::Vector", ptr %0, i64 0, i32 2
  %14 = load i32, ptr %13, align 4, !tbaa !23
  %15 = icmp ult i32 %14, %1
  br i1 %15, label %16, label %25

16:                                               ; preds = %12
  %17 = getelementptr inbounds %"class.dealii::Vector", ptr %0, i64 0, i32 3
  %18 = load ptr, ptr %17, align 8, !tbaa !24
  %19 = icmp eq ptr %18, null
  br i1 %19, label %21, label %20

20:                                               ; preds = %16
  tail call void @_ZdaPv(ptr noundef nonnull %18) #25
  br label %21

21:                                               ; preds = %20, %16
  %22 = zext i32 %1 to i64
  %23 = shl nuw nsw i64 %22, 3
  %24 = tail call noalias noundef nonnull ptr @_Znam(i64 noundef %23) #22
  store ptr %24, ptr %17, align 8, !tbaa !24
  store i32 %1, ptr %13, align 4, !tbaa !23
  br label %25

25:                                               ; preds = %21, %12
  %26 = getelementptr inbounds %"class.dealii::Vector", ptr %0, i64 0, i32 1
  store i32 %1, ptr %26, align 8, !tbaa !8
  br i1 %2, label %32, label %27

27:                                               ; preds = %25
  %28 = getelementptr inbounds %"class.dealii::Vector", ptr %0, i64 0, i32 3
  %29 = load ptr, ptr %28, align 8, !tbaa !24
  %30 = zext i32 %1 to i64
  %31 = shl nuw nsw i64 %30, 3
  tail call void @llvm.memset.p0.i64(ptr align 8 %29, i8 0, i64 %31, i1 false), !tbaa !26
  br label %32

32:                                               ; preds = %27, %10, %25
  ret void
}

; Function Attrs: inlinehint sspstrong uwtable
define weak_odr dso_local noundef nonnull align 8 dereferenceable(88) ptr @_ZN6dealii6VectorIdEaSEd(ptr noundef nonnull align 8 dereferenceable(88) %0, double noundef %1) local_unnamed_addr #0 comdat align 2 {
  %3 = getelementptr inbounds %"class.dealii::Vector", ptr %0, i64 0, i32 1
  %4 = load i32, ptr %3, align 8, !tbaa !8
  %5 = icmp eq i32 %4, 0
  br i1 %5, label %44, label %6

6:                                                ; preds = %2
  %7 = getelementptr inbounds %"class.dealii::Vector", ptr %0, i64 0, i32 3
  %8 = load ptr, ptr %7, align 8, !tbaa !24
  %9 = zext i32 %4 to i64
  %10 = getelementptr inbounds double, ptr %8, i64 %9
  %11 = add nuw nsw i64 %9, 2305843009213693951
  %12 = and i64 %11, 2305843009213693951
  %13 = add nuw nsw i64 %12, 1
  %14 = icmp ult i64 %12, 15
  br i1 %14, label %38, label %15

15:                                               ; preds = %6
  %16 = and i64 %13, 4611686018427387888
  %17 = shl i64 %16, 3
  %18 = getelementptr i8, ptr %8, i64 %17
  %19 = insertelement <4 x double> poison, double %1, i64 0
  %20 = shufflevector <4 x double> %19, <4 x double> poison, <4 x i32> zeroinitializer
  %21 = insertelement <4 x double> poison, double %1, i64 0
  %22 = shufflevector <4 x double> %21, <4 x double> poison, <4 x i32> zeroinitializer
  %23 = insertelement <4 x double> poison, double %1, i64 0
  %24 = shufflevector <4 x double> %23, <4 x double> poison, <4 x i32> zeroinitializer
  %25 = insertelement <4 x double> poison, double %1, i64 0
  %26 = shufflevector <4 x double> %25, <4 x double> poison, <4 x i32> zeroinitializer
  br label %27

27:                                               ; preds = %27, %15
  %28 = phi i64 [ 0, %15 ], [ %34, %27 ]
  %29 = shl i64 %28, 3
  %30 = getelementptr i8, ptr %8, i64 %29
  store <4 x double> %20, ptr %30, align 8, !tbaa !26
  %31 = getelementptr double, ptr %30, i64 4
  store <4 x double> %22, ptr %31, align 8, !tbaa !26
  %32 = getelementptr double, ptr %30, i64 8
  store <4 x double> %24, ptr %32, align 8, !tbaa !26
  %33 = getelementptr double, ptr %30, i64 12
  store <4 x double> %26, ptr %33, align 8, !tbaa !26
  %34 = add nuw i64 %28, 16
  %35 = icmp eq i64 %34, %16
  br i1 %35, label %36, label %27, !llvm.loop !28

36:                                               ; preds = %27
  %37 = icmp eq i64 %13, %16
  br i1 %37, label %44, label %38

38:                                               ; preds = %6, %36
  %39 = phi ptr [ %8, %6 ], [ %18, %36 ]
  br label %40

40:                                               ; preds = %38, %40
  %41 = phi ptr [ %42, %40 ], [ %39, %38 ]
  store double %1, ptr %41, align 8, !tbaa !26
  %42 = getelementptr inbounds double, ptr %41, i64 1
  %43 = icmp eq ptr %42, %10
  br i1 %43, label %44, label %40, !llvm.loop !31

44:                                               ; preds = %40, %36, %2
  ret ptr %0
}

; Function Attrs: inlinehint sspstrong uwtable
define weak_odr dso_local void @_ZN6dealii6VectorIdE4swapERS1_(ptr noundef nonnull align 8 dereferenceable(88) %0, ptr noundef nonnull align 8 dereferenceable(88) %1) unnamed_addr #0 comdat align 2 {
  %3 = getelementptr inbounds %"class.dealii::Vector", ptr %0, i64 0, i32 1
  %4 = getelementptr inbounds %"class.dealii::Vector", ptr %1, i64 0, i32 1
  %5 = load i32, ptr %3, align 8, !tbaa !32
  %6 = load i32, ptr %4, align 8, !tbaa !32
  store i32 %6, ptr %3, align 8, !tbaa !32
  store i32 %5, ptr %4, align 8, !tbaa !32
  %7 = getelementptr inbounds %"class.dealii::Vector", ptr %0, i64 0, i32 2
  %8 = getelementptr inbounds %"class.dealii::Vector", ptr %1, i64 0, i32 2
  %9 = load i32, ptr %7, align 4, !tbaa !32
  %10 = load i32, ptr %8, align 4, !tbaa !32
  store i32 %10, ptr %7, align 4, !tbaa !32
  store i32 %9, ptr %8, align 4, !tbaa !32
  %11 = getelementptr inbounds %"class.dealii::Vector", ptr %0, i64 0, i32 3
  %12 = getelementptr inbounds %"class.dealii::Vector", ptr %1, i64 0, i32 3
  %13 = load ptr, ptr %11, align 8, !tbaa !33
  %14 = load ptr, ptr %12, align 8, !tbaa !33
  store ptr %14, ptr %11, align 8, !tbaa !33
  store ptr %13, ptr %12, align 8, !tbaa !33
  ret void
}

; Function Attrs: inlinehint nounwind sspstrong uwtable
define weak_odr dso_local noundef ptr @_ZN6dealii6VectorIdE3endEv(ptr noundef nonnull align 8 dereferenceable(88) %0) local_unnamed_addr #3 comdat align 2 {
  %2 = getelementptr inbounds %"class.dealii::Vector", ptr %0, i64 0, i32 3
  %3 = load ptr, ptr %2, align 8, !tbaa !24
  %4 = getelementptr inbounds %"class.dealii::Vector", ptr %0, i64 0, i32 1
  %5 = load i32, ptr %4, align 8, !tbaa !8
  %6 = zext i32 %5 to i64
  %7 = getelementptr inbounds double, ptr %3, i64 %6
  ret ptr %7
}

; Function Attrs: sspstrong uwtable
define weak_odr dso_local noundef nonnull align 8 dereferenceable(88) ptr @_ZN6dealii6VectorIdEaSERKS1_(ptr noundef nonnull align 8 dereferenceable(88) %0, ptr noundef nonnull align 8 dereferenceable(88) %1) local_unnamed_addr #2 comdat align 2 {
  %3 = getelementptr inbounds %"class.dealii::Vector", ptr %1, i64 0, i32 1
  %4 = load i32, ptr %3, align 8, !tbaa !8
  %5 = getelementptr inbounds %"class.dealii::Vector", ptr %0, i64 0, i32 1
  %6 = load i32, ptr %5, align 8, !tbaa !8
  %7 = icmp eq i32 %4, %6
  br i1 %7, label %13, label %8

8:                                                ; preds = %2
  %9 = load ptr, ptr %0, align 8, !tbaa !5
  %10 = getelementptr inbounds ptr, ptr %9, i64 2
  %11 = load ptr, ptr %10, align 8
  tail call void %11(ptr noundef nonnull align 8 dereferenceable(88) %0, i32 noundef %4, i1 noundef zeroext true)
  %12 = load i32, ptr %5, align 8, !tbaa !8
  br label %13

13:                                               ; preds = %8, %2
  %14 = phi i32 [ %12, %8 ], [ %4, %2 ]
  %15 = icmp eq i32 %14, 0
  br i1 %15, label %30, label %16

16:                                               ; preds = %13
  %17 = getelementptr inbounds %"class.dealii::Vector", ptr %1, i64 0, i32 3
  %18 = load ptr, ptr %17, align 8, !tbaa !24
  %19 = load i32, ptr %3, align 8, !tbaa !8
  %20 = getelementptr inbounds %"class.dealii::Vector", ptr %0, i64 0, i32 3
  %21 = load ptr, ptr %20, align 8, !tbaa !24
  %22 = icmp ugt i32 %19, 1
  br i1 %22, label %23, label %26, !prof !25

23:                                               ; preds = %16
  %24 = zext i32 %19 to i64
  %25 = shl nuw nsw i64 %24, 3
  tail call void @llvm.memmove.p0.p0.i64(ptr align 8 %21, ptr align 8 %18, i64 %25, i1 false)
  br label %30

26:                                               ; preds = %16
  %27 = icmp eq i32 %19, 1
  br i1 %27, label %28, label %30

28:                                               ; preds = %26
  %29 = load double, ptr %18, align 8, !tbaa !26
  store double %29, ptr %21, align 8, !tbaa !26
  br label %30

30:                                               ; preds = %28, %26, %23, %13
  ret ptr %0
}

; Function Attrs: sspstrong uwtable
define weak_odr dso_local noundef nonnull align 8 dereferenceable(88) ptr @_ZN6dealii6VectorIdEaSERKNS_11BlockVectorIdEE(ptr noundef nonnull align 8 dereferenceable(88) %0, ptr noundef nonnull align 8 dereferenceable(128) %1) local_unnamed_addr #2 comdat align 2 {
  %3 = getelementptr inbounds %"class.dealii::BlockVectorBase", ptr %1, i64 0, i32 2
  %4 = getelementptr inbounds %"class.dealii::BlockVectorBase", ptr %1, i64 0, i32 2, i32 1
  %5 = load i32, ptr %3, align 8, !tbaa !34
  %6 = zext i32 %5 to i64
  %7 = load ptr, ptr %4, align 8, !tbaa !40
  %8 = getelementptr inbounds i32, ptr %7, i64 %6
  %9 = load i32, ptr %8, align 4, !tbaa !32
  %10 = getelementptr inbounds %"class.dealii::Vector", ptr %0, i64 0, i32 1
  %11 = load i32, ptr %10, align 8, !tbaa !8
  %12 = icmp eq i32 %9, %11
  br i1 %12, label %18, label %13

13:                                               ; preds = %2
  %14 = load ptr, ptr %0, align 8, !tbaa !5
  %15 = getelementptr inbounds ptr, ptr %14, i64 2
  %16 = load ptr, ptr %15, align 8
  tail call void %16(ptr noundef nonnull align 8 dereferenceable(88) %0, i32 noundef %9, i1 noundef zeroext true)
  %17 = load i32, ptr %3, align 8, !tbaa !34
  br label %18

18:                                               ; preds = %13, %2
  %19 = phi i32 [ %17, %13 ], [ %5, %2 ]
  %20 = icmp eq i32 %19, 0
  br i1 %20, label %102, label %21

21:                                               ; preds = %18
  %22 = getelementptr inbounds %"class.dealii::BlockVectorBase", ptr %1, i64 0, i32 1
  %23 = load ptr, ptr %22, align 8, !tbaa !41
  %24 = getelementptr inbounds %"class.dealii::Vector", ptr %0, i64 0, i32 3
  %25 = load ptr, ptr %24, align 8
  %26 = ptrtoint ptr %25 to i64
  %27 = zext i32 %19 to i64
  br label %28

28:                                               ; preds = %21, %103
  %29 = phi i64 [ 0, %21 ], [ %105, %103 ]
  %30 = phi i32 [ 0, %21 ], [ %104, %103 ]
  %31 = getelementptr inbounds %"class.dealii::Vector", ptr %23, i64 %29, i32 1
  %32 = load i32, ptr %31, align 8, !tbaa !8
  %33 = icmp eq i32 %32, 0
  br i1 %33, label %103, label %34

34:                                               ; preds = %28
  %35 = getelementptr inbounds %"class.dealii::Vector", ptr %23, i64 %29, i32 3
  %36 = load ptr, ptr %35, align 8, !tbaa !24
  %37 = ptrtoint ptr %36 to i64
  %38 = zext i32 %32 to i64
  %39 = icmp ult i32 %32, 20
  br i1 %39, label %78, label %40

40:                                               ; preds = %34
  %41 = add nsw i64 %38, -1
  %42 = trunc i64 %41 to i32
  %43 = xor i32 %30, -1
  %44 = icmp ult i32 %43, %42
  %45 = icmp ugt i64 %41, 4294967295
  %46 = or i1 %44, %45
  br i1 %46, label %78, label %47

47:                                               ; preds = %40
  %48 = zext i32 %30 to i64
  %49 = shl nuw nsw i64 %48, 3
  %50 = add i64 %49, %26
  %51 = sub i64 %50, %37
  %52 = icmp ult i64 %51, 128
  br i1 %52, label %78, label %53

53:                                               ; preds = %47
  %54 = and i64 %38, 4294967280
  %55 = trunc i64 %54 to i32
  %56 = add i32 %30, %55
  br label %57

57:                                               ; preds = %57, %53
  %58 = phi i64 [ 0, %53 ], [ %74, %57 ]
  %59 = trunc i64 %58 to i32
  %60 = add i32 %30, %59
  %61 = getelementptr inbounds double, ptr %36, i64 %58
  %62 = load <4 x double>, ptr %61, align 8, !tbaa !26
  %63 = getelementptr inbounds double, ptr %61, i64 4
  %64 = load <4 x double>, ptr %63, align 8, !tbaa !26
  %65 = getelementptr inbounds double, ptr %61, i64 8
  %66 = load <4 x double>, ptr %65, align 8, !tbaa !26
  %67 = getelementptr inbounds double, ptr %61, i64 12
  %68 = load <4 x double>, ptr %67, align 8, !tbaa !26
  %69 = zext i32 %60 to i64
  %70 = getelementptr inbounds double, ptr %25, i64 %69
  store <4 x double> %62, ptr %70, align 8, !tbaa !26
  %71 = getelementptr inbounds double, ptr %70, i64 4
  store <4 x double> %64, ptr %71, align 8, !tbaa !26
  %72 = getelementptr inbounds double, ptr %70, i64 8
  store <4 x double> %66, ptr %72, align 8, !tbaa !26
  %73 = getelementptr inbounds double, ptr %70, i64 12
  store <4 x double> %68, ptr %73, align 8, !tbaa !26
  %74 = add nuw i64 %58, 16
  %75 = icmp eq i64 %74, %54
  br i1 %75, label %76, label %57, !llvm.loop !43

76:                                               ; preds = %57
  %77 = icmp eq i64 %54, %38
  br i1 %77, label %103, label %78

78:                                               ; preds = %47, %40, %34, %76
  %79 = phi i64 [ 0, %47 ], [ 0, %40 ], [ 0, %34 ], [ %54, %76 ]
  %80 = phi i32 [ %30, %47 ], [ %30, %40 ], [ %30, %34 ], [ %56, %76 ]
  %81 = xor i64 %79, -1
  %82 = add nsw i64 %81, %38
  %83 = and i64 %38, 3
  %84 = icmp eq i64 %83, 0
  br i1 %84, label %97, label %85

85:                                               ; preds = %78, %85
  %86 = phi i64 [ %93, %85 ], [ %79, %78 ]
  %87 = phi i32 [ %94, %85 ], [ %80, %78 ]
  %88 = phi i64 [ %95, %85 ], [ 0, %78 ]
  %89 = getelementptr inbounds double, ptr %36, i64 %86
  %90 = load double, ptr %89, align 8, !tbaa !26
  %91 = zext i32 %87 to i64
  %92 = getelementptr inbounds double, ptr %25, i64 %91
  store double %90, ptr %92, align 8, !tbaa !26
  %93 = add nuw nsw i64 %86, 1
  %94 = add i32 %87, 1
  %95 = add i64 %88, 1
  %96 = icmp eq i64 %95, %83
  br i1 %96, label %97, label %85, !llvm.loop !44

97:                                               ; preds = %85, %78
  %98 = phi i32 [ undef, %78 ], [ %94, %85 ]
  %99 = phi i64 [ %79, %78 ], [ %93, %85 ]
  %100 = phi i32 [ %80, %78 ], [ %94, %85 ]
  %101 = icmp ult i64 %82, 3
  br i1 %101, label %103, label %107

102:                                              ; preds = %103, %18
  ret ptr %0

103:                                              ; preds = %97, %107, %76, %28
  %104 = phi i32 [ %30, %28 ], [ %56, %76 ], [ %98, %97 ], [ %133, %107 ]
  %105 = add nuw nsw i64 %29, 1
  %106 = icmp eq i64 %105, %27
  br i1 %106, label %102, label %28

107:                                              ; preds = %97, %107
  %108 = phi i64 [ %132, %107 ], [ %99, %97 ]
  %109 = phi i32 [ %133, %107 ], [ %100, %97 ]
  %110 = getelementptr inbounds double, ptr %36, i64 %108
  %111 = load double, ptr %110, align 8, !tbaa !26
  %112 = zext i32 %109 to i64
  %113 = getelementptr inbounds double, ptr %25, i64 %112
  store double %111, ptr %113, align 8, !tbaa !26
  %114 = add nuw nsw i64 %108, 1
  %115 = add i32 %109, 1
  %116 = getelementptr inbounds double, ptr %36, i64 %114
  %117 = load double, ptr %116, align 8, !tbaa !26
  %118 = zext i32 %115 to i64
  %119 = getelementptr inbounds double, ptr %25, i64 %118
  store double %117, ptr %119, align 8, !tbaa !26
  %120 = add nuw nsw i64 %108, 2
  %121 = add i32 %109, 2
  %122 = getelementptr inbounds double, ptr %36, i64 %120
  %123 = load double, ptr %122, align 8, !tbaa !26
  %124 = zext i32 %121 to i64
  %125 = getelementptr inbounds double, ptr %25, i64 %124
  store double %123, ptr %125, align 8, !tbaa !26
  %126 = add nuw nsw i64 %108, 3
  %127 = add i32 %109, 3
  %128 = getelementptr inbounds double, ptr %36, i64 %126
  %129 = load double, ptr %128, align 8, !tbaa !26
  %130 = zext i32 %127 to i64
  %131 = getelementptr inbounds double, ptr %25, i64 %130
  store double %129, ptr %131, align 8, !tbaa !26
  %132 = add nuw nsw i64 %108, 4
  %133 = add i32 %109, 4
  %134 = icmp eq i64 %132, %38
  br i1 %134, label %103, label %107, !llvm.loop !46
}

; Function Attrs: mustprogress nocallback nofree nosync nounwind willreturn memory(argmem: readwrite)
declare void @llvm.lifetime.start.p0(i64 immarg, ptr nocapture) #7

; Function Attrs: inlinehint nounwind sspstrong uwtable
define weak_odr dso_local noundef double @_ZNK6dealii6VectorIdEclEj(ptr noundef nonnull align 8 dereferenceable(88) %0, i32 noundef %1) local_unnamed_addr #3 comdat align 2 {
  %3 = getelementptr inbounds %"class.dealii::Vector", ptr %0, i64 0, i32 3
  %4 = load ptr, ptr %3, align 8, !tbaa !24
  %5 = zext i32 %1 to i64
  %6 = getelementptr inbounds double, ptr %4, i64 %5
  %7 = load double, ptr %6, align 8, !tbaa !26
  ret double %7
}

; Function Attrs: mustprogress nocallback nofree nosync nounwind willreturn memory(argmem: readwrite)
declare void @llvm.lifetime.end.p0(i64 immarg, ptr nocapture) #7

; Function Attrs: sspstrong uwtable
define weak_odr dso_local noundef double @_ZNK6dealii6VectorIdE8norm_sqrEv(ptr noundef nonnull align 8 dereferenceable(88) %0) local_unnamed_addr #2 comdat align 2 {
  %2 = getelementptr inbounds %"class.dealii::Vector", ptr %0, i64 0, i32 1
  %3 = load i32, ptr %2, align 8, !tbaa !8
  %4 = icmp eq i32 %3, 0
  br i1 %4, label %29, label %5

5:                                                ; preds = %1
  %6 = getelementptr inbounds %"class.dealii::Vector", ptr %0, i64 0, i32 3
  %7 = load ptr, ptr %6, align 8, !tbaa !24
  %8 = zext i32 %3 to i64
  %9 = and i64 %8, 3
  %10 = icmp ult i32 %3, 4
  br i1 %10, label %13, label %11

11:                                               ; preds = %5
  %12 = and i64 %8, 4294967292
  br label %31

13:                                               ; preds = %31, %5
  %14 = phi double [ undef, %5 ], [ %53, %31 ]
  %15 = phi i64 [ 0, %5 ], [ %54, %31 ]
  %16 = phi double [ 0.000000e+00, %5 ], [ %53, %31 ]
  %17 = icmp eq i64 %9, 0
  br i1 %17, label %29, label %18

18:                                               ; preds = %13, %18
  %19 = phi i64 [ %26, %18 ], [ %15, %13 ]
  %20 = phi double [ %25, %18 ], [ %16, %13 ]
  %21 = phi i64 [ %27, %18 ], [ 0, %13 ]
  %22 = getelementptr inbounds double, ptr %7, i64 %19
  %23 = load double, ptr %22, align 8, !tbaa !26
  %24 = fmul double %23, %23
  %25 = fadd double %20, %24
  %26 = add nuw nsw i64 %19, 1
  %27 = add i64 %21, 1
  %28 = icmp eq i64 %27, %9
  br i1 %28, label %29, label %18, !llvm.loop !47

29:                                               ; preds = %13, %18, %1
  %30 = phi double [ 0.000000e+00, %1 ], [ %14, %13 ], [ %25, %18 ]
  ret double %30

31:                                               ; preds = %31, %11
  %32 = phi i64 [ 0, %11 ], [ %54, %31 ]
  %33 = phi double [ 0.000000e+00, %11 ], [ %53, %31 ]
  %34 = phi i64 [ 0, %11 ], [ %55, %31 ]
  %35 = getelementptr inbounds double, ptr %7, i64 %32
  %36 = load double, ptr %35, align 8, !tbaa !26
  %37 = fmul double %36, %36
  %38 = fadd double %33, %37
  %39 = or i64 %32, 1
  %40 = getelementptr inbounds double, ptr %7, i64 %39
  %41 = load double, ptr %40, align 8, !tbaa !26
  %42 = fmul double %41, %41
  %43 = fadd double %38, %42
  %44 = or i64 %32, 2
  %45 = getelementptr inbounds double, ptr %7, i64 %44
  %46 = load double, ptr %45, align 8, !tbaa !26
  %47 = fmul double %46, %46
  %48 = fadd double %43, %47
  %49 = or i64 %32, 3
  %50 = getelementptr inbounds double, ptr %7, i64 %49
  %51 = load double, ptr %50, align 8, !tbaa !26
  %52 = fmul double %51, %51
  %53 = fadd double %48, %52
  %54 = add nuw nsw i64 %32, 4
  %55 = add i64 %34, 4
  %56 = icmp eq i64 %55, %12
  br i1 %56, label %13, label %31
}

; Function Attrs: sspstrong uwtable
define weak_odr dso_local noundef double @_ZNK6dealii6VectorIdE10mean_valueEv(ptr noundef nonnull align 8 dereferenceable(88) %0) local_unnamed_addr #2 comdat align 2 {
  %2 = getelementptr inbounds %"class.dealii::Vector", ptr %0, i64 0, i32 1
  %3 = load i32, ptr %2, align 8, !tbaa !8
  %4 = icmp eq i32 %3, 0
  br i1 %4, label %28, label %5

5:                                                ; preds = %1
  %6 = getelementptr inbounds %"class.dealii::Vector", ptr %0, i64 0, i32 3
  %7 = load ptr, ptr %6, align 8, !tbaa !24
  %8 = zext i32 %3 to i64
  %9 = and i64 %8, 7
  %10 = icmp ult i32 %3, 8
  br i1 %10, label %13, label %11

11:                                               ; preds = %5
  %12 = and i64 %8, 4294967288
  br label %32

13:                                               ; preds = %32, %5
  %14 = phi double [ undef, %5 ], [ %66, %32 ]
  %15 = phi i64 [ 0, %5 ], [ %67, %32 ]
  %16 = phi double [ 0.000000e+00, %5 ], [ %66, %32 ]
  %17 = icmp eq i64 %9, 0
  br i1 %17, label %28, label %18

18:                                               ; preds = %13, %18
  %19 = phi i64 [ %25, %18 ], [ %15, %13 ]
  %20 = phi double [ %24, %18 ], [ %16, %13 ]
  %21 = phi i64 [ %26, %18 ], [ 0, %13 ]
  %22 = getelementptr inbounds double, ptr %7, i64 %19
  %23 = load double, ptr %22, align 8, !tbaa !26
  %24 = fadd double %20, %23
  %25 = add nuw nsw i64 %19, 1
  %26 = add i64 %21, 1
  %27 = icmp eq i64 %26, %9
  br i1 %27, label %28, label %18, !llvm.loop !48

28:                                               ; preds = %13, %18, %1
  %29 = phi double [ 0.000000e+00, %1 ], [ %14, %13 ], [ %24, %18 ]
  %30 = uitofp i32 %3 to double
  %31 = fdiv double %29, %30
  ret double %31

32:                                               ; preds = %32, %11
  %33 = phi i64 [ 0, %11 ], [ %67, %32 ]
  %34 = phi double [ 0.000000e+00, %11 ], [ %66, %32 ]
  %35 = phi i64 [ 0, %11 ], [ %68, %32 ]
  %36 = getelementptr inbounds double, ptr %7, i64 %33
  %37 = load double, ptr %36, align 8, !tbaa !26
  %38 = fadd double %34, %37
  %39 = or i64 %33, 1
  %40 = getelementptr inbounds double, ptr %7, i64 %39
  %41 = load double, ptr %40, align 8, !tbaa !26
  %42 = fadd double %38, %41
  %43 = or i64 %33, 2
  %44 = getelementptr inbounds double, ptr %7, i64 %43
  %45 = load double, ptr %44, align 8, !tbaa !26
  %46 = fadd double %42, %45
  %47 = or i64 %33, 3
  %48 = getelementptr inbounds double, ptr %7, i64 %47
  %49 = load double, ptr %48, align 8, !tbaa !26
  %50 = fadd double %46, %49
  %51 = or i64 %33, 4
  %52 = getelementptr inbounds double, ptr %7, i64 %51
  %53 = load double, ptr %52, align 8, !tbaa !26
  %54 = fadd double %50, %53
  %55 = or i64 %33, 5
  %56 = getelementptr inbounds double, ptr %7, i64 %55
  %57 = load double, ptr %56, align 8, !tbaa !26
  %58 = fadd double %54, %57
  %59 = or i64 %33, 6
  %60 = getelementptr inbounds double, ptr %7, i64 %59
  %61 = load double, ptr %60, align 8, !tbaa !26
  %62 = fadd double %58, %61
  %63 = or i64 %33, 7
  %64 = getelementptr inbounds double, ptr %7, i64 %63
  %65 = load double, ptr %64, align 8, !tbaa !26
  %66 = fadd double %62, %65
  %67 = add nuw nsw i64 %33, 8
  %68 = add i64 %35, 8
  %69 = icmp eq i64 %68, %12
  br i1 %69, label %13, label %32
}

; Function Attrs: sspstrong uwtable
define weak_odr dso_local noundef double @_ZNK6dealii6VectorIdE7l1_normEv(ptr noundef nonnull align 8 dereferenceable(88) %0) local_unnamed_addr #2 comdat align 2 {
  %2 = getelementptr inbounds %"class.dealii::Vector", ptr %0, i64 0, i32 1
  %3 = load i32, ptr %2, align 8, !tbaa !8
  %4 = icmp eq i32 %3, 0
  br i1 %4, label %29, label %5

5:                                                ; preds = %1
  %6 = getelementptr inbounds %"class.dealii::Vector", ptr %0, i64 0, i32 3
  %7 = load ptr, ptr %6, align 8, !tbaa !24
  %8 = zext i32 %3 to i64
  %9 = and i64 %8, 3
  %10 = icmp ult i32 %3, 4
  br i1 %10, label %13, label %11

11:                                               ; preds = %5
  %12 = and i64 %8, 4294967292
  br label %31

13:                                               ; preds = %31, %5
  %14 = phi double [ undef, %5 ], [ %53, %31 ]
  %15 = phi i64 [ 0, %5 ], [ %54, %31 ]
  %16 = phi double [ 0.000000e+00, %5 ], [ %53, %31 ]
  %17 = icmp eq i64 %9, 0
  br i1 %17, label %29, label %18

18:                                               ; preds = %13, %18
  %19 = phi i64 [ %26, %18 ], [ %15, %13 ]
  %20 = phi double [ %25, %18 ], [ %16, %13 ]
  %21 = phi i64 [ %27, %18 ], [ 0, %13 ]
  %22 = getelementptr inbounds double, ptr %7, i64 %19
  %23 = load double, ptr %22, align 8, !tbaa !26
  %24 = tail call double @llvm.fabs.f64(double %23)
  %25 = fadd double %20, %24
  %26 = add nuw nsw i64 %19, 1
  %27 = add i64 %21, 1
  %28 = icmp eq i64 %27, %9
  br i1 %28, label %29, label %18, !llvm.loop !49

29:                                               ; preds = %13, %18, %1
  %30 = phi double [ 0.000000e+00, %1 ], [ %14, %13 ], [ %25, %18 ]
  ret double %30

31:                                               ; preds = %31, %11
  %32 = phi i64 [ 0, %11 ], [ %54, %31 ]
  %33 = phi double [ 0.000000e+00, %11 ], [ %53, %31 ]
  %34 = phi i64 [ 0, %11 ], [ %55, %31 ]
  %35 = getelementptr inbounds double, ptr %7, i64 %32
  %36 = load double, ptr %35, align 8, !tbaa !26
  %37 = tail call double @llvm.fabs.f64(double %36)
  %38 = fadd double %33, %37
  %39 = or i64 %32, 1
  %40 = getelementptr inbounds double, ptr %7, i64 %39
  %41 = load double, ptr %40, align 8, !tbaa !26
  %42 = tail call double @llvm.fabs.f64(double %41)
  %43 = fadd double %38, %42
  %44 = or i64 %32, 2
  %45 = getelementptr inbounds double, ptr %7, i64 %44
  %46 = load double, ptr %45, align 8, !tbaa !26
  %47 = tail call double @llvm.fabs.f64(double %46)
  %48 = fadd double %43, %47
  %49 = or i64 %32, 3
  %50 = getelementptr inbounds double, ptr %7, i64 %49
  %51 = load double, ptr %50, align 8, !tbaa !26
  %52 = tail call double @llvm.fabs.f64(double %51)
  %53 = fadd double %48, %52
  %54 = add nuw nsw i64 %32, 4
  %55 = add i64 %34, 4
  %56 = icmp eq i64 %55, %12
  br i1 %56, label %13, label %31
}

; Function Attrs: sspstrong uwtable
define weak_odr dso_local noundef double @_ZNK6dealii6VectorIdE7l2_normEv(ptr noundef nonnull align 8 dereferenceable(88) %0) local_unnamed_addr #2 comdat align 2 {
  %2 = getelementptr inbounds %"class.dealii::Vector", ptr %0, i64 0, i32 1
  %3 = load i32, ptr %2, align 8, !tbaa !8
  %4 = icmp eq i32 %3, 0
  br i1 %4, label %55, label %5

5:                                                ; preds = %1
  %6 = getelementptr inbounds %"class.dealii::Vector", ptr %0, i64 0, i32 3
  %7 = load ptr, ptr %6, align 8, !tbaa !24
  %8 = zext i32 %3 to i64
  %9 = and i64 %8, 3
  %10 = icmp ult i32 %3, 4
  br i1 %10, label %39, label %11

11:                                               ; preds = %5
  %12 = and i64 %8, 4294967292
  br label %13

13:                                               ; preds = %13, %11
  %14 = phi i64 [ 0, %11 ], [ %36, %13 ]
  %15 = phi double [ 0.000000e+00, %11 ], [ %35, %13 ]
  %16 = phi i64 [ 0, %11 ], [ %37, %13 ]
  %17 = getelementptr inbounds double, ptr %7, i64 %14
  %18 = load double, ptr %17, align 8, !tbaa !26
  %19 = fmul double %18, %18
  %20 = fadd double %15, %19
  %21 = or i64 %14, 1
  %22 = getelementptr inbounds double, ptr %7, i64 %21
  %23 = load double, ptr %22, align 8, !tbaa !26
  %24 = fmul double %23, %23
  %25 = fadd double %20, %24
  %26 = or i64 %14, 2
  %27 = getelementptr inbounds double, ptr %7, i64 %26
  %28 = load double, ptr %27, align 8, !tbaa !26
  %29 = fmul double %28, %28
  %30 = fadd double %25, %29
  %31 = or i64 %14, 3
  %32 = getelementptr inbounds double, ptr %7, i64 %31
  %33 = load double, ptr %32, align 8, !tbaa !26
  %34 = fmul double %33, %33
  %35 = fadd double %30, %34
  %36 = add nuw nsw i64 %14, 4
  %37 = add i64 %16, 4
  %38 = icmp eq i64 %37, %12
  br i1 %38, label %39, label %13

39:                                               ; preds = %13, %5
  %40 = phi double [ undef, %5 ], [ %35, %13 ]
  %41 = phi i64 [ 0, %5 ], [ %36, %13 ]
  %42 = phi double [ 0.000000e+00, %5 ], [ %35, %13 ]
  %43 = icmp eq i64 %9, 0
  br i1 %43, label %55, label %44

44:                                               ; preds = %39, %44
  %45 = phi i64 [ %52, %44 ], [ %41, %39 ]
  %46 = phi double [ %51, %44 ], [ %42, %39 ]
  %47 = phi i64 [ %53, %44 ], [ 0, %39 ]
  %48 = getelementptr inbounds double, ptr %7, i64 %45
  %49 = load double, ptr %48, align 8, !tbaa !26
  %50 = fmul double %49, %49
  %51 = fadd double %46, %50
  %52 = add nuw nsw i64 %45, 1
  %53 = add i64 %47, 1
  %54 = icmp eq i64 %53, %9
  br i1 %54, label %55, label %44, !llvm.loop !50

55:                                               ; preds = %39, %44, %1
  %56 = phi double [ 0.000000e+00, %1 ], [ %40, %39 ], [ %51, %44 ]
  %57 = tail call double @sqrt(double noundef %56) #24
  ret double %57
}

; Function Attrs: mustprogress nofree nounwind willreturn memory(write)
declare double @sqrt(double noundef) local_unnamed_addr #8

; Function Attrs: sspstrong uwtable
define weak_odr dso_local noundef double @_ZNK6dealii6VectorIdE7lp_normEd(ptr noundef nonnull align 8 dereferenceable(88) %0, double noundef %1) local_unnamed_addr #2 comdat align 2 {
  %3 = getelementptr inbounds %"class.dealii::Vector", ptr %0, i64 0, i32 1
  %4 = load i32, ptr %3, align 8, !tbaa !8
  %5 = icmp eq i32 %4, 0
  br i1 %5, label %8, label %6

6:                                                ; preds = %2
  %7 = getelementptr inbounds %"class.dealii::Vector", ptr %0, i64 0, i32 3
  br label %12

8:                                                ; preds = %12, %2
  %9 = phi double [ 0.000000e+00, %2 ], [ %20, %12 ]
  %10 = fdiv double 1.000000e+00, %1
  %11 = tail call double @pow(double noundef %9, double noundef %10) #24
  ret double %11

12:                                               ; preds = %6, %12
  %13 = phi i64 [ 0, %6 ], [ %21, %12 ]
  %14 = phi double [ 0.000000e+00, %6 ], [ %20, %12 ]
  %15 = load ptr, ptr %7, align 8, !tbaa !24
  %16 = getelementptr inbounds double, ptr %15, i64 %13
  %17 = load double, ptr %16, align 8, !tbaa !26
  %18 = tail call double @llvm.fabs.f64(double %17)
  %19 = tail call double @pow(double noundef %18, double noundef %1) #24
  %20 = fadd double %14, %19
  %21 = add nuw nsw i64 %13, 1
  %22 = load i32, ptr %3, align 8, !tbaa !8
  %23 = zext i32 %22 to i64
  %24 = icmp ult i64 %21, %23
  br i1 %24, label %12, label %8
}

; Function Attrs: mustprogress nofree nounwind willreturn memory(write)
declare double @pow(double noundef, double noundef) local_unnamed_addr #8

; Function Attrs: sspstrong uwtable
define weak_odr dso_local noundef double @_ZNK6dealii6VectorIdE11linfty_normEv(ptr noundef nonnull align 8 dereferenceable(88) %0) local_unnamed_addr #2 comdat align 2 {
  %2 = getelementptr inbounds %"class.dealii::Vector", ptr %0, i64 0, i32 1
  %3 = load i32, ptr %2, align 8, !tbaa !8
  %4 = icmp eq i32 %3, 0
  br i1 %4, label %30, label %5

5:                                                ; preds = %1
  %6 = getelementptr inbounds %"class.dealii::Vector", ptr %0, i64 0, i32 3
  %7 = load ptr, ptr %6, align 8, !tbaa !24
  %8 = zext i32 %3 to i64
  %9 = and i64 %8, 3
  %10 = icmp ult i32 %3, 4
  br i1 %10, label %13, label %11

11:                                               ; preds = %5
  %12 = and i64 %8, 4294967292
  br label %32

13:                                               ; preds = %32, %5
  %14 = phi double [ undef, %5 ], [ %58, %32 ]
  %15 = phi i64 [ 0, %5 ], [ %59, %32 ]
  %16 = phi double [ 0.000000e+00, %5 ], [ %58, %32 ]
  %17 = icmp eq i64 %9, 0
  br i1 %17, label %30, label %18

18:                                               ; preds = %13, %18
  %19 = phi i64 [ %27, %18 ], [ %15, %13 ]
  %20 = phi double [ %26, %18 ], [ %16, %13 ]
  %21 = phi i64 [ %28, %18 ], [ 0, %13 ]
  %22 = getelementptr inbounds double, ptr %7, i64 %19
  %23 = load double, ptr %22, align 8, !tbaa !26
  %24 = tail call double @llvm.fabs.f64(double %23)
  %25 = fcmp olt double %24, %20
  %26 = select i1 %25, double %20, double %24
  %27 = add nuw nsw i64 %19, 1
  %28 = add i64 %21, 1
  %29 = icmp eq i64 %28, %9
  br i1 %29, label %30, label %18, !llvm.loop !51

30:                                               ; preds = %13, %18, %1
  %31 = phi double [ 0.000000e+00, %1 ], [ %14, %13 ], [ %26, %18 ]
  ret double %31

32:                                               ; preds = %32, %11
  %33 = phi i64 [ 0, %11 ], [ %59, %32 ]
  %34 = phi double [ 0.000000e+00, %11 ], [ %58, %32 ]
  %35 = phi i64 [ 0, %11 ], [ %60, %32 ]
  %36 = getelementptr inbounds double, ptr %7, i64 %33
  %37 = load double, ptr %36, align 8, !tbaa !26
  %38 = tail call double @llvm.fabs.f64(double %37)
  %39 = fcmp olt double %38, %34
  %40 = select i1 %39, double %34, double %38
  %41 = or i64 %33, 1
  %42 = getelementptr inbounds double, ptr %7, i64 %41
  %43 = load double, ptr %42, align 8, !tbaa !26
  %44 = tail call double @llvm.fabs.f64(double %43)
  %45 = fcmp olt double %44, %40
  %46 = select i1 %45, double %40, double %44
  %47 = or i64 %33, 2
  %48 = getelementptr inbounds double, ptr %7, i64 %47
  %49 = load double, ptr %48, align 8, !tbaa !26
  %50 = tail call double @llvm.fabs.f64(double %49)
  %51 = fcmp olt double %50, %46
  %52 = select i1 %51, double %46, double %50
  %53 = or i64 %33, 3
  %54 = getelementptr inbounds double, ptr %7, i64 %53
  %55 = load double, ptr %54, align 8, !tbaa !26
  %56 = tail call double @llvm.fabs.f64(double %55)
  %57 = fcmp olt double %56, %52
  %58 = select i1 %57, double %52, double %56
  %59 = add nuw nsw i64 %33, 4
  %60 = add i64 %35, 4
  %61 = icmp eq i64 %60, %12
  br i1 %61, label %13, label %32
}

; Function Attrs: nounwind sspstrong uwtable
define weak_odr dso_local noundef zeroext i1 @_ZNK6dealii6VectorIdE8all_zeroEv(ptr noundef nonnull align 8 dereferenceable(88) %0) local_unnamed_addr #9 comdat align 2 {
  %2 = getelementptr inbounds %"class.dealii::Vector", ptr %0, i64 0, i32 1
  %3 = load i32, ptr %2, align 8, !tbaa !8
  %4 = icmp eq i32 %3, 0
  br i1 %4, label %21, label %5

5:                                                ; preds = %1
  %6 = getelementptr inbounds %"class.dealii::Vector", ptr %0, i64 0, i32 3
  %7 = load ptr, ptr %6, align 8, !tbaa !24
  %8 = zext i32 %3 to i64
  %9 = load double, ptr %7, align 8, !tbaa !26
  %10 = fcmp une double %9, 0.000000e+00
  br i1 %10, label %21, label %11

11:                                               ; preds = %5, %15
  %12 = phi i64 [ %13, %15 ], [ 0, %5 ]
  %13 = add nuw nsw i64 %12, 1
  %14 = icmp eq i64 %13, %8
  br i1 %14, label %19, label %15

15:                                               ; preds = %11
  %16 = getelementptr inbounds double, ptr %7, i64 %13
  %17 = load double, ptr %16, align 8, !tbaa !26
  %18 = fcmp une double %17, 0.000000e+00
  br i1 %18, label %19, label %11

19:                                               ; preds = %11, %15
  %20 = icmp uge i64 %13, %8
  br label %21

21:                                               ; preds = %19, %5, %1
  %22 = phi i1 [ true, %1 ], [ false, %5 ], [ %20, %19 ]
  ret i1 %22
}

; Function Attrs: sspstrong uwtable
define weak_odr dso_local noundef zeroext i1 @_ZNK6dealii6VectorIdE15is_non_negativeEv(ptr noundef nonnull align 8 dereferenceable(88) %0) local_unnamed_addr #2 comdat align 2 {
  %2 = getelementptr inbounds %"class.dealii::Vector", ptr %0, i64 0, i32 1
  %3 = load i32, ptr %2, align 8, !tbaa !8
  %4 = icmp eq i32 %3, 0
  br i1 %4, label %21, label %5

5:                                                ; preds = %1
  %6 = getelementptr inbounds %"class.dealii::Vector", ptr %0, i64 0, i32 3
  %7 = load ptr, ptr %6, align 8, !tbaa !24
  %8 = zext i32 %3 to i64
  %9 = load double, ptr %7, align 8, !tbaa !26
  %10 = fcmp ult double %9, 0.000000e+00
  br i1 %10, label %21, label %11

11:                                               ; preds = %5, %15
  %12 = phi i64 [ %13, %15 ], [ 0, %5 ]
  %13 = add nuw nsw i64 %12, 1
  %14 = icmp eq i64 %13, %8
  br i1 %14, label %19, label %15

15:                                               ; preds = %11
  %16 = getelementptr inbounds double, ptr %7, i64 %13
  %17 = load double, ptr %16, align 8, !tbaa !26
  %18 = fcmp ult double %17, 0.000000e+00
  br i1 %18, label %19, label %11

19:                                               ; preds = %11, %15
  %20 = icmp uge i64 %13, %8
  br label %21

21:                                               ; preds = %19, %5, %1
  %22 = phi i1 [ true, %1 ], [ false, %5 ], [ %20, %19 ]
  ret i1 %22
}

; Function Attrs: inlinehint nounwind sspstrong uwtable
define weak_odr dso_local noundef nonnull align 8 dereferenceable(8) ptr @_ZN6dealii6VectorIdEclEj(ptr noundef nonnull align 8 dereferenceable(88) %0, i32 noundef %1) local_unnamed_addr #3 comdat align 2 {
  %3 = getelementptr inbounds %"class.dealii::Vector", ptr %0, i64 0, i32 3
  %4 = load ptr, ptr %3, align 8, !tbaa !24
  %5 = zext i32 %1 to i64
  %6 = getelementptr inbounds double, ptr %4, i64 %5
  ret ptr %6
}

; Function Attrs: sspstrong uwtable
define weak_odr dso_local noundef nonnull align 8 dereferenceable(88) ptr @_ZN6dealii6VectorIdEpLERKS1_(ptr noundef nonnull align 8 dereferenceable(88) %0, ptr noundef nonnull align 8 dereferenceable(88) %1) local_unnamed_addr #2 comdat align 2 {
  %3 = getelementptr inbounds %"class.dealii::Vector", ptr %0, i64 0, i32 1
  %4 = load i32, ptr %3, align 8, !tbaa !8
  %5 = icmp eq i32 %4, 0
  br i1 %5, label %95, label %6

6:                                                ; preds = %2
  %7 = getelementptr inbounds %"class.dealii::Vector", ptr %1, i64 0, i32 3
  %8 = load ptr, ptr %7, align 8, !tbaa !24
  %9 = getelementptr inbounds %"class.dealii::Vector", ptr %0, i64 0, i32 3
  %10 = load ptr, ptr %9, align 8, !tbaa !24
  %11 = zext i32 %4 to i64
  %12 = icmp ult i32 %4, 16
  br i1 %12, label %48, label %13

13:                                               ; preds = %6
  %14 = shl nuw nsw i64 %11, 3
  %15 = getelementptr i8, ptr %10, i64 %14
  %16 = getelementptr i8, ptr %8, i64 %14
  %17 = icmp ult ptr %10, %16
  %18 = icmp ult ptr %8, %15
  %19 = and i1 %17, %18
  br i1 %19, label %48, label %20

20:                                               ; preds = %13
  %21 = and i64 %11, 4294967280
  br label %22

22:                                               ; preds = %22, %20
  %23 = phi i64 [ 0, %20 ], [ %44, %22 ]
  %24 = getelementptr inbounds double, ptr %8, i64 %23
  %25 = load <4 x double>, ptr %24, align 8, !tbaa !26, !alias.scope !52
  %26 = getelementptr inbounds double, ptr %24, i64 4
  %27 = load <4 x double>, ptr %26, align 8, !tbaa !26, !alias.scope !52
  %28 = getelementptr inbounds double, ptr %24, i64 8
  %29 = load <4 x double>, ptr %28, align 8, !tbaa !26, !alias.scope !52
  %30 = getelementptr inbounds double, ptr %24, i64 12
  %31 = load <4 x double>, ptr %30, align 8, !tbaa !26, !alias.scope !52
  %32 = getelementptr inbounds double, ptr %10, i64 %23
  %33 = load <4 x double>, ptr %32, align 8, !tbaa !26, !alias.scope !55, !noalias !52
  %34 = getelementptr inbounds double, ptr %32, i64 4
  %35 = load <4 x double>, ptr %34, align 8, !tbaa !26, !alias.scope !55, !noalias !52
  %36 = getelementptr inbounds double, ptr %32, i64 8
  %37 = load <4 x double>, ptr %36, align 8, !tbaa !26, !alias.scope !55, !noalias !52
  %38 = getelementptr inbounds double, ptr %32, i64 12
  %39 = load <4 x double>, ptr %38, align 8, !tbaa !26, !alias.scope !55, !noalias !52
  %40 = fadd <4 x double> %25, %33
  %41 = fadd <4 x double> %27, %35
  %42 = fadd <4 x double> %29, %37
  %43 = fadd <4 x double> %31, %39
  store <4 x double> %40, ptr %32, align 8, !tbaa !26, !alias.scope !55, !noalias !52
  store <4 x double> %41, ptr %34, align 8, !tbaa !26, !alias.scope !55, !noalias !52
  store <4 x double> %42, ptr %36, align 8, !tbaa !26, !alias.scope !55, !noalias !52
  store <4 x double> %43, ptr %38, align 8, !tbaa !26, !alias.scope !55, !noalias !52
  %44 = add nuw i64 %23, 16
  %45 = icmp eq i64 %44, %21
  br i1 %45, label %46, label %22, !llvm.loop !57

46:                                               ; preds = %22
  %47 = icmp eq i64 %21, %11
  br i1 %47, label %95, label %48

48:                                               ; preds = %13, %6, %46
  %49 = phi i64 [ 0, %13 ], [ 0, %6 ], [ %21, %46 ]
  %50 = xor i64 %49, -1
  %51 = add nsw i64 %50, %11
  %52 = and i64 %11, 3
  %53 = icmp eq i64 %52, 0
  br i1 %53, label %65, label %54

54:                                               ; preds = %48, %54
  %55 = phi i64 [ %62, %54 ], [ %49, %48 ]
  %56 = phi i64 [ %63, %54 ], [ 0, %48 ]
  %57 = getelementptr inbounds double, ptr %8, i64 %55
  %58 = load double, ptr %57, align 8, !tbaa !26
  %59 = getelementptr inbounds double, ptr %10, i64 %55
  %60 = load double, ptr %59, align 8, !tbaa !26
  %61 = fadd double %58, %60
  store double %61, ptr %59, align 8, !tbaa !26
  %62 = add nuw nsw i64 %55, 1
  %63 = add i64 %56, 1
  %64 = icmp eq i64 %63, %52
  br i1 %64, label %65, label %54, !llvm.loop !58

65:                                               ; preds = %54, %48
  %66 = phi i64 [ %49, %48 ], [ %62, %54 ]
  %67 = icmp ult i64 %51, 3
  br i1 %67, label %95, label %68

68:                                               ; preds = %65, %68
  %69 = phi i64 [ %93, %68 ], [ %66, %65 ]
  %70 = getelementptr inbounds double, ptr %8, i64 %69
  %71 = load double, ptr %70, align 8, !tbaa !26
  %72 = getelementptr inbounds double, ptr %10, i64 %69
  %73 = load double, ptr %72, align 8, !tbaa !26
  %74 = fadd double %71, %73
  store double %74, ptr %72, align 8, !tbaa !26
  %75 = add nuw nsw i64 %69, 1
  %76 = getelementptr inbounds double, ptr %8, i64 %75
  %77 = load double, ptr %76, align 8, !tbaa !26
  %78 = getelementptr inbounds double, ptr %10, i64 %75
  %79 = load double, ptr %78, align 8, !tbaa !26
  %80 = fadd double %77, %79
  store double %80, ptr %78, align 8, !tbaa !26
  %81 = add nuw nsw i64 %69, 2
  %82 = getelementptr inbounds double, ptr %8, i64 %81
  %83 = load double, ptr %82, align 8, !tbaa !26
  %84 = getelementptr inbounds double, ptr %10, i64 %81
  %85 = load double, ptr %84, align 8, !tbaa !26
  %86 = fadd double %83, %85
  store double %86, ptr %84, align 8, !tbaa !26
  %87 = add nuw nsw i64 %69, 3
  %88 = getelementptr inbounds double, ptr %8, i64 %87
  %89 = load double, ptr %88, align 8, !tbaa !26
  %90 = getelementptr inbounds double, ptr %10, i64 %87
  %91 = load double, ptr %90, align 8, !tbaa !26
  %92 = fadd double %89, %91
  store double %92, ptr %90, align 8, !tbaa !26
  %93 = add nuw nsw i64 %69, 4
  %94 = icmp eq i64 %93, %11
  br i1 %94, label %95, label %68, !llvm.loop !59

95:                                               ; preds = %65, %68, %46, %2
  ret ptr %0
}

; Function Attrs: nounwind sspstrong uwtable
define weak_odr dso_local void @_ZN6dealii6VectorIdE3addERKS1_(ptr noundef nonnull align 8 dereferenceable(88) %0, ptr noundef nonnull align 8 dereferenceable(88) %1) local_unnamed_addr #9 comdat align 2 {
  %3 = getelementptr inbounds %"class.dealii::Vector", ptr %0, i64 0, i32 1
  %4 = load i32, ptr %3, align 8, !tbaa !8
  %5 = icmp eq i32 %4, 0
  br i1 %5, label %68, label %6

6:                                                ; preds = %2
  %7 = getelementptr inbounds %"class.dealii::Vector", ptr %1, i64 0, i32 3
  %8 = load ptr, ptr %7, align 8, !tbaa !24
  %9 = getelementptr inbounds %"class.dealii::Vector", ptr %0, i64 0, i32 3
  %10 = load ptr, ptr %9, align 8, !tbaa !24
  %11 = zext i32 %4 to i64
  %12 = icmp ult i32 %4, 16
  br i1 %12, label %48, label %13

13:                                               ; preds = %6
  %14 = shl nuw nsw i64 %11, 3
  %15 = getelementptr i8, ptr %10, i64 %14
  %16 = getelementptr i8, ptr %8, i64 %14
  %17 = icmp ult ptr %10, %16
  %18 = icmp ult ptr %8, %15
  %19 = and i1 %17, %18
  br i1 %19, label %48, label %20

20:                                               ; preds = %13
  %21 = and i64 %11, 4294967280
  br label %22

22:                                               ; preds = %22, %20
  %23 = phi i64 [ 0, %20 ], [ %44, %22 ]
  %24 = getelementptr inbounds double, ptr %8, i64 %23
  %25 = load <4 x double>, ptr %24, align 8, !tbaa !26, !alias.scope !60
  %26 = getelementptr inbounds double, ptr %24, i64 4
  %27 = load <4 x double>, ptr %26, align 8, !tbaa !26, !alias.scope !60
  %28 = getelementptr inbounds double, ptr %24, i64 8
  %29 = load <4 x double>, ptr %28, align 8, !tbaa !26, !alias.scope !60
  %30 = getelementptr inbounds double, ptr %24, i64 12
  %31 = load <4 x double>, ptr %30, align 8, !tbaa !26, !alias.scope !60
  %32 = getelementptr inbounds double, ptr %10, i64 %23
  %33 = load <4 x double>, ptr %32, align 8, !tbaa !26, !alias.scope !63, !noalias !60
  %34 = getelementptr inbounds double, ptr %32, i64 4
  %35 = load <4 x double>, ptr %34, align 8, !tbaa !26, !alias.scope !63, !noalias !60
  %36 = getelementptr inbounds double, ptr %32, i64 8
  %37 = load <4 x double>, ptr %36, align 8, !tbaa !26, !alias.scope !63, !noalias !60
  %38 = getelementptr inbounds double, ptr %32, i64 12
  %39 = load <4 x double>, ptr %38, align 8, !tbaa !26, !alias.scope !63, !noalias !60
  %40 = fadd <4 x double> %25, %33
  %41 = fadd <4 x double> %27, %35
  %42 = fadd <4 x double> %29, %37
  %43 = fadd <4 x double> %31, %39
  store <4 x double> %40, ptr %32, align 8, !tbaa !26, !alias.scope !63, !noalias !60
  store <4 x double> %41, ptr %34, align 8, !tbaa !26, !alias.scope !63, !noalias !60
  store <4 x double> %42, ptr %36, align 8, !tbaa !26, !alias.scope !63, !noalias !60
  store <4 x double> %43, ptr %38, align 8, !tbaa !26, !alias.scope !63, !noalias !60
  %44 = add nuw i64 %23, 16
  %45 = icmp eq i64 %44, %21
  br i1 %45, label %46, label %22, !llvm.loop !65

46:                                               ; preds = %22
  %47 = icmp eq i64 %21, %11
  br i1 %47, label %68, label %48

48:                                               ; preds = %13, %6, %46
  %49 = phi i64 [ 0, %13 ], [ 0, %6 ], [ %21, %46 ]
  %50 = xor i64 %49, -1
  %51 = add nsw i64 %50, %11
  %52 = and i64 %11, 3
  %53 = icmp eq i64 %52, 0
  br i1 %53, label %65, label %54

54:                                               ; preds = %48, %54
  %55 = phi i64 [ %62, %54 ], [ %49, %48 ]
  %56 = phi i64 [ %63, %54 ], [ 0, %48 ]
  %57 = getelementptr inbounds double, ptr %8, i64 %55
  %58 = load double, ptr %57, align 8, !tbaa !26
  %59 = getelementptr inbounds double, ptr %10, i64 %55
  %60 = load double, ptr %59, align 8, !tbaa !26
  %61 = fadd double %58, %60
  store double %61, ptr %59, align 8, !tbaa !26
  %62 = add nuw nsw i64 %55, 1
  %63 = add i64 %56, 1
  %64 = icmp eq i64 %63, %52
  br i1 %64, label %65, label %54, !llvm.loop !66

65:                                               ; preds = %54, %48
  %66 = phi i64 [ %49, %48 ], [ %62, %54 ]
  %67 = icmp ult i64 %51, 3
  br i1 %67, label %68, label %69

68:                                               ; preds = %65, %69, %46, %2
  ret void

69:                                               ; preds = %65, %69
  %70 = phi i64 [ %94, %69 ], [ %66, %65 ]
  %71 = getelementptr inbounds double, ptr %8, i64 %70
  %72 = load double, ptr %71, align 8, !tbaa !26
  %73 = getelementptr inbounds double, ptr %10, i64 %70
  %74 = load double, ptr %73, align 8, !tbaa !26
  %75 = fadd double %72, %74
  store double %75, ptr %73, align 8, !tbaa !26
  %76 = add nuw nsw i64 %70, 1
  %77 = getelementptr inbounds double, ptr %8, i64 %76
  %78 = load double, ptr %77, align 8, !tbaa !26
  %79 = getelementptr inbounds double, ptr %10, i64 %76
  %80 = load double, ptr %79, align 8, !tbaa !26
  %81 = fadd double %78, %80
  store double %81, ptr %79, align 8, !tbaa !26
  %82 = add nuw nsw i64 %70, 2
  %83 = getelementptr inbounds double, ptr %8, i64 %82
  %84 = load double, ptr %83, align 8, !tbaa !26
  %85 = getelementptr inbounds double, ptr %10, i64 %82
  %86 = load double, ptr %85, align 8, !tbaa !26
  %87 = fadd double %84, %86
  store double %87, ptr %85, align 8, !tbaa !26
  %88 = add nuw nsw i64 %70, 3
  %89 = getelementptr inbounds double, ptr %8, i64 %88
  %90 = load double, ptr %89, align 8, !tbaa !26
  %91 = getelementptr inbounds double, ptr %10, i64 %88
  %92 = load double, ptr %91, align 8, !tbaa !26
  %93 = fadd double %90, %92
  store double %93, ptr %91, align 8, !tbaa !26
  %94 = add nuw nsw i64 %70, 4
  %95 = icmp eq i64 %94, %11
  br i1 %95, label %68, label %69, !llvm.loop !67
}

; Function Attrs: nounwind sspstrong uwtable
define weak_odr dso_local noundef nonnull align 8 dereferenceable(88) ptr @_ZN6dealii6VectorIdEmIERKS1_(ptr noundef nonnull align 8 dereferenceable(88) %0, ptr noundef nonnull align 8 dereferenceable(88) %1) local_unnamed_addr #9 comdat align 2 {
  %3 = getelementptr inbounds %"class.dealii::Vector", ptr %0, i64 0, i32 1
  %4 = load i32, ptr %3, align 8, !tbaa !8
  %5 = icmp eq i32 %4, 0
  br i1 %5, label %68, label %6

6:                                                ; preds = %2
  %7 = getelementptr inbounds %"class.dealii::Vector", ptr %1, i64 0, i32 3
  %8 = load ptr, ptr %7, align 8, !tbaa !24
  %9 = getelementptr inbounds %"class.dealii::Vector", ptr %0, i64 0, i32 3
  %10 = load ptr, ptr %9, align 8, !tbaa !24
  %11 = zext i32 %4 to i64
  %12 = icmp ult i32 %4, 16
  br i1 %12, label %48, label %13

13:                                               ; preds = %6
  %14 = shl nuw nsw i64 %11, 3
  %15 = getelementptr i8, ptr %10, i64 %14
  %16 = getelementptr i8, ptr %8, i64 %14
  %17 = icmp ult ptr %10, %16
  %18 = icmp ult ptr %8, %15
  %19 = and i1 %17, %18
  br i1 %19, label %48, label %20

20:                                               ; preds = %13
  %21 = and i64 %11, 4294967280
  br label %22

22:                                               ; preds = %22, %20
  %23 = phi i64 [ 0, %20 ], [ %44, %22 ]
  %24 = getelementptr inbounds double, ptr %8, i64 %23
  %25 = load <4 x double>, ptr %24, align 8, !tbaa !26, !alias.scope !68
  %26 = getelementptr inbounds double, ptr %24, i64 4
  %27 = load <4 x double>, ptr %26, align 8, !tbaa !26, !alias.scope !68
  %28 = getelementptr inbounds double, ptr %24, i64 8
  %29 = load <4 x double>, ptr %28, align 8, !tbaa !26, !alias.scope !68
  %30 = getelementptr inbounds double, ptr %24, i64 12
  %31 = load <4 x double>, ptr %30, align 8, !tbaa !26, !alias.scope !68
  %32 = getelementptr inbounds double, ptr %10, i64 %23
  %33 = load <4 x double>, ptr %32, align 8, !tbaa !26, !alias.scope !71, !noalias !68
  %34 = getelementptr inbounds double, ptr %32, i64 4
  %35 = load <4 x double>, ptr %34, align 8, !tbaa !26, !alias.scope !71, !noalias !68
  %36 = getelementptr inbounds double, ptr %32, i64 8
  %37 = load <4 x double>, ptr %36, align 8, !tbaa !26, !alias.scope !71, !noalias !68
  %38 = getelementptr inbounds double, ptr %32, i64 12
  %39 = load <4 x double>, ptr %38, align 8, !tbaa !26, !alias.scope !71, !noalias !68
  %40 = fsub <4 x double> %33, %25
  %41 = fsub <4 x double> %35, %27
  %42 = fsub <4 x double> %37, %29
  %43 = fsub <4 x double> %39, %31
  store <4 x double> %40, ptr %32, align 8, !tbaa !26, !alias.scope !71, !noalias !68
  store <4 x double> %41, ptr %34, align 8, !tbaa !26, !alias.scope !71, !noalias !68
  store <4 x double> %42, ptr %36, align 8, !tbaa !26, !alias.scope !71, !noalias !68
  store <4 x double> %43, ptr %38, align 8, !tbaa !26, !alias.scope !71, !noalias !68
  %44 = add nuw i64 %23, 16
  %45 = icmp eq i64 %44, %21
  br i1 %45, label %46, label %22, !llvm.loop !73

46:                                               ; preds = %22
  %47 = icmp eq i64 %21, %11
  br i1 %47, label %68, label %48

48:                                               ; preds = %13, %6, %46
  %49 = phi i64 [ 0, %13 ], [ 0, %6 ], [ %21, %46 ]
  %50 = xor i64 %49, -1
  %51 = add nsw i64 %50, %11
  %52 = and i64 %11, 3
  %53 = icmp eq i64 %52, 0
  br i1 %53, label %65, label %54

54:                                               ; preds = %48, %54
  %55 = phi i64 [ %62, %54 ], [ %49, %48 ]
  %56 = phi i64 [ %63, %54 ], [ 0, %48 ]
  %57 = getelementptr inbounds double, ptr %8, i64 %55
  %58 = load double, ptr %57, align 8, !tbaa !26
  %59 = getelementptr inbounds double, ptr %10, i64 %55
  %60 = load double, ptr %59, align 8, !tbaa !26
  %61 = fsub double %60, %58
  store double %61, ptr %59, align 8, !tbaa !26
  %62 = add nuw nsw i64 %55, 1
  %63 = add i64 %56, 1
  %64 = icmp eq i64 %63, %52
  br i1 %64, label %65, label %54, !llvm.loop !74

65:                                               ; preds = %54, %48
  %66 = phi i64 [ %49, %48 ], [ %62, %54 ]
  %67 = icmp ult i64 %51, 3
  br i1 %67, label %68, label %69

68:                                               ; preds = %65, %69, %46, %2
  ret ptr %0

69:                                               ; preds = %65, %69
  %70 = phi i64 [ %94, %69 ], [ %66, %65 ]
  %71 = getelementptr inbounds double, ptr %8, i64 %70
  %72 = load double, ptr %71, align 8, !tbaa !26
  %73 = getelementptr inbounds double, ptr %10, i64 %70
  %74 = load double, ptr %73, align 8, !tbaa !26
  %75 = fsub double %74, %72
  store double %75, ptr %73, align 8, !tbaa !26
  %76 = add nuw nsw i64 %70, 1
  %77 = getelementptr inbounds double, ptr %8, i64 %76
  %78 = load double, ptr %77, align 8, !tbaa !26
  %79 = getelementptr inbounds double, ptr %10, i64 %76
  %80 = load double, ptr %79, align 8, !tbaa !26
  %81 = fsub double %80, %78
  store double %81, ptr %79, align 8, !tbaa !26
  %82 = add nuw nsw i64 %70, 2
  %83 = getelementptr inbounds double, ptr %8, i64 %82
  %84 = load double, ptr %83, align 8, !tbaa !26
  %85 = getelementptr inbounds double, ptr %10, i64 %82
  %86 = load double, ptr %85, align 8, !tbaa !26
  %87 = fsub double %86, %84
  store double %87, ptr %85, align 8, !tbaa !26
  %88 = add nuw nsw i64 %70, 3
  %89 = getelementptr inbounds double, ptr %8, i64 %88
  %90 = load double, ptr %89, align 8, !tbaa !26
  %91 = getelementptr inbounds double, ptr %10, i64 %88
  %92 = load double, ptr %91, align 8, !tbaa !26
  %93 = fsub double %92, %90
  store double %93, ptr %91, align 8, !tbaa !26
  %94 = add nuw nsw i64 %70, 4
  %95 = icmp eq i64 %94, %11
  br i1 %95, label %68, label %69, !llvm.loop !75
}

; Function Attrs: nounwind sspstrong uwtable
define weak_odr dso_local void @_ZN6dealii6VectorIdE3addEd(ptr noundef nonnull align 8 dereferenceable(88) %0, double noundef %1) local_unnamed_addr #9 comdat align 2 {
  %3 = getelementptr inbounds %"class.dealii::Vector", ptr %0, i64 0, i32 1
  %4 = load i32, ptr %3, align 8, !tbaa !8
  %5 = icmp eq i32 %4, 0
  br i1 %5, label %41, label %6

6:                                                ; preds = %2
  %7 = getelementptr inbounds %"class.dealii::Vector", ptr %0, i64 0, i32 3
  %8 = load ptr, ptr %7, align 8, !tbaa !24
  %9 = zext i32 %4 to i64
  %10 = icmp ult i32 %4, 16
  br i1 %10, label %39, label %11

11:                                               ; preds = %6
  %12 = and i64 %9, 4294967280
  %13 = insertelement <4 x double> poison, double %1, i64 0
  %14 = shufflevector <4 x double> %13, <4 x double> poison, <4 x i32> zeroinitializer
  %15 = insertelement <4 x double> poison, double %1, i64 0
  %16 = shufflevector <4 x double> %15, <4 x double> poison, <4 x i32> zeroinitializer
  %17 = insertelement <4 x double> poison, double %1, i64 0
  %18 = shufflevector <4 x double> %17, <4 x double> poison, <4 x i32> zeroinitializer
  %19 = insertelement <4 x double> poison, double %1, i64 0
  %20 = shufflevector <4 x double> %19, <4 x double> poison, <4 x i32> zeroinitializer
  br label %21

21:                                               ; preds = %21, %11
  %22 = phi i64 [ 0, %11 ], [ %35, %21 ]
  %23 = getelementptr inbounds double, ptr %8, i64 %22
  %24 = load <4 x double>, ptr %23, align 8, !tbaa !26
  %25 = getelementptr inbounds double, ptr %23, i64 4
  %26 = load <4 x double>, ptr %25, align 8, !tbaa !26
  %27 = getelementptr inbounds double, ptr %23, i64 8
  %28 = load <4 x double>, ptr %27, align 8, !tbaa !26
  %29 = getelementptr inbounds double, ptr %23, i64 12
  %30 = load <4 x double>, ptr %29, align 8, !tbaa !26
  %31 = fadd <4 x double> %24, %14
  %32 = fadd <4 x double> %26, %16
  %33 = fadd <4 x double> %28, %18
  %34 = fadd <4 x double> %30, %20
  store <4 x double> %31, ptr %23, align 8, !tbaa !26
  store <4 x double> %32, ptr %25, align 8, !tbaa !26
  store <4 x double> %33, ptr %27, align 8, !tbaa !26
  store <4 x double> %34, ptr %29, align 8, !tbaa !26
  %35 = add nuw i64 %22, 16
  %36 = icmp eq i64 %35, %12
  br i1 %36, label %37, label %21, !llvm.loop !76

37:                                               ; preds = %21
  %38 = icmp eq i64 %12, %9
  br i1 %38, label %41, label %39

39:                                               ; preds = %6, %37
  %40 = phi i64 [ 0, %6 ], [ %12, %37 ]
  br label %42

41:                                               ; preds = %42, %37, %2
  ret void

42:                                               ; preds = %39, %42
  %43 = phi i64 [ %47, %42 ], [ %40, %39 ]
  %44 = getelementptr inbounds double, ptr %8, i64 %43
  %45 = load double, ptr %44, align 8, !tbaa !26
  %46 = fadd double %45, %1
  store double %46, ptr %44, align 8, !tbaa !26
  %47 = add nuw nsw i64 %43, 1
  %48 = icmp eq i64 %47, %9
  br i1 %48, label %41, label %42, !llvm.loop !77
}

; Function Attrs: inlinehint nounwind sspstrong uwtable
define weak_odr dso_local void @_ZN6dealii6VectorIdE3addEdRKS1_(ptr noundef nonnull align 8 dereferenceable(88) %0, double noundef %1, ptr noundef nonnull align 8 dereferenceable(88) %2) local_unnamed_addr #3 comdat align 2 {
  %4 = getelementptr inbounds %"class.dealii::Vector", ptr %0, i64 0, i32 3
  %5 = load ptr, ptr %4, align 8, !tbaa !24
  %6 = getelementptr inbounds %"class.dealii::Vector", ptr %0, i64 0, i32 1
  %7 = load i32, ptr %6, align 8, !tbaa !8
  %8 = zext i32 %7 to i64
  %9 = getelementptr inbounds double, ptr %5, i64 %8
  %10 = icmp eq i32 %7, 0
  br i1 %10, label %79, label %11

11:                                               ; preds = %3
  %12 = getelementptr inbounds %"class.dealii::Vector", ptr %2, i64 0, i32 3
  %13 = load ptr, ptr %12, align 8, !tbaa !24
  %14 = add nuw nsw i64 %8, 2305843009213693951
  %15 = and i64 %14, 2305843009213693951
  %16 = add nuw nsw i64 %15, 1
  %17 = icmp ult i64 %15, 15
  br i1 %17, label %67, label %18

18:                                               ; preds = %11
  %19 = shl nuw nsw i64 %8, 3
  %20 = getelementptr i8, ptr %5, i64 %19
  %21 = getelementptr i8, ptr %13, i64 %19
  %22 = icmp ult ptr %5, %21
  %23 = icmp ult ptr %13, %20
  %24 = and i1 %22, %23
  br i1 %24, label %67, label %25

25:                                               ; preds = %18
  %26 = and i64 %16, 4611686018427387888
  %27 = shl i64 %26, 3
  %28 = getelementptr i8, ptr %13, i64 %27
  %29 = shl i64 %26, 3
  %30 = getelementptr i8, ptr %5, i64 %29
  %31 = insertelement <4 x double> poison, double %1, i64 0
  %32 = shufflevector <4 x double> %31, <4 x double> poison, <4 x i32> zeroinitializer
  %33 = insertelement <4 x double> poison, double %1, i64 0
  %34 = shufflevector <4 x double> %33, <4 x double> poison, <4 x i32> zeroinitializer
  %35 = insertelement <4 x double> poison, double %1, i64 0
  %36 = shufflevector <4 x double> %35, <4 x double> poison, <4 x i32> zeroinitializer
  %37 = insertelement <4 x double> poison, double %1, i64 0
  %38 = shufflevector <4 x double> %37, <4 x double> poison, <4 x i32> zeroinitializer
  br label %39

39:                                               ; preds = %39, %25
  %40 = phi i64 [ 0, %25 ], [ %63, %39 ]
  %41 = shl i64 %40, 3
  %42 = getelementptr i8, ptr %13, i64 %41
  %43 = shl i64 %40, 3
  %44 = getelementptr i8, ptr %5, i64 %43
  %45 = load <4 x double>, ptr %42, align 8, !tbaa !26, !alias.scope !78
  %46 = getelementptr double, ptr %42, i64 4
  %47 = load <4 x double>, ptr %46, align 8, !tbaa !26, !alias.scope !78
  %48 = getelementptr double, ptr %42, i64 8
  %49 = load <4 x double>, ptr %48, align 8, !tbaa !26, !alias.scope !78
  %50 = getelementptr double, ptr %42, i64 12
  %51 = load <4 x double>, ptr %50, align 8, !tbaa !26, !alias.scope !78
  %52 = load <4 x double>, ptr %44, align 8, !tbaa !26, !alias.scope !81, !noalias !78
  %53 = getelementptr double, ptr %44, i64 4
  %54 = load <4 x double>, ptr %53, align 8, !tbaa !26, !alias.scope !81, !noalias !78
  %55 = getelementptr double, ptr %44, i64 8
  %56 = load <4 x double>, ptr %55, align 8, !tbaa !26, !alias.scope !81, !noalias !78
  %57 = getelementptr double, ptr %44, i64 12
  %58 = load <4 x double>, ptr %57, align 8, !tbaa !26, !alias.scope !81, !noalias !78
  %59 = tail call <4 x double> @llvm.fmuladd.v4f64(<4 x double> %32, <4 x double> %45, <4 x double> %52)
  %60 = tail call <4 x double> @llvm.fmuladd.v4f64(<4 x double> %34, <4 x double> %47, <4 x double> %54)
  %61 = tail call <4 x double> @llvm.fmuladd.v4f64(<4 x double> %36, <4 x double> %49, <4 x double> %56)
  %62 = tail call <4 x double> @llvm.fmuladd.v4f64(<4 x double> %38, <4 x double> %51, <4 x double> %58)
  store <4 x double> %59, ptr %44, align 8, !tbaa !26, !alias.scope !81, !noalias !78
  store <4 x double> %60, ptr %53, align 8, !tbaa !26, !alias.scope !81, !noalias !78
  store <4 x double> %61, ptr %55, align 8, !tbaa !26, !alias.scope !81, !noalias !78
  store <4 x double> %62, ptr %57, align 8, !tbaa !26, !alias.scope !81, !noalias !78
  %63 = add nuw i64 %40, 16
  %64 = icmp eq i64 %63, %26
  br i1 %64, label %65, label %39, !llvm.loop !83

65:                                               ; preds = %39
  %66 = icmp eq i64 %16, %26
  br i1 %66, label %79, label %67

67:                                               ; preds = %18, %11, %65
  %68 = phi ptr [ %13, %18 ], [ %13, %11 ], [ %28, %65 ]
  %69 = phi ptr [ %5, %18 ], [ %5, %11 ], [ %30, %65 ]
  br label %70

70:                                               ; preds = %67, %70
  %71 = phi ptr [ %73, %70 ], [ %68, %67 ]
  %72 = phi ptr [ %75, %70 ], [ %69, %67 ]
  %73 = getelementptr inbounds double, ptr %71, i64 1
  %74 = load double, ptr %71, align 8, !tbaa !26
  %75 = getelementptr inbounds double, ptr %72, i64 1
  %76 = load double, ptr %72, align 8, !tbaa !26
  %77 = tail call double @llvm.fmuladd.f64(double %1, double %74, double %76)
  store double %77, ptr %72, align 8, !tbaa !26
  %78 = icmp eq ptr %75, %9
  br i1 %78, label %79, label %70, !llvm.loop !84

79:                                               ; preds = %70, %65, %3
  ret void
}

; Function Attrs: mustprogress nocallback nofree nosync nounwind speculatable willreturn memory(none)
declare double @llvm.fmuladd.f64(double, double, double) #10

; Function Attrs: nounwind sspstrong uwtable
define weak_odr dso_local void @_ZN6dealii6VectorIdE3addEdRKS1_dS3_(ptr noundef nonnull align 8 dereferenceable(88) %0, double noundef %1, ptr noundef nonnull align 8 dereferenceable(88) %2, double noundef %3, ptr noundef nonnull align 8 dereferenceable(88) %4) local_unnamed_addr #9 comdat align 2 {
  %6 = getelementptr inbounds %"class.dealii::Vector", ptr %0, i64 0, i32 1
  %7 = load i32, ptr %6, align 8, !tbaa !8
  %8 = icmp eq i32 %7, 0
  br i1 %8, label %110, label %9

9:                                                ; preds = %5
  %10 = getelementptr inbounds %"class.dealii::Vector", ptr %2, i64 0, i32 3
  %11 = load ptr, ptr %10, align 8, !tbaa !24
  %12 = getelementptr inbounds %"class.dealii::Vector", ptr %4, i64 0, i32 3
  %13 = load ptr, ptr %12, align 8, !tbaa !24
  %14 = getelementptr inbounds %"class.dealii::Vector", ptr %0, i64 0, i32 3
  %15 = load ptr, ptr %14, align 8, !tbaa !24
  %16 = zext i32 %7 to i64
  %17 = icmp ult i32 %7, 16
  br i1 %17, label %90, label %18

18:                                               ; preds = %9
  %19 = shl nuw nsw i64 %16, 3
  %20 = getelementptr i8, ptr %15, i64 %19
  %21 = getelementptr i8, ptr %11, i64 %19
  %22 = getelementptr i8, ptr %13, i64 %19
  %23 = icmp ult ptr %15, %21
  %24 = icmp ult ptr %11, %20
  %25 = and i1 %23, %24
  %26 = icmp ult ptr %15, %22
  %27 = icmp ult ptr %13, %20
  %28 = and i1 %26, %27
  %29 = or i1 %25, %28
  br i1 %29, label %90, label %30

30:                                               ; preds = %18
  %31 = and i64 %16, 4294967280
  %32 = insertelement <4 x double> poison, double %3, i64 0
  %33 = shufflevector <4 x double> %32, <4 x double> poison, <4 x i32> zeroinitializer
  %34 = insertelement <4 x double> poison, double %3, i64 0
  %35 = shufflevector <4 x double> %34, <4 x double> poison, <4 x i32> zeroinitializer
  %36 = insertelement <4 x double> poison, double %3, i64 0
  %37 = shufflevector <4 x double> %36, <4 x double> poison, <4 x i32> zeroinitializer
  %38 = insertelement <4 x double> poison, double %3, i64 0
  %39 = shufflevector <4 x double> %38, <4 x double> poison, <4 x i32> zeroinitializer
  %40 = insertelement <4 x double> poison, double %1, i64 0
  %41 = shufflevector <4 x double> %40, <4 x double> poison, <4 x i32> zeroinitializer
  %42 = insertelement <4 x double> poison, double %1, i64 0
  %43 = shufflevector <4 x double> %42, <4 x double> poison, <4 x i32> zeroinitializer
  %44 = insertelement <4 x double> poison, double %1, i64 0
  %45 = shufflevector <4 x double> %44, <4 x double> poison, <4 x i32> zeroinitializer
  %46 = insertelement <4 x double> poison, double %1, i64 0
  %47 = shufflevector <4 x double> %46, <4 x double> poison, <4 x i32> zeroinitializer
  br label %48

48:                                               ; preds = %48, %30
  %49 = phi i64 [ 0, %30 ], [ %86, %48 ]
  %50 = getelementptr inbounds double, ptr %11, i64 %49
  %51 = load <4 x double>, ptr %50, align 8, !tbaa !26, !alias.scope !85
  %52 = getelementptr inbounds double, ptr %50, i64 4
  %53 = load <4 x double>, ptr %52, align 8, !tbaa !26, !alias.scope !85
  %54 = getelementptr inbounds double, ptr %50, i64 8
  %55 = load <4 x double>, ptr %54, align 8, !tbaa !26, !alias.scope !85
  %56 = getelementptr inbounds double, ptr %50, i64 12
  %57 = load <4 x double>, ptr %56, align 8, !tbaa !26, !alias.scope !85
  %58 = getelementptr inbounds double, ptr %13, i64 %49
  %59 = load <4 x double>, ptr %58, align 8, !tbaa !26, !alias.scope !88
  %60 = getelementptr inbounds double, ptr %58, i64 4
  %61 = load <4 x double>, ptr %60, align 8, !tbaa !26, !alias.scope !88
  %62 = getelementptr inbounds double, ptr %58, i64 8
  %63 = load <4 x double>, ptr %62, align 8, !tbaa !26, !alias.scope !88
  %64 = getelementptr inbounds double, ptr %58, i64 12
  %65 = load <4 x double>, ptr %64, align 8, !tbaa !26, !alias.scope !88
  %66 = fmul <4 x double> %59, %33
  %67 = fmul <4 x double> %61, %35
  %68 = fmul <4 x double> %63, %37
  %69 = fmul <4 x double> %65, %39
  %70 = tail call <4 x double> @llvm.fmuladd.v4f64(<4 x double> %41, <4 x double> %51, <4 x double> %66)
  %71 = tail call <4 x double> @llvm.fmuladd.v4f64(<4 x double> %43, <4 x double> %53, <4 x double> %67)
  %72 = tail call <4 x double> @llvm.fmuladd.v4f64(<4 x double> %45, <4 x double> %55, <4 x double> %68)
  %73 = tail call <4 x double> @llvm.fmuladd.v4f64(<4 x double> %47, <4 x double> %57, <4 x double> %69)
  %74 = getelementptr inbounds double, ptr %15, i64 %49
  %75 = load <4 x double>, ptr %74, align 8, !tbaa !26, !alias.scope !90, !noalias !92
  %76 = getelementptr inbounds double, ptr %74, i64 4
  %77 = load <4 x double>, ptr %76, align 8, !tbaa !26, !alias.scope !90, !noalias !92
  %78 = getelementptr inbounds double, ptr %74, i64 8
  %79 = load <4 x double>, ptr %78, align 8, !tbaa !26, !alias.scope !90, !noalias !92
  %80 = getelementptr inbounds double, ptr %74, i64 12
  %81 = load <4 x double>, ptr %80, align 8, !tbaa !26, !alias.scope !90, !noalias !92
  %82 = fadd <4 x double> %75, %70
  %83 = fadd <4 x double> %77, %71
  %84 = fadd <4 x double> %79, %72
  %85 = fadd <4 x double> %81, %73
  store <4 x double> %82, ptr %74, align 8, !tbaa !26, !alias.scope !90, !noalias !92
  store <4 x double> %83, ptr %76, align 8, !tbaa !26, !alias.scope !90, !noalias !92
  store <4 x double> %84, ptr %78, align 8, !tbaa !26, !alias.scope !90, !noalias !92
  store <4 x double> %85, ptr %80, align 8, !tbaa !26, !alias.scope !90, !noalias !92
  %86 = add nuw i64 %49, 16
  %87 = icmp eq i64 %86, %31
  br i1 %87, label %88, label %48, !llvm.loop !93

88:                                               ; preds = %48
  %89 = icmp eq i64 %31, %16
  br i1 %89, label %110, label %90

90:                                               ; preds = %18, %9, %88
  %91 = phi i64 [ 0, %18 ], [ 0, %9 ], [ %31, %88 ]
  %92 = xor i64 %91, -1
  %93 = and i64 %16, 1
  %94 = icmp eq i64 %93, 0
  br i1 %94, label %106, label %95

95:                                               ; preds = %90
  %96 = getelementptr inbounds double, ptr %11, i64 %91
  %97 = load double, ptr %96, align 8, !tbaa !26
  %98 = getelementptr inbounds double, ptr %13, i64 %91
  %99 = load double, ptr %98, align 8, !tbaa !26
  %100 = fmul double %99, %3
  %101 = tail call double @llvm.fmuladd.f64(double %1, double %97, double %100)
  %102 = getelementptr inbounds double, ptr %15, i64 %91
  %103 = load double, ptr %102, align 8, !tbaa !26
  %104 = fadd double %103, %101
  store double %104, ptr %102, align 8, !tbaa !26
  %105 = or i64 %91, 1
  br label %106

106:                                              ; preds = %95, %90
  %107 = phi i64 [ %91, %90 ], [ %105, %95 ]
  %108 = sub nsw i64 0, %16
  %109 = icmp eq i64 %92, %108
  br i1 %109, label %110, label %111

110:                                              ; preds = %106, %111, %88, %5
  ret void

111:                                              ; preds = %106, %111
  %112 = phi i64 [ %132, %111 ], [ %107, %106 ]
  %113 = getelementptr inbounds double, ptr %11, i64 %112
  %114 = load double, ptr %113, align 8, !tbaa !26
  %115 = getelementptr inbounds double, ptr %13, i64 %112
  %116 = load double, ptr %115, align 8, !tbaa !26
  %117 = fmul double %116, %3
  %118 = tail call double @llvm.fmuladd.f64(double %1, double %114, double %117)
  %119 = getelementptr inbounds double, ptr %15, i64 %112
  %120 = load double, ptr %119, align 8, !tbaa !26
  %121 = fadd double %120, %118
  store double %121, ptr %119, align 8, !tbaa !26
  %122 = add nuw nsw i64 %112, 1
  %123 = getelementptr inbounds double, ptr %11, i64 %122
  %124 = load double, ptr %123, align 8, !tbaa !26
  %125 = getelementptr inbounds double, ptr %13, i64 %122
  %126 = load double, ptr %125, align 8, !tbaa !26
  %127 = fmul double %126, %3
  %128 = tail call double @llvm.fmuladd.f64(double %1, double %124, double %127)
  %129 = getelementptr inbounds double, ptr %15, i64 %122
  %130 = load double, ptr %129, align 8, !tbaa !26
  %131 = fadd double %130, %128
  store double %131, ptr %129, align 8, !tbaa !26
  %132 = add nuw nsw i64 %112, 2
  %133 = icmp eq i64 %132, %16
  br i1 %133, label %110, label %111, !llvm.loop !94
}

; Function Attrs: nounwind sspstrong uwtable
define weak_odr dso_local void @_ZN6dealii6VectorIdE4saddEdRKS1_(ptr noundef nonnull align 8 dereferenceable(88) %0, double noundef %1, ptr noundef nonnull align 8 dereferenceable(88) %2) local_unnamed_addr #9 comdat align 2 {
  %4 = getelementptr inbounds %"class.dealii::Vector", ptr %0, i64 0, i32 1
  %5 = load i32, ptr %4, align 8, !tbaa !8
  %6 = icmp eq i32 %5, 0
  br i1 %6, label %73, label %7

7:                                                ; preds = %3
  %8 = getelementptr inbounds %"class.dealii::Vector", ptr %0, i64 0, i32 3
  %9 = load ptr, ptr %8, align 8, !tbaa !24
  %10 = getelementptr inbounds %"class.dealii::Vector", ptr %2, i64 0, i32 3
  %11 = load ptr, ptr %10, align 8, !tbaa !24
  %12 = zext i32 %5 to i64
  %13 = icmp ult i32 %5, 16
  br i1 %13, label %57, label %14

14:                                               ; preds = %7
  %15 = shl nuw nsw i64 %12, 3
  %16 = getelementptr i8, ptr %9, i64 %15
  %17 = getelementptr i8, ptr %11, i64 %15
  %18 = icmp ult ptr %9, %17
  %19 = icmp ult ptr %11, %16
  %20 = and i1 %18, %19
  br i1 %20, label %57, label %21

21:                                               ; preds = %14
  %22 = and i64 %12, 4294967280
  %23 = insertelement <4 x double> poison, double %1, i64 0
  %24 = shufflevector <4 x double> %23, <4 x double> poison, <4 x i32> zeroinitializer
  %25 = insertelement <4 x double> poison, double %1, i64 0
  %26 = shufflevector <4 x double> %25, <4 x double> poison, <4 x i32> zeroinitializer
  %27 = insertelement <4 x double> poison, double %1, i64 0
  %28 = shufflevector <4 x double> %27, <4 x double> poison, <4 x i32> zeroinitializer
  %29 = insertelement <4 x double> poison, double %1, i64 0
  %30 = shufflevector <4 x double> %29, <4 x double> poison, <4 x i32> zeroinitializer
  br label %31

31:                                               ; preds = %31, %21
  %32 = phi i64 [ 0, %21 ], [ %53, %31 ]
  %33 = getelementptr inbounds double, ptr %9, i64 %32
  %34 = load <4 x double>, ptr %33, align 8, !tbaa !26, !alias.scope !95, !noalias !98
  %35 = getelementptr inbounds double, ptr %33, i64 4
  %36 = load <4 x double>, ptr %35, align 8, !tbaa !26, !alias.scope !95, !noalias !98
  %37 = getelementptr inbounds double, ptr %33, i64 8
  %38 = load <4 x double>, ptr %37, align 8, !tbaa !26, !alias.scope !95, !noalias !98
  %39 = getelementptr inbounds double, ptr %33, i64 12
  %40 = load <4 x double>, ptr %39, align 8, !tbaa !26, !alias.scope !95, !noalias !98
  %41 = getelementptr inbounds double, ptr %11, i64 %32
  %42 = load <4 x double>, ptr %41, align 8, !tbaa !26, !alias.scope !98
  %43 = getelementptr inbounds double, ptr %41, i64 4
  %44 = load <4 x double>, ptr %43, align 8, !tbaa !26, !alias.scope !98
  %45 = getelementptr inbounds double, ptr %41, i64 8
  %46 = load <4 x double>, ptr %45, align 8, !tbaa !26, !alias.scope !98
  %47 = getelementptr inbounds double, ptr %41, i64 12
  %48 = load <4 x double>, ptr %47, align 8, !tbaa !26, !alias.scope !98
  %49 = tail call <4 x double> @llvm.fmuladd.v4f64(<4 x double> %24, <4 x double> %34, <4 x double> %42)
  %50 = tail call <4 x double> @llvm.fmuladd.v4f64(<4 x double> %26, <4 x double> %36, <4 x double> %44)
  %51 = tail call <4 x double> @llvm.fmuladd.v4f64(<4 x double> %28, <4 x double> %38, <4 x double> %46)
  %52 = tail call <4 x double> @llvm.fmuladd.v4f64(<4 x double> %30, <4 x double> %40, <4 x double> %48)
  store <4 x double> %49, ptr %33, align 8, !tbaa !26, !alias.scope !95, !noalias !98
  store <4 x double> %50, ptr %35, align 8, !tbaa !26, !alias.scope !95, !noalias !98
  store <4 x double> %51, ptr %37, align 8, !tbaa !26, !alias.scope !95, !noalias !98
  store <4 x double> %52, ptr %39, align 8, !tbaa !26, !alias.scope !95, !noalias !98
  %53 = add nuw i64 %32, 16
  %54 = icmp eq i64 %53, %22
  br i1 %54, label %55, label %31, !llvm.loop !100

55:                                               ; preds = %31
  %56 = icmp eq i64 %22, %12
  br i1 %56, label %73, label %57

57:                                               ; preds = %14, %7, %55
  %58 = phi i64 [ 0, %14 ], [ 0, %7 ], [ %22, %55 ]
  %59 = xor i64 %58, -1
  %60 = and i64 %12, 1
  %61 = icmp eq i64 %60, 0
  br i1 %61, label %69, label %62

62:                                               ; preds = %57
  %63 = getelementptr inbounds double, ptr %9, i64 %58
  %64 = load double, ptr %63, align 8, !tbaa !26
  %65 = getelementptr inbounds double, ptr %11, i64 %58
  %66 = load double, ptr %65, align 8, !tbaa !26
  %67 = tail call double @llvm.fmuladd.f64(double %1, double %64, double %66)
  store double %67, ptr %63, align 8, !tbaa !26
  %68 = or i64 %58, 1
  br label %69

69:                                               ; preds = %62, %57
  %70 = phi i64 [ %58, %57 ], [ %68, %62 ]
  %71 = sub nsw i64 0, %12
  %72 = icmp eq i64 %59, %71
  br i1 %72, label %73, label %74

73:                                               ; preds = %69, %74, %55, %3
  ret void

74:                                               ; preds = %69, %74
  %75 = phi i64 [ %87, %74 ], [ %70, %69 ]
  %76 = getelementptr inbounds double, ptr %9, i64 %75
  %77 = load double, ptr %76, align 8, !tbaa !26
  %78 = getelementptr inbounds double, ptr %11, i64 %75
  %79 = load double, ptr %78, align 8, !tbaa !26
  %80 = tail call double @llvm.fmuladd.f64(double %1, double %77, double %79)
  store double %80, ptr %76, align 8, !tbaa !26
  %81 = add nuw nsw i64 %75, 1
  %82 = getelementptr inbounds double, ptr %9, i64 %81
  %83 = load double, ptr %82, align 8, !tbaa !26
  %84 = getelementptr inbounds double, ptr %11, i64 %81
  %85 = load double, ptr %84, align 8, !tbaa !26
  %86 = tail call double @llvm.fmuladd.f64(double %1, double %83, double %85)
  store double %86, ptr %82, align 8, !tbaa !26
  %87 = add nuw nsw i64 %75, 2
  %88 = icmp eq i64 %87, %12
  br i1 %88, label %73, label %74, !llvm.loop !101
}

; Function Attrs: inlinehint nounwind sspstrong uwtable
define weak_odr dso_local void @_ZN6dealii6VectorIdE4saddEddRKS1_(ptr noundef nonnull align 8 dereferenceable(88) %0, double noundef %1, double noundef %2, ptr noundef nonnull align 8 dereferenceable(88) %3) local_unnamed_addr #3 comdat align 2 {
  %5 = getelementptr inbounds %"class.dealii::Vector", ptr %0, i64 0, i32 3
  %6 = load ptr, ptr %5, align 8, !tbaa !24
  %7 = getelementptr inbounds %"class.dealii::Vector", ptr %0, i64 0, i32 1
  %8 = load i32, ptr %7, align 8, !tbaa !8
  %9 = zext i32 %8 to i64
  %10 = getelementptr inbounds double, ptr %6, i64 %9
  %11 = icmp eq i32 %8, 0
  br i1 %11, label %93, label %12

12:                                               ; preds = %4
  %13 = getelementptr inbounds %"class.dealii::Vector", ptr %3, i64 0, i32 3
  %14 = load ptr, ptr %13, align 8, !tbaa !24
  %15 = add nuw nsw i64 %9, 2305843009213693951
  %16 = and i64 %15, 2305843009213693951
  %17 = add nuw nsw i64 %16, 1
  %18 = icmp ult i64 %16, 15
  br i1 %18, label %80, label %19

19:                                               ; preds = %12
  %20 = shl nuw nsw i64 %9, 3
  %21 = getelementptr i8, ptr %6, i64 %20
  %22 = getelementptr i8, ptr %14, i64 %20
  %23 = icmp ult ptr %6, %22
  %24 = icmp ult ptr %14, %21
  %25 = and i1 %23, %24
  br i1 %25, label %80, label %26

26:                                               ; preds = %19
  %27 = and i64 %17, 4611686018427387888
  %28 = shl i64 %27, 3
  %29 = getelementptr i8, ptr %14, i64 %28
  %30 = shl i64 %27, 3
  %31 = getelementptr i8, ptr %6, i64 %30
  %32 = insertelement <4 x double> poison, double %2, i64 0
  %33 = shufflevector <4 x double> %32, <4 x double> poison, <4 x i32> zeroinitializer
  %34 = insertelement <4 x double> poison, double %2, i64 0
  %35 = shufflevector <4 x double> %34, <4 x double> poison, <4 x i32> zeroinitializer
  %36 = insertelement <4 x double> poison, double %2, i64 0
  %37 = shufflevector <4 x double> %36, <4 x double> poison, <4 x i32> zeroinitializer
  %38 = insertelement <4 x double> poison, double %2, i64 0
  %39 = shufflevector <4 x double> %38, <4 x double> poison, <4 x i32> zeroinitializer
  %40 = insertelement <4 x double> poison, double %1, i64 0
  %41 = shufflevector <4 x double> %40, <4 x double> poison, <4 x i32> zeroinitializer
  %42 = insertelement <4 x double> poison, double %1, i64 0
  %43 = shufflevector <4 x double> %42, <4 x double> poison, <4 x i32> zeroinitializer
  %44 = insertelement <4 x double> poison, double %1, i64 0
  %45 = shufflevector <4 x double> %44, <4 x double> poison, <4 x i32> zeroinitializer
  %46 = insertelement <4 x double> poison, double %1, i64 0
  %47 = shufflevector <4 x double> %46, <4 x double> poison, <4 x i32> zeroinitializer
  br label %48

48:                                               ; preds = %48, %26
  %49 = phi i64 [ 0, %26 ], [ %76, %48 ]
  %50 = shl i64 %49, 3
  %51 = getelementptr i8, ptr %14, i64 %50
  %52 = shl i64 %49, 3
  %53 = getelementptr i8, ptr %6, i64 %52
  %54 = load <4 x double>, ptr %53, align 8, !tbaa !26, !alias.scope !102, !noalias !105
  %55 = getelementptr double, ptr %53, i64 4
  %56 = load <4 x double>, ptr %55, align 8, !tbaa !26, !alias.scope !102, !noalias !105
  %57 = getelementptr double, ptr %53, i64 8
  %58 = load <4 x double>, ptr %57, align 8, !tbaa !26, !alias.scope !102, !noalias !105
  %59 = getelementptr double, ptr %53, i64 12
  %60 = load <4 x double>, ptr %59, align 8, !tbaa !26, !alias.scope !102, !noalias !105
  %61 = load <4 x double>, ptr %51, align 8, !tbaa !26, !alias.scope !105
  %62 = getelementptr double, ptr %51, i64 4
  %63 = load <4 x double>, ptr %62, align 8, !tbaa !26, !alias.scope !105
  %64 = getelementptr double, ptr %51, i64 8
  %65 = load <4 x double>, ptr %64, align 8, !tbaa !26, !alias.scope !105
  %66 = getelementptr double, ptr %51, i64 12
  %67 = load <4 x double>, ptr %66, align 8, !tbaa !26, !alias.scope !105
  %68 = fmul <4 x double> %61, %33
  %69 = fmul <4 x double> %63, %35
  %70 = fmul <4 x double> %65, %37
  %71 = fmul <4 x double> %67, %39
  %72 = tail call <4 x double> @llvm.fmuladd.v4f64(<4 x double> %41, <4 x double> %54, <4 x double> %68)
  %73 = tail call <4 x double> @llvm.fmuladd.v4f64(<4 x double> %43, <4 x double> %56, <4 x double> %69)
  %74 = tail call <4 x double> @llvm.fmuladd.v4f64(<4 x double> %45, <4 x double> %58, <4 x double> %70)
  %75 = tail call <4 x double> @llvm.fmuladd.v4f64(<4 x double> %47, <4 x double> %60, <4 x double> %71)
  store <4 x double> %72, ptr %53, align 8, !tbaa !26, !alias.scope !102, !noalias !105
  store <4 x double> %73, ptr %55, align 8, !tbaa !26, !alias.scope !102, !noalias !105
  store <4 x double> %74, ptr %57, align 8, !tbaa !26, !alias.scope !102, !noalias !105
  store <4 x double> %75, ptr %59, align 8, !tbaa !26, !alias.scope !102, !noalias !105
  %76 = add nuw i64 %49, 16
  %77 = icmp eq i64 %76, %27
  br i1 %77, label %78, label %48, !llvm.loop !107

78:                                               ; preds = %48
  %79 = icmp eq i64 %17, %27
  br i1 %79, label %93, label %80

80:                                               ; preds = %19, %12, %78
  %81 = phi ptr [ %14, %19 ], [ %14, %12 ], [ %29, %78 ]
  %82 = phi ptr [ %6, %19 ], [ %6, %12 ], [ %31, %78 ]
  br label %83

83:                                               ; preds = %80, %83
  %84 = phi ptr [ %87, %83 ], [ %81, %80 ]
  %85 = phi ptr [ %91, %83 ], [ %82, %80 ]
  %86 = load double, ptr %85, align 8, !tbaa !26
  %87 = getelementptr inbounds double, ptr %84, i64 1
  %88 = load double, ptr %84, align 8, !tbaa !26
  %89 = fmul double %88, %2
  %90 = tail call double @llvm.fmuladd.f64(double %1, double %86, double %89)
  store double %90, ptr %85, align 8, !tbaa !26
  %91 = getelementptr inbounds double, ptr %85, i64 1
  %92 = icmp eq ptr %91, %10
  br i1 %92, label %93, label %83, !llvm.loop !108

93:                                               ; preds = %83, %78, %4
  ret void
}

; Function Attrs: nounwind sspstrong uwtable
define weak_odr dso_local void @_ZN6dealii6VectorIdE4saddEddRKS1_dS3_(ptr noundef nonnull align 8 dereferenceable(88) %0, double noundef %1, double noundef %2, ptr noundef nonnull align 8 dereferenceable(88) %3, double noundef %4, ptr noundef nonnull align 8 dereferenceable(88) %5) local_unnamed_addr #9 comdat align 2 {
  %7 = getelementptr inbounds %"class.dealii::Vector", ptr %0, i64 0, i32 1
  %8 = load i32, ptr %7, align 8, !tbaa !8
  %9 = icmp eq i32 %8, 0
  br i1 %9, label %74, label %10

10:                                               ; preds = %6
  %11 = getelementptr inbounds %"class.dealii::Vector", ptr %0, i64 0, i32 3
  %12 = load ptr, ptr %11, align 8, !tbaa !24
  %13 = getelementptr inbounds %"class.dealii::Vector", ptr %3, i64 0, i32 3
  %14 = load ptr, ptr %13, align 8, !tbaa !24
  %15 = getelementptr inbounds %"class.dealii::Vector", ptr %5, i64 0, i32 3
  %16 = load ptr, ptr %15, align 8, !tbaa !24
  %17 = zext i32 %8 to i64
  %18 = icmp ult i32 %8, 8
  br i1 %18, label %54, label %19

19:                                               ; preds = %10
  %20 = shl nuw nsw i64 %17, 3
  %21 = getelementptr i8, ptr %12, i64 %20
  %22 = getelementptr i8, ptr %14, i64 %20
  %23 = getelementptr i8, ptr %16, i64 %20
  %24 = icmp ult ptr %12, %22
  %25 = icmp ult ptr %14, %21
  %26 = and i1 %24, %25
  %27 = icmp ult ptr %12, %23
  %28 = icmp ult ptr %16, %21
  %29 = and i1 %27, %28
  %30 = or i1 %26, %29
  br i1 %30, label %54, label %31

31:                                               ; preds = %19
  %32 = and i64 %17, 4294967292
  %33 = insertelement <4 x double> poison, double %2, i64 0
  %34 = shufflevector <4 x double> %33, <4 x double> poison, <4 x i32> zeroinitializer
  %35 = insertelement <4 x double> poison, double %1, i64 0
  %36 = shufflevector <4 x double> %35, <4 x double> poison, <4 x i32> zeroinitializer
  %37 = insertelement <4 x double> poison, double %4, i64 0
  %38 = shufflevector <4 x double> %37, <4 x double> poison, <4 x i32> zeroinitializer
  br label %39

39:                                               ; preds = %39, %31
  %40 = phi i64 [ 0, %31 ], [ %50, %39 ]
  %41 = getelementptr inbounds double, ptr %12, i64 %40
  %42 = load <4 x double>, ptr %41, align 8, !tbaa !26, !alias.scope !109, !noalias !112
  %43 = getelementptr inbounds double, ptr %14, i64 %40
  %44 = load <4 x double>, ptr %43, align 8, !tbaa !26, !alias.scope !115
  %45 = fmul <4 x double> %44, %34
  %46 = tail call <4 x double> @llvm.fmuladd.v4f64(<4 x double> %36, <4 x double> %42, <4 x double> %45)
  %47 = getelementptr inbounds double, ptr %16, i64 %40
  %48 = load <4 x double>, ptr %47, align 8, !tbaa !26, !alias.scope !116
  %49 = tail call <4 x double> @llvm.fmuladd.v4f64(<4 x double> %38, <4 x double> %48, <4 x double> %46)
  store <4 x double> %49, ptr %41, align 8, !tbaa !26, !alias.scope !109, !noalias !112
  %50 = add nuw i64 %40, 4
  %51 = icmp eq i64 %50, %32
  br i1 %51, label %52, label %39, !llvm.loop !117

52:                                               ; preds = %39
  %53 = icmp eq i64 %32, %17
  br i1 %53, label %74, label %54

54:                                               ; preds = %19, %10, %52
  %55 = phi i64 [ 0, %19 ], [ 0, %10 ], [ %32, %52 ]
  %56 = xor i64 %55, -1
  %57 = and i64 %17, 1
  %58 = icmp eq i64 %57, 0
  br i1 %58, label %70, label %59

59:                                               ; preds = %54
  %60 = getelementptr inbounds double, ptr %12, i64 %55
  %61 = load double, ptr %60, align 8, !tbaa !26
  %62 = getelementptr inbounds double, ptr %14, i64 %55
  %63 = load double, ptr %62, align 8, !tbaa !26
  %64 = fmul double %63, %2
  %65 = tail call double @llvm.fmuladd.f64(double %1, double %61, double %64)
  %66 = getelementptr inbounds double, ptr %16, i64 %55
  %67 = load double, ptr %66, align 8, !tbaa !26
  %68 = tail call double @llvm.fmuladd.f64(double %4, double %67, double %65)
  store double %68, ptr %60, align 8, !tbaa !26
  %69 = or i64 %55, 1
  br label %70

70:                                               ; preds = %59, %54
  %71 = phi i64 [ %55, %54 ], [ %69, %59 ]
  %72 = sub nsw i64 0, %17
  %73 = icmp eq i64 %56, %72
  br i1 %73, label %74, label %75

74:                                               ; preds = %70, %75, %52, %6
  ret void

75:                                               ; preds = %70, %75
  %76 = phi i64 [ %96, %75 ], [ %71, %70 ]
  %77 = getelementptr inbounds double, ptr %12, i64 %76
  %78 = load double, ptr %77, align 8, !tbaa !26
  %79 = getelementptr inbounds double, ptr %14, i64 %76
  %80 = load double, ptr %79, align 8, !tbaa !26
  %81 = fmul double %80, %2
  %82 = tail call double @llvm.fmuladd.f64(double %1, double %78, double %81)
  %83 = getelementptr inbounds double, ptr %16, i64 %76
  %84 = load double, ptr %83, align 8, !tbaa !26
  %85 = tail call double @llvm.fmuladd.f64(double %4, double %84, double %82)
  store double %85, ptr %77, align 8, !tbaa !26
  %86 = add nuw nsw i64 %76, 1
  %87 = getelementptr inbounds double, ptr %12, i64 %86
  %88 = load double, ptr %87, align 8, !tbaa !26
  %89 = getelementptr inbounds double, ptr %14, i64 %86
  %90 = load double, ptr %89, align 8, !tbaa !26
  %91 = fmul double %90, %2
  %92 = tail call double @llvm.fmuladd.f64(double %1, double %88, double %91)
  %93 = getelementptr inbounds double, ptr %16, i64 %86
  %94 = load double, ptr %93, align 8, !tbaa !26
  %95 = tail call double @llvm.fmuladd.f64(double %4, double %94, double %92)
  store double %95, ptr %87, align 8, !tbaa !26
  %96 = add nuw nsw i64 %76, 2
  %97 = icmp eq i64 %96, %17
  br i1 %97, label %74, label %75, !llvm.loop !118
}

; Function Attrs: nounwind sspstrong uwtable
define weak_odr dso_local void @_ZN6dealii6VectorIdE4saddEddRKS1_dS3_dS3_(ptr noundef nonnull align 8 dereferenceable(88) %0, double noundef %1, double noundef %2, ptr noundef nonnull align 8 dereferenceable(88) %3, double noundef %4, ptr noundef nonnull align 8 dereferenceable(88) %5, double noundef %6, ptr noundef nonnull align 8 dereferenceable(88) %7) local_unnamed_addr #9 comdat align 2 {
  %9 = getelementptr inbounds %"class.dealii::Vector", ptr %0, i64 0, i32 1
  %10 = load i32, ptr %9, align 8, !tbaa !8
  %11 = icmp eq i32 %10, 0
  br i1 %11, label %70, label %12

12:                                               ; preds = %8
  %13 = getelementptr inbounds %"class.dealii::Vector", ptr %0, i64 0, i32 3
  %14 = load ptr, ptr %13, align 8, !tbaa !24
  %15 = getelementptr inbounds %"class.dealii::Vector", ptr %3, i64 0, i32 3
  %16 = load ptr, ptr %15, align 8, !tbaa !24
  %17 = getelementptr inbounds %"class.dealii::Vector", ptr %5, i64 0, i32 3
  %18 = load ptr, ptr %17, align 8, !tbaa !24
  %19 = getelementptr inbounds %"class.dealii::Vector", ptr %7, i64 0, i32 3
  %20 = load ptr, ptr %19, align 8, !tbaa !24
  %21 = zext i32 %10 to i64
  %22 = icmp ult i32 %10, 8
  br i1 %22, label %68, label %23

23:                                               ; preds = %12
  %24 = shl nuw nsw i64 %21, 3
  %25 = getelementptr i8, ptr %14, i64 %24
  %26 = getelementptr i8, ptr %16, i64 %24
  %27 = getelementptr i8, ptr %18, i64 %24
  %28 = getelementptr i8, ptr %20, i64 %24
  %29 = icmp ult ptr %14, %26
  %30 = icmp ult ptr %16, %25
  %31 = and i1 %29, %30
  %32 = icmp ult ptr %14, %27
  %33 = icmp ult ptr %18, %25
  %34 = and i1 %32, %33
  %35 = or i1 %31, %34
  %36 = icmp ult ptr %14, %28
  %37 = icmp ult ptr %20, %25
  %38 = and i1 %36, %37
  %39 = or i1 %35, %38
  br i1 %39, label %68, label %40

40:                                               ; preds = %23
  %41 = and i64 %21, 4294967292
  %42 = insertelement <4 x double> poison, double %2, i64 0
  %43 = shufflevector <4 x double> %42, <4 x double> poison, <4 x i32> zeroinitializer
  %44 = insertelement <4 x double> poison, double %1, i64 0
  %45 = shufflevector <4 x double> %44, <4 x double> poison, <4 x i32> zeroinitializer
  %46 = insertelement <4 x double> poison, double %4, i64 0
  %47 = shufflevector <4 x double> %46, <4 x double> poison, <4 x i32> zeroinitializer
  %48 = insertelement <4 x double> poison, double %6, i64 0
  %49 = shufflevector <4 x double> %48, <4 x double> poison, <4 x i32> zeroinitializer
  br label %50

50:                                               ; preds = %50, %40
  %51 = phi i64 [ 0, %40 ], [ %64, %50 ]
  %52 = getelementptr inbounds double, ptr %14, i64 %51
  %53 = load <4 x double>, ptr %52, align 8, !tbaa !26, !alias.scope !119, !noalias !122
  %54 = getelementptr inbounds double, ptr %16, i64 %51
  %55 = load <4 x double>, ptr %54, align 8, !tbaa !26, !alias.scope !126
  %56 = fmul <4 x double> %55, %43
  %57 = tail call <4 x double> @llvm.fmuladd.v4f64(<4 x double> %45, <4 x double> %53, <4 x double> %56)
  %58 = getelementptr inbounds double, ptr %18, i64 %51
  %59 = load <4 x double>, ptr %58, align 8, !tbaa !26, !alias.scope !127
  %60 = tail call <4 x double> @llvm.fmuladd.v4f64(<4 x double> %47, <4 x double> %59, <4 x double> %57)
  %61 = getelementptr inbounds double, ptr %20, i64 %51
  %62 = load <4 x double>, ptr %61, align 8, !tbaa !26, !alias.scope !128
  %63 = tail call <4 x double> @llvm.fmuladd.v4f64(<4 x double> %49, <4 x double> %62, <4 x double> %60)
  store <4 x double> %63, ptr %52, align 8, !tbaa !26, !alias.scope !119, !noalias !122
  %64 = add nuw i64 %51, 4
  %65 = icmp eq i64 %64, %41
  br i1 %65, label %66, label %50, !llvm.loop !129

66:                                               ; preds = %50
  %67 = icmp eq i64 %41, %21
  br i1 %67, label %70, label %68

68:                                               ; preds = %23, %12, %66
  %69 = phi i64 [ 0, %23 ], [ 0, %12 ], [ %41, %66 ]
  br label %71

70:                                               ; preds = %71, %66, %8
  ret void

71:                                               ; preds = %68, %71
  %72 = phi i64 [ %85, %71 ], [ %69, %68 ]
  %73 = getelementptr inbounds double, ptr %14, i64 %72
  %74 = load double, ptr %73, align 8, !tbaa !26
  %75 = getelementptr inbounds double, ptr %16, i64 %72
  %76 = load double, ptr %75, align 8, !tbaa !26
  %77 = fmul double %76, %2
  %78 = tail call double @llvm.fmuladd.f64(double %1, double %74, double %77)
  %79 = getelementptr inbounds double, ptr %18, i64 %72
  %80 = load double, ptr %79, align 8, !tbaa !26
  %81 = tail call double @llvm.fmuladd.f64(double %4, double %80, double %78)
  %82 = getelementptr inbounds double, ptr %20, i64 %72
  %83 = load double, ptr %82, align 8, !tbaa !26
  %84 = tail call double @llvm.fmuladd.f64(double %6, double %83, double %81)
  store double %84, ptr %73, align 8, !tbaa !26
  %85 = add nuw nsw i64 %72, 1
  %86 = icmp eq i64 %85, %21
  br i1 %86, label %70, label %71, !llvm.loop !130
}

; Function Attrs: inlinehint nounwind sspstrong uwtable
define weak_odr dso_local void @_ZN6dealii6VectorIdE5scaleEd(ptr noundef nonnull align 8 dereferenceable(88) %0, double noundef %1) local_unnamed_addr #3 comdat align 2 {
  %3 = getelementptr inbounds %"class.dealii::Vector", ptr %0, i64 0, i32 3
  %4 = load ptr, ptr %3, align 8, !tbaa !24
  %5 = getelementptr inbounds %"class.dealii::Vector", ptr %0, i64 0, i32 1
  %6 = load i32, ptr %5, align 8, !tbaa !8
  %7 = zext i32 %6 to i64
  %8 = getelementptr inbounds double, ptr %4, i64 %7
  %9 = icmp eq i32 %6, 0
  br i1 %9, label %54, label %10

10:                                               ; preds = %2
  %11 = add nuw nsw i64 %7, 2305843009213693951
  %12 = and i64 %11, 2305843009213693951
  %13 = add nuw nsw i64 %12, 1
  %14 = icmp ult i64 %12, 15
  br i1 %14, label %46, label %15

15:                                               ; preds = %10
  %16 = and i64 %13, 4611686018427387888
  %17 = shl i64 %16, 3
  %18 = getelementptr i8, ptr %4, i64 %17
  %19 = insertelement <4 x double> poison, double %1, i64 0
  %20 = shufflevector <4 x double> %19, <4 x double> poison, <4 x i32> zeroinitializer
  %21 = insertelement <4 x double> poison, double %1, i64 0
  %22 = shufflevector <4 x double> %21, <4 x double> poison, <4 x i32> zeroinitializer
  %23 = insertelement <4 x double> poison, double %1, i64 0
  %24 = shufflevector <4 x double> %23, <4 x double> poison, <4 x i32> zeroinitializer
  %25 = insertelement <4 x double> poison, double %1, i64 0
  %26 = shufflevector <4 x double> %25, <4 x double> poison, <4 x i32> zeroinitializer
  br label %27

27:                                               ; preds = %27, %15
  %28 = phi i64 [ 0, %15 ], [ %42, %27 ]
  %29 = shl i64 %28, 3
  %30 = getelementptr i8, ptr %4, i64 %29
  %31 = load <4 x double>, ptr %30, align 8, !tbaa !26
  %32 = getelementptr double, ptr %30, i64 4
  %33 = load <4 x double>, ptr %32, align 8, !tbaa !26
  %34 = getelementptr double, ptr %30, i64 8
  %35 = load <4 x double>, ptr %34, align 8, !tbaa !26
  %36 = getelementptr double, ptr %30, i64 12
  %37 = load <4 x double>, ptr %36, align 8, !tbaa !26
  %38 = fmul <4 x double> %31, %20
  %39 = fmul <4 x double> %33, %22
  %40 = fmul <4 x double> %35, %24
  %41 = fmul <4 x double> %37, %26
  store <4 x double> %38, ptr %30, align 8, !tbaa !26
  store <4 x double> %39, ptr %32, align 8, !tbaa !26
  store <4 x double> %40, ptr %34, align 8, !tbaa !26
  store <4 x double> %41, ptr %36, align 8, !tbaa !26
  %42 = add nuw i64 %28, 16
  %43 = icmp eq i64 %42, %16
  br i1 %43, label %44, label %27, !llvm.loop !131

44:                                               ; preds = %27
  %45 = icmp eq i64 %13, %16
  br i1 %45, label %54, label %46

46:                                               ; preds = %10, %44
  %47 = phi ptr [ %4, %10 ], [ %18, %44 ]
  br label %48

48:                                               ; preds = %46, %48
  %49 = phi ptr [ %50, %48 ], [ %47, %46 ]
  %50 = getelementptr inbounds double, ptr %49, i64 1
  %51 = load double, ptr %49, align 8, !tbaa !26
  %52 = fmul double %51, %1
  store double %52, ptr %49, align 8, !tbaa !26
  %53 = icmp eq ptr %50, %8
  br i1 %53, label %54, label %48, !llvm.loop !132

54:                                               ; preds = %48, %44, %2
  ret void
}

; Function Attrs: inlinehint nounwind sspstrong uwtable
define weak_odr dso_local noundef nonnull align 8 dereferenceable(88) ptr @_ZN6dealii6VectorIdEmLEd(ptr noundef nonnull align 8 dereferenceable(88) %0, double noundef %1) local_unnamed_addr #3 comdat align 2 {
  %3 = getelementptr inbounds %"class.dealii::Vector", ptr %0, i64 0, i32 3
  %4 = load ptr, ptr %3, align 8, !tbaa !24
  %5 = getelementptr inbounds %"class.dealii::Vector", ptr %0, i64 0, i32 1
  %6 = load i32, ptr %5, align 8, !tbaa !8
  %7 = zext i32 %6 to i64
  %8 = getelementptr inbounds double, ptr %4, i64 %7
  %9 = icmp eq i32 %6, 0
  br i1 %9, label %54, label %10

10:                                               ; preds = %2
  %11 = add nuw nsw i64 %7, 2305843009213693951
  %12 = and i64 %11, 2305843009213693951
  %13 = add nuw nsw i64 %12, 1
  %14 = icmp ult i64 %12, 15
  br i1 %14, label %46, label %15

15:                                               ; preds = %10
  %16 = and i64 %13, 4611686018427387888
  %17 = shl i64 %16, 3
  %18 = getelementptr i8, ptr %4, i64 %17
  %19 = insertelement <4 x double> poison, double %1, i64 0
  %20 = shufflevector <4 x double> %19, <4 x double> poison, <4 x i32> zeroinitializer
  %21 = insertelement <4 x double> poison, double %1, i64 0
  %22 = shufflevector <4 x double> %21, <4 x double> poison, <4 x i32> zeroinitializer
  %23 = insertelement <4 x double> poison, double %1, i64 0
  %24 = shufflevector <4 x double> %23, <4 x double> poison, <4 x i32> zeroinitializer
  %25 = insertelement <4 x double> poison, double %1, i64 0
  %26 = shufflevector <4 x double> %25, <4 x double> poison, <4 x i32> zeroinitializer
  br label %27

27:                                               ; preds = %27, %15
  %28 = phi i64 [ 0, %15 ], [ %42, %27 ]
  %29 = shl i64 %28, 3
  %30 = getelementptr i8, ptr %4, i64 %29
  %31 = load <4 x double>, ptr %30, align 8, !tbaa !26
  %32 = getelementptr double, ptr %30, i64 4
  %33 = load <4 x double>, ptr %32, align 8, !tbaa !26
  %34 = getelementptr double, ptr %30, i64 8
  %35 = load <4 x double>, ptr %34, align 8, !tbaa !26
  %36 = getelementptr double, ptr %30, i64 12
  %37 = load <4 x double>, ptr %36, align 8, !tbaa !26
  %38 = fmul <4 x double> %31, %20
  %39 = fmul <4 x double> %33, %22
  %40 = fmul <4 x double> %35, %24
  %41 = fmul <4 x double> %37, %26
  store <4 x double> %38, ptr %30, align 8, !tbaa !26
  store <4 x double> %39, ptr %32, align 8, !tbaa !26
  store <4 x double> %40, ptr %34, align 8, !tbaa !26
  store <4 x double> %41, ptr %36, align 8, !tbaa !26
  %42 = add nuw i64 %28, 16
  %43 = icmp eq i64 %42, %16
  br i1 %43, label %44, label %27, !llvm.loop !133

44:                                               ; preds = %27
  %45 = icmp eq i64 %13, %16
  br i1 %45, label %54, label %46

46:                                               ; preds = %10, %44
  %47 = phi ptr [ %4, %10 ], [ %18, %44 ]
  br label %48

48:                                               ; preds = %46, %48
  %49 = phi ptr [ %50, %48 ], [ %47, %46 ]
  %50 = getelementptr inbounds double, ptr %49, i64 1
  %51 = load double, ptr %49, align 8, !tbaa !26
  %52 = fmul double %51, %1
  store double %52, ptr %49, align 8, !tbaa !26
  %53 = icmp eq ptr %50, %8
  br i1 %53, label %54, label %48, !llvm.loop !134

54:                                               ; preds = %48, %44, %2
  ret ptr %0
}

; Function Attrs: inlinehint nounwind sspstrong uwtable
define weak_odr dso_local noundef nonnull align 8 dereferenceable(88) ptr @_ZN6dealii6VectorIdEdVEd(ptr noundef nonnull align 8 dereferenceable(88) %0, double noundef %1) local_unnamed_addr #3 comdat align 2 {
  %3 = fdiv double 1.000000e+00, %1
  %4 = getelementptr inbounds %"class.dealii::Vector", ptr %0, i64 0, i32 3
  %5 = load ptr, ptr %4, align 8, !tbaa !24
  %6 = getelementptr inbounds %"class.dealii::Vector", ptr %0, i64 0, i32 1
  %7 = load i32, ptr %6, align 8, !tbaa !8
  %8 = zext i32 %7 to i64
  %9 = getelementptr inbounds double, ptr %5, i64 %8
  %10 = icmp eq i32 %7, 0
  br i1 %10, label %55, label %11

11:                                               ; preds = %2
  %12 = add nuw nsw i64 %8, 2305843009213693951
  %13 = and i64 %12, 2305843009213693951
  %14 = add nuw nsw i64 %13, 1
  %15 = icmp ult i64 %13, 15
  br i1 %15, label %47, label %16

16:                                               ; preds = %11
  %17 = and i64 %14, 4611686018427387888
  %18 = shl i64 %17, 3
  %19 = getelementptr i8, ptr %5, i64 %18
  %20 = insertelement <4 x double> poison, double %3, i64 0
  %21 = shufflevector <4 x double> %20, <4 x double> poison, <4 x i32> zeroinitializer
  %22 = insertelement <4 x double> poison, double %3, i64 0
  %23 = shufflevector <4 x double> %22, <4 x double> poison, <4 x i32> zeroinitializer
  %24 = insertelement <4 x double> poison, double %3, i64 0
  %25 = shufflevector <4 x double> %24, <4 x double> poison, <4 x i32> zeroinitializer
  %26 = insertelement <4 x double> poison, double %3, i64 0
  %27 = shufflevector <4 x double> %26, <4 x double> poison, <4 x i32> zeroinitializer
  br label %28

28:                                               ; preds = %28, %16
  %29 = phi i64 [ 0, %16 ], [ %43, %28 ]
  %30 = shl i64 %29, 3
  %31 = getelementptr i8, ptr %5, i64 %30
  %32 = load <4 x double>, ptr %31, align 8, !tbaa !26
  %33 = getelementptr double, ptr %31, i64 4
  %34 = load <4 x double>, ptr %33, align 8, !tbaa !26
  %35 = getelementptr double, ptr %31, i64 8
  %36 = load <4 x double>, ptr %35, align 8, !tbaa !26
  %37 = getelementptr double, ptr %31, i64 12
  %38 = load <4 x double>, ptr %37, align 8, !tbaa !26
  %39 = fmul <4 x double> %21, %32
  %40 = fmul <4 x double> %23, %34
  %41 = fmul <4 x double> %25, %36
  %42 = fmul <4 x double> %27, %38
  store <4 x double> %39, ptr %31, align 8, !tbaa !26
  store <4 x double> %40, ptr %33, align 8, !tbaa !26
  store <4 x double> %41, ptr %35, align 8, !tbaa !26
  store <4 x double> %42, ptr %37, align 8, !tbaa !26
  %43 = add nuw i64 %29, 16
  %44 = icmp eq i64 %43, %17
  br i1 %44, label %45, label %28, !llvm.loop !135

45:                                               ; preds = %28
  %46 = icmp eq i64 %14, %17
  br i1 %46, label %55, label %47

47:                                               ; preds = %11, %45
  %48 = phi ptr [ %5, %11 ], [ %19, %45 ]
  br label %49

49:                                               ; preds = %47, %49
  %50 = phi ptr [ %51, %49 ], [ %48, %47 ]
  %51 = getelementptr inbounds double, ptr %50, i64 1
  %52 = load double, ptr %50, align 8, !tbaa !26
  %53 = fmul double %3, %52
  store double %53, ptr %50, align 8, !tbaa !26
  %54 = icmp eq ptr %51, %9
  br i1 %54, label %55, label %49, !llvm.loop !136

55:                                               ; preds = %49, %45, %2
  ret ptr %0
}

; Function Attrs: nounwind sspstrong uwtable
define weak_odr dso_local void @_ZN6dealii6VectorIdE3equEdRKS1_dS3_(ptr noundef nonnull align 8 dereferenceable(88) %0, double noundef %1, ptr noundef nonnull align 8 dereferenceable(88) %2, double noundef %3, ptr noundef nonnull align 8 dereferenceable(88) %4) local_unnamed_addr #9 comdat align 2 {
  %6 = getelementptr inbounds %"class.dealii::Vector", ptr %0, i64 0, i32 1
  %7 = load i32, ptr %6, align 8, !tbaa !8
  %8 = icmp eq i32 %7, 0
  br i1 %8, label %97, label %9

9:                                                ; preds = %5
  %10 = getelementptr inbounds %"class.dealii::Vector", ptr %2, i64 0, i32 3
  %11 = load ptr, ptr %10, align 8, !tbaa !24
  %12 = getelementptr inbounds %"class.dealii::Vector", ptr %4, i64 0, i32 3
  %13 = load ptr, ptr %12, align 8, !tbaa !24
  %14 = getelementptr inbounds %"class.dealii::Vector", ptr %0, i64 0, i32 3
  %15 = load ptr, ptr %14, align 8, !tbaa !24
  %16 = zext i32 %7 to i64
  %17 = icmp ult i32 %7, 16
  br i1 %17, label %79, label %18

18:                                               ; preds = %9
  %19 = ptrtoint ptr %15 to i64
  %20 = ptrtoint ptr %13 to i64
  %21 = ptrtoint ptr %11 to i64
  %22 = sub i64 %19, %21
  %23 = icmp ult i64 %22, 128
  %24 = sub i64 %19, %20
  %25 = icmp ult i64 %24, 128
  %26 = or i1 %23, %25
  br i1 %26, label %79, label %27

27:                                               ; preds = %18
  %28 = and i64 %16, 4294967280
  %29 = insertelement <4 x double> poison, double %3, i64 0
  %30 = shufflevector <4 x double> %29, <4 x double> poison, <4 x i32> zeroinitializer
  %31 = insertelement <4 x double> poison, double %3, i64 0
  %32 = shufflevector <4 x double> %31, <4 x double> poison, <4 x i32> zeroinitializer
  %33 = insertelement <4 x double> poison, double %3, i64 0
  %34 = shufflevector <4 x double> %33, <4 x double> poison, <4 x i32> zeroinitializer
  %35 = insertelement <4 x double> poison, double %3, i64 0
  %36 = shufflevector <4 x double> %35, <4 x double> poison, <4 x i32> zeroinitializer
  %37 = insertelement <4 x double> poison, double %1, i64 0
  %38 = shufflevector <4 x double> %37, <4 x double> poison, <4 x i32> zeroinitializer
  %39 = insertelement <4 x double> poison, double %1, i64 0
  %40 = shufflevector <4 x double> %39, <4 x double> poison, <4 x i32> zeroinitializer
  %41 = insertelement <4 x double> poison, double %1, i64 0
  %42 = shufflevector <4 x double> %41, <4 x double> poison, <4 x i32> zeroinitializer
  %43 = insertelement <4 x double> poison, double %1, i64 0
  %44 = shufflevector <4 x double> %43, <4 x double> poison, <4 x i32> zeroinitializer
  br label %45

45:                                               ; preds = %45, %27
  %46 = phi i64 [ 0, %27 ], [ %75, %45 ]
  %47 = getelementptr inbounds double, ptr %11, i64 %46
  %48 = load <4 x double>, ptr %47, align 8, !tbaa !26
  %49 = getelementptr inbounds double, ptr %47, i64 4
  %50 = load <4 x double>, ptr %49, align 8, !tbaa !26
  %51 = getelementptr inbounds double, ptr %47, i64 8
  %52 = load <4 x double>, ptr %51, align 8, !tbaa !26
  %53 = getelementptr inbounds double, ptr %47, i64 12
  %54 = load <4 x double>, ptr %53, align 8, !tbaa !26
  %55 = getelementptr inbounds double, ptr %13, i64 %46
  %56 = load <4 x double>, ptr %55, align 8, !tbaa !26
  %57 = getelementptr inbounds double, ptr %55, i64 4
  %58 = load <4 x double>, ptr %57, align 8, !tbaa !26
  %59 = getelementptr inbounds double, ptr %55, i64 8
  %60 = load <4 x double>, ptr %59, align 8, !tbaa !26
  %61 = getelementptr inbounds double, ptr %55, i64 12
  %62 = load <4 x double>, ptr %61, align 8, !tbaa !26
  %63 = fmul <4 x double> %56, %30
  %64 = fmul <4 x double> %58, %32
  %65 = fmul <4 x double> %60, %34
  %66 = fmul <4 x double> %62, %36
  %67 = tail call <4 x double> @llvm.fmuladd.v4f64(<4 x double> %38, <4 x double> %48, <4 x double> %63)
  %68 = tail call <4 x double> @llvm.fmuladd.v4f64(<4 x double> %40, <4 x double> %50, <4 x double> %64)
  %69 = tail call <4 x double> @llvm.fmuladd.v4f64(<4 x double> %42, <4 x double> %52, <4 x double> %65)
  %70 = tail call <4 x double> @llvm.fmuladd.v4f64(<4 x double> %44, <4 x double> %54, <4 x double> %66)
  %71 = getelementptr inbounds double, ptr %15, i64 %46
  store <4 x double> %67, ptr %71, align 8, !tbaa !26
  %72 = getelementptr inbounds double, ptr %71, i64 4
  store <4 x double> %68, ptr %72, align 8, !tbaa !26
  %73 = getelementptr inbounds double, ptr %71, i64 8
  store <4 x double> %69, ptr %73, align 8, !tbaa !26
  %74 = getelementptr inbounds double, ptr %71, i64 12
  store <4 x double> %70, ptr %74, align 8, !tbaa !26
  %75 = add nuw i64 %46, 16
  %76 = icmp eq i64 %75, %28
  br i1 %76, label %77, label %45, !llvm.loop !137

77:                                               ; preds = %45
  %78 = icmp eq i64 %28, %16
  br i1 %78, label %97, label %79

79:                                               ; preds = %18, %9, %77
  %80 = phi i64 [ 0, %18 ], [ 0, %9 ], [ %28, %77 ]
  %81 = xor i64 %80, -1
  %82 = and i64 %16, 1
  %83 = icmp eq i64 %82, 0
  br i1 %83, label %93, label %84

84:                                               ; preds = %79
  %85 = getelementptr inbounds double, ptr %11, i64 %80
  %86 = load double, ptr %85, align 8, !tbaa !26
  %87 = getelementptr inbounds double, ptr %13, i64 %80
  %88 = load double, ptr %87, align 8, !tbaa !26
  %89 = fmul double %88, %3
  %90 = tail call double @llvm.fmuladd.f64(double %1, double %86, double %89)
  %91 = getelementptr inbounds double, ptr %15, i64 %80
  store double %90, ptr %91, align 8, !tbaa !26
  %92 = or i64 %80, 1
  br label %93

93:                                               ; preds = %84, %79
  %94 = phi i64 [ %80, %79 ], [ %92, %84 ]
  %95 = sub nsw i64 0, %16
  %96 = icmp eq i64 %81, %95
  br i1 %96, label %97, label %98

97:                                               ; preds = %93, %98, %77, %5
  ret void

98:                                               ; preds = %93, %98
  %99 = phi i64 [ %115, %98 ], [ %94, %93 ]
  %100 = getelementptr inbounds double, ptr %11, i64 %99
  %101 = load double, ptr %100, align 8, !tbaa !26
  %102 = getelementptr inbounds double, ptr %13, i64 %99
  %103 = load double, ptr %102, align 8, !tbaa !26
  %104 = fmul double %103, %3
  %105 = tail call double @llvm.fmuladd.f64(double %1, double %101, double %104)
  %106 = getelementptr inbounds double, ptr %15, i64 %99
  store double %105, ptr %106, align 8, !tbaa !26
  %107 = add nuw nsw i64 %99, 1
  %108 = getelementptr inbounds double, ptr %11, i64 %107
  %109 = load double, ptr %108, align 8, !tbaa !26
  %110 = getelementptr inbounds double, ptr %13, i64 %107
  %111 = load double, ptr %110, align 8, !tbaa !26
  %112 = fmul double %111, %3
  %113 = tail call double @llvm.fmuladd.f64(double %1, double %109, double %112)
  %114 = getelementptr inbounds double, ptr %15, i64 %107
  store double %113, ptr %114, align 8, !tbaa !26
  %115 = add nuw nsw i64 %99, 2
  %116 = icmp eq i64 %115, %16
  br i1 %116, label %97, label %98, !llvm.loop !138
}

; Function Attrs: nounwind sspstrong uwtable
define weak_odr dso_local void @_ZN6dealii6VectorIdE3equEdRKS1_dS3_dS3_(ptr noundef nonnull align 8 dereferenceable(88) %0, double noundef %1, ptr noundef nonnull align 8 dereferenceable(88) %2, double noundef %3, ptr noundef nonnull align 8 dereferenceable(88) %4, double noundef %5, ptr noundef nonnull align 8 dereferenceable(88) %6) local_unnamed_addr #9 comdat align 2 {
  %8 = getelementptr inbounds %"class.dealii::Vector", ptr %0, i64 0, i32 1
  %9 = load i32, ptr %8, align 8, !tbaa !8
  %10 = icmp eq i32 %9, 0
  br i1 %10, label %80, label %11

11:                                               ; preds = %7
  %12 = getelementptr inbounds %"class.dealii::Vector", ptr %2, i64 0, i32 3
  %13 = load ptr, ptr %12, align 8, !tbaa !24
  %14 = getelementptr inbounds %"class.dealii::Vector", ptr %4, i64 0, i32 3
  %15 = load ptr, ptr %14, align 8, !tbaa !24
  %16 = getelementptr inbounds %"class.dealii::Vector", ptr %6, i64 0, i32 3
  %17 = load ptr, ptr %16, align 8, !tbaa !24
  %18 = getelementptr inbounds %"class.dealii::Vector", ptr %0, i64 0, i32 3
  %19 = load ptr, ptr %18, align 8, !tbaa !24
  %20 = zext i32 %9 to i64
  %21 = icmp ult i32 %9, 8
  br i1 %21, label %59, label %22

22:                                               ; preds = %11
  %23 = ptrtoint ptr %19 to i64
  %24 = ptrtoint ptr %17 to i64
  %25 = ptrtoint ptr %15 to i64
  %26 = ptrtoint ptr %13 to i64
  %27 = sub i64 %23, %26
  %28 = icmp ult i64 %27, 32
  %29 = sub i64 %23, %25
  %30 = icmp ult i64 %29, 32
  %31 = or i1 %28, %30
  %32 = sub i64 %23, %24
  %33 = icmp ult i64 %32, 32
  %34 = or i1 %31, %33
  br i1 %34, label %59, label %35

35:                                               ; preds = %22
  %36 = and i64 %20, 4294967292
  %37 = insertelement <4 x double> poison, double %3, i64 0
  %38 = shufflevector <4 x double> %37, <4 x double> poison, <4 x i32> zeroinitializer
  %39 = insertelement <4 x double> poison, double %1, i64 0
  %40 = shufflevector <4 x double> %39, <4 x double> poison, <4 x i32> zeroinitializer
  %41 = insertelement <4 x double> poison, double %5, i64 0
  %42 = shufflevector <4 x double> %41, <4 x double> poison, <4 x i32> zeroinitializer
  br label %43

43:                                               ; preds = %43, %35
  %44 = phi i64 [ 0, %35 ], [ %55, %43 ]
  %45 = getelementptr inbounds double, ptr %13, i64 %44
  %46 = load <4 x double>, ptr %45, align 8, !tbaa !26
  %47 = getelementptr inbounds double, ptr %15, i64 %44
  %48 = load <4 x double>, ptr %47, align 8, !tbaa !26
  %49 = fmul <4 x double> %48, %38
  %50 = tail call <4 x double> @llvm.fmuladd.v4f64(<4 x double> %40, <4 x double> %46, <4 x double> %49)
  %51 = getelementptr inbounds double, ptr %17, i64 %44
  %52 = load <4 x double>, ptr %51, align 8, !tbaa !26
  %53 = tail call <4 x double> @llvm.fmuladd.v4f64(<4 x double> %42, <4 x double> %52, <4 x double> %50)
  %54 = getelementptr inbounds double, ptr %19, i64 %44
  store <4 x double> %53, ptr %54, align 8, !tbaa !26
  %55 = add nuw i64 %44, 4
  %56 = icmp eq i64 %55, %36
  br i1 %56, label %57, label %43, !llvm.loop !139

57:                                               ; preds = %43
  %58 = icmp eq i64 %36, %20
  br i1 %58, label %80, label %59

59:                                               ; preds = %22, %11, %57
  %60 = phi i64 [ 0, %22 ], [ 0, %11 ], [ %36, %57 ]
  %61 = xor i64 %60, -1
  %62 = and i64 %20, 1
  %63 = icmp eq i64 %62, 0
  br i1 %63, label %76, label %64

64:                                               ; preds = %59
  %65 = getelementptr inbounds double, ptr %13, i64 %60
  %66 = load double, ptr %65, align 8, !tbaa !26
  %67 = getelementptr inbounds double, ptr %15, i64 %60
  %68 = load double, ptr %67, align 8, !tbaa !26
  %69 = fmul double %68, %3
  %70 = tail call double @llvm.fmuladd.f64(double %1, double %66, double %69)
  %71 = getelementptr inbounds double, ptr %17, i64 %60
  %72 = load double, ptr %71, align 8, !tbaa !26
  %73 = tail call double @llvm.fmuladd.f64(double %5, double %72, double %70)
  %74 = getelementptr inbounds double, ptr %19, i64 %60
  store double %73, ptr %74, align 8, !tbaa !26
  %75 = or i64 %60, 1
  br label %76

76:                                               ; preds = %64, %59
  %77 = phi i64 [ %60, %59 ], [ %75, %64 ]
  %78 = sub nsw i64 0, %20
  %79 = icmp eq i64 %61, %78
  br i1 %79, label %80, label %81

80:                                               ; preds = %76, %81, %57, %7
  ret void

81:                                               ; preds = %76, %81
  %82 = phi i64 [ %104, %81 ], [ %77, %76 ]
  %83 = getelementptr inbounds double, ptr %13, i64 %82
  %84 = load double, ptr %83, align 8, !tbaa !26
  %85 = getelementptr inbounds double, ptr %15, i64 %82
  %86 = load double, ptr %85, align 8, !tbaa !26
  %87 = fmul double %86, %3
  %88 = tail call double @llvm.fmuladd.f64(double %1, double %84, double %87)
  %89 = getelementptr inbounds double, ptr %17, i64 %82
  %90 = load double, ptr %89, align 8, !tbaa !26
  %91 = tail call double @llvm.fmuladd.f64(double %5, double %90, double %88)
  %92 = getelementptr inbounds double, ptr %19, i64 %82
  store double %91, ptr %92, align 8, !tbaa !26
  %93 = add nuw nsw i64 %82, 1
  %94 = getelementptr inbounds double, ptr %13, i64 %93
  %95 = load double, ptr %94, align 8, !tbaa !26
  %96 = getelementptr inbounds double, ptr %15, i64 %93
  %97 = load double, ptr %96, align 8, !tbaa !26
  %98 = fmul double %97, %3
  %99 = tail call double @llvm.fmuladd.f64(double %1, double %95, double %98)
  %100 = getelementptr inbounds double, ptr %17, i64 %93
  %101 = load double, ptr %100, align 8, !tbaa !26
  %102 = tail call double @llvm.fmuladd.f64(double %5, double %101, double %99)
  %103 = getelementptr inbounds double, ptr %19, i64 %93
  store double %102, ptr %103, align 8, !tbaa !26
  %104 = add nuw nsw i64 %82, 2
  %105 = icmp eq i64 %104, %20
  br i1 %105, label %80, label %81, !llvm.loop !140
}

; Function Attrs: sspstrong uwtable
define weak_odr dso_local void @_ZN6dealii6VectorIdE5ratioERKS1_S3_(ptr noundef nonnull align 8 dereferenceable(88) %0, ptr noundef nonnull align 8 dereferenceable(88) %1, ptr noundef nonnull align 8 dereferenceable(88) %2) local_unnamed_addr #2 comdat align 2 {
  %4 = getelementptr inbounds %"class.dealii::Vector", ptr %1, i64 0, i32 1
  %5 = load i32, ptr %4, align 8, !tbaa !8
  %6 = load ptr, ptr %0, align 8, !tbaa !5
  %7 = getelementptr inbounds ptr, ptr %6, i64 2
  %8 = load ptr, ptr %7, align 8
  tail call void %8(ptr noundef nonnull align 8 dereferenceable(88) %0, i32 noundef %5, i1 noundef zeroext true)
  %9 = getelementptr inbounds %"class.dealii::Vector", ptr %0, i64 0, i32 1
  %10 = load i32, ptr %9, align 8, !tbaa !8
  %11 = icmp eq i32 %10, 0
  br i1 %11, label %65, label %12

12:                                               ; preds = %3
  %13 = getelementptr inbounds %"class.dealii::Vector", ptr %1, i64 0, i32 3
  %14 = load ptr, ptr %13, align 8, !tbaa !24
  %15 = getelementptr inbounds %"class.dealii::Vector", ptr %2, i64 0, i32 3
  %16 = load ptr, ptr %15, align 8, !tbaa !24
  %17 = getelementptr inbounds %"class.dealii::Vector", ptr %0, i64 0, i32 3
  %18 = load ptr, ptr %17, align 8, !tbaa !24
  %19 = zext i32 %10 to i64
  %20 = icmp ult i32 %10, 4
  br i1 %20, label %44, label %21

21:                                               ; preds = %12
  %22 = ptrtoint ptr %18 to i64
  %23 = ptrtoint ptr %16 to i64
  %24 = ptrtoint ptr %14 to i64
  %25 = sub i64 %22, %24
  %26 = icmp ult i64 %25, 32
  %27 = sub i64 %22, %23
  %28 = icmp ult i64 %27, 32
  %29 = or i1 %26, %28
  br i1 %29, label %44, label %30

30:                                               ; preds = %21
  %31 = and i64 %19, 4294967292
  br label %32

32:                                               ; preds = %32, %30
  %33 = phi i64 [ 0, %30 ], [ %40, %32 ]
  %34 = getelementptr inbounds double, ptr %14, i64 %33
  %35 = load <4 x double>, ptr %34, align 8, !tbaa !26
  %36 = getelementptr inbounds double, ptr %16, i64 %33
  %37 = load <4 x double>, ptr %36, align 8, !tbaa !26
  %38 = fdiv <4 x double> %35, %37
  %39 = getelementptr inbounds double, ptr %18, i64 %33
  store <4 x double> %38, ptr %39, align 8, !tbaa !26
  %40 = add nuw i64 %33, 4
  %41 = icmp eq i64 %40, %31
  br i1 %41, label %42, label %32, !llvm.loop !141

42:                                               ; preds = %32
  %43 = icmp eq i64 %31, %19
  br i1 %43, label %65, label %44

44:                                               ; preds = %21, %12, %42
  %45 = phi i64 [ 0, %21 ], [ 0, %12 ], [ %31, %42 ]
  %46 = xor i64 %45, -1
  %47 = add nsw i64 %46, %19
  %48 = and i64 %19, 3
  %49 = icmp eq i64 %48, 0
  br i1 %49, label %62, label %50

50:                                               ; preds = %44, %50
  %51 = phi i64 [ %59, %50 ], [ %45, %44 ]
  %52 = phi i64 [ %60, %50 ], [ 0, %44 ]
  %53 = getelementptr inbounds double, ptr %14, i64 %51
  %54 = load double, ptr %53, align 8, !tbaa !26
  %55 = getelementptr inbounds double, ptr %16, i64 %51
  %56 = load double, ptr %55, align 8, !tbaa !26
  %57 = fdiv double %54, %56
  %58 = getelementptr inbounds double, ptr %18, i64 %51
  store double %57, ptr %58, align 8, !tbaa !26
  %59 = add nuw nsw i64 %51, 1
  %60 = add i64 %52, 1
  %61 = icmp eq i64 %60, %48
  br i1 %61, label %62, label %50, !llvm.loop !142

62:                                               ; preds = %50, %44
  %63 = phi i64 [ %45, %44 ], [ %59, %50 ]
  %64 = icmp ult i64 %47, 3
  br i1 %64, label %65, label %66

65:                                               ; preds = %62, %66, %42, %3
  ret void

66:                                               ; preds = %62, %66
  %67 = phi i64 [ %95, %66 ], [ %63, %62 ]
  %68 = getelementptr inbounds double, ptr %14, i64 %67
  %69 = load double, ptr %68, align 8, !tbaa !26
  %70 = getelementptr inbounds double, ptr %16, i64 %67
  %71 = load double, ptr %70, align 8, !tbaa !26
  %72 = fdiv double %69, %71
  %73 = getelementptr inbounds double, ptr %18, i64 %67
  store double %72, ptr %73, align 8, !tbaa !26
  %74 = add nuw nsw i64 %67, 1
  %75 = getelementptr inbounds double, ptr %14, i64 %74
  %76 = load double, ptr %75, align 8, !tbaa !26
  %77 = getelementptr inbounds double, ptr %16, i64 %74
  %78 = load double, ptr %77, align 8, !tbaa !26
  %79 = fdiv double %76, %78
  %80 = getelementptr inbounds double, ptr %18, i64 %74
  store double %79, ptr %80, align 8, !tbaa !26
  %81 = add nuw nsw i64 %67, 2
  %82 = getelementptr inbounds double, ptr %14, i64 %81
  %83 = load double, ptr %82, align 8, !tbaa !26
  %84 = getelementptr inbounds double, ptr %16, i64 %81
  %85 = load double, ptr %84, align 8, !tbaa !26
  %86 = fdiv double %83, %85
  %87 = getelementptr inbounds double, ptr %18, i64 %81
  store double %86, ptr %87, align 8, !tbaa !26
  %88 = add nuw nsw i64 %67, 3
  %89 = getelementptr inbounds double, ptr %14, i64 %88
  %90 = load double, ptr %89, align 8, !tbaa !26
  %91 = getelementptr inbounds double, ptr %16, i64 %88
  %92 = load double, ptr %91, align 8, !tbaa !26
  %93 = fdiv double %90, %92
  %94 = getelementptr inbounds double, ptr %18, i64 %88
  store double %93, ptr %94, align 8, !tbaa !26
  %95 = add nuw nsw i64 %67, 4
  %96 = icmp eq i64 %95, %19
  br i1 %96, label %65, label %66, !llvm.loop !143
}

; Function Attrs: sspstrong uwtable
define weak_odr dso_local void @_ZNK6dealii6VectorIdE5printEPKc(ptr noundef nonnull align 8 dereferenceable(88) %0, ptr noundef %1) local_unnamed_addr #2 comdat align 2 {
  %3 = getelementptr inbounds %"class.dealii::Vector", ptr %0, i64 0, i32 1
  %4 = load i32, ptr %3, align 8, !tbaa !8
  %5 = icmp eq i32 %4, 0
  br i1 %5, label %10, label %6

6:                                                ; preds = %2
  %7 = getelementptr inbounds %"class.dealii::Vector", ptr %0, i64 0, i32 3
  %8 = icmp eq ptr %1, null
  %9 = select i1 %8, ptr @.str.10, ptr %1
  br label %12

10:                                               ; preds = %12, %2
  %11 = tail call i32 @putchar(i32 10)
  ret void

12:                                               ; preds = %6, %12
  %13 = phi i64 [ 0, %6 ], [ %18, %12 ]
  %14 = load ptr, ptr %7, align 8, !tbaa !24
  %15 = getelementptr inbounds double, ptr %14, i64 %13
  %16 = load double, ptr %15, align 8, !tbaa !26
  %17 = tail call i32 (ptr, ...) @printf(ptr noundef nonnull dereferenceable(1) %9, double noundef %16)
  %18 = add nuw nsw i64 %13, 1
  %19 = load i32, ptr %3, align 8, !tbaa !8
  %20 = zext i32 %19 to i64
  %21 = icmp ult i64 %18, %20
  br i1 %21, label %12, label %10
}

; Function Attrs: nofree nounwind
declare noundef i32 @printf(ptr nocapture noundef readonly, ...) local_unnamed_addr #11

; Function Attrs: sspstrong uwtable
define weak_odr dso_local void @_ZNK6dealii6VectorIdE5printERSojbb(ptr noundef nonnull align 8 dereferenceable(88) %0, ptr noundef nonnull align 8 dereferenceable(8) %1, i32 noundef %2, i1 noundef zeroext %3, i1 noundef zeroext %4) local_unnamed_addr #2 comdat align 2 personality ptr @__gxx_personality_v0 {
  %6 = alloca i8, align 1
  %7 = alloca %"class.dealii::StandardExceptions::ExcIO", align 8
  %8 = alloca %"class.dealii::StandardExceptions::ExcIO", align 8
  %9 = load ptr, ptr %1, align 8, !tbaa !5
  %10 = getelementptr i8, ptr %9, i64 -24
  %11 = load i64, ptr %10, align 8
  %12 = getelementptr inbounds i8, ptr %1, i64 %11
  %13 = getelementptr inbounds %"class.std::ios_base", ptr %12, i64 0, i32 5
  %14 = load i32, ptr %13, align 8, !tbaa !144
  %15 = and i32 %14, 5
  %16 = icmp eq i32 %15, 0
  br i1 %16, label %26, label %17

17:                                               ; preds = %5
  call void @llvm.memset.p0.i64(ptr noundef nonnull align 8 dereferenceable(64) %7, i8 0, i64 64, i1 false)
  call void @_ZN6dealii13ExceptionBaseC2Ev(ptr noundef nonnull align 8 dereferenceable(60) %7)
  store ptr getelementptr inbounds ({ [6 x ptr] }, ptr @_ZTVN6dealii18StandardExceptions5ExcIOE, i64 0, inrange i32 0, i64 2), ptr %7, align 8, !tbaa !5
  invoke void @_ZN6dealii13ExceptionBase10set_fieldsEPKciS2_S2_S2_(ptr noundef nonnull align 8 dereferenceable(60) %7, ptr noundef nonnull @.str.1, i32 noundef 784, ptr noundef nonnull @.str.2, ptr noundef nonnull @.str.3, ptr noundef nonnull @.str.4)
          to label %18 unwind label %24

18:                                               ; preds = %17
  %19 = call ptr @__cxa_allocate_exception(i64 64) #24
  invoke void @_ZN6dealii13ExceptionBaseC2ERKS0_(ptr noundef nonnull align 8 dereferenceable(60) %19, ptr noundef nonnull align 8 dereferenceable(60) %7)
          to label %20 unwind label %22

20:                                               ; preds = %18
  store ptr getelementptr inbounds ({ [6 x ptr] }, ptr @_ZTVN6dealii18StandardExceptions5ExcIOE, i64 0, inrange i32 0, i64 2), ptr %19, align 8, !tbaa !5
  invoke void @__cxa_throw(ptr nonnull %19, ptr nonnull @_ZTIN6dealii18StandardExceptions5ExcIOE, ptr nonnull @_ZN6dealii13ExceptionBaseD2Ev) #26
          to label %21 unwind label %24

21:                                               ; preds = %20
  unreachable

22:                                               ; preds = %18
  %23 = landingpad { ptr, i32 }
          cleanup
  call void @__cxa_free_exception(ptr %19) #24
  br label %155

24:                                               ; preds = %20, %17
  %25 = landingpad { ptr, i32 }
          cleanup
  br label %155

26:                                               ; preds = %5
  %27 = getelementptr inbounds %"class.std::ios_base", ptr %12, i64 0, i32 3
  %28 = load i32, ptr %27, align 8, !tbaa !150
  %29 = zext i32 %2 to i64
  %30 = getelementptr inbounds %"class.std::ios_base", ptr %12, i64 0, i32 1
  %31 = load i64, ptr %30, align 8, !tbaa !151
  store i64 %29, ptr %30, align 8, !tbaa !151
  %32 = load i64, ptr %10, align 8
  %33 = getelementptr inbounds i8, ptr %1, i64 %32
  %34 = getelementptr inbounds %"class.std::ios_base", ptr %33, i64 0, i32 1
  store i64 %29, ptr %34, align 8, !tbaa !151
  %35 = load i64, ptr %10, align 8
  %36 = getelementptr inbounds i8, ptr %1, i64 %35
  %37 = getelementptr inbounds %"class.std::ios_base", ptr %36, i64 0, i32 3
  %38 = load i32, ptr %37, align 8, !tbaa !152
  %39 = and i32 %38, -261
  %40 = select i1 %3, i32 256, i32 4
  %41 = or i32 %39, %40
  store i32 %41, ptr %37, align 8, !tbaa !152
  %42 = getelementptr inbounds %"class.dealii::Vector", ptr %0, i64 0, i32 1
  %43 = load i32, ptr %42, align 8, !tbaa !8
  %44 = icmp eq i32 %43, 0
  br i1 %4, label %48, label %45

45:                                               ; preds = %26
  br i1 %44, label %107, label %46

46:                                               ; preds = %45
  %47 = getelementptr inbounds %"class.dealii::Vector", ptr %0, i64 0, i32 3
  br label %73

48:                                               ; preds = %26
  br i1 %44, label %107, label %49

49:                                               ; preds = %48
  %50 = getelementptr inbounds %"class.dealii::Vector", ptr %0, i64 0, i32 3
  br label %51

51:                                               ; preds = %49, %68
  %52 = phi i64 [ 0, %49 ], [ %69, %68 ]
  %53 = load ptr, ptr %50, align 8, !tbaa !24
  %54 = getelementptr inbounds double, ptr %53, i64 %52
  %55 = load double, ptr %54, align 8, !tbaa !26
  %56 = call noundef nonnull align 8 dereferenceable(8) ptr @_ZNSo9_M_insertIdEERSoT_(ptr noundef nonnull align 8 dereferenceable(8) %1, double noundef %55)
  call void @llvm.lifetime.start.p0(i64 1, ptr nonnull %6)
  store i8 32, ptr %6, align 1, !tbaa !153
  %57 = load ptr, ptr %56, align 8, !tbaa !5
  %58 = getelementptr i8, ptr %57, i64 -24
  %59 = load i64, ptr %58, align 8
  %60 = getelementptr inbounds i8, ptr %56, i64 %59
  %61 = getelementptr inbounds %"class.std::ios_base", ptr %60, i64 0, i32 2
  %62 = load i64, ptr %61, align 8, !tbaa !154
  %63 = icmp eq i64 %62, 0
  br i1 %63, label %66, label %64

64:                                               ; preds = %51
  %65 = call noundef nonnull align 8 dereferenceable(8) ptr @_ZSt16__ostream_insertIcSt11char_traitsIcEERSt13basic_ostreamIT_T0_ES6_PKS3_l(ptr noundef nonnull align 8 dereferenceable(8) %56, ptr noundef nonnull %6, i64 noundef 1)
  br label %68

66:                                               ; preds = %51
  %67 = call noundef nonnull align 8 dereferenceable(8) ptr @_ZNSo3putEc(ptr noundef nonnull align 8 dereferenceable(8) %56, i8 noundef signext 32)
  br label %68

68:                                               ; preds = %64, %66
  call void @llvm.lifetime.end.p0(i64 1, ptr nonnull %6)
  %69 = add nuw nsw i64 %52, 1
  %70 = load i32, ptr %42, align 8, !tbaa !8
  %71 = zext i32 %70 to i64
  %72 = icmp ult i64 %69, %71
  br i1 %72, label %51, label %107

73:                                               ; preds = %46, %99
  %74 = phi i64 [ 0, %46 ], [ %103, %99 ]
  %75 = load ptr, ptr %47, align 8, !tbaa !24
  %76 = getelementptr inbounds double, ptr %75, i64 %74
  %77 = load double, ptr %76, align 8, !tbaa !26
  %78 = tail call noundef nonnull align 8 dereferenceable(8) ptr @_ZNSo9_M_insertIdEERSoT_(ptr noundef nonnull align 8 dereferenceable(8) %1, double noundef %77)
  %79 = load ptr, ptr %78, align 8, !tbaa !5
  %80 = getelementptr i8, ptr %79, i64 -24
  %81 = load i64, ptr %80, align 8
  %82 = getelementptr inbounds i8, ptr %78, i64 %81
  %83 = getelementptr inbounds %"class.std::basic_ios", ptr %82, i64 0, i32 5
  %84 = load ptr, ptr %83, align 8, !tbaa !155
  %85 = icmp eq ptr %84, null
  br i1 %85, label %86, label %87

86:                                               ; preds = %73
  tail call void @_ZSt16__throw_bad_castv() #26
  unreachable

87:                                               ; preds = %73
  %88 = getelementptr inbounds %"class.std::ctype", ptr %84, i64 0, i32 8
  %89 = load i8, ptr %88, align 8, !tbaa !158
  %90 = icmp eq i8 %89, 0
  br i1 %90, label %94, label %91

91:                                               ; preds = %87
  %92 = getelementptr inbounds %"class.std::ctype", ptr %84, i64 0, i32 9, i64 10
  %93 = load i8, ptr %92, align 1, !tbaa !153
  br label %99

94:                                               ; preds = %87
  tail call void @_ZNKSt5ctypeIcE13_M_widen_initEv(ptr noundef nonnull align 8 dereferenceable(570) %84)
  %95 = load ptr, ptr %84, align 8, !tbaa !5
  %96 = getelementptr inbounds ptr, ptr %95, i64 6
  %97 = load ptr, ptr %96, align 8
  %98 = tail call noundef signext i8 %97(ptr noundef nonnull align 8 dereferenceable(570) %84, i8 noundef signext 10)
  br label %99

99:                                               ; preds = %91, %94
  %100 = phi i8 [ %93, %91 ], [ %98, %94 ]
  %101 = tail call noundef nonnull align 8 dereferenceable(8) ptr @_ZNSo3putEc(ptr noundef nonnull align 8 dereferenceable(8) %78, i8 noundef signext %100)
  %102 = tail call noundef nonnull align 8 dereferenceable(8) ptr @_ZNSo5flushEv(ptr noundef nonnull align 8 dereferenceable(8) %101)
  %103 = add nuw nsw i64 %74, 1
  %104 = load i32, ptr %42, align 8, !tbaa !8
  %105 = zext i32 %104 to i64
  %106 = icmp ult i64 %103, %105
  br i1 %106, label %73, label %107

107:                                              ; preds = %99, %68, %45, %48
  %108 = load ptr, ptr %1, align 8, !tbaa !5
  %109 = getelementptr i8, ptr %108, i64 -24
  %110 = load i64, ptr %109, align 8
  %111 = getelementptr inbounds i8, ptr %1, i64 %110
  %112 = getelementptr inbounds %"class.std::basic_ios", ptr %111, i64 0, i32 5
  %113 = load ptr, ptr %112, align 8, !tbaa !155
  %114 = icmp eq ptr %113, null
  br i1 %114, label %115, label %116

115:                                              ; preds = %107
  call void @_ZSt16__throw_bad_castv() #26
  unreachable

116:                                              ; preds = %107
  %117 = getelementptr inbounds %"class.std::ctype", ptr %113, i64 0, i32 8
  %118 = load i8, ptr %117, align 8, !tbaa !158
  %119 = icmp eq i8 %118, 0
  br i1 %119, label %123, label %120

120:                                              ; preds = %116
  %121 = getelementptr inbounds %"class.std::ctype", ptr %113, i64 0, i32 9, i64 10
  %122 = load i8, ptr %121, align 1, !tbaa !153
  br label %128

123:                                              ; preds = %116
  call void @_ZNKSt5ctypeIcE13_M_widen_initEv(ptr noundef nonnull align 8 dereferenceable(570) %113)
  %124 = load ptr, ptr %113, align 8, !tbaa !5
  %125 = getelementptr inbounds ptr, ptr %124, i64 6
  %126 = load ptr, ptr %125, align 8
  %127 = call noundef signext i8 %126(ptr noundef nonnull align 8 dereferenceable(570) %113, i8 noundef signext 10)
  br label %128

128:                                              ; preds = %120, %123
  %129 = phi i8 [ %122, %120 ], [ %127, %123 ]
  %130 = call noundef nonnull align 8 dereferenceable(8) ptr @_ZNSo3putEc(ptr noundef nonnull align 8 dereferenceable(8) %1, i8 noundef signext %129)
  %131 = call noundef nonnull align 8 dereferenceable(8) ptr @_ZNSo5flushEv(ptr noundef nonnull align 8 dereferenceable(8) %130)
  %132 = load ptr, ptr %1, align 8, !tbaa !5
  %133 = getelementptr i8, ptr %132, i64 -24
  %134 = load i64, ptr %133, align 8
  %135 = getelementptr inbounds i8, ptr %1, i64 %134
  %136 = getelementptr inbounds %"class.std::ios_base", ptr %135, i64 0, i32 5
  %137 = load i32, ptr %136, align 8, !tbaa !144
  %138 = and i32 %137, 5
  %139 = icmp eq i32 %138, 0
  br i1 %139, label %149, label %140

140:                                              ; preds = %128
  call void @llvm.memset.p0.i64(ptr noundef nonnull align 8 dereferenceable(64) %8, i8 0, i64 64, i1 false)
  call void @_ZN6dealii13ExceptionBaseC2Ev(ptr noundef nonnull align 8 dereferenceable(60) %8)
  store ptr getelementptr inbounds ({ [6 x ptr] }, ptr @_ZTVN6dealii18StandardExceptions5ExcIOE, i64 0, inrange i32 0, i64 2), ptr %8, align 8, !tbaa !5
  invoke void @_ZN6dealii13ExceptionBase10set_fieldsEPKciS2_S2_S2_(ptr noundef nonnull align 8 dereferenceable(60) %8, ptr noundef nonnull @.str.1, i32 noundef 803, ptr noundef nonnull @.str.2, ptr noundef nonnull @.str.3, ptr noundef nonnull @.str.4)
          to label %141 unwind label %147

141:                                              ; preds = %140
  %142 = call ptr @__cxa_allocate_exception(i64 64) #24
  invoke void @_ZN6dealii13ExceptionBaseC2ERKS0_(ptr noundef nonnull align 8 dereferenceable(60) %142, ptr noundef nonnull align 8 dereferenceable(60) %8)
          to label %143 unwind label %145

143:                                              ; preds = %141
  store ptr getelementptr inbounds ({ [6 x ptr] }, ptr @_ZTVN6dealii18StandardExceptions5ExcIOE, i64 0, inrange i32 0, i64 2), ptr %142, align 8, !tbaa !5
  invoke void @__cxa_throw(ptr nonnull %142, ptr nonnull @_ZTIN6dealii18StandardExceptions5ExcIOE, ptr nonnull @_ZN6dealii13ExceptionBaseD2Ev) #26
          to label %144 unwind label %147

144:                                              ; preds = %143
  unreachable

145:                                              ; preds = %141
  %146 = landingpad { ptr, i32 }
          cleanup
  call void @__cxa_free_exception(ptr %142) #24
  br label %155

147:                                              ; preds = %143, %140
  %148 = landingpad { ptr, i32 }
          cleanup
  br label %155

149:                                              ; preds = %128
  %150 = getelementptr inbounds %"class.std::ios_base", ptr %135, i64 0, i32 3
  store i32 %28, ptr %150, align 8, !tbaa !150
  %151 = load i64, ptr %133, align 8
  %152 = getelementptr inbounds i8, ptr %1, i64 %151
  %153 = and i64 %31, 4294967295
  %154 = getelementptr inbounds %"class.std::ios_base", ptr %152, i64 0, i32 1
  store i64 %153, ptr %154, align 8, !tbaa !151
  ret void

155:                                              ; preds = %147, %145, %24, %22
  %156 = phi ptr [ %7, %22 ], [ %7, %24 ], [ %8, %145 ], [ %8, %147 ]
  %157 = phi { ptr, i32 } [ %23, %22 ], [ %25, %24 ], [ %146, %145 ], [ %148, %147 ]
  call void @_ZN6dealii13ExceptionBaseD2Ev(ptr noundef nonnull align 8 dereferenceable(60) %156) #24
  resume { ptr, i32 } %157
}

; Function Attrs: mustprogress nocallback nofree nounwind willreturn memory(argmem: write)
declare void @llvm.memset.p0.i64(ptr nocapture writeonly, i8, i64, i1 immarg) #12

; Function Attrs: nounwind
declare void @_ZN6dealii13ExceptionBaseD2Ev(ptr noundef nonnull align 8 dereferenceable(60)) unnamed_addr #13

; Function Attrs: sspstrong uwtable
define weak_odr dso_local void @_ZNK6dealii6VectorIdE11block_writeERSo(ptr noundef nonnull align 8 dereferenceable(88) %0, ptr noundef nonnull align 8 dereferenceable(8) %1) local_unnamed_addr #2 comdat align 2 personality ptr @__gxx_personality_v0 {
  %3 = alloca %"class.dealii::StandardExceptions::ExcIO", align 8
  %4 = alloca [16 x i8], align 16
  %5 = alloca i8, align 1
  %6 = alloca %"class.dealii::StandardExceptions::ExcIO", align 8
  %7 = load ptr, ptr %1, align 8, !tbaa !5
  %8 = getelementptr i8, ptr %7, i64 -24
  %9 = load i64, ptr %8, align 8
  %10 = getelementptr inbounds i8, ptr %1, i64 %9
  %11 = getelementptr inbounds %"class.std::ios_base", ptr %10, i64 0, i32 5
  %12 = load i32, ptr %11, align 8, !tbaa !144
  %13 = and i32 %12, 5
  %14 = icmp eq i32 %13, 0
  br i1 %14, label %26, label %15

15:                                               ; preds = %2
  call void @llvm.memset.p0.i64(ptr noundef nonnull align 8 dereferenceable(64) %3, i8 0, i64 64, i1 false)
  call void @_ZN6dealii13ExceptionBaseC2Ev(ptr noundef nonnull align 8 dereferenceable(60) %3)
  store ptr getelementptr inbounds ({ [6 x ptr] }, ptr @_ZTVN6dealii18StandardExceptions5ExcIOE, i64 0, inrange i32 0, i64 2), ptr %3, align 8, !tbaa !5
  invoke void @_ZN6dealii13ExceptionBase10set_fieldsEPKciS2_S2_S2_(ptr noundef nonnull align 8 dereferenceable(60) %3, ptr noundef nonnull @.str.1, i32 noundef 814, ptr noundef nonnull @.str.2, ptr noundef nonnull @.str.3, ptr noundef nonnull @.str.4)
          to label %16 unwind label %22

16:                                               ; preds = %15
  %17 = call ptr @__cxa_allocate_exception(i64 64) #24
  invoke void @_ZN6dealii13ExceptionBaseC2ERKS0_(ptr noundef nonnull align 8 dereferenceable(60) %17, ptr noundef nonnull align 8 dereferenceable(60) %3)
          to label %18 unwind label %20

18:                                               ; preds = %16
  store ptr getelementptr inbounds ({ [6 x ptr] }, ptr @_ZTVN6dealii18StandardExceptions5ExcIOE, i64 0, inrange i32 0, i64 2), ptr %17, align 8, !tbaa !5
  invoke void @__cxa_throw(ptr nonnull %17, ptr nonnull @_ZTIN6dealii18StandardExceptions5ExcIOE, ptr nonnull @_ZN6dealii13ExceptionBaseD2Ev) #26
          to label %19 unwind label %22

19:                                               ; preds = %18
  unreachable

20:                                               ; preds = %16
  %21 = landingpad { ptr, i32 }
          cleanup
  call void @__cxa_free_exception(ptr %17) #24
  br label %24

22:                                               ; preds = %18, %15
  %23 = landingpad { ptr, i32 }
          cleanup
  br label %24

24:                                               ; preds = %20, %22
  %25 = phi { ptr, i32 } [ %23, %22 ], [ %21, %20 ]
  call void @_ZN6dealii13ExceptionBaseD2Ev(ptr noundef nonnull align 8 dereferenceable(60) %3) #24
  br label %61

26:                                               ; preds = %2
  %27 = getelementptr inbounds %"class.dealii::Vector", ptr %0, i64 0, i32 1
  %28 = load i32, ptr %27, align 8, !tbaa !8
  call void @llvm.lifetime.start.p0(i64 16, ptr nonnull %4) #24
  %29 = call i32 (ptr, ptr, ...) @sprintf(ptr noundef nonnull dereferenceable(1) %4, ptr noundef nonnull dereferenceable(1) @.str.5, i32 noundef %28) #24
  %30 = call i64 @strlen(ptr nonnull dereferenceable(1) %4)
  %31 = getelementptr inbounds i8, ptr %4, i64 %30
  call void @llvm.memcpy.p0.p0.i64(ptr noundef nonnull align 1 dereferenceable(3) %31, ptr noundef nonnull align 1 dereferenceable(3) @.str.6, i64 3, i1 false)
  %32 = call i64 @strlen(ptr noundef nonnull dereferenceable(1) %4) #27
  %33 = call noundef nonnull align 8 dereferenceable(8) ptr @_ZNSo5writeEPKcl(ptr noundef nonnull align 8 dereferenceable(8) %1, ptr noundef nonnull %4, i64 noundef %32)
  %34 = getelementptr inbounds %"class.dealii::Vector", ptr %0, i64 0, i32 3
  %35 = load ptr, ptr %34, align 8, !tbaa !24
  %36 = load i32, ptr %27, align 8, !tbaa !8
  %37 = zext i32 %36 to i64
  %38 = shl nuw nsw i64 %37, 3
  %39 = call noundef nonnull align 8 dereferenceable(8) ptr @_ZNSo5writeEPKcl(ptr noundef nonnull align 8 dereferenceable(8) %1, ptr noundef %35, i64 noundef %38)
  call void @llvm.lifetime.start.p0(i64 1, ptr nonnull %5) #24
  store i8 93, ptr %5, align 1, !tbaa !153
  %40 = call noundef nonnull align 8 dereferenceable(8) ptr @_ZNSo5writeEPKcl(ptr noundef nonnull align 8 dereferenceable(8) %1, ptr noundef nonnull %5, i64 noundef 1)
  %41 = load ptr, ptr %1, align 8, !tbaa !5
  %42 = getelementptr i8, ptr %41, i64 -24
  %43 = load i64, ptr %42, align 8
  %44 = getelementptr inbounds i8, ptr %1, i64 %43
  %45 = getelementptr inbounds %"class.std::ios_base", ptr %44, i64 0, i32 5
  %46 = load i32, ptr %45, align 8, !tbaa !144
  %47 = and i32 %46, 5
  %48 = icmp eq i32 %47, 0
  br i1 %48, label %60, label %49

49:                                               ; preds = %26
  call void @llvm.memset.p0.i64(ptr noundef nonnull align 8 dereferenceable(64) %6, i8 0, i64 64, i1 false)
  call void @_ZN6dealii13ExceptionBaseC2Ev(ptr noundef nonnull align 8 dereferenceable(60) %6)
  store ptr getelementptr inbounds ({ [6 x ptr] }, ptr @_ZTVN6dealii18StandardExceptions5ExcIOE, i64 0, inrange i32 0, i64 2), ptr %6, align 8, !tbaa !5
  invoke void @_ZN6dealii13ExceptionBase10set_fieldsEPKciS2_S2_S2_(ptr noundef nonnull align 8 dereferenceable(60) %6, ptr noundef nonnull @.str.1, i32 noundef 837, ptr noundef nonnull @.str.2, ptr noundef nonnull @.str.3, ptr noundef nonnull @.str.4)
          to label %50 unwind label %56

50:                                               ; preds = %49
  %51 = call ptr @__cxa_allocate_exception(i64 64) #24
  invoke void @_ZN6dealii13ExceptionBaseC2ERKS0_(ptr noundef nonnull align 8 dereferenceable(60) %51, ptr noundef nonnull align 8 dereferenceable(60) %6)
          to label %52 unwind label %54

52:                                               ; preds = %50
  store ptr getelementptr inbounds ({ [6 x ptr] }, ptr @_ZTVN6dealii18StandardExceptions5ExcIOE, i64 0, inrange i32 0, i64 2), ptr %51, align 8, !tbaa !5
  invoke void @__cxa_throw(ptr nonnull %51, ptr nonnull @_ZTIN6dealii18StandardExceptions5ExcIOE, ptr nonnull @_ZN6dealii13ExceptionBaseD2Ev) #26
          to label %53 unwind label %56

53:                                               ; preds = %52
  unreachable

54:                                               ; preds = %50
  %55 = landingpad { ptr, i32 }
          cleanup
  call void @__cxa_free_exception(ptr %51) #24
  br label %58

56:                                               ; preds = %52, %49
  %57 = landingpad { ptr, i32 }
          cleanup
  br label %58

58:                                               ; preds = %54, %56
  %59 = phi { ptr, i32 } [ %57, %56 ], [ %55, %54 ]
  call void @_ZN6dealii13ExceptionBaseD2Ev(ptr noundef nonnull align 8 dereferenceable(60) %6) #24
  call void @llvm.lifetime.end.p0(i64 1, ptr nonnull %5) #24
  call void @llvm.lifetime.end.p0(i64 16, ptr nonnull %4) #24
  br label %61

60:                                               ; preds = %26
  call void @llvm.lifetime.end.p0(i64 1, ptr nonnull %5) #24
  call void @llvm.lifetime.end.p0(i64 16, ptr nonnull %4) #24
  ret void

61:                                               ; preds = %58, %24
  %62 = phi { ptr, i32 } [ %59, %58 ], [ %25, %24 ]
  resume { ptr, i32 } %62
}

; Function Attrs: nofree nounwind
declare noundef i32 @sprintf(ptr noalias nocapture noundef writeonly, ptr nocapture noundef readonly, ...) local_unnamed_addr #11

declare noundef nonnull align 8 dereferenceable(8) ptr @_ZNSo5writeEPKcl(ptr noundef nonnull align 8 dereferenceable(8), ptr noundef, i64 noundef) local_unnamed_addr #1

; Function Attrs: mustprogress nofree nounwind willreturn memory(argmem: read)
declare i64 @strlen(ptr nocapture noundef) local_unnamed_addr #14

; Function Attrs: sspstrong uwtable
define weak_odr dso_local void @_ZN6dealii6VectorIdE10block_readERSi(ptr noundef nonnull align 8 dereferenceable(88) %0, ptr noundef nonnull align 8 dereferenceable(16) %1) local_unnamed_addr #2 comdat align 2 personality ptr @__gxx_personality_v0 {
  %3 = alloca %"class.dealii::StandardExceptions::ExcIO", align 8
  %4 = alloca [16 x i8], align 16
  %5 = alloca i8, align 1
  %6 = alloca %"class.dealii::StandardExceptions::ExcIO", align 8
  %7 = alloca %"class.dealii::StandardExceptions::ExcIO", align 8
  %8 = load ptr, ptr %1, align 8, !tbaa !5
  %9 = getelementptr i8, ptr %8, i64 -24
  %10 = load i64, ptr %9, align 8
  %11 = getelementptr inbounds i8, ptr %1, i64 %10
  %12 = getelementptr inbounds %"class.std::ios_base", ptr %11, i64 0, i32 5
  %13 = load i32, ptr %12, align 8, !tbaa !144
  %14 = and i32 %13, 5
  %15 = icmp eq i32 %14, 0
  br i1 %15, label %27, label %16

16:                                               ; preds = %2
  call void @llvm.memset.p0.i64(ptr noundef nonnull align 8 dereferenceable(64) %3, i8 0, i64 64, i1 false)
  call void @_ZN6dealii13ExceptionBaseC2Ev(ptr noundef nonnull align 8 dereferenceable(60) %3)
  store ptr getelementptr inbounds ({ [6 x ptr] }, ptr @_ZTVN6dealii18StandardExceptions5ExcIOE, i64 0, inrange i32 0, i64 2), ptr %3, align 8, !tbaa !5
  invoke void @_ZN6dealii13ExceptionBase10set_fieldsEPKciS2_S2_S2_(ptr noundef nonnull align 8 dereferenceable(60) %3, ptr noundef nonnull @.str.1, i32 noundef 845, ptr noundef nonnull @.str.2, ptr noundef nonnull @.str.7, ptr noundef nonnull @.str.4)
          to label %17 unwind label %23

17:                                               ; preds = %16
  %18 = call ptr @__cxa_allocate_exception(i64 64) #24
  invoke void @_ZN6dealii13ExceptionBaseC2ERKS0_(ptr noundef nonnull align 8 dereferenceable(60) %18, ptr noundef nonnull align 8 dereferenceable(60) %3)
          to label %19 unwind label %21

19:                                               ; preds = %17
  store ptr getelementptr inbounds ({ [6 x ptr] }, ptr @_ZTVN6dealii18StandardExceptions5ExcIOE, i64 0, inrange i32 0, i64 2), ptr %18, align 8, !tbaa !5
  invoke void @__cxa_throw(ptr nonnull %18, ptr nonnull @_ZTIN6dealii18StandardExceptions5ExcIOE, ptr nonnull @_ZN6dealii13ExceptionBaseD2Ev) #26
          to label %20 unwind label %23

20:                                               ; preds = %19
  unreachable

21:                                               ; preds = %17
  %22 = landingpad { ptr, i32 }
          cleanup
  call void @__cxa_free_exception(ptr %18) #24
  br label %25

23:                                               ; preds = %19, %16
  %24 = landingpad { ptr, i32 }
          cleanup
  br label %25

25:                                               ; preds = %21, %23
  %26 = phi { ptr, i32 } [ %24, %23 ], [ %22, %21 ]
  call void @_ZN6dealii13ExceptionBaseD2Ev(ptr noundef nonnull align 8 dereferenceable(60) %3) #24
  br label %70

27:                                               ; preds = %2
  call void @llvm.lifetime.start.p0(i64 16, ptr nonnull %4) #24
  %28 = call noundef nonnull align 8 dereferenceable(16) ptr @_ZNSi7getlineEPclc(ptr noundef nonnull align 8 dereferenceable(16) %1, ptr noundef nonnull %4, i64 noundef 16, i8 noundef signext 10)
  %29 = call i64 @__isoc23_strtol(ptr noundef nonnull %4, ptr noundef null, i32 noundef 10) #24
  %30 = trunc i64 %29 to i32
  %31 = load ptr, ptr %0, align 8, !tbaa !5
  %32 = getelementptr inbounds ptr, ptr %31, i64 2
  %33 = load ptr, ptr %32, align 8
  call void %33(ptr noundef nonnull align 8 dereferenceable(88) %0, i32 noundef %30, i1 noundef zeroext true)
  call void @llvm.lifetime.start.p0(i64 1, ptr nonnull %5) #24
  %34 = call noundef nonnull align 8 dereferenceable(16) ptr @_ZNSi4readEPcl(ptr noundef nonnull align 8 dereferenceable(16) %1, ptr noundef nonnull %5, i64 noundef 1)
  %35 = load i8, ptr %5, align 1, !tbaa !153
  %36 = icmp eq i8 %35, 91
  br i1 %36, label %46, label %37

37:                                               ; preds = %27
  call void @llvm.memset.p0.i64(ptr noundef nonnull align 8 dereferenceable(64) %6, i8 0, i64 64, i1 false)
  call void @_ZN6dealii13ExceptionBaseC2Ev(ptr noundef nonnull align 8 dereferenceable(60) %6)
  store ptr getelementptr inbounds ({ [6 x ptr] }, ptr @_ZTVN6dealii18StandardExceptions5ExcIOE, i64 0, inrange i32 0, i64 2), ptr %6, align 8, !tbaa !5
  invoke void @_ZN6dealii13ExceptionBase10set_fieldsEPKciS2_S2_S2_(ptr noundef nonnull align 8 dereferenceable(60) %6, ptr noundef nonnull @.str.1, i32 noundef 862, ptr noundef nonnull @.str.2, ptr noundef nonnull @.str.8, ptr noundef nonnull @.str.4)
          to label %38 unwind label %44

38:                                               ; preds = %37
  %39 = call ptr @__cxa_allocate_exception(i64 64) #24
  invoke void @_ZN6dealii13ExceptionBaseC2ERKS0_(ptr noundef nonnull align 8 dereferenceable(60) %39, ptr noundef nonnull align 8 dereferenceable(60) %6)
          to label %40 unwind label %42

40:                                               ; preds = %38
  store ptr getelementptr inbounds ({ [6 x ptr] }, ptr @_ZTVN6dealii18StandardExceptions5ExcIOE, i64 0, inrange i32 0, i64 2), ptr %39, align 8, !tbaa !5
  invoke void @__cxa_throw(ptr nonnull %39, ptr nonnull @_ZTIN6dealii18StandardExceptions5ExcIOE, ptr nonnull @_ZN6dealii13ExceptionBaseD2Ev) #26
          to label %41 unwind label %44

41:                                               ; preds = %40
  unreachable

42:                                               ; preds = %38
  %43 = landingpad { ptr, i32 }
          cleanup
  call void @__cxa_free_exception(ptr %39) #24
  br label %67

44:                                               ; preds = %40, %37
  %45 = landingpad { ptr, i32 }
          cleanup
  br label %67

46:                                               ; preds = %27
  %47 = getelementptr inbounds %"class.dealii::Vector", ptr %0, i64 0, i32 3
  %48 = load ptr, ptr %47, align 8, !tbaa !24
  %49 = getelementptr inbounds %"class.dealii::Vector", ptr %0, i64 0, i32 1
  %50 = load i32, ptr %49, align 8, !tbaa !8
  %51 = zext i32 %50 to i64
  %52 = shl nuw nsw i64 %51, 3
  %53 = call noundef nonnull align 8 dereferenceable(16) ptr @_ZNSi4readEPcl(ptr noundef nonnull align 8 dereferenceable(16) %1, ptr noundef %48, i64 noundef %52)
  %54 = call noundef nonnull align 8 dereferenceable(16) ptr @_ZNSi4readEPcl(ptr noundef nonnull align 8 dereferenceable(16) %1, ptr noundef nonnull %5, i64 noundef 1)
  %55 = load i8, ptr %5, align 1, !tbaa !153
  %56 = icmp eq i8 %55, 93
  br i1 %56, label %66, label %57

57:                                               ; preds = %46
  call void @llvm.memset.p0.i64(ptr noundef nonnull align 8 dereferenceable(64) %7, i8 0, i64 64, i1 false)
  call void @_ZN6dealii13ExceptionBaseC2Ev(ptr noundef nonnull align 8 dereferenceable(60) %7)
  store ptr getelementptr inbounds ({ [6 x ptr] }, ptr @_ZTVN6dealii18StandardExceptions5ExcIOE, i64 0, inrange i32 0, i64 2), ptr %7, align 8, !tbaa !5
  invoke void @_ZN6dealii13ExceptionBase10set_fieldsEPKciS2_S2_S2_(ptr noundef nonnull align 8 dereferenceable(60) %7, ptr noundef nonnull @.str.1, i32 noundef 870, ptr noundef nonnull @.str.2, ptr noundef nonnull @.str.9, ptr noundef nonnull @.str.4)
          to label %58 unwind label %64

58:                                               ; preds = %57
  %59 = call ptr @__cxa_allocate_exception(i64 64) #24
  invoke void @_ZN6dealii13ExceptionBaseC2ERKS0_(ptr noundef nonnull align 8 dereferenceable(60) %59, ptr noundef nonnull align 8 dereferenceable(60) %7)
          to label %60 unwind label %62

60:                                               ; preds = %58
  store ptr getelementptr inbounds ({ [6 x ptr] }, ptr @_ZTVN6dealii18StandardExceptions5ExcIOE, i64 0, inrange i32 0, i64 2), ptr %59, align 8, !tbaa !5
  invoke void @__cxa_throw(ptr nonnull %59, ptr nonnull @_ZTIN6dealii18StandardExceptions5ExcIOE, ptr nonnull @_ZN6dealii13ExceptionBaseD2Ev) #26
          to label %61 unwind label %64

61:                                               ; preds = %60
  unreachable

62:                                               ; preds = %58
  %63 = landingpad { ptr, i32 }
          cleanup
  call void @__cxa_free_exception(ptr %59) #24
  br label %67

64:                                               ; preds = %60, %57
  %65 = landingpad { ptr, i32 }
          cleanup
  br label %67

66:                                               ; preds = %46
  call void @llvm.lifetime.end.p0(i64 1, ptr nonnull %5) #24
  call void @llvm.lifetime.end.p0(i64 16, ptr nonnull %4) #24
  ret void

67:                                               ; preds = %64, %62, %44, %42
  %68 = phi ptr [ %6, %42 ], [ %6, %44 ], [ %7, %62 ], [ %7, %64 ]
  %69 = phi { ptr, i32 } [ %43, %42 ], [ %45, %44 ], [ %63, %62 ], [ %65, %64 ]
  call void @_ZN6dealii13ExceptionBaseD2Ev(ptr noundef nonnull align 8 dereferenceable(60) %68) #24
  call void @llvm.lifetime.end.p0(i64 1, ptr nonnull %5) #24
  call void @llvm.lifetime.end.p0(i64 16, ptr nonnull %4) #24
  br label %70

70:                                               ; preds = %67, %25
  %71 = phi { ptr, i32 } [ %69, %67 ], [ %26, %25 ]
  resume { ptr, i32 } %71
}

declare noundef nonnull align 8 dereferenceable(16) ptr @_ZNSi7getlineEPclc(ptr noundef nonnull align 8 dereferenceable(16), ptr noundef, i64 noundef, i8 noundef signext) local_unnamed_addr #1

declare noundef nonnull align 8 dereferenceable(16) ptr @_ZNSi4readEPcl(ptr noundef nonnull align 8 dereferenceable(16), ptr noundef, i64 noundef) local_unnamed_addr #1

; Function Attrs: nounwind sspstrong uwtable
define weak_odr dso_local noundef i32 @_ZNK6dealii6VectorIdE18memory_consumptionEv(ptr noundef nonnull align 8 dereferenceable(88) %0) local_unnamed_addr #9 comdat align 2 {
  %2 = getelementptr inbounds %"class.dealii::Vector", ptr %0, i64 0, i32 2
  %3 = load i32, ptr %2, align 4, !tbaa !23
  %4 = shl i32 %3, 3
  %5 = add i32 %4, 88
  ret i32 %5
}

; Function Attrs: inlinehint sspstrong uwtable
define weak_odr dso_local void @_ZN6dealii6VectorIfEC2Ev(ptr noundef nonnull align 8 dereferenceable(88) %0) unnamed_addr #0 comdat($_ZN6dealii6VectorIfEC5Ev) align 2 {
  tail call void @_ZN6dealii11SubscriptorC2Ev(ptr noundef nonnull align 8 dereferenceable(72) %0)
  store ptr getelementptr inbounds ({ [6 x ptr] }, ptr @_ZTVN6dealii6VectorIfEE, i64 0, inrange i32 0, i64 2), ptr %0, align 8, !tbaa !5
  %2 = getelementptr inbounds %"class.dealii::Vector.8", ptr %0, i64 0, i32 1
  tail call void @llvm.memset.p0.i64(ptr noundef nonnull align 8 dereferenceable(16) %2, i8 0, i64 16, i1 false)
  ret void
}

; Function Attrs: sspstrong uwtable
define weak_odr dso_local void @_ZN6dealii6VectorIfEC2ERKS1_(ptr noundef nonnull align 8 dereferenceable(88) %0, ptr noundef nonnull align 8 dereferenceable(88) %1) unnamed_addr #2 comdat($_ZN6dealii6VectorIfEC5ERKS1_) align 2 personality ptr @__gxx_personality_v0 {
  tail call void @_ZN6dealii11SubscriptorC2Ev(ptr noundef nonnull align 8 dereferenceable(72) %0)
  store ptr getelementptr inbounds ({ [6 x ptr] }, ptr @_ZTVN6dealii6VectorIfEE, i64 0, inrange i32 0, i64 2), ptr %0, align 8, !tbaa !5
  %3 = getelementptr inbounds %"class.dealii::Vector.8", ptr %0, i64 0, i32 1
  %4 = getelementptr inbounds %"class.dealii::Vector.8", ptr %1, i64 0, i32 1
  %5 = load i32, ptr %4, align 8, !tbaa !161
  store i32 %5, ptr %3, align 8, !tbaa !161
  %6 = getelementptr inbounds %"class.dealii::Vector.8", ptr %0, i64 0, i32 2
  %7 = load i32, ptr %4, align 8, !tbaa !161
  store i32 %7, ptr %6, align 4, !tbaa !163
  %8 = getelementptr inbounds %"class.dealii::Vector.8", ptr %0, i64 0, i32 3
  store ptr null, ptr %8, align 8, !tbaa !164
  %9 = icmp eq i32 %5, 0
  br i1 %9, label %25, label %10

10:                                               ; preds = %2
  %11 = zext i32 %7 to i64
  %12 = shl nuw nsw i64 %11, 2
  %13 = invoke noalias noundef nonnull ptr @_Znam(i64 noundef %12) #22
          to label %14 unwind label %23

14:                                               ; preds = %10
  store ptr %13, ptr %8, align 8, !tbaa !164
  %15 = getelementptr inbounds %"class.dealii::Vector.8", ptr %1, i64 0, i32 3
  %16 = load ptr, ptr %15, align 8, !tbaa !164
  %17 = icmp ugt i32 %7, 1
  br i1 %17, label %18, label %19, !prof !25

18:                                               ; preds = %14
  tail call void @llvm.memmove.p0.p0.i64(ptr nonnull align 4 %13, ptr align 4 %16, i64 %12, i1 false)
  br label %25

19:                                               ; preds = %14
  %20 = icmp eq i32 %7, 1
  br i1 %20, label %21, label %25

21:                                               ; preds = %19
  %22 = load float, ptr %16, align 4, !tbaa !165
  store float %22, ptr %13, align 4, !tbaa !165
  br label %25

23:                                               ; preds = %10
  %24 = landingpad { ptr, i32 }
          cleanup
  invoke void @_ZN6dealii11SubscriptorD2Ev(ptr noundef nonnull align 8 dereferenceable(72) %0)
          to label %26 unwind label %27

25:                                               ; preds = %21, %19, %18, %2
  ret void

26:                                               ; preds = %23
  resume { ptr, i32 } %24

27:                                               ; preds = %23
  %28 = landingpad { ptr, i32 }
          catch ptr null
  %29 = extractvalue { ptr, i32 } %28, 0
  tail call void @__clang_call_terminate(ptr %29) #23
  unreachable
}

; Function Attrs: inlinehint nounwind sspstrong uwtable
define weak_odr dso_local noundef i32 @_ZNK6dealii6VectorIfE4sizeEv(ptr noundef nonnull align 8 dereferenceable(88) %0) local_unnamed_addr #3 comdat align 2 {
  %2 = getelementptr inbounds %"class.dealii::Vector.8", ptr %0, i64 0, i32 1
  %3 = load i32, ptr %2, align 8, !tbaa !161
  ret i32 %3
}

; Function Attrs: inlinehint nounwind sspstrong uwtable
define weak_odr dso_local noundef ptr @_ZNK6dealii6VectorIfE5beginEv(ptr noundef nonnull align 8 dereferenceable(88) %0) local_unnamed_addr #3 comdat align 2 {
  %2 = getelementptr inbounds %"class.dealii::Vector.8", ptr %0, i64 0, i32 3
  %3 = load ptr, ptr %2, align 8, !tbaa !164
  ret ptr %3
}

; Function Attrs: inlinehint nounwind sspstrong uwtable
define weak_odr dso_local noundef ptr @_ZNK6dealii6VectorIfE3endEv(ptr noundef nonnull align 8 dereferenceable(88) %0) local_unnamed_addr #3 comdat align 2 {
  %2 = getelementptr inbounds %"class.dealii::Vector.8", ptr %0, i64 0, i32 3
  %3 = load ptr, ptr %2, align 8, !tbaa !164
  %4 = getelementptr inbounds %"class.dealii::Vector.8", ptr %0, i64 0, i32 1
  %5 = load i32, ptr %4, align 8, !tbaa !161
  %6 = zext i32 %5 to i64
  %7 = getelementptr inbounds float, ptr %3, i64 %6
  ret ptr %7
}

; Function Attrs: inlinehint nounwind sspstrong uwtable
define weak_odr dso_local noundef ptr @_ZN6dealii6VectorIfE5beginEv(ptr noundef nonnull align 8 dereferenceable(88) %0) local_unnamed_addr #3 comdat align 2 {
  %2 = getelementptr inbounds %"class.dealii::Vector.8", ptr %0, i64 0, i32 3
  %3 = load ptr, ptr %2, align 8, !tbaa !164
  ret ptr %3
}

; Function Attrs: inlinehint sspstrong uwtable
define weak_odr dso_local void @_ZN6dealii6VectorIfEC2Ej(ptr noundef nonnull align 8 dereferenceable(88) %0, i32 noundef %1) unnamed_addr #0 comdat($_ZN6dealii6VectorIfEC5Ej) align 2 personality ptr @__gxx_personality_v0 {
  tail call void @_ZN6dealii11SubscriptorC2Ev(ptr noundef nonnull align 8 dereferenceable(72) %0)
  store ptr getelementptr inbounds ({ [6 x ptr] }, ptr @_ZTVN6dealii6VectorIfEE, i64 0, inrange i32 0, i64 2), ptr %0, align 8, !tbaa !5
  %3 = getelementptr inbounds %"class.dealii::Vector.8", ptr %0, i64 0, i32 1
  tail call void @llvm.memset.p0.i64(ptr noundef nonnull align 8 dereferenceable(16) %3, i8 0, i64 16, i1 false)
  %4 = icmp eq i32 %1, 0
  br i1 %4, label %12, label %5

5:                                                ; preds = %2
  %6 = zext i32 %1 to i64
  %7 = shl nuw nsw i64 %6, 2
  %8 = invoke noalias noundef nonnull ptr @_Znam(i64 noundef %7) #22
          to label %9 unwind label %13

9:                                                ; preds = %5
  %10 = getelementptr inbounds %"class.dealii::Vector.8", ptr %0, i64 0, i32 3
  %11 = getelementptr inbounds %"class.dealii::Vector.8", ptr %0, i64 0, i32 2
  store ptr %8, ptr %10, align 8, !tbaa !164
  store i32 %1, ptr %11, align 4, !tbaa !163
  store i32 %1, ptr %3, align 8, !tbaa !161
  tail call void @llvm.memset.p0.i64(ptr nonnull align 4 %8, i8 0, i64 %7, i1 false), !tbaa !165
  br label %12

12:                                               ; preds = %2, %9
  ret void

13:                                               ; preds = %5
  %14 = landingpad { ptr, i32 }
          cleanup
  invoke void @_ZN6dealii11SubscriptorD2Ev(ptr noundef nonnull align 8 dereferenceable(72) %0)
          to label %15 unwind label %16

15:                                               ; preds = %13
  resume { ptr, i32 } %14

16:                                               ; preds = %13
  %17 = landingpad { ptr, i32 }
          catch ptr null
  %18 = extractvalue { ptr, i32 } %17, 0
  tail call void @__clang_call_terminate(ptr %18) #23
  unreachable
}

; Function Attrs: inlinehint sspstrong uwtable
define weak_odr dso_local void @_ZN6dealii6VectorIfED2Ev(ptr noundef nonnull align 8 dereferenceable(88) %0) unnamed_addr #0 comdat($_ZN6dealii6VectorIfED5Ev) align 2 {
  store ptr getelementptr inbounds ({ [6 x ptr] }, ptr @_ZTVN6dealii6VectorIfEE, i64 0, inrange i32 0, i64 2), ptr %0, align 8, !tbaa !5
  %2 = getelementptr inbounds %"class.dealii::Vector.8", ptr %0, i64 0, i32 3
  %3 = load ptr, ptr %2, align 8, !tbaa !164
  %4 = icmp eq ptr %3, null
  br i1 %4, label %6, label %5

5:                                                ; preds = %1
  tail call void @_ZdaPv(ptr noundef nonnull %3) #25
  store ptr null, ptr %2, align 8, !tbaa !164
  br label %6

6:                                                ; preds = %5, %1
  tail call void @_ZN6dealii11SubscriptorD2Ev(ptr noundef nonnull align 8 dereferenceable(72) %0)
  ret void
}

; Function Attrs: inlinehint sspstrong uwtable
define weak_odr dso_local void @_ZN6dealii6VectorIfED0Ev(ptr noundef nonnull align 8 dereferenceable(88) %0) unnamed_addr #0 comdat($_ZN6dealii6VectorIfED5Ev) align 2 personality ptr @__gxx_personality_v0 {
  store ptr getelementptr inbounds ({ [6 x ptr] }, ptr @_ZTVN6dealii6VectorIfEE, i64 0, inrange i32 0, i64 2), ptr %0, align 8, !tbaa !5
  %2 = getelementptr inbounds %"class.dealii::Vector.8", ptr %0, i64 0, i32 3
  %3 = load ptr, ptr %2, align 8, !tbaa !164
  %4 = icmp eq ptr %3, null
  br i1 %4, label %6, label %5

5:                                                ; preds = %1
  tail call void @_ZdaPv(ptr noundef nonnull %3) #25
  store ptr null, ptr %2, align 8, !tbaa !164
  br label %6

6:                                                ; preds = %5, %1
  invoke void @_ZN6dealii11SubscriptorD2Ev(ptr noundef nonnull align 8 dereferenceable(72) %0)
          to label %7 unwind label %8

7:                                                ; preds = %6
  tail call void @_ZdlPv(ptr noundef nonnull %0) #25
  ret void

8:                                                ; preds = %6
  %9 = landingpad { ptr, i32 }
          cleanup
  tail call void @_ZdlPv(ptr noundef nonnull %0) #25
  resume { ptr, i32 } %9
}

; Function Attrs: inlinehint nounwind sspstrong uwtable
define weak_odr dso_local void @_ZNK6dealii6VectorIfE8compressEv(ptr noundef nonnull align 8 dereferenceable(88) %0) local_unnamed_addr #3 comdat align 2 {
  ret void
}

; Function Attrs: inlinehint sspstrong uwtable
define weak_odr dso_local void @_ZN6dealii6VectorIfE6reinitEjb(ptr noundef nonnull align 8 dereferenceable(88) %0, i32 noundef %1, i1 noundef zeroext %2) unnamed_addr #0 comdat align 2 {
  %4 = icmp eq i32 %1, 0
  br i1 %4, label %5, label %12

5:                                                ; preds = %3
  %6 = getelementptr inbounds %"class.dealii::Vector.8", ptr %0, i64 0, i32 3
  %7 = load ptr, ptr %6, align 8, !tbaa !164
  %8 = icmp eq ptr %7, null
  br i1 %8, label %10, label %9

9:                                                ; preds = %5
  tail call void @_ZdaPv(ptr noundef nonnull %7) #25
  br label %10

10:                                               ; preds = %9, %5
  %11 = getelementptr inbounds %"class.dealii::Vector.8", ptr %0, i64 0, i32 1
  tail call void @llvm.memset.p0.i64(ptr noundef nonnull align 8 dereferenceable(16) %11, i8 0, i64 16, i1 false)
  br label %32

12:                                               ; preds = %3
  %13 = getelementptr inbounds %"class.dealii::Vector.8", ptr %0, i64 0, i32 2
  %14 = load i32, ptr %13, align 4, !tbaa !163
  %15 = icmp ult i32 %14, %1
  br i1 %15, label %16, label %25

16:                                               ; preds = %12
  %17 = getelementptr inbounds %"class.dealii::Vector.8", ptr %0, i64 0, i32 3
  %18 = load ptr, ptr %17, align 8, !tbaa !164
  %19 = icmp eq ptr %18, null
  br i1 %19, label %21, label %20

20:                                               ; preds = %16
  tail call void @_ZdaPv(ptr noundef nonnull %18) #25
  br label %21

21:                                               ; preds = %20, %16
  %22 = zext i32 %1 to i64
  %23 = shl nuw nsw i64 %22, 2
  %24 = tail call noalias noundef nonnull ptr @_Znam(i64 noundef %23) #22
  store ptr %24, ptr %17, align 8, !tbaa !164
  store i32 %1, ptr %13, align 4, !tbaa !163
  br label %25

25:                                               ; preds = %21, %12
  %26 = getelementptr inbounds %"class.dealii::Vector.8", ptr %0, i64 0, i32 1
  store i32 %1, ptr %26, align 8, !tbaa !161
  br i1 %2, label %32, label %27

27:                                               ; preds = %25
  %28 = getelementptr inbounds %"class.dealii::Vector.8", ptr %0, i64 0, i32 3
  %29 = load ptr, ptr %28, align 8, !tbaa !164
  %30 = zext i32 %1 to i64
  %31 = shl nuw nsw i64 %30, 2
  tail call void @llvm.memset.p0.i64(ptr align 4 %29, i8 0, i64 %31, i1 false), !tbaa !165
  br label %32

32:                                               ; preds = %27, %10, %25
  ret void
}

; Function Attrs: inlinehint sspstrong uwtable
define weak_odr dso_local noundef nonnull align 8 dereferenceable(88) ptr @_ZN6dealii6VectorIfEaSEf(ptr noundef nonnull align 8 dereferenceable(88) %0, float noundef %1) local_unnamed_addr #0 comdat align 2 {
  %3 = getelementptr inbounds %"class.dealii::Vector.8", ptr %0, i64 0, i32 1
  %4 = load i32, ptr %3, align 8, !tbaa !161
  %5 = icmp eq i32 %4, 0
  br i1 %5, label %44, label %6

6:                                                ; preds = %2
  %7 = getelementptr inbounds %"class.dealii::Vector.8", ptr %0, i64 0, i32 3
  %8 = load ptr, ptr %7, align 8, !tbaa !164
  %9 = zext i32 %4 to i64
  %10 = getelementptr inbounds float, ptr %8, i64 %9
  %11 = add nuw nsw i64 %9, 4611686018427387903
  %12 = and i64 %11, 4611686018427387903
  %13 = add nuw nsw i64 %12, 1
  %14 = icmp ult i64 %12, 31
  br i1 %14, label %38, label %15

15:                                               ; preds = %6
  %16 = and i64 %13, 9223372036854775776
  %17 = shl i64 %16, 2
  %18 = getelementptr i8, ptr %8, i64 %17
  %19 = insertelement <8 x float> poison, float %1, i64 0
  %20 = shufflevector <8 x float> %19, <8 x float> poison, <8 x i32> zeroinitializer
  %21 = insertelement <8 x float> poison, float %1, i64 0
  %22 = shufflevector <8 x float> %21, <8 x float> poison, <8 x i32> zeroinitializer
  %23 = insertelement <8 x float> poison, float %1, i64 0
  %24 = shufflevector <8 x float> %23, <8 x float> poison, <8 x i32> zeroinitializer
  %25 = insertelement <8 x float> poison, float %1, i64 0
  %26 = shufflevector <8 x float> %25, <8 x float> poison, <8 x i32> zeroinitializer
  br label %27

27:                                               ; preds = %27, %15
  %28 = phi i64 [ 0, %15 ], [ %34, %27 ]
  %29 = shl i64 %28, 2
  %30 = getelementptr i8, ptr %8, i64 %29
  store <8 x float> %20, ptr %30, align 4, !tbaa !165
  %31 = getelementptr float, ptr %30, i64 8
  store <8 x float> %22, ptr %31, align 4, !tbaa !165
  %32 = getelementptr float, ptr %30, i64 16
  store <8 x float> %24, ptr %32, align 4, !tbaa !165
  %33 = getelementptr float, ptr %30, i64 24
  store <8 x float> %26, ptr %33, align 4, !tbaa !165
  %34 = add nuw i64 %28, 32
  %35 = icmp eq i64 %34, %16
  br i1 %35, label %36, label %27, !llvm.loop !167

36:                                               ; preds = %27
  %37 = icmp eq i64 %13, %16
  br i1 %37, label %44, label %38

38:                                               ; preds = %6, %36
  %39 = phi ptr [ %8, %6 ], [ %18, %36 ]
  br label %40

40:                                               ; preds = %38, %40
  %41 = phi ptr [ %42, %40 ], [ %39, %38 ]
  store float %1, ptr %41, align 4, !tbaa !165
  %42 = getelementptr inbounds float, ptr %41, i64 1
  %43 = icmp eq ptr %42, %10
  br i1 %43, label %44, label %40, !llvm.loop !168

44:                                               ; preds = %40, %36, %2
  ret ptr %0
}

; Function Attrs: inlinehint sspstrong uwtable
define weak_odr dso_local void @_ZN6dealii6VectorIfE4swapERS1_(ptr noundef nonnull align 8 dereferenceable(88) %0, ptr noundef nonnull align 8 dereferenceable(88) %1) unnamed_addr #0 comdat align 2 {
  %3 = getelementptr inbounds %"class.dealii::Vector.8", ptr %0, i64 0, i32 1
  %4 = getelementptr inbounds %"class.dealii::Vector.8", ptr %1, i64 0, i32 1
  %5 = load i32, ptr %3, align 8, !tbaa !32
  %6 = load i32, ptr %4, align 8, !tbaa !32
  store i32 %6, ptr %3, align 8, !tbaa !32
  store i32 %5, ptr %4, align 8, !tbaa !32
  %7 = getelementptr inbounds %"class.dealii::Vector.8", ptr %0, i64 0, i32 2
  %8 = getelementptr inbounds %"class.dealii::Vector.8", ptr %1, i64 0, i32 2
  %9 = load i32, ptr %7, align 4, !tbaa !32
  %10 = load i32, ptr %8, align 4, !tbaa !32
  store i32 %10, ptr %7, align 4, !tbaa !32
  store i32 %9, ptr %8, align 4, !tbaa !32
  %11 = getelementptr inbounds %"class.dealii::Vector.8", ptr %0, i64 0, i32 3
  %12 = getelementptr inbounds %"class.dealii::Vector.8", ptr %1, i64 0, i32 3
  %13 = load ptr, ptr %11, align 8, !tbaa !33
  %14 = load ptr, ptr %12, align 8, !tbaa !33
  store ptr %14, ptr %11, align 8, !tbaa !33
  store ptr %13, ptr %12, align 8, !tbaa !33
  ret void
}

; Function Attrs: inlinehint nounwind sspstrong uwtable
define weak_odr dso_local noundef ptr @_ZN6dealii6VectorIfE3endEv(ptr noundef nonnull align 8 dereferenceable(88) %0) local_unnamed_addr #3 comdat align 2 {
  %2 = getelementptr inbounds %"class.dealii::Vector.8", ptr %0, i64 0, i32 3
  %3 = load ptr, ptr %2, align 8, !tbaa !164
  %4 = getelementptr inbounds %"class.dealii::Vector.8", ptr %0, i64 0, i32 1
  %5 = load i32, ptr %4, align 8, !tbaa !161
  %6 = zext i32 %5 to i64
  %7 = getelementptr inbounds float, ptr %3, i64 %6
  ret ptr %7
}

; Function Attrs: sspstrong uwtable
define weak_odr dso_local noundef nonnull align 8 dereferenceable(88) ptr @_ZN6dealii6VectorIfEaSERKS1_(ptr noundef nonnull align 8 dereferenceable(88) %0, ptr noundef nonnull align 8 dereferenceable(88) %1) local_unnamed_addr #2 comdat align 2 {
  %3 = getelementptr inbounds %"class.dealii::Vector.8", ptr %1, i64 0, i32 1
  %4 = load i32, ptr %3, align 8, !tbaa !161
  %5 = getelementptr inbounds %"class.dealii::Vector.8", ptr %0, i64 0, i32 1
  %6 = load i32, ptr %5, align 8, !tbaa !161
  %7 = icmp eq i32 %4, %6
  br i1 %7, label %13, label %8

8:                                                ; preds = %2
  %9 = load ptr, ptr %0, align 8, !tbaa !5
  %10 = getelementptr inbounds ptr, ptr %9, i64 2
  %11 = load ptr, ptr %10, align 8
  tail call void %11(ptr noundef nonnull align 8 dereferenceable(88) %0, i32 noundef %4, i1 noundef zeroext true)
  %12 = load i32, ptr %5, align 8, !tbaa !161
  br label %13

13:                                               ; preds = %8, %2
  %14 = phi i32 [ %12, %8 ], [ %4, %2 ]
  %15 = icmp eq i32 %14, 0
  br i1 %15, label %30, label %16

16:                                               ; preds = %13
  %17 = getelementptr inbounds %"class.dealii::Vector.8", ptr %1, i64 0, i32 3
  %18 = load ptr, ptr %17, align 8, !tbaa !164
  %19 = load i32, ptr %3, align 8, !tbaa !161
  %20 = getelementptr inbounds %"class.dealii::Vector.8", ptr %0, i64 0, i32 3
  %21 = load ptr, ptr %20, align 8, !tbaa !164
  %22 = icmp ugt i32 %19, 1
  br i1 %22, label %23, label %26, !prof !25

23:                                               ; preds = %16
  %24 = zext i32 %19 to i64
  %25 = shl nuw nsw i64 %24, 2
  tail call void @llvm.memmove.p0.p0.i64(ptr align 4 %21, ptr align 4 %18, i64 %25, i1 false)
  br label %30

26:                                               ; preds = %16
  %27 = icmp eq i32 %19, 1
  br i1 %27, label %28, label %30

28:                                               ; preds = %26
  %29 = load float, ptr %18, align 4, !tbaa !165
  store float %29, ptr %21, align 4, !tbaa !165
  br label %30

30:                                               ; preds = %28, %26, %23, %13
  ret ptr %0
}

; Function Attrs: sspstrong uwtable
define weak_odr dso_local noundef nonnull align 8 dereferenceable(88) ptr @_ZN6dealii6VectorIfEaSERKNS_11BlockVectorIfEE(ptr noundef nonnull align 8 dereferenceable(88) %0, ptr noundef nonnull align 8 dereferenceable(128) %1) local_unnamed_addr #2 comdat align 2 {
  %3 = getelementptr inbounds %"class.dealii::BlockVectorBase.10", ptr %1, i64 0, i32 2
  %4 = getelementptr inbounds %"class.dealii::BlockVectorBase.10", ptr %1, i64 0, i32 2, i32 1
  %5 = load i32, ptr %3, align 8, !tbaa !34
  %6 = zext i32 %5 to i64
  %7 = load ptr, ptr %4, align 8, !tbaa !40
  %8 = getelementptr inbounds i32, ptr %7, i64 %6
  %9 = load i32, ptr %8, align 4, !tbaa !32
  %10 = getelementptr inbounds %"class.dealii::Vector.8", ptr %0, i64 0, i32 1
  %11 = load i32, ptr %10, align 8, !tbaa !161
  %12 = icmp eq i32 %9, %11
  br i1 %12, label %18, label %13

13:                                               ; preds = %2
  %14 = load ptr, ptr %0, align 8, !tbaa !5
  %15 = getelementptr inbounds ptr, ptr %14, i64 2
  %16 = load ptr, ptr %15, align 8
  tail call void %16(ptr noundef nonnull align 8 dereferenceable(88) %0, i32 noundef %9, i1 noundef zeroext true)
  %17 = load i32, ptr %3, align 8, !tbaa !34
  br label %18

18:                                               ; preds = %13, %2
  %19 = phi i32 [ %17, %13 ], [ %5, %2 ]
  %20 = icmp eq i32 %19, 0
  br i1 %20, label %102, label %21

21:                                               ; preds = %18
  %22 = getelementptr inbounds %"class.dealii::BlockVectorBase.10", ptr %1, i64 0, i32 1
  %23 = load ptr, ptr %22, align 8, !tbaa !169
  %24 = getelementptr inbounds %"class.dealii::Vector.8", ptr %0, i64 0, i32 3
  %25 = load ptr, ptr %24, align 8
  %26 = ptrtoint ptr %25 to i64
  %27 = zext i32 %19 to i64
  br label %28

28:                                               ; preds = %21, %103
  %29 = phi i64 [ 0, %21 ], [ %105, %103 ]
  %30 = phi i32 [ 0, %21 ], [ %104, %103 ]
  %31 = getelementptr inbounds %"class.dealii::Vector.8", ptr %23, i64 %29, i32 1
  %32 = load i32, ptr %31, align 8, !tbaa !161
  %33 = icmp eq i32 %32, 0
  br i1 %33, label %103, label %34

34:                                               ; preds = %28
  %35 = getelementptr inbounds %"class.dealii::Vector.8", ptr %23, i64 %29, i32 3
  %36 = load ptr, ptr %35, align 8, !tbaa !164
  %37 = ptrtoint ptr %36 to i64
  %38 = zext i32 %32 to i64
  %39 = icmp ult i32 %32, 32
  br i1 %39, label %78, label %40

40:                                               ; preds = %34
  %41 = add nsw i64 %38, -1
  %42 = trunc i64 %41 to i32
  %43 = xor i32 %30, -1
  %44 = icmp ult i32 %43, %42
  %45 = icmp ugt i64 %41, 4294967295
  %46 = or i1 %44, %45
  br i1 %46, label %78, label %47

47:                                               ; preds = %40
  %48 = zext i32 %30 to i64
  %49 = shl nuw nsw i64 %48, 2
  %50 = add i64 %49, %26
  %51 = sub i64 %50, %37
  %52 = icmp ult i64 %51, 128
  br i1 %52, label %78, label %53

53:                                               ; preds = %47
  %54 = and i64 %38, 4294967264
  %55 = trunc i64 %54 to i32
  %56 = add i32 %30, %55
  br label %57

57:                                               ; preds = %57, %53
  %58 = phi i64 [ 0, %53 ], [ %74, %57 ]
  %59 = trunc i64 %58 to i32
  %60 = add i32 %30, %59
  %61 = getelementptr inbounds float, ptr %36, i64 %58
  %62 = load <8 x float>, ptr %61, align 4, !tbaa !165
  %63 = getelementptr inbounds float, ptr %61, i64 8
  %64 = load <8 x float>, ptr %63, align 4, !tbaa !165
  %65 = getelementptr inbounds float, ptr %61, i64 16
  %66 = load <8 x float>, ptr %65, align 4, !tbaa !165
  %67 = getelementptr inbounds float, ptr %61, i64 24
  %68 = load <8 x float>, ptr %67, align 4, !tbaa !165
  %69 = zext i32 %60 to i64
  %70 = getelementptr inbounds float, ptr %25, i64 %69
  store <8 x float> %62, ptr %70, align 4, !tbaa !165
  %71 = getelementptr inbounds float, ptr %70, i64 8
  store <8 x float> %64, ptr %71, align 4, !tbaa !165
  %72 = getelementptr inbounds float, ptr %70, i64 16
  store <8 x float> %66, ptr %72, align 4, !tbaa !165
  %73 = getelementptr inbounds float, ptr %70, i64 24
  store <8 x float> %68, ptr %73, align 4, !tbaa !165
  %74 = add nuw i64 %58, 32
  %75 = icmp eq i64 %74, %54
  br i1 %75, label %76, label %57, !llvm.loop !171

76:                                               ; preds = %57
  %77 = icmp eq i64 %54, %38
  br i1 %77, label %103, label %78

78:                                               ; preds = %47, %40, %34, %76
  %79 = phi i64 [ 0, %47 ], [ 0, %40 ], [ 0, %34 ], [ %54, %76 ]
  %80 = phi i32 [ %30, %47 ], [ %30, %40 ], [ %30, %34 ], [ %56, %76 ]
  %81 = xor i64 %79, -1
  %82 = add nsw i64 %81, %38
  %83 = and i64 %38, 3
  %84 = icmp eq i64 %83, 0
  br i1 %84, label %97, label %85

85:                                               ; preds = %78, %85
  %86 = phi i64 [ %93, %85 ], [ %79, %78 ]
  %87 = phi i32 [ %94, %85 ], [ %80, %78 ]
  %88 = phi i64 [ %95, %85 ], [ 0, %78 ]
  %89 = getelementptr inbounds float, ptr %36, i64 %86
  %90 = load float, ptr %89, align 4, !tbaa !165
  %91 = zext i32 %87 to i64
  %92 = getelementptr inbounds float, ptr %25, i64 %91
  store float %90, ptr %92, align 4, !tbaa !165
  %93 = add nuw nsw i64 %86, 1
  %94 = add i32 %87, 1
  %95 = add i64 %88, 1
  %96 = icmp eq i64 %95, %83
  br i1 %96, label %97, label %85, !llvm.loop !172

97:                                               ; preds = %85, %78
  %98 = phi i32 [ undef, %78 ], [ %94, %85 ]
  %99 = phi i64 [ %79, %78 ], [ %93, %85 ]
  %100 = phi i32 [ %80, %78 ], [ %94, %85 ]
  %101 = icmp ult i64 %82, 3
  br i1 %101, label %103, label %107

102:                                              ; preds = %103, %18
  ret ptr %0

103:                                              ; preds = %97, %107, %76, %28
  %104 = phi i32 [ %30, %28 ], [ %56, %76 ], [ %98, %97 ], [ %133, %107 ]
  %105 = add nuw nsw i64 %29, 1
  %106 = icmp eq i64 %105, %27
  br i1 %106, label %102, label %28

107:                                              ; preds = %97, %107
  %108 = phi i64 [ %132, %107 ], [ %99, %97 ]
  %109 = phi i32 [ %133, %107 ], [ %100, %97 ]
  %110 = getelementptr inbounds float, ptr %36, i64 %108
  %111 = load float, ptr %110, align 4, !tbaa !165
  %112 = zext i32 %109 to i64
  %113 = getelementptr inbounds float, ptr %25, i64 %112
  store float %111, ptr %113, align 4, !tbaa !165
  %114 = add nuw nsw i64 %108, 1
  %115 = add i32 %109, 1
  %116 = getelementptr inbounds float, ptr %36, i64 %114
  %117 = load float, ptr %116, align 4, !tbaa !165
  %118 = zext i32 %115 to i64
  %119 = getelementptr inbounds float, ptr %25, i64 %118
  store float %117, ptr %119, align 4, !tbaa !165
  %120 = add nuw nsw i64 %108, 2
  %121 = add i32 %109, 2
  %122 = getelementptr inbounds float, ptr %36, i64 %120
  %123 = load float, ptr %122, align 4, !tbaa !165
  %124 = zext i32 %121 to i64
  %125 = getelementptr inbounds float, ptr %25, i64 %124
  store float %123, ptr %125, align 4, !tbaa !165
  %126 = add nuw nsw i64 %108, 3
  %127 = add i32 %109, 3
  %128 = getelementptr inbounds float, ptr %36, i64 %126
  %129 = load float, ptr %128, align 4, !tbaa !165
  %130 = zext i32 %127 to i64
  %131 = getelementptr inbounds float, ptr %25, i64 %130
  store float %129, ptr %131, align 4, !tbaa !165
  %132 = add nuw nsw i64 %108, 4
  %133 = add i32 %109, 4
  %134 = icmp eq i64 %132, %38
  br i1 %134, label %103, label %107, !llvm.loop !173
}

; Function Attrs: inlinehint nounwind sspstrong uwtable
define weak_odr dso_local noundef float @_ZNK6dealii6VectorIfEclEj(ptr noundef nonnull align 8 dereferenceable(88) %0, i32 noundef %1) local_unnamed_addr #3 comdat align 2 {
  %3 = getelementptr inbounds %"class.dealii::Vector.8", ptr %0, i64 0, i32 3
  %4 = load ptr, ptr %3, align 8, !tbaa !164
  %5 = zext i32 %1 to i64
  %6 = getelementptr inbounds float, ptr %4, i64 %5
  %7 = load float, ptr %6, align 4, !tbaa !165
  ret float %7
}

; Function Attrs: sspstrong uwtable
define weak_odr dso_local noundef float @_ZNK6dealii6VectorIfE8norm_sqrEv(ptr noundef nonnull align 8 dereferenceable(88) %0) local_unnamed_addr #2 comdat align 2 {
  %2 = getelementptr inbounds %"class.dealii::Vector.8", ptr %0, i64 0, i32 1
  %3 = load i32, ptr %2, align 8, !tbaa !161
  %4 = icmp eq i32 %3, 0
  br i1 %4, label %29, label %5

5:                                                ; preds = %1
  %6 = getelementptr inbounds %"class.dealii::Vector.8", ptr %0, i64 0, i32 3
  %7 = load ptr, ptr %6, align 8, !tbaa !164
  %8 = zext i32 %3 to i64
  %9 = and i64 %8, 3
  %10 = icmp ult i32 %3, 4
  br i1 %10, label %13, label %11

11:                                               ; preds = %5
  %12 = and i64 %8, 4294967292
  br label %31

13:                                               ; preds = %31, %5
  %14 = phi float [ undef, %5 ], [ %53, %31 ]
  %15 = phi i64 [ 0, %5 ], [ %54, %31 ]
  %16 = phi float [ 0.000000e+00, %5 ], [ %53, %31 ]
  %17 = icmp eq i64 %9, 0
  br i1 %17, label %29, label %18

18:                                               ; preds = %13, %18
  %19 = phi i64 [ %26, %18 ], [ %15, %13 ]
  %20 = phi float [ %25, %18 ], [ %16, %13 ]
  %21 = phi i64 [ %27, %18 ], [ 0, %13 ]
  %22 = getelementptr inbounds float, ptr %7, i64 %19
  %23 = load float, ptr %22, align 4, !tbaa !165
  %24 = fmul float %23, %23
  %25 = fadd float %20, %24
  %26 = add nuw nsw i64 %19, 1
  %27 = add i64 %21, 1
  %28 = icmp eq i64 %27, %9
  br i1 %28, label %29, label %18, !llvm.loop !174

29:                                               ; preds = %13, %18, %1
  %30 = phi float [ 0.000000e+00, %1 ], [ %14, %13 ], [ %25, %18 ]
  ret float %30

31:                                               ; preds = %31, %11
  %32 = phi i64 [ 0, %11 ], [ %54, %31 ]
  %33 = phi float [ 0.000000e+00, %11 ], [ %53, %31 ]
  %34 = phi i64 [ 0, %11 ], [ %55, %31 ]
  %35 = getelementptr inbounds float, ptr %7, i64 %32
  %36 = load float, ptr %35, align 4, !tbaa !165
  %37 = fmul float %36, %36
  %38 = fadd float %33, %37
  %39 = or i64 %32, 1
  %40 = getelementptr inbounds float, ptr %7, i64 %39
  %41 = load float, ptr %40, align 4, !tbaa !165
  %42 = fmul float %41, %41
  %43 = fadd float %38, %42
  %44 = or i64 %32, 2
  %45 = getelementptr inbounds float, ptr %7, i64 %44
  %46 = load float, ptr %45, align 4, !tbaa !165
  %47 = fmul float %46, %46
  %48 = fadd float %43, %47
  %49 = or i64 %32, 3
  %50 = getelementptr inbounds float, ptr %7, i64 %49
  %51 = load float, ptr %50, align 4, !tbaa !165
  %52 = fmul float %51, %51
  %53 = fadd float %48, %52
  %54 = add nuw nsw i64 %32, 4
  %55 = add i64 %34, 4
  %56 = icmp eq i64 %55, %12
  br i1 %56, label %13, label %31
}

; Function Attrs: sspstrong uwtable
define weak_odr dso_local noundef float @_ZNK6dealii6VectorIfE10mean_valueEv(ptr noundef nonnull align 8 dereferenceable(88) %0) local_unnamed_addr #2 comdat align 2 {
  %2 = getelementptr inbounds %"class.dealii::Vector.8", ptr %0, i64 0, i32 1
  %3 = load i32, ptr %2, align 8, !tbaa !161
  %4 = icmp eq i32 %3, 0
  br i1 %4, label %28, label %5

5:                                                ; preds = %1
  %6 = getelementptr inbounds %"class.dealii::Vector.8", ptr %0, i64 0, i32 3
  %7 = load ptr, ptr %6, align 8, !tbaa !164
  %8 = zext i32 %3 to i64
  %9 = and i64 %8, 7
  %10 = icmp ult i32 %3, 8
  br i1 %10, label %13, label %11

11:                                               ; preds = %5
  %12 = and i64 %8, 4294967288
  br label %32

13:                                               ; preds = %32, %5
  %14 = phi float [ undef, %5 ], [ %66, %32 ]
  %15 = phi i64 [ 0, %5 ], [ %67, %32 ]
  %16 = phi float [ 0.000000e+00, %5 ], [ %66, %32 ]
  %17 = icmp eq i64 %9, 0
  br i1 %17, label %28, label %18

18:                                               ; preds = %13, %18
  %19 = phi i64 [ %25, %18 ], [ %15, %13 ]
  %20 = phi float [ %24, %18 ], [ %16, %13 ]
  %21 = phi i64 [ %26, %18 ], [ 0, %13 ]
  %22 = getelementptr inbounds float, ptr %7, i64 %19
  %23 = load float, ptr %22, align 4, !tbaa !165
  %24 = fadd float %20, %23
  %25 = add nuw nsw i64 %19, 1
  %26 = add i64 %21, 1
  %27 = icmp eq i64 %26, %9
  br i1 %27, label %28, label %18, !llvm.loop !175

28:                                               ; preds = %13, %18, %1
  %29 = phi float [ 0.000000e+00, %1 ], [ %14, %13 ], [ %24, %18 ]
  %30 = uitofp i32 %3 to float
  %31 = fdiv float %29, %30
  ret float %31

32:                                               ; preds = %32, %11
  %33 = phi i64 [ 0, %11 ], [ %67, %32 ]
  %34 = phi float [ 0.000000e+00, %11 ], [ %66, %32 ]
  %35 = phi i64 [ 0, %11 ], [ %68, %32 ]
  %36 = getelementptr inbounds float, ptr %7, i64 %33
  %37 = load float, ptr %36, align 4, !tbaa !165
  %38 = fadd float %34, %37
  %39 = or i64 %33, 1
  %40 = getelementptr inbounds float, ptr %7, i64 %39
  %41 = load float, ptr %40, align 4, !tbaa !165
  %42 = fadd float %38, %41
  %43 = or i64 %33, 2
  %44 = getelementptr inbounds float, ptr %7, i64 %43
  %45 = load float, ptr %44, align 4, !tbaa !165
  %46 = fadd float %42, %45
  %47 = or i64 %33, 3
  %48 = getelementptr inbounds float, ptr %7, i64 %47
  %49 = load float, ptr %48, align 4, !tbaa !165
  %50 = fadd float %46, %49
  %51 = or i64 %33, 4
  %52 = getelementptr inbounds float, ptr %7, i64 %51
  %53 = load float, ptr %52, align 4, !tbaa !165
  %54 = fadd float %50, %53
  %55 = or i64 %33, 5
  %56 = getelementptr inbounds float, ptr %7, i64 %55
  %57 = load float, ptr %56, align 4, !tbaa !165
  %58 = fadd float %54, %57
  %59 = or i64 %33, 6
  %60 = getelementptr inbounds float, ptr %7, i64 %59
  %61 = load float, ptr %60, align 4, !tbaa !165
  %62 = fadd float %58, %61
  %63 = or i64 %33, 7
  %64 = getelementptr inbounds float, ptr %7, i64 %63
  %65 = load float, ptr %64, align 4, !tbaa !165
  %66 = fadd float %62, %65
  %67 = add nuw nsw i64 %33, 8
  %68 = add i64 %35, 8
  %69 = icmp eq i64 %68, %12
  br i1 %69, label %13, label %32
}

; Function Attrs: sspstrong uwtable
define weak_odr dso_local noundef float @_ZNK6dealii6VectorIfE7l1_normEv(ptr noundef nonnull align 8 dereferenceable(88) %0) local_unnamed_addr #2 comdat align 2 {
  %2 = getelementptr inbounds %"class.dealii::Vector.8", ptr %0, i64 0, i32 1
  %3 = load i32, ptr %2, align 8, !tbaa !161
  %4 = icmp eq i32 %3, 0
  br i1 %4, label %29, label %5

5:                                                ; preds = %1
  %6 = getelementptr inbounds %"class.dealii::Vector.8", ptr %0, i64 0, i32 3
  %7 = load ptr, ptr %6, align 8, !tbaa !164
  %8 = zext i32 %3 to i64
  %9 = and i64 %8, 3
  %10 = icmp ult i32 %3, 4
  br i1 %10, label %13, label %11

11:                                               ; preds = %5
  %12 = and i64 %8, 4294967292
  br label %31

13:                                               ; preds = %31, %5
  %14 = phi float [ undef, %5 ], [ %53, %31 ]
  %15 = phi i64 [ 0, %5 ], [ %54, %31 ]
  %16 = phi float [ 0.000000e+00, %5 ], [ %53, %31 ]
  %17 = icmp eq i64 %9, 0
  br i1 %17, label %29, label %18

18:                                               ; preds = %13, %18
  %19 = phi i64 [ %26, %18 ], [ %15, %13 ]
  %20 = phi float [ %25, %18 ], [ %16, %13 ]
  %21 = phi i64 [ %27, %18 ], [ 0, %13 ]
  %22 = getelementptr inbounds float, ptr %7, i64 %19
  %23 = load float, ptr %22, align 4, !tbaa !165
  %24 = tail call float @llvm.fabs.f32(float %23)
  %25 = fadd float %20, %24
  %26 = add nuw nsw i64 %19, 1
  %27 = add i64 %21, 1
  %28 = icmp eq i64 %27, %9
  br i1 %28, label %29, label %18, !llvm.loop !176

29:                                               ; preds = %13, %18, %1
  %30 = phi float [ 0.000000e+00, %1 ], [ %14, %13 ], [ %25, %18 ]
  ret float %30

31:                                               ; preds = %31, %11
  %32 = phi i64 [ 0, %11 ], [ %54, %31 ]
  %33 = phi float [ 0.000000e+00, %11 ], [ %53, %31 ]
  %34 = phi i64 [ 0, %11 ], [ %55, %31 ]
  %35 = getelementptr inbounds float, ptr %7, i64 %32
  %36 = load float, ptr %35, align 4, !tbaa !165
  %37 = tail call float @llvm.fabs.f32(float %36)
  %38 = fadd float %33, %37
  %39 = or i64 %32, 1
  %40 = getelementptr inbounds float, ptr %7, i64 %39
  %41 = load float, ptr %40, align 4, !tbaa !165
  %42 = tail call float @llvm.fabs.f32(float %41)
  %43 = fadd float %38, %42
  %44 = or i64 %32, 2
  %45 = getelementptr inbounds float, ptr %7, i64 %44
  %46 = load float, ptr %45, align 4, !tbaa !165
  %47 = tail call float @llvm.fabs.f32(float %46)
  %48 = fadd float %43, %47
  %49 = or i64 %32, 3
  %50 = getelementptr inbounds float, ptr %7, i64 %49
  %51 = load float, ptr %50, align 4, !tbaa !165
  %52 = tail call float @llvm.fabs.f32(float %51)
  %53 = fadd float %48, %52
  %54 = add nuw nsw i64 %32, 4
  %55 = add i64 %34, 4
  %56 = icmp eq i64 %55, %12
  br i1 %56, label %13, label %31
}

; Function Attrs: sspstrong uwtable
define weak_odr dso_local noundef float @_ZNK6dealii6VectorIfE7l2_normEv(ptr noundef nonnull align 8 dereferenceable(88) %0) local_unnamed_addr #2 comdat align 2 {
  %2 = getelementptr inbounds %"class.dealii::Vector.8", ptr %0, i64 0, i32 1
  %3 = load i32, ptr %2, align 8, !tbaa !161
  %4 = icmp eq i32 %3, 0
  br i1 %4, label %55, label %5

5:                                                ; preds = %1
  %6 = getelementptr inbounds %"class.dealii::Vector.8", ptr %0, i64 0, i32 3
  %7 = load ptr, ptr %6, align 8, !tbaa !164
  %8 = zext i32 %3 to i64
  %9 = and i64 %8, 3
  %10 = icmp ult i32 %3, 4
  br i1 %10, label %39, label %11

11:                                               ; preds = %5
  %12 = and i64 %8, 4294967292
  br label %13

13:                                               ; preds = %13, %11
  %14 = phi i64 [ 0, %11 ], [ %36, %13 ]
  %15 = phi float [ 0.000000e+00, %11 ], [ %35, %13 ]
  %16 = phi i64 [ 0, %11 ], [ %37, %13 ]
  %17 = getelementptr inbounds float, ptr %7, i64 %14
  %18 = load float, ptr %17, align 4, !tbaa !165
  %19 = fmul float %18, %18
  %20 = fadd float %15, %19
  %21 = or i64 %14, 1
  %22 = getelementptr inbounds float, ptr %7, i64 %21
  %23 = load float, ptr %22, align 4, !tbaa !165
  %24 = fmul float %23, %23
  %25 = fadd float %20, %24
  %26 = or i64 %14, 2
  %27 = getelementptr inbounds float, ptr %7, i64 %26
  %28 = load float, ptr %27, align 4, !tbaa !165
  %29 = fmul float %28, %28
  %30 = fadd float %25, %29
  %31 = or i64 %14, 3
  %32 = getelementptr inbounds float, ptr %7, i64 %31
  %33 = load float, ptr %32, align 4, !tbaa !165
  %34 = fmul float %33, %33
  %35 = fadd float %30, %34
  %36 = add nuw nsw i64 %14, 4
  %37 = add i64 %16, 4
  %38 = icmp eq i64 %37, %12
  br i1 %38, label %39, label %13

39:                                               ; preds = %13, %5
  %40 = phi float [ undef, %5 ], [ %35, %13 ]
  %41 = phi i64 [ 0, %5 ], [ %36, %13 ]
  %42 = phi float [ 0.000000e+00, %5 ], [ %35, %13 ]
  %43 = icmp eq i64 %9, 0
  br i1 %43, label %55, label %44

44:                                               ; preds = %39, %44
  %45 = phi i64 [ %52, %44 ], [ %41, %39 ]
  %46 = phi float [ %51, %44 ], [ %42, %39 ]
  %47 = phi i64 [ %53, %44 ], [ 0, %39 ]
  %48 = getelementptr inbounds float, ptr %7, i64 %45
  %49 = load float, ptr %48, align 4, !tbaa !165
  %50 = fmul float %49, %49
  %51 = fadd float %46, %50
  %52 = add nuw nsw i64 %45, 1
  %53 = add i64 %47, 1
  %54 = icmp eq i64 %53, %9
  br i1 %54, label %55, label %44, !llvm.loop !177

55:                                               ; preds = %39, %44, %1
  %56 = phi float [ 0.000000e+00, %1 ], [ %40, %39 ], [ %51, %44 ]
  %57 = tail call float @sqrtf(float noundef %56) #24
  ret float %57
}

; Function Attrs: sspstrong uwtable
define weak_odr dso_local noundef float @_ZNK6dealii6VectorIfE7lp_normEf(ptr noundef nonnull align 8 dereferenceable(88) %0, float noundef %1) local_unnamed_addr #2 comdat align 2 {
  %3 = getelementptr inbounds %"class.dealii::Vector.8", ptr %0, i64 0, i32 1
  %4 = load i32, ptr %3, align 8, !tbaa !161
  %5 = icmp eq i32 %4, 0
  br i1 %5, label %8, label %6

6:                                                ; preds = %2
  %7 = getelementptr inbounds %"class.dealii::Vector.8", ptr %0, i64 0, i32 3
  br label %12

8:                                                ; preds = %12, %2
  %9 = phi float [ 0.000000e+00, %2 ], [ %20, %12 ]
  %10 = fdiv float 1.000000e+00, %1
  %11 = tail call float @powf(float noundef %9, float noundef %10) #24
  ret float %11

12:                                               ; preds = %6, %12
  %13 = phi i64 [ 0, %6 ], [ %21, %12 ]
  %14 = phi float [ 0.000000e+00, %6 ], [ %20, %12 ]
  %15 = load ptr, ptr %7, align 8, !tbaa !164
  %16 = getelementptr inbounds float, ptr %15, i64 %13
  %17 = load float, ptr %16, align 4, !tbaa !165
  %18 = tail call float @llvm.fabs.f32(float %17)
  %19 = tail call float @powf(float noundef %18, float noundef %1) #24
  %20 = fadd float %14, %19
  %21 = add nuw nsw i64 %13, 1
  %22 = load i32, ptr %3, align 8, !tbaa !161
  %23 = zext i32 %22 to i64
  %24 = icmp ult i64 %21, %23
  br i1 %24, label %12, label %8
}

; Function Attrs: sspstrong uwtable
define weak_odr dso_local noundef float @_ZNK6dealii6VectorIfE11linfty_normEv(ptr noundef nonnull align 8 dereferenceable(88) %0) local_unnamed_addr #2 comdat align 2 {
  %2 = getelementptr inbounds %"class.dealii::Vector.8", ptr %0, i64 0, i32 1
  %3 = load i32, ptr %2, align 8, !tbaa !161
  %4 = icmp eq i32 %3, 0
  br i1 %4, label %30, label %5

5:                                                ; preds = %1
  %6 = getelementptr inbounds %"class.dealii::Vector.8", ptr %0, i64 0, i32 3
  %7 = load ptr, ptr %6, align 8, !tbaa !164
  %8 = zext i32 %3 to i64
  %9 = and i64 %8, 3
  %10 = icmp ult i32 %3, 4
  br i1 %10, label %13, label %11

11:                                               ; preds = %5
  %12 = and i64 %8, 4294967292
  br label %32

13:                                               ; preds = %32, %5
  %14 = phi float [ undef, %5 ], [ %58, %32 ]
  %15 = phi i64 [ 0, %5 ], [ %59, %32 ]
  %16 = phi float [ 0.000000e+00, %5 ], [ %58, %32 ]
  %17 = icmp eq i64 %9, 0
  br i1 %17, label %30, label %18

18:                                               ; preds = %13, %18
  %19 = phi i64 [ %27, %18 ], [ %15, %13 ]
  %20 = phi float [ %26, %18 ], [ %16, %13 ]
  %21 = phi i64 [ %28, %18 ], [ 0, %13 ]
  %22 = getelementptr inbounds float, ptr %7, i64 %19
  %23 = load float, ptr %22, align 4, !tbaa !165
  %24 = tail call float @llvm.fabs.f32(float %23)
  %25 = fcmp olt float %24, %20
  %26 = select i1 %25, float %20, float %24
  %27 = add nuw nsw i64 %19, 1
  %28 = add i64 %21, 1
  %29 = icmp eq i64 %28, %9
  br i1 %29, label %30, label %18, !llvm.loop !178

30:                                               ; preds = %13, %18, %1
  %31 = phi float [ 0.000000e+00, %1 ], [ %14, %13 ], [ %26, %18 ]
  ret float %31

32:                                               ; preds = %32, %11
