; ModuleID = 'source/numerics/data_out_stack.cc'
source_filename = "source/numerics/data_out_stack.cc"
target datalayout = "e-m:e-p270:32:32-p271:32:32-p272:64:64-i64:64-f80:128-n8:16:32:64-S128"
target triple = "x86_64-pc-linux-gnu"

module asm ".globl _ZSt21ios_base_library_initv"

%"class.dealii::DataOutStack" = type { %"class.dealii::DataOutInterface", double, double, %"class.dealii::SmartPointer", %"class.std::vector", %"class.std::vector.16", %"class.std::vector.16" }
%"class.dealii::DataOutInterface" = type { ptr, i32, i32, %"struct.dealii::DataOutBase::DXFlags", %"struct.dealii::DataOutBase::UcdFlags", %"struct.dealii::DataOutBase::GnuplotFlags", %"struct.dealii::DataOutBase::PovrayFlags", %"struct.dealii::DataOutBase::EpsFlags", %"struct.dealii::DataOutBase::GmvFlags", %"struct.dealii::DataOutBase::TecplotFlags", %"struct.dealii::DataOutBase::VtkFlags", %"struct.dealii::DataOutBase::Deal_II_IntermediateFlags" }
%"struct.dealii::DataOutBase::DXFlags" = type { i8, i8, i8, i8, i8 }
%"struct.dealii::DataOutBase::UcdFlags" = type { i8 }
%"struct.dealii::DataOutBase::GnuplotFlags" = type { i32 }
%"struct.dealii::DataOutBase::PovrayFlags" = type { i8, i8, i8 }
%"struct.dealii::DataOutBase::EpsFlags" = type { i32, i32, i32, i32, double, double, double, double, i8, i8, i8, ptr }
%"struct.dealii::DataOutBase::GmvFlags" = type { i32 }
%"struct.dealii::DataOutBase::TecplotFlags" = type { ptr, ptr }
%"struct.dealii::DataOutBase::VtkFlags" = type { i32 }
%"struct.dealii::DataOutBase::Deal_II_IntermediateFlags" = type { i32 }
%"class.dealii::SmartPointer" = type { ptr, ptr }
%"class.std::vector" = type { %"struct.std::_Vector_base" }
%"struct.std::_Vector_base" = type { %"struct.std::_Vector_base<dealii::DataOutBase::Patch<4, 4>, std::allocator<dealii::DataOutBase::Patch<4, 4> > >::_Vector_impl" }
%"struct.std::_Vector_base<dealii::DataOutBase::Patch<4, 4>, std::allocator<dealii::DataOutBase::Patch<4, 4> > >::_Vector_impl" = type { %"struct.std::_Vector_base<dealii::DataOutBase::Patch<4, 4>, std::allocator<dealii::DataOutBase::Patch<4, 4> > >::_Vector_impl_data" }
%"struct.std::_Vector_base<dealii::DataOutBase::Patch<4, 4>, std::allocator<dealii::DataOutBase::Patch<4, 4> > >::_Vector_impl_data" = type { ptr, ptr, ptr }
%"class.std::vector.16" = type { %"struct.std::_Vector_base.17" }
%"struct.std::_Vector_base.17" = type { %"struct.std::_Vector_base<dealii::DataOutStack<3, 3>::DataVector, std::allocator<dealii::DataOutStack<3, 3>::DataVector> >::_Vector_impl" }
%"struct.std::_Vector_base<dealii::DataOutStack<3, 3>::DataVector, std::allocator<dealii::DataOutStack<3, 3>::DataVector> >::_Vector_impl" = type { %"struct.std::_Vector_base<dealii::DataOutStack<3, 3>::DataVector, std::allocator<dealii::DataOutStack<3, 3>::DataVector> >::_Vector_impl_data" }
%"struct.std::_Vector_base<dealii::DataOutStack<3, 3>::DataVector, std::allocator<dealii::DataOutStack<3, 3>::DataVector> >::_Vector_impl_data" = type { ptr, ptr, ptr }
%"struct.dealii::DataOutBase::Patch" = type <{ [16 x %"class.dealii::Point"], [8 x i32], i32, i32, %"class.dealii::Table.122", i8, [7 x i8] }>
%"class.dealii::Point" = type { %"class.dealii::Tensor" }
%"class.dealii::Tensor" = type { [4 x double] }
%"class.dealii::Table.122" = type { %"class.dealii::TableBase.base.124", [4 x i8] }
%"class.dealii::TableBase.base.124" = type <{ %"class.dealii::Subscriptor", ptr, i32, %"class.dealii::TableIndices" }>
%"class.dealii::Subscriptor" = type { ptr, i32, %"class.std::map", ptr }
%"class.std::map" = type { %"class.std::_Rb_tree" }
%"class.std::_Rb_tree" = type { %"struct.std::_Rb_tree<const char *, std::pair<const char *const, unsigned int>, std::_Select1st<std::pair<const char *const, unsigned int> >, std::less<const char *> >::_Rb_tree_impl" }
%"struct.std::_Rb_tree<const char *, std::pair<const char *const, unsigned int>, std::_Select1st<std::pair<const char *const, unsigned int> >, std::less<const char *> >::_Rb_tree_impl" = type { %"struct.std::_Rb_tree_key_compare", %"struct.std::_Rb_tree_header" }
%"struct.std::_Rb_tree_key_compare" = type { %"struct.std::less" }
%"struct.std::less" = type { i8 }
%"struct.std::_Rb_tree_header" = type { %"struct.std::_Rb_tree_node_base", i64 }
%"struct.std::_Rb_tree_node_base" = type { i32, ptr, ptr, ptr }
%"class.dealii::TableIndices" = type { %"class.dealii::TableIndicesBase" }
%"class.dealii::TableIndicesBase" = type { [2 x i32] }
%"struct.dealii::DataOutStack<3, 3>::DataVector" = type { %"class.dealii::Vector", %"class.std::vector.37" }
%"class.dealii::Vector" = type { %"class.dealii::Subscriptor", i32, i32, ptr }
%"class.std::vector.37" = type { %"struct.std::_Vector_base.38" }
%"struct.std::_Vector_base.38" = type { %"struct.std::_Vector_base<std::__cxx11::basic_string<char>, std::allocator<std::__cxx11::basic_string<char> > >::_Vector_impl" }
%"struct.std::_Vector_base<std::__cxx11::basic_string<char>, std::allocator<std::__cxx11::basic_string<char> > >::_Vector_impl" = type { %"struct.std::_Vector_base<std::__cxx11::basic_string<char>, std::allocator<std::__cxx11::basic_string<char> > >::_Vector_impl_data" }
%"struct.std::_Vector_base<std::__cxx11::basic_string<char>, std::allocator<std::__cxx11::basic_string<char> > >::_Vector_impl_data" = type { ptr, ptr, ptr }
%"class.std::__cxx11::basic_string" = type { %"struct.std::__cxx11::basic_string<char>::_Alloc_hider", i64, %union.anon }
%"struct.std::__cxx11::basic_string<char>::_Alloc_hider" = type { ptr }
%union.anon = type { i64, [8 x i8] }
%"class.dealii::TriaActiveIterator" = type { %"class.dealii::TriaIterator" }
%"class.dealii::TriaIterator" = type { %"class.dealii::TriaRawIterator" }
%"class.dealii::TriaRawIterator" = type { %"class.dealii::DoFCellAccessor" }
%"class.dealii::DoFCellAccessor" = type { %"class.dealii::DoFAccessor" }
%"class.dealii::DoFAccessor" = type { %"class.dealii::CellAccessor", ptr }
%"class.dealii::CellAccessor" = type { %"class.dealii::TriaAccessor" }
%"class.dealii::TriaAccessor" = type { %"class.dealii::TriaAccessorBase" }
%"class.dealii::TriaAccessorBase" = type { i32, i32, ptr }
%"class.dealii::QTrapez" = type { %"class.dealii::Quadrature" }
%"class.dealii::Quadrature" = type { %"class.dealii::Subscriptor", i32, %"class.std::vector.90", %"class.std::vector.95" }
%"class.std::vector.90" = type { %"struct.std::_Vector_base.91" }
%"struct.std::_Vector_base.91" = type { %"struct.std::_Vector_base<dealii::Point<1>, std::allocator<dealii::Point<1> > >::_Vector_impl" }
%"struct.std::_Vector_base<dealii::Point<1>, std::allocator<dealii::Point<1> > >::_Vector_impl" = type { %"struct.std::_Vector_base<dealii::Point<1>, std::allocator<dealii::Point<1> > >::_Vector_impl_data" }
%"struct.std::_Vector_base<dealii::Point<1>, std::allocator<dealii::Point<1> > >::_Vector_impl_data" = type { ptr, ptr, ptr }
%"class.std::vector.95" = type { %"struct.std::_Vector_base.96" }
%"struct.std::_Vector_base.96" = type { %"struct.std::_Vector_base<double, std::allocator<double> >::_Vector_impl" }
%"struct.std::_Vector_base<double, std::allocator<double> >::_Vector_impl" = type { %"struct.std::_Vector_base<double, std::allocator<double> >::_Vector_impl_data" }
%"struct.std::_Vector_base<double, std::allocator<double> >::_Vector_impl_data" = type { ptr, ptr, ptr }
%"class.dealii::QIterated" = type { %"class.dealii::Quadrature.100" }
%"class.dealii::Quadrature.100" = type { %"class.dealii::Subscriptor", i32, %"class.std::vector.51", %"class.std::vector.95" }
%"class.std::vector.51" = type { %"struct.std::_Vector_base.52" }
%"struct.std::_Vector_base.52" = type { %"struct.std::_Vector_base<dealii::Point<3>, std::allocator<dealii::Point<3> > >::_Vector_impl" }
%"struct.std::_Vector_base<dealii::Point<3>, std::allocator<dealii::Point<3> > >::_Vector_impl" = type { %"struct.std::_Vector_base<dealii::Point<3>, std::allocator<dealii::Point<3> > >::_Vector_impl_data" }
%"struct.std::_Vector_base<dealii::Point<3>, std::allocator<dealii::Point<3> > >::_Vector_impl_data" = type { ptr, ptr, ptr }
%"class.dealii::hp::QCollection" = type { %"class.dealii::Subscriptor", %"class.std::vector.101" }
%"class.std::vector.101" = type { %"struct.std::_Vector_base.102" }
%"struct.std::_Vector_base.102" = type { %"struct.std::_Vector_base<boost::shared_ptr<const dealii::Quadrature<3> >, std::allocator<boost::shared_ptr<const dealii::Quadrature<3> > > >::_Vector_impl" }
%"struct.std::_Vector_base<boost::shared_ptr<const dealii::Quadrature<3> >, std::allocator<boost::shared_ptr<const dealii::Quadrature<3> > > >::_Vector_impl" = type { %"struct.std::_Vector_base<boost::shared_ptr<const dealii::Quadrature<3> >, std::allocator<boost::shared_ptr<const dealii::Quadrature<3> > > >::_Vector_impl_data" }
%"struct.std::_Vector_base<boost::shared_ptr<const dealii::Quadrature<3> >, std::allocator<boost::shared_ptr<const dealii::Quadrature<3> > > >::_Vector_impl_data" = type { ptr, ptr, ptr }
%"class.dealii::hp::FECollection" = type { %"class.dealii::Subscriptor", %"class.std::vector.106" }
%"class.std::vector.106" = type { %"struct.std::_Vector_base.107" }
%"struct.std::_Vector_base.107" = type { %"struct.std::_Vector_base<boost::shared_ptr<const dealii::FiniteElement<3, 3> >, std::allocator<boost::shared_ptr<const dealii::FiniteElement<3, 3> > > >::_Vector_impl" }
%"struct.std::_Vector_base<boost::shared_ptr<const dealii::FiniteElement<3, 3> >, std::allocator<boost::shared_ptr<const dealii::FiniteElement<3, 3> > > >::_Vector_impl" = type { %"struct.std::_Vector_base<boost::shared_ptr<const dealii::FiniteElement<3, 3> >, std::allocator<boost::shared_ptr<const dealii::FiniteElement<3, 3> > > >::_Vector_impl_data" }
%"struct.std::_Vector_base<boost::shared_ptr<const dealii::FiniteElement<3, 3> >, std::allocator<boost::shared_ptr<const dealii::FiniteElement<3, 3> > > >::_Vector_impl_data" = type { ptr, ptr, ptr }
%"class.dealii::hp::FEValues" = type { %"class.dealii::internal::hp::FEValuesBase" }
%"class.dealii::internal::hp::FEValuesBase" = type { %"class.dealii::SmartPointer.111", %"class.dealii::SmartPointer.112", %"class.dealii::hp::QCollection", %"class.dealii::Table.113", %"class.dealii::TableIndices.115", i32 }
%"class.dealii::SmartPointer.111" = type { ptr, ptr }
%"class.dealii::SmartPointer.112" = type { ptr, ptr }
%"class.dealii::Table.113" = type { %"class.dealii::TableBase.114" }
%"class.dealii::TableBase.114" = type { %"class.dealii::Subscriptor", ptr, i32, %"class.dealii::TableIndices.115" }
%"class.dealii::TableIndices.115" = type { %"class.dealii::TableIndicesBase.116" }
%"class.dealii::TableIndicesBase.116" = type { [3 x i32] }
%"class.std::vector.117" = type { %"struct.std::_Vector_base.118" }
%"struct.std::_Vector_base.118" = type { %"struct.std::_Vector_base<dealii::Vector<double>, std::allocator<dealii::Vector<double> > >::_Vector_impl" }
%"struct.std::_Vector_base<dealii::Vector<double>, std::allocator<dealii::Vector<double> > >::_Vector_impl" = type { %"struct.std::_Vector_base<dealii::Vector<double>, std::allocator<dealii::Vector<double> > >::_Vector_impl_data" }
%"struct.std::_Vector_base<dealii::Vector<double>, std::allocator<dealii::Vector<double> > >::_Vector_impl_data" = type { ptr, ptr, ptr }
%"class.std::allocator.119" = type { i8 }
%"class.dealii::DoFHandler" = type { %"class.dealii::Subscriptor", %"class.dealii::SmartPointer.25", %"class.dealii::SmartPointer.26", %"class.std::vector.27", ptr, i32, %"class.std::vector.32" }
%"class.dealii::SmartPointer.25" = type { ptr, ptr }
%"class.dealii::SmartPointer.26" = type { ptr, ptr }
%"class.std::vector.27" = type { %"struct.std::_Vector_base.28" }
%"struct.std::_Vector_base.28" = type { %"struct.std::_Vector_base<dealii::internal::DoFHandler::DoFLevel<3> *, std::allocator<dealii::internal::DoFHandler::DoFLevel<3> *> >::_Vector_impl" }
%"struct.std::_Vector_base<dealii::internal::DoFHandler::DoFLevel<3> *, std::allocator<dealii::internal::DoFHandler::DoFLevel<3> *> >::_Vector_impl" = type { %"struct.std::_Vector_base<dealii::internal::DoFHandler::DoFLevel<3> *, std::allocator<dealii::internal::DoFHandler::DoFLevel<3> *> >::_Vector_impl_data" }
%"struct.std::_Vector_base<dealii::internal::DoFHandler::DoFLevel<3> *, std::allocator<dealii::internal::DoFHandler::DoFLevel<3> *> >::_Vector_impl_data" = type { ptr, ptr, ptr }
%"class.std::vector.32" = type { %"struct.std::_Vector_base.33" }
%"struct.std::_Vector_base.33" = type { %"struct.std::_Vector_base<unsigned int, std::allocator<unsigned int> >::_Vector_impl" }
%"struct.std::_Vector_base<unsigned int, std::allocator<unsigned int> >::_Vector_impl" = type { %"struct.std::_Vector_base<unsigned int, std::allocator<unsigned int> >::_Vector_impl_data" }
%"struct.std::_Vector_base<unsigned int, std::allocator<unsigned int> >::_Vector_impl_data" = type { ptr, ptr, ptr }
%"class.dealii::Triangulation" = type { %"class.dealii::Subscriptor", %"class.std::vector.165", ptr, %"class.std::vector.51", %"class.std::vector.80", [255 x %"class.dealii::SmartPointer.170"], [255 x %"class.dealii::SmartPointer.170"], i8, i32, %"struct.dealii::internal::Triangulation::NumberCache", %"class.std::__cxx11::list" }
%"class.std::vector.165" = type { %"struct.std::_Vector_base.166" }
%"struct.std::_Vector_base.166" = type { %"struct.std::_Vector_base<dealii::internal::Triangulation::TriaLevel<3> *, std::allocator<dealii::internal::Triangulation::TriaLevel<3> *> >::_Vector_impl" }
%"struct.std::_Vector_base<dealii::internal::Triangulation::TriaLevel<3> *, std::allocator<dealii::internal::Triangulation::TriaLevel<3> *> >::_Vector_impl" = type { %"struct.std::_Vector_base<dealii::internal::Triangulation::TriaLevel<3> *, std::allocator<dealii::internal::Triangulation::TriaLevel<3> *> >::_Vector_impl_data" }
%"struct.std::_Vector_base<dealii::internal::Triangulation::TriaLevel<3> *, std::allocator<dealii::internal::Triangulation::TriaLevel<3> *> >::_Vector_impl_data" = type { ptr, ptr, ptr }
%"class.std::vector.80" = type { %"struct.std::_Bvector_base" }
%"struct.std::_Bvector_base" = type { %"struct.std::_Bvector_base<std::allocator<bool> >::_Bvector_impl" }
%"struct.std::_Bvector_base<std::allocator<bool> >::_Bvector_impl" = type { %"struct.std::_Bvector_base<std::allocator<bool> >::_Bvector_impl_data" }
%"struct.std::_Bvector_base<std::allocator<bool> >::_Bvector_impl_data" = type { %"struct.std::_Bit_iterator", %"struct.std::_Bit_iterator", ptr }
%"struct.std::_Bit_iterator" = type { %"struct.std::_Bit_iterator_base.base", [4 x i8] }
%"struct.std::_Bit_iterator_base.base" = type <{ ptr, i32 }>
%"class.dealii::SmartPointer.170" = type { ptr, ptr }
%"struct.dealii::internal::Triangulation::NumberCache" = type { %"struct.dealii::internal::Triangulation::NumberCache.171", i32, %"class.std::vector.32", i32, %"class.std::vector.32" }
%"struct.dealii::internal::Triangulation::NumberCache.171" = type { %"struct.dealii::internal::Triangulation::NumberCache.172", i32, %"class.std::vector.32", i32, %"class.std::vector.32" }
%"struct.dealii::internal::Triangulation::NumberCache.172" = type { i32, %"class.std::vector.32", i32, %"class.std::vector.32" }
%"class.std::__cxx11::list" = type { %"class.std::__cxx11::_List_base" }
%"class.std::__cxx11::_List_base" = type { %"struct.std::__cxx11::_List_base<dealii::Triangulation<3, 3>::RefinementListener *, std::allocator<dealii::Triangulation<3, 3>::RefinementListener *> >::_List_impl" }
%"struct.std::__cxx11::_List_base<dealii::Triangulation<3, 3>::RefinementListener *, std::allocator<dealii::Triangulation<3, 3>::RefinementListener *> >::_List_impl" = type { %"struct.std::__detail::_List_node_header" }
%"struct.std::__detail::_List_node_header" = type { %"struct.std::__detail::_List_node_base", i64 }
%"struct.std::__detail::_List_node_base" = type { ptr, ptr }
%"class.dealii::internal::Triangulation::TriaLevel" = type { %"class.std::vector.214", %"class.std::vector.80", %"class.std::vector.219", %"class.std::vector.32", %"class.dealii::internal::Triangulation::TriaObjectsHex" }
%"class.std::vector.214" = type { %"struct.std::_Vector_base.215" }
%"struct.std::_Vector_base.215" = type { %"struct.std::_Vector_base<unsigned char, std::allocator<unsigned char> >::_Vector_impl" }
%"struct.std::_Vector_base<unsigned char, std::allocator<unsigned char> >::_Vector_impl" = type { %"struct.std::_Vector_base<unsigned char, std::allocator<unsigned char> >::_Vector_impl_data" }
%"struct.std::_Vector_base<unsigned char, std::allocator<unsigned char> >::_Vector_impl_data" = type { ptr, ptr, ptr }
%"class.std::vector.219" = type { %"struct.std::_Vector_base.220" }
%"struct.std::_Vector_base.220" = type { %"struct.std::_Vector_base<std::pair<int, int>, std::allocator<std::pair<int, int> > >::_Vector_impl" }
%"struct.std::_Vector_base<std::pair<int, int>, std::allocator<std::pair<int, int> > >::_Vector_impl" = type { %"struct.std::_Vector_base<std::pair<int, int>, std::allocator<std::pair<int, int> > >::_Vector_impl_data" }
%"struct.std::_Vector_base<std::pair<int, int>, std::allocator<std::pair<int, int> > >::_Vector_impl_data" = type { ptr, ptr, ptr }
%"class.dealii::internal::Triangulation::TriaObjectsHex" = type { %"class.dealii::internal::Triangulation::TriaObjects.base", %"class.std::vector.80", %"class.std::vector.80", %"class.std::vector.80" }
%"class.dealii::internal::Triangulation::TriaObjects.base" = type <{ %"class.std::vector.224", %"class.std::vector.65", %"class.std::vector.229", %"class.std::vector.80", %"class.std::vector.80", %"class.std::vector.214", i32, i32, i8, [7 x i8], %"class.std::vector.234", i32 }>
%"class.std::vector.224" = type { %"struct.std::_Vector_base.225" }
%"struct.std::_Vector_base.225" = type { %"struct.std::_Vector_base<dealii::internal::Triangulation::TriaObject<3>, std::allocator<dealii::internal::Triangulation::TriaObject<3> > >::_Vector_impl" }
%"struct.std::_Vector_base<dealii::internal::Triangulation::TriaObject<3>, std::allocator<dealii::internal::Triangulation::TriaObject<3> > >::_Vector_impl" = type { %"struct.std::_Vector_base<dealii::internal::Triangulation::TriaObject<3>, std::allocator<dealii::internal::Triangulation::TriaObject<3> > >::_Vector_impl_data" }
%"struct.std::_Vector_base<dealii::internal::Triangulation::TriaObject<3>, std::allocator<dealii::internal::Triangulation::TriaObject<3> > >::_Vector_impl_data" = type { ptr, ptr, ptr }
%"class.std::vector.65" = type { %"struct.std::_Vector_base.66" }
%"struct.std::_Vector_base.66" = type { %"struct.std::_Vector_base<int, std::allocator<int> >::_Vector_impl" }
%"struct.std::_Vector_base<int, std::allocator<int> >::_Vector_impl" = type { %"struct.std::_Vector_base<int, std::allocator<int> >::_Vector_impl_data" }
%"struct.std::_Vector_base<int, std::allocator<int> >::_Vector_impl_data" = type { ptr, ptr, ptr }
%"class.std::vector.229" = type { %"struct.std::_Vector_base.230" }
%"struct.std::_Vector_base.230" = type { %"struct.std::_Vector_base<dealii::RefinementCase<3>, std::allocator<dealii::RefinementCase<3> > >::_Vector_impl" }
%"struct.std::_Vector_base<dealii::RefinementCase<3>, std::allocator<dealii::RefinementCase<3> > >::_Vector_impl" = type { %"struct.std::_Vector_base<dealii::RefinementCase<3>, std::allocator<dealii::RefinementCase<3> > >::_Vector_impl_data" }
%"struct.std::_Vector_base<dealii::RefinementCase<3>, std::allocator<dealii::RefinementCase<3> > >::_Vector_impl_data" = type { ptr, ptr, ptr }
%"class.std::vector.234" = type { %"struct.std::_Vector_base.235" }
%"struct.std::_Vector_base.235" = type { %"struct.std::_Vector_base<dealii::internal::Triangulation::TriaObjects<dealii::internal::Triangulation::TriaObject<3> >::UserData, std::allocator<dealii::internal::Triangulation::TriaObjects<dealii::internal::Triangulation::TriaObject<3> >::UserData> >::_Vector_impl" }
%"struct.std::_Vector_base<dealii::internal::Triangulation::TriaObjects<dealii::internal::Triangulation::TriaObject<3> >::UserData, std::allocator<dealii::internal::Triangulation::TriaObjects<dealii::internal::Triangulation::TriaObject<3> >::UserData> >::_Vector_impl" = type { %"struct.std::_Vector_base<dealii::internal::Triangulation::TriaObjects<dealii::internal::Triangulation::TriaObject<3> >::UserData, std::allocator<dealii::internal::Triangulation::TriaObjects<dealii::internal::Triangulation::TriaObject<3> >::UserData> >::_Vector_impl_data" }
%"struct.std::_Vector_base<dealii::internal::Triangulation::TriaObjects<dealii::internal::Triangulation::TriaObject<3> >::UserData, std::allocator<dealii::internal::Triangulation::TriaObjects<dealii::internal::Triangulation::TriaObject<3> >::UserData> >::_Vector_impl_data" = type { ptr, ptr, ptr }
%"class.boost::shared_ptr" = type { ptr, %"class.boost::detail::shared_count" }
%"class.boost::detail::shared_count" = type { ptr }
%"class.boost::shared_ptr.213" = type { ptr, %"class.boost::detail::shared_count" }
%"class.boost::detail::sp_counted_base" = type { ptr, i64, i64 }
%"class.boost::detail::sp_counted_impl_p" = type { %"class.boost::detail::sp_counted_base", ptr }
%"class.boost::shared_ptr.212" = type { ptr, %"class.boost::detail::shared_count" }
%"class.dealii::DataOutStack<3, 3>::ExcInvalidVectorSize" = type { %"class.dealii::ExceptionBase.base", i32, i32, i32 }
%"class.dealii::ExceptionBase.base" = type <{ %"class.std::exception", ptr, i32, [4 x i8], ptr, ptr, ptr, ptr, i32 }>
%"class.std::exception" = type { ptr }
%"class.std::basic_ios" = type { %"class.std::ios_base", ptr, i8, i8, ptr, ptr, ptr, ptr }
%"class.std::ios_base" = type { ptr, i64, i64, i32, i32, i32, ptr, %"struct.std::ios_base::_Words", [8 x %"struct.std::ios_base::_Words"], i32, ptr, %"class.std::locale" }
%"struct.std::ios_base::_Words" = type { ptr, i64 }
%"class.std::locale" = type { ptr }
%"class.std::ctype" = type <{ %"class.std::locale::facet.base", [4 x i8], ptr, i8, [7 x i8], ptr, ptr, ptr, i8, [256 x i8], [256 x i8], i8, [6 x i8] }>
%"class.std::locale::facet.base" = type <{ ptr, i32 }>
%"class.dealii::DataOutStack<3, 3>::ExcInvalidCharacter" = type { %"class.dealii::ExceptionBase.base", %"class.std::__cxx11::basic_string", i64 }
%"class.dealii::DataOutStack<3, 3>::ExcInvalidNumberOfNames" = type { %"class.dealii::ExceptionBase.base", i32, i32, [4 x i8] }
%"class.dealii::DataOutStack<3, 3>::ExcVectorNotDeclared" = type { %"class.dealii::ExceptionBase.base", %"class.std::__cxx11::basic_string" }
%"class.dealii::DataOutStack<3, 3>::ExcNameAlreadyUsed" = type { %"class.dealii::ExceptionBase.base", %"class.std::__cxx11::basic_string" }
%"class.dealii::DataOutStack<3, 3>::ExcInvalidNumberOfSubdivisions" = type { %"class.dealii::ExceptionBase.base", i32 }
%"class.std::__cxx11::basic_ostringstream" = type { %"class.std::basic_ostream.base", %"class.std::__cxx11::basic_stringbuf", %"class.std::basic_ios" }
%"class.std::basic_ostream.base" = type { ptr }
%"class.std::__cxx11::basic_stringbuf" = type { %"class.std::basic_streambuf", i32, %"class.std::__cxx11::basic_string" }
%"class.std::basic_streambuf" = type { ptr, ptr, ptr, ptr, ptr, ptr, ptr, %"class.std::locale" }
%"class.dealii::Vector.176" = type { %"class.dealii::Subscriptor", i32, i32, ptr }
%"class.dealii::DataOutStack.177" = type { %"class.dealii::DataOutInterface", double, double, %"class.dealii::SmartPointer.178", %"class.std::vector", %"class.std::vector.179", %"class.std::vector.179" }
%"class.dealii::SmartPointer.178" = type { ptr, ptr }
%"class.std::vector.179" = type { %"struct.std::_Vector_base.180" }
%"struct.std::_Vector_base.180" = type { %"struct.std::_Vector_base<dealii::DataOutStack<3, 3, dealii::hp::DoFHandler<3, 3> >::DataVector, std::allocator<dealii::DataOutStack<3, 3, dealii::hp::DoFHandler<3, 3> >::DataVector> >::_Vector_impl" }
%"struct.std::_Vector_base<dealii::DataOutStack<3, 3, dealii::hp::DoFHandler<3, 3> >::DataVector, std::allocator<dealii::DataOutStack<3, 3, dealii::hp::DoFHandler<3, 3> >::DataVector> >::_Vector_impl" = type { %"struct.std::_Vector_base<dealii::DataOutStack<3, 3, dealii::hp::DoFHandler<3, 3> >::DataVector, std::allocator<dealii::DataOutStack<3, 3, dealii::hp::DoFHandler<3, 3> >::DataVector> >::_Vector_impl_data" }
%"struct.std::_Vector_base<dealii::DataOutStack<3, 3, dealii::hp::DoFHandler<3, 3> >::DataVector, std::allocator<dealii::DataOutStack<3, 3, dealii::hp::DoFHandler<3, 3> >::DataVector> >::_Vector_impl_data" = type { ptr, ptr, ptr }
%"struct.dealii::DataOutStack<3, 3, dealii::hp::DoFHandler<3, 3> >::DataVector" = type { %"class.dealii::Vector", %"class.std::vector.37" }
%"class.dealii::TriaActiveIterator.196" = type { %"class.dealii::TriaIterator.197" }
%"class.dealii::TriaIterator.197" = type { %"class.dealii::TriaRawIterator.198" }
%"class.dealii::TriaRawIterator.198" = type { %"class.dealii::DoFCellAccessor.200" }
%"class.dealii::DoFCellAccessor.200" = type { %"class.dealii::DoFAccessor.201" }
%"class.dealii::DoFAccessor.201" = type { %"class.dealii::CellAccessor", ptr }
%"class.dealii::hp::DoFHandler" = type { %"class.dealii::Subscriptor", %"class.dealii::Triangulation<3, 3>::RefinementListener", %"class.dealii::SmartPointer.25", %"class.dealii::SmartPointer.111", %"class.std::vector.186", ptr, i32, %"class.std::vector.32", %"class.std::vector.32", %"class.std::vector.191" }
%"class.dealii::Triangulation<3, 3>::RefinementListener" = type { ptr }
%"class.std::vector.186" = type { %"struct.std::_Vector_base.187" }
%"struct.std::_Vector_base.187" = type { %"struct.std::_Vector_base<dealii::internal::hp::DoFLevel<3> *, std::allocator<dealii::internal::hp::DoFLevel<3> *> >::_Vector_impl" }
%"struct.std::_Vector_base<dealii::internal::hp::DoFLevel<3> *, std::allocator<dealii::internal::hp::DoFLevel<3> *> >::_Vector_impl" = type { %"struct.std::_Vector_base<dealii::internal::hp::DoFLevel<3> *, std::allocator<dealii::internal::hp::DoFLevel<3> *> >::_Vector_impl_data" }
%"struct.std::_Vector_base<dealii::internal::hp::DoFLevel<3> *, std::allocator<dealii::internal::hp::DoFLevel<3> *> >::_Vector_impl_data" = type { ptr, ptr, ptr }
%"class.std::vector.191" = type { %"struct.std::_Vector_base.192" }
%"struct.std::_Vector_base.192" = type { %"struct.std::_Vector_base<std::vector<bool> *, std::allocator<std::vector<bool> *> >::_Vector_impl" }
%"struct.std::_Vector_base<std::vector<bool> *, std::allocator<std::vector<bool> *> >::_Vector_impl" = type { %"struct.std::_Vector_base<std::vector<bool> *, std::allocator<std::vector<bool> *> >::_Vector_impl_data" }
%"struct.std::_Vector_base<std::vector<bool> *, std::allocator<std::vector<bool> *> >::_Vector_impl_data" = type { ptr, ptr, ptr }
%"class.dealii::DataOutStack<3, 3, dealii::hp::DoFHandler<3, 3> >::ExcInvalidVectorSize" = type { %"class.dealii::ExceptionBase.base", i32, i32, i32 }
%"class.dealii::DataOutStack<3, 3, dealii::hp::DoFHandler<3, 3> >::ExcInvalidCharacter" = type { %"class.dealii::ExceptionBase.base", %"class.std::__cxx11::basic_string", i64 }
%"class.dealii::DataOutStack<3, 3, dealii::hp::DoFHandler<3, 3> >::ExcInvalidNumberOfNames" = type { %"class.dealii::ExceptionBase.base", i32, i32, [4 x i8] }
%"class.dealii::DataOutStack<3, 3, dealii::hp::DoFHandler<3, 3> >::ExcVectorNotDeclared" = type { %"class.dealii::ExceptionBase.base", %"class.std::__cxx11::basic_string" }
%"class.dealii::DataOutStack<3, 3, dealii::hp::DoFHandler<3, 3> >::ExcNameAlreadyUsed" = type { %"class.dealii::ExceptionBase.base", %"class.std::__cxx11::basic_string" }
%"class.dealii::DataOutStack<3, 3, dealii::hp::DoFHandler<3, 3> >::ExcInvalidNumberOfSubdivisions" = type { %"class.dealii::ExceptionBase.base", i32 }
%"class.std::vector.202" = type { %"struct.std::_Vector_base.203" }
%"struct.std::_Vector_base.203" = type { %"struct.std::_Vector_base<boost::tuples::tuple<unsigned int, unsigned int, std::__cxx11::basic_string<char> >, std::allocator<boost::tuples::tuple<unsigned int, unsigned int, std::__cxx11::basic_string<char> > > >::_Vector_impl" }
%"struct.std::_Vector_base<boost::tuples::tuple<unsigned int, unsigned int, std::__cxx11::basic_string<char> >, std::allocator<boost::tuples::tuple<unsigned int, unsigned int, std::__cxx11::basic_string<char> > > >::_Vector_impl" = type { %"struct.std::_Vector_base<boost::tuples::tuple<unsigned int, unsigned int, std::__cxx11::basic_string<char> >, std::allocator<boost::tuples::tuple<unsigned int, unsigned int, std::__cxx11::basic_string<char> > > >::_Vector_impl_data" }
%"struct.std::_Vector_base<boost::tuples::tuple<unsigned int, unsigned int, std::__cxx11::basic_string<char> >, std::allocator<boost::tuples::tuple<unsigned int, unsigned int, std::__cxx11::basic_string<char> > > >::_Vector_impl_data" = type { ptr, ptr, ptr }
%"class.dealii::TableBase.123" = type <{ %"class.dealii::Subscriptor", ptr, i32, %"class.dealii::TableIndices", [4 x i8] }>

$_ZN6dealii12DataOutStackILi3ELi3ENS_10DoFHandlerILi3ELi3EEEED5Ev = comdat any

$_ZNSt6vectorIN6dealii12DataOutStackILi3ELi3ENS0_10DoFHandlerILi3ELi3EEEE10DataVectorESaIS5_EED2Ev = comdat any

$__clang_call_terminate = comdat any

$_ZNSt6vectorIN6dealii11DataOutBase5PatchILi4ELi4EEESaIS3_EED2Ev = comdat any

$_ZN6dealii12DataOutStackILi3ELi3ENS_10DoFHandlerILi3ELi3EEEE19new_parameter_valueEdd = comdat any

$_ZN6dealii12DataOutStackILi3ELi3ENS_10DoFHandlerILi3ELi3EEEE18attach_dof_handlerERKS2_ = comdat any

$_ZN6dealii12DataOutStackILi3ELi3ENS_10DoFHandlerILi3ELi3EEEE19declare_data_vectorERKNSt7__cxx1112basic_stringIcSt11char_traitsIcESaIcEEENS3_10VectorTypeE = comdat any

$_ZN6dealii12DataOutStackILi3ELi3ENS_10DoFHandlerILi3ELi3EEEE19declare_data_vectorERKSt6vectorINSt7__cxx1112basic_stringIcSt11char_traitsIcESaIcEEESaISA_EENS3_10VectorTypeE = comdat any

$_ZNSt6vectorINSt7__cxx1112basic_stringIcSt11char_traitsIcESaIcEEESaIS5_EED2Ev = comdat any

$_ZN6dealii12DataOutStackILi3ELi3ENS_10DoFHandlerILi3ELi3EEEE10DataVectorD2Ev = comdat any

$_ZNSt6vectorINSt7__cxx1112basic_stringIcSt11char_traitsIcESaIcEEESaIS5_EEaSERKS7_ = comdat any

$_ZN6dealii12DataOutStackILi3ELi3ENS_10DoFHandlerILi3ELi3EEEE13build_patchesEj = comdat any

$_ZN6dealii2hp11QCollectionILi3EEC2ERKNS_10QuadratureILi3EEE = comdat any

$_ZNSt6vectorIN6dealii6VectorIdEESaIS2_EEC2EmRKS2_RKS3_ = comdat any

$_ZN6dealii6VectorIdED2Ev = comdat any

$_ZN6dealii11DataOutBase5PatchILi4ELi4EED2Ev = comdat any

$_ZNSt6vectorIN6dealii6VectorIdEESaIS2_EED2Ev = comdat any

$_ZN6dealii8internal2hp12FEValuesBaseILi3ELi3ENS_8FEValuesILi3ELi3EEEED2Ev = comdat any

$_ZN6dealii2hp12FECollectionILi3ELi3EED2Ev = comdat any

$_ZN6dealii2hp11QCollectionILi3EED2Ev = comdat any

$_ZN6dealii12DataOutStackILi3ELi3ENS_10DoFHandlerILi3ELi3EEEE22finish_parameter_valueEv = comdat any

$_ZN6dealii6VectorIdE6reinitEjb = comdat any

$_ZNK6dealii12DataOutStackILi3ELi3ENS_10DoFHandlerILi3ELi3EEEE18memory_consumptionEv = comdat any

$_ZN6dealii12DataOutStackILi3ELi3ENS_10DoFHandlerILi3ELi3EEEE20ExcInvalidVectorSizeC5Eiii = comdat any

$_ZN6dealii12DataOutStackILi3ELi3ENS_10DoFHandlerILi3ELi3EEEE20ExcInvalidVectorSizeD5Ev = comdat any

$_ZNK6dealii12DataOutStackILi3ELi3ENS_10DoFHandlerILi3ELi3EEEE20ExcInvalidVectorSize10print_infoERSo = comdat any

$_ZN6dealii12DataOutStackILi3ELi3ENS_10DoFHandlerILi3ELi3EEEE19ExcInvalidCharacterC5ENSt7__cxx1112basic_stringIcSt11char_traitsIcESaIcEEEm = comdat any

$_ZN6dealii12DataOutStackILi3ELi3ENS_10DoFHandlerILi3ELi3EEEE19ExcInvalidCharacterD5Ev = comdat any

$_ZNK6dealii12DataOutStackILi3ELi3ENS_10DoFHandlerILi3ELi3EEEE19ExcInvalidCharacter10print_infoERSo = comdat any

$_ZN6dealii12DataOutStackILi3ELi3ENS_10DoFHandlerILi3ELi3EEEE23ExcInvalidNumberOfNamesC5Eii = comdat any

$_ZN6dealii12DataOutStackILi3ELi3ENS_10DoFHandlerILi3ELi3EEEE23ExcInvalidNumberOfNamesD5Ev = comdat any

$_ZNK6dealii12DataOutStackILi3ELi3ENS_10DoFHandlerILi3ELi3EEEE23ExcInvalidNumberOfNames10print_infoERSo = comdat any

$_ZN6dealii12DataOutStackILi3ELi3ENS_10DoFHandlerILi3ELi3EEEE20ExcVectorNotDeclaredC5ENSt7__cxx1112basic_stringIcSt11char_traitsIcESaIcEEE = comdat any

$_ZN6dealii12DataOutStackILi3ELi3ENS_10DoFHandlerILi3ELi3EEEE20ExcVectorNotDeclaredD5Ev = comdat any

$_ZNK6dealii12DataOutStackILi3ELi3ENS_10DoFHandlerILi3ELi3EEEE20ExcVectorNotDeclared10print_infoERSo = comdat any

$_ZN6dealii12DataOutStackILi3ELi3ENS_10DoFHandlerILi3ELi3EEEE18ExcNameAlreadyUsedC5ENSt7__cxx1112basic_stringIcSt11char_traitsIcESaIcEEE = comdat any

$_ZN6dealii12DataOutStackILi3ELi3ENS_10DoFHandlerILi3ELi3EEEE18ExcNameAlreadyUsedD5Ev = comdat any

$_ZNK6dealii12DataOutStackILi3ELi3ENS_10DoFHandlerILi3ELi3EEEE18ExcNameAlreadyUsed10print_infoERSo = comdat any

$_ZN6dealii12DataOutStackILi3ELi3ENS_10DoFHandlerILi3ELi3EEEE30ExcInvalidNumberOfSubdivisionsC5Ei = comdat any

$_ZN6dealii12DataOutStackILi3ELi3ENS_10DoFHandlerILi3ELi3EEEE30ExcInvalidNumberOfSubdivisionsD5Ev = comdat any

$_ZNK6dealii12DataOutStackILi3ELi3ENS_10DoFHandlerILi3ELi3EEEE30ExcInvalidNumberOfSubdivisions10print_infoERSo = comdat any

$_ZNK6dealii12DataOutStackILi3ELi3ENS_10DoFHandlerILi3ELi3EEEE10DataVector18memory_consumptionEv = comdat any

$_ZNK6dealii12DataOutStackILi3ELi3ENS_10DoFHandlerILi3ELi3EEEE11get_patchesEv = comdat any

$_ZNK6dealii12DataOutStackILi3ELi3ENS_10DoFHandlerILi3ELi3EEEE17get_dataset_namesB5cxx11Ev = comdat any

$_ZN6dealii12DataOutStackILi3ELi3ENS_10DoFHandlerILi3ELi3EEEE15add_data_vectorIdEEvRKNS_6VectorIT_EERKNSt7__cxx1112basic_stringIcSt11char_traitsIcESaIcEEE = comdat any

$_ZN6dealii12DataOutStackILi3ELi3ENS_10DoFHandlerILi3ELi3EEEE15add_data_vectorIdEEvRKNS_6VectorIT_EERKSt6vectorINSt7__cxx1112basic_stringIcSt11char_traitsIcESaIcEEESaISG_EE = comdat any

$_ZN6dealii12DataOutStackILi3ELi3ENS_10DoFHandlerILi3ELi3EEEE15add_data_vectorIfEEvRKNS_6VectorIT_EERKNSt7__cxx1112basic_stringIcSt11char_traitsIcESaIcEEE = comdat any

$_ZN6dealii12DataOutStackILi3ELi3ENS_10DoFHandlerILi3ELi3EEEE15add_data_vectorIfEEvRKNS_6VectorIT_EERKSt6vectorINSt7__cxx1112basic_stringIcSt11char_traitsIcESaIcEEESaISG_EE = comdat any

$_ZN6dealii12DataOutStackILi3ELi3ENS_2hp10DoFHandlerILi3ELi3EEEED5Ev = comdat any

$_ZNSt6vectorIN6dealii12DataOutStackILi3ELi3ENS0_2hp10DoFHandlerILi3ELi3EEEE10DataVectorESaIS6_EED2Ev = comdat any

$_ZN6dealii12DataOutStackILi3ELi3ENS_2hp10DoFHandlerILi3ELi3EEEE19new_parameter_valueEdd = comdat any

$_ZN6dealii12DataOutStackILi3ELi3ENS_2hp10DoFHandlerILi3ELi3EEEE18attach_dof_handlerERKS3_ = comdat any

$_ZN6dealii12DataOutStackILi3ELi3ENS_2hp10DoFHandlerILi3ELi3EEEE19declare_data_vectorERKNSt7__cxx1112basic_stringIcSt11char_traitsIcESaIcEEENS4_10VectorTypeE = comdat any

$_ZN6dealii12DataOutStackILi3ELi3ENS_2hp10DoFHandlerILi3ELi3EEEE19declare_data_vectorERKSt6vectorINSt7__cxx1112basic_stringIcSt11char_traitsIcESaIcEEESaISB_EENS4_10VectorTypeE = comdat any

$_ZN6dealii12DataOutStackILi3ELi3ENS_2hp10DoFHandlerILi3ELi3EEEE10DataVectorD2Ev = comdat any

$_ZN6dealii12DataOutStackILi3ELi3ENS_2hp10DoFHandlerILi3ELi3EEEE13build_patchesEj = comdat any

$_ZN6dealii12DataOutStackILi3ELi3ENS_2hp10DoFHandlerILi3ELi3EEEE22finish_parameter_valueEv = comdat any

$_ZNK6dealii12DataOutStackILi3ELi3ENS_2hp10DoFHandlerILi3ELi3EEEE18memory_consumptionEv = comdat any

$_ZN6dealii12DataOutStackILi3ELi3ENS_2hp10DoFHandlerILi3ELi3EEEE20ExcInvalidVectorSizeC5Eiii = comdat any

$_ZN6dealii12DataOutStackILi3ELi3ENS_2hp10DoFHandlerILi3ELi3EEEE20ExcInvalidVectorSizeD5Ev = comdat any

$_ZNK6dealii12DataOutStackILi3ELi3ENS_2hp10DoFHandlerILi3ELi3EEEE20ExcInvalidVectorSize10print_infoERSo = comdat any

$_ZN6dealii12DataOutStackILi3ELi3ENS_2hp10DoFHandlerILi3ELi3EEEE19ExcInvalidCharacterC5ENSt7__cxx1112basic_stringIcSt11char_traitsIcESaIcEEEm = comdat any

$_ZN6dealii12DataOutStackILi3ELi3ENS_2hp10DoFHandlerILi3ELi3EEEE19ExcInvalidCharacterD5Ev = comdat any

$_ZNK6dealii12DataOutStackILi3ELi3ENS_2hp10DoFHandlerILi3ELi3EEEE19ExcInvalidCharacter10print_infoERSo = comdat any

$_ZN6dealii12DataOutStackILi3ELi3ENS_2hp10DoFHandlerILi3ELi3EEEE23ExcInvalidNumberOfNamesC5Eii = comdat any

$_ZN6dealii12DataOutStackILi3ELi3ENS_2hp10DoFHandlerILi3ELi3EEEE23ExcInvalidNumberOfNamesD5Ev = comdat any

$_ZNK6dealii12DataOutStackILi3ELi3ENS_2hp10DoFHandlerILi3ELi3EEEE23ExcInvalidNumberOfNames10print_infoERSo = comdat any

$_ZN6dealii12DataOutStackILi3ELi3ENS_2hp10DoFHandlerILi3ELi3EEEE20ExcVectorNotDeclaredC5ENSt7__cxx1112basic_stringIcSt11char_traitsIcESaIcEEE = comdat any

$_ZN6dealii12DataOutStackILi3ELi3ENS_2hp10DoFHandlerILi3ELi3EEEE20ExcVectorNotDeclaredD5Ev = comdat any

$_ZNK6dealii12DataOutStackILi3ELi3ENS_2hp10DoFHandlerILi3ELi3EEEE20ExcVectorNotDeclared10print_infoERSo = comdat any

$_ZN6dealii12DataOutStackILi3ELi3ENS_2hp10DoFHandlerILi3ELi3EEEE18ExcNameAlreadyUsedC5ENSt7__cxx1112basic_stringIcSt11char_traitsIcESaIcEEE = comdat any

$_ZN6dealii12DataOutStackILi3ELi3ENS_2hp10DoFHandlerILi3ELi3EEEE18ExcNameAlreadyUsedD5Ev = comdat any

$_ZNK6dealii12DataOutStackILi3ELi3ENS_2hp10DoFHandlerILi3ELi3EEEE18ExcNameAlreadyUsed10print_infoERSo = comdat any

$_ZN6dealii12DataOutStackILi3ELi3ENS_2hp10DoFHandlerILi3ELi3EEEE30ExcInvalidNumberOfSubdivisionsC5Ei = comdat any

$_ZN6dealii12DataOutStackILi3ELi3ENS_2hp10DoFHandlerILi3ELi3EEEE30ExcInvalidNumberOfSubdivisionsD5Ev = comdat any

$_ZNK6dealii12DataOutStackILi3ELi3ENS_2hp10DoFHandlerILi3ELi3EEEE30ExcInvalidNumberOfSubdivisions10print_infoERSo = comdat any

$_ZNK6dealii12DataOutStackILi3ELi3ENS_2hp10DoFHandlerILi3ELi3EEEE10DataVector18memory_consumptionEv = comdat any

$_ZNK6dealii12DataOutStackILi3ELi3ENS_2hp10DoFHandlerILi3ELi3EEEE11get_patchesEv = comdat any

$_ZNK6dealii12DataOutStackILi3ELi3ENS_2hp10DoFHandlerILi3ELi3EEEE17get_dataset_namesB5cxx11Ev = comdat any

$_ZN6dealii12DataOutStackILi3ELi3ENS_2hp10DoFHandlerILi3ELi3EEEE15add_data_vectorIdEEvRKNS_6VectorIT_EERKNSt7__cxx1112basic_stringIcSt11char_traitsIcESaIcEEE = comdat any

$_ZN6dealii12DataOutStackILi3ELi3ENS_2hp10DoFHandlerILi3ELi3EEEE15add_data_vectorIdEEvRKNS_6VectorIT_EERKSt6vectorINSt7__cxx1112basic_stringIcSt11char_traitsIcESaIcEEESaISH_EE = comdat any

$_ZN6dealii12DataOutStackILi3ELi3ENS_2hp10DoFHandlerILi3ELi3EEEE15add_data_vectorIfEEvRKNS_6VectorIT_EERKNSt7__cxx1112basic_stringIcSt11char_traitsIcESaIcEEE = comdat any

$_ZN6dealii12DataOutStackILi3ELi3ENS_2hp10DoFHandlerILi3ELi3EEEE15add_data_vectorIfEEvRKNS_6VectorIT_EERKSt6vectorINSt7__cxx1112basic_stringIcSt11char_traitsIcESaIcEEESaISH_EE = comdat any

$_ZN6dealii12DataOutStackILi3ELi3ENS_10DoFHandlerILi3ELi3EEEE23ExcNoDoFHandlerSelectedD0Ev = comdat any

$_ZN6dealii12DataOutStackILi3ELi3ENS_10DoFHandlerILi3ELi3EEEE17ExcDataNotClearedD0Ev = comdat any

$_ZN6dealii12DataOutStackILi3ELi3ENS_10DoFHandlerILi3ELi3EEEE19ExcDataAlreadyAddedD0Ev = comdat any

$_ZN6dealii12DataOutStackILi3ELi3ENS_2hp10DoFHandlerILi3ELi3EEEE23ExcNoDoFHandlerSelectedD0Ev = comdat any

$_ZN6dealii12DataOutStackILi3ELi3ENS_2hp10DoFHandlerILi3ELi3EEEE17ExcDataNotClearedD0Ev = comdat any

$_ZN6dealii12DataOutStackILi3ELi3ENS_2hp10DoFHandlerILi3ELi3EEEE19ExcDataAlreadyAddedD0Ev = comdat any

$_ZN6dealii6VectorIdED0Ev = comdat any

$_ZN6dealii6VectorIdE4swapERS1_ = comdat any

$_ZN6dealii9TableBaseILi2EfED2Ev = comdat any

$_ZN6dealii9TableBaseILi2EfED0Ev = comdat any

$_ZN5boost10shared_ptrIN6dealii8FEValuesILi3ELi3EEEED2Ev = comdat any

$_ZN6dealii9TableBaseILi3EN5boost10shared_ptrINS_8FEValuesILi3ELi3EEEEEED2Ev = comdat any

$_ZN6dealii9TableBaseILi3EN5boost10shared_ptrINS_8FEValuesILi3ELi3EEEEEED0Ev = comdat any

$_ZN6dealii2hp12FECollectionILi3ELi3EED0Ev = comdat any

$_ZNSt6vectorIN5boost10shared_ptrIKN6dealii10QuadratureILi3EEEEESaIS6_EED2Ev = comdat any

$_ZN6dealii2hp11QCollectionILi3EED0Ev = comdat any

$_ZN5boost10shared_ptrIKN6dealii10QuadratureILi3EEEED2Ev = comdat any

$_ZNSt6vectorINSt7__cxx1112basic_stringIcSt11char_traitsIcESaIcEEESaIS5_EE17_M_realloc_insertEN9__gnu_cxx17__normal_iteratorIPS5_S7_EERKS5_ = comdat any

$_ZSt16__do_uninit_copyIPNSt7__cxx1112basic_stringIcSt11char_traitsIcESaIcEEES6_ET0_T_S8_S7_ = comdat any

$_ZNSt6vectorIN6dealii12DataOutStackILi3ELi3ENS0_10DoFHandlerILi3ELi3EEEE10DataVectorESaIS5_EE17_M_realloc_insertEN9__gnu_cxx17__normal_iteratorIPS5_S7_EERKS5_ = comdat any

$_ZN6dealii12DataOutStackILi3ELi3ENS_10DoFHandlerILi3ELi3EEEE10DataVectorC2ERKS4_ = comdat any

$_ZSt16__do_uninit_copyIN9__gnu_cxx17__normal_iteratorIPKNSt7__cxx1112basic_stringIcSt11char_traitsIcESaIcEEESt6vectorIS7_SaIS7_EEEEPS7_ET0_T_SG_SF_ = comdat any

$_ZNSt20__uninitialized_copyILb0EE13__uninit_copyIPN6dealii12DataOutStackILi3ELi3ENS2_10DoFHandlerILi3ELi3EEEE10DataVectorES8_EET0_T_SA_S9_ = comdat any

$_ZNSt6vectorINSt7__cxx1112basic_stringIcSt11char_traitsIcESaIcEEESaIS5_EE20_M_allocate_and_copyIN9__gnu_cxx17__normal_iteratorIPKS5_S7_EEEEPS5_mT_SF_ = comdat any

$_ZNSt6vectorIN5boost10shared_ptrIKN6dealii10QuadratureILi3EEEEESaIS6_EE17_M_realloc_insertEN9__gnu_cxx17__normal_iteratorIPS6_S8_EERKS6_ = comdat any

$_ZN5boost6detail15sp_counted_baseD2Ev = comdat any

$_ZN5boost6detail17sp_counted_impl_pIN6dealii10QuadratureILi3EEEED0Ev = comdat any

$_ZN5boost6detail17sp_counted_impl_pIN6dealii10QuadratureILi3EEEE7disposeEv = comdat any

$_ZN5boost6detail15sp_counted_base7destroyEv = comdat any

$_ZN5boost6detail17sp_counted_impl_pIN6dealii10QuadratureILi3EEEE11get_deleterERKSt9type_info = comdat any

$_ZNSt6vectorIN6dealii11DataOutBase5PatchILi4ELi4EEESaIS3_EE14_M_fill_insertEN9__gnu_cxx17__normal_iteratorIPS3_S5_EEmRKS3_ = comdat any

$_ZN6dealii11DataOutBase5PatchILi4ELi4EEC2ERKS2_ = comdat any

$_ZN6dealii9TableBaseILi2EfEC2ERKS1_ = comdat any

$_ZN6dealii5TableILi2EfED0Ev = comdat any

$_ZNSt20__uninitialized_copyILb0EE13__uninit_copyIPN6dealii11DataOutBase5PatchILi4ELi4EEES6_EET0_T_S8_S7_ = comdat any

$_ZN6dealii11DataOutBase5PatchILi4ELi4EEaSERKS2_ = comdat any

$_ZNSt22__uninitialized_fill_nILb0EE15__uninit_fill_nIPN6dealii11DataOutBase5PatchILi4ELi4EEEmS5_EET_S7_T0_RKT1_ = comdat any

$_ZNSt6vectorINSt7__cxx1112basic_stringIcSt11char_traitsIcESaIcEEESaIS5_EE15_M_range_insertIN9__gnu_cxx17__normal_iteratorIPKS5_S7_EEEEvNSA_IPS5_S7_EET_SG_St20forward_iterator_tag = comdat any

$_ZNSt6vectorINSt7__cxx1112basic_stringIcSt11char_traitsIcESaIcEEESaIS5_EE14_M_fill_insertEN9__gnu_cxx17__normal_iteratorIPS5_S7_EEmRKS5_ = comdat any

$_ZSt18__do_uninit_fill_nIPNSt7__cxx1112basic_stringIcSt11char_traitsIcESaIcEEEmS5_ET_S7_T0_RKT1_ = comdat any

$_ZNSt6vectorIN6dealii12DataOutStackILi3ELi3ENS0_2hp10DoFHandlerILi3ELi3EEEE10DataVectorESaIS6_EE17_M_realloc_insertEN9__gnu_cxx17__normal_iteratorIPS6_S8_EERKS6_ = comdat any

$_ZN6dealii12DataOutStackILi3ELi3ENS_2hp10DoFHandlerILi3ELi3EEEE10DataVectorC2ERKS5_ = comdat any

$_ZNSt20__uninitialized_copyILb0EE13__uninit_copyIPN6dealii12DataOutStackILi3ELi3ENS2_2hp10DoFHandlerILi3ELi3EEEE10DataVectorES9_EET0_T_SB_SA_ = comdat any

$_ZTVN6dealii12DataOutStackILi3ELi3ENS_10DoFHandlerILi3ELi3EEEEE = comdat any

$_ZTVN6dealii12DataOutStackILi3ELi3ENS_10DoFHandlerILi3ELi3EEEE20ExcInvalidVectorSizeE = comdat any

$_ZTVN6dealii12DataOutStackILi3ELi3ENS_10DoFHandlerILi3ELi3EEEE19ExcInvalidCharacterE = comdat any

$_ZTVN6dealii12DataOutStackILi3ELi3ENS_10DoFHandlerILi3ELi3EEEE23ExcInvalidNumberOfNamesE = comdat any

$_ZTVN6dealii12DataOutStackILi3ELi3ENS_10DoFHandlerILi3ELi3EEEE20ExcVectorNotDeclaredE = comdat any

$_ZTVN6dealii12DataOutStackILi3ELi3ENS_10DoFHandlerILi3ELi3EEEE18ExcNameAlreadyUsedE = comdat any

$_ZTVN6dealii12DataOutStackILi3ELi3ENS_10DoFHandlerILi3ELi3EEEE30ExcInvalidNumberOfSubdivisionsE = comdat any

$_ZTVN6dealii12DataOutStackILi3ELi3ENS_2hp10DoFHandlerILi3ELi3EEEEE = comdat any

$_ZTVN6dealii12DataOutStackILi3ELi3ENS_2hp10DoFHandlerILi3ELi3EEEE20ExcInvalidVectorSizeE = comdat any

$_ZTVN6dealii12DataOutStackILi3ELi3ENS_2hp10DoFHandlerILi3ELi3EEEE19ExcInvalidCharacterE = comdat any

$_ZTVN6dealii12DataOutStackILi3ELi3ENS_2hp10DoFHandlerILi3ELi3EEEE23ExcInvalidNumberOfNamesE = comdat any

$_ZTVN6dealii12DataOutStackILi3ELi3ENS_2hp10DoFHandlerILi3ELi3EEEE20ExcVectorNotDeclaredE = comdat any

$_ZTVN6dealii12DataOutStackILi3ELi3ENS_2hp10DoFHandlerILi3ELi3EEEE18ExcNameAlreadyUsedE = comdat any

$_ZTVN6dealii12DataOutStackILi3ELi3ENS_2hp10DoFHandlerILi3ELi3EEEE30ExcInvalidNumberOfSubdivisionsE = comdat any

$_ZTSN6dealii12DataOutStackILi3ELi3ENS_10DoFHandlerILi3ELi3EEEEE = comdat any

$_ZTSN6dealii16DataOutInterfaceILi4ELi4EEE = comdat any

$_ZTSN6dealii11DataOutBaseE = comdat any

$_ZTIN6dealii11DataOutBaseE = comdat any

$_ZTIN6dealii16DataOutInterfaceILi4ELi4EEE = comdat any

$_ZTIN6dealii12DataOutStackILi3ELi3ENS_10DoFHandlerILi3ELi3EEEEE = comdat any

$_ZTVN6dealii12DataOutStackILi3ELi3ENS_10DoFHandlerILi3ELi3EEEE23ExcNoDoFHandlerSelectedE = comdat any

$_ZTSN6dealii12DataOutStackILi3ELi3ENS_10DoFHandlerILi3ELi3EEEE23ExcNoDoFHandlerSelectedE = comdat any

$_ZTIN6dealii12DataOutStackILi3ELi3ENS_10DoFHandlerILi3ELi3EEEE23ExcNoDoFHandlerSelectedE = comdat any

$_ZTSN6dealii12DataOutStackILi3ELi3ENS_10DoFHandlerILi3ELi3EEEE20ExcInvalidVectorSizeE = comdat any

$_ZTIN6dealii12DataOutStackILi3ELi3ENS_10DoFHandlerILi3ELi3EEEE20ExcInvalidVectorSizeE = comdat any

$_ZTSN6dealii12DataOutStackILi3ELi3ENS_10DoFHandlerILi3ELi3EEEE19ExcInvalidCharacterE = comdat any

$_ZTIN6dealii12DataOutStackILi3ELi3ENS_10DoFHandlerILi3ELi3EEEE19ExcInvalidCharacterE = comdat any

$_ZTSN6dealii12DataOutStackILi3ELi3ENS_10DoFHandlerILi3ELi3EEEE23ExcInvalidNumberOfNamesE = comdat any

$_ZTIN6dealii12DataOutStackILi3ELi3ENS_10DoFHandlerILi3ELi3EEEE23ExcInvalidNumberOfNamesE = comdat any

$_ZTSN6dealii12DataOutStackILi3ELi3ENS_10DoFHandlerILi3ELi3EEEE20ExcVectorNotDeclaredE = comdat any

$_ZTIN6dealii12DataOutStackILi3ELi3ENS_10DoFHandlerILi3ELi3EEEE20ExcVectorNotDeclaredE = comdat any

$_ZTVN6dealii12DataOutStackILi3ELi3ENS_10DoFHandlerILi3ELi3EEEE17ExcDataNotClearedE = comdat any

$_ZTSN6dealii12DataOutStackILi3ELi3ENS_10DoFHandlerILi3ELi3EEEE17ExcDataNotClearedE = comdat any

$_ZTIN6dealii12DataOutStackILi3ELi3ENS_10DoFHandlerILi3ELi3EEEE17ExcDataNotClearedE = comdat any

$_ZTVN6dealii12DataOutStackILi3ELi3ENS_10DoFHandlerILi3ELi3EEEE19ExcDataAlreadyAddedE = comdat any

$_ZTSN6dealii12DataOutStackILi3ELi3ENS_10DoFHandlerILi3ELi3EEEE19ExcDataAlreadyAddedE = comdat any

$_ZTIN6dealii12DataOutStackILi3ELi3ENS_10DoFHandlerILi3ELi3EEEE19ExcDataAlreadyAddedE = comdat any

$_ZTSN6dealii12DataOutStackILi3ELi3ENS_10DoFHandlerILi3ELi3EEEE18ExcNameAlreadyUsedE = comdat any

$_ZTIN6dealii12DataOutStackILi3ELi3ENS_10DoFHandlerILi3ELi3EEEE18ExcNameAlreadyUsedE = comdat any

$_ZTSN6dealii12DataOutStackILi3ELi3ENS_10DoFHandlerILi3ELi3EEEE30ExcInvalidNumberOfSubdivisionsE = comdat any

$_ZTIN6dealii12DataOutStackILi3ELi3ENS_10DoFHandlerILi3ELi3EEEE30ExcInvalidNumberOfSubdivisionsE = comdat any

$_ZTSN6dealii12DataOutStackILi3ELi3ENS_2hp10DoFHandlerILi3ELi3EEEEE = comdat any

$_ZTIN6dealii12DataOutStackILi3ELi3ENS_2hp10DoFHandlerILi3ELi3EEEEE = comdat any

$_ZTVN6dealii12DataOutStackILi3ELi3ENS_2hp10DoFHandlerILi3ELi3EEEE23ExcNoDoFHandlerSelectedE = comdat any

$_ZTSN6dealii12DataOutStackILi3ELi3ENS_2hp10DoFHandlerILi3ELi3EEEE23ExcNoDoFHandlerSelectedE = comdat any

$_ZTIN6dealii12DataOutStackILi3ELi3ENS_2hp10DoFHandlerILi3ELi3EEEE23ExcNoDoFHandlerSelectedE = comdat any

$_ZTSN6dealii12DataOutStackILi3ELi3ENS_2hp10DoFHandlerILi3ELi3EEEE20ExcInvalidVectorSizeE = comdat any

$_ZTIN6dealii12DataOutStackILi3ELi3ENS_2hp10DoFHandlerILi3ELi3EEEE20ExcInvalidVectorSizeE = comdat any

$_ZTSN6dealii12DataOutStackILi3ELi3ENS_2hp10DoFHandlerILi3ELi3EEEE19ExcInvalidCharacterE = comdat any

$_ZTIN6dealii12DataOutStackILi3ELi3ENS_2hp10DoFHandlerILi3ELi3EEEE19ExcInvalidCharacterE = comdat any

$_ZTSN6dealii12DataOutStackILi3ELi3ENS_2hp10DoFHandlerILi3ELi3EEEE23ExcInvalidNumberOfNamesE = comdat any

$_ZTIN6dealii12DataOutStackILi3ELi3ENS_2hp10DoFHandlerILi3ELi3EEEE23ExcInvalidNumberOfNamesE = comdat any

$_ZTSN6dealii12DataOutStackILi3ELi3ENS_2hp10DoFHandlerILi3ELi3EEEE20ExcVectorNotDeclaredE = comdat any

$_ZTIN6dealii12DataOutStackILi3ELi3ENS_2hp10DoFHandlerILi3ELi3EEEE20ExcVectorNotDeclaredE = comdat any

$_ZTVN6dealii12DataOutStackILi3ELi3ENS_2hp10DoFHandlerILi3ELi3EEEE17ExcDataNotClearedE = comdat any

$_ZTSN6dealii12DataOutStackILi3ELi3ENS_2hp10DoFHandlerILi3ELi3EEEE17ExcDataNotClearedE = comdat any

$_ZTIN6dealii12DataOutStackILi3ELi3ENS_2hp10DoFHandlerILi3ELi3EEEE17ExcDataNotClearedE = comdat any

$_ZTVN6dealii12DataOutStackILi3ELi3ENS_2hp10DoFHandlerILi3ELi3EEEE19ExcDataAlreadyAddedE = comdat any

$_ZTSN6dealii12DataOutStackILi3ELi3ENS_2hp10DoFHandlerILi3ELi3EEEE19ExcDataAlreadyAddedE = comdat any

$_ZTIN6dealii12DataOutStackILi3ELi3ENS_2hp10DoFHandlerILi3ELi3EEEE19ExcDataAlreadyAddedE = comdat any

$_ZTSN6dealii12DataOutStackILi3ELi3ENS_2hp10DoFHandlerILi3ELi3EEEE18ExcNameAlreadyUsedE = comdat any

$_ZTIN6dealii12DataOutStackILi3ELi3ENS_2hp10DoFHandlerILi3ELi3EEEE18ExcNameAlreadyUsedE = comdat any

$_ZTSN6dealii12DataOutStackILi3ELi3ENS_2hp10DoFHandlerILi3ELi3EEEE30ExcInvalidNumberOfSubdivisionsE = comdat any

$_ZTIN6dealii12DataOutStackILi3ELi3ENS_2hp10DoFHandlerILi3ELi3EEEE30ExcInvalidNumberOfSubdivisionsE = comdat any

$_ZTVN6dealii6VectorIdEE = comdat any

$_ZTSN6dealii6VectorIdEE = comdat any

$_ZTIN6dealii6VectorIdEE = comdat any

$_ZTVN6dealii9TableBaseILi2EfEE = comdat any

$_ZTSN6dealii9TableBaseILi2EfEE = comdat any

$_ZTIN6dealii9TableBaseILi2EfEE = comdat any

$_ZTVN6dealii9TableBaseILi3EN5boost10shared_ptrINS_8FEValuesILi3ELi3EEEEEEE = comdat any

$_ZTSN6dealii9TableBaseILi3EN5boost10shared_ptrINS_8FEValuesILi3ELi3EEEEEEE = comdat any

$_ZTIN6dealii9TableBaseILi3EN5boost10shared_ptrINS_8FEValuesILi3ELi3EEEEEEE = comdat any

$_ZTVN6dealii2hp12FECollectionILi3ELi3EEE = comdat any

$_ZTSN6dealii2hp12FECollectionILi3ELi3EEE = comdat any

$_ZTIN6dealii2hp12FECollectionILi3ELi3EEE = comdat any

$_ZTVN6dealii2hp11QCollectionILi3EEE = comdat any

$_ZTSN6dealii2hp11QCollectionILi3EEE = comdat any

$_ZTIN6dealii2hp11QCollectionILi3EEE = comdat any

$_ZTVN5boost6detail17sp_counted_impl_pIN6dealii10QuadratureILi3EEEEE = comdat any

$_ZTSN5boost6detail17sp_counted_impl_pIN6dealii10QuadratureILi3EEEEE = comdat any

$_ZTSN5boost6detail15sp_counted_baseE = comdat any

$_ZTIN5boost6detail15sp_counted_baseE = comdat any

$_ZTIN5boost6detail17sp_counted_impl_pIN6dealii10QuadratureILi3EEEEE = comdat any

$_ZTVN6dealii5TableILi2EfEE = comdat any

$_ZTSN6dealii5TableILi2EfEE = comdat any

$_ZTIN6dealii5TableILi2EfEE = comdat any

@_ZTVN6dealii12DataOutStackILi3ELi3ENS_10DoFHandlerILi3ELi3EEEEE = weak_odr dso_local unnamed_addr constant { [7 x ptr] } { [7 x ptr] [ptr null, ptr @_ZTIN6dealii12DataOutStackILi3ELi3ENS_10DoFHandlerILi3ELi3EEEEE, ptr @_ZN6dealii12DataOutStackILi3ELi3ENS_10DoFHandlerILi3ELi3EEEED2Ev, ptr @_ZN6dealii12DataOutStackILi3ELi3ENS_10DoFHandlerILi3ELi3EEEED0Ev, ptr @_ZNK6dealii12DataOutStackILi3ELi3ENS_10DoFHandlerILi3ELi3EEEE11get_patchesEv, ptr @_ZNK6dealii12DataOutStackILi3ELi3ENS_10DoFHandlerILi3ELi3EEEE17get_dataset_namesB5cxx11Ev, ptr @_ZNK6dealii16DataOutInterfaceILi4ELi4EE22get_vector_data_rangesB5cxx11Ev] }, comdat, align 8
@_ZTVN6dealii12DataOutStackILi3ELi3ENS_10DoFHandlerILi3ELi3EEEE20ExcInvalidVectorSizeE = weak_odr dso_local unnamed_addr constant { [6 x ptr] } { [6 x ptr] [ptr null, ptr @_ZTIN6dealii12DataOutStackILi3ELi3ENS_10DoFHandlerILi3ELi3EEEE20ExcInvalidVectorSizeE, ptr @_ZN6dealii12DataOutStackILi3ELi3ENS_10DoFHandlerILi3ELi3EEEE20ExcInvalidVectorSizeD2Ev, ptr @_ZN6dealii12DataOutStackILi3ELi3ENS_10DoFHandlerILi3ELi3EEEE20ExcInvalidVectorSizeD0Ev, ptr @_ZNK6dealii13ExceptionBase4whatEv, ptr @_ZNK6dealii12DataOutStackILi3ELi3ENS_10DoFHandlerILi3ELi3EEEE20ExcInvalidVectorSize10print_infoERSo] }, comdat, align 8
@.str = private unnamed_addr constant [21 x i8] c"The vector has size \00", align 1
@.str.9 = private unnamed_addr constant [44 x i8] c" but the DoFHandler objects says there are \00", align 1
@.str.10 = private unnamed_addr constant [35 x i8] c" degrees of freedom and there are \00", align 1
@.str.11 = private unnamed_addr constant [15 x i8] c" active cells.\00", align 1
@_ZTVN6dealii12DataOutStackILi3ELi3ENS_10DoFHandlerILi3ELi3EEEE19ExcInvalidCharacterE = weak_odr dso_local unnamed_addr constant { [6 x ptr] } { [6 x ptr] [ptr null, ptr @_ZTIN6dealii12DataOutStackILi3ELi3ENS_10DoFHandlerILi3ELi3EEEE19ExcInvalidCharacterE, ptr @_ZN6dealii12DataOutStackILi3ELi3ENS_10DoFHandlerILi3ELi3EEEE19ExcInvalidCharacterD2Ev, ptr @_ZN6dealii12DataOutStackILi3ELi3ENS_10DoFHandlerILi3ELi3EEEE19ExcInvalidCharacterD0Ev, ptr @_ZNK6dealii13ExceptionBase4whatEv, ptr @_ZNK6dealii12DataOutStackILi3ELi3ENS_10DoFHandlerILi3ELi3EEEE19ExcInvalidCharacter10print_infoERSo] }, comdat, align 8
@.str.12 = private unnamed_addr constant [52 x i8] c"Please use only the characters [a-zA-Z0-9_<>()] for\00", align 1
@.str.13 = private unnamed_addr constant [72 x i8] c"description strings since some graphics formats will only accept these.\00", align 1
@.str.14 = private unnamed_addr constant [26 x i8] c"The string you gave was <\00", align 1
@.str.15 = private unnamed_addr constant [30 x i8] c">, the invalid character is <\00", align 1
@.str.16 = private unnamed_addr constant [3 x i8] c">.\00", align 1
@_ZTVN6dealii12DataOutStackILi3ELi3ENS_10DoFHandlerILi3ELi3EEEE23ExcInvalidNumberOfNamesE = weak_odr dso_local unnamed_addr constant { [6 x ptr] } { [6 x ptr] [ptr null, ptr @_ZTIN6dealii12DataOutStackILi3ELi3ENS_10DoFHandlerILi3ELi3EEEE23ExcInvalidNumberOfNamesE, ptr @_ZN6dealii12DataOutStackILi3ELi3ENS_10DoFHandlerILi3ELi3EEEE23ExcInvalidNumberOfNamesD2Ev, ptr @_ZN6dealii12DataOutStackILi3ELi3ENS_10DoFHandlerILi3ELi3EEEE23ExcInvalidNumberOfNamesD0Ev, ptr @_ZNK6dealii13ExceptionBase4whatEv, ptr @_ZNK6dealii12DataOutStackILi3ELi3ENS_10DoFHandlerILi3ELi3EEEE23ExcInvalidNumberOfNames10print_infoERSo] }, comdat, align 8
@.str.17 = private unnamed_addr constant [49 x i8] c"You have to give one name per component in your \00", align 1
@.str.18 = private unnamed_addr constant [38 x i8] c"data vector. The number you gave was \00", align 1
@.str.19 = private unnamed_addr constant [35 x i8] c", but the number of components is \00", align 1
@_ZTVN6dealii12DataOutStackILi3ELi3ENS_10DoFHandlerILi3ELi3EEEE20ExcVectorNotDeclaredE = weak_odr dso_local unnamed_addr constant { [6 x ptr] } { [6 x ptr] [ptr null, ptr @_ZTIN6dealii12DataOutStackILi3ELi3ENS_10DoFHandlerILi3ELi3EEEE20ExcVectorNotDeclaredE, ptr @_ZN6dealii12DataOutStackILi3ELi3ENS_10DoFHandlerILi3ELi3EEEE20ExcVectorNotDeclaredD2Ev, ptr @_ZN6dealii12DataOutStackILi3ELi3ENS_10DoFHandlerILi3ELi3EEEE20ExcVectorNotDeclaredD0Ev, ptr @_ZNK6dealii13ExceptionBase4whatEv, ptr @_ZNK6dealii12DataOutStackILi3ELi3ENS_10DoFHandlerILi3ELi3EEEE20ExcVectorNotDeclared10print_infoERSo] }, comdat, align 8
@.str.20 = private unnamed_addr constant [60 x i8] c"The data vector for which the first component has the name \00", align 1
@.str.21 = private unnamed_addr constant [31 x i8] c" has not been declared before.\00", align 1
@_ZTVN6dealii12DataOutStackILi3ELi3ENS_10DoFHandlerILi3ELi3EEEE18ExcNameAlreadyUsedE = weak_odr dso_local unnamed_addr constant { [6 x ptr] } { [6 x ptr] [ptr null, ptr @_ZTIN6dealii12DataOutStackILi3ELi3ENS_10DoFHandlerILi3ELi3EEEE18ExcNameAlreadyUsedE, ptr @_ZN6dealii12DataOutStackILi3ELi3ENS_10DoFHandlerILi3ELi3EEEE18ExcNameAlreadyUsedD2Ev, ptr @_ZN6dealii12DataOutStackILi3ELi3ENS_10DoFHandlerILi3ELi3EEEE18ExcNameAlreadyUsedD0Ev, ptr @_ZNK6dealii13ExceptionBase4whatEv, ptr @_ZNK6dealii12DataOutStackILi3ELi3ENS_10DoFHandlerILi3ELi3EEEE18ExcNameAlreadyUsed10print_infoERSo] }, comdat, align 8
@.str.22 = private unnamed_addr constant [56 x i8] c"You tried to declare a component of a data vector with \00", align 1
@.str.23 = private unnamed_addr constant [11 x i8] c"the name <\00", align 1
@.str.24 = private unnamed_addr constant [34 x i8] c">, but that name is already used.\00", align 1
@_ZTVN6dealii12DataOutStackILi3ELi3ENS_10DoFHandlerILi3ELi3EEEE30ExcInvalidNumberOfSubdivisionsE = weak_odr dso_local unnamed_addr constant { [6 x ptr] } { [6 x ptr] [ptr null, ptr @_ZTIN6dealii12DataOutStackILi3ELi3ENS_10DoFHandlerILi3ELi3EEEE30ExcInvalidNumberOfSubdivisionsE, ptr @_ZN6dealii12DataOutStackILi3ELi3ENS_10DoFHandlerILi3ELi3EEEE30ExcInvalidNumberOfSubdivisionsD2Ev, ptr @_ZN6dealii12DataOutStackILi3ELi3ENS_10DoFHandlerILi3ELi3EEEE30ExcInvalidNumberOfSubdivisionsD0Ev, ptr @_ZNK6dealii13ExceptionBase4whatEv, ptr @_ZNK6dealii12DataOutStackILi3ELi3ENS_10DoFHandlerILi3ELi3EEEE30ExcInvalidNumberOfSubdivisions10print_infoERSo] }, comdat, align 8
@.str.25 = private unnamed_addr constant [39 x i8] c"The number of subdivisions per patch, \00", align 1
@.str.26 = private unnamed_addr constant [16 x i8] c", is not valid.\00", align 1
@_ZTVN6dealii12DataOutStackILi3ELi3ENS_2hp10DoFHandlerILi3ELi3EEEEE = weak_odr dso_local unnamed_addr constant { [7 x ptr] } { [7 x ptr] [ptr null, ptr @_ZTIN6dealii12DataOutStackILi3ELi3ENS_2hp10DoFHandlerILi3ELi3EEEEE, ptr @_ZN6dealii12DataOutStackILi3ELi3ENS_2hp10DoFHandlerILi3ELi3EEEED2Ev, ptr @_ZN6dealii12DataOutStackILi3ELi3ENS_2hp10DoFHandlerILi3ELi3EEEED0Ev, ptr @_ZNK6dealii12DataOutStackILi3ELi3ENS_2hp10DoFHandlerILi3ELi3EEEE11get_patchesEv, ptr @_ZNK6dealii12DataOutStackILi3ELi3ENS_2hp10DoFHandlerILi3ELi3EEEE17get_dataset_namesB5cxx11Ev, ptr @_ZNK6dealii16DataOutInterfaceILi4ELi4EE22get_vector_data_rangesB5cxx11Ev] }, comdat, align 8
@_ZTVN6dealii12DataOutStackILi3ELi3ENS_2hp10DoFHandlerILi3ELi3EEEE20ExcInvalidVectorSizeE = weak_odr dso_local unnamed_addr constant { [6 x ptr] } { [6 x ptr] [ptr null, ptr @_ZTIN6dealii12DataOutStackILi3ELi3ENS_2hp10DoFHandlerILi3ELi3EEEE20ExcInvalidVectorSizeE, ptr @_ZN6dealii12DataOutStackILi3ELi3ENS_2hp10DoFHandlerILi3ELi3EEEE20ExcInvalidVectorSizeD2Ev, ptr @_ZN6dealii12DataOutStackILi3ELi3ENS_2hp10DoFHandlerILi3ELi3EEEE20ExcInvalidVectorSizeD0Ev, ptr @_ZNK6dealii13ExceptionBase4whatEv, ptr @_ZNK6dealii12DataOutStackILi3ELi3ENS_2hp10DoFHandlerILi3ELi3EEEE20ExcInvalidVectorSize10print_infoERSo] }, comdat, align 8
@_ZTVN6dealii12DataOutStackILi3ELi3ENS_2hp10DoFHandlerILi3ELi3EEEE19ExcInvalidCharacterE = weak_odr dso_local unnamed_addr constant { [6 x ptr] } { [6 x ptr] [ptr null, ptr @_ZTIN6dealii12DataOutStackILi3ELi3ENS_2hp10DoFHandlerILi3ELi3EEEE19ExcInvalidCharacterE, ptr @_ZN6dealii12DataOutStackILi3ELi3ENS_2hp10DoFHandlerILi3ELi3EEEE19ExcInvalidCharacterD2Ev, ptr @_ZN6dealii12DataOutStackILi3ELi3ENS_2hp10DoFHandlerILi3ELi3EEEE19ExcInvalidCharacterD0Ev, ptr @_ZNK6dealii13ExceptionBase4whatEv, ptr @_ZNK6dealii12DataOutStackILi3ELi3ENS_2hp10DoFHandlerILi3ELi3EEEE19ExcInvalidCharacter10print_infoERSo] }, comdat, align 8
@_ZTVN6dealii12DataOutStackILi3ELi3ENS_2hp10DoFHandlerILi3ELi3EEEE23ExcInvalidNumberOfNamesE = weak_odr dso_local unnamed_addr constant { [6 x ptr] } { [6 x ptr] [ptr null, ptr @_ZTIN6dealii12DataOutStackILi3ELi3ENS_2hp10DoFHandlerILi3ELi3EEEE23ExcInvalidNumberOfNamesE, ptr @_ZN6dealii12DataOutStackILi3ELi3ENS_2hp10DoFHandlerILi3ELi3EEEE23ExcInvalidNumberOfNamesD2Ev, ptr @_ZN6dealii12DataOutStackILi3ELi3ENS_2hp10DoFHandlerILi3ELi3EEEE23ExcInvalidNumberOfNamesD0Ev, ptr @_ZNK6dealii13ExceptionBase4whatEv, ptr @_ZNK6dealii12DataOutStackILi3ELi3ENS_2hp10DoFHandlerILi3ELi3EEEE23ExcInvalidNumberOfNames10print_infoERSo] }, comdat, align 8
@_ZTVN6dealii12DataOutStackILi3ELi3ENS_2hp10DoFHandlerILi3ELi3EEEE20ExcVectorNotDeclaredE = weak_odr dso_local unnamed_addr constant { [6 x ptr] } { [6 x ptr] [ptr null, ptr @_ZTIN6dealii12DataOutStackILi3ELi3ENS_2hp10DoFHandlerILi3ELi3EEEE20ExcVectorNotDeclaredE, ptr @_ZN6dealii12DataOutStackILi3ELi3ENS_2hp10DoFHandlerILi3ELi3EEEE20ExcVectorNotDeclaredD2Ev, ptr @_ZN6dealii12DataOutStackILi3ELi3ENS_2hp10DoFHandlerILi3ELi3EEEE20ExcVectorNotDeclaredD0Ev, ptr @_ZNK6dealii13ExceptionBase4whatEv, ptr @_ZNK6dealii12DataOutStackILi3ELi3ENS_2hp10DoFHandlerILi3ELi3EEEE20ExcVectorNotDeclared10print_infoERSo] }, comdat, align 8
@_ZTVN6dealii12DataOutStackILi3ELi3ENS_2hp10DoFHandlerILi3ELi3EEEE18ExcNameAlreadyUsedE = weak_odr dso_local unnamed_addr constant { [6 x ptr] } { [6 x ptr] [ptr null, ptr @_ZTIN6dealii12DataOutStackILi3ELi3ENS_2hp10DoFHandlerILi3ELi3EEEE18ExcNameAlreadyUsedE, ptr @_ZN6dealii12DataOutStackILi3ELi3ENS_2hp10DoFHandlerILi3ELi3EEEE18ExcNameAlreadyUsedD2Ev, ptr @_ZN6dealii12DataOutStackILi3ELi3ENS_2hp10DoFHandlerILi3ELi3EEEE18ExcNameAlreadyUsedD0Ev, ptr @_ZNK6dealii13ExceptionBase4whatEv, ptr @_ZNK6dealii12DataOutStackILi3ELi3ENS_2hp10DoFHandlerILi3ELi3EEEE18ExcNameAlreadyUsed10print_infoERSo] }, comdat, align 8
@_ZTVN6dealii12DataOutStackILi3ELi3ENS_2hp10DoFHandlerILi3ELi3EEEE30ExcInvalidNumberOfSubdivisionsE = weak_odr dso_local unnamed_addr constant { [6 x ptr] } { [6 x ptr] [ptr null, ptr @_ZTIN6dealii12DataOutStackILi3ELi3ENS_2hp10DoFHandlerILi3ELi3EEEE30ExcInvalidNumberOfSubdivisionsE, ptr @_ZN6dealii12DataOutStackILi3ELi3ENS_2hp10DoFHandlerILi3ELi3EEEE30ExcInvalidNumberOfSubdivisionsD2Ev, ptr @_ZN6dealii12DataOutStackILi3ELi3ENS_2hp10DoFHandlerILi3ELi3EEEE30ExcInvalidNumberOfSubdivisionsD0Ev, ptr @_ZNK6dealii13ExceptionBase4whatEv, ptr @_ZNK6dealii12DataOutStackILi3ELi3ENS_2hp10DoFHandlerILi3ELi3EEEE30ExcInvalidNumberOfSubdivisions10print_infoERSo] }, comdat, align 8
@_ZTVN10__cxxabiv120__si_class_type_infoE = external global ptr
@_ZTSN6dealii12DataOutStackILi3ELi3ENS_10DoFHandlerILi3ELi3EEEEE = weak_odr dso_local constant [60 x i8] c"N6dealii12DataOutStackILi3ELi3ENS_10DoFHandlerILi3ELi3EEEEE\00", comdat, align 1
@_ZTVN10__cxxabiv121__vmi_class_type_infoE = external global ptr
@_ZTSN6dealii16DataOutInterfaceILi4ELi4EEE = linkonce_odr dso_local constant [38 x i8] c"N6dealii16DataOutInterfaceILi4ELi4EEE\00", comdat, align 1
@_ZTVN10__cxxabiv117__class_type_infoE = external global ptr
@_ZTSN6dealii11DataOutBaseE = linkonce_odr dso_local constant [23 x i8] c"N6dealii11DataOutBaseE\00", comdat, align 1
@_ZTIN6dealii11DataOutBaseE = linkonce_odr dso_local constant { ptr, ptr } { ptr getelementptr inbounds (ptr, ptr @_ZTVN10__cxxabiv117__class_type_infoE, i64 2), ptr @_ZTSN6dealii11DataOutBaseE }, comdat, align 8
@_ZTIN6dealii16DataOutInterfaceILi4ELi4EEE = linkonce_odr dso_local constant { ptr, ptr, i32, i32, ptr, i64 } { ptr getelementptr inbounds (ptr, ptr @_ZTVN10__cxxabiv121__vmi_class_type_infoE, i64 2), ptr @_ZTSN6dealii16DataOutInterfaceILi4ELi4EEE, i32 0, i32 1, ptr @_ZTIN6dealii11DataOutBaseE, i64 0 }, comdat, align 8
@_ZTIN6dealii12DataOutStackILi3ELi3ENS_10DoFHandlerILi3ELi3EEEEE = weak_odr dso_local constant { ptr, ptr, ptr } { ptr getelementptr inbounds (ptr, ptr @_ZTVN10__cxxabiv120__si_class_type_infoE, i64 2), ptr @_ZTSN6dealii12DataOutStackILi3ELi3ENS_10DoFHandlerILi3ELi3EEEEE, ptr @_ZTIN6dealii16DataOutInterfaceILi4ELi4EEE }, comdat, align 8
@_ZTVN6dealii12DataOutStackILi3ELi3ENS_10DoFHandlerILi3ELi3EEEE23ExcNoDoFHandlerSelectedE = weak_odr dso_local unnamed_addr constant { [6 x ptr] } { [6 x ptr] [ptr null, ptr @_ZTIN6dealii12DataOutStackILi3ELi3ENS_10DoFHandlerILi3ELi3EEEE23ExcNoDoFHandlerSelectedE, ptr @_ZN6dealii13ExceptionBaseD2Ev, ptr @_ZN6dealii12DataOutStackILi3ELi3ENS_10DoFHandlerILi3ELi3EEEE23ExcNoDoFHandlerSelectedD0Ev, ptr @_ZNK6dealii13ExceptionBase4whatEv, ptr @_ZNK6dealii13ExceptionBase10print_infoERSo] }, comdat, align 8
@_ZTSN6dealii12DataOutStackILi3ELi3ENS_10DoFHandlerILi3ELi3EEEE23ExcNoDoFHandlerSelectedE = weak_odr dso_local constant [85 x i8] c"N6dealii12DataOutStackILi3ELi3ENS_10DoFHandlerILi3ELi3EEEE23ExcNoDoFHandlerSelectedE\00", comdat, align 1
@_ZTIN6dealii13ExceptionBaseE = external constant ptr
@_ZTIN6dealii12DataOutStackILi3ELi3ENS_10DoFHandlerILi3ELi3EEEE23ExcNoDoFHandlerSelectedE = weak_odr dso_local constant { ptr, ptr, ptr } { ptr getelementptr inbounds (ptr, ptr @_ZTVN10__cxxabiv120__si_class_type_infoE, i64 2), ptr @_ZTSN6dealii12DataOutStackILi3ELi3ENS_10DoFHandlerILi3ELi3EEEE23ExcNoDoFHandlerSelectedE, ptr @_ZTIN6dealii13ExceptionBaseE }, comdat, align 8
@_ZTSN6dealii12DataOutStackILi3ELi3ENS_10DoFHandlerILi3ELi3EEEE20ExcInvalidVectorSizeE = weak_odr dso_local constant [82 x i8] c"N6dealii12DataOutStackILi3ELi3ENS_10DoFHandlerILi3ELi3EEEE20ExcInvalidVectorSizeE\00", comdat, align 1
@_ZTIN6dealii12DataOutStackILi3ELi3ENS_10DoFHandlerILi3ELi3EEEE20ExcInvalidVectorSizeE = weak_odr dso_local constant { ptr, ptr, ptr } { ptr getelementptr inbounds (ptr, ptr @_ZTVN10__cxxabiv120__si_class_type_infoE, i64 2), ptr @_ZTSN6dealii12DataOutStackILi3ELi3ENS_10DoFHandlerILi3ELi3EEEE20ExcInvalidVectorSizeE, ptr @_ZTIN6dealii13ExceptionBaseE }, comdat, align 8
@_ZTSN6dealii12DataOutStackILi3ELi3ENS_10DoFHandlerILi3ELi3EEEE19ExcInvalidCharacterE = weak_odr dso_local constant [81 x i8] c"N6dealii12DataOutStackILi3ELi3ENS_10DoFHandlerILi3ELi3EEEE19ExcInvalidCharacterE\00", comdat, align 1
@_ZTIN6dealii12DataOutStackILi3ELi3ENS_10DoFHandlerILi3ELi3EEEE19ExcInvalidCharacterE = weak_odr dso_local constant { ptr, ptr, ptr } { ptr getelementptr inbounds (ptr, ptr @_ZTVN10__cxxabiv120__si_class_type_infoE, i64 2), ptr @_ZTSN6dealii12DataOutStackILi3ELi3ENS_10DoFHandlerILi3ELi3EEEE19ExcInvalidCharacterE, ptr @_ZTIN6dealii13ExceptionBaseE }, comdat, align 8
@_ZTSN6dealii12DataOutStackILi3ELi3ENS_10DoFHandlerILi3ELi3EEEE23ExcInvalidNumberOfNamesE = weak_odr dso_local constant [85 x i8] c"N6dealii12DataOutStackILi3ELi3ENS_10DoFHandlerILi3ELi3EEEE23ExcInvalidNumberOfNamesE\00", comdat, align 1
@_ZTIN6dealii12DataOutStackILi3ELi3ENS_10DoFHandlerILi3ELi3EEEE23ExcInvalidNumberOfNamesE = weak_odr dso_local constant { ptr, ptr, ptr } { ptr getelementptr inbounds (ptr, ptr @_ZTVN10__cxxabiv120__si_class_type_infoE, i64 2), ptr @_ZTSN6dealii12DataOutStackILi3ELi3ENS_10DoFHandlerILi3ELi3EEEE23ExcInvalidNumberOfNamesE, ptr @_ZTIN6dealii13ExceptionBaseE }, comdat, align 8
@_ZTSN6dealii12DataOutStackILi3ELi3ENS_10DoFHandlerILi3ELi3EEEE20ExcVectorNotDeclaredE = weak_odr dso_local constant [82 x i8] c"N6dealii12DataOutStackILi3ELi3ENS_10DoFHandlerILi3ELi3EEEE20ExcVectorNotDeclaredE\00", comdat, align 1
@_ZTIN6dealii12DataOutStackILi3ELi3ENS_10DoFHandlerILi3ELi3EEEE20ExcVectorNotDeclaredE = weak_odr dso_local constant { ptr, ptr, ptr } { ptr getelementptr inbounds (ptr, ptr @_ZTVN10__cxxabiv120__si_class_type_infoE, i64 2), ptr @_ZTSN6dealii12DataOutStackILi3ELi3ENS_10DoFHandlerILi3ELi3EEEE20ExcVectorNotDeclaredE, ptr @_ZTIN6dealii13ExceptionBaseE }, comdat, align 8
@_ZTVN6dealii12DataOutStackILi3ELi3ENS_10DoFHandlerILi3ELi3EEEE17ExcDataNotClearedE = weak_odr dso_local unnamed_addr constant { [6 x ptr] } { [6 x ptr] [ptr null, ptr @_ZTIN6dealii12DataOutStackILi3ELi3ENS_10DoFHandlerILi3ELi3EEEE17ExcDataNotClearedE, ptr @_ZN6dealii13ExceptionBaseD2Ev, ptr @_ZN6dealii12DataOutStackILi3ELi3ENS_10DoFHandlerILi3ELi3EEEE17ExcDataNotClearedD0Ev, ptr @_ZNK6dealii13ExceptionBase4whatEv, ptr @_ZNK6dealii13ExceptionBase10print_infoERSo] }, comdat, align 8
@_ZTSN6dealii12DataOutStackILi3ELi3ENS_10DoFHandlerILi3ELi3EEEE17ExcDataNotClearedE = weak_odr dso_local constant [79 x i8] c"N6dealii12DataOutStackILi3ELi3ENS_10DoFHandlerILi3ELi3EEEE17ExcDataNotClearedE\00", comdat, align 1
@_ZTIN6dealii12DataOutStackILi3ELi3ENS_10DoFHandlerILi3ELi3EEEE17ExcDataNotClearedE = weak_odr dso_local constant { ptr, ptr, ptr } { ptr getelementptr inbounds (ptr, ptr @_ZTVN10__cxxabiv120__si_class_type_infoE, i64 2), ptr @_ZTSN6dealii12DataOutStackILi3ELi3ENS_10DoFHandlerILi3ELi3EEEE17ExcDataNotClearedE, ptr @_ZTIN6dealii13ExceptionBaseE }, comdat, align 8
@_ZTVN6dealii12DataOutStackILi3ELi3ENS_10DoFHandlerILi3ELi3EEEE19ExcDataAlreadyAddedE = weak_odr dso_local unnamed_addr constant { [6 x ptr] } { [6 x ptr] [ptr null, ptr @_ZTIN6dealii12DataOutStackILi3ELi3ENS_10DoFHandlerILi3ELi3EEEE19ExcDataAlreadyAddedE, ptr @_ZN6dealii13ExceptionBaseD2Ev, ptr @_ZN6dealii12DataOutStackILi3ELi3ENS_10DoFHandlerILi3ELi3EEEE19ExcDataAlreadyAddedD0Ev, ptr @_ZNK6dealii13ExceptionBase4whatEv, ptr @_ZNK6dealii13ExceptionBase10print_infoERSo] }, comdat, align 8
@_ZTSN6dealii12DataOutStackILi3ELi3ENS_10DoFHandlerILi3ELi3EEEE19ExcDataAlreadyAddedE = weak_odr dso_local constant [81 x i8] c"N6dealii12DataOutStackILi3ELi3ENS_10DoFHandlerILi3ELi3EEEE19ExcDataAlreadyAddedE\00", comdat, align 1
@_ZTIN6dealii12DataOutStackILi3ELi3ENS_10DoFHandlerILi3ELi3EEEE19ExcDataAlreadyAddedE = weak_odr dso_local constant { ptr, ptr, ptr } { ptr getelementptr inbounds (ptr, ptr @_ZTVN10__cxxabiv120__si_class_type_infoE, i64 2), ptr @_ZTSN6dealii12DataOutStackILi3ELi3ENS_10DoFHandlerILi3ELi3EEEE19ExcDataAlreadyAddedE, ptr @_ZTIN6dealii13ExceptionBaseE }, comdat, align 8
@_ZTSN6dealii12DataOutStackILi3ELi3ENS_10DoFHandlerILi3ELi3EEEE18ExcNameAlreadyUsedE = weak_odr dso_local constant [80 x i8] c"N6dealii12DataOutStackILi3ELi3ENS_10DoFHandlerILi3ELi3EEEE18ExcNameAlreadyUsedE\00", comdat, align 1
@_ZTIN6dealii12DataOutStackILi3ELi3ENS_10DoFHandlerILi3ELi3EEEE18ExcNameAlreadyUsedE = weak_odr dso_local constant { ptr, ptr, ptr } { ptr getelementptr inbounds (ptr, ptr @_ZTVN10__cxxabiv120__si_class_type_infoE, i64 2), ptr @_ZTSN6dealii12DataOutStackILi3ELi3ENS_10DoFHandlerILi3ELi3EEEE18ExcNameAlreadyUsedE, ptr @_ZTIN6dealii13ExceptionBaseE }, comdat, align 8
@_ZTSN6dealii12DataOutStackILi3ELi3ENS_10DoFHandlerILi3ELi3EEEE30ExcInvalidNumberOfSubdivisionsE = weak_odr dso_local constant [92 x i8] c"N6dealii12DataOutStackILi3ELi3ENS_10DoFHandlerILi3ELi3EEEE30ExcInvalidNumberOfSubdivisionsE\00", comdat, align 1
@_ZTIN6dealii12DataOutStackILi3ELi3ENS_10DoFHandlerILi3ELi3EEEE30ExcInvalidNumberOfSubdivisionsE = weak_odr dso_local constant { ptr, ptr, ptr } { ptr getelementptr inbounds (ptr, ptr @_ZTVN10__cxxabiv120__si_class_type_infoE, i64 2), ptr @_ZTSN6dealii12DataOutStackILi3ELi3ENS_10DoFHandlerILi3ELi3EEEE30ExcInvalidNumberOfSubdivisionsE, ptr @_ZTIN6dealii13ExceptionBaseE }, comdat, align 8
@_ZTSN6dealii12DataOutStackILi3ELi3ENS_2hp10DoFHandlerILi3ELi3EEEEE = weak_odr dso_local constant [63 x i8] c"N6dealii12DataOutStackILi3ELi3ENS_2hp10DoFHandlerILi3ELi3EEEEE\00", comdat, align 1
@_ZTIN6dealii12DataOutStackILi3ELi3ENS_2hp10DoFHandlerILi3ELi3EEEEE = weak_odr dso_local constant { ptr, ptr, ptr } { ptr getelementptr inbounds (ptr, ptr @_ZTVN10__cxxabiv120__si_class_type_infoE, i64 2), ptr @_ZTSN6dealii12DataOutStackILi3ELi3ENS_2hp10DoFHandlerILi3ELi3EEEEE, ptr @_ZTIN6dealii16DataOutInterfaceILi4ELi4EEE }, comdat, align 8
@_ZTVN6dealii12DataOutStackILi3ELi3ENS_2hp10DoFHandlerILi3ELi3EEEE23ExcNoDoFHandlerSelectedE = weak_odr dso_local unnamed_addr constant { [6 x ptr] } { [6 x ptr] [ptr null, ptr @_ZTIN6dealii12DataOutStackILi3ELi3ENS_2hp10DoFHandlerILi3ELi3EEEE23ExcNoDoFHandlerSelectedE, ptr @_ZN6dealii13ExceptionBaseD2Ev, ptr @_ZN6dealii12DataOutStackILi3ELi3ENS_2hp10DoFHandlerILi3ELi3EEEE23ExcNoDoFHandlerSelectedD0Ev, ptr @_ZNK6dealii13ExceptionBase4whatEv, ptr @_ZNK6dealii13ExceptionBase10print_infoERSo] }, comdat, align 8
@_ZTSN6dealii12DataOutStackILi3ELi3ENS_2hp10DoFHandlerILi3ELi3EEEE23ExcNoDoFHandlerSelectedE = weak_odr dso_local constant [88 x i8] c"N6dealii12DataOutStackILi3ELi3ENS_2hp10DoFHandlerILi3ELi3EEEE23ExcNoDoFHandlerSelectedE\00", comdat, align 1
@_ZTIN6dealii12DataOutStackILi3ELi3ENS_2hp10DoFHandlerILi3ELi3EEEE23ExcNoDoFHandlerSelectedE = weak_odr dso_local constant { ptr, ptr, ptr } { ptr getelementptr inbounds (ptr, ptr @_ZTVN10__cxxabiv120__si_class_type_infoE, i64 2), ptr @_ZTSN6dealii12DataOutStackILi3ELi3ENS_2hp10DoFHandlerILi3ELi3EEEE23ExcNoDoFHandlerSelectedE, ptr @_ZTIN6dealii13ExceptionBaseE }, comdat, align 8
@_ZTSN6dealii12DataOutStackILi3ELi3ENS_2hp10DoFHandlerILi3ELi3EEEE20ExcInvalidVectorSizeE = weak_odr dso_local constant [85 x i8] c"N6dealii12DataOutStackILi3ELi3ENS_2hp10DoFHandlerILi3ELi3EEEE20ExcInvalidVectorSizeE\00", comdat, align 1
@_ZTIN6dealii12DataOutStackILi3ELi3ENS_2hp10DoFHandlerILi3ELi3EEEE20ExcInvalidVectorSizeE = weak_odr dso_local constant { ptr, ptr, ptr } { ptr getelementptr inbounds (ptr, ptr @_ZTVN10__cxxabiv120__si_class_type_infoE, i64 2), ptr @_ZTSN6dealii12DataOutStackILi3ELi3ENS_2hp10DoFHandlerILi3ELi3EEEE20ExcInvalidVectorSizeE, ptr @_ZTIN6dealii13ExceptionBaseE }, comdat, align 8
@_ZTSN6dealii12DataOutStackILi3ELi3ENS_2hp10DoFHandlerILi3ELi3EEEE19ExcInvalidCharacterE = weak_odr dso_local constant [84 x i8] c"N6dealii12DataOutStackILi3ELi3ENS_2hp10DoFHandlerILi3ELi3EEEE19ExcInvalidCharacterE\00", comdat, align 1
@_ZTIN6dealii12DataOutStackILi3ELi3ENS_2hp10DoFHandlerILi3ELi3EEEE19ExcInvalidCharacterE = weak_odr dso_local constant { ptr, ptr, ptr } { ptr getelementptr inbounds (ptr, ptr @_ZTVN10__cxxabiv120__si_class_type_infoE, i64 2), ptr @_ZTSN6dealii12DataOutStackILi3ELi3ENS_2hp10DoFHandlerILi3ELi3EEEE19ExcInvalidCharacterE, ptr @_ZTIN6dealii13ExceptionBaseE }, comdat, align 8
@_ZTSN6dealii12DataOutStackILi3ELi3ENS_2hp10DoFHandlerILi3ELi3EEEE23ExcInvalidNumberOfNamesE = weak_odr dso_local constant [88 x i8] c"N6dealii12DataOutStackILi3ELi3ENS_2hp10DoFHandlerILi3ELi3EEEE23ExcInvalidNumberOfNamesE\00", comdat, align 1
@_ZTIN6dealii12DataOutStackILi3ELi3ENS_2hp10DoFHandlerILi3ELi3EEEE23ExcInvalidNumberOfNamesE = weak_odr dso_local constant { ptr, ptr, ptr } { ptr getelementptr inbounds (ptr, ptr @_ZTVN10__cxxabiv120__si_class_type_infoE, i64 2), ptr @_ZTSN6dealii12DataOutStackILi3ELi3ENS_2hp10DoFHandlerILi3ELi3EEEE23ExcInvalidNumberOfNamesE, ptr @_ZTIN6dealii13ExceptionBaseE }, comdat, align 8
@_ZTSN6dealii12DataOutStackILi3ELi3ENS_2hp10DoFHandlerILi3ELi3EEEE20ExcVectorNotDeclaredE = weak_odr dso_local constant [85 x i8] c"N6dealii12DataOutStackILi3ELi3ENS_2hp10DoFHandlerILi3ELi3EEEE20ExcVectorNotDeclaredE\00", comdat, align 1
@_ZTIN6dealii12DataOutStackILi3ELi3ENS_2hp10DoFHandlerILi3ELi3EEEE20ExcVectorNotDeclaredE = weak_odr dso_local constant { ptr, ptr, ptr } { ptr getelementptr inbounds (ptr, ptr @_ZTVN10__cxxabiv120__si_class_type_infoE, i64 2), ptr @_ZTSN6dealii12DataOutStackILi3ELi3ENS_2hp10DoFHandlerILi3ELi3EEEE20ExcVectorNotDeclaredE, ptr @_ZTIN6dealii13ExceptionBaseE }, comdat, align 8
@_ZTVN6dealii12DataOutStackILi3ELi3ENS_2hp10DoFHandlerILi3ELi3EEEE17ExcDataNotClearedE = weak_odr dso_local unnamed_addr constant { [6 x ptr] } { [6 x ptr] [ptr null, ptr @_ZTIN6dealii12DataOutStackILi3ELi3ENS_2hp10DoFHandlerILi3ELi3EEEE17ExcDataNotClearedE, ptr @_ZN6dealii13ExceptionBaseD2Ev, ptr @_ZN6dealii12DataOutStackILi3ELi3ENS_2hp10DoFHandlerILi3ELi3EEEE17ExcDataNotClearedD0Ev, ptr @_ZNK6dealii13ExceptionBase4whatEv, ptr @_ZNK6dealii13ExceptionBase10print_infoERSo] }, comdat, align 8
@_ZTSN6dealii12DataOutStackILi3ELi3ENS_2hp10DoFHandlerILi3ELi3EEEE17ExcDataNotClearedE = weak_odr dso_local constant [82 x i8] c"N6dealii12DataOutStackILi3ELi3ENS_2hp10DoFHandlerILi3ELi3EEEE17ExcDataNotClearedE\00", comdat, align 1
@_ZTIN6dealii12DataOutStackILi3ELi3ENS_2hp10DoFHandlerILi3ELi3EEEE17ExcDataNotClearedE = weak_odr dso_local constant { ptr, ptr, ptr } { ptr getelementptr inbounds (ptr, ptr @_ZTVN10__cxxabiv120__si_class_type_infoE, i64 2), ptr @_ZTSN6dealii12DataOutStackILi3ELi3ENS_2hp10DoFHandlerILi3ELi3EEEE17ExcDataNotClearedE, ptr @_ZTIN6dealii13ExceptionBaseE }, comdat, align 8
@_ZTVN6dealii12DataOutStackILi3ELi3ENS_2hp10DoFHandlerILi3ELi3EEEE19ExcDataAlreadyAddedE = weak_odr dso_local unnamed_addr constant { [6 x ptr] } { [6 x ptr] [ptr null, ptr @_ZTIN6dealii12DataOutStackILi3ELi3ENS_2hp10DoFHandlerILi3ELi3EEEE19ExcDataAlreadyAddedE, ptr @_ZN6dealii13ExceptionBaseD2Ev, ptr @_ZN6dealii12DataOutStackILi3ELi3ENS_2hp10DoFHandlerILi3ELi3EEEE19ExcDataAlreadyAddedD0Ev, ptr @_ZNK6dealii13ExceptionBase4whatEv, ptr @_ZNK6dealii13ExceptionBase10print_infoERSo] }, comdat, align 8
@_ZTSN6dealii12DataOutStackILi3ELi3ENS_2hp10DoFHandlerILi3ELi3EEEE19ExcDataAlreadyAddedE = weak_odr dso_local constant [84 x i8] c"N6dealii12DataOutStackILi3ELi3ENS_2hp10DoFHandlerILi3ELi3EEEE19ExcDataAlreadyAddedE\00", comdat, align 1
@_ZTIN6dealii12DataOutStackILi3ELi3ENS_2hp10DoFHandlerILi3ELi3EEEE19ExcDataAlreadyAddedE = weak_odr dso_local constant { ptr, ptr, ptr } { ptr getelementptr inbounds (ptr, ptr @_ZTVN10__cxxabiv120__si_class_type_infoE, i64 2), ptr @_ZTSN6dealii12DataOutStackILi3ELi3ENS_2hp10DoFHandlerILi3ELi3EEEE19ExcDataAlreadyAddedE, ptr @_ZTIN6dealii13ExceptionBaseE }, comdat, align 8
@_ZTSN6dealii12DataOutStackILi3ELi3ENS_2hp10DoFHandlerILi3ELi3EEEE18ExcNameAlreadyUsedE = weak_odr dso_local constant [83 x i8] c"N6dealii12DataOutStackILi3ELi3ENS_2hp10DoFHandlerILi3ELi3EEEE18ExcNameAlreadyUsedE\00", comdat, align 1
@_ZTIN6dealii12DataOutStackILi3ELi3ENS_2hp10DoFHandlerILi3ELi3EEEE18ExcNameAlreadyUsedE = weak_odr dso_local constant { ptr, ptr, ptr } { ptr getelementptr inbounds (ptr, ptr @_ZTVN10__cxxabiv120__si_class_type_infoE, i64 2), ptr @_ZTSN6dealii12DataOutStackILi3ELi3ENS_2hp10DoFHandlerILi3ELi3EEEE18ExcNameAlreadyUsedE, ptr @_ZTIN6dealii13ExceptionBaseE }, comdat, align 8
@_ZTSN6dealii12DataOutStackILi3ELi3ENS_2hp10DoFHandlerILi3ELi3EEEE30ExcInvalidNumberOfSubdivisionsE = weak_odr dso_local constant [95 x i8] c"N6dealii12DataOutStackILi3ELi3ENS_2hp10DoFHandlerILi3ELi3EEEE30ExcInvalidNumberOfSubdivisionsE\00", comdat, align 1
@_ZTIN6dealii12DataOutStackILi3ELi3ENS_2hp10DoFHandlerILi3ELi3EEEE30ExcInvalidNumberOfSubdivisionsE = weak_odr dso_local constant { ptr, ptr, ptr } { ptr getelementptr inbounds (ptr, ptr @_ZTVN10__cxxabiv120__si_class_type_infoE, i64 2), ptr @_ZTSN6dealii12DataOutStackILi3ELi3ENS_2hp10DoFHandlerILi3ELi3EEEE30ExcInvalidNumberOfSubdivisionsE, ptr @_ZTIN6dealii13ExceptionBaseE }, comdat, align 8
@_ZTVN6dealii6VectorIdEE = linkonce_odr dso_local unnamed_addr constant { [6 x ptr] } { [6 x ptr] [ptr null, ptr @_ZTIN6dealii6VectorIdEE, ptr @_ZN6dealii6VectorIdED2Ev, ptr @_ZN6dealii6VectorIdED0Ev, ptr @_ZN6dealii6VectorIdE6reinitEjb, ptr @_ZN6dealii6VectorIdE4swapERS1_] }, comdat, align 8
@_ZTSN6dealii6VectorIdEE = linkonce_odr dso_local constant [20 x i8] c"N6dealii6VectorIdEE\00", comdat, align 1
@_ZTIN6dealii11SubscriptorE = external constant ptr
@_ZTIN6dealii6VectorIdEE = linkonce_odr dso_local constant { ptr, ptr, ptr } { ptr getelementptr inbounds (ptr, ptr @_ZTVN10__cxxabiv120__si_class_type_infoE, i64 2), ptr @_ZTSN6dealii6VectorIdEE, ptr @_ZTIN6dealii11SubscriptorE }, comdat, align 8
@_ZTVN6dealii9TableBaseILi2EfEE = linkonce_odr dso_local unnamed_addr constant { [4 x ptr] } { [4 x ptr] [ptr null, ptr @_ZTIN6dealii9TableBaseILi2EfEE, ptr @_ZN6dealii9TableBaseILi2EfED2Ev, ptr @_ZN6dealii9TableBaseILi2EfED0Ev] }, comdat, align 8
@_ZTSN6dealii9TableBaseILi2EfEE = linkonce_odr dso_local constant [27 x i8] c"N6dealii9TableBaseILi2EfEE\00", comdat, align 1
@_ZTIN6dealii9TableBaseILi2EfEE = linkonce_odr dso_local constant { ptr, ptr, ptr } { ptr getelementptr inbounds (ptr, ptr @_ZTVN10__cxxabiv120__si_class_type_infoE, i64 2), ptr @_ZTSN6dealii9TableBaseILi2EfEE, ptr @_ZTIN6dealii11SubscriptorE }, comdat, align 8
@_ZTVN6dealii9TableBaseILi3EN5boost10shared_ptrINS_8FEValuesILi3ELi3EEEEEEE = linkonce_odr dso_local unnamed_addr constant { [4 x ptr] } { [4 x ptr] [ptr null, ptr @_ZTIN6dealii9TableBaseILi3EN5boost10shared_ptrINS_8FEValuesILi3ELi3EEEEEEE, ptr @_ZN6dealii9TableBaseILi3EN5boost10shared_ptrINS_8FEValuesILi3ELi3EEEEEED2Ev, ptr @_ZN6dealii9TableBaseILi3EN5boost10shared_ptrINS_8FEValuesILi3ELi3EEEEEED0Ev] }, comdat, align 8
@_ZTSN6dealii9TableBaseILi3EN5boost10shared_ptrINS_8FEValuesILi3ELi3EEEEEEE = linkonce_odr dso_local constant [71 x i8] c"N6dealii9TableBaseILi3EN5boost10shared_ptrINS_8FEValuesILi3ELi3EEEEEEE\00", comdat, align 1
@_ZTIN6dealii9TableBaseILi3EN5boost10shared_ptrINS_8FEValuesILi3ELi3EEEEEEE = linkonce_odr dso_local constant { ptr, ptr, ptr } { ptr getelementptr inbounds (ptr, ptr @_ZTVN10__cxxabiv120__si_class_type_infoE, i64 2), ptr @_ZTSN6dealii9TableBaseILi3EN5boost10shared_ptrINS_8FEValuesILi3ELi3EEEEEEE, ptr @_ZTIN6dealii11SubscriptorE }, comdat, align 8
@_ZTVN6dealii2hp12FECollectionILi3ELi3EEE = linkonce_odr dso_local unnamed_addr constant { [4 x ptr] } { [4 x ptr] [ptr null, ptr @_ZTIN6dealii2hp12FECollectionILi3ELi3EEE, ptr @_ZN6dealii2hp12FECollectionILi3ELi3EED2Ev, ptr @_ZN6dealii2hp12FECollectionILi3ELi3EED0Ev] }, comdat, align 8
@_ZTSN6dealii2hp12FECollectionILi3ELi3EEE = linkonce_odr dso_local constant [37 x i8] c"N6dealii2hp12FECollectionILi3ELi3EEE\00", comdat, align 1
@_ZTIN6dealii2hp12FECollectionILi3ELi3EEE = linkonce_odr dso_local constant { ptr, ptr, ptr } { ptr getelementptr inbounds (ptr, ptr @_ZTVN10__cxxabiv120__si_class_type_infoE, i64 2), ptr @_ZTSN6dealii2hp12FECollectionILi3ELi3EEE, ptr @_ZTIN6dealii11SubscriptorE }, comdat, align 8
@_ZTVN6dealii2hp11QCollectionILi3EEE = linkonce_odr dso_local unnamed_addr constant { [4 x ptr] } { [4 x ptr] [ptr null, ptr @_ZTIN6dealii2hp11QCollectionILi3EEE, ptr @_ZN6dealii2hp11QCollectionILi3EED2Ev, ptr @_ZN6dealii2hp11QCollectionILi3EED0Ev] }, comdat, align 8
@_ZTSN6dealii2hp11QCollectionILi3EEE = linkonce_odr dso_local constant [32 x i8] c"N6dealii2hp11QCollectionILi3EEE\00", comdat, align 1
@_ZTIN6dealii2hp11QCollectionILi3EEE = linkonce_odr dso_local constant { ptr, ptr, ptr } { ptr getelementptr inbounds (ptr, ptr @_ZTVN10__cxxabiv120__si_class_type_infoE, i64 2), ptr @_ZTSN6dealii2hp11QCollectionILi3EEE, ptr @_ZTIN6dealii11SubscriptorE }, comdat, align 8
@.str.27 = private unnamed_addr constant [26 x i8] c"vector::_M_realloc_insert\00", align 1
@_ZTVN5boost6detail17sp_counted_impl_pIN6dealii10QuadratureILi3EEEEE = linkonce_odr dso_local unnamed_addr constant { [7 x ptr] } { [7 x ptr] [ptr null, ptr @_ZTIN5boost6detail17sp_counted_impl_pIN6dealii10QuadratureILi3EEEEE, ptr @_ZN5boost6detail15sp_counted_baseD2Ev, ptr @_ZN5boost6detail17sp_counted_impl_pIN6dealii10QuadratureILi3EEEED0Ev, ptr @_ZN5boost6detail17sp_counted_impl_pIN6dealii10QuadratureILi3EEEE7disposeEv, ptr @_ZN5boost6detail15sp_counted_base7destroyEv, ptr @_ZN5boost6detail17sp_counted_impl_pIN6dealii10QuadratureILi3EEEE11get_deleterERKSt9type_info] }, comdat, align 8
@_ZTSN5boost6detail17sp_counted_impl_pIN6dealii10QuadratureILi3EEEEE = linkonce_odr dso_local constant [64 x i8] c"N5boost6detail17sp_counted_impl_pIN6dealii10QuadratureILi3EEEEE\00", comdat, align 1
@_ZTSN5boost6detail15sp_counted_baseE = linkonce_odr dso_local constant [33 x i8] c"N5boost6detail15sp_counted_baseE\00", comdat, align 1
@_ZTIN5boost6detail15sp_counted_baseE = linkonce_odr dso_local constant { ptr, ptr } { ptr getelementptr inbounds (ptr, ptr @_ZTVN10__cxxabiv117__class_type_infoE, i64 2), ptr @_ZTSN5boost6detail15sp_counted_baseE }, comdat, align 8
@_ZTIN5boost6detail17sp_counted_impl_pIN6dealii10QuadratureILi3EEEEE = linkonce_odr dso_local constant { ptr, ptr, ptr } { ptr getelementptr inbounds (ptr, ptr @_ZTVN10__cxxabiv120__si_class_type_infoE, i64 2), ptr @_ZTSN5boost6detail17sp_counted_impl_pIN6dealii10QuadratureILi3EEEEE, ptr @_ZTIN5boost6detail15sp_counted_baseE }, comdat, align 8
@.str.28 = private unnamed_addr constant [49 x i8] c"cannot create std::vector larger than max_size()\00", align 1
@.str.29 = private unnamed_addr constant [23 x i8] c"vector::_M_fill_insert\00", align 1
@_ZTVN6dealii5TableILi2EfEE = linkonce_odr dso_local unnamed_addr constant { [4 x ptr] } { [4 x ptr] [ptr null, ptr @_ZTIN6dealii5TableILi2EfEE, ptr @_ZN6dealii9TableBaseILi2EfED2Ev, ptr @_ZN6dealii5TableILi2EfED0Ev] }, comdat, align 8
@_ZTSN6dealii5TableILi2EfEE = linkonce_odr dso_local constant [23 x i8] c"N6dealii5TableILi2EfEE\00", comdat, align 1
@_ZTIN6dealii5TableILi2EfEE = linkonce_odr dso_local constant { ptr, ptr, ptr } { ptr getelementptr inbounds (ptr, ptr @_ZTVN10__cxxabiv120__si_class_type_infoE, i64 2), ptr @_ZTSN6dealii5TableILi2EfEE, ptr @_ZTIN6dealii9TableBaseILi2EfEE }, comdat, align 8
@.str.30 = private unnamed_addr constant [24 x i8] c"vector::_M_range_insert\00", align 1
@_ZTTNSt7__cxx1119basic_ostringstreamIcSt11char_traitsIcESaIcEEE = external unnamed_addr constant [4 x ptr], align 8
@_ZTVNSt7__cxx1115basic_stringbufIcSt11char_traitsIcESaIcEEE = external unnamed_addr constant { [16 x ptr] }, align 8
@_ZTVSt15basic_streambufIcSt11char_traitsIcEE = external unnamed_addr constant { [16 x ptr] }, align 8
@.str.33 = private unnamed_addr constant [21 x i8] c"basic_string::append\00", align 1
@llvm.global_ctors = appending global [0 x { i32, ptr, ptr }] zeroinitializer

@_ZN6dealii12DataOutStackILi3ELi3ENS_10DoFHandlerILi3ELi3EEEED1Ev = weak_odr dso_local unnamed_addr alias void (ptr), ptr @_ZN6dealii12DataOutStackILi3ELi3ENS_10DoFHandlerILi3ELi3EEEED2Ev
@_ZN6dealii12DataOutStackILi3ELi3ENS_10DoFHandlerILi3ELi3EEEE20ExcInvalidVectorSizeC1Eiii = weak_odr dso_local unnamed_addr alias void (ptr, i32, i32, i32), ptr @_ZN6dealii12DataOutStackILi3ELi3ENS_10DoFHandlerILi3ELi3EEEE20ExcInvalidVectorSizeC2Eiii
@_ZN6dealii12DataOutStackILi3ELi3ENS_10DoFHandlerILi3ELi3EEEE20ExcInvalidVectorSizeD1Ev = weak_odr dso_local unnamed_addr alias void (ptr), ptr @_ZN6dealii12DataOutStackILi3ELi3ENS_10DoFHandlerILi3ELi3EEEE20ExcInvalidVectorSizeD2Ev
@_ZN6dealii12DataOutStackILi3ELi3ENS_10DoFHandlerILi3ELi3EEEE19ExcInvalidCharacterC1ENSt7__cxx1112basic_stringIcSt11char_traitsIcESaIcEEEm = weak_odr dso_local unnamed_addr alias void (ptr, ptr, i64), ptr @_ZN6dealii12DataOutStackILi3ELi3ENS_10DoFHandlerILi3ELi3EEEE19ExcInvalidCharacterC2ENSt7__cxx1112basic_stringIcSt11char_traitsIcESaIcEEEm
@_ZN6dealii12DataOutStackILi3ELi3ENS_10DoFHandlerILi3ELi3EEEE19ExcInvalidCharacterD1Ev = weak_odr dso_local unnamed_addr alias void (ptr), ptr @_ZN6dealii12DataOutStackILi3ELi3ENS_10DoFHandlerILi3ELi3EEEE19ExcInvalidCharacterD2Ev
@_ZN6dealii12DataOutStackILi3ELi3ENS_10DoFHandlerILi3ELi3EEEE23ExcInvalidNumberOfNamesC1Eii = weak_odr dso_local unnamed_addr alias void (ptr, i32, i32), ptr @_ZN6dealii12DataOutStackILi3ELi3ENS_10DoFHandlerILi3ELi3EEEE23ExcInvalidNumberOfNamesC2Eii
@_ZN6dealii12DataOutStackILi3ELi3ENS_10DoFHandlerILi3ELi3EEEE23ExcInvalidNumberOfNamesD1Ev = weak_odr dso_local unnamed_addr alias void (ptr), ptr @_ZN6dealii12DataOutStackILi3ELi3ENS_10DoFHandlerILi3ELi3EEEE23ExcInvalidNumberOfNamesD2Ev
@_ZN6dealii12DataOutStackILi3ELi3ENS_10DoFHandlerILi3ELi3EEEE20ExcVectorNotDeclaredC1ENSt7__cxx1112basic_stringIcSt11char_traitsIcESaIcEEE = weak_odr dso_local unnamed_addr alias void (ptr, ptr), ptr @_ZN6dealii12DataOutStackILi3ELi3ENS_10DoFHandlerILi3ELi3EEEE20ExcVectorNotDeclaredC2ENSt7__cxx1112basic_stringIcSt11char_traitsIcESaIcEEE
@_ZN6dealii12DataOutStackILi3ELi3ENS_10DoFHandlerILi3ELi3EEEE20ExcVectorNotDeclaredD1Ev = weak_odr dso_local unnamed_addr alias void (ptr), ptr @_ZN6dealii12DataOutStackILi3ELi3ENS_10DoFHandlerILi3ELi3EEEE20ExcVectorNotDeclaredD2Ev
@_ZN6dealii12DataOutStackILi3ELi3ENS_10DoFHandlerILi3ELi3EEEE18ExcNameAlreadyUsedC1ENSt7__cxx1112basic_stringIcSt11char_traitsIcESaIcEEE = weak_odr dso_local unnamed_addr alias void (ptr, ptr), ptr @_ZN6dealii12DataOutStackILi3ELi3ENS_10DoFHandlerILi3ELi3EEEE18ExcNameAlreadyUsedC2ENSt7__cxx1112basic_stringIcSt11char_traitsIcESaIcEEE
@_ZN6dealii12DataOutStackILi3ELi3ENS_10DoFHandlerILi3ELi3EEEE18ExcNameAlreadyUsedD1Ev = weak_odr dso_local unnamed_addr alias void (ptr), ptr @_ZN6dealii12DataOutStackILi3ELi3ENS_10DoFHandlerILi3ELi3EEEE18ExcNameAlreadyUsedD2Ev
@_ZN6dealii12DataOutStackILi3ELi3ENS_10DoFHandlerILi3ELi3EEEE30ExcInvalidNumberOfSubdivisionsC1Ei = weak_odr dso_local unnamed_addr alias void (ptr, i32), ptr @_ZN6dealii12DataOutStackILi3ELi3ENS_10DoFHandlerILi3ELi3EEEE30ExcInvalidNumberOfSubdivisionsC2Ei
@_ZN6dealii12DataOutStackILi3ELi3ENS_10DoFHandlerILi3ELi3EEEE30ExcInvalidNumberOfSubdivisionsD1Ev = weak_odr dso_local unnamed_addr alias void (ptr), ptr @_ZN6dealii12DataOutStackILi3ELi3ENS_10DoFHandlerILi3ELi3EEEE30ExcInvalidNumberOfSubdivisionsD2Ev
@_ZN6dealii12DataOutStackILi3ELi3ENS_2hp10DoFHandlerILi3ELi3EEEED1Ev = weak_odr dso_local unnamed_addr alias void (ptr), ptr @_ZN6dealii12DataOutStackILi3ELi3ENS_2hp10DoFHandlerILi3ELi3EEEED2Ev
@_ZN6dealii12DataOutStackILi3ELi3ENS_2hp10DoFHandlerILi3ELi3EEEE20ExcInvalidVectorSizeC1Eiii = weak_odr dso_local unnamed_addr alias void (ptr, i32, i32, i32), ptr @_ZN6dealii12DataOutStackILi3ELi3ENS_2hp10DoFHandlerILi3ELi3EEEE20ExcInvalidVectorSizeC2Eiii
@_ZN6dealii12DataOutStackILi3ELi3ENS_2hp10DoFHandlerILi3ELi3EEEE20ExcInvalidVectorSizeD1Ev = weak_odr dso_local unnamed_addr alias void (ptr), ptr @_ZN6dealii12DataOutStackILi3ELi3ENS_2hp10DoFHandlerILi3ELi3EEEE20ExcInvalidVectorSizeD2Ev
@_ZN6dealii12DataOutStackILi3ELi3ENS_2hp10DoFHandlerILi3ELi3EEEE19ExcInvalidCharacterC1ENSt7__cxx1112basic_stringIcSt11char_traitsIcESaIcEEEm = weak_odr dso_local unnamed_addr alias void (ptr, ptr, i64), ptr @_ZN6dealii12DataOutStackILi3ELi3ENS_2hp10DoFHandlerILi3ELi3EEEE19ExcInvalidCharacterC2ENSt7__cxx1112basic_stringIcSt11char_traitsIcESaIcEEEm
@_ZN6dealii12DataOutStackILi3ELi3ENS_2hp10DoFHandlerILi3ELi3EEEE19ExcInvalidCharacterD1Ev = weak_odr dso_local unnamed_addr alias void (ptr), ptr @_ZN6dealii12DataOutStackILi3ELi3ENS_2hp10DoFHandlerILi3ELi3EEEE19ExcInvalidCharacterD2Ev
@_ZN6dealii12DataOutStackILi3ELi3ENS_2hp10DoFHandlerILi3ELi3EEEE23ExcInvalidNumberOfNamesC1Eii = weak_odr dso_local unnamed_addr alias void (ptr, i32, i32), ptr @_ZN6dealii12DataOutStackILi3ELi3ENS_2hp10DoFHandlerILi3ELi3EEEE23ExcInvalidNumberOfNamesC2Eii
@_ZN6dealii12DataOutStackILi3ELi3ENS_2hp10DoFHandlerILi3ELi3EEEE23ExcInvalidNumberOfNamesD1Ev = weak_odr dso_local unnamed_addr alias void (ptr), ptr @_ZN6dealii12DataOutStackILi3ELi3ENS_2hp10DoFHandlerILi3ELi3EEEE23ExcInvalidNumberOfNamesD2Ev
@_ZN6dealii12DataOutStackILi3ELi3ENS_2hp10DoFHandlerILi3ELi3EEEE20ExcVectorNotDeclaredC1ENSt7__cxx1112basic_stringIcSt11char_traitsIcESaIcEEE = weak_odr dso_local unnamed_addr alias void (ptr, ptr), ptr @_ZN6dealii12DataOutStackILi3ELi3ENS_2hp10DoFHandlerILi3ELi3EEEE20ExcVectorNotDeclaredC2ENSt7__cxx1112basic_stringIcSt11char_traitsIcESaIcEEE
@_ZN6dealii12DataOutStackILi3ELi3ENS_2hp10DoFHandlerILi3ELi3EEEE20ExcVectorNotDeclaredD1Ev = weak_odr dso_local unnamed_addr alias void (ptr), ptr @_ZN6dealii12DataOutStackILi3ELi3ENS_2hp10DoFHandlerILi3ELi3EEEE20ExcVectorNotDeclaredD2Ev
@_ZN6dealii12DataOutStackILi3ELi3ENS_2hp10DoFHandlerILi3ELi3EEEE18ExcNameAlreadyUsedC1ENSt7__cxx1112basic_stringIcSt11char_traitsIcESaIcEEE = weak_odr dso_local unnamed_addr alias void (ptr, ptr), ptr @_ZN6dealii12DataOutStackILi3ELi3ENS_2hp10DoFHandlerILi3ELi3EEEE18ExcNameAlreadyUsedC2ENSt7__cxx1112basic_stringIcSt11char_traitsIcESaIcEEE
@_ZN6dealii12DataOutStackILi3ELi3ENS_2hp10DoFHandlerILi3ELi3EEEE18ExcNameAlreadyUsedD1Ev = weak_odr dso_local unnamed_addr alias void (ptr), ptr @_ZN6dealii12DataOutStackILi3ELi3ENS_2hp10DoFHandlerILi3ELi3EEEE18ExcNameAlreadyUsedD2Ev
@_ZN6dealii12DataOutStackILi3ELi3ENS_2hp10DoFHandlerILi3ELi3EEEE30ExcInvalidNumberOfSubdivisionsC1Ei = weak_odr dso_local unnamed_addr alias void (ptr, i32), ptr @_ZN6dealii12DataOutStackILi3ELi3ENS_2hp10DoFHandlerILi3ELi3EEEE30ExcInvalidNumberOfSubdivisionsC2Ei
@_ZN6dealii12DataOutStackILi3ELi3ENS_2hp10DoFHandlerILi3ELi3EEEE30ExcInvalidNumberOfSubdivisionsD1Ev = weak_odr dso_local unnamed_addr alias void (ptr), ptr @_ZN6dealii12DataOutStackILi3ELi3ENS_2hp10DoFHandlerILi3ELi3EEEE30ExcInvalidNumberOfSubdivisionsD2Ev

; Function Attrs: sspstrong uwtable
define weak_odr dso_local void @_ZN6dealii12DataOutStackILi3ELi3ENS_10DoFHandlerILi3ELi3EEEED2Ev(ptr noundef nonnull align 8 dereferenceable(232) %0) unnamed_addr #0 comdat($_ZN6dealii12DataOutStackILi3ELi3ENS_10DoFHandlerILi3ELi3EEEED5Ev) align 2 personality ptr @__gxx_personality_v0 {
  store ptr getelementptr inbounds ({ [7 x ptr] }, ptr @_ZTVN6dealii12DataOutStackILi3ELi3ENS_10DoFHandlerILi3ELi3EEEEE, i64 0, inrange i32 0, i64 2), ptr %0, align 8, !tbaa !5
  %2 = getelementptr inbounds %"class.dealii::DataOutStack", ptr %0, i64 0, i32 6
  invoke void @_ZNSt6vectorIN6dealii12DataOutStackILi3ELi3ENS0_10DoFHandlerILi3ELi3EEEE10DataVectorESaIS5_EED2Ev(ptr noundef nonnull align 8 dereferenceable(24) %2)
          to label %3 unwind label %34

3:                                                ; preds = %1
  %4 = getelementptr inbounds %"class.dealii::DataOutStack", ptr %0, i64 0, i32 5
  invoke void @_ZNSt6vectorIN6dealii12DataOutStackILi3ELi3ENS0_10DoFHandlerILi3ELi3EEEE10DataVectorESaIS5_EED2Ev(ptr noundef nonnull align 8 dereferenceable(24) %4)
          to label %5 unwind label %37

5:                                                ; preds = %3
  %6 = getelementptr inbounds %"class.dealii::DataOutStack", ptr %0, i64 0, i32 4
  %7 = load ptr, ptr %6, align 8, !tbaa !8
  %8 = getelementptr inbounds %"class.dealii::DataOutStack", ptr %0, i64 0, i32 4, i32 0, i32 0, i32 0, i32 1
  %9 = load ptr, ptr %8, align 8, !tbaa !12
  %10 = icmp eq ptr %7, %9
  br i1 %10, label %24, label %11

11:                                               ; preds = %5, %19
  %12 = phi ptr [ %20, %19 ], [ %7, %5 ]
  %13 = getelementptr inbounds %"struct.dealii::DataOutBase::Patch", ptr %12, i64 0, i32 4
  store ptr getelementptr inbounds ({ [4 x ptr] }, ptr @_ZTVN6dealii9TableBaseILi2EfEE, i64 0, inrange i32 0, i64 2), ptr %13, align 8, !tbaa !5
  %14 = getelementptr inbounds %"struct.dealii::DataOutBase::Patch", ptr %12, i64 0, i32 4, i32 0, i32 1
  %15 = load ptr, ptr %14, align 8, !tbaa !13
  %16 = icmp eq ptr %15, null
  br i1 %16, label %18, label %17

17:                                               ; preds = %11
  tail call void @_ZdaPv(ptr noundef nonnull %15) #16
  br label %18

18:                                               ; preds = %17, %11
  invoke void @_ZN6dealii11SubscriptorD2Ev(ptr noundef nonnull align 8 dereferenceable(72) %13)
          to label %19 unwind label %28

19:                                               ; preds = %18
  %20 = getelementptr inbounds %"struct.dealii::DataOutBase::Patch", ptr %12, i64 1
  %21 = icmp eq ptr %20, %9
  br i1 %21, label %22, label %11

22:                                               ; preds = %19
  %23 = load ptr, ptr %6, align 8, !tbaa !8
  br label %24

24:                                               ; preds = %22, %5
  %25 = phi ptr [ %23, %22 ], [ %7, %5 ]
  %26 = icmp eq ptr %25, null
  br i1 %26, label %33, label %27

27:                                               ; preds = %24
  tail call void @_ZdlPv(ptr noundef nonnull %25) #16
  br label %33

28:                                               ; preds = %18
  %29 = landingpad { ptr, i32 }
          cleanup
  %30 = load ptr, ptr %6, align 8, !tbaa !8
  %31 = icmp eq ptr %30, null
  br i1 %31, label %42, label %32

32:                                               ; preds = %28
  tail call void @_ZdlPv(ptr noundef nonnull %30) #16
  br label %42

33:                                               ; preds = %27, %24
  tail call void @_ZN6dealii16DataOutInterfaceILi4ELi4EED2Ev(ptr noundef nonnull align 8 dereferenceable(128) %0)
  ret void

34:                                               ; preds = %1
  %35 = landingpad { ptr, i32 }
          cleanup
  %36 = getelementptr inbounds %"class.dealii::DataOutStack", ptr %0, i64 0, i32 5
  invoke void @_ZNSt6vectorIN6dealii12DataOutStackILi3ELi3ENS0_10DoFHandlerILi3ELi3EEEE10DataVectorESaIS5_EED2Ev(ptr noundef nonnull align 8 dereferenceable(24) %36)
          to label %39 unwind label %45

37:                                               ; preds = %3
  %38 = landingpad { ptr, i32 }
          cleanup
  br label %39

39:                                               ; preds = %34, %37
  %40 = phi { ptr, i32 } [ %38, %37 ], [ %35, %34 ]
  %41 = getelementptr inbounds %"class.dealii::DataOutStack", ptr %0, i64 0, i32 4
  invoke void @_ZNSt6vectorIN6dealii11DataOutBase5PatchILi4ELi4EEESaIS3_EED2Ev(ptr noundef nonnull align 8 dereferenceable(24) %41)
          to label %42 unwind label %45

42:                                               ; preds = %32, %28, %39
  %43 = phi { ptr, i32 } [ %40, %39 ], [ %29, %32 ], [ %29, %28 ]
  invoke void @_ZN6dealii16DataOutInterfaceILi4ELi4EED2Ev(ptr noundef nonnull align 8 dereferenceable(128) %0)
          to label %44 unwind label %45

44:                                               ; preds = %42
  resume { ptr, i32 } %43

45:                                               ; preds = %42, %39, %34
  %46 = landingpad { ptr, i32 }
          catch ptr null
  %47 = extractvalue { ptr, i32 } %46, 0
  tail call void @__clang_call_terminate(ptr %47) #17
  unreachable
}

; Function Attrs: sspstrong uwtable
define linkonce_odr dso_local void @_ZNSt6vectorIN6dealii12DataOutStackILi3ELi3ENS0_10DoFHandlerILi3ELi3EEEE10DataVectorESaIS5_EED2Ev(ptr noundef nonnull align 8 dereferenceable(24) %0) unnamed_addr #0 comdat align 2 personality ptr @__gxx_personality_v0 {
  %2 = load ptr, ptr %0, align 8, !tbaa !28
  %3 = getelementptr inbounds %"struct.std::_Vector_base<dealii::DataOutStack<3, 3>::DataVector, std::allocator<dealii::DataOutStack<3, 3>::DataVector> >::_Vector_impl_data", ptr %0, i64 0, i32 1
  %4 = load ptr, ptr %3, align 8, !tbaa !30
  %5 = icmp eq ptr %2, %4
  br i1 %5, label %43, label %6

6:                                                ; preds = %1, %38
  %7 = phi ptr [ %39, %38 ], [ %2, %1 ]
  %8 = getelementptr inbounds %"struct.dealii::DataOutStack<3, 3>::DataVector", ptr %7, i64 0, i32 1
  %9 = load ptr, ptr %8, align 8, !tbaa !31
  %10 = getelementptr inbounds %"struct.dealii::DataOutStack<3, 3>::DataVector", ptr %7, i64 0, i32 1, i32 0, i32 0, i32 0, i32 1
  %11 = load ptr, ptr %10, align 8, !tbaa !33
  %12 = icmp eq ptr %9, %11
  br i1 %12, label %28, label %13

13:                                               ; preds = %6, %23
  %14 = phi ptr [ %24, %23 ], [ %9, %6 ]
  %15 = load ptr, ptr %14, align 8, !tbaa !34
  %16 = getelementptr inbounds %"class.std::__cxx11::basic_string", ptr %14, i64 0, i32 2
  %17 = icmp eq ptr %15, %16
  br i1 %17, label %18, label %22

18:                                               ; preds = %13
  %19 = getelementptr inbounds %"class.std::__cxx11::basic_string", ptr %14, i64 0, i32 1
  %20 = load i64, ptr %19, align 8, !tbaa !37
  %21 = icmp ult i64 %20, 16
  tail call void @llvm.assume(i1 %21)
  br label %23

22:                                               ; preds = %13
  tail call void @_ZdlPv(ptr noundef %15) #16
  br label %23

23:                                               ; preds = %22, %18
  %24 = getelementptr inbounds %"class.std::__cxx11::basic_string", ptr %14, i64 1
  %25 = icmp eq ptr %24, %11
  br i1 %25, label %26, label %13

26:                                               ; preds = %23
  %27 = load ptr, ptr %8, align 8, !tbaa !31
  br label %28

28:                                               ; preds = %26, %6
  %29 = phi ptr [ %27, %26 ], [ %9, %6 ]
  %30 = icmp eq ptr %29, null
  br i1 %30, label %32, label %31

31:                                               ; preds = %28
  tail call void @_ZdlPv(ptr noundef nonnull %29) #16
  br label %32

32:                                               ; preds = %31, %28
  store ptr getelementptr inbounds ({ [6 x ptr] }, ptr @_ZTVN6dealii6VectorIdEE, i64 0, inrange i32 0, i64 2), ptr %7, align 8, !tbaa !5
  %33 = getelementptr inbounds %"class.dealii::Vector", ptr %7, i64 0, i32 3
  %34 = load ptr, ptr %33, align 8, !tbaa !38
  %35 = icmp eq ptr %34, null
  br i1 %35, label %37, label %36

36:                                               ; preds = %32
  tail call void @_ZdaPv(ptr noundef nonnull %34) #16
  store ptr null, ptr %33, align 8, !tbaa !38
  br label %37

37:                                               ; preds = %36, %32
  invoke void @_ZN6dealii11SubscriptorD2Ev(ptr noundef nonnull align 8 dereferenceable(72) %7)
          to label %38 unwind label %48

38:                                               ; preds = %37
  %39 = getelementptr inbounds %"struct.dealii::DataOutStack<3, 3>::DataVector", ptr %7, i64 1
  %40 = icmp eq ptr %39, %4
  br i1 %40, label %41, label %6

41:                                               ; preds = %38
  %42 = load ptr, ptr %0, align 8, !tbaa !28
  br label %43

43:                                               ; preds = %41, %1
  %44 = phi ptr [ %42, %41 ], [ %2, %1 ]
  %45 = icmp eq ptr %44, null
  br i1 %45, label %47, label %46

46:                                               ; preds = %43
  tail call void @_ZdlPv(ptr noundef nonnull %44) #16
  br label %47

47:                                               ; preds = %43, %46
  ret void

48:                                               ; preds = %37
  %49 = landingpad { ptr, i32 }
          cleanup
  %50 = load ptr, ptr %0, align 8, !tbaa !28
  %51 = icmp eq ptr %50, null
  br i1 %51, label %53, label %52

52:                                               ; preds = %48
  tail call void @_ZdlPv(ptr noundef nonnull %50) #16
  br label %53

53:                                               ; preds = %52, %48
  resume { ptr, i32 } %49
}

declare i32 @__gxx_personality_v0(...)

; Function Attrs: noinline noreturn nounwind sspstrong uwtable
define linkonce_odr hidden void @__clang_call_terminate(ptr noundef %0) local_unnamed_addr #1 comdat {
  %2 = tail call ptr @__cxa_begin_catch(ptr %0) #18
  tail call void @_ZSt9terminatev() #17
  unreachable
}

declare ptr @__cxa_begin_catch(ptr) local_unnamed_addr

declare void @_ZSt9terminatev() local_unnamed_addr

; Function Attrs: sspstrong uwtable
define linkonce_odr dso_local void @_ZNSt6vectorIN6dealii11DataOutBase5PatchILi4ELi4EEESaIS3_EED2Ev(ptr noundef nonnull align 8 dereferenceable(24) %0) unnamed_addr #0 comdat align 2 personality ptr @__gxx_personality_v0 {
  %2 = load ptr, ptr %0, align 8, !tbaa !8
  %3 = getelementptr inbounds %"struct.std::_Vector_base<dealii::DataOutBase::Patch<4, 4>, std::allocator<dealii::DataOutBase::Patch<4, 4> > >::_Vector_impl_data", ptr %0, i64 0, i32 1
  %4 = load ptr, ptr %3, align 8, !tbaa !12
  %5 = icmp eq ptr %2, %4
  br i1 %5, label %19, label %6

6:                                                ; preds = %1, %14
  %7 = phi ptr [ %15, %14 ], [ %2, %1 ]
  %8 = getelementptr inbounds %"struct.dealii::DataOutBase::Patch", ptr %7, i64 0, i32 4
  store ptr getelementptr inbounds ({ [4 x ptr] }, ptr @_ZTVN6dealii9TableBaseILi2EfEE, i64 0, inrange i32 0, i64 2), ptr %8, align 8, !tbaa !5
  %9 = getelementptr inbounds %"struct.dealii::DataOutBase::Patch", ptr %7, i64 0, i32 4, i32 0, i32 1
  %10 = load ptr, ptr %9, align 8, !tbaa !13
  %11 = icmp eq ptr %10, null
  br i1 %11, label %13, label %12

12:                                               ; preds = %6
  tail call void @_ZdaPv(ptr noundef nonnull %10) #16
  br label %13

13:                                               ; preds = %12, %6
  invoke void @_ZN6dealii11SubscriptorD2Ev(ptr noundef nonnull align 8 dereferenceable(72) %8)
          to label %14 unwind label %24

14:                                               ; preds = %13
  %15 = getelementptr inbounds %"struct.dealii::DataOutBase::Patch", ptr %7, i64 1
  %16 = icmp eq ptr %15, %4
  br i1 %16, label %17, label %6

17:                                               ; preds = %14
  %18 = load ptr, ptr %0, align 8, !tbaa !8
  br label %19

19:                                               ; preds = %17, %1
  %20 = phi ptr [ %18, %17 ], [ %2, %1 ]
  %21 = icmp eq ptr %20, null
  br i1 %21, label %23, label %22

22:                                               ; preds = %19
  tail call void @_ZdlPv(ptr noundef nonnull %20) #16
  br label %23

23:                                               ; preds = %19, %22
  ret void

24:                                               ; preds = %13
  %25 = landingpad { ptr, i32 }
          cleanup
  %26 = load ptr, ptr %0, align 8, !tbaa !8
  %27 = icmp eq ptr %26, null
  br i1 %27, label %29, label %28

28:                                               ; preds = %24
  tail call void @_ZdlPv(ptr noundef nonnull %26) #16
  br label %29

29:                                               ; preds = %28, %24
  resume { ptr, i32 } %25
}

declare void @_ZN6dealii16DataOutInterfaceILi4ELi4EED2Ev(ptr noundef nonnull align 8 dereferenceable(128)) unnamed_addr #2

; Function Attrs: sspstrong uwtable
define weak_odr dso_local void @_ZN6dealii12DataOutStackILi3ELi3ENS_10DoFHandlerILi3ELi3EEEED0Ev(ptr noundef nonnull align 8 dereferenceable(232) %0) unnamed_addr #0 comdat($_ZN6dealii12DataOutStackILi3ELi3ENS_10DoFHandlerILi3ELi3EEEED5Ev) align 2 personality ptr @__gxx_personality_v0 {
  invoke void @_ZN6dealii12DataOutStackILi3ELi3ENS_10DoFHandlerILi3ELi3EEEED2Ev(ptr noundef nonnull align 8 dereferenceable(232) %0)
          to label %2 unwind label %3

2:                                                ; preds = %1
  tail call void @_ZdlPv(ptr noundef nonnull %0) #16
  ret void

3:                                                ; preds = %1
  %4 = landingpad { ptr, i32 }
          cleanup
  tail call void @_ZdlPv(ptr noundef nonnull %0) #16
  resume { ptr, i32 } %4
}

; Function Attrs: nobuiltin nounwind
declare void @_ZdlPv(ptr noundef) local_unnamed_addr #3

; Function Attrs: sspstrong uwtable
define weak_odr dso_local void @_ZN6dealii12DataOutStackILi3ELi3ENS_10DoFHandlerILi3ELi3EEEE19new_parameter_valueEdd(ptr noundef nonnull align 8 dereferenceable(232) %0, double noundef %1, double noundef %2) local_unnamed_addr #0 comdat align 2 {
  %4 = getelementptr inbounds %"class.dealii::DataOutStack", ptr %0, i64 0, i32 1
  store double %1, ptr %4, align 8, !tbaa !40
  %5 = getelementptr inbounds %"class.dealii::DataOutStack", ptr %0, i64 0, i32 2
  store double %2, ptr %5, align 8, !tbaa !63
  ret void
}

; Function Attrs: mustprogress nocallback nofree nosync nounwind willreturn memory(argmem: readwrite)
declare void @llvm.lifetime.start.p0(i64 immarg, ptr nocapture) #4

; Function Attrs: mustprogress nocallback nofree nosync nounwind willreturn memory(argmem: readwrite)
declare void @llvm.lifetime.end.p0(i64 immarg, ptr nocapture) #4

; Function Attrs: sspstrong uwtable
define weak_odr dso_local void @_ZN6dealii12DataOutStackILi3ELi3ENS_10DoFHandlerILi3ELi3EEEE18attach_dof_handlerERKS2_(ptr noundef nonnull align 8 dereferenceable(232) %0, ptr noundef nonnull align 8 dereferenceable(168) %1) local_unnamed_addr #0 comdat align 2 {
  %3 = getelementptr inbounds %"class.dealii::DataOutStack", ptr %0, i64 0, i32 3
  %4 = load ptr, ptr %3, align 8, !tbaa !64
  %5 = icmp eq ptr %4, %1
  br i1 %5, label %7, label %6

6:                                                ; preds = %2
  store ptr %1, ptr %3, align 8, !tbaa !64
  br label %7

7:                                                ; preds = %2, %6
  ret void
}

; Function Attrs: sspstrong uwtable
define weak_odr dso_local void @_ZN6dealii12DataOutStackILi3ELi3ENS_10DoFHandlerILi3ELi3EEEE19declare_data_vectorERKNSt7__cxx1112basic_stringIcSt11char_traitsIcESaIcEEENS3_10VectorTypeE(ptr noundef nonnull align 8 dereferenceable(232) %0, ptr noundef nonnull align 8 dereferenceable(32) %1, i32 noundef %2) local_unnamed_addr #0 comdat align 2 personality ptr @__gxx_personality_v0 {
  %4 = alloca %"class.std::vector.37", align 8
  call void @llvm.lifetime.start.p0(i64 24, ptr nonnull %4) #18
  call void @llvm.memset.p0.i64(ptr noundef nonnull align 8 dereferenceable(24) %4, i8 0, i64 24, i1 false)
  %5 = getelementptr inbounds %"struct.std::_Vector_base<std::__cxx11::basic_string<char>, std::allocator<std::__cxx11::basic_string<char> > >::_Vector_impl_data", ptr %4, i64 0, i32 1
  invoke void @_ZNSt6vectorINSt7__cxx1112basic_stringIcSt11char_traitsIcESaIcEEESaIS5_EE17_M_realloc_insertEN9__gnu_cxx17__normal_iteratorIPS5_S7_EERKS5_(ptr noundef nonnull align 8 dereferenceable(24) %4, ptr null, ptr noundef nonnull align 8 dereferenceable(32) %1)
          to label %6 unwind label %31

6:                                                ; preds = %3
  invoke void @_ZN6dealii12DataOutStackILi3ELi3ENS_10DoFHandlerILi3ELi3EEEE19declare_data_vectorERKSt6vectorINSt7__cxx1112basic_stringIcSt11char_traitsIcESaIcEEESaISA_EENS3_10VectorTypeE(ptr noundef nonnull align 8 dereferenceable(232) %0, ptr noundef nonnull align 8 dereferenceable(24) %4, i32 noundef %2)
          to label %7 unwind label %31

7:                                                ; preds = %6
  %8 = load ptr, ptr %4, align 8, !tbaa !31
  %9 = load ptr, ptr %5, align 8, !tbaa !33
  %10 = icmp eq ptr %8, %9
  br i1 %10, label %26, label %11

11:                                               ; preds = %7, %21
  %12 = phi ptr [ %22, %21 ], [ %8, %7 ]
  %13 = load ptr, ptr %12, align 8, !tbaa !34
  %14 = getelementptr inbounds %"class.std::__cxx11::basic_string", ptr %12, i64 0, i32 2
  %15 = icmp eq ptr %13, %14
  br i1 %15, label %16, label %20

16:                                               ; preds = %11
  %17 = getelementptr inbounds %"class.std::__cxx11::basic_string", ptr %12, i64 0, i32 1
  %18 = load i64, ptr %17, align 8, !tbaa !37
  %19 = icmp ult i64 %18, 16
  call void @llvm.assume(i1 %19)
  br label %21

20:                                               ; preds = %11
  call void @_ZdlPv(ptr noundef %13) #16
  br label %21

21:                                               ; preds = %20, %16
  %22 = getelementptr inbounds %"class.std::__cxx11::basic_string", ptr %12, i64 1
  %23 = icmp eq ptr %22, %9
  br i1 %23, label %24, label %11

24:                                               ; preds = %21
  %25 = load ptr, ptr %4, align 8, !tbaa !31
  br label %26

26:                                               ; preds = %24, %7
  %27 = phi ptr [ %25, %24 ], [ %8, %7 ]
  %28 = icmp eq ptr %27, null
  br i1 %28, label %30, label %29

29:                                               ; preds = %26
  call void @_ZdlPv(ptr noundef nonnull %27) #16
  br label %30

30:                                               ; preds = %26, %29
  call void @llvm.lifetime.end.p0(i64 24, ptr nonnull %4) #18
  ret void

31:                                               ; preds = %3, %6
  %32 = landingpad { ptr, i32 }
          cleanup
  invoke void @_ZNSt6vectorINSt7__cxx1112basic_stringIcSt11char_traitsIcESaIcEEESaIS5_EED2Ev(ptr noundef nonnull align 8 dereferenceable(24) %4)
          to label %33 unwind label %34

33:                                               ; preds = %31
  call void @llvm.lifetime.end.p0(i64 24, ptr nonnull %4) #18
  resume { ptr, i32 } %32

34:                                               ; preds = %31
  %35 = landingpad { ptr, i32 }
          catch ptr null
  %36 = extractvalue { ptr, i32 } %35, 0
  call void @__clang_call_terminate(ptr %36) #17
  unreachable
}

; Function Attrs: sspstrong uwtable
define weak_odr dso_local void @_ZN6dealii12DataOutStackILi3ELi3ENS_10DoFHandlerILi3ELi3EEEE19declare_data_vectorERKSt6vectorINSt7__cxx1112basic_stringIcSt11char_traitsIcESaIcEEESaISA_EENS3_10VectorTypeE(ptr noundef nonnull align 8 dereferenceable(232) %0, ptr noundef nonnull align 8 dereferenceable(24) %1, i32 noundef %2) local_unnamed_addr #0 comdat align 2 personality ptr @__gxx_personality_v0 {
  %4 = alloca %"struct.dealii::DataOutStack<3, 3>::DataVector", align 8
  %5 = alloca %"struct.dealii::DataOutStack<3, 3>::DataVector", align 8
  %6 = load ptr, ptr %1, align 8, !tbaa !65
  %7 = getelementptr inbounds %"struct.std::_Vector_base<std::__cxx11::basic_string<char>, std::allocator<std::__cxx11::basic_string<char> > >::_Vector_impl_data", ptr %1, i64 0, i32 1
  %8 = load ptr, ptr %7, align 8, !tbaa !65
  %9 = icmp eq ptr %6, %8
  br i1 %9, label %50, label %10

10:                                               ; preds = %3
  %11 = getelementptr inbounds %"class.dealii::DataOutStack", ptr %0, i64 0, i32 5
  %12 = load ptr, ptr %11, align 8, !tbaa !65
  %13 = getelementptr inbounds %"class.dealii::DataOutStack", ptr %0, i64 0, i32 5, i32 0, i32 0, i32 0, i32 1
  %14 = load ptr, ptr %13, align 8, !tbaa !65
  %15 = icmp eq ptr %12, %14
  %16 = getelementptr inbounds %"class.dealii::DataOutStack", ptr %0, i64 0, i32 6
  %17 = load ptr, ptr %16, align 8, !tbaa !65
  %18 = getelementptr inbounds %"class.dealii::DataOutStack", ptr %0, i64 0, i32 6, i32 0, i32 0, i32 0, i32 1
  %19 = load ptr, ptr %18, align 8, !tbaa !65
  %20 = icmp eq ptr %17, %19
  br i1 %15, label %21, label %36

21:                                               ; preds = %10
  br i1 %20, label %50, label %22

22:                                               ; preds = %21
  %23 = getelementptr inbounds %"struct.dealii::DataOutStack<3, 3>::DataVector", ptr %17, i64 0, i32 1
  %24 = getelementptr inbounds %"struct.dealii::DataOutStack<3, 3>::DataVector", ptr %17, i64 0, i32 1, i32 0, i32 0, i32 0, i32 1
  %25 = load ptr, ptr %24, align 8, !tbaa !33
  %26 = load ptr, ptr %23, align 8, !tbaa !31
  %27 = ptrtoint ptr %25 to i64
  %28 = ptrtoint ptr %26 to i64
  %29 = sub i64 %27, %28
  %30 = ashr exact i64 %29, 5
  br label %31

31:                                               ; preds = %22, %31
  %32 = phi i32 [ %35, %31 ], [ 0, %22 ]
  %33 = zext i32 %32 to i64
  %34 = icmp ugt i64 %30, %33
  %35 = add i32 %32, 1
  br i1 %34, label %31, label %50

36:                                               ; preds = %10
  %37 = getelementptr inbounds %"struct.dealii::DataOutStack<3, 3>::DataVector", ptr %12, i64 0, i32 1
  %38 = getelementptr inbounds %"struct.dealii::DataOutStack<3, 3>::DataVector", ptr %12, i64 0, i32 1, i32 0, i32 0, i32 0, i32 1
  %39 = load ptr, ptr %38, align 8, !tbaa !33
  %40 = load ptr, ptr %37, align 8, !tbaa !31
  %41 = ptrtoint ptr %39 to i64
  %42 = ptrtoint ptr %40 to i64
  %43 = sub i64 %41, %42
  %44 = ashr exact i64 %43, 5
  br i1 %20, label %45, label %51

45:                                               ; preds = %36, %45
  %46 = phi i32 [ %49, %45 ], [ 0, %36 ]
  %47 = zext i32 %46 to i64
  %48 = icmp ugt i64 %44, %47
  %49 = add i32 %46, 1
  br i1 %48, label %45, label %50

50:                                               ; preds = %65, %45, %31, %21, %3
  switch i32 %2, label %169 [
    i32 1, label %70
    i32 0, label %117
  ]

51:                                               ; preds = %36, %51
  %52 = phi i32 [ %55, %51 ], [ 0, %36 ]
  %53 = zext i32 %52 to i64
  %54 = icmp ugt i64 %44, %53
  %55 = add i32 %52, 1
  br i1 %54, label %51, label %56

56:                                               ; preds = %51
  %57 = getelementptr inbounds %"struct.dealii::DataOutStack<3, 3>::DataVector", ptr %17, i64 0, i32 1
  %58 = getelementptr inbounds %"struct.dealii::DataOutStack<3, 3>::DataVector", ptr %17, i64 0, i32 1, i32 0, i32 0, i32 0, i32 1
  %59 = load ptr, ptr %58, align 8, !tbaa !33
  %60 = load ptr, ptr %57, align 8, !tbaa !31
  %61 = ptrtoint ptr %59 to i64
  %62 = ptrtoint ptr %60 to i64
  %63 = sub i64 %61, %62
  %64 = ashr exact i64 %63, 5
  br label %65

65:                                               ; preds = %65, %56
  %66 = phi i32 [ %69, %65 ], [ 0, %56 ]
  %67 = zext i32 %66 to i64
  %68 = icmp ugt i64 %64, %67
  %69 = add i32 %66, 1
  br i1 %68, label %65, label %50

70:                                               ; preds = %50
  call void @llvm.lifetime.start.p0(i64 112, ptr nonnull %4) #18
  call void @llvm.memset.p0.i64(ptr noundef nonnull align 8 dereferenceable(112) %4, i8 0, i64 112, i1 false)
  call void @_ZN6dealii11SubscriptorC2Ev(ptr noundef nonnull align 8 dereferenceable(72) %4)
  store ptr getelementptr inbounds ({ [6 x ptr] }, ptr @_ZTVN6dealii6VectorIdEE, i64 0, inrange i32 0, i64 2), ptr %4, align 8, !tbaa !5
  %71 = getelementptr inbounds %"class.dealii::Vector", ptr %4, i64 0, i32 1
  call void @llvm.memset.p0.i64(ptr noundef nonnull align 8 dereferenceable(40) %71, i8 0, i64 40, i1 false)
  %72 = getelementptr inbounds %"class.dealii::DataOutStack", ptr %0, i64 0, i32 5, i32 0, i32 0, i32 0, i32 1
  %73 = load ptr, ptr %72, align 8, !tbaa !65
  %74 = getelementptr inbounds %"class.dealii::DataOutStack", ptr %0, i64 0, i32 5, i32 0, i32 0, i32 0, i32 2
  %75 = load ptr, ptr %74, align 8, !tbaa !66
  %76 = icmp eq ptr %73, %75
  br i1 %76, label %81, label %77

77:                                               ; preds = %70
  invoke void @_ZN6dealii12DataOutStackILi3ELi3ENS_10DoFHandlerILi3ELi3EEEE10DataVectorC2ERKS4_(ptr noundef nonnull align 8 dereferenceable(112) %73, ptr noundef nonnull align 8 dereferenceable(112) %4)
          to label %78 unwind label %114

78:                                               ; preds = %77
  %79 = load ptr, ptr %72, align 8, !tbaa !30
  %80 = getelementptr inbounds %"struct.dealii::DataOutStack<3, 3>::DataVector", ptr %79, i64 1
  store ptr %80, ptr %72, align 8, !tbaa !30
  br label %83

81:                                               ; preds = %70
  %82 = getelementptr inbounds %"class.dealii::DataOutStack", ptr %0, i64 0, i32 5
  invoke void @_ZNSt6vectorIN6dealii12DataOutStackILi3ELi3ENS0_10DoFHandlerILi3ELi3EEEE10DataVectorESaIS5_EE17_M_realloc_insertEN9__gnu_cxx17__normal_iteratorIPS5_S7_EERKS5_(ptr noundef nonnull align 8 dereferenceable(24) %82, ptr %73, ptr noundef nonnull align 8 dereferenceable(112) %4)
          to label %83 unwind label %114

83:                                               ; preds = %78, %81
  %84 = getelementptr inbounds %"struct.dealii::DataOutStack<3, 3>::DataVector", ptr %4, i64 0, i32 1
  %85 = load ptr, ptr %84, align 8, !tbaa !31
  %86 = getelementptr inbounds %"struct.dealii::DataOutStack<3, 3>::DataVector", ptr %4, i64 0, i32 1, i32 0, i32 0, i32 0, i32 1
  %87 = load ptr, ptr %86, align 8, !tbaa !33
  %88 = icmp eq ptr %85, %87
  br i1 %88, label %104, label %89

89:                                               ; preds = %83, %99
  %90 = phi ptr [ %100, %99 ], [ %85, %83 ]
  %91 = load ptr, ptr %90, align 8, !tbaa !34
  %92 = getelementptr inbounds %"class.std::__cxx11::basic_string", ptr %90, i64 0, i32 2
  %93 = icmp eq ptr %91, %92
  br i1 %93, label %94, label %98

94:                                               ; preds = %89
  %95 = getelementptr inbounds %"class.std::__cxx11::basic_string", ptr %90, i64 0, i32 1
  %96 = load i64, ptr %95, align 8, !tbaa !37
  %97 = icmp ult i64 %96, 16
  call void @llvm.assume(i1 %97)
  br label %99

98:                                               ; preds = %89
  call void @_ZdlPv(ptr noundef %91) #16
  br label %99

99:                                               ; preds = %98, %94
  %100 = getelementptr inbounds %"class.std::__cxx11::basic_string", ptr %90, i64 1
  %101 = icmp eq ptr %100, %87
  br i1 %101, label %102, label %89

102:                                              ; preds = %99
  %103 = load ptr, ptr %84, align 8, !tbaa !31
  br label %104

104:                                              ; preds = %102, %83
  %105 = phi ptr [ %103, %102 ], [ %85, %83 ]
  %106 = icmp eq ptr %105, null
  br i1 %106, label %108, label %107

107:                                              ; preds = %104
  call void @_ZdlPv(ptr noundef nonnull %105) #16
  br label %108

108:                                              ; preds = %107, %104
  store ptr getelementptr inbounds ({ [6 x ptr] }, ptr @_ZTVN6dealii6VectorIdEE, i64 0, inrange i32 0, i64 2), ptr %4, align 8, !tbaa !5
  %109 = getelementptr inbounds %"class.dealii::Vector", ptr %4, i64 0, i32 3
  %110 = load ptr, ptr %109, align 8, !tbaa !38
  %111 = icmp eq ptr %110, null
  br i1 %111, label %113, label %112

112:                                              ; preds = %108
  call void @_ZdaPv(ptr noundef nonnull %110) #16
  store ptr null, ptr %109, align 8, !tbaa !38
  br label %113

113:                                              ; preds = %108, %112
  call void @_ZN6dealii11SubscriptorD2Ev(ptr noundef nonnull align 8 dereferenceable(72) %4)
  call void @llvm.lifetime.end.p0(i64 112, ptr nonnull %4) #18
  br label %164

114:                                              ; preds = %81, %77
  %115 = landingpad { ptr, i32 }
          cleanup
  invoke void @_ZN6dealii12DataOutStackILi3ELi3ENS_10DoFHandlerILi3ELi3EEEE10DataVectorD2Ev(ptr noundef nonnull align 8 dereferenceable(112) %4)
          to label %116 unwind label %172

116:                                              ; preds = %114
  call void @llvm.lifetime.end.p0(i64 112, ptr nonnull %4) #18
  br label %170

117:                                              ; preds = %50
  call void @llvm.lifetime.start.p0(i64 112, ptr nonnull %5) #18
  call void @llvm.memset.p0.i64(ptr noundef nonnull align 8 dereferenceable(112) %5, i8 0, i64 112, i1 false)
  call void @_ZN6dealii11SubscriptorC2Ev(ptr noundef nonnull align 8 dereferenceable(72) %5)
  store ptr getelementptr inbounds ({ [6 x ptr] }, ptr @_ZTVN6dealii6VectorIdEE, i64 0, inrange i32 0, i64 2), ptr %5, align 8, !tbaa !5
  %118 = getelementptr inbounds %"class.dealii::Vector", ptr %5, i64 0, i32 1
  call void @llvm.memset.p0.i64(ptr noundef nonnull align 8 dereferenceable(40) %118, i8 0, i64 40, i1 false)
  %119 = getelementptr inbounds %"class.dealii::DataOutStack", ptr %0, i64 0, i32 6, i32 0, i32 0, i32 0, i32 1
  %120 = load ptr, ptr %119, align 8, !tbaa !65
  %121 = getelementptr inbounds %"class.dealii::DataOutStack", ptr %0, i64 0, i32 6, i32 0, i32 0, i32 0, i32 2
  %122 = load ptr, ptr %121, align 8, !tbaa !66
  %123 = icmp eq ptr %120, %122
  br i1 %123, label %128, label %124

124:                                              ; preds = %117
  invoke void @_ZN6dealii12DataOutStackILi3ELi3ENS_10DoFHandlerILi3ELi3EEEE10DataVectorC2ERKS4_(ptr noundef nonnull align 8 dereferenceable(112) %120, ptr noundef nonnull align 8 dereferenceable(112) %5)
          to label %125 unwind label %161

125:                                              ; preds = %124
  %126 = load ptr, ptr %119, align 8, !tbaa !30
  %127 = getelementptr inbounds %"struct.dealii::DataOutStack<3, 3>::DataVector", ptr %126, i64 1
  store ptr %127, ptr %119, align 8, !tbaa !30
  br label %130

128:                                              ; preds = %117
  %129 = getelementptr inbounds %"class.dealii::DataOutStack", ptr %0, i64 0, i32 6
  invoke void @_ZNSt6vectorIN6dealii12DataOutStackILi3ELi3ENS0_10DoFHandlerILi3ELi3EEEE10DataVectorESaIS5_EE17_M_realloc_insertEN9__gnu_cxx17__normal_iteratorIPS5_S7_EERKS5_(ptr noundef nonnull align 8 dereferenceable(24) %129, ptr %120, ptr noundef nonnull align 8 dereferenceable(112) %5)
          to label %130 unwind label %161

130:                                              ; preds = %125, %128
  %131 = getelementptr inbounds %"struct.dealii::DataOutStack<3, 3>::DataVector", ptr %5, i64 0, i32 1
  %132 = load ptr, ptr %131, align 8, !tbaa !31
  %133 = getelementptr inbounds %"struct.dealii::DataOutStack<3, 3>::DataVector", ptr %5, i64 0, i32 1, i32 0, i32 0, i32 0, i32 1
  %134 = load ptr, ptr %133, align 8, !tbaa !33
  %135 = icmp eq ptr %132, %134
  br i1 %135, label %151, label %136

136:                                              ; preds = %130, %146
  %137 = phi ptr [ %147, %146 ], [ %132, %130 ]
  %138 = load ptr, ptr %137, align 8, !tbaa !34
  %139 = getelementptr inbounds %"class.std::__cxx11::basic_string", ptr %137, i64 0, i32 2
  %140 = icmp eq ptr %138, %139
  br i1 %140, label %141, label %145

141:                                              ; preds = %136
  %142 = getelementptr inbounds %"class.std::__cxx11::basic_string", ptr %137, i64 0, i32 1
  %143 = load i64, ptr %142, align 8, !tbaa !37
  %144 = icmp ult i64 %143, 16
  call void @llvm.assume(i1 %144)
  br label %146

145:                                              ; preds = %136
  call void @_ZdlPv(ptr noundef %138) #16
  br label %146

146:                                              ; preds = %145, %141
  %147 = getelementptr inbounds %"class.std::__cxx11::basic_string", ptr %137, i64 1
  %148 = icmp eq ptr %147, %134
  br i1 %148, label %149, label %136

149:                                              ; preds = %146
  %150 = load ptr, ptr %131, align 8, !tbaa !31
  br label %151

151:                                              ; preds = %149, %130
  %152 = phi ptr [ %150, %149 ], [ %132, %130 ]
  %153 = icmp eq ptr %152, null
  br i1 %153, label %155, label %154

154:                                              ; preds = %151
  call void @_ZdlPv(ptr noundef nonnull %152) #16
  br label %155

155:                                              ; preds = %154, %151
  store ptr getelementptr inbounds ({ [6 x ptr] }, ptr @_ZTVN6dealii6VectorIdEE, i64 0, inrange i32 0, i64 2), ptr %5, align 8, !tbaa !5
  %156 = getelementptr inbounds %"class.dealii::Vector", ptr %5, i64 0, i32 3
  %157 = load ptr, ptr %156, align 8, !tbaa !38
  %158 = icmp eq ptr %157, null
  br i1 %158, label %160, label %159

159:                                              ; preds = %155
  call void @_ZdaPv(ptr noundef nonnull %157) #16
  store ptr null, ptr %156, align 8, !tbaa !38
  br label %160

160:                                              ; preds = %155, %159
  call void @_ZN6dealii11SubscriptorD2Ev(ptr noundef nonnull align 8 dereferenceable(72) %5)
  call void @llvm.lifetime.end.p0(i64 112, ptr nonnull %5) #18
  br label %164

161:                                              ; preds = %128, %124
  %162 = landingpad { ptr, i32 }
          cleanup
  invoke void @_ZN6dealii12DataOutStackILi3ELi3ENS_10DoFHandlerILi3ELi3EEEE10DataVectorD2Ev(ptr noundef nonnull align 8 dereferenceable(112) %5)
          to label %163 unwind label %172

163:                                              ; preds = %161
  call void @llvm.lifetime.end.p0(i64 112, ptr nonnull %5) #18
  br label %170

164:                                              ; preds = %113, %160
  %165 = phi ptr [ %119, %160 ], [ %72, %113 ]
  %166 = load ptr, ptr %165, align 8, !tbaa !65
  %167 = getelementptr %"struct.dealii::DataOutStack<3, 3>::DataVector", ptr %166, i64 -1, i32 1
  %168 = call noundef nonnull align 8 dereferenceable(24) ptr @_ZNSt6vectorINSt7__cxx1112basic_stringIcSt11char_traitsIcESaIcEEESaIS5_EEaSERKS7_(ptr noundef nonnull align 8 dereferenceable(24) %167, ptr noundef nonnull align 8 dereferenceable(24) %1)
  br label %169

169:                                              ; preds = %164, %50
  ret void

170:                                              ; preds = %163, %116
  %171 = phi { ptr, i32 } [ %162, %163 ], [ %115, %116 ]
  resume { ptr, i32 } %171

172:                                              ; preds = %161, %114
  %173 = landingpad { ptr, i32 }
          catch ptr null
  %174 = extractvalue { ptr, i32 } %173, 0
  call void @__clang_call_terminate(ptr %174) #17
  unreachable
}

; Function Attrs: sspstrong uwtable
define linkonce_odr dso_local void @_ZNSt6vectorINSt7__cxx1112basic_stringIcSt11char_traitsIcESaIcEEESaIS5_EED2Ev(ptr noundef nonnull align 8 dereferenceable(24) %0) unnamed_addr #0 comdat align 2 personality ptr @__gxx_personality_v0 {
  %2 = load ptr, ptr %0, align 8, !tbaa !31
  %3 = getelementptr inbounds %"struct.std::_Vector_base<std::__cxx11::basic_string<char>, std::allocator<std::__cxx11::basic_string<char> > >::_Vector_impl_data", ptr %0, i64 0, i32 1
  %4 = load ptr, ptr %3, align 8, !tbaa !33
  %5 = icmp eq ptr %2, %4
  br i1 %5, label %21, label %6

6:                                                ; preds = %1, %16
  %7 = phi ptr [ %17, %16 ], [ %2, %1 ]
  %8 = load ptr, ptr %7, align 8, !tbaa !34
  %9 = getelementptr inbounds %"class.std::__cxx11::basic_string", ptr %7, i64 0, i32 2
  %10 = icmp eq ptr %8, %9
  br i1 %10, label %11, label %15

11:                                               ; preds = %6
  %12 = getelementptr inbounds %"class.std::__cxx11::basic_string", ptr %7, i64 0, i32 1
  %13 = load i64, ptr %12, align 8, !tbaa !37
  %14 = icmp ult i64 %13, 16
  tail call void @llvm.assume(i1 %14)
  br label %16

15:                                               ; preds = %6
  tail call void @_ZdlPv(ptr noundef %8) #16
  br label %16

16:                                               ; preds = %15, %11
  %17 = getelementptr inbounds %"class.std::__cxx11::basic_string", ptr %7, i64 1
  %18 = icmp eq ptr %17, %4
  br i1 %18, label %19, label %6

19:                                               ; preds = %16
  %20 = load ptr, ptr %0, align 8, !tbaa !31
  br label %21

21:                                               ; preds = %19, %1
  %22 = phi ptr [ %20, %19 ], [ %2, %1 ]
  %23 = icmp eq ptr %22, null
  br i1 %23, label %25, label %24

24:                                               ; preds = %21
  tail call void @_ZdlPv(ptr noundef nonnull %22) #16
  br label %25

25:                                               ; preds = %21, %24
  ret void
}

; Function Attrs: mustprogress nocallback nofree nounwind willreturn memory(argmem: write)
declare void @llvm.memset.p0.i64(ptr nocapture writeonly, i8, i64, i1 immarg) #5

; Function Attrs: inlinehint sspstrong uwtable
define linkonce_odr dso_local void @_ZN6dealii12DataOutStackILi3ELi3ENS_10DoFHandlerILi3ELi3EEEE10DataVectorD2Ev(ptr noundef nonnull align 8 dereferenceable(112) %0) unnamed_addr #6 comdat align 2 personality ptr @__gxx_personality_v0 {
  %2 = getelementptr inbounds %"struct.dealii::DataOutStack<3, 3>::DataVector", ptr %0, i64 0, i32 1
  %3 = load ptr, ptr %2, align 8, !tbaa !31
  %4 = getelementptr inbounds %"struct.dealii::DataOutStack<3, 3>::DataVector", ptr %0, i64 0, i32 1, i32 0, i32 0, i32 0, i32 1
  %5 = load ptr, ptr %4, align 8, !tbaa !33
  %6 = icmp eq ptr %3, %5
  br i1 %6, label %22, label %7

7:                                                ; preds = %1, %17
  %8 = phi ptr [ %18, %17 ], [ %3, %1 ]
  %9 = load ptr, ptr %8, align 8, !tbaa !34
  %10 = getelementptr inbounds %"class.std::__cxx11::basic_string", ptr %8, i64 0, i32 2
  %11 = icmp eq ptr %9, %10
  br i1 %11, label %12, label %16

12:                                               ; preds = %7
  %13 = getelementptr inbounds %"class.std::__cxx11::basic_string", ptr %8, i64 0, i32 1
  %14 = load i64, ptr %13, align 8, !tbaa !37
  %15 = icmp ult i64 %14, 16
  tail call void @llvm.assume(i1 %15)
  br label %17

16:                                               ; preds = %7
  tail call void @_ZdlPv(ptr noundef %9) #16
  br label %17

17:                                               ; preds = %16, %12
  %18 = getelementptr inbounds %"class.std::__cxx11::basic_string", ptr %8, i64 1
  %19 = icmp eq ptr %18, %5
  br i1 %19, label %20, label %7

20:                                               ; preds = %17
  %21 = load ptr, ptr %2, align 8, !tbaa !31
  br label %22

22:                                               ; preds = %20, %1
  %23 = phi ptr [ %21, %20 ], [ %3, %1 ]
  %24 = icmp eq ptr %23, null
  br i1 %24, label %26, label %25

25:                                               ; preds = %22
  tail call void @_ZdlPv(ptr noundef nonnull %23) #16
  br label %26

26:                                               ; preds = %25, %22
  store ptr getelementptr inbounds ({ [6 x ptr] }, ptr @_ZTVN6dealii6VectorIdEE, i64 0, inrange i32 0, i64 2), ptr %0, align 8, !tbaa !5
  %27 = getelementptr inbounds %"class.dealii::Vector", ptr %0, i64 0, i32 3
  %28 = load ptr, ptr %27, align 8, !tbaa !38
  %29 = icmp eq ptr %28, null
  br i1 %29, label %31, label %30

30:                                               ; preds = %26
  tail call void @_ZdaPv(ptr noundef nonnull %28) #16
  store ptr null, ptr %27, align 8, !tbaa !38
  br label %31

31:                                               ; preds = %26, %30
  tail call void @_ZN6dealii11SubscriptorD2Ev(ptr noundef nonnull align 8 dereferenceable(72) %0)
  ret void
}

; Function Attrs: sspstrong uwtable
define linkonce_odr dso_local noundef nonnull align 8 dereferenceable(24) ptr @_ZNSt6vectorINSt7__cxx1112basic_stringIcSt11char_traitsIcESaIcEEESaIS5_EEaSERKS7_(ptr noundef nonnull align 8 dereferenceable(24) %0, ptr noundef nonnull align 8 dereferenceable(24) %1) local_unnamed_addr #0 comdat align 2 personality ptr @__gxx_personality_v0 {
  %3 = icmp eq ptr %1, %0
  br i1 %3, label %121, label %4

4:                                                ; preds = %2
  %5 = getelementptr inbounds %"struct.std::_Vector_base<std::__cxx11::basic_string<char>, std::allocator<std::__cxx11::basic_string<char> > >::_Vector_impl_data", ptr %1, i64 0, i32 1
  %6 = load ptr, ptr %5, align 8, !tbaa !65
  %7 = load ptr, ptr %1, align 8, !tbaa !65
  %8 = ptrtoint ptr %6 to i64
  %9 = ptrtoint ptr %7 to i64
  %10 = sub i64 %8, %9
  %11 = ashr exact i64 %10, 5
  %12 = getelementptr inbounds %"struct.std::_Vector_base<std::__cxx11::basic_string<char>, std::allocator<std::__cxx11::basic_string<char> > >::_Vector_impl_data", ptr %0, i64 0, i32 2
  %13 = load ptr, ptr %12, align 8, !tbaa !67
  %14 = load ptr, ptr %0, align 8, !tbaa !65
  %15 = ptrtoint ptr %13 to i64
  %16 = ptrtoint ptr %14 to i64
  %17 = sub i64 %15, %16
  %18 = ashr exact i64 %17, 5
  %19 = icmp ugt i64 %11, %18
  br i1 %19, label %20, label %47

20:                                               ; preds = %4
  %21 = tail call noundef ptr @_ZNSt6vectorINSt7__cxx1112basic_stringIcSt11char_traitsIcESaIcEEESaIS5_EE20_M_allocate_and_copyIN9__gnu_cxx17__normal_iteratorIPKS5_S7_EEEEPS5_mT_SF_(ptr noundef nonnull align 8 dereferenceable(24) %0, i64 noundef %11, ptr %7, ptr %6)
  %22 = load ptr, ptr %0, align 8, !tbaa !31
  %23 = getelementptr inbounds %"struct.std::_Vector_base<std::__cxx11::basic_string<char>, std::allocator<std::__cxx11::basic_string<char> > >::_Vector_impl_data", ptr %0, i64 0, i32 1
  %24 = load ptr, ptr %23, align 8, !tbaa !33
  %25 = icmp eq ptr %22, %24
  br i1 %25, label %41, label %26

26:                                               ; preds = %20, %36
  %27 = phi ptr [ %37, %36 ], [ %22, %20 ]
  %28 = load ptr, ptr %27, align 8, !tbaa !34
  %29 = getelementptr inbounds %"class.std::__cxx11::basic_string", ptr %27, i64 0, i32 2
  %30 = icmp eq ptr %28, %29
  br i1 %30, label %31, label %35

31:                                               ; preds = %26
  %32 = getelementptr inbounds %"class.std::__cxx11::basic_string", ptr %27, i64 0, i32 1
  %33 = load i64, ptr %32, align 8, !tbaa !37
  %34 = icmp ult i64 %33, 16
  tail call void @llvm.assume(i1 %34)
  br label %36

35:                                               ; preds = %26
  tail call void @_ZdlPv(ptr noundef %28) #16
  br label %36

36:                                               ; preds = %35, %31
  %37 = getelementptr inbounds %"class.std::__cxx11::basic_string", ptr %27, i64 1
  %38 = icmp eq ptr %37, %24
  br i1 %38, label %39, label %26

39:                                               ; preds = %36
  %40 = load ptr, ptr %0, align 8, !tbaa !31
  br label %41

41:                                               ; preds = %39, %20
  %42 = phi ptr [ %40, %39 ], [ %22, %20 ]
  %43 = icmp eq ptr %42, null
  br i1 %43, label %45, label %44

44:                                               ; preds = %41
  tail call void @_ZdlPv(ptr noundef nonnull %42) #16
  br label %45

45:                                               ; preds = %41, %44
  store ptr %21, ptr %0, align 8, !tbaa !31
  %46 = getelementptr inbounds %"class.std::__cxx11::basic_string", ptr %21, i64 %11
  store ptr %46, ptr %12, align 8, !tbaa !67
  br label %117

47:                                               ; preds = %4
  %48 = getelementptr inbounds %"struct.std::_Vector_base<std::__cxx11::basic_string<char>, std::allocator<std::__cxx11::basic_string<char> > >::_Vector_impl_data", ptr %0, i64 0, i32 1
  %49 = load ptr, ptr %48, align 8, !tbaa !65
  %50 = ptrtoint ptr %49 to i64
  %51 = sub i64 %50, %16
  %52 = ashr exact i64 %51, 5
  %53 = icmp ult i64 %52, %11
  br i1 %53, label %89, label %54

54:                                               ; preds = %47
  %55 = icmp sgt i64 %10, 0
  br i1 %55, label %56, label %69

56:                                               ; preds = %54
  %57 = lshr exact i64 %10, 5
  br label %58

58:                                               ; preds = %58, %56
  %59 = phi i64 [ %64, %58 ], [ %57, %56 ]
  %60 = phi ptr [ %63, %58 ], [ %14, %56 ]
  %61 = phi ptr [ %62, %58 ], [ %7, %56 ]
  tail call void @_ZNSt7__cxx1112basic_stringIcSt11char_traitsIcESaIcEE9_M_assignERKS4_(ptr noundef nonnull align 8 dereferenceable(32) %60, ptr noundef nonnull align 8 dereferenceable(32) %61)
  %62 = getelementptr inbounds %"class.std::__cxx11::basic_string", ptr %61, i64 1
  %63 = getelementptr inbounds %"class.std::__cxx11::basic_string", ptr %60, i64 1
  %64 = add nsw i64 %59, -1
  %65 = icmp ugt i64 %59, 1
  br i1 %65, label %58, label %66

66:                                               ; preds = %58
  %67 = load ptr, ptr %48, align 8, !tbaa !65
  %68 = ptrtoint ptr %63 to i64
  br label %69

69:                                               ; preds = %66, %54
  %70 = phi i64 [ %68, %66 ], [ %16, %54 ]
  %71 = phi ptr [ %67, %66 ], [ %49, %54 ]
  %72 = sub i64 %70, %16
  %73 = ashr exact i64 %72, 5
  %74 = getelementptr inbounds %"class.std::__cxx11::basic_string", ptr %14, i64 %73
  %75 = icmp eq ptr %74, %71
  br i1 %75, label %117, label %76

76:                                               ; preds = %69, %86
  %77 = phi ptr [ %87, %86 ], [ %74, %69 ]
  %78 = load ptr, ptr %77, align 8, !tbaa !34
  %79 = getelementptr inbounds %"class.std::__cxx11::basic_string", ptr %77, i64 0, i32 2
  %80 = icmp eq ptr %78, %79
  br i1 %80, label %81, label %85

81:                                               ; preds = %76
  %82 = getelementptr inbounds %"class.std::__cxx11::basic_string", ptr %77, i64 0, i32 1
  %83 = load i64, ptr %82, align 8, !tbaa !37
  %84 = icmp ult i64 %83, 16
  tail call void @llvm.assume(i1 %84)
  br label %86

85:                                               ; preds = %76
  tail call void @_ZdlPv(ptr noundef %78) #16
  br label %86

86:                                               ; preds = %85, %81
  %87 = getelementptr inbounds %"class.std::__cxx11::basic_string", ptr %77, i64 1
  %88 = icmp eq ptr %87, %71
  br i1 %88, label %117, label %76

89:                                               ; preds = %47
  %90 = icmp sgt i64 %51, 0
  br i1 %90, label %91, label %110

91:                                               ; preds = %89
  %92 = lshr exact i64 %51, 5
  br label %93

93:                                               ; preds = %93, %91
  %94 = phi i64 [ %99, %93 ], [ %92, %91 ]
  %95 = phi ptr [ %98, %93 ], [ %14, %91 ]
  %96 = phi ptr [ %97, %93 ], [ %7, %91 ]
  tail call void @_ZNSt7__cxx1112basic_stringIcSt11char_traitsIcESaIcEE9_M_assignERKS4_(ptr noundef nonnull align 8 dereferenceable(32) %95, ptr noundef nonnull align 8 dereferenceable(32) %96)
  %97 = getelementptr inbounds %"class.std::__cxx11::basic_string", ptr %96, i64 1
  %98 = getelementptr inbounds %"class.std::__cxx11::basic_string", ptr %95, i64 1
  %99 = add nsw i64 %94, -1
  %100 = icmp ugt i64 %94, 1
  br i1 %100, label %93, label %101

101:                                              ; preds = %93
  %102 = load ptr, ptr %1, align 8, !tbaa !31
  %103 = load ptr, ptr %48, align 8, !tbaa !33
  %104 = load ptr, ptr %0, align 8, !tbaa !31
  %105 = load ptr, ptr %5, align 8, !tbaa !33
  %106 = ptrtoint ptr %103 to i64
  %107 = ptrtoint ptr %104 to i64
  %108 = sub i64 %106, %107
  %109 = ashr exact i64 %108, 5
  br label %110

110:                                              ; preds = %101, %89
  %111 = phi i64 [ %109, %101 ], [ %52, %89 ]
  %112 = phi ptr [ %105, %101 ], [ %6, %89 ]
  %113 = phi ptr [ %103, %101 ], [ %49, %89 ]
  %114 = phi ptr [ %102, %101 ], [ %7, %89 ]
  %115 = getelementptr inbounds %"class.std::__cxx11::basic_string", ptr %114, i64 %111
  %116 = tail call noundef ptr @_ZSt16__do_uninit_copyIPNSt7__cxx1112basic_stringIcSt11char_traitsIcESaIcEEES6_ET0_T_S8_S7_(ptr noundef %115, ptr noundef %112, ptr noundef %113)
  br label %117

117:                                              ; preds = %86, %69, %110, %45
  %118 = load ptr, ptr %0, align 8, !tbaa !31
  %119 = getelementptr inbounds %"class.std::__cxx11::basic_string", ptr %118, i64 %11
  %120 = getelementptr inbounds %"struct.std::_Vector_base<std::__cxx11::basic_string<char>, std::allocator<std::__cxx11::basic_string<char> > >::_Vector_impl_data", ptr %0, i64 0, i32 1
  store ptr %119, ptr %120, align 8, !tbaa !33
  br label %121

121:                                              ; preds = %117, %2
  ret ptr %0
}

; Function Attrs: sspstrong uwtable
define weak_odr dso_local void @_ZN6dealii12DataOutStackILi3ELi3ENS_10DoFHandlerILi3ELi3EEEE13build_patchesEj(ptr noundef nonnull align 8 dereferenceable(232) %0, i32 noundef %1) local_unnamed_addr #0 comdat align 2 personality ptr @__gxx_personality_v0 {
  %3 = alloca %"class.dealii::TriaActiveIterator", align 8
  %4 = alloca %"class.dealii::TriaRawIterator", align 8
  %5 = alloca %"class.dealii::QTrapez", align 8
  %6 = alloca %"class.dealii::QIterated", align 8
  %7 = alloca %"class.dealii::hp::QCollection", align 8
  %8 = alloca %"class.dealii::hp::FECollection", align 8
  %9 = alloca %"class.dealii::hp::FEValues", align 8
  %10 = alloca %"class.std::vector.95", align 8
  %11 = alloca %"class.std::vector.117", align 8
  %12 = alloca %"class.dealii::Vector", align 8
  %13 = alloca %"class.std::allocator.119", align 1
  %14 = alloca %"struct.dealii::DataOutBase::Patch", align 8
  %15 = alloca %"class.dealii::TriaActiveIterator", align 8
  %16 = alloca %"class.dealii::TriaRawIterator", align 8
  %17 = icmp eq i32 %1, 0
  %18 = getelementptr inbounds %"class.dealii::DataOutInterface", ptr %0, i64 0, i32 1
  %19 = load i32, ptr %18, align 8
  %20 = select i1 %17, i32 %19, i32 %1
  %21 = getelementptr inbounds %"class.dealii::DataOutStack", ptr %0, i64 0, i32 3
  %22 = load ptr, ptr %21, align 8, !tbaa !64
  %23 = getelementptr inbounds %"class.dealii::DoFHandler", ptr %22, i64 0, i32 2
  %24 = load ptr, ptr %23, align 8, !tbaa !68
  %25 = getelementptr inbounds i8, ptr %24, i64 116
  %26 = load i32, ptr %25, align 4, !tbaa !70
  %27 = getelementptr inbounds %"class.dealii::DataOutStack", ptr %0, i64 0, i32 5
  %28 = getelementptr inbounds %"class.dealii::DataOutStack", ptr %0, i64 0, i32 5, i32 0, i32 0, i32 0, i32 1
  %29 = load ptr, ptr %28, align 8, !tbaa !30
  %30 = load ptr, ptr %27, align 8, !tbaa !28
  %31 = ptrtoint ptr %29 to i64
  %32 = ptrtoint ptr %30 to i64
  %33 = sub i64 %31, %32
  %34 = sdiv exact i64 %33, 112
  %35 = zext i32 %26 to i64
  %36 = mul i64 %34, %35
  %37 = getelementptr inbounds %"class.dealii::DataOutStack", ptr %0, i64 0, i32 6
  %38 = getelementptr inbounds %"class.dealii::DataOutStack", ptr %0, i64 0, i32 6, i32 0, i32 0, i32 0, i32 1
  %39 = load ptr, ptr %38, align 8, !tbaa !30
  %40 = load ptr, ptr %37, align 8, !tbaa !28
  %41 = ptrtoint ptr %39 to i64
  %42 = ptrtoint ptr %40 to i64
  %43 = sub i64 %41, %42
  %44 = sdiv exact i64 %43, 112
  %45 = add i64 %44, %36
  %46 = trunc i64 %45 to i32
  call void @llvm.lifetime.start.p0(i64 24, ptr nonnull %3) #18
  call void @_ZNK6dealii10DoFHandlerILi3ELi3EE12begin_activeEj(ptr nonnull sret(%"class.dealii::TriaActiveIterator") align 8 %3, ptr noundef nonnull align 8 dereferenceable(168) %22, i32 noundef 0)
  call void @llvm.lifetime.start.p0(i64 24, ptr nonnull %4) #18
  %47 = load ptr, ptr %21, align 8, !tbaa !64
  call void @_ZNK6dealii10DoFHandlerILi3ELi3EE3endEv(ptr nonnull sret(%"class.dealii::TriaRawIterator") align 8 %4, ptr noundef nonnull align 8 dereferenceable(168) %47)
  %48 = getelementptr inbounds %"class.dealii::TriaAccessorBase", ptr %3, i64 0, i32 1
  %49 = load i32, ptr %48, align 4
  %50 = getelementptr inbounds %"class.dealii::TriaAccessorBase", ptr %4, i64 0, i32 1
  %51 = load i32, ptr %50, align 4, !tbaa !73
  %52 = icmp ne i32 %49, %51
  %53 = load i32, ptr %3, align 8
  %54 = load i32, ptr %4, align 8
  %55 = icmp ne i32 %53, %54
  %56 = select i1 %52, i1 true, i1 %55
  call void @llvm.lifetime.end.p0(i64 24, ptr nonnull %4) #18
  br i1 %56, label %57, label %59

57:                                               ; preds = %2
  %58 = getelementptr inbounds %"class.dealii::TriaAccessorBase", ptr %3, i64 0, i32 2
  br label %61

59:                                               ; preds = %156, %2
  %60 = phi i32 [ 0, %2 ], [ %65, %156 ]
  call void @llvm.lifetime.end.p0(i64 24, ptr nonnull %3) #18
  call void @llvm.lifetime.start.p0(i64 128, ptr nonnull %5) #18
  call void @_ZN6dealii7QTrapezILi1EEC1Ev(ptr noundef nonnull align 8 dereferenceable(128) %5)
  call void @llvm.lifetime.start.p0(i64 128, ptr nonnull %6) #18
  invoke void @_ZN6dealii9QIteratedILi3EEC1ERKNS_10QuadratureILi1EEEj(ptr noundef nonnull align 8 dereferenceable(128) %6, ptr noundef nonnull align 8 dereferenceable(128) %5, i32 noundef %20)
          to label %165 unwind label %320

61:                                               ; preds = %57, %156
  %62 = phi i32 [ %53, %57 ], [ %161, %156 ]
  %63 = phi i32 [ %49, %57 ], [ %158, %156 ]
  %64 = phi i32 [ 0, %57 ], [ %65, %156 ]
  %65 = add i32 %64, 1
  %66 = load ptr, ptr %58, align 8, !tbaa !75
  %67 = getelementptr inbounds %"class.dealii::Triangulation", ptr %66, i64 0, i32 1
  %68 = load ptr, ptr %67, align 8, !tbaa !76
  %69 = ptrtoint ptr %68 to i64
  %70 = getelementptr inbounds %"class.dealii::Triangulation", ptr %66, i64 0, i32 1, i32 0, i32 0, i32 0, i32 1
  br label %71

71:                                               ; preds = %140, %61
  %72 = phi i32 [ %62, %61 ], [ %120, %140 ]
  %73 = phi i32 [ %62, %61 ], [ %141, %140 ]
  %74 = phi i32 [ %63, %61 ], [ %121, %140 ]
  %75 = add nsw i32 %74, 1
  %76 = sext i32 %73 to i64
  %77 = getelementptr inbounds ptr, ptr %68, i64 %76
  %78 = load ptr, ptr %77, align 8, !tbaa !65
  %79 = getelementptr inbounds %"class.dealii::internal::Triangulation::TriaLevel", ptr %78, i64 0, i32 4
  %80 = getelementptr inbounds %"class.dealii::internal::Triangulation::TriaLevel", ptr %78, i64 0, i32 4, i32 0, i32 0, i32 0, i32 0, i32 0, i32 1
  %81 = load ptr, ptr %80, align 8, !tbaa !78
  %82 = load ptr, ptr %79, align 8, !tbaa !80
  %83 = ptrtoint ptr %81 to i64
  %84 = ptrtoint ptr %82 to i64
  %85 = sub i64 %83, %84
  %86 = sdiv exact i64 %85, 24
  %87 = trunc i64 %86 to i32
  %88 = icmp slt i32 %75, %87
  br i1 %88, label %119, label %89

89:                                               ; preds = %71
  %90 = add nsw i64 %76, 1
  %91 = trunc i64 %90 to i32
  store i32 %91, ptr %3, align 8, !tbaa !81
  %92 = load ptr, ptr %70, align 8, !tbaa !82
  %93 = ptrtoint ptr %92 to i64
  %94 = sub i64 %93, %69
  %95 = shl i64 %94, 29
  %96 = ashr i64 %95, 32
  %97 = icmp slt i64 %90, %96
  br i1 %97, label %98, label %116

98:                                               ; preds = %89, %112
  %99 = phi i64 [ %113, %112 ], [ %90, %89 ]
  %100 = getelementptr inbounds ptr, ptr %68, i64 %99
  %101 = load ptr, ptr %100, align 8, !tbaa !65
  %102 = getelementptr inbounds %"class.dealii::internal::Triangulation::TriaLevel", ptr %101, i64 0, i32 4
  %103 = getelementptr inbounds %"class.dealii::internal::Triangulation::TriaLevel", ptr %101, i64 0, i32 4, i32 0, i32 0, i32 0, i32 0, i32 0, i32 1
  %104 = load ptr, ptr %103, align 8, !tbaa !78
  %105 = load ptr, ptr %102, align 8, !tbaa !80
  %106 = ptrtoint ptr %104 to i64
  %107 = ptrtoint ptr %105 to i64
  %108 = sub i64 %106, %107
  %109 = sdiv exact i64 %108, 24
  %110 = trunc i64 %109 to i32
  %111 = icmp sgt i32 %110, 0
  br i1 %111, label %117, label %112

112:                                              ; preds = %98
  %113 = add i64 %99, 1
  %114 = trunc i64 %113 to i32
  store i32 %114, ptr %3, align 8, !tbaa !81
  %115 = icmp eq i64 %113, %96
  br i1 %115, label %116, label %98, !llvm.loop !83

116:                                              ; preds = %112, %89
  store i32 -1, ptr %3, align 8, !tbaa !81
  br label %119

117:                                              ; preds = %98
  %118 = trunc i64 %99 to i32
  br label %119

119:                                              ; preds = %117, %116, %71
  %120 = phi i32 [ %72, %71 ], [ -1, %116 ], [ %118, %117 ]
  %121 = phi i32 [ %75, %71 ], [ -1, %116 ], [ 0, %117 ]
  %122 = phi i32 [ %73, %71 ], [ -1, %116 ], [ %118, %117 ]
  %123 = or i32 %122, %121
  %124 = icmp sgt i32 %123, -1
  br i1 %124, label %125, label %142

125:                                              ; preds = %119
  %126 = zext i32 %122 to i64
  %127 = getelementptr inbounds ptr, ptr %68, i64 %126
  %128 = load ptr, ptr %127, align 8, !tbaa !65
  %129 = getelementptr inbounds %"class.dealii::internal::Triangulation::TriaLevel", ptr %128, i64 0, i32 4, i32 0, i32 3
  %130 = load ptr, ptr %129, align 8, !tbaa !85
  %131 = lshr i32 %121, 6
  %132 = zext i32 %131 to i64
  %133 = getelementptr inbounds i64, ptr %130, i64 %132
  %134 = and i32 %121, 63
  %135 = zext i32 %134 to i64
  %136 = shl nuw i64 1, %135
  %137 = load i64, ptr %133, align 8, !tbaa !87
  %138 = and i64 %137, %136
  %139 = icmp eq i64 %138, 0
  br i1 %139, label %140, label %142

140:                                              ; preds = %125, %145
  %141 = phi i32 [ %122, %125 ], [ %120, %145 ]
  br label %71

142:                                              ; preds = %125, %119
  store i32 %121, ptr %48, align 4, !tbaa !73
  %143 = or i32 %121, %120
  %144 = icmp sgt i32 %143, -1
  br i1 %144, label %145, label %156

145:                                              ; preds = %142
  %146 = zext i32 %120 to i64
  %147 = getelementptr inbounds ptr, ptr %68, i64 %146
  %148 = load ptr, ptr %147, align 8, !tbaa !65
  %149 = getelementptr inbounds %"class.dealii::internal::Triangulation::TriaLevel", ptr %148, i64 0, i32 4, i32 0, i32 1
  %150 = shl i32 %121, 2
  %151 = zext i32 %150 to i64
  %152 = load ptr, ptr %149, align 8, !tbaa !88
  %153 = getelementptr inbounds i32, ptr %152, i64 %151
  %154 = load i32, ptr %153, align 4, !tbaa !90
  %155 = icmp eq i32 %154, -1
  br i1 %155, label %156, label %140

156:                                              ; preds = %142, %145
  call void @llvm.lifetime.start.p0(i64 24, ptr nonnull %4) #18
  %157 = load ptr, ptr %21, align 8, !tbaa !64
  call void @_ZNK6dealii10DoFHandlerILi3ELi3EE3endEv(ptr nonnull sret(%"class.dealii::TriaRawIterator") align 8 %4, ptr noundef nonnull align 8 dereferenceable(168) %157)
  %158 = load i32, ptr %48, align 4
  %159 = load i32, ptr %50, align 4, !tbaa !73
  %160 = icmp ne i32 %158, %159
  %161 = load i32, ptr %3, align 8
  %162 = load i32, ptr %4, align 8
  %163 = icmp ne i32 %161, %162
  %164 = select i1 %160, i1 true, i1 %163
  call void @llvm.lifetime.end.p0(i64 24, ptr nonnull %4) #18
  br i1 %164, label %61, label %59

165:                                              ; preds = %59
  call void @llvm.lifetime.start.p0(i64 96, ptr nonnull %7) #18
  invoke void @_ZN6dealii2hp11QCollectionILi3EEC2ERKNS_10QuadratureILi3EEE(ptr noundef nonnull align 8 dereferenceable(96) %7, ptr noundef nonnull align 8 dereferenceable(128) %6)
          to label %166 unwind label %322

166:                                              ; preds = %165
  call void @llvm.lifetime.start.p0(i64 96, ptr nonnull %8) #18
  %167 = load ptr, ptr %21, align 8, !tbaa !64
  %168 = getelementptr inbounds %"class.dealii::DoFHandler", ptr %167, i64 0, i32 2
  %169 = load ptr, ptr %168, align 8, !tbaa !68
  invoke void @_ZN6dealii2hp12FECollectionILi3ELi3EEC1ERKNS_13FiniteElementILi3ELi3EEE(ptr noundef nonnull align 8 dereferenceable(96) %8, ptr noundef nonnull align 8 dereferenceable(728) %169)
          to label %170 unwind label %324

170:                                              ; preds = %166
  call void @llvm.lifetime.start.p0(i64 240, ptr nonnull %9) #18
  invoke void @_ZN6dealii2hp8FEValuesILi3ELi3EEC1ERKNS0_12FECollectionILi3ELi3EEERKNS0_11QCollectionILi3EEENS_11UpdateFlagsE(ptr noundef nonnull align 8 dereferenceable(240) %9, ptr noundef nonnull align 8 dereferenceable(96) %8, ptr noundef nonnull align 8 dereferenceable(96) %7, i32 noundef 1)
          to label %171 unwind label %326

171:                                              ; preds = %170
  %172 = getelementptr inbounds %"class.dealii::Quadrature.100", ptr %6, i64 0, i32 1
  %173 = load i32, ptr %172, align 8, !tbaa !91
  call void @llvm.lifetime.start.p0(i64 24, ptr nonnull %10) #18
  %174 = zext i32 %173 to i64
  %175 = icmp eq i32 %173, 0
  br i1 %175, label %176, label %177

176:                                              ; preds = %171
  call void @llvm.memset.p0.i64(ptr noundef nonnull align 8 dereferenceable(24) %10, i8 0, i64 24, i1 false)
  br label %183

177:                                              ; preds = %171
  %178 = shl nuw nsw i64 %174, 3
  %179 = invoke noalias noundef nonnull ptr @_Znwm(i64 noundef %178) #19
          to label %180 unwind label %328

180:                                              ; preds = %177
  store ptr %179, ptr %10, align 8, !tbaa !101
  %181 = getelementptr inbounds double, ptr %179, i64 %174
  %182 = getelementptr inbounds %"struct.std::_Vector_base<double, std::allocator<double> >::_Vector_impl_data", ptr %10, i64 0, i32 2
  store ptr %181, ptr %182, align 8, !tbaa !102
  call void @llvm.memset.p0.i64(ptr nonnull align 8 %179, i8 0, i64 %178, i1 false), !tbaa !103
  br label %183

183:                                              ; preds = %180, %176
  %184 = phi ptr [ null, %176 ], [ %181, %180 ]
  %185 = getelementptr inbounds %"struct.std::_Vector_base<double, std::allocator<double> >::_Vector_impl_data", ptr %10, i64 0, i32 1
  store ptr %184, ptr %185, align 8, !tbaa !104
  call void @llvm.lifetime.start.p0(i64 24, ptr nonnull %11) #18
  call void @llvm.lifetime.start.p0(i64 88, ptr nonnull %12) #18
  invoke void @_ZN6dealii11SubscriptorC2Ev(ptr noundef nonnull align 8 dereferenceable(72) %12)
          to label %186 unwind label %330

186:                                              ; preds = %183
  store ptr getelementptr inbounds ({ [6 x ptr] }, ptr @_ZTVN6dealii6VectorIdEE, i64 0, inrange i32 0, i64 2), ptr %12, align 8, !tbaa !5
  %187 = getelementptr inbounds %"class.dealii::Vector", ptr %12, i64 0, i32 1
  call void @llvm.memset.p0.i64(ptr noundef nonnull align 8 dereferenceable(16) %187, i8 0, i64 16, i1 false)
  %188 = icmp eq i32 %26, 0
  br i1 %188, label %200, label %189

189:                                              ; preds = %186
  %190 = shl nuw nsw i64 %35, 3
  %191 = invoke noalias noundef nonnull ptr @_Znam(i64 noundef %190) #19
          to label %192 unwind label %195

192:                                              ; preds = %189
  %193 = getelementptr inbounds %"class.dealii::Vector", ptr %12, i64 0, i32 3
  %194 = getelementptr inbounds %"class.dealii::Vector", ptr %12, i64 0, i32 2
  store ptr %191, ptr %193, align 8, !tbaa !38
  store i32 %26, ptr %194, align 4, !tbaa !105
  store i32 %26, ptr %187, align 8, !tbaa !106
  call void @llvm.memset.p0.i64(ptr nonnull align 8 %191, i8 0, i64 %190, i1 false), !tbaa !103
  br label %200

195:                                              ; preds = %189
  %196 = landingpad { ptr, i32 }
          cleanup
  invoke void @_ZN6dealii11SubscriptorD2Ev(ptr noundef nonnull align 8 dereferenceable(72) %12)
          to label %334 unwind label %197

197:                                              ; preds = %195
  %198 = landingpad { ptr, i32 }
          catch ptr null
  %199 = extractvalue { ptr, i32 } %198, 0
  call void @__clang_call_terminate(ptr %199) #17
  unreachable

200:                                              ; preds = %192, %186
  call void @llvm.lifetime.start.p0(i64 1, ptr nonnull %13) #18
  invoke void @_ZNSt6vectorIN6dealii6VectorIdEESaIS2_EEC2EmRKS2_RKS3_(ptr noundef nonnull align 8 dereferenceable(24) %11, i64 noundef %174, ptr noundef nonnull align 8 dereferenceable(88) %12, ptr noundef nonnull align 1 dereferenceable(1) %13)
          to label %201 unwind label %332

201:                                              ; preds = %200
  call void @llvm.lifetime.end.p0(i64 1, ptr nonnull %13) #18
  store ptr getelementptr inbounds ({ [6 x ptr] }, ptr @_ZTVN6dealii6VectorIdEE, i64 0, inrange i32 0, i64 2), ptr %12, align 8, !tbaa !5
  %202 = getelementptr inbounds %"class.dealii::Vector", ptr %12, i64 0, i32 3
  %203 = load ptr, ptr %202, align 8, !tbaa !38
  %204 = icmp eq ptr %203, null
  br i1 %204, label %206, label %205

205:                                              ; preds = %201
  call void @_ZdaPv(ptr noundef nonnull %203) #16
  store ptr null, ptr %202, align 8, !tbaa !38
  br label %206

206:                                              ; preds = %205, %201
  invoke void @_ZN6dealii11SubscriptorD2Ev(ptr noundef nonnull align 8 dereferenceable(72) %12)
          to label %207 unwind label %330

207:                                              ; preds = %206
  call void @llvm.lifetime.end.p0(i64 88, ptr nonnull %12) #18
  call void @llvm.lifetime.start.p0(i64 656, ptr nonnull %14) #18
  invoke void @_ZN6dealii11DataOutBase5PatchILi4ELi4EEC1Ev(ptr noundef nonnull align 8 dereferenceable(649) %14)
          to label %208 unwind label %336

208:                                              ; preds = %207
  %209 = getelementptr inbounds %"struct.dealii::DataOutBase::Patch", ptr %14, i64 0, i32 3
  store i32 %20, ptr %209, align 4, !tbaa !107
  %210 = getelementptr inbounds %"struct.dealii::DataOutBase::Patch", ptr %14, i64 0, i32 4
  %211 = add i32 %20, 1
  %212 = mul i32 %173, %211
  %213 = getelementptr inbounds %"struct.dealii::DataOutBase::Patch", ptr %14, i64 0, i32 4, i32 0, i32 3
  %214 = zext i32 %212 to i64
  %215 = shl nuw i64 %214, 32
  %216 = and i64 %45, 4294967295
  %217 = or i64 %215, %216
  store i64 %217, ptr %213, align 4
  %218 = getelementptr inbounds %"struct.dealii::DataOutBase::Patch", ptr %14, i64 0, i32 4, i32 0, i32 3, i32 0, i32 0, i64 1
  %219 = mul i32 %212, %46
  %220 = icmp eq i32 %219, 0
  br i1 %220, label %221, label %227

221:                                              ; preds = %208
  %222 = getelementptr inbounds %"struct.dealii::DataOutBase::Patch", ptr %14, i64 0, i32 4, i32 0, i32 1
  %223 = load ptr, ptr %222, align 8, !tbaa !13
  %224 = icmp eq ptr %223, null
  br i1 %224, label %226, label %225

225:                                              ; preds = %221
  call void @_ZdaPv(ptr noundef nonnull %223) #16
  br label %226

226:                                              ; preds = %225, %221
  call void @llvm.memset.p0.i64(ptr noundef nonnull align 8 dereferenceable(20) %222, i8 0, i64 20, i1 false)
  br label %251

227:                                              ; preds = %208
  %228 = getelementptr inbounds %"struct.dealii::DataOutBase::Patch", ptr %14, i64 0, i32 4, i32 0, i32 2
  %229 = load i32, ptr %228, align 8, !tbaa !110
  %230 = icmp ult i32 %229, %219
  %231 = getelementptr inbounds %"struct.dealii::DataOutBase::Patch", ptr %14, i64 0, i32 4, i32 0, i32 1
  %232 = load ptr, ptr %231, align 8, !tbaa !13
  br i1 %230, label %233, label %246

233:                                              ; preds = %227
  %234 = icmp eq ptr %232, null
  br i1 %234, label %239, label %235

235:                                              ; preds = %233
  call void @_ZdaPv(ptr noundef nonnull %232) #16
  %236 = load i32, ptr %213, align 4, !tbaa !90
  %237 = load i32, ptr %218, align 8, !tbaa !90
  %238 = mul i32 %237, %236
  br label %239

239:                                              ; preds = %235, %233
  %240 = phi i32 [ %238, %235 ], [ %219, %233 ]
  store i32 %219, ptr %228, align 8, !tbaa !110
  %241 = zext i32 %219 to i64
  %242 = shl nuw nsw i64 %241, 2
  %243 = invoke noalias noundef nonnull ptr @_Znam(i64 noundef %242) #19
          to label %244 unwind label %338

244:                                              ; preds = %239
  store ptr %243, ptr %231, align 8, !tbaa !13
  %245 = icmp eq i32 %240, 0
  br i1 %245, label %251, label %246

246:                                              ; preds = %244, %227
  %247 = phi ptr [ %243, %244 ], [ %232, %227 ]
  %248 = phi i32 [ %240, %244 ], [ %219, %227 ]
  %249 = zext i32 %248 to i64
  %250 = shl nuw nsw i64 %249, 2
  call void @llvm.memset.p0.i64(ptr align 4 %247, i8 0, i64 %250, i1 false), !tbaa !111
  br label %251

251:                                              ; preds = %226, %244, %246
  %252 = getelementptr inbounds %"class.dealii::DataOutStack", ptr %0, i64 0, i32 4
  %253 = getelementptr inbounds %"class.dealii::DataOutStack", ptr %0, i64 0, i32 4, i32 0, i32 0, i32 0, i32 1
  %254 = load ptr, ptr %253, align 8, !tbaa !65
  %255 = zext i32 %60 to i64
  invoke void @_ZNSt6vectorIN6dealii11DataOutBase5PatchILi4ELi4EEESaIS3_EE14_M_fill_insertEN9__gnu_cxx17__normal_iteratorIPS3_S5_EEmRKS3_(ptr noundef nonnull align 8 dereferenceable(24) %252, ptr %254, i64 noundef %255, ptr noundef nonnull align 8 dereferenceable(649) %14)
          to label %256 unwind label %338

256:                                              ; preds = %251
  %257 = load ptr, ptr %252, align 8, !tbaa !65
  %258 = load ptr, ptr %253, align 8, !tbaa !12
  call void @llvm.lifetime.start.p0(i64 24, ptr nonnull %15) #18
  %259 = load ptr, ptr %21, align 8, !tbaa !64
  invoke void @_ZNK6dealii10DoFHandlerILi3ELi3EE12begin_activeEj(ptr nonnull sret(%"class.dealii::TriaActiveIterator") align 8 %15, ptr noundef nonnull align 8 dereferenceable(168) %259, i32 noundef 0)
          to label %260 unwind label %342

260:                                              ; preds = %256
  %261 = ptrtoint ptr %258 to i64
  %262 = ptrtoint ptr %257 to i64
  %263 = sub i64 %261, %262
  %264 = sdiv exact i64 %263, 656
  %265 = sub nsw i64 %264, %255
  %266 = getelementptr inbounds %"struct.dealii::DataOutBase::Patch", ptr %257, i64 %265
  %267 = getelementptr inbounds %"class.dealii::TriaAccessorBase", ptr %15, i64 0, i32 1
  %268 = getelementptr inbounds %"class.dealii::TriaAccessorBase", ptr %16, i64 0, i32 1
  %269 = icmp eq i32 %46, 0
  %270 = getelementptr inbounds %"class.dealii::internal::hp::FEValuesBase", ptr %9, i64 0, i32 4
  %271 = getelementptr inbounds %"class.dealii::internal::hp::FEValuesBase", ptr %9, i64 0, i32 3, i32 0, i32 1
  %272 = getelementptr inbounds %"class.dealii::internal::hp::FEValuesBase", ptr %9, i64 0, i32 3, i32 0, i32 3, i32 0, i32 0, i64 1
  %273 = getelementptr inbounds %"class.dealii::internal::hp::FEValuesBase", ptr %9, i64 0, i32 4, i32 0, i32 0, i64 1
  %274 = getelementptr inbounds %"class.dealii::internal::hp::FEValuesBase", ptr %9, i64 0, i32 3, i32 0, i32 3, i32 0, i32 0, i64 2
  %275 = getelementptr inbounds %"class.dealii::internal::hp::FEValuesBase", ptr %9, i64 0, i32 4, i32 0, i32 0, i64 2
  %276 = icmp eq i32 %26, 1
  %277 = icmp eq i32 %211, 0
  %278 = getelementptr inbounds %"class.dealii::TriaAccessorBase", ptr %15, i64 0, i32 2
  %279 = zext i32 %211 to i64
  %280 = add nsw i64 %279, -1
  %281 = add nsw i64 %174, -1
  %282 = or i1 %277, %175
  %283 = and i64 %174, 1
  %284 = icmp eq i32 %173, 1
  %285 = and i64 %174, 4294967294
  %286 = icmp eq i64 %283, 0
  %287 = icmp ult i32 %173, 16
  %288 = trunc i64 %281 to i32
  %289 = icmp ugt i64 %281, 4294967295
  %290 = and i64 %174, 4294967280
  %291 = icmp eq i64 %290, %174
  %292 = and i64 %174, 1
  %293 = icmp eq i64 %292, 0
  %294 = sub nsw i64 0, %174
  %295 = icmp ult i32 %211, 32
  %296 = trunc i64 %280 to i32
  %297 = icmp ugt i64 %280, 4294967295
  %298 = and i64 %279, 4294967264
  %299 = icmp eq i64 %298, %279
  %300 = and i64 %279, 3
  %301 = icmp eq i64 %300, 0
  br label %302

302:                                              ; preds = %260, %766
  %303 = phi ptr [ %767, %766 ], [ %266, %260 ]
  %304 = phi i32 [ %768, %766 ], [ 0, %260 ]
  call void @llvm.lifetime.start.p0(i64 24, ptr nonnull %16) #18
  %305 = load ptr, ptr %21, align 8, !tbaa !64
  invoke void @_ZNK6dealii10DoFHandlerILi3ELi3EE3endEv(ptr nonnull sret(%"class.dealii::TriaRawIterator") align 8 %16, ptr noundef nonnull align 8 dereferenceable(168) %305)
          to label %306 unwind label %344

306:                                              ; preds = %302
  %307 = load i32, ptr %267, align 4, !tbaa !73
  %308 = load i32, ptr %268, align 4, !tbaa !73
  %309 = icmp ne i32 %307, %308
  %310 = load i32, ptr %15, align 8
  %311 = load i32, ptr %16, align 8
  %312 = icmp ne i32 %310, %311
  %313 = select i1 %309, i1 true, i1 %312
  call void @llvm.lifetime.end.p0(i64 24, ptr nonnull %16) #18
  br i1 %313, label %346, label %314

314:                                              ; preds = %306
  call void @llvm.lifetime.end.p0(i64 24, ptr nonnull %15) #18
  store ptr getelementptr inbounds ({ [4 x ptr] }, ptr @_ZTVN6dealii9TableBaseILi2EfEE, i64 0, inrange i32 0, i64 2), ptr %210, align 8, !tbaa !5
  %315 = getelementptr inbounds %"struct.dealii::DataOutBase::Patch", ptr %14, i64 0, i32 4, i32 0, i32 1
  %316 = load ptr, ptr %315, align 8, !tbaa !13
  %317 = icmp eq ptr %316, null
  br i1 %317, label %319, label %318

318:                                              ; preds = %314
  call void @_ZdaPv(ptr noundef nonnull %316) #16
  br label %319

319:                                              ; preds = %318, %314
  invoke void @_ZN6dealii11SubscriptorD2Ev(ptr noundef nonnull align 8 dereferenceable(72) %210)
          to label %771 unwind label %336

320:                                              ; preds = %810, %59
  %321 = landingpad { ptr, i32 }
          cleanup
  br label %829

322:                                              ; preds = %809, %165
  %323 = landingpad { ptr, i32 }
          cleanup
  br label %827

324:                                              ; preds = %808, %166
  %325 = landingpad { ptr, i32 }
          cleanup
  br label %825

326:                                              ; preds = %800, %170
  %327 = landingpad { ptr, i32 }
          cleanup
  br label %823

328:                                              ; preds = %177
  %329 = landingpad { ptr, i32 }
          cleanup
  br label %821

330:                                              ; preds = %206, %183
  %331 = landingpad { ptr, i32 }
          cleanup
  br label %334

332:                                              ; preds = %200
  %333 = landingpad { ptr, i32 }
          cleanup
  call void @llvm.lifetime.end.p0(i64 1, ptr nonnull %13) #18
  invoke void @_ZN6dealii6VectorIdED2Ev(ptr noundef nonnull align 8 dereferenceable(88) %12)
          to label %334 unwind label %832

334:                                              ; preds = %330, %195, %332
  %335 = phi { ptr, i32 } [ %333, %332 ], [ %331, %330 ], [ %196, %195 ]
  call void @llvm.lifetime.end.p0(i64 88, ptr nonnull %12) #18
  br label %816

336:                                              ; preds = %319, %207
  %337 = landingpad { ptr, i32 }
          cleanup
  br label %814

338:                                              ; preds = %251, %239
  %339 = landingpad { ptr, i32 }
          cleanup
  br label %812

340:                                              ; preds = %347
  %341 = landingpad { ptr, i32 }
          cleanup
  br label %769

342:                                              ; preds = %256
  %343 = landingpad { ptr, i32 }
          cleanup
  br label %769

344:                                              ; preds = %302
  %345 = landingpad { ptr, i32 }
          cleanup
  call void @llvm.lifetime.end.p0(i64 24, ptr nonnull %16) #18
  br label %769

346:                                              ; preds = %306
  br i1 %269, label %673, label %347

347:                                              ; preds = %346
  invoke void @_ZN6dealii2hp8FEValuesILi3ELi3EE6reinitERKNS_12TriaIteratorINS_15DoFCellAccessorINS_10DoFHandlerILi3ELi3EEEEEEEjjj(ptr noundef nonnull align 8 dereferenceable(240) %9, ptr noundef nonnull align 8 dereferenceable(24) %15, i32 noundef -1, i32 noundef -1, i32 noundef -1)
          to label %348 unwind label %340

348:                                              ; preds = %347
  %349 = load ptr, ptr %271, align 8, !tbaa !113
  %350 = load i32, ptr %270, align 8, !tbaa !90
  %351 = load i32, ptr %272, align 8, !tbaa !90
  %352 = mul i32 %351, %350
  %353 = load i32, ptr %273, align 4, !tbaa !90
  %354 = add i32 %352, %353
  %355 = load i32, ptr %274, align 4, !tbaa !90
  %356 = mul i32 %354, %355
  %357 = load i32, ptr %275, align 8, !tbaa !90
  %358 = add i32 %356, %357
  %359 = zext i32 %358 to i64
  %360 = getelementptr inbounds %"class.boost::shared_ptr", ptr %349, i64 %359
  %361 = load ptr, ptr %360, align 8, !tbaa !117
  %362 = load ptr, ptr %28, align 8, !tbaa !30
  %363 = load ptr, ptr %27, align 8, !tbaa !28
  %364 = ptrtoint ptr %362 to i64
  %365 = ptrtoint ptr %363 to i64
  %366 = sub i64 %364, %365
  %367 = sdiv exact i64 %366, 112
  %368 = icmp eq ptr %362, %363
  br i1 %368, label %470, label %369

369:                                              ; preds = %348
  %370 = getelementptr inbounds %"struct.dealii::DataOutBase::Patch", ptr %303, i64 0, i32 4, i32 0, i32 1
  %371 = getelementptr inbounds %"struct.dealii::DataOutBase::Patch", ptr %303, i64 0, i32 4, i32 0, i32 3, i32 0, i32 0, i64 1
  br i1 %276, label %372, label %592

372:                                              ; preds = %369, %378
  %373 = phi ptr [ %382, %378 ], [ %363, %369 ]
  %374 = phi i64 [ %380, %378 ], [ 0, %369 ]
  %375 = phi i32 [ %379, %378 ], [ 0, %369 ]
  %376 = getelementptr inbounds %"struct.dealii::DataOutStack<3, 3>::DataVector", ptr %373, i64 %374
  invoke void @_ZNK6dealii12FEValuesBaseILi3ELi3EE19get_function_valuesINS_6VectorIdEEdEEvRKT_RSt6vectorIT0_SaIS9_EE(ptr noundef nonnull align 8 dereferenceable(648) %361, ptr noundef nonnull align 8 dereferenceable(88) %376, ptr noundef nonnull align 8 dereferenceable(24) %10)
          to label %377 unwind label %468

377:                                              ; preds = %372
  br i1 %277, label %378, label %388

378:                                              ; preds = %465, %388, %377
  %379 = add i32 %375, 1
  %380 = zext i32 %379 to i64
  %381 = load ptr, ptr %28, align 8, !tbaa !30
  %382 = load ptr, ptr %27, align 8, !tbaa !28
  %383 = ptrtoint ptr %381 to i64
  %384 = ptrtoint ptr %382 to i64
  %385 = sub i64 %383, %384
  %386 = sdiv exact i64 %385, 112
  %387 = icmp ugt i64 %386, %380
  br i1 %387, label %372, label %470

388:                                              ; preds = %377
  %389 = load ptr, ptr %10, align 8
  br i1 %175, label %378, label %390

390:                                              ; preds = %388
  %391 = load ptr, ptr %370, align 8, !tbaa !13
  %392 = load i32, ptr %371, align 8, !tbaa !90
  %393 = mul i32 %392, %375
  br label %394

394:                                              ; preds = %465, %390
  %395 = phi i32 [ 0, %390 ], [ %466, %465 ]
  %396 = mul i32 %395, %173
  br i1 %287, label %428, label %397

397:                                              ; preds = %394
  %398 = mul i32 %173, %395
  %399 = add i32 %393, %398
  %400 = xor i32 %399, -1
  %401 = icmp ult i32 %400, %288
  %402 = or i1 %401, %289
  br i1 %402, label %428, label %403

403:                                              ; preds = %397, %403
  %404 = phi i64 [ %425, %403 ], [ 0, %397 ]
  %405 = trunc i64 %404 to i32
  %406 = getelementptr inbounds double, ptr %389, i64 %404
  %407 = load <4 x double>, ptr %406, align 8, !tbaa !103
  %408 = getelementptr inbounds double, ptr %406, i64 4
  %409 = load <4 x double>, ptr %408, align 8, !tbaa !103
  %410 = getelementptr inbounds double, ptr %406, i64 8
  %411 = load <4 x double>, ptr %410, align 8, !tbaa !103
  %412 = getelementptr inbounds double, ptr %406, i64 12
  %413 = load <4 x double>, ptr %412, align 8, !tbaa !103
  %414 = fptrunc <4 x double> %407 to <4 x float>
  %415 = fptrunc <4 x double> %409 to <4 x float>
  %416 = fptrunc <4 x double> %411 to <4 x float>
  %417 = fptrunc <4 x double> %413 to <4 x float>
  %418 = add i32 %396, %405
  %419 = add i32 %418, %393
  %420 = zext i32 %419 to i64
  %421 = getelementptr inbounds float, ptr %391, i64 %420
  store <4 x float> %414, ptr %421, align 4, !tbaa !111
  %422 = getelementptr inbounds float, ptr %421, i64 4
  store <4 x float> %415, ptr %422, align 4, !tbaa !111
  %423 = getelementptr inbounds float, ptr %421, i64 8
  store <4 x float> %416, ptr %423, align 4, !tbaa !111
  %424 = getelementptr inbounds float, ptr %421, i64 12
  store <4 x float> %417, ptr %424, align 4, !tbaa !111
  %425 = add nuw i64 %404, 16
  %426 = icmp eq i64 %425, %290
  br i1 %426, label %427, label %403, !llvm.loop !120

427:                                              ; preds = %403
  br i1 %291, label %465, label %428

428:                                              ; preds = %397, %394, %427
  %429 = phi i64 [ 0, %397 ], [ 0, %394 ], [ %290, %427 ]
  %430 = xor i64 %429, -1
  br i1 %293, label %441, label %431

431:                                              ; preds = %428
  %432 = getelementptr inbounds double, ptr %389, i64 %429
  %433 = load double, ptr %432, align 8, !tbaa !103
  %434 = fptrunc double %433 to float
  %435 = trunc i64 %429 to i32
  %436 = add i32 %396, %435
  %437 = add i32 %436, %393
  %438 = zext i32 %437 to i64
  %439 = getelementptr inbounds float, ptr %391, i64 %438
  store float %434, ptr %439, align 4, !tbaa !111
  %440 = or i64 %429, 1
  br label %441

441:                                              ; preds = %431, %428
  %442 = phi i64 [ %429, %428 ], [ %440, %431 ]
  %443 = icmp eq i64 %430, %294
  br i1 %443, label %465, label %444

444:                                              ; preds = %441, %444
  %445 = phi i64 [ %463, %444 ], [ %442, %441 ]
  %446 = getelementptr inbounds double, ptr %389, i64 %445
  %447 = load double, ptr %446, align 8, !tbaa !103
  %448 = fptrunc double %447 to float
  %449 = trunc i64 %445 to i32
  %450 = add i32 %396, %449
  %451 = add i32 %450, %393
  %452 = zext i32 %451 to i64
  %453 = getelementptr inbounds float, ptr %391, i64 %452
  store float %448, ptr %453, align 4, !tbaa !111
  %454 = add nuw nsw i64 %445, 1
  %455 = getelementptr inbounds double, ptr %389, i64 %454
  %456 = load double, ptr %455, align 8, !tbaa !103
  %457 = fptrunc double %456 to float
  %458 = trunc i64 %454 to i32
  %459 = add i32 %396, %458
  %460 = add i32 %459, %393
  %461 = zext i32 %460 to i64
  %462 = getelementptr inbounds float, ptr %391, i64 %461
  store float %457, ptr %462, align 4, !tbaa !111
  %463 = add nuw nsw i64 %445, 2
  %464 = icmp eq i64 %463, %174
  br i1 %464, label %465, label %444, !llvm.loop !123

465:                                              ; preds = %441, %444, %427
  %466 = add nuw i32 %395, 1
  %467 = icmp eq i32 %395, %20
  br i1 %467, label %378, label %394

468:                                              ; preds = %372
  %469 = landingpad { ptr, i32 }
          cleanup
  br label %769

470:                                              ; preds = %658, %378, %348
  %471 = phi i64 [ %367, %348 ], [ %386, %378 ], [ %666, %658 ]
  %472 = load ptr, ptr %38, align 8, !tbaa !30
  %473 = load ptr, ptr %37, align 8, !tbaa !28
  %474 = ptrtoint ptr %472 to i64
  %475 = ptrtoint ptr %473 to i64
  %476 = sub i64 %474, %475
  %477 = sdiv exact i64 %476, 112
  %478 = icmp eq ptr %472, %473
  br i1 %478, label %673, label %479

479:                                              ; preds = %470
  %480 = zext i32 %304 to i64
  %481 = trunc i64 %471 to i32
  %482 = mul i32 %26, %481
  %483 = getelementptr inbounds %"struct.dealii::DataOutBase::Patch", ptr %303, i64 0, i32 4, i32 0, i32 1
  %484 = getelementptr inbounds %"struct.dealii::DataOutBase::Patch", ptr %303, i64 0, i32 4, i32 0, i32 3, i32 0, i32 0, i64 1
  br i1 %175, label %668, label %485

485:                                              ; preds = %479
  br i1 %277, label %585, label %486

486:                                              ; preds = %485
  %487 = load ptr, ptr %483, align 8, !tbaa !13
  %488 = load i32, ptr %484, align 8, !tbaa !90
  %489 = mul i32 %26, %488
  %490 = mul i32 %489, %481
  br label %491

491:                                              ; preds = %581, %486
  %492 = phi i64 [ 0, %486 ], [ %583, %581 ]
  %493 = phi i32 [ 0, %486 ], [ %582, %581 ]
  %494 = mul i32 %488, %493
  %495 = add i32 %490, %494
  %496 = getelementptr inbounds %"struct.dealii::DataOutStack<3, 3>::DataVector", ptr %473, i64 %492, i32 0, i32 3
  %497 = load ptr, ptr %496, align 8, !tbaa !38
  %498 = getelementptr inbounds double, ptr %497, i64 %480
  %499 = load double, ptr %498, align 8, !tbaa !103
  %500 = fptrunc double %499 to float
  %501 = add i32 %493, %482
  %502 = mul i32 %488, %501
  %503 = insertelement <8 x float> poison, float %500, i64 0
  %504 = shufflevector <8 x float> %503, <8 x float> poison, <8 x i32> zeroinitializer
  %505 = insertelement <8 x float> poison, float %500, i64 0
  %506 = shufflevector <8 x float> %505, <8 x float> poison, <8 x i32> zeroinitializer
  %507 = insertelement <8 x float> poison, float %500, i64 0
  %508 = shufflevector <8 x float> %507, <8 x float> poison, <8 x i32> zeroinitializer
  %509 = insertelement <8 x float> poison, float %500, i64 0
  %510 = shufflevector <8 x float> %509, <8 x float> poison, <8 x i32> zeroinitializer
  br label %511

511:                                              ; preds = %578, %491
  %512 = phi i32 [ 0, %491 ], [ %579, %578 ]
  %513 = mul i32 %512, %211
  br i1 %295, label %533, label %514

514:                                              ; preds = %511
  %515 = mul i32 %211, %512
  %516 = add i32 %495, %515
  %517 = xor i32 %516, -1
  %518 = icmp ult i32 %517, %296
  %519 = or i1 %518, %297
  br i1 %519, label %533, label %520

520:                                              ; preds = %514, %520
  %521 = phi i64 [ %530, %520 ], [ 0, %514 ]
  %522 = trunc i64 %521 to i32
  %523 = add i32 %513, %522
  %524 = add i32 %523, %502
  %525 = zext i32 %524 to i64
  %526 = getelementptr inbounds float, ptr %487, i64 %525
  store <8 x float> %504, ptr %526, align 4, !tbaa !111
  %527 = getelementptr inbounds float, ptr %526, i64 8
  store <8 x float> %506, ptr %527, align 4, !tbaa !111
  %528 = getelementptr inbounds float, ptr %526, i64 16
  store <8 x float> %508, ptr %528, align 4, !tbaa !111
  %529 = getelementptr inbounds float, ptr %526, i64 24
  store <8 x float> %510, ptr %529, align 4, !tbaa !111
  %530 = add nuw i64 %521, 32
  %531 = icmp eq i64 %530, %298
  br i1 %531, label %532, label %520, !llvm.loop !124

532:                                              ; preds = %520
  br i1 %299, label %578, label %533

533:                                              ; preds = %514, %511, %532
  %534 = phi i64 [ 0, %514 ], [ 0, %511 ], [ %298, %532 ]
  %535 = xor i64 %534, -1
  %536 = add nsw i64 %535, %279
  br i1 %301, label %548, label %537

537:                                              ; preds = %533, %537
  %538 = phi i64 [ %545, %537 ], [ %534, %533 ]
  %539 = phi i64 [ %546, %537 ], [ 0, %533 ]
  %540 = trunc i64 %538 to i32
  %541 = add i32 %513, %540
  %542 = add i32 %541, %502
  %543 = zext i32 %542 to i64
  %544 = getelementptr inbounds float, ptr %487, i64 %543
  store float %500, ptr %544, align 4, !tbaa !111
  %545 = add nuw nsw i64 %538, 1
  %546 = add i64 %539, 1
  %547 = icmp eq i64 %546, %300
  br i1 %547, label %548, label %537, !llvm.loop !125

548:                                              ; preds = %537, %533
  %549 = phi i64 [ %534, %533 ], [ %545, %537 ]
  %550 = icmp ult i64 %536, 3
  br i1 %550, label %578, label %551

551:                                              ; preds = %548, %551
  %552 = phi i64 [ %576, %551 ], [ %549, %548 ]
  %553 = trunc i64 %552 to i32
  %554 = add i32 %513, %553
  %555 = add i32 %554, %502
  %556 = zext i32 %555 to i64
  %557 = getelementptr inbounds float, ptr %487, i64 %556
  store float %500, ptr %557, align 4, !tbaa !111
  %558 = trunc i64 %552 to i32
  %559 = add i32 %558, 1
  %560 = add i32 %513, %559
  %561 = add i32 %560, %502
  %562 = zext i32 %561 to i64
  %563 = getelementptr inbounds float, ptr %487, i64 %562
  store float %500, ptr %563, align 4, !tbaa !111
  %564 = trunc i64 %552 to i32
  %565 = add i32 %564, 2
  %566 = add i32 %513, %565
  %567 = add i32 %566, %502
  %568 = zext i32 %567 to i64
  %569 = getelementptr inbounds float, ptr %487, i64 %568
  store float %500, ptr %569, align 4, !tbaa !111
  %570 = trunc i64 %552 to i32
  %571 = add i32 %570, 3
  %572 = add i32 %513, %571
  %573 = add i32 %572, %502
  %574 = zext i32 %573 to i64
  %575 = getelementptr inbounds float, ptr %487, i64 %574
  store float %500, ptr %575, align 4, !tbaa !111
  %576 = add nuw nsw i64 %552, 4
  %577 = icmp eq i64 %576, %279
  br i1 %577, label %578, label %551, !llvm.loop !127

578:                                              ; preds = %548, %551, %532
  %579 = add nuw i32 %512, 1
  %580 = icmp eq i32 %579, %173
  br i1 %580, label %581, label %511

581:                                              ; preds = %578
  %582 = add i32 %493, 1
  %583 = zext i32 %582 to i64
  %584 = icmp ugt i64 %477, %583
  br i1 %584, label %491, label %673

585:                                              ; preds = %485, %585
  %586 = phi i32 [ %587, %585 ], [ 0, %485 ]
  %587 = add i32 %586, 1
  %588 = zext i32 %587 to i64
  %589 = icmp ugt i64 %477, %588
  br i1 %589, label %585, label %673

590:                                              ; preds = %592
  %591 = landingpad { ptr, i32 }
          cleanup
  br label %769

592:                                              ; preds = %369, %658
  %593 = phi ptr [ %662, %658 ], [ %363, %369 ]
  %594 = phi i64 [ %660, %658 ], [ 0, %369 ]
  %595 = phi i32 [ %659, %658 ], [ 0, %369 ]
  %596 = getelementptr inbounds %"struct.dealii::DataOutStack<3, 3>::DataVector", ptr %593, i64 %594
  invoke void @_ZNK6dealii12FEValuesBaseILi3ELi3EE19get_function_valuesINS_6VectorIdEEdEEvRKT_RSt6vectorINS3_IT0_EESaISA_EE(ptr noundef nonnull align 8 dereferenceable(648) %361, ptr noundef nonnull align 8 dereferenceable(88) %596, ptr noundef nonnull align 8 dereferenceable(24) %11)
          to label %597 unwind label %590

597:                                              ; preds = %592
  br i1 %188, label %658, label %598

598:                                              ; preds = %597
  %599 = mul i32 %595, %26
  br i1 %282, label %658, label %600

600:                                              ; preds = %598
  %601 = load ptr, ptr %370, align 8, !tbaa !13
  %602 = load i32, ptr %371, align 8, !tbaa !90
  br label %603

603:                                              ; preds = %655, %600
  %604 = phi i64 [ %656, %655 ], [ 0, %600 ]
  %605 = load ptr, ptr %11, align 8
  %606 = trunc i64 %604 to i32
  %607 = add i32 %599, %606
  %608 = mul i32 %602, %607
  br label %609

609:                                              ; preds = %652, %603
  %610 = phi i32 [ 0, %603 ], [ %653, %652 ]
  %611 = mul i32 %610, %173
  br i1 %284, label %639, label %612

612:                                              ; preds = %609, %612
  %613 = phi i64 [ %636, %612 ], [ 0, %609 ]
  %614 = phi i64 [ %637, %612 ], [ 0, %609 ]
  %615 = getelementptr inbounds %"class.dealii::Vector", ptr %605, i64 %613, i32 3
  %616 = load ptr, ptr %615, align 8, !tbaa !38
  %617 = getelementptr inbounds double, ptr %616, i64 %604
  %618 = load double, ptr %617, align 8, !tbaa !103
  %619 = fptrunc double %618 to float
  %620 = trunc i64 %613 to i32
  %621 = add i32 %611, %620
  %622 = add i32 %621, %608
  %623 = zext i32 %622 to i64
  %624 = getelementptr inbounds float, ptr %601, i64 %623
  store float %619, ptr %624, align 4, !tbaa !111
  %625 = or i64 %613, 1
  %626 = getelementptr inbounds %"class.dealii::Vector", ptr %605, i64 %625, i32 3
  %627 = load ptr, ptr %626, align 8, !tbaa !38
  %628 = getelementptr inbounds double, ptr %627, i64 %604
  %629 = load double, ptr %628, align 8, !tbaa !103
  %630 = fptrunc double %629 to float
  %631 = trunc i64 %625 to i32
  %632 = add i32 %611, %631
  %633 = add i32 %632, %608
  %634 = zext i32 %633 to i64
  %635 = getelementptr inbounds float, ptr %601, i64 %634
  store float %630, ptr %635, align 4, !tbaa !111
  %636 = add nuw nsw i64 %613, 2
  %637 = add i64 %614, 2
  %638 = icmp eq i64 %637, %285
  br i1 %638, label %639, label %612

639:                                              ; preds = %612, %609
  %640 = phi i64 [ 0, %609 ], [ %636, %612 ]
  br i1 %286, label %652, label %641

641:                                              ; preds = %639
  %642 = getelementptr inbounds %"class.dealii::Vector", ptr %605, i64 %640, i32 3
  %643 = load ptr, ptr %642, align 8, !tbaa !38
  %644 = getelementptr inbounds double, ptr %643, i64 %604
  %645 = load double, ptr %644, align 8, !tbaa !103
  %646 = fptrunc double %645 to float
  %647 = trunc i64 %640 to i32
  %648 = add i32 %611, %647
  %649 = add i32 %648, %608
  %650 = zext i32 %649 to i64
  %651 = getelementptr inbounds float, ptr %601, i64 %650
  store float %646, ptr %651, align 4, !tbaa !111
  br label %652

652:                                              ; preds = %639, %641
  %653 = add nuw i32 %610, 1
  %654 = icmp eq i32 %610, %20
  br i1 %654, label %655, label %609

655:                                              ; preds = %652
  %656 = add nuw nsw i64 %604, 1
  %657 = icmp eq i64 %656, %35
  br i1 %657, label %658, label %603

658:                                              ; preds = %655, %598, %597
  %659 = add i32 %595, 1
  %660 = zext i32 %659 to i64
  %661 = load ptr, ptr %28, align 8, !tbaa !30
  %662 = load ptr, ptr %27, align 8, !tbaa !28
  %663 = ptrtoint ptr %661 to i64
  %664 = ptrtoint ptr %662 to i64
  %665 = sub i64 %663, %664
  %666 = sdiv exact i64 %665, 112
  %667 = icmp ugt i64 %666, %660
  br i1 %667, label %592, label %470

668:                                              ; preds = %479, %668
  %669 = phi i32 [ %670, %668 ], [ 0, %479 ]
  %670 = add i32 %669, 1
  %671 = zext i32 %670 to i64
  %672 = icmp ugt i64 %477, %671
  br i1 %672, label %668, label %673

673:                                              ; preds = %581, %585, %668, %470, %346
  %674 = load ptr, ptr %278, align 8, !tbaa !75
  %675 = getelementptr inbounds %"class.dealii::Triangulation", ptr %674, i64 0, i32 1
  %676 = load ptr, ptr %675, align 8, !tbaa !76
  %677 = ptrtoint ptr %676 to i64
  %678 = getelementptr inbounds %"class.dealii::Triangulation", ptr %674, i64 0, i32 1, i32 0, i32 0, i32 0, i32 1
  %679 = load i32, ptr %15, align 8, !tbaa !81
  %680 = load i32, ptr %267, align 4
  br label %681

681:                                              ; preds = %750, %673
  %682 = phi i32 [ %679, %673 ], [ %730, %750 ]
  %683 = phi i32 [ %679, %673 ], [ %751, %750 ]
  %684 = phi i32 [ %680, %673 ], [ %731, %750 ]
  %685 = add nsw i32 %684, 1
  %686 = sext i32 %683 to i64
  %687 = getelementptr inbounds ptr, ptr %676, i64 %686
  %688 = load ptr, ptr %687, align 8, !tbaa !65
  %689 = getelementptr inbounds %"class.dealii::internal::Triangulation::TriaLevel", ptr %688, i64 0, i32 4
  %690 = getelementptr inbounds %"class.dealii::internal::Triangulation::TriaLevel", ptr %688, i64 0, i32 4, i32 0, i32 0, i32 0, i32 0, i32 0, i32 1
  %691 = load ptr, ptr %690, align 8, !tbaa !78
  %692 = load ptr, ptr %689, align 8, !tbaa !80
  %693 = ptrtoint ptr %691 to i64
  %694 = ptrtoint ptr %692 to i64
  %695 = sub i64 %693, %694
  %696 = sdiv exact i64 %695, 24
  %697 = trunc i64 %696 to i32
  %698 = icmp slt i32 %685, %697
  br i1 %698, label %729, label %699

699:                                              ; preds = %681
  %700 = add nsw i64 %686, 1
  %701 = trunc i64 %700 to i32
  store i32 %701, ptr %15, align 8, !tbaa !81
  %702 = load ptr, ptr %678, align 8, !tbaa !82
  %703 = ptrtoint ptr %702 to i64
  %704 = sub i64 %703, %677
  %705 = shl i64 %704, 29
  %706 = ashr i64 %705, 32
  %707 = icmp slt i64 %700, %706
  br i1 %707, label %708, label %726

708:                                              ; preds = %699, %722
  %709 = phi i64 [ %723, %722 ], [ %700, %699 ]
  %710 = getelementptr inbounds ptr, ptr %676, i64 %709
  %711 = load ptr, ptr %710, align 8, !tbaa !65
  %712 = getelementptr inbounds %"class.dealii::internal::Triangulation::TriaLevel", ptr %711, i64 0, i32 4
  %713 = getelementptr inbounds %"class.dealii::internal::Triangulation::TriaLevel", ptr %711, i64 0, i32 4, i32 0, i32 0, i32 0, i32 0, i32 0, i32 1
  %714 = load ptr, ptr %713, align 8, !tbaa !78
  %715 = load ptr, ptr %712, align 8, !tbaa !80
  %716 = ptrtoint ptr %714 to i64
  %717 = ptrtoint ptr %715 to i64
  %718 = sub i64 %716, %717
  %719 = sdiv exact i64 %718, 24
  %720 = trunc i64 %719 to i32
  %721 = icmp sgt i32 %720, 0
  br i1 %721, label %727, label %722

722:                                              ; preds = %708
  %723 = add i64 %709, 1
  %724 = trunc i64 %723 to i32
  store i32 %724, ptr %15, align 8, !tbaa !81
  %725 = icmp eq i64 %723, %706
  br i1 %725, label %726, label %708, !llvm.loop !83

726:                                              ; preds = %722, %699
  store i32 -1, ptr %15, align 8, !tbaa !81
  br label %729

727:                                              ; preds = %708
  %728 = trunc i64 %709 to i32
  br label %729

729:                                              ; preds = %727, %726, %681
  %730 = phi i32 [ %682, %681 ], [ -1, %726 ], [ %728, %727 ]
  %731 = phi i32 [ %685, %681 ], [ -1, %726 ], [ 0, %727 ]
  %732 = phi i32 [ %683, %681 ], [ -1, %726 ], [ %728, %727 ]
  %733 = or i32 %732, %731
  %734 = icmp sgt i32 %733, -1
  br i1 %734, label %735, label %752

735:                                              ; preds = %729
  %736 = zext i32 %732 to i64
  %737 = getelementptr inbounds ptr, ptr %676, i64 %736
  %738 = load ptr, ptr %737, align 8, !tbaa !65
  %739 = getelementptr inbounds %"class.dealii::internal::Triangulation::TriaLevel", ptr %738, i64 0, i32 4, i32 0, i32 3
  %740 = load ptr, ptr %739, align 8, !tbaa !85
  %741 = lshr i32 %731, 6
  %742 = zext i32 %741 to i64
  %743 = getelementptr inbounds i64, ptr %740, i64 %742
  %744 = and i32 %731, 63
  %745 = zext i32 %744 to i64
  %746 = shl nuw i64 1, %745
  %747 = load i64, ptr %743, align 8, !tbaa !87
  %748 = and i64 %747, %746
  %749 = icmp eq i64 %748, 0
  br i1 %749, label %750, label %752

750:                                              ; preds = %735, %755
  %751 = phi i32 [ %732, %735 ], [ %730, %755 ]
  br label %681

752:                                              ; preds = %735, %729
  store i32 %731, ptr %267, align 4, !tbaa !73
  %753 = or i32 %731, %730
  %754 = icmp sgt i32 %753, -1
  br i1 %754, label %755, label %766

755:                                              ; preds = %752
  %756 = zext i32 %730 to i64
  %757 = getelementptr inbounds ptr, ptr %676, i64 %756
  %758 = load ptr, ptr %757, align 8, !tbaa !65
  %759 = getelementptr inbounds %"class.dealii::internal::Triangulation::TriaLevel", ptr %758, i64 0, i32 4, i32 0, i32 1
  %760 = shl i32 %731, 2
  %761 = zext i32 %760 to i64
  %762 = load ptr, ptr %759, align 8, !tbaa !88
  %763 = getelementptr inbounds i32, ptr %762, i64 %761
  %764 = load i32, ptr %763, align 4, !tbaa !90
  %765 = icmp eq i32 %764, -1
  br i1 %765, label %766, label %750

766:                                              ; preds = %755, %752
  %767 = getelementptr inbounds %"struct.dealii::DataOutBase::Patch", ptr %303, i64 1
  %768 = add i32 %304, 1
  br label %302

769:                                              ; preds = %590, %468, %340, %342, %344
  %770 = phi { ptr, i32 } [ %345, %344 ], [ %341, %340 ], [ %343, %342 ], [ %591, %590 ], [ %469, %468 ]
  call void @llvm.lifetime.end.p0(i64 24, ptr nonnull %15) #18
  br label %812

771:                                              ; preds = %319
  call void @llvm.lifetime.end.p0(i64 656, ptr nonnull %14) #18
  %772 = load ptr, ptr %11, align 8, !tbaa !128
  %773 = getelementptr inbounds %"struct.std::_Vector_base<dealii::Vector<double>, std::allocator<dealii::Vector<double> > >::_Vector_impl_data", ptr %11, i64 0, i32 1
  %774 = load ptr, ptr %773, align 8, !tbaa !130
  %775 = icmp eq ptr %772, %774
  br i1 %775, label %785, label %776

776:                                              ; preds = %771, %780
  %777 = phi ptr [ %781, %780 ], [ %772, %771 ]
  %778 = load ptr, ptr %777, align 8, !tbaa !5
  %779 = load ptr, ptr %778, align 8
  invoke void %779(ptr noundef nonnull align 8 dereferenceable(88) %777)
          to label %780 unwind label %789

780:                                              ; preds = %776
  %781 = getelementptr inbounds %"class.dealii::Vector", ptr %777, i64 1
  %782 = icmp eq ptr %781, %774
  br i1 %782, label %783, label %776

783:                                              ; preds = %780
  %784 = load ptr, ptr %11, align 8, !tbaa !128
  br label %785

785:                                              ; preds = %783, %771
  %786 = phi ptr [ %784, %783 ], [ %772, %771 ]
  %787 = icmp eq ptr %786, null
  br i1 %787, label %794, label %788

788:                                              ; preds = %785
  call void @_ZdlPv(ptr noundef nonnull %786) #16
  br label %794

789:                                              ; preds = %776
  %790 = landingpad { ptr, i32 }
          cleanup
  %791 = load ptr, ptr %11, align 8, !tbaa !128
  %792 = icmp eq ptr %791, null
  br i1 %792, label %816, label %793

793:                                              ; preds = %789
  call void @_ZdlPv(ptr noundef nonnull %791) #16
  br label %816

794:                                              ; preds = %788, %785
  call void @llvm.lifetime.end.p0(i64 24, ptr nonnull %11) #18
  %795 = load ptr, ptr %10, align 8, !tbaa !101
  %796 = icmp eq ptr %795, null
  br i1 %796, label %798, label %797

797:                                              ; preds = %794
  call void @_ZdlPv(ptr noundef nonnull %795) #16
  br label %798

798:                                              ; preds = %797, %794
  call void @llvm.lifetime.end.p0(i64 24, ptr nonnull %10) #18
  %799 = getelementptr inbounds %"class.dealii::internal::hp::FEValuesBase", ptr %9, i64 0, i32 3
  invoke void @_ZN6dealii9TableBaseILi3EN5boost10shared_ptrINS_8FEValuesILi3ELi3EEEEEED2Ev(ptr noundef nonnull align 8 dereferenceable(96) %799)
          to label %800 unwind label %802

800:                                              ; preds = %798
  %801 = getelementptr inbounds %"class.dealii::internal::hp::FEValuesBase", ptr %9, i64 0, i32 2
  invoke void @_ZN6dealii2hp11QCollectionILi3EED2Ev(ptr noundef nonnull align 8 dereferenceable(96) %801)
          to label %808 unwind label %326

802:                                              ; preds = %798
  %803 = landingpad { ptr, i32 }
          cleanup
  %804 = getelementptr inbounds %"class.dealii::internal::hp::FEValuesBase", ptr %9, i64 0, i32 2
  invoke void @_ZN6dealii2hp11QCollectionILi3EED2Ev(ptr noundef nonnull align 8 dereferenceable(96) %804)
          to label %823 unwind label %805

805:                                              ; preds = %802
  %806 = landingpad { ptr, i32 }
          catch ptr null
  %807 = extractvalue { ptr, i32 } %806, 0
  call void @__clang_call_terminate(ptr %807) #17
  unreachable

808:                                              ; preds = %800
  call void @llvm.lifetime.end.p0(i64 240, ptr nonnull %9) #18
  invoke void @_ZN6dealii2hp12FECollectionILi3ELi3EED2Ev(ptr noundef nonnull align 8 dereferenceable(96) %8)
          to label %809 unwind label %324

809:                                              ; preds = %808
  call void @llvm.lifetime.end.p0(i64 96, ptr nonnull %8) #18
  invoke void @_ZN6dealii2hp11QCollectionILi3EED2Ev(ptr noundef nonnull align 8 dereferenceable(96) %7)
          to label %810 unwind label %322

810:                                              ; preds = %809
  call void @llvm.lifetime.end.p0(i64 96, ptr nonnull %7) #18
  invoke void @_ZN6dealii10QuadratureILi3EED2Ev(ptr noundef nonnull align 8 dereferenceable(128) %6)
          to label %811 unwind label %320

811:                                              ; preds = %810
  call void @llvm.lifetime.end.p0(i64 128, ptr nonnull %6) #18
  call void @_ZN6dealii10QuadratureILi1EED2Ev(ptr noundef nonnull align 8 dereferenceable(128) %5)
  call void @llvm.lifetime.end.p0(i64 128, ptr nonnull %5) #18
  ret void

812:                                              ; preds = %769, %338
  %813 = phi { ptr, i32 } [ %339, %338 ], [ %770, %769 ]
  invoke void @_ZN6dealii11DataOutBase5PatchILi4ELi4EED2Ev(ptr noundef nonnull align 8 dereferenceable(649) %14)
          to label %814 unwind label %832

814:                                              ; preds = %812, %336
  %815 = phi { ptr, i32 } [ %813, %812 ], [ %337, %336 ]
  call void @llvm.lifetime.end.p0(i64 656, ptr nonnull %14) #18
  invoke void @_ZNSt6vectorIN6dealii6VectorIdEESaIS2_EED2Ev(ptr noundef nonnull align 8 dereferenceable(24) %11)
          to label %816 unwind label %832

816:                                              ; preds = %793, %789, %814, %334
  %817 = phi { ptr, i32 } [ %815, %814 ], [ %335, %334 ], [ %790, %793 ], [ %790, %789 ]
  call void @llvm.lifetime.end.p0(i64 24, ptr nonnull %11) #18
  %818 = load ptr, ptr %10, align 8, !tbaa !101
  %819 = icmp eq ptr %818, null
  br i1 %819, label %821, label %820

820:                                              ; preds = %816
  call void @_ZdlPv(ptr noundef nonnull %818) #16
  br label %821

821:                                              ; preds = %820, %816, %328
  %822 = phi { ptr, i32 } [ %329, %328 ], [ %817, %816 ], [ %817, %820 ]
  call void @llvm.lifetime.end.p0(i64 24, ptr nonnull %10) #18
  invoke void @_ZN6dealii8internal2hp12FEValuesBaseILi3ELi3ENS_8FEValuesILi3ELi3EEEED2Ev(ptr noundef nonnull align 8 dereferenceable(240) %9)
          to label %823 unwind label %832

823:                                              ; preds = %802, %326, %821
  %824 = phi { ptr, i32 } [ %822, %821 ], [ %327, %326 ], [ %803, %802 ]
  call void @llvm.lifetime.end.p0(i64 240, ptr nonnull %9) #18
  invoke void @_ZN6dealii2hp12FECollectionILi3ELi3EED2Ev(ptr noundef nonnull align 8 dereferenceable(96) %8)
          to label %825 unwind label %832

825:                                              ; preds = %823, %324
  %826 = phi { ptr, i32 } [ %824, %823 ], [ %325, %324 ]
  call void @llvm.lifetime.end.p0(i64 96, ptr nonnull %8) #18
  invoke void @_ZN6dealii2hp11QCollectionILi3EED2Ev(ptr noundef nonnull align 8 dereferenceable(96) %7)
          to label %827 unwind label %832

827:                                              ; preds = %825, %322
  %828 = phi { ptr, i32 } [ %826, %825 ], [ %323, %322 ]
  call void @llvm.lifetime.end.p0(i64 96, ptr nonnull %7) #18
  invoke void @_ZN6dealii10QuadratureILi3EED2Ev(ptr noundef nonnull align 8 dereferenceable(128) %6)
          to label %829 unwind label %832

829:                                              ; preds = %827, %320
  %830 = phi { ptr, i32 } [ %828, %827 ], [ %321, %320 ]
  call void @llvm.lifetime.end.p0(i64 128, ptr nonnull %6) #18
  invoke void @_ZN6dealii10QuadratureILi1EED2Ev(ptr noundef nonnull align 8 dereferenceable(128) %5)
          to label %831 unwind label %832

831:                                              ; preds = %829
  call void @llvm.lifetime.end.p0(i64 128, ptr nonnull %5) #18
  resume { ptr, i32 } %830

832:                                              ; preds = %829, %827, %825, %823, %821, %814, %812, %332
  %833 = landingpad { ptr, i32 }
          catch ptr null
  %834 = extractvalue { ptr, i32 } %833, 0
  call void @__clang_call_terminate(ptr %834) #17
  unreachable
}

declare void @_ZNK6dealii10DoFHandlerILi3ELi3EE12begin_activeEj(ptr sret(%"class.dealii::TriaActiveIterator") align 8, ptr noundef nonnull align 8 dereferenceable(168), i32 noundef) local_unnamed_addr #2

declare void @_ZNK6dealii10DoFHandlerILi3ELi3EE3endEv(ptr sret(%"class.dealii::TriaRawIterator") align 8, ptr noundef nonnull align 8 dereferenceable(168)) local_unnamed_addr #2

declare void @_ZN6dealii7QTrapezILi1EEC1Ev(ptr noundef nonnull align 8 dereferenceable(128)) unnamed_addr #2

declare void @_ZN6dealii9QIteratedILi3EEC1ERKNS_10QuadratureILi1EEEj(ptr noundef nonnull align 8 dereferenceable(128), ptr noundef nonnull align 8 dereferenceable(128), i32 noundef) unnamed_addr #2

; Function Attrs: inlinehint sspstrong uwtable
define linkonce_odr dso_local void @_ZN6dealii2hp11QCollectionILi3EEC2ERKNS_10QuadratureILi3EEE(ptr noundef nonnull align 8 dereferenceable(96) %0, ptr noundef nonnull align 8 dereferenceable(128) %1) unnamed_addr #6 comdat align 2 personality ptr @__gxx_personality_v0 {
  %3 = alloca %"class.boost::shared_ptr.213", align 8
  tail call void @_ZN6dealii11SubscriptorC2Ev(ptr noundef nonnull align 8 dereferenceable(72) %0)
  store ptr getelementptr inbounds ({ [4 x ptr] }, ptr @_ZTVN6dealii2hp11QCollectionILi3EEE, i64 0, inrange i32 0, i64 2), ptr %0, align 8, !tbaa !5
  %4 = getelementptr inbounds %"class.dealii::hp::QCollection", ptr %0, i64 0, i32 1
  tail call void @llvm.memset.p0.i64(ptr noundef nonnull align 8 dereferenceable(24) %4, i8 0, i64 24, i1 false)
  call void @llvm.lifetime.start.p0(i64 16, ptr nonnull %3) #18
  %5 = invoke noalias noundef nonnull dereferenceable(128) ptr @_Znwm(i64 noundef 128) #19
          to label %6 unwind label %59

6:                                                ; preds = %2
  invoke void @_ZN6dealii10QuadratureILi3EEC1ERKS1_(ptr noundef nonnull align 8 dereferenceable(128) %5, ptr noundef nonnull align 8 dereferenceable(128) %1)
          to label %7 unwind label %61

7:                                                ; preds = %6
  store ptr %5, ptr %3, align 8, !tbaa !131
  %8 = getelementptr inbounds %"class.boost::shared_ptr.213", ptr %3, i64 0, i32 1
  %9 = invoke noalias noundef nonnull dereferenceable(32) ptr @_Znwm(i64 noundef 32) #19
          to label %24 unwind label %10

10:                                               ; preds = %7
  %11 = landingpad { ptr, i32 }
          catch ptr null
  %12 = extractvalue { ptr, i32 } %11, 0
  %13 = tail call ptr @__cxa_begin_catch(ptr %12) #18
  %14 = load ptr, ptr %5, align 8, !tbaa !5
  %15 = getelementptr inbounds ptr, ptr %14, i64 1
  %16 = load ptr, ptr %15, align 8
  invoke void %16(ptr noundef nonnull align 8 dereferenceable(128) %5)
          to label %17 unwind label %18

17:                                               ; preds = %10
  invoke void @__cxa_rethrow() #20
          to label %23 unwind label %18

18:                                               ; preds = %17, %10
  %19 = landingpad { ptr, i32 }
          cleanup
  invoke void @__cxa_end_catch()
          to label %65 unwind label %20

20:                                               ; preds = %18
  %21 = landingpad { ptr, i32 }
          catch ptr null
  %22 = extractvalue { ptr, i32 } %21, 0
  tail call void @__clang_call_terminate(ptr %22) #17
  unreachable

23:                                               ; preds = %17
  unreachable

24:                                               ; preds = %7
  %25 = getelementptr inbounds %"class.boost::detail::sp_counted_base", ptr %9, i64 0, i32 1
  store i64 1, ptr %25, align 8, !tbaa !133
  %26 = getelementptr inbounds %"class.boost::detail::sp_counted_base", ptr %9, i64 0, i32 2
  store i64 1, ptr %26, align 8, !tbaa !135
  store ptr getelementptr inbounds ({ [7 x ptr] }, ptr @_ZTVN5boost6detail17sp_counted_impl_pIN6dealii10QuadratureILi3EEEEE, i64 0, inrange i32 0, i64 2), ptr %9, align 8, !tbaa !5
  %27 = getelementptr inbounds %"class.boost::detail::sp_counted_impl_p", ptr %9, i64 0, i32 1
  store ptr %5, ptr %27, align 8, !tbaa !136
  store ptr %9, ptr %8, align 8, !tbaa !138
  %28 = getelementptr inbounds %"class.dealii::hp::QCollection", ptr %0, i64 0, i32 1, i32 0, i32 0, i32 0, i32 1
  %29 = load ptr, ptr %28, align 8, !tbaa !65
  %30 = getelementptr inbounds %"class.dealii::hp::QCollection", ptr %0, i64 0, i32 1, i32 0, i32 0, i32 0, i32 2
  %31 = load ptr, ptr %30, align 8, !tbaa !139
  %32 = icmp eq ptr %29, %31
  br i1 %32, label %36, label %33

33:                                               ; preds = %24
  store ptr %5, ptr %29, align 8, !tbaa !131
  %34 = getelementptr inbounds %"class.boost::shared_ptr.213", ptr %29, i64 0, i32 1
  store ptr %9, ptr %34, align 8, !tbaa !138
  store i64 2, ptr %25, align 8, !tbaa !133
  %35 = getelementptr inbounds %"class.boost::shared_ptr.213", ptr %29, i64 1
  store ptr %35, ptr %28, align 8, !tbaa !141
  br label %37

36:                                               ; preds = %24
  invoke void @_ZNSt6vectorIN5boost10shared_ptrIKN6dealii10QuadratureILi3EEEEESaIS6_EE17_M_realloc_insertEN9__gnu_cxx17__normal_iteratorIPS6_S8_EERKS6_(ptr noundef nonnull align 8 dereferenceable(24) %4, ptr %29, ptr noundef nonnull align 8 dereferenceable(16) %3)
          to label %37 unwind label %63

37:                                               ; preds = %33, %36
  %38 = load ptr, ptr %8, align 8, !tbaa !138
  %39 = icmp eq ptr %38, null
  br i1 %39, label %58, label %40

40:                                               ; preds = %37
  %41 = getelementptr inbounds %"class.boost::detail::sp_counted_base", ptr %38, i64 0, i32 1
  %42 = load i64, ptr %41, align 8, !tbaa !133
  %43 = add nsw i64 %42, -1
  store i64 %43, ptr %41, align 8, !tbaa !133
  %44 = icmp eq i64 %43, 0
  br i1 %44, label %45, label %58

45:                                               ; preds = %40
  %46 = load ptr, ptr %38, align 8, !tbaa !5
  %47 = getelementptr inbounds ptr, ptr %46, i64 2
  %48 = load ptr, ptr %47, align 8
  invoke void %48(ptr noundef nonnull align 8 dereferenceable(24) %38)
          to label %49 unwind label %59

49:                                               ; preds = %45
  %50 = getelementptr inbounds %"class.boost::detail::sp_counted_base", ptr %38, i64 0, i32 2
  %51 = load i64, ptr %50, align 8, !tbaa !135
  %52 = add nsw i64 %51, -1
  store i64 %52, ptr %50, align 8, !tbaa !135
  %53 = icmp eq i64 %52, 0
  br i1 %53, label %54, label %58

54:                                               ; preds = %49
  %55 = load ptr, ptr %38, align 8, !tbaa !5
  %56 = getelementptr inbounds ptr, ptr %55, i64 3
  %57 = load ptr, ptr %56, align 8
  invoke void %57(ptr noundef nonnull align 8 dereferenceable(24) %38)
          to label %58 unwind label %59

58:                                               ; preds = %49, %40, %37, %54
  call void @llvm.lifetime.end.p0(i64 16, ptr nonnull %3) #18
  ret void

59:                                               ; preds = %54, %45, %2
  %60 = landingpad { ptr, i32 }
          cleanup
  br label %65

61:                                               ; preds = %6
  %62 = landingpad { ptr, i32 }
          cleanup
  tail call void @_ZdlPv(ptr noundef nonnull %5) #16
  br label %65

63:                                               ; preds = %36
  %64 = landingpad { ptr, i32 }
          cleanup
  invoke void @_ZN5boost10shared_ptrIKN6dealii10QuadratureILi3EEEED2Ev(ptr noundef nonnull align 8 dereferenceable(16) %3)
          to label %65 unwind label %69

65:                                               ; preds = %59, %18, %63, %61
  %66 = phi { ptr, i32 } [ %64, %63 ], [ %62, %61 ], [ %60, %59 ], [ %19, %18 ]
  call void @llvm.lifetime.end.p0(i64 16, ptr nonnull %3) #18
  invoke void @_ZNSt6vectorIN5boost10shared_ptrIKN6dealii10QuadratureILi3EEEEESaIS6_EED2Ev(ptr noundef nonnull align 8 dereferenceable(24) %4)
          to label %67 unwind label %69

67:                                               ; preds = %65
  invoke void @_ZN6dealii11SubscriptorD2Ev(ptr noundef nonnull align 8 dereferenceable(72) %0)
          to label %68 unwind label %69

68:                                               ; preds = %67
  resume { ptr, i32 } %66

69:                                               ; preds = %67, %65, %63
  %70 = landingpad { ptr, i32 }
          catch ptr null
  %71 = extractvalue { ptr, i32 } %70, 0
  call void @__clang_call_terminate(ptr %71) #17
  unreachable
}

declare void @_ZN6dealii2hp12FECollectionILi3ELi3EEC1ERKNS_13FiniteElementILi3ELi3EEE(ptr noundef nonnull align 8 dereferenceable(96), ptr noundef nonnull align 8 dereferenceable(728)) unnamed_addr #2

declare void @_ZN6dealii2hp8FEValuesILi3ELi3EEC1ERKNS0_12FECollectionILi3ELi3EEERKNS0_11QCollectionILi3EEENS_11UpdateFlagsE(ptr noundef nonnull align 8 dereferenceable(240), ptr noundef nonnull align 8 dereferenceable(96), ptr noundef nonnull align 8 dereferenceable(96), i32 noundef) unnamed_addr #2

; Function Attrs: sspstrong uwtable
define linkonce_odr dso_local void @_ZNSt6vectorIN6dealii6VectorIdEESaIS2_EEC2EmRKS2_RKS3_(ptr noundef nonnull align 8 dereferenceable(24) %0, i64 noundef %1, ptr noundef nonnull align 8 dereferenceable(88) %2, ptr noundef nonnull align 1 dereferenceable(1) %3) unnamed_addr #0 comdat align 2 personality ptr @__gxx_personality_v0 {
  %5 = icmp ugt i64 %1, 104811045873349725
  br i1 %5, label %6, label %7

6:                                                ; preds = %4
  tail call void @_ZSt20__throw_length_errorPKc(ptr noundef nonnull @.str.28) #20
  unreachable

7:                                                ; preds = %4
  tail call void @llvm.memset.p0.i64(ptr noundef nonnull align 8 dereferenceable(24) %0, i8 0, i64 24, i1 false)
  %8 = icmp eq i64 %1, 0
  br i1 %8, label %9, label %11

9:                                                ; preds = %7
  %10 = getelementptr inbounds %"struct.std::_Vector_base<dealii::Vector<double>, std::allocator<dealii::Vector<double> > >::_Vector_impl_data", ptr %0, i64 0, i32 1
  tail call void @llvm.memset.p0.i64(ptr noundef nonnull align 8 dereferenceable(24) %0, i8 0, i64 24, i1 false)
  br label %47

11:                                               ; preds = %7
  %12 = mul nuw nsw i64 %1, 88
  %13 = tail call noalias noundef nonnull ptr @_Znwm(i64 noundef %12) #19
  store ptr %13, ptr %0, align 8, !tbaa !128
  %14 = getelementptr inbounds %"struct.std::_Vector_base<dealii::Vector<double>, std::allocator<dealii::Vector<double> > >::_Vector_impl_data", ptr %0, i64 0, i32 1
  store ptr %13, ptr %14, align 8, !tbaa !130
  %15 = getelementptr inbounds %"class.dealii::Vector", ptr %13, i64 %1
  %16 = getelementptr inbounds %"struct.std::_Vector_base<dealii::Vector<double>, std::allocator<dealii::Vector<double> > >::_Vector_impl_data", ptr %0, i64 0, i32 2
  store ptr %15, ptr %16, align 8, !tbaa !142
  br label %17

17:                                               ; preds = %11, %20
  %18 = phi ptr [ %22, %20 ], [ %13, %11 ]
  %19 = phi i64 [ %21, %20 ], [ %1, %11 ]
  invoke void @_ZN6dealii6VectorIdEC1ERKS1_(ptr noundef nonnull align 8 dereferenceable(88) %18, ptr noundef nonnull align 8 dereferenceable(88) %2)
          to label %20 unwind label %24

20:                                               ; preds = %17
  %21 = add i64 %19, -1
  %22 = getelementptr inbounds %"class.dealii::Vector", ptr %18, i64 1
  %23 = icmp eq i64 %21, 0
  br i1 %23, label %47, label %17

24:                                               ; preds = %17
  %25 = landingpad { ptr, i32 }
          catch ptr null
  %26 = extractvalue { ptr, i32 } %25, 0
  %27 = tail call ptr @__cxa_begin_catch(ptr %26) #18
  %28 = icmp eq ptr %18, %13
  br i1 %28, label %36, label %29

29:                                               ; preds = %24, %33
  %30 = phi ptr [ %34, %33 ], [ %13, %24 ]
  %31 = load ptr, ptr %30, align 8, !tbaa !5
  %32 = load ptr, ptr %31, align 8
  invoke void %32(ptr noundef nonnull align 8 dereferenceable(88) %30)
          to label %33 unwind label %37

33:                                               ; preds = %29
  %34 = getelementptr inbounds %"class.dealii::Vector", ptr %30, i64 1
  %35 = icmp eq ptr %34, %18
  br i1 %35, label %36, label %29

36:                                               ; preds = %33, %24
  invoke void @__cxa_rethrow() #20
          to label %46 unwind label %39

37:                                               ; preds = %29
  %38 = landingpad { ptr, i32 }
          cleanup
  br label %41

39:                                               ; preds = %36
  %40 = landingpad { ptr, i32 }
          cleanup
  br label %41

41:                                               ; preds = %39, %37
  %42 = phi { ptr, i32 } [ %38, %37 ], [ %40, %39 ]
  invoke void @__cxa_end_catch()
          to label %50 unwind label %43

43:                                               ; preds = %41
  %44 = landingpad { ptr, i32 }
          catch ptr null
  %45 = extractvalue { ptr, i32 } %44, 0
  tail call void @__clang_call_terminate(ptr %45) #17
  unreachable

46:                                               ; preds = %36
  unreachable

47:                                               ; preds = %20, %9
  %48 = phi ptr [ %10, %9 ], [ %14, %20 ]
  %49 = phi ptr [ null, %9 ], [ %22, %20 ]
  store ptr %49, ptr %48, align 8, !tbaa !130
  ret void

50:                                               ; preds = %41
  %51 = load ptr, ptr %0, align 8, !tbaa !128
  %52 = icmp eq ptr %51, null
  br i1 %52, label %54, label %53

53:                                               ; preds = %50
  tail call void @_ZdlPv(ptr noundef nonnull %51) #16
  br label %54

54:                                               ; preds = %53, %50
  resume { ptr, i32 } %42
}

; Function Attrs: inlinehint sspstrong uwtable
define linkonce_odr dso_local void @_ZN6dealii6VectorIdED2Ev(ptr noundef nonnull align 8 dereferenceable(88) %0) unnamed_addr #6 comdat align 2 {
  store ptr getelementptr inbounds ({ [6 x ptr] }, ptr @_ZTVN6dealii6VectorIdEE, i64 0, inrange i32 0, i64 2), ptr %0, align 8, !tbaa !5
  %2 = getelementptr inbounds %"class.dealii::Vector", ptr %0, i64 0, i32 3
  %3 = load ptr, ptr %2, align 8, !tbaa !38
  %4 = icmp eq ptr %3, null
  br i1 %4, label %6, label %5

5:                                                ; preds = %1
  tail call void @_ZdaPv(ptr noundef nonnull %3) #16
  store ptr null, ptr %2, align 8, !tbaa !38
  br label %6

6:                                                ; preds = %5, %1
  tail call void @_ZN6dealii11SubscriptorD2Ev(ptr noundef nonnull align 8 dereferenceable(72) %0)
  ret void
}

declare void @_ZN6dealii11DataOutBase5PatchILi4ELi4EEC1Ev(ptr noundef nonnull align 8 dereferenceable(649)) unnamed_addr #2

declare void @_ZN6dealii2hp8FEValuesILi3ELi3EE6reinitERKNS_12TriaIteratorINS_15DoFCellAccessorINS_10DoFHandlerILi3ELi3EEEEEEEjjj(ptr noundef nonnull align 8 dereferenceable(240), ptr noundef nonnull align 8 dereferenceable(24), i32 noundef, i32 noundef, i32 noundef) local_unnamed_addr #2

declare void @_ZNK6dealii12FEValuesBaseILi3ELi3EE19get_function_valuesINS_6VectorIdEEdEEvRKT_RSt6vectorIT0_SaIS9_EE(ptr noundef nonnull align 8 dereferenceable(648), ptr noundef nonnull align 8 dereferenceable(88), ptr noundef nonnull align 8 dereferenceable(24)) local_unnamed_addr #2

declare void @_ZNK6dealii12FEValuesBaseILi3ELi3EE19get_function_valuesINS_6VectorIdEEdEEvRKT_RSt6vectorINS3_IT0_EESaISA_EE(ptr noundef nonnull align 8 dereferenceable(648), ptr noundef nonnull align 8 dereferenceable(88), ptr noundef nonnull align 8 dereferenceable(24)) local_unnamed_addr #2

; Function Attrs: inlinehint sspstrong uwtable
define linkonce_odr dso_local void @_ZN6dealii11DataOutBase5PatchILi4ELi4EED2Ev(ptr noundef nonnull align 8 dereferenceable(649) %0) unnamed_addr #6 comdat align 2 {
  %2 = getelementptr inbounds %"struct.dealii::DataOutBase::Patch", ptr %0, i64 0, i32 4
  store ptr getelementptr inbounds ({ [4 x ptr] }, ptr @_ZTVN6dealii9TableBaseILi2EfEE, i64 0, inrange i32 0, i64 2), ptr %2, align 8, !tbaa !5
  %3 = getelementptr inbounds %"struct.dealii::DataOutBase::Patch", ptr %0, i64 0, i32 4, i32 0, i32 1
  %4 = load ptr, ptr %3, align 8, !tbaa !13
  %5 = icmp eq ptr %4, null
  br i1 %5, label %7, label %6

6:                                                ; preds = %1
  tail call void @_ZdaPv(ptr noundef nonnull %4) #16
  br label %7

7:                                                ; preds = %1, %6
  tail call void @_ZN6dealii11SubscriptorD2Ev(ptr noundef nonnull align 8 dereferenceable(72) %2)
  ret void
}

; Function Attrs: sspstrong uwtable
define linkonce_odr dso_local void @_ZNSt6vectorIN6dealii6VectorIdEESaIS2_EED2Ev(ptr noundef nonnull align 8 dereferenceable(24) %0) unnamed_addr #0 comdat align 2 personality ptr @__gxx_personality_v0 {
  %2 = load ptr, ptr %0, align 8, !tbaa !128
  %3 = getelementptr inbounds %"struct.std::_Vector_base<dealii::Vector<double>, std::allocator<dealii::Vector<double> > >::_Vector_impl_data", ptr %0, i64 0, i32 1
  %4 = load ptr, ptr %3, align 8, !tbaa !130
  %5 = icmp eq ptr %2, %4
  br i1 %5, label %15, label %6

6:                                                ; preds = %1, %10
  %7 = phi ptr [ %11, %10 ], [ %2, %1 ]
  %8 = load ptr, ptr %7, align 8, !tbaa !5
  %9 = load ptr, ptr %8, align 8
  invoke void %9(ptr noundef nonnull align 8 dereferenceable(88) %7)
          to label %10 unwind label %20

10:                                               ; preds = %6
  %11 = getelementptr inbounds %"class.dealii::Vector", ptr %7, i64 1
  %12 = icmp eq ptr %11, %4
  br i1 %12, label %13, label %6

13:                                               ; preds = %10
  %14 = load ptr, ptr %0, align 8, !tbaa !128
  br label %15

15:                                               ; preds = %13, %1
  %16 = phi ptr [ %14, %13 ], [ %2, %1 ]
  %17 = icmp eq ptr %16, null
  br i1 %17, label %19, label %18

18:                                               ; preds = %15
  tail call void @_ZdlPv(ptr noundef nonnull %16) #16
  br label %19

19:                                               ; preds = %15, %18
  ret void

20:                                               ; preds = %6
  %21 = landingpad { ptr, i32 }
          cleanup
  %22 = load ptr, ptr %0, align 8, !tbaa !128
  %23 = icmp eq ptr %22, null
  br i1 %23, label %25, label %24

24:                                               ; preds = %20
  tail call void @_ZdlPv(ptr noundef nonnull %22) #16
  br label %25

25:                                               ; preds = %24, %20
  resume { ptr, i32 } %21
}

; Function Attrs: inlinehint sspstrong uwtable
define linkonce_odr dso_local void @_ZN6dealii8internal2hp12FEValuesBaseILi3ELi3ENS_8FEValuesILi3ELi3EEEED2Ev(ptr noundef nonnull align 8 dereferenceable(240) %0) unnamed_addr #6 comdat align 2 personality ptr @__gxx_personality_v0 {
  %2 = getelementptr inbounds %"class.dealii::internal::hp::FEValuesBase", ptr %0, i64 0, i32 3
  invoke void @_ZN6dealii9TableBaseILi3EN5boost10shared_ptrINS_8FEValuesILi3ELi3EEEEEED2Ev(ptr noundef nonnull align 8 dereferenceable(96) %2)
          to label %3 unwind label %5

3:                                                ; preds = %1
  %4 = getelementptr inbounds %"class.dealii::internal::hp::FEValuesBase", ptr %0, i64 0, i32 2
  tail call void @_ZN6dealii2hp11QCollectionILi3EED2Ev(ptr noundef nonnull align 8 dereferenceable(96) %4)
  ret void

5:                                                ; preds = %1
  %6 = landingpad { ptr, i32 }
          cleanup
  %7 = getelementptr inbounds %"class.dealii::internal::hp::FEValuesBase", ptr %0, i64 0, i32 2
  invoke void @_ZN6dealii2hp11QCollectionILi3EED2Ev(ptr noundef nonnull align 8 dereferenceable(96) %7)
          to label %8 unwind label %9

8:                                                ; preds = %5
  resume { ptr, i32 } %6

9:                                                ; preds = %5
  %10 = landingpad { ptr, i32 }
          catch ptr null
  %11 = extractvalue { ptr, i32 } %10, 0
  tail call void @__clang_call_terminate(ptr %11) #17
  unreachable
}

; Function Attrs: inlinehint sspstrong uwtable
define linkonce_odr dso_local void @_ZN6dealii2hp12FECollectionILi3ELi3EED2Ev(ptr noundef nonnull align 8 dereferenceable(96) %0) unnamed_addr #6 comdat align 2 personality ptr @__gxx_personality_v0 {
  store ptr getelementptr inbounds ({ [4 x ptr] }, ptr @_ZTVN6dealii2hp12FECollectionILi3ELi3EEE, i64 0, inrange i32 0, i64 2), ptr %0, align 8, !tbaa !5
  %2 = getelementptr inbounds %"class.dealii::hp::FECollection", ptr %0, i64 0, i32 1
  %3 = load ptr, ptr %2, align 8, !tbaa !143
  %4 = getelementptr inbounds %"class.dealii::hp::FECollection", ptr %0, i64 0, i32 1, i32 0, i32 0, i32 0, i32 1
  %5 = load ptr, ptr %4, align 8, !tbaa !145
  %6 = icmp eq ptr %3, %5
  br i1 %6, label %35, label %7

7:                                                ; preds = %1, %30
  %8 = phi ptr [ %31, %30 ], [ %3, %1 ]
  %9 = getelementptr inbounds %"class.boost::shared_ptr.212", ptr %8, i64 0, i32 1
  %10 = load ptr, ptr %9, align 8, !tbaa !138
  %11 = icmp eq ptr %10, null
  br i1 %11, label %30, label %12

12:                                               ; preds = %7
  %13 = getelementptr inbounds %"class.boost::detail::sp_counted_base", ptr %10, i64 0, i32 1
  %14 = load i64, ptr %13, align 8, !tbaa !133
  %15 = add nsw i64 %14, -1
  store i64 %15, ptr %13, align 8, !tbaa !133
  %16 = icmp eq i64 %15, 0
  br i1 %16, label %17, label %30

17:                                               ; preds = %12
  %18 = load ptr, ptr %10, align 8, !tbaa !5
  %19 = getelementptr inbounds ptr, ptr %18, i64 2
  %20 = load ptr, ptr %19, align 8
  invoke void %20(ptr noundef nonnull align 8 dereferenceable(24) %10)
          to label %21 unwind label %39

21:                                               ; preds = %17
  %22 = getelementptr inbounds %"class.boost::detail::sp_counted_base", ptr %10, i64 0, i32 2
  %23 = load i64, ptr %22, align 8, !tbaa !135
  %24 = add nsw i64 %23, -1
  store i64 %24, ptr %22, align 8, !tbaa !135
  %25 = icmp eq i64 %24, 0
  br i1 %25, label %26, label %30

26:                                               ; preds = %21
  %27 = load ptr, ptr %10, align 8, !tbaa !5
  %28 = getelementptr inbounds ptr, ptr %27, i64 3
  %29 = load ptr, ptr %28, align 8
  invoke void %29(ptr noundef nonnull align 8 dereferenceable(24) %10)
          to label %30 unwind label %39

30:                                               ; preds = %26, %21, %12, %7
  %31 = getelementptr inbounds %"class.boost::shared_ptr.212", ptr %8, i64 1
  %32 = icmp eq ptr %31, %5
  br i1 %32, label %33, label %7

33:                                               ; preds = %30
  %34 = load ptr, ptr %2, align 8, !tbaa !143
  br label %35

35:                                               ; preds = %33, %1
  %36 = phi ptr [ %34, %33 ], [ %3, %1 ]
  %37 = icmp eq ptr %36, null
  br i1 %37, label %44, label %38

38:                                               ; preds = %35
  tail call void @_ZdlPv(ptr noundef nonnull %36) #16
  br label %44

39:                                               ; preds = %26, %17
  %40 = landingpad { ptr, i32 }
          cleanup
  %41 = load ptr, ptr %2, align 8, !tbaa !143
  %42 = icmp eq ptr %41, null
  br i1 %42, label %45, label %43

43:                                               ; preds = %39
  tail call void @_ZdlPv(ptr noundef nonnull %41) #16
  br label %45

44:                                               ; preds = %38, %35
  tail call void @_ZN6dealii11SubscriptorD2Ev(ptr noundef nonnull align 8 dereferenceable(72) %0)
  ret void

45:                                               ; preds = %39, %43
  invoke void @_ZN6dealii11SubscriptorD2Ev(ptr noundef nonnull align 8 dereferenceable(72) %0)
          to label %46 unwind label %47

46:                                               ; preds = %45
  resume { ptr, i32 } %40

47:                                               ; preds = %45
  %48 = landingpad { ptr, i32 }
          catch ptr null
  %49 = extractvalue { ptr, i32 } %48, 0
  tail call void @__clang_call_terminate(ptr %49) #17
  unreachable
}

; Function Attrs: inlinehint sspstrong uwtable
define linkonce_odr dso_local void @_ZN6dealii2hp11QCollectionILi3EED2Ev(ptr noundef nonnull align 8 dereferenceable(96) %0) unnamed_addr #6 comdat align 2 personality ptr @__gxx_personality_v0 {
  store ptr getelementptr inbounds ({ [4 x ptr] }, ptr @_ZTVN6dealii2hp11QCollectionILi3EEE, i64 0, inrange i32 0, i64 2), ptr %0, align 8, !tbaa !5
  %2 = getelementptr inbounds %"class.dealii::hp::QCollection", ptr %0, i64 0, i32 1
  %3 = load ptr, ptr %2, align 8, !tbaa !146
  %4 = getelementptr inbounds %"class.dealii::hp::QCollection", ptr %0, i64 0, i32 1, i32 0, i32 0, i32 0, i32 1
  %5 = load ptr, ptr %4, align 8, !tbaa !141
  %6 = icmp eq ptr %3, %5
  br i1 %6, label %35, label %7

7:                                                ; preds = %1, %30
  %8 = phi ptr [ %31, %30 ], [ %3, %1 ]
  %9 = getelementptr inbounds %"class.boost::shared_ptr.213", ptr %8, i64 0, i32 1
  %10 = load ptr, ptr %9, align 8, !tbaa !138
  %11 = icmp eq ptr %10, null
  br i1 %11, label %30, label %12

12:                                               ; preds = %7
  %13 = getelementptr inbounds %"class.boost::detail::sp_counted_base", ptr %10, i64 0, i32 1
  %14 = load i64, ptr %13, align 8, !tbaa !133
  %15 = add nsw i64 %14, -1
  store i64 %15, ptr %13, align 8, !tbaa !133
  %16 = icmp eq i64 %15, 0
  br i1 %16, label %17, label %30

17:                                               ; preds = %12
  %18 = load ptr, ptr %10, align 8, !tbaa !5
  %19 = getelementptr inbounds ptr, ptr %18, i64 2
  %20 = load ptr, ptr %19, align 8
  invoke void %20(ptr noundef nonnull align 8 dereferenceable(24) %10)
          to label %21 unwind label %39

21:                                               ; preds = %17
  %22 = getelementptr inbounds %"class.boost::detail::sp_counted_base", ptr %10, i64 0, i32 2
  %23 = load i64, ptr %22, align 8, !tbaa !135
  %24 = add nsw i64 %23, -1
  store i64 %24, ptr %22, align 8, !tbaa !135
  %25 = icmp eq i64 %24, 0
  br i1 %25, label %26, label %30

26:                                               ; preds = %21
  %27 = load ptr, ptr %10, align 8, !tbaa !5
  %28 = getelementptr inbounds ptr, ptr %27, i64 3
  %29 = load ptr, ptr %28, align 8
  invoke void %29(ptr noundef nonnull align 8 dereferenceable(24) %10)
          to label %30 unwind label %39

30:                                               ; preds = %26, %21, %12, %7
  %31 = getelementptr inbounds %"class.boost::shared_ptr.213", ptr %8, i64 1
  %32 = icmp eq ptr %31, %5
  br i1 %32, label %33, label %7

33:                                               ; preds = %30
  %34 = load ptr, ptr %2, align 8, !tbaa !146
  br label %35

35:                                               ; preds = %33, %1
  %36 = phi ptr [ %34, %33 ], [ %3, %1 ]
  %37 = icmp eq ptr %36, null
  br i1 %37, label %44, label %38

38:                                               ; preds = %35
  tail call void @_ZdlPv(ptr noundef nonnull %36) #16
  br label %44

39:                                               ; preds = %26, %17
  %40 = landingpad { ptr, i32 }
          cleanup
  %41 = load ptr, ptr %2, align 8, !tbaa !146
  %42 = icmp eq ptr %41, null
  br i1 %42, label %45, label %43

43:                                               ; preds = %39
  tail call void @_ZdlPv(ptr noundef nonnull %41) #16
  br label %45

44:                                               ; preds = %38, %35
  tail call void @_ZN6dealii11SubscriptorD2Ev(ptr noundef nonnull align 8 dereferenceable(72) %0)
  ret void

45:                                               ; preds = %39, %43
  invoke void @_ZN6dealii11SubscriptorD2Ev(ptr noundef nonnull align 8 dereferenceable(72) %0)
          to label %46 unwind label %47

46:                                               ; preds = %45
  resume { ptr, i32 } %40

47:                                               ; preds = %45
  %48 = landingpad { ptr, i32 }
          catch ptr null
  %49 = extractvalue { ptr, i32 } %48, 0
  tail call void @__clang_call_terminate(ptr %49) #17
  unreachable
}

declare void @_ZN6dealii10QuadratureILi3EED2Ev(ptr noundef nonnull align 8 dereferenceable(128)) unnamed_addr #2

declare void @_ZN6dealii10QuadratureILi1EED2Ev(ptr noundef nonnull align 8 dereferenceable(128)) unnamed_addr #2

; Function Attrs: sspstrong uwtable
define weak_odr dso_local void @_ZN6dealii12DataOutStackILi3ELi3ENS_10DoFHandlerILi3ELi3EEEE22finish_parameter_valueEv(ptr noundef nonnull align 8 dereferenceable(232) %0) local_unnamed_addr #0 comdat align 2 {
  %2 = getelementptr inbounds %"class.dealii::DataOutStack", ptr %0, i64 0, i32 3
  %3 = load ptr, ptr %2, align 8, !tbaa !64
  %4 = icmp eq ptr %3, null
  br i1 %4, label %6, label %5

5:                                                ; preds = %1
  store ptr null, ptr %2, align 8, !tbaa !64
  br label %6

6:                                                ; preds = %1, %5
  %7 = getelementptr inbounds %"class.dealii::DataOutStack", ptr %0, i64 0, i32 5
  %8 = load ptr, ptr %7, align 8, !tbaa !65
  %9 = getelementptr inbounds %"class.dealii::DataOutStack", ptr %0, i64 0, i32 5, i32 0, i32 0, i32 0, i32 1
  %10 = load ptr, ptr %9, align 8, !tbaa !65
  %11 = icmp eq ptr %8, %10
  br i1 %11, label %12, label %18

12:                                               ; preds = %24, %6
  %13 = getelementptr inbounds %"class.dealii::DataOutStack", ptr %0, i64 0, i32 6
  %14 = load ptr, ptr %13, align 8, !tbaa !65
  %15 = getelementptr inbounds %"class.dealii::DataOutStack", ptr %0, i64 0, i32 6, i32 0, i32 0, i32 0, i32 1
  %16 = load ptr, ptr %15, align 8, !tbaa !65
  %17 = icmp eq ptr %14, %16
  br i1 %17, label %29, label %30

18:                                               ; preds = %6, %24
  %19 = phi ptr [ %26, %24 ], [ %8, %6 ]
  %20 = getelementptr inbounds %"class.dealii::Vector", ptr %19, i64 0, i32 3
  %21 = load ptr, ptr %20, align 8, !tbaa !38
  %22 = icmp eq ptr %21, null
  br i1 %22, label %24, label %23

23:                                               ; preds = %18
  tail call void @_ZdaPv(ptr noundef nonnull %21) #16
  br label %24

24:                                               ; preds = %18, %23
  %25 = getelementptr inbounds %"class.dealii::Vector", ptr %19, i64 0, i32 1
  tail call void @llvm.memset.p0.i64(ptr noundef nonnull align 8 dereferenceable(16) %25, i8 0, i64 16, i1 false)
  %26 = getelementptr inbounds %"struct.dealii::DataOutStack<3, 3>::DataVector", ptr %19, i64 1
  %27 = load ptr, ptr %9, align 8, !tbaa !65
  %28 = icmp eq ptr %26, %27
  br i1 %28, label %12, label %18

29:                                               ; preds = %36, %12
  ret void

30:                                               ; preds = %12, %36
  %31 = phi ptr [ %38, %36 ], [ %14, %12 ]
  %32 = getelementptr inbounds %"class.dealii::Vector", ptr %31, i64 0, i32 3
  %33 = load ptr, ptr %32, align 8, !tbaa !38
  %34 = icmp eq ptr %33, null
  br i1 %34, label %36, label %35

35:                                               ; preds = %30
  tail call void @_ZdaPv(ptr noundef nonnull %33) #16
  br label %36

36:                                               ; preds = %30, %35
  %37 = getelementptr inbounds %"class.dealii::Vector", ptr %31, i64 0, i32 1
  tail call void @llvm.memset.p0.i64(ptr noundef nonnull align 8 dereferenceable(16) %37, i8 0, i64 16, i1 false)
  %38 = getelementptr inbounds %"struct.dealii::DataOutStack<3, 3>::DataVector", ptr %31, i64 1
  %39 = load ptr, ptr %15, align 8, !tbaa !65
  %40 = icmp eq ptr %38, %39
  br i1 %40, label %29, label %30
}

; Function Attrs: inlinehint sspstrong uwtable
define linkonce_odr dso_local void @_ZN6dealii6VectorIdE6reinitEjb(ptr noundef nonnull align 8 dereferenceable(88) %0, i32 noundef %1, i1 noundef zeroext %2) unnamed_addr #6 comdat align 2 {
  %4 = icmp eq i32 %1, 0
  br i1 %4, label %5, label %12

5:                                                ; preds = %3
  %6 = getelementptr inbounds %"class.dealii::Vector", ptr %0, i64 0, i32 3
  %7 = load ptr, ptr %6, align 8, !tbaa !38
  %8 = icmp eq ptr %7, null
  br i1 %8, label %10, label %9

9:                                                ; preds = %5
  tail call void @_ZdaPv(ptr noundef nonnull %7) #16
  br label %10

10:                                               ; preds = %9, %5
  %11 = getelementptr inbounds %"class.dealii::Vector", ptr %0, i64 0, i32 1
  tail call void @llvm.memset.p0.i64(ptr noundef nonnull align 8 dereferenceable(16) %11, i8 0, i64 16, i1 false)
  br label %32

12:                                               ; preds = %3
  %13 = getelementptr inbounds %"class.dealii::Vector", ptr %0, i64 0, i32 2
  %14 = load i32, ptr %13, align 4, !tbaa !105
  %15 = icmp ult i32 %14, %1
  br i1 %15, label %16, label %25

16:                                               ; preds = %12
  %17 = getelementptr inbounds %"class.dealii::Vector", ptr %0, i64 0, i32 3
  %18 = load ptr, ptr %17, align 8, !tbaa !38
  %19 = icmp eq ptr %18, null
  br i1 %19, label %21, label %20

20:                                               ; preds = %16
  tail call void @_ZdaPv(ptr noundef nonnull %18) #16
  br label %21

21:                                               ; preds = %20, %16
  %22 = zext i32 %1 to i64
  %23 = shl nuw nsw i64 %22, 3
  %24 = tail call noalias noundef nonnull ptr @_Znam(i64 noundef %23) #19
  store ptr %24, ptr %17, align 8, !tbaa !38
  store i32 %1, ptr %13, align 4, !tbaa !105
  br label %25

25:                                               ; preds = %21, %12
  %26 = getelementptr inbounds %"class.dealii::Vector", ptr %0, i64 0, i32 1
  store i32 %1, ptr %26, align 8, !tbaa !106
  br i1 %2, label %32, label %27

27:                                               ; preds = %25
  %28 = getelementptr inbounds %"class.dealii::Vector", ptr %0, i64 0, i32 3
  %29 = load ptr, ptr %28, align 8, !tbaa !38
  %30 = zext i32 %1 to i64
  %31 = shl nuw nsw i64 %30, 3
  tail call void @llvm.memset.p0.i64(ptr align 8 %29, i8 0, i64 %31, i1 false), !tbaa !103
  br label %32

32:                                               ; preds = %27, %10, %25
  ret void
}

; Function Attrs: sspstrong uwtable
define weak_odr dso_local noundef i32 @_ZNK6dealii12DataOutStackILi3ELi3ENS_10DoFHandlerILi3ELi3EEEE18memory_consumptionEv(ptr noundef nonnull align 8 dereferenceable(232) %0) local_unnamed_addr #0 comdat align 2 {
  %2 = tail call noundef i32 @_ZNK6dealii16DataOutInterfaceILi4ELi4EE18memory_consumptionEv(ptr noundef nonnull align 8 dereferenceable(128) %0)
  %3 = getelementptr inbounds %"class.dealii::DataOutStack", ptr %0, i64 0, i32 4
  %4 = getelementptr inbounds %"class.dealii::DataOutStack", ptr %0, i64 0, i32 4, i32 0, i32 0, i32 0, i32 1
  %5 = load ptr, ptr %4, align 8, !tbaa !12
  %6 = load ptr, ptr %3, align 8, !tbaa !8
  %7 = ptrtoint ptr %5 to i64
  %8 = ptrtoint ptr %6 to i64
  %9 = sub i64 %7, %8
  %10 = sdiv exact i64 %9, 656
  %11 = and i64 %10, 4294967295
  %12 = icmp eq i64 %11, 0
  br i1 %12, label %25, label %16

13:                                               ; preds = %16
  %14 = load ptr, ptr %3, align 8, !tbaa !8
  %15 = ptrtoint ptr %14 to i64
  br label %25

16:                                               ; preds = %1, %16
  %17 = phi i64 [ %23, %16 ], [ 0, %1 ]
  %18 = phi i32 [ %22, %16 ], [ 24, %1 ]
  %19 = load ptr, ptr %3, align 8, !tbaa !8
  %20 = getelementptr inbounds %"struct.dealii::DataOutBase::Patch", ptr %19, i64 %17
  %21 = tail call noundef i32 @_ZNK6dealii11DataOutBase5PatchILi4ELi4EE18memory_consumptionEv(ptr noundef nonnull align 8 dereferenceable(649) %20)
  %22 = add i32 %21, %18
  %23 = add nuw nsw i64 %17, 1
  %24 = icmp eq i64 %23, %11
  br i1 %24, label %13, label %16

25:                                               ; preds = %1, %13
  %26 = phi i64 [ %15, %13 ], [ %8, %1 ]
  %27 = phi i32 [ %22, %13 ], [ 24, %1 ]
  %28 = getelementptr inbounds %"class.dealii::DataOutStack", ptr %0, i64 0, i32 4, i32 0, i32 0, i32 0, i32 2
  %29 = load ptr, ptr %28, align 8, !tbaa !147
  %30 = getelementptr inbounds %"class.dealii::DataOutStack", ptr %0, i64 0, i32 5
  %31 = getelementptr inbounds %"class.dealii::DataOutStack", ptr %0, i64 0, i32 5, i32 0, i32 0, i32 0, i32 1
  %32 = load ptr, ptr %31, align 8, !tbaa !30
  %33 = load ptr, ptr %30, align 8, !tbaa !28
  %34 = ptrtoint ptr %32 to i64
  %35 = ptrtoint ptr %33 to i64
  %36 = sub i64 %34, %35
  %37 = sdiv exact i64 %36, 112
  %38 = and i64 %37, 4294967295
  %39 = icmp eq i64 %38, 0
  br i1 %39, label %55, label %43

40:                                               ; preds = %43
  %41 = load ptr, ptr %30, align 8, !tbaa !28
  %42 = ptrtoint ptr %41 to i64
  br label %55

43:                                               ; preds = %25, %43
  %44 = phi i64 [ %53, %43 ], [ 0, %25 ]
  %45 = phi i32 [ %52, %43 ], [ 24, %25 ]
  %46 = load ptr, ptr %30, align 8, !tbaa !28
  %47 = getelementptr inbounds %"struct.dealii::DataOutStack<3, 3>::DataVector", ptr %46, i64 %44
  %48 = tail call noundef i32 @_ZNK6dealii6VectorIdE18memory_consumptionEv(ptr noundef nonnull align 8 dereferenceable(88) %47)
  %49 = getelementptr inbounds %"struct.dealii::DataOutStack<3, 3>::DataVector", ptr %46, i64 %44, i32 1
  %50 = tail call noundef i32 @_ZN6dealii17MemoryConsumption18memory_consumptionERKSt6vectorINSt7__cxx1112basic_stringIcSt11char_traitsIcESaIcEEESaIS7_EE(ptr noundef nonnull align 8 dereferenceable(24) %49)
  %51 = add i32 %48, %45
  %52 = add i32 %51, %50
  %53 = add nuw nsw i64 %44, 1
  %54 = icmp eq i64 %53, %38
  br i1 %54, label %40, label %43

55:                                               ; preds = %25, %40
  %56 = phi i64 [ %42, %40 ], [ %35, %25 ]
  %57 = phi i32 [ %52, %40 ], [ 24, %25 ]
  %58 = getelementptr inbounds %"class.dealii::DataOutStack", ptr %0, i64 0, i32 5, i32 0, i32 0, i32 0, i32 2
  %59 = load ptr, ptr %58, align 8, !tbaa !66
  %60 = getelementptr inbounds %"class.dealii::DataOutStack", ptr %0, i64 0, i32 6
  %61 = getelementptr inbounds %"class.dealii::DataOutStack", ptr %0, i64 0, i32 6, i32 0, i32 0, i32 0, i32 1
  %62 = load ptr, ptr %61, align 8, !tbaa !30
  %63 = load ptr, ptr %60, align 8, !tbaa !28
  %64 = ptrtoint ptr %62 to i64
  %65 = ptrtoint ptr %63 to i64
  %66 = sub i64 %64, %65
  %67 = sdiv exact i64 %66, 112
  %68 = and i64 %67, 4294967295
  %69 = icmp eq i64 %68, 0
  br i1 %69, label %85, label %73

70:                                               ; preds = %73
  %71 = load ptr, ptr %60, align 8, !tbaa !28
  %72 = ptrtoint ptr %71 to i64
  br label %85

73:                                               ; preds = %55, %73
  %74 = phi i64 [ %83, %73 ], [ 0, %55 ]
  %75 = phi i32 [ %82, %73 ], [ 24, %55 ]
  %76 = load ptr, ptr %60, align 8, !tbaa !28
  %77 = getelementptr inbounds %"struct.dealii::DataOutStack<3, 3>::DataVector", ptr %76, i64 %74
  %78 = tail call noundef i32 @_ZNK6dealii6VectorIdE18memory_consumptionEv(ptr noundef nonnull align 8 dereferenceable(88) %77)
  %79 = getelementptr inbounds %"struct.dealii::DataOutStack<3, 3>::DataVector", ptr %76, i64 %74, i32 1
  %80 = tail call noundef i32 @_ZN6dealii17MemoryConsumption18memory_consumptionERKSt6vectorINSt7__cxx1112basic_stringIcSt11char_traitsIcESaIcEEESaIS7_EE(ptr noundef nonnull align 8 dereferenceable(24) %79)
  %81 = add i32 %78, %75
  %82 = add i32 %81, %80
  %83 = add nuw nsw i64 %74, 1
  %84 = icmp eq i64 %83, %68
  br i1 %84, label %70, label %73

85:                                               ; preds = %55, %70
  %86 = phi i64 [ %72, %70 ], [ %65, %55 ]
  %87 = phi i32 [ %82, %70 ], [ 24, %55 ]
  %88 = ptrtoint ptr %29 to i64
  %89 = sub i64 %88, %26
  %90 = sdiv exact i64 %89, 656
  %91 = sub nsw i64 %90, %10
  %92 = trunc i64 %91 to i32
  %93 = mul i32 %92, 656
  %94 = ptrtoint ptr %59 to i64
  %95 = sub i64 %94, %56
  %96 = sdiv exact i64 %95, 112
  %97 = sub nsw i64 %96, %37
  %98 = trunc i64 %97 to i32
  %99 = getelementptr inbounds %"class.dealii::DataOutStack", ptr %0, i64 0, i32 6, i32 0, i32 0, i32 0, i32 2
  %100 = load ptr, ptr %99, align 8, !tbaa !66
  %101 = ptrtoint ptr %100 to i64
  %102 = sub i64 %101, %86
  %103 = sdiv exact i64 %102, 112
  %104 = sub nsw i64 %103, %67
  %105 = trunc i64 %104 to i32
  %106 = add i32 %105, %98
  %107 = mul i32 %106, 112
  %108 = add i32 %2, 32
  %109 = add i32 %108, %27
  %110 = add i32 %109, %93
  %111 = add i32 %110, %57
  %112 = add i32 %111, %87
  %113 = add i32 %112, %107
  ret i32 %113
}

declare noundef i32 @_ZNK6dealii16DataOutInterfaceILi4ELi4EE18memory_consumptionEv(ptr noundef nonnull align 8 dereferenceable(128)) local_unnamed_addr #2

; Function Attrs: sspstrong uwtable
define weak_odr dso_local void @_ZN6dealii12DataOutStackILi3ELi3ENS_10DoFHandlerILi3ELi3EEEE20ExcInvalidVectorSizeC2Eiii(ptr noundef nonnull align 8 dereferenceable(72) %0, i32 noundef %1, i32 noundef %2, i32 noundef %3) unnamed_addr #0 comdat($_ZN6dealii12DataOutStackILi3ELi3ENS_10DoFHandlerILi3ELi3EEEE20ExcInvalidVectorSizeC5Eiii) align 2 {
  tail call void @_ZN6dealii13ExceptionBaseC2Ev(ptr noundef nonnull align 8 dereferenceable(60) %0)
  store ptr getelementptr inbounds ({ [6 x ptr] }, ptr @_ZTVN6dealii12DataOutStackILi3ELi3ENS_10DoFHandlerILi3ELi3EEEE20ExcInvalidVectorSizeE, i64 0, inrange i32 0, i64 2), ptr %0, align 8, !tbaa !5
  %5 = getelementptr inbounds %"class.dealii::DataOutStack<3, 3>::ExcInvalidVectorSize", ptr %0, i64 0, i32 1
  store i32 %1, ptr %5, align 4, !tbaa !148
  %6 = getelementptr inbounds %"class.dealii::DataOutStack<3, 3>::ExcInvalidVectorSize", ptr %0, i64 0, i32 2
  store i32 %2, ptr %6, align 8, !tbaa !152
  %7 = getelementptr inbounds %"class.dealii::DataOutStack<3, 3>::ExcInvalidVectorSize", ptr %0, i64 0, i32 3
  store i32 %3, ptr %7, align 4, !tbaa !153
  ret void
}

declare void @_ZN6dealii13ExceptionBaseC2Ev(ptr noundef nonnull align 8 dereferenceable(60)) unnamed_addr #2

; Function Attrs: nounwind sspstrong uwtable
define weak_odr dso_local void @_ZN6dealii12DataOutStackILi3ELi3ENS_10DoFHandlerILi3ELi3EEEE20ExcInvalidVectorSizeD2Ev(ptr noundef nonnull align 8 dereferenceable(72) %0) unnamed_addr #7 comdat($_ZN6dealii12DataOutStackILi3ELi3ENS_10DoFHandlerILi3ELi3EEEE20ExcInvalidVectorSizeD5Ev) align 2 {
  tail call void @_ZN6dealii13ExceptionBaseD2Ev(ptr noundef nonnull align 8 dereferenceable(60) %0) #18
  ret void
}

; Function Attrs: nounwind sspstrong uwtable
define weak_odr dso_local void @_ZN6dealii12DataOutStackILi3ELi3ENS_10DoFHandlerILi3ELi3EEEE20ExcInvalidVectorSizeD0Ev(ptr noundef nonnull align 8 dereferenceable(72) %0) unnamed_addr #7 comdat($_ZN6dealii12DataOutStackILi3ELi3ENS_10DoFHandlerILi3ELi3EEEE20ExcInvalidVectorSizeD5Ev) align 2 {
  tail call void @_ZN6dealii13ExceptionBaseD2Ev(ptr noundef nonnull align 8 dereferenceable(60) %0) #18
  tail call void @_ZdlPv(ptr noundef nonnull %0) #16
  ret void
}

; Function Attrs: sspstrong uwtable
define weak_odr dso_local void @_ZNK6dealii12DataOutStackILi3ELi3ENS_10DoFHandlerILi3ELi3EEEE20ExcInvalidVectorSize10print_infoERSo(ptr noundef nonnull align 8 dereferenceable(72) %0, ptr noundef nonnull align 8 dereferenceable(8) %1) unnamed_addr #0 comdat align 2 {
  %3 = tail call noundef nonnull align 8 dereferenceable(8) ptr @_ZSt16__ostream_insertIcSt11char_traitsIcEERSt13basic_ostreamIT_T0_ES6_PKS3_l(ptr noundef nonnull align 8 dereferenceable(8) %1, ptr noundef nonnull @.str, i64 noundef 20)
  %4 = getelementptr inbounds %"class.dealii::DataOutStack<3, 3>::ExcInvalidVectorSize", ptr %0, i64 0, i32 1
  %5 = load i32, ptr %4, align 4, !tbaa !148
  %6 = tail call noundef nonnull align 8 dereferenceable(8) ptr @_ZNSolsEi(ptr noundef nonnull align 8 dereferenceable(8) %1, i32 noundef %5)
  %7 = tail call noundef nonnull align 8 dereferenceable(8) ptr @_ZSt16__ostream_insertIcSt11char_traitsIcEERSt13basic_ostreamIT_T0_ES6_PKS3_l(ptr noundef nonnull align 8 dereferenceable(8) %6, ptr noundef nonnull @.str.9, i64 noundef 43)
  %8 = getelementptr inbounds %"class.dealii::DataOutStack<3, 3>::ExcInvalidVectorSize", ptr %0, i64 0, i32 2
  %9 = load i32, ptr %8, align 8, !tbaa !152
  %10 = tail call noundef nonnull align 8 dereferenceable(8) ptr @_ZNSolsEi(ptr noundef nonnull align 8 dereferenceable(8) %6, i32 noundef %9)
  %11 = tail call noundef nonnull align 8 dereferenceable(8) ptr @_ZSt16__ostream_insertIcSt11char_traitsIcEERSt13basic_ostreamIT_T0_ES6_PKS3_l(ptr noundef nonnull align 8 dereferenceable(8) %10, ptr noundef nonnull @.str.10, i64 noundef 34)
  %12 = getelementptr inbounds %"class.dealii::DataOutStack<3, 3>::ExcInvalidVectorSize", ptr %0, i64 0, i32 3
  %13 = load i32, ptr %12, align 4, !tbaa !153
  %14 = tail call noundef nonnull align 8 dereferenceable(8) ptr @_ZNSolsEi(ptr noundef nonnull align 8 dereferenceable(8) %10, i32 noundef %13)
  %15 = tail call noundef nonnull align 8 dereferenceable(8) ptr @_ZSt16__ostream_insertIcSt11char_traitsIcEERSt13basic_ostreamIT_T0_ES6_PKS3_l(ptr noundef nonnull align 8 dereferenceable(8) %14, ptr noundef nonnull @.str.11, i64 noundef 14)
  %16 = load ptr, ptr %14, align 8, !tbaa !5
  %17 = getelementptr i8, ptr %16, i64 -24
  %18 = load i64, ptr %17, align 8
  %19 = getelementptr inbounds i8, ptr %14, i64 %18
  %20 = getelementptr inbounds %"class.std::basic_ios", ptr %19, i64 0, i32 5
  %21 = load ptr, ptr %20, align 8, !tbaa !154
  %22 = icmp eq ptr %21, null
  br i1 %22, label %23, label %24

23:                                               ; preds = %2
  tail call void @_ZSt16__throw_bad_castv() #20
  unreachable

24:                                               ; preds = %2
  %25 = getelementptr inbounds %"class.std::ctype", ptr %21, i64 0, i32 8
  %26 = load i8, ptr %25, align 8, !tbaa !161
  %27 = icmp eq i8 %26, 0
  br i1 %27, label %31, label %28

28:                                               ; preds = %24
  %29 = getelementptr inbounds %"class.std::ctype", ptr %21, i64 0, i32 9, i64 10
  %30 = load i8, ptr %29, align 1, !tbaa !164
  br label %36

31:                                               ; preds = %24
  tail call void @_ZNKSt5ctypeIcE13_M_widen_initEv(ptr noundef nonnull align 8 dereferenceable(570) %21)
  %32 = load ptr, ptr %21, align 8, !tbaa !5
  %33 = getelementptr inbounds ptr, ptr %32, i64 6
  %34 = load ptr, ptr %33, align 8
  %35 = tail call noundef signext i8 %34(ptr noundef nonnull align 8 dereferenceable(570) %21, i8 noundef signext 10)
  br label %36

36:                                               ; preds = %28, %31
  %37 = phi i8 [ %30, %28 ], [ %35, %31 ]
  %38 = tail call noundef nonnull align 8 dereferenceable(8) ptr @_ZNSo3putEc(ptr noundef nonnull align 8 dereferenceable(8) %14, i8 noundef signext %37)
  %39 = tail call noundef nonnull align 8 dereferenceable(8) ptr @_ZNSo5flushEv(ptr noundef nonnull align 8 dereferenceable(8) %38)
  ret void
}

declare noundef nonnull align 8 dereferenceable(8) ptr @_ZNSolsEi(ptr noundef nonnull align 8 dereferenceable(8), i32 noundef) local_unnamed_addr #2

; Function Attrs: sspstrong uwtable
define weak_odr dso_local void @_ZN6dealii12DataOutStackILi3ELi3ENS_10DoFHandlerILi3ELi3EEEE19ExcInvalidCharacterC2ENSt7__cxx1112basic_stringIcSt11char_traitsIcESaIcEEEm(ptr noundef nonnull align 8 dereferenceable(104) %0, ptr noundef %1, i64 noundef %2) unnamed_addr #0 comdat($_ZN6dealii12DataOutStackILi3ELi3ENS_10DoFHandlerILi3ELi3EEEE19ExcInvalidCharacterC5ENSt7__cxx1112basic_stringIcSt11char_traitsIcESaIcEEEm) align 2 personality ptr @__gxx_personality_v0 {
  %4 = alloca i64, align 8
  tail call void @_ZN6dealii13ExceptionBaseC2Ev(ptr noundef nonnull align 8 dereferenceable(60) %0)
  store ptr getelementptr inbounds ({ [6 x ptr] }, ptr @_ZTVN6dealii12DataOutStackILi3ELi3ENS_10DoFHandlerILi3ELi3EEEE19ExcInvalidCharacterE, i64 0, inrange i32 0, i64 2), ptr %0, align 8, !tbaa !5
  %5 = getelementptr inbounds %"class.dealii::DataOutStack<3, 3>::ExcInvalidCharacter", ptr %0, i64 0, i32 1
  %6 = getelementptr inbounds %"class.dealii::DataOutStack<3, 3>::ExcInvalidCharacter", ptr %0, i64 0, i32 1, i32 2
  store ptr %6, ptr %5, align 8, !tbaa !165
  %7 = load ptr, ptr %1, align 8, !tbaa !34
  %8 = getelementptr inbounds %"class.std::__cxx11::basic_string", ptr %1, i64 0, i32 1
  %9 = load i64, ptr %8, align 8, !tbaa !37
  call void @llvm.lifetime.start.p0(i64 8, ptr nonnull %4) #18
  store i64 %9, ptr %4, align 8, !tbaa !87
  %10 = icmp ugt i64 %9, 15
  br i1 %10, label %11, label %15

11:                                               ; preds = %3
  %12 = invoke noundef ptr @_ZNSt7__cxx1112basic_stringIcSt11char_traitsIcESaIcEE9_M_createERmm(ptr noundef nonnull align 8 dereferenceable(32) %5, ptr noundef nonnull align 8 dereferenceable(8) %4, i64 noundef 0)
          to label %13 unwind label %26

13:                                               ; preds = %11
  store ptr %12, ptr %5, align 8, !tbaa !34
  %14 = load i64, ptr %4, align 8, !tbaa !87
  store i64 %14, ptr %6, align 8, !tbaa !164
  br label %15

15:                                               ; preds = %13, %3
  %16 = phi ptr [ %12, %13 ], [ %6, %3 ]
  switch i64 %9, label %19 [
    i64 1, label %17
    i64 0, label %20
  ]

17:                                               ; preds = %15
  %18 = load i8, ptr %7, align 1, !tbaa !164
  store i8 %18, ptr %16, align 1, !tbaa !164
  br label %20

19:                                               ; preds = %15
  call void @llvm.memcpy.p0.p0.i64(ptr align 1 %16, ptr align 1 %7, i64 %9, i1 false)
  br label %20

20:                                               ; preds = %19, %17, %15
  %21 = load i64, ptr %4, align 8, !tbaa !87
  %22 = getelementptr inbounds %"class.dealii::DataOutStack<3, 3>::ExcInvalidCharacter", ptr %0, i64 0, i32 1, i32 1
  store i64 %21, ptr %22, align 8, !tbaa !37
  %23 = load ptr, ptr %5, align 8, !tbaa !34
  %24 = getelementptr inbounds i8, ptr %23, i64 %21
  store i8 0, ptr %24, align 1, !tbaa !164
  call void @llvm.lifetime.end.p0(i64 8, ptr nonnull %4) #18
  %25 = getelementptr inbounds %"class.dealii::DataOutStack<3, 3>::ExcInvalidCharacter", ptr %0, i64 0, i32 2
  store i64 %2, ptr %25, align 8, !tbaa !166
  ret void

26:                                               ; preds = %11
  %27 = landingpad { ptr, i32 }
          cleanup
  call void @_ZN6dealii13ExceptionBaseD2Ev(ptr noundef nonnull align 8 dereferenceable(60) %0) #18
  resume { ptr, i32 } %27
}

; Function Attrs: nounwind sspstrong uwtable
define weak_odr dso_local void @_ZN6dealii12DataOutStackILi3ELi3ENS_10DoFHandlerILi3ELi3EEEE19ExcInvalidCharacterD2Ev(ptr noundef nonnull align 8 dereferenceable(104) %0) unnamed_addr #7 comdat($_ZN6dealii12DataOutStackILi3ELi3ENS_10DoFHandlerILi3ELi3EEEE19ExcInvalidCharacterD5Ev) align 2 personality ptr @__gxx_personality_v0 {
  store ptr getelementptr inbounds ({ [6 x ptr] }, ptr @_ZTVN6dealii12DataOutStackILi3ELi3ENS_10DoFHandlerILi3ELi3EEEE19ExcInvalidCharacterE, i64 0, inrange i32 0, i64 2), ptr %0, align 8, !tbaa !5
  %2 = getelementptr inbounds %"class.dealii::DataOutStack<3, 3>::ExcInvalidCharacter", ptr %0, i64 0, i32 1
  %3 = load ptr, ptr %2, align 8, !tbaa !34
  %4 = getelementptr inbounds %"class.dealii::DataOutStack<3, 3>::ExcInvalidCharacter", ptr %0, i64 0, i32 1, i32 2
  %5 = icmp eq ptr %3, %4
  br i1 %5, label %6, label %10

