; ModuleID = 'source/numerics/error_estimator.cc'
source_filename = "source/numerics/error_estimator.cc"
target datalayout = "e-m:e-p270:32:32-p271:32:32-p272:64:64-i64:64-f80:128-n8:16:32:64-S128"
target triple = "x86_64-pc-linux-gnu"

module asm ".globl _ZSt21ios_base_library_initv"

%"class.dealii::MappingQ1" = type { %"class.dealii::Mapping" }
%"class.dealii::Mapping" = type { %"class.dealii::Subscriptor" }
%"class.dealii::Subscriptor" = type { ptr, i32, %"class.std::map", ptr }
%"class.std::map" = type { %"class.std::_Rb_tree" }
%"class.std::_Rb_tree" = type { %"struct.std::_Rb_tree<const char *, std::pair<const char *const, unsigned int>, std::_Select1st<std::pair<const char *const, unsigned int> >, std::less<const char *> >::_Rb_tree_impl" }
%"struct.std::_Rb_tree<const char *, std::pair<const char *const, unsigned int>, std::_Select1st<std::pair<const char *const, unsigned int> >, std::less<const char *> >::_Rb_tree_impl" = type { %"struct.std::_Rb_tree_key_compare", %"struct.std::_Rb_tree_header" }
%"struct.std::_Rb_tree_key_compare" = type { %"struct.std::less" }
%"struct.std::less" = type { i8 }
%"struct.std::_Rb_tree_header" = type { %"struct.std::_Rb_tree_node_base", i64 }
%"struct.std::_Rb_tree_node_base" = type { i32, ptr, ptr, ptr }
%"struct.boost::detail::function::basic_vtable9" = type { %"struct.boost::detail::function::vtable_base", ptr }
%"struct.boost::detail::function::vtable_base" = type { ptr }
%"struct.boost::detail::function::basic_vtable0" = type { %"struct.boost::detail::function::vtable_base", ptr }
%"struct.boost::detail::function::basic_vtable9.262" = type { %"struct.boost::detail::function::vtable_base", ptr }
%"struct.boost::detail::function::basic_vtable9.263" = type { %"struct.boost::detail::function::vtable_base", ptr }
%"struct.boost::detail::function::basic_vtable9.264" = type { %"struct.boost::detail::function::vtable_base", ptr }
%"struct.boost::detail::function::basic_vtable9.265" = type { %"struct.boost::detail::function::vtable_base", ptr }
%"struct.boost::detail::function::basic_vtable9.272" = type { %"struct.boost::detail::function::vtable_base", ptr }
%"struct.boost::detail::function::basic_vtable9.273" = type { %"struct.boost::detail::function::vtable_base", ptr }
%"struct.boost::detail::function::basic_vtable9.274" = type { %"struct.boost::detail::function::vtable_base", ptr }
%"class.dealii::KellyErrorEstimator<3, 3>::ExcIncompatibleNumberOfElements" = type { %"class.dealii::ExceptionBase.base", i32, i32, [4 x i8] }
%"class.dealii::ExceptionBase.base" = type <{ %"class.std::exception", ptr, i32, [4 x i8], ptr, ptr, ptr, ptr, i32 }>
%"class.std::exception" = type { ptr }
%"class.std::basic_ios" = type { %"class.std::ios_base", ptr, i8, i8, ptr, ptr, ptr, ptr }
%"class.std::ios_base" = type { ptr, i64, i64, i32, i32, i32, ptr, %"struct.std::ios_base::_Words", [8 x %"struct.std::ios_base::_Words"], i32, ptr, %"class.std::locale" }
%"struct.std::ios_base::_Words" = type { ptr, i64 }
%"class.std::locale" = type { ptr }
%"class.std::ctype" = type <{ %"class.std::locale::facet.base", [4 x i8], ptr, i8, [7 x i8], ptr, ptr, ptr, i8, [256 x i8], [256 x i8], i8, [6 x i8] }>
%"class.std::locale::facet.base" = type <{ ptr, i32 }>
%"class.dealii::Point" = type { %"class.dealii::Tensor" }
%"class.dealii::Tensor" = type { [3 x double] }
%"class.dealii::Vector" = type { %"class.dealii::Subscriptor", i32, i32, ptr }
%"class.std::vector.39" = type { %"struct.std::_Vector_base.40" }
%"struct.std::_Vector_base.40" = type { %"struct.std::_Vector_base<std::vector<double>, std::allocator<std::vector<double> > >::_Vector_impl" }
%"struct.std::_Vector_base<std::vector<double>, std::allocator<std::vector<double> > >::_Vector_impl" = type { %"struct.std::_Vector_base<std::vector<double>, std::allocator<std::vector<double> > >::_Vector_impl_data" }
%"struct.std::_Vector_base<std::vector<double>, std::allocator<std::vector<double> > >::_Vector_impl_data" = type { ptr, ptr, ptr }
%"class.std::vector.44" = type { %"struct.std::_Vector_base.45" }
%"struct.std::_Vector_base.45" = type { %"struct.std::_Vector_base<std::vector<dealii::Tensor<1, 3> >, std::allocator<std::vector<dealii::Tensor<1, 3> > > >::_Vector_impl" }
%"struct.std::_Vector_base<std::vector<dealii::Tensor<1, 3> >, std::allocator<std::vector<dealii::Tensor<1, 3> > > >::_Vector_impl" = type { %"struct.std::_Vector_base<std::vector<dealii::Tensor<1, 3> >, std::allocator<std::vector<dealii::Tensor<1, 3> > > >::_Vector_impl_data" }
%"struct.std::_Vector_base<std::vector<dealii::Tensor<1, 3> >, std::allocator<std::vector<dealii::Tensor<1, 3> > > >::_Vector_impl_data" = type { ptr, ptr, ptr }
%"class.std::vector.26" = type { %"struct.std::_Vector_base.27" }
%"struct.std::_Vector_base.27" = type { %"struct.std::_Vector_base<double, std::allocator<double> >::_Vector_impl" }
%"struct.std::_Vector_base<double, std::allocator<double> >::_Vector_impl" = type { %"struct.std::_Vector_base<double, std::allocator<double> >::_Vector_impl_data" }
%"struct.std::_Vector_base<double, std::allocator<double> >::_Vector_impl_data" = type { ptr, ptr, ptr }
%"class.std::vector.49" = type { %"struct.std::_Vector_base.50" }
%"struct.std::_Vector_base.50" = type { %"struct.std::_Vector_base<dealii::Tensor<1, 3>, std::allocator<dealii::Tensor<1, 3> > >::_Vector_impl" }
%"struct.std::_Vector_base<dealii::Tensor<1, 3>, std::allocator<dealii::Tensor<1, 3> > >::_Vector_impl" = type { %"struct.std::_Vector_base<dealii::Tensor<1, 3>, std::allocator<dealii::Tensor<1, 3> > >::_Vector_impl_data" }
%"struct.std::_Vector_base<dealii::Tensor<1, 3>, std::allocator<dealii::Tensor<1, 3> > >::_Vector_impl_data" = type { ptr, ptr, ptr }
%"struct.dealii::KellyErrorEstimator<3, 3>::PerThreadData" = type { %"class.std::vector", %"class.std::vector.16", %"class.std::vector.16", %"class.std::vector.21", %"class.std::vector.26", %"class.std::vector.31", %"class.std::vector.26", i32, i32 }
%"class.std::vector" = type { %"struct.std::_Vector_base" }
%"struct.std::_Vector_base" = type { %"struct.std::_Vector_base<std::vector<std::vector<double> >, std::allocator<std::vector<std::vector<double> > > >::_Vector_impl" }
%"struct.std::_Vector_base<std::vector<std::vector<double> >, std::allocator<std::vector<std::vector<double> > > >::_Vector_impl" = type { %"struct.std::_Vector_base<std::vector<std::vector<double> >, std::allocator<std::vector<std::vector<double> > > >::_Vector_impl_data" }
%"struct.std::_Vector_base<std::vector<std::vector<double> >, std::allocator<std::vector<std::vector<double> > > >::_Vector_impl_data" = type { ptr, ptr, ptr }
%"class.std::vector.16" = type { %"struct.std::_Vector_base.17" }
%"struct.std::_Vector_base.17" = type { %"struct.std::_Vector_base<std::vector<std::vector<dealii::Tensor<1, 3> > >, std::allocator<std::vector<std::vector<dealii::Tensor<1, 3> > > > >::_Vector_impl" }
%"struct.std::_Vector_base<std::vector<std::vector<dealii::Tensor<1, 3> > >, std::allocator<std::vector<std::vector<dealii::Tensor<1, 3> > > > >::_Vector_impl" = type { %"struct.std::_Vector_base<std::vector<std::vector<dealii::Tensor<1, 3> > >, std::allocator<std::vector<std::vector<dealii::Tensor<1, 3> > > > >::_Vector_impl_data" }
%"struct.std::_Vector_base<std::vector<std::vector<dealii::Tensor<1, 3> > >, std::allocator<std::vector<std::vector<dealii::Tensor<1, 3> > > > >::_Vector_impl_data" = type { ptr, ptr, ptr }
%"class.std::vector.21" = type { %"struct.std::_Vector_base.22" }
%"struct.std::_Vector_base.22" = type { %"struct.std::_Vector_base<dealii::Point<3>, std::allocator<dealii::Point<3> > >::_Vector_impl" }
%"struct.std::_Vector_base<dealii::Point<3>, std::allocator<dealii::Point<3> > >::_Vector_impl" = type { %"struct.std::_Vector_base<dealii::Point<3>, std::allocator<dealii::Point<3> > >::_Vector_impl_data" }
%"struct.std::_Vector_base<dealii::Point<3>, std::allocator<dealii::Point<3> > >::_Vector_impl_data" = type { ptr, ptr, ptr }
%"class.std::vector.31" = type { %"struct.std::_Vector_base.32" }
%"struct.std::_Vector_base.32" = type { %"struct.std::_Vector_base<dealii::Vector<double>, std::allocator<dealii::Vector<double> > >::_Vector_impl" }
%"struct.std::_Vector_base<dealii::Vector<double>, std::allocator<dealii::Vector<double> > >::_Vector_impl" = type { %"struct.std::_Vector_base<dealii::Vector<double>, std::allocator<dealii::Vector<double> > >::_Vector_impl_data" }
%"struct.std::_Vector_base<dealii::Vector<double>, std::allocator<dealii::Vector<double> > >::_Vector_impl_data" = type { ptr, ptr, ptr }
%"class.dealii::hp::QCollection" = type { %"class.dealii::Subscriptor", %"class.std::vector.86" }
%"class.std::vector.86" = type { %"struct.std::_Vector_base.87" }
%"struct.std::_Vector_base.87" = type { %"struct.std::_Vector_base<boost::shared_ptr<const dealii::Quadrature<2> >, std::allocator<boost::shared_ptr<const dealii::Quadrature<2> > > >::_Vector_impl" }
%"struct.std::_Vector_base<boost::shared_ptr<const dealii::Quadrature<2> >, std::allocator<boost::shared_ptr<const dealii::Quadrature<2> > > >::_Vector_impl" = type { %"struct.std::_Vector_base<boost::shared_ptr<const dealii::Quadrature<2> >, std::allocator<boost::shared_ptr<const dealii::Quadrature<2> > > >::_Vector_impl_data" }
%"struct.std::_Vector_base<boost::shared_ptr<const dealii::Quadrature<2> >, std::allocator<boost::shared_ptr<const dealii::Quadrature<2> > > >::_Vector_impl_data" = type { ptr, ptr, ptr }
%"class.std::vector.54" = type { %"struct.std::_Vector_base.55" }
%"struct.std::_Vector_base.55" = type { %"struct.std::_Vector_base<const dealii::Vector<double> *, std::allocator<const dealii::Vector<double> *> >::_Vector_impl" }
%"struct.std::_Vector_base<const dealii::Vector<double> *, std::allocator<const dealii::Vector<double> *> >::_Vector_impl" = type { %"struct.std::_Vector_base<const dealii::Vector<double> *, std::allocator<const dealii::Vector<double> *> >::_Vector_impl_data" }
%"struct.std::_Vector_base<const dealii::Vector<double> *, std::allocator<const dealii::Vector<double> *> >::_Vector_impl_data" = type { ptr, ptr, ptr }
%"class.std::vector.59" = type { %"struct.std::_Vector_base.60" }
%"struct.std::_Vector_base.60" = type { %"struct.std::_Vector_base<dealii::Vector<float> *, std::allocator<dealii::Vector<float> *> >::_Vector_impl" }
%"struct.std::_Vector_base<dealii::Vector<float> *, std::allocator<dealii::Vector<float> *> >::_Vector_impl" = type { %"struct.std::_Vector_base<dealii::Vector<float> *, std::allocator<dealii::Vector<float> *> >::_Vector_impl_data" }
%"struct.std::_Vector_base<dealii::Vector<float> *, std::allocator<dealii::Vector<float> *> >::_Vector_impl_data" = type { ptr, ptr, ptr }
%"struct.std::pair.257" = type { %"class.dealii::TriaIterator.139", %"class.std::vector.26" }
%"class.dealii::TriaIterator.139" = type { %"class.dealii::TriaRawIterator.140" }
%"class.dealii::TriaRawIterator.140" = type { %"class.dealii::DoFAccessor.142" }
%"class.dealii::DoFAccessor.142" = type { %"class.dealii::TriaAccessor.143", ptr }
%"class.dealii::TriaAccessor.143" = type { %"class.dealii::TriaAccessorBase.144" }
%"class.dealii::TriaAccessorBase.144" = type { i32, ptr }
%"class.std::vector.82" = type { %"struct.std::_Bvector_base" }
%"struct.std::_Bvector_base" = type { %"struct.std::_Bvector_base<std::allocator<bool> >::_Bvector_impl" }
%"struct.std::_Bvector_base<std::allocator<bool> >::_Bvector_impl" = type { %"struct.std::_Bvector_base<std::allocator<bool> >::_Bvector_impl_data" }
%"struct.std::_Bvector_base<std::allocator<bool> >::_Bvector_impl_data" = type { %"struct.std::_Bit_iterator", %"struct.std::_Bit_iterator", ptr }
%"struct.std::_Bit_iterator" = type { %"struct.std::_Bit_iterator_base.base", [4 x i8] }
%"struct.std::_Bit_iterator_base.base" = type <{ ptr, i32 }>
%"class.std::map.130" = type { %"class.std::_Rb_tree.131" }
%"class.std::_Rb_tree.131" = type { %"struct.std::_Rb_tree<dealii::TriaIterator<dealii::DoFAccessor<2, dealii::DoFHandler<3, 3> > >, std::pair<const dealii::TriaIterator<dealii::DoFAccessor<2, dealii::DoFHandler<3, 3> > >, std::vector<double> >, std::_Select1st<std::pair<const dealii::TriaIterator<dealii::DoFAccessor<2, dealii::DoFHandler<3, 3> > >, std::vector<double> > >, std::less<dealii::TriaIterator<dealii::DoFAccessor<2, dealii::DoFHandler<3, 3> > > > >::_Rb_tree_impl" }
%"struct.std::_Rb_tree<dealii::TriaIterator<dealii::DoFAccessor<2, dealii::DoFHandler<3, 3> > >, std::pair<const dealii::TriaIterator<dealii::DoFAccessor<2, dealii::DoFHandler<3, 3> > >, std::vector<double> >, std::_Select1st<std::pair<const dealii::TriaIterator<dealii::DoFAccessor<2, dealii::DoFHandler<3, 3> > >, std::vector<double> > >, std::less<dealii::TriaIterator<dealii::DoFAccessor<2, dealii::DoFHandler<3, 3> > > > >::_Rb_tree_impl" = type { %"struct.std::_Rb_tree_key_compare.135", %"struct.std::_Rb_tree_header" }
%"struct.std::_Rb_tree_key_compare.135" = type { %"struct.std::less.136" }
%"struct.std::less.136" = type { i8 }
%"class.dealii::TriaActiveIterator" = type { %"class.dealii::TriaIterator" }
%"class.dealii::TriaIterator" = type { %"class.dealii::TriaRawIterator" }
%"class.dealii::TriaRawIterator" = type { %"class.dealii::DoFCellAccessor" }
%"class.dealii::DoFCellAccessor" = type { %"class.dealii::DoFAccessor" }
%"class.dealii::DoFAccessor" = type { %"class.dealii::CellAccessor", ptr }
%"class.dealii::CellAccessor" = type { %"class.dealii::TriaAccessor" }
%"class.dealii::TriaAccessor" = type { %"class.dealii::TriaAccessorBase" }
%"class.dealii::TriaAccessorBase" = type { i32, i32, ptr }
%"class.dealii::Threads::ThreadGroup" = type { %"class.std::__cxx11::list" }
%"class.std::__cxx11::list" = type { %"class.std::__cxx11::_List_base" }
%"class.std::__cxx11::_List_base" = type { %"struct.std::__cxx11::_List_base<dealii::Threads::Thread<>, std::allocator<dealii::Threads::Thread<> > >::_List_impl" }
%"struct.std::__cxx11::_List_base<dealii::Threads::Thread<>, std::allocator<dealii::Threads::Thread<> > >::_List_impl" = type { %"struct.std::__detail::_List_node_header" }
%"struct.std::__detail::_List_node_header" = type { %"struct.std::__detail::_List_node_base", i64 }
%"struct.std::__detail::_List_node_base" = type { ptr, ptr }
%"class.dealii::hp::MappingCollection" = type { %"class.dealii::Subscriptor", %"class.std::vector.153" }
%"class.std::vector.153" = type { %"struct.std::_Vector_base.154" }
%"struct.std::_Vector_base.154" = type { %"struct.std::_Vector_base<boost::shared_ptr<const dealii::Mapping<3, 3> >, std::allocator<boost::shared_ptr<const dealii::Mapping<3, 3> > > >::_Vector_impl" }
%"struct.std::_Vector_base<boost::shared_ptr<const dealii::Mapping<3, 3> >, std::allocator<boost::shared_ptr<const dealii::Mapping<3, 3> > > >::_Vector_impl" = type { %"struct.std::_Vector_base<boost::shared_ptr<const dealii::Mapping<3, 3> >, std::allocator<boost::shared_ptr<const dealii::Mapping<3, 3> > > >::_Vector_impl_data" }
%"struct.std::_Vector_base<boost::shared_ptr<const dealii::Mapping<3, 3> >, std::allocator<boost::shared_ptr<const dealii::Mapping<3, 3> > > >::_Vector_impl_data" = type { ptr, ptr, ptr }
%"class.dealii::Threads::Thread" = type { %"class.boost::shared_ptr" }
%"class.boost::shared_ptr" = type { ptr, %"class.boost::detail::shared_count" }
%"class.boost::detail::shared_count" = type { ptr }
%"class.dealii::Threads::internal::fun_encapsulator" = type { %"class.boost::function" }
%"class.boost::function" = type { %"class.boost::function9" }
%"class.boost::function9" = type { %"class.boost::function_base" }
%"class.boost::function_base" = type { ptr, %"union.boost::detail::function::function_buffer" }
%"union.boost::detail::function::function_buffer" = type { %"struct.boost::detail::function::function_buffer::bound_memfunc_ptr_t" }
%"struct.boost::detail::function::function_buffer::bound_memfunc_ptr_t" = type { { i64, i64 }, ptr }
%"struct.std::pair.158" = type { ptr, ptr }
%"class.dealii::DoFHandler" = type { %"class.dealii::Subscriptor", %"class.dealii::SmartPointer", %"class.dealii::SmartPointer.65", %"class.std::vector.66", ptr, i32, %"class.std::vector.71" }
%"class.dealii::SmartPointer" = type { ptr, ptr }
%"class.dealii::SmartPointer.65" = type { ptr, ptr }
%"class.std::vector.66" = type { %"struct.std::_Vector_base.67" }
%"struct.std::_Vector_base.67" = type { %"struct.std::_Vector_base<dealii::internal::DoFHandler::DoFLevel<3> *, std::allocator<dealii::internal::DoFHandler::DoFLevel<3> *> >::_Vector_impl" }
%"struct.std::_Vector_base<dealii::internal::DoFHandler::DoFLevel<3> *, std::allocator<dealii::internal::DoFHandler::DoFLevel<3> *> >::_Vector_impl" = type { %"struct.std::_Vector_base<dealii::internal::DoFHandler::DoFLevel<3> *, std::allocator<dealii::internal::DoFHandler::DoFLevel<3> *> >::_Vector_impl_data" }
%"struct.std::_Vector_base<dealii::internal::DoFHandler::DoFLevel<3> *, std::allocator<dealii::internal::DoFHandler::DoFLevel<3> *> >::_Vector_impl_data" = type { ptr, ptr, ptr }
%"class.std::vector.71" = type { %"struct.std::_Vector_base.72" }
%"struct.std::_Vector_base.72" = type { %"struct.std::_Vector_base<unsigned int, std::allocator<unsigned int> >::_Vector_impl" }
%"struct.std::_Vector_base<unsigned int, std::allocator<unsigned int> >::_Vector_impl" = type { %"struct.std::_Vector_base<unsigned int, std::allocator<unsigned int> >::_Vector_impl_data" }
%"struct.std::_Vector_base<unsigned int, std::allocator<unsigned int> >::_Vector_impl_data" = type { ptr, ptr, ptr }
%"struct.std::_Bit_iterator_base" = type <{ ptr, i32, [4 x i8] }>
%"class.dealii::Triangulation" = type { %"class.dealii::Subscriptor", %"class.std::vector.162", ptr, %"class.std::vector.21", %"class.std::vector.82", [255 x %"class.dealii::SmartPointer.167"], [255 x %"class.dealii::SmartPointer.167"], i8, i32, %"struct.dealii::internal::Triangulation::NumberCache", %"class.std::__cxx11::list.170" }
%"class.std::vector.162" = type { %"struct.std::_Vector_base.163" }
%"struct.std::_Vector_base.163" = type { %"struct.std::_Vector_base<dealii::internal::Triangulation::TriaLevel<3> *, std::allocator<dealii::internal::Triangulation::TriaLevel<3> *> >::_Vector_impl" }
%"struct.std::_Vector_base<dealii::internal::Triangulation::TriaLevel<3> *, std::allocator<dealii::internal::Triangulation::TriaLevel<3> *> >::_Vector_impl" = type { %"struct.std::_Vector_base<dealii::internal::Triangulation::TriaLevel<3> *, std::allocator<dealii::internal::Triangulation::TriaLevel<3> *> >::_Vector_impl_data" }
%"struct.std::_Vector_base<dealii::internal::Triangulation::TriaLevel<3> *, std::allocator<dealii::internal::Triangulation::TriaLevel<3> *> >::_Vector_impl_data" = type { ptr, ptr, ptr }
%"class.dealii::SmartPointer.167" = type { ptr, ptr }
%"struct.dealii::internal::Triangulation::NumberCache" = type { %"struct.dealii::internal::Triangulation::NumberCache.168", i32, %"class.std::vector.71", i32, %"class.std::vector.71" }
%"struct.dealii::internal::Triangulation::NumberCache.168" = type { %"struct.dealii::internal::Triangulation::NumberCache.169", i32, %"class.std::vector.71", i32, %"class.std::vector.71" }
%"struct.dealii::internal::Triangulation::NumberCache.169" = type { i32, %"class.std::vector.71", i32, %"class.std::vector.71" }
%"class.std::__cxx11::list.170" = type { %"class.std::__cxx11::_List_base.171" }
%"class.std::__cxx11::_List_base.171" = type { %"struct.std::__cxx11::_List_base<dealii::Triangulation<3, 3>::RefinementListener *, std::allocator<dealii::Triangulation<3, 3>::RefinementListener *> >::_List_impl" }
%"struct.std::__cxx11::_List_base<dealii::Triangulation<3, 3>::RefinementListener *, std::allocator<dealii::Triangulation<3, 3>::RefinementListener *> >::_List_impl" = type { %"struct.std::__detail::_List_node_header" }
%"class.dealii::internal::Triangulation::TriaLevel" = type { %"class.std::vector.287", %"class.std::vector.82", %"class.std::vector.292", %"class.std::vector.71", %"class.dealii::internal::Triangulation::TriaObjectsHex" }
%"class.std::vector.287" = type { %"struct.std::_Vector_base.288" }
%"struct.std::_Vector_base.288" = type { %"struct.std::_Vector_base<unsigned char, std::allocator<unsigned char> >::_Vector_impl" }
%"struct.std::_Vector_base<unsigned char, std::allocator<unsigned char> >::_Vector_impl" = type { %"struct.std::_Vector_base<unsigned char, std::allocator<unsigned char> >::_Vector_impl_data" }
%"struct.std::_Vector_base<unsigned char, std::allocator<unsigned char> >::_Vector_impl_data" = type { ptr, ptr, ptr }
%"class.std::vector.292" = type { %"struct.std::_Vector_base.293" }
%"struct.std::_Vector_base.293" = type { %"struct.std::_Vector_base<std::pair<int, int>, std::allocator<std::pair<int, int> > >::_Vector_impl" }
%"struct.std::_Vector_base<std::pair<int, int>, std::allocator<std::pair<int, int> > >::_Vector_impl" = type { %"struct.std::_Vector_base<std::pair<int, int>, std::allocator<std::pair<int, int> > >::_Vector_impl_data" }
%"struct.std::_Vector_base<std::pair<int, int>, std::allocator<std::pair<int, int> > >::_Vector_impl_data" = type { ptr, ptr, ptr }
%"class.dealii::internal::Triangulation::TriaObjectsHex" = type { %"class.dealii::internal::Triangulation::TriaObjects.base", %"class.std::vector.82", %"class.std::vector.82", %"class.std::vector.82" }
%"class.dealii::internal::Triangulation::TriaObjects.base" = type <{ %"class.std::vector.297", %"class.std::vector.107", %"class.std::vector.302", %"class.std::vector.82", %"class.std::vector.82", %"class.std::vector.287", i32, i32, i8, [7 x i8], %"class.std::vector.307", i32 }>
%"class.std::vector.297" = type { %"struct.std::_Vector_base.298" }
%"struct.std::_Vector_base.298" = type { %"struct.std::_Vector_base<dealii::internal::Triangulation::TriaObject<3>, std::allocator<dealii::internal::Triangulation::TriaObject<3> > >::_Vector_impl" }
%"struct.std::_Vector_base<dealii::internal::Triangulation::TriaObject<3>, std::allocator<dealii::internal::Triangulation::TriaObject<3> > >::_Vector_impl" = type { %"struct.std::_Vector_base<dealii::internal::Triangulation::TriaObject<3>, std::allocator<dealii::internal::Triangulation::TriaObject<3> > >::_Vector_impl_data" }
%"struct.std::_Vector_base<dealii::internal::Triangulation::TriaObject<3>, std::allocator<dealii::internal::Triangulation::TriaObject<3> > >::_Vector_impl_data" = type { ptr, ptr, ptr }
%"class.std::vector.107" = type { %"struct.std::_Vector_base.108" }
%"struct.std::_Vector_base.108" = type { %"struct.std::_Vector_base<int, std::allocator<int> >::_Vector_impl" }
%"struct.std::_Vector_base<int, std::allocator<int> >::_Vector_impl" = type { %"struct.std::_Vector_base<int, std::allocator<int> >::_Vector_impl_data" }
%"struct.std::_Vector_base<int, std::allocator<int> >::_Vector_impl_data" = type { ptr, ptr, ptr }
%"class.std::vector.302" = type { %"struct.std::_Vector_base.303" }
%"struct.std::_Vector_base.303" = type { %"struct.std::_Vector_base<dealii::RefinementCase<3>, std::allocator<dealii::RefinementCase<3> > >::_Vector_impl" }
%"struct.std::_Vector_base<dealii::RefinementCase<3>, std::allocator<dealii::RefinementCase<3> > >::_Vector_impl" = type { %"struct.std::_Vector_base<dealii::RefinementCase<3>, std::allocator<dealii::RefinementCase<3> > >::_Vector_impl_data" }
%"struct.std::_Vector_base<dealii::RefinementCase<3>, std::allocator<dealii::RefinementCase<3> > >::_Vector_impl_data" = type { ptr, ptr, ptr }
%"class.std::vector.307" = type { %"struct.std::_Vector_base.308" }
%"struct.std::_Vector_base.308" = type { %"struct.std::_Vector_base<dealii::internal::Triangulation::TriaObjects<dealii::internal::Triangulation::TriaObject<3> >::UserData, std::allocator<dealii::internal::Triangulation::TriaObjects<dealii::internal::Triangulation::TriaObject<3> >::UserData> >::_Vector_impl" }
%"struct.std::_Vector_base<dealii::internal::Triangulation::TriaObjects<dealii::internal::Triangulation::TriaObject<3> >::UserData, std::allocator<dealii::internal::Triangulation::TriaObjects<dealii::internal::Triangulation::TriaObject<3> >::UserData> >::_Vector_impl" = type { %"struct.std::_Vector_base<dealii::internal::Triangulation::TriaObjects<dealii::internal::Triangulation::TriaObject<3> >::UserData, std::allocator<dealii::internal::Triangulation::TriaObjects<dealii::internal::Triangulation::TriaObject<3> >::UserData> >::_Vector_impl_data" }
%"struct.std::_Vector_base<dealii::internal::Triangulation::TriaObjects<dealii::internal::Triangulation::TriaObject<3> >::UserData, std::allocator<dealii::internal::Triangulation::TriaObjects<dealii::internal::Triangulation::TriaObject<3> >::UserData> >::_Vector_impl_data" = type { ptr, ptr, ptr }
%"class.dealii::internal::Triangulation::TriaObject" = type { [6 x i32] }
%"struct.std::_Rb_tree_node" = type { %"struct.std::_Rb_tree_node_base", %"struct.std::pair.257" }
%"class.boost::shared_ptr.252" = type { ptr, %"class.boost::detail::shared_count" }
%"class.dealii::Quadrature" = type { %"class.dealii::Subscriptor", i32, %"class.std::vector.76", %"class.std::vector.26" }
%"class.std::vector.76" = type { %"struct.std::_Vector_base.77" }
%"struct.std::_Vector_base.77" = type { %"struct.std::_Vector_base<dealii::Point<2>, std::allocator<dealii::Point<2> > >::_Vector_impl" }
%"struct.std::_Vector_base<dealii::Point<2>, std::allocator<dealii::Point<2> > >::_Vector_impl" = type { %"struct.std::_Vector_base<dealii::Point<2>, std::allocator<dealii::Point<2> > >::_Vector_impl_data" }
%"struct.std::_Vector_base<dealii::Point<2>, std::allocator<dealii::Point<2> > >::_Vector_impl_data" = type { ptr, ptr, ptr }
%"struct.std::_List_node" = type { %"struct.std::__detail::_List_node_base", %"class.dealii::Threads::Thread" }
%"class.boost::detail::sp_counted_base" = type { ptr, i64, i64 }
%"class.dealii::Vector.64" = type { %"class.dealii::Subscriptor", i32, i32, ptr }
%"class.boost::detail::sp_counted_impl_p" = type { %"class.boost::detail::sp_counted_base", ptr }
%"class.dealii::RefinementCase" = type { i8 }
%"class.dealii::hp::FECollection" = type { %"class.dealii::Subscriptor", %"class.std::vector.217" }
%"class.std::vector.217" = type { %"struct.std::_Vector_base.218" }
%"struct.std::_Vector_base.218" = type { %"struct.std::_Vector_base<boost::shared_ptr<const dealii::FiniteElement<3, 3> >, std::allocator<boost::shared_ptr<const dealii::FiniteElement<3, 3> > > >::_Vector_impl" }
%"struct.std::_Vector_base<boost::shared_ptr<const dealii::FiniteElement<3, 3> >, std::allocator<boost::shared_ptr<const dealii::FiniteElement<3, 3> > > >::_Vector_impl" = type { %"struct.std::_Vector_base<boost::shared_ptr<const dealii::FiniteElement<3, 3> >, std::allocator<boost::shared_ptr<const dealii::FiniteElement<3, 3> > > >::_Vector_impl_data" }
%"struct.std::_Vector_base<boost::shared_ptr<const dealii::FiniteElement<3, 3> >, std::allocator<boost::shared_ptr<const dealii::FiniteElement<3, 3> > > >::_Vector_impl_data" = type { ptr, ptr, ptr }
%"class.dealii::hp::FEFaceValues" = type { %"class.dealii::internal::hp::FEValuesBase" }
%"class.dealii::internal::hp::FEValuesBase" = type { %"class.dealii::SmartPointer.206", %"class.dealii::SmartPointer.315", %"class.dealii::hp::QCollection", %"class.dealii::Table.316", %"class.dealii::TableIndices.318", i32 }
%"class.dealii::SmartPointer.206" = type { ptr, ptr }
%"class.dealii::SmartPointer.315" = type { ptr, ptr }
%"class.dealii::Table.316" = type { %"class.dealii::TableBase.317" }
%"class.dealii::TableBase.317" = type { %"class.dealii::Subscriptor", ptr, i32, %"class.dealii::TableIndices.318" }
%"class.dealii::TableIndices.318" = type { %"class.dealii::TableIndicesBase.319" }
%"class.dealii::TableIndicesBase.319" = type { [3 x i32] }
%"class.dealii::hp::FESubfaceValues" = type { %"class.dealii::internal::hp::FEValuesBase.320" }
%"class.dealii::internal::hp::FEValuesBase.320" = type { %"class.dealii::SmartPointer.206", %"class.dealii::SmartPointer.315", %"class.dealii::hp::QCollection", %"class.dealii::Table.321", %"class.dealii::TableIndices.318", i32 }
%"class.dealii::Table.321" = type { %"class.dealii::TableBase.322" }
%"class.dealii::TableBase.322" = type { %"class.dealii::Subscriptor", ptr, i32, %"class.dealii::TableIndices.318" }
%"class.dealii::internal::Triangulation::TriaObjects.323" = type <{ %"class.std::vector.324", %"class.std::vector.107", %"class.std::vector.329", %"class.std::vector.82", %"class.std::vector.82", %"class.std::vector.287", i32, i32, i8, [7 x i8], %"class.std::vector.334", i32, [4 x i8] }>
%"class.std::vector.324" = type { %"struct.std::_Vector_base.325" }
%"struct.std::_Vector_base.325" = type { %"struct.std::_Vector_base<dealii::internal::Triangulation::TriaObject<2>, std::allocator<dealii::internal::Triangulation::TriaObject<2> > >::_Vector_impl" }
%"struct.std::_Vector_base<dealii::internal::Triangulation::TriaObject<2>, std::allocator<dealii::internal::Triangulation::TriaObject<2> > >::_Vector_impl" = type { %"struct.std::_Vector_base<dealii::internal::Triangulation::TriaObject<2>, std::allocator<dealii::internal::Triangulation::TriaObject<2> > >::_Vector_impl_data" }
%"struct.std::_Vector_base<dealii::internal::Triangulation::TriaObject<2>, std::allocator<dealii::internal::Triangulation::TriaObject<2> > >::_Vector_impl_data" = type { ptr, ptr, ptr }
%"class.std::vector.329" = type { %"struct.std::_Vector_base.330" }
%"struct.std::_Vector_base.330" = type { %"struct.std::_Vector_base<dealii::RefinementCase<2>, std::allocator<dealii::RefinementCase<2> > >::_Vector_impl" }
%"struct.std::_Vector_base<dealii::RefinementCase<2>, std::allocator<dealii::RefinementCase<2> > >::_Vector_impl" = type { %"struct.std::_Vector_base<dealii::RefinementCase<2>, std::allocator<dealii::RefinementCase<2> > >::_Vector_impl_data" }
%"struct.std::_Vector_base<dealii::RefinementCase<2>, std::allocator<dealii::RefinementCase<2> > >::_Vector_impl_data" = type { ptr, ptr, ptr }
%"class.std::vector.334" = type { %"struct.std::_Vector_base.335" }
%"struct.std::_Vector_base.335" = type { %"struct.std::_Vector_base<dealii::internal::Triangulation::TriaObjects<dealii::internal::Triangulation::TriaObject<2> >::UserData, std::allocator<dealii::internal::Triangulation::TriaObjects<dealii::internal::Triangulation::TriaObject<2> >::UserData> >::_Vector_impl" }
%"struct.std::_Vector_base<dealii::internal::Triangulation::TriaObjects<dealii::internal::Triangulation::TriaObject<2> >::UserData, std::allocator<dealii::internal::Triangulation::TriaObjects<dealii::internal::Triangulation::TriaObject<2> >::UserData> >::_Vector_impl" = type { %"struct.std::_Vector_base<dealii::internal::Triangulation::TriaObjects<dealii::internal::Triangulation::TriaObject<2> >::UserData, std::allocator<dealii::internal::Triangulation::TriaObjects<dealii::internal::Triangulation::TriaObject<2> >::UserData> >::_Vector_impl_data" }
%"struct.std::_Vector_base<dealii::internal::Triangulation::TriaObjects<dealii::internal::Triangulation::TriaObject<2> >::UserData, std::allocator<dealii::internal::Triangulation::TriaObjects<dealii::internal::Triangulation::TriaObject<2> >::UserData> >::_Vector_impl_data" = type { ptr, ptr, ptr }
%"struct.std::pair.357" = type { i32, i32 }
%"struct.std::_Rb_tree_node.359" = type { %"struct.std::_Rb_tree_node_base", %"struct.std::pair.360" }
%"struct.std::pair.360" = type { i8, ptr }
%"class.boost::function.395" = type { %"class.boost::function0" }
%"class.boost::function0" = type { %"class.boost::function_base" }
%"class.boost::_bi::bind_t" = type { %"class.boost::function", %"class.boost::_bi::list9" }
%"class.boost::_bi::list9" = type { %"struct.boost::_bi::storage9" }
%"struct.boost::_bi::storage9" = type { %"struct.boost::_bi::storage8", %"class.boost::reference_wrapper.402" }
%"struct.boost::_bi::storage8" = type { %"struct.boost::_bi::storage7", %"class.boost::reference_wrapper.401" }
%"struct.boost::_bi::storage7" = type { %"struct.boost::_bi::storage6", %"class.boost::_bi::value" }
%"struct.boost::_bi::storage6" = type { %"struct.boost::_bi::storage5", %"class.boost::reference_wrapper.400" }
%"struct.boost::_bi::storage5" = type { %"struct.boost::_bi::storage4", %"class.boost::reference_wrapper.399" }
%"struct.boost::_bi::storage4" = type { %"struct.boost::_bi::storage3", %"class.boost::reference_wrapper.398" }
%"struct.boost::_bi::storage3" = type { %"struct.boost::_bi::storage2", %"class.boost::reference_wrapper.397" }
%"struct.boost::_bi::storage2" = type { %"struct.boost::_bi::storage1", %"class.boost::reference_wrapper.396" }
%"struct.boost::_bi::storage1" = type { %"class.boost::reference_wrapper" }
%"class.boost::reference_wrapper" = type { ptr }
%"class.boost::reference_wrapper.396" = type { ptr }
%"class.boost::reference_wrapper.397" = type { ptr }
%"class.boost::reference_wrapper.398" = type { ptr }
%"class.boost::reference_wrapper.399" = type { ptr }
%"class.boost::reference_wrapper.400" = type { ptr }
%"class.boost::_bi::value" = type { %"struct.std::pair" }
%"struct.std::pair" = type { i32, i32 }
%"class.boost::reference_wrapper.401" = type { ptr }
%"class.boost::reference_wrapper.402" = type { ptr }
%"class.dealii::internal::Triangulation::TriaObject.416" = type { [4 x i32] }
%"class.dealii::internal::Triangulation::TriaObjectsQuad3D" = type { %"class.dealii::internal::Triangulation::TriaObjects.base.339", %"class.std::vector.82" }
%"class.dealii::internal::Triangulation::TriaObjects.base.339" = type <{ %"class.std::vector.324", %"class.std::vector.107", %"class.std::vector.329", %"class.std::vector.82", %"class.std::vector.82", %"class.std::vector.287", i32, i32, i8, [7 x i8], %"class.std::vector.334", i32 }>
%"class.dealii::internal::Triangulation::TriaFaces" = type { %"class.dealii::internal::Triangulation::TriaObjectsQuad3D", %"class.dealii::internal::Triangulation::TriaObjects.340" }
%"class.dealii::internal::Triangulation::TriaObjects.340" = type <{ %"class.std::vector.341", %"class.std::vector.107", %"class.std::vector.346", %"class.std::vector.82", %"class.std::vector.82", %"class.std::vector.287", i32, i32, i8, [7 x i8], %"class.std::vector.351", i32, [4 x i8] }>
%"class.std::vector.341" = type { %"struct.std::_Vector_base.342" }
%"struct.std::_Vector_base.342" = type { %"struct.std::_Vector_base<dealii::internal::Triangulation::TriaObject<1>, std::allocator<dealii::internal::Triangulation::TriaObject<1> > >::_Vector_impl" }
%"struct.std::_Vector_base<dealii::internal::Triangulation::TriaObject<1>, std::allocator<dealii::internal::Triangulation::TriaObject<1> > >::_Vector_impl" = type { %"struct.std::_Vector_base<dealii::internal::Triangulation::TriaObject<1>, std::allocator<dealii::internal::Triangulation::TriaObject<1> > >::_Vector_impl_data" }
%"struct.std::_Vector_base<dealii::internal::Triangulation::TriaObject<1>, std::allocator<dealii::internal::Triangulation::TriaObject<1> > >::_Vector_impl_data" = type { ptr, ptr, ptr }
%"class.std::vector.346" = type { %"struct.std::_Vector_base.347" }
%"struct.std::_Vector_base.347" = type { %"struct.std::_Vector_base<dealii::RefinementCase<1>, std::allocator<dealii::RefinementCase<1> > >::_Vector_impl" }
%"struct.std::_Vector_base<dealii::RefinementCase<1>, std::allocator<dealii::RefinementCase<1> > >::_Vector_impl" = type { %"struct.std::_Vector_base<dealii::RefinementCase<1>, std::allocator<dealii::RefinementCase<1> > >::_Vector_impl_data" }
%"struct.std::_Vector_base<dealii::RefinementCase<1>, std::allocator<dealii::RefinementCase<1> > >::_Vector_impl_data" = type { ptr, ptr, ptr }
%"class.std::vector.351" = type { %"struct.std::_Vector_base.352" }
%"struct.std::_Vector_base.352" = type { %"struct.std::_Vector_base<dealii::internal::Triangulation::TriaObjects<dealii::internal::Triangulation::TriaObject<1> >::UserData, std::allocator<dealii::internal::Triangulation::TriaObjects<dealii::internal::Triangulation::TriaObject<1> >::UserData> >::_Vector_impl" }
%"struct.std::_Vector_base<dealii::internal::Triangulation::TriaObjects<dealii::internal::Triangulation::TriaObject<1> >::UserData, std::allocator<dealii::internal::Triangulation::TriaObjects<dealii::internal::Triangulation::TriaObject<1> >::UserData> >::_Vector_impl" = type { %"struct.std::_Vector_base<dealii::internal::Triangulation::TriaObjects<dealii::internal::Triangulation::TriaObject<1> >::UserData, std::allocator<dealii::internal::Triangulation::TriaObjects<dealii::internal::Triangulation::TriaObject<1> >::UserData> >::_Vector_impl_data" }
%"struct.std::_Vector_base<dealii::internal::Triangulation::TriaObjects<dealii::internal::Triangulation::TriaObject<1> >::UserData, std::allocator<dealii::internal::Triangulation::TriaObjects<dealii::internal::Triangulation::TriaObject<1> >::UserData> >::_Vector_impl_data" = type { ptr, ptr, ptr }
%"class.dealii::internal::Triangulation::TriaObject.417" = type { [2 x i32] }
%"class.boost::shared_ptr.253" = type { ptr, %"class.boost::detail::shared_count" }
%"class.std::vector.175" = type { %"struct.std::_Vector_base.176" }
%"struct.std::_Vector_base.176" = type { %"struct.std::_Vector_base<const dealii::Vector<float> *, std::allocator<const dealii::Vector<float> *> >::_Vector_impl" }
%"struct.std::_Vector_base<const dealii::Vector<float> *, std::allocator<const dealii::Vector<float> *> >::_Vector_impl" = type { %"struct.std::_Vector_base<const dealii::Vector<float> *, std::allocator<const dealii::Vector<float> *> >::_Vector_impl_data" }
%"struct.std::_Vector_base<const dealii::Vector<float> *, std::allocator<const dealii::Vector<float> *> >::_Vector_impl_data" = type { ptr, ptr, ptr }
%"class.dealii::Threads::internal::fun_encapsulator.180" = type { %"class.boost::function.181" }
%"class.boost::function.181" = type { %"class.boost::function9.182" }
%"class.boost::function9.182" = type { %"class.boost::function_base" }
%"class.boost::_bi::bind_t.419" = type { %"class.boost::function.181", %"class.boost::_bi::list9.420" }
%"class.boost::_bi::list9.420" = type { %"struct.boost::_bi::storage9.421" }
%"struct.boost::_bi::storage9.421" = type { %"struct.boost::_bi::storage8.422", %"class.boost::reference_wrapper.402" }
%"struct.boost::_bi::storage8.422" = type { %"struct.boost::_bi::storage7.423", %"class.boost::reference_wrapper.401" }
%"struct.boost::_bi::storage7.423" = type { %"struct.boost::_bi::storage6.424", %"class.boost::_bi::value" }
%"struct.boost::_bi::storage6.424" = type { %"struct.boost::_bi::storage5.425", %"class.boost::reference_wrapper.400" }
%"struct.boost::_bi::storage5.425" = type { %"struct.boost::_bi::storage4", %"class.boost::reference_wrapper.426" }
%"class.boost::reference_wrapper.426" = type { ptr }
%"class.std::vector.183" = type { %"struct.std::_Vector_base.184" }
%"struct.std::_Vector_base.184" = type { %"struct.std::_Vector_base<const dealii::BlockVector<double> *, std::allocator<const dealii::BlockVector<double> *> >::_Vector_impl" }
%"struct.std::_Vector_base<const dealii::BlockVector<double> *, std::allocator<const dealii::BlockVector<double> *> >::_Vector_impl" = type { %"struct.std::_Vector_base<const dealii::BlockVector<double> *, std::allocator<const dealii::BlockVector<double> *> >::_Vector_impl_data" }
%"struct.std::_Vector_base<const dealii::BlockVector<double> *, std::allocator<const dealii::BlockVector<double> *> >::_Vector_impl_data" = type { ptr, ptr, ptr }
%"class.dealii::Threads::internal::fun_encapsulator.188" = type { %"class.boost::function.189" }
%"class.boost::function.189" = type { %"class.boost::function9.190" }
%"class.boost::function9.190" = type { %"class.boost::function_base" }
%"class.boost::_bi::bind_t.427" = type { %"class.boost::function.189", %"class.boost::_bi::list9.428" }
%"class.boost::_bi::list9.428" = type { %"struct.boost::_bi::storage9.429" }
%"struct.boost::_bi::storage9.429" = type { %"struct.boost::_bi::storage8.430", %"class.boost::reference_wrapper.402" }
%"struct.boost::_bi::storage8.430" = type { %"struct.boost::_bi::storage7.431", %"class.boost::reference_wrapper.401" }
%"struct.boost::_bi::storage7.431" = type { %"struct.boost::_bi::storage6.432", %"class.boost::_bi::value" }
%"struct.boost::_bi::storage6.432" = type { %"struct.boost::_bi::storage5.433", %"class.boost::reference_wrapper.400" }
%"struct.boost::_bi::storage5.433" = type { %"struct.boost::_bi::storage4", %"class.boost::reference_wrapper.434" }
%"class.boost::reference_wrapper.434" = type { ptr }
%"class.std::vector.191" = type { %"struct.std::_Vector_base.192" }
%"struct.std::_Vector_base.192" = type { %"struct.std::_Vector_base<const dealii::BlockVector<float> *, std::allocator<const dealii::BlockVector<float> *> >::_Vector_impl" }
%"struct.std::_Vector_base<const dealii::BlockVector<float> *, std::allocator<const dealii::BlockVector<float> *> >::_Vector_impl" = type { %"struct.std::_Vector_base<const dealii::BlockVector<float> *, std::allocator<const dealii::BlockVector<float> *> >::_Vector_impl_data" }
%"struct.std::_Vector_base<const dealii::BlockVector<float> *, std::allocator<const dealii::BlockVector<float> *> >::_Vector_impl_data" = type { ptr, ptr, ptr }
%"class.dealii::Threads::internal::fun_encapsulator.203" = type { %"class.boost::function.204" }
%"class.boost::function.204" = type { %"class.boost::function9.205" }
%"class.boost::function9.205" = type { %"class.boost::function_base" }
%"class.boost::_bi::bind_t.435" = type { %"class.boost::function.204", %"class.boost::_bi::list9.436" }
%"class.boost::_bi::list9.436" = type { %"struct.boost::_bi::storage9.437" }
%"struct.boost::_bi::storage9.437" = type { %"struct.boost::_bi::storage8.438", %"class.boost::reference_wrapper.402" }
%"struct.boost::_bi::storage8.438" = type { %"struct.boost::_bi::storage7.439", %"class.boost::reference_wrapper.401" }
%"struct.boost::_bi::storage7.439" = type { %"struct.boost::_bi::storage6.440", %"class.boost::_bi::value" }
%"struct.boost::_bi::storage6.440" = type { %"struct.boost::_bi::storage5.441", %"class.boost::reference_wrapper.400" }
%"struct.boost::_bi::storage5.441" = type { %"struct.boost::_bi::storage4", %"class.boost::reference_wrapper.442" }
%"class.boost::reference_wrapper.442" = type { ptr }
%"struct.std::pair.267" = type { %"class.dealii::TriaIterator.236", %"class.std::vector.26" }
%"class.dealii::TriaIterator.236" = type { %"class.dealii::TriaRawIterator.237" }
%"class.dealii::TriaRawIterator.237" = type { %"class.dealii::DoFAccessor.239" }
%"class.dealii::DoFAccessor.239" = type { %"class.dealii::TriaAccessor.143", ptr }
%"class.std::map.222" = type { %"class.std::_Rb_tree.223" }
%"class.std::_Rb_tree.223" = type { %"struct.std::_Rb_tree<dealii::TriaIterator<dealii::DoFAccessor<2, dealii::hp::DoFHandler<3, 3> > >, std::pair<const dealii::TriaIterator<dealii::DoFAccessor<2, dealii::hp::DoFHandler<3, 3> > >, std::vector<double> >, std::_Select1st<std::pair<const dealii::TriaIterator<dealii::DoFAccessor<2, dealii::hp::DoFHandler<3, 3> > >, std::vector<double> > >, std::less<dealii::TriaIterator<dealii::DoFAccessor<2, dealii::hp::DoFHandler<3, 3> > > > >::_Rb_tree_impl" }
%"struct.std::_Rb_tree<dealii::TriaIterator<dealii::DoFAccessor<2, dealii::hp::DoFHandler<3, 3> > >, std::pair<const dealii::TriaIterator<dealii::DoFAccessor<2, dealii::hp::DoFHandler<3, 3> > >, std::vector<double> >, std::_Select1st<std::pair<const dealii::TriaIterator<dealii::DoFAccessor<2, dealii::hp::DoFHandler<3, 3> > >, std::vector<double> > >, std::less<dealii::TriaIterator<dealii::DoFAccessor<2, dealii::hp::DoFHandler<3, 3> > > > >::_Rb_tree_impl" = type { %"struct.std::_Rb_tree_key_compare.227", %"struct.std::_Rb_tree_header" }
%"struct.std::_Rb_tree_key_compare.227" = type { %"struct.std::less.228" }
%"struct.std::less.228" = type { i8 }
%"class.dealii::TriaActiveIterator.230" = type { %"class.dealii::TriaIterator.231" }
%"class.dealii::TriaIterator.231" = type { %"class.dealii::TriaRawIterator.232" }
%"class.dealii::TriaRawIterator.232" = type { %"class.dealii::DoFCellAccessor.234" }
%"class.dealii::DoFCellAccessor.234" = type { %"class.dealii::DoFAccessor.235" }
%"class.dealii::DoFAccessor.235" = type { %"class.dealii::CellAccessor", ptr }
%"class.dealii::Threads::internal::fun_encapsulator.240" = type { %"class.boost::function.241" }
%"class.boost::function.241" = type { %"class.boost::function9.242" }
%"class.boost::function9.242" = type { %"class.boost::function_base" }
%"class.dealii::hp::DoFHandler" = type { %"class.dealii::Subscriptor", %"class.dealii::Triangulation<3, 3>::RefinementListener", %"class.dealii::SmartPointer", %"class.dealii::SmartPointer.206", %"class.std::vector.207", ptr, i32, %"class.std::vector.71", %"class.std::vector.71", %"class.std::vector.212" }
%"class.dealii::Triangulation<3, 3>::RefinementListener" = type { ptr }
%"class.std::vector.207" = type { %"struct.std::_Vector_base.208" }
%"struct.std::_Vector_base.208" = type { %"struct.std::_Vector_base<dealii::internal::hp::DoFLevel<3> *, std::allocator<dealii::internal::hp::DoFLevel<3> *> >::_Vector_impl" }
%"struct.std::_Vector_base<dealii::internal::hp::DoFLevel<3> *, std::allocator<dealii::internal::hp::DoFLevel<3> *> >::_Vector_impl" = type { %"struct.std::_Vector_base<dealii::internal::hp::DoFLevel<3> *, std::allocator<dealii::internal::hp::DoFLevel<3> *> >::_Vector_impl_data" }
%"struct.std::_Vector_base<dealii::internal::hp::DoFLevel<3> *, std::allocator<dealii::internal::hp::DoFLevel<3> *> >::_Vector_impl_data" = type { ptr, ptr, ptr }
%"class.std::vector.212" = type { %"struct.std::_Vector_base.213" }
%"struct.std::_Vector_base.213" = type { %"struct.std::_Vector_base<std::vector<bool> *, std::allocator<std::vector<bool> *> >::_Vector_impl" }
%"struct.std::_Vector_base<std::vector<bool> *, std::allocator<std::vector<bool> *> >::_Vector_impl" = type { %"struct.std::_Vector_base<std::vector<bool> *, std::allocator<std::vector<bool> *> >::_Vector_impl_data" }
%"struct.std::_Vector_base<std::vector<bool> *, std::allocator<std::vector<bool> *> >::_Vector_impl_data" = type { ptr, ptr, ptr }
%"struct.std::_Rb_tree_node.266" = type { %"struct.std::_Rb_tree_node_base", %"struct.std::pair.267" }
%"class.boost::_bi::bind_t.448" = type { %"class.boost::function.241", %"class.boost::_bi::list9.449" }
%"class.boost::_bi::list9.449" = type { %"struct.boost::_bi::storage9.450" }
%"struct.boost::_bi::storage9.450" = type { %"struct.boost::_bi::storage8.451", %"class.boost::reference_wrapper.402" }
%"struct.boost::_bi::storage8.451" = type { %"struct.boost::_bi::storage7.452", %"class.boost::reference_wrapper.459" }
%"struct.boost::_bi::storage7.452" = type { %"struct.boost::_bi::storage6.453", %"class.boost::_bi::value" }
%"struct.boost::_bi::storage6.453" = type { %"struct.boost::_bi::storage5.454", %"class.boost::reference_wrapper.400" }
%"struct.boost::_bi::storage5.454" = type { %"struct.boost::_bi::storage4.455", %"class.boost::reference_wrapper.399" }
%"struct.boost::_bi::storage4.455" = type { %"struct.boost::_bi::storage3.456", %"class.boost::reference_wrapper.398" }
%"struct.boost::_bi::storage3.456" = type { %"struct.boost::_bi::storage2.457", %"class.boost::reference_wrapper.397" }
%"struct.boost::_bi::storage2.457" = type { %"struct.boost::_bi::storage1", %"class.boost::reference_wrapper.458" }
%"class.boost::reference_wrapper.458" = type { ptr }
%"class.boost::reference_wrapper.459" = type { ptr }
%"class.dealii::Threads::internal::fun_encapsulator.243" = type { %"class.boost::function.244" }
%"class.boost::function.244" = type { %"class.boost::function9.245" }
%"class.boost::function9.245" = type { %"class.boost::function_base" }
%"class.boost::_bi::bind_t.460" = type { %"class.boost::function.244", %"class.boost::_bi::list9.461" }
%"class.boost::_bi::list9.461" = type { %"struct.boost::_bi::storage9.462" }
%"struct.boost::_bi::storage9.462" = type { %"struct.boost::_bi::storage8.463", %"class.boost::reference_wrapper.402" }
%"struct.boost::_bi::storage8.463" = type { %"struct.boost::_bi::storage7.464", %"class.boost::reference_wrapper.459" }
%"struct.boost::_bi::storage7.464" = type { %"struct.boost::_bi::storage6.465", %"class.boost::_bi::value" }
%"struct.boost::_bi::storage6.465" = type { %"struct.boost::_bi::storage5.466", %"class.boost::reference_wrapper.400" }
%"struct.boost::_bi::storage5.466" = type { %"struct.boost::_bi::storage4.455", %"class.boost::reference_wrapper.426" }
%"class.dealii::Threads::internal::fun_encapsulator.246" = type { %"class.boost::function.247" }
%"class.boost::function.247" = type { %"class.boost::function9.248" }
%"class.boost::function9.248" = type { %"class.boost::function_base" }
%"class.boost::_bi::bind_t.467" = type { %"class.boost::function.247", %"class.boost::_bi::list9.468" }
%"class.boost::_bi::list9.468" = type { %"struct.boost::_bi::storage9.469" }
%"struct.boost::_bi::storage9.469" = type { %"struct.boost::_bi::storage8.470", %"class.boost::reference_wrapper.402" }
%"struct.boost::_bi::storage8.470" = type { %"struct.boost::_bi::storage7.471", %"class.boost::reference_wrapper.459" }
%"struct.boost::_bi::storage7.471" = type { %"struct.boost::_bi::storage6.472", %"class.boost::_bi::value" }
%"struct.boost::_bi::storage6.472" = type { %"struct.boost::_bi::storage5.473", %"class.boost::reference_wrapper.400" }
%"struct.boost::_bi::storage5.473" = type { %"struct.boost::_bi::storage4.455", %"class.boost::reference_wrapper.434" }
%"class.dealii::Threads::internal::fun_encapsulator.249" = type { %"class.boost::function.250" }
%"class.boost::function.250" = type { %"class.boost::function9.251" }
%"class.boost::function9.251" = type { %"class.boost::function_base" }
%"class.boost::_bi::bind_t.474" = type { %"class.boost::function.250", %"class.boost::_bi::list9.475" }
%"class.boost::_bi::list9.475" = type { %"struct.boost::_bi::storage9.476" }
%"struct.boost::_bi::storage9.476" = type { %"struct.boost::_bi::storage8.477", %"class.boost::reference_wrapper.402" }
%"struct.boost::_bi::storage8.477" = type { %"struct.boost::_bi::storage7.478", %"class.boost::reference_wrapper.459" }
%"struct.boost::_bi::storage7.478" = type { %"struct.boost::_bi::storage6.479", %"class.boost::_bi::value" }
%"struct.boost::_bi::storage6.479" = type { %"struct.boost::_bi::storage5.480", %"class.boost::reference_wrapper.400" }
%"struct.boost::_bi::storage5.480" = type { %"struct.boost::_bi::storage4.455", %"class.boost::reference_wrapper.442" }
%"class.std::allocator.33" = type { i8 }
%"class.boost::shared_ptr.391" = type { ptr, %"class.boost::detail::shared_count" }
%"class.dealii::Function" = type <{ %"class.dealii::FunctionTime", %"class.dealii::Subscriptor", i32, [4 x i8] }>
%"class.dealii::FunctionTime" = type { ptr, double }
%"class.boost::shared_ptr.393" = type { ptr, %"class.boost::detail::shared_count" }
%"class.boost::shared_ptr.394" = type { ptr, %"class.boost::detail::shared_count" }
%"struct.boost::detail::function::function_buffer::type_t" = type { ptr, i8, i8 }
%"class.std::type_info" = type { ptr, ptr }
%"class.boost::detail::sp_counted_impl_p.407" = type { %"class.boost::detail::sp_counted_base", ptr }
%"class.std::__cxx11::basic_string" = type { %"struct.std::__cxx11::basic_string<char>::_Alloc_hider", i64, %union.anon.406 }
%"struct.std::__cxx11::basic_string<char>::_Alloc_hider" = type { ptr }
%union.anon.406 = type { i64, [8 x i8] }
%"class.boost::bad_function_call" = type { %"class.std::runtime_error" }
%"class.std::runtime_error" = type { %"class.std::exception", %"struct.std::__cow_string" }
%"struct.std::__cow_string" = type { %union.anon }
%union.anon = type { ptr }
%"struct.boost::exception_detail::error_info_injector" = type <{ %"class.boost::bad_function_call", %"class.boost::exception.base", [4 x i8] }>
%"class.boost::exception.base" = type <{ ptr, %"class.boost::exception_detail::refcount_ptr", ptr, ptr, i32 }>
%"class.boost::exception_detail::refcount_ptr" = type { ptr }
%"class.dealii::Threads::Thread<>::ExcNoThread" = type { %"class.dealii::ExceptionBase.base", [4 x i8] }

$_ZN6dealii19KellyErrorEstimatorILi3ELi3EE31ExcIncompatibleNumberOfElementsC5Eii = comdat any

$_ZN6dealii19KellyErrorEstimatorILi3ELi3EE31ExcIncompatibleNumberOfElementsD5Ev = comdat any

$_ZNK6dealii19KellyErrorEstimatorILi3ELi3EE31ExcIncompatibleNumberOfElements10print_infoERSo = comdat any

$_ZN6dealii19KellyErrorEstimatorILi3ELi3EE13PerThreadDataC5Ejjjjj = comdat any

$_ZN6dealii6VectorIdED2Ev = comdat any

$__clang_call_terminate = comdat any

$_ZNSt6vectorIS_IdSaIdEESaIS1_EED2Ev = comdat any

$_ZNSt6vectorIS_IN6dealii6TensorILi1ELi3EEESaIS2_EESaIS4_EED2Ev = comdat any

$_ZNSt6vectorIN6dealii6VectorIdEESaIS2_EED2Ev = comdat any

$_ZNSt6vectorIS_IS_IN6dealii6TensorILi1ELi3EEESaIS2_EESaIS4_EESaIS6_EED2Ev = comdat any

$_ZNSt6vectorIS_IS_IdSaIdEESaIS1_EESaIS3_EED2Ev = comdat any

$_ZN6dealii19KellyErrorEstimatorILi3ELi3EE13PerThreadData6resizeEjj = comdat any

$_ZN6dealii19KellyErrorEstimatorILi3ELi3EE8estimateINS_6VectorIdEENS_10DoFHandlerILi3ELi3EEEEEvRKNS_7MappingILi3ELi3EEERKT0_RKNS_10QuadratureILi2EEERKSt3mapIhPKNS_8FunctionILi3EEESt4lessIhESaISt4pairIKhSM_EEERKT_RNS3_IfEERKSt6vectorIbSaIbEESM_jjj = comdat any

$_ZN6dealii19KellyErrorEstimatorILi3ELi3EE8estimateINS_6VectorIdEENS_10DoFHandlerILi3ELi3EEEEEvRKNS_7MappingILi3ELi3EEERKT0_RKNS_10QuadratureILi2EEERKSt3mapIhPKNS_8FunctionILi3EEESt4lessIhESaISt4pairIKhSM_EEERKSt6vectorIPKT_SaISZ_EERSW_IPNS3_IfEESaIS15_EERKSW_IbSaIbEESM_jjj = comdat any

$_ZN6dealii19KellyErrorEstimatorILi3ELi3EE8estimateINS_6VectorIdEENS_10DoFHandlerILi3ELi3EEEEEvRKT0_RKNS_10QuadratureILi2EEERKSt3mapIhPKNS_8FunctionILi3EEESt4lessIhESaISt4pairIKhSI_EEERKT_RNS3_IfEERKSt6vectorIbSaIbEESI_jjj = comdat any

$_ZN6dealii19KellyErrorEstimatorILi3ELi3EE8estimateINS_6VectorIdEENS_10DoFHandlerILi3ELi3EEEEEvRKNS_7MappingILi3ELi3EEERKT0_RKNS_2hp11QCollectionILi2EEERKSt3mapIhPKNS_8FunctionILi3EEESt4lessIhESaISt4pairIKhSN_EEERKSt6vectorIPKT_SaIS10_EERSX_IPNS3_IfEESaIS16_EERKSX_IbSaIbEESN_jjj = comdat any

$_ZN6dealii2hp11QCollectionILi2EEC2ERKNS_10QuadratureILi2EEE = comdat any

$_ZN6dealii2hp11QCollectionILi2EED2Ev = comdat any

$_ZN6dealii19KellyErrorEstimatorILi3ELi3EE8estimateINS_6VectorIdEENS_10DoFHandlerILi3ELi3EEEEEvRKT0_RKNS_10QuadratureILi2EEERKSt3mapIhPKNS_8FunctionILi3EEESt4lessIhESaISt4pairIKhSI_EEERKSt6vectorIPKT_SaISV_EERSS_IPNS3_IfEESaIS11_EERKSS_IbSaIbEESI_jjj = comdat any

$_ZN6dealii19KellyErrorEstimatorILi3ELi3EE8estimateINS_6VectorIdEENS_10DoFHandlerILi3ELi3EEEEEvRKNS_7MappingILi3ELi3EEERKT0_RKNS_2hp11QCollectionILi2EEERKSt3mapIhPKNS_8FunctionILi3EEESt4lessIhESaISt4pairIKhSN_EEERKT_RNS3_IfEERKSt6vectorIbSaIbEESN_jjj = comdat any

$_ZN6dealii19KellyErrorEstimatorILi3ELi3EE8estimateINS_6VectorIdEENS_10DoFHandlerILi3ELi3EEEEEvRKT0_RKNS_2hp11QCollectionILi2EEERKSt3mapIhPKNS_8FunctionILi3EEESt4lessIhESaISt4pairIKhSJ_EEERKT_RNS3_IfEERKSt6vectorIbSaIbEESJ_jjj = comdat any

$_ZNSt6vectorIbSaIbEEC2ERKS1_ = comdat any

$_ZNSt3mapIN6dealii12TriaIteratorINS0_11DoFAccessorILi2ENS0_10DoFHandlerILi3ELi3EEEEEEESt6vectorIdSaIdEESt4lessIS6_ESaISt4pairIKS6_S9_EEEixERSD_ = comdat any

$_ZNSt6vectorIdSaIdEEaSERKS1_ = comdat any

$_ZN6dealii19KellyErrorEstimatorILi3ELi3EE13estimate_someINS_6VectorIdEENS_10DoFHandlerILi3ELi3EEEEEvRKNS_2hp17MappingCollectionILi3ELi3EEERKT0_RKNS7_11QCollectionILi2EEERKSt3mapIhPKNS_8FunctionILi3EEESt4lessIhESaISt4pairIKhSN_EEERKSt6vectorIPKT_SaIS10_EERKSQ_IPKSX_IbSaIbEESN_ESQ_IjjERNS1_13FaceIntegralsISC_E4typeERNS1_13PerThreadDataE = comdat any

$_ZN6dealii7Threads8internal16fun_encapsulatorIvN5boost6tuples5tupleIRKNS_2hp17MappingCollectionILi3ELi3EEERKNS_10DoFHandlerILi3ELi3EEERKNS6_11QCollectionILi2EEERKSt3mapIhPKNS_8FunctionILi3EEESt4lessIhESaISt4pairIKhSN_EEERKSt6vectorIPKNS_6VectorIdEESaIS11_EERKSQ_IPKSX_IbSaIbEESN_ESQ_IjjERSJ_INS_12TriaIteratorINS_11DoFAccessorILi2ESC_EEEESX_IdSaIdEESO_IS1H_ESaISQ_IKS1H_S1J_EEERNS_19KellyErrorEstimatorILi3ELi3EE13PerThreadDataENS4_9null_typeEEELi9EEclESA_SE_SI_SW_S15_S1C_S1D_S1P_S1T_ = comdat any

$_ZN6dealii7Threads6ThreadIvED2Ev = comdat any

$_ZN6dealii19KellyErrorEstimatorILi3ELi3EE13PerThreadDataD2Ev = comdat any

$_ZNK6dealii12TriaAccessorILi3ELi3ELi3EE8diameterEv = comdat any

$_ZN6dealii2hp17MappingCollectionILi3ELi3EED2Ev = comdat any

$_ZNSt13_Bvector_baseISaIbEED2Ev = comdat any

$_ZN6dealii19KellyErrorEstimatorILi3ELi3EE8estimateINS_6VectorIdEENS_10DoFHandlerILi3ELi3EEEEEvRKT0_RKNS_2hp11QCollectionILi2EEERKSt3mapIhPKNS_8FunctionILi3EEESt4lessIhESaISt4pairIKhSJ_EEERKSt6vectorIPKT_SaISW_EERST_IPNS3_IfEESaIS12_EERKST_IbSaIbEESJ_jjj = comdat any

$_ZN6dealii19KellyErrorEstimatorILi3ELi3EE8estimateINS_6VectorIfEENS_10DoFHandlerILi3ELi3EEEEEvRKNS_7MappingILi3ELi3EEERKT0_RKNS_10QuadratureILi2EEERKSt3mapIhPKNS_8FunctionILi3EEESt4lessIhESaISt4pairIKhSM_EEERKT_RS4_RKSt6vectorIbSaIbEESM_jjj = comdat any

$_ZN6dealii19KellyErrorEstimatorILi3ELi3EE8estimateINS_6VectorIfEENS_10DoFHandlerILi3ELi3EEEEEvRKNS_7MappingILi3ELi3EEERKT0_RKNS_10QuadratureILi2EEERKSt3mapIhPKNS_8FunctionILi3EEESt4lessIhESaISt4pairIKhSM_EEERKSt6vectorIPKT_SaISZ_EERSW_IPS4_SaIS14_EERKSW_IbSaIbEESM_jjj = comdat any

$_ZN6dealii19KellyErrorEstimatorILi3ELi3EE8estimateINS_6VectorIfEENS_10DoFHandlerILi3ELi3EEEEEvRKT0_RKNS_10QuadratureILi2EEERKSt3mapIhPKNS_8FunctionILi3EEESt4lessIhESaISt4pairIKhSI_EEERKT_RS4_RKSt6vectorIbSaIbEESI_jjj = comdat any

$_ZN6dealii19KellyErrorEstimatorILi3ELi3EE8estimateINS_6VectorIfEENS_10DoFHandlerILi3ELi3EEEEEvRKNS_7MappingILi3ELi3EEERKT0_RKNS_2hp11QCollectionILi2EEERKSt3mapIhPKNS_8FunctionILi3EEESt4lessIhESaISt4pairIKhSN_EEERKSt6vectorIPKT_SaIS10_EERSX_IPS4_SaIS15_EERKSX_IbSaIbEESN_jjj = comdat any

$_ZN6dealii19KellyErrorEstimatorILi3ELi3EE8estimateINS_6VectorIfEENS_10DoFHandlerILi3ELi3EEEEEvRKT0_RKNS_10QuadratureILi2EEERKSt3mapIhPKNS_8FunctionILi3EEESt4lessIhESaISt4pairIKhSI_EEERKSt6vectorIPKT_SaISV_EERSS_IPS4_SaIS10_EERKSS_IbSaIbEESI_jjj = comdat any

$_ZN6dealii19KellyErrorEstimatorILi3ELi3EE8estimateINS_6VectorIfEENS_10DoFHandlerILi3ELi3EEEEEvRKNS_7MappingILi3ELi3EEERKT0_RKNS_2hp11QCollectionILi2EEERKSt3mapIhPKNS_8FunctionILi3EEESt4lessIhESaISt4pairIKhSN_EEERKT_RS4_RKSt6vectorIbSaIbEESN_jjj = comdat any

$_ZN6dealii19KellyErrorEstimatorILi3ELi3EE8estimateINS_6VectorIfEENS_10DoFHandlerILi3ELi3EEEEEvRKT0_RKNS_2hp11QCollectionILi2EEERKSt3mapIhPKNS_8FunctionILi3EEESt4lessIhESaISt4pairIKhSJ_EEERKT_RS4_RKSt6vectorIbSaIbEESJ_jjj = comdat any

$_ZN6dealii19KellyErrorEstimatorILi3ELi3EE13estimate_someINS_6VectorIfEENS_10DoFHandlerILi3ELi3EEEEEvRKNS_2hp17MappingCollectionILi3ELi3EEERKT0_RKNS7_11QCollectionILi2EEERKSt3mapIhPKNS_8FunctionILi3EEESt4lessIhESaISt4pairIKhSN_EEERKSt6vectorIPKT_SaIS10_EERKSQ_IPKSX_IbSaIbEESN_ESQ_IjjERNS1_13FaceIntegralsISC_E4typeERNS1_13PerThreadDataE = comdat any

$_ZN6dealii7Threads8internal16fun_encapsulatorIvN5boost6tuples5tupleIRKNS_2hp17MappingCollectionILi3ELi3EEERKNS_10DoFHandlerILi3ELi3EEERKNS6_11QCollectionILi2EEERKSt3mapIhPKNS_8FunctionILi3EEESt4lessIhESaISt4pairIKhSN_EEERKSt6vectorIPKNS_6VectorIfEESaIS11_EERKSQ_IPKSX_IbSaIbEESN_ESQ_IjjERSJ_INS_12TriaIteratorINS_11DoFAccessorILi2ESC_EEEESX_IdSaIdEESO_IS1H_ESaISQ_IKS1H_S1J_EEERNS_19KellyErrorEstimatorILi3ELi3EE13PerThreadDataENS4_9null_typeEEELi9EEclESA_SE_SI_SW_S15_S1C_S1D_S1P_S1T_ = comdat any

$_ZN6dealii19KellyErrorEstimatorILi3ELi3EE8estimateINS_6VectorIfEENS_10DoFHandlerILi3ELi3EEEEEvRKT0_RKNS_2hp11QCollectionILi2EEERKSt3mapIhPKNS_8FunctionILi3EEESt4lessIhESaISt4pairIKhSJ_EEERKSt6vectorIPKT_SaISW_EERST_IPS4_SaIS11_EERKST_IbSaIbEESJ_jjj = comdat any

$_ZN6dealii19KellyErrorEstimatorILi3ELi3EE8estimateINS_11BlockVectorIdEENS_10DoFHandlerILi3ELi3EEEEEvRKNS_7MappingILi3ELi3EEERKT0_RKNS_10QuadratureILi2EEERKSt3mapIhPKNS_8FunctionILi3EEESt4lessIhESaISt4pairIKhSM_EEERKT_RNS_6VectorIfEERKSt6vectorIbSaIbEESM_jjj = comdat any

$_ZN6dealii19KellyErrorEstimatorILi3ELi3EE8estimateINS_11BlockVectorIdEENS_10DoFHandlerILi3ELi3EEEEEvRKNS_7MappingILi3ELi3EEERKT0_RKNS_10QuadratureILi2EEERKSt3mapIhPKNS_8FunctionILi3EEESt4lessIhESaISt4pairIKhSM_EEERKSt6vectorIPKT_SaISZ_EERSW_IPNS_6VectorIfEESaIS16_EERKSW_IbSaIbEESM_jjj = comdat any

$_ZN6dealii19KellyErrorEstimatorILi3ELi3EE8estimateINS_11BlockVectorIdEENS_10DoFHandlerILi3ELi3EEEEEvRKT0_RKNS_10QuadratureILi2EEERKSt3mapIhPKNS_8FunctionILi3EEESt4lessIhESaISt4pairIKhSI_EEERKT_RNS_6VectorIfEERKSt6vectorIbSaIbEESI_jjj = comdat any

$_ZN6dealii19KellyErrorEstimatorILi3ELi3EE8estimateINS_11BlockVectorIdEENS_10DoFHandlerILi3ELi3EEEEEvRKNS_7MappingILi3ELi3EEERKT0_RKNS_2hp11QCollectionILi2EEERKSt3mapIhPKNS_8FunctionILi3EEESt4lessIhESaISt4pairIKhSN_EEERKSt6vectorIPKT_SaIS10_EERSX_IPNS_6VectorIfEESaIS17_EERKSX_IbSaIbEESN_jjj = comdat any

$_ZN6dealii19KellyErrorEstimatorILi3ELi3EE8estimateINS_11BlockVectorIdEENS_10DoFHandlerILi3ELi3EEEEEvRKT0_RKNS_10QuadratureILi2EEERKSt3mapIhPKNS_8FunctionILi3EEESt4lessIhESaISt4pairIKhSI_EEERKSt6vectorIPKT_SaISV_EERSS_IPNS_6VectorIfEESaIS12_EERKSS_IbSaIbEESI_jjj = comdat any

$_ZN6dealii19KellyErrorEstimatorILi3ELi3EE8estimateINS_11BlockVectorIdEENS_10DoFHandlerILi3ELi3EEEEEvRKNS_7MappingILi3ELi3EEERKT0_RKNS_2hp11QCollectionILi2EEERKSt3mapIhPKNS_8FunctionILi3EEESt4lessIhESaISt4pairIKhSN_EEERKT_RNS_6VectorIfEERKSt6vectorIbSaIbEESN_jjj = comdat any

$_ZN6dealii19KellyErrorEstimatorILi3ELi3EE8estimateINS_11BlockVectorIdEENS_10DoFHandlerILi3ELi3EEEEEvRKT0_RKNS_2hp11QCollectionILi2EEERKSt3mapIhPKNS_8FunctionILi3EEESt4lessIhESaISt4pairIKhSJ_EEERKT_RNS_6VectorIfEERKSt6vectorIbSaIbEESJ_jjj = comdat any

$_ZN6dealii19KellyErrorEstimatorILi3ELi3EE13estimate_someINS_11BlockVectorIdEENS_10DoFHandlerILi3ELi3EEEEEvRKNS_2hp17MappingCollectionILi3ELi3EEERKT0_RKNS7_11QCollectionILi2EEERKSt3mapIhPKNS_8FunctionILi3EEESt4lessIhESaISt4pairIKhSN_EEERKSt6vectorIPKT_SaIS10_EERKSQ_IPKSX_IbSaIbEESN_ESQ_IjjERNS1_13FaceIntegralsISC_E4typeERNS1_13PerThreadDataE = comdat any

$_ZN6dealii7Threads8internal16fun_encapsulatorIvN5boost6tuples5tupleIRKNS_2hp17MappingCollectionILi3ELi3EEERKNS_10DoFHandlerILi3ELi3EEERKNS6_11QCollectionILi2EEERKSt3mapIhPKNS_8FunctionILi3EEESt4lessIhESaISt4pairIKhSN_EEERKSt6vectorIPKNS_11BlockVectorIdEESaIS11_EERKSQ_IPKSX_IbSaIbEESN_ESQ_IjjERSJ_INS_12TriaIteratorINS_11DoFAccessorILi2ESC_EEEESX_IdSaIdEESO_IS1H_ESaISQ_IKS1H_S1J_EEERNS_19KellyErrorEstimatorILi3ELi3EE13PerThreadDataENS4_9null_typeEEELi9EEclESA_SE_SI_SW_S15_S1C_S1D_S1P_S1T_ = comdat any

$_ZN6dealii19KellyErrorEstimatorILi3ELi3EE8estimateINS_11BlockVectorIdEENS_10DoFHandlerILi3ELi3EEEEEvRKT0_RKNS_2hp11QCollectionILi2EEERKSt3mapIhPKNS_8FunctionILi3EEESt4lessIhESaISt4pairIKhSJ_EEERKSt6vectorIPKT_SaISW_EERST_IPNS_6VectorIfEESaIS13_EERKST_IbSaIbEESJ_jjj = comdat any

$_ZN6dealii19KellyErrorEstimatorILi3ELi3EE8estimateINS_11BlockVectorIfEENS_10DoFHandlerILi3ELi3EEEEEvRKNS_7MappingILi3ELi3EEERKT0_RKNS_10QuadratureILi2EEERKSt3mapIhPKNS_8FunctionILi3EEESt4lessIhESaISt4pairIKhSM_EEERKT_RNS_6VectorIfEERKSt6vectorIbSaIbEESM_jjj = comdat any

$_ZN6dealii19KellyErrorEstimatorILi3ELi3EE8estimateINS_11BlockVectorIfEENS_10DoFHandlerILi3ELi3EEEEEvRKNS_7MappingILi3ELi3EEERKT0_RKNS_10QuadratureILi2EEERKSt3mapIhPKNS_8FunctionILi3EEESt4lessIhESaISt4pairIKhSM_EEERKSt6vectorIPKT_SaISZ_EERSW_IPNS_6VectorIfEESaIS16_EERKSW_IbSaIbEESM_jjj = comdat any

$_ZN6dealii19KellyErrorEstimatorILi3ELi3EE8estimateINS_11BlockVectorIfEENS_10DoFHandlerILi3ELi3EEEEEvRKT0_RKNS_10QuadratureILi2EEERKSt3mapIhPKNS_8FunctionILi3EEESt4lessIhESaISt4pairIKhSI_EEERKT_RNS_6VectorIfEERKSt6vectorIbSaIbEESI_jjj = comdat any

$_ZN6dealii19KellyErrorEstimatorILi3ELi3EE8estimateINS_11BlockVectorIfEENS_10DoFHandlerILi3ELi3EEEEEvRKNS_7MappingILi3ELi3EEERKT0_RKNS_2hp11QCollectionILi2EEERKSt3mapIhPKNS_8FunctionILi3EEESt4lessIhESaISt4pairIKhSN_EEERKSt6vectorIPKT_SaIS10_EERSX_IPNS_6VectorIfEESaIS17_EERKSX_IbSaIbEESN_jjj = comdat any

$_ZN6dealii19KellyErrorEstimatorILi3ELi3EE8estimateINS_11BlockVectorIfEENS_10DoFHandlerILi3ELi3EEEEEvRKT0_RKNS_10QuadratureILi2EEERKSt3mapIhPKNS_8FunctionILi3EEESt4lessIhESaISt4pairIKhSI_EEERKSt6vectorIPKT_SaISV_EERSS_IPNS_6VectorIfEESaIS12_EERKSS_IbSaIbEESI_jjj = comdat any

$_ZN6dealii19KellyErrorEstimatorILi3ELi3EE8estimateINS_11BlockVectorIfEENS_10DoFHandlerILi3ELi3EEEEEvRKNS_7MappingILi3ELi3EEERKT0_RKNS_2hp11QCollectionILi2EEERKSt3mapIhPKNS_8FunctionILi3EEESt4lessIhESaISt4pairIKhSN_EEERKT_RNS_6VectorIfEERKSt6vectorIbSaIbEESN_jjj = comdat any

$_ZN6dealii19KellyErrorEstimatorILi3ELi3EE8estimateINS_11BlockVectorIfEENS_10DoFHandlerILi3ELi3EEEEEvRKT0_RKNS_2hp11QCollectionILi2EEERKSt3mapIhPKNS_8FunctionILi3EEESt4lessIhESaISt4pairIKhSJ_EEERKT_RNS_6VectorIfEERKSt6vectorIbSaIbEESJ_jjj = comdat any

$_ZN6dealii19KellyErrorEstimatorILi3ELi3EE13estimate_someINS_11BlockVectorIfEENS_10DoFHandlerILi3ELi3EEEEEvRKNS_2hp17MappingCollectionILi3ELi3EEERKT0_RKNS7_11QCollectionILi2EEERKSt3mapIhPKNS_8FunctionILi3EEESt4lessIhESaISt4pairIKhSN_EEERKSt6vectorIPKT_SaIS10_EERKSQ_IPKSX_IbSaIbEESN_ESQ_IjjERNS1_13FaceIntegralsISC_E4typeERNS1_13PerThreadDataE = comdat any

$_ZN6dealii7Threads8internal16fun_encapsulatorIvN5boost6tuples5tupleIRKNS_2hp17MappingCollectionILi3ELi3EEERKNS_10DoFHandlerILi3ELi3EEERKNS6_11QCollectionILi2EEERKSt3mapIhPKNS_8FunctionILi3EEESt4lessIhESaISt4pairIKhSN_EEERKSt6vectorIPKNS_11BlockVectorIfEESaIS11_EERKSQ_IPKSX_IbSaIbEESN_ESQ_IjjERSJ_INS_12TriaIteratorINS_11DoFAccessorILi2ESC_EEEESX_IdSaIdEESO_IS1H_ESaISQ_IKS1H_S1J_EEERNS_19KellyErrorEstimatorILi3ELi3EE13PerThreadDataENS4_9null_typeEEELi9EEclESA_SE_SI_SW_S15_S1C_S1D_S1P_S1T_ = comdat any

$_ZN6dealii19KellyErrorEstimatorILi3ELi3EE8estimateINS_11BlockVectorIfEENS_10DoFHandlerILi3ELi3EEEEEvRKT0_RKNS_2hp11QCollectionILi2EEERKSt3mapIhPKNS_8FunctionILi3EEESt4lessIhESaISt4pairIKhSJ_EEERKSt6vectorIPKT_SaISW_EERST_IPNS_6VectorIfEESaIS13_EERKST_IbSaIbEESJ_jjj = comdat any

$_ZN6dealii19KellyErrorEstimatorILi3ELi3EE8estimateINS_6VectorIdEENS_2hp10DoFHandlerILi3ELi3EEEEEvRKNS_7MappingILi3ELi3EEERKT0_RKNS_10QuadratureILi2EEERKSt3mapIhPKNS_8FunctionILi3EEESt4lessIhESaISt4pairIKhSN_EEERKT_RNS3_IfEERKSt6vectorIbSaIbEESN_jjj = comdat any

$_ZN6dealii19KellyErrorEstimatorILi3ELi3EE8estimateINS_6VectorIdEENS_2hp10DoFHandlerILi3ELi3EEEEEvRKNS_7MappingILi3ELi3EEERKT0_RKNS_10QuadratureILi2EEERKSt3mapIhPKNS_8FunctionILi3EEESt4lessIhESaISt4pairIKhSN_EEERKSt6vectorIPKT_SaIS10_EERSX_IPNS3_IfEESaIS16_EERKSX_IbSaIbEESN_jjj = comdat any

$_ZN6dealii19KellyErrorEstimatorILi3ELi3EE8estimateINS_6VectorIdEENS_2hp10DoFHandlerILi3ELi3EEEEEvRKT0_RKNS_10QuadratureILi2EEERKSt3mapIhPKNS_8FunctionILi3EEESt4lessIhESaISt4pairIKhSJ_EEERKT_RNS3_IfEERKSt6vectorIbSaIbEESJ_jjj = comdat any

$_ZN6dealii19KellyErrorEstimatorILi3ELi3EE8estimateINS_6VectorIdEENS_2hp10DoFHandlerILi3ELi3EEEEEvRKNS_7MappingILi3ELi3EEERKT0_RKNS5_11QCollectionILi2EEERKSt3mapIhPKNS_8FunctionILi3EEESt4lessIhESaISt4pairIKhSN_EEERKSt6vectorIPKT_SaIS10_EERSX_IPNS3_IfEESaIS16_EERKSX_IbSaIbEESN_jjj = comdat any

$_ZN6dealii19KellyErrorEstimatorILi3ELi3EE8estimateINS_6VectorIdEENS_2hp10DoFHandlerILi3ELi3EEEEEvRKT0_RKNS_10QuadratureILi2EEERKSt3mapIhPKNS_8FunctionILi3EEESt4lessIhESaISt4pairIKhSJ_EEERKSt6vectorIPKT_SaISW_EERST_IPNS3_IfEESaIS12_EERKST_IbSaIbEESJ_jjj = comdat any

$_ZN6dealii19KellyErrorEstimatorILi3ELi3EE8estimateINS_6VectorIdEENS_2hp10DoFHandlerILi3ELi3EEEEEvRKNS_7MappingILi3ELi3EEERKT0_RKNS5_11QCollectionILi2EEERKSt3mapIhPKNS_8FunctionILi3EEESt4lessIhESaISt4pairIKhSN_EEERKT_RNS3_IfEERKSt6vectorIbSaIbEESN_jjj = comdat any

$_ZN6dealii19KellyErrorEstimatorILi3ELi3EE8estimateINS_6VectorIdEENS_2hp10DoFHandlerILi3ELi3EEEEEvRKT0_RKNS5_11QCollectionILi2EEERKSt3mapIhPKNS_8FunctionILi3EEESt4lessIhESaISt4pairIKhSJ_EEERKT_RNS3_IfEERKSt6vectorIbSaIbEESJ_jjj = comdat any

$_ZNSt3mapIN6dealii12TriaIteratorINS0_11DoFAccessorILi2ENS0_2hp10DoFHandlerILi3ELi3EEEEEEESt6vectorIdSaIdEESt4lessIS7_ESaISt4pairIKS7_SA_EEEixERSE_ = comdat any

$_ZN6dealii19KellyErrorEstimatorILi3ELi3EE13estimate_someINS_6VectorIdEENS_2hp10DoFHandlerILi3ELi3EEEEEvRKNS5_17MappingCollectionILi3ELi3EEERKT0_RKNS5_11QCollectionILi2EEERKSt3mapIhPKNS_8FunctionILi3EEESt4lessIhESaISt4pairIKhSN_EEERKSt6vectorIPKT_SaIS10_EERKSQ_IPKSX_IbSaIbEESN_ESQ_IjjERNS1_13FaceIntegralsISC_E4typeERNS1_13PerThreadDataE = comdat any

$_ZN6dealii7Threads8internal16fun_encapsulatorIvN5boost6tuples5tupleIRKNS_2hp17MappingCollectionILi3ELi3EEERKNS6_10DoFHandlerILi3ELi3EEERKNS6_11QCollectionILi2EEERKSt3mapIhPKNS_8FunctionILi3EEESt4lessIhESaISt4pairIKhSN_EEERKSt6vectorIPKNS_6VectorIdEESaIS11_EERKSQ_IPKSX_IbSaIbEESN_ESQ_IjjERSJ_INS_12TriaIteratorINS_11DoFAccessorILi2ESC_EEEESX_IdSaIdEESO_IS1H_ESaISQ_IKS1H_S1J_EEERNS_19KellyErrorEstimatorILi3ELi3EE13PerThreadDataENS4_9null_typeEEELi9EEclESA_SE_SI_SW_S15_S1C_S1D_S1P_S1T_ = comdat any

$_ZN6dealii19KellyErrorEstimatorILi3ELi3EE8estimateINS_6VectorIdEENS_2hp10DoFHandlerILi3ELi3EEEEEvRKT0_RKNS5_11QCollectionILi2EEERKSt3mapIhPKNS_8FunctionILi3EEESt4lessIhESaISt4pairIKhSJ_EEERKSt6vectorIPKT_SaISW_EERST_IPNS3_IfEESaIS12_EERKST_IbSaIbEESJ_jjj = comdat any

$_ZN6dealii19KellyErrorEstimatorILi3ELi3EE8estimateINS_6VectorIfEENS_2hp10DoFHandlerILi3ELi3EEEEEvRKNS_7MappingILi3ELi3EEERKT0_RKNS_10QuadratureILi2EEERKSt3mapIhPKNS_8FunctionILi3EEESt4lessIhESaISt4pairIKhSN_EEERKT_RS4_RKSt6vectorIbSaIbEESN_jjj = comdat any

$_ZN6dealii19KellyErrorEstimatorILi3ELi3EE8estimateINS_6VectorIfEENS_2hp10DoFHandlerILi3ELi3EEEEEvRKNS_7MappingILi3ELi3EEERKT0_RKNS_10QuadratureILi2EEERKSt3mapIhPKNS_8FunctionILi3EEESt4lessIhESaISt4pairIKhSN_EEERKSt6vectorIPKT_SaIS10_EERSX_IPS4_SaIS15_EERKSX_IbSaIbEESN_jjj = comdat any

$_ZN6dealii19KellyErrorEstimatorILi3ELi3EE8estimateINS_6VectorIfEENS_2hp10DoFHandlerILi3ELi3EEEEEvRKT0_RKNS_10QuadratureILi2EEERKSt3mapIhPKNS_8FunctionILi3EEESt4lessIhESaISt4pairIKhSJ_EEERKT_RS4_RKSt6vectorIbSaIbEESJ_jjj = comdat any

$_ZN6dealii19KellyErrorEstimatorILi3ELi3EE8estimateINS_6VectorIfEENS_2hp10DoFHandlerILi3ELi3EEEEEvRKNS_7MappingILi3ELi3EEERKT0_RKNS5_11QCollectionILi2EEERKSt3mapIhPKNS_8FunctionILi3EEESt4lessIhESaISt4pairIKhSN_EEERKSt6vectorIPKT_SaIS10_EERSX_IPS4_SaIS15_EERKSX_IbSaIbEESN_jjj = comdat any

$_ZN6dealii19KellyErrorEstimatorILi3ELi3EE8estimateINS_6VectorIfEENS_2hp10DoFHandlerILi3ELi3EEEEEvRKT0_RKNS_10QuadratureILi2EEERKSt3mapIhPKNS_8FunctionILi3EEESt4lessIhESaISt4pairIKhSJ_EEERKSt6vectorIPKT_SaISW_EERST_IPS4_SaIS11_EERKST_IbSaIbEESJ_jjj = comdat any

$_ZN6dealii19KellyErrorEstimatorILi3ELi3EE8estimateINS_6VectorIfEENS_2hp10DoFHandlerILi3ELi3EEEEEvRKNS_7MappingILi3ELi3EEERKT0_RKNS5_11QCollectionILi2EEERKSt3mapIhPKNS_8FunctionILi3EEESt4lessIhESaISt4pairIKhSN_EEERKT_RS4_RKSt6vectorIbSaIbEESN_jjj = comdat any

$_ZN6dealii19KellyErrorEstimatorILi3ELi3EE8estimateINS_6VectorIfEENS_2hp10DoFHandlerILi3ELi3EEEEEvRKT0_RKNS5_11QCollectionILi2EEERKSt3mapIhPKNS_8FunctionILi3EEESt4lessIhESaISt4pairIKhSJ_EEERKT_RS4_RKSt6vectorIbSaIbEESJ_jjj = comdat any

$_ZN6dealii19KellyErrorEstimatorILi3ELi3EE13estimate_someINS_6VectorIfEENS_2hp10DoFHandlerILi3ELi3EEEEEvRKNS5_17MappingCollectionILi3ELi3EEERKT0_RKNS5_11QCollectionILi2EEERKSt3mapIhPKNS_8FunctionILi3EEESt4lessIhESaISt4pairIKhSN_EEERKSt6vectorIPKT_SaIS10_EERKSQ_IPKSX_IbSaIbEESN_ESQ_IjjERNS1_13FaceIntegralsISC_E4typeERNS1_13PerThreadDataE = comdat any

$_ZN6dealii7Threads8internal16fun_encapsulatorIvN5boost6tuples5tupleIRKNS_2hp17MappingCollectionILi3ELi3EEERKNS6_10DoFHandlerILi3ELi3EEERKNS6_11QCollectionILi2EEERKSt3mapIhPKNS_8FunctionILi3EEESt4lessIhESaISt4pairIKhSN_EEERKSt6vectorIPKNS_6VectorIfEESaIS11_EERKSQ_IPKSX_IbSaIbEESN_ESQ_IjjERSJ_INS_12TriaIteratorINS_11DoFAccessorILi2ESC_EEEESX_IdSaIdEESO_IS1H_ESaISQ_IKS1H_S1J_EEERNS_19KellyErrorEstimatorILi3ELi3EE13PerThreadDataENS4_9null_typeEEELi9EEclESA_SE_SI_SW_S15_S1C_S1D_S1P_S1T_ = comdat any

$_ZN6dealii19KellyErrorEstimatorILi3ELi3EE8estimateINS_6VectorIfEENS_2hp10DoFHandlerILi3ELi3EEEEEvRKT0_RKNS5_11QCollectionILi2EEERKSt3mapIhPKNS_8FunctionILi3EEESt4lessIhESaISt4pairIKhSJ_EEERKSt6vectorIPKT_SaISW_EERST_IPS4_SaIS11_EERKST_IbSaIbEESJ_jjj = comdat any

$_ZN6dealii19KellyErrorEstimatorILi3ELi3EE8estimateINS_11BlockVectorIdEENS_2hp10DoFHandlerILi3ELi3EEEEEvRKNS_7MappingILi3ELi3EEERKT0_RKNS_10QuadratureILi2EEERKSt3mapIhPKNS_8FunctionILi3EEESt4lessIhESaISt4pairIKhSN_EEERKT_RNS_6VectorIfEERKSt6vectorIbSaIbEESN_jjj = comdat any

$_ZN6dealii19KellyErrorEstimatorILi3ELi3EE8estimateINS_11BlockVectorIdEENS_2hp10DoFHandlerILi3ELi3EEEEEvRKNS_7MappingILi3ELi3EEERKT0_RKNS_10QuadratureILi2EEERKSt3mapIhPKNS_8FunctionILi3EEESt4lessIhESaISt4pairIKhSN_EEERKSt6vectorIPKT_SaIS10_EERSX_IPNS_6VectorIfEESaIS17_EERKSX_IbSaIbEESN_jjj = comdat any

$_ZN6dealii19KellyErrorEstimatorILi3ELi3EE8estimateINS_11BlockVectorIdEENS_2hp10DoFHandlerILi3ELi3EEEEEvRKT0_RKNS_10QuadratureILi2EEERKSt3mapIhPKNS_8FunctionILi3EEESt4lessIhESaISt4pairIKhSJ_EEERKT_RNS_6VectorIfEERKSt6vectorIbSaIbEESJ_jjj = comdat any

$_ZN6dealii19KellyErrorEstimatorILi3ELi3EE8estimateINS_11BlockVectorIdEENS_2hp10DoFHandlerILi3ELi3EEEEEvRKNS_7MappingILi3ELi3EEERKT0_RKNS5_11QCollectionILi2EEERKSt3mapIhPKNS_8FunctionILi3EEESt4lessIhESaISt4pairIKhSN_EEERKSt6vectorIPKT_SaIS10_EERSX_IPNS_6VectorIfEESaIS17_EERKSX_IbSaIbEESN_jjj = comdat any

$_ZN6dealii19KellyErrorEstimatorILi3ELi3EE8estimateINS_11BlockVectorIdEENS_2hp10DoFHandlerILi3ELi3EEEEEvRKT0_RKNS_10QuadratureILi2EEERKSt3mapIhPKNS_8FunctionILi3EEESt4lessIhESaISt4pairIKhSJ_EEERKSt6vectorIPKT_SaISW_EERST_IPNS_6VectorIfEESaIS13_EERKST_IbSaIbEESJ_jjj = comdat any

$_ZN6dealii19KellyErrorEstimatorILi3ELi3EE8estimateINS_11BlockVectorIdEENS_2hp10DoFHandlerILi3ELi3EEEEEvRKNS_7MappingILi3ELi3EEERKT0_RKNS5_11QCollectionILi2EEERKSt3mapIhPKNS_8FunctionILi3EEESt4lessIhESaISt4pairIKhSN_EEERKT_RNS_6VectorIfEERKSt6vectorIbSaIbEESN_jjj = comdat any

$_ZN6dealii19KellyErrorEstimatorILi3ELi3EE8estimateINS_11BlockVectorIdEENS_2hp10DoFHandlerILi3ELi3EEEEEvRKT0_RKNS5_11QCollectionILi2EEERKSt3mapIhPKNS_8FunctionILi3EEESt4lessIhESaISt4pairIKhSJ_EEERKT_RNS_6VectorIfEERKSt6vectorIbSaIbEESJ_jjj = comdat any

$_ZN6dealii19KellyErrorEstimatorILi3ELi3EE13estimate_someINS_11BlockVectorIdEENS_2hp10DoFHandlerILi3ELi3EEEEEvRKNS5_17MappingCollectionILi3ELi3EEERKT0_RKNS5_11QCollectionILi2EEERKSt3mapIhPKNS_8FunctionILi3EEESt4lessIhESaISt4pairIKhSN_EEERKSt6vectorIPKT_SaIS10_EERKSQ_IPKSX_IbSaIbEESN_ESQ_IjjERNS1_13FaceIntegralsISC_E4typeERNS1_13PerThreadDataE = comdat any

$_ZN6dealii7Threads8internal16fun_encapsulatorIvN5boost6tuples5tupleIRKNS_2hp17MappingCollectionILi3ELi3EEERKNS6_10DoFHandlerILi3ELi3EEERKNS6_11QCollectionILi2EEERKSt3mapIhPKNS_8FunctionILi3EEESt4lessIhESaISt4pairIKhSN_EEERKSt6vectorIPKNS_11BlockVectorIdEESaIS11_EERKSQ_IPKSX_IbSaIbEESN_ESQ_IjjERSJ_INS_12TriaIteratorINS_11DoFAccessorILi2ESC_EEEESX_IdSaIdEESO_IS1H_ESaISQ_IKS1H_S1J_EEERNS_19KellyErrorEstimatorILi3ELi3EE13PerThreadDataENS4_9null_typeEEELi9EEclESA_SE_SI_SW_S15_S1C_S1D_S1P_S1T_ = comdat any

$_ZN6dealii19KellyErrorEstimatorILi3ELi3EE8estimateINS_11BlockVectorIdEENS_2hp10DoFHandlerILi3ELi3EEEEEvRKT0_RKNS5_11QCollectionILi2EEERKSt3mapIhPKNS_8FunctionILi3EEESt4lessIhESaISt4pairIKhSJ_EEERKSt6vectorIPKT_SaISW_EERST_IPNS_6VectorIfEESaIS13_EERKST_IbSaIbEESJ_jjj = comdat any

$_ZN6dealii19KellyErrorEstimatorILi3ELi3EE8estimateINS_11BlockVectorIfEENS_2hp10DoFHandlerILi3ELi3EEEEEvRKNS_7MappingILi3ELi3EEERKT0_RKNS_10QuadratureILi2EEERKSt3mapIhPKNS_8FunctionILi3EEESt4lessIhESaISt4pairIKhSN_EEERKT_RNS_6VectorIfEERKSt6vectorIbSaIbEESN_jjj = comdat any

$_ZN6dealii19KellyErrorEstimatorILi3ELi3EE8estimateINS_11BlockVectorIfEENS_2hp10DoFHandlerILi3ELi3EEEEEvRKNS_7MappingILi3ELi3EEERKT0_RKNS_10QuadratureILi2EEERKSt3mapIhPKNS_8FunctionILi3EEESt4lessIhESaISt4pairIKhSN_EEERKSt6vectorIPKT_SaIS10_EERSX_IPNS_6VectorIfEESaIS17_EERKSX_IbSaIbEESN_jjj = comdat any

$_ZN6dealii19KellyErrorEstimatorILi3ELi3EE8estimateINS_11BlockVectorIfEENS_2hp10DoFHandlerILi3ELi3EEEEEvRKT0_RKNS_10QuadratureILi2EEERKSt3mapIhPKNS_8FunctionILi3EEESt4lessIhESaISt4pairIKhSJ_EEERKT_RNS_6VectorIfEERKSt6vectorIbSaIbEESJ_jjj = comdat any

$_ZN6dealii19KellyErrorEstimatorILi3ELi3EE8estimateINS_11BlockVectorIfEENS_2hp10DoFHandlerILi3ELi3EEEEEvRKNS_7MappingILi3ELi3EEERKT0_RKNS5_11QCollectionILi2EEERKSt3mapIhPKNS_8FunctionILi3EEESt4lessIhESaISt4pairIKhSN_EEERKSt6vectorIPKT_SaIS10_EERSX_IPNS_6VectorIfEESaIS17_EERKSX_IbSaIbEESN_jjj = comdat any

$_ZN6dealii19KellyErrorEstimatorILi3ELi3EE8estimateINS_11BlockVectorIfEENS_2hp10DoFHandlerILi3ELi3EEEEEvRKT0_RKNS_10QuadratureILi2EEERKSt3mapIhPKNS_8FunctionILi3EEESt4lessIhESaISt4pairIKhSJ_EEERKSt6vectorIPKT_SaISW_EERST_IPNS_6VectorIfEESaIS13_EERKST_IbSaIbEESJ_jjj = comdat any

$_ZN6dealii19KellyErrorEstimatorILi3ELi3EE8estimateINS_11BlockVectorIfEENS_2hp10DoFHandlerILi3ELi3EEEEEvRKNS_7MappingILi3ELi3EEERKT0_RKNS5_11QCollectionILi2EEERKSt3mapIhPKNS_8FunctionILi3EEESt4lessIhESaISt4pairIKhSN_EEERKT_RNS_6VectorIfEERKSt6vectorIbSaIbEESN_jjj = comdat any

$_ZN6dealii19KellyErrorEstimatorILi3ELi3EE8estimateINS_11BlockVectorIfEENS_2hp10DoFHandlerILi3ELi3EEEEEvRKT0_RKNS5_11QCollectionILi2EEERKSt3mapIhPKNS_8FunctionILi3EEESt4lessIhESaISt4pairIKhSJ_EEERKT_RNS_6VectorIfEERKSt6vectorIbSaIbEESJ_jjj = comdat any

$_ZN6dealii19KellyErrorEstimatorILi3ELi3EE13estimate_someINS_11BlockVectorIfEENS_2hp10DoFHandlerILi3ELi3EEEEEvRKNS5_17MappingCollectionILi3ELi3EEERKT0_RKNS5_11QCollectionILi2EEERKSt3mapIhPKNS_8FunctionILi3EEESt4lessIhESaISt4pairIKhSN_EEERKSt6vectorIPKT_SaIS10_EERKSQ_IPKSX_IbSaIbEESN_ESQ_IjjERNS1_13FaceIntegralsISC_E4typeERNS1_13PerThreadDataE = comdat any

$_ZN6dealii7Threads8internal16fun_encapsulatorIvN5boost6tuples5tupleIRKNS_2hp17MappingCollectionILi3ELi3EEERKNS6_10DoFHandlerILi3ELi3EEERKNS6_11QCollectionILi2EEERKSt3mapIhPKNS_8FunctionILi3EEESt4lessIhESaISt4pairIKhSN_EEERKSt6vectorIPKNS_11BlockVectorIfEESaIS11_EERKSQ_IPKSX_IbSaIbEESN_ESQ_IjjERSJ_INS_12TriaIteratorINS_11DoFAccessorILi2ESC_EEEESX_IdSaIdEESO_IS1H_ESaISQ_IKS1H_S1J_EEERNS_19KellyErrorEstimatorILi3ELi3EE13PerThreadDataENS4_9null_typeEEELi9EEclESA_SE_SI_SW_S15_S1C_S1D_S1P_S1T_ = comdat any

$_ZN6dealii19KellyErrorEstimatorILi3ELi3EE8estimateINS_11BlockVectorIfEENS_2hp10DoFHandlerILi3ELi3EEEEEvRKT0_RKNS5_11QCollectionILi2EEERKSt3mapIhPKNS_8FunctionILi3EEESt4lessIhESaISt4pairIKhSJ_EEERKSt6vectorIPKT_SaISW_EERST_IPNS_6VectorIfEESaIS13_EERKST_IbSaIbEESJ_jjj = comdat any

$_ZN6dealii19KellyErrorEstimatorILi3ELi3EE27ExcInvalidBoundaryIndicatorD0Ev = comdat any

$_ZN6dealii19KellyErrorEstimatorILi3ELi3EE23ExcInvalidComponentMaskD0Ev = comdat any

$_ZN6dealii19KellyErrorEstimatorILi3ELi3EE21ExcInvalidCoefficientD0Ev = comdat any

$_ZN6dealii19KellyErrorEstimatorILi3ELi3EE26ExcInvalidBoundaryFunctionD0Ev = comdat any

$_ZN6dealii19KellyErrorEstimatorILi3ELi3EE24ExcInvalidSolutionVectorD0Ev = comdat any

$_ZN6dealii19KellyErrorEstimatorILi3ELi3EE14ExcNoSolutionsD0Ev = comdat any

$_ZNSt6vectorIN5boost10shared_ptrIKN6dealii10QuadratureILi2EEEEESaIS6_EED2Ev = comdat any

$_ZN6dealii2hp11QCollectionILi2EED0Ev = comdat any

$_ZN5boost10shared_ptrIKN6dealii10QuadratureILi2EEEED2Ev = comdat any

$_ZN5boost10shared_ptrIN6dealii7Threads8internal16ThreadDescriptorIvEEED2Ev = comdat any

$_ZN6dealii2hp17MappingCollectionILi3ELi3EED0Ev = comdat any

$_ZNSt8_Rb_treeIN6dealii12TriaIteratorINS0_11DoFAccessorILi2ENS0_10DoFHandlerILi3ELi3EEEEEEESt4pairIKS6_St6vectorIdSaIdEEESt10_Select1stISC_ESt4lessIS6_ESaISC_EE8_M_eraseEPSt13_Rb_tree_nodeISC_E = comdat any

$_ZNSt8_Rb_treeIN6dealii12TriaIteratorINS0_11DoFAccessorILi2ENS0_2hp10DoFHandlerILi3ELi3EEEEEEESt4pairIKS7_St6vectorIdSaIdEEESt10_Select1stISD_ESt4lessIS7_ESaISD_EE8_M_eraseEPSt13_Rb_tree_nodeISD_E = comdat any

$_ZN6dealii6VectorIdED0Ev = comdat any

$_ZN6dealii6VectorIdE6reinitEjb = comdat any

$_ZN6dealii6VectorIdE4swapERS1_ = comdat any

$_ZSt8_DestroyIPSt6vectorIS0_IdSaIdEESaIS2_EEEvT_S6_ = comdat any

$_ZSt8_DestroyIPSt6vectorIS0_IN6dealii6TensorILi1ELi3EEESaIS3_EESaIS5_EEEvT_S9_ = comdat any

$_ZNSt6vectorIN6dealii5PointILi3EEESaIS2_EE14_M_fill_insertEN9__gnu_cxx17__normal_iteratorIPS2_S4_EEmRKS2_ = comdat any

$_ZNSt6vectorIdSaIdEE14_M_fill_insertEN9__gnu_cxx17__normal_iteratorIPdS1_EEmRKd = comdat any

$_ZNSt6vectorIN6dealii6VectorIdEESaIS2_EE14_M_fill_insertEN9__gnu_cxx17__normal_iteratorIPS2_S4_EEmRKS2_ = comdat any

$_ZNSt6vectorIS_IS_IdSaIdEESaIS1_EESaIS3_EE14_M_fill_insertEN9__gnu_cxx17__normal_iteratorIPS3_S5_EEmRKS3_ = comdat any

$_ZSt16__do_uninit_copyIN9__gnu_cxx17__normal_iteratorIPKSt6vectorIdSaIdEES2_IS4_SaIS4_EEEEPS4_ET0_T_SC_SB_ = comdat any

$_ZSt16__do_uninit_copyIPSt6vectorIS0_IdSaIdEESaIS2_EES5_ET0_T_S7_S6_ = comdat any

$_ZNSt6vectorIS_IdSaIdEESaIS1_EEaSERKS3_ = comdat any

$_ZNSt6vectorIS_IdSaIdEESaIS1_EE20_M_allocate_and_copyIN9__gnu_cxx17__normal_iteratorIPKS1_S3_EEEEPS1_mT_SB_ = comdat any

$_ZSt16__do_uninit_copyIPSt6vectorIdSaIdEES3_ET0_T_S5_S4_ = comdat any

$_ZSt18__do_uninit_fill_nIPSt6vectorIS0_IdSaIdEESaIS2_EEmS4_ET_S6_T0_RKT1_ = comdat any

$_ZNSt6vectorIS_IS_IN6dealii6TensorILi1ELi3EEESaIS2_EESaIS4_EESaIS6_EE14_M_fill_insertEN9__gnu_cxx17__normal_iteratorIPS6_S8_EEmRKS6_ = comdat any

$_ZSt16__do_uninit_copyIN9__gnu_cxx17__normal_iteratorIPKSt6vectorIN6dealii6TensorILi1ELi3EEESaIS5_EES2_IS7_SaIS7_EEEEPS7_ET0_T_SF_SE_ = comdat any

$_ZSt16__do_uninit_copyIPSt6vectorIS0_IN6dealii6TensorILi1ELi3EEESaIS3_EESaIS5_EES8_ET0_T_SA_S9_ = comdat any

$_ZNSt6vectorIS_IN6dealii6TensorILi1ELi3EEESaIS2_EESaIS4_EEaSERKS6_ = comdat any

$_ZNSt6vectorIS_IN6dealii6TensorILi1ELi3EEESaIS2_EESaIS4_EE20_M_allocate_and_copyIN9__gnu_cxx17__normal_iteratorIPKS4_S6_EEEEPS4_mT_SE_ = comdat any

$_ZNSt6vectorIN6dealii6TensorILi1ELi3EEESaIS2_EEaSERKS4_ = comdat any

$_ZSt16__do_uninit_copyIPSt6vectorIN6dealii6TensorILi1ELi3EEESaIS3_EES6_ET0_T_S8_S7_ = comdat any

$_ZSt18__do_uninit_fill_nIPSt6vectorIS0_IN6dealii6TensorILi1ELi3EEESaIS3_EESaIS5_EEmS7_ET_S9_T0_RKT1_ = comdat any

$_ZNSt6vectorIS_IdSaIdEESaIS1_EE14_M_fill_insertEN9__gnu_cxx17__normal_iteratorIPS1_S3_EEmRKS1_ = comdat any

$_ZSt18__do_uninit_fill_nIPSt6vectorIdSaIdEEmS2_ET_S4_T0_RKT1_ = comdat any

$_ZNSt6vectorIS_IN6dealii6TensorILi1ELi3EEESaIS2_EESaIS4_EE14_M_fill_insertEN9__gnu_cxx17__normal_iteratorIPS4_S6_EEmRKS4_ = comdat any

$_ZSt18__do_uninit_fill_nIPSt6vectorIN6dealii6TensorILi1ELi3EEESaIS3_EEmS5_ET_S7_T0_RKT1_ = comdat any

$_ZNSt6vectorIN6dealii6TensorILi1ELi3EEESaIS2_EE14_M_fill_insertEN9__gnu_cxx17__normal_iteratorIPS2_S4_EEmRKS2_ = comdat any

$_ZNSt6vectorIN5boost10shared_ptrIKN6dealii10QuadratureILi2EEEEESaIS6_EE17_M_realloc_insertEN9__gnu_cxx17__normal_iteratorIPS6_S8_EERKS6_ = comdat any

$_ZN5boost6detail17sp_counted_impl_pIN6dealii10QuadratureILi2EEEED0Ev = comdat any

$_ZN5boost6detail17sp_counted_impl_pIN6dealii10QuadratureILi2EEEE7disposeEv = comdat any

$_ZN5boost6detail15sp_counted_base7destroyEv = comdat any

$_ZN5boost6detail17sp_counted_impl_pIN6dealii10QuadratureILi2EEEE11get_deleterERKSt9type_info = comdat any

$_ZNSt8_Rb_treeIN6dealii12TriaIteratorINS0_11DoFAccessorILi2ENS0_10DoFHandlerILi3ELi3EEEEEEESt4pairIKS6_St6vectorIdSaIdEEESt10_Select1stISC_ESt4lessIS6_ESaISC_EE29_M_get_insert_hint_unique_posESt23_Rb_tree_const_iteratorISC_ERS8_ = comdat any

$_ZNSt8_Rb_treeIN6dealii12TriaIteratorINS0_11DoFAccessorILi2ENS0_10DoFHandlerILi3ELi3EEEEEEESt4pairIKS6_St6vectorIdSaIdEEESt10_Select1stISC_ESt4lessIS6_ESaISC_EE17_M_construct_nodeEPSt13_Rb_tree_nodeISC_ERKSC_ = comdat any

$_ZN6dealii19KellyErrorEstimatorILi3ELi3EE27integrate_over_regular_faceINS_6VectorIdEENS_10DoFHandlerILi3ELi3EEEEEvRKT0_RKNS_2hp11QCollectionILi2EEERKSt3mapIhPKNS_8FunctionILi3EEESt4lessIhESaISt4pairIKhSJ_EEERKSt6vectorIPKT_SaISW_EERKST_IbSaIbEESJ_RNS1_13FaceIntegralsIS7_E4typeERNS1_13PerThreadDataERKNS7_20active_cell_iteratorEjRNSA_12FEFaceValuesILi3EEES1G_ = comdat any

$_ZN6dealii19KellyErrorEstimatorILi3ELi3EE29integrate_over_irregular_faceINS_6VectorIdEENS_10DoFHandlerILi3ELi3EEEEEvRKT0_RKNS_2hp11QCollectionILi2EEERKSt6vectorIPKT_SaISI_EERKSF_IbSaIbEEPKNS_8FunctionILi3EEERNS1_13FaceIntegralsIS7_E4typeERNS1_13PerThreadDataERKNS7_20active_cell_iteratorEjRNSA_12FEFaceValuesILi3EEERNSA_15FESubfaceValuesILi3EEE = comdat any

$_ZN6dealii8internal2hp12FEValuesBaseILi3ELi2ENS_15FESubfaceValuesILi3ELi3EEEED2Ev = comdat any

$_ZN6dealii8internal2hp12FEValuesBaseILi3ELi2ENS_12FEFaceValuesILi3ELi3EEEED2Ev = comdat any

$_ZN6dealii2hp12FECollectionILi3ELi3EED2Ev = comdat any

$_ZNSt6vectorIN6dealii5PointILi3EEESaIS2_EEaSERKS4_ = comdat any

$_ZNSt6vectorIN6dealii6VectorIdEESaIS2_EEC2EmRKS2_RKS3_ = comdat any

$_ZN5boost10shared_ptrIN6dealii15FESubfaceValuesILi3ELi3EEEED2Ev = comdat any

$_ZN6dealii9TableBaseILi3EN5boost10shared_ptrINS_15FESubfaceValuesILi3ELi3EEEEEED2Ev = comdat any

$_ZN6dealii9TableBaseILi3EN5boost10shared_ptrINS_15FESubfaceValuesILi3ELi3EEEEEED0Ev = comdat any

$_ZN5boost10shared_ptrIN6dealii12FEFaceValuesILi3ELi3EEEED2Ev = comdat any

$_ZN6dealii9TableBaseILi3EN5boost10shared_ptrINS_12FEFaceValuesILi3ELi3EEEEEED2Ev = comdat any

$_ZN6dealii9TableBaseILi3EN5boost10shared_ptrINS_12FEFaceValuesILi3ELi3EEEEEED0Ev = comdat any

$_ZN6dealii2hp12FECollectionILi3ELi3EED0Ev = comdat any

$_ZN5boost6detail8function15functor_managerIPFvRKN6dealii2hp17MappingCollectionILi3ELi3EEERKNS3_10DoFHandlerILi3ELi3EEERKNS4_11QCollectionILi2EEERKSt3mapIhPKNS3_8FunctionILi3EEESt4lessIhESaISt4pairIKhSL_EEERKSt6vectorIPKNS3_6VectorIdEESaISZ_EERKSO_IPKSV_IbSaIbEESL_ESO_IjjERSH_INS3_12TriaIteratorINS3_11DoFAccessorILi2ESA_EEEESV_IdSaIdEESM_IS1F_ESaISO_IKS1F_S1H_EEERNS3_19KellyErrorEstimatorILi3ELi3EE13PerThreadDataEEE6manageERKNS1_15function_bufferERS1V_NS1_30functor_manager_operation_typeE = comdat any

$_ZN5boost6detail8function22void_function_invoker9IPFvRKN6dealii2hp17MappingCollectionILi3ELi3EEERKNS3_10DoFHandlerILi3ELi3EEERKNS4_11QCollectionILi2EEERKSt3mapIhPKNS3_8FunctionILi3EEESt4lessIhESaISt4pairIKhSL_EEERKSt6vectorIPKNS3_6VectorIdEESaISZ_EERKSO_IPKSV_IbSaIbEESL_ESO_IjjERSH_INS3_12TriaIteratorINS3_11DoFAccessorILi2ESA_EEEESV_IdSaIdEESM_IS1F_ESaISO_IKS1F_S1H_EEERNS3_19KellyErrorEstimatorILi3ELi3EE13PerThreadDataEEvS8_SC_SG_SU_S13_S1A_S1B_S1N_S1R_E6invokeERNS1_15function_bufferES8_SC_SG_SU_S13_S1A_S1B_S1N_S1R_ = comdat any

$_ZN5boost8functionIFvvEEC2INS_3_bi6bind_tINS4_11unspecifiedENS0_IFvRKN6dealii2hp17MappingCollectionILi3ELi3EEERKNS7_10DoFHandlerILi3ELi3EEERKNS8_11QCollectionILi2EEERKSt3mapIhPKNS7_8FunctionILi3EEESt4lessIhESaISt4pairIKhSP_EEERKSt6vectorIPKNS7_6VectorIdEESaIS13_EERKSS_IPKSZ_IbSaIbEESP_ESS_IjjERSL_INS7_12TriaIteratorINS7_11DoFAccessorILi2ESE_EEEESZ_IdSaIdEESQ_IS1J_ESaISS_IKS1J_S1L_EEERNS7_19KellyErrorEstimatorILi3ELi3EE13PerThreadDataEEEENS4_5list9INS_17reference_wrapperISB_EENS1Z_ISF_EENS1Z_ISJ_EENS1Z_ISX_EENS1Z_IS16_EENS1Z_IS1D_EENS4_5valueIS1F_EENS1Z_IS1Q_EENS1Z_IS1U_EEEEEEEET_NS_11enable_if_cIXsr5boost11type_traits7ice_notIXsr11is_integralIS2C_EE5valueEEE5valueEiE4typeE = comdat any

$_ZN6dealii7Threads6ThreadIvEC2ERKN5boost8functionIFvvEEE = comdat any

$_ZN5boost9function0IvE9assign_toINS_3_bi6bind_tINS3_11unspecifiedENS_8functionIFvRKN6dealii2hp17MappingCollectionILi3ELi3EEERKNS7_10DoFHandlerILi3ELi3EEERKNS8_11QCollectionILi2EEERKSt3mapIhPKNS7_8FunctionILi3EEESt4lessIhESaISt4pairIKhSP_EEERKSt6vectorIPKNS7_6VectorIdEESaIS13_EERKSS_IPKSZ_IbSaIbEESP_ESS_IjjERSL_INS7_12TriaIteratorINS7_11DoFAccessorILi2ESE_EEEESZ_IdSaIdEESQ_IS1J_ESaISS_IKS1J_S1L_EEERNS7_19KellyErrorEstimatorILi3ELi3EE13PerThreadDataEEEENS3_5list9INS_17reference_wrapperISB_EENS1Z_ISF_EENS1Z_ISJ_EENS1Z_ISX_EENS1Z_IS16_EENS1Z_IS1D_EENS3_5valueIS1F_EENS1Z_IS1Q_EENS1Z_IS1U_EEEEEEEEvT_ = comdat any

$_ZN5boost6detail8function15functor_managerINS_3_bi6bind_tINS3_11unspecifiedENS_8functionIFvRKN6dealii2hp17MappingCollectionILi3ELi3EEERKNS7_10DoFHandlerILi3ELi3EEERKNS8_11QCollectionILi2EEERKSt3mapIhPKNS7_8FunctionILi3EEESt4lessIhESaISt4pairIKhSP_EEERKSt6vectorIPKNS7_6VectorIdEESaIS13_EERKSS_IPKSZ_IbSaIbEESP_ESS_IjjERSL_INS7_12TriaIteratorINS7_11DoFAccessorILi2ESE_EEEESZ_IdSaIdEESQ_IS1J_ESaISS_IKS1J_S1L_EEERNS7_19KellyErrorEstimatorILi3ELi3EE13PerThreadDataEEEENS3_5list9INS_17reference_wrapperISB_EENS1Z_ISF_EENS1Z_ISJ_EENS1Z_ISX_EENS1Z_IS16_EENS1Z_IS1D_EENS3_5valueIS1F_EENS1Z_IS1Q_EENS1Z_IS1U_EEEEEEE6manageERKNS1_15function_bufferERS2D_NS1_30functor_manager_operation_typeE = comdat any

$_ZN5boost6detail8function26void_function_obj_invoker0INS_3_bi6bind_tINS3_11unspecifiedENS_8functionIFvRKN6dealii2hp17MappingCollectionILi3ELi3EEERKNS7_10DoFHandlerILi3ELi3EEERKNS8_11QCollectionILi2EEERKSt3mapIhPKNS7_8FunctionILi3EEESt4lessIhESaISt4pairIKhSP_EEERKSt6vectorIPKNS7_6VectorIdEESaIS13_EERKSS_IPKSZ_IbSaIbEESP_ESS_IjjERSL_INS7_12TriaIteratorINS7_11DoFAccessorILi2ESE_EEEESZ_IdSaIdEESQ_IS1J_ESaISS_IKS1J_S1L_EEERNS7_19KellyErrorEstimatorILi3ELi3EE13PerThreadDataEEEENS3_5list9INS_17reference_wrapperISB_EENS1Z_ISF_EENS1Z_ISJ_EENS1Z_ISX_EENS1Z_IS16_EENS1Z_IS1D_EENS3_5valueIS1F_EENS1Z_IS1Q_EENS1Z_IS1U_EEEEEEvE6invokeERNS1_15function_bufferE = comdat any

$_ZN5boost6detail8function15functor_managerINS_3_bi6bind_tINS3_11unspecifiedENS_8functionIFvRKN6dealii2hp17MappingCollectionILi3ELi3EEERKNS7_10DoFHandlerILi3ELi3EEERKNS8_11QCollectionILi2EEERKSt3mapIhPKNS7_8FunctionILi3EEESt4lessIhESaISt4pairIKhSP_EEERKSt6vectorIPKNS7_6VectorIdEESaIS13_EERKSS_IPKSZ_IbSaIbEESP_ESS_IjjERSL_INS7_12TriaIteratorINS7_11DoFAccessorILi2ESE_EEEESZ_IdSaIdEESQ_IS1J_ESaISS_IKS1J_S1L_EEERNS7_19KellyErrorEstimatorILi3ELi3EE13PerThreadDataEEEENS3_5list9INS_17reference_wrapperISB_EENS1Z_ISF_EENS1Z_ISJ_EENS1Z_ISX_EENS1Z_IS16_EENS1Z_IS1D_EENS3_5valueIS1F_EENS1Z_IS1Q_EENS1Z_IS1U_EEEEEEE7managerERKNS1_15function_bufferERS2D_NS1_30functor_manager_operation_typeEN4mpl_5bool_ILb0EEE = comdat any

$_ZNK5boost9function9IvRKN6dealii2hp17MappingCollectionILi3ELi3EEERKNS1_10DoFHandlerILi3ELi3EEERKNS2_11QCollectionILi2EEERKSt3mapIhPKNS1_8FunctionILi3EEESt4lessIhESaISt4pairIKhSJ_EEERKSt6vectorIPKNS1_6VectorIdEESaISX_EERKSM_IPKST_IbSaIbEESJ_ESM_IjjERSF_INS1_12TriaIteratorINS1_11DoFAccessorILi2ES8_EEEEST_IdSaIdEESK_IS1D_ESaISM_IKS1D_S1F_EEERNS1_19KellyErrorEstimatorILi3ELi3EE13PerThreadDataEEclES6_SA_SE_SS_S11_S18_S19_S1L_S1P_ = comdat any

$_ZN5boost15throw_exceptionINS_17bad_function_callEEEvRKT_ = comdat any

$_ZN5boost16exception_detail10clone_implINS0_19error_info_injectorINS_17bad_function_callEEEED2Ev = comdat any

$_ZN5boost16exception_detail19error_info_injectorINS_17bad_function_callEED2Ev = comdat any

$_ZN5boost16exception_detail10clone_implINS0_19error_info_injectorINS_17bad_function_callEEEED0Ev = comdat any

$_ZNK5boost16exception_detail10clone_implINS0_19error_info_injectorINS_17bad_function_callEEEE5cloneEv = comdat any

$_ZNK5boost16exception_detail10clone_implINS0_19error_info_injectorINS_17bad_function_callEEEE7rethrowEv = comdat any

$_ZThn16_N5boost16exception_detail10clone_implINS0_19error_info_injectorINS_17bad_function_callEEEED1Ev = comdat any

$_ZThn16_N5boost16exception_detail10clone_implINS0_19error_info_injectorINS_17bad_function_callEEEED0Ev = comdat any

$_ZThn56_NK5boost16exception_detail10clone_implINS0_19error_info_injectorINS_17bad_function_callEEEE5cloneEv = comdat any

$_ZThn56_NK5boost16exception_detail10clone_implINS0_19error_info_injectorINS_17bad_function_callEEEE7rethrowEv = comdat any

$_ZThn56_N5boost16exception_detail10clone_implINS0_19error_info_injectorINS_17bad_function_callEEEED1Ev = comdat any

$_ZThn56_N5boost16exception_detail10clone_implINS0_19error_info_injectorINS_17bad_function_callEEEED0Ev = comdat any

$_ZN5boost16exception_detail19error_info_injectorINS_17bad_function_callEED0Ev = comdat any

$_ZThn16_N5boost16exception_detail19error_info_injectorINS_17bad_function_callEED1Ev = comdat any

$_ZThn16_N5boost16exception_detail19error_info_injectorINS_17bad_function_callEED0Ev = comdat any

$_ZN5boost17bad_function_callD0Ev = comdat any

$_ZN5boost16exception_detail10clone_implINS0_19error_info_injectorINS_17bad_function_callEEEEC2ERKS5_ = comdat any

$_ZN5boost6detail8function13basic_vtable0IvE9assign_toINS_3_bi6bind_tINS5_11unspecifiedENS_8functionIFvRKN6dealii2hp17MappingCollectionILi3ELi3EEERKNS9_10DoFHandlerILi3ELi3EEERKNSA_11QCollectionILi2EEERKSt3mapIhPKNS9_8FunctionILi3EEESt4lessIhESaISt4pairIKhSR_EEERKSt6vectorIPKNS9_6VectorIdEESaIS15_EERKSU_IPKS11_IbSaIbEESR_ESU_IjjERSN_INS9_12TriaIteratorINS9_11DoFAccessorILi2ESG_EEEES11_IdSaIdEESS_IS1L_ESaISU_IKS1L_S1N_EEERNS9_19KellyErrorEstimatorILi3ELi3EE13PerThreadDataEEEENS5_5list9INS_17reference_wrapperISD_EENS21_ISH_EENS21_ISL_EENS21_ISZ_EENS21_IS18_EENS21_IS1F_EENS5_5valueIS1H_EENS21_IS1S_EENS21_IS1W_EEEEEEEEbT_RNS1_15function_bufferENS1_16function_obj_tagE = comdat any

$_ZN5boost6detail15sp_counted_baseD2Ev = comdat any

$_ZN5boost6detail17sp_counted_impl_pIN6dealii7Threads8internal16ThreadDescriptorIvEEED0Ev = comdat any

$_ZN5boost6detail17sp_counted_impl_pIN6dealii7Threads8internal16ThreadDescriptorIvEEE7disposeEv = comdat any

$_ZN5boost6detail17sp_counted_impl_pIN6dealii7Threads8internal16ThreadDescriptorIvEEE11get_deleterERKSt9type_info = comdat any

$_ZNK5boost9function0IvEclEv = comdat any

$_ZNK6dealii7Threads6ThreadIvE4joinEv = comdat any

$_ZN6dealii7Threads6ThreadIvE11ExcNoThreadD0Ev = comdat any

$_ZN6dealii19KellyErrorEstimatorILi3ELi3EE27integrate_over_regular_faceINS_6VectorIfEENS_10DoFHandlerILi3ELi3EEEEEvRKT0_RKNS_2hp11QCollectionILi2EEERKSt3mapIhPKNS_8FunctionILi3EEESt4lessIhESaISt4pairIKhSJ_EEERKSt6vectorIPKT_SaISW_EERKST_IbSaIbEESJ_RNS1_13FaceIntegralsIS7_E4typeERNS1_13PerThreadDataERKNS7_20active_cell_iteratorEjRNSA_12FEFaceValuesILi3EEES1G_ = comdat any

$_ZN6dealii19KellyErrorEstimatorILi3ELi3EE29integrate_over_irregular_faceINS_6VectorIfEENS_10DoFHandlerILi3ELi3EEEEEvRKT0_RKNS_2hp11QCollectionILi2EEERKSt6vectorIPKT_SaISI_EERKSF_IbSaIbEEPKNS_8FunctionILi3EEERNS1_13FaceIntegralsIS7_E4typeERNS1_13PerThreadDataERKNS7_20active_cell_iteratorEjRNSA_12FEFaceValuesILi3EEERNSA_15FESubfaceValuesILi3EEE = comdat any

$_ZN5boost6detail8function15functor_managerIPFvRKN6dealii2hp17MappingCollectionILi3ELi3EEERKNS3_10DoFHandlerILi3ELi3EEERKNS4_11QCollectionILi2EEERKSt3mapIhPKNS3_8FunctionILi3EEESt4lessIhESaISt4pairIKhSL_EEERKSt6vectorIPKNS3_6VectorIfEESaISZ_EERKSO_IPKSV_IbSaIbEESL_ESO_IjjERSH_INS3_12TriaIteratorINS3_11DoFAccessorILi2ESA_EEEESV_IdSaIdEESM_IS1F_ESaISO_IKS1F_S1H_EEERNS3_19KellyErrorEstimatorILi3ELi3EE13PerThreadDataEEE6manageERKNS1_15function_bufferERS1V_NS1_30functor_manager_operation_typeE = comdat any

$_ZN5boost6detail8function22void_function_invoker9IPFvRKN6dealii2hp17MappingCollectionILi3ELi3EEERKNS3_10DoFHandlerILi3ELi3EEERKNS4_11QCollectionILi2EEERKSt3mapIhPKNS3_8FunctionILi3EEESt4lessIhESaISt4pairIKhSL_EEERKSt6vectorIPKNS3_6VectorIfEESaISZ_EERKSO_IPKSV_IbSaIbEESL_ESO_IjjERSH_INS3_12TriaIteratorINS3_11DoFAccessorILi2ESA_EEEESV_IdSaIdEESM_IS1F_ESaISO_IKS1F_S1H_EEERNS3_19KellyErrorEstimatorILi3ELi3EE13PerThreadDataEEvS8_SC_SG_SU_S13_S1A_S1B_S1N_S1R_E6invokeERNS1_15function_bufferES8_SC_SG_SU_S13_S1A_S1B_S1N_S1R_ = comdat any

$_ZN5boost8functionIFvvEEC2INS_3_bi6bind_tINS4_11unspecifiedENS0_IFvRKN6dealii2hp17MappingCollectionILi3ELi3EEERKNS7_10DoFHandlerILi3ELi3EEERKNS8_11QCollectionILi2EEERKSt3mapIhPKNS7_8FunctionILi3EEESt4lessIhESaISt4pairIKhSP_EEERKSt6vectorIPKNS7_6VectorIfEESaIS13_EERKSS_IPKSZ_IbSaIbEESP_ESS_IjjERSL_INS7_12TriaIteratorINS7_11DoFAccessorILi2ESE_EEEESZ_IdSaIdEESQ_IS1J_ESaISS_IKS1J_S1L_EEERNS7_19KellyErrorEstimatorILi3ELi3EE13PerThreadDataEEEENS4_5list9INS_17reference_wrapperISB_EENS1Z_ISF_EENS1Z_ISJ_EENS1Z_ISX_EENS1Z_IS16_EENS1Z_IS1D_EENS4_5valueIS1F_EENS1Z_IS1Q_EENS1Z_IS1U_EEEEEEEET_NS_11enable_if_cIXsr5boost11type_traits7ice_notIXsr11is_integralIS2C_EE5valueEEE5valueEiE4typeE = comdat any

$_ZN5boost9function0IvE9assign_toINS_3_bi6bind_tINS3_11unspecifiedENS_8functionIFvRKN6dealii2hp17MappingCollectionILi3ELi3EEERKNS7_10DoFHandlerILi3ELi3EEERKNS8_11QCollectionILi2EEERKSt3mapIhPKNS7_8FunctionILi3EEESt4lessIhESaISt4pairIKhSP_EEERKSt6vectorIPKNS7_6VectorIfEESaIS13_EERKSS_IPKSZ_IbSaIbEESP_ESS_IjjERSL_INS7_12TriaIteratorINS7_11DoFAccessorILi2ESE_EEEESZ_IdSaIdEESQ_IS1J_ESaISS_IKS1J_S1L_EEERNS7_19KellyErrorEstimatorILi3ELi3EE13PerThreadDataEEEENS3_5list9INS_17reference_wrapperISB_EENS1Z_ISF_EENS1Z_ISJ_EENS1Z_ISX_EENS1Z_IS16_EENS1Z_IS1D_EENS3_5valueIS1F_EENS1Z_IS1Q_EENS1Z_IS1U_EEEEEEEEvT_ = comdat any

$_ZN5boost6detail8function15functor_managerINS_3_bi6bind_tINS3_11unspecifiedENS_8functionIFvRKN6dealii2hp17MappingCollectionILi3ELi3EEERKNS7_10DoFHandlerILi3ELi3EEERKNS8_11QCollectionILi2EEERKSt3mapIhPKNS7_8FunctionILi3EEESt4lessIhESaISt4pairIKhSP_EEERKSt6vectorIPKNS7_6VectorIfEESaIS13_EERKSS_IPKSZ_IbSaIbEESP_ESS_IjjERSL_INS7_12TriaIteratorINS7_11DoFAccessorILi2ESE_EEEESZ_IdSaIdEESQ_IS1J_ESaISS_IKS1J_S1L_EEERNS7_19KellyErrorEstimatorILi3ELi3EE13PerThreadDataEEEENS3_5list9INS_17reference_wrapperISB_EENS1Z_ISF_EENS1Z_ISJ_EENS1Z_ISX_EENS1Z_IS16_EENS1Z_IS1D_EENS3_5valueIS1F_EENS1Z_IS1Q_EENS1Z_IS1U_EEEEEEE6manageERKNS1_15function_bufferERS2D_NS1_30functor_manager_operation_typeE = comdat any

$_ZN5boost6detail8function26void_function_obj_invoker0INS_3_bi6bind_tINS3_11unspecifiedENS_8functionIFvRKN6dealii2hp17MappingCollectionILi3ELi3EEERKNS7_10DoFHandlerILi3ELi3EEERKNS8_11QCollectionILi2EEERKSt3mapIhPKNS7_8FunctionILi3EEESt4lessIhESaISt4pairIKhSP_EEERKSt6vectorIPKNS7_6VectorIfEESaIS13_EERKSS_IPKSZ_IbSaIbEESP_ESS_IjjERSL_INS7_12TriaIteratorINS7_11DoFAccessorILi2ESE_EEEESZ_IdSaIdEESQ_IS1J_ESaISS_IKS1J_S1L_EEERNS7_19KellyErrorEstimatorILi3ELi3EE13PerThreadDataEEEENS3_5list9INS_17reference_wrapperISB_EENS1Z_ISF_EENS1Z_ISJ_EENS1Z_ISX_EENS1Z_IS16_EENS1Z_IS1D_EENS3_5valueIS1F_EENS1Z_IS1Q_EENS1Z_IS1U_EEEEEEvE6invokeERNS1_15function_bufferE = comdat any

$_ZN5boost6detail8function15functor_managerINS_3_bi6bind_tINS3_11unspecifiedENS_8functionIFvRKN6dealii2hp17MappingCollectionILi3ELi3EEERKNS7_10DoFHandlerILi3ELi3EEERKNS8_11QCollectionILi2EEERKSt3mapIhPKNS7_8FunctionILi3EEESt4lessIhESaISt4pairIKhSP_EEERKSt6vectorIPKNS7_6VectorIfEESaIS13_EERKSS_IPKSZ_IbSaIbEESP_ESS_IjjERSL_INS7_12TriaIteratorINS7_11DoFAccessorILi2ESE_EEEESZ_IdSaIdEESQ_IS1J_ESaISS_IKS1J_S1L_EEERNS7_19KellyErrorEstimatorILi3ELi3EE13PerThreadDataEEEENS3_5list9INS_17reference_wrapperISB_EENS1Z_ISF_EENS1Z_ISJ_EENS1Z_ISX_EENS1Z_IS16_EENS1Z_IS1D_EENS3_5valueIS1F_EENS1Z_IS1Q_EENS1Z_IS1U_EEEEEEE7managerERKNS1_15function_bufferERS2D_NS1_30functor_manager_operation_typeEN4mpl_5bool_ILb0EEE = comdat any

$_ZNK5boost9function9IvRKN6dealii2hp17MappingCollectionILi3ELi3EEERKNS1_10DoFHandlerILi3ELi3EEERKNS2_11QCollectionILi2EEERKSt3mapIhPKNS1_8FunctionILi3EEESt4lessIhESaISt4pairIKhSJ_EEERKSt6vectorIPKNS1_6VectorIfEESaISX_EERKSM_IPKST_IbSaIbEESJ_ESM_IjjERSF_INS1_12TriaIteratorINS1_11DoFAccessorILi2ES8_EEEEST_IdSaIdEESK_IS1D_ESaISM_IKS1D_S1F_EEERNS1_19KellyErrorEstimatorILi3ELi3EE13PerThreadDataEEclES6_SA_SE_SS_S11_S18_S19_S1L_S1P_ = comdat any

$_ZN5boost6detail8function13basic_vtable0IvE9assign_toINS_3_bi6bind_tINS5_11unspecifiedENS_8functionIFvRKN6dealii2hp17MappingCollectionILi3ELi3EEERKNS9_10DoFHandlerILi3ELi3EEERKNSA_11QCollectionILi2EEERKSt3mapIhPKNS9_8FunctionILi3EEESt4lessIhESaISt4pairIKhSR_EEERKSt6vectorIPKNS9_6VectorIfEESaIS15_EERKSU_IPKS11_IbSaIbEESR_ESU_IjjERSN_INS9_12TriaIteratorINS9_11DoFAccessorILi2ESG_EEEES11_IdSaIdEESS_IS1L_ESaISU_IKS1L_S1N_EEERNS9_19KellyErrorEstimatorILi3ELi3EE13PerThreadDataEEEENS5_5list9INS_17reference_wrapperISD_EENS21_ISH_EENS21_ISL_EENS21_ISZ_EENS21_IS18_EENS21_IS1F_EENS5_5valueIS1H_EENS21_IS1S_EENS21_IS1W_EEEEEEEEbT_RNS1_15function_bufferENS1_16function_obj_tagE = comdat any

$_ZN6dealii19KellyErrorEstimatorILi3ELi3EE27integrate_over_regular_faceINS_11BlockVectorIdEENS_10DoFHandlerILi3ELi3EEEEEvRKT0_RKNS_2hp11QCollectionILi2EEERKSt3mapIhPKNS_8FunctionILi3EEESt4lessIhESaISt4pairIKhSJ_EEERKSt6vectorIPKT_SaISW_EERKST_IbSaIbEESJ_RNS1_13FaceIntegralsIS7_E4typeERNS1_13PerThreadDataERKNS7_20active_cell_iteratorEjRNSA_12FEFaceValuesILi3EEES1G_ = comdat any

$_ZN6dealii19KellyErrorEstimatorILi3ELi3EE29integrate_over_irregular_faceINS_11BlockVectorIdEENS_10DoFHandlerILi3ELi3EEEEEvRKT0_RKNS_2hp11QCollectionILi2EEERKSt6vectorIPKT_SaISI_EERKSF_IbSaIbEEPKNS_8FunctionILi3EEERNS1_13FaceIntegralsIS7_E4typeERNS1_13PerThreadDataERKNS7_20active_cell_iteratorEjRNSA_12FEFaceValuesILi3EEERNSA_15FESubfaceValuesILi3EEE = comdat any

$_ZN5boost6detail8function15functor_managerIPFvRKN6dealii2hp17MappingCollectionILi3ELi3EEERKNS3_10DoFHandlerILi3ELi3EEERKNS4_11QCollectionILi2EEERKSt3mapIhPKNS3_8FunctionILi3EEESt4lessIhESaISt4pairIKhSL_EEERKSt6vectorIPKNS3_11BlockVectorIdEESaISZ_EERKSO_IPKSV_IbSaIbEESL_ESO_IjjERSH_INS3_12TriaIteratorINS3_11DoFAccessorILi2ESA_EEEESV_IdSaIdEESM_IS1F_ESaISO_IKS1F_S1H_EEERNS3_19KellyErrorEstimatorILi3ELi3EE13PerThreadDataEEE6manageERKNS1_15function_bufferERS1V_NS1_30functor_manager_operation_typeE = comdat any

$_ZN5boost6detail8function22void_function_invoker9IPFvRKN6dealii2hp17MappingCollectionILi3ELi3EEERKNS3_10DoFHandlerILi3ELi3EEERKNS4_11QCollectionILi2EEERKSt3mapIhPKNS3_8FunctionILi3EEESt4lessIhESaISt4pairIKhSL_EEERKSt6vectorIPKNS3_11BlockVectorIdEESaISZ_EERKSO_IPKSV_IbSaIbEESL_ESO_IjjERSH_INS3_12TriaIteratorINS3_11DoFAccessorILi2ESA_EEEESV_IdSaIdEESM_IS1F_ESaISO_IKS1F_S1H_EEERNS3_19KellyErrorEstimatorILi3ELi3EE13PerThreadDataEEvS8_SC_SG_SU_S13_S1A_S1B_S1N_S1R_E6invokeERNS1_15function_bufferES8_SC_SG_SU_S13_S1A_S1B_S1N_S1R_ = comdat any

$_ZN5boost8functionIFvvEEC2INS_3_bi6bind_tINS4_11unspecifiedENS0_IFvRKN6dealii2hp17MappingCollectionILi3ELi3EEERKNS7_10DoFHandlerILi3ELi3EEERKNS8_11QCollectionILi2EEERKSt3mapIhPKNS7_8FunctionILi3EEESt4lessIhESaISt4pairIKhSP_EEERKSt6vectorIPKNS7_11BlockVectorIdEESaIS13_EERKSS_IPKSZ_IbSaIbEESP_ESS_IjjERSL_INS7_12TriaIteratorINS7_11DoFAccessorILi2ESE_EEEESZ_IdSaIdEESQ_IS1J_ESaISS_IKS1J_S1L_EEERNS7_19KellyErrorEstimatorILi3ELi3EE13PerThreadDataEEEENS4_5list9INS_17reference_wrapperISB_EENS1Z_ISF_EENS1Z_ISJ_EENS1Z_ISX_EENS1Z_IS16_EENS1Z_IS1D_EENS4_5valueIS1F_EENS1Z_IS1Q_EENS1Z_IS1U_EEEEEEEET_NS_11enable_if_cIXsr5boost11type_traits7ice_notIXsr11is_integralIS2C_EE5valueEEE5valueEiE4typeE = comdat any

$_ZN5boost9function0IvE9assign_toINS_3_bi6bind_tINS3_11unspecifiedENS_8functionIFvRKN6dealii2hp17MappingCollectionILi3ELi3EEERKNS7_10DoFHandlerILi3ELi3EEERKNS8_11QCollectionILi2EEERKSt3mapIhPKNS7_8FunctionILi3EEESt4lessIhESaISt4pairIKhSP_EEERKSt6vectorIPKNS7_11BlockVectorIdEESaIS13_EERKSS_IPKSZ_IbSaIbEESP_ESS_IjjERSL_INS7_12TriaIteratorINS7_11DoFAccessorILi2ESE_EEEESZ_IdSaIdEESQ_IS1J_ESaISS_IKS1J_S1L_EEERNS7_19KellyErrorEstimatorILi3ELi3EE13PerThreadDataEEEENS3_5list9INS_17reference_wrapperISB_EENS1Z_ISF_EENS1Z_ISJ_EENS1Z_ISX_EENS1Z_IS16_EENS1Z_IS1D_EENS3_5valueIS1F_EENS1Z_IS1Q_EENS1Z_IS1U_EEEEEEEEvT_ = comdat any

$_ZN5boost6detail8function15functor_managerINS_3_bi6bind_tINS3_11unspecifiedENS_8functionIFvRKN6dealii2hp17MappingCollectionILi3ELi3EEERKNS7_10DoFHandlerILi3ELi3EEERKNS8_11QCollectionILi2EEERKSt3mapIhPKNS7_8FunctionILi3EEESt4lessIhESaISt4pairIKhSP_EEERKSt6vectorIPKNS7_11BlockVectorIdEESaIS13_EERKSS_IPKSZ_IbSaIbEESP_ESS_IjjERSL_INS7_12TriaIteratorINS7_11DoFAccessorILi2ESE_EEEESZ_IdSaIdEESQ_IS1J_ESaISS_IKS1J_S1L_EEERNS7_19KellyErrorEstimatorILi3ELi3EE13PerThreadDataEEEENS3_5list9INS_17reference_wrapperISB_EENS1Z_ISF_EENS1Z_ISJ_EENS1Z_ISX_EENS1Z_IS16_EENS1Z_IS1D_EENS3_5valueIS1F_EENS1Z_IS1Q_EENS1Z_IS1U_EEEEEEE6manageERKNS1_15function_bufferERS2D_NS1_30functor_manager_operation_typeE = comdat any

$_ZN5boost6detail8function26void_function_obj_invoker0INS_3_bi6bind_tINS3_11unspecifiedENS_8functionIFvRKN6dealii2hp17MappingCollectionILi3ELi3EEERKNS7_10DoFHandlerILi3ELi3EEERKNS8_11QCollectionILi2EEERKSt3mapIhPKNS7_8FunctionILi3EEESt4lessIhESaISt4pairIKhSP_EEERKSt6vectorIPKNS7_11BlockVectorIdEESaIS13_EERKSS_IPKSZ_IbSaIbEESP_ESS_IjjERSL_INS7_12TriaIteratorINS7_11DoFAccessorILi2ESE_EEEESZ_IdSaIdEESQ_IS1J_ESaISS_IKS1J_S1L_EEERNS7_19KellyErrorEstimatorILi3ELi3EE13PerThreadDataEEEENS3_5list9INS_17reference_wrapperISB_EENS1Z_ISF_EENS1Z_ISJ_EENS1Z_ISX_EENS1Z_IS16_EENS1Z_IS1D_EENS3_5valueIS1F_EENS1Z_IS1Q_EENS1Z_IS1U_EEEEEEvE6invokeERNS1_15function_bufferE = comdat any

$_ZN5boost6detail8function15functor_managerINS_3_bi6bind_tINS3_11unspecifiedENS_8functionIFvRKN6dealii2hp17MappingCollectionILi3ELi3EEERKNS7_10DoFHandlerILi3ELi3EEERKNS8_11QCollectionILi2EEERKSt3mapIhPKNS7_8FunctionILi3EEESt4lessIhESaISt4pairIKhSP_EEERKSt6vectorIPKNS7_11BlockVectorIdEESaIS13_EERKSS_IPKSZ_IbSaIbEESP_ESS_IjjERSL_INS7_12TriaIteratorINS7_11DoFAccessorILi2ESE_EEEESZ_IdSaIdEESQ_IS1J_ESaISS_IKS1J_S1L_EEERNS7_19KellyErrorEstimatorILi3ELi3EE13PerThreadDataEEEENS3_5list9INS_17reference_wrapperISB_EENS1Z_ISF_EENS1Z_ISJ_EENS1Z_ISX_EENS1Z_IS16_EENS1Z_IS1D_EENS3_5valueIS1F_EENS1Z_IS1Q_EENS1Z_IS1U_EEEEEEE7managerERKNS1_15function_bufferERS2D_NS1_30functor_manager_operation_typeEN4mpl_5bool_ILb0EEE = comdat any

$_ZNK5boost9function9IvRKN6dealii2hp17MappingCollectionILi3ELi3EEERKNS1_10DoFHandlerILi3ELi3EEERKNS2_11QCollectionILi2EEERKSt3mapIhPKNS1_8FunctionILi3EEESt4lessIhESaISt4pairIKhSJ_EEERKSt6vectorIPKNS1_11BlockVectorIdEESaISX_EERKSM_IPKST_IbSaIbEESJ_ESM_IjjERSF_INS1_12TriaIteratorINS1_11DoFAccessorILi2ES8_EEEEST_IdSaIdEESK_IS1D_ESaISM_IKS1D_S1F_EEERNS1_19KellyErrorEstimatorILi3ELi3EE13PerThreadDataEEclES6_SA_SE_SS_S11_S18_S19_S1L_S1P_ = comdat any

$_ZN5boost6detail8function13basic_vtable0IvE9assign_toINS_3_bi6bind_tINS5_11unspecifiedENS_8functionIFvRKN6dealii2hp17MappingCollectionILi3ELi3EEERKNS9_10DoFHandlerILi3ELi3EEERKNSA_11QCollectionILi2EEERKSt3mapIhPKNS9_8FunctionILi3EEESt4lessIhESaISt4pairIKhSR_EEERKSt6vectorIPKNS9_11BlockVectorIdEESaIS15_EERKSU_IPKS11_IbSaIbEESR_ESU_IjjERSN_INS9_12TriaIteratorINS9_11DoFAccessorILi2ESG_EEEES11_IdSaIdEESS_IS1L_ESaISU_IKS1L_S1N_EEERNS9_19KellyErrorEstimatorILi3ELi3EE13PerThreadDataEEEENS5_5list9INS_17reference_wrapperISD_EENS21_ISH_EENS21_ISL_EENS21_ISZ_EENS21_IS18_EENS21_IS1F_EENS5_5valueIS1H_EENS21_IS1S_EENS21_IS1W_EEEEEEEEbT_RNS1_15function_bufferENS1_16function_obj_tagE = comdat any

$_ZN6dealii19KellyErrorEstimatorILi3ELi3EE27integrate_over_regular_faceINS_11BlockVectorIfEENS_10DoFHandlerILi3ELi3EEEEEvRKT0_RKNS_2hp11QCollectionILi2EEERKSt3mapIhPKNS_8FunctionILi3EEESt4lessIhESaISt4pairIKhSJ_EEERKSt6vectorIPKT_SaISW_EERKST_IbSaIbEESJ_RNS1_13FaceIntegralsIS7_E4typeERNS1_13PerThreadDataERKNS7_20active_cell_iteratorEjRNSA_12FEFaceValuesILi3EEES1G_ = comdat any

$_ZN6dealii19KellyErrorEstimatorILi3ELi3EE29integrate_over_irregular_faceINS_11BlockVectorIfEENS_10DoFHandlerILi3ELi3EEEEEvRKT0_RKNS_2hp11QCollectionILi2EEERKSt6vectorIPKT_SaISI_EERKSF_IbSaIbEEPKNS_8FunctionILi3EEERNS1_13FaceIntegralsIS7_E4typeERNS1_13PerThreadDataERKNS7_20active_cell_iteratorEjRNSA_12FEFaceValuesILi3EEERNSA_15FESubfaceValuesILi3EEE = comdat any

$_ZN5boost6detail8function15functor_managerIPFvRKN6dealii2hp17MappingCollectionILi3ELi3EEERKNS3_10DoFHandlerILi3ELi3EEERKNS4_11QCollectionILi2EEERKSt3mapIhPKNS3_8FunctionILi3EEESt4lessIhESaISt4pairIKhSL_EEERKSt6vectorIPKNS3_11BlockVectorIfEESaISZ_EERKSO_IPKSV_IbSaIbEESL_ESO_IjjERSH_INS3_12TriaIteratorINS3_11DoFAccessorILi2ESA_EEEESV_IdSaIdEESM_IS1F_ESaISO_IKS1F_S1H_EEERNS3_19KellyErrorEstimatorILi3ELi3EE13PerThreadDataEEE6manageERKNS1_15function_bufferERS1V_NS1_30functor_manager_operation_typeE = comdat any

$_ZN5boost6detail8function22void_function_invoker9IPFvRKN6dealii2hp17MappingCollectionILi3ELi3EEERKNS3_10DoFHandlerILi3ELi3EEERKNS4_11QCollectionILi2EEERKSt3mapIhPKNS3_8FunctionILi3EEESt4lessIhESaISt4pairIKhSL_EEERKSt6vectorIPKNS3_11BlockVectorIfEESaISZ_EERKSO_IPKSV_IbSaIbEESL_ESO_IjjERSH_INS3_12TriaIteratorINS3_11DoFAccessorILi2ESA_EEEESV_IdSaIdEESM_IS1F_ESaISO_IKS1F_S1H_EEERNS3_19KellyErrorEstimatorILi3ELi3EE13PerThreadDataEEvS8_SC_SG_SU_S13_S1A_S1B_S1N_S1R_E6invokeERNS1_15function_bufferES8_SC_SG_SU_S13_S1A_S1B_S1N_S1R_ = comdat any

$_ZN5boost8functionIFvvEEC2INS_3_bi6bind_tINS4_11unspecifiedENS0_IFvRKN6dealii2hp17MappingCollectionILi3ELi3EEERKNS7_10DoFHandlerILi3ELi3EEERKNS8_11QCollectionILi2EEERKSt3mapIhPKNS7_8FunctionILi3EEESt4lessIhESaISt4pairIKhSP_EEERKSt6vectorIPKNS7_11BlockVectorIfEESaIS13_EERKSS_IPKSZ_IbSaIbEESP_ESS_IjjERSL_INS7_12TriaIteratorINS7_11DoFAccessorILi2ESE_EEEESZ_IdSaIdEESQ_IS1J_ESaISS_IKS1J_S1L_EEERNS7_19KellyErrorEstimatorILi3ELi3EE13PerThreadDataEEEENS4_5list9INS_17reference_wrapperISB_EENS1Z_ISF_EENS1Z_ISJ_EENS1Z_ISX_EENS1Z_IS16_EENS1Z_IS1D_EENS4_5valueIS1F_EENS1Z_IS1Q_EENS1Z_IS1U_EEEEEEEET_NS_11enable_if_cIXsr5boost11type_traits7ice_notIXsr11is_integralIS2C_EE5valueEEE5valueEiE4typeE = comdat any

$_ZN5boost9function0IvE9assign_toINS_3_bi6bind_tINS3_11unspecifiedENS_8functionIFvRKN6dealii2hp17MappingCollectionILi3ELi3EEERKNS7_10DoFHandlerILi3ELi3EEERKNS8_11QCollectionILi2EEERKSt3mapIhPKNS7_8FunctionILi3EEESt4lessIhESaISt4pairIKhSP_EEERKSt6vectorIPKNS7_11BlockVectorIfEESaIS13_EERKSS_IPKSZ_IbSaIbEESP_ESS_IjjERSL_INS7_12TriaIteratorINS7_11DoFAccessorILi2ESE_EEEESZ_IdSaIdEESQ_IS1J_ESaISS_IKS1J_S1L_EEERNS7_19KellyErrorEstimatorILi3ELi3EE13PerThreadDataEEEENS3_5list9INS_17reference_wrapperISB_EENS1Z_ISF_EENS1Z_ISJ_EENS1Z_ISX_EENS1Z_IS16_EENS1Z_IS1D_EENS3_5valueIS1F_EENS1Z_IS1Q_EENS1Z_IS1U_EEEEEEEEvT_ = comdat any

$_ZN5boost6detail8function15functor_managerINS_3_bi6bind_tINS3_11unspecifiedENS_8functionIFvRKN6dealii2hp17MappingCollectionILi3ELi3EEERKNS7_10DoFHandlerILi3ELi3EEERKNS8_11QCollectionILi2EEERKSt3mapIhPKNS7_8FunctionILi3EEESt4lessIhESaISt4pairIKhSP_EEERKSt6vectorIPKNS7_11BlockVectorIfEESaIS13_EERKSS_IPKSZ_IbSaIbEESP_ESS_IjjERSL_INS7_12TriaIteratorINS7_11DoFAccessorILi2ESE_EEEESZ_IdSaIdEESQ_IS1J_ESaISS_IKS1J_S1L_EEERNS7_19KellyErrorEstimatorILi3ELi3EE13PerThreadDataEEEENS3_5list9INS_17reference_wrapperISB_EENS1Z_ISF_EENS1Z_ISJ_EENS1Z_ISX_EENS1Z_IS16_EENS1Z_IS1D_EENS3_5valueIS1F_EENS1Z_IS1Q_EENS1Z_IS1U_EEEEEEE6manageERKNS1_15function_bufferERS2D_NS1_30functor_manager_operation_typeE = comdat any

$_ZN5boost6detail8function26void_function_obj_invoker0INS_3_bi6bind_tINS3_11unspecifiedENS_8functionIFvRKN6dealii2hp17MappingCollectionILi3ELi3EEERKNS7_10DoFHandlerILi3ELi3EEERKNS8_11QCollectionILi2EEERKSt3mapIhPKNS7_8FunctionILi3EEESt4lessIhESaISt4pairIKhSP_EEERKSt6vectorIPKNS7_11BlockVectorIfEESaIS13_EERKSS_IPKSZ_IbSaIbEESP_ESS_IjjERSL_INS7_12TriaIteratorINS7_11DoFAccessorILi2ESE_EEEESZ_IdSaIdEESQ_IS1J_ESaISS_IKS1J_S1L_EEERNS7_19KellyErrorEstimatorILi3ELi3EE13PerThreadDataEEEENS3_5list9INS_17reference_wrapperISB_EENS1Z_ISF_EENS1Z_ISJ_EENS1Z_ISX_EENS1Z_IS16_EENS1Z_IS1D_EENS3_5valueIS1F_EENS1Z_IS1Q_EENS1Z_IS1U_EEEEEEvE6invokeERNS1_15function_bufferE = comdat any

$_ZN5boost6detail8function15functor_managerINS_3_bi6bind_tINS3_11unspecifiedENS_8functionIFvRKN6dealii2hp17MappingCollectionILi3ELi3EEERKNS7_10DoFHandlerILi3ELi3EEERKNS8_11QCollectionILi2EEERKSt3mapIhPKNS7_8FunctionILi3EEESt4lessIhESaISt4pairIKhSP_EEERKSt6vectorIPKNS7_11BlockVectorIfEESaIS13_EERKSS_IPKSZ_IbSaIbEESP_ESS_IjjERSL_INS7_12TriaIteratorINS7_11DoFAccessorILi2ESE_EEEESZ_IdSaIdEESQ_IS1J_ESaISS_IKS1J_S1L_EEERNS7_19KellyErrorEstimatorILi3ELi3EE13PerThreadDataEEEENS3_5list9INS_17reference_wrapperISB_EENS1Z_ISF_EENS1Z_ISJ_EENS1Z_ISX_EENS1Z_IS16_EENS1Z_IS1D_EENS3_5valueIS1F_EENS1Z_IS1Q_EENS1Z_IS1U_EEEEEEE7managerERKNS1_15function_bufferERS2D_NS1_30functor_manager_operation_typeEN4mpl_5bool_ILb0EEE = comdat any

$_ZNK5boost9function9IvRKN6dealii2hp17MappingCollectionILi3ELi3EEERKNS1_10DoFHandlerILi3ELi3EEERKNS2_11QCollectionILi2EEERKSt3mapIhPKNS1_8FunctionILi3EEESt4lessIhESaISt4pairIKhSJ_EEERKSt6vectorIPKNS1_11BlockVectorIfEESaISX_EERKSM_IPKST_IbSaIbEESJ_ESM_IjjERSF_INS1_12TriaIteratorINS1_11DoFAccessorILi2ES8_EEEEST_IdSaIdEESK_IS1D_ESaISM_IKS1D_S1F_EEERNS1_19KellyErrorEstimatorILi3ELi3EE13PerThreadDataEEclES6_SA_SE_SS_S11_S18_S19_S1L_S1P_ = comdat any

$_ZN5boost6detail8function13basic_vtable0IvE9assign_toINS_3_bi6bind_tINS5_11unspecifiedENS_8functionIFvRKN6dealii2hp17MappingCollectionILi3ELi3EEERKNS9_10DoFHandlerILi3ELi3EEERKNSA_11QCollectionILi2EEERKSt3mapIhPKNS9_8FunctionILi3EEESt4lessIhESaISt4pairIKhSR_EEERKSt6vectorIPKNS9_11BlockVectorIfEESaIS15_EERKSU_IPKS11_IbSaIbEESR_ESU_IjjERSN_INS9_12TriaIteratorINS9_11DoFAccessorILi2ESG_EEEES11_IdSaIdEESS_IS1L_ESaISU_IKS1L_S1N_EEERNS9_19KellyErrorEstimatorILi3ELi3EE13PerThreadDataEEEENS5_5list9INS_17reference_wrapperISD_EENS21_ISH_EENS21_ISL_EENS21_ISZ_EENS21_IS18_EENS21_IS1F_EENS5_5valueIS1H_EENS21_IS1S_EENS21_IS1W_EEEEEEEEbT_RNS1_15function_bufferENS1_16function_obj_tagE = comdat any

$_ZNSt8_Rb_treeIN6dealii12TriaIteratorINS0_11DoFAccessorILi2ENS0_2hp10DoFHandlerILi3ELi3EEEEEEESt4pairIKS7_St6vectorIdSaIdEEESt10_Select1stISD_ESt4lessIS7_ESaISD_EE29_M_get_insert_hint_unique_posESt23_Rb_tree_const_iteratorISD_ERS9_ = comdat any

$_ZNSt8_Rb_treeIN6dealii12TriaIteratorINS0_11DoFAccessorILi2ENS0_2hp10DoFHandlerILi3ELi3EEEEEEESt4pairIKS7_St6vectorIdSaIdEEESt10_Select1stISD_ESt4lessIS7_ESaISD_EE17_M_construct_nodeEPSt13_Rb_tree_nodeISD_ERKSD_ = comdat any

$_ZN6dealii19KellyErrorEstimatorILi3ELi3EE27integrate_over_regular_faceINS_6VectorIdEENS_2hp10DoFHandlerILi3ELi3EEEEEvRKT0_RKNS5_11QCollectionILi2EEERKSt3mapIhPKNS_8FunctionILi3EEESt4lessIhESaISt4pairIKhSJ_EEERKSt6vectorIPKT_SaISW_EERKST_IbSaIbEESJ_RNS1_13FaceIntegralsIS8_E4typeERNS1_13PerThreadDataERKNS8_20active_cell_iteratorEjRNS5_12FEFaceValuesILi3EEES1G_ = comdat any

$_ZN6dealii19KellyErrorEstimatorILi3ELi3EE29integrate_over_irregular_faceINS_6VectorIdEENS_2hp10DoFHandlerILi3ELi3EEEEEvRKT0_RKNS5_11QCollectionILi2EEERKSt6vectorIPKT_SaISI_EERKSF_IbSaIbEEPKNS_8FunctionILi3EEERNS1_13FaceIntegralsIS8_E4typeERNS1_13PerThreadDataERKNS8_20active_cell_iteratorEjRNS5_12FEFaceValuesILi3EEERNS5_15FESubfaceValuesILi3EEE = comdat any

$_ZN5boost6detail8function15functor_managerIPFvRKN6dealii2hp17MappingCollectionILi3ELi3EEERKNS4_10DoFHandlerILi3ELi3EEERKNS4_11QCollectionILi2EEERKSt3mapIhPKNS3_8FunctionILi3EEESt4lessIhESaISt4pairIKhSL_EEERKSt6vectorIPKNS3_6VectorIdEESaISZ_EERKSO_IPKSV_IbSaIbEESL_ESO_IjjERSH_INS3_12TriaIteratorINS3_11DoFAccessorILi2ESA_EEEESV_IdSaIdEESM_IS1F_ESaISO_IKS1F_S1H_EEERNS3_19KellyErrorEstimatorILi3ELi3EE13PerThreadDataEEE6manageERKNS1_15function_bufferERS1V_NS1_30functor_manager_operation_typeE = comdat any

$_ZN5boost6detail8function22void_function_invoker9IPFvRKN6dealii2hp17MappingCollectionILi3ELi3EEERKNS4_10DoFHandlerILi3ELi3EEERKNS4_11QCollectionILi2EEERKSt3mapIhPKNS3_8FunctionILi3EEESt4lessIhESaISt4pairIKhSL_EEERKSt6vectorIPKNS3_6VectorIdEESaISZ_EERKSO_IPKSV_IbSaIbEESL_ESO_IjjERSH_INS3_12TriaIteratorINS3_11DoFAccessorILi2ESA_EEEESV_IdSaIdEESM_IS1F_ESaISO_IKS1F_S1H_EEERNS3_19KellyErrorEstimatorILi3ELi3EE13PerThreadDataEEvS8_SC_SG_SU_S13_S1A_S1B_S1N_S1R_E6invokeERNS1_15function_bufferES8_SC_SG_SU_S13_S1A_S1B_S1N_S1R_ = comdat any

$_ZN5boost8functionIFvvEEC2INS_3_bi6bind_tINS4_11unspecifiedENS0_IFvRKN6dealii2hp17MappingCollectionILi3ELi3EEERKNS8_10DoFHandlerILi3ELi3EEERKNS8_11QCollectionILi2EEERKSt3mapIhPKNS7_8FunctionILi3EEESt4lessIhESaISt4pairIKhSP_EEERKSt6vectorIPKNS7_6VectorIdEESaIS13_EERKSS_IPKSZ_IbSaIbEESP_ESS_IjjERSL_INS7_12TriaIteratorINS7_11DoFAccessorILi2ESE_EEEESZ_IdSaIdEESQ_IS1J_ESaISS_IKS1J_S1L_EEERNS7_19KellyErrorEstimatorILi3ELi3EE13PerThreadDataEEEENS4_5list9INS_17reference_wrapperISB_EENS1Z_ISF_EENS1Z_ISJ_EENS1Z_ISX_EENS1Z_IS16_EENS1Z_IS1D_EENS4_5valueIS1F_EENS1Z_IS1Q_EENS1Z_IS1U_EEEEEEEET_NS_11enable_if_cIXsr5boost11type_traits7ice_notIXsr11is_integralIS2C_EE5valueEEE5valueEiE4typeE = comdat any

$_ZN5boost9function0IvE9assign_toINS_3_bi6bind_tINS3_11unspecifiedENS_8functionIFvRKN6dealii2hp17MappingCollectionILi3ELi3EEERKNS8_10DoFHandlerILi3ELi3EEERKNS8_11QCollectionILi2EEERKSt3mapIhPKNS7_8FunctionILi3EEESt4lessIhESaISt4pairIKhSP_EEERKSt6vectorIPKNS7_6VectorIdEESaIS13_EERKSS_IPKSZ_IbSaIbEESP_ESS_IjjERSL_INS7_12TriaIteratorINS7_11DoFAccessorILi2ESE_EEEESZ_IdSaIdEESQ_IS1J_ESaISS_IKS1J_S1L_EEERNS7_19KellyErrorEstimatorILi3ELi3EE13PerThreadDataEEEENS3_5list9INS_17reference_wrapperISB_EENS1Z_ISF_EENS1Z_ISJ_EENS1Z_ISX_EENS1Z_IS16_EENS1Z_IS1D_EENS3_5valueIS1F_EENS1Z_IS1Q_EENS1Z_IS1U_EEEEEEEEvT_ = comdat any

$_ZN5boost6detail8function15functor_managerINS_3_bi6bind_tINS3_11unspecifiedENS_8functionIFvRKN6dealii2hp17MappingCollectionILi3ELi3EEERKNS8_10DoFHandlerILi3ELi3EEERKNS8_11QCollectionILi2EEERKSt3mapIhPKNS7_8FunctionILi3EEESt4lessIhESaISt4pairIKhSP_EEERKSt6vectorIPKNS7_6VectorIdEESaIS13_EERKSS_IPKSZ_IbSaIbEESP_ESS_IjjERSL_INS7_12TriaIteratorINS7_11DoFAccessorILi2ESE_EEEESZ_IdSaIdEESQ_IS1J_ESaISS_IKS1J_S1L_EEERNS7_19KellyErrorEstimatorILi3ELi3EE13PerThreadDataEEEENS3_5list9INS_17reference_wrapperISB_EENS1Z_ISF_EENS1Z_ISJ_EENS1Z_ISX_EENS1Z_IS16_EENS1Z_IS1D_EENS3_5valueIS1F_EENS1Z_IS1Q_EENS1Z_IS1U_EEEEEEE6manageERKNS1_15function_bufferERS2D_NS1_30functor_manager_operation_typeE = comdat any

$_ZN5boost6detail8function26void_function_obj_invoker0INS_3_bi6bind_tINS3_11unspecifiedENS_8functionIFvRKN6dealii2hp17MappingCollectionILi3ELi3EEERKNS8_10DoFHandlerILi3ELi3EEERKNS8_11QCollectionILi2EEERKSt3mapIhPKNS7_8FunctionILi3EEESt4lessIhESaISt4pairIKhSP_EEERKSt6vectorIPKNS7_6VectorIdEESaIS13_EERKSS_IPKSZ_IbSaIbEESP_ESS_IjjERSL_INS7_12TriaIteratorINS7_11DoFAccessorILi2ESE_EEEESZ_IdSaIdEESQ_IS1J_ESaISS_IKS1J_S1L_EEERNS7_19KellyErrorEstimatorILi3ELi3EE13PerThreadDataEEEENS3_5list9INS_17reference_wrapperISB_EENS1Z_ISF_EENS1Z_ISJ_EENS1Z_ISX_EENS1Z_IS16_EENS1Z_IS1D_EENS3_5valueIS1F_EENS1Z_IS1Q_EENS1Z_IS1U_EEEEEEvE6invokeERNS1_15function_bufferE = comdat any

$_ZN5boost6detail8function15functor_managerINS_3_bi6bind_tINS3_11unspecifiedENS_8functionIFvRKN6dealii2hp17MappingCollectionILi3ELi3EEERKNS8_10DoFHandlerILi3ELi3EEERKNS8_11QCollectionILi2EEERKSt3mapIhPKNS7_8FunctionILi3EEESt4lessIhESaISt4pairIKhSP_EEERKSt6vectorIPKNS7_6VectorIdEESaIS13_EERKSS_IPKSZ_IbSaIbEESP_ESS_IjjERSL_INS7_12TriaIteratorINS7_11DoFAccessorILi2ESE_EEEESZ_IdSaIdEESQ_IS1J_ESaISS_IKS1J_S1L_EEERNS7_19KellyErrorEstimatorILi3ELi3EE13PerThreadDataEEEENS3_5list9INS_17reference_wrapperISB_EENS1Z_ISF_EENS1Z_ISJ_EENS1Z_ISX_EENS1Z_IS16_EENS1Z_IS1D_EENS3_5valueIS1F_EENS1Z_IS1Q_EENS1Z_IS1U_EEEEEEE7managerERKNS1_15function_bufferERS2D_NS1_30functor_manager_operation_typeEN4mpl_5bool_ILb0EEE = comdat any

$_ZNK5boost9function9IvRKN6dealii2hp17MappingCollectionILi3ELi3EEERKNS2_10DoFHandlerILi3ELi3EEERKNS2_11QCollectionILi2EEERKSt3mapIhPKNS1_8FunctionILi3EEESt4lessIhESaISt4pairIKhSJ_EEERKSt6vectorIPKNS1_6VectorIdEESaISX_EERKSM_IPKST_IbSaIbEESJ_ESM_IjjERSF_INS1_12TriaIteratorINS1_11DoFAccessorILi2ES8_EEEEST_IdSaIdEESK_IS1D_ESaISM_IKS1D_S1F_EEERNS1_19KellyErrorEstimatorILi3ELi3EE13PerThreadDataEEclES6_SA_SE_SS_S11_S18_S19_S1L_S1P_ = comdat any

$_ZN5boost6detail8function13basic_vtable0IvE9assign_toINS_3_bi6bind_tINS5_11unspecifiedENS_8functionIFvRKN6dealii2hp17MappingCollectionILi3ELi3EEERKNSA_10DoFHandlerILi3ELi3EEERKNSA_11QCollectionILi2EEERKSt3mapIhPKNS9_8FunctionILi3EEESt4lessIhESaISt4pairIKhSR_EEERKSt6vectorIPKNS9_6VectorIdEESaIS15_EERKSU_IPKS11_IbSaIbEESR_ESU_IjjERSN_INS9_12TriaIteratorINS9_11DoFAccessorILi2ESG_EEEES11_IdSaIdEESS_IS1L_ESaISU_IKS1L_S1N_EEERNS9_19KellyErrorEstimatorILi3ELi3EE13PerThreadDataEEEENS5_5list9INS_17reference_wrapperISD_EENS21_ISH_EENS21_ISL_EENS21_ISZ_EENS21_IS18_EENS21_IS1F_EENS5_5valueIS1H_EENS21_IS1S_EENS21_IS1W_EEEEEEEEbT_RNS1_15function_bufferENS1_16function_obj_tagE = comdat any

$_ZN6dealii19KellyErrorEstimatorILi3ELi3EE27integrate_over_regular_faceINS_6VectorIfEENS_2hp10DoFHandlerILi3ELi3EEEEEvRKT0_RKNS5_11QCollectionILi2EEERKSt3mapIhPKNS_8FunctionILi3EEESt4lessIhESaISt4pairIKhSJ_EEERKSt6vectorIPKT_SaISW_EERKST_IbSaIbEESJ_RNS1_13FaceIntegralsIS8_E4typeERNS1_13PerThreadDataERKNS8_20active_cell_iteratorEjRNS5_12FEFaceValuesILi3EEES1G_ = comdat any

$_ZN6dealii19KellyErrorEstimatorILi3ELi3EE29integrate_over_irregular_faceINS_6VectorIfEENS_2hp10DoFHandlerILi3ELi3EEEEEvRKT0_RKNS5_11QCollectionILi2EEERKSt6vectorIPKT_SaISI_EERKSF_IbSaIbEEPKNS_8FunctionILi3EEERNS1_13FaceIntegralsIS8_E4typeERNS1_13PerThreadDataERKNS8_20active_cell_iteratorEjRNS5_12FEFaceValuesILi3EEERNS5_15FESubfaceValuesILi3EEE = comdat any

$_ZN5boost6detail8function15functor_managerIPFvRKN6dealii2hp17MappingCollectionILi3ELi3EEERKNS4_10DoFHandlerILi3ELi3EEERKNS4_11QCollectionILi2EEERKSt3mapIhPKNS3_8FunctionILi3EEESt4lessIhESaISt4pairIKhSL_EEERKSt6vectorIPKNS3_6VectorIfEESaISZ_EERKSO_IPKSV_IbSaIbEESL_ESO_IjjERSH_INS3_12TriaIteratorINS3_11DoFAccessorILi2ESA_EEEESV_IdSaIdEESM_IS1F_ESaISO_IKS1F_S1H_EEERNS3_19KellyErrorEstimatorILi3ELi3EE13PerThreadDataEEE6manageERKNS1_15function_bufferERS1V_NS1_30functor_manager_operation_typeE = comdat any

$_ZN5boost6detail8function22void_function_invoker9IPFvRKN6dealii2hp17MappingCollectionILi3ELi3EEERKNS4_10DoFHandlerILi3ELi3EEERKNS4_11QCollectionILi2EEERKSt3mapIhPKNS3_8FunctionILi3EEESt4lessIhESaISt4pairIKhSL_EEERKSt6vectorIPKNS3_6VectorIfEESaISZ_EERKSO_IPKSV_IbSaIbEESL_ESO_IjjERSH_INS3_12TriaIteratorINS3_11DoFAccessorILi2ESA_EEEESV_IdSaIdEESM_IS1F_ESaISO_IKS1F_S1H_EEERNS3_19KellyErrorEstimatorILi3ELi3EE13PerThreadDataEEvS8_SC_SG_SU_S13_S1A_S1B_S1N_S1R_E6invokeERNS1_15function_bufferES8_SC_SG_SU_S13_S1A_S1B_S1N_S1R_ = comdat any

$_ZN5boost8functionIFvvEEC2INS_3_bi6bind_tINS4_11unspecifiedENS0_IFvRKN6dealii2hp17MappingCollectionILi3ELi3EEERKNS8_10DoFHandlerILi3ELi3EEERKNS8_11QCollectionILi2EEERKSt3mapIhPKNS7_8FunctionILi3EEESt4lessIhESaISt4pairIKhSP_EEERKSt6vectorIPKNS7_6VectorIfEESaIS13_EERKSS_IPKSZ_IbSaIbEESP_ESS_IjjERSL_INS7_12TriaIteratorINS7_11DoFAccessorILi2ESE_EEEESZ_IdSaIdEESQ_IS1J_ESaISS_IKS1J_S1L_EEERNS7_19KellyErrorEstimatorILi3ELi3EE13PerThreadDataEEEENS4_5list9INS_17reference_wrapperISB_EENS1Z_ISF_EENS1Z_ISJ_EENS1Z_ISX_EENS1Z_IS16_EENS1Z_IS1D_EENS4_5valueIS1F_EENS1Z_IS1Q_EENS1Z_IS1U_EEEEEEEET_NS_11enable_if_cIXsr5boost11type_traits7ice_notIXsr11is_integralIS2C_EE5valueEEE5valueEiE4typeE = comdat any

$_ZN5boost9function0IvE9assign_toINS_3_bi6bind_tINS3_11unspecifiedENS_8functionIFvRKN6dealii2hp17MappingCollectionILi3ELi3EEERKNS8_10DoFHandlerILi3ELi3EEERKNS8_11QCollectionILi2EEERKSt3mapIhPKNS7_8FunctionILi3EEESt4lessIhESaISt4pairIKhSP_EEERKSt6vectorIPKNS7_6VectorIfEESaIS13_EERKSS_IPKSZ_IbSaIbEESP_ESS_IjjERSL_INS7_12TriaIteratorINS7_11DoFAccessorILi2ESE_EEEESZ_IdSaIdEESQ_IS1J_ESaISS_IKS1J_S1L_EEERNS7_19KellyErrorEstimatorILi3ELi3EE13PerThreadDataEEEENS3_5list9INS_17reference_wrapperISB_EENS1Z_ISF_EENS1Z_ISJ_EENS1Z_ISX_EENS1Z_IS16_EENS1Z_IS1D_EENS3_5valueIS1F_EENS1Z_IS1Q_EENS1Z_IS1U_EEEEEEEEvT_ = comdat any

$_ZN5boost6detail8function15functor_managerINS_3_bi6bind_tINS3_11unspecifiedENS_8functionIFvRKN6dealii2hp17MappingCollectionILi3ELi3EEERKNS8_10DoFHandlerILi3ELi3EEERKNS8_11QCollectionILi2EEERKSt3mapIhPKNS7_8FunctionILi3EEESt4lessIhESaISt4pairIKhSP_EEERKSt6vectorIPKNS7_6VectorIfEESaIS13_EERKSS_IPKSZ_IbSaIbEESP_ESS_IjjERSL_INS7_12TriaIteratorINS7_11DoFAccessorILi2ESE_EEEESZ_IdSaIdEESQ_IS1J_ESaISS_IKS1J_S1L_EEERNS7_19KellyErrorEstimatorILi3ELi3EE13PerThreadDataEEEENS3_5list9INS_17reference_wrapperISB_EENS1Z_ISF_EENS1Z_ISJ_EENS1Z_ISX_EENS1Z_IS16_EENS1Z_IS1D_EENS3_5valueIS1F_EENS1Z_IS1Q_EENS1Z_IS1U_EEEEEEE6manageERKNS1_15function_bufferERS2D_NS1_30functor_manager_operation_typeE = comdat any

$_ZN5boost6detail8function26void_function_obj_invoker0INS_3_bi6bind_tINS3_11unspecifiedENS_8functionIFvRKN6dealii2hp17MappingCollectionILi3ELi3EEERKNS8_10DoFHandlerILi3ELi3EEERKNS8_11QCollectionILi2EEERKSt3mapIhPKNS7_8FunctionILi3EEESt4lessIhESaISt4pairIKhSP_EEERKSt6vectorIPKNS7_6VectorIfEESaIS13_EERKSS_IPKSZ_IbSaIbEESP_ESS_IjjERSL_INS7_12TriaIteratorINS7_11DoFAccessorILi2ESE_EEEESZ_IdSaIdEESQ_IS1J_ESaISS_IKS1J_S1L_EEERNS7_19KellyErrorEstimatorILi3ELi3EE13PerThreadDataEEEENS3_5list9INS_17reference_wrapperISB_EENS1Z_ISF_EENS1Z_ISJ_EENS1Z_ISX_EENS1Z_IS16_EENS1Z_IS1D_EENS3_5valueIS1F_EENS1Z_IS1Q_EENS1Z_IS1U_EEEEEEvE6invokeERNS1_15function_bufferE = comdat any

$_ZN5boost6detail8function15functor_managerINS_3_bi6bind_tINS3_11unspecifiedENS_8functionIFvRKN6dealii2hp17MappingCollectionILi3ELi3EEERKNS8_10DoFHandlerILi3ELi3EEERKNS8_11QCollectionILi2EEERKSt3mapIhPKNS7_8FunctionILi3EEESt4lessIhESaISt4pairIKhSP_EEERKSt6vectorIPKNS7_6VectorIfEESaIS13_EERKSS_IPKSZ_IbSaIbEESP_ESS_IjjERSL_INS7_12TriaIteratorINS7_11DoFAccessorILi2ESE_EEEESZ_IdSaIdEESQ_IS1J_ESaISS_IKS1J_S1L_EEERNS7_19KellyErrorEstimatorILi3ELi3EE13PerThreadDataEEEENS3_5list9INS_17reference_wrapperISB_EENS1Z_ISF_EENS1Z_ISJ_EENS1Z_ISX_EENS1Z_IS16_EENS1Z_IS1D_EENS3_5valueIS1F_EENS1Z_IS1Q_EENS1Z_IS1U_EEEEEEE7managerERKNS1_15function_bufferERS2D_NS1_30functor_manager_operation_typeEN4mpl_5bool_ILb0EEE = comdat any

$_ZNK5boost9function9IvRKN6dealii2hp17MappingCollectionILi3ELi3EEERKNS2_10DoFHandlerILi3ELi3EEERKNS2_11QCollectionILi2EEERKSt3mapIhPKNS1_8FunctionILi3EEESt4lessIhESaISt4pairIKhSJ_EEERKSt6vectorIPKNS1_6VectorIfEESaISX_EERKSM_IPKST_IbSaIbEESJ_ESM_IjjERSF_INS1_12TriaIteratorINS1_11DoFAccessorILi2ES8_EEEEST_IdSaIdEESK_IS1D_ESaISM_IKS1D_S1F_EEERNS1_19KellyErrorEstimatorILi3ELi3EE13PerThreadDataEEclES6_SA_SE_SS_S11_S18_S19_S1L_S1P_ = comdat any

$_ZN5boost6detail8function13basic_vtable0IvE9assign_toINS_3_bi6bind_tINS5_11unspecifiedENS_8functionIFvRKN6dealii2hp17MappingCollectionILi3ELi3EEERKNSA_10DoFHandlerILi3ELi3EEERKNSA_11QCollectionILi2EEERKSt3mapIhPKNS9_8FunctionILi3EEESt4lessIhESaISt4pairIKhSR_EEERKSt6vectorIPKNS9_6VectorIfEESaIS15_EERKSU_IPKS11_IbSaIbEESR_ESU_IjjERSN_INS9_12TriaIteratorINS9_11DoFAccessorILi2ESG_EEEES11_IdSaIdEESS_IS1L_ESaISU_IKS1L_S1N_EEERNS9_19KellyErrorEstimatorILi3ELi3EE13PerThreadDataEEEENS5_5list9INS_17reference_wrapperISD_EENS21_ISH_EENS21_ISL_EENS21_ISZ_EENS21_IS18_EENS21_IS1F_EENS5_5valueIS1H_EENS21_IS1S_EENS21_IS1W_EEEEEEEEbT_RNS1_15function_bufferENS1_16function_obj_tagE = comdat any

$_ZN6dealii19KellyErrorEstimatorILi3ELi3EE27integrate_over_regular_faceINS_11BlockVectorIdEENS_2hp10DoFHandlerILi3ELi3EEEEEvRKT0_RKNS5_11QCollectionILi2EEERKSt3mapIhPKNS_8FunctionILi3EEESt4lessIhESaISt4pairIKhSJ_EEERKSt6vectorIPKT_SaISW_EERKST_IbSaIbEESJ_RNS1_13FaceIntegralsIS8_E4typeERNS1_13PerThreadDataERKNS8_20active_cell_iteratorEjRNS5_12FEFaceValuesILi3EEES1G_ = comdat any

$_ZN6dealii19KellyErrorEstimatorILi3ELi3EE29integrate_over_irregular_faceINS_11BlockVectorIdEENS_2hp10DoFHandlerILi3ELi3EEEEEvRKT0_RKNS5_11QCollectionILi2EEERKSt6vectorIPKT_SaISI_EERKSF_IbSaIbEEPKNS_8FunctionILi3EEERNS1_13FaceIntegralsIS8_E4typeERNS1_13PerThreadDataERKNS8_20active_cell_iteratorEjRNS5_12FEFaceValuesILi3EEERNS5_15FESubfaceValuesILi3EEE = comdat any

$_ZN5boost6detail8function15functor_managerIPFvRKN6dealii2hp17MappingCollectionILi3ELi3EEERKNS4_10DoFHandlerILi3ELi3EEERKNS4_11QCollectionILi2EEERKSt3mapIhPKNS3_8FunctionILi3EEESt4lessIhESaISt4pairIKhSL_EEERKSt6vectorIPKNS3_11BlockVectorIdEESaISZ_EERKSO_IPKSV_IbSaIbEESL_ESO_IjjERSH_INS3_12TriaIteratorINS3_11DoFAccessorILi2ESA_EEEESV_IdSaIdEESM_IS1F_ESaISO_IKS1F_S1H_EEERNS3_19KellyErrorEstimatorILi3ELi3EE13PerThreadDataEEE6manageERKNS1_15function_bufferERS1V_NS1_30functor_manager_operation_typeE = comdat any

$_ZN5boost6detail8function22void_function_invoker9IPFvRKN6dealii2hp17MappingCollectionILi3ELi3EEERKNS4_10DoFHandlerILi3ELi3EEERKNS4_11QCollectionILi2EEERKSt3mapIhPKNS3_8FunctionILi3EEESt4lessIhESaISt4pairIKhSL_EEERKSt6vectorIPKNS3_11BlockVectorIdEESaISZ_EERKSO_IPKSV_IbSaIbEESL_ESO_IjjERSH_INS3_12TriaIteratorINS3_11DoFAccessorILi2ESA_EEEESV_IdSaIdEESM_IS1F_ESaISO_IKS1F_S1H_EEERNS3_19KellyErrorEstimatorILi3ELi3EE13PerThreadDataEEvS8_SC_SG_SU_S13_S1A_S1B_S1N_S1R_E6invokeERNS1_15function_bufferES8_SC_SG_SU_S13_S1A_S1B_S1N_S1R_ = comdat any

$_ZN5boost8functionIFvvEEC2INS_3_bi6bind_tINS4_11unspecifiedENS0_IFvRKN6dealii2hp17MappingCollectionILi3ELi3EEERKNS8_10DoFHandlerILi3ELi3EEERKNS8_11QCollectionILi2EEERKSt3mapIhPKNS7_8FunctionILi3EEESt4lessIhESaISt4pairIKhSP_EEERKSt6vectorIPKNS7_11BlockVectorIdEESaIS13_EERKSS_IPKSZ_IbSaIbEESP_ESS_IjjERSL_INS7_12TriaIteratorINS7_11DoFAccessorILi2ESE_EEEESZ_IdSaIdEESQ_IS1J_ESaISS_IKS1J_S1L_EEERNS7_19KellyErrorEstimatorILi3ELi3EE13PerThreadDataEEEENS4_5list9INS_17reference_wrapperISB_EENS1Z_ISF_EENS1Z_ISJ_EENS1Z_ISX_EENS1Z_IS16_EENS1Z_IS1D_EENS4_5valueIS1F_EENS1Z_IS1Q_EENS1Z_IS1U_EEEEEEEET_NS_11enable_if_cIXsr5boost11type_traits7ice_notIXsr11is_integralIS2C_EE5valueEEE5valueEiE4typeE = comdat any

$_ZN5boost9function0IvE9assign_toINS_3_bi6bind_tINS3_11unspecifiedENS_8functionIFvRKN6dealii2hp17MappingCollectionILi3ELi3EEERKNS8_10DoFHandlerILi3ELi3EEERKNS8_11QCollectionILi2EEERKSt3mapIhPKNS7_8FunctionILi3EEESt4lessIhESaISt4pairIKhSP_EEERKSt6vectorIPKNS7_11BlockVectorIdEESaIS13_EERKSS_IPKSZ_IbSaIbEESP_ESS_IjjERSL_INS7_12TriaIteratorINS7_11DoFAccessorILi2ESE_EEEESZ_IdSaIdEESQ_IS1J_ESaISS_IKS1J_S1L_EEERNS7_19KellyErrorEstimatorILi3ELi3EE13PerThreadDataEEEENS3_5list9INS_17reference_wrapperISB_EENS1Z_ISF_EENS1Z_ISJ_EENS1Z_ISX_EENS1Z_IS16_EENS1Z_IS1D_EENS3_5valueIS1F_EENS1Z_IS1Q_EENS1Z_IS1U_EEEEEEEEvT_ = comdat any

$_ZN5boost6detail8function15functor_managerINS_3_bi6bind_tINS3_11unspecifiedENS_8functionIFvRKN6dealii2hp17MappingCollectionILi3ELi3EEERKNS8_10DoFHandlerILi3ELi3EEERKNS8_11QCollectionILi2EEERKSt3mapIhPKNS7_8FunctionILi3EEESt4lessIhESaISt4pairIKhSP_EEERKSt6vectorIPKNS7_11BlockVectorIdEESaIS13_EERKSS_IPKSZ_IbSaIbEESP_ESS_IjjERSL_INS7_12TriaIteratorINS7_11DoFAccessorILi2ESE_EEEESZ_IdSaIdEESQ_IS1J_ESaISS_IKS1J_S1L_EEERNS7_19KellyErrorEstimatorILi3ELi3EE13PerThreadDataEEEENS3_5list9INS_17reference_wrapperISB_EENS1Z_ISF_EENS1Z_ISJ_EENS1Z_ISX_EENS1Z_IS16_EENS1Z_IS1D_EENS3_5valueIS1F_EENS1Z_IS1Q_EENS1Z_IS1U_EEEEEEE6manageERKNS1_15function_bufferERS2D_NS1_30functor_manager_operation_typeE = comdat any

$_ZN5boost6detail8function26void_function_obj_invoker0INS_3_bi6bind_tINS3_11unspecifiedENS_8functionIFvRKN6dealii2hp17MappingCollectionILi3ELi3EEERKNS8_10DoFHandlerILi3ELi3EEERKNS8_11QCollectionILi2EEERKSt3mapIhPKNS7_8FunctionILi3EEESt4lessIhESaISt4pairIKhSP_EEERKSt6vectorIPKNS7_11BlockVectorIdEESaIS13_EERKSS_IPKSZ_IbSaIbEESP_ESS_IjjERSL_INS7_12TriaIteratorINS7_11DoFAccessorILi2ESE_EEEESZ_IdSaIdEESQ_IS1J_ESaISS_IKS1J_S1L_EEERNS7_19KellyErrorEstimatorILi3ELi3EE13PerThreadDataEEEENS3_5list9INS_17reference_wrapperISB_EENS1Z_ISF_EENS1Z_ISJ_EENS1Z_ISX_EENS1Z_IS16_EENS1Z_IS1D_EENS3_5valueIS1F_EENS1Z_IS1Q_EENS1Z_IS1U_EEEEEEvE6invokeERNS1_15function_bufferE = comdat any

$_ZN5boost6detail8function15functor_managerINS_3_bi6bind_tINS3_11unspecifiedENS_8functionIFvRKN6dealii2hp17MappingCollectionILi3ELi3EEERKNS8_10DoFHandlerILi3ELi3EEERKNS8_11QCollectionILi2EEERKSt3mapIhPKNS7_8FunctionILi3EEESt4lessIhESaISt4pairIKhSP_EEERKSt6vectorIPKNS7_11BlockVectorIdEESaIS13_EERKSS_IPKSZ_IbSaIbEESP_ESS_IjjERSL_INS7_12TriaIteratorINS7_11DoFAccessorILi2ESE_EEEESZ_IdSaIdEESQ_IS1J_ESaISS_IKS1J_S1L_EEERNS7_19KellyErrorEstimatorILi3ELi3EE13PerThreadDataEEEENS3_5list9INS_17reference_wrapperISB_EENS1Z_ISF_EENS1Z_ISJ_EENS1Z_ISX_EENS1Z_IS16_EENS1Z_IS1D_EENS3_5valueIS1F_EENS1Z_IS1Q_EENS1Z_IS1U_EEEEEEE7managerERKNS1_15function_bufferERS2D_NS1_30functor_manager_operation_typeEN4mpl_5bool_ILb0EEE = comdat any

$_ZNK5boost9function9IvRKN6dealii2hp17MappingCollectionILi3ELi3EEERKNS2_10DoFHandlerILi3ELi3EEERKNS2_11QCollectionILi2EEERKSt3mapIhPKNS1_8FunctionILi3EEESt4lessIhESaISt4pairIKhSJ_EEERKSt6vectorIPKNS1_11BlockVectorIdEESaISX_EERKSM_IPKST_IbSaIbEESJ_ESM_IjjERSF_INS1_12TriaIteratorINS1_11DoFAccessorILi2ES8_EEEEST_IdSaIdEESK_IS1D_ESaISM_IKS1D_S1F_EEERNS1_19KellyErrorEstimatorILi3ELi3EE13PerThreadDataEEclES6_SA_SE_SS_S11_S18_S19_S1L_S1P_ = comdat any

$_ZN5boost6detail8function13basic_vtable0IvE9assign_toINS_3_bi6bind_tINS5_11unspecifiedENS_8functionIFvRKN6dealii2hp17MappingCollectionILi3ELi3EEERKNSA_10DoFHandlerILi3ELi3EEERKNSA_11QCollectionILi2EEERKSt3mapIhPKNS9_8FunctionILi3EEESt4lessIhESaISt4pairIKhSR_EEERKSt6vectorIPKNS9_11BlockVectorIdEESaIS15_EERKSU_IPKS11_IbSaIbEESR_ESU_IjjERSN_INS9_12TriaIteratorINS9_11DoFAccessorILi2ESG_EEEES11_IdSaIdEESS_IS1L_ESaISU_IKS1L_S1N_EEERNS9_19KellyErrorEstimatorILi3ELi3EE13PerThreadDataEEEENS5_5list9INS_17reference_wrapperISD_EENS21_ISH_EENS21_ISL_EENS21_ISZ_EENS21_IS18_EENS21_IS1F_EENS5_5valueIS1H_EENS21_IS1S_EENS21_IS1W_EEEEEEEEbT_RNS1_15function_bufferENS1_16function_obj_tagE = comdat any

$_ZN6dealii19KellyErrorEstimatorILi3ELi3EE27integrate_over_regular_faceINS_11BlockVectorIfEENS_2hp10DoFHandlerILi3ELi3EEEEEvRKT0_RKNS5_11QCollectionILi2EEERKSt3mapIhPKNS_8FunctionILi3EEESt4lessIhESaISt4pairIKhSJ_EEERKSt6vectorIPKT_SaISW_EERKST_IbSaIbEESJ_RNS1_13FaceIntegralsIS8_E4typeERNS1_13PerThreadDataERKNS8_20active_cell_iteratorEjRNS5_12FEFaceValuesILi3EEES1G_ = comdat any

$_ZN6dealii19KellyErrorEstimatorILi3ELi3EE29integrate_over_irregular_faceINS_11BlockVectorIfEENS_2hp10DoFHandlerILi3ELi3EEEEEvRKT0_RKNS5_11QCollectionILi2EEERKSt6vectorIPKT_SaISI_EERKSF_IbSaIbEEPKNS_8FunctionILi3EEERNS1_13FaceIntegralsIS8_E4typeERNS1_13PerThreadDataERKNS8_20active_cell_iteratorEjRNS5_12FEFaceValuesILi3EEERNS5_15FESubfaceValuesILi3EEE = comdat any

$_ZN5boost6detail8function15functor_managerIPFvRKN6dealii2hp17MappingCollectionILi3ELi3EEERKNS4_10DoFHandlerILi3ELi3EEERKNS4_11QCollectionILi2EEERKSt3mapIhPKNS3_8FunctionILi3EEESt4lessIhESaISt4pairIKhSL_EEERKSt6vectorIPKNS3_11BlockVectorIfEESaISZ_EERKSO_IPKSV_IbSaIbEESL_ESO_IjjERSH_INS3_12TriaIteratorINS3_11DoFAccessorILi2ESA_EEEESV_IdSaIdEESM_IS1F_ESaISO_IKS1F_S1H_EEERNS3_19KellyErrorEstimatorILi3ELi3EE13PerThreadDataEEE6manageERKNS1_15function_bufferERS1V_NS1_30functor_manager_operation_typeE = comdat any

$_ZN5boost6detail8function22void_function_invoker9IPFvRKN6dealii2hp17MappingCollectionILi3ELi3EEERKNS4_10DoFHandlerILi3ELi3EEERKNS4_11QCollectionILi2EEERKSt3mapIhPKNS3_8FunctionILi3EEESt4lessIhESaISt4pairIKhSL_EEERKSt6vectorIPKNS3_11BlockVectorIfEESaISZ_EERKSO_IPKSV_IbSaIbEESL_ESO_IjjERSH_INS3_12TriaIteratorINS3_11DoFAccessorILi2ESA_EEEESV_IdSaIdEESM_IS1F_ESaISO_IKS1F_S1H_EEERNS3_19KellyErrorEstimatorILi3ELi3EE13PerThreadDataEEvS8_SC_SG_SU_S13_S1A_S1B_S1N_S1R_E6invokeERNS1_15function_bufferES8_SC_SG_SU_S13_S1A_S1B_S1N_S1R_ = comdat any

$_ZN5boost8functionIFvvEEC2INS_3_bi6bind_tINS4_11unspecifiedENS0_IFvRKN6dealii2hp17MappingCollectionILi3ELi3EEERKNS8_10DoFHandlerILi3ELi3EEERKNS8_11QCollectionILi2EEERKSt3mapIhPKNS7_8FunctionILi3EEESt4lessIhESaISt4pairIKhSP_EEERKSt6vectorIPKNS7_11BlockVectorIfEESaIS13_EERKSS_IPKSZ_IbSaIbEESP_ESS_IjjERSL_INS7_12TriaIteratorINS7_11DoFAccessorILi2ESE_EEEESZ_IdSaIdEESQ_IS1J_ESaISS_IKS1J_S1L_EEERNS7_19KellyErrorEstimatorILi3ELi3EE13PerThreadDataEEEENS4_5list9INS_17reference_wrapperISB_EENS1Z_ISF_EENS1Z_ISJ_EENS1Z_ISX_EENS1Z_IS16_EENS1Z_IS1D_EENS4_5valueIS1F_EENS1Z_IS1Q_EENS1Z_IS1U_EEEEEEEET_NS_11enable_if_cIXsr5boost11type_traits7ice_notIXsr11is_integralIS2C_EE5valueEEE5valueEiE4typeE = comdat any

$_ZN5boost9function0IvE9assign_toINS_3_bi6bind_tINS3_11unspecifiedENS_8functionIFvRKN6dealii2hp17MappingCollectionILi3ELi3EEERKNS8_10DoFHandlerILi3ELi3EEERKNS8_11QCollectionILi2EEERKSt3mapIhPKNS7_8FunctionILi3EEESt4lessIhESaISt4pairIKhSP_EEERKSt6vectorIPKNS7_11BlockVectorIfEESaIS13_EERKSS_IPKSZ_IbSaIbEESP_ESS_IjjERSL_INS7_12TriaIteratorINS7_11DoFAccessorILi2ESE_EEEESZ_IdSaIdEESQ_IS1J_ESaISS_IKS1J_S1L_EEERNS7_19KellyErrorEstimatorILi3ELi3EE13PerThreadDataEEEENS3_5list9INS_17reference_wrapperISB_EENS1Z_ISF_EENS1Z_ISJ_EENS1Z_ISX_EENS1Z_IS16_EENS1Z_IS1D_EENS3_5valueIS1F_EENS1Z_IS1Q_EENS1Z_IS1U_EEEEEEEEvT_ = comdat any

$_ZN5boost6detail8function15functor_managerINS_3_bi6bind_tINS3_11unspecifiedENS_8functionIFvRKN6dealii2hp17MappingCollectionILi3ELi3EEERKNS8_10DoFHandlerILi3ELi3EEERKNS8_11QCollectionILi2EEERKSt3mapIhPKNS7_8FunctionILi3EEESt4lessIhESaISt4pairIKhSP_EEERKSt6vectorIPKNS7_11BlockVectorIfEESaIS13_EERKSS_IPKSZ_IbSaIbEESP_ESS_IjjERSL_INS7_12TriaIteratorINS7_11DoFAccessorILi2ESE_EEEESZ_IdSaIdEESQ_IS1J_ESaISS_IKS1J_S1L_EEERNS7_19KellyErrorEstimatorILi3ELi3EE13PerThreadDataEEEENS3_5list9INS_17reference_wrapperISB_EENS1Z_ISF_EENS1Z_ISJ_EENS1Z_ISX_EENS1Z_IS16_EENS1Z_IS1D_EENS3_5valueIS1F_EENS1Z_IS1Q_EENS1Z_IS1U_EEEEEEE6manageERKNS1_15function_bufferERS2D_NS1_30functor_manager_operation_typeE = comdat any

$_ZN5boost6detail8function26void_function_obj_invoker0INS_3_bi6bind_tINS3_11unspecifiedENS_8functionIFvRKN6dealii2hp17MappingCollectionILi3ELi3EEERKNS8_10DoFHandlerILi3ELi3EEERKNS8_11QCollectionILi2EEERKSt3mapIhPKNS7_8FunctionILi3EEESt4lessIhESaISt4pairIKhSP_EEERKSt6vectorIPKNS7_11BlockVectorIfEESaIS13_EERKSS_IPKSZ_IbSaIbEESP_ESS_IjjERSL_INS7_12TriaIteratorINS7_11DoFAccessorILi2ESE_EEEESZ_IdSaIdEESQ_IS1J_ESaISS_IKS1J_S1L_EEERNS7_19KellyErrorEstimatorILi3ELi3EE13PerThreadDataEEEENS3_5list9INS_17reference_wrapperISB_EENS1Z_ISF_EENS1Z_ISJ_EENS1Z_ISX_EENS1Z_IS16_EENS1Z_IS1D_EENS3_5valueIS1F_EENS1Z_IS1Q_EENS1Z_IS1U_EEEEEEvE6invokeERNS1_15function_bufferE = comdat any

$_ZN5boost6detail8function15functor_managerINS_3_bi6bind_tINS3_11unspecifiedENS_8functionIFvRKN6dealii2hp17MappingCollectionILi3ELi3EEERKNS8_10DoFHandlerILi3ELi3EEERKNS8_11QCollectionILi2EEERKSt3mapIhPKNS7_8FunctionILi3EEESt4lessIhESaISt4pairIKhSP_EEERKSt6vectorIPKNS7_11BlockVectorIfEESaIS13_EERKSS_IPKSZ_IbSaIbEESP_ESS_IjjERSL_INS7_12TriaIteratorINS7_11DoFAccessorILi2ESE_EEEESZ_IdSaIdEESQ_IS1J_ESaISS_IKS1J_S1L_EEERNS7_19KellyErrorEstimatorILi3ELi3EE13PerThreadDataEEEENS3_5list9INS_17reference_wrapperISB_EENS1Z_ISF_EENS1Z_ISJ_EENS1Z_ISX_EENS1Z_IS16_EENS1Z_IS1D_EENS3_5valueIS1F_EENS1Z_IS1Q_EENS1Z_IS1U_EEEEEEE7managerERKNS1_15function_bufferERS2D_NS1_30functor_manager_operation_typeEN4mpl_5bool_ILb0EEE = comdat any

$_ZNK5boost9function9IvRKN6dealii2hp17MappingCollectionILi3ELi3EEERKNS2_10DoFHandlerILi3ELi3EEERKNS2_11QCollectionILi2EEERKSt3mapIhPKNS1_8FunctionILi3EEESt4lessIhESaISt4pairIKhSJ_EEERKSt6vectorIPKNS1_11BlockVectorIfEESaISX_EERKSM_IPKST_IbSaIbEESJ_ESM_IjjERSF_INS1_12TriaIteratorINS1_11DoFAccessorILi2ES8_EEEEST_IdSaIdEESK_IS1D_ESaISM_IKS1D_S1F_EEERNS1_19KellyErrorEstimatorILi3ELi3EE13PerThreadDataEEclES6_SA_SE_SS_S11_S18_S19_S1L_S1P_ = comdat any

$_ZN5boost6detail8function13basic_vtable0IvE9assign_toINS_3_bi6bind_tINS5_11unspecifiedENS_8functionIFvRKN6dealii2hp17MappingCollectionILi3ELi3EEERKNSA_10DoFHandlerILi3ELi3EEERKNSA_11QCollectionILi2EEERKSt3mapIhPKNS9_8FunctionILi3EEESt4lessIhESaISt4pairIKhSR_EEERKSt6vectorIPKNS9_11BlockVectorIfEESaIS15_EERKSU_IPKS11_IbSaIbEESR_ESU_IjjERSN_INS9_12TriaIteratorINS9_11DoFAccessorILi2ESG_EEEES11_IdSaIdEESS_IS1L_ESaISU_IKS1L_S1N_EEERNS9_19KellyErrorEstimatorILi3ELi3EE13PerThreadDataEEEENS5_5list9INS_17reference_wrapperISD_EENS21_ISH_EENS21_ISL_EENS21_ISZ_EENS21_IS18_EENS21_IS1F_EENS5_5valueIS1H_EENS21_IS1S_EENS21_IS1W_EEEEEEEEbT_RNS1_15function_bufferENS1_16function_obj_tagE = comdat any

$_ZTVN6dealii19KellyErrorEstimatorILi3ELi3EE31ExcIncompatibleNumberOfElementsE = comdat any

$_ZTVN6dealii19KellyErrorEstimatorILi3ELi3EE27ExcInvalidBoundaryIndicatorE = comdat any

$_ZTSN6dealii19KellyErrorEstimatorILi3ELi3EE27ExcInvalidBoundaryIndicatorE = comdat any

$_ZTIN6dealii19KellyErrorEstimatorILi3ELi3EE27ExcInvalidBoundaryIndicatorE = comdat any

$_ZTVN6dealii19KellyErrorEstimatorILi3ELi3EE23ExcInvalidComponentMaskE = comdat any

$_ZTSN6dealii19KellyErrorEstimatorILi3ELi3EE23ExcInvalidComponentMaskE = comdat any

$_ZTIN6dealii19KellyErrorEstimatorILi3ELi3EE23ExcInvalidComponentMaskE = comdat any

$_ZTVN6dealii19KellyErrorEstimatorILi3ELi3EE21ExcInvalidCoefficientE = comdat any

$_ZTSN6dealii19KellyErrorEstimatorILi3ELi3EE21ExcInvalidCoefficientE = comdat any

$_ZTIN6dealii19KellyErrorEstimatorILi3ELi3EE21ExcInvalidCoefficientE = comdat any

$_ZTVN6dealii19KellyErrorEstimatorILi3ELi3EE26ExcInvalidBoundaryFunctionE = comdat any

$_ZTSN6dealii19KellyErrorEstimatorILi3ELi3EE26ExcInvalidBoundaryFunctionE = comdat any

$_ZTIN6dealii19KellyErrorEstimatorILi3ELi3EE26ExcInvalidBoundaryFunctionE = comdat any

$_ZTSN6dealii19KellyErrorEstimatorILi3ELi3EE31ExcIncompatibleNumberOfElementsE = comdat any

$_ZTIN6dealii19KellyErrorEstimatorILi3ELi3EE31ExcIncompatibleNumberOfElementsE = comdat any

$_ZTVN6dealii19KellyErrorEstimatorILi3ELi3EE24ExcInvalidSolutionVectorE = comdat any

$_ZTSN6dealii19KellyErrorEstimatorILi3ELi3EE24ExcInvalidSolutionVectorE = comdat any

$_ZTIN6dealii19KellyErrorEstimatorILi3ELi3EE24ExcInvalidSolutionVectorE = comdat any

$_ZTVN6dealii19KellyErrorEstimatorILi3ELi3EE14ExcNoSolutionsE = comdat any

$_ZTSN6dealii19KellyErrorEstimatorILi3ELi3EE14ExcNoSolutionsE = comdat any

$_ZTIN6dealii19KellyErrorEstimatorILi3ELi3EE14ExcNoSolutionsE = comdat any

$_ZTVN6dealii2hp11QCollectionILi2EEE = comdat any

$_ZTSN6dealii2hp11QCollectionILi2EEE = comdat any

$_ZTIN6dealii2hp11QCollectionILi2EEE = comdat any

$_ZTVN6dealii2hp17MappingCollectionILi3ELi3EEE = comdat any

$_ZTSN6dealii2hp17MappingCollectionILi3ELi3EEE = comdat any

$_ZTIN6dealii2hp17MappingCollectionILi3ELi3EEE = comdat any

$_ZTVN6dealii6VectorIdEE = comdat any

$_ZTSN6dealii6VectorIdEE = comdat any

$_ZTIN6dealii6VectorIdEE = comdat any

$_ZTVN5boost6detail17sp_counted_impl_pIN6dealii10QuadratureILi2EEEEE = comdat any

$_ZTSN5boost6detail17sp_counted_impl_pIN6dealii10QuadratureILi2EEEEE = comdat any

$_ZTSN5boost6detail15sp_counted_baseE = comdat any

$_ZTIN5boost6detail15sp_counted_baseE = comdat any

$_ZTIN5boost6detail17sp_counted_impl_pIN6dealii10QuadratureILi2EEEEE = comdat any

$_ZTVN6dealii9TableBaseILi3EN5boost10shared_ptrINS_15FESubfaceValuesILi3ELi3EEEEEEE = comdat any

$_ZTSN6dealii9TableBaseILi3EN5boost10shared_ptrINS_15FESubfaceValuesILi3ELi3EEEEEEE = comdat any

$_ZTIN6dealii9TableBaseILi3EN5boost10shared_ptrINS_15FESubfaceValuesILi3ELi3EEEEEEE = comdat any

$_ZTVN6dealii9TableBaseILi3EN5boost10shared_ptrINS_12FEFaceValuesILi3ELi3EEEEEEE = comdat any

$_ZTSN6dealii9TableBaseILi3EN5boost10shared_ptrINS_12FEFaceValuesILi3ELi3EEEEEEE = comdat any

$_ZTIN6dealii9TableBaseILi3EN5boost10shared_ptrINS_12FEFaceValuesILi3ELi3EEEEEEE = comdat any

$_ZTVN6dealii2hp12FECollectionILi3ELi3EEE = comdat any

$_ZTSN6dealii2hp12FECollectionILi3ELi3EEE = comdat any

$_ZTIN6dealii2hp12FECollectionILi3ELi3EEE = comdat any

$_ZZN5boost9function9IvRKN6dealii2hp17MappingCollectionILi3ELi3EEERKNS1_10DoFHandlerILi3ELi3EEERKNS2_11QCollectionILi2EEERKSt3mapIhPKNS1_8FunctionILi3EEESt4lessIhESaISt4pairIKhSJ_EEERKSt6vectorIPKNS1_6VectorIdEESaISX_EERKSM_IPKST_IbSaIbEESJ_ESM_IjjERSF_INS1_12TriaIteratorINS1_11DoFAccessorILi2ES8_EEEEST_IdSaIdEESK_IS1D_ESaISM_IKS1D_S1F_EEERNS1_19KellyErrorEstimatorILi3ELi3EE13PerThreadDataEE9assign_toIPFvS6_SA_SE_SS_S11_S18_S19_S1L_S1P_EEEvT_E13stored_vtable = comdat any

$_ZTSPFvRKN6dealii2hp17MappingCollectionILi3ELi3EEERKNS_10DoFHandlerILi3ELi3EEERKNS0_11QCollectionILi2EEERKSt3mapIhPKNS_8FunctionILi3EEESt4lessIhESaISt4pairIKhSH_EEERKSt6vectorIPKNS_6VectorIdEESaISV_EERKSK_IPKSR_IbSaIbEESH_ESK_IjjERSD_INS_12TriaIteratorINS_11DoFAccessorILi2ES6_EEEESR_IdSaIdEESI_IS1B_ESaISK_IKS1B_S1D_EEERNS_19KellyErrorEstimatorILi3ELi3EE13PerThreadDataEE = comdat any

$_ZTSFvRKN6dealii2hp17MappingCollectionILi3ELi3EEERKNS_10DoFHandlerILi3ELi3EEERKNS0_11QCollectionILi2EEERKSt3mapIhPKNS_8FunctionILi3EEESt4lessIhESaISt4pairIKhSH_EEERKSt6vectorIPKNS_6VectorIdEESaISV_EERKSK_IPKSR_IbSaIbEESH_ESK_IjjERSD_INS_12TriaIteratorINS_11DoFAccessorILi2ES6_EEEESR_IdSaIdEESI_IS1B_ESaISK_IKS1B_S1D_EEERNS_19KellyErrorEstimatorILi3ELi3EE13PerThreadDataEE = comdat any

$_ZTIFvRKN6dealii2hp17MappingCollectionILi3ELi3EEERKNS_10DoFHandlerILi3ELi3EEERKNS0_11QCollectionILi2EEERKSt3mapIhPKNS_8FunctionILi3EEESt4lessIhESaISt4pairIKhSH_EEERKSt6vectorIPKNS_6VectorIdEESaISV_EERKSK_IPKSR_IbSaIbEESH_ESK_IjjERSD_INS_12TriaIteratorINS_11DoFAccessorILi2ES6_EEEESR_IdSaIdEESI_IS1B_ESaISK_IKS1B_S1D_EEERNS_19KellyErrorEstimatorILi3ELi3EE13PerThreadDataEE = comdat any

$_ZTIPFvRKN6dealii2hp17MappingCollectionILi3ELi3EEERKNS_10DoFHandlerILi3ELi3EEERKNS0_11QCollectionILi2EEERKSt3mapIhPKNS_8FunctionILi3EEESt4lessIhESaISt4pairIKhSH_EEERKSt6vectorIPKNS_6VectorIdEESaISV_EERKSK_IPKSR_IbSaIbEESH_ESK_IjjERSD_INS_12TriaIteratorINS_11DoFAccessorILi2ES6_EEEESR_IdSaIdEESI_IS1B_ESaISK_IKS1B_S1D_EEERNS_19KellyErrorEstimatorILi3ELi3EE13PerThreadDataEE = comdat any

$_ZZN5boost9function0IvE9assign_toINS_3_bi6bind_tINS3_11unspecifiedENS_8functionIFvRKN6dealii2hp17MappingCollectionILi3ELi3EEERKNS7_10DoFHandlerILi3ELi3EEERKNS8_11QCollectionILi2EEERKSt3mapIhPKNS7_8FunctionILi3EEESt4lessIhESaISt4pairIKhSP_EEERKSt6vectorIPKNS7_6VectorIdEESaIS13_EERKSS_IPKSZ_IbSaIbEESP_ESS_IjjERSL_INS7_12TriaIteratorINS7_11DoFAccessorILi2ESE_EEEESZ_IdSaIdEESQ_IS1J_ESaISS_IKS1J_S1L_EEERNS7_19KellyErrorEstimatorILi3ELi3EE13PerThreadDataEEEENS3_5list9INS_17reference_wrapperISB_EENS1Z_ISF_EENS1Z_ISJ_EENS1Z_ISX_EENS1Z_IS16_EENS1Z_IS1D_EENS3_5valueIS1F_EENS1Z_IS1Q_EENS1Z_IS1U_EEEEEEEEvT_E13stored_vtable = comdat any

$_ZTSN5boost3_bi6bind_tINS0_11unspecifiedENS_8functionIFvRKN6dealii2hp17MappingCollectionILi3ELi3EEERKNS4_10DoFHandlerILi3ELi3EEERKNS5_11QCollectionILi2EEERKSt3mapIhPKNS4_8FunctionILi3EEESt4lessIhESaISt4pairIKhSM_EEERKSt6vectorIPKNS4_6VectorIdEESaIS10_EERKSP_IPKSW_IbSaIbEESM_ESP_IjjERSI_INS4_12TriaIteratorINS4_11DoFAccessorILi2ESB_EEEESW_IdSaIdEESN_IS1G_ESaISP_IKS1G_S1I_EEERNS4_19KellyErrorEstimatorILi3ELi3EE13PerThreadDataEEEENS0_5list9INS_17reference_wrapperIS8_EENS1W_ISC_EENS1W_ISG_EENS1W_ISU_EENS1W_IS13_EENS1W_IS1A_EENS0_5valueIS1C_EENS1W_IS1N_EENS1W_IS1R_EEEEEE = comdat any

$_ZTIN5boost3_bi6bind_tINS0_11unspecifiedENS_8functionIFvRKN6dealii2hp17MappingCollectionILi3ELi3EEERKNS4_10DoFHandlerILi3ELi3EEERKNS5_11QCollectionILi2EEERKSt3mapIhPKNS4_8FunctionILi3EEESt4lessIhESaISt4pairIKhSM_EEERKSt6vectorIPKNS4_6VectorIdEESaIS10_EERKSP_IPKSW_IbSaIbEESM_ESP_IjjERSI_INS4_12TriaIteratorINS4_11DoFAccessorILi2ESB_EEEESW_IdSaIdEESN_IS1G_ESaISP_IKS1G_S1I_EEERNS4_19KellyErrorEstimatorILi3ELi3EE13PerThreadDataEEEENS0_5list9INS_17reference_wrapperIS8_EENS1W_ISC_EENS1W_ISG_EENS1W_ISU_EENS1W_IS13_EENS1W_IS1A_EENS0_5valueIS1C_EENS1W_IS1N_EENS1W_IS1R_EEEEEE = comdat any

$_ZTSN5boost16exception_detail10clone_implINS0_19error_info_injectorINS_17bad_function_callEEEEE = comdat any

$_ZTSN5boost16exception_detail19error_info_injectorINS_17bad_function_callEEE = comdat any

$_ZTSN5boost17bad_function_callE = comdat any

$_ZTIN5boost17bad_function_callE = comdat any

$_ZTSN5boost9exceptionE = comdat any

$_ZTIN5boost9exceptionE = comdat any

$_ZTIN5boost16exception_detail19error_info_injectorINS_17bad_function_callEEE = comdat any

$_ZTSN5boost16exception_detail10clone_baseE = comdat any

$_ZTIN5boost16exception_detail10clone_baseE = comdat any

$_ZTIN5boost16exception_detail10clone_implINS0_19error_info_injectorINS_17bad_function_callEEEEE = comdat any

$_ZTVN5boost16exception_detail10clone_implINS0_19error_info_injectorINS_17bad_function_callEEEEE = comdat any

$_ZTVN5boost16exception_detail19error_info_injectorINS_17bad_function_callEEE = comdat any

$_ZTVN5boost17bad_function_callE = comdat any

$_ZTVN5boost9exceptionE = comdat any

$_ZTVN5boost6detail17sp_counted_impl_pIN6dealii7Threads8internal16ThreadDescriptorIvEEEE = comdat any

$_ZTSN5boost6detail17sp_counted_impl_pIN6dealii7Threads8internal16ThreadDescriptorIvEEEE = comdat any

$_ZTIN5boost6detail17sp_counted_impl_pIN6dealii7Threads8internal16ThreadDescriptorIvEEEE = comdat any

$_ZTSN6dealii7Threads6ThreadIvE11ExcNoThreadE = comdat any

$_ZTIN6dealii7Threads6ThreadIvE11ExcNoThreadE = comdat any

$_ZTVN6dealii7Threads6ThreadIvE11ExcNoThreadE = comdat any

$_ZZN6dealii8internal12TriaAccessor14Implementation12vertex_indexILi3ELi3EEEjRKNS_12TriaAccessorILi2EXT_EXT0_EEEjE12switch_table = comdat any

$_ZZN5boost9function9IvRKN6dealii2hp17MappingCollectionILi3ELi3EEERKNS1_10DoFHandlerILi3ELi3EEERKNS2_11QCollectionILi2EEERKSt3mapIhPKNS1_8FunctionILi3EEESt4lessIhESaISt4pairIKhSJ_EEERKSt6vectorIPKNS1_6VectorIfEESaISX_EERKSM_IPKST_IbSaIbEESJ_ESM_IjjERSF_INS1_12TriaIteratorINS1_11DoFAccessorILi2ES8_EEEEST_IdSaIdEESK_IS1D_ESaISM_IKS1D_S1F_EEERNS1_19KellyErrorEstimatorILi3ELi3EE13PerThreadDataEE9assign_toIPFvS6_SA_SE_SS_S11_S18_S19_S1L_S1P_EEEvT_E13stored_vtable = comdat any

$_ZTSPFvRKN6dealii2hp17MappingCollectionILi3ELi3EEERKNS_10DoFHandlerILi3ELi3EEERKNS0_11QCollectionILi2EEERKSt3mapIhPKNS_8FunctionILi3EEESt4lessIhESaISt4pairIKhSH_EEERKSt6vectorIPKNS_6VectorIfEESaISV_EERKSK_IPKSR_IbSaIbEESH_ESK_IjjERSD_INS_12TriaIteratorINS_11DoFAccessorILi2ES6_EEEESR_IdSaIdEESI_IS1B_ESaISK_IKS1B_S1D_EEERNS_19KellyErrorEstimatorILi3ELi3EE13PerThreadDataEE = comdat any

$_ZTSFvRKN6dealii2hp17MappingCollectionILi3ELi3EEERKNS_10DoFHandlerILi3ELi3EEERKNS0_11QCollectionILi2EEERKSt3mapIhPKNS_8FunctionILi3EEESt4lessIhESaISt4pairIKhSH_EEERKSt6vectorIPKNS_6VectorIfEESaISV_EERKSK_IPKSR_IbSaIbEESH_ESK_IjjERSD_INS_12TriaIteratorINS_11DoFAccessorILi2ES6_EEEESR_IdSaIdEESI_IS1B_ESaISK_IKS1B_S1D_EEERNS_19KellyErrorEstimatorILi3ELi3EE13PerThreadDataEE = comdat any

$_ZTIFvRKN6dealii2hp17MappingCollectionILi3ELi3EEERKNS_10DoFHandlerILi3ELi3EEERKNS0_11QCollectionILi2EEERKSt3mapIhPKNS_8FunctionILi3EEESt4lessIhESaISt4pairIKhSH_EEERKSt6vectorIPKNS_6VectorIfEESaISV_EERKSK_IPKSR_IbSaIbEESH_ESK_IjjERSD_INS_12TriaIteratorINS_11DoFAccessorILi2ES6_EEEESR_IdSaIdEESI_IS1B_ESaISK_IKS1B_S1D_EEERNS_19KellyErrorEstimatorILi3ELi3EE13PerThreadDataEE = comdat any

$_ZTIPFvRKN6dealii2hp17MappingCollectionILi3ELi3EEERKNS_10DoFHandlerILi3ELi3EEERKNS0_11QCollectionILi2EEERKSt3mapIhPKNS_8FunctionILi3EEESt4lessIhESaISt4pairIKhSH_EEERKSt6vectorIPKNS_6VectorIfEESaISV_EERKSK_IPKSR_IbSaIbEESH_ESK_IjjERSD_INS_12TriaIteratorINS_11DoFAccessorILi2ES6_EEEESR_IdSaIdEESI_IS1B_ESaISK_IKS1B_S1D_EEERNS_19KellyErrorEstimatorILi3ELi3EE13PerThreadDataEE = comdat any

$_ZZN5boost9function0IvE9assign_toINS_3_bi6bind_tINS3_11unspecifiedENS_8functionIFvRKN6dealii2hp17MappingCollectionILi3ELi3EEERKNS7_10DoFHandlerILi3ELi3EEERKNS8_11QCollectionILi2EEERKSt3mapIhPKNS7_8FunctionILi3EEESt4lessIhESaISt4pairIKhSP_EEERKSt6vectorIPKNS7_6VectorIfEESaIS13_EERKSS_IPKSZ_IbSaIbEESP_ESS_IjjERSL_INS7_12TriaIteratorINS7_11DoFAccessorILi2ESE_EEEESZ_IdSaIdEESQ_IS1J_ESaISS_IKS1J_S1L_EEERNS7_19KellyErrorEstimatorILi3ELi3EE13PerThreadDataEEEENS3_5list9INS_17reference_wrapperISB_EENS1Z_ISF_EENS1Z_ISJ_EENS1Z_ISX_EENS1Z_IS16_EENS1Z_IS1D_EENS3_5valueIS1F_EENS1Z_IS1Q_EENS1Z_IS1U_EEEEEEEEvT_E13stored_vtable = comdat any

$_ZTSN5boost3_bi6bind_tINS0_11unspecifiedENS_8functionIFvRKN6dealii2hp17MappingCollectionILi3ELi3EEERKNS4_10DoFHandlerILi3ELi3EEERKNS5_11QCollectionILi2EEERKSt3mapIhPKNS4_8FunctionILi3EEESt4lessIhESaISt4pairIKhSM_EEERKSt6vectorIPKNS4_6VectorIfEESaIS10_EERKSP_IPKSW_IbSaIbEESM_ESP_IjjERSI_INS4_12TriaIteratorINS4_11DoFAccessorILi2ESB_EEEESW_IdSaIdEESN_IS1G_ESaISP_IKS1G_S1I_EEERNS4_19KellyErrorEstimatorILi3ELi3EE13PerThreadDataEEEENS0_5list9INS_17reference_wrapperIS8_EENS1W_ISC_EENS1W_ISG_EENS1W_ISU_EENS1W_IS13_EENS1W_IS1A_EENS0_5valueIS1C_EENS1W_IS1N_EENS1W_IS1R_EEEEEE = comdat any

$_ZTIN5boost3_bi6bind_tINS0_11unspecifiedENS_8functionIFvRKN6dealii2hp17MappingCollectionILi3ELi3EEERKNS4_10DoFHandlerILi3ELi3EEERKNS5_11QCollectionILi2EEERKSt3mapIhPKNS4_8FunctionILi3EEESt4lessIhESaISt4pairIKhSM_EEERKSt6vectorIPKNS4_6VectorIfEESaIS10_EERKSP_IPKSW_IbSaIbEESM_ESP_IjjERSI_INS4_12TriaIteratorINS4_11DoFAccessorILi2ESB_EEEESW_IdSaIdEESN_IS1G_ESaISP_IKS1G_S1I_EEERNS4_19KellyErrorEstimatorILi3ELi3EE13PerThreadDataEEEENS0_5list9INS_17reference_wrapperIS8_EENS1W_ISC_EENS1W_ISG_EENS1W_ISU_EENS1W_IS13_EENS1W_IS1A_EENS0_5valueIS1C_EENS1W_IS1N_EENS1W_IS1R_EEEEEE = comdat any

$_ZZN5boost9function9IvRKN6dealii2hp17MappingCollectionILi3ELi3EEERKNS1_10DoFHandlerILi3ELi3EEERKNS2_11QCollectionILi2EEERKSt3mapIhPKNS1_8FunctionILi3EEESt4lessIhESaISt4pairIKhSJ_EEERKSt6vectorIPKNS1_11BlockVectorIdEESaISX_EERKSM_IPKST_IbSaIbEESJ_ESM_IjjERSF_INS1_12TriaIteratorINS1_11DoFAccessorILi2ES8_EEEEST_IdSaIdEESK_IS1D_ESaISM_IKS1D_S1F_EEERNS1_19KellyErrorEstimatorILi3ELi3EE13PerThreadDataEE9assign_toIPFvS6_SA_SE_SS_S11_S18_S19_S1L_S1P_EEEvT_E13stored_vtable = comdat any

$_ZTSPFvRKN6dealii2hp17MappingCollectionILi3ELi3EEERKNS_10DoFHandlerILi3ELi3EEERKNS0_11QCollectionILi2EEERKSt3mapIhPKNS_8FunctionILi3EEESt4lessIhESaISt4pairIKhSH_EEERKSt6vectorIPKNS_11BlockVectorIdEESaISV_EERKSK_IPKSR_IbSaIbEESH_ESK_IjjERSD_INS_12TriaIteratorINS_11DoFAccessorILi2ES6_EEEESR_IdSaIdEESI_IS1B_ESaISK_IKS1B_S1D_EEERNS_19KellyErrorEstimatorILi3ELi3EE13PerThreadDataEE = comdat any

$_ZTSFvRKN6dealii2hp17MappingCollectionILi3ELi3EEERKNS_10DoFHandlerILi3ELi3EEERKNS0_11QCollectionILi2EEERKSt3mapIhPKNS_8FunctionILi3EEESt4lessIhESaISt4pairIKhSH_EEERKSt6vectorIPKNS_11BlockVectorIdEESaISV_EERKSK_IPKSR_IbSaIbEESH_ESK_IjjERSD_INS_12TriaIteratorINS_11DoFAccessorILi2ES6_EEEESR_IdSaIdEESI_IS1B_ESaISK_IKS1B_S1D_EEERNS_19KellyErrorEstimatorILi3ELi3EE13PerThreadDataEE = comdat any

$_ZTIFvRKN6dealii2hp17MappingCollectionILi3ELi3EEERKNS_10DoFHandlerILi3ELi3EEERKNS0_11QCollectionILi2EEERKSt3mapIhPKNS_8FunctionILi3EEESt4lessIhESaISt4pairIKhSH_EEERKSt6vectorIPKNS_11BlockVectorIdEESaISV_EERKSK_IPKSR_IbSaIbEESH_ESK_IjjERSD_INS_12TriaIteratorINS_11DoFAccessorILi2ES6_EEEESR_IdSaIdEESI_IS1B_ESaISK_IKS1B_S1D_EEERNS_19KellyErrorEstimatorILi3ELi3EE13PerThreadDataEE = comdat any

$_ZTIPFvRKN6dealii2hp17MappingCollectionILi3ELi3EEERKNS_10DoFHandlerILi3ELi3EEERKNS0_11QCollectionILi2EEERKSt3mapIhPKNS_8FunctionILi3EEESt4lessIhESaISt4pairIKhSH_EEERKSt6vectorIPKNS_11BlockVectorIdEESaISV_EERKSK_IPKSR_IbSaIbEESH_ESK_IjjERSD_INS_12TriaIteratorINS_11DoFAccessorILi2ES6_EEEESR_IdSaIdEESI_IS1B_ESaISK_IKS1B_S1D_EEERNS_19KellyErrorEstimatorILi3ELi3EE13PerThreadDataEE = comdat any

$_ZZN5boost9function0IvE9assign_toINS_3_bi6bind_tINS3_11unspecifiedENS_8functionIFvRKN6dealii2hp17MappingCollectionILi3ELi3EEERKNS7_10DoFHandlerILi3ELi3EEERKNS8_11QCollectionILi2EEERKSt3mapIhPKNS7_8FunctionILi3EEESt4lessIhESaISt4pairIKhSP_EEERKSt6vectorIPKNS7_11BlockVectorIdEESaIS13_EERKSS_IPKSZ_IbSaIbEESP_ESS_IjjERSL_INS7_12TriaIteratorINS7_11DoFAccessorILi2ESE_EEEESZ_IdSaIdEESQ_IS1J_ESaISS_IKS1J_S1L_EEERNS7_19KellyErrorEstimatorILi3ELi3EE13PerThreadDataEEEENS3_5list9INS_17reference_wrapperISB_EENS1Z_ISF_EENS1Z_ISJ_EENS1Z_ISX_EENS1Z_IS16_EENS1Z_IS1D_EENS3_5valueIS1F_EENS1Z_IS1Q_EENS1Z_IS1U_EEEEEEEEvT_E13stored_vtable = comdat any

$_ZTSN5boost3_bi6bind_tINS0_11unspecifiedENS_8functionIFvRKN6dealii2hp17MappingCollectionILi3ELi3EEERKNS4_10DoFHandlerILi3ELi3EEERKNS5_11QCollectionILi2EEERKSt3mapIhPKNS4_8FunctionILi3EEESt4lessIhESaISt4pairIKhSM_EEERKSt6vectorIPKNS4_11BlockVectorIdEESaIS10_EERKSP_IPKSW_IbSaIbEESM_ESP_IjjERSI_INS4_12TriaIteratorINS4_11DoFAccessorILi2ESB_EEEESW_IdSaIdEESN_IS1G_ESaISP_IKS1G_S1I_EEERNS4_19KellyErrorEstimatorILi3ELi3EE13PerThreadDataEEEENS0_5list9INS_17reference_wrapperIS8_EENS1W_ISC_EENS1W_ISG_EENS1W_ISU_EENS1W_IS13_EENS1W_IS1A_EENS0_5valueIS1C_EENS1W_IS1N_EENS1W_IS1R_EEEEEE = comdat any

$_ZTIN5boost3_bi6bind_tINS0_11unspecifiedENS_8functionIFvRKN6dealii2hp17MappingCollectionILi3ELi3EEERKNS4_10DoFHandlerILi3ELi3EEERKNS5_11QCollectionILi2EEERKSt3mapIhPKNS4_8FunctionILi3EEESt4lessIhESaISt4pairIKhSM_EEERKSt6vectorIPKNS4_11BlockVectorIdEESaIS10_EERKSP_IPKSW_IbSaIbEESM_ESP_IjjERSI_INS4_12TriaIteratorINS4_11DoFAccessorILi2ESB_EEEESW_IdSaIdEESN_IS1G_ESaISP_IKS1G_S1I_EEERNS4_19KellyErrorEstimatorILi3ELi3EE13PerThreadDataEEEENS0_5list9INS_17reference_wrapperIS8_EENS1W_ISC_EENS1W_ISG_EENS1W_ISU_EENS1W_IS13_EENS1W_IS1A_EENS0_5valueIS1C_EENS1W_IS1N_EENS1W_IS1R_EEEEEE = comdat any

$_ZZN5boost9function9IvRKN6dealii2hp17MappingCollectionILi3ELi3EEERKNS1_10DoFHandlerILi3ELi3EEERKNS2_11QCollectionILi2EEERKSt3mapIhPKNS1_8FunctionILi3EEESt4lessIhESaISt4pairIKhSJ_EEERKSt6vectorIPKNS1_11BlockVectorIfEESaISX_EERKSM_IPKST_IbSaIbEESJ_ESM_IjjERSF_INS1_12TriaIteratorINS1_11DoFAccessorILi2ES8_EEEEST_IdSaIdEESK_IS1D_ESaISM_IKS1D_S1F_EEERNS1_19KellyErrorEstimatorILi3ELi3EE13PerThreadDataEE9assign_toIPFvS6_SA_SE_SS_S11_S18_S19_S1L_S1P_EEEvT_E13stored_vtable = comdat any

$_ZTSPFvRKN6dealii2hp17MappingCollectionILi3ELi3EEERKNS_10DoFHandlerILi3ELi3EEERKNS0_11QCollectionILi2EEERKSt3mapIhPKNS_8FunctionILi3EEESt4lessIhESaISt4pairIKhSH_EEERKSt6vectorIPKNS_11BlockVectorIfEESaISV_EERKSK_IPKSR_IbSaIbEESH_ESK_IjjERSD_INS_12TriaIteratorINS_11DoFAccessorILi2ES6_EEEESR_IdSaIdEESI_IS1B_ESaISK_IKS1B_S1D_EEERNS_19KellyErrorEstimatorILi3ELi3EE13PerThreadDataEE = comdat any

$_ZTSFvRKN6dealii2hp17MappingCollectionILi3ELi3EEERKNS_10DoFHandlerILi3ELi3EEERKNS0_11QCollectionILi2EEERKSt3mapIhPKNS_8FunctionILi3EEESt4lessIhESaISt4pairIKhSH_EEERKSt6vectorIPKNS_11BlockVectorIfEESaISV_EERKSK_IPKSR_IbSaIbEESH_ESK_IjjERSD_INS_12TriaIteratorINS_11DoFAccessorILi2ES6_EEEESR_IdSaIdEESI_IS1B_ESaISK_IKS1B_S1D_EEERNS_19KellyErrorEstimatorILi3ELi3EE13PerThreadDataEE = comdat any

$_ZTIFvRKN6dealii2hp17MappingCollectionILi3ELi3EEERKNS_10DoFHandlerILi3ELi3EEERKNS0_11QCollectionILi2EEERKSt3mapIhPKNS_8FunctionILi3EEESt4lessIhESaISt4pairIKhSH_EEERKSt6vectorIPKNS_11BlockVectorIfEESaISV_EERKSK_IPKSR_IbSaIbEESH_ESK_IjjERSD_INS_12TriaIteratorINS_11DoFAccessorILi2ES6_EEEESR_IdSaIdEESI_IS1B_ESaISK_IKS1B_S1D_EEERNS_19KellyErrorEstimatorILi3ELi3EE13PerThreadDataEE = comdat any

$_ZTIPFvRKN6dealii2hp17MappingCollectionILi3ELi3EEERKNS_10DoFHandlerILi3ELi3EEERKNS0_11QCollectionILi2EEERKSt3mapIhPKNS_8FunctionILi3EEESt4lessIhESaISt4pairIKhSH_EEERKSt6vectorIPKNS_11BlockVectorIfEESaISV_EERKSK_IPKSR_IbSaIbEESH_ESK_IjjERSD_INS_12TriaIteratorINS_11DoFAccessorILi2ES6_EEEESR_IdSaIdEESI_IS1B_ESaISK_IKS1B_S1D_EEERNS_19KellyErrorEstimatorILi3ELi3EE13PerThreadDataEE = comdat any

$_ZZN5boost9function0IvE9assign_toINS_3_bi6bind_tINS3_11unspecifiedENS_8functionIFvRKN6dealii2hp17MappingCollectionILi3ELi3EEERKNS7_10DoFHandlerILi3ELi3EEERKNS8_11QCollectionILi2EEERKSt3mapIhPKNS7_8FunctionILi3EEESt4lessIhESaISt4pairIKhSP_EEERKSt6vectorIPKNS7_11BlockVectorIfEESaIS13_EERKSS_IPKSZ_IbSaIbEESP_ESS_IjjERSL_INS7_12TriaIteratorINS7_11DoFAccessorILi2ESE_EEEESZ_IdSaIdEESQ_IS1J_ESaISS_IKS1J_S1L_EEERNS7_19KellyErrorEstimatorILi3ELi3EE13PerThreadDataEEEENS3_5list9INS_17reference_wrapperISB_EENS1Z_ISF_EENS1Z_ISJ_EENS1Z_ISX_EENS1Z_IS16_EENS1Z_IS1D_EENS3_5valueIS1F_EENS1Z_IS1Q_EENS1Z_IS1U_EEEEEEEEvT_E13stored_vtable = comdat any

$_ZTSN5boost3_bi6bind_tINS0_11unspecifiedENS_8functionIFvRKN6dealii2hp17MappingCollectionILi3ELi3EEERKNS4_10DoFHandlerILi3ELi3EEERKNS5_11QCollectionILi2EEERKSt3mapIhPKNS4_8FunctionILi3EEESt4lessIhESaISt4pairIKhSM_EEERKSt6vectorIPKNS4_11BlockVectorIfEESaIS10_EERKSP_IPKSW_IbSaIbEESM_ESP_IjjERSI_INS4_12TriaIteratorINS4_11DoFAccessorILi2ESB_EEEESW_IdSaIdEESN_IS1G_ESaISP_IKS1G_S1I_EEERNS4_19KellyErrorEstimatorILi3ELi3EE13PerThreadDataEEEENS0_5list9INS_17reference_wrapperIS8_EENS1W_ISC_EENS1W_ISG_EENS1W_ISU_EENS1W_IS13_EENS1W_IS1A_EENS0_5valueIS1C_EENS1W_IS1N_EENS1W_IS1R_EEEEEE = comdat any

$_ZTIN5boost3_bi6bind_tINS0_11unspecifiedENS_8functionIFvRKN6dealii2hp17MappingCollectionILi3ELi3EEERKNS4_10DoFHandlerILi3ELi3EEERKNS5_11QCollectionILi2EEERKSt3mapIhPKNS4_8FunctionILi3EEESt4lessIhESaISt4pairIKhSM_EEERKSt6vectorIPKNS4_11BlockVectorIfEESaIS10_EERKSP_IPKSW_IbSaIbEESM_ESP_IjjERSI_INS4_12TriaIteratorINS4_11DoFAccessorILi2ESB_EEEESW_IdSaIdEESN_IS1G_ESaISP_IKS1G_S1I_EEERNS4_19KellyErrorEstimatorILi3ELi3EE13PerThreadDataEEEENS0_5list9INS_17reference_wrapperIS8_EENS1W_ISC_EENS1W_ISG_EENS1W_ISU_EENS1W_IS13_EENS1W_IS1A_EENS0_5valueIS1C_EENS1W_IS1N_EENS1W_IS1R_EEEEEE = comdat any

$_ZZN5boost9function9IvRKN6dealii2hp17MappingCollectionILi3ELi3EEERKNS2_10DoFHandlerILi3ELi3EEERKNS2_11QCollectionILi2EEERKSt3mapIhPKNS1_8FunctionILi3EEESt4lessIhESaISt4pairIKhSJ_EEERKSt6vectorIPKNS1_6VectorIdEESaISX_EERKSM_IPKST_IbSaIbEESJ_ESM_IjjERSF_INS1_12TriaIteratorINS1_11DoFAccessorILi2ES8_EEEEST_IdSaIdEESK_IS1D_ESaISM_IKS1D_S1F_EEERNS1_19KellyErrorEstimatorILi3ELi3EE13PerThreadDataEE9assign_toIPFvS6_SA_SE_SS_S11_S18_S19_S1L_S1P_EEEvT_E13stored_vtable = comdat any

$_ZTSPFvRKN6dealii2hp17MappingCollectionILi3ELi3EEERKNS0_10DoFHandlerILi3ELi3EEERKNS0_11QCollectionILi2EEERKSt3mapIhPKNS_8FunctionILi3EEESt4lessIhESaISt4pairIKhSH_EEERKSt6vectorIPKNS_6VectorIdEESaISV_EERKSK_IPKSR_IbSaIbEESH_ESK_IjjERSD_INS_12TriaIteratorINS_11DoFAccessorILi2ES6_EEEESR_IdSaIdEESI_IS1B_ESaISK_IKS1B_S1D_EEERNS_19KellyErrorEstimatorILi3ELi3EE13PerThreadDataEE = comdat any

$_ZTSFvRKN6dealii2hp17MappingCollectionILi3ELi3EEERKNS0_10DoFHandlerILi3ELi3EEERKNS0_11QCollectionILi2EEERKSt3mapIhPKNS_8FunctionILi3EEESt4lessIhESaISt4pairIKhSH_EEERKSt6vectorIPKNS_6VectorIdEESaISV_EERKSK_IPKSR_IbSaIbEESH_ESK_IjjERSD_INS_12TriaIteratorINS_11DoFAccessorILi2ES6_EEEESR_IdSaIdEESI_IS1B_ESaISK_IKS1B_S1D_EEERNS_19KellyErrorEstimatorILi3ELi3EE13PerThreadDataEE = comdat any

$_ZTIFvRKN6dealii2hp17MappingCollectionILi3ELi3EEERKNS0_10DoFHandlerILi3ELi3EEERKNS0_11QCollectionILi2EEERKSt3mapIhPKNS_8FunctionILi3EEESt4lessIhESaISt4pairIKhSH_EEERKSt6vectorIPKNS_6VectorIdEESaISV_EERKSK_IPKSR_IbSaIbEESH_ESK_IjjERSD_INS_12TriaIteratorINS_11DoFAccessorILi2ES6_EEEESR_IdSaIdEESI_IS1B_ESaISK_IKS1B_S1D_EEERNS_19KellyErrorEstimatorILi3ELi3EE13PerThreadDataEE = comdat any

$_ZTIPFvRKN6dealii2hp17MappingCollectionILi3ELi3EEERKNS0_10DoFHandlerILi3ELi3EEERKNS0_11QCollectionILi2EEERKSt3mapIhPKNS_8FunctionILi3EEESt4lessIhESaISt4pairIKhSH_EEERKSt6vectorIPKNS_6VectorIdEESaISV_EERKSK_IPKSR_IbSaIbEESH_ESK_IjjERSD_INS_12TriaIteratorINS_11DoFAccessorILi2ES6_EEEESR_IdSaIdEESI_IS1B_ESaISK_IKS1B_S1D_EEERNS_19KellyErrorEstimatorILi3ELi3EE13PerThreadDataEE = comdat any

$_ZZN5boost9function0IvE9assign_toINS_3_bi6bind_tINS3_11unspecifiedENS_8functionIFvRKN6dealii2hp17MappingCollectionILi3ELi3EEERKNS8_10DoFHandlerILi3ELi3EEERKNS8_11QCollectionILi2EEERKSt3mapIhPKNS7_8FunctionILi3EEESt4lessIhESaISt4pairIKhSP_EEERKSt6vectorIPKNS7_6VectorIdEESaIS13_EERKSS_IPKSZ_IbSaIbEESP_ESS_IjjERSL_INS7_12TriaIteratorINS7_11DoFAccessorILi2ESE_EEEESZ_IdSaIdEESQ_IS1J_ESaISS_IKS1J_S1L_EEERNS7_19KellyErrorEstimatorILi3ELi3EE13PerThreadDataEEEENS3_5list9INS_17reference_wrapperISB_EENS1Z_ISF_EENS1Z_ISJ_EENS1Z_ISX_EENS1Z_IS16_EENS1Z_IS1D_EENS3_5valueIS1F_EENS1Z_IS1Q_EENS1Z_IS1U_EEEEEEEEvT_E13stored_vtable = comdat any

$_ZTSN5boost3_bi6bind_tINS0_11unspecifiedENS_8functionIFvRKN6dealii2hp17MappingCollectionILi3ELi3EEERKNS5_10DoFHandlerILi3ELi3EEERKNS5_11QCollectionILi2EEERKSt3mapIhPKNS4_8FunctionILi3EEESt4lessIhESaISt4pairIKhSM_EEERKSt6vectorIPKNS4_6VectorIdEESaIS10_EERKSP_IPKSW_IbSaIbEESM_ESP_IjjERSI_INS4_12TriaIteratorINS4_11DoFAccessorILi2ESB_EEEESW_IdSaIdEESN_IS1G_ESaISP_IKS1G_S1I_EEERNS4_19KellyErrorEstimatorILi3ELi3EE13PerThreadDataEEEENS0_5list9INS_17reference_wrapperIS8_EENS1W_ISC_EENS1W_ISG_EENS1W_ISU_EENS1W_IS13_EENS1W_IS1A_EENS0_5valueIS1C_EENS1W_IS1N_EENS1W_IS1R_EEEEEE = comdat any

$_ZTIN5boost3_bi6bind_tINS0_11unspecifiedENS_8functionIFvRKN6dealii2hp17MappingCollectionILi3ELi3EEERKNS5_10DoFHandlerILi3ELi3EEERKNS5_11QCollectionILi2EEERKSt3mapIhPKNS4_8FunctionILi3EEESt4lessIhESaISt4pairIKhSM_EEERKSt6vectorIPKNS4_6VectorIdEESaIS10_EERKSP_IPKSW_IbSaIbEESM_ESP_IjjERSI_INS4_12TriaIteratorINS4_11DoFAccessorILi2ESB_EEEESW_IdSaIdEESN_IS1G_ESaISP_IKS1G_S1I_EEERNS4_19KellyErrorEstimatorILi3ELi3EE13PerThreadDataEEEENS0_5list9INS_17reference_wrapperIS8_EENS1W_ISC_EENS1W_ISG_EENS1W_ISU_EENS1W_IS13_EENS1W_IS1A_EENS0_5valueIS1C_EENS1W_IS1N_EENS1W_IS1R_EEEEEE = comdat any

$_ZZN5boost9function9IvRKN6dealii2hp17MappingCollectionILi3ELi3EEERKNS2_10DoFHandlerILi3ELi3EEERKNS2_11QCollectionILi2EEERKSt3mapIhPKNS1_8FunctionILi3EEESt4lessIhESaISt4pairIKhSJ_EEERKSt6vectorIPKNS1_6VectorIfEESaISX_EERKSM_IPKST_IbSaIbEESJ_ESM_IjjERSF_INS1_12TriaIteratorINS1_11DoFAccessorILi2ES8_EEEEST_IdSaIdEESK_IS1D_ESaISM_IKS1D_S1F_EEERNS1_19KellyErrorEstimatorILi3ELi3EE13PerThreadDataEE9assign_toIPFvS6_SA_SE_SS_S11_S18_S19_S1L_S1P_EEEvT_E13stored_vtable = comdat any

$_ZTSPFvRKN6dealii2hp17MappingCollectionILi3ELi3EEERKNS0_10DoFHandlerILi3ELi3EEERKNS0_11QCollectionILi2EEERKSt3mapIhPKNS_8FunctionILi3EEESt4lessIhESaISt4pairIKhSH_EEERKSt6vectorIPKNS_6VectorIfEESaISV_EERKSK_IPKSR_IbSaIbEESH_ESK_IjjERSD_INS_12TriaIteratorINS_11DoFAccessorILi2ES6_EEEESR_IdSaIdEESI_IS1B_ESaISK_IKS1B_S1D_EEERNS_19KellyErrorEstimatorILi3ELi3EE13PerThreadDataEE = comdat any

$_ZTSFvRKN6dealii2hp17MappingCollectionILi3ELi3EEERKNS0_10DoFHandlerILi3ELi3EEERKNS0_11QCollectionILi2EEERKSt3mapIhPKNS_8FunctionILi3EEESt4lessIhESaISt4pairIKhSH_EEERKSt6vectorIPKNS_6VectorIfEESaISV_EERKSK_IPKSR_IbSaIbEESH_ESK_IjjERSD_INS_12TriaIteratorINS_11DoFAccessorILi2ES6_EEEESR_IdSaIdEESI_IS1B_ESaISK_IKS1B_S1D_EEERNS_19KellyErrorEstimatorILi3ELi3EE13PerThreadDataEE = comdat any

$_ZTIFvRKN6dealii2hp17MappingCollectionILi3ELi3EEERKNS0_10DoFHandlerILi3ELi3EEERKNS0_11QCollectionILi2EEERKSt3mapIhPKNS_8FunctionILi3EEESt4lessIhESaISt4pairIKhSH_EEERKSt6vectorIPKNS_6VectorIfEESaISV_EERKSK_IPKSR_IbSaIbEESH_ESK_IjjERSD_INS_12TriaIteratorINS_11DoFAccessorILi2ES6_EEEESR_IdSaIdEESI_IS1B_ESaISK_IKS1B_S1D_EEERNS_19KellyErrorEstimatorILi3ELi3EE13PerThreadDataEE = comdat any

$_ZTIPFvRKN6dealii2hp17MappingCollectionILi3ELi3EEERKNS0_10DoFHandlerILi3ELi3EEERKNS0_11QCollectionILi2EEERKSt3mapIhPKNS_8FunctionILi3EEESt4lessIhESaISt4pairIKhSH_EEERKSt6vectorIPKNS_6VectorIfEESaISV_EERKSK_IPKSR_IbSaIbEESH_ESK_IjjERSD_INS_12TriaIteratorINS_11DoFAccessorILi2ES6_EEEESR_IdSaIdEESI_IS1B_ESaISK_IKS1B_S1D_EEERNS_19KellyErrorEstimatorILi3ELi3EE13PerThreadDataEE = comdat any

$_ZZN5boost9function0IvE9assign_toINS_3_bi6bind_tINS3_11unspecifiedENS_8functionIFvRKN6dealii2hp17MappingCollectionILi3ELi3EEERKNS8_10DoFHandlerILi3ELi3EEERKNS8_11QCollectionILi2EEERKSt3mapIhPKNS7_8FunctionILi3EEESt4lessIhESaISt4pairIKhSP_EEERKSt6vectorIPKNS7_6VectorIfEESaIS13_EERKSS_IPKSZ_IbSaIbEESP_ESS_IjjERSL_INS7_12TriaIteratorINS7_11DoFAccessorILi2ESE_EEEESZ_IdSaIdEESQ_IS1J_ESaISS_IKS1J_S1L_EEERNS7_19KellyErrorEstimatorILi3ELi3EE13PerThreadDataEEEENS3_5list9INS_17reference_wrapperISB_EENS1Z_ISF_EENS1Z_ISJ_EENS1Z_ISX_EENS1Z_IS16_EENS1Z_IS1D_EENS3_5valueIS1F_EENS1Z_IS1Q_EENS1Z_IS1U_EEEEEEEEvT_E13stored_vtable = comdat any

$_ZTSN5boost3_bi6bind_tINS0_11unspecifiedENS_8functionIFvRKN6dealii2hp17MappingCollectionILi3ELi3EEERKNS5_10DoFHandlerILi3ELi3EEERKNS5_11QCollectionILi2EEERKSt3mapIhPKNS4_8FunctionILi3EEESt4lessIhESaISt4pairIKhSM_EEERKSt6vectorIPKNS4_6VectorIfEESaIS10_EERKSP_IPKSW_IbSaIbEESM_ESP_IjjERSI_INS4_12TriaIteratorINS4_11DoFAccessorILi2ESB_EEEESW_IdSaIdEESN_IS1G_ESaISP_IKS1G_S1I_EEERNS4_19KellyErrorEstimatorILi3ELi3EE13PerThreadDataEEEENS0_5list9INS_17reference_wrapperIS8_EENS1W_ISC_EENS1W_ISG_EENS1W_ISU_EENS1W_IS13_EENS1W_IS1A_EENS0_5valueIS1C_EENS1W_IS1N_EENS1W_IS1R_EEEEEE = comdat any

$_ZTIN5boost3_bi6bind_tINS0_11unspecifiedENS_8functionIFvRKN6dealii2hp17MappingCollectionILi3ELi3EEERKNS5_10DoFHandlerILi3ELi3EEERKNS5_11QCollectionILi2EEERKSt3mapIhPKNS4_8FunctionILi3EEESt4lessIhESaISt4pairIKhSM_EEERKSt6vectorIPKNS4_6VectorIfEESaIS10_EERKSP_IPKSW_IbSaIbEESM_ESP_IjjERSI_INS4_12TriaIteratorINS4_11DoFAccessorILi2ESB_EEEESW_IdSaIdEESN_IS1G_ESaISP_IKS1G_S1I_EEERNS4_19KellyErrorEstimatorILi3ELi3EE13PerThreadDataEEEENS0_5list9INS_17reference_wrapperIS8_EENS1W_ISC_EENS1W_ISG_EENS1W_ISU_EENS1W_IS13_EENS1W_IS1A_EENS0_5valueIS1C_EENS1W_IS1N_EENS1W_IS1R_EEEEEE = comdat any

$_ZZN5boost9function9IvRKN6dealii2hp17MappingCollectionILi3ELi3EEERKNS2_10DoFHandlerILi3ELi3EEERKNS2_11QCollectionILi2EEERKSt3mapIhPKNS1_8FunctionILi3EEESt4lessIhESaISt4pairIKhSJ_EEERKSt6vectorIPKNS1_11BlockVectorIdEESaISX_EERKSM_IPKST_IbSaIbEESJ_ESM_IjjERSF_INS1_12TriaIteratorINS1_11DoFAccessorILi2ES8_EEEEST_IdSaIdEESK_IS1D_ESaISM_IKS1D_S1F_EEERNS1_19KellyErrorEstimatorILi3ELi3EE13PerThreadDataEE9assign_toIPFvS6_SA_SE_SS_S11_S18_S19_S1L_S1P_EEEvT_E13stored_vtable = comdat any

$_ZTSPFvRKN6dealii2hp17MappingCollectionILi3ELi3EEERKNS0_10DoFHandlerILi3ELi3EEERKNS0_11QCollectionILi2EEERKSt3mapIhPKNS_8FunctionILi3EEESt4lessIhESaISt4pairIKhSH_EEERKSt6vectorIPKNS_11BlockVectorIdEESaISV_EERKSK_IPKSR_IbSaIbEESH_ESK_IjjERSD_INS_12TriaIteratorINS_11DoFAccessorILi2ES6_EEEESR_IdSaIdEESI_IS1B_ESaISK_IKS1B_S1D_EEERNS_19KellyErrorEstimatorILi3ELi3EE13PerThreadDataEE = comdat any

$_ZTSFvRKN6dealii2hp17MappingCollectionILi3ELi3EEERKNS0_10DoFHandlerILi3ELi3EEERKNS0_11QCollectionILi2EEERKSt3mapIhPKNS_8FunctionILi3EEESt4lessIhESaISt4pairIKhSH_EEERKSt6vectorIPKNS_11BlockVectorIdEESaISV_EERKSK_IPKSR_IbSaIbEESH_ESK_IjjERSD_INS_12TriaIteratorINS_11DoFAccessorILi2ES6_EEEESR_IdSaIdEESI_IS1B_ESaISK_IKS1B_S1D_EEERNS_19KellyErrorEstimatorILi3ELi3EE13PerThreadDataEE = comdat any

$_ZTIFvRKN6dealii2hp17MappingCollectionILi3ELi3EEERKNS0_10DoFHandlerILi3ELi3EEERKNS0_11QCollectionILi2EEERKSt3mapIhPKNS_8FunctionILi3EEESt4lessIhESaISt4pairIKhSH_EEERKSt6vectorIPKNS_11BlockVectorIdEESaISV_EERKSK_IPKSR_IbSaIbEESH_ESK_IjjERSD_INS_12TriaIteratorINS_11DoFAccessorILi2ES6_EEEESR_IdSaIdEESI_IS1B_ESaISK_IKS1B_S1D_EEERNS_19KellyErrorEstimatorILi3ELi3EE13PerThreadDataEE = comdat any

$_ZTIPFvRKN6dealii2hp17MappingCollectionILi3ELi3EEERKNS0_10DoFHandlerILi3ELi3EEERKNS0_11QCollectionILi2EEERKSt3mapIhPKNS_8FunctionILi3EEESt4lessIhESaISt4pairIKhSH_EEERKSt6vectorIPKNS_11BlockVectorIdEESaISV_EERKSK_IPKSR_IbSaIbEESH_ESK_IjjERSD_INS_12TriaIteratorINS_11DoFAccessorILi2ES6_EEEESR_IdSaIdEESI_IS1B_ESaISK_IKS1B_S1D_EEERNS_19KellyErrorEstimatorILi3ELi3EE13PerThreadDataEE = comdat any

$_ZZN5boost9function0IvE9assign_toINS_3_bi6bind_tINS3_11unspecifiedENS_8functionIFvRKN6dealii2hp17MappingCollectionILi3ELi3EEERKNS8_10DoFHandlerILi3ELi3EEERKNS8_11QCollectionILi2EEERKSt3mapIhPKNS7_8FunctionILi3EEESt4lessIhESaISt4pairIKhSP_EEERKSt6vectorIPKNS7_11BlockVectorIdEESaIS13_EERKSS_IPKSZ_IbSaIbEESP_ESS_IjjERSL_INS7_12TriaIteratorINS7_11DoFAccessorILi2ESE_EEEESZ_IdSaIdEESQ_IS1J_ESaISS_IKS1J_S1L_EEERNS7_19KellyErrorEstimatorILi3ELi3EE13PerThreadDataEEEENS3_5list9INS_17reference_wrapperISB_EENS1Z_ISF_EENS1Z_ISJ_EENS1Z_ISX_EENS1Z_IS16_EENS1Z_IS1D_EENS3_5valueIS1F_EENS1Z_IS1Q_EENS1Z_IS1U_EEEEEEEEvT_E13stored_vtable = comdat any

$_ZTSN5boost3_bi6bind_tINS0_11unspecifiedENS_8functionIFvRKN6dealii2hp17MappingCollectionILi3ELi3EEERKNS5_10DoFHandlerILi3ELi3EEERKNS5_11QCollectionILi2EEERKSt3mapIhPKNS4_8FunctionILi3EEESt4lessIhESaISt4pairIKhSM_EEERKSt6vectorIPKNS4_11BlockVectorIdEESaIS10_EERKSP_IPKSW_IbSaIbEESM_ESP_IjjERSI_INS4_12TriaIteratorINS4_11DoFAccessorILi2ESB_EEEESW_IdSaIdEESN_IS1G_ESaISP_IKS1G_S1I_EEERNS4_19KellyErrorEstimatorILi3ELi3EE13PerThreadDataEEEENS0_5list9INS_17reference_wrapperIS8_EENS1W_ISC_EENS1W_ISG_EENS1W_ISU_EENS1W_IS13_EENS1W_IS1A_EENS0_5valueIS1C_EENS1W_IS1N_EENS1W_IS1R_EEEEEE = comdat any

$_ZTIN5boost3_bi6bind_tINS0_11unspecifiedENS_8functionIFvRKN6dealii2hp17MappingCollectionILi3ELi3EEERKNS5_10DoFHandlerILi3ELi3EEERKNS5_11QCollectionILi2EEERKSt3mapIhPKNS4_8FunctionILi3EEESt4lessIhESaISt4pairIKhSM_EEERKSt6vectorIPKNS4_11BlockVectorIdEESaIS10_EERKSP_IPKSW_IbSaIbEESM_ESP_IjjERSI_INS4_12TriaIteratorINS4_11DoFAccessorILi2ESB_EEEESW_IdSaIdEESN_IS1G_ESaISP_IKS1G_S1I_EEERNS4_19KellyErrorEstimatorILi3ELi3EE13PerThreadDataEEEENS0_5list9INS_17reference_wrapperIS8_EENS1W_ISC_EENS1W_ISG_EENS1W_ISU_EENS1W_IS13_EENS1W_IS1A_EENS0_5valueIS1C_EENS1W_IS1N_EENS1W_IS1R_EEEEEE = comdat any

$_ZZN5boost9function9IvRKN6dealii2hp17MappingCollectionILi3ELi3EEERKNS2_10DoFHandlerILi3ELi3EEERKNS2_11QCollectionILi2EEERKSt3mapIhPKNS1_8FunctionILi3EEESt4lessIhESaISt4pairIKhSJ_EEERKSt6vectorIPKNS1_11BlockVectorIfEESaISX_EERKSM_IPKST_IbSaIbEESJ_ESM_IjjERSF_INS1_12TriaIteratorINS1_11DoFAccessorILi2ES8_EEEEST_IdSaIdEESK_IS1D_ESaISM_IKS1D_S1F_EEERNS1_19KellyErrorEstimatorILi3ELi3EE13PerThreadDataEE9assign_toIPFvS6_SA_SE_SS_S11_S18_S19_S1L_S1P_EEEvT_E13stored_vtable = comdat any

$_ZTSPFvRKN6dealii2hp17MappingCollectionILi3ELi3EEERKNS0_10DoFHandlerILi3ELi3EEERKNS0_11QCollectionILi2EEERKSt3mapIhPKNS_8FunctionILi3EEESt4lessIhESaISt4pairIKhSH_EEERKSt6vectorIPKNS_11BlockVectorIfEESaISV_EERKSK_IPKSR_IbSaIbEESH_ESK_IjjERSD_INS_12TriaIteratorINS_11DoFAccessorILi2ES6_EEEESR_IdSaIdEESI_IS1B_ESaISK_IKS1B_S1D_EEERNS_19KellyErrorEstimatorILi3ELi3EE13PerThreadDataEE = comdat any

$_ZTSFvRKN6dealii2hp17MappingCollectionILi3ELi3EEERKNS0_10DoFHandlerILi3ELi3EEERKNS0_11QCollectionILi2EEERKSt3mapIhPKNS_8FunctionILi3EEESt4lessIhESaISt4pairIKhSH_EEERKSt6vectorIPKNS_11BlockVectorIfEESaISV_EERKSK_IPKSR_IbSaIbEESH_ESK_IjjERSD_INS_12TriaIteratorINS_11DoFAccessorILi2ES6_EEEESR_IdSaIdEESI_IS1B_ESaISK_IKS1B_S1D_EEERNS_19KellyErrorEstimatorILi3ELi3EE13PerThreadDataEE = comdat any

$_ZTIFvRKN6dealii2hp17MappingCollectionILi3ELi3EEERKNS0_10DoFHandlerILi3ELi3EEERKNS0_11QCollectionILi2EEERKSt3mapIhPKNS_8FunctionILi3EEESt4lessIhESaISt4pairIKhSH_EEERKSt6vectorIPKNS_11BlockVectorIfEESaISV_EERKSK_IPKSR_IbSaIbEESH_ESK_IjjERSD_INS_12TriaIteratorINS_11DoFAccessorILi2ES6_EEEESR_IdSaIdEESI_IS1B_ESaISK_IKS1B_S1D_EEERNS_19KellyErrorEstimatorILi3ELi3EE13PerThreadDataEE = comdat any

$_ZTIPFvRKN6dealii2hp17MappingCollectionILi3ELi3EEERKNS0_10DoFHandlerILi3ELi3EEERKNS0_11QCollectionILi2EEERKSt3mapIhPKNS_8FunctionILi3EEESt4lessIhESaISt4pairIKhSH_EEERKSt6vectorIPKNS_11BlockVectorIfEESaISV_EERKSK_IPKSR_IbSaIbEESH_ESK_IjjERSD_INS_12TriaIteratorINS_11DoFAccessorILi2ES6_EEEESR_IdSaIdEESI_IS1B_ESaISK_IKS1B_S1D_EEERNS_19KellyErrorEstimatorILi3ELi3EE13PerThreadDataEE = comdat any

$_ZZN5boost9function0IvE9assign_toINS_3_bi6bind_tINS3_11unspecifiedENS_8functionIFvRKN6dealii2hp17MappingCollectionILi3ELi3EEERKNS8_10DoFHandlerILi3ELi3EEERKNS8_11QCollectionILi2EEERKSt3mapIhPKNS7_8FunctionILi3EEESt4lessIhESaISt4pairIKhSP_EEERKSt6vectorIPKNS7_11BlockVectorIfEESaIS13_EERKSS_IPKSZ_IbSaIbEESP_ESS_IjjERSL_INS7_12TriaIteratorINS7_11DoFAccessorILi2ESE_EEEESZ_IdSaIdEESQ_IS1J_ESaISS_IKS1J_S1L_EEERNS7_19KellyErrorEstimatorILi3ELi3EE13PerThreadDataEEEENS3_5list9INS_17reference_wrapperISB_EENS1Z_ISF_EENS1Z_ISJ_EENS1Z_ISX_EENS1Z_IS16_EENS1Z_IS1D_EENS3_5valueIS1F_EENS1Z_IS1Q_EENS1Z_IS1U_EEEEEEEEvT_E13stored_vtable = comdat any

$_ZTSN5boost3_bi6bind_tINS0_11unspecifiedENS_8functionIFvRKN6dealii2hp17MappingCollectionILi3ELi3EEERKNS5_10DoFHandlerILi3ELi3EEERKNS5_11QCollectionILi2EEERKSt3mapIhPKNS4_8FunctionILi3EEESt4lessIhESaISt4pairIKhSM_EEERKSt6vectorIPKNS4_11BlockVectorIfEESaIS10_EERKSP_IPKSW_IbSaIbEESM_ESP_IjjERSI_INS4_12TriaIteratorINS4_11DoFAccessorILi2ESB_EEEESW_IdSaIdEESN_IS1G_ESaISP_IKS1G_S1I_EEERNS4_19KellyErrorEstimatorILi3ELi3EE13PerThreadDataEEEENS0_5list9INS_17reference_wrapperIS8_EENS1W_ISC_EENS1W_ISG_EENS1W_ISU_EENS1W_IS13_EENS1W_IS1A_EENS0_5valueIS1C_EENS1W_IS1N_EENS1W_IS1R_EEEEEE = comdat any

$_ZTIN5boost3_bi6bind_tINS0_11unspecifiedENS_8functionIFvRKN6dealii2hp17MappingCollectionILi3ELi3EEERKNS5_10DoFHandlerILi3ELi3EEERKNS5_11QCollectionILi2EEERKSt3mapIhPKNS4_8FunctionILi3EEESt4lessIhESaISt4pairIKhSM_EEERKSt6vectorIPKNS4_11BlockVectorIfEESaIS10_EERKSP_IPKSW_IbSaIbEESM_ESP_IjjERSI_INS4_12TriaIteratorINS4_11DoFAccessorILi2ESB_EEEESW_IdSaIdEESN_IS1G_ESaISP_IKS1G_S1I_EEERNS4_19KellyErrorEstimatorILi3ELi3EE13PerThreadDataEEEENS0_5list9INS_17reference_wrapperIS8_EENS1W_ISC_EENS1W_ISG_EENS1W_ISU_EENS1W_IS13_EENS1W_IS1A_EENS0_5valueIS1C_EENS1W_IS1N_EENS1W_IS1R_EEEEEE = comdat any

@_ZTVN6dealii19KellyErrorEstimatorILi3ELi3EE31ExcIncompatibleNumberOfElementsE = weak_odr dso_local unnamed_addr constant { [6 x ptr] } { [6 x ptr] [ptr null, ptr @_ZTIN6dealii19KellyErrorEstimatorILi3ELi3EE31ExcIncompatibleNumberOfElementsE, ptr @_ZN6dealii19KellyErrorEstimatorILi3ELi3EE31ExcIncompatibleNumberOfElementsD2Ev, ptr @_ZN6dealii19KellyErrorEstimatorILi3ELi3EE31ExcIncompatibleNumberOfElementsD0Ev, ptr @_ZNK6dealii13ExceptionBase4whatEv, ptr @_ZNK6dealii19KellyErrorEstimatorILi3ELi3EE31ExcIncompatibleNumberOfElements10print_infoERSo] }, comdat, align 8
@.str = private unnamed_addr constant [24 x i8] c"The number of elements \00", align 1
@.str.9 = private unnamed_addr constant [6 x i8] c" and \00", align 1
@.str.10 = private unnamed_addr constant [30 x i8] c" of the vectors do not match!\00", align 1
@_ZN6dealii15StaticMappingQ1ILi3ELi3EE7mappingE = external global %"class.dealii::MappingQ1", align 8
@_ZTVN6dealii19KellyErrorEstimatorILi3ELi3EE27ExcInvalidBoundaryIndicatorE = weak_odr dso_local unnamed_addr constant { [6 x ptr] } { [6 x ptr] [ptr null, ptr @_ZTIN6dealii19KellyErrorEstimatorILi3ELi3EE27ExcInvalidBoundaryIndicatorE, ptr @_ZN6dealii13ExceptionBaseD2Ev, ptr @_ZN6dealii19KellyErrorEstimatorILi3ELi3EE27ExcInvalidBoundaryIndicatorD0Ev, ptr @_ZNK6dealii13ExceptionBase4whatEv, ptr @_ZNK6dealii13ExceptionBase10print_infoERSo] }, comdat, align 8
@_ZTVN10__cxxabiv120__si_class_type_infoE = external global ptr
@_ZTSN6dealii19KellyErrorEstimatorILi3ELi3EE27ExcInvalidBoundaryIndicatorE = weak_odr dso_local constant [70 x i8] c"N6dealii19KellyErrorEstimatorILi3ELi3EE27ExcInvalidBoundaryIndicatorE\00", comdat, align 1
@_ZTIN6dealii13ExceptionBaseE = external constant ptr
@_ZTIN6dealii19KellyErrorEstimatorILi3ELi3EE27ExcInvalidBoundaryIndicatorE = weak_odr dso_local constant { ptr, ptr, ptr } { ptr getelementptr inbounds (ptr, ptr @_ZTVN10__cxxabiv120__si_class_type_infoE, i64 2), ptr @_ZTSN6dealii19KellyErrorEstimatorILi3ELi3EE27ExcInvalidBoundaryIndicatorE, ptr @_ZTIN6dealii13ExceptionBaseE }, comdat, align 8
@_ZTVN6dealii19KellyErrorEstimatorILi3ELi3EE23ExcInvalidComponentMaskE = weak_odr dso_local unnamed_addr constant { [6 x ptr] } { [6 x ptr] [ptr null, ptr @_ZTIN6dealii19KellyErrorEstimatorILi3ELi3EE23ExcInvalidComponentMaskE, ptr @_ZN6dealii13ExceptionBaseD2Ev, ptr @_ZN6dealii19KellyErrorEstimatorILi3ELi3EE23ExcInvalidComponentMaskD0Ev, ptr @_ZNK6dealii13ExceptionBase4whatEv, ptr @_ZNK6dealii13ExceptionBase10print_infoERSo] }, comdat, align 8
@_ZTSN6dealii19KellyErrorEstimatorILi3ELi3EE23ExcInvalidComponentMaskE = weak_odr dso_local constant [66 x i8] c"N6dealii19KellyErrorEstimatorILi3ELi3EE23ExcInvalidComponentMaskE\00", comdat, align 1
@_ZTIN6dealii19KellyErrorEstimatorILi3ELi3EE23ExcInvalidComponentMaskE = weak_odr dso_local constant { ptr, ptr, ptr } { ptr getelementptr inbounds (ptr, ptr @_ZTVN10__cxxabiv120__si_class_type_infoE, i64 2), ptr @_ZTSN6dealii19KellyErrorEstimatorILi3ELi3EE23ExcInvalidComponentMaskE, ptr @_ZTIN6dealii13ExceptionBaseE }, comdat, align 8
@_ZTVN6dealii19KellyErrorEstimatorILi3ELi3EE21ExcInvalidCoefficientE = weak_odr dso_local unnamed_addr constant { [6 x ptr] } { [6 x ptr] [ptr null, ptr @_ZTIN6dealii19KellyErrorEstimatorILi3ELi3EE21ExcInvalidCoefficientE, ptr @_ZN6dealii13ExceptionBaseD2Ev, ptr @_ZN6dealii19KellyErrorEstimatorILi3ELi3EE21ExcInvalidCoefficientD0Ev, ptr @_ZNK6dealii13ExceptionBase4whatEv, ptr @_ZNK6dealii13ExceptionBase10print_infoERSo] }, comdat, align 8
@_ZTSN6dealii19KellyErrorEstimatorILi3ELi3EE21ExcInvalidCoefficientE = weak_odr dso_local constant [64 x i8] c"N6dealii19KellyErrorEstimatorILi3ELi3EE21ExcInvalidCoefficientE\00", comdat, align 1
@_ZTIN6dealii19KellyErrorEstimatorILi3ELi3EE21ExcInvalidCoefficientE = weak_odr dso_local constant { ptr, ptr, ptr } { ptr getelementptr inbounds (ptr, ptr @_ZTVN10__cxxabiv120__si_class_type_infoE, i64 2), ptr @_ZTSN6dealii19KellyErrorEstimatorILi3ELi3EE21ExcInvalidCoefficientE, ptr @_ZTIN6dealii13ExceptionBaseE }, comdat, align 8
@_ZTVN6dealii19KellyErrorEstimatorILi3ELi3EE26ExcInvalidBoundaryFunctionE = weak_odr dso_local unnamed_addr constant { [6 x ptr] } { [6 x ptr] [ptr null, ptr @_ZTIN6dealii19KellyErrorEstimatorILi3ELi3EE26ExcInvalidBoundaryFunctionE, ptr @_ZN6dealii13ExceptionBaseD2Ev, ptr @_ZN6dealii19KellyErrorEstimatorILi3ELi3EE26ExcInvalidBoundaryFunctionD0Ev, ptr @_ZNK6dealii13ExceptionBase4whatEv, ptr @_ZNK6dealii13ExceptionBase10print_infoERSo] }, comdat, align 8
@_ZTSN6dealii19KellyErrorEstimatorILi3ELi3EE26ExcInvalidBoundaryFunctionE = weak_odr dso_local constant [69 x i8] c"N6dealii19KellyErrorEstimatorILi3ELi3EE26ExcInvalidBoundaryFunctionE\00", comdat, align 1
@_ZTIN6dealii19KellyErrorEstimatorILi3ELi3EE26ExcInvalidBoundaryFunctionE = weak_odr dso_local constant { ptr, ptr, ptr } { ptr getelementptr inbounds (ptr, ptr @_ZTVN10__cxxabiv120__si_class_type_infoE, i64 2), ptr @_ZTSN6dealii19KellyErrorEstimatorILi3ELi3EE26ExcInvalidBoundaryFunctionE, ptr @_ZTIN6dealii13ExceptionBaseE }, comdat, align 8
@_ZTSN6dealii19KellyErrorEstimatorILi3ELi3EE31ExcIncompatibleNumberOfElementsE = weak_odr dso_local constant [74 x i8] c"N6dealii19KellyErrorEstimatorILi3ELi3EE31ExcIncompatibleNumberOfElementsE\00", comdat, align 1
@_ZTIN6dealii19KellyErrorEstimatorILi3ELi3EE31ExcIncompatibleNumberOfElementsE = weak_odr dso_local constant { ptr, ptr, ptr } { ptr getelementptr inbounds (ptr, ptr @_ZTVN10__cxxabiv120__si_class_type_infoE, i64 2), ptr @_ZTSN6dealii19KellyErrorEstimatorILi3ELi3EE31ExcIncompatibleNumberOfElementsE, ptr @_ZTIN6dealii13ExceptionBaseE }, comdat, align 8
@_ZTVN6dealii19KellyErrorEstimatorILi3ELi3EE24ExcInvalidSolutionVectorE = weak_odr dso_local unnamed_addr constant { [6 x ptr] } { [6 x ptr] [ptr null, ptr @_ZTIN6dealii19KellyErrorEstimatorILi3ELi3EE24ExcInvalidSolutionVectorE, ptr @_ZN6dealii13ExceptionBaseD2Ev, ptr @_ZN6dealii19KellyErrorEstimatorILi3ELi3EE24ExcInvalidSolutionVectorD0Ev, ptr @_ZNK6dealii13ExceptionBase4whatEv, ptr @_ZNK6dealii13ExceptionBase10print_infoERSo] }, comdat, align 8
@_ZTSN6dealii19KellyErrorEstimatorILi3ELi3EE24ExcInvalidSolutionVectorE = weak_odr dso_local constant [67 x i8] c"N6dealii19KellyErrorEstimatorILi3ELi3EE24ExcInvalidSolutionVectorE\00", comdat, align 1
@_ZTIN6dealii19KellyErrorEstimatorILi3ELi3EE24ExcInvalidSolutionVectorE = weak_odr dso_local constant { ptr, ptr, ptr } { ptr getelementptr inbounds (ptr, ptr @_ZTVN10__cxxabiv120__si_class_type_infoE, i64 2), ptr @_ZTSN6dealii19KellyErrorEstimatorILi3ELi3EE24ExcInvalidSolutionVectorE, ptr @_ZTIN6dealii13ExceptionBaseE }, comdat, align 8
@_ZTVN6dealii19KellyErrorEstimatorILi3ELi3EE14ExcNoSolutionsE = weak_odr dso_local unnamed_addr constant { [6 x ptr] } { [6 x ptr] [ptr null, ptr @_ZTIN6dealii19KellyErrorEstimatorILi3ELi3EE14ExcNoSolutionsE, ptr @_ZN6dealii13ExceptionBaseD2Ev, ptr @_ZN6dealii19KellyErrorEstimatorILi3ELi3EE14ExcNoSolutionsD0Ev, ptr @_ZNK6dealii13ExceptionBase4whatEv, ptr @_ZNK6dealii13ExceptionBase10print_infoERSo] }, comdat, align 8
@_ZTSN6dealii19KellyErrorEstimatorILi3ELi3EE14ExcNoSolutionsE = weak_odr dso_local constant [57 x i8] c"N6dealii19KellyErrorEstimatorILi3ELi3EE14ExcNoSolutionsE\00", comdat, align 1
@_ZTIN6dealii19KellyErrorEstimatorILi3ELi3EE14ExcNoSolutionsE = weak_odr dso_local constant { ptr, ptr, ptr } { ptr getelementptr inbounds (ptr, ptr @_ZTVN10__cxxabiv120__si_class_type_infoE, i64 2), ptr @_ZTSN6dealii19KellyErrorEstimatorILi3ELi3EE14ExcNoSolutionsE, ptr @_ZTIN6dealii13ExceptionBaseE }, comdat, align 8
@_ZTVN6dealii2hp11QCollectionILi2EEE = linkonce_odr dso_local unnamed_addr constant { [4 x ptr] } { [4 x ptr] [ptr null, ptr @_ZTIN6dealii2hp11QCollectionILi2EEE, ptr @_ZN6dealii2hp11QCollectionILi2EED2Ev, ptr @_ZN6dealii2hp11QCollectionILi2EED0Ev] }, comdat, align 8
@_ZTSN6dealii2hp11QCollectionILi2EEE = linkonce_odr dso_local constant [32 x i8] c"N6dealii2hp11QCollectionILi2EEE\00", comdat, align 1
@_ZTIN6dealii11SubscriptorE = external constant ptr
@_ZTIN6dealii2hp11QCollectionILi2EEE = linkonce_odr dso_local constant { ptr, ptr, ptr } { ptr getelementptr inbounds (ptr, ptr @_ZTVN10__cxxabiv120__si_class_type_infoE, i64 2), ptr @_ZTSN6dealii2hp11QCollectionILi2EEE, ptr @_ZTIN6dealii11SubscriptorE }, comdat, align 8
@_ZTVN6dealii2hp17MappingCollectionILi3ELi3EEE = linkonce_odr dso_local unnamed_addr constant { [4 x ptr] } { [4 x ptr] [ptr null, ptr @_ZTIN6dealii2hp17MappingCollectionILi3ELi3EEE, ptr @_ZN6dealii2hp17MappingCollectionILi3ELi3EED2Ev, ptr @_ZN6dealii2hp17MappingCollectionILi3ELi3EED0Ev] }, comdat, align 8
@_ZTSN6dealii2hp17MappingCollectionILi3ELi3EEE = linkonce_odr dso_local constant [42 x i8] c"N6dealii2hp17MappingCollectionILi3ELi3EEE\00", comdat, align 1
@_ZTIN6dealii2hp17MappingCollectionILi3ELi3EEE = linkonce_odr dso_local constant { ptr, ptr, ptr } { ptr getelementptr inbounds (ptr, ptr @_ZTVN10__cxxabiv120__si_class_type_infoE, i64 2), ptr @_ZTSN6dealii2hp17MappingCollectionILi3ELi3EEE, ptr @_ZTIN6dealii11SubscriptorE }, comdat, align 8
@_ZTVN6dealii6VectorIdEE = linkonce_odr dso_local unnamed_addr constant { [6 x ptr] } { [6 x ptr] [ptr null, ptr @_ZTIN6dealii6VectorIdEE, ptr @_ZN6dealii6VectorIdED2Ev, ptr @_ZN6dealii6VectorIdED0Ev, ptr @_ZN6dealii6VectorIdE6reinitEjb, ptr @_ZN6dealii6VectorIdE4swapERS1_] }, comdat, align 8
@_ZTSN6dealii6VectorIdEE = linkonce_odr dso_local constant [20 x i8] c"N6dealii6VectorIdEE\00", comdat, align 1
@_ZTIN6dealii6VectorIdEE = linkonce_odr dso_local constant { ptr, ptr, ptr } { ptr getelementptr inbounds (ptr, ptr @_ZTVN10__cxxabiv120__si_class_type_infoE, i64 2), ptr @_ZTSN6dealii6VectorIdEE, ptr @_ZTIN6dealii11SubscriptorE }, comdat, align 8
@.str.11 = private unnamed_addr constant [23 x i8] c"vector::_M_fill_insert\00", align 1
@.str.12 = private unnamed_addr constant [49 x i8] c"cannot create std::vector larger than max_size()\00", align 1
@.str.13 = private unnamed_addr constant [26 x i8] c"vector::_M_realloc_insert\00", align 1
@_ZTVN5boost6detail17sp_counted_impl_pIN6dealii10QuadratureILi2EEEEE = linkonce_odr dso_local unnamed_addr constant { [7 x ptr] } { [7 x ptr] [ptr null, ptr @_ZTIN5boost6detail17sp_counted_impl_pIN6dealii10QuadratureILi2EEEEE, ptr @_ZN5boost6detail15sp_counted_baseD2Ev, ptr @_ZN5boost6detail17sp_counted_impl_pIN6dealii10QuadratureILi2EEEED0Ev, ptr @_ZN5boost6detail17sp_counted_impl_pIN6dealii10QuadratureILi2EEEE7disposeEv, ptr @_ZN5boost6detail15sp_counted_base7destroyEv, ptr @_ZN5boost6detail17sp_counted_impl_pIN6dealii10QuadratureILi2EEEE11get_deleterERKSt9type_info] }, comdat, align 8
@_ZTSN5boost6detail17sp_counted_impl_pIN6dealii10QuadratureILi2EEEEE = linkonce_odr dso_local constant [64 x i8] c"N5boost6detail17sp_counted_impl_pIN6dealii10QuadratureILi2EEEEE\00", comdat, align 1
@_ZTVN10__cxxabiv117__class_type_infoE = external global ptr
@_ZTSN5boost6detail15sp_counted_baseE = linkonce_odr dso_local constant [33 x i8] c"N5boost6detail15sp_counted_baseE\00", comdat, align 1
@_ZTIN5boost6detail15sp_counted_baseE = linkonce_odr dso_local constant { ptr, ptr } { ptr getelementptr inbounds (ptr, ptr @_ZTVN10__cxxabiv117__class_type_infoE, i64 2), ptr @_ZTSN5boost6detail15sp_counted_baseE }, comdat, align 8
@_ZTIN5boost6detail17sp_counted_impl_pIN6dealii10QuadratureILi2EEEEE = linkonce_odr dso_local constant { ptr, ptr, ptr } { ptr getelementptr inbounds (ptr, ptr @_ZTVN10__cxxabiv120__si_class_type_infoE, i64 2), ptr @_ZTSN5boost6detail17sp_counted_impl_pIN6dealii10QuadratureILi2EEEEE, ptr @_ZTIN5boost6detail15sp_counted_baseE }, comdat, align 8
@_ZTVN6dealii9TableBaseILi3EN5boost10shared_ptrINS_15FESubfaceValuesILi3ELi3EEEEEEE = linkonce_odr dso_local unnamed_addr constant { [4 x ptr] } { [4 x ptr] [ptr null, ptr @_ZTIN6dealii9TableBaseILi3EN5boost10shared_ptrINS_15FESubfaceValuesILi3ELi3EEEEEEE, ptr @_ZN6dealii9TableBaseILi3EN5boost10shared_ptrINS_15FESubfaceValuesILi3ELi3EEEEEED2Ev, ptr @_ZN6dealii9TableBaseILi3EN5boost10shared_ptrINS_15FESubfaceValuesILi3ELi3EEEEEED0Ev] }, comdat, align 8
@_ZTSN6dealii9TableBaseILi3EN5boost10shared_ptrINS_15FESubfaceValuesILi3ELi3EEEEEEE = linkonce_odr dso_local constant [79 x i8] c"N6dealii9TableBaseILi3EN5boost10shared_ptrINS_15FESubfaceValuesILi3ELi3EEEEEEE\00", comdat, align 1
@_ZTIN6dealii9TableBaseILi3EN5boost10shared_ptrINS_15FESubfaceValuesILi3ELi3EEEEEEE = linkonce_odr dso_local constant { ptr, ptr, ptr } { ptr getelementptr inbounds (ptr, ptr @_ZTVN10__cxxabiv120__si_class_type_infoE, i64 2), ptr @_ZTSN6dealii9TableBaseILi3EN5boost10shared_ptrINS_15FESubfaceValuesILi3ELi3EEEEEEE, ptr @_ZTIN6dealii11SubscriptorE }, comdat, align 8
@_ZTVN6dealii9TableBaseILi3EN5boost10shared_ptrINS_12FEFaceValuesILi3ELi3EEEEEEE = linkonce_odr dso_local unnamed_addr constant { [4 x ptr] } { [4 x ptr] [ptr null, ptr @_ZTIN6dealii9TableBaseILi3EN5boost10shared_ptrINS_12FEFaceValuesILi3ELi3EEEEEEE, ptr @_ZN6dealii9TableBaseILi3EN5boost10shared_ptrINS_12FEFaceValuesILi3ELi3EEEEEED2Ev, ptr @_ZN6dealii9TableBaseILi3EN5boost10shared_ptrINS_12FEFaceValuesILi3ELi3EEEEEED0Ev] }, comdat, align 8
@_ZTSN6dealii9TableBaseILi3EN5boost10shared_ptrINS_12FEFaceValuesILi3ELi3EEEEEEE = linkonce_odr dso_local constant [76 x i8] c"N6dealii9TableBaseILi3EN5boost10shared_ptrINS_12FEFaceValuesILi3ELi3EEEEEEE\00", comdat, align 1
@_ZTIN6dealii9TableBaseILi3EN5boost10shared_ptrINS_12FEFaceValuesILi3ELi3EEEEEEE = linkonce_odr dso_local constant { ptr, ptr, ptr } { ptr getelementptr inbounds (ptr, ptr @_ZTVN10__cxxabiv120__si_class_type_infoE, i64 2), ptr @_ZTSN6dealii9TableBaseILi3EN5boost10shared_ptrINS_12FEFaceValuesILi3ELi3EEEEEEE, ptr @_ZTIN6dealii11SubscriptorE }, comdat, align 8
@_ZTVN6dealii2hp12FECollectionILi3ELi3EEE = linkonce_odr dso_local unnamed_addr constant { [4 x ptr] } { [4 x ptr] [ptr null, ptr @_ZTIN6dealii2hp12FECollectionILi3ELi3EEE, ptr @_ZN6dealii2hp12FECollectionILi3ELi3EED2Ev, ptr @_ZN6dealii2hp12FECollectionILi3ELi3EED0Ev] }, comdat, align 8
@_ZTSN6dealii2hp12FECollectionILi3ELi3EEE = linkonce_odr dso_local constant [37 x i8] c"N6dealii2hp12FECollectionILi3ELi3EEE\00", comdat, align 1
@_ZTIN6dealii2hp12FECollectionILi3ELi3EEE = linkonce_odr dso_local constant { ptr, ptr, ptr } { ptr getelementptr inbounds (ptr, ptr @_ZTVN10__cxxabiv120__si_class_type_infoE, i64 2), ptr @_ZTSN6dealii2hp12FECollectionILi3ELi3EEE, ptr @_ZTIN6dealii11SubscriptorE }, comdat, align 8
@_ZZN5boost9function9IvRKN6dealii2hp17MappingCollectionILi3ELi3EEERKNS1_10DoFHandlerILi3ELi3EEERKNS2_11QCollectionILi2EEERKSt3mapIhPKNS1_8FunctionILi3EEESt4lessIhESaISt4pairIKhSJ_EEERKSt6vectorIPKNS1_6VectorIdEESaISX_EERKSM_IPKST_IbSaIbEESJ_ESM_IjjERSF_INS1_12TriaIteratorINS1_11DoFAccessorILi2ES8_EEEEST_IdSaIdEESK_IS1D_ESaISM_IKS1D_S1F_EEERNS1_19KellyErrorEstimatorILi3ELi3EE13PerThreadDataEE9assign_toIPFvS6_SA_SE_SS_S11_S18_S19_S1L_S1P_EEEvT_E13stored_vtable = linkonce_odr dso_local global %"struct.boost::detail::function::basic_vtable9" { %"struct.boost::detail::function::vtable_base" { ptr @_ZN5boost6detail8function15functor_managerIPFvRKN6dealii2hp17MappingCollectionILi3ELi3EEERKNS3_10DoFHandlerILi3ELi3EEERKNS4_11QCollectionILi2EEERKSt3mapIhPKNS3_8FunctionILi3EEESt4lessIhESaISt4pairIKhSL_EEERKSt6vectorIPKNS3_6VectorIdEESaISZ_EERKSO_IPKSV_IbSaIbEESL_ESO_IjjERSH_INS3_12TriaIteratorINS3_11DoFAccessorILi2ESA_EEEESV_IdSaIdEESM_IS1F_ESaISO_IKS1F_S1H_EEERNS3_19KellyErrorEstimatorILi3ELi3EE13PerThreadDataEEE6manageERKNS1_15function_bufferERS1V_NS1_30functor_manager_operation_typeE }, ptr @_ZN5boost6detail8function22void_function_invoker9IPFvRKN6dealii2hp17MappingCollectionILi3ELi3EEERKNS3_10DoFHandlerILi3ELi3EEERKNS4_11QCollectionILi2EEERKSt3mapIhPKNS3_8FunctionILi3EEESt4lessIhESaISt4pairIKhSL_EEERKSt6vectorIPKNS3_6VectorIdEESaISZ_EERKSO_IPKSV_IbSaIbEESL_ESO_IjjERSH_INS3_12TriaIteratorINS3_11DoFAccessorILi2ESA_EEEESV_IdSaIdEESM_IS1F_ESaISO_IKS1F_S1H_EEERNS3_19KellyErrorEstimatorILi3ELi3EE13PerThreadDataEEvS8_SC_SG_SU_S13_S1A_S1B_S1N_S1R_E6invokeERNS1_15function_bufferES8_SC_SG_SU_S13_S1A_S1B_S1N_S1R_ }, comdat, align 8
@_ZTVN10__cxxabiv119__pointer_type_infoE = external global ptr
@_ZTSPFvRKN6dealii2hp17MappingCollectionILi3ELi3EEERKNS_10DoFHandlerILi3ELi3EEERKNS0_11QCollectionILi2EEERKSt3mapIhPKNS_8FunctionILi3EEESt4lessIhESaISt4pairIKhSH_EEERKSt6vectorIPKNS_6VectorIdEESaISV_EERKSK_IPKSR_IbSaIbEESH_ESK_IjjERSD_INS_12TriaIteratorINS_11DoFAccessorILi2ES6_EEEESR_IdSaIdEESI_IS1B_ESaISK_IKS1B_S1D_EEERNS_19KellyErrorEstimatorILi3ELi3EE13PerThreadDataEE = linkonce_odr dso_local constant [369 x i8] c"PFvRKN6dealii2hp17MappingCollectionILi3ELi3EEERKNS_10DoFHandlerILi3ELi3EEERKNS0_11QCollectionILi2EEERKSt3mapIhPKNS_8FunctionILi3EEESt4lessIhESaISt4pairIKhSH_EEERKSt6vectorIPKNS_6VectorIdEESaISV_EERKSK_IPKSR_IbSaIbEESH_ESK_IjjERSD_INS_12TriaIteratorINS_11DoFAccessorILi2ES6_EEEESR_IdSaIdEESI_IS1B_ESaISK_IKS1B_S1D_EEERNS_19KellyErrorEstimatorILi3ELi3EE13PerThreadDataEE\00", comdat, align 1
@_ZTVN10__cxxabiv120__function_type_infoE = external global ptr
@_ZTSFvRKN6dealii2hp17MappingCollectionILi3ELi3EEERKNS_10DoFHandlerILi3ELi3EEERKNS0_11QCollectionILi2EEERKSt3mapIhPKNS_8FunctionILi3EEESt4lessIhESaISt4pairIKhSH_EEERKSt6vectorIPKNS_6VectorIdEESaISV_EERKSK_IPKSR_IbSaIbEESH_ESK_IjjERSD_INS_12TriaIteratorINS_11DoFAccessorILi2ES6_EEEESR_IdSaIdEESI_IS1B_ESaISK_IKS1B_S1D_EEERNS_19KellyErrorEstimatorILi3ELi3EE13PerThreadDataEE = linkonce_odr dso_local constant [368 x i8] c"FvRKN6dealii2hp17MappingCollectionILi3ELi3EEERKNS_10DoFHandlerILi3ELi3EEERKNS0_11QCollectionILi2EEERKSt3mapIhPKNS_8FunctionILi3EEESt4lessIhESaISt4pairIKhSH_EEERKSt6vectorIPKNS_6VectorIdEESaISV_EERKSK_IPKSR_IbSaIbEESH_ESK_IjjERSD_INS_12TriaIteratorINS_11DoFAccessorILi2ES6_EEEESR_IdSaIdEESI_IS1B_ESaISK_IKS1B_S1D_EEERNS_19KellyErrorEstimatorILi3ELi3EE13PerThreadDataEE\00", comdat, align 1
@_ZTIFvRKN6dealii2hp17MappingCollectionILi3ELi3EEERKNS_10DoFHandlerILi3ELi3EEERKNS0_11QCollectionILi2EEERKSt3mapIhPKNS_8FunctionILi3EEESt4lessIhESaISt4pairIKhSH_EEERKSt6vectorIPKNS_6VectorIdEESaISV_EERKSK_IPKSR_IbSaIbEESH_ESK_IjjERSD_INS_12TriaIteratorINS_11DoFAccessorILi2ES6_EEEESR_IdSaIdEESI_IS1B_ESaISK_IKS1B_S1D_EEERNS_19KellyErrorEstimatorILi3ELi3EE13PerThreadDataEE = linkonce_odr dso_local constant { ptr, ptr } { ptr getelementptr inbounds (ptr, ptr @_ZTVN10__cxxabiv120__function_type_infoE, i64 2), ptr @_ZTSFvRKN6dealii2hp17MappingCollectionILi3ELi3EEERKNS_10DoFHandlerILi3ELi3EEERKNS0_11QCollectionILi2EEERKSt3mapIhPKNS_8FunctionILi3EEESt4lessIhESaISt4pairIKhSH_EEERKSt6vectorIPKNS_6VectorIdEESaISV_EERKSK_IPKSR_IbSaIbEESH_ESK_IjjERSD_INS_12TriaIteratorINS_11DoFAccessorILi2ES6_EEEESR_IdSaIdEESI_IS1B_ESaISK_IKS1B_S1D_EEERNS_19KellyErrorEstimatorILi3ELi3EE13PerThreadDataEE }, comdat, align 8
@_ZTIPFvRKN6dealii2hp17MappingCollectionILi3ELi3EEERKNS_10DoFHandlerILi3ELi3EEERKNS0_11QCollectionILi2EEERKSt3mapIhPKNS_8FunctionILi3EEESt4lessIhESaISt4pairIKhSH_EEERKSt6vectorIPKNS_6VectorIdEESaISV_EERKSK_IPKSR_IbSaIbEESH_ESK_IjjERSD_INS_12TriaIteratorINS_11DoFAccessorILi2ES6_EEEESR_IdSaIdEESI_IS1B_ESaISK_IKS1B_S1D_EEERNS_19KellyErrorEstimatorILi3ELi3EE13PerThreadDataEE = linkonce_odr dso_local constant { ptr, ptr, i32, ptr } { ptr getelementptr inbounds (ptr, ptr @_ZTVN10__cxxabiv119__pointer_type_infoE, i64 2), ptr @_ZTSPFvRKN6dealii2hp17MappingCollectionILi3ELi3EEERKNS_10DoFHandlerILi3ELi3EEERKNS0_11QCollectionILi2EEERKSt3mapIhPKNS_8FunctionILi3EEESt4lessIhESaISt4pairIKhSH_EEERKSt6vectorIPKNS_6VectorIdEESaISV_EERKSK_IPKSR_IbSaIbEESH_ESK_IjjERSD_INS_12TriaIteratorINS_11DoFAccessorILi2ES6_EEEESR_IdSaIdEESI_IS1B_ESaISK_IKS1B_S1D_EEERNS_19KellyErrorEstimatorILi3ELi3EE13PerThreadDataEE, i32 0, ptr @_ZTIFvRKN6dealii2hp17MappingCollectionILi3ELi3EEERKNS_10DoFHandlerILi3ELi3EEERKNS0_11QCollectionILi2EEERKSt3mapIhPKNS_8FunctionILi3EEESt4lessIhESaISt4pairIKhSH_EEERKSt6vectorIPKNS_6VectorIdEESaISV_EERKSK_IPKSR_IbSaIbEESH_ESK_IjjERSD_INS_12TriaIteratorINS_11DoFAccessorILi2ES6_EEEESR_IdSaIdEESI_IS1B_ESaISK_IKS1B_S1D_EEERNS_19KellyErrorEstimatorILi3ELi3EE13PerThreadDataEE }, comdat, align 8
@_ZZN5boost9function0IvE9assign_toINS_3_bi6bind_tINS3_11unspecifiedENS_8functionIFvRKN6dealii2hp17MappingCollectionILi3ELi3EEERKNS7_10DoFHandlerILi3ELi3EEERKNS8_11QCollectionILi2EEERKSt3mapIhPKNS7_8FunctionILi3EEESt4lessIhESaISt4pairIKhSP_EEERKSt6vectorIPKNS7_6VectorIdEESaIS13_EERKSS_IPKSZ_IbSaIbEESP_ESS_IjjERSL_INS7_12TriaIteratorINS7_11DoFAccessorILi2ESE_EEEESZ_IdSaIdEESQ_IS1J_ESaISS_IKS1J_S1L_EEERNS7_19KellyErrorEstimatorILi3ELi3EE13PerThreadDataEEEENS3_5list9INS_17reference_wrapperISB_EENS1Z_ISF_EENS1Z_ISJ_EENS1Z_ISX_EENS1Z_IS16_EENS1Z_IS1D_EENS3_5valueIS1F_EENS1Z_IS1Q_EENS1Z_IS1U_EEEEEEEEvT_E13stored_vtable = linkonce_odr dso_local global %"struct.boost::detail::function::basic_vtable0" { %"struct.boost::detail::function::vtable_base" { ptr @_ZN5boost6detail8function15functor_managerINS_3_bi6bind_tINS3_11unspecifiedENS_8functionIFvRKN6dealii2hp17MappingCollectionILi3ELi3EEERKNS7_10DoFHandlerILi3ELi3EEERKNS8_11QCollectionILi2EEERKSt3mapIhPKNS7_8FunctionILi3EEESt4lessIhESaISt4pairIKhSP_EEERKSt6vectorIPKNS7_6VectorIdEESaIS13_EERKSS_IPKSZ_IbSaIbEESP_ESS_IjjERSL_INS7_12TriaIteratorINS7_11DoFAccessorILi2ESE_EEEESZ_IdSaIdEESQ_IS1J_ESaISS_IKS1J_S1L_EEERNS7_19KellyErrorEstimatorILi3ELi3EE13PerThreadDataEEEENS3_5list9INS_17reference_wrapperISB_EENS1Z_ISF_EENS1Z_ISJ_EENS1Z_ISX_EENS1Z_IS16_EENS1Z_IS1D_EENS3_5valueIS1F_EENS1Z_IS1Q_EENS1Z_IS1U_EEEEEEE6manageERKNS1_15function_bufferERS2D_NS1_30functor_manager_operation_typeE }, ptr @_ZN5boost6detail8function26void_function_obj_invoker0INS_3_bi6bind_tINS3_11unspecifiedENS_8functionIFvRKN6dealii2hp17MappingCollectionILi3ELi3EEERKNS7_10DoFHandlerILi3ELi3EEERKNS8_11QCollectionILi2EEERKSt3mapIhPKNS7_8FunctionILi3EEESt4lessIhESaISt4pairIKhSP_EEERKSt6vectorIPKNS7_6VectorIdEESaIS13_EERKSS_IPKSZ_IbSaIbEESP_ESS_IjjERSL_INS7_12TriaIteratorINS7_11DoFAccessorILi2ESE_EEEESZ_IdSaIdEESQ_IS1J_ESaISS_IKS1J_S1L_EEERNS7_19KellyErrorEstimatorILi3ELi3EE13PerThreadDataEEEENS3_5list9INS_17reference_wrapperISB_EENS1Z_ISF_EENS1Z_ISJ_EENS1Z_ISX_EENS1Z_IS16_EENS1Z_IS1D_EENS3_5valueIS1F_EENS1Z_IS1Q_EENS1Z_IS1U_EEEEEEvE6invokeERNS1_15function_bufferE }, comdat, align 8
@_ZTSN5boost3_bi6bind_tINS0_11unspecifiedENS_8functionIFvRKN6dealii2hp17MappingCollectionILi3ELi3EEERKNS4_10DoFHandlerILi3ELi3EEERKNS5_11QCollectionILi2EEERKSt3mapIhPKNS4_8FunctionILi3EEESt4lessIhESaISt4pairIKhSM_EEERKSt6vectorIPKNS4_6VectorIdEESaIS10_EERKSP_IPKSW_IbSaIbEESM_ESP_IjjERSI_INS4_12TriaIteratorINS4_11DoFAccessorILi2ESB_EEEESW_IdSaIdEESN_IS1G_ESaISP_IKS1G_S1I_EEERNS4_19KellyErrorEstimatorILi3ELi3EE13PerThreadDataEEEENS0_5list9INS_17reference_wrapperIS8_EENS1W_ISC_EENS1W_ISG_EENS1W_ISU_EENS1W_IS13_EENS1W_IS1A_EENS0_5valueIS1C_EENS1W_IS1N_EENS1W_IS1R_EEEEEE = linkonce_odr dso_local constant [568 x i8] c"N5boost3_bi6bind_tINS0_11unspecifiedENS_8functionIFvRKN6dealii2hp17MappingCollectionILi3ELi3EEERKNS4_10DoFHandlerILi3ELi3EEERKNS5_11QCollectionILi2EEERKSt3mapIhPKNS4_8FunctionILi3EEESt4lessIhESaISt4pairIKhSM_EEERKSt6vectorIPKNS4_6VectorIdEESaIS10_EERKSP_IPKSW_IbSaIbEESM_ESP_IjjERSI_INS4_12TriaIteratorINS4_11DoFAccessorILi2ESB_EEEESW_IdSaIdEESN_IS1G_ESaISP_IKS1G_S1I_EEERNS4_19KellyErrorEstimatorILi3ELi3EE13PerThreadDataEEEENS0_5list9INS_17reference_wrapperIS8_EENS1W_ISC_EENS1W_ISG_EENS1W_ISU_EENS1W_IS13_EENS1W_IS1A_EENS0_5valueIS1C_EENS1W_IS1N_EENS1W_IS1R_EEEEEE\00", comdat, align 1
@_ZTIN5boost3_bi6bind_tINS0_11unspecifiedENS_8functionIFvRKN6dealii2hp17MappingCollectionILi3ELi3EEERKNS4_10DoFHandlerILi3ELi3EEERKNS5_11QCollectionILi2EEERKSt3mapIhPKNS4_8FunctionILi3EEESt4lessIhESaISt4pairIKhSM_EEERKSt6vectorIPKNS4_6VectorIdEESaIS10_EERKSP_IPKSW_IbSaIbEESM_ESP_IjjERSI_INS4_12TriaIteratorINS4_11DoFAccessorILi2ESB_EEEESW_IdSaIdEESN_IS1G_ESaISP_IKS1G_S1I_EEERNS4_19KellyErrorEstimatorILi3ELi3EE13PerThreadDataEEEENS0_5list9INS_17reference_wrapperIS8_EENS1W_ISC_EENS1W_ISG_EENS1W_ISU_EENS1W_IS13_EENS1W_IS1A_EENS0_5valueIS1C_EENS1W_IS1N_EENS1W_IS1R_EEEEEE = linkonce_odr dso_local constant { ptr, ptr } { ptr getelementptr inbounds (ptr, ptr @_ZTVN10__cxxabiv117__class_type_infoE, i64 2), ptr @_ZTSN5boost3_bi6bind_tINS0_11unspecifiedENS_8functionIFvRKN6dealii2hp17MappingCollectionILi3ELi3EEERKNS4_10DoFHandlerILi3ELi3EEERKNS5_11QCollectionILi2EEERKSt3mapIhPKNS4_8FunctionILi3EEESt4lessIhESaISt4pairIKhSM_EEERKSt6vectorIPKNS4_6VectorIdEESaIS10_EERKSP_IPKSW_IbSaIbEESM_ESP_IjjERSI_INS4_12TriaIteratorINS4_11DoFAccessorILi2ESB_EEEESW_IdSaIdEESN_IS1G_ESaISP_IKS1G_S1I_EEERNS4_19KellyErrorEstimatorILi3ELi3EE13PerThreadDataEEEENS0_5list9INS_17reference_wrapperIS8_EENS1W_ISC_EENS1W_ISG_EENS1W_ISU_EENS1W_IS13_EENS1W_IS1A_EENS0_5valueIS1C_EENS1W_IS1N_EENS1W_IS1R_EEEEEE }, comdat, align 8
@_ZTVN10__cxxabiv121__vmi_class_type_infoE = external global ptr
@_ZTSN5boost16exception_detail10clone_implINS0_19error_info_injectorINS_17bad_function_callEEEEE = linkonce_odr dso_local constant [92 x i8] c"N5boost16exception_detail10clone_implINS0_19error_info_injectorINS_17bad_function_callEEEEE\00", comdat, align 1
@_ZTSN5boost16exception_detail19error_info_injectorINS_17bad_function_callEEE = linkonce_odr dso_local constant [73 x i8] c"N5boost16exception_detail19error_info_injectorINS_17bad_function_callEEE\00", comdat, align 1
@_ZTSN5boost17bad_function_callE = linkonce_odr dso_local constant [28 x i8] c"N5boost17bad_function_callE\00", comdat, align 1
@_ZTISt13runtime_error = external constant ptr
@_ZTIN5boost17bad_function_callE = linkonce_odr dso_local constant { ptr, ptr, ptr } { ptr getelementptr inbounds (ptr, ptr @_ZTVN10__cxxabiv120__si_class_type_infoE, i64 2), ptr @_ZTSN5boost17bad_function_callE, ptr @_ZTISt13runtime_error }, comdat, align 8
@_ZTSN5boost9exceptionE = linkonce_odr dso_local constant [19 x i8] c"N5boost9exceptionE\00", comdat, align 1
@_ZTIN5boost9exceptionE = linkonce_odr dso_local constant { ptr, ptr } { ptr getelementptr inbounds (ptr, ptr @_ZTVN10__cxxabiv117__class_type_infoE, i64 2), ptr @_ZTSN5boost9exceptionE }, comdat, align 8
@_ZTIN5boost16exception_detail19error_info_injectorINS_17bad_function_callEEE = linkonce_odr dso_local constant { ptr, ptr, i32, i32, ptr, i64, ptr, i64 } { ptr getelementptr inbounds (ptr, ptr @_ZTVN10__cxxabiv121__vmi_class_type_infoE, i64 2), ptr @_ZTSN5boost16exception_detail19error_info_injectorINS_17bad_function_callEEE, i32 0, i32 2, ptr @_ZTIN5boost17bad_function_callE, i64 2, ptr @_ZTIN5boost9exceptionE, i64 4098 }, comdat, align 8
@_ZTSN5boost16exception_detail10clone_baseE = linkonce_odr dso_local constant [39 x i8] c"N5boost16exception_detail10clone_baseE\00", comdat, align 1
@_ZTIN5boost16exception_detail10clone_baseE = linkonce_odr dso_local constant { ptr, ptr } { ptr getelementptr inbounds (ptr, ptr @_ZTVN10__cxxabiv117__class_type_infoE, i64 2), ptr @_ZTSN5boost16exception_detail10clone_baseE }, comdat, align 8
@_ZTIN5boost16exception_detail10clone_implINS0_19error_info_injectorINS_17bad_function_callEEEEE = linkonce_odr dso_local constant { ptr, ptr, i32, i32, ptr, i64, ptr, i64 } { ptr getelementptr inbounds (ptr, ptr @_ZTVN10__cxxabiv121__vmi_class_type_infoE, i64 2), ptr @_ZTSN5boost16exception_detail10clone_implINS0_19error_info_injectorINS_17bad_function_callEEEEE, i32 0, i32 2, ptr @_ZTIN5boost16exception_detail19error_info_injectorINS_17bad_function_callEEE, i64 2, ptr @_ZTIN5boost16exception_detail10clone_baseE, i64 14338 }, comdat, align 8
@_ZTVN5boost16exception_detail10clone_implINS0_19error_info_injectorINS_17bad_function_callEEEEE = linkonce_odr dso_local unnamed_addr constant { [7 x ptr], [4 x ptr], [6 x ptr] } { [7 x ptr] [ptr null, ptr @_ZTIN5boost16exception_detail10clone_implINS0_19error_info_injectorINS_17bad_function_callEEEEE, ptr @_ZN5boost16exception_detail10clone_implINS0_19error_info_injectorINS_17bad_function_callEEEED2Ev, ptr @_ZN5boost16exception_detail10clone_implINS0_19error_info_injectorINS_17bad_function_callEEEED0Ev, ptr @_ZNKSt13runtime_error4whatEv, ptr @_ZNK5boost16exception_detail10clone_implINS0_19error_info_injectorINS_17bad_function_callEEEE5cloneEv, ptr @_ZNK5boost16exception_detail10clone_implINS0_19error_info_injectorINS_17bad_function_callEEEE7rethrowEv], [4 x ptr] [ptr inttoptr (i64 -16 to ptr), ptr @_ZTIN5boost16exception_detail10clone_implINS0_19error_info_injectorINS_17bad_function_callEEEEE, ptr @_ZThn16_N5boost16exception_detail10clone_implINS0_19error_info_injectorINS_17bad_function_callEEEED1Ev, ptr @_ZThn16_N5boost16exception_detail10clone_implINS0_19error_info_injectorINS_17bad_function_callEEEED0Ev], [6 x ptr] [ptr inttoptr (i64 -56 to ptr), ptr @_ZTIN5boost16exception_detail10clone_implINS0_19error_info_injectorINS_17bad_function_callEEEEE, ptr @_ZThn56_NK5boost16exception_detail10clone_implINS0_19error_info_injectorINS_17bad_function_callEEEE5cloneEv, ptr @_ZThn56_NK5boost16exception_detail10clone_implINS0_19error_info_injectorINS_17bad_function_callEEEE7rethrowEv, ptr @_ZThn56_N5boost16exception_detail10clone_implINS0_19error_info_injectorINS_17bad_function_callEEEED1Ev, ptr @_ZThn56_N5boost16exception_detail10clone_implINS0_19error_info_injectorINS_17bad_function_callEEEED0Ev] }, comdat, align 8
@_ZTVN5boost16exception_detail19error_info_injectorINS_17bad_function_callEEE = linkonce_odr dso_local unnamed_addr constant { [5 x ptr], [4 x ptr] } { [5 x ptr] [ptr null, ptr @_ZTIN5boost16exception_detail19error_info_injectorINS_17bad_function_callEEE, ptr @_ZN5boost16exception_detail19error_info_injectorINS_17bad_function_callEED2Ev, ptr @_ZN5boost16exception_detail19error_info_injectorINS_17bad_function_callEED0Ev, ptr @_ZNKSt13runtime_error4whatEv], [4 x ptr] [ptr inttoptr (i64 -16 to ptr), ptr @_ZTIN5boost16exception_detail19error_info_injectorINS_17bad_function_callEEE, ptr @_ZThn16_N5boost16exception_detail19error_info_injectorINS_17bad_function_callEED1Ev, ptr @_ZThn16_N5boost16exception_detail19error_info_injectorINS_17bad_function_callEED0Ev] }, comdat, align 8
@_ZTVN5boost17bad_function_callE = linkonce_odr dso_local unnamed_addr constant { [5 x ptr] } { [5 x ptr] [ptr null, ptr @_ZTIN5boost17bad_function_callE, ptr @_ZNSt13runtime_errorD2Ev, ptr @_ZN5boost17bad_function_callD0Ev, ptr @_ZNKSt13runtime_error4whatEv] }, comdat, align 8
@_ZTVN5boost9exceptionE = linkonce_odr dso_local unnamed_addr constant { [4 x ptr] } { [4 x ptr] [ptr null, ptr @_ZTIN5boost9exceptionE, ptr @__cxa_pure_virtual, ptr @__cxa_pure_virtual] }, comdat, align 8
@.str.14 = private unnamed_addr constant [30 x i8] c"call to empty boost::function\00", align 1
@_ZTVN5boost6detail17sp_counted_impl_pIN6dealii7Threads8internal16ThreadDescriptorIvEEEE = linkonce_odr dso_local unnamed_addr constant { [7 x ptr] } { [7 x ptr] [ptr null, ptr @_ZTIN5boost6detail17sp_counted_impl_pIN6dealii7Threads8internal16ThreadDescriptorIvEEEE, ptr @_ZN5boost6detail15sp_counted_baseD2Ev, ptr @_ZN5boost6detail17sp_counted_impl_pIN6dealii7Threads8internal16ThreadDescriptorIvEEED0Ev, ptr @_ZN5boost6detail17sp_counted_impl_pIN6dealii7Threads8internal16ThreadDescriptorIvEEE7disposeEv, ptr @_ZN5boost6detail15sp_counted_base7destroyEv, ptr @_ZN5boost6detail17sp_counted_impl_pIN6dealii7Threads8internal16ThreadDescriptorIvEEE11get_deleterERKSt9type_info] }, comdat, align 8
@_ZTSN5boost6detail17sp_counted_impl_pIN6dealii7Threads8internal16ThreadDescriptorIvEEEE = linkonce_odr dso_local constant [84 x i8] c"N5boost6detail17sp_counted_impl_pIN6dealii7Threads8internal16ThreadDescriptorIvEEEE\00", comdat, align 1
@_ZTIN5boost6detail17sp_counted_impl_pIN6dealii7Threads8internal16ThreadDescriptorIvEEEE = linkonce_odr dso_local constant { ptr, ptr, ptr } { ptr getelementptr inbounds (ptr, ptr @_ZTVN10__cxxabiv120__si_class_type_infoE, i64 2), ptr @_ZTSN5boost6detail17sp_counted_impl_pIN6dealii7Threads8internal16ThreadDescriptorIvEEEE, ptr @_ZTIN5boost6detail15sp_counted_baseE }, comdat, align 8
@.str.16 = private unnamed_addr constant [33 x i8] c"include/base/thread_management.h\00", align 1
@.str.17 = private unnamed_addr constant [1 x i8] zeroinitializer, align 1
@.str.18 = private unnamed_addr constant [18 x i8] c"thread_descriptor\00", align 1
@.str.19 = private unnamed_addr constant [14 x i8] c"ExcNoThread()\00", align 1
@_ZTSN6dealii7Threads6ThreadIvE11ExcNoThreadE = linkonce_odr dso_local constant [41 x i8] c"N6dealii7Threads6ThreadIvE11ExcNoThreadE\00", comdat, align 1
@_ZTIN6dealii7Threads6ThreadIvE11ExcNoThreadE = linkonce_odr dso_local constant { ptr, ptr, ptr } { ptr getelementptr inbounds (ptr, ptr @_ZTVN10__cxxabiv120__si_class_type_infoE, i64 2), ptr @_ZTSN6dealii7Threads6ThreadIvE11ExcNoThreadE, ptr @_ZTIN6dealii13ExceptionBaseE }, comdat, align 8
@_ZTVN6dealii7Threads6ThreadIvE11ExcNoThreadE = linkonce_odr dso_local unnamed_addr constant { [6 x ptr] } { [6 x ptr] [ptr null, ptr @_ZTIN6dealii7Threads6ThreadIvE11ExcNoThreadE, ptr @_ZN6dealii13ExceptionBaseD2Ev, ptr @_ZN6dealii7Threads6ThreadIvE11ExcNoThreadD0Ev, ptr @_ZNK6dealii13ExceptionBase4whatEv, ptr @_ZNK6dealii13ExceptionBase10print_infoERSo] }, comdat, align 8
@_ZZN6dealii8internal12TriaAccessor14Implementation12vertex_indexILi3ELi3EEEjRKNS_12TriaAccessorILi2EXT_EXT0_EEEjE12switch_table = linkonce_odr dso_local local_unnamed_addr constant [2 x [2 x i32]] [[2 x i32] [i32 1, i32 0], [2 x i32] [i32 0, i32 1]], comdat, align 16
@_ZZN5boost9function9IvRKN6dealii2hp17MappingCollectionILi3ELi3EEERKNS1_10DoFHandlerILi3ELi3EEERKNS2_11QCollectionILi2EEERKSt3mapIhPKNS1_8FunctionILi3EEESt4lessIhESaISt4pairIKhSJ_EEERKSt6vectorIPKNS1_6VectorIfEESaISX_EERKSM_IPKST_IbSaIbEESJ_ESM_IjjERSF_INS1_12TriaIteratorINS1_11DoFAccessorILi2ES8_EEEEST_IdSaIdEESK_IS1D_ESaISM_IKS1D_S1F_EEERNS1_19KellyErrorEstimatorILi3ELi3EE13PerThreadDataEE9assign_toIPFvS6_SA_SE_SS_S11_S18_S19_S1L_S1P_EEEvT_E13stored_vtable = linkonce_odr dso_local global %"struct.boost::detail::function::basic_vtable9.262" { %"struct.boost::detail::function::vtable_base" { ptr @_ZN5boost6detail8function15functor_managerIPFvRKN6dealii2hp17MappingCollectionILi3ELi3EEERKNS3_10DoFHandlerILi3ELi3EEERKNS4_11QCollectionILi2EEERKSt3mapIhPKNS3_8FunctionILi3EEESt4lessIhESaISt4pairIKhSL_EEERKSt6vectorIPKNS3_6VectorIfEESaISZ_EERKSO_IPKSV_IbSaIbEESL_ESO_IjjERSH_INS3_12TriaIteratorINS3_11DoFAccessorILi2ESA_EEEESV_IdSaIdEESM_IS1F_ESaISO_IKS1F_S1H_EEERNS3_19KellyErrorEstimatorILi3ELi3EE13PerThreadDataEEE6manageERKNS1_15function_bufferERS1V_NS1_30functor_manager_operation_typeE }, ptr @_ZN5boost6detail8function22void_function_invoker9IPFvRKN6dealii2hp17MappingCollectionILi3ELi3EEERKNS3_10DoFHandlerILi3ELi3EEERKNS4_11QCollectionILi2EEERKSt3mapIhPKNS3_8FunctionILi3EEESt4lessIhESaISt4pairIKhSL_EEERKSt6vectorIPKNS3_6VectorIfEESaISZ_EERKSO_IPKSV_IbSaIbEESL_ESO_IjjERSH_INS3_12TriaIteratorINS3_11DoFAccessorILi2ESA_EEEESV_IdSaIdEESM_IS1F_ESaISO_IKS1F_S1H_EEERNS3_19KellyErrorEstimatorILi3ELi3EE13PerThreadDataEEvS8_SC_SG_SU_S13_S1A_S1B_S1N_S1R_E6invokeERNS1_15function_bufferES8_SC_SG_SU_S13_S1A_S1B_S1N_S1R_ }, comdat, align 8
@_ZTSPFvRKN6dealii2hp17MappingCollectionILi3ELi3EEERKNS_10DoFHandlerILi3ELi3EEERKNS0_11QCollectionILi2EEERKSt3mapIhPKNS_8FunctionILi3EEESt4lessIhESaISt4pairIKhSH_EEERKSt6vectorIPKNS_6VectorIfEESaISV_EERKSK_IPKSR_IbSaIbEESH_ESK_IjjERSD_INS_12TriaIteratorINS_11DoFAccessorILi2ES6_EEEESR_IdSaIdEESI_IS1B_ESaISK_IKS1B_S1D_EEERNS_19KellyErrorEstimatorILi3ELi3EE13PerThreadDataEE = linkonce_odr dso_local constant [369 x i8] c"PFvRKN6dealii2hp17MappingCollectionILi3ELi3EEERKNS_10DoFHandlerILi3ELi3EEERKNS0_11QCollectionILi2EEERKSt3mapIhPKNS_8FunctionILi3EEESt4lessIhESaISt4pairIKhSH_EEERKSt6vectorIPKNS_6VectorIfEESaISV_EERKSK_IPKSR_IbSaIbEESH_ESK_IjjERSD_INS_12TriaIteratorINS_11DoFAccessorILi2ES6_EEEESR_IdSaIdEESI_IS1B_ESaISK_IKS1B_S1D_EEERNS_19KellyErrorEstimatorILi3ELi3EE13PerThreadDataEE\00", comdat, align 1
@_ZTSFvRKN6dealii2hp17MappingCollectionILi3ELi3EEERKNS_10DoFHandlerILi3ELi3EEERKNS0_11QCollectionILi2EEERKSt3mapIhPKNS_8FunctionILi3EEESt4lessIhESaISt4pairIKhSH_EEERKSt6vectorIPKNS_6VectorIfEESaISV_EERKSK_IPKSR_IbSaIbEESH_ESK_IjjERSD_INS_12TriaIteratorINS_11DoFAccessorILi2ES6_EEEESR_IdSaIdEESI_IS1B_ESaISK_IKS1B_S1D_EEERNS_19KellyErrorEstimatorILi3ELi3EE13PerThreadDataEE = linkonce_odr dso_local constant [368 x i8] c"FvRKN6dealii2hp17MappingCollectionILi3ELi3EEERKNS_10DoFHandlerILi3ELi3EEERKNS0_11QCollectionILi2EEERKSt3mapIhPKNS_8FunctionILi3EEESt4lessIhESaISt4pairIKhSH_EEERKSt6vectorIPKNS_6VectorIfEESaISV_EERKSK_IPKSR_IbSaIbEESH_ESK_IjjERSD_INS_12TriaIteratorINS_11DoFAccessorILi2ES6_EEEESR_IdSaIdEESI_IS1B_ESaISK_IKS1B_S1D_EEERNS_19KellyErrorEstimatorILi3ELi3EE13PerThreadDataEE\00", comdat, align 1
@_ZTIFvRKN6dealii2hp17MappingCollectionILi3ELi3EEERKNS_10DoFHandlerILi3ELi3EEERKNS0_11QCollectionILi2EEERKSt3mapIhPKNS_8FunctionILi3EEESt4lessIhESaISt4pairIKhSH_EEERKSt6vectorIPKNS_6VectorIfEESaISV_EERKSK_IPKSR_IbSaIbEESH_ESK_IjjERSD_INS_12TriaIteratorINS_11DoFAccessorILi2ES6_EEEESR_IdSaIdEESI_IS1B_ESaISK_IKS1B_S1D_EEERNS_19KellyErrorEstimatorILi3ELi3EE13PerThreadDataEE = linkonce_odr dso_local constant { ptr, ptr } { ptr getelementptr inbounds (ptr, ptr @_ZTVN10__cxxabiv120__function_type_infoE, i64 2), ptr @_ZTSFvRKN6dealii2hp17MappingCollectionILi3ELi3EEERKNS_10DoFHandlerILi3ELi3EEERKNS0_11QCollectionILi2EEERKSt3mapIhPKNS_8FunctionILi3EEESt4lessIhESaISt4pairIKhSH_EEERKSt6vectorIPKNS_6VectorIfEESaISV_EERKSK_IPKSR_IbSaIbEESH_ESK_IjjERSD_INS_12TriaIteratorINS_11DoFAccessorILi2ES6_EEEESR_IdSaIdEESI_IS1B_ESaISK_IKS1B_S1D_EEERNS_19KellyErrorEstimatorILi3ELi3EE13PerThreadDataEE }, comdat, align 8
@_ZTIPFvRKN6dealii2hp17MappingCollectionILi3ELi3EEERKNS_10DoFHandlerILi3ELi3EEERKNS0_11QCollectionILi2EEERKSt3mapIhPKNS_8FunctionILi3EEESt4lessIhESaISt4pairIKhSH_EEERKSt6vectorIPKNS_6VectorIfEESaISV_EERKSK_IPKSR_IbSaIbEESH_ESK_IjjERSD_INS_12TriaIteratorINS_11DoFAccessorILi2ES6_EEEESR_IdSaIdEESI_IS1B_ESaISK_IKS1B_S1D_EEERNS_19KellyErrorEstimatorILi3ELi3EE13PerThreadDataEE = linkonce_odr dso_local constant { ptr, ptr, i32, ptr } { ptr getelementptr inbounds (ptr, ptr @_ZTVN10__cxxabiv119__pointer_type_infoE, i64 2), ptr @_ZTSPFvRKN6dealii2hp17MappingCollectionILi3ELi3EEERKNS_10DoFHandlerILi3ELi3EEERKNS0_11QCollectionILi2EEERKSt3mapIhPKNS_8FunctionILi3EEESt4lessIhESaISt4pairIKhSH_EEERKSt6vectorIPKNS_6VectorIfEESaISV_EERKSK_IPKSR_IbSaIbEESH_ESK_IjjERSD_INS_12TriaIteratorINS_11DoFAccessorILi2ES6_EEEESR_IdSaIdEESI_IS1B_ESaISK_IKS1B_S1D_EEERNS_19KellyErrorEstimatorILi3ELi3EE13PerThreadDataEE, i32 0, ptr @_ZTIFvRKN6dealii2hp17MappingCollectionILi3ELi3EEERKNS_10DoFHandlerILi3ELi3EEERKNS0_11QCollectionILi2EEERKSt3mapIhPKNS_8FunctionILi3EEESt4lessIhESaISt4pairIKhSH_EEERKSt6vectorIPKNS_6VectorIfEESaISV_EERKSK_IPKSR_IbSaIbEESH_ESK_IjjERSD_INS_12TriaIteratorINS_11DoFAccessorILi2ES6_EEEESR_IdSaIdEESI_IS1B_ESaISK_IKS1B_S1D_EEERNS_19KellyErrorEstimatorILi3ELi3EE13PerThreadDataEE }, comdat, align 8
@_ZZN5boost9function0IvE9assign_toINS_3_bi6bind_tINS3_11unspecifiedENS_8functionIFvRKN6dealii2hp17MappingCollectionILi3ELi3EEERKNS7_10DoFHandlerILi3ELi3EEERKNS8_11QCollectionILi2EEERKSt3mapIhPKNS7_8FunctionILi3EEESt4lessIhESaISt4pairIKhSP_EEERKSt6vectorIPKNS7_6VectorIfEESaIS13_EERKSS_IPKSZ_IbSaIbEESP_ESS_IjjERSL_INS7_12TriaIteratorINS7_11DoFAccessorILi2ESE_EEEESZ_IdSaIdEESQ_IS1J_ESaISS_IKS1J_S1L_EEERNS7_19KellyErrorEstimatorILi3ELi3EE13PerThreadDataEEEENS3_5list9INS_17reference_wrapperISB_EENS1Z_ISF_EENS1Z_ISJ_EENS1Z_ISX_EENS1Z_IS16_EENS1Z_IS1D_EENS3_5valueIS1F_EENS1Z_IS1Q_EENS1Z_IS1U_EEEEEEEEvT_E13stored_vtable = linkonce_odr dso_local global %"struct.boost::detail::function::basic_vtable0" { %"struct.boost::detail::function::vtable_base" { ptr @_ZN5boost6detail8function15functor_managerINS_3_bi6bind_tINS3_11unspecifiedENS_8functionIFvRKN6dealii2hp17MappingCollectionILi3ELi3EEERKNS7_10DoFHandlerILi3ELi3EEERKNS8_11QCollectionILi2EEERKSt3mapIhPKNS7_8FunctionILi3EEESt4lessIhESaISt4pairIKhSP_EEERKSt6vectorIPKNS7_6VectorIfEESaIS13_EERKSS_IPKSZ_IbSaIbEESP_ESS_IjjERSL_INS7_12TriaIteratorINS7_11DoFAccessorILi2ESE_EEEESZ_IdSaIdEESQ_IS1J_ESaISS_IKS1J_S1L_EEERNS7_19KellyErrorEstimatorILi3ELi3EE13PerThreadDataEEEENS3_5list9INS_17reference_wrapperISB_EENS1Z_ISF_EENS1Z_ISJ_EENS1Z_ISX_EENS1Z_IS16_EENS1Z_IS1D_EENS3_5valueIS1F_EENS1Z_IS1Q_EENS1Z_IS1U_EEEEEEE6manageERKNS1_15function_bufferERS2D_NS1_30functor_manager_operation_typeE }, ptr @_ZN5boost6detail8function26void_function_obj_invoker0INS_3_bi6bind_tINS3_11unspecifiedENS_8functionIFvRKN6dealii2hp17MappingCollectionILi3ELi3EEERKNS7_10DoFHandlerILi3ELi3EEERKNS8_11QCollectionILi2EEERKSt3mapIhPKNS7_8FunctionILi3EEESt4lessIhESaISt4pairIKhSP_EEERKSt6vectorIPKNS7_6VectorIfEESaIS13_EERKSS_IPKSZ_IbSaIbEESP_ESS_IjjERSL_INS7_12TriaIteratorINS7_11DoFAccessorILi2ESE_EEEESZ_IdSaIdEESQ_IS1J_ESaISS_IKS1J_S1L_EEERNS7_19KellyErrorEstimatorILi3ELi3EE13PerThreadDataEEEENS3_5list9INS_17reference_wrapperISB_EENS1Z_ISF_EENS1Z_ISJ_EENS1Z_ISX_EENS1Z_IS16_EENS1Z_IS1D_EENS3_5valueIS1F_EENS1Z_IS1Q_EENS1Z_IS1U_EEEEEEvE6invokeERNS1_15function_bufferE }, comdat, align 8
@_ZTSN5boost3_bi6bind_tINS0_11unspecifiedENS_8functionIFvRKN6dealii2hp17MappingCollectionILi3ELi3EEERKNS4_10DoFHandlerILi3ELi3EEERKNS5_11QCollectionILi2EEERKSt3mapIhPKNS4_8FunctionILi3EEESt4lessIhESaISt4pairIKhSM_EEERKSt6vectorIPKNS4_6VectorIfEESaIS10_EERKSP_IPKSW_IbSaIbEESM_ESP_IjjERSI_INS4_12TriaIteratorINS4_11DoFAccessorILi2ESB_EEEESW_IdSaIdEESN_IS1G_ESaISP_IKS1G_S1I_EEERNS4_19KellyErrorEstimatorILi3ELi3EE13PerThreadDataEEEENS0_5list9INS_17reference_wrapperIS8_EENS1W_ISC_EENS1W_ISG_EENS1W_ISU_EENS1W_IS13_EENS1W_IS1A_EENS0_5valueIS1C_EENS1W_IS1N_EENS1W_IS1R_EEEEEE = linkonce_odr dso_local constant [568 x i8] c"N5boost3_bi6bind_tINS0_11unspecifiedENS_8functionIFvRKN6dealii2hp17MappingCollectionILi3ELi3EEERKNS4_10DoFHandlerILi3ELi3EEERKNS5_11QCollectionILi2EEERKSt3mapIhPKNS4_8FunctionILi3EEESt4lessIhESaISt4pairIKhSM_EEERKSt6vectorIPKNS4_6VectorIfEESaIS10_EERKSP_IPKSW_IbSaIbEESM_ESP_IjjERSI_INS4_12TriaIteratorINS4_11DoFAccessorILi2ESB_EEEESW_IdSaIdEESN_IS1G_ESaISP_IKS1G_S1I_EEERNS4_19KellyErrorEstimatorILi3ELi3EE13PerThreadDataEEEENS0_5list9INS_17reference_wrapperIS8_EENS1W_ISC_EENS1W_ISG_EENS1W_ISU_EENS1W_IS13_EENS1W_IS1A_EENS0_5valueIS1C_EENS1W_IS1N_EENS1W_IS1R_EEEEEE\00", comdat, align 1
@_ZTIN5boost3_bi6bind_tINS0_11unspecifiedENS_8functionIFvRKN6dealii2hp17MappingCollectionILi3ELi3EEERKNS4_10DoFHandlerILi3ELi3EEERKNS5_11QCollectionILi2EEERKSt3mapIhPKNS4_8FunctionILi3EEESt4lessIhESaISt4pairIKhSM_EEERKSt6vectorIPKNS4_6VectorIfEESaIS10_EERKSP_IPKSW_IbSaIbEESM_ESP_IjjERSI_INS4_12TriaIteratorINS4_11DoFAccessorILi2ESB_EEEESW_IdSaIdEESN_IS1G_ESaISP_IKS1G_S1I_EEERNS4_19KellyErrorEstimatorILi3ELi3EE13PerThreadDataEEEENS0_5list9INS_17reference_wrapperIS8_EENS1W_ISC_EENS1W_ISG_EENS1W_ISU_EENS1W_IS13_EENS1W_IS1A_EENS0_5valueIS1C_EENS1W_IS1N_EENS1W_IS1R_EEEEEE = linkonce_odr dso_local constant { ptr, ptr } { ptr getelementptr inbounds (ptr, ptr @_ZTVN10__cxxabiv117__class_type_infoE, i64 2), ptr @_ZTSN5boost3_bi6bind_tINS0_11unspecifiedENS_8functionIFvRKN6dealii2hp17MappingCollectionILi3ELi3EEERKNS4_10DoFHandlerILi3ELi3EEERKNS5_11QCollectionILi2EEERKSt3mapIhPKNS4_8FunctionILi3EEESt4lessIhESaISt4pairIKhSM_EEERKSt6vectorIPKNS4_6VectorIfEESaIS10_EERKSP_IPKSW_IbSaIbEESM_ESP_IjjERSI_INS4_12TriaIteratorINS4_11DoFAccessorILi2ESB_EEEESW_IdSaIdEESN_IS1G_ESaISP_IKS1G_S1I_EEERNS4_19KellyErrorEstimatorILi3ELi3EE13PerThreadDataEEEENS0_5list9INS_17reference_wrapperIS8_EENS1W_ISC_EENS1W_ISG_EENS1W_ISU_EENS1W_IS13_EENS1W_IS1A_EENS0_5valueIS1C_EENS1W_IS1N_EENS1W_IS1R_EEEEEE }, comdat, align 8
@_ZZN5boost9function9IvRKN6dealii2hp17MappingCollectionILi3ELi3EEERKNS1_10DoFHandlerILi3ELi3EEERKNS2_11QCollectionILi2EEERKSt3mapIhPKNS1_8FunctionILi3EEESt4lessIhESaISt4pairIKhSJ_EEERKSt6vectorIPKNS1_11BlockVectorIdEESaISX_EERKSM_IPKST_IbSaIbEESJ_ESM_IjjERSF_INS1_12TriaIteratorINS1_11DoFAccessorILi2ES8_EEEEST_IdSaIdEESK_IS1D_ESaISM_IKS1D_S1F_EEERNS1_19KellyErrorEstimatorILi3ELi3EE13PerThreadDataEE9assign_toIPFvS6_SA_SE_SS_S11_S18_S19_S1L_S1P_EEEvT_E13stored_vtable = linkonce_odr dso_local global %"struct.boost::detail::function::basic_vtable9.263" { %"struct.boost::detail::function::vtable_base" { ptr @_ZN5boost6detail8function15functor_managerIPFvRKN6dealii2hp17MappingCollectionILi3ELi3EEERKNS3_10DoFHandlerILi3ELi3EEERKNS4_11QCollectionILi2EEERKSt3mapIhPKNS3_8FunctionILi3EEESt4lessIhESaISt4pairIKhSL_EEERKSt6vectorIPKNS3_11BlockVectorIdEESaISZ_EERKSO_IPKSV_IbSaIbEESL_ESO_IjjERSH_INS3_12TriaIteratorINS3_11DoFAccessorILi2ESA_EEEESV_IdSaIdEESM_IS1F_ESaISO_IKS1F_S1H_EEERNS3_19KellyErrorEstimatorILi3ELi3EE13PerThreadDataEEE6manageERKNS1_15function_bufferERS1V_NS1_30functor_manager_operation_typeE }, ptr @_ZN5boost6detail8function22void_function_invoker9IPFvRKN6dealii2hp17MappingCollectionILi3ELi3EEERKNS3_10DoFHandlerILi3ELi3EEERKNS4_11QCollectionILi2EEERKSt3mapIhPKNS3_8FunctionILi3EEESt4lessIhESaISt4pairIKhSL_EEERKSt6vectorIPKNS3_11BlockVectorIdEESaISZ_EERKSO_IPKSV_IbSaIbEESL_ESO_IjjERSH_INS3_12TriaIteratorINS3_11DoFAccessorILi2ESA_EEEESV_IdSaIdEESM_IS1F_ESaISO_IKS1F_S1H_EEERNS3_19KellyErrorEstimatorILi3ELi3EE13PerThreadDataEEvS8_SC_SG_SU_S13_S1A_S1B_S1N_S1R_E6invokeERNS1_15function_bufferES8_SC_SG_SU_S13_S1A_S1B_S1N_S1R_ }, comdat, align 8
@_ZTSPFvRKN6dealii2hp17MappingCollectionILi3ELi3EEERKNS_10DoFHandlerILi3ELi3EEERKNS0_11QCollectionILi2EEERKSt3mapIhPKNS_8FunctionILi3EEESt4lessIhESaISt4pairIKhSH_EEERKSt6vectorIPKNS_11BlockVectorIdEESaISV_EERKSK_IPKSR_IbSaIbEESH_ESK_IjjERSD_INS_12TriaIteratorINS_11DoFAccessorILi2ES6_EEEESR_IdSaIdEESI_IS1B_ESaISK_IKS1B_S1D_EEERNS_19KellyErrorEstimatorILi3ELi3EE13PerThreadDataEE = linkonce_odr dso_local constant [375 x i8] c"PFvRKN6dealii2hp17MappingCollectionILi3ELi3EEERKNS_10DoFHandlerILi3ELi3EEERKNS0_11QCollectionILi2EEERKSt3mapIhPKNS_8FunctionILi3EEESt4lessIhESaISt4pairIKhSH_EEERKSt6vectorIPKNS_11BlockVectorIdEESaISV_EERKSK_IPKSR_IbSaIbEESH_ESK_IjjERSD_INS_12TriaIteratorINS_11DoFAccessorILi2ES6_EEEESR_IdSaIdEESI_IS1B_ESaISK_IKS1B_S1D_EEERNS_19KellyErrorEstimatorILi3ELi3EE13PerThreadDataEE\00", comdat, align 1
@_ZTSFvRKN6dealii2hp17MappingCollectionILi3ELi3EEERKNS_10DoFHandlerILi3ELi3EEERKNS0_11QCollectionILi2EEERKSt3mapIhPKNS_8FunctionILi3EEESt4lessIhESaISt4pairIKhSH_EEERKSt6vectorIPKNS_11BlockVectorIdEESaISV_EERKSK_IPKSR_IbSaIbEESH_ESK_IjjERSD_INS_12TriaIteratorINS_11DoFAccessorILi2ES6_EEEESR_IdSaIdEESI_IS1B_ESaISK_IKS1B_S1D_EEERNS_19KellyErrorEstimatorILi3ELi3EE13PerThreadDataEE = linkonce_odr dso_local constant [374 x i8] c"FvRKN6dealii2hp17MappingCollectionILi3ELi3EEERKNS_10DoFHandlerILi3ELi3EEERKNS0_11QCollectionILi2EEERKSt3mapIhPKNS_8FunctionILi3EEESt4lessIhESaISt4pairIKhSH_EEERKSt6vectorIPKNS_11BlockVectorIdEESaISV_EERKSK_IPKSR_IbSaIbEESH_ESK_IjjERSD_INS_12TriaIteratorINS_11DoFAccessorILi2ES6_EEEESR_IdSaIdEESI_IS1B_ESaISK_IKS1B_S1D_EEERNS_19KellyErrorEstimatorILi3ELi3EE13PerThreadDataEE\00", comdat, align 1
@_ZTIFvRKN6dealii2hp17MappingCollectionILi3ELi3EEERKNS_10DoFHandlerILi3ELi3EEERKNS0_11QCollectionILi2EEERKSt3mapIhPKNS_8FunctionILi3EEESt4lessIhESaISt4pairIKhSH_EEERKSt6vectorIPKNS_11BlockVectorIdEESaISV_EERKSK_IPKSR_IbSaIbEESH_ESK_IjjERSD_INS_12TriaIteratorINS_11DoFAccessorILi2ES6_EEEESR_IdSaIdEESI_IS1B_ESaISK_IKS1B_S1D_EEERNS_19KellyErrorEstimatorILi3ELi3EE13PerThreadDataEE = linkonce_odr dso_local constant { ptr, ptr } { ptr getelementptr inbounds (ptr, ptr @_ZTVN10__cxxabiv120__function_type_infoE, i64 2), ptr @_ZTSFvRKN6dealii2hp17MappingCollectionILi3ELi3EEERKNS_10DoFHandlerILi3ELi3EEERKNS0_11QCollectionILi2EEERKSt3mapIhPKNS_8FunctionILi3EEESt4lessIhESaISt4pairIKhSH_EEERKSt6vectorIPKNS_11BlockVectorIdEESaISV_EERKSK_IPKSR_IbSaIbEESH_ESK_IjjERSD_INS_12TriaIteratorINS_11DoFAccessorILi2ES6_EEEESR_IdSaIdEESI_IS1B_ESaISK_IKS1B_S1D_EEERNS_19KellyErrorEstimatorILi3ELi3EE13PerThreadDataEE }, comdat, align 8
@_ZTIPFvRKN6dealii2hp17MappingCollectionILi3ELi3EEERKNS_10DoFHandlerILi3ELi3EEERKNS0_11QCollectionILi2EEERKSt3mapIhPKNS_8FunctionILi3EEESt4lessIhESaISt4pairIKhSH_EEERKSt6vectorIPKNS_11BlockVectorIdEESaISV_EERKSK_IPKSR_IbSaIbEESH_ESK_IjjERSD_INS_12TriaIteratorINS_11DoFAccessorILi2ES6_EEEESR_IdSaIdEESI_IS1B_ESaISK_IKS1B_S1D_EEERNS_19KellyErrorEstimatorILi3ELi3EE13PerThreadDataEE = linkonce_odr dso_local constant { ptr, ptr, i32, ptr } { ptr getelementptr inbounds (ptr, ptr @_ZTVN10__cxxabiv119__pointer_type_infoE, i64 2), ptr @_ZTSPFvRKN6dealii2hp17MappingCollectionILi3ELi3EEERKNS_10DoFHandlerILi3ELi3EEERKNS0_11QCollectionILi2EEERKSt3mapIhPKNS_8FunctionILi3EEESt4lessIhESaISt4pairIKhSH_EEERKSt6vectorIPKNS_11BlockVectorIdEESaISV_EERKSK_IPKSR_IbSaIbEESH_ESK_IjjERSD_INS_12TriaIteratorINS_11DoFAccessorILi2ES6_EEEESR_IdSaIdEESI_IS1B_ESaISK_IKS1B_S1D_EEERNS_19KellyErrorEstimatorILi3ELi3EE13PerThreadDataEE, i32 0, ptr @_ZTIFvRKN6dealii2hp17MappingCollectionILi3ELi3EEERKNS_10DoFHandlerILi3ELi3EEERKNS0_11QCollectionILi2EEERKSt3mapIhPKNS_8FunctionILi3EEESt4lessIhESaISt4pairIKhSH_EEERKSt6vectorIPKNS_11BlockVectorIdEESaISV_EERKSK_IPKSR_IbSaIbEESH_ESK_IjjERSD_INS_12TriaIteratorINS_11DoFAccessorILi2ES6_EEEESR_IdSaIdEESI_IS1B_ESaISK_IKS1B_S1D_EEERNS_19KellyErrorEstimatorILi3ELi3EE13PerThreadDataEE }, comdat, align 8
@_ZZN5boost9function0IvE9assign_toINS_3_bi6bind_tINS3_11unspecifiedENS_8functionIFvRKN6dealii2hp17MappingCollectionILi3ELi3EEERKNS7_10DoFHandlerILi3ELi3EEERKNS8_11QCollectionILi2EEERKSt3mapIhPKNS7_8FunctionILi3EEESt4lessIhESaISt4pairIKhSP_EEERKSt6vectorIPKNS7_11BlockVectorIdEESaIS13_EERKSS_IPKSZ_IbSaIbEESP_ESS_IjjERSL_INS7_12TriaIteratorINS7_11DoFAccessorILi2ESE_EEEESZ_IdSaIdEESQ_IS1J_ESaISS_IKS1J_S1L_EEERNS7_19KellyErrorEstimatorILi3ELi3EE13PerThreadDataEEEENS3_5list9INS_17reference_wrapperISB_EENS1Z_ISF_EENS1Z_ISJ_EENS1Z_ISX_EENS1Z_IS16_EENS1Z_IS1D_EENS3_5valueIS1F_EENS1Z_IS1Q_EENS1Z_IS1U_EEEEEEEEvT_E13stored_vtable = linkonce_odr dso_local global %"struct.boost::detail::function::basic_vtable0" { %"struct.boost::detail::function::vtable_base" { ptr @_ZN5boost6detail8function15functor_managerINS_3_bi6bind_tINS3_11unspecifiedENS_8functionIFvRKN6dealii2hp17MappingCollectionILi3ELi3EEERKNS7_10DoFHandlerILi3ELi3EEERKNS8_11QCollectionILi2EEERKSt3mapIhPKNS7_8FunctionILi3EEESt4lessIhESaISt4pairIKhSP_EEERKSt6vectorIPKNS7_11BlockVectorIdEESaIS13_EERKSS_IPKSZ_IbSaIbEESP_ESS_IjjERSL_INS7_12TriaIteratorINS7_11DoFAccessorILi2ESE_EEEESZ_IdSaIdEESQ_IS1J_ESaISS_IKS1J_S1L_EEERNS7_19KellyErrorEstimatorILi3ELi3EE13PerThreadDataEEEENS3_5list9INS_17reference_wrapperISB_EENS1Z_ISF_EENS1Z_ISJ_EENS1Z_ISX_EENS1Z_IS16_EENS1Z_IS1D_EENS3_5valueIS1F_EENS1Z_IS1Q_EENS1Z_IS1U_EEEEEEE6manageERKNS1_15function_bufferERS2D_NS1_30functor_manager_operation_typeE }, ptr @_ZN5boost6detail8function26void_function_obj_invoker0INS_3_bi6bind_tINS3_11unspecifiedENS_8functionIFvRKN6dealii2hp17MappingCollectionILi3ELi3EEERKNS7_10DoFHandlerILi3ELi3EEERKNS8_11QCollectionILi2EEERKSt3mapIhPKNS7_8FunctionILi3EEESt4lessIhESaISt4pairIKhSP_EEERKSt6vectorIPKNS7_11BlockVectorIdEESaIS13_EERKSS_IPKSZ_IbSaIbEESP_ESS_IjjERSL_INS7_12TriaIteratorINS7_11DoFAccessorILi2ESE_EEEESZ_IdSaIdEESQ_IS1J_ESaISS_IKS1J_S1L_EEERNS7_19KellyErrorEstimatorILi3ELi3EE13PerThreadDataEEEENS3_5list9INS_17reference_wrapperISB_EENS1Z_ISF_EENS1Z_ISJ_EENS1Z_ISX_EENS1Z_IS16_EENS1Z_IS1D_EENS3_5valueIS1F_EENS1Z_IS1Q_EENS1Z_IS1U_EEEEEEvE6invokeERNS1_15function_bufferE }, comdat, align 8
@_ZTSN5boost3_bi6bind_tINS0_11unspecifiedENS_8functionIFvRKN6dealii2hp17MappingCollectionILi3ELi3EEERKNS4_10DoFHandlerILi3ELi3EEERKNS5_11QCollectionILi2EEERKSt3mapIhPKNS4_8FunctionILi3EEESt4lessIhESaISt4pairIKhSM_EEERKSt6vectorIPKNS4_11BlockVectorIdEESaIS10_EERKSP_IPKSW_IbSaIbEESM_ESP_IjjERSI_INS4_12TriaIteratorINS4_11DoFAccessorILi2ESB_EEEESW_IdSaIdEESN_IS1G_ESaISP_IKS1G_S1I_EEERNS4_19KellyErrorEstimatorILi3ELi3EE13PerThreadDataEEEENS0_5list9INS_17reference_wrapperIS8_EENS1W_ISC_EENS1W_ISG_EENS1W_ISU_EENS1W_IS13_EENS1W_IS1A_EENS0_5valueIS1C_EENS1W_IS1N_EENS1W_IS1R_EEEEEE = linkonce_odr dso_local constant [574 x i8] c"N5boost3_bi6bind_tINS0_11unspecifiedENS_8functionIFvRKN6dealii2hp17MappingCollectionILi3ELi3EEERKNS4_10DoFHandlerILi3ELi3EEERKNS5_11QCollectionILi2EEERKSt3mapIhPKNS4_8FunctionILi3EEESt4lessIhESaISt4pairIKhSM_EEERKSt6vectorIPKNS4_11BlockVectorIdEESaIS10_EERKSP_IPKSW_IbSaIbEESM_ESP_IjjERSI_INS4_12TriaIteratorINS4_11DoFAccessorILi2ESB_EEEESW_IdSaIdEESN_IS1G_ESaISP_IKS1G_S1I_EEERNS4_19KellyErrorEstimatorILi3ELi3EE13PerThreadDataEEEENS0_5list9INS_17reference_wrapperIS8_EENS1W_ISC_EENS1W_ISG_EENS1W_ISU_EENS1W_IS13_EENS1W_IS1A_EENS0_5valueIS1C_EENS1W_IS1N_EENS1W_IS1R_EEEEEE\00", comdat, align 1
@_ZTIN5boost3_bi6bind_tINS0_11unspecifiedENS_8functionIFvRKN6dealii2hp17MappingCollectionILi3ELi3EEERKNS4_10DoFHandlerILi3ELi3EEERKNS5_11QCollectionILi2EEERKSt3mapIhPKNS4_8FunctionILi3EEESt4lessIhESaISt4pairIKhSM_EEERKSt6vectorIPKNS4_11BlockVectorIdEESaIS10_EERKSP_IPKSW_IbSaIbEESM_ESP_IjjERSI_INS4_12TriaIteratorINS4_11DoFAccessorILi2ESB_EEEESW_IdSaIdEESN_IS1G_ESaISP_IKS1G_S1I_EEERNS4_19KellyErrorEstimatorILi3ELi3EE13PerThreadDataEEEENS0_5list9INS_17reference_wrapperIS8_EENS1W_ISC_EENS1W_ISG_EENS1W_ISU_EENS1W_IS13_EENS1W_IS1A_EENS0_5valueIS1C_EENS1W_IS1N_EENS1W_IS1R_EEEEEE = linkonce_odr dso_local constant { ptr, ptr } { ptr getelementptr inbounds (ptr, ptr @_ZTVN10__cxxabiv117__class_type_infoE, i64 2), ptr @_ZTSN5boost3_bi6bind_tINS0_11unspecifiedENS_8functionIFvRKN6dealii2hp17MappingCollectionILi3ELi3EEERKNS4_10DoFHandlerILi3ELi3EEERKNS5_11QCollectionILi2EEERKSt3mapIhPKNS4_8FunctionILi3EEESt4lessIhESaISt4pairIKhSM_EEERKSt6vectorIPKNS4_11BlockVectorIdEESaIS10_EERKSP_IPKSW_IbSaIbEESM_ESP_IjjERSI_INS4_12TriaIteratorINS4_11DoFAccessorILi2ESB_EEEESW_IdSaIdEESN_IS1G_ESaISP_IKS1G_S1I_EEERNS4_19KellyErrorEstimatorILi3ELi3EE13PerThreadDataEEEENS0_5list9INS_17reference_wrapperIS8_EENS1W_ISC_EENS1W_ISG_EENS1W_ISU_EENS1W_IS13_EENS1W_IS1A_EENS0_5valueIS1C_EENS1W_IS1N_EENS1W_IS1R_EEEEEE }, comdat, align 8
@_ZZN5boost9function9IvRKN6dealii2hp17MappingCollectionILi3ELi3EEERKNS1_10DoFHandlerILi3ELi3EEERKNS2_11QCollectionILi2EEERKSt3mapIhPKNS1_8FunctionILi3EEESt4lessIhESaISt4pairIKhSJ_EEERKSt6vectorIPKNS1_11BlockVectorIfEESaISX_EERKSM_IPKST_IbSaIbEESJ_ESM_IjjERSF_INS1_12TriaIteratorINS1_11DoFAccessorILi2ES8_EEEEST_IdSaIdEESK_IS1D_ESaISM_IKS1D_S1F_EEERNS1_19KellyErrorEstimatorILi3ELi3EE13PerThreadDataEE9assign_toIPFvS6_SA_SE_SS_S11_S18_S19_S1L_S1P_EEEvT_E13stored_vtable = linkonce_odr dso_local global %"struct.boost::detail::function::basic_vtable9.264" { %"struct.boost::detail::function::vtable_base" { ptr @_ZN5boost6detail8function15functor_managerIPFvRKN6dealii2hp17MappingCollectionILi3ELi3EEERKNS3_10DoFHandlerILi3ELi3EEERKNS4_11QCollectionILi2EEERKSt3mapIhPKNS3_8FunctionILi3EEESt4lessIhESaISt4pairIKhSL_EEERKSt6vectorIPKNS3_11BlockVectorIfEESaISZ_EERKSO_IPKSV_IbSaIbEESL_ESO_IjjERSH_INS3_12TriaIteratorINS3_11DoFAccessorILi2ESA_EEEESV_IdSaIdEESM_IS1F_ESaISO_IKS1F_S1H_EEERNS3_19KellyErrorEstimatorILi3ELi3EE13PerThreadDataEEE6manageERKNS1_15function_bufferERS1V_NS1_30functor_manager_operation_typeE }, ptr @_ZN5boost6detail8function22void_function_invoker9IPFvRKN6dealii2hp17MappingCollectionILi3ELi3EEERKNS3_10DoFHandlerILi3ELi3EEERKNS4_11QCollectionILi2EEERKSt3mapIhPKNS3_8FunctionILi3EEESt4lessIhESaISt4pairIKhSL_EEERKSt6vectorIPKNS3_11BlockVectorIfEESaISZ_EERKSO_IPKSV_IbSaIbEESL_ESO_IjjERSH_INS3_12TriaIteratorINS3_11DoFAccessorILi2ESA_EEEESV_IdSaIdEESM_IS1F_ESaISO_IKS1F_S1H_EEERNS3_19KellyErrorEstimatorILi3ELi3EE13PerThreadDataEEvS8_SC_SG_SU_S13_S1A_S1B_S1N_S1R_E6invokeERNS1_15function_bufferES8_SC_SG_SU_S13_S1A_S1B_S1N_S1R_ }, comdat, align 8
@_ZTSPFvRKN6dealii2hp17MappingCollectionILi3ELi3EEERKNS_10DoFHandlerILi3ELi3EEERKNS0_11QCollectionILi2EEERKSt3mapIhPKNS_8FunctionILi3EEESt4lessIhESaISt4pairIKhSH_EEERKSt6vectorIPKNS_11BlockVectorIfEESaISV_EERKSK_IPKSR_IbSaIbEESH_ESK_IjjERSD_INS_12TriaIteratorINS_11DoFAccessorILi2ES6_EEEESR_IdSaIdEESI_IS1B_ESaISK_IKS1B_S1D_EEERNS_19KellyErrorEstimatorILi3ELi3EE13PerThreadDataEE = linkonce_odr dso_local constant [375 x i8] c"PFvRKN6dealii2hp17MappingCollectionILi3ELi3EEERKNS_10DoFHandlerILi3ELi3EEERKNS0_11QCollectionILi2EEERKSt3mapIhPKNS_8FunctionILi3EEESt4lessIhESaISt4pairIKhSH_EEERKSt6vectorIPKNS_11BlockVectorIfEESaISV_EERKSK_IPKSR_IbSaIbEESH_ESK_IjjERSD_INS_12TriaIteratorINS_11DoFAccessorILi2ES6_EEEESR_IdSaIdEESI_IS1B_ESaISK_IKS1B_S1D_EEERNS_19KellyErrorEstimatorILi3ELi3EE13PerThreadDataEE\00", comdat, align 1
@_ZTSFvRKN6dealii2hp17MappingCollectionILi3ELi3EEERKNS_10DoFHandlerILi3ELi3EEERKNS0_11QCollectionILi2EEERKSt3mapIhPKNS_8FunctionILi3EEESt4lessIhESaISt4pairIKhSH_EEERKSt6vectorIPKNS_11BlockVectorIfEESaISV_EERKSK_IPKSR_IbSaIbEESH_ESK_IjjERSD_INS_12TriaIteratorINS_11DoFAccessorILi2ES6_EEEESR_IdSaIdEESI_IS1B_ESaISK_IKS1B_S1D_EEERNS_19KellyErrorEstimatorILi3ELi3EE13PerThreadDataEE = linkonce_odr dso_local constant [374 x i8] c"FvRKN6dealii2hp17MappingCollectionILi3ELi3EEERKNS_10DoFHandlerILi3ELi3EEERKNS0_11QCollectionILi2EEERKSt3mapIhPKNS_8FunctionILi3EEESt4lessIhESaISt4pairIKhSH_EEERKSt6vectorIPKNS_11BlockVectorIfEESaISV_EERKSK_IPKSR_IbSaIbEESH_ESK_IjjERSD_INS_12TriaIteratorINS_11DoFAccessorILi2ES6_EEEESR_IdSaIdEESI_IS1B_ESaISK_IKS1B_S1D_EEERNS_19KellyErrorEstimatorILi3ELi3EE13PerThreadDataEE\00", comdat, align 1
@_ZTIFvRKN6dealii2hp17MappingCollectionILi3ELi3EEERKNS_10DoFHandlerILi3ELi3EEERKNS0_11QCollectionILi2EEERKSt3mapIhPKNS_8FunctionILi3EEESt4lessIhESaISt4pairIKhSH_EEERKSt6vectorIPKNS_11BlockVectorIfEESaISV_EERKSK_IPKSR_IbSaIbEESH_ESK_IjjERSD_INS_12TriaIteratorINS_11DoFAccessorILi2ES6_EEEESR_IdSaIdEESI_IS1B_ESaISK_IKS1B_S1D_EEERNS_19KellyErrorEstimatorILi3ELi3EE13PerThreadDataEE = linkonce_odr dso_local constant { ptr, ptr } { ptr getelementptr inbounds (ptr, ptr @_ZTVN10__cxxabiv120__function_type_infoE, i64 2), ptr @_ZTSFvRKN6dealii2hp17MappingCollectionILi3ELi3EEERKNS_10DoFHandlerILi3ELi3EEERKNS0_11QCollectionILi2EEERKSt3mapIhPKNS_8FunctionILi3EEESt4lessIhESaISt4pairIKhSH_EEERKSt6vectorIPKNS_11BlockVectorIfEESaISV_EERKSK_IPKSR_IbSaIbEESH_ESK_IjjERSD_INS_12TriaIteratorINS_11DoFAccessorILi2ES6_EEEESR_IdSaIdEESI_IS1B_ESaISK_IKS1B_S1D_EEERNS_19KellyErrorEstimatorILi3ELi3EE13PerThreadDataEE }, comdat, align 8
@_ZTIPFvRKN6dealii2hp17MappingCollectionILi3ELi3EEERKNS_10DoFHandlerILi3ELi3EEERKNS0_11QCollectionILi2EEERKSt3mapIhPKNS_8FunctionILi3EEESt4lessIhESaISt4pairIKhSH_EEERKSt6vectorIPKNS_11BlockVectorIfEESaISV_EERKSK_IPKSR_IbSaIbEESH_ESK_IjjERSD_INS_12TriaIteratorINS_11DoFAccessorILi2ES6_EEEESR_IdSaIdEESI_IS1B_ESaISK_IKS1B_S1D_EEERNS_19KellyErrorEstimatorILi3ELi3EE13PerThreadDataEE = linkonce_odr dso_local constant { ptr, ptr, i32, ptr } { ptr getelementptr inbounds (ptr, ptr @_ZTVN10__cxxabiv119__pointer_type_infoE, i64 2), ptr @_ZTSPFvRKN6dealii2hp17MappingCollectionILi3ELi3EEERKNS_10DoFHandlerILi3ELi3EEERKNS0_11QCollectionILi2EEERKSt3mapIhPKNS_8FunctionILi3EEESt4lessIhESaISt4pairIKhSH_EEERKSt6vectorIPKNS_11BlockVectorIfEESaISV_EERKSK_IPKSR_IbSaIbEESH_ESK_IjjERSD_INS_12TriaIteratorINS_11DoFAccessorILi2ES6_EEEESR_IdSaIdEESI_IS1B_ESaISK_IKS1B_S1D_EEERNS_19KellyErrorEstimatorILi3ELi3EE13PerThreadDataEE, i32 0, ptr @_ZTIFvRKN6dealii2hp17MappingCollectionILi3ELi3EEERKNS_10DoFHandlerILi3ELi3EEERKNS0_11QCollectionILi2EEERKSt3mapIhPKNS_8FunctionILi3EEESt4lessIhESaISt4pairIKhSH_EEERKSt6vectorIPKNS_11BlockVectorIfEESaISV_EERKSK_IPKSR_IbSaIbEESH_ESK_IjjERSD_INS_12TriaIteratorINS_11DoFAccessorILi2ES6_EEEESR_IdSaIdEESI_IS1B_ESaISK_IKS1B_S1D_EEERNS_19KellyErrorEstimatorILi3ELi3EE13PerThreadDataEE }, comdat, align 8
@_ZZN5boost9function0IvE9assign_toINS_3_bi6bind_tINS3_11unspecifiedENS_8functionIFvRKN6dealii2hp17MappingCollectionILi3ELi3EEERKNS7_10DoFHandlerILi3ELi3EEERKNS8_11QCollectionILi2EEERKSt3mapIhPKNS7_8FunctionILi3EEESt4lessIhESaISt4pairIKhSP_EEERKSt6vectorIPKNS7_11BlockVectorIfEESaIS13_EERKSS_IPKSZ_IbSaIbEESP_ESS_IjjERSL_INS7_12TriaIteratorINS7_11DoFAccessorILi2ESE_EEEESZ_IdSaIdEESQ_IS1J_ESaISS_IKS1J_S1L_EEERNS7_19KellyErrorEstimatorILi3ELi3EE13PerThreadDataEEEENS3_5list9INS_17reference_wrapperISB_EENS1Z_ISF_EENS1Z_ISJ_EENS1Z_ISX_EENS1Z_IS16_EENS1Z_IS1D_EENS3_5valueIS1F_EENS1Z_IS1Q_EENS1Z_IS1U_EEEEEEEEvT_E13stored_vtable = linkonce_odr dso_local global %"struct.boost::detail::function::basic_vtable0" { %"struct.boost::detail::function::vtable_base" { ptr @_ZN5boost6detail8function15functor_managerINS_3_bi6bind_tINS3_11unspecifiedENS_8functionIFvRKN6dealii2hp17MappingCollectionILi3ELi3EEERKNS7_10DoFHandlerILi3ELi3EEERKNS8_11QCollectionILi2EEERKSt3mapIhPKNS7_8FunctionILi3EEESt4lessIhESaISt4pairIKhSP_EEERKSt6vectorIPKNS7_11BlockVectorIfEESaIS13_EERKSS_IPKSZ_IbSaIbEESP_ESS_IjjERSL_INS7_12TriaIteratorINS7_11DoFAccessorILi2ESE_EEEESZ_IdSaIdEESQ_IS1J_ESaISS_IKS1J_S1L_EEERNS7_19KellyErrorEstimatorILi3ELi3EE13PerThreadDataEEEENS3_5list9INS_17reference_wrapperISB_EENS1Z_ISF_EENS1Z_ISJ_EENS1Z_ISX_EENS1Z_IS16_EENS1Z_IS1D_EENS3_5valueIS1F_EENS1Z_IS1Q_EENS1Z_IS1U_EEEEEEE6manageERKNS1_15function_bufferERS2D_NS1_30functor_manager_operation_typeE }, ptr @_ZN5boost6detail8function26void_function_obj_invoker0INS_3_bi6bind_tINS3_11unspecifiedENS_8functionIFvRKN6dealii2hp17MappingCollectionILi3ELi3EEERKNS7_10DoFHandlerILi3ELi3EEERKNS8_11QCollectionILi2EEERKSt3mapIhPKNS7_8FunctionILi3EEESt4lessIhESaISt4pairIKhSP_EEERKSt6vectorIPKNS7_11BlockVectorIfEESaIS13_EERKSS_IPKSZ_IbSaIbEESP_ESS_IjjERSL_INS7_12TriaIteratorINS7_11DoFAccessorILi2ESE_EEEESZ_IdSaIdEESQ_IS1J_ESaISS_IKS1J_S1L_EEERNS7_19KellyErrorEstimatorILi3ELi3EE13PerThreadDataEEEENS3_5list9INS_17reference_wrapperISB_EENS1Z_ISF_EENS1Z_ISJ_EENS1Z_ISX_EENS1Z_IS16_EENS1Z_IS1D_EENS3_5valueIS1F_EENS1Z_IS1Q_EENS1Z_IS1U_EEEEEEvE6invokeERNS1_15function_bufferE }, comdat, align 8
@_ZTSN5boost3_bi6bind_tINS0_11unspecifiedENS_8functionIFvRKN6dealii2hp17MappingCollectionILi3ELi3EEERKNS4_10DoFHandlerILi3ELi3EEERKNS5_11QCollectionILi2EEERKSt3mapIhPKNS4_8FunctionILi3EEESt4lessIhESaISt4pairIKhSM_EEERKSt6vectorIPKNS4_11BlockVectorIfEESaIS10_EERKSP_IPKSW_IbSaIbEESM_ESP_IjjERSI_INS4_12TriaIteratorINS4_11DoFAccessorILi2ESB_EEEESW_IdSaIdEESN_IS1G_ESaISP_IKS1G_S1I_EEERNS4_19KellyErrorEstimatorILi3ELi3EE13PerThreadDataEEEENS0_5list9INS_17reference_wrapperIS8_EENS1W_ISC_EENS1W_ISG_EENS1W_ISU_EENS1W_IS13_EENS1W_IS1A_EENS0_5valueIS1C_EENS1W_IS1N_EENS1W_IS1R_EEEEEE = linkonce_odr dso_local constant [574 x i8] c"N5boost3_bi6bind_tINS0_11unspecifiedENS_8functionIFvRKN6dealii2hp17MappingCollectionILi3ELi3EEERKNS4_10DoFHandlerILi3ELi3EEERKNS5_11QCollectionILi2EEERKSt3mapIhPKNS4_8FunctionILi3EEESt4lessIhESaISt4pairIKhSM_EEERKSt6vectorIPKNS4_11BlockVectorIfEESaIS10_EERKSP_IPKSW_IbSaIbEESM_ESP_IjjERSI_INS4_12TriaIteratorINS4_11DoFAccessorILi2ESB_EEEESW_IdSaIdEESN_IS1G_ESaISP_IKS1G_S1I_EEERNS4_19KellyErrorEstimatorILi3ELi3EE13PerThreadDataEEEENS0_5list9INS_17reference_wrapperIS8_EENS1W_ISC_EENS1W_ISG_EENS1W_ISU_EENS1W_IS13_EENS1W_IS1A_EENS0_5valueIS1C_EENS1W_IS1N_EENS1W_IS1R_EEEEEE\00", comdat, align 1
@_ZTIN5boost3_bi6bind_tINS0_11unspecifiedENS_8functionIFvRKN6dealii2hp17MappingCollectionILi3ELi3EEERKNS4_10DoFHandlerILi3ELi3EEERKNS5_11QCollectionILi2EEERKSt3mapIhPKNS4_8FunctionILi3EEESt4lessIhESaISt4pairIKhSM_EEERKSt6vectorIPKNS4_11BlockVectorIfEESaIS10_EERKSP_IPKSW_IbSaIbEESM_ESP_IjjERSI_INS4_12TriaIteratorINS4_11DoFAccessorILi2ESB_EEEESW_IdSaIdEESN_IS1G_ESaISP_IKS1G_S1I_EEERNS4_19KellyErrorEstimatorILi3ELi3EE13PerThreadDataEEEENS0_5list9INS_17reference_wrapperIS8_EENS1W_ISC_EENS1W_ISG_EENS1W_ISU_EENS1W_IS13_EENS1W_IS1A_EENS0_5valueIS1C_EENS1W_IS1N_EENS1W_IS1R_EEEEEE = linkonce_odr dso_local constant { ptr, ptr } { ptr getelementptr inbounds (ptr, ptr @_ZTVN10__cxxabiv117__class_type_infoE, i64 2), ptr @_ZTSN5boost3_bi6bind_tINS0_11unspecifiedENS_8functionIFvRKN6dealii2hp17MappingCollectionILi3ELi3EEERKNS4_10DoFHandlerILi3ELi3EEERKNS5_11QCollectionILi2EEERKSt3mapIhPKNS4_8FunctionILi3EEESt4lessIhESaISt4pairIKhSM_EEERKSt6vectorIPKNS4_11BlockVectorIfEESaIS10_EERKSP_IPKSW_IbSaIbEESM_ESP_IjjERSI_INS4_12TriaIteratorINS4_11DoFAccessorILi2ESB_EEEESW_IdSaIdEESN_IS1G_ESaISP_IKS1G_S1I_EEERNS4_19KellyErrorEstimatorILi3ELi3EE13PerThreadDataEEEENS0_5list9INS_17reference_wrapperIS8_EENS1W_ISC_EENS1W_ISG_EENS1W_ISU_EENS1W_IS13_EENS1W_IS1A_EENS0_5valueIS1C_EENS1W_IS1N_EENS1W_IS1R_EEEEEE }, comdat, align 8
@_ZZN5boost9function9IvRKN6dealii2hp17MappingCollectionILi3ELi3EEERKNS2_10DoFHandlerILi3ELi3EEERKNS2_11QCollectionILi2EEERKSt3mapIhPKNS1_8FunctionILi3EEESt4lessIhESaISt4pairIKhSJ_EEERKSt6vectorIPKNS1_6VectorIdEESaISX_EERKSM_IPKST_IbSaIbEESJ_ESM_IjjERSF_INS1_12TriaIteratorINS1_11DoFAccessorILi2ES8_EEEEST_IdSaIdEESK_IS1D_ESaISM_IKS1D_S1F_EEERNS1_19KellyErrorEstimatorILi3ELi3EE13PerThreadDataEE9assign_toIPFvS6_SA_SE_SS_S11_S18_S19_S1L_S1P_EEEvT_E13stored_vtable = linkonce_odr dso_local global %"struct.boost::detail::function::basic_vtable9.265" { %"struct.boost::detail::function::vtable_base" { ptr @_ZN5boost6detail8function15functor_managerIPFvRKN6dealii2hp17MappingCollectionILi3ELi3EEERKNS4_10DoFHandlerILi3ELi3EEERKNS4_11QCollectionILi2EEERKSt3mapIhPKNS3_8FunctionILi3EEESt4lessIhESaISt4pairIKhSL_EEERKSt6vectorIPKNS3_6VectorIdEESaISZ_EERKSO_IPKSV_IbSaIbEESL_ESO_IjjERSH_INS3_12TriaIteratorINS3_11DoFAccessorILi2ESA_EEEESV_IdSaIdEESM_IS1F_ESaISO_IKS1F_S1H_EEERNS3_19KellyErrorEstimatorILi3ELi3EE13PerThreadDataEEE6manageERKNS1_15function_bufferERS1V_NS1_30functor_manager_operation_typeE }, ptr @_ZN5boost6detail8function22void_function_invoker9IPFvRKN6dealii2hp17MappingCollectionILi3ELi3EEERKNS4_10DoFHandlerILi3ELi3EEERKNS4_11QCollectionILi2EEERKSt3mapIhPKNS3_8FunctionILi3EEESt4lessIhESaISt4pairIKhSL_EEERKSt6vectorIPKNS3_6VectorIdEESaISZ_EERKSO_IPKSV_IbSaIbEESL_ESO_IjjERSH_INS3_12TriaIteratorINS3_11DoFAccessorILi2ESA_EEEESV_IdSaIdEESM_IS1F_ESaISO_IKS1F_S1H_EEERNS3_19KellyErrorEstimatorILi3ELi3EE13PerThreadDataEEvS8_SC_SG_SU_S13_S1A_S1B_S1N_S1R_E6invokeERNS1_15function_bufferES8_SC_SG_SU_S13_S1A_S1B_S1N_S1R_ }, comdat, align 8
@_ZTSPFvRKN6dealii2hp17MappingCollectionILi3ELi3EEERKNS0_10DoFHandlerILi3ELi3EEERKNS0_11QCollectionILi2EEERKSt3mapIhPKNS_8FunctionILi3EEESt4lessIhESaISt4pairIKhSH_EEERKSt6vectorIPKNS_6VectorIdEESaISV_EERKSK_IPKSR_IbSaIbEESH_ESK_IjjERSD_INS_12TriaIteratorINS_11DoFAccessorILi2ES6_EEEESR_IdSaIdEESI_IS1B_ESaISK_IKS1B_S1D_EEERNS_19KellyErrorEstimatorILi3ELi3EE13PerThreadDataEE = linkonce_odr dso_local constant [370 x i8] c"PFvRKN6dealii2hp17MappingCollectionILi3ELi3EEERKNS0_10DoFHandlerILi3ELi3EEERKNS0_11QCollectionILi2EEERKSt3mapIhPKNS_8FunctionILi3EEESt4lessIhESaISt4pairIKhSH_EEERKSt6vectorIPKNS_6VectorIdEESaISV_EERKSK_IPKSR_IbSaIbEESH_ESK_IjjERSD_INS_12TriaIteratorINS_11DoFAccessorILi2ES6_EEEESR_IdSaIdEESI_IS1B_ESaISK_IKS1B_S1D_EEERNS_19KellyErrorEstimatorILi3ELi3EE13PerThreadDataEE\00", comdat, align 1
@_ZTSFvRKN6dealii2hp17MappingCollectionILi3ELi3EEERKNS0_10DoFHandlerILi3ELi3EEERKNS0_11QCollectionILi2EEERKSt3mapIhPKNS_8FunctionILi3EEESt4lessIhESaISt4pairIKhSH_EEERKSt6vectorIPKNS_6VectorIdEESaISV_EERKSK_IPKSR_IbSaIbEESH_ESK_IjjERSD_INS_12TriaIteratorINS_11DoFAccessorILi2ES6_EEEESR_IdSaIdEESI_IS1B_ESaISK_IKS1B_S1D_EEERNS_19KellyErrorEstimatorILi3ELi3EE13PerThreadDataEE = linkonce_odr dso_local constant [369 x i8] c"FvRKN6dealii2hp17MappingCollectionILi3ELi3EEERKNS0_10DoFHandlerILi3ELi3EEERKNS0_11QCollectionILi2EEERKSt3mapIhPKNS_8FunctionILi3EEESt4lessIhESaISt4pairIKhSH_EEERKSt6vectorIPKNS_6VectorIdEESaISV_EERKSK_IPKSR_IbSaIbEESH_ESK_IjjERSD_INS_12TriaIteratorINS_11DoFAccessorILi2ES6_EEEESR_IdSaIdEESI_IS1B_ESaISK_IKS1B_S1D_EEERNS_19KellyErrorEstimatorILi3ELi3EE13PerThreadDataEE\00", comdat, align 1
@_ZTIFvRKN6dealii2hp17MappingCollectionILi3ELi3EEERKNS0_10DoFHandlerILi3ELi3EEERKNS0_11QCollectionILi2EEERKSt3mapIhPKNS_8FunctionILi3EEESt4lessIhESaISt4pairIKhSH_EEERKSt6vectorIPKNS_6VectorIdEESaISV_EERKSK_IPKSR_IbSaIbEESH_ESK_IjjERSD_INS_12TriaIteratorINS_11DoFAccessorILi2ES6_EEEESR_IdSaIdEESI_IS1B_ESaISK_IKS1B_S1D_EEERNS_19KellyErrorEstimatorILi3ELi3EE13PerThreadDataEE = linkonce_odr dso_local constant { ptr, ptr } { ptr getelementptr inbounds (ptr, ptr @_ZTVN10__cxxabiv120__function_type_infoE, i64 2), ptr @_ZTSFvRKN6dealii2hp17MappingCollectionILi3ELi3EEERKNS0_10DoFHandlerILi3ELi3EEERKNS0_11QCollectionILi2EEERKSt3mapIhPKNS_8FunctionILi3EEESt4lessIhESaISt4pairIKhSH_EEERKSt6vectorIPKNS_6VectorIdEESaISV_EERKSK_IPKSR_IbSaIbEESH_ESK_IjjERSD_INS_12TriaIteratorINS_11DoFAccessorILi2ES6_EEEESR_IdSaIdEESI_IS1B_ESaISK_IKS1B_S1D_EEERNS_19KellyErrorEstimatorILi3ELi3EE13PerThreadDataEE }, comdat, align 8
@_ZTIPFvRKN6dealii2hp17MappingCollectionILi3ELi3EEERKNS0_10DoFHandlerILi3ELi3EEERKNS0_11QCollectionILi2EEERKSt3mapIhPKNS_8FunctionILi3EEESt4lessIhESaISt4pairIKhSH_EEERKSt6vectorIPKNS_6VectorIdEESaISV_EERKSK_IPKSR_IbSaIbEESH_ESK_IjjERSD_INS_12TriaIteratorINS_11DoFAccessorILi2ES6_EEEESR_IdSaIdEESI_IS1B_ESaISK_IKS1B_S1D_EEERNS_19KellyErrorEstimatorILi3ELi3EE13PerThreadDataEE = linkonce_odr dso_local constant { ptr, ptr, i32, ptr } { ptr getelementptr inbounds (ptr, ptr @_ZTVN10__cxxabiv119__pointer_type_infoE, i64 2), ptr @_ZTSPFvRKN6dealii2hp17MappingCollectionILi3ELi3EEERKNS0_10DoFHandlerILi3ELi3EEERKNS0_11QCollectionILi2EEERKSt3mapIhPKNS_8FunctionILi3EEESt4lessIhESaISt4pairIKhSH_EEERKSt6vectorIPKNS_6VectorIdEESaISV_EERKSK_IPKSR_IbSaIbEESH_ESK_IjjERSD_INS_12TriaIteratorINS_11DoFAccessorILi2ES6_EEEESR_IdSaIdEESI_IS1B_ESaISK_IKS1B_S1D_EEERNS_19KellyErrorEstimatorILi3ELi3EE13PerThreadDataEE, i32 0, ptr @_ZTIFvRKN6dealii2hp17MappingCollectionILi3ELi3EEERKNS0_10DoFHandlerILi3ELi3EEERKNS0_11QCollectionILi2EEERKSt3mapIhPKNS_8FunctionILi3EEESt4lessIhESaISt4pairIKhSH_EEERKSt6vectorIPKNS_6VectorIdEESaISV_EERKSK_IPKSR_IbSaIbEESH_ESK_IjjERSD_INS_12TriaIteratorINS_11DoFAccessorILi2ES6_EEEESR_IdSaIdEESI_IS1B_ESaISK_IKS1B_S1D_EEERNS_19KellyErrorEstimatorILi3ELi3EE13PerThreadDataEE }, comdat, align 8
@_ZZN5boost9function0IvE9assign_toINS_3_bi6bind_tINS3_11unspecifiedENS_8functionIFvRKN6dealii2hp17MappingCollectionILi3ELi3EEERKNS8_10DoFHandlerILi3ELi3EEERKNS8_11QCollectionILi2EEERKSt3mapIhPKNS7_8FunctionILi3EEESt4lessIhESaISt4pairIKhSP_EEERKSt6vectorIPKNS7_6VectorIdEESaIS13_EERKSS_IPKSZ_IbSaIbEESP_ESS_IjjERSL_INS7_12TriaIteratorINS7_11DoFAccessorILi2ESE_EEEESZ_IdSaIdEESQ_IS1J_ESaISS_IKS1J_S1L_EEERNS7_19KellyErrorEstimatorILi3ELi3EE13PerThreadDataEEEENS3_5list9INS_17reference_wrapperISB_EENS1Z_ISF_EENS1Z_ISJ_EENS1Z_ISX_EENS1Z_IS16_EENS1Z_IS1D_EENS3_5valueIS1F_EENS1Z_IS1Q_EENS1Z_IS1U_EEEEEEEEvT_E13stored_vtable = linkonce_odr dso_local global %"struct.boost::detail::function::basic_vtable0" { %"struct.boost::detail::function::vtable_base" { ptr @_ZN5boost6detail8function15functor_managerINS_3_bi6bind_tINS3_11unspecifiedENS_8functionIFvRKN6dealii2hp17MappingCollectionILi3ELi3EEERKNS8_10DoFHandlerILi3ELi3EEERKNS8_11QCollectionILi2EEERKSt3mapIhPKNS7_8FunctionILi3EEESt4lessIhESaISt4pairIKhSP_EEERKSt6vectorIPKNS7_6VectorIdEESaIS13_EERKSS_IPKSZ_IbSaIbEESP_ESS_IjjERSL_INS7_12TriaIteratorINS7_11DoFAccessorILi2ESE_EEEESZ_IdSaIdEESQ_IS1J_ESaISS_IKS1J_S1L_EEERNS7_19KellyErrorEstimatorILi3ELi3EE13PerThreadDataEEEENS3_5list9INS_17reference_wrapperISB_EENS1Z_ISF_EENS1Z_ISJ_EENS1Z_ISX_EENS1Z_IS16_EENS1Z_IS1D_EENS3_5valueIS1F_EENS1Z_IS1Q_EENS1Z_IS1U_EEEEEEE6manageERKNS1_15function_bufferERS2D_NS1_30functor_manager_operation_typeE }, ptr @_ZN5boost6detail8function26void_function_obj_invoker0INS_3_bi6bind_tINS3_11unspecifiedENS_8functionIFvRKN6dealii2hp17MappingCollectionILi3ELi3EEERKNS8_10DoFHandlerILi3ELi3EEERKNS8_11QCollectionILi2EEERKSt3mapIhPKNS7_8FunctionILi3EEESt4lessIhESaISt4pairIKhSP_EEERKSt6vectorIPKNS7_6VectorIdEESaIS13_EERKSS_IPKSZ_IbSaIbEESP_ESS_IjjERSL_INS7_12TriaIteratorINS7_11DoFAccessorILi2ESE_EEEESZ_IdSaIdEESQ_IS1J_ESaISS_IKS1J_S1L_EEERNS7_19KellyErrorEstimatorILi3ELi3EE13PerThreadDataEEEENS3_5list9INS_17reference_wrapperISB_EENS1Z_ISF_EENS1Z_ISJ_EENS1Z_ISX_EENS1Z_IS16_EENS1Z_IS1D_EENS3_5valueIS1F_EENS1Z_IS1Q_EENS1Z_IS1U_EEEEEEvE6invokeERNS1_15function_bufferE }, comdat, align 8
@_ZTSN5boost3_bi6bind_tINS0_11unspecifiedENS_8functionIFvRKN6dealii2hp17MappingCollectionILi3ELi3EEERKNS5_10DoFHandlerILi3ELi3EEERKNS5_11QCollectionILi2EEERKSt3mapIhPKNS4_8FunctionILi3EEESt4lessIhESaISt4pairIKhSM_EEERKSt6vectorIPKNS4_6VectorIdEESaIS10_EERKSP_IPKSW_IbSaIbEESM_ESP_IjjERSI_INS4_12TriaIteratorINS4_11DoFAccessorILi2ESB_EEEESW_IdSaIdEESN_IS1G_ESaISP_IKS1G_S1I_EEERNS4_19KellyErrorEstimatorILi3ELi3EE13PerThreadDataEEEENS0_5list9INS_17reference_wrapperIS8_EENS1W_ISC_EENS1W_ISG_EENS1W_ISU_EENS1W_IS13_EENS1W_IS1A_EENS0_5valueIS1C_EENS1W_IS1N_EENS1W_IS1R_EEEEEE = linkonce_odr dso_local constant [568 x i8] c"N5boost3_bi6bind_tINS0_11unspecifiedENS_8functionIFvRKN6dealii2hp17MappingCollectionILi3ELi3EEERKNS5_10DoFHandlerILi3ELi3EEERKNS5_11QCollectionILi2EEERKSt3mapIhPKNS4_8FunctionILi3EEESt4lessIhESaISt4pairIKhSM_EEERKSt6vectorIPKNS4_6VectorIdEESaIS10_EERKSP_IPKSW_IbSaIbEESM_ESP_IjjERSI_INS4_12TriaIteratorINS4_11DoFAccessorILi2ESB_EEEESW_IdSaIdEESN_IS1G_ESaISP_IKS1G_S1I_EEERNS4_19KellyErrorEstimatorILi3ELi3EE13PerThreadDataEEEENS0_5list9INS_17reference_wrapperIS8_EENS1W_ISC_EENS1W_ISG_EENS1W_ISU_EENS1W_IS13_EENS1W_IS1A_EENS0_5valueIS1C_EENS1W_IS1N_EENS1W_IS1R_EEEEEE\00", comdat, align 1
@_ZTIN5boost3_bi6bind_tINS0_11unspecifiedENS_8functionIFvRKN6dealii2hp17MappingCollectionILi3ELi3EEERKNS5_10DoFHandlerILi3ELi3EEERKNS5_11QCollectionILi2EEERKSt3mapIhPKNS4_8FunctionILi3EEESt4lessIhESaISt4pairIKhSM_EEERKSt6vectorIPKNS4_6VectorIdEESaIS10_EERKSP_IPKSW_IbSaIbEESM_ESP_IjjERSI_INS4_12TriaIteratorINS4_11DoFAccessorILi2ESB_EEEESW_IdSaIdEESN_IS1G_ESaISP_IKS1G_S1I_EEERNS4_19KellyErrorEstimatorILi3ELi3EE13PerThreadDataEEEENS0_5list9INS_17reference_wrapperIS8_EENS1W_ISC_EENS1W_ISG_EENS1W_ISU_EENS1W_IS13_EENS1W_IS1A_EENS0_5valueIS1C_EENS1W_IS1N_EENS1W_IS1R_EEEEEE = linkonce_odr dso_local constant { ptr, ptr } { ptr getelementptr inbounds (ptr, ptr @_ZTVN10__cxxabiv117__class_type_infoE, i64 2), ptr @_ZTSN5boost3_bi6bind_tINS0_11unspecifiedENS_8functionIFvRKN6dealii2hp17MappingCollectionILi3ELi3EEERKNS5_10DoFHandlerILi3ELi3EEERKNS5_11QCollectionILi2EEERKSt3mapIhPKNS4_8FunctionILi3EEESt4lessIhESaISt4pairIKhSM_EEERKSt6vectorIPKNS4_6VectorIdEESaIS10_EERKSP_IPKSW_IbSaIbEESM_ESP_IjjERSI_INS4_12TriaIteratorINS4_11DoFAccessorILi2ESB_EEEESW_IdSaIdEESN_IS1G_ESaISP_IKS1G_S1I_EEERNS4_19KellyErrorEstimatorILi3ELi3EE13PerThreadDataEEEENS0_5list9INS_17reference_wrapperIS8_EENS1W_ISC_EENS1W_ISG_EENS1W_ISU_EENS1W_IS13_EENS1W_IS1A_EENS0_5valueIS1C_EENS1W_IS1N_EENS1W_IS1R_EEEEEE }, comdat, align 8
@_ZZN5boost9function9IvRKN6dealii2hp17MappingCollectionILi3ELi3EEERKNS2_10DoFHandlerILi3ELi3EEERKNS2_11QCollectionILi2EEERKSt3mapIhPKNS1_8FunctionILi3EEESt4lessIhESaISt4pairIKhSJ_EEERKSt6vectorIPKNS1_6VectorIfEESaISX_EERKSM_IPKST_IbSaIbEESJ_ESM_IjjERSF_INS1_12TriaIteratorINS1_11DoFAccessorILi2ES8_EEEEST_IdSaIdEESK_IS1D_ESaISM_IKS1D_S1F_EEERNS1_19KellyErrorEstimatorILi3ELi3EE13PerThreadDataEE9assign_toIPFvS6_SA_SE_SS_S11_S18_S19_S1L_S1P_EEEvT_E13stored_vtable = linkonce_odr dso_local global %"struct.boost::detail::function::basic_vtable9.272" { %"struct.boost::detail::function::vtable_base" { ptr @_ZN5boost6detail8function15functor_managerIPFvRKN6dealii2hp17MappingCollectionILi3ELi3EEERKNS4_10DoFHandlerILi3ELi3EEERKNS4_11QCollectionILi2EEERKSt3mapIhPKNS3_8FunctionILi3EEESt4lessIhESaISt4pairIKhSL_EEERKSt6vectorIPKNS3_6VectorIfEESaISZ_EERKSO_IPKSV_IbSaIbEESL_ESO_IjjERSH_INS3_12TriaIteratorINS3_11DoFAccessorILi2ESA_EEEESV_IdSaIdEESM_IS1F_ESaISO_IKS1F_S1H_EEERNS3_19KellyErrorEstimatorILi3ELi3EE13PerThreadDataEEE6manageERKNS1_15function_bufferERS1V_NS1_30functor_manager_operation_typeE }, ptr @_ZN5boost6detail8function22void_function_invoker9IPFvRKN6dealii2hp17MappingCollectionILi3ELi3EEERKNS4_10DoFHandlerILi3ELi3EEERKNS4_11QCollectionILi2EEERKSt3mapIhPKNS3_8FunctionILi3EEESt4lessIhESaISt4pairIKhSL_EEERKSt6vectorIPKNS3_6VectorIfEESaISZ_EERKSO_IPKSV_IbSaIbEESL_ESO_IjjERSH_INS3_12TriaIteratorINS3_11DoFAccessorILi2ESA_EEEESV_IdSaIdEESM_IS1F_ESaISO_IKS1F_S1H_EEERNS3_19KellyErrorEstimatorILi3ELi3EE13PerThreadDataEEvS8_SC_SG_SU_S13_S1A_S1B_S1N_S1R_E6invokeERNS1_15function_bufferES8_SC_SG_SU_S13_S1A_S1B_S1N_S1R_ }, comdat, align 8
@_ZTSPFvRKN6dealii2hp17MappingCollectionILi3ELi3EEERKNS0_10DoFHandlerILi3ELi3EEERKNS0_11QCollectionILi2EEERKSt3mapIhPKNS_8FunctionILi3EEESt4lessIhESaISt4pairIKhSH_EEERKSt6vectorIPKNS_6VectorIfEESaISV_EERKSK_IPKSR_IbSaIbEESH_ESK_IjjERSD_INS_12TriaIteratorINS_11DoFAccessorILi2ES6_EEEESR_IdSaIdEESI_IS1B_ESaISK_IKS1B_S1D_EEERNS_19KellyErrorEstimatorILi3ELi3EE13PerThreadDataEE = linkonce_odr dso_local constant [370 x i8] c"PFvRKN6dealii2hp17MappingCollectionILi3ELi3EEERKNS0_10DoFHandlerILi3ELi3EEERKNS0_11QCollectionILi2EEERKSt3mapIhPKNS_8FunctionILi3EEESt4lessIhESaISt4pairIKhSH_EEERKSt6vectorIPKNS_6VectorIfEESaISV_EERKSK_IPKSR_IbSaIbEESH_ESK_IjjERSD_INS_12TriaIteratorINS_11DoFAccessorILi2ES6_EEEESR_IdSaIdEESI_IS1B_ESaISK_IKS1B_S1D_EEERNS_19KellyErrorEstimatorILi3ELi3EE13PerThreadDataEE\00", comdat, align 1
@_ZTSFvRKN6dealii2hp17MappingCollectionILi3ELi3EEERKNS0_10DoFHandlerILi3ELi3EEERKNS0_11QCollectionILi2EEERKSt3mapIhPKNS_8FunctionILi3EEESt4lessIhESaISt4pairIKhSH_EEERKSt6vectorIPKNS_6VectorIfEESaISV_EERKSK_IPKSR_IbSaIbEESH_ESK_IjjERSD_INS_12TriaIteratorINS_11DoFAccessorILi2ES6_EEEESR_IdSaIdEESI_IS1B_ESaISK_IKS1B_S1D_EEERNS_19KellyErrorEstimatorILi3ELi3EE13PerThreadDataEE = linkonce_odr dso_local constant [369 x i8] c"FvRKN6dealii2hp17MappingCollectionILi3ELi3EEERKNS0_10DoFHandlerILi3ELi3EEERKNS0_11QCollectionILi2EEERKSt3mapIhPKNS_8FunctionILi3EEESt4lessIhESaISt4pairIKhSH_EEERKSt6vectorIPKNS_6VectorIfEESaISV_EERKSK_IPKSR_IbSaIbEESH_ESK_IjjERSD_INS_12TriaIteratorINS_11DoFAccessorILi2ES6_EEEESR_IdSaIdEESI_IS1B_ESaISK_IKS1B_S1D_EEERNS_19KellyErrorEstimatorILi3ELi3EE13PerThreadDataEE\00", comdat, align 1
@_ZTIFvRKN6dealii2hp17MappingCollectionILi3ELi3EEERKNS0_10DoFHandlerILi3ELi3EEERKNS0_11QCollectionILi2EEERKSt3mapIhPKNS_8FunctionILi3EEESt4lessIhESaISt4pairIKhSH_EEERKSt6vectorIPKNS_6VectorIfEESaISV_EERKSK_IPKSR_IbSaIbEESH_ESK_IjjERSD_INS_12TriaIteratorINS_11DoFAccessorILi2ES6_EEEESR_IdSaIdEESI_IS1B_ESaISK_IKS1B_S1D_EEERNS_19KellyErrorEstimatorILi3ELi3EE13PerThreadDataEE = linkonce_odr dso_local constant { ptr, ptr } { ptr getelementptr inbounds (ptr, ptr @_ZTVN10__cxxabiv120__function_type_infoE, i64 2), ptr @_ZTSFvRKN6dealii2hp17MappingCollectionILi3ELi3EEERKNS0_10DoFHandlerILi3ELi3EEERKNS0_11QCollectionILi2EEERKSt3mapIhPKNS_8FunctionILi3EEESt4lessIhESaISt4pairIKhSH_EEERKSt6vectorIPKNS_6VectorIfEESaISV_EERKSK_IPKSR_IbSaIbEESH_ESK_IjjERSD_INS_12TriaIteratorINS_11DoFAccessorILi2ES6_EEEESR_IdSaIdEESI_IS1B_ESaISK_IKS1B_S1D_EEERNS_19KellyErrorEstimatorILi3ELi3EE13PerThreadDataEE }, comdat, align 8
@_ZTIPFvRKN6dealii2hp17MappingCollectionILi3ELi3EEERKNS0_10DoFHandlerILi3ELi3EEERKNS0_11QCollectionILi2EEERKSt3mapIhPKNS_8FunctionILi3EEESt4lessIhESaISt4pairIKhSH_EEERKSt6vectorIPKNS_6VectorIfEESaISV_EERKSK_IPKSR_IbSaIbEESH_ESK_IjjERSD_INS_12TriaIteratorINS_11DoFAccessorILi2ES6_EEEESR_IdSaIdEESI_IS1B_ESaISK_IKS1B_S1D_EEERNS_19KellyErrorEstimatorILi3ELi3EE13PerThreadDataEE = linkonce_odr dso_local constant { ptr, ptr, i32, ptr } { ptr getelementptr inbounds (ptr, ptr @_ZTVN10__cxxabiv119__pointer_type_infoE, i64 2), ptr @_ZTSPFvRKN6dealii2hp17MappingCollectionILi3ELi3EEERKNS0_10DoFHandlerILi3ELi3EEERKNS0_11QCollectionILi2EEERKSt3mapIhPKNS_8FunctionILi3EEESt4lessIhESaISt4pairIKhSH_EEERKSt6vectorIPKNS_6VectorIfEESaISV_EERKSK_IPKSR_IbSaIbEESH_ESK_IjjERSD_INS_12TriaIteratorINS_11DoFAccessorILi2ES6_EEEESR_IdSaIdEESI_IS1B_ESaISK_IKS1B_S1D_EEERNS_19KellyErrorEstimatorILi3ELi3EE13PerThreadDataEE, i32 0, ptr @_ZTIFvRKN6dealii2hp17MappingCollectionILi3ELi3EEERKNS0_10DoFHandlerILi3ELi3EEERKNS0_11QCollectionILi2EEERKSt3mapIhPKNS_8FunctionILi3EEESt4lessIhESaISt4pairIKhSH_EEERKSt6vectorIPKNS_6VectorIfEESaISV_EERKSK_IPKSR_IbSaIbEESH_ESK_IjjERSD_INS_12TriaIteratorINS_11DoFAccessorILi2ES6_EEEESR_IdSaIdEESI_IS1B_ESaISK_IKS1B_S1D_EEERNS_19KellyErrorEstimatorILi3ELi3EE13PerThreadDataEE }, comdat, align 8
@_ZZN5boost9function0IvE9assign_toINS_3_bi6bind_tINS3_11unspecifiedENS_8functionIFvRKN6dealii2hp17MappingCollectionILi3ELi3EEERKNS8_10DoFHandlerILi3ELi3EEERKNS8_11QCollectionILi2EEERKSt3mapIhPKNS7_8FunctionILi3EEESt4lessIhESaISt4pairIKhSP_EEERKSt6vectorIPKNS7_6VectorIfEESaIS13_EERKSS_IPKSZ_IbSaIbEESP_ESS_IjjERSL_INS7_12TriaIteratorINS7_11DoFAccessorILi2ESE_EEEESZ_IdSaIdEESQ_IS1J_ESaISS_IKS1J_S1L_EEERNS7_19KellyErrorEstimatorILi3ELi3EE13PerThreadDataEEEENS3_5list9INS_17reference_wrapperISB_EENS1Z_ISF_EENS1Z_ISJ_EENS1Z_ISX_EENS1Z_IS16_EENS1Z_IS1D_EENS3_5valueIS1F_EENS1Z_IS1Q_EENS1Z_IS1U_EEEEEEEEvT_E13stored_vtable = linkonce_odr dso_local global %"struct.boost::detail::function::basic_vtable0" { %"struct.boost::detail::function::vtable_base" { ptr @_ZN5boost6detail8function15functor_managerINS_3_bi6bind_tINS3_11unspecifiedENS_8functionIFvRKN6dealii2hp17MappingCollectionILi3ELi3EEERKNS8_10DoFHandlerILi3ELi3EEERKNS8_11QCollectionILi2EEERKSt3mapIhPKNS7_8FunctionILi3EEESt4lessIhESaISt4pairIKhSP_EEERKSt6vectorIPKNS7_6VectorIfEESaIS13_EERKSS_IPKSZ_IbSaIbEESP_ESS_IjjERSL_INS7_12TriaIteratorINS7_11DoFAccessorILi2ESE_EEEESZ_IdSaIdEESQ_IS1J_ESaISS_IKS1J_S1L_EEERNS7_19KellyErrorEstimatorILi3ELi3EE13PerThreadDataEEEENS3_5list9INS_17reference_wrapperISB_EENS1Z_ISF_EENS1Z_ISJ_EENS1Z_ISX_EENS1Z_IS16_EENS1Z_IS1D_EENS3_5valueIS1F_EENS1Z_IS1Q_EENS1Z_IS1U_EEEEEEE6manageERKNS1_15function_bufferERS2D_NS1_30functor_manager_operation_typeE }, ptr @_ZN5boost6detail8function26void_function_obj_invoker0INS_3_bi6bind_tINS3_11unspecifiedENS_8functionIFvRKN6dealii2hp17MappingCollectionILi3ELi3EEERKNS8_10DoFHandlerILi3ELi3EEERKNS8_11QCollectionILi2EEERKSt3mapIhPKNS7_8FunctionILi3EEESt4lessIhESaISt4pairIKhSP_EEERKSt6vectorIPKNS7_6VectorIfEESaIS13_EERKSS_IPKSZ_IbSaIbEESP_ESS_IjjERSL_INS7_12TriaIteratorINS7_11DoFAccessorILi2ESE_EEEESZ_IdSaIdEESQ_IS1J_ESaISS_IKS1J_S1L_EEERNS7_19KellyErrorEstimatorILi3ELi3EE13PerThreadDataEEEENS3_5list9INS_17reference_wrapperISB_EENS1Z_ISF_EENS1Z_ISJ_EENS1Z_ISX_EENS1Z_IS16_EENS1Z_IS1D_EENS3_5valueIS1F_EENS1Z_IS1Q_EENS1Z_IS1U_EEEEEEvE6invokeERNS1_15function_bufferE }, comdat, align 8
@_ZTSN5boost3_bi6bind_tINS0_11unspecifiedENS_8functionIFvRKN6dealii2hp17MappingCollectionILi3ELi3EEERKNS5_10DoFHandlerILi3ELi3EEERKNS5_11QCollectionILi2EEERKSt3mapIhPKNS4_8FunctionILi3EEESt4lessIhESaISt4pairIKhSM_EEERKSt6vectorIPKNS4_6VectorIfEESaIS10_EERKSP_IPKSW_IbSaIbEESM_ESP_IjjERSI_INS4_12TriaIteratorINS4_11DoFAccessorILi2ESB_EEEESW_IdSaIdEESN_IS1G_ESaISP_IKS1G_S1I_EEERNS4_19KellyErrorEstimatorILi3ELi3EE13PerThreadDataEEEENS0_5list9INS_17reference_wrapperIS8_EENS1W_ISC_EENS1W_ISG_EENS1W_ISU_EENS1W_IS13_EENS1W_IS1A_EENS0_5valueIS1C_EENS1W_IS1N_EENS1W_IS1R_EEEEEE = linkonce_odr dso_local constant [568 x i8] c"N5boost3_bi6bind_tINS0_11unspecifiedENS_8functionIFvRKN6dealii2hp17MappingCollectionILi3ELi3EEERKNS5_10DoFHandlerILi3ELi3EEERKNS5_11QCollectionILi2EEERKSt3mapIhPKNS4_8FunctionILi3EEESt4lessIhESaISt4pairIKhSM_EEERKSt6vectorIPKNS4_6VectorIfEESaIS10_EERKSP_IPKSW_IbSaIbEESM_ESP_IjjERSI_INS4_12TriaIteratorINS4_11DoFAccessorILi2ESB_EEEESW_IdSaIdEESN_IS1G_ESaISP_IKS1G_S1I_EEERNS4_19KellyErrorEstimatorILi3ELi3EE13PerThreadDataEEEENS0_5list9INS_17reference_wrapperIS8_EENS1W_ISC_EENS1W_ISG_EENS1W_ISU_EENS1W_IS13_EENS1W_IS1A_EENS0_5valueIS1C_EENS1W_IS1N_EENS1W_IS1R_EEEEEE\00", comdat, align 1
@_ZTIN5boost3_bi6bind_tINS0_11unspecifiedENS_8functionIFvRKN6dealii2hp17MappingCollectionILi3ELi3EEERKNS5_10DoFHandlerILi3ELi3EEERKNS5_11QCollectionILi2EEERKSt3mapIhPKNS4_8FunctionILi3EEESt4lessIhESaISt4pairIKhSM_EEERKSt6vectorIPKNS4_6VectorIfEESaIS10_EERKSP_IPKSW_IbSaIbEESM_ESP_IjjERSI_INS4_12TriaIteratorINS4_11DoFAccessorILi2ESB_EEEESW_IdSaIdEESN_IS1G_ESaISP_IKS1G_S1I_EEERNS4_19KellyErrorEstimatorILi3ELi3EE13PerThreadDataEEEENS0_5list9INS_17reference_wrapperIS8_EENS1W_ISC_EENS1W_ISG_EENS1W_ISU_EENS1W_IS13_EENS1W_IS1A_EENS0_5valueIS1C_EENS1W_IS1N_EENS1W_IS1R_EEEEEE = linkonce_odr dso_local constant { ptr, ptr } { ptr getelementptr inbounds (ptr, ptr @_ZTVN10__cxxabiv117__class_type_infoE, i64 2), ptr @_ZTSN5boost3_bi6bind_tINS0_11unspecifiedENS_8functionIFvRKN6dealii2hp17MappingCollectionILi3ELi3EEERKNS5_10DoFHandlerILi3ELi3EEERKNS5_11QCollectionILi2EEERKSt3mapIhPKNS4_8FunctionILi3EEESt4lessIhESaISt4pairIKhSM_EEERKSt6vectorIPKNS4_6VectorIfEESaIS10_EERKSP_IPKSW_IbSaIbEESM_ESP_IjjERSI_INS4_12TriaIteratorINS4_11DoFAccessorILi2ESB_EEEESW_IdSaIdEESN_IS1G_ESaISP_IKS1G_S1I_EEERNS4_19KellyErrorEstimatorILi3ELi3EE13PerThreadDataEEEENS0_5list9INS_17reference_wrapperIS8_EENS1W_ISC_EENS1W_ISG_EENS1W_ISU_EENS1W_IS13_EENS1W_IS1A_EENS0_5valueIS1C_EENS1W_IS1N_EENS1W_IS1R_EEEEEE }, comdat, align 8
@_ZZN5boost9function9IvRKN6dealii2hp17MappingCollectionILi3ELi3EEERKNS2_10DoFHandlerILi3ELi3EEERKNS2_11QCollectionILi2EEERKSt3mapIhPKNS1_8FunctionILi3EEESt4lessIhESaISt4pairIKhSJ_EEERKSt6vectorIPKNS1_11BlockVectorIdEESaISX_EERKSM_IPKST_IbSaIbEESJ_ESM_IjjERSF_INS1_12TriaIteratorINS1_11DoFAccessorILi2ES8_EEEEST_IdSaIdEESK_IS1D_ESaISM_IKS1D_S1F_EEERNS1_19KellyErrorEstimatorILi3ELi3EE13PerThreadDataEE9assign_toIPFvS6_SA_SE_SS_S11_S18_S19_S1L_S1P_EEEvT_E13stored_vtable = linkonce_odr dso_local global %"struct.boost::detail::function::basic_vtable9.273" { %"struct.boost::detail::function::vtable_base" { ptr @_ZN5boost6detail8function15functor_managerIPFvRKN6dealii2hp17MappingCollectionILi3ELi3EEERKNS4_10DoFHandlerILi3ELi3EEERKNS4_11QCollectionILi2EEERKSt3mapIhPKNS3_8FunctionILi3EEESt4lessIhESaISt4pairIKhSL_EEERKSt6vectorIPKNS3_11BlockVectorIdEESaISZ_EERKSO_IPKSV_IbSaIbEESL_ESO_IjjERSH_INS3_12TriaIteratorINS3_11DoFAccessorILi2ESA_EEEESV_IdSaIdEESM_IS1F_ESaISO_IKS1F_S1H_EEERNS3_19KellyErrorEstimatorILi3ELi3EE13PerThreadDataEEE6manageERKNS1_15function_bufferERS1V_NS1_30functor_manager_operation_typeE }, ptr @_ZN5boost6detail8function22void_function_invoker9IPFvRKN6dealii2hp17MappingCollectionILi3ELi3EEERKNS4_10DoFHandlerILi3ELi3EEERKNS4_11QCollectionILi2EEERKSt3mapIhPKNS3_8FunctionILi3EEESt4lessIhESaISt4pairIKhSL_EEERKSt6vectorIPKNS3_11BlockVectorIdEESaISZ_EERKSO_IPKSV_IbSaIbEESL_ESO_IjjERSH_INS3_12TriaIteratorINS3_11DoFAccessorILi2ESA_EEEESV_IdSaIdEESM_IS1F_ESaISO_IKS1F_S1H_EEERNS3_19KellyErrorEstimatorILi3ELi3EE13PerThreadDataEEvS8_SC_SG_SU_S13_S1A_S1B_S1N_S1R_E6invokeERNS1_15function_bufferES8_SC_SG_SU_S13_S1A_S1B_S1N_S1R_ }, comdat, align 8
@_ZTSPFvRKN6dealii2hp17MappingCollectionILi3ELi3EEERKNS0_10DoFHandlerILi3ELi3EEERKNS0_11QCollectionILi2EEERKSt3mapIhPKNS_8FunctionILi3EEESt4lessIhESaISt4pairIKhSH_EEERKSt6vectorIPKNS_11BlockVectorIdEESaISV_EERKSK_IPKSR_IbSaIbEESH_ESK_IjjERSD_INS_12TriaIteratorINS_11DoFAccessorILi2ES6_EEEESR_IdSaIdEESI_IS1B_ESaISK_IKS1B_S1D_EEERNS_19KellyErrorEstimatorILi3ELi3EE13PerThreadDataEE = linkonce_odr dso_local constant [376 x i8] c"PFvRKN6dealii2hp17MappingCollectionILi3ELi3EEERKNS0_10DoFHandlerILi3ELi3EEERKNS0_11QCollectionILi2EEERKSt3mapIhPKNS_8FunctionILi3EEESt4lessIhESaISt4pairIKhSH_EEERKSt6vectorIPKNS_11BlockVectorIdEESaISV_EERKSK_IPKSR_IbSaIbEESH_ESK_IjjERSD_INS_12TriaIteratorINS_11DoFAccessorILi2ES6_EEEESR_IdSaIdEESI_IS1B_ESaISK_IKS1B_S1D_EEERNS_19KellyErrorEstimatorILi3ELi3EE13PerThreadDataEE\00", comdat, align 1
@_ZTSFvRKN6dealii2hp17MappingCollectionILi3ELi3EEERKNS0_10DoFHandlerILi3ELi3EEERKNS0_11QCollectionILi2EEERKSt3mapIhPKNS_8FunctionILi3EEESt4lessIhESaISt4pairIKhSH_EEERKSt6vectorIPKNS_11BlockVectorIdEESaISV_EERKSK_IPKSR_IbSaIbEESH_ESK_IjjERSD_INS_12TriaIteratorINS_11DoFAccessorILi2ES6_EEEESR_IdSaIdEESI_IS1B_ESaISK_IKS1B_S1D_EEERNS_19KellyErrorEstimatorILi3ELi3EE13PerThreadDataEE = linkonce_odr dso_local constant [375 x i8] c"FvRKN6dealii2hp17MappingCollectionILi3ELi3EEERKNS0_10DoFHandlerILi3ELi3EEERKNS0_11QCollectionILi2EEERKSt3mapIhPKNS_8FunctionILi3EEESt4lessIhESaISt4pairIKhSH_EEERKSt6vectorIPKNS_11BlockVectorIdEESaISV_EERKSK_IPKSR_IbSaIbEESH_ESK_IjjERSD_INS_12TriaIteratorINS_11DoFAccessorILi2ES6_EEEESR_IdSaIdEESI_IS1B_ESaISK_IKS1B_S1D_EEERNS_19KellyErrorEstimatorILi3ELi3EE13PerThreadDataEE\00", comdat, align 1
@_ZTIFvRKN6dealii2hp17MappingCollectionILi3ELi3EEERKNS0_10DoFHandlerILi3ELi3EEERKNS0_11QCollectionILi2EEERKSt3mapIhPKNS_8FunctionILi3EEESt4lessIhESaISt4pairIKhSH_EEERKSt6vectorIPKNS_11BlockVectorIdEESaISV_EERKSK_IPKSR_IbSaIbEESH_ESK_IjjERSD_INS_12TriaIteratorINS_11DoFAccessorILi2ES6_EEEESR_IdSaIdEESI_IS1B_ESaISK_IKS1B_S1D_EEERNS_19KellyErrorEstimatorILi3ELi3EE13PerThreadDataEE = linkonce_odr dso_local constant { ptr, ptr } { ptr getelementptr inbounds (ptr, ptr @_ZTVN10__cxxabiv120__function_type_infoE, i64 2), ptr @_ZTSFvRKN6dealii2hp17MappingCollectionILi3ELi3EEERKNS0_10DoFHandlerILi3ELi3EEERKNS0_11QCollectionILi2EEERKSt3mapIhPKNS_8FunctionILi3EEESt4lessIhESaISt4pairIKhSH_EEERKSt6vectorIPKNS_11BlockVectorIdEESaISV_EERKSK_IPKSR_IbSaIbEESH_ESK_IjjERSD_INS_12TriaIteratorINS_11DoFAccessorILi2ES6_EEEESR_IdSaIdEESI_IS1B_ESaISK_IKS1B_S1D_EEERNS_19KellyErrorEstimatorILi3ELi3EE13PerThreadDataEE }, comdat, align 8
@_ZTIPFvRKN6dealii2hp17MappingCollectionILi3ELi3EEERKNS0_10DoFHandlerILi3ELi3EEERKNS0_11QCollectionILi2EEERKSt3mapIhPKNS_8FunctionILi3EEESt4lessIhESaISt4pairIKhSH_EEERKSt6vectorIPKNS_11BlockVectorIdEESaISV_EERKSK_IPKSR_IbSaIbEESH_ESK_IjjERSD_INS_12TriaIteratorINS_11DoFAccessorILi2ES6_EEEESR_IdSaIdEESI_IS1B_ESaISK_IKS1B_S1D_EEERNS_19KellyErrorEstimatorILi3ELi3EE13PerThreadDataEE = linkonce_odr dso_local constant { ptr, ptr, i32, ptr } { ptr getelementptr inbounds (ptr, ptr @_ZTVN10__cxxabiv119__pointer_type_infoE, i64 2), ptr @_ZTSPFvRKN6dealii2hp17MappingCollectionILi3ELi3EEERKNS0_10DoFHandlerILi3ELi3EEERKNS0_11QCollectionILi2EEERKSt3mapIhPKNS_8FunctionILi3EEESt4lessIhESaISt4pairIKhSH_EEERKSt6vectorIPKNS_11BlockVectorIdEESaISV_EERKSK_IPKSR_IbSaIbEESH_ESK_IjjERSD_INS_12TriaIteratorINS_11DoFAccessorILi2ES6_EEEESR_IdSaIdEESI_IS1B_ESaISK_IKS1B_S1D_EEERNS_19KellyErrorEstimatorILi3ELi3EE13PerThreadDataEE, i32 0, ptr @_ZTIFvRKN6dealii2hp17MappingCollectionILi3ELi3EEERKNS0_10DoFHandlerILi3ELi3EEERKNS0_11QCollectionILi2EEERKSt3mapIhPKNS_8FunctionILi3EEESt4lessIhESaISt4pairIKhSH_EEERKSt6vectorIPKNS_11BlockVectorIdEESaISV_EERKSK_IPKSR_IbSaIbEESH_ESK_IjjERSD_INS_12TriaIteratorINS_11DoFAccessorILi2ES6_EEEESR_IdSaIdEESI_IS1B_ESaISK_IKS1B_S1D_EEERNS_19KellyErrorEstimatorILi3ELi3EE13PerThreadDataEE }, comdat, align 8
@_ZZN5boost9function0IvE9assign_toINS_3_bi6bind_tINS3_11unspecifiedENS_8functionIFvRKN6dealii2hp17MappingCollectionILi3ELi3EEERKNS8_10DoFHandlerILi3ELi3EEERKNS8_11QCollectionILi2EEERKSt3mapIhPKNS7_8FunctionILi3EEESt4lessIhESaISt4pairIKhSP_EEERKSt6vectorIPKNS7_11BlockVectorIdEESaIS13_EERKSS_IPKSZ_IbSaIbEESP_ESS_IjjERSL_INS7_12TriaIteratorINS7_11DoFAccessorILi2ESE_EEEESZ_IdSaIdEESQ_IS1J_ESaISS_IKS1J_S1L_EEERNS7_19KellyErrorEstimatorILi3ELi3EE13PerThreadDataEEEENS3_5list9INS_17reference_wrapperISB_EENS1Z_ISF_EENS1Z_ISJ_EENS1Z_ISX_EENS1Z_IS16_EENS1Z_IS1D_EENS3_5valueIS1F_EENS1Z_IS1Q_EENS1Z_IS1U_EEEEEEEEvT_E13stored_vtable = linkonce_odr dso_local global %"struct.boost::detail::function::basic_vtable0" { %"struct.boost::detail::function::vtable_base" { ptr @_ZN5boost6detail8function15functor_managerINS_3_bi6bind_tINS3_11unspecifiedENS_8functionIFvRKN6dealii2hp17MappingCollectionILi3ELi3EEERKNS8_10DoFHandlerILi3ELi3EEERKNS8_11QCollectionILi2EEERKSt3mapIhPKNS7_8FunctionILi3EEESt4lessIhESaISt4pairIKhSP_EEERKSt6vectorIPKNS7_11BlockVectorIdEESaIS13_EERKSS_IPKSZ_IbSaIbEESP_ESS_IjjERSL_INS7_12TriaIteratorINS7_11DoFAccessorILi2ESE_EEEESZ_IdSaIdEESQ_IS1J_ESaISS_IKS1J_S1L_EEERNS7_19KellyErrorEstimatorILi3ELi3EE13PerThreadDataEEEENS3_5list9INS_17reference_wrapperISB_EENS1Z_ISF_EENS1Z_ISJ_EENS1Z_ISX_EENS1Z_IS16_EENS1Z_IS1D_EENS3_5valueIS1F_EENS1Z_IS1Q_EENS1Z_IS1U_EEEEEEE6manageERKNS1_15function_bufferERS2D_NS1_30functor_manager_operation_typeE }, ptr @_ZN5boost6detail8function26void_function_obj_invoker0INS_3_bi6bind_tINS3_11unspecifiedENS_8functionIFvRKN6dealii2hp17MappingCollectionILi3ELi3EEERKNS8_10DoFHandlerILi3ELi3EEERKNS8_11QCollectionILi2EEERKSt3mapIhPKNS7_8FunctionILi3EEESt4lessIhESaISt4pairIKhSP_EEERKSt6vectorIPKNS7_11BlockVectorIdEESaIS13_EERKSS_IPKSZ_IbSaIbEESP_ESS_IjjERSL_INS7_12TriaIteratorINS7_11DoFAccessorILi2ESE_EEEESZ_IdSaIdEESQ_IS1J_ESaISS_IKS1J_S1L_EEERNS7_19KellyErrorEstimatorILi3ELi3EE13PerThreadDataEEEENS3_5list9INS_17reference_wrapperISB_EENS1Z_ISF_EENS1Z_ISJ_EENS1Z_ISX_EENS1Z_IS16_EENS1Z_IS1D_EENS3_5valueIS1F_EENS1Z_IS1Q_EENS1Z_IS1U_EEEEEEvE6invokeERNS1_15function_bufferE }, comdat, align 8
@_ZTSN5boost3_bi6bind_tINS0_11unspecifiedENS_8functionIFvRKN6dealii2hp17MappingCollectionILi3ELi3EEERKNS5_10DoFHandlerILi3ELi3EEERKNS5_11QCollectionILi2EEERKSt3mapIhPKNS4_8FunctionILi3EEESt4lessIhESaISt4pairIKhSM_EEERKSt6vectorIPKNS4_11BlockVectorIdEESaIS10_EERKSP_IPKSW_IbSaIbEESM_ESP_IjjERSI_INS4_12TriaIteratorINS4_11DoFAccessorILi2ESB_EEEESW_IdSaIdEESN_IS1G_ESaISP_IKS1G_S1I_EEERNS4_19KellyErrorEstimatorILi3ELi3EE13PerThreadDataEEEENS0_5list9INS_17reference_wrapperIS8_EENS1W_ISC_EENS1W_ISG_EENS1W_ISU_EENS1W_IS13_EENS1W_IS1A_EENS0_5valueIS1C_EENS1W_IS1N_EENS1W_IS1R_EEEEEE = linkonce_odr dso_local constant [574 x i8] c"N5boost3_bi6bind_tINS0_11unspecifiedENS_8functionIFvRKN6dealii2hp17MappingCollectionILi3ELi3EEERKNS5_10DoFHandlerILi3ELi3EEERKNS5_11QCollectionILi2EEERKSt3mapIhPKNS4_8FunctionILi3EEESt4lessIhESaISt4pairIKhSM_EEERKSt6vectorIPKNS4_11BlockVectorIdEESaIS10_EERKSP_IPKSW_IbSaIbEESM_ESP_IjjERSI_INS4_12TriaIteratorINS4_11DoFAccessorILi2ESB_EEEESW_IdSaIdEESN_IS1G_ESaISP_IKS1G_S1I_EEERNS4_19KellyErrorEstimatorILi3ELi3EE13PerThreadDataEEEENS0_5list9INS_17reference_wrapperIS8_EENS1W_ISC_EENS1W_ISG_EENS1W_ISU_EENS1W_IS13_EENS1W_IS1A_EENS0_5valueIS1C_EENS1W_IS1N_EENS1W_IS1R_EEEEEE\00", comdat, align 1
@_ZTIN5boost3_bi6bind_tINS0_11unspecifiedENS_8functionIFvRKN6dealii2hp17MappingCollectionILi3ELi3EEERKNS5_10DoFHandlerILi3ELi3EEERKNS5_11QCollectionILi2EEERKSt3mapIhPKNS4_8FunctionILi3EEESt4lessIhESaISt4pairIKhSM_EEERKSt6vectorIPKNS4_11BlockVectorIdEESaIS10_EERKSP_IPKSW_IbSaIbEESM_ESP_IjjERSI_INS4_12TriaIteratorINS4_11DoFAccessorILi2ESB_EEEESW_IdSaIdEESN_IS1G_ESaISP_IKS1G_S1I_EEERNS4_19KellyErrorEstimatorILi3ELi3EE13PerThreadDataEEEENS0_5list9INS_17reference_wrapperIS8_EENS1W_ISC_EENS1W_ISG_EENS1W_ISU_EENS1W_IS13_EENS1W_IS1A_EENS0_5valueIS1C_EENS1W_IS1N_EENS1W_IS1R_EEEEEE = linkonce_odr dso_local constant { ptr, ptr } { ptr getelementptr inbounds (ptr, ptr @_ZTVN10__cxxabiv117__class_type_infoE, i64 2), ptr @_ZTSN5boost3_bi6bind_tINS0_11unspecifiedENS_8functionIFvRKN6dealii2hp17MappingCollectionILi3ELi3EEERKNS5_10DoFHandlerILi3ELi3EEERKNS5_11QCollectionILi2EEERKSt3mapIhPKNS4_8FunctionILi3EEESt4lessIhESaISt4pairIKhSM_EEERKSt6vectorIPKNS4_11BlockVectorIdEESaIS10_EERKSP_IPKSW_IbSaIbEESM_ESP_IjjERSI_INS4_12TriaIteratorINS4_11DoFAccessorILi2ESB_EEEESW_IdSaIdEESN_IS1G_ESaISP_IKS1G_S1I_EEERNS4_19KellyErrorEstimatorILi3ELi3EE13PerThreadDataEEEENS0_5list9INS_17reference_wrapperIS8_EENS1W_ISC_EENS1W_ISG_EENS1W_ISU_EENS1W_IS13_EENS1W_IS1A_EENS0_5valueIS1C_EENS1W_IS1N_EENS1W_IS1R_EEEEEE }, comdat, align 8
@_ZZN5boost9function9IvRKN6dealii2hp17MappingCollectionILi3ELi3EEERKNS2_10DoFHandlerILi3ELi3EEERKNS2_11QCollectionILi2EEERKSt3mapIhPKNS1_8FunctionILi3EEESt4lessIhESaISt4pairIKhSJ_EEERKSt6vectorIPKNS1_11BlockVectorIfEESaISX_EERKSM_IPKST_IbSaIbEESJ_ESM_IjjERSF_INS1_12TriaIteratorINS1_11DoFAccessorILi2ES8_EEEEST_IdSaIdEESK_IS1D_ESaISM_IKS1D_S1F_EEERNS1_19KellyErrorEstimatorILi3ELi3EE13PerThreadDataEE9assign_toIPFvS6_SA_SE_SS_S11_S18_S19_S1L_S1P_EEEvT_E13stored_vtable = linkonce_odr dso_local global %"struct.boost::detail::function::basic_vtable9.274" { %"struct.boost::detail::function::vtable_base" { ptr @_ZN5boost6detail8function15functor_managerIPFvRKN6dealii2hp17MappingCollectionILi3ELi3EEERKNS4_10DoFHandlerILi3ELi3EEERKNS4_11QCollectionILi2EEERKSt3mapIhPKNS3_8FunctionILi3EEESt4lessIhESaISt4pairIKhSL_EEERKSt6vectorIPKNS3_11BlockVectorIfEESaISZ_EERKSO_IPKSV_IbSaIbEESL_ESO_IjjERSH_INS3_12TriaIteratorINS3_11DoFAccessorILi2ESA_EEEESV_IdSaIdEESM_IS1F_ESaISO_IKS1F_S1H_EEERNS3_19KellyErrorEstimatorILi3ELi3EE13PerThreadDataEEE6manageERKNS1_15function_bufferERS1V_NS1_30functor_manager_operation_typeE }, ptr @_ZN5boost6detail8function22void_function_invoker9IPFvRKN6dealii2hp17MappingCollectionILi3ELi3EEERKNS4_10DoFHandlerILi3ELi3EEERKNS4_11QCollectionILi2EEERKSt3mapIhPKNS3_8FunctionILi3EEESt4lessIhESaISt4pairIKhSL_EEERKSt6vectorIPKNS3_11BlockVectorIfEESaISZ_EERKSO_IPKSV_IbSaIbEESL_ESO_IjjERSH_INS3_12TriaIteratorINS3_11DoFAccessorILi2ESA_EEEESV_IdSaIdEESM_IS1F_ESaISO_IKS1F_S1H_EEERNS3_19KellyErrorEstimatorILi3ELi3EE13PerThreadDataEEvS8_SC_SG_SU_S13_S1A_S1B_S1N_S1R_E6invokeERNS1_15function_bufferES8_SC_SG_SU_S13_S1A_S1B_S1N_S1R_ }, comdat, align 8
@_ZTSPFvRKN6dealii2hp17MappingCollectionILi3ELi3EEERKNS0_10DoFHandlerILi3ELi3EEERKNS0_11QCollectionILi2EEERKSt3mapIhPKNS_8FunctionILi3EEESt4lessIhESaISt4pairIKhSH_EEERKSt6vectorIPKNS_11BlockVectorIfEESaISV_EERKSK_IPKSR_IbSaIbEESH_ESK_IjjERSD_INS_12TriaIteratorINS_11DoFAccessorILi2ES6_EEEESR_IdSaIdEESI_IS1B_ESaISK_IKS1B_S1D_EEERNS_19KellyErrorEstimatorILi3ELi3EE13PerThreadDataEE = linkonce_odr dso_local constant [376 x i8] c"PFvRKN6dealii2hp17MappingCollectionILi3ELi3EEERKNS0_10DoFHandlerILi3ELi3EEERKNS0_11QCollectionILi2EEERKSt3mapIhPKNS_8FunctionILi3EEESt4lessIhESaISt4pairIKhSH_EEERKSt6vectorIPKNS_11BlockVectorIfEESaISV_EERKSK_IPKSR_IbSaIbEESH_ESK_IjjERSD_INS_12TriaIteratorINS_11DoFAccessorILi2ES6_EEEESR_IdSaIdEESI_IS1B_ESaISK_IKS1B_S1D_EEERNS_19KellyErrorEstimatorILi3ELi3EE13PerThreadDataEE\00", comdat, align 1
@_ZTSFvRKN6dealii2hp17MappingCollectionILi3ELi3EEERKNS0_10DoFHandlerILi3ELi3EEERKNS0_11QCollectionILi2EEERKSt3mapIhPKNS_8FunctionILi3EEESt4lessIhESaISt4pairIKhSH_EEERKSt6vectorIPKNS_11BlockVectorIfEESaISV_EERKSK_IPKSR_IbSaIbEESH_ESK_IjjERSD_INS_12TriaIteratorINS_11DoFAccessorILi2ES6_EEEESR_IdSaIdEESI_IS1B_ESaISK_IKS1B_S1D_EEERNS_19KellyErrorEstimatorILi3ELi3EE13PerThreadDataEE = linkonce_odr dso_local constant [375 x i8] c"FvRKN6dealii2hp17MappingCollectionILi3ELi3EEERKNS0_10DoFHandlerILi3ELi3EEERKNS0_11QCollectionILi2EEERKSt3mapIhPKNS_8FunctionILi3EEESt4lessIhESaISt4pairIKhSH_EEERKSt6vectorIPKNS_11BlockVectorIfEESaISV_EERKSK_IPKSR_IbSaIbEESH_ESK_IjjERSD_INS_12TriaIteratorINS_11DoFAccessorILi2ES6_EEEESR_IdSaIdEESI_IS1B_ESaISK_IKS1B_S1D_EEERNS_19KellyErrorEstimatorILi3ELi3EE13PerThreadDataEE\00", comdat, align 1
@_ZTIFvRKN6dealii2hp17MappingCollectionILi3ELi3EEERKNS0_10DoFHandlerILi3ELi3EEERKNS0_11QCollectionILi2EEERKSt3mapIhPKNS_8FunctionILi3EEESt4lessIhESaISt4pairIKhSH_EEERKSt6vectorIPKNS_11BlockVectorIfEESaISV_EERKSK_IPKSR_IbSaIbEESH_ESK_IjjERSD_INS_12TriaIteratorINS_11DoFAccessorILi2ES6_EEEESR_IdSaIdEESI_IS1B_ESaISK_IKS1B_S1D_EEERNS_19KellyErrorEstimatorILi3ELi3EE13PerThreadDataEE = linkonce_odr dso_local constant { ptr, ptr } { ptr getelementptr inbounds (ptr, ptr @_ZTVN10__cxxabiv120__function_type_infoE, i64 2), ptr @_ZTSFvRKN6dealii2hp17MappingCollectionILi3ELi3EEERKNS0_10DoFHandlerILi3ELi3EEERKNS0_11QCollectionILi2EEERKSt3mapIhPKNS_8FunctionILi3EEESt4lessIhESaISt4pairIKhSH_EEERKSt6vectorIPKNS_11BlockVectorIfEESaISV_EERKSK_IPKSR_IbSaIbEESH_ESK_IjjERSD_INS_12TriaIteratorINS_11DoFAccessorILi2ES6_EEEESR_IdSaIdEESI_IS1B_ESaISK_IKS1B_S1D_EEERNS_19KellyErrorEstimatorILi3ELi3EE13PerThreadDataEE }, comdat, align 8
@_ZTIPFvRKN6dealii2hp17MappingCollectionILi3ELi3EEERKNS0_10DoFHandlerILi3ELi3EEERKNS0_11QCollectionILi2EEERKSt3mapIhPKNS_8FunctionILi3EEESt4lessIhESaISt4pairIKhSH_EEERKSt6vectorIPKNS_11BlockVectorIfEESaISV_EERKSK_IPKSR_IbSaIbEESH_ESK_IjjERSD_INS_12TriaIteratorINS_11DoFAccessorILi2ES6_EEEESR_IdSaIdEESI_IS1B_ESaISK_IKS1B_S1D_EEERNS_19KellyErrorEstimatorILi3ELi3EE13PerThreadDataEE = linkonce_odr dso_local constant { ptr, ptr, i32, ptr } { ptr getelementptr inbounds (ptr, ptr @_ZTVN10__cxxabiv119__pointer_type_infoE, i64 2), ptr @_ZTSPFvRKN6dealii2hp17MappingCollectionILi3ELi3EEERKNS0_10DoFHandlerILi3ELi3EEERKNS0_11QCollectionILi2EEERKSt3mapIhPKNS_8FunctionILi3EEESt4lessIhESaISt4pairIKhSH_EEERKSt6vectorIPKNS_11BlockVectorIfEESaISV_EERKSK_IPKSR_IbSaIbEESH_ESK_IjjERSD_INS_12TriaIteratorINS_11DoFAccessorILi2ES6_EEEESR_IdSaIdEESI_IS1B_ESaISK_IKS1B_S1D_EEERNS_19KellyErrorEstimatorILi3ELi3EE13PerThreadDataEE, i32 0, ptr @_ZTIFvRKN6dealii2hp17MappingCollectionILi3ELi3EEERKNS0_10DoFHandlerILi3ELi3EEERKNS0_11QCollectionILi2EEERKSt3mapIhPKNS_8FunctionILi3EEESt4lessIhESaISt4pairIKhSH_EEERKSt6vectorIPKNS_11BlockVectorIfEESaISV_EERKSK_IPKSR_IbSaIbEESH_ESK_IjjERSD_INS_12TriaIteratorINS_11DoFAccessorILi2ES6_EEEESR_IdSaIdEESI_IS1B_ESaISK_IKS1B_S1D_EEERNS_19KellyErrorEstimatorILi3ELi3EE13PerThreadDataEE }, comdat, align 8
@_ZZN5boost9function0IvE9assign_toINS_3_bi6bind_tINS3_11unspecifiedENS_8functionIFvRKN6dealii2hp17MappingCollectionILi3ELi3EEERKNS8_10DoFHandlerILi3ELi3EEERKNS8_11QCollectionILi2EEERKSt3mapIhPKNS7_8FunctionILi3EEESt4lessIhESaISt4pairIKhSP_EEERKSt6vectorIPKNS7_11BlockVectorIfEESaIS13_EERKSS_IPKSZ_IbSaIbEESP_ESS_IjjERSL_INS7_12TriaIteratorINS7_11DoFAccessorILi2ESE_EEEESZ_IdSaIdEESQ_IS1J_ESaISS_IKS1J_S1L_EEERNS7_19KellyErrorEstimatorILi3ELi3EE13PerThreadDataEEEENS3_5list9INS_17reference_wrapperISB_EENS1Z_ISF_EENS1Z_ISJ_EENS1Z_ISX_EENS1Z_IS16_EENS1Z_IS1D_EENS3_5valueIS1F_EENS1Z_IS1Q_EENS1Z_IS1U_EEEEEEEEvT_E13stored_vtable = linkonce_odr dso_local global %"struct.boost::detail::function::basic_vtable0" { %"struct.boost::detail::function::vtable_base" { ptr @_ZN5boost6detail8function15functor_managerINS_3_bi6bind_tINS3_11unspecifiedENS_8functionIFvRKN6dealii2hp17MappingCollectionILi3ELi3EEERKNS8_10DoFHandlerILi3ELi3EEERKNS8_11QCollectionILi2EEERKSt3mapIhPKNS7_8FunctionILi3EEESt4lessIhESaISt4pairIKhSP_EEERKSt6vectorIPKNS7_11BlockVectorIfEESaIS13_EERKSS_IPKSZ_IbSaIbEESP_ESS_IjjERSL_INS7_12TriaIteratorINS7_11DoFAccessorILi2ESE_EEEESZ_IdSaIdEESQ_IS1J_ESaISS_IKS1J_S1L_EEERNS7_19KellyErrorEstimatorILi3ELi3EE13PerThreadDataEEEENS3_5list9INS_17reference_wrapperISB_EENS1Z_ISF_EENS1Z_ISJ_EENS1Z_ISX_EENS1Z_IS16_EENS1Z_IS1D_EENS3_5valueIS1F_EENS1Z_IS1Q_EENS1Z_IS1U_EEEEEEE6manageERKNS1_15function_bufferERS2D_NS1_30functor_manager_operation_typeE }, ptr @_ZN5boost6detail8function26void_function_obj_invoker0INS_3_bi6bind_tINS3_11unspecifiedENS_8functionIFvRKN6dealii2hp17MappingCollectionILi3ELi3EEERKNS8_10DoFHandlerILi3ELi3EEERKNS8_11QCollectionILi2EEERKSt3mapIhPKNS7_8FunctionILi3EEESt4lessIhESaISt4pairIKhSP_EEERKSt6vectorIPKNS7_11BlockVectorIfEESaIS13_EERKSS_IPKSZ_IbSaIbEESP_ESS_IjjERSL_INS7_12TriaIteratorINS7_11DoFAccessorILi2ESE_EEEESZ_IdSaIdEESQ_IS1J_ESaISS_IKS1J_S1L_EEERNS7_19KellyErrorEstimatorILi3ELi3EE13PerThreadDataEEEENS3_5list9INS_17reference_wrapperISB_EENS1Z_ISF_EENS1Z_ISJ_EENS1Z_ISX_EENS1Z_IS16_EENS1Z_IS1D_EENS3_5valueIS1F_EENS1Z_IS1Q_EENS1Z_IS1U_EEEEEEvE6invokeERNS1_15function_bufferE }, comdat, align 8
@_ZTSN5boost3_bi6bind_tINS0_11unspecifiedENS_8functionIFvRKN6dealii2hp17MappingCollectionILi3ELi3EEERKNS5_10DoFHandlerILi3ELi3EEERKNS5_11QCollectionILi2EEERKSt3mapIhPKNS4_8FunctionILi3EEESt4lessIhESaISt4pairIKhSM_EEERKSt6vectorIPKNS4_11BlockVectorIfEESaIS10_EERKSP_IPKSW_IbSaIbEESM_ESP_IjjERSI_INS4_12TriaIteratorINS4_11DoFAccessorILi2ESB_EEEESW_IdSaIdEESN_IS1G_ESaISP_IKS1G_S1I_EEERNS4_19KellyErrorEstimatorILi3ELi3EE13PerThreadDataEEEENS0_5list9INS_17reference_wrapperIS8_EENS1W_ISC_EENS1W_ISG_EENS1W_ISU_EENS1W_IS13_EENS1W_IS1A_EENS0_5valueIS1C_EENS1W_IS1N_EENS1W_IS1R_EEEEEE = linkonce_odr dso_local constant [574 x i8] c"N5boost3_bi6bind_tINS0_11unspecifiedENS_8functionIFvRKN6dealii2hp17MappingCollectionILi3ELi3EEERKNS5_10DoFHandlerILi3ELi3EEERKNS5_11QCollectionILi2EEERKSt3mapIhPKNS4_8FunctionILi3EEESt4lessIhESaISt4pairIKhSM_EEERKSt6vectorIPKNS4_11BlockVectorIfEESaIS10_EERKSP_IPKSW_IbSaIbEESM_ESP_IjjERSI_INS4_12TriaIteratorINS4_11DoFAccessorILi2ESB_EEEESW_IdSaIdEESN_IS1G_ESaISP_IKS1G_S1I_EEERNS4_19KellyErrorEstimatorILi3ELi3EE13PerThreadDataEEEENS0_5list9INS_17reference_wrapperIS8_EENS1W_ISC_EENS1W_ISG_EENS1W_ISU_EENS1W_IS13_EENS1W_IS1A_EENS0_5valueIS1C_EENS1W_IS1N_EENS1W_IS1R_EEEEEE\00", comdat, align 1
@_ZTIN5boost3_bi6bind_tINS0_11unspecifiedENS_8functionIFvRKN6dealii2hp17MappingCollectionILi3ELi3EEERKNS5_10DoFHandlerILi3ELi3EEERKNS5_11QCollectionILi2EEERKSt3mapIhPKNS4_8FunctionILi3EEESt4lessIhESaISt4pairIKhSM_EEERKSt6vectorIPKNS4_11BlockVectorIfEESaIS10_EERKSP_IPKSW_IbSaIbEESM_ESP_IjjERSI_INS4_12TriaIteratorINS4_11DoFAccessorILi2ESB_EEEESW_IdSaIdEESN_IS1G_ESaISP_IKS1G_S1I_EEERNS4_19KellyErrorEstimatorILi3ELi3EE13PerThreadDataEEEENS0_5list9INS_17reference_wrapperIS8_EENS1W_ISC_EENS1W_ISG_EENS1W_ISU_EENS1W_IS13_EENS1W_IS1A_EENS0_5valueIS1C_EENS1W_IS1N_EENS1W_IS1R_EEEEEE = linkonce_odr dso_local constant { ptr, ptr } { ptr getelementptr inbounds (ptr, ptr @_ZTVN10__cxxabiv117__class_type_infoE, i64 2), ptr @_ZTSN5boost3_bi6bind_tINS0_11unspecifiedENS_8functionIFvRKN6dealii2hp17MappingCollectionILi3ELi3EEERKNS5_10DoFHandlerILi3ELi3EEERKNS5_11QCollectionILi2EEERKSt3mapIhPKNS4_8FunctionILi3EEESt4lessIhESaISt4pairIKhSM_EEERKSt6vectorIPKNS4_11BlockVectorIfEESaIS10_EERKSP_IPKSW_IbSaIbEESM_ESP_IjjERSI_INS4_12TriaIteratorINS4_11DoFAccessorILi2ESB_EEEESW_IdSaIdEESN_IS1G_ESaISP_IKS1G_S1I_EEERNS4_19KellyErrorEstimatorILi3ELi3EE13PerThreadDataEEEENS0_5list9INS_17reference_wrapperIS8_EENS1W_ISC_EENS1W_ISG_EENS1W_ISU_EENS1W_IS13_EENS1W_IS1A_EENS0_5valueIS1C_EENS1W_IS1N_EENS1W_IS1R_EEEEEE }, comdat, align 8
@llvm.global_ctors = appending global [0 x { i32, ptr, ptr }] zeroinitializer

@_ZN6dealii19KellyErrorEstimatorILi3ELi3EE31ExcIncompatibleNumberOfElementsC1Eii = weak_odr dso_local unnamed_addr alias void (ptr, i32, i32), ptr @_ZN6dealii19KellyErrorEstimatorILi3ELi3EE31ExcIncompatibleNumberOfElementsC2Eii
@_ZN6dealii19KellyErrorEstimatorILi3ELi3EE31ExcIncompatibleNumberOfElementsD1Ev = weak_odr dso_local unnamed_addr alias void (ptr), ptr @_ZN6dealii19KellyErrorEstimatorILi3ELi3EE31ExcIncompatibleNumberOfElementsD2Ev
@_ZN6dealii19KellyErrorEstimatorILi3ELi3EE13PerThreadDataC1Ejjjjj = weak_odr dso_local unnamed_addr alias void (ptr, i32, i32, i32, i32, i32), ptr @_ZN6dealii19KellyErrorEstimatorILi3ELi3EE13PerThreadDataC2Ejjjjj

; Function Attrs: sspstrong uwtable
define weak_odr dso_local void @_ZN6dealii19KellyErrorEstimatorILi3ELi3EE31ExcIncompatibleNumberOfElementsC2Eii(ptr noundef nonnull align 8 dereferenceable(68) %0, i32 noundef %1, i32 noundef %2) unnamed_addr #0 comdat($_ZN6dealii19KellyErrorEstimatorILi3ELi3EE31ExcIncompatibleNumberOfElementsC5Eii) align 2 {
  tail call void @_ZN6dealii13ExceptionBaseC2Ev(ptr noundef nonnull align 8 dereferenceable(60) %0)
  store ptr getelementptr inbounds ({ [6 x ptr] }, ptr @_ZTVN6dealii19KellyErrorEstimatorILi3ELi3EE31ExcIncompatibleNumberOfElementsE, i64 0, inrange i32 0, i64 2), ptr %0, align 8, !tbaa !5
  %4 = getelementptr inbounds %"class.dealii::KellyErrorEstimator<3, 3>::ExcIncompatibleNumberOfElements", ptr %0, i64 0, i32 1
  store i32 %1, ptr %4, align 4, !tbaa !8
  %5 = getelementptr inbounds %"class.dealii::KellyErrorEstimator<3, 3>::ExcIncompatibleNumberOfElements", ptr %0, i64 0, i32 2
  store i32 %2, ptr %5, align 8, !tbaa !15
  ret void
}

declare void @_ZN6dealii13ExceptionBaseC2Ev(ptr noundef nonnull align 8 dereferenceable(60)) unnamed_addr #1

; Function Attrs: nounwind sspstrong uwtable
define weak_odr dso_local void @_ZN6dealii19KellyErrorEstimatorILi3ELi3EE31ExcIncompatibleNumberOfElementsD2Ev(ptr noundef nonnull align 8 dereferenceable(68) %0) unnamed_addr #2 comdat($_ZN6dealii19KellyErrorEstimatorILi3ELi3EE31ExcIncompatibleNumberOfElementsD5Ev) align 2 {
  tail call void @_ZN6dealii13ExceptionBaseD2Ev(ptr noundef nonnull align 8 dereferenceable(60) %0) #19
  ret void
}

; Function Attrs: nounwind sspstrong uwtable
define weak_odr dso_local void @_ZN6dealii19KellyErrorEstimatorILi3ELi3EE31ExcIncompatibleNumberOfElementsD0Ev(ptr noundef nonnull align 8 dereferenceable(68) %0) unnamed_addr #2 comdat($_ZN6dealii19KellyErrorEstimatorILi3ELi3EE31ExcIncompatibleNumberOfElementsD5Ev) align 2 {
  tail call void @_ZN6dealii13ExceptionBaseD2Ev(ptr noundef nonnull align 8 dereferenceable(60) %0) #19
  tail call void @_ZdlPv(ptr noundef nonnull %0) #20
  ret void
}

; Function Attrs: nobuiltin nounwind
declare void @_ZdlPv(ptr noundef) local_unnamed_addr #3

; Function Attrs: sspstrong uwtable
define weak_odr dso_local void @_ZNK6dealii19KellyErrorEstimatorILi3ELi3EE31ExcIncompatibleNumberOfElements10print_infoERSo(ptr noundef nonnull align 8 dereferenceable(68) %0, ptr noundef nonnull align 8 dereferenceable(8) %1) unnamed_addr #0 comdat align 2 {
  %3 = tail call noundef nonnull align 8 dereferenceable(8) ptr @_ZSt16__ostream_insertIcSt11char_traitsIcEERSt13basic_ostreamIT_T0_ES6_PKS3_l(ptr noundef nonnull align 8 dereferenceable(8) %1, ptr noundef nonnull @.str, i64 noundef 23)
  %4 = getelementptr inbounds %"class.dealii::KellyErrorEstimator<3, 3>::ExcIncompatibleNumberOfElements", ptr %0, i64 0, i32 1
  %5 = load i32, ptr %4, align 4, !tbaa !8
  %6 = tail call noundef nonnull align 8 dereferenceable(8) ptr @_ZNSolsEi(ptr noundef nonnull align 8 dereferenceable(8) %1, i32 noundef %5)
  %7 = tail call noundef nonnull align 8 dereferenceable(8) ptr @_ZSt16__ostream_insertIcSt11char_traitsIcEERSt13basic_ostreamIT_T0_ES6_PKS3_l(ptr noundef nonnull align 8 dereferenceable(8) %6, ptr noundef nonnull @.str.9, i64 noundef 5)
  %8 = getelementptr inbounds %"class.dealii::KellyErrorEstimator<3, 3>::ExcIncompatibleNumberOfElements", ptr %0, i64 0, i32 2
  %9 = load i32, ptr %8, align 8, !tbaa !15
  %10 = tail call noundef nonnull align 8 dereferenceable(8) ptr @_ZNSolsEi(ptr noundef nonnull align 8 dereferenceable(8) %6, i32 noundef %9)
  %11 = tail call noundef nonnull align 8 dereferenceable(8) ptr @_ZSt16__ostream_insertIcSt11char_traitsIcEERSt13basic_ostreamIT_T0_ES6_PKS3_l(ptr noundef nonnull align 8 dereferenceable(8) %10, ptr noundef nonnull @.str.10, i64 noundef 29)
  %12 = load ptr, ptr %10, align 8, !tbaa !5
  %13 = getelementptr i8, ptr %12, i64 -24
  %14 = load i64, ptr %13, align 8
  %15 = getelementptr inbounds i8, ptr %10, i64 %14
  %16 = getelementptr inbounds %"class.std::basic_ios", ptr %15, i64 0, i32 5
  %17 = load ptr, ptr %16, align 8, !tbaa !16
  %18 = icmp eq ptr %17, null
  br i1 %18, label %19, label %20

19:                                               ; preds = %2
  tail call void @_ZSt16__throw_bad_castv() #21
  unreachable

20:                                               ; preds = %2
  %21 = getelementptr inbounds %"class.std::ctype", ptr %17, i64 0, i32 8
  %22 = load i8, ptr %21, align 8, !tbaa !25
  %23 = icmp eq i8 %22, 0
  br i1 %23, label %27, label %24

24:                                               ; preds = %20
  %25 = getelementptr inbounds %"class.std::ctype", ptr %17, i64 0, i32 9, i64 10
  %26 = load i8, ptr %25, align 1, !tbaa !28
  br label %32

27:                                               ; preds = %20
  tail call void @_ZNKSt5ctypeIcE13_M_widen_initEv(ptr noundef nonnull align 8 dereferenceable(570) %17)
  %28 = load ptr, ptr %17, align 8, !tbaa !5
  %29 = getelementptr inbounds ptr, ptr %28, i64 6
  %30 = load ptr, ptr %29, align 8
  %31 = tail call noundef signext i8 %30(ptr noundef nonnull align 8 dereferenceable(570) %17, i8 noundef signext 10)
  br label %32

32:                                               ; preds = %24, %27
  %33 = phi i8 [ %26, %24 ], [ %31, %27 ]
  %34 = tail call noundef nonnull align 8 dereferenceable(8) ptr @_ZNSo3putEc(ptr noundef nonnull align 8 dereferenceable(8) %10, i8 noundef signext %33)
  %35 = tail call noundef nonnull align 8 dereferenceable(8) ptr @_ZNSo5flushEv(ptr noundef nonnull align 8 dereferenceable(8) %34)
  ret void
}

declare noundef nonnull align 8 dereferenceable(8) ptr @_ZNSolsEi(ptr noundef nonnull align 8 dereferenceable(8), i32 noundef) local_unnamed_addr #1

; Function Attrs: sspstrong uwtable
define weak_odr dso_local void @_ZN6dealii19KellyErrorEstimatorILi3ELi3EE13PerThreadDataC2Ejjjjj(ptr noundef nonnull align 8 dereferenceable(176) %0, i32 noundef %1, i32 noundef %2, i32 noundef %3, i32 noundef %4, i32 noundef %5) unnamed_addr #0 comdat($_ZN6dealii19KellyErrorEstimatorILi3ELi3EE13PerThreadDataC5Ejjjjj) align 2 personality ptr @__gxx_personality_v0 {
  %7 = alloca double, align 8
  %8 = alloca double, align 8
  %9 = alloca double, align 8
  %10 = alloca %"class.dealii::Point", align 8
  %11 = alloca %"class.dealii::Vector", align 8
  %12 = alloca %"class.std::vector.39", align 8
  %13 = alloca %"class.std::vector.44", align 8
  %14 = alloca %"class.std::vector.44", align 8
  %15 = alloca %"class.std::vector.26", align 8
  %16 = alloca %"class.std::vector.49", align 8
  %17 = alloca %"class.std::vector.49", align 8
  %18 = alloca %"class.dealii::Tensor", align 8
  %19 = alloca %"class.dealii::Tensor", align 8
  %20 = getelementptr inbounds %"struct.dealii::KellyErrorEstimator<3, 3>::PerThreadData", ptr %0, i64 0, i32 1
  %21 = getelementptr inbounds %"struct.dealii::KellyErrorEstimator<3, 3>::PerThreadData", ptr %0, i64 0, i32 2
  %22 = getelementptr inbounds %"struct.dealii::KellyErrorEstimator<3, 3>::PerThreadData", ptr %0, i64 0, i32 3
  %23 = getelementptr inbounds %"struct.dealii::KellyErrorEstimator<3, 3>::PerThreadData", ptr %0, i64 0, i32 4
  %24 = getelementptr inbounds %"struct.dealii::KellyErrorEstimator<3, 3>::PerThreadData", ptr %0, i64 0, i32 5
  %25 = getelementptr inbounds %"struct.dealii::KellyErrorEstimator<3, 3>::PerThreadData", ptr %0, i64 0, i32 6
  %26 = getelementptr inbounds %"struct.dealii::KellyErrorEstimator<3, 3>::PerThreadData", ptr %0, i64 0, i32 7
  tail call void @llvm.memset.p0.i64(ptr noundef nonnull align 8 dereferenceable(168) %0, i8 0, i64 168, i1 false)
  store i32 %4, ptr %26, align 8, !tbaa !29
  %27 = getelementptr inbounds %"struct.dealii::KellyErrorEstimator<3, 3>::PerThreadData", ptr %0, i64 0, i32 8
  store i32 %5, ptr %27, align 4, !tbaa !51
  %28 = zext i32 %3 to i64
  call void @llvm.memset.p0.i64(ptr noundef nonnull align 8 dereferenceable(24) %10, i8 0, i64 24, i1 false), !tbaa !52
  %29 = icmp eq i32 %3, 0
  br i1 %29, label %35, label %30

30:                                               ; preds = %6
  invoke void @_ZNSt6vectorIN6dealii5PointILi3EEESaIS2_EE14_M_fill_insertEN9__gnu_cxx17__normal_iteratorIPS2_S4_EEmRKS2_(ptr noundef nonnull align 8 dereferenceable(24) %22, ptr null, i64 noundef %28, ptr noundef nonnull align 8 dereferenceable(24) %10)
          to label %31 unwind label %286

31:                                               ; preds = %30
  %32 = getelementptr inbounds %"struct.dealii::KellyErrorEstimator<3, 3>::PerThreadData", ptr %0, i64 0, i32 4, i32 0, i32 0, i32 0, i32 1
  %33 = load ptr, ptr %32, align 8, !tbaa !54
  %34 = load ptr, ptr %23, align 8, !tbaa !55
  br label %35

35:                                               ; preds = %6, %31
  %36 = phi ptr [ %34, %31 ], [ null, %6 ]
  %37 = phi ptr [ %33, %31 ], [ null, %6 ]
  call void @llvm.lifetime.start.p0(i64 8, ptr nonnull %9)
  store double 0.000000e+00, ptr %9, align 8, !tbaa !52
  %38 = getelementptr inbounds %"struct.dealii::KellyErrorEstimator<3, 3>::PerThreadData", ptr %0, i64 0, i32 4, i32 0, i32 0, i32 0, i32 1
  %39 = ptrtoint ptr %37 to i64
  %40 = ptrtoint ptr %36 to i64
  %41 = sub i64 %39, %40
  %42 = ashr exact i64 %41, 3
  %43 = icmp ult i64 %42, %28
  br i1 %43, label %44, label %46

44:                                               ; preds = %35
  %45 = sub nsw i64 %28, %42
  invoke void @_ZNSt6vectorIdSaIdEE14_M_fill_insertEN9__gnu_cxx17__normal_iteratorIPdS1_EEmRKd(ptr noundef nonnull align 8 dereferenceable(24) %23, ptr %37, i64 noundef %45, ptr noundef nonnull align 8 dereferenceable(8) %9)
          to label %52 unwind label %286

46:                                               ; preds = %35
  %47 = icmp ugt i64 %42, %28
  br i1 %47, label %48, label %52

48:                                               ; preds = %46
  %49 = getelementptr inbounds double, ptr %36, i64 %28
  %50 = icmp eq ptr %37, %49
  br i1 %50, label %52, label %51

51:                                               ; preds = %48
  store ptr %49, ptr %38, align 8, !tbaa !56
  br label %52

52:                                               ; preds = %51, %48, %46, %44
  call void @llvm.lifetime.end.p0(i64 8, ptr nonnull %9)
  invoke void @_ZN6dealii11SubscriptorC2Ev(ptr noundef nonnull align 8 dereferenceable(72) %11)
          to label %53 unwind label %286

53:                                               ; preds = %52
  store ptr getelementptr inbounds ({ [6 x ptr] }, ptr @_ZTVN6dealii6VectorIdEE, i64 0, inrange i32 0, i64 2), ptr %11, align 8, !tbaa !5
  %54 = getelementptr inbounds %"class.dealii::Vector", ptr %11, i64 0, i32 1
  call void @llvm.memset.p0.i64(ptr noundef nonnull align 8 dereferenceable(16) %54, i8 0, i64 16, i1 false)
  %55 = getelementptr inbounds %"struct.dealii::KellyErrorEstimator<3, 3>::PerThreadData", ptr %0, i64 0, i32 5, i32 0, i32 0, i32 0, i32 1
  %56 = load ptr, ptr %55, align 8, !tbaa !54
  %57 = load ptr, ptr %24, align 8, !tbaa !57
  %58 = ptrtoint ptr %56 to i64
  %59 = ptrtoint ptr %57 to i64
  %60 = sub i64 %58, %59
  %61 = sdiv exact i64 %60, 88
  %62 = icmp ult i64 %61, %28
  br i1 %62, label %63, label %65

63:                                               ; preds = %53
  %64 = sub nsw i64 %28, %61
  invoke void @_ZNSt6vectorIN6dealii6VectorIdEESaIS2_EE14_M_fill_insertEN9__gnu_cxx17__normal_iteratorIPS2_S4_EEmRKS2_(ptr noundef nonnull align 8 dereferenceable(24) %24, ptr %56, i64 noundef %64, ptr noundef nonnull align 8 dereferenceable(88) %11)
          to label %78 unwind label %290

65:                                               ; preds = %53
  %66 = icmp ugt i64 %61, %28
  br i1 %66, label %67, label %78

67:                                               ; preds = %65
  %68 = getelementptr inbounds %"class.dealii::Vector", ptr %57, i64 %28
  %69 = icmp eq ptr %56, %68
  br i1 %69, label %78, label %70

70:                                               ; preds = %67, %74
  %71 = phi ptr [ %75, %74 ], [ %68, %67 ]
  %72 = load ptr, ptr %71, align 8, !tbaa !5
  %73 = load ptr, ptr %72, align 8
  invoke void %73(ptr noundef nonnull align 8 dereferenceable(88) %71)
          to label %74 unwind label %288

74:                                               ; preds = %70
  %75 = getelementptr inbounds %"class.dealii::Vector", ptr %71, i64 1
  %76 = icmp eq ptr %75, %56
  br i1 %76, label %77, label %70

77:                                               ; preds = %74
  store ptr %68, ptr %55, align 8, !tbaa !58
  br label %78

78:                                               ; preds = %77, %67, %65, %63
  store ptr getelementptr inbounds ({ [6 x ptr] }, ptr @_ZTVN6dealii6VectorIdEE, i64 0, inrange i32 0, i64 2), ptr %11, align 8, !tbaa !5
  %79 = getelementptr inbounds %"class.dealii::Vector", ptr %11, i64 0, i32 3
  %80 = load ptr, ptr %79, align 8, !tbaa !59
  %81 = icmp eq ptr %80, null
  br i1 %81, label %83, label %82

82:                                               ; preds = %78
  call void @_ZdaPv(ptr noundef nonnull %80) #20
  store ptr null, ptr %79, align 8, !tbaa !59
  br label %83

83:                                               ; preds = %82, %78
  invoke void @_ZN6dealii11SubscriptorD2Ev(ptr noundef nonnull align 8 dereferenceable(72) %11)
          to label %84 unwind label %286

84:                                               ; preds = %83
  call void @llvm.lifetime.start.p0(i64 8, ptr nonnull %8)
  store double 0.000000e+00, ptr %8, align 8, !tbaa !52
  %85 = getelementptr inbounds %"struct.dealii::KellyErrorEstimator<3, 3>::PerThreadData", ptr %0, i64 0, i32 6, i32 0, i32 0, i32 0, i32 1
  %86 = load ptr, ptr %85, align 8, !tbaa !54
  %87 = load ptr, ptr %25, align 8, !tbaa !55
  %88 = ptrtoint ptr %86 to i64
  %89 = ptrtoint ptr %87 to i64
  %90 = sub i64 %88, %89
  %91 = ashr exact i64 %90, 3
  %92 = icmp ult i64 %91, %28
  br i1 %92, label %93, label %95

93:                                               ; preds = %84
  %94 = sub nsw i64 %28, %91
  invoke void @_ZNSt6vectorIdSaIdEE14_M_fill_insertEN9__gnu_cxx17__normal_iteratorIPdS1_EEmRKd(ptr noundef nonnull align 8 dereferenceable(24) %25, ptr %86, i64 noundef %94, ptr noundef nonnull align 8 dereferenceable(8) %8)
          to label %101 unwind label %286

95:                                               ; preds = %84
  %96 = icmp ugt i64 %91, %28
  br i1 %96, label %97, label %101

97:                                               ; preds = %95
  %98 = getelementptr inbounds double, ptr %87, i64 %28
  %99 = icmp eq ptr %86, %98
  br i1 %99, label %101, label %100

100:                                              ; preds = %97
  store ptr %98, ptr %85, align 8, !tbaa !56
  br label %101

101:                                              ; preds = %93, %95, %97, %100
  call void @llvm.lifetime.end.p0(i64 8, ptr nonnull %8)
  %102 = zext i32 %1 to i64
  call void @llvm.memset.p0.i64(ptr noundef nonnull align 8 dereferenceable(24) %12, i8 0, i64 24, i1 false)
  %103 = getelementptr inbounds %"struct.std::_Vector_base<std::vector<std::vector<double> >, std::allocator<std::vector<std::vector<double> > > >::_Vector_impl_data", ptr %0, i64 0, i32 1
  %104 = load ptr, ptr %103, align 8, !tbaa !54
  %105 = load ptr, ptr %0, align 8, !tbaa !70
  %106 = ptrtoint ptr %104 to i64
  %107 = ptrtoint ptr %105 to i64
  %108 = sub i64 %106, %107
  %109 = sdiv exact i64 %108, 24
  %110 = icmp ult i64 %109, %102
  br i1 %110, label %111, label %113

111:                                              ; preds = %101
  %112 = sub nsw i64 %102, %109
  invoke void @_ZNSt6vectorIS_IS_IdSaIdEESaIS1_EESaIS3_EE14_M_fill_insertEN9__gnu_cxx17__normal_iteratorIPS3_S5_EEmRKS3_(ptr noundef nonnull align 8 dereferenceable(24) %0, ptr %104, i64 noundef %112, ptr noundef nonnull align 8 dereferenceable(24) %12)
          to label %142 unwind label %294

113:                                              ; preds = %101
  %114 = icmp ugt i64 %109, %102
  br i1 %114, label %115, label %142

115:                                              ; preds = %113
  %116 = getelementptr inbounds %"class.std::vector.39", ptr %105, i64 %102
  %117 = icmp eq ptr %104, %116
  br i1 %117, label %142, label %118

118:                                              ; preds = %115, %138
  %119 = phi ptr [ %139, %138 ], [ %116, %115 ]
  %120 = load ptr, ptr %119, align 8, !tbaa !71
  %121 = getelementptr inbounds %"struct.std::_Vector_base<std::vector<double>, std::allocator<std::vector<double> > >::_Vector_impl_data", ptr %119, i64 0, i32 1
  %122 = load ptr, ptr %121, align 8, !tbaa !73
  %123 = icmp eq ptr %120, %122
  br i1 %123, label %134, label %124

124:                                              ; preds = %118, %129
  %125 = phi ptr [ %130, %129 ], [ %120, %118 ]
  %126 = load ptr, ptr %125, align 8, !tbaa !55
  %127 = icmp eq ptr %126, null
  br i1 %127, label %129, label %128

128:                                              ; preds = %124
  call void @_ZdlPv(ptr noundef nonnull %126) #20
  br label %129

129:                                              ; preds = %128, %124
  %130 = getelementptr inbounds %"class.std::vector.26", ptr %125, i64 1
  %131 = icmp eq ptr %130, %122
  br i1 %131, label %132, label %124

132:                                              ; preds = %129
  %133 = load ptr, ptr %119, align 8, !tbaa !71
  br label %134

134:                                              ; preds = %132, %118
  %135 = phi ptr [ %133, %132 ], [ %120, %118 ]
  %136 = icmp eq ptr %135, null
  br i1 %136, label %138, label %137

137:                                              ; preds = %134
  call void @_ZdlPv(ptr noundef nonnull %135) #20
  br label %138

138:                                              ; preds = %137, %134
  %139 = getelementptr inbounds %"class.std::vector.39", ptr %119, i64 1
  %140 = icmp eq ptr %139, %104
  br i1 %140, label %141, label %118

141:                                              ; preds = %138
  store ptr %116, ptr %103, align 8, !tbaa !74
  br label %142

142:                                              ; preds = %141, %115, %113, %111
  %143 = load ptr, ptr %12, align 8, !tbaa !71
  %144 = getelementptr inbounds %"struct.std::_Vector_base<std::vector<double>, std::allocator<std::vector<double> > >::_Vector_impl_data", ptr %12, i64 0, i32 1
  %145 = load ptr, ptr %144, align 8, !tbaa !73
  %146 = icmp eq ptr %143, %145
  br i1 %146, label %157, label %147

147:                                              ; preds = %142, %152
  %148 = phi ptr [ %153, %152 ], [ %143, %142 ]
  %149 = load ptr, ptr %148, align 8, !tbaa !55
  %150 = icmp eq ptr %149, null
  br i1 %150, label %152, label %151

151:                                              ; preds = %147
  call void @_ZdlPv(ptr noundef nonnull %149) #20
  br label %152

152:                                              ; preds = %151, %147
  %153 = getelementptr inbounds %"class.std::vector.26", ptr %148, i64 1
  %154 = icmp eq ptr %153, %145
  br i1 %154, label %155, label %147

155:                                              ; preds = %152
  %156 = load ptr, ptr %12, align 8, !tbaa !71
  br label %157

157:                                              ; preds = %155, %142
  %158 = phi ptr [ %156, %155 ], [ %143, %142 ]
  %159 = icmp eq ptr %158, null
  br i1 %159, label %161, label %160

160:                                              ; preds = %157
  call void @_ZdlPv(ptr noundef nonnull %158) #20
  br label %161

161:                                              ; preds = %157, %160
  call void @llvm.memset.p0.i64(ptr noundef nonnull align 8 dereferenceable(24) %13, i8 0, i64 24, i1 false)
  %162 = getelementptr inbounds %"struct.dealii::KellyErrorEstimator<3, 3>::PerThreadData", ptr %0, i64 0, i32 1, i32 0, i32 0, i32 0, i32 1
  %163 = load ptr, ptr %162, align 8, !tbaa !54
  %164 = load ptr, ptr %20, align 8, !tbaa !75
  %165 = ptrtoint ptr %163 to i64
  %166 = ptrtoint ptr %164 to i64
  %167 = sub i64 %165, %166
  %168 = sdiv exact i64 %167, 24
  %169 = icmp ult i64 %168, %102
  br i1 %169, label %170, label %172

170:                                              ; preds = %161
  %171 = sub nsw i64 %102, %168
  invoke void @_ZNSt6vectorIS_IS_IN6dealii6TensorILi1ELi3EEESaIS2_EESaIS4_EESaIS6_EE14_M_fill_insertEN9__gnu_cxx17__normal_iteratorIPS6_S8_EEmRKS6_(ptr noundef nonnull align 8 dereferenceable(24) %20, ptr %163, i64 noundef %171, ptr noundef nonnull align 8 dereferenceable(24) %13)
          to label %201 unwind label %296

172:                                              ; preds = %161
  %173 = icmp ugt i64 %168, %102
  br i1 %173, label %174, label %201

174:                                              ; preds = %172
  %175 = getelementptr inbounds %"class.std::vector.44", ptr %164, i64 %102
  %176 = icmp eq ptr %163, %175
  br i1 %176, label %201, label %177

177:                                              ; preds = %174, %197
  %178 = phi ptr [ %198, %197 ], [ %175, %174 ]
  %179 = load ptr, ptr %178, align 8, !tbaa !76
  %180 = getelementptr inbounds %"struct.std::_Vector_base<std::vector<dealii::Tensor<1, 3> >, std::allocator<std::vector<dealii::Tensor<1, 3> > > >::_Vector_impl_data", ptr %178, i64 0, i32 1
  %181 = load ptr, ptr %180, align 8, !tbaa !78
  %182 = icmp eq ptr %179, %181
  br i1 %182, label %193, label %183

183:                                              ; preds = %177, %188
  %184 = phi ptr [ %189, %188 ], [ %179, %177 ]
  %185 = load ptr, ptr %184, align 8, !tbaa !79
  %186 = icmp eq ptr %185, null
  br i1 %186, label %188, label %187

187:                                              ; preds = %183
  call void @_ZdlPv(ptr noundef nonnull %185) #20
  br label %188

188:                                              ; preds = %187, %183
  %189 = getelementptr inbounds %"class.std::vector.49", ptr %184, i64 1
  %190 = icmp eq ptr %189, %181
  br i1 %190, label %191, label %183

191:                                              ; preds = %188
  %192 = load ptr, ptr %178, align 8, !tbaa !76
  br label %193

193:                                              ; preds = %191, %177
  %194 = phi ptr [ %192, %191 ], [ %179, %177 ]
  %195 = icmp eq ptr %194, null
  br i1 %195, label %197, label %196

196:                                              ; preds = %193
  call void @_ZdlPv(ptr noundef nonnull %194) #20
  br label %197

197:                                              ; preds = %196, %193
  %198 = getelementptr inbounds %"class.std::vector.44", ptr %178, i64 1
  %199 = icmp eq ptr %198, %163
  br i1 %199, label %200, label %177

200:                                              ; preds = %197
  store ptr %175, ptr %162, align 8, !tbaa !81
  br label %201

201:                                              ; preds = %200, %174, %172, %170
  %202 = load ptr, ptr %13, align 8, !tbaa !76
  %203 = getelementptr inbounds %"struct.std::_Vector_base<std::vector<dealii::Tensor<1, 3> >, std::allocator<std::vector<dealii::Tensor<1, 3> > > >::_Vector_impl_data", ptr %13, i64 0, i32 1
  %204 = load ptr, ptr %203, align 8, !tbaa !78
  %205 = icmp eq ptr %202, %204
  br i1 %205, label %216, label %206

206:                                              ; preds = %201, %211
  %207 = phi ptr [ %212, %211 ], [ %202, %201 ]
  %208 = load ptr, ptr %207, align 8, !tbaa !79
  %209 = icmp eq ptr %208, null
  br i1 %209, label %211, label %210

210:                                              ; preds = %206
  call void @_ZdlPv(ptr noundef nonnull %208) #20
  br label %211

211:                                              ; preds = %210, %206
  %212 = getelementptr inbounds %"class.std::vector.49", ptr %207, i64 1
  %213 = icmp eq ptr %212, %204
  br i1 %213, label %214, label %206

214:                                              ; preds = %211
  %215 = load ptr, ptr %13, align 8, !tbaa !76
  br label %216

216:                                              ; preds = %214, %201
  %217 = phi ptr [ %215, %214 ], [ %202, %201 ]
  %218 = icmp eq ptr %217, null
  br i1 %218, label %220, label %219

219:                                              ; preds = %216
  call void @_ZdlPv(ptr noundef nonnull %217) #20
  br label %220

220:                                              ; preds = %216, %219
  call void @llvm.memset.p0.i64(ptr noundef nonnull align 8 dereferenceable(24) %14, i8 0, i64 24, i1 false)
  %221 = getelementptr inbounds %"struct.dealii::KellyErrorEstimator<3, 3>::PerThreadData", ptr %0, i64 0, i32 2, i32 0, i32 0, i32 0, i32 1
  %222 = load ptr, ptr %221, align 8, !tbaa !54
  %223 = load ptr, ptr %21, align 8, !tbaa !75
  %224 = ptrtoint ptr %222 to i64
  %225 = ptrtoint ptr %223 to i64
  %226 = sub i64 %224, %225
  %227 = sdiv exact i64 %226, 24
  %228 = icmp ult i64 %227, %102
  br i1 %228, label %229, label %231

229:                                              ; preds = %220
  %230 = sub nsw i64 %102, %227
  invoke void @_ZNSt6vectorIS_IS_IN6dealii6TensorILi1ELi3EEESaIS2_EESaIS4_EESaIS6_EE14_M_fill_insertEN9__gnu_cxx17__normal_iteratorIPS6_S8_EEmRKS6_(ptr noundef nonnull align 8 dereferenceable(24) %21, ptr %222, i64 noundef %230, ptr noundef nonnull align 8 dereferenceable(24) %14)
          to label %260 unwind label %298

231:                                              ; preds = %220
  %232 = icmp ugt i64 %227, %102
  br i1 %232, label %233, label %260

233:                                              ; preds = %231
  %234 = getelementptr inbounds %"class.std::vector.44", ptr %223, i64 %102
  %235 = icmp eq ptr %222, %234
  br i1 %235, label %260, label %236

236:                                              ; preds = %233, %256
  %237 = phi ptr [ %257, %256 ], [ %234, %233 ]
  %238 = load ptr, ptr %237, align 8, !tbaa !76
  %239 = getelementptr inbounds %"struct.std::_Vector_base<std::vector<dealii::Tensor<1, 3> >, std::allocator<std::vector<dealii::Tensor<1, 3> > > >::_Vector_impl_data", ptr %237, i64 0, i32 1
  %240 = load ptr, ptr %239, align 8, !tbaa !78
  %241 = icmp eq ptr %238, %240
  br i1 %241, label %252, label %242

242:                                              ; preds = %236, %247
  %243 = phi ptr [ %248, %247 ], [ %238, %236 ]
  %244 = load ptr, ptr %243, align 8, !tbaa !79
  %245 = icmp eq ptr %244, null
  br i1 %245, label %247, label %246

246:                                              ; preds = %242
  call void @_ZdlPv(ptr noundef nonnull %244) #20
  br label %247

247:                                              ; preds = %246, %242
  %248 = getelementptr inbounds %"class.std::vector.49", ptr %243, i64 1
  %249 = icmp eq ptr %248, %240
  br i1 %249, label %250, label %242

250:                                              ; preds = %247
  %251 = load ptr, ptr %237, align 8, !tbaa !76
  br label %252

252:                                              ; preds = %250, %236
  %253 = phi ptr [ %251, %250 ], [ %238, %236 ]
  %254 = icmp eq ptr %253, null
  br i1 %254, label %256, label %255

255:                                              ; preds = %252
  call void @_ZdlPv(ptr noundef nonnull %253) #20
  br label %256

256:                                              ; preds = %255, %252
  %257 = getelementptr inbounds %"class.std::vector.44", ptr %237, i64 1
  %258 = icmp eq ptr %257, %222
  br i1 %258, label %259, label %236

259:                                              ; preds = %256
  store ptr %234, ptr %221, align 8, !tbaa !81
  br label %260

260:                                              ; preds = %259, %233, %231, %229
  %261 = load ptr, ptr %14, align 8, !tbaa !76
  %262 = getelementptr inbounds %"struct.std::_Vector_base<std::vector<dealii::Tensor<1, 3> >, std::allocator<std::vector<dealii::Tensor<1, 3> > > >::_Vector_impl_data", ptr %14, i64 0, i32 1
  %263 = load ptr, ptr %262, align 8, !tbaa !78
  %264 = icmp eq ptr %261, %263
  br i1 %264, label %275, label %265

265:                                              ; preds = %260, %270
  %266 = phi ptr [ %271, %270 ], [ %261, %260 ]
  %267 = load ptr, ptr %266, align 8, !tbaa !79
  %268 = icmp eq ptr %267, null
  br i1 %268, label %270, label %269

269:                                              ; preds = %265
  call void @_ZdlPv(ptr noundef nonnull %267) #20
  br label %270

270:                                              ; preds = %269, %265
  %271 = getelementptr inbounds %"class.std::vector.49", ptr %266, i64 1
  %272 = icmp eq ptr %271, %263
  br i1 %272, label %273, label %265

273:                                              ; preds = %270
  %274 = load ptr, ptr %14, align 8, !tbaa !76
  br label %275

275:                                              ; preds = %273, %260
  %276 = phi ptr [ %274, %273 ], [ %261, %260 ]
  %277 = icmp eq ptr %276, null
  br i1 %277, label %279, label %278

278:                                              ; preds = %275
  call void @_ZdlPv(ptr noundef nonnull %276) #20
  br label %279

279:                                              ; preds = %275, %278
  %280 = icmp eq i32 %1, 0
  br i1 %280, label %284, label %281

281:                                              ; preds = %279
  %282 = icmp eq i32 %3, 0
  %283 = zext i32 %2 to i64
  br label %300

284:                                              ; preds = %395, %279
  %285 = icmp eq i32 %3, 0
  br i1 %285, label %482, label %483

286:                                              ; preds = %93, %83, %52, %44, %30
  %287 = landingpad { ptr, i32 }
          cleanup
  br label %495

288:                                              ; preds = %70
  %289 = landingpad { ptr, i32 }
          cleanup
  br label %292

290:                                              ; preds = %63
  %291 = landingpad { ptr, i32 }
          cleanup
  br label %292

292:                                              ; preds = %290, %288
  %293 = phi { ptr, i32 } [ %289, %288 ], [ %291, %290 ]
  invoke void @_ZN6dealii6VectorIdED2Ev(ptr noundef nonnull align 8 dereferenceable(88) %11)
          to label %495 unwind label %513

294:                                              ; preds = %111
  %295 = landingpad { ptr, i32 }
          cleanup
  invoke void @_ZNSt6vectorIS_IdSaIdEESaIS1_EED2Ev(ptr noundef nonnull align 8 dereferenceable(24) %12)
          to label %495 unwind label %513

296:                                              ; preds = %170
  %297 = landingpad { ptr, i32 }
          cleanup
  invoke void @_ZNSt6vectorIS_IN6dealii6TensorILi1ELi3EEESaIS2_EESaIS4_EED2Ev(ptr noundef nonnull align 8 dereferenceable(24) %13)
          to label %495 unwind label %513

298:                                              ; preds = %229
  %299 = landingpad { ptr, i32 }
          cleanup
  invoke void @_ZNSt6vectorIS_IN6dealii6TensorILi1ELi3EEESaIS2_EESaIS4_EED2Ev(ptr noundef nonnull align 8 dereferenceable(24) %14)
          to label %495 unwind label %513

300:                                              ; preds = %281, %395
  %301 = phi i64 [ 0, %281 ], [ %396, %395 ]
  %302 = load ptr, ptr %0, align 8, !tbaa !70
  %303 = getelementptr inbounds %"class.std::vector.39", ptr %302, i64 %301
  call void @llvm.memset.p0.i64(ptr noundef nonnull align 8 dereferenceable(24) %15, i8 0, i64 24, i1 false)
  %304 = getelementptr inbounds %"struct.std::_Vector_base<std::vector<double>, std::allocator<std::vector<double> > >::_Vector_impl_data", ptr %303, i64 0, i32 1
  %305 = load ptr, ptr %304, align 8, !tbaa !54
  %306 = load ptr, ptr %303, align 8, !tbaa !71
  %307 = ptrtoint ptr %305 to i64
  %308 = ptrtoint ptr %306 to i64
  %309 = sub i64 %307, %308
  %310 = sdiv exact i64 %309, 24
  %311 = icmp ult i64 %310, %28
  br i1 %311, label %312, label %314

312:                                              ; preds = %300
  %313 = sub nsw i64 %28, %310
  invoke void @_ZNSt6vectorIS_IdSaIdEESaIS1_EE14_M_fill_insertEN9__gnu_cxx17__normal_iteratorIPS1_S3_EEmRKS1_(ptr noundef nonnull align 8 dereferenceable(24) %303, ptr %305, i64 noundef %313, ptr noundef nonnull align 8 dereferenceable(24) %15)
          to label %328 unwind label %398

314:                                              ; preds = %300
  %315 = icmp ugt i64 %310, %28
  br i1 %315, label %316, label %328

316:                                              ; preds = %314
  %317 = getelementptr inbounds %"class.std::vector.26", ptr %306, i64 %28
  %318 = icmp eq ptr %305, %317
  br i1 %318, label %328, label %319

319:                                              ; preds = %316, %324
  %320 = phi ptr [ %325, %324 ], [ %317, %316 ]
  %321 = load ptr, ptr %320, align 8, !tbaa !55
  %322 = icmp eq ptr %321, null
  br i1 %322, label %324, label %323

323:                                              ; preds = %319
  call void @_ZdlPv(ptr noundef nonnull %321) #20
  br label %324

324:                                              ; preds = %323, %319
  %325 = getelementptr inbounds %"class.std::vector.26", ptr %320, i64 1
  %326 = icmp eq ptr %325, %305
  br i1 %326, label %327, label %319

327:                                              ; preds = %324
  store ptr %317, ptr %304, align 8, !tbaa !73
  br label %328

328:                                              ; preds = %327, %316, %314, %312
  %329 = load ptr, ptr %15, align 8, !tbaa !55
  %330 = icmp eq ptr %329, null
  br i1 %330, label %332, label %331

331:                                              ; preds = %328
  call void @_ZdlPv(ptr noundef nonnull %329) #20
  br label %332

332:                                              ; preds = %328, %331
  %333 = load ptr, ptr %20, align 8, !tbaa !75
  %334 = getelementptr inbounds %"class.std::vector.44", ptr %333, i64 %301
  call void @llvm.memset.p0.i64(ptr noundef nonnull align 8 dereferenceable(24) %16, i8 0, i64 24, i1 false)
  %335 = getelementptr inbounds %"struct.std::_Vector_base<std::vector<dealii::Tensor<1, 3> >, std::allocator<std::vector<dealii::Tensor<1, 3> > > >::_Vector_impl_data", ptr %334, i64 0, i32 1
  %336 = load ptr, ptr %335, align 8, !tbaa !54
  %337 = load ptr, ptr %334, align 8, !tbaa !76
  %338 = ptrtoint ptr %336 to i64
  %339 = ptrtoint ptr %337 to i64
  %340 = sub i64 %338, %339
  %341 = sdiv exact i64 %340, 24
  %342 = icmp ult i64 %341, %28
  br i1 %342, label %343, label %345

343:                                              ; preds = %332
  %344 = sub nsw i64 %28, %341
  invoke void @_ZNSt6vectorIS_IN6dealii6TensorILi1ELi3EEESaIS2_EESaIS4_EE14_M_fill_insertEN9__gnu_cxx17__normal_iteratorIPS4_S6_EEmRKS4_(ptr noundef nonnull align 8 dereferenceable(24) %334, ptr %336, i64 noundef %344, ptr noundef nonnull align 8 dereferenceable(24) %16)
          to label %359 unwind label %403

345:                                              ; preds = %332
  %346 = icmp ugt i64 %341, %28
  br i1 %346, label %347, label %359

347:                                              ; preds = %345
  %348 = getelementptr inbounds %"class.std::vector.49", ptr %337, i64 %28
  %349 = icmp eq ptr %336, %348
  br i1 %349, label %359, label %350

350:                                              ; preds = %347, %355
  %351 = phi ptr [ %356, %355 ], [ %348, %347 ]
  %352 = load ptr, ptr %351, align 8, !tbaa !79
  %353 = icmp eq ptr %352, null
  br i1 %353, label %355, label %354

354:                                              ; preds = %350
  call void @_ZdlPv(ptr noundef nonnull %352) #20
  br label %355

355:                                              ; preds = %354, %350
  %356 = getelementptr inbounds %"class.std::vector.49", ptr %351, i64 1
  %357 = icmp eq ptr %356, %336
  br i1 %357, label %358, label %350

358:                                              ; preds = %355
  store ptr %348, ptr %335, align 8, !tbaa !78
  br label %359

359:                                              ; preds = %358, %347, %345, %343
  %360 = load ptr, ptr %16, align 8, !tbaa !79
  %361 = icmp eq ptr %360, null
  br i1 %361, label %363, label %362

362:                                              ; preds = %359
  call void @_ZdlPv(ptr noundef nonnull %360) #20
  br label %363

363:                                              ; preds = %359, %362
  %364 = load ptr, ptr %21, align 8, !tbaa !75
  %365 = getelementptr inbounds %"class.std::vector.44", ptr %364, i64 %301
  call void @llvm.memset.p0.i64(ptr noundef nonnull align 8 dereferenceable(24) %17, i8 0, i64 24, i1 false)
  %366 = getelementptr inbounds %"struct.std::_Vector_base<std::vector<dealii::Tensor<1, 3> >, std::allocator<std::vector<dealii::Tensor<1, 3> > > >::_Vector_impl_data", ptr %365, i64 0, i32 1
  %367 = load ptr, ptr %366, align 8, !tbaa !54
  %368 = load ptr, ptr %365, align 8, !tbaa !76
  %369 = ptrtoint ptr %367 to i64
  %370 = ptrtoint ptr %368 to i64
  %371 = sub i64 %369, %370
  %372 = sdiv exact i64 %371, 24
  %373 = icmp ult i64 %372, %28
  br i1 %373, label %374, label %376

374:                                              ; preds = %363
  %375 = sub nsw i64 %28, %372
  invoke void @_ZNSt6vectorIS_IN6dealii6TensorILi1ELi3EEESaIS2_EESaIS4_EE14_M_fill_insertEN9__gnu_cxx17__normal_iteratorIPS4_S6_EEmRKS4_(ptr noundef nonnull align 8 dereferenceable(24) %365, ptr %367, i64 noundef %375, ptr noundef nonnull align 8 dereferenceable(24) %17)
          to label %390 unwind label %408

376:                                              ; preds = %363
  %377 = icmp ugt i64 %372, %28
  br i1 %377, label %378, label %390

378:                                              ; preds = %376
  %379 = getelementptr inbounds %"class.std::vector.49", ptr %368, i64 %28
  %380 = icmp eq ptr %367, %379
  br i1 %380, label %390, label %381

381:                                              ; preds = %378, %386
  %382 = phi ptr [ %387, %386 ], [ %379, %378 ]
  %383 = load ptr, ptr %382, align 8, !tbaa !79
  %384 = icmp eq ptr %383, null
  br i1 %384, label %386, label %385

385:                                              ; preds = %381
  call void @_ZdlPv(ptr noundef nonnull %383) #20
  br label %386

386:                                              ; preds = %385, %381
  %387 = getelementptr inbounds %"class.std::vector.49", ptr %382, i64 1
  %388 = icmp eq ptr %387, %367
  br i1 %388, label %389, label %381

389:                                              ; preds = %386
  store ptr %379, ptr %366, align 8, !tbaa !78
  br label %390

390:                                              ; preds = %389, %378, %376, %374
  %391 = load ptr, ptr %17, align 8, !tbaa !79
  %392 = icmp eq ptr %391, null
  br i1 %392, label %394, label %393

393:                                              ; preds = %390
  call void @_ZdlPv(ptr noundef nonnull %391) #20
  br label %394

394:                                              ; preds = %390, %393
  br i1 %282, label %395, label %413

395:                                              ; preds = %477, %394
  %396 = add nuw nsw i64 %301, 1
  %397 = icmp eq i64 %396, %102
  br i1 %397, label %284, label %300

398:                                              ; preds = %312
  %399 = landingpad { ptr, i32 }
          cleanup
  %400 = load ptr, ptr %15, align 8, !tbaa !55
  %401 = icmp eq ptr %400, null
  br i1 %401, label %495, label %402

402:                                              ; preds = %398
  call void @_ZdlPv(ptr noundef nonnull %400) #20
  br label %495

403:                                              ; preds = %343
  %404 = landingpad { ptr, i32 }
          cleanup
  %405 = load ptr, ptr %16, align 8, !tbaa !79
  %406 = icmp eq ptr %405, null
  br i1 %406, label %495, label %407

407:                                              ; preds = %403
  call void @_ZdlPv(ptr noundef nonnull %405) #20
  br label %495

408:                                              ; preds = %374
  %409 = landingpad { ptr, i32 }
          cleanup
  %410 = load ptr, ptr %17, align 8, !tbaa !79
  %411 = icmp eq ptr %410, null
  br i1 %411, label %495, label %412

412:                                              ; preds = %408
  call void @_ZdlPv(ptr noundef nonnull %410) #20
  br label %495

413:                                              ; preds = %394, %477
  %414 = phi i64 [ %478, %477 ], [ 0, %394 ]
  %415 = load ptr, ptr %0, align 8, !tbaa !70
  %416 = getelementptr inbounds %"class.std::vector.39", ptr %415, i64 %301
  %417 = load ptr, ptr %416, align 8, !tbaa !71
  %418 = getelementptr inbounds %"class.std::vector.26", ptr %417, i64 %414
  call void @llvm.lifetime.start.p0(i64 8, ptr nonnull %7)
  store double 0.000000e+00, ptr %7, align 8, !tbaa !52
  %419 = getelementptr inbounds %"struct.std::_Vector_base<double, std::allocator<double> >::_Vector_impl_data", ptr %418, i64 0, i32 1
  %420 = load ptr, ptr %419, align 8, !tbaa !54
  %421 = load ptr, ptr %418, align 8, !tbaa !55
  %422 = ptrtoint ptr %420 to i64
  %423 = ptrtoint ptr %421 to i64
  %424 = sub i64 %422, %423
  %425 = ashr exact i64 %424, 3
  %426 = icmp ult i64 %425, %283
  br i1 %426, label %427, label %429

427:                                              ; preds = %413
  %428 = sub nsw i64 %283, %425
  invoke void @_ZNSt6vectorIdSaIdEE14_M_fill_insertEN9__gnu_cxx17__normal_iteratorIPdS1_EEmRKd(ptr noundef nonnull align 8 dereferenceable(24) %418, ptr %420, i64 noundef %428, ptr noundef nonnull align 8 dereferenceable(8) %7)
          to label %435 unwind label %480

429:                                              ; preds = %413
  %430 = icmp ugt i64 %425, %283
  br i1 %430, label %431, label %435

431:                                              ; preds = %429
  %432 = getelementptr inbounds double, ptr %421, i64 %283
  %433 = icmp eq ptr %420, %432
  br i1 %433, label %435, label %434

434:                                              ; preds = %431
  store ptr %432, ptr %419, align 8, !tbaa !56
  br label %435

435:                                              ; preds = %434, %431, %429, %427
  call void @llvm.lifetime.end.p0(i64 8, ptr nonnull %7)
  %436 = load ptr, ptr %20, align 8, !tbaa !75
  %437 = getelementptr inbounds %"class.std::vector.44", ptr %436, i64 %301
  %438 = load ptr, ptr %437, align 8, !tbaa !76
  %439 = getelementptr inbounds %"class.std::vector.49", ptr %438, i64 %414
  call void @llvm.memset.p0.i64(ptr noundef nonnull align 8 dereferenceable(24) %18, i8 0, i64 24, i1 false), !tbaa !52
  %440 = getelementptr inbounds %"struct.std::_Vector_base<dealii::Tensor<1, 3>, std::allocator<dealii::Tensor<1, 3> > >::_Vector_impl_data", ptr %439, i64 0, i32 1
  %441 = load ptr, ptr %440, align 8, !tbaa !54
  %442 = load ptr, ptr %439, align 8, !tbaa !79
  %443 = ptrtoint ptr %441 to i64
  %444 = ptrtoint ptr %442 to i64
  %445 = sub i64 %443, %444
  %446 = sdiv exact i64 %445, 24
  %447 = icmp ult i64 %446, %283
  br i1 %447, label %448, label %450

448:                                              ; preds = %435
  %449 = sub nsw i64 %283, %446
  invoke void @_ZNSt6vectorIN6dealii6TensorILi1ELi3EEESaIS2_EE14_M_fill_insertEN9__gnu_cxx17__normal_iteratorIPS2_S4_EEmRKS2_(ptr noundef nonnull align 8 dereferenceable(24) %439, ptr %441, i64 noundef %449, ptr noundef nonnull align 8 dereferenceable(24) %18)
          to label %456 unwind label %480

450:                                              ; preds = %435
  %451 = icmp ugt i64 %446, %283
  br i1 %451, label %452, label %456

452:                                              ; preds = %450
  %453 = getelementptr inbounds %"class.dealii::Tensor", ptr %442, i64 %283
  %454 = icmp eq ptr %441, %453
  br i1 %454, label %456, label %455

455:                                              ; preds = %452
  store ptr %453, ptr %440, align 8, !tbaa !82
  br label %456

456:                                              ; preds = %455, %452, %450, %448
  %457 = load ptr, ptr %21, align 8, !tbaa !75
  %458 = getelementptr inbounds %"class.std::vector.44", ptr %457, i64 %301
  %459 = load ptr, ptr %458, align 8, !tbaa !76
  %460 = getelementptr inbounds %"class.std::vector.49", ptr %459, i64 %414
  call void @llvm.memset.p0.i64(ptr noundef nonnull align 8 dereferenceable(24) %19, i8 0, i64 24, i1 false), !tbaa !52
  %461 = getelementptr inbounds %"struct.std::_Vector_base<dealii::Tensor<1, 3>, std::allocator<dealii::Tensor<1, 3> > >::_Vector_impl_data", ptr %460, i64 0, i32 1
  %462 = load ptr, ptr %461, align 8, !tbaa !54
  %463 = load ptr, ptr %460, align 8, !tbaa !79
  %464 = ptrtoint ptr %462 to i64
  %465 = ptrtoint ptr %463 to i64
  %466 = sub i64 %464, %465
  %467 = sdiv exact i64 %466, 24
  %468 = icmp ult i64 %467, %283
  br i1 %468, label %469, label %471

469:                                              ; preds = %456
  %470 = sub nsw i64 %283, %467
  invoke void @_ZNSt6vectorIN6dealii6TensorILi1ELi3EEESaIS2_EE14_M_fill_insertEN9__gnu_cxx17__normal_iteratorIPS2_S4_EEmRKS2_(ptr noundef nonnull align 8 dereferenceable(24) %460, ptr %462, i64 noundef %470, ptr noundef nonnull align 8 dereferenceable(24) %19)
          to label %477 unwind label %480

471:                                              ; preds = %456
  %472 = icmp ugt i64 %467, %283
  br i1 %472, label %473, label %477

473:                                              ; preds = %471
  %474 = getelementptr inbounds %"class.dealii::Tensor", ptr %463, i64 %283
  %475 = icmp eq ptr %462, %474
  br i1 %475, label %477, label %476

476:                                              ; preds = %473
  store ptr %474, ptr %461, align 8, !tbaa !82
  br label %477

477:                                              ; preds = %476, %473, %471, %469
  %478 = add nuw nsw i64 %414, 1
  %479 = icmp eq i64 %478, %28
  br i1 %479, label %395, label %413

480:                                              ; preds = %469, %448, %427
  %481 = landingpad { ptr, i32 }
          cleanup
  br label %495

482:                                              ; preds = %490, %284
  ret void

483:                                              ; preds = %284, %490
  %484 = phi i64 [ %491, %490 ], [ 0, %284 ]
  %485 = load ptr, ptr %24, align 8, !tbaa !57
  %486 = getelementptr inbounds %"class.dealii::Vector", ptr %485, i64 %484
  %487 = load ptr, ptr %486, align 8, !tbaa !5
  %488 = getelementptr inbounds ptr, ptr %487, i64 2
  %489 = load ptr, ptr %488, align 8
  invoke void %489(ptr noundef nonnull align 8 dereferenceable(88) %486, i32 noundef %2, i1 noundef zeroext false)
          to label %490 unwind label %493

490:                                              ; preds = %483
  %491 = add nuw nsw i64 %484, 1
  %492 = icmp eq i64 %491, %28
  br i1 %492, label %482, label %483

493:                                              ; preds = %483
  %494 = landingpad { ptr, i32 }
          cleanup
  br label %495

495:                                              ; preds = %412, %408, %407, %403, %402, %398, %480, %298, %296, %294, %292, %493, %286
  %496 = phi { ptr, i32 } [ %494, %493 ], [ %287, %286 ], [ %299, %298 ], [ %297, %296 ], [ %295, %294 ], [ %293, %292 ], [ %481, %480 ], [ %399, %398 ], [ %399, %402 ], [ %404, %403 ], [ %404, %407 ], [ %409, %408 ], [ %409, %412 ]
  %497 = load ptr, ptr %25, align 8, !tbaa !55
  %498 = icmp eq ptr %497, null
  br i1 %498, label %500, label %499

499:                                              ; preds = %495
  call void @_ZdlPv(ptr noundef nonnull %497) #20
  br label %500

500:                                              ; preds = %499, %495
  invoke void @_ZNSt6vectorIN6dealii6VectorIdEESaIS2_EED2Ev(ptr noundef nonnull align 8 dereferenceable(24) %24)
          to label %501 unwind label %513

501:                                              ; preds = %500
  %502 = load ptr, ptr %23, align 8, !tbaa !55
  %503 = icmp eq ptr %502, null
  br i1 %503, label %505, label %504

504:                                              ; preds = %501
  call void @_ZdlPv(ptr noundef nonnull %502) #20
  br label %505

505:                                              ; preds = %504, %501
  %506 = load ptr, ptr %22, align 8, !tbaa !83
  %507 = icmp eq ptr %506, null
  br i1 %507, label %509, label %508

508:                                              ; preds = %505
  call void @_ZdlPv(ptr noundef nonnull %506) #20
  br label %509

509:                                              ; preds = %508, %505
  invoke void @_ZNSt6vectorIS_IS_IN6dealii6TensorILi1ELi3EEESaIS2_EESaIS4_EESaIS6_EED2Ev(ptr noundef nonnull align 8 dereferenceable(24) %21)
          to label %510 unwind label %513

510:                                              ; preds = %509
  invoke void @_ZNSt6vectorIS_IS_IN6dealii6TensorILi1ELi3EEESaIS2_EESaIS4_EESaIS6_EED2Ev(ptr noundef nonnull align 8 dereferenceable(24) %20)
          to label %511 unwind label %513

511:                                              ; preds = %510
  invoke void @_ZNSt6vectorIS_IS_IdSaIdEESaIS1_EESaIS3_EED2Ev(ptr noundef nonnull align 8 dereferenceable(24) %0)
          to label %512 unwind label %513

512:                                              ; preds = %511
  resume { ptr, i32 } %496

513:                                              ; preds = %511, %510, %509, %500, %298, %296, %294, %292
  %514 = landingpad { ptr, i32 }
          catch ptr null
  %515 = extractvalue { ptr, i32 } %514, 0
  call void @__clang_call_terminate(ptr %515) #22
  unreachable
}

declare i32 @__gxx_personality_v0(...)

; Function Attrs: inlinehint sspstrong uwtable
define linkonce_odr dso_local void @_ZN6dealii6VectorIdED2Ev(ptr noundef nonnull align 8 dereferenceable(88) %0) unnamed_addr #4 comdat align 2 {
  store ptr getelementptr inbounds ({ [6 x ptr] }, ptr @_ZTVN6dealii6VectorIdEE, i64 0, inrange i32 0, i64 2), ptr %0, align 8, !tbaa !5
  %2 = getelementptr inbounds %"class.dealii::Vector", ptr %0, i64 0, i32 3
  %3 = load ptr, ptr %2, align 8, !tbaa !59
  %4 = icmp eq ptr %3, null
  br i1 %4, label %6, label %5

5:                                                ; preds = %1
  tail call void @_ZdaPv(ptr noundef nonnull %3) #20
  store ptr null, ptr %2, align 8, !tbaa !59
  br label %6

6:                                                ; preds = %5, %1
  tail call void @_ZN6dealii11SubscriptorD2Ev(ptr noundef nonnull align 8 dereferenceable(72) %0)
  ret void
}

; Function Attrs: noinline noreturn nounwind sspstrong uwtable
define linkonce_odr hidden void @__clang_call_terminate(ptr noundef %0) local_unnamed_addr #5 comdat {
  %2 = tail call ptr @__cxa_begin_catch(ptr %0) #19
  tail call void @_ZSt9terminatev() #22
  unreachable
}

declare ptr @__cxa_begin_catch(ptr) local_unnamed_addr

declare void @_ZSt9terminatev() local_unnamed_addr

; Function Attrs: sspstrong uwtable
define linkonce_odr dso_local void @_ZNSt6vectorIS_IdSaIdEESaIS1_EED2Ev(ptr noundef nonnull align 8 dereferenceable(24) %0) unnamed_addr #0 comdat align 2 personality ptr @__gxx_personality_v0 {
  %2 = load ptr, ptr %0, align 8, !tbaa !71
  %3 = getelementptr inbounds %"struct.std::_Vector_base<std::vector<double>, std::allocator<std::vector<double> > >::_Vector_impl_data", ptr %0, i64 0, i32 1
  %4 = load ptr, ptr %3, align 8, !tbaa !73
  %5 = icmp eq ptr %2, %4
  br i1 %5, label %16, label %6

6:                                                ; preds = %1, %11
  %7 = phi ptr [ %12, %11 ], [ %2, %1 ]
  %8 = load ptr, ptr %7, align 8, !tbaa !55
  %9 = icmp eq ptr %8, null
  br i1 %9, label %11, label %10

10:                                               ; preds = %6
  tail call void @_ZdlPv(ptr noundef nonnull %8) #20
  br label %11

11:                                               ; preds = %10, %6
  %12 = getelementptr inbounds %"class.std::vector.26", ptr %7, i64 1
  %13 = icmp eq ptr %12, %4
  br i1 %13, label %14, label %6

14:                                               ; preds = %11
  %15 = load ptr, ptr %0, align 8, !tbaa !71
  br label %16

16:                                               ; preds = %14, %1
  %17 = phi ptr [ %15, %14 ], [ %2, %1 ]
  %18 = icmp eq ptr %17, null
  br i1 %18, label %20, label %19

19:                                               ; preds = %16
  tail call void @_ZdlPv(ptr noundef nonnull %17) #20
  br label %20

20:                                               ; preds = %16, %19
  ret void
}

; Function Attrs: sspstrong uwtable
define linkonce_odr dso_local void @_ZNSt6vectorIS_IN6dealii6TensorILi1ELi3EEESaIS2_EESaIS4_EED2Ev(ptr noundef nonnull align 8 dereferenceable(24) %0) unnamed_addr #0 comdat align 2 personality ptr @__gxx_personality_v0 {
  %2 = load ptr, ptr %0, align 8, !tbaa !76
  %3 = getelementptr inbounds %"struct.std::_Vector_base<std::vector<dealii::Tensor<1, 3> >, std::allocator<std::vector<dealii::Tensor<1, 3> > > >::_Vector_impl_data", ptr %0, i64 0, i32 1
  %4 = load ptr, ptr %3, align 8, !tbaa !78
  %5 = icmp eq ptr %2, %4
  br i1 %5, label %16, label %6

6:                                                ; preds = %1, %11
  %7 = phi ptr [ %12, %11 ], [ %2, %1 ]
  %8 = load ptr, ptr %7, align 8, !tbaa !79
  %9 = icmp eq ptr %8, null
  br i1 %9, label %11, label %10

10:                                               ; preds = %6
  tail call void @_ZdlPv(ptr noundef nonnull %8) #20
  br label %11

11:                                               ; preds = %10, %6
  %12 = getelementptr inbounds %"class.std::vector.49", ptr %7, i64 1
  %13 = icmp eq ptr %12, %4
  br i1 %13, label %14, label %6

14:                                               ; preds = %11
  %15 = load ptr, ptr %0, align 8, !tbaa !76
  br label %16

16:                                               ; preds = %14, %1
  %17 = phi ptr [ %15, %14 ], [ %2, %1 ]
  %18 = icmp eq ptr %17, null
  br i1 %18, label %20, label %19

19:                                               ; preds = %16
  tail call void @_ZdlPv(ptr noundef nonnull %17) #20
  br label %20

20:                                               ; preds = %16, %19
  ret void
}

; Function Attrs: mustprogress nocallback nofree nosync nounwind willreturn memory(argmem: readwrite)
declare void @llvm.lifetime.start.p0(i64 immarg, ptr nocapture) #6

; Function Attrs: mustprogress nocallback nofree nosync nounwind willreturn memory(argmem: readwrite)
declare void @llvm.lifetime.end.p0(i64 immarg, ptr nocapture) #6

; Function Attrs: sspstrong uwtable
define linkonce_odr dso_local void @_ZNSt6vectorIN6dealii6VectorIdEESaIS2_EED2Ev(ptr noundef nonnull align 8 dereferenceable(24) %0) unnamed_addr #0 comdat align 2 personality ptr @__gxx_personality_v0 {
  %2 = load ptr, ptr %0, align 8, !tbaa !57
  %3 = getelementptr inbounds %"struct.std::_Vector_base<dealii::Vector<double>, std::allocator<dealii::Vector<double> > >::_Vector_impl_data", ptr %0, i64 0, i32 1
  %4 = load ptr, ptr %3, align 8, !tbaa !58
  %5 = icmp eq ptr %2, %4
  br i1 %5, label %15, label %6

6:                                                ; preds = %1, %10
  %7 = phi ptr [ %11, %10 ], [ %2, %1 ]
  %8 = load ptr, ptr %7, align 8, !tbaa !5
  %9 = load ptr, ptr %8, align 8
  invoke void %9(ptr noundef nonnull align 8 dereferenceable(88) %7)
          to label %10 unwind label %20

10:                                               ; preds = %6
  %11 = getelementptr inbounds %"class.dealii::Vector", ptr %7, i64 1
  %12 = icmp eq ptr %11, %4
  br i1 %12, label %13, label %6

13:                                               ; preds = %10
  %14 = load ptr, ptr %0, align 8, !tbaa !57
  br label %15

15:                                               ; preds = %13, %1
  %16 = phi ptr [ %14, %13 ], [ %2, %1 ]
  %17 = icmp eq ptr %16, null
  br i1 %17, label %19, label %18

18:                                               ; preds = %15
  tail call void @_ZdlPv(ptr noundef nonnull %16) #20
  br label %19

19:                                               ; preds = %15, %18
  ret void

20:                                               ; preds = %6
  %21 = landingpad { ptr, i32 }
          cleanup
  %22 = load ptr, ptr %0, align 8, !tbaa !57
  %23 = icmp eq ptr %22, null
  br i1 %23, label %25, label %24

24:                                               ; preds = %20
  tail call void @_ZdlPv(ptr noundef nonnull %22) #20
  br label %25

25:                                               ; preds = %24, %20
  resume { ptr, i32 } %21
}

; Function Attrs: sspstrong uwtable
define linkonce_odr dso_local void @_ZNSt6vectorIS_IS_IN6dealii6TensorILi1ELi3EEESaIS2_EESaIS4_EESaIS6_EED2Ev(ptr noundef nonnull align 8 dereferenceable(24) %0) unnamed_addr #0 comdat align 2 personality ptr @__gxx_personality_v0 {
  %2 = load ptr, ptr %0, align 8, !tbaa !75
  %3 = getelementptr inbounds %"struct.std::_Vector_base<std::vector<std::vector<dealii::Tensor<1, 3> > >, std::allocator<std::vector<std::vector<dealii::Tensor<1, 3> > > > >::_Vector_impl_data", ptr %0, i64 0, i32 1
  %4 = load ptr, ptr %3, align 8, !tbaa !81
  %5 = icmp eq ptr %2, %4
  br i1 %5, label %31, label %6

6:                                                ; preds = %1, %26
  %7 = phi ptr [ %27, %26 ], [ %2, %1 ]
  %8 = load ptr, ptr %7, align 8, !tbaa !76
  %9 = getelementptr inbounds %"struct.std::_Vector_base<std::vector<dealii::Tensor<1, 3> >, std::allocator<std::vector<dealii::Tensor<1, 3> > > >::_Vector_impl_data", ptr %7, i64 0, i32 1
  %10 = load ptr, ptr %9, align 8, !tbaa !78
  %11 = icmp eq ptr %8, %10
  br i1 %11, label %22, label %12

12:                                               ; preds = %6, %17
  %13 = phi ptr [ %18, %17 ], [ %8, %6 ]
  %14 = load ptr, ptr %13, align 8, !tbaa !79
  %15 = icmp eq ptr %14, null
  br i1 %15, label %17, label %16

16:                                               ; preds = %12
  tail call void @_ZdlPv(ptr noundef nonnull %14) #20
  br label %17

17:                                               ; preds = %16, %12
  %18 = getelementptr inbounds %"class.std::vector.49", ptr %13, i64 1
  %19 = icmp eq ptr %18, %10
  br i1 %19, label %20, label %12

20:                                               ; preds = %17
  %21 = load ptr, ptr %7, align 8, !tbaa !76
  br label %22

22:                                               ; preds = %20, %6
  %23 = phi ptr [ %21, %20 ], [ %8, %6 ]
  %24 = icmp eq ptr %23, null
  br i1 %24, label %26, label %25

25:                                               ; preds = %22
  tail call void @_ZdlPv(ptr noundef nonnull %23) #20
  br label %26

26:                                               ; preds = %25, %22
  %27 = getelementptr inbounds %"class.std::vector.44", ptr %7, i64 1
  %28 = icmp eq ptr %27, %4
  br i1 %28, label %29, label %6

29:                                               ; preds = %26
  %30 = load ptr, ptr %0, align 8, !tbaa !75
  br label %31

31:                                               ; preds = %29, %1
  %32 = phi ptr [ %30, %29 ], [ %2, %1 ]
  %33 = icmp eq ptr %32, null
  br i1 %33, label %35, label %34

34:                                               ; preds = %31
  tail call void @_ZdlPv(ptr noundef nonnull %32) #20
  br label %35

35:                                               ; preds = %31, %34
  ret void
}

; Function Attrs: sspstrong uwtable
define linkonce_odr dso_local void @_ZNSt6vectorIS_IS_IdSaIdEESaIS1_EESaIS3_EED2Ev(ptr noundef nonnull align 8 dereferenceable(24) %0) unnamed_addr #0 comdat align 2 personality ptr @__gxx_personality_v0 {
  %2 = load ptr, ptr %0, align 8, !tbaa !70
  %3 = getelementptr inbounds %"struct.std::_Vector_base<std::vector<std::vector<double> >, std::allocator<std::vector<std::vector<double> > > >::_Vector_impl_data", ptr %0, i64 0, i32 1
  %4 = load ptr, ptr %3, align 8, !tbaa !74
  %5 = icmp eq ptr %2, %4
  br i1 %5, label %31, label %6

6:                                                ; preds = %1, %26
  %7 = phi ptr [ %27, %26 ], [ %2, %1 ]
  %8 = load ptr, ptr %7, align 8, !tbaa !71
  %9 = getelementptr inbounds %"struct.std::_Vector_base<std::vector<double>, std::allocator<std::vector<double> > >::_Vector_impl_data", ptr %7, i64 0, i32 1
  %10 = load ptr, ptr %9, align 8, !tbaa !73
  %11 = icmp eq ptr %8, %10
  br i1 %11, label %22, label %12

12:                                               ; preds = %6, %17
  %13 = phi ptr [ %18, %17 ], [ %8, %6 ]
  %14 = load ptr, ptr %13, align 8, !tbaa !55
  %15 = icmp eq ptr %14, null
  br i1 %15, label %17, label %16

16:                                               ; preds = %12
  tail call void @_ZdlPv(ptr noundef nonnull %14) #20
  br label %17

17:                                               ; preds = %16, %12
  %18 = getelementptr inbounds %"class.std::vector.26", ptr %13, i64 1
  %19 = icmp eq ptr %18, %10
  br i1 %19, label %20, label %12

20:                                               ; preds = %17
  %21 = load ptr, ptr %7, align 8, !tbaa !71
  br label %22

22:                                               ; preds = %20, %6
  %23 = phi ptr [ %21, %20 ], [ %8, %6 ]
  %24 = icmp eq ptr %23, null
  br i1 %24, label %26, label %25

25:                                               ; preds = %22
  tail call void @_ZdlPv(ptr noundef nonnull %23) #20
  br label %26

26:                                               ; preds = %25, %22
  %27 = getelementptr inbounds %"class.std::vector.39", ptr %7, i64 1
  %28 = icmp eq ptr %27, %4
  br i1 %28, label %29, label %6

29:                                               ; preds = %26
  %30 = load ptr, ptr %0, align 8, !tbaa !70
  br label %31

31:                                               ; preds = %29, %1
  %32 = phi ptr [ %30, %29 ], [ %2, %1 ]
  %33 = icmp eq ptr %32, null
  br i1 %33, label %35, label %34

34:                                               ; preds = %31
  tail call void @_ZdlPv(ptr noundef nonnull %32) #20
  br label %35

35:                                               ; preds = %31, %34
  ret void
}

; Function Attrs: sspstrong uwtable
define weak_odr dso_local void @_ZN6dealii19KellyErrorEstimatorILi3ELi3EE13PerThreadData6resizeEjj(ptr noundef nonnull align 8 dereferenceable(176) %0, i32 noundef %1, i32 noundef %2) local_unnamed_addr #0 comdat align 2 personality ptr @__gxx_personality_v0 {
  %4 = alloca double, align 8
  %5 = alloca double, align 8
  %6 = alloca double, align 8
  %7 = alloca %"class.dealii::Point", align 8
  %8 = alloca %"class.dealii::Vector", align 8
  %9 = alloca %"class.std::vector.26", align 8
  %10 = alloca %"class.std::vector.49", align 8
  %11 = alloca %"class.std::vector.49", align 8
  %12 = alloca %"class.dealii::Tensor", align 8
  %13 = alloca %"class.dealii::Tensor", align 8
  %14 = getelementptr inbounds %"struct.std::_Vector_base<std::vector<std::vector<double> >, std::allocator<std::vector<std::vector<double> > > >::_Vector_impl_data", ptr %0, i64 0, i32 1
  %15 = load ptr, ptr %14, align 8, !tbaa !74
  %16 = load ptr, ptr %0, align 8, !tbaa !70
  %17 = ptrtoint ptr %15 to i64
  %18 = ptrtoint ptr %16 to i64
  %19 = sub i64 %17, %18
  %20 = sdiv exact i64 %19, 24
  %21 = getelementptr inbounds %"struct.dealii::KellyErrorEstimator<3, 3>::PerThreadData", ptr %0, i64 0, i32 3
  %22 = zext i32 %2 to i64
  call void @llvm.memset.p0.i64(ptr noundef nonnull align 8 dereferenceable(24) %7, i8 0, i64 24, i1 false), !tbaa !52
  %23 = getelementptr inbounds %"struct.dealii::KellyErrorEstimator<3, 3>::PerThreadData", ptr %0, i64 0, i32 3, i32 0, i32 0, i32 0, i32 1
  %24 = load ptr, ptr %23, align 8, !tbaa !54
  %25 = load ptr, ptr %21, align 8, !tbaa !83
  %26 = ptrtoint ptr %24 to i64
  %27 = ptrtoint ptr %25 to i64
  %28 = sub i64 %26, %27
  %29 = sdiv exact i64 %28, 24
  %30 = icmp ult i64 %29, %22
  br i1 %30, label %31, label %33

31:                                               ; preds = %3
  %32 = sub nsw i64 %22, %29
  call void @_ZNSt6vectorIN6dealii5PointILi3EEESaIS2_EE14_M_fill_insertEN9__gnu_cxx17__normal_iteratorIPS2_S4_EEmRKS2_(ptr noundef nonnull align 8 dereferenceable(24) %21, ptr %24, i64 noundef %32, ptr noundef nonnull align 8 dereferenceable(24) %7)
  br label %39

33:                                               ; preds = %3
  %34 = icmp ugt i64 %29, %22
  br i1 %34, label %35, label %39

35:                                               ; preds = %33
  %36 = getelementptr inbounds %"class.dealii::Point", ptr %25, i64 %22
  %37 = icmp eq ptr %24, %36
  br i1 %37, label %39, label %38

38:                                               ; preds = %35
  store ptr %36, ptr %23, align 8, !tbaa !84
  br label %39

39:                                               ; preds = %31, %33, %35, %38
  %40 = getelementptr inbounds %"struct.dealii::KellyErrorEstimator<3, 3>::PerThreadData", ptr %0, i64 0, i32 4
  call void @llvm.lifetime.start.p0(i64 8, ptr nonnull %6)
  store double 0.000000e+00, ptr %6, align 8, !tbaa !52
  %41 = getelementptr inbounds %"struct.dealii::KellyErrorEstimator<3, 3>::PerThreadData", ptr %0, i64 0, i32 4, i32 0, i32 0, i32 0, i32 1
  %42 = load ptr, ptr %41, align 8, !tbaa !54
  %43 = load ptr, ptr %40, align 8, !tbaa !55
  %44 = ptrtoint ptr %42 to i64
  %45 = ptrtoint ptr %43 to i64
  %46 = sub i64 %44, %45
  %47 = ashr exact i64 %46, 3
  %48 = icmp ult i64 %47, %22
  br i1 %48, label %49, label %51

49:                                               ; preds = %39
  %50 = sub nsw i64 %22, %47
  call void @_ZNSt6vectorIdSaIdEE14_M_fill_insertEN9__gnu_cxx17__normal_iteratorIPdS1_EEmRKd(ptr noundef nonnull align 8 dereferenceable(24) %40, ptr %42, i64 noundef %50, ptr noundef nonnull align 8 dereferenceable(8) %6)
  br label %57

51:                                               ; preds = %39
  %52 = icmp ugt i64 %47, %22
  br i1 %52, label %53, label %57

53:                                               ; preds = %51
  %54 = getelementptr inbounds double, ptr %43, i64 %22
  %55 = icmp eq ptr %42, %54
  br i1 %55, label %57, label %56

56:                                               ; preds = %53
  store ptr %54, ptr %41, align 8, !tbaa !56
  br label %57

57:                                               ; preds = %49, %51, %53, %56
  call void @llvm.lifetime.end.p0(i64 8, ptr nonnull %6)
  %58 = getelementptr inbounds %"struct.dealii::KellyErrorEstimator<3, 3>::PerThreadData", ptr %0, i64 0, i32 5
  call void @_ZN6dealii11SubscriptorC2Ev(ptr noundef nonnull align 8 dereferenceable(72) %8)
  store ptr getelementptr inbounds ({ [6 x ptr] }, ptr @_ZTVN6dealii6VectorIdEE, i64 0, inrange i32 0, i64 2), ptr %8, align 8, !tbaa !5
  %59 = getelementptr inbounds %"class.dealii::Vector", ptr %8, i64 0, i32 1
  call void @llvm.memset.p0.i64(ptr noundef nonnull align 8 dereferenceable(16) %59, i8 0, i64 16, i1 false)
  %60 = getelementptr inbounds %"struct.dealii::KellyErrorEstimator<3, 3>::PerThreadData", ptr %0, i64 0, i32 5, i32 0, i32 0, i32 0, i32 1
  %61 = load ptr, ptr %60, align 8, !tbaa !54
  %62 = load ptr, ptr %58, align 8, !tbaa !57
  %63 = ptrtoint ptr %61 to i64
  %64 = ptrtoint ptr %62 to i64
  %65 = sub i64 %63, %64
  %66 = sdiv exact i64 %65, 88
  %67 = icmp ult i64 %66, %22
  br i1 %67, label %68, label %70

68:                                               ; preds = %57
  %69 = sub nsw i64 %22, %66
  invoke void @_ZNSt6vectorIN6dealii6VectorIdEESaIS2_EE14_M_fill_insertEN9__gnu_cxx17__normal_iteratorIPS2_S4_EEmRKS2_(ptr noundef nonnull align 8 dereferenceable(24) %58, ptr %61, i64 noundef %69, ptr noundef nonnull align 8 dereferenceable(88) %8)
          to label %83 unwind label %119

70:                                               ; preds = %57
  %71 = icmp ugt i64 %66, %22
  br i1 %71, label %72, label %83

72:                                               ; preds = %70
  %73 = getelementptr inbounds %"class.dealii::Vector", ptr %62, i64 %22
  %74 = icmp eq ptr %61, %73
  br i1 %74, label %83, label %75

75:                                               ; preds = %72, %79
  %76 = phi ptr [ %80, %79 ], [ %73, %72 ]
  %77 = load ptr, ptr %76, align 8, !tbaa !5
  %78 = load ptr, ptr %77, align 8
  invoke void %78(ptr noundef nonnull align 8 dereferenceable(88) %76)
          to label %79 unwind label %117

79:                                               ; preds = %75
  %80 = getelementptr inbounds %"class.dealii::Vector", ptr %76, i64 1
  %81 = icmp eq ptr %80, %61
  br i1 %81, label %82, label %75

82:                                               ; preds = %79
  store ptr %73, ptr %60, align 8, !tbaa !58
  br label %83

83:                                               ; preds = %82, %72, %70, %68
  store ptr getelementptr inbounds ({ [6 x ptr] }, ptr @_ZTVN6dealii6VectorIdEE, i64 0, inrange i32 0, i64 2), ptr %8, align 8, !tbaa !5
  %84 = getelementptr inbounds %"class.dealii::Vector", ptr %8, i64 0, i32 3
  %85 = load ptr, ptr %84, align 8, !tbaa !59
  %86 = icmp eq ptr %85, null
  br i1 %86, label %88, label %87

87:                                               ; preds = %83
  call void @_ZdaPv(ptr noundef nonnull %85) #20
  store ptr null, ptr %84, align 8, !tbaa !59
  br label %88

88:                                               ; preds = %83, %87
  call void @_ZN6dealii11SubscriptorD2Ev(ptr noundef nonnull align 8 dereferenceable(72) %8)
  %89 = getelementptr inbounds %"struct.dealii::KellyErrorEstimator<3, 3>::PerThreadData", ptr %0, i64 0, i32 6
  call void @llvm.lifetime.start.p0(i64 8, ptr nonnull %5)
  store double 0.000000e+00, ptr %5, align 8, !tbaa !52
  %90 = getelementptr inbounds %"struct.dealii::KellyErrorEstimator<3, 3>::PerThreadData", ptr %0, i64 0, i32 6, i32 0, i32 0, i32 0, i32 1
  %91 = load ptr, ptr %90, align 8, !tbaa !54
  %92 = load ptr, ptr %89, align 8, !tbaa !55
  %93 = ptrtoint ptr %91 to i64
  %94 = ptrtoint ptr %92 to i64
  %95 = sub i64 %93, %94
  %96 = ashr exact i64 %95, 3
  %97 = icmp ult i64 %96, %22
  br i1 %97, label %98, label %100

98:                                               ; preds = %88
  %99 = sub nsw i64 %22, %96
  call void @_ZNSt6vectorIdSaIdEE14_M_fill_insertEN9__gnu_cxx17__normal_iteratorIPdS1_EEmRKd(ptr noundef nonnull align 8 dereferenceable(24) %89, ptr %91, i64 noundef %99, ptr noundef nonnull align 8 dereferenceable(8) %5)
  br label %106

100:                                              ; preds = %88
  %101 = icmp ugt i64 %96, %22
  br i1 %101, label %102, label %106

102:                                              ; preds = %100
  %103 = getelementptr inbounds double, ptr %92, i64 %22
  %104 = icmp eq ptr %91, %103
  br i1 %104, label %106, label %105

105:                                              ; preds = %102
  store ptr %103, ptr %90, align 8, !tbaa !56
  br label %106

106:                                              ; preds = %98, %100, %102, %105
  call void @llvm.lifetime.end.p0(i64 8, ptr nonnull %5)
  %107 = and i64 %20, 4294967295
  %108 = icmp eq i64 %107, 0
  br i1 %108, label %115, label %109

109:                                              ; preds = %106
  %110 = getelementptr inbounds %"struct.dealii::KellyErrorEstimator<3, 3>::PerThreadData", ptr %0, i64 0, i32 1
  %111 = getelementptr inbounds %"struct.dealii::KellyErrorEstimator<3, 3>::PerThreadData", ptr %0, i64 0, i32 2
  %112 = icmp eq i32 %2, 0
  %113 = zext i32 %1 to i64
  %114 = and i64 %20, 4294967295
  br label %123

115:                                              ; preds = %218, %106
  %116 = icmp eq i32 %2, 0
  br i1 %116, label %300, label %301

117:                                              ; preds = %75
  %118 = landingpad { ptr, i32 }
          cleanup
  br label %121

119:                                              ; preds = %68
  %120 = landingpad { ptr, i32 }
          cleanup
  br label %121

121:                                              ; preds = %119, %117
  %122 = phi { ptr, i32 } [ %118, %117 ], [ %120, %119 ]
  invoke void @_ZN6dealii6VectorIdED2Ev(ptr noundef nonnull align 8 dereferenceable(88) %8)
          to label %313 unwind label %315

123:                                              ; preds = %109, %218
  %124 = phi i64 [ 0, %109 ], [ %219, %218 ]
  %125 = load ptr, ptr %0, align 8, !tbaa !70
  %126 = getelementptr inbounds %"class.std::vector.39", ptr %125, i64 %124
  call void @llvm.memset.p0.i64(ptr noundef nonnull align 8 dereferenceable(24) %9, i8 0, i64 24, i1 false)
  %127 = getelementptr inbounds %"struct.std::_Vector_base<std::vector<double>, std::allocator<std::vector<double> > >::_Vector_impl_data", ptr %126, i64 0, i32 1
  %128 = load ptr, ptr %127, align 8, !tbaa !54
  %129 = load ptr, ptr %126, align 8, !tbaa !71
  %130 = ptrtoint ptr %128 to i64
  %131 = ptrtoint ptr %129 to i64
  %132 = sub i64 %130, %131
  %133 = sdiv exact i64 %132, 24
  %134 = icmp ult i64 %133, %22
  br i1 %134, label %135, label %137

135:                                              ; preds = %123
  %136 = sub nsw i64 %22, %133
  invoke void @_ZNSt6vectorIS_IdSaIdEESaIS1_EE14_M_fill_insertEN9__gnu_cxx17__normal_iteratorIPS1_S3_EEmRKS1_(ptr noundef nonnull align 8 dereferenceable(24) %126, ptr %128, i64 noundef %136, ptr noundef nonnull align 8 dereferenceable(24) %9)
          to label %151 unwind label %221

137:                                              ; preds = %123
  %138 = icmp ugt i64 %133, %22
  br i1 %138, label %139, label %151

139:                                              ; preds = %137
  %140 = getelementptr inbounds %"class.std::vector.26", ptr %129, i64 %22
  %141 = icmp eq ptr %128, %140
  br i1 %141, label %151, label %142

142:                                              ; preds = %139, %147
  %143 = phi ptr [ %148, %147 ], [ %140, %139 ]
  %144 = load ptr, ptr %143, align 8, !tbaa !55
  %145 = icmp eq ptr %144, null
  br i1 %145, label %147, label %146

146:                                              ; preds = %142
  call void @_ZdlPv(ptr noundef nonnull %144) #20
  br label %147

147:                                              ; preds = %146, %142
  %148 = getelementptr inbounds %"class.std::vector.26", ptr %143, i64 1
  %149 = icmp eq ptr %148, %128
  br i1 %149, label %150, label %142

150:                                              ; preds = %147
  store ptr %140, ptr %127, align 8, !tbaa !73
  br label %151

151:                                              ; preds = %150, %139, %137, %135
  %152 = load ptr, ptr %9, align 8, !tbaa !55
  %153 = icmp eq ptr %152, null
  br i1 %153, label %155, label %154

154:                                              ; preds = %151
  call void @_ZdlPv(ptr noundef nonnull %152) #20
  br label %155

155:                                              ; preds = %151, %154
  %156 = load ptr, ptr %110, align 8, !tbaa !75
  %157 = getelementptr inbounds %"class.std::vector.44", ptr %156, i64 %124
  call void @llvm.memset.p0.i64(ptr noundef nonnull align 8 dereferenceable(24) %10, i8 0, i64 24, i1 false)
  %158 = getelementptr inbounds %"struct.std::_Vector_base<std::vector<dealii::Tensor<1, 3> >, std::allocator<std::vector<dealii::Tensor<1, 3> > > >::_Vector_impl_data", ptr %157, i64 0, i32 1
  %159 = load ptr, ptr %158, align 8, !tbaa !54
  %160 = load ptr, ptr %157, align 8, !tbaa !76
  %161 = ptrtoint ptr %159 to i64
  %162 = ptrtoint ptr %160 to i64
  %163 = sub i64 %161, %162
  %164 = sdiv exact i64 %163, 24
  %165 = icmp ult i64 %164, %22
  br i1 %165, label %166, label %168

166:                                              ; preds = %155
  %167 = sub nsw i64 %22, %164
  invoke void @_ZNSt6vectorIS_IN6dealii6TensorILi1ELi3EEESaIS2_EESaIS4_EE14_M_fill_insertEN9__gnu_cxx17__normal_iteratorIPS4_S6_EEmRKS4_(ptr noundef nonnull align 8 dereferenceable(24) %157, ptr %159, i64 noundef %167, ptr noundef nonnull align 8 dereferenceable(24) %10)
          to label %182 unwind label %225

168:                                              ; preds = %155
  %169 = icmp ugt i64 %164, %22
  br i1 %169, label %170, label %182

170:                                              ; preds = %168
  %171 = getelementptr inbounds %"class.std::vector.49", ptr %160, i64 %22
  %172 = icmp eq ptr %159, %171
  br i1 %172, label %182, label %173

173:                                              ; preds = %170, %178
  %174 = phi ptr [ %179, %178 ], [ %171, %170 ]
  %175 = load ptr, ptr %174, align 8, !tbaa !79
  %176 = icmp eq ptr %175, null
  br i1 %176, label %178, label %177

177:                                              ; preds = %173
  call void @_ZdlPv(ptr noundef nonnull %175) #20
  br label %178

178:                                              ; preds = %177, %173
  %179 = getelementptr inbounds %"class.std::vector.49", ptr %174, i64 1
  %180 = icmp eq ptr %179, %159
  br i1 %180, label %181, label %173

181:                                              ; preds = %178
  store ptr %171, ptr %158, align 8, !tbaa !78
  br label %182

182:                                              ; preds = %181, %170, %168, %166
  %183 = load ptr, ptr %10, align 8, !tbaa !79
  %184 = icmp eq ptr %183, null
  br i1 %184, label %186, label %185

185:                                              ; preds = %182
  call void @_ZdlPv(ptr noundef nonnull %183) #20
  br label %186

186:                                              ; preds = %182, %185
  %187 = load ptr, ptr %111, align 8, !tbaa !75
  %188 = getelementptr inbounds %"class.std::vector.44", ptr %187, i64 %124
  call void @llvm.memset.p0.i64(ptr noundef nonnull align 8 dereferenceable(24) %11, i8 0, i64 24, i1 false)
  %189 = getelementptr inbounds %"struct.std::_Vector_base<std::vector<dealii::Tensor<1, 3> >, std::allocator<std::vector<dealii::Tensor<1, 3> > > >::_Vector_impl_data", ptr %188, i64 0, i32 1
  %190 = load ptr, ptr %189, align 8, !tbaa !54
  %191 = load ptr, ptr %188, align 8, !tbaa !76
  %192 = ptrtoint ptr %190 to i64
  %193 = ptrtoint ptr %191 to i64
  %194 = sub i64 %192, %193
  %195 = sdiv exact i64 %194, 24
  %196 = icmp ult i64 %195, %22
  br i1 %196, label %197, label %199

197:                                              ; preds = %186
  %198 = sub nsw i64 %22, %195
  invoke void @_ZNSt6vectorIS_IN6dealii6TensorILi1ELi3EEESaIS2_EESaIS4_EE14_M_fill_insertEN9__gnu_cxx17__normal_iteratorIPS4_S6_EEmRKS4_(ptr noundef nonnull align 8 dereferenceable(24) %188, ptr %190, i64 noundef %198, ptr noundef nonnull align 8 dereferenceable(24) %11)
          to label %213 unwind label %229

199:                                              ; preds = %186
  %200 = icmp ugt i64 %195, %22
  br i1 %200, label %201, label %213

201:                                              ; preds = %199
  %202 = getelementptr inbounds %"class.std::vector.49", ptr %191, i64 %22
  %203 = icmp eq ptr %190, %202
  br i1 %203, label %213, label %204

204:                                              ; preds = %201, %209
  %205 = phi ptr [ %210, %209 ], [ %202, %201 ]
  %206 = load ptr, ptr %205, align 8, !tbaa !79
  %207 = icmp eq ptr %206, null
  br i1 %207, label %209, label %208

208:                                              ; preds = %204
  call void @_ZdlPv(ptr noundef nonnull %206) #20
  br label %209

209:                                              ; preds = %208, %204
  %210 = getelementptr inbounds %"class.std::vector.49", ptr %205, i64 1
  %211 = icmp eq ptr %210, %190
  br i1 %211, label %212, label %204

212:                                              ; preds = %209
  store ptr %202, ptr %189, align 8, !tbaa !78
  br label %213

213:                                              ; preds = %212, %201, %199, %197
  %214 = load ptr, ptr %11, align 8, !tbaa !79
  %215 = icmp eq ptr %214, null
  br i1 %215, label %217, label %216

216:                                              ; preds = %213
  call void @_ZdlPv(ptr noundef nonnull %214) #20
  br label %217

217:                                              ; preds = %213, %216
  br i1 %112, label %218, label %233

218:                                              ; preds = %297, %217
  %219 = add nuw nsw i64 %124, 1
  %220 = icmp eq i64 %219, %114
  br i1 %220, label %115, label %123

221:                                              ; preds = %135
  %222 = landingpad { ptr, i32 }
          cleanup
  %223 = load ptr, ptr %9, align 8, !tbaa !55
  %224 = icmp eq ptr %223, null
  br i1 %224, label %313, label %310

225:                                              ; preds = %166
  %226 = landingpad { ptr, i32 }
          cleanup
  %227 = load ptr, ptr %10, align 8, !tbaa !79
  %228 = icmp eq ptr %227, null
  br i1 %228, label %313, label %310

229:                                              ; preds = %197
  %230 = landingpad { ptr, i32 }
          cleanup
  %231 = load ptr, ptr %11, align 8, !tbaa !79
  %232 = icmp eq ptr %231, null
  br i1 %232, label %313, label %310

233:                                              ; preds = %217, %297
  %234 = phi i64 [ %298, %297 ], [ 0, %217 ]
  %235 = load ptr, ptr %0, align 8, !tbaa !70
  %236 = getelementptr inbounds %"class.std::vector.39", ptr %235, i64 %124
  %237 = load ptr, ptr %236, align 8, !tbaa !71
  %238 = getelementptr inbounds %"class.std::vector.26", ptr %237, i64 %234
  call void @llvm.lifetime.start.p0(i64 8, ptr nonnull %4)
  store double 0.000000e+00, ptr %4, align 8, !tbaa !52
  %239 = getelementptr inbounds %"struct.std::_Vector_base<double, std::allocator<double> >::_Vector_impl_data", ptr %238, i64 0, i32 1
  %240 = load ptr, ptr %239, align 8, !tbaa !54
  %241 = load ptr, ptr %238, align 8, !tbaa !55
  %242 = ptrtoint ptr %240 to i64
  %243 = ptrtoint ptr %241 to i64
  %244 = sub i64 %242, %243
  %245 = ashr exact i64 %244, 3
  %246 = icmp ult i64 %245, %113
  br i1 %246, label %247, label %249

247:                                              ; preds = %233
  %248 = sub nsw i64 %113, %245
  call void @_ZNSt6vectorIdSaIdEE14_M_fill_insertEN9__gnu_cxx17__normal_iteratorIPdS1_EEmRKd(ptr noundef nonnull align 8 dereferenceable(24) %238, ptr %240, i64 noundef %248, ptr noundef nonnull align 8 dereferenceable(8) %4)
  br label %255

249:                                              ; preds = %233
  %250 = icmp ugt i64 %245, %113
  br i1 %250, label %251, label %255

251:                                              ; preds = %249
  %252 = getelementptr inbounds double, ptr %241, i64 %113
  %253 = icmp eq ptr %240, %252
  br i1 %253, label %255, label %254

254:                                              ; preds = %251
  store ptr %252, ptr %239, align 8, !tbaa !56
  br label %255

255:                                              ; preds = %247, %249, %251, %254
  call void @llvm.lifetime.end.p0(i64 8, ptr nonnull %4)
  %256 = load ptr, ptr %110, align 8, !tbaa !75
  %257 = getelementptr inbounds %"class.std::vector.44", ptr %256, i64 %124
  %258 = load ptr, ptr %257, align 8, !tbaa !76
  %259 = getelementptr inbounds %"class.std::vector.49", ptr %258, i64 %234
  call void @llvm.memset.p0.i64(ptr noundef nonnull align 8 dereferenceable(24) %12, i8 0, i64 24, i1 false), !tbaa !52
  %260 = getelementptr inbounds %"struct.std::_Vector_base<dealii::Tensor<1, 3>, std::allocator<dealii::Tensor<1, 3> > >::_Vector_impl_data", ptr %259, i64 0, i32 1
  %261 = load ptr, ptr %260, align 8, !tbaa !54
  %262 = load ptr, ptr %259, align 8, !tbaa !79
  %263 = ptrtoint ptr %261 to i64
  %264 = ptrtoint ptr %262 to i64
  %265 = sub i64 %263, %264
  %266 = sdiv exact i64 %265, 24
  %267 = icmp ult i64 %266, %113
  br i1 %267, label %268, label %270

268:                                              ; preds = %255
  %269 = sub nsw i64 %113, %266
  call void @_ZNSt6vectorIN6dealii6TensorILi1ELi3EEESaIS2_EE14_M_fill_insertEN9__gnu_cxx17__normal_iteratorIPS2_S4_EEmRKS2_(ptr noundef nonnull align 8 dereferenceable(24) %259, ptr %261, i64 noundef %269, ptr noundef nonnull align 8 dereferenceable(24) %12)
  br label %276

270:                                              ; preds = %255
  %271 = icmp ugt i64 %266, %113
  br i1 %271, label %272, label %276

272:                                              ; preds = %270
  %273 = getelementptr inbounds %"class.dealii::Tensor", ptr %262, i64 %113
  %274 = icmp eq ptr %261, %273
  br i1 %274, label %276, label %275

275:                                              ; preds = %272
  store ptr %273, ptr %260, align 8, !tbaa !82
  br label %276

276:                                              ; preds = %268, %270, %272, %275
  %277 = load ptr, ptr %111, align 8, !tbaa !75
  %278 = getelementptr inbounds %"class.std::vector.44", ptr %277, i64 %124
  %279 = load ptr, ptr %278, align 8, !tbaa !76
  %280 = getelementptr inbounds %"class.std::vector.49", ptr %279, i64 %234
  call void @llvm.memset.p0.i64(ptr noundef nonnull align 8 dereferenceable(24) %13, i8 0, i64 24, i1 false), !tbaa !52
  %281 = getelementptr inbounds %"struct.std::_Vector_base<dealii::Tensor<1, 3>, std::allocator<dealii::Tensor<1, 3> > >::_Vector_impl_data", ptr %280, i64 0, i32 1
  %282 = load ptr, ptr %281, align 8, !tbaa !54
  %283 = load ptr, ptr %280, align 8, !tbaa !79
  %284 = ptrtoint ptr %282 to i64
  %285 = ptrtoint ptr %283 to i64
  %286 = sub i64 %284, %285
  %287 = sdiv exact i64 %286, 24
  %288 = icmp ult i64 %287, %113
  br i1 %288, label %289, label %291

289:                                              ; preds = %276
  %290 = sub nsw i64 %113, %287
  call void @_ZNSt6vectorIN6dealii6TensorILi1ELi3EEESaIS2_EE14_M_fill_insertEN9__gnu_cxx17__normal_iteratorIPS2_S4_EEmRKS2_(ptr noundef nonnull align 8 dereferenceable(24) %280, ptr %282, i64 noundef %290, ptr noundef nonnull align 8 dereferenceable(24) %13)
  br label %297

291:                                              ; preds = %276
  %292 = icmp ugt i64 %287, %113
  br i1 %292, label %293, label %297

293:                                              ; preds = %291
  %294 = getelementptr inbounds %"class.dealii::Tensor", ptr %283, i64 %113
  %295 = icmp eq ptr %282, %294
  br i1 %295, label %297, label %296

296:                                              ; preds = %293
  store ptr %294, ptr %281, align 8, !tbaa !82
  br label %297

297:                                              ; preds = %289, %291, %293, %296
  %298 = add nuw nsw i64 %234, 1
  %299 = icmp eq i64 %298, %22
  br i1 %299, label %218, label %233

300:                                              ; preds = %301, %115
  ret void

301:                                              ; preds = %115, %301
  %302 = phi i64 [ %308, %301 ], [ 0, %115 ]
  %303 = load ptr, ptr %58, align 8, !tbaa !57
  %304 = getelementptr inbounds %"class.dealii::Vector", ptr %303, i64 %302
  %305 = load ptr, ptr %304, align 8, !tbaa !5
  %306 = getelementptr inbounds ptr, ptr %305, i64 2
  %307 = load ptr, ptr %306, align 8
  call void %307(ptr noundef nonnull align 8 dereferenceable(88) %304, i32 noundef %1, i1 noundef zeroext false)
  %308 = add nuw nsw i64 %302, 1
  %309 = icmp eq i64 %308, %22
  br i1 %309, label %300, label %301

310:                                              ; preds = %229, %225, %221
  %311 = phi ptr [ %223, %221 ], [ %227, %225 ], [ %231, %229 ]
  %312 = phi { ptr, i32 } [ %222, %221 ], [ %226, %225 ], [ %230, %229 ]
  call void @_ZdlPv(ptr noundef nonnull %311) #20
  br label %313

313:                                              ; preds = %310, %229, %225, %221, %121
  %314 = phi { ptr, i32 } [ %122, %121 ], [ %222, %221 ], [ %226, %225 ], [ %230, %229 ], [ %312, %310 ]
  resume { ptr, i32 } %314

315:                                              ; preds = %121
  %316 = landingpad { ptr, i32 }
          catch ptr null
  %317 = extractvalue { ptr, i32 } %316, 0
  call void @__clang_call_terminate(ptr %317) #22
  unreachable
}

; Function Attrs: sspstrong uwtable
define weak_odr dso_local void @_ZN6dealii19KellyErrorEstimatorILi3ELi3EE8estimateINS_6VectorIdEENS_10DoFHandlerILi3ELi3EEEEEvRKNS_7MappingILi3ELi3EEERKT0_RKNS_10QuadratureILi2EEERKSt3mapIhPKNS_8FunctionILi3EEESt4lessIhESaISt4pairIKhSM_EEERKT_RNS3_IfEERKSt6vectorIbSaIbEESM_jjj(ptr noundef nonnull align 8 dereferenceable(72) %0, ptr noundef nonnull align 8 dereferenceable(168) %1, ptr noundef nonnull align 8 dereferenceable(128) %2, ptr noundef nonnull align 1 %3, ptr noundef nonnull align 8 dereferenceable(88) %4, ptr noundef nonnull align 8 dereferenceable(88) %5, ptr noundef nonnull align 8 dereferenceable(40) %6, ptr noundef %7, i32 noundef %8, i32 noundef %9, i32 noundef %10) local_unnamed_addr #0 comdat align 2 personality ptr @__gxx_personality_v0 {
  %12 = alloca %"class.dealii::hp::QCollection", align 8
  %13 = alloca %"class.std::vector.54", align 8
  %14 = alloca %"class.std::vector.59", align 8
  call void @llvm.lifetime.start.p0(i64 24, ptr nonnull %13) #19
  %15 = tail call noalias noundef nonnull dereferenceable(8) ptr @_Znwm(i64 noundef 8) #23
  store ptr %15, ptr %13, align 8, !tbaa !85
  %16 = getelementptr inbounds %"struct.std::_Vector_base<const dealii::Vector<double> *, std::allocator<const dealii::Vector<double> *> >::_Vector_impl_data", ptr %13, i64 0, i32 1
  %17 = getelementptr inbounds ptr, ptr %15, i64 1
  %18 = getelementptr inbounds %"struct.std::_Vector_base<const dealii::Vector<double> *, std::allocator<const dealii::Vector<double> *> >::_Vector_impl_data", ptr %13, i64 0, i32 2
  store ptr %17, ptr %18, align 8, !tbaa !87
  store ptr %4, ptr %15, align 8, !tbaa !54
  store ptr %17, ptr %16, align 8, !tbaa !88
  call void @llvm.lifetime.start.p0(i64 24, ptr nonnull %14) #19
  %19 = invoke noalias noundef nonnull dereferenceable(8) ptr @_Znwm(i64 noundef 8) #23
          to label %20 unwind label %41

20:                                               ; preds = %11
  store ptr %19, ptr %14, align 8, !tbaa !89
  %21 = getelementptr inbounds %"struct.std::_Vector_base<dealii::Vector<float> *, std::allocator<dealii::Vector<float> *> >::_Vector_impl_data", ptr %14, i64 0, i32 1
  %22 = getelementptr inbounds ptr, ptr %19, i64 1
  %23 = getelementptr inbounds %"struct.std::_Vector_base<dealii::Vector<float> *, std::allocator<dealii::Vector<float> *> >::_Vector_impl_data", ptr %14, i64 0, i32 2
  store ptr %22, ptr %23, align 8, !tbaa !91
  store ptr %5, ptr %19, align 8, !tbaa !54
  store ptr %22, ptr %21, align 8, !tbaa !92
  call void @llvm.lifetime.start.p0(i64 96, ptr nonnull %12) #19
  invoke void @_ZN6dealii2hp11QCollectionILi2EEC2ERKNS_10QuadratureILi2EEE(ptr noundef nonnull align 8 dereferenceable(96) %12, ptr noundef nonnull align 8 dereferenceable(128) %2)
          to label %24 unwind label %43

24:                                               ; preds = %20
  invoke void @_ZN6dealii19KellyErrorEstimatorILi3ELi3EE8estimateINS_6VectorIdEENS_10DoFHandlerILi3ELi3EEEEEvRKNS_7MappingILi3ELi3EEERKT0_RKNS_2hp11QCollectionILi2EEERKSt3mapIhPKNS_8FunctionILi3EEESt4lessIhESaISt4pairIKhSN_EEERKSt6vectorIPKT_SaIS10_EERSX_IPNS3_IfEESaIS16_EERKSX_IbSaIbEESN_jjj(ptr noundef nonnull align 8 dereferenceable(72) %0, ptr noundef nonnull align 8 dereferenceable(168) %1, ptr noundef nonnull align 8 dereferenceable(96) %12, ptr noundef nonnull align 1 %3, ptr noundef nonnull align 8 dereferenceable(24) %13, ptr noundef nonnull align 8 dereferenceable(24) %14, ptr noundef nonnull align 8 dereferenceable(40) %6, ptr noundef %7, i32 noundef %8, i32 noundef %9, i32 noundef %10)
          to label %25 unwind label %26

25:                                               ; preds = %24
  invoke void @_ZN6dealii2hp11QCollectionILi2EED2Ev(ptr noundef nonnull align 8 dereferenceable(96) %12)
          to label %32 unwind label %43

26:                                               ; preds = %24
  %27 = landingpad { ptr, i32 }
          cleanup
  invoke void @_ZN6dealii2hp11QCollectionILi2EED2Ev(ptr noundef nonnull align 8 dereferenceable(96) %12)
          to label %28 unwind label %29

28:                                               ; preds = %26
  call void @llvm.lifetime.end.p0(i64 96, ptr nonnull %12) #19
  br label %45

29:                                               ; preds = %26
  %30 = landingpad { ptr, i32 }
          catch ptr null
  %31 = extractvalue { ptr, i32 } %30, 0
  call void @__clang_call_terminate(ptr %31) #22
  unreachable

32:                                               ; preds = %25
  call void @llvm.lifetime.end.p0(i64 96, ptr nonnull %12) #19
  %33 = load ptr, ptr %14, align 8, !tbaa !89
  %34 = icmp eq ptr %33, null
  br i1 %34, label %36, label %35

35:                                               ; preds = %32
  call void @_ZdlPv(ptr noundef nonnull %33) #20
  br label %36

36:                                               ; preds = %35, %32
  call void @llvm.lifetime.end.p0(i64 24, ptr nonnull %14) #19
  %37 = load ptr, ptr %13, align 8, !tbaa !85
  %38 = icmp eq ptr %37, null
  br i1 %38, label %40, label %39

39:                                               ; preds = %36
  call void @_ZdlPv(ptr noundef nonnull %37) #20
  br label %40

40:                                               ; preds = %36, %39
  call void @llvm.lifetime.end.p0(i64 24, ptr nonnull %13) #19
  ret void

41:                                               ; preds = %11
  %42 = landingpad { ptr, i32 }
          cleanup
  br label %50

43:                                               ; preds = %25, %20
  %44 = landingpad { ptr, i32 }
          cleanup
  br label %45

45:                                               ; preds = %28, %43
  %46 = phi { ptr, i32 } [ %44, %43 ], [ %27, %28 ]
  %47 = load ptr, ptr %14, align 8, !tbaa !89
  %48 = icmp eq ptr %47, null
  br i1 %48, label %50, label %49

49:                                               ; preds = %45
  call void @_ZdlPv(ptr noundef nonnull %47) #20
  br label %50

50:                                               ; preds = %49, %45, %41
  %51 = phi { ptr, i32 } [ %42, %41 ], [ %46, %45 ], [ %46, %49 ]
  call void @llvm.lifetime.end.p0(i64 24, ptr nonnull %14) #19
  %52 = load ptr, ptr %13, align 8, !tbaa !85
  %53 = icmp eq ptr %52, null
  br i1 %53, label %55, label %54

54:                                               ; preds = %50
  call void @_ZdlPv(ptr noundef nonnull %52) #20
  br label %55

55:                                               ; preds = %54, %50
  call void @llvm.lifetime.end.p0(i64 24, ptr nonnull %13) #19
  resume { ptr, i32 } %51
}

; Function Attrs: sspstrong uwtable
define weak_odr dso_local void @_ZN6dealii19KellyErrorEstimatorILi3ELi3EE8estimateINS_6VectorIdEENS_10DoFHandlerILi3ELi3EEEEEvRKNS_7MappingILi3ELi3EEERKT0_RKNS_10QuadratureILi2EEERKSt3mapIhPKNS_8FunctionILi3EEESt4lessIhESaISt4pairIKhSM_EEERKSt6vectorIPKT_SaISZ_EERSW_IPNS3_IfEESaIS15_EERKSW_IbSaIbEESM_jjj(ptr noundef nonnull align 8 dereferenceable(72) %0, ptr noundef nonnull align 8 dereferenceable(168) %1, ptr noundef nonnull align 8 dereferenceable(128) %2, ptr noundef nonnull align 1 %3, ptr noundef nonnull align 8 dereferenceable(24) %4, ptr noundef nonnull align 8 dereferenceable(24) %5, ptr noundef nonnull align 8 dereferenceable(40) %6, ptr noundef %7, i32 noundef %8, i32 noundef %9, i32 noundef %10) local_unnamed_addr #0 comdat align 2 personality ptr @__gxx_personality_v0 {
  %12 = alloca %"class.dealii::hp::QCollection", align 8
  call void @llvm.lifetime.start.p0(i64 96, ptr nonnull %12) #19
  call void @_ZN6dealii2hp11QCollectionILi2EEC2ERKNS_10QuadratureILi2EEE(ptr noundef nonnull align 8 dereferenceable(96) %12, ptr noundef nonnull align 8 dereferenceable(128) %2)
  invoke void @_ZN6dealii19KellyErrorEstimatorILi3ELi3EE8estimateINS_6VectorIdEENS_10DoFHandlerILi3ELi3EEEEEvRKNS_7MappingILi3ELi3EEERKT0_RKNS_2hp11QCollectionILi2EEERKSt3mapIhPKNS_8FunctionILi3EEESt4lessIhESaISt4pairIKhSN_EEERKSt6vectorIPKT_SaIS10_EERSX_IPNS3_IfEESaIS16_EERKSX_IbSaIbEESN_jjj(ptr noundef nonnull align 8 dereferenceable(72) %0, ptr noundef nonnull align 8 dereferenceable(168) %1, ptr noundef nonnull align 8 dereferenceable(96) %12, ptr noundef nonnull align 1 %3, ptr noundef nonnull align 8 dereferenceable(24) %4, ptr noundef nonnull align 8 dereferenceable(24) %5, ptr noundef nonnull align 8 dereferenceable(40) %6, ptr noundef %7, i32 noundef %8, i32 noundef %9, i32 noundef %10)
          to label %13 unwind label %14

13:                                               ; preds = %11
  call void @_ZN6dealii2hp11QCollectionILi2EED2Ev(ptr noundef nonnull align 8 dereferenceable(96) %12)
  call void @llvm.lifetime.end.p0(i64 96, ptr nonnull %12) #19
  ret void

14:                                               ; preds = %11
  %15 = landingpad { ptr, i32 }
          cleanup
  invoke void @_ZN6dealii2hp11QCollectionILi2EED2Ev(ptr noundef nonnull align 8 dereferenceable(96) %12)
          to label %16 unwind label %17

16:                                               ; preds = %14
  call void @llvm.lifetime.end.p0(i64 96, ptr nonnull %12) #19
  resume { ptr, i32 } %15

17:                                               ; preds = %14
  %18 = landingpad { ptr, i32 }
          catch ptr null
  %19 = extractvalue { ptr, i32 } %18, 0
  call void @__clang_call_terminate(ptr %19) #22
  unreachable
}

; Function Attrs: sspstrong uwtable
define weak_odr dso_local void @_ZN6dealii19KellyErrorEstimatorILi3ELi3EE8estimateINS_6VectorIdEENS_10DoFHandlerILi3ELi3EEEEEvRKT0_RKNS_10QuadratureILi2EEERKSt3mapIhPKNS_8FunctionILi3EEESt4lessIhESaISt4pairIKhSI_EEERKT_RNS3_IfEERKSt6vectorIbSaIbEESI_jjj(ptr noundef nonnull align 8 dereferenceable(168) %0, ptr noundef nonnull align 8 dereferenceable(128) %1, ptr noundef nonnull align 1 %2, ptr noundef nonnull align 8 dereferenceable(88) %3, ptr noundef nonnull align 8 dereferenceable(88) %4, ptr noundef nonnull align 8 dereferenceable(40) %5, ptr noundef %6, i32 noundef %7, i32 noundef %8, i32 noundef %9) local_unnamed_addr #0 comdat align 2 {
  tail call void @_ZN6dealii19KellyErrorEstimatorILi3ELi3EE8estimateINS_6VectorIdEENS_10DoFHandlerILi3ELi3EEEEEvRKNS_7MappingILi3ELi3EEERKT0_RKNS_10QuadratureILi2EEERKSt3mapIhPKNS_8FunctionILi3EEESt4lessIhESaISt4pairIKhSM_EEERKT_RNS3_IfEERKSt6vectorIbSaIbEESM_jjj(ptr noundef nonnull align 8 dereferenceable(72) @_ZN6dealii15StaticMappingQ1ILi3ELi3EE7mappingE, ptr noundef nonnull align 8 dereferenceable(168) %0, ptr noundef nonnull align 8 dereferenceable(128) %1, ptr noundef nonnull align 1 %2, ptr noundef nonnull align 8 dereferenceable(88) %3, ptr noundef nonnull align 8 dereferenceable(88) %4, ptr noundef nonnull align 8 dereferenceable(40) %5, ptr noundef %6, i32 noundef %7, i32 noundef %8, i32 noundef %9)
  ret void
}

; Function Attrs: sspstrong uwtable
define weak_odr dso_local void @_ZN6dealii19KellyErrorEstimatorILi3ELi3EE8estimateINS_6VectorIdEENS_10DoFHandlerILi3ELi3EEEEEvRKNS_7MappingILi3ELi3EEERKT0_RKNS_2hp11QCollectionILi2EEERKSt3mapIhPKNS_8FunctionILi3EEESt4lessIhESaISt4pairIKhSN_EEERKSt6vectorIPKT_SaIS10_EERSX_IPNS3_IfEESaIS16_EERKSX_IbSaIbEESN_jjj(ptr noundef nonnull align 8 dereferenceable(72) %0, ptr noundef nonnull align 8 dereferenceable(168) %1, ptr noundef nonnull align 8 dereferenceable(96) %2, ptr noundef nonnull align 1 %3, ptr noundef nonnull align 8 dereferenceable(24) %4, ptr noundef nonnull align 8 dereferenceable(24) %5, ptr noundef nonnull align 8 dereferenceable(40) %6, ptr noundef %7, i32 noundef %8, i32 noundef %9, i32 noundef %10) local_unnamed_addr #0 comdat align 2 personality ptr @__gxx_personality_v0 {
  %12 = alloca %"struct.std::pair.257", align 8
  %13 = alloca %"struct.std::pair.257", align 8
  %14 = alloca %"class.std::vector.82", align 8
  %15 = alloca %"class.std::map.130", align 8
  %16 = alloca %"class.dealii::TriaActiveIterator", align 8
  %17 = alloca %"class.dealii::TriaRawIterator", align 8
  %18 = alloca %"class.dealii::Threads::ThreadGroup", align 8
  %19 = alloca %"class.dealii::hp::MappingCollection", align 8
  %20 = alloca %"class.dealii::Threads::Thread", align 16
  %21 = alloca %"class.dealii::Threads::internal::fun_encapsulator", align 8
  %22 = alloca %"struct.std::pair.158", align 8
  %23 = alloca %"class.dealii::TriaActiveIterator", align 8
  %24 = alloca %"class.dealii::TriaRawIterator", align 8
  %25 = getelementptr inbounds %"class.dealii::DoFHandler", ptr %1, i64 0, i32 2
  %26 = load ptr, ptr %25, align 8, !tbaa !93
  %27 = getelementptr inbounds i8, ptr %26, i64 116
  %28 = load i32, ptr %27, align 4, !tbaa !95
  %29 = getelementptr inbounds i8, ptr %3, i64 24
  %30 = load ptr, ptr %29, align 8, !tbaa !98
  %31 = getelementptr inbounds i8, ptr %3, i64 8
  %32 = icmp eq ptr %30, %31
  br i1 %32, label %33, label %41

33:                                               ; preds = %41, %11
  %34 = getelementptr inbounds %"struct.std::_Vector_base<const dealii::Vector<double> *, std::allocator<const dealii::Vector<double> *> >::_Vector_impl_data", ptr %4, i64 0, i32 1
  %35 = load ptr, ptr %34, align 8, !tbaa !88
  %36 = load ptr, ptr %4, align 8, !tbaa !85
  %37 = ptrtoint ptr %35 to i64
  %38 = ptrtoint ptr %36 to i64
  %39 = sub i64 %37, %38
  %40 = ashr exact i64 %39, 3
  br label %45

41:                                               ; preds = %11, %41
  %42 = phi ptr [ %43, %41 ], [ %30, %11 ]
  %43 = tail call noundef ptr @_ZSt18_Rb_tree_incrementPKSt18_Rb_tree_node_base(ptr noundef %42) #24
  %44 = icmp eq ptr %43, %31
  br i1 %44, label %33, label %41

45:                                               ; preds = %45, %33
  %46 = phi i32 [ %49, %45 ], [ 0, %33 ]
  %47 = zext i32 %46 to i64
  %48 = icmp ugt i64 %40, %47
  %49 = add i32 %46, 1
  br i1 %48, label %45, label %50

50:                                               ; preds = %45
  call void @llvm.lifetime.start.p0(i64 40, ptr nonnull %14) #19
  %51 = getelementptr inbounds %"struct.std::_Bvector_base<std::allocator<bool> >::_Bvector_impl_data", ptr %6, i64 0, i32 1
  %52 = load ptr, ptr %51, align 8, !tbaa !99
  %53 = getelementptr inbounds %"struct.std::_Bvector_base<std::allocator<bool> >::_Bvector_impl_data", ptr %6, i64 0, i32 1, i32 0, i32 1
  %54 = load i32, ptr %53, align 8, !tbaa !101
  %55 = load ptr, ptr %6, align 8, !tbaa !99
  %56 = ptrtoint ptr %52 to i64
  %57 = ptrtoint ptr %55 to i64
  %58 = sub i64 %56, %57
  %59 = shl nsw i64 %58, 3
  %60 = zext i32 %54 to i64
  %61 = sub nsw i64 0, %60
  %62 = icmp eq i64 %59, %61
  br i1 %62, label %63, label %82

63:                                               ; preds = %50
  store ptr null, ptr %14, align 8, !tbaa !99
  %64 = getelementptr inbounds %"struct.std::_Bit_iterator_base", ptr %14, i64 0, i32 1
  store i32 0, ptr %64, align 8, !tbaa !101
  %65 = getelementptr inbounds %"struct.std::_Bvector_base<std::allocator<bool> >::_Bvector_impl_data", ptr %14, i64 0, i32 1
  store ptr null, ptr %65, align 8, !tbaa !99
  %66 = getelementptr inbounds %"struct.std::_Bvector_base<std::allocator<bool> >::_Bvector_impl_data", ptr %14, i64 0, i32 1, i32 0, i32 1
  store i32 0, ptr %66, align 8, !tbaa !101
  %67 = getelementptr inbounds %"struct.std::_Bvector_base<std::allocator<bool> >::_Bvector_impl_data", ptr %14, i64 0, i32 2
  store ptr null, ptr %67, align 8, !tbaa !102
  %68 = icmp eq i32 %28, 0
  br i1 %68, label %88, label %69

69:                                               ; preds = %63
  %70 = zext i32 %28 to i64
  %71 = add nuw nsw i64 %70, 63
  %72 = lshr i64 %71, 3
  %73 = and i64 %72, 1073741816
  %74 = tail call noalias noundef nonnull ptr @_Znwm(i64 noundef %73) #23
  %75 = lshr i64 %71, 6
  %76 = getelementptr inbounds i64, ptr %74, i64 %75
  store ptr %76, ptr %67, align 8, !tbaa !102
  store ptr %74, ptr %14, align 8
  store i32 0, ptr %64, align 8
  %77 = lshr i32 %28, 6
  %78 = zext i32 %77 to i64
  %79 = getelementptr inbounds i64, ptr %74, i64 %78
  %80 = and i32 %28, 63
  store ptr %79, ptr %65, align 8
  store i32 %80, ptr %66, align 8
  %81 = shl nuw nsw i64 %75, 3
  tail call void @llvm.memset.p0.i64(ptr nonnull align 8 %74, i8 -1, i64 %81, i1 false)
  br label %88

82:                                               ; preds = %50
  call void @_ZNSt6vectorIbSaIbEEC2ERKS1_(ptr noundef nonnull align 8 dereferenceable(40) %14, ptr noundef nonnull align 8 dereferenceable(40) %6)
  %83 = load ptr, ptr %34, align 8, !tbaa !88
  %84 = load ptr, ptr %4, align 8, !tbaa !85
  %85 = ptrtoint ptr %83 to i64
  %86 = ptrtoint ptr %84 to i64
  %87 = sub i64 %85, %86
  br label %88

88:                                               ; preds = %82, %63, %69
  %89 = phi i64 [ %87, %82 ], [ %39, %63 ], [ %39, %69 ]
  %90 = freeze i64 %89
  %91 = ashr i64 %90, 3
  %92 = and i64 %91, 4294967295
  %93 = icmp eq i64 %92, 0
  br i1 %93, label %124, label %94

94:                                               ; preds = %88
  %95 = shl nuw nsw i64 %92, 3
  %96 = invoke noalias noundef nonnull ptr @_Znwm(i64 noundef %95) #23
          to label %97 unwind label %160

97:                                               ; preds = %94
  %98 = getelementptr inbounds double, ptr %96, i64 %92
  %99 = add nuw nsw i64 %92, 2305843009213693951
  %100 = and i64 %99, 2305843009213693951
  %101 = add nuw nsw i64 %100, 1
  %102 = icmp ult i64 %100, 15
  br i1 %102, label %118, label %103

103:                                              ; preds = %97
  %104 = and i64 %101, 4611686018427387888
  %105 = shl i64 %104, 3
  %106 = getelementptr i8, ptr %96, i64 %105
  br label %107

107:                                              ; preds = %107, %103
  %108 = phi i64 [ 0, %103 ], [ %114, %107 ]
  %109 = shl i64 %108, 3
  %110 = getelementptr i8, ptr %96, i64 %109
  store <4 x double> <double -1.000000e+21, double -1.000000e+21, double -1.000000e+21, double -1.000000e+21>, ptr %110, align 8, !tbaa !52
  %111 = getelementptr double, ptr %110, i64 4
  store <4 x double> <double -1.000000e+21, double -1.000000e+21, double -1.000000e+21, double -1.000000e+21>, ptr %111, align 8, !tbaa !52
  %112 = getelementptr double, ptr %110, i64 8
  store <4 x double> <double -1.000000e+21, double -1.000000e+21, double -1.000000e+21, double -1.000000e+21>, ptr %112, align 8, !tbaa !52
  %113 = getelementptr double, ptr %110, i64 12
  store <4 x double> <double -1.000000e+21, double -1.000000e+21, double -1.000000e+21, double -1.000000e+21>, ptr %113, align 8, !tbaa !52
  %114 = add nuw i64 %108, 16
  %115 = icmp eq i64 %114, %104
  br i1 %115, label %116, label %107, !llvm.loop !105

116:                                              ; preds = %107
  %117 = icmp eq i64 %101, %104
  br i1 %117, label %124, label %118

118:                                              ; preds = %97, %116
  %119 = phi ptr [ %96, %97 ], [ %106, %116 ]
  br label %120

120:                                              ; preds = %118, %120
  %121 = phi ptr [ %122, %120 ], [ %119, %118 ]
  store double -1.000000e+21, ptr %121, align 8, !tbaa !52
  %122 = getelementptr inbounds double, ptr %121, i64 1
  %123 = icmp eq ptr %122, %98
  br i1 %123, label %124, label %120, !llvm.loop !108

124:                                              ; preds = %120, %116, %88
  %125 = phi ptr [ null, %88 ], [ %96, %116 ], [ %96, %120 ]
  %126 = phi ptr [ null, %88 ], [ %98, %116 ], [ %98, %120 ]
  call void @llvm.lifetime.start.p0(i64 48, ptr nonnull %15) #19
  %127 = getelementptr inbounds i8, ptr %15, i64 8
  store i32 0, ptr %127, align 8, !tbaa !109
  %128 = getelementptr inbounds i8, ptr %15, i64 16
  store ptr null, ptr %128, align 8, !tbaa !110
  %129 = getelementptr inbounds i8, ptr %15, i64 24
  store ptr %127, ptr %129, align 8, !tbaa !98
  %130 = getelementptr inbounds i8, ptr %15, i64 32
  store ptr %127, ptr %130, align 8, !tbaa !111
  %131 = getelementptr inbounds i8, ptr %15, i64 40
  store i64 0, ptr %131, align 8, !tbaa !112
  call void @llvm.lifetime.start.p0(i64 24, ptr nonnull %16) #19
  invoke void @_ZNK6dealii10DoFHandlerILi3ELi3EE12begin_activeEj(ptr nonnull sret(%"class.dealii::TriaActiveIterator") align 8 %16, ptr noundef nonnull align 8 dereferenceable(168) %1, i32 noundef 0)
          to label %132 unwind label %164

132:                                              ; preds = %124
  %133 = getelementptr inbounds %"class.dealii::TriaAccessorBase", ptr %16, i64 0, i32 1
  %134 = getelementptr inbounds %"class.dealii::TriaAccessorBase", ptr %17, i64 0, i32 1
  %135 = getelementptr inbounds %"class.dealii::TriaAccessorBase", ptr %16, i64 0, i32 2
  %136 = getelementptr inbounds i8, ptr %13, i64 8
  %137 = getelementptr inbounds %"struct.std::pair.257", ptr %13, i64 0, i32 1
  %138 = getelementptr inbounds %"struct.std::pair.257", ptr %13, i64 0, i32 1, i32 0, i32 0, i32 0, i32 1
  %139 = ptrtoint ptr %126 to i64
  %140 = ptrtoint ptr %125 to i64
  %141 = sub i64 %139, %140
  %142 = ashr exact i64 %141, 3
  %143 = icmp sgt i64 %141, 8
  %144 = icmp eq i64 %141, 8
  %145 = icmp ugt i64 %141, 9223372036854775800
  %146 = icmp ugt i64 %141, 8
  %147 = icmp eq i64 %141, 8
  br label %149

148:                                              ; preds = %247, %250
  br label %149

149:                                              ; preds = %148, %132
  call void @llvm.lifetime.start.p0(i64 24, ptr nonnull %17) #19
  invoke void @_ZNK6dealii10DoFHandlerILi3ELi3EE3endEv(ptr nonnull sret(%"class.dealii::TriaRawIterator") align 8 %17, ptr noundef nonnull align 8 dereferenceable(168) %1)
          to label %150 unwind label %166

150:                                              ; preds = %149
  %151 = load i32, ptr %133, align 4, !tbaa !113
  %152 = load i32, ptr %134, align 4, !tbaa !113
  %153 = icmp ne i32 %151, %152
  %154 = load i32, ptr %16, align 8
  %155 = load i32, ptr %17, align 8
  %156 = icmp ne i32 %154, %155
  %157 = select i1 %153, i1 true, i1 %156
  call void @llvm.lifetime.end.p0(i64 24, ptr nonnull %17) #19
  br i1 %157, label %261, label %158

158:                                              ; preds = %150
  call void @llvm.lifetime.end.p0(i64 24, ptr nonnull %16) #19
  %159 = invoke noalias noundef nonnull dereferenceable(176) ptr @_Znwm(i64 noundef 176) #23
          to label %466 unwind label %507

160:                                              ; preds = %94
  %161 = landingpad { ptr, i32 }
          cleanup
  br label %1095

162:                                              ; preds = %1036
  %163 = landingpad { ptr, i32 }
          cleanup
  br label %1091

164:                                              ; preds = %124
  %165 = landingpad { ptr, i32 }
          cleanup
  br label %464

166:                                              ; preds = %149
  %167 = landingpad { ptr, i32 }
          cleanup
  call void @llvm.lifetime.end.p0(i64 24, ptr nonnull %17) #19
  br label %464

168:                                              ; preds = %454
  %169 = load ptr, ptr %135, align 8, !tbaa !115
  %170 = getelementptr inbounds %"class.dealii::Triangulation", ptr %169, i64 0, i32 1
  %171 = load ptr, ptr %170, align 8, !tbaa !116
  %172 = ptrtoint ptr %171 to i64
  %173 = getelementptr inbounds %"class.dealii::Triangulation", ptr %169, i64 0, i32 1, i32 0, i32 0, i32 0, i32 1
  %174 = load i32, ptr %16, align 8, !tbaa !118
  %175 = load i32, ptr %133, align 4
  br label %176

176:                                              ; preds = %245, %168
  %177 = phi i32 [ %174, %168 ], [ %225, %245 ]
  %178 = phi i32 [ %174, %168 ], [ %246, %245 ]
  %179 = phi i32 [ %175, %168 ], [ %226, %245 ]
  %180 = add nsw i32 %179, 1
  %181 = sext i32 %178 to i64
  %182 = getelementptr inbounds ptr, ptr %171, i64 %181
  %183 = load ptr, ptr %182, align 8, !tbaa !54
  %184 = getelementptr inbounds %"class.dealii::internal::Triangulation::TriaLevel", ptr %183, i64 0, i32 4
  %185 = getelementptr inbounds %"class.dealii::internal::Triangulation::TriaLevel", ptr %183, i64 0, i32 4, i32 0, i32 0, i32 0, i32 0, i32 0, i32 1
  %186 = load ptr, ptr %185, align 8, !tbaa !119
  %187 = load ptr, ptr %184, align 8, !tbaa !121
  %188 = ptrtoint ptr %186 to i64
  %189 = ptrtoint ptr %187 to i64
  %190 = sub i64 %188, %189
  %191 = sdiv exact i64 %190, 24
  %192 = trunc i64 %191 to i32
  %193 = icmp slt i32 %180, %192
  br i1 %193, label %224, label %194

194:                                              ; preds = %176
  %195 = add nsw i64 %181, 1
  %196 = trunc i64 %195 to i32
  store i32 %196, ptr %16, align 8, !tbaa !118
  %197 = load ptr, ptr %173, align 8, !tbaa !122
  %198 = ptrtoint ptr %197 to i64
  %199 = sub i64 %198, %172
  %200 = shl i64 %199, 29
  %201 = ashr i64 %200, 32
  %202 = icmp slt i64 %195, %201
  br i1 %202, label %203, label %221

203:                                              ; preds = %194, %217
  %204 = phi i64 [ %218, %217 ], [ %195, %194 ]
  %205 = getelementptr inbounds ptr, ptr %171, i64 %204
  %206 = load ptr, ptr %205, align 8, !tbaa !54
  %207 = getelementptr inbounds %"class.dealii::internal::Triangulation::TriaLevel", ptr %206, i64 0, i32 4
  %208 = getelementptr inbounds %"class.dealii::internal::Triangulation::TriaLevel", ptr %206, i64 0, i32 4, i32 0, i32 0, i32 0, i32 0, i32 0, i32 1
  %209 = load ptr, ptr %208, align 8, !tbaa !119
  %210 = load ptr, ptr %207, align 8, !tbaa !121
  %211 = ptrtoint ptr %209 to i64
  %212 = ptrtoint ptr %210 to i64
  %213 = sub i64 %211, %212
  %214 = sdiv exact i64 %213, 24
  %215 = trunc i64 %214 to i32
  %216 = icmp sgt i32 %215, 0
  br i1 %216, label %222, label %217

217:                                              ; preds = %203
  %218 = add i64 %204, 1
  %219 = trunc i64 %218 to i32
  store i32 %219, ptr %16, align 8, !tbaa !118
  %220 = icmp eq i64 %218, %201
  br i1 %220, label %221, label %203, !llvm.loop !123

221:                                              ; preds = %217, %194
  store i32 -1, ptr %16, align 8, !tbaa !118
  br label %224

222:                                              ; preds = %203
  %223 = trunc i64 %204 to i32
  br label %224

224:                                              ; preds = %222, %221, %176
  %225 = phi i32 [ %177, %176 ], [ -1, %221 ], [ %223, %222 ]
  %226 = phi i32 [ %180, %176 ], [ -1, %221 ], [ 0, %222 ]
  %227 = phi i32 [ %178, %176 ], [ -1, %221 ], [ %223, %222 ]
  %228 = or i32 %227, %226
  %229 = icmp sgt i32 %228, -1
  br i1 %229, label %230, label %247

230:                                              ; preds = %224
  %231 = zext i32 %227 to i64
  %232 = getelementptr inbounds ptr, ptr %171, i64 %231
  %233 = load ptr, ptr %232, align 8, !tbaa !54
  %234 = getelementptr inbounds %"class.dealii::internal::Triangulation::TriaLevel", ptr %233, i64 0, i32 4, i32 0, i32 3
  %235 = load ptr, ptr %234, align 8, !tbaa !99
  %236 = lshr i32 %226, 6
  %237 = zext i32 %236 to i64
  %238 = getelementptr inbounds i64, ptr %235, i64 %237
  %239 = and i32 %226, 63
  %240 = zext i32 %239 to i64
  %241 = shl nuw i64 1, %240
  %242 = load i64, ptr %238, align 8, !tbaa !125
  %243 = and i64 %242, %241
  %244 = icmp eq i64 %243, 0
  br i1 %244, label %245, label %247

245:                                              ; preds = %230, %250
  %246 = phi i32 [ %227, %230 ], [ %225, %250 ]
  br label %176

247:                                              ; preds = %230, %224
  store i32 %226, ptr %133, align 4, !tbaa !113
  %248 = or i32 %226, %225
  %249 = icmp sgt i32 %248, -1
  br i1 %249, label %250, label %148

250:                                              ; preds = %247
  %251 = zext i32 %225 to i64
  %252 = getelementptr inbounds ptr, ptr %171, i64 %251
  %253 = load ptr, ptr %252, align 8, !tbaa !54
  %254 = getelementptr inbounds %"class.dealii::internal::Triangulation::TriaLevel", ptr %253, i64 0, i32 4, i32 0, i32 1
  %255 = shl i32 %226, 2
  %256 = zext i32 %255 to i64
  %257 = load ptr, ptr %254, align 8, !tbaa !126
  %258 = getelementptr inbounds i32, ptr %257, i64 %256
  %259 = load i32, ptr %258, align 4, !tbaa !128
  %260 = icmp eq i32 %259, -1
  br i1 %260, label %148, label %245

261:                                              ; preds = %150, %454
  %262 = phi i64 [ %458, %454 ], [ 0, %150 ]
  %263 = load i32, ptr %16, align 8, !tbaa !118, !noalias !129
  %264 = sext i32 %263 to i64
  %265 = load i32, ptr %133, align 4, !tbaa !113, !noalias !129
  %266 = sext i32 %265 to i64
  %267 = load <2 x ptr>, ptr %135, align 8, !tbaa !54, !noalias !129
  %268 = extractelement <2 x ptr> %267, i64 0
  %269 = getelementptr inbounds %"class.dealii::Triangulation", ptr %268, i64 0, i32 1
  %270 = load ptr, ptr %269, align 8, !tbaa !116, !noalias !129
  %271 = getelementptr inbounds ptr, ptr %270, i64 %264
  %272 = load ptr, ptr %271, align 8, !tbaa !54, !noalias !129
  %273 = getelementptr inbounds %"class.dealii::internal::Triangulation::TriaLevel", ptr %272, i64 0, i32 4
  %274 = load ptr, ptr %273, align 8, !tbaa !121, !noalias !129
  %275 = getelementptr inbounds %"class.dealii::internal::Triangulation::TriaObject", ptr %274, i64 %266
  %276 = getelementptr inbounds [6 x i32], ptr %275, i64 0, i64 %262
  %277 = load i32, ptr %276, align 4, !tbaa !128, !noalias !129
  %278 = load ptr, ptr %128, align 8, !tbaa !110
  %279 = icmp eq ptr %278, null
  br i1 %279, label %309, label %280

280:                                              ; preds = %261
  %281 = icmp eq i32 %277, -1
  br label %282

282:                                              ; preds = %282, %280
  %283 = phi ptr [ %278, %280 ], [ %295, %282 ]
  %284 = phi ptr [ %127, %280 ], [ %293, %282 ]
  %285 = getelementptr inbounds %"struct.std::_Rb_tree_node", ptr %283, i64 0, i32 1
  %286 = load i32, ptr %285, align 8, !tbaa !132
  %287 = icmp slt i32 %286, %277
  %288 = icmp sgt i32 %286, -1
  %289 = or i1 %281, %287
  %290 = and i1 %288, %289
  %291 = getelementptr inbounds %"struct.std::_Rb_tree_node_base", ptr %283, i64 0, i32 3
  %292 = getelementptr inbounds %"struct.std::_Rb_tree_node_base", ptr %283, i64 0, i32 2
  %293 = select i1 %290, ptr %284, ptr %283
  %294 = select i1 %290, ptr %291, ptr %292
  %295 = load ptr, ptr %294, align 8, !tbaa !54
  %296 = icmp eq ptr %295, null
  br i1 %296, label %297, label %282

297:                                              ; preds = %282
  %298 = icmp eq ptr %293, %127
  br i1 %298, label %309, label %299

299:                                              ; preds = %297
  %300 = getelementptr inbounds %"struct.std::_Rb_tree_node", ptr %283, i64 0, i32 1
  %301 = getelementptr inbounds %"struct.std::_Rb_tree_node", ptr %284, i64 0, i32 1
  %302 = select i1 %290, ptr %301, ptr %300
  %303 = load i32, ptr %302, align 8, !tbaa !132
  %304 = icmp slt i32 %277, %303
  %305 = icmp sgt i32 %277, -1
  %306 = icmp eq i32 %303, -1
  %307 = or i1 %304, %306
  %308 = and i1 %305, %307
  br i1 %308, label %309, label %391

309:                                              ; preds = %299, %297, %261
  %310 = phi ptr [ %127, %297 ], [ %127, %261 ], [ %293, %299 ]
  call void @llvm.lifetime.start.p0(i64 48, ptr nonnull %13) #19
  store i32 %277, ptr %13, align 8
  store <2 x ptr> %267, ptr %136, align 8
  call void @llvm.memset.p0.i64(ptr noundef nonnull align 8 dereferenceable(24) %137, i8 0, i64 24, i1 false)
  %311 = invoke { ptr, ptr } @_ZNSt8_Rb_treeIN6dealii12TriaIteratorINS0_11DoFAccessorILi2ENS0_10DoFHandlerILi3ELi3EEEEEEESt4pairIKS6_St6vectorIdSaIdEEESt10_Select1stISC_ESt4lessIS6_ESaISC_EE29_M_get_insert_hint_unique_posESt23_Rb_tree_const_iteratorISC_ERS8_(ptr noundef nonnull align 8 dereferenceable(48) %15, ptr %310, ptr noundef nonnull align 8 dereferenceable(24) %13)
          to label %312 unwind label %383

312:                                              ; preds = %309
  %313 = extractvalue { ptr, ptr } %311, 0
  %314 = extractvalue { ptr, ptr } %311, 1
  %315 = icmp eq ptr %314, null
  br i1 %315, label %377, label %316

316:                                              ; preds = %312
  %317 = icmp ne ptr %313, null
  %318 = icmp eq ptr %127, %314
  %319 = or i1 %317, %318
  br i1 %319, label %330, label %320

320:                                              ; preds = %316
  %321 = getelementptr inbounds %"struct.std::_Rb_tree_node", ptr %314, i64 0, i32 1
  %322 = load i32, ptr %13, align 8, !tbaa !132
  %323 = load i32, ptr %321, align 8, !tbaa !132
  %324 = icmp slt i32 %322, %323
  %325 = icmp sgt i32 %322, -1
  %326 = and i1 %325, %324
  br i1 %326, label %330, label %327

327:                                              ; preds = %320
  %328 = icmp eq i32 %323, -1
  %329 = and i1 %325, %328
  br label %330

330:                                              ; preds = %327, %320, %316
  %331 = phi i1 [ true, %316 ], [ %329, %327 ], [ true, %320 ]
  %332 = invoke noalias noundef nonnull dereferenceable(80) ptr @_Znwm(i64 noundef 80) #23
          to label %333 unwind label %383

333:                                              ; preds = %330
  %334 = getelementptr inbounds %"struct.std::_Rb_tree_node", ptr %332, i64 0, i32 1
  call void @llvm.memcpy.p0.p0.i64(ptr noundef nonnull align 8 dereferenceable(24) %334, ptr noundef nonnull align 8 dereferenceable(24) %13, i64 24, i1 false)
  %335 = getelementptr inbounds %"struct.std::_Rb_tree_node", ptr %332, i64 0, i32 1, i32 1
  %336 = load ptr, ptr %138, align 8, !tbaa !54
  %337 = load ptr, ptr %137, align 8, !tbaa !54
  %338 = ptrtoint ptr %336 to i64
  %339 = ptrtoint ptr %337 to i64
  %340 = sub i64 %338, %339
  %341 = ashr exact i64 %340, 3
  call void @llvm.memset.p0.i64(ptr noundef nonnull align 8 dereferenceable(24) %335, i8 0, i64 24, i1 false)
  %342 = icmp eq ptr %336, %337
  br i1 %342, label %349, label %343

343:                                              ; preds = %333
  %344 = icmp ugt i64 %340, 9223372036854775800
  br i1 %344, label %345, label %347, !prof !134

345:                                              ; preds = %343
  invoke void @_ZSt28__throw_bad_array_new_lengthv() #21
          to label %346 unwind label %362

346:                                              ; preds = %345
  unreachable

347:                                              ; preds = %343
  %348 = invoke noalias noundef nonnull ptr @_Znwm(i64 noundef %340) #23
          to label %349 unwind label %360

349:                                              ; preds = %347, %333
  %350 = phi ptr [ null, %333 ], [ %348, %347 ]
  store ptr %350, ptr %335, align 8, !tbaa !55
  %351 = getelementptr inbounds %"struct.std::_Rb_tree_node", ptr %332, i64 0, i32 1, i32 1, i32 0, i32 0, i32 0, i32 1
  store ptr %350, ptr %351, align 8, !tbaa !56
  %352 = getelementptr inbounds double, ptr %350, i64 %341
  %353 = getelementptr inbounds %"struct.std::_Rb_tree_node", ptr %332, i64 0, i32 1, i32 1, i32 0, i32 0, i32 0, i32 2
  store ptr %352, ptr %353, align 8, !tbaa !135
  %354 = icmp sgt i64 %340, 8
  br i1 %354, label %355, label %356, !prof !136

355:                                              ; preds = %349
  call void @llvm.memmove.p0.p0.i64(ptr align 8 %350, ptr align 8 %337, i64 %340, i1 false)
  br label %374

356:                                              ; preds = %349
  %357 = icmp eq i64 %340, 8
  br i1 %357, label %358, label %374

358:                                              ; preds = %356
  %359 = load double, ptr %337, align 8, !tbaa !52
  store double %359, ptr %350, align 8, !tbaa !52
  br label %374

360:                                              ; preds = %347
  %361 = landingpad { ptr, i32 }
          catch ptr null
  br label %364

362:                                              ; preds = %345
  %363 = landingpad { ptr, i32 }
          catch ptr null
  br label %364

364:                                              ; preds = %362, %360
  %365 = phi { ptr, i32 } [ %361, %360 ], [ %363, %362 ]
  %366 = extractvalue { ptr, i32 } %365, 0
  %367 = call ptr @__cxa_begin_catch(ptr %366) #19
  call void @_ZdlPv(ptr noundef nonnull %332) #20
  invoke void @__cxa_rethrow() #21
          to label %373 unwind label %368

368:                                              ; preds = %364
  %369 = landingpad { ptr, i32 }
          cleanup
  invoke void @__cxa_end_catch()
          to label %385 unwind label %370

370:                                              ; preds = %368
  %371 = landingpad { ptr, i32 }
          catch ptr null
  %372 = extractvalue { ptr, i32 } %371, 0
  call void @__clang_call_terminate(ptr %372) #22
  unreachable

373:                                              ; preds = %364
  unreachable

374:                                              ; preds = %358, %356, %355
  store ptr %352, ptr %351, align 8, !tbaa !56
  call void @_ZSt29_Rb_tree_insert_and_rebalancebPSt18_Rb_tree_node_baseS0_RS_(i1 noundef zeroext %331, ptr noundef nonnull %332, ptr noundef nonnull %314, ptr noundef nonnull align 8 dereferenceable(32) %127) #19
  %375 = load i64, ptr %131, align 8, !tbaa !112
  %376 = add i64 %375, 1
  store i64 %376, ptr %131, align 8, !tbaa !112
  br label %377

377:                                              ; preds = %374, %312
  %378 = phi ptr [ %332, %374 ], [ %313, %312 ]
  %379 = load ptr, ptr %137, align 8, !tbaa !55
  %380 = icmp eq ptr %379, null
  br i1 %380, label %382, label %381

381:                                              ; preds = %377
  call void @_ZdlPv(ptr noundef nonnull %379) #20
  br label %382

382:                                              ; preds = %381, %377
  call void @llvm.lifetime.end.p0(i64 48, ptr nonnull %13) #19
  br label %391

383:                                              ; preds = %330, %309
  %384 = landingpad { ptr, i32 }
          cleanup
  br label %385

385:                                              ; preds = %368, %383
  %386 = phi { ptr, i32 } [ %384, %383 ], [ %369, %368 ]
  %387 = load ptr, ptr %137, align 8, !tbaa !55
  %388 = icmp eq ptr %387, null
  br i1 %388, label %390, label %389

389:                                              ; preds = %385
  call void @_ZdlPv(ptr noundef nonnull %387) #20
  br label %390

390:                                              ; preds = %389, %385
  call void @llvm.lifetime.end.p0(i64 48, ptr nonnull %13) #19
  br label %464

391:                                              ; preds = %382, %299
  %392 = phi ptr [ %378, %382 ], [ %293, %299 ]
  %393 = getelementptr inbounds %"struct.std::_Rb_tree_node", ptr %392, i64 0, i32 1, i32 1
  %394 = getelementptr inbounds %"struct.std::_Rb_tree_node", ptr %392, i64 0, i32 1, i32 1, i32 0, i32 0, i32 0, i32 2
  %395 = load ptr, ptr %394, align 8, !tbaa !135
  %396 = load ptr, ptr %393, align 8, !tbaa !54
  %397 = ptrtoint ptr %395 to i64
  %398 = ptrtoint ptr %396 to i64
  %399 = sub i64 %397, %398
  %400 = ashr exact i64 %399, 3
  %401 = icmp ugt i64 %142, %400
  br i1 %401, label %402, label %417

402:                                              ; preds = %391
  br i1 %145, label %403, label %405, !prof !134

403:                                              ; preds = %402
  invoke void @_ZSt28__throw_bad_array_new_lengthv() #21
          to label %404 unwind label %462

404:                                              ; preds = %403
  unreachable

405:                                              ; preds = %402
  %406 = invoke noalias noundef nonnull ptr @_Znwm(i64 noundef %141) #23
          to label %407 unwind label %460

407:                                              ; preds = %405
  br i1 %146, label %408, label %409, !prof !136

408:                                              ; preds = %407
  call void @llvm.memcpy.p0.p0.i64(ptr nonnull align 8 %406, ptr align 8 %125, i64 %141, i1 false)
  br label %412

409:                                              ; preds = %407
  br i1 %147, label %410, label %412

410:                                              ; preds = %409
  %411 = load double, ptr %125, align 8, !tbaa !52
  store double %411, ptr %406, align 8, !tbaa !52
  br label %412

412:                                              ; preds = %410, %409, %408
  %413 = icmp eq ptr %396, null
  br i1 %413, label %415, label %414

414:                                              ; preds = %412
  call void @_ZdlPv(ptr noundef nonnull %396) #20
  br label %415

415:                                              ; preds = %414, %412
  store ptr %406, ptr %393, align 8, !tbaa !55
  %416 = getelementptr inbounds double, ptr %406, i64 %142
  store ptr %416, ptr %394, align 8, !tbaa !135
  br label %454

417:                                              ; preds = %391
  %418 = getelementptr inbounds %"struct.std::_Rb_tree_node", ptr %392, i64 0, i32 1, i32 1, i32 0, i32 0, i32 0, i32 1
  %419 = load ptr, ptr %418, align 8, !tbaa !56
  %420 = ptrtoint ptr %419 to i64
  %421 = sub i64 %420, %398
  %422 = ashr exact i64 %421, 3
  %423 = icmp ult i64 %422, %142
  br i1 %423, label %429, label %424

424:                                              ; preds = %417
  br i1 %143, label %425, label %426, !prof !136

425:                                              ; preds = %424
  call void @llvm.memmove.p0.p0.i64(ptr align 8 %396, ptr align 8 %125, i64 %141, i1 false)
  br label %454

426:                                              ; preds = %424
  br i1 %144, label %427, label %454

427:                                              ; preds = %426
  %428 = load double, ptr %125, align 8, !tbaa !52
  store double %428, ptr %396, align 8, !tbaa !52
  br label %454

429:                                              ; preds = %417
  %430 = icmp sgt i64 %421, 8
  br i1 %430, label %431, label %434, !prof !136

431:                                              ; preds = %429
  call void @llvm.memmove.p0.p0.i64(ptr align 8 %396, ptr align 8 %125, i64 %421, i1 false)
  %432 = load ptr, ptr %418, align 8, !tbaa !56
  %433 = ptrtoint ptr %432 to i64
  br label %438

434:                                              ; preds = %429
  %435 = icmp eq i64 %421, 8
  br i1 %435, label %436, label %438

436:                                              ; preds = %434
  %437 = load double, ptr %125, align 8, !tbaa !52
  store double %437, ptr %396, align 8, !tbaa !52
  br label %438

438:                                              ; preds = %436, %434, %431
  %439 = phi i64 [ %433, %431 ], [ %420, %434 ], [ %420, %436 ]
  %440 = phi ptr [ %432, %431 ], [ %419, %434 ], [ %419, %436 ]
  %441 = load ptr, ptr %393, align 8, !tbaa !55
  %442 = ptrtoint ptr %441 to i64
  %443 = sub i64 %439, %442
  %444 = ashr exact i64 %443, 3
  %445 = getelementptr inbounds double, ptr %125, i64 %444
  %446 = ptrtoint ptr %445 to i64
  %447 = sub i64 %139, %446
  %448 = icmp sgt i64 %447, 8
  br i1 %448, label %449, label %450, !prof !136

449:                                              ; preds = %438
  call void @llvm.memmove.p0.p0.i64(ptr align 8 %440, ptr align 8 %445, i64 %447, i1 false)
  br label %454

450:                                              ; preds = %438
  %451 = icmp eq i64 %447, 8
  br i1 %451, label %452, label %454

452:                                              ; preds = %450
  %453 = load double, ptr %445, align 8, !tbaa !52
  store double %453, ptr %440, align 8, !tbaa !52
  br label %454

454:                                              ; preds = %452, %450, %449, %427, %426, %425, %415
  %455 = load ptr, ptr %393, align 8, !tbaa !55
  %456 = getelementptr inbounds double, ptr %455, i64 %142
  %457 = getelementptr inbounds %"struct.std::_Rb_tree_node", ptr %392, i64 0, i32 1, i32 1, i32 0, i32 0, i32 0, i32 1
  store ptr %456, ptr %457, align 8, !tbaa !56
  %458 = add nuw nsw i64 %262, 1
  %459 = icmp eq i64 %458, 6
  br i1 %459, label %168, label %261

460:                                              ; preds = %405
  %461 = landingpad { ptr, i32 }
          cleanup
  br label %464

462:                                              ; preds = %403
  %463 = landingpad { ptr, i32 }
          cleanup
  br label %464

464:                                              ; preds = %460, %462, %390, %166, %164
  %465 = phi { ptr, i32 } [ %165, %164 ], [ %167, %166 ], [ %386, %390 ], [ %461, %460 ], [ %463, %462 ]
  call void @llvm.lifetime.end.p0(i64 24, ptr nonnull %16) #19
  br label %1088

466:                                              ; preds = %158
  %467 = load ptr, ptr %34, align 8, !tbaa !88
  %468 = load ptr, ptr %4, align 8, !tbaa !85
  %469 = ptrtoint ptr %467 to i64
  %470 = ptrtoint ptr %468 to i64
  %471 = sub i64 %469, %470
  %472 = lshr exact i64 %471, 3
  %473 = trunc i64 %472 to i32
  %474 = load ptr, ptr %25, align 8, !tbaa !93
  %475 = getelementptr inbounds i8, ptr %474, i64 116
  %476 = load i32, ptr %475, align 4, !tbaa !95
  %477 = getelementptr inbounds %"class.dealii::hp::QCollection", ptr %2, i64 0, i32 1
  %478 = getelementptr inbounds %"class.dealii::hp::QCollection", ptr %2, i64 0, i32 1, i32 0, i32 0, i32 0, i32 1
  %479 = load ptr, ptr %478, align 8, !tbaa !137
  %480 = load ptr, ptr %477, align 8, !tbaa !139
  %481 = ptrtoint ptr %479 to i64
  %482 = ptrtoint ptr %480 to i64
  %483 = sub i64 %481, %482
  %484 = ashr exact i64 %483, 4
  %485 = icmp eq ptr %479, %480
  br i1 %485, label %505, label %486

486:                                              ; preds = %466, %486
  %487 = phi i64 [ %503, %486 ], [ 0, %466 ]
  %488 = phi i32 [ %502, %486 ], [ 0, %466 ]
  %489 = phi i32 [ %501, %486 ], [ 0, %466 ]
  %490 = getelementptr inbounds %"class.boost::shared_ptr.252", ptr %480, i64 %487
  %491 = load ptr, ptr %490, align 8, !tbaa !140
  %492 = getelementptr inbounds %"class.dealii::Quadrature", ptr %491, i64 0, i32 3
  %493 = getelementptr inbounds %"class.dealii::Quadrature", ptr %491, i64 0, i32 3, i32 0, i32 0, i32 0, i32 1
  %494 = load ptr, ptr %493, align 8, !tbaa !56
  %495 = load ptr, ptr %492, align 8, !tbaa !55
  %496 = ptrtoint ptr %494 to i64
  %497 = ptrtoint ptr %495 to i64
  %498 = sub i64 %496, %497
  %499 = lshr exact i64 %498, 3
  %500 = trunc i64 %499 to i32
  %501 = call i32 @llvm.umax.i32(i32 %489, i32 %500)
  %502 = add i32 %488, 1
  %503 = zext i32 %502 to i64
  %504 = icmp ugt i64 %484, %503
  br i1 %504, label %486, label %505

505:                                              ; preds = %486, %466
  %506 = phi i32 [ 0, %466 ], [ %501, %486 ]
  invoke void @_ZN6dealii19KellyErrorEstimatorILi3ELi3EE13PerThreadDataC2Ejjjjj(ptr noundef nonnull align 8 dereferenceable(176) %159, i32 noundef %473, i32 noundef %476, i32 noundef %506, i32 noundef %9, i32 noundef %10)
          to label %511 unwind label %509

507:                                              ; preds = %158
  %508 = landingpad { ptr, i32 }
          cleanup
  br label %1088

509:                                              ; preds = %505
  %510 = landingpad { ptr, i32 }
          cleanup
  call void @_ZdlPv(ptr noundef nonnull %159) #20
  br label %1088

511:                                              ; preds = %505
  call void @llvm.lifetime.start.p0(i64 24, ptr nonnull %18) #19
  %512 = getelementptr inbounds %"struct.std::__detail::_List_node_base", ptr %18, i64 0, i32 1
  store ptr %18, ptr %512, align 8, !tbaa !143
  store ptr %18, ptr %18, align 8, !tbaa !145
  %513 = getelementptr inbounds %"struct.std::__detail::_List_node_header", ptr %18, i64 0, i32 1
  store i64 0, ptr %513, align 8, !tbaa !146
  call void @llvm.lifetime.start.p0(i64 96, ptr nonnull %19) #19
  invoke void @_ZN6dealii2hp17MappingCollectionILi3ELi3EEC1Ev(ptr noundef nonnull align 8 dereferenceable(96) %19)
          to label %514 unwind label %517

514:                                              ; preds = %511
  invoke void @_ZN6dealii2hp17MappingCollectionILi3ELi3EE9push_backERKNS_7MappingILi3ELi3EEE(ptr noundef nonnull align 8 dereferenceable(96) %19, ptr noundef nonnull align 8 dereferenceable(72) %0)
          to label %523 unwind label %521

515:                                              ; preds = %1030, %1021
  %516 = landingpad { ptr, i32 }
          cleanup
  br label %1086

517:                                              ; preds = %664, %511
  %518 = landingpad { ptr, i32 }
          cleanup
  br label %1056

519:                                              ; preds = %575
  %520 = landingpad { ptr, i32 }
          cleanup
  br label %1054

521:                                              ; preds = %514
  %522 = landingpad { ptr, i32 }
          cleanup
  br label %1054

523:                                              ; preds = %514
  call void @llvm.lifetime.start.p0(i64 16, ptr nonnull %20) #19
  call void @llvm.lifetime.start.p0(i64 32, ptr nonnull %21) #19
  call void @llvm.experimental.noalias.scope.decl(metadata !148)
  store ptr null, ptr %21, align 8, !tbaa !151, !alias.scope !148
  %524 = getelementptr inbounds %"class.boost::function_base", ptr %21, i64 0, i32 1
  %525 = load ptr, ptr @_ZZN5boost9function9IvRKN6dealii2hp17MappingCollectionILi3ELi3EEERKNS1_10DoFHandlerILi3ELi3EEERKNS2_11QCollectionILi2EEERKSt3mapIhPKNS1_8FunctionILi3EEESt4lessIhESaISt4pairIKhSJ_EEERKSt6vectorIPKNS1_6VectorIdEESaISX_EERKSM_IPKST_IbSaIbEESJ_ESM_IjjERSF_INS1_12TriaIteratorINS1_11DoFAccessorILi2ES8_EEEEST_IdSaIdEESK_IS1D_ESaISM_IKS1D_S1F_EEERNS1_19KellyErrorEstimatorILi3ELi3EE13PerThreadDataEE9assign_toIPFvS6_SA_SE_SS_S11_S18_S19_S1L_S1P_EEEvT_E13stored_vtable, align 8, !tbaa !153, !noalias !148
  %526 = icmp eq ptr %525, null
  br i1 %526, label %528, label %527

527:                                              ; preds = %523
  invoke void %525(ptr noundef nonnull align 8 dereferenceable(24) %524, ptr noundef nonnull align 8 dereferenceable(24) %524, i32 noundef 2)
          to label %528 unwind label %581

528:                                              ; preds = %523, %527
  store ptr @_ZN6dealii19KellyErrorEstimatorILi3ELi3EE13estimate_someINS_6VectorIdEENS_10DoFHandlerILi3ELi3EEEEEvRKNS_2hp17MappingCollectionILi3ELi3EEERKT0_RKNS7_11QCollectionILi2EEERKSt3mapIhPKNS_8FunctionILi3EEESt4lessIhESaISt4pairIKhSN_EEERKSt6vectorIPKT_SaIS10_EERKSQ_IPKSX_IbSaIbEESN_ESQ_IjjERNS1_13FaceIntegralsISC_E4typeERNS1_13PerThreadDataE, ptr %524, align 8, !tbaa !28, !alias.scope !148
  store ptr @_ZZN5boost9function9IvRKN6dealii2hp17MappingCollectionILi3ELi3EEERKNS1_10DoFHandlerILi3ELi3EEERKNS2_11QCollectionILi2EEERKSt3mapIhPKNS1_8FunctionILi3EEESt4lessIhESaISt4pairIKhSJ_EEERKSt6vectorIPKNS1_6VectorIdEESaISX_EERKSM_IPKST_IbSaIbEESJ_ESM_IjjERSF_INS1_12TriaIteratorINS1_11DoFAccessorILi2ES8_EEEEST_IdSaIdEESK_IS1D_ESaISM_IKS1D_S1F_EEERNS1_19KellyErrorEstimatorILi3ELi3EE13PerThreadDataEE9assign_toIPFvS6_SA_SE_SS_S11_S18_S19_S1L_S1P_EEEvT_E13stored_vtable, ptr %21, align 8, !tbaa !151, !alias.scope !148
  call void @llvm.lifetime.start.p0(i64 16, ptr nonnull %22) #19
  store ptr %14, ptr %22, align 8, !tbaa !156
  %529 = getelementptr inbounds %"struct.std::pair.158", ptr %22, i64 0, i32 1
  store ptr %7, ptr %529, align 8, !tbaa !158
  invoke void @_ZN6dealii7Threads8internal16fun_encapsulatorIvN5boost6tuples5tupleIRKNS_2hp17MappingCollectionILi3ELi3EEERKNS_10DoFHandlerILi3ELi3EEERKNS6_11QCollectionILi2EEERKSt3mapIhPKNS_8FunctionILi3EEESt4lessIhESaISt4pairIKhSN_EEERKSt6vectorIPKNS_6VectorIdEESaIS11_EERKSQ_IPKSX_IbSaIbEESN_ESQ_IjjERSJ_INS_12TriaIteratorINS_11DoFAccessorILi2ESC_EEEESX_IdSaIdEESO_IS1H_ESaISQ_IKS1H_S1J_EEERNS_19KellyErrorEstimatorILi3ELi3EE13PerThreadDataENS4_9null_typeEEELi9EEclESA_SE_SI_SW_S15_S1C_S1D_S1P_S1T_(ptr nonnull sret(%"class.dealii::Threads::Thread") align 8 %20, ptr noundef nonnull align 8 dereferenceable(32) %21, ptr noundef nonnull align 8 dereferenceable(96) %19, ptr noundef nonnull align 8 dereferenceable(168) %1, ptr noundef nonnull align 8 dereferenceable(96) %2, ptr noundef nonnull align 8 dereferenceable(48) %3, ptr noundef nonnull align 8 dereferenceable(24) %4, ptr noundef nonnull align 8 dereferenceable(16) %22, i64 4294967296, ptr noundef nonnull align 8 dereferenceable(48) %15, ptr noundef nonnull align 8 dereferenceable(176) %159)
          to label %530 unwind label %583

530:                                              ; preds = %528
  %531 = invoke noalias noundef nonnull dereferenceable(32) ptr @_Znwm(i64 noundef 32) #23
          to label %532 unwind label %585

532:                                              ; preds = %530
  %533 = getelementptr inbounds %"struct.std::_List_node", ptr %531, i64 0, i32 1
  %534 = getelementptr inbounds %"class.boost::shared_ptr", ptr %20, i64 0, i32 1
  %535 = load <2 x ptr>, ptr %20, align 16, !tbaa !54
  store <2 x ptr> %535, ptr %533, align 8, !tbaa !54
  %536 = extractelement <2 x ptr> %535, i64 1
  %537 = icmp eq ptr %536, null
  br i1 %537, label %542, label %538

538:                                              ; preds = %532
  %539 = getelementptr inbounds %"class.boost::detail::sp_counted_base", ptr %536, i64 0, i32 1
  %540 = load i64, ptr %539, align 8, !tbaa !159
  %541 = add nsw i64 %540, 1
  store i64 %541, ptr %539, align 8, !tbaa !159
  br label %542

542:                                              ; preds = %538, %532
  call void @_ZNSt8__detail15_List_node_base7_M_hookEPS0_(ptr noundef nonnull align 8 dereferenceable(16) %531, ptr noundef nonnull %18) #19
  %543 = load i64, ptr %513, align 8, !tbaa !161
  %544 = add i64 %543, 1
  store i64 %544, ptr %513, align 8, !tbaa !161
  %545 = load ptr, ptr %534, align 8, !tbaa !164
  %546 = icmp eq ptr %545, null
  br i1 %546, label %565, label %547

547:                                              ; preds = %542
  %548 = getelementptr inbounds %"class.boost::detail::sp_counted_base", ptr %545, i64 0, i32 1
  %549 = load i64, ptr %548, align 8, !tbaa !159
  %550 = add nsw i64 %549, -1
  store i64 %550, ptr %548, align 8, !tbaa !159
  %551 = icmp eq i64 %550, 0
  br i1 %551, label %552, label %565

552:                                              ; preds = %547
  %553 = load ptr, ptr %545, align 8, !tbaa !5
  %554 = getelementptr inbounds ptr, ptr %553, i64 2
  %555 = load ptr, ptr %554, align 8
  invoke void %555(ptr noundef nonnull align 8 dereferenceable(24) %545)
          to label %556 unwind label %583

556:                                              ; preds = %552
  %557 = getelementptr inbounds %"class.boost::detail::sp_counted_base", ptr %545, i64 0, i32 2
  %558 = load i64, ptr %557, align 8, !tbaa !165
  %559 = add nsw i64 %558, -1
  store i64 %559, ptr %557, align 8, !tbaa !165
  %560 = icmp eq i64 %559, 0
  br i1 %560, label %561, label %565

561:                                              ; preds = %556
  %562 = load ptr, ptr %545, align 8, !tbaa !5
  %563 = getelementptr inbounds ptr, ptr %562, i64 3
  %564 = load ptr, ptr %563, align 8
  invoke void %564(ptr noundef nonnull align 8 dereferenceable(24) %545)
          to label %565 unwind label %583

565:                                              ; preds = %556, %547, %542, %561
  call void @llvm.lifetime.end.p0(i64 16, ptr nonnull %22) #19
  %566 = load ptr, ptr %21, align 8, !tbaa !151
  %567 = icmp eq ptr %566, null
  br i1 %567, label %572, label %568

568:                                              ; preds = %565
  %569 = load ptr, ptr %566, align 8, !tbaa !153
  %570 = icmp eq ptr %569, null
  br i1 %570, label %572, label %571

571:                                              ; preds = %568
  invoke void %569(ptr noundef nonnull align 8 dereferenceable(24) %524, ptr noundef nonnull align 8 dereferenceable(24) %524, i32 noundef 2)
          to label %572 unwind label %581

572:                                              ; preds = %568, %571, %565
  call void @llvm.lifetime.end.p0(i64 32, ptr nonnull %21) #19
  call void @llvm.lifetime.end.p0(i64 16, ptr nonnull %20) #19
  %573 = load ptr, ptr %18, align 8, !tbaa !145
  %574 = icmp eq ptr %573, %18
  br i1 %574, label %597, label %575

575:                                              ; preds = %572, %578
  %576 = phi ptr [ %579, %578 ], [ %573, %572 ]
  %577 = getelementptr inbounds %"struct.std::_List_node", ptr %576, i64 0, i32 1
  invoke void @_ZNK6dealii7Threads6ThreadIvE4joinEv(ptr noundef nonnull align 8 dereferenceable(16) %577)
          to label %578 unwind label %519

578:                                              ; preds = %575
  %579 = load ptr, ptr %576, align 8, !tbaa !145
  %580 = icmp eq ptr %579, %18
  br i1 %580, label %597, label %575

581:                                              ; preds = %571, %527
  %582 = landingpad { ptr, i32 }
          cleanup
  br label %595

583:                                              ; preds = %561, %552, %528
  %584 = landingpad { ptr, i32 }
          cleanup
  br label %587

585:                                              ; preds = %530
  %586 = landingpad { ptr, i32 }
          cleanup
  invoke void @_ZN6dealii7Threads6ThreadIvED2Ev(ptr noundef nonnull align 8 dereferenceable(16) %20)
          to label %587 unwind label %1111

587:                                              ; preds = %585, %583
  %588 = phi { ptr, i32 } [ %584, %583 ], [ %586, %585 ]
  call void @llvm.lifetime.end.p0(i64 16, ptr nonnull %22) #19
  %589 = load ptr, ptr %21, align 8, !tbaa !151
  %590 = icmp eq ptr %589, null
  br i1 %590, label %595, label %591

591:                                              ; preds = %587
  %592 = load ptr, ptr %589, align 8, !tbaa !153
  %593 = icmp eq ptr %592, null
  br i1 %593, label %595, label %594

594:                                              ; preds = %591
  invoke void %592(ptr noundef nonnull align 8 dereferenceable(24) %524, ptr noundef nonnull align 8 dereferenceable(24) %524, i32 noundef 2)
          to label %595 unwind label %1111

595:                                              ; preds = %591, %594, %587, %581
  %596 = phi { ptr, i32 } [ %582, %581 ], [ %588, %587 ], [ %588, %594 ], [ %588, %591 ]
  call void @llvm.lifetime.end.p0(i64 32, ptr nonnull %21) #19
  call void @llvm.lifetime.end.p0(i64 16, ptr nonnull %20) #19
  br label %1054

597:                                              ; preds = %578, %572
  invoke void @_ZN6dealii19KellyErrorEstimatorILi3ELi3EE13PerThreadDataD2Ev(ptr noundef nonnull align 8 dereferenceable(176) %159)
          to label %598 unwind label %604

598:                                              ; preds = %597
  call void @_ZdlPv(ptr noundef nonnull %159) #20
  %599 = and i64 %90, 34359738360
  %600 = icmp eq i64 %599, 0
  br i1 %600, label %606, label %601

601:                                              ; preds = %598
  %602 = getelementptr inbounds %"class.dealii::DoFHandler", ptr %1, i64 0, i32 1
  %603 = and i64 %91, 4294967295
  br label %621

604:                                              ; preds = %597
  %605 = landingpad { ptr, i32 }
          cleanup
  call void @_ZdlPv(ptr noundef nonnull %159) #20
  br label %1054

606:                                              ; preds = %639, %598
  call void @llvm.lifetime.start.p0(i64 24, ptr nonnull %23) #19
  invoke void @_ZNK6dealii10DoFHandlerILi3ELi3EE12begin_activeEj(ptr nonnull sret(%"class.dealii::TriaActiveIterator") align 8 %23, ptr noundef nonnull align 8 dereferenceable(168) %1, i32 noundef 0)
          to label %607 unwind label %667

607:                                              ; preds = %606
  %608 = getelementptr inbounds %"class.dealii::TriaAccessorBase", ptr %23, i64 0, i32 1
  %609 = getelementptr inbounds %"class.dealii::TriaAccessorBase", ptr %24, i64 0, i32 1
  %610 = icmp eq i32 %9, -1
  %611 = icmp eq i32 %10, -1
  %612 = getelementptr inbounds %"class.dealii::TriaAccessorBase", ptr %23, i64 0, i32 2
  %613 = getelementptr inbounds i8, ptr %12, i64 8
  %614 = getelementptr inbounds %"struct.std::pair.257", ptr %12, i64 0, i32 1
  %615 = getelementptr inbounds %"struct.std::pair.257", ptr %12, i64 0, i32 1, i32 0, i32 0, i32 0, i32 1
  %616 = and i64 %91, 4294967295
  %617 = and i64 %91, 1
  %618 = icmp eq i64 %92, 1
  %619 = sub nsw i64 %92, %617
  %620 = icmp eq i64 %617, 0
  br label %654

621:                                              ; preds = %601, %639
  %622 = phi i64 [ 0, %601 ], [ %640, %639 ]
  %623 = load ptr, ptr %5, align 8, !tbaa !89
  %624 = getelementptr inbounds ptr, ptr %623, i64 %622
  %625 = load ptr, ptr %624, align 8, !tbaa !54
  %626 = load ptr, ptr %602, align 8, !tbaa !166
  %627 = invoke noundef i32 @_ZNK6dealii13TriangulationILi3ELi3EE14n_active_cellsEv(ptr noundef nonnull align 8 dereferenceable(8552) %626)
          to label %628 unwind label %642

628:                                              ; preds = %621
  %629 = load ptr, ptr %625, align 8, !tbaa !5
  %630 = getelementptr inbounds ptr, ptr %629, i64 2
  %631 = load ptr, ptr %630, align 8
  invoke void %631(ptr noundef nonnull align 8 dereferenceable(88) %625, i32 noundef %627, i1 noundef zeroext false)
          to label %632 unwind label %642

632:                                              ; preds = %628, %646
  %633 = phi i64 [ %653, %646 ], [ 0, %628 ]
  %634 = load ptr, ptr %602, align 8, !tbaa !166
  %635 = invoke noundef i32 @_ZNK6dealii13TriangulationILi3ELi3EE14n_active_cellsEv(ptr noundef nonnull align 8 dereferenceable(8552) %634)
          to label %636 unwind label %644

636:                                              ; preds = %632
  %637 = zext i32 %635 to i64
  %638 = icmp ult i64 %633, %637
  br i1 %638, label %646, label %639

639:                                              ; preds = %636
  %640 = add nuw nsw i64 %622, 1
  %641 = icmp eq i64 %640, %603
  br i1 %641, label %606, label %621

642:                                              ; preds = %628, %621
  %643 = landingpad { ptr, i32 }
          cleanup
  br label %1054

644:                                              ; preds = %632
  %645 = landingpad { ptr, i32 }
          cleanup
  br label %1054

646:                                              ; preds = %636
  %647 = load ptr, ptr %5, align 8, !tbaa !89
  %648 = getelementptr inbounds ptr, ptr %647, i64 %622
  %649 = load ptr, ptr %648, align 8, !tbaa !54
  %650 = getelementptr inbounds %"class.dealii::Vector.64", ptr %649, i64 0, i32 3
  %651 = load ptr, ptr %650, align 8, !tbaa !168
  %652 = getelementptr inbounds float, ptr %651, i64 %633
  store float 0.000000e+00, ptr %652, align 4, !tbaa !170
  %653 = add nuw nsw i64 %633, 1
  br label %632

654:                                              ; preds = %607, %1003
  %655 = phi i32 [ %1004, %1003 ], [ 0, %607 ]
  call void @llvm.lifetime.start.p0(i64 24, ptr nonnull %24) #19
  invoke void @_ZNK6dealii10DoFHandlerILi3ELi3EE3endEv(ptr nonnull sret(%"class.dealii::TriaRawIterator") align 8 %24, ptr noundef nonnull align 8 dereferenceable(168) %1)
          to label %656 unwind label %669

656:                                              ; preds = %654
  %657 = load i32, ptr %608, align 4, !tbaa !113
  %658 = load i32, ptr %609, align 4, !tbaa !113
  %659 = icmp ne i32 %657, %658
  %660 = load i32, ptr %23, align 8
  %661 = load i32, ptr %24, align 8
  %662 = icmp ne i32 %660, %661
  %663 = select i1 %659, i1 true, i1 %662
  call void @llvm.lifetime.end.p0(i64 24, ptr nonnull %24) #19
  br i1 %663, label %671, label %664

664:                                              ; preds = %656
  call void @llvm.lifetime.end.p0(i64 24, ptr nonnull %23) #19
  invoke void @_ZN6dealii2hp17MappingCollectionILi3ELi3EED2Ev(ptr noundef nonnull align 8 dereferenceable(96) %19)
          to label %1007 unwind label %517

665:                                              ; preds = %672, %677
  %666 = landingpad { ptr, i32 }
          cleanup
  br label %1005

667:                                              ; preds = %606
  %668 = landingpad { ptr, i32 }
          cleanup
  br label %1005

669:                                              ; preds = %654
  %670 = landingpad { ptr, i32 }
          cleanup
  call void @llvm.lifetime.end.p0(i64 24, ptr nonnull %24) #19
  br label %1005

671:                                              ; preds = %656
  br i1 %610, label %676, label %672

672:                                              ; preds = %671
  %673 = invoke noundef i32 @_ZNK6dealii12CellAccessorILi3ELi3EE12subdomain_idEv(ptr noundef nonnull align 8 dereferenceable(16) %23)
          to label %674 unwind label %665

674:                                              ; preds = %672
  %675 = icmp eq i32 %673, %9
  br i1 %675, label %676, label %910

676:                                              ; preds = %674, %671
  br i1 %611, label %682, label %677

677:                                              ; preds = %676
  %678 = invoke noundef zeroext i8 @_ZNK6dealii12CellAccessorILi3ELi3EE11material_idEv(ptr noundef nonnull align 8 dereferenceable(16) %23)
          to label %679 unwind label %665

679:                                              ; preds = %677
  %680 = zext i8 %678 to i32
  %681 = icmp eq i32 %680, %10
  br i1 %681, label %682, label %910

682:                                              ; preds = %679, %676
  %683 = zext i32 %655 to i64
  br i1 %600, label %684, label %686

684:                                              ; preds = %682
  %685 = invoke noundef double @_ZNK6dealii12TriaAccessorILi3ELi3ELi3EE8diameterEv(ptr noundef nonnull align 8 dereferenceable(16) %23)
          to label %827 unwind label %837

686:                                              ; preds = %682, %815
  %687 = phi i64 [ %816, %815 ], [ 0, %682 ]
  %688 = invoke noundef double @_ZNK6dealii12TriaAccessorILi3ELi3ELi3EE8diameterEv(ptr noundef nonnull align 8 dereferenceable(16) %23)
          to label %689 unwind label %818

689:                                              ; preds = %686
  %690 = fdiv double %688, 2.400000e+01
  br label %691

691:                                              ; preds = %689, %797
  %692 = phi i64 [ 0, %689 ], [ %813, %797 ]
  %693 = load i32, ptr %23, align 8, !tbaa !118, !noalias !172
  %694 = sext i32 %693 to i64
  %695 = load i32, ptr %608, align 4, !tbaa !113, !noalias !172
  %696 = sext i32 %695 to i64
  %697 = load <2 x ptr>, ptr %612, align 8, !tbaa !54, !noalias !172
  %698 = extractelement <2 x ptr> %697, i64 0
  %699 = getelementptr inbounds %"class.dealii::Triangulation", ptr %698, i64 0, i32 1
  %700 = load ptr, ptr %699, align 8, !tbaa !116, !noalias !172
  %701 = getelementptr inbounds ptr, ptr %700, i64 %694
  %702 = load ptr, ptr %701, align 8, !tbaa !54, !noalias !172
  %703 = getelementptr inbounds %"class.dealii::internal::Triangulation::TriaLevel", ptr %702, i64 0, i32 4
  %704 = load ptr, ptr %703, align 8, !tbaa !121, !noalias !172
  %705 = getelementptr inbounds %"class.dealii::internal::Triangulation::TriaObject", ptr %704, i64 %696
  %706 = getelementptr inbounds [6 x i32], ptr %705, i64 0, i64 %687
  %707 = load i32, ptr %706, align 4, !tbaa !128, !noalias !172
  %708 = load ptr, ptr %128, align 8, !tbaa !110
  %709 = icmp eq ptr %708, null
  br i1 %709, label %739, label %710

710:                                              ; preds = %691
  %711 = icmp eq i32 %707, -1
  br label %712

712:                                              ; preds = %712, %710
  %713 = phi ptr [ %708, %710 ], [ %725, %712 ]
  %714 = phi ptr [ %127, %710 ], [ %723, %712 ]
  %715 = getelementptr inbounds %"struct.std::_Rb_tree_node", ptr %713, i64 0, i32 1
  %716 = load i32, ptr %715, align 8, !tbaa !132
  %717 = icmp slt i32 %716, %707
  %718 = icmp sgt i32 %716, -1
  %719 = or i1 %711, %717
  %720 = and i1 %718, %719
  %721 = getelementptr inbounds %"struct.std::_Rb_tree_node_base", ptr %713, i64 0, i32 3
  %722 = getelementptr inbounds %"struct.std::_Rb_tree_node_base", ptr %713, i64 0, i32 2
  %723 = select i1 %720, ptr %714, ptr %713
  %724 = select i1 %720, ptr %721, ptr %722
  %725 = load ptr, ptr %724, align 8, !tbaa !54
  %726 = icmp eq ptr %725, null
  br i1 %726, label %727, label %712

727:                                              ; preds = %712
  %728 = icmp eq ptr %723, %127
  br i1 %728, label %739, label %729

729:                                              ; preds = %727
  %730 = getelementptr inbounds %"struct.std::_Rb_tree_node", ptr %713, i64 0, i32 1
  %731 = getelementptr inbounds %"struct.std::_Rb_tree_node", ptr %714, i64 0, i32 1
  %732 = select i1 %720, ptr %731, ptr %730
  %733 = load i32, ptr %732, align 8, !tbaa !132
  %734 = icmp slt i32 %707, %733
  %735 = icmp sgt i32 %707, -1
  %736 = icmp eq i32 %733, -1
  %737 = or i1 %734, %736
  %738 = and i1 %735, %737
  br i1 %738, label %739, label %797

739:                                              ; preds = %729, %727, %691
  %740 = phi ptr [ %127, %727 ], [ %127, %691 ], [ %723, %729 ]
  call void @llvm.lifetime.start.p0(i64 48, ptr nonnull %12) #19
  store i32 %707, ptr %12, align 8
  store <2 x ptr> %697, ptr %613, align 8
  call void @llvm.memset.p0.i64(ptr noundef nonnull align 8 dereferenceable(24) %614, i8 0, i64 24, i1 false)
  %741 = invoke { ptr, ptr } @_ZNSt8_Rb_treeIN6dealii12TriaIteratorINS0_11DoFAccessorILi2ENS0_10DoFHandlerILi3ELi3EEEEEEESt4pairIKS6_St6vectorIdSaIdEEESt10_Select1stISC_ESt4lessIS6_ESaISC_EE29_M_get_insert_hint_unique_posESt23_Rb_tree_const_iteratorISC_ERS8_(ptr noundef nonnull align 8 dereferenceable(48) %15, ptr %740, ptr noundef nonnull align 8 dereferenceable(24) %12)
          to label %742 unwind label %820

742:                                              ; preds = %739
  %743 = extractvalue { ptr, ptr } %741, 0
  %744 = extractvalue { ptr, ptr } %741, 1
  %745 = icmp eq ptr %744, null
  br i1 %745, label %791, label %746

746:                                              ; preds = %742
  %747 = icmp ne ptr %743, null
  %748 = icmp eq ptr %127, %744
  %749 = or i1 %747, %748
  br i1 %749, label %760, label %750

750:                                              ; preds = %746
  %751 = getelementptr inbounds %"struct.std::_Rb_tree_node", ptr %744, i64 0, i32 1
  %752 = load i32, ptr %12, align 8, !tbaa !132
  %753 = load i32, ptr %751, align 8, !tbaa !132
  %754 = icmp slt i32 %752, %753
  %755 = icmp sgt i32 %752, -1
  %756 = and i1 %755, %754
  br i1 %756, label %760, label %757

757:                                              ; preds = %750
  %758 = icmp eq i32 %753, -1
  %759 = and i1 %755, %758
  br label %760

760:                                              ; preds = %757, %750, %746
  %761 = phi i1 [ true, %746 ], [ %759, %757 ], [ true, %750 ]
  %762 = invoke noalias noundef nonnull dereferenceable(80) ptr @_Znwm(i64 noundef 80) #23
          to label %763 unwind label %820

763:                                              ; preds = %760
  %764 = getelementptr inbounds %"struct.std::_Rb_tree_node", ptr %762, i64 0, i32 1
  call void @llvm.memcpy.p0.p0.i64(ptr noundef nonnull align 8 dereferenceable(24) %764, ptr noundef nonnull align 8 dereferenceable(24) %12, i64 24, i1 false)
  %765 = getelementptr inbounds %"struct.std::_Rb_tree_node", ptr %762, i64 0, i32 1, i32 1
  %766 = load ptr, ptr %615, align 8, !tbaa !54
  %767 = load ptr, ptr %614, align 8, !tbaa !54
  %768 = ptrtoint ptr %766 to i64
  %769 = ptrtoint ptr %767 to i64
  %770 = sub i64 %768, %769
  %771 = ashr exact i64 %770, 3
  call void @llvm.memset.p0.i64(ptr noundef nonnull align 8 dereferenceable(24) %765, i8 0, i64 24, i1 false)
  %772 = icmp eq ptr %766, %767
  br i1 %772, label %777, label %773

773:                                              ; preds = %763
  %774 = icmp ugt i64 %770, 9223372036854775800
  br i1 %774, label %839, label %775, !prof !134

775:                                              ; preds = %773
  %776 = invoke noalias noundef nonnull ptr @_Znwm(i64 noundef %770) #23
          to label %777 unwind label %822

777:                                              ; preds = %775, %763
  %778 = phi ptr [ null, %763 ], [ %776, %775 ]
  store ptr %778, ptr %765, align 8, !tbaa !55
  %779 = getelementptr inbounds %"struct.std::_Rb_tree_node", ptr %762, i64 0, i32 1, i32 1, i32 0, i32 0, i32 0, i32 1
  store ptr %778, ptr %779, align 8, !tbaa !56
  %780 = getelementptr inbounds double, ptr %778, i64 %771
  %781 = getelementptr inbounds %"struct.std::_Rb_tree_node", ptr %762, i64 0, i32 1, i32 1, i32 0, i32 0, i32 0, i32 2
  store ptr %780, ptr %781, align 8, !tbaa !135
  %782 = icmp sgt i64 %770, 8
  br i1 %782, label %787, label %783, !prof !136

783:                                              ; preds = %777
  %784 = icmp eq i64 %770, 8
  br i1 %784, label %785, label %788

785:                                              ; preds = %783
  %786 = load double, ptr %767, align 8, !tbaa !52
  store double %786, ptr %778, align 8, !tbaa !52
  br label %788

787:                                              ; preds = %777
  call void @llvm.memmove.p0.p0.i64(ptr align 8 %778, ptr align 8 %767, i64 %770, i1 false)
  br label %788

788:                                              ; preds = %787, %785, %783
  store ptr %780, ptr %779, align 8, !tbaa !56
  call void @_ZSt29_Rb_tree_insert_and_rebalancebPSt18_Rb_tree_node_baseS0_RS_(i1 noundef zeroext %761, ptr noundef nonnull %762, ptr noundef nonnull %744, ptr noundef nonnull align 8 dereferenceable(32) %127) #19
  %789 = load i64, ptr %131, align 8, !tbaa !112
  %790 = add i64 %789, 1
  store i64 %790, ptr %131, align 8, !tbaa !112
  br label %791

791:                                              ; preds = %788, %742
  %792 = phi ptr [ %762, %788 ], [ %743, %742 ]
  %793 = load ptr, ptr %614, align 8, !tbaa !55
  %794 = icmp eq ptr %793, null
  br i1 %794, label %796, label %795

795:                                              ; preds = %791
  call void @_ZdlPv(ptr noundef nonnull %793) #20
  br label %796

796:                                              ; preds = %795, %791
  call void @llvm.lifetime.end.p0(i64 48, ptr nonnull %12) #19
  br label %797

797:                                              ; preds = %796, %729
  %798 = phi ptr [ %792, %796 ], [ %723, %729 ]
  %799 = getelementptr inbounds %"struct.std::_Rb_tree_node", ptr %798, i64 0, i32 1, i32 1
  %800 = load ptr, ptr %799, align 8, !tbaa !55
  %801 = getelementptr inbounds double, ptr %800, i64 %692
  %802 = load double, ptr %801, align 8, !tbaa !52
  %803 = load ptr, ptr %5, align 8, !tbaa !89
  %804 = getelementptr inbounds ptr, ptr %803, i64 %692
  %805 = load ptr, ptr %804, align 8, !tbaa !54
  %806 = getelementptr inbounds %"class.dealii::Vector.64", ptr %805, i64 0, i32 3
  %807 = load ptr, ptr %806, align 8, !tbaa !168
  %808 = getelementptr inbounds float, ptr %807, i64 %683
  %809 = load float, ptr %808, align 4, !tbaa !170
  %810 = fpext float %809 to double
  %811 = call double @llvm.fmuladd.f64(double %802, double %690, double %810)
  %812 = fptrunc double %811 to float
  store float %812, ptr %808, align 4, !tbaa !170
  %813 = add nuw nsw i64 %692, 1
  %814 = icmp eq i64 %813, %616
  br i1 %814, label %815, label %691

815:                                              ; preds = %797
  %816 = add nuw nsw i64 %687, 1
  %817 = icmp eq i64 %816, 6
  br i1 %817, label %824, label %686

818:                                              ; preds = %686
  %819 = landingpad { ptr, i32 }
          cleanup
  br label %1005

820:                                              ; preds = %760, %739
  %821 = landingpad { ptr, i32 }
          cleanup
  br label %853

822:                                              ; preds = %775
  %823 = landingpad { ptr, i32 }
          catch ptr null
  br label %843

824:                                              ; preds = %815
  br i1 %600, label %910, label %825

825:                                              ; preds = %824
  %826 = load ptr, ptr %5, align 8, !tbaa !89
  br i1 %618, label %893, label %859

827:                                              ; preds = %684
  %828 = invoke noundef double @_ZNK6dealii12TriaAccessorILi3ELi3ELi3EE8diameterEv(ptr noundef nonnull align 8 dereferenceable(16) %23)
          to label %829 unwind label %837

829:                                              ; preds = %827
  %830 = invoke noundef double @_ZNK6dealii12TriaAccessorILi3ELi3ELi3EE8diameterEv(ptr noundef nonnull align 8 dereferenceable(16) %23)
          to label %831 unwind label %837

831:                                              ; preds = %829
  %832 = invoke noundef double @_ZNK6dealii12TriaAccessorILi3ELi3ELi3EE8diameterEv(ptr noundef nonnull align 8 dereferenceable(16) %23)
          to label %833 unwind label %837

833:                                              ; preds = %831
  %834 = invoke noundef double @_ZNK6dealii12TriaAccessorILi3ELi3ELi3EE8diameterEv(ptr noundef nonnull align 8 dereferenceable(16) %23)
          to label %835 unwind label %837

835:                                              ; preds = %833
  %836 = invoke noundef double @_ZNK6dealii12TriaAccessorILi3ELi3ELi3EE8diameterEv(ptr noundef nonnull align 8 dereferenceable(16) %23)
          to label %910 unwind label %837

837:                                              ; preds = %835, %833, %831, %829, %827, %684
  %838 = landingpad { ptr, i32 }
          cleanup
  br label %1005

839:                                              ; preds = %773
  invoke void @_ZSt28__throw_bad_array_new_lengthv() #21
          to label %840 unwind label %841

840:                                              ; preds = %839
  unreachable

841:                                              ; preds = %839
  %842 = landingpad { ptr, i32 }
          catch ptr null
  br label %843

843:                                              ; preds = %841, %822
  %844 = phi { ptr, i32 } [ %823, %822 ], [ %842, %841 ]
  %845 = extractvalue { ptr, i32 } %844, 0
  %846 = call ptr @__cxa_begin_catch(ptr %845) #19
  call void @_ZdlPv(ptr noundef nonnull %762) #20
  invoke void @__cxa_rethrow() #21
          to label %852 unwind label %847

847:                                              ; preds = %843
  %848 = landingpad { ptr, i32 }
          cleanup
  invoke void @__cxa_end_catch()
          to label %853 unwind label %849

849:                                              ; preds = %847
  %850 = landingpad { ptr, i32 }
          catch ptr null
  %851 = extractvalue { ptr, i32 } %850, 0
  call void @__clang_call_terminate(ptr %851) #22
  unreachable

852:                                              ; preds = %843
  unreachable

853:                                              ; preds = %847, %820
  %854 = phi { ptr, i32 } [ %821, %820 ], [ %848, %847 ]
  %855 = load ptr, ptr %614, align 8, !tbaa !55
  %856 = icmp eq ptr %855, null
  br i1 %856, label %858, label %857

857:                                              ; preds = %853
  call void @_ZdlPv(ptr noundef nonnull %855) #20
  br label %858

858:                                              ; preds = %857, %853
  call void @llvm.lifetime.end.p0(i64 48, ptr nonnull %12) #19
  br label %1005

859:                                              ; preds = %825, %859
  %860 = phi ptr [ %884, %859 ], [ %826, %825 ]
  %861 = phi i64 [ %890, %859 ], [ 0, %825 ]
  %862 = phi i64 [ %891, %859 ], [ 0, %825 ]
  %863 = getelementptr inbounds ptr, ptr %860, i64 %861
  %864 = load ptr, ptr %863, align 8, !tbaa !54
  %865 = getelementptr inbounds %"class.dealii::Vector.64", ptr %864, i64 0, i32 3
  %866 = load ptr, ptr %865, align 8, !tbaa !168
  %867 = getelementptr inbounds float, ptr %866, i64 %683
  %868 = load float, ptr %867, align 4, !tbaa !170
  %869 = call float @sqrtf(float noundef %868) #19
  %870 = load ptr, ptr %5, align 8, !tbaa !89
  %871 = getelementptr inbounds ptr, ptr %870, i64 %861
  %872 = load ptr, ptr %871, align 8, !tbaa !54
  %873 = getelementptr inbounds %"class.dealii::Vector.64", ptr %872, i64 0, i32 3
  %874 = load ptr, ptr %873, align 8, !tbaa !168
  %875 = getelementptr inbounds float, ptr %874, i64 %683
  store float %869, ptr %875, align 4, !tbaa !170
  %876 = or i64 %861, 1
  %877 = getelementptr inbounds ptr, ptr %870, i64 %876
  %878 = load ptr, ptr %877, align 8, !tbaa !54
  %879 = getelementptr inbounds %"class.dealii::Vector.64", ptr %878, i64 0, i32 3
  %880 = load ptr, ptr %879, align 8, !tbaa !168
  %881 = getelementptr inbounds float, ptr %880, i64 %683
  %882 = load float, ptr %881, align 4, !tbaa !170
  %883 = call float @sqrtf(float noundef %882) #19
  %884 = load ptr, ptr %5, align 8, !tbaa !89
  %885 = getelementptr inbounds ptr, ptr %884, i64 %876
  %886 = load ptr, ptr %885, align 8, !tbaa !54
  %887 = getelementptr inbounds %"class.dealii::Vector.64", ptr %886, i64 0, i32 3
  %888 = load ptr, ptr %887, align 8, !tbaa !168
  %889 = getelementptr inbounds float, ptr %888, i64 %683
  store float %883, ptr %889, align 4, !tbaa !170
  %890 = add nuw nsw i64 %861, 2
  %891 = add i64 %862, 2
  %892 = icmp eq i64 %891, %619
  br i1 %892, label %893, label %859

893:                                              ; preds = %859, %825
  %894 = phi ptr [ %826, %825 ], [ %884, %859 ]
  %895 = phi i64 [ 0, %825 ], [ %890, %859 ]
  br i1 %620, label %910, label %896

896:                                              ; preds = %893
  %897 = getelementptr inbounds ptr, ptr %894, i64 %895
  %898 = load ptr, ptr %897, align 8, !tbaa !54
  %899 = getelementptr inbounds %"class.dealii::Vector.64", ptr %898, i64 0, i32 3
  %900 = load ptr, ptr %899, align 8, !tbaa !168
  %901 = getelementptr inbounds float, ptr %900, i64 %683
  %902 = load float, ptr %901, align 4, !tbaa !170
  %903 = call float @sqrtf(float noundef %902) #19
  %904 = load ptr, ptr %5, align 8, !tbaa !89
  %905 = getelementptr inbounds ptr, ptr %904, i64 %895
  %906 = load ptr, ptr %905, align 8, !tbaa !54
  %907 = getelementptr inbounds %"class.dealii::Vector.64", ptr %906, i64 0, i32 3
  %908 = load ptr, ptr %907, align 8, !tbaa !168
  %909 = getelementptr inbounds float, ptr %908, i64 %683
  store float %903, ptr %909, align 4, !tbaa !170
  br label %910

910:                                              ; preds = %896, %893, %835, %824, %674, %679
  %911 = load ptr, ptr %612, align 8, !tbaa !115
  %912 = getelementptr inbounds %"class.dealii::Triangulation", ptr %911, i64 0, i32 1
  %913 = load ptr, ptr %912, align 8, !tbaa !116
  %914 = ptrtoint ptr %913 to i64
  %915 = getelementptr inbounds %"class.dealii::Triangulation", ptr %911, i64 0, i32 1, i32 0, i32 0, i32 0, i32 1
  %916 = load i32, ptr %23, align 8, !tbaa !118
  %917 = load i32, ptr %608, align 4
  br label %918

918:                                              ; preds = %987, %910
  %919 = phi i32 [ %916, %910 ], [ %967, %987 ]
  %920 = phi i32 [ %916, %910 ], [ %988, %987 ]
  %921 = phi i32 [ %917, %910 ], [ %968, %987 ]
  %922 = add nsw i32 %921, 1
  %923 = sext i32 %920 to i64
  %924 = getelementptr inbounds ptr, ptr %913, i64 %923
  %925 = load ptr, ptr %924, align 8, !tbaa !54
  %926 = getelementptr inbounds %"class.dealii::internal::Triangulation::TriaLevel", ptr %925, i64 0, i32 4
  %927 = getelementptr inbounds %"class.dealii::internal::Triangulation::TriaLevel", ptr %925, i64 0, i32 4, i32 0, i32 0, i32 0, i32 0, i32 0, i32 1
  %928 = load ptr, ptr %927, align 8, !tbaa !119
  %929 = load ptr, ptr %926, align 8, !tbaa !121
  %930 = ptrtoint ptr %928 to i64
  %931 = ptrtoint ptr %929 to i64
  %932 = sub i64 %930, %931
  %933 = sdiv exact i64 %932, 24
  %934 = trunc i64 %933 to i32
  %935 = icmp slt i32 %922, %934
  br i1 %935, label %966, label %936

936:                                              ; preds = %918
  %937 = add nsw i64 %923, 1
  %938 = trunc i64 %937 to i32
  store i32 %938, ptr %23, align 8, !tbaa !118
  %939 = load ptr, ptr %915, align 8, !tbaa !122
  %940 = ptrtoint ptr %939 to i64
  %941 = sub i64 %940, %914
  %942 = shl i64 %941, 29
  %943 = ashr i64 %942, 32
  %944 = icmp slt i64 %937, %943
  br i1 %944, label %945, label %963

945:                                              ; preds = %936, %959
  %946 = phi i64 [ %960, %959 ], [ %937, %936 ]
  %947 = getelementptr inbounds ptr, ptr %913, i64 %946
  %948 = load ptr, ptr %947, align 8, !tbaa !54
  %949 = getelementptr inbounds %"class.dealii::internal::Triangulation::TriaLevel", ptr %948, i64 0, i32 4
  %950 = getelementptr inbounds %"class.dealii::internal::Triangulation::TriaLevel", ptr %948, i64 0, i32 4, i32 0, i32 0, i32 0, i32 0, i32 0, i32 1
  %951 = load ptr, ptr %950, align 8, !tbaa !119
  %952 = load ptr, ptr %949, align 8, !tbaa !121
  %953 = ptrtoint ptr %951 to i64
  %954 = ptrtoint ptr %952 to i64
  %955 = sub i64 %953, %954
  %956 = sdiv exact i64 %955, 24
  %957 = trunc i64 %956 to i32
  %958 = icmp sgt i32 %957, 0
  br i1 %958, label %964, label %959

959:                                              ; preds = %945
  %960 = add i64 %946, 1
  %961 = trunc i64 %960 to i32
  store i32 %961, ptr %23, align 8, !tbaa !118
  %962 = icmp eq i64 %960, %943
  br i1 %962, label %963, label %945, !llvm.loop !123

963:                                              ; preds = %959, %936
  store i32 -1, ptr %23, align 8, !tbaa !118
  br label %966

964:                                              ; preds = %945
  %965 = trunc i64 %946 to i32
  br label %966

966:                                              ; preds = %964, %963, %918
  %967 = phi i32 [ %919, %918 ], [ -1, %963 ], [ %965, %964 ]
  %968 = phi i32 [ %922, %918 ], [ -1, %963 ], [ 0, %964 ]
  %969 = phi i32 [ %920, %918 ], [ -1, %963 ], [ %965, %964 ]
  %970 = or i32 %969, %968
  %971 = icmp sgt i32 %970, -1
  br i1 %971, label %972, label %989

972:                                              ; preds = %966
  %973 = zext i32 %969 to i64
  %974 = getelementptr inbounds ptr, ptr %913, i64 %973
  %975 = load ptr, ptr %974, align 8, !tbaa !54
  %976 = getelementptr inbounds %"class.dealii::internal::Triangulation::TriaLevel", ptr %975, i64 0, i32 4, i32 0, i32 3
  %977 = load ptr, ptr %976, align 8, !tbaa !99
  %978 = lshr i32 %968, 6
  %979 = zext i32 %978 to i64
  %980 = getelementptr inbounds i64, ptr %977, i64 %979
  %981 = and i32 %968, 63
  %982 = zext i32 %981 to i64
  %983 = shl nuw i64 1, %982
  %984 = load i64, ptr %980, align 8, !tbaa !125
  %985 = and i64 %984, %983
  %986 = icmp eq i64 %985, 0
  br i1 %986, label %987, label %989

987:                                              ; preds = %972, %992
  %988 = phi i32 [ %969, %972 ], [ %967, %992 ]
  br label %918

989:                                              ; preds = %972, %966
  store i32 %968, ptr %608, align 4, !tbaa !113
  %990 = or i32 %968, %967
  %991 = icmp sgt i32 %990, -1
  br i1 %991, label %992, label %1003

992:                                              ; preds = %989
  %993 = zext i32 %967 to i64
  %994 = getelementptr inbounds ptr, ptr %913, i64 %993
  %995 = load ptr, ptr %994, align 8, !tbaa !54
  %996 = getelementptr inbounds %"class.dealii::internal::Triangulation::TriaLevel", ptr %995, i64 0, i32 4, i32 0, i32 1
  %997 = shl i32 %968, 2
  %998 = zext i32 %997 to i64
  %999 = load ptr, ptr %996, align 8, !tbaa !126
  %1000 = getelementptr inbounds i32, ptr %999, i64 %998
  %1001 = load i32, ptr %1000, align 4, !tbaa !128
  %1002 = icmp eq i32 %1001, -1
  br i1 %1002, label %1003, label %987

1003:                                             ; preds = %992, %989
  %1004 = add i32 %655, 1
  br label %654

1005:                                             ; preds = %837, %818, %665, %667, %858, %669
  %1006 = phi { ptr, i32 } [ %670, %669 ], [ %854, %858 ], [ %666, %665 ], [ %668, %667 ], [ %838, %837 ], [ %819, %818 ]
  call void @llvm.lifetime.end.p0(i64 24, ptr nonnull %23) #19
  br label %1054

1007:                                             ; preds = %664
  call void @llvm.lifetime.end.p0(i64 96, ptr nonnull %19) #19
  %1008 = load ptr, ptr %18, align 8, !tbaa !145
  %1009 = icmp eq ptr %1008, %18
  br i1 %1009, label %1036, label %1010

1010:                                             ; preds = %1007, %1034
  %1011 = phi ptr [ %1012, %1034 ], [ %1008, %1007 ]
  %1012 = load ptr, ptr %1011, align 8, !tbaa !145
  %1013 = getelementptr inbounds %"struct.std::_List_node", ptr %1011, i64 0, i32 1, i32 0, i32 1
  %1014 = load ptr, ptr %1013, align 8, !tbaa !164
  %1015 = icmp eq ptr %1014, null
  br i1 %1015, label %1034, label %1016

1016:                                             ; preds = %1010
  %1017 = getelementptr inbounds %"class.boost::detail::sp_counted_base", ptr %1014, i64 0, i32 1
  %1018 = load i64, ptr %1017, align 8, !tbaa !159
  %1019 = add nsw i64 %1018, -1
  store i64 %1019, ptr %1017, align 8, !tbaa !159
  %1020 = icmp eq i64 %1019, 0
  br i1 %1020, label %1021, label %1034

1021:                                             ; preds = %1016
  %1022 = load ptr, ptr %1014, align 8, !tbaa !5
  %1023 = getelementptr inbounds ptr, ptr %1022, i64 2
  %1024 = load ptr, ptr %1023, align 8
  invoke void %1024(ptr noundef nonnull align 8 dereferenceable(24) %1014)
          to label %1025 unwind label %515

1025:                                             ; preds = %1021
  %1026 = getelementptr inbounds %"class.boost::detail::sp_counted_base", ptr %1014, i64 0, i32 2
  %1027 = load i64, ptr %1026, align 8, !tbaa !165
  %1028 = add nsw i64 %1027, -1
  store i64 %1028, ptr %1026, align 8, !tbaa !165
  %1029 = icmp eq i64 %1028, 0
  br i1 %1029, label %1030, label %1034

1030:                                             ; preds = %1025
  %1031 = load ptr, ptr %1014, align 8, !tbaa !5
  %1032 = getelementptr inbounds ptr, ptr %1031, i64 3
  %1033 = load ptr, ptr %1032, align 8
  invoke void %1033(ptr noundef nonnull align 8 dereferenceable(24) %1014)
          to label %1034 unwind label %515

1034:                                             ; preds = %1030, %1025, %1016, %1010
  call void @_ZdlPv(ptr noundef nonnull %1011) #20
  %1035 = icmp eq ptr %1012, %18
  br i1 %1035, label %1036, label %1010

1036:                                             ; preds = %1034, %1007
  call void @llvm.lifetime.end.p0(i64 24, ptr nonnull %18) #19
  %1037 = load ptr, ptr %128, align 8, !tbaa !110
  invoke void @_ZNSt8_Rb_treeIN6dealii12TriaIteratorINS0_11DoFAccessorILi2ENS0_10DoFHandlerILi3ELi3EEEEEEESt4pairIKS6_St6vectorIdSaIdEEESt10_Select1stISC_ESt4lessIS6_ESaISC_EE8_M_eraseEPSt13_Rb_tree_nodeISC_E(ptr noundef nonnull align 8 dereferenceable(48) %15, ptr noundef %1037)
          to label %1038 unwind label %162

1038:                                             ; preds = %1036
  call void @llvm.lifetime.end.p0(i64 48, ptr nonnull %15) #19
  %1039 = icmp eq ptr %125, null
  br i1 %1039, label %1041, label %1040

1040:                                             ; preds = %1038
  call void @_ZdlPv(ptr noundef nonnull %125) #20
  br label %1041

1041:                                             ; preds = %1040, %1038
  %1042 = load ptr, ptr %14, align 8, !tbaa !99
  %1043 = icmp eq ptr %1042, null
  br i1 %1043, label %1053, label %1044

1044:                                             ; preds = %1041
  %1045 = getelementptr inbounds %"struct.std::_Bvector_base<std::allocator<bool> >::_Bvector_impl_data", ptr %14, i64 0, i32 2
  %1046 = load ptr, ptr %1045, align 8, !tbaa !102
  %1047 = ptrtoint ptr %1046 to i64
  %1048 = ptrtoint ptr %1042 to i64
  %1049 = sub i64 %1047, %1048
  %1050 = ashr exact i64 %1049, 3
  %1051 = sub nsw i64 0, %1050
  %1052 = getelementptr inbounds i64, ptr %1046, i64 %1051
  call void @_ZdlPv(ptr noundef %1052) #20
  br label %1053

1053:                                             ; preds = %1041, %1044
  call void @llvm.lifetime.end.p0(i64 40, ptr nonnull %14) #19
  ret void

1054:                                             ; preds = %519, %521, %642, %644, %1005, %604, %595
  %1055 = phi { ptr, i32 } [ %596, %595 ], [ %605, %604 ], [ %1006, %1005 ], [ %645, %644 ], [ %643, %642 ], [ %520, %519 ], [ %522, %521 ]
  invoke void @_ZN6dealii2hp17MappingCollectionILi3ELi3EED2Ev(ptr noundef nonnull align 8 dereferenceable(96) %19)
          to label %1056 unwind label %1111

1056:                                             ; preds = %1054, %517
  %1057 = phi { ptr, i32 } [ %1055, %1054 ], [ %518, %517 ]
  call void @llvm.lifetime.end.p0(i64 96, ptr nonnull %19) #19
  %1058 = load ptr, ptr %18, align 8, !tbaa !145
  %1059 = icmp eq ptr %1058, %18
  br i1 %1059, label %1086, label %1060

1060:                                             ; preds = %1056, %1084
  %1061 = phi ptr [ %1062, %1084 ], [ %1058, %1056 ]
  %1062 = load ptr, ptr %1061, align 8, !tbaa !145
  %1063 = getelementptr inbounds %"struct.std::_List_node", ptr %1061, i64 0, i32 1, i32 0, i32 1
  %1064 = load ptr, ptr %1063, align 8, !tbaa !164
  %1065 = icmp eq ptr %1064, null
  br i1 %1065, label %1084, label %1066

1066:                                             ; preds = %1060
  %1067 = getelementptr inbounds %"class.boost::detail::sp_counted_base", ptr %1064, i64 0, i32 1
  %1068 = load i64, ptr %1067, align 8, !tbaa !159
  %1069 = add nsw i64 %1068, -1
  store i64 %1069, ptr %1067, align 8, !tbaa !159
  %1070 = icmp eq i64 %1069, 0
  br i1 %1070, label %1071, label %1084

1071:                                             ; preds = %1066
  %1072 = load ptr, ptr %1064, align 8, !tbaa !5
  %1073 = getelementptr inbounds ptr, ptr %1072, i64 2
  %1074 = load ptr, ptr %1073, align 8
  invoke void %1074(ptr noundef nonnull align 8 dereferenceable(24) %1064)
          to label %1075 unwind label %1109

1075:                                             ; preds = %1071
  %1076 = getelementptr inbounds %"class.boost::detail::sp_counted_base", ptr %1064, i64 0, i32 2
  %1077 = load i64, ptr %1076, align 8, !tbaa !165
  %1078 = add nsw i64 %1077, -1
  store i64 %1078, ptr %1076, align 8, !tbaa !165
  %1079 = icmp eq i64 %1078, 0
  br i1 %1079, label %1080, label %1084

1080:                                             ; preds = %1075
  %1081 = load ptr, ptr %1064, align 8, !tbaa !5
  %1082 = getelementptr inbounds ptr, ptr %1081, i64 3
  %1083 = load ptr, ptr %1082, align 8
  invoke void %1083(ptr noundef nonnull align 8 dereferenceable(24) %1064)
          to label %1084 unwind label %1109

1084:                                             ; preds = %1080, %1075, %1066, %1060
  call void @_ZdlPv(ptr noundef nonnull %1061) #20
  %1085 = icmp eq ptr %1062, %18
  br i1 %1085, label %1086, label %1060

1086:                                             ; preds = %1084, %1056, %515
  %1087 = phi { ptr, i32 } [ %516, %515 ], [ %1057, %1056 ], [ %1057, %1084 ]
  call void @llvm.lifetime.end.p0(i64 24, ptr nonnull %18) #19
  br label %1088

1088:                                             ; preds = %1086, %509, %507, %464
  %1089 = phi { ptr, i32 } [ %465, %464 ], [ %1087, %1086 ], [ %510, %509 ], [ %508, %507 ]
  %1090 = load ptr, ptr %128, align 8, !tbaa !110
  invoke void @_ZNSt8_Rb_treeIN6dealii12TriaIteratorINS0_11DoFAccessorILi2ENS0_10DoFHandlerILi3ELi3EEEEEEESt4pairIKS6_St6vectorIdSaIdEEESt10_Select1stISC_ESt4lessIS6_ESaISC_EE8_M_eraseEPSt13_Rb_tree_nodeISC_E(ptr noundef nonnull align 8 dereferenceable(48) %15, ptr noundef %1090)
          to label %1091 unwind label %1111

1091:                                             ; preds = %1088, %162
  %1092 = phi { ptr, i32 } [ %163, %162 ], [ %1089, %1088 ]
  call void @llvm.lifetime.end.p0(i64 48, ptr nonnull %15) #19
  %1093 = icmp eq ptr %125, null
  br i1 %1093, label %1095, label %1094

1094:                                             ; preds = %1091
  call void @_ZdlPv(ptr noundef nonnull %125) #20
  br label %1095

1095:                                             ; preds = %1094, %1091, %160
  %1096 = phi { ptr, i32 } [ %161, %160 ], [ %1092, %1091 ], [ %1092, %1094 ]
  %1097 = load ptr, ptr %14, align 8, !tbaa !99
  %1098 = icmp eq ptr %1097, null
  br i1 %1098, label %1108, label %1099

1099:                                             ; preds = %1095
  %1100 = getelementptr inbounds %"struct.std::_Bvector_base<std::allocator<bool> >::_Bvector_impl_data", ptr %14, i64 0, i32 2
  %1101 = load ptr, ptr %1100, align 8, !tbaa !102
  %1102 = ptrtoint ptr %1101 to i64
  %1103 = ptrtoint ptr %1097 to i64
  %1104 = sub i64 %1102, %1103
  %1105 = ashr exact i64 %1104, 3
  %1106 = sub nsw i64 0, %1105
  %1107 = getelementptr inbounds i64, ptr %1101, i64 %1106
  call void @_ZdlPv(ptr noundef %1107) #20
  br label %1108

1108:                                             ; preds = %1099, %1095
  call void @llvm.lifetime.end.p0(i64 40, ptr nonnull %14) #19
  resume { ptr, i32 } %1096

1109:                                             ; preds = %1071, %1080
  %1110 = landingpad { ptr, i32 }
          catch ptr null
  br label %1113

1111:                                             ; preds = %585, %1054, %594, %1088
  %1112 = landingpad { ptr, i32 }
          catch ptr null
  br label %1113

1113:                                             ; preds = %1111, %1109
  %1114 = phi { ptr, i32 } [ %1110, %1109 ], [ %1112, %1111 ]
  %1115 = extractvalue { ptr, i32 } %1114, 0
  call void @__clang_call_terminate(ptr %1115) #22
  unreachable
}

; Function Attrs: inlinehint sspstrong uwtable
define linkonce_odr dso_local void @_ZN6dealii2hp11QCollectionILi2EEC2ERKNS_10QuadratureILi2EEE(ptr noundef nonnull align 8 dereferenceable(96) %0, ptr noundef nonnull align 8 dereferenceable(128) %1) unnamed_addr #4 comdat align 2 personality ptr @__gxx_personality_v0 {
  %3 = alloca %"class.boost::shared_ptr.252", align 8
  tail call void @_ZN6dealii11SubscriptorC2Ev(ptr noundef nonnull align 8 dereferenceable(72) %0)
  store ptr getelementptr inbounds ({ [4 x ptr] }, ptr @_ZTVN6dealii2hp11QCollectionILi2EEE, i64 0, inrange i32 0, i64 2), ptr %0, align 8, !tbaa !5
  %4 = getelementptr inbounds %"class.dealii::hp::QCollection", ptr %0, i64 0, i32 1
  tail call void @llvm.memset.p0.i64(ptr noundef nonnull align 8 dereferenceable(24) %4, i8 0, i64 24, i1 false)
  call void @llvm.lifetime.start.p0(i64 16, ptr nonnull %3) #19
  %5 = invoke noalias noundef nonnull dereferenceable(128) ptr @_Znwm(i64 noundef 128) #23
          to label %6 unwind label %59

6:                                                ; preds = %2
  invoke void @_ZN6dealii10QuadratureILi2EEC1ERKS1_(ptr noundef nonnull align 8 dereferenceable(128) %5, ptr noundef nonnull align 8 dereferenceable(128) %1)
          to label %7 unwind label %61

7:                                                ; preds = %6
  store ptr %5, ptr %3, align 8, !tbaa !140
  %8 = getelementptr inbounds %"class.boost::shared_ptr.252", ptr %3, i64 0, i32 1
  %9 = invoke noalias noundef nonnull dereferenceable(32) ptr @_Znwm(i64 noundef 32) #23
          to label %24 unwind label %10

10:                                               ; preds = %7
  %11 = landingpad { ptr, i32 }
          catch ptr null
  %12 = extractvalue { ptr, i32 } %11, 0
  %13 = tail call ptr @__cxa_begin_catch(ptr %12) #19
  %14 = load ptr, ptr %5, align 8, !tbaa !5
  %15 = getelementptr inbounds ptr, ptr %14, i64 1
  %16 = load ptr, ptr %15, align 8
  invoke void %16(ptr noundef nonnull align 8 dereferenceable(128) %5)
          to label %17 unwind label %18

17:                                               ; preds = %10
  invoke void @__cxa_rethrow() #21
          to label %23 unwind label %18

18:                                               ; preds = %17, %10
  %19 = landingpad { ptr, i32 }
          cleanup
  invoke void @__cxa_end_catch()
          to label %65 unwind label %20

20:                                               ; preds = %18
  %21 = landingpad { ptr, i32 }
          catch ptr null
  %22 = extractvalue { ptr, i32 } %21, 0
  tail call void @__clang_call_terminate(ptr %22) #22
  unreachable

23:                                               ; preds = %17
  unreachable

24:                                               ; preds = %7
  %25 = getelementptr inbounds %"class.boost::detail::sp_counted_base", ptr %9, i64 0, i32 1
  store i64 1, ptr %25, align 8, !tbaa !159
  %26 = getelementptr inbounds %"class.boost::detail::sp_counted_base", ptr %9, i64 0, i32 2
  store i64 1, ptr %26, align 8, !tbaa !165
  store ptr getelementptr inbounds ({ [7 x ptr] }, ptr @_ZTVN5boost6detail17sp_counted_impl_pIN6dealii10QuadratureILi2EEEEE, i64 0, inrange i32 0, i64 2), ptr %9, align 8, !tbaa !5
  %27 = getelementptr inbounds %"class.boost::detail::sp_counted_impl_p", ptr %9, i64 0, i32 1
  store ptr %5, ptr %27, align 8, !tbaa !175
  store ptr %9, ptr %8, align 8, !tbaa !164
  %28 = getelementptr inbounds %"class.dealii::hp::QCollection", ptr %0, i64 0, i32 1, i32 0, i32 0, i32 0, i32 1
  %29 = load ptr, ptr %28, align 8, !tbaa !54
  %30 = getelementptr inbounds %"class.dealii::hp::QCollection", ptr %0, i64 0, i32 1, i32 0, i32 0, i32 0, i32 2
  %31 = load ptr, ptr %30, align 8, !tbaa !177
  %32 = icmp eq ptr %29, %31
  br i1 %32, label %36, label %33

33:                                               ; preds = %24
  store ptr %5, ptr %29, align 8, !tbaa !140
  %34 = getelementptr inbounds %"class.boost::shared_ptr.252", ptr %29, i64 0, i32 1
  store ptr %9, ptr %34, align 8, !tbaa !164
  store i64 2, ptr %25, align 8, !tbaa !159
  %35 = getelementptr inbounds %"class.boost::shared_ptr.252", ptr %29, i64 1
  store ptr %35, ptr %28, align 8, !tbaa !137
  br label %37

36:                                               ; preds = %24
  invoke void @_ZNSt6vectorIN5boost10shared_ptrIKN6dealii10QuadratureILi2EEEEESaIS6_EE17_M_realloc_insertEN9__gnu_cxx17__normal_iteratorIPS6_S8_EERKS6_(ptr noundef nonnull align 8 dereferenceable(24) %4, ptr %29, ptr noundef nonnull align 8 dereferenceable(16) %3)
          to label %37 unwind label %63

37:                                               ; preds = %33, %36
  %38 = load ptr, ptr %8, align 8, !tbaa !164
  %39 = icmp eq ptr %38, null
  br i1 %39, label %58, label %40

40:                                               ; preds = %37
  %41 = getelementptr inbounds %"class.boost::detail::sp_counted_base", ptr %38, i64 0, i32 1
  %42 = load i64, ptr %41, align 8, !tbaa !159
  %43 = add nsw i64 %42, -1
  store i64 %43, ptr %41, align 8, !tbaa !159
  %44 = icmp eq i64 %43, 0
  br i1 %44, label %45, label %58

45:                                               ; preds = %40
  %46 = load ptr, ptr %38, align 8, !tbaa !5
  %47 = getelementptr inbounds ptr, ptr %46, i64 2
  %48 = load ptr, ptr %47, align 8
  invoke void %48(ptr noundef nonnull align 8 dereferenceable(24) %38)
          to label %49 unwind label %59

49:                                               ; preds = %45
  %50 = getelementptr inbounds %"class.boost::detail::sp_counted_base", ptr %38, i64 0, i32 2
  %51 = load i64, ptr %50, align 8, !tbaa !165
  %52 = add nsw i64 %51, -1
  store i64 %52, ptr %50, align 8, !tbaa !165
  %53 = icmp eq i64 %52, 0
  br i1 %53, label %54, label %58

54:                                               ; preds = %49
  %55 = load ptr, ptr %38, align 8, !tbaa !5
  %56 = getelementptr inbounds ptr, ptr %55, i64 3
  %57 = load ptr, ptr %56, align 8
  invoke void %57(ptr noundef nonnull align 8 dereferenceable(24) %38)
          to label %58 unwind label %59

58:                                               ; preds = %49, %40, %37, %54
  call void @llvm.lifetime.end.p0(i64 16, ptr nonnull %3) #19
  ret void

59:                                               ; preds = %54, %45, %2
  %60 = landingpad { ptr, i32 }
          cleanup
  br label %65

61:                                               ; preds = %6
  %62 = landingpad { ptr, i32 }
          cleanup
  tail call void @_ZdlPv(ptr noundef nonnull %5) #20
  br label %65

63:                                               ; preds = %36
  %64 = landingpad { ptr, i32 }
          cleanup
  invoke void @_ZN5boost10shared_ptrIKN6dealii10QuadratureILi2EEEED2Ev(ptr noundef nonnull align 8 dereferenceable(16) %3)
          to label %65 unwind label %69

65:                                               ; preds = %59, %18, %63, %61
  %66 = phi { ptr, i32 } [ %64, %63 ], [ %62, %61 ], [ %60, %59 ], [ %19, %18 ]
  call void @llvm.lifetime.end.p0(i64 16, ptr nonnull %3) #19
  invoke void @_ZNSt6vectorIN5boost10shared_ptrIKN6dealii10QuadratureILi2EEEEESaIS6_EED2Ev(ptr noundef nonnull align 8 dereferenceable(24) %4)
          to label %67 unwind label %69

67:                                               ; preds = %65
  invoke void @_ZN6dealii11SubscriptorD2Ev(ptr noundef nonnull align 8 dereferenceable(72) %0)
          to label %68 unwind label %69

68:                                               ; preds = %67
  resume { ptr, i32 } %66

69:                                               ; preds = %67, %65, %63
  %70 = landingpad { ptr, i32 }
          catch ptr null
  %71 = extractvalue { ptr, i32 } %70, 0
  call void @__clang_call_terminate(ptr %71) #22
  unreachable
}

; Function Attrs: inlinehint sspstrong uwtable
define linkonce_odr dso_local void @_ZN6dealii2hp11QCollectionILi2EED2Ev(ptr noundef nonnull align 8 dereferenceable(96) %0) unnamed_addr #4 comdat align 2 personality ptr @__gxx_personality_v0 {
  store ptr getelementptr inbounds ({ [4 x ptr] }, ptr @_ZTVN6dealii2hp11QCollectionILi2EEE, i64 0, inrange i32 0, i64 2), ptr %0, align 8, !tbaa !5
  %2 = getelementptr inbounds %"class.dealii::hp::QCollection", ptr %0, i64 0, i32 1
  %3 = load ptr, ptr %2, align 8, !tbaa !139
  %4 = getelementptr inbounds %"class.dealii::hp::QCollection", ptr %0, i64 0, i32 1, i32 0, i32 0, i32 0, i32 1
  %5 = load ptr, ptr %4, align 8, !tbaa !137
  %6 = icmp eq ptr %3, %5
  br i1 %6, label %35, label %7

7:                                                ; preds = %1, %30
  %8 = phi ptr [ %31, %30 ], [ %3, %1 ]
  %9 = getelementptr inbounds %"class.boost::shared_ptr.252", ptr %8, i64 0, i32 1
  %10 = load ptr, ptr %9, align 8, !tbaa !164
  %11 = icmp eq ptr %10, null
  br i1 %11, label %30, label %12

12:                                               ; preds = %7
  %13 = getelementptr inbounds %"class.boost::detail::sp_counted_base", ptr %10, i64 0, i32 1
  %14 = load i64, ptr %13, align 8, !tbaa !159
  %15 = add nsw i64 %14, -1
  store i64 %15, ptr %13, align 8, !tbaa !159
  %16 = icmp eq i64 %15, 0
  br i1 %16, label %17, label %30

17:                                               ; preds = %12
  %18 = load ptr, ptr %10, align 8, !tbaa !5
  %19 = getelementptr inbounds ptr, ptr %18, i64 2
  %20 = load ptr, ptr %19, align 8
  invoke void %20(ptr noundef nonnull align 8 dereferenceable(24) %10)
          to label %21 unwind label %39

21:                                               ; preds = %17
  %22 = getelementptr inbounds %"class.boost::detail::sp_counted_base", ptr %10, i64 0, i32 2
  %23 = load i64, ptr %22, align 8, !tbaa !165
  %24 = add nsw i64 %23, -1
  store i64 %24, ptr %22, align 8, !tbaa !165
  %25 = icmp eq i64 %24, 0
  br i1 %25, label %26, label %30

26:                                               ; preds = %21
  %27 = load ptr, ptr %10, align 8, !tbaa !5
  %28 = getelementptr inbounds ptr, ptr %27, i64 3
  %29 = load ptr, ptr %28, align 8
  invoke void %29(ptr noundef nonnull align 8 dereferenceable(24) %10)
          to label %30 unwind label %39

30:                                               ; preds = %26, %21, %12, %7
  %31 = getelementptr inbounds %"class.boost::shared_ptr.252", ptr %8, i64 1
  %32 = icmp eq ptr %31, %5
  br i1 %32, label %33, label %7

33:                                               ; preds = %30
  %34 = load ptr, ptr %2, align 8, !tbaa !139
  br label %35

35:                                               ; preds = %33, %1
  %36 = phi ptr [ %34, %33 ], [ %3, %1 ]
  %37 = icmp eq ptr %36, null
  br i1 %37, label %44, label %38

38:                                               ; preds = %35
  tail call void @_ZdlPv(ptr noundef nonnull %36) #20
  br label %44

39:                                               ; preds = %26, %17
  %40 = landingpad { ptr, i32 }
          cleanup
  %41 = load ptr, ptr %2, align 8, !tbaa !139
  %42 = icmp eq ptr %41, null
  br i1 %42, label %45, label %43

43:                                               ; preds = %39
  tail call void @_ZdlPv(ptr noundef nonnull %41) #20
  br label %45

44:                                               ; preds = %38, %35
  tail call void @_ZN6dealii11SubscriptorD2Ev(ptr noundef nonnull align 8 dereferenceable(72) %0)
  ret void

45:                                               ; preds = %39, %43
  invoke void @_ZN6dealii11SubscriptorD2Ev(ptr noundef nonnull align 8 dereferenceable(72) %0)
          to label %46 unwind label %47

46:                                               ; preds = %45
  resume { ptr, i32 } %40

47:                                               ; preds = %45
  %48 = landingpad { ptr, i32 }
          catch ptr null
  %49 = extractvalue { ptr, i32 } %48, 0
  tail call void @__clang_call_terminate(ptr %49) #22
  unreachable
}

; Function Attrs: sspstrong uwtable
define weak_odr dso_local void @_ZN6dealii19KellyErrorEstimatorILi3ELi3EE8estimateINS_6VectorIdEENS_10DoFHandlerILi3ELi3EEEEEvRKT0_RKNS_10QuadratureILi2EEERKSt3mapIhPKNS_8FunctionILi3EEESt4lessIhESaISt4pairIKhSI_EEERKSt6vectorIPKT_SaISV_EERSS_IPNS3_IfEESaIS11_EERKSS_IbSaIbEESI_jjj(ptr noundef nonnull align 8 dereferenceable(168) %0, ptr noundef nonnull align 8 dereferenceable(128) %1, ptr noundef nonnull align 1 %2, ptr noundef nonnull align 8 dereferenceable(24) %3, ptr noundef nonnull align 8 dereferenceable(24) %4, ptr noundef nonnull align 8 dereferenceable(40) %5, ptr noundef %6, i32 noundef %7, i32 noundef %8, i32 noundef %9) local_unnamed_addr #0 comdat align 2 personality ptr @__gxx_personality_v0 {
  %11 = alloca %"class.dealii::hp::QCollection", align 8
  call void @llvm.lifetime.start.p0(i64 96, ptr nonnull %11) #19
  call void @_ZN6dealii2hp11QCollectionILi2EEC2ERKNS_10QuadratureILi2EEE(ptr noundef nonnull align 8 dereferenceable(96) %11, ptr noundef nonnull align 8 dereferenceable(128) %1)
  invoke void @_ZN6dealii19KellyErrorEstimatorILi3ELi3EE8estimateINS_6VectorIdEENS_10DoFHandlerILi3ELi3EEEEEvRKNS_7MappingILi3ELi3EEERKT0_RKNS_2hp11QCollectionILi2EEERKSt3mapIhPKNS_8FunctionILi3EEESt4lessIhESaISt4pairIKhSN_EEERKSt6vectorIPKT_SaIS10_EERSX_IPNS3_IfEESaIS16_EERKSX_IbSaIbEESN_jjj(ptr noundef nonnull align 8 dereferenceable(72) @_ZN6dealii15StaticMappingQ1ILi3ELi3EE7mappingE, ptr noundef nonnull align 8 dereferenceable(168) %0, ptr noundef nonnull align 8 dereferenceable(96) %11, ptr noundef nonnull align 1 %2, ptr noundef nonnull align 8 dereferenceable(24) %3, ptr noundef nonnull align 8 dereferenceable(24) %4, ptr noundef nonnull align 8 dereferenceable(40) %5, ptr noundef %6, i32 noundef %7, i32 noundef %8, i32 noundef %9)
          to label %18 unwind label %12

12:                                               ; preds = %10
  %13 = landingpad { ptr, i32 }
          cleanup
  invoke void @_ZN6dealii2hp11QCollectionILi2EED2Ev(ptr noundef nonnull align 8 dereferenceable(96) %11)
          to label %14 unwind label %15

14:                                               ; preds = %12
  call void @llvm.lifetime.end.p0(i64 96, ptr nonnull %11) #19
  resume { ptr, i32 } %13

15:                                               ; preds = %12
  %16 = landingpad { ptr, i32 }
          catch ptr null
  %17 = extractvalue { ptr, i32 } %16, 0
  call void @__clang_call_terminate(ptr %17) #22
  unreachable

18:                                               ; preds = %10
  call void @_ZN6dealii2hp11QCollectionILi2EED2Ev(ptr noundef nonnull align 8 dereferenceable(96) %11)
  call void @llvm.lifetime.end.p0(i64 96, ptr nonnull %11) #19
  ret void
}

; Function Attrs: sspstrong uwtable
define weak_odr dso_local void @_ZN6dealii19KellyErrorEstimatorILi3ELi3EE8estimateINS_6VectorIdEENS_10DoFHandlerILi3ELi3EEEEEvRKNS_7MappingILi3ELi3EEERKT0_RKNS_2hp11QCollectionILi2EEERKSt3mapIhPKNS_8FunctionILi3EEESt4lessIhESaISt4pairIKhSN_EEERKT_RNS3_IfEERKSt6vectorIbSaIbEESN_jjj(ptr noundef nonnull align 8 dereferenceable(72) %0, ptr noundef nonnull align 8 dereferenceable(168) %1, ptr noundef nonnull align 8 dereferenceable(96) %2, ptr noundef nonnull align 1 %3, ptr noundef nonnull align 8 dereferenceable(88) %4, ptr noundef nonnull align 8 dereferenceable(88) %5, ptr noundef nonnull align 8 dereferenceable(40) %6, ptr noundef %7, i32 noundef %8, i32 noundef %9, i32 noundef %10) local_unnamed_addr #0 comdat align 2 personality ptr @__gxx_personality_v0 {
  %12 = alloca %"class.std::vector.54", align 8
  %13 = alloca %"class.std::vector.59", align 8
  call void @llvm.lifetime.start.p0(i64 24, ptr nonnull %12) #19
  %14 = tail call noalias noundef nonnull dereferenceable(8) ptr @_Znwm(i64 noundef 8) #23
  store ptr %14, ptr %12, align 8, !tbaa !85
  %15 = getelementptr inbounds %"struct.std::_Vector_base<const dealii::Vector<double> *, std::allocator<const dealii::Vector<double> *> >::_Vector_impl_data", ptr %12, i64 0, i32 1
  %16 = getelementptr inbounds ptr, ptr %14, i64 1
  %17 = getelementptr inbounds %"struct.std::_Vector_base<const dealii::Vector<double> *, std::allocator<const dealii::Vector<double> *> >::_Vector_impl_data", ptr %12, i64 0, i32 2
  store ptr %16, ptr %17, align 8, !tbaa !87
  store ptr %4, ptr %14, align 8, !tbaa !54
  store ptr %16, ptr %15, align 8, !tbaa !88
  call void @llvm.lifetime.start.p0(i64 24, ptr nonnull %13) #19
  %18 = invoke noalias noundef nonnull dereferenceable(8) ptr @_Znwm(i64 noundef 8) #23
          to label %19 unwind label %32

19:                                               ; preds = %11
  store ptr %18, ptr %13, align 8, !tbaa !89
  %20 = getelementptr inbounds %"struct.std::_Vector_base<dealii::Vector<float> *, std::allocator<dealii::Vector<float> *> >::_Vector_impl_data", ptr %13, i64 0, i32 1
  %21 = getelementptr inbounds ptr, ptr %18, i64 1
  %22 = getelementptr inbounds %"struct.std::_Vector_base<dealii::Vector<float> *, std::allocator<dealii::Vector<float> *> >::_Vector_impl_data", ptr %13, i64 0, i32 2
  store ptr %21, ptr %22, align 8, !tbaa !91
  store ptr %5, ptr %18, align 8, !tbaa !54
  store ptr %21, ptr %20, align 8, !tbaa !92
  invoke void @_ZN6dealii19KellyErrorEstimatorILi3ELi3EE8estimateINS_6VectorIdEENS_10DoFHandlerILi3ELi3EEEEEvRKNS_7MappingILi3ELi3EEERKT0_RKNS_2hp11QCollectionILi2EEERKSt3mapIhPKNS_8FunctionILi3EEESt4lessIhESaISt4pairIKhSN_EEERKSt6vectorIPKT_SaIS10_EERSX_IPNS3_IfEESaIS16_EERKSX_IbSaIbEESN_jjj(ptr noundef nonnull align 8 dereferenceable(72) %0, ptr noundef nonnull align 8 dereferenceable(168) %1, ptr noundef nonnull align 8 dereferenceable(96) %2, ptr noundef nonnull align 1 %3, ptr noundef nonnull align 8 dereferenceable(24) %12, ptr noundef nonnull align 8 dereferenceable(24) %13, ptr noundef nonnull align 8 dereferenceable(40) %6, ptr noundef %7, i32 noundef %8, i32 noundef %9, i32 noundef %10)
          to label %23 unwind label %34

23:                                               ; preds = %19
  %24 = load ptr, ptr %13, align 8, !tbaa !89
  %25 = icmp eq ptr %24, null
  br i1 %25, label %27, label %26

26:                                               ; preds = %23
  call void @_ZdlPv(ptr noundef nonnull %24) #20
  br label %27

27:                                               ; preds = %26, %23
  call void @llvm.lifetime.end.p0(i64 24, ptr nonnull %13) #19
  %28 = load ptr, ptr %12, align 8, !tbaa !85
  %29 = icmp eq ptr %28, null
  br i1 %29, label %31, label %30

30:                                               ; preds = %27
  call void @_ZdlPv(ptr noundef nonnull %28) #20
  br label %31

31:                                               ; preds = %27, %30
  call void @llvm.lifetime.end.p0(i64 24, ptr nonnull %12) #19
  ret void

32:                                               ; preds = %11
  %33 = landingpad { ptr, i32 }
          cleanup
  br label %39

34:                                               ; preds = %19
  %35 = landingpad { ptr, i32 }
          cleanup
  %36 = load ptr, ptr %13, align 8, !tbaa !89
  %37 = icmp eq ptr %36, null
  br i1 %37, label %39, label %38

38:                                               ; preds = %34
  call void @_ZdlPv(ptr noundef nonnull %36) #20
  br label %39

39:                                               ; preds = %38, %34, %32
  %40 = phi { ptr, i32 } [ %33, %32 ], [ %35, %34 ], [ %35, %38 ]
  call void @llvm.lifetime.end.p0(i64 24, ptr nonnull %13) #19
  %41 = load ptr, ptr %12, align 8, !tbaa !85
  %42 = icmp eq ptr %41, null
  br i1 %42, label %44, label %43

43:                                               ; preds = %39
  call void @_ZdlPv(ptr noundef nonnull %41) #20
  br label %44

44:                                               ; preds = %43, %39
  call void @llvm.lifetime.end.p0(i64 24, ptr nonnull %12) #19
  resume { ptr, i32 } %40
}

; Function Attrs: sspstrong uwtable
define weak_odr dso_local void @_ZN6dealii19KellyErrorEstimatorILi3ELi3EE8estimateINS_6VectorIdEENS_10DoFHandlerILi3ELi3EEEEEvRKT0_RKNS_2hp11QCollectionILi2EEERKSt3mapIhPKNS_8FunctionILi3EEESt4lessIhESaISt4pairIKhSJ_EEERKT_RNS3_IfEERKSt6vectorIbSaIbEESJ_jjj(ptr noundef nonnull align 8 dereferenceable(168) %0, ptr noundef nonnull align 8 dereferenceable(96) %1, ptr noundef nonnull align 1 %2, ptr noundef nonnull align 8 dereferenceable(88) %3, ptr noundef nonnull align 8 dereferenceable(88) %4, ptr noundef nonnull align 8 dereferenceable(40) %5, ptr noundef %6, i32 noundef %7, i32 noundef %8, i32 noundef %9) local_unnamed_addr #0 comdat align 2 {
  tail call void @_ZN6dealii19KellyErrorEstimatorILi3ELi3EE8estimateINS_6VectorIdEENS_10DoFHandlerILi3ELi3EEEEEvRKNS_7MappingILi3ELi3EEERKT0_RKNS_2hp11QCollectionILi2EEERKSt3mapIhPKNS_8FunctionILi3EEESt4lessIhESaISt4pairIKhSN_EEERKT_RNS3_IfEERKSt6vectorIbSaIbEESN_jjj(ptr noundef nonnull align 8 dereferenceable(72) @_ZN6dealii15StaticMappingQ1ILi3ELi3EE7mappingE, ptr noundef nonnull align 8 dereferenceable(168) %0, ptr noundef nonnull align 8 dereferenceable(96) %1, ptr noundef nonnull align 1 %2, ptr noundef nonnull align 8 dereferenceable(88) %3, ptr noundef nonnull align 8 dereferenceable(88) %4, ptr noundef nonnull align 8 dereferenceable(40) %5, ptr noundef %6, i32 noundef %7, i32 noundef %8, i32 noundef %9)
  ret void
}

; Function Attrs: sspstrong uwtable
define linkonce_odr dso_local void @_ZNSt6vectorIbSaIbEEC2ERKS1_(ptr noundef nonnull align 8 dereferenceable(40) %0, ptr noundef nonnull align 8 dereferenceable(40) %1) unnamed_addr #0 comdat align 2 personality ptr @__gxx_personality_v0 {
  store ptr null, ptr %0, align 8, !tbaa !99
  %3 = getelementptr inbounds %"struct.std::_Bit_iterator_base", ptr %0, i64 0, i32 1
  store i32 0, ptr %3, align 8, !tbaa !101
  %4 = getelementptr inbounds %"struct.std::_Bvector_base<std::allocator<bool> >::_Bvector_impl_data", ptr %0, i64 0, i32 1
  store ptr null, ptr %4, align 8, !tbaa !99
  %5 = getelementptr inbounds %"struct.std::_Bvector_base<std::allocator<bool> >::_Bvector_impl_data", ptr %0, i64 0, i32 1, i32 0, i32 1
  store i32 0, ptr %5, align 8, !tbaa !101
  %6 = getelementptr inbounds %"struct.std::_Bvector_base<std::allocator<bool> >::_Bvector_impl_data", ptr %0, i64 0, i32 2
  store ptr null, ptr %6, align 8, !tbaa !102
  %7 = load ptr, ptr %1, align 8, !tbaa !99
  %8 = getelementptr inbounds %"struct.std::_Bvector_base<std::allocator<bool> >::_Bvector_impl_data", ptr %1, i64 0, i32 1
  %9 = load ptr, ptr %8, align 8, !tbaa !99
  %10 = getelementptr inbounds %"struct.std::_Bvector_base<std::allocator<bool> >::_Bvector_impl_data", ptr %1, i64 0, i32 1, i32 0, i32 1
  %11 = load i32, ptr %10, align 8, !tbaa !101
  %12 = ptrtoint ptr %9 to i64
  %13 = ptrtoint ptr %7 to i64
  %14 = sub i64 %12, %13
  %15 = shl nsw i64 %14, 3
  %16 = zext i32 %11 to i64
  %17 = add nsw i64 %15, %16
  %18 = icmp eq i64 %17, 0
  br i1 %18, label %36, label %19

19:                                               ; preds = %2
  %20 = add i64 %17, 63
  %21 = lshr i64 %20, 3
  %22 = and i64 %21, 2305843009213693944
  %23 = invoke noalias noundef nonnull ptr @_Znwm(i64 noundef %22) #23
          to label %24 unwind label %84

24:                                               ; preds = %19
  %25 = lshr i64 %20, 6
  %26 = getelementptr inbounds i64, ptr %23, i64 %25
  store ptr %26, ptr %6, align 8, !tbaa !102
  store ptr %23, ptr %0, align 8
  store i32 0, ptr %3, align 8
  %27 = sdiv i64 %17, 64
  %28 = getelementptr inbounds i64, ptr %23, i64 %27
  %29 = srem i64 %17, 64
  %30 = icmp slt i64 %29, 0
  %31 = add nsw i64 %29, 64
  %32 = ashr i64 %29, 63
  %33 = getelementptr inbounds i64, ptr %28, i64 %32
  %34 = select i1 %30, i64 %31, i64 %29
  %35 = trunc i64 %34 to i32
  store ptr %33, ptr %4, align 8
  store i32 %35, ptr %5, align 8
  br label %36

36:                                               ; preds = %2, %24
  %37 = phi ptr [ null, %2 ], [ %23, %24 ]
  %38 = icmp sgt i64 %14, 8
  br i1 %38, label %39, label %40, !prof !136

39:                                               ; preds = %36
  tail call void @llvm.memmove.p0.p0.i64(ptr align 8 %37, ptr align 8 %7, i64 %14, i1 false)
  br label %44

40:                                               ; preds = %36
  %41 = icmp eq i64 %14, 8
  br i1 %41, label %42, label %44

42:                                               ; preds = %40
  %43 = load i64, ptr %7, align 8, !tbaa !125
  store i64 %43, ptr %37, align 8, !tbaa !125
  br label %44

44:                                               ; preds = %42, %40, %39
  %45 = icmp eq i32 %11, 0
  br i1 %45, label %83, label %46

46:                                               ; preds = %44
  %47 = ashr exact i64 %14, 3
  %48 = getelementptr inbounds i64, ptr %37, i64 %47
  br label %49

49:                                               ; preds = %46, %69
  %50 = phi i64 [ %81, %69 ], [ %16, %46 ]
  %51 = phi i32 [ %75, %69 ], [ 0, %46 ]
  %52 = phi ptr [ %74, %69 ], [ %9, %46 ]
  %53 = phi ptr [ %80, %69 ], [ %48, %46 ]
  %54 = phi i32 [ %78, %69 ], [ 0, %46 ]
  %55 = zext i32 %51 to i64
  %56 = shl nuw i64 1, %55
  %57 = load i64, ptr %52, align 8, !tbaa !125
  %58 = and i64 %57, %56
  %59 = icmp eq i64 %58, 0
  %60 = zext i32 %54 to i64
  %61 = shl nuw i64 1, %60
  br i1 %59, label %65, label %62

62:                                               ; preds = %49
  %63 = load i64, ptr %53, align 8, !tbaa !125
  %64 = or i64 %63, %61
  br label %69

65:                                               ; preds = %49
  %66 = xor i64 %61, -1
  %67 = load i64, ptr %53, align 8, !tbaa !125
  %68 = and i64 %67, %66
  br label %69

69:                                               ; preds = %65, %62
  %70 = phi i64 [ %68, %65 ], [ %64, %62 ]
  store i64 %70, ptr %53, align 8, !tbaa !125
  %71 = add i32 %51, 1
  %72 = icmp eq i32 %51, 63
  %73 = zext i1 %72 to i64
  %74 = getelementptr inbounds i64, ptr %52, i64 %73
  %75 = select i1 %72, i32 0, i32 %71
  %76 = add i32 %54, 1
  %77 = icmp eq i32 %54, 63
  %78 = select i1 %77, i32 0, i32 %76
  %79 = zext i1 %77 to i64
  %80 = getelementptr inbounds i64, ptr %53, i64 %79
  %81 = add nsw i64 %50, -1
  %82 = icmp sgt i64 %50, 1
  br i1 %82, label %49, label %83

83:                                               ; preds = %69, %44
  ret void

84:                                               ; preds = %19
  %85 = landingpad { ptr, i32 }
          cleanup
  invoke void @_ZNSt13_Bvector_baseISaIbEED2Ev(ptr noundef nonnull align 8 dereferenceable(40) %0)
          to label %86 unwind label %87

86:                                               ; preds = %84
  resume { ptr, i32 } %85

87:                                               ; preds = %84
  %88 = landingpad { ptr, i32 }
          catch ptr null
  %89 = extractvalue { ptr, i32 } %88, 0
  tail call void @__clang_call_terminate(ptr %89) #22
  unreachable
}

declare void @_ZNK6dealii10DoFHandlerILi3ELi3EE12begin_activeEj(ptr sret(%"class.dealii::TriaActiveIterator") align 8, ptr noundef nonnull align 8 dereferenceable(168), i32 noundef) local_unnamed_addr #1

declare void @_ZNK6dealii10DoFHandlerILi3ELi3EE3endEv(ptr sret(%"class.dealii::TriaRawIterator") align 8, ptr noundef nonnull align 8 dereferenceable(168)) local_unnamed_addr #1

; Function Attrs: sspstrong uwtable
define linkonce_odr dso_local noundef nonnull align 8 dereferenceable(24) ptr @_ZNSt3mapIN6dealii12TriaIteratorINS0_11DoFAccessorILi2ENS0_10DoFHandlerILi3ELi3EEEEEEESt6vectorIdSaIdEESt4lessIS6_ESaISt4pairIKS6_S9_EEEixERSD_(ptr noundef nonnull align 8 dereferenceable(48) %0, ptr noundef nonnull align 8 dereferenceable(24) %1) local_unnamed_addr #0 comdat align 2 personality ptr @__gxx_personality_v0 {
  %3 = alloca %"struct.std::pair.257", align 8
  %4 = getelementptr inbounds i8, ptr %0, i64 16
  %5 = load ptr, ptr %4, align 8, !tbaa !110
  %6 = getelementptr inbounds i8, ptr %0, i64 8
  %7 = icmp eq ptr %5, null
  br i1 %7, label %36, label %8

8:                                                ; preds = %2
  %9 = load i32, ptr %1, align 8, !tbaa !132
  %10 = icmp eq i32 %9, -1
  br label %11

11:                                               ; preds = %11, %8
  %12 = phi ptr [ %5, %8 ], [ %24, %11 ]
  %13 = phi ptr [ %6, %8 ], [ %22, %11 ]
  %14 = getelementptr inbounds %"struct.std::_Rb_tree_node", ptr %12, i64 0, i32 1
  %15 = load i32, ptr %14, align 8, !tbaa !132
  %16 = icmp slt i32 %15, %9
  %17 = icmp sgt i32 %15, -1
  %18 = or i1 %10, %16
  %19 = and i1 %17, %18
  %20 = getelementptr inbounds %"struct.std::_Rb_tree_node_base", ptr %12, i64 0, i32 3
  %21 = getelementptr inbounds %"struct.std::_Rb_tree_node_base", ptr %12, i64 0, i32 2
  %22 = select i1 %19, ptr %13, ptr %12
  %23 = select i1 %19, ptr %20, ptr %21
  %24 = load ptr, ptr %23, align 8, !tbaa !54
  %25 = icmp eq ptr %24, null
  br i1 %25, label %26, label %11

26:                                               ; preds = %11
  %27 = icmp eq ptr %22, %6
  br i1 %27, label %36, label %28

28:                                               ; preds = %26
  %29 = getelementptr inbounds %"struct.std::_Rb_tree_node", ptr %22, i64 0, i32 1
  %30 = load i32, ptr %29, align 8, !tbaa !132
  %31 = icmp slt i32 %9, %30
  %32 = icmp sgt i32 %9, -1
  %33 = icmp eq i32 %30, -1
  %34 = or i1 %31, %33
  %35 = and i1 %32, %34
  br i1 %35, label %36, label %78

36:                                               ; preds = %28, %2, %26
  %37 = phi ptr [ %6, %26 ], [ %6, %2 ], [ %22, %28 ]
  call void @llvm.lifetime.start.p0(i64 48, ptr nonnull %3) #19
  call void @llvm.memcpy.p0.p0.i64(ptr noundef nonnull align 8 dereferenceable(24) %3, ptr noundef nonnull align 8 dereferenceable(24) %1, i64 24, i1 false)
  %38 = getelementptr inbounds %"struct.std::pair.257", ptr %3, i64 0, i32 1
  call void @llvm.memset.p0.i64(ptr noundef nonnull align 8 dereferenceable(24) %38, i8 0, i64 24, i1 false)
  %39 = invoke { ptr, ptr } @_ZNSt8_Rb_treeIN6dealii12TriaIteratorINS0_11DoFAccessorILi2ENS0_10DoFHandlerILi3ELi3EEEEEEESt4pairIKS6_St6vectorIdSaIdEEESt10_Select1stISC_ESt4lessIS6_ESaISC_EE29_M_get_insert_hint_unique_posESt23_Rb_tree_const_iteratorISC_ERS8_(ptr noundef nonnull align 8 dereferenceable(48) %0, ptr %37, ptr noundef nonnull align 8 dereferenceable(24) %3)
          to label %40 unwind label %72

40:                                               ; preds = %36
  %41 = extractvalue { ptr, ptr } %39, 0
  %42 = extractvalue { ptr, ptr } %39, 1
  %43 = icmp eq ptr %42, null
  br i1 %43, label %66, label %44

44:                                               ; preds = %40
  %45 = icmp ne ptr %41, null
  %46 = icmp eq ptr %6, %42
  %47 = select i1 %45, i1 true, i1 %46
  br i1 %47, label %58, label %48

48:                                               ; preds = %44
  %49 = getelementptr inbounds %"struct.std::_Rb_tree_node", ptr %42, i64 0, i32 1
  %50 = load i32, ptr %3, align 8, !tbaa !132
  %51 = load i32, ptr %49, align 8, !tbaa !132
  %52 = icmp slt i32 %50, %51
  %53 = icmp sgt i32 %50, -1
  %54 = and i1 %53, %52
  br i1 %54, label %58, label %55

55:                                               ; preds = %48
  %56 = icmp eq i32 %51, -1
  %57 = and i1 %53, %56
  br label %58

58:                                               ; preds = %55, %48, %44
  %59 = phi i1 [ true, %44 ], [ %57, %55 ], [ true, %48 ]
  %60 = invoke noalias noundef nonnull dereferenceable(80) ptr @_Znwm(i64 noundef 80) #23
          to label %61 unwind label %72

61:                                               ; preds = %58
  invoke void @_ZNSt8_Rb_treeIN6dealii12TriaIteratorINS0_11DoFAccessorILi2ENS0_10DoFHandlerILi3ELi3EEEEEEESt4pairIKS6_St6vectorIdSaIdEEESt10_Select1stISC_ESt4lessIS6_ESaISC_EE17_M_construct_nodeEPSt13_Rb_tree_nodeISC_ERKSC_(ptr noundef nonnull align 8 dereferenceable(48) %0, ptr noundef nonnull %60, ptr noundef nonnull align 8 dereferenceable(48) %3)
          to label %62 unwind label %72

62:                                               ; preds = %61
  call void @_ZSt29_Rb_tree_insert_and_rebalancebPSt18_Rb_tree_node_baseS0_RS_(i1 noundef zeroext %59, ptr noundef nonnull %60, ptr noundef nonnull %42, ptr noundef nonnull align 8 dereferenceable(32) %6) #19
  %63 = getelementptr inbounds i8, ptr %0, i64 40
  %64 = load i64, ptr %63, align 8, !tbaa !112
  %65 = add i64 %64, 1
  store i64 %65, ptr %63, align 8, !tbaa !112
  br label %66

66:                                               ; preds = %62, %40
  %67 = phi ptr [ %60, %62 ], [ %41, %40 ]
  %68 = load ptr, ptr %38, align 8, !tbaa !55
  %69 = icmp eq ptr %68, null
  br i1 %69, label %71, label %70

70:                                               ; preds = %66
  call void @_ZdlPv(ptr noundef nonnull %68) #20
  br label %71

71:                                               ; preds = %66, %70
  call void @llvm.lifetime.end.p0(i64 48, ptr nonnull %3) #19
  br label %78

72:                                               ; preds = %61, %58, %36
  %73 = landingpad { ptr, i32 }
          cleanup
  %74 = load ptr, ptr %38, align 8, !tbaa !55
  %75 = icmp eq ptr %74, null
  br i1 %75, label %77, label %76

76:                                               ; preds = %72
  call void @_ZdlPv(ptr noundef nonnull %74) #20
  br label %77

77:                                               ; preds = %76, %72
  call void @llvm.lifetime.end.p0(i64 48, ptr nonnull %3) #19
  resume { ptr, i32 } %73

78:                                               ; preds = %28, %71
  %79 = phi ptr [ %67, %71 ], [ %22, %28 ]
  %80 = getelementptr inbounds %"struct.std::_Rb_tree_node", ptr %79, i64 0, i32 1, i32 1
  ret ptr %80
}

; Function Attrs: sspstrong uwtable
define linkonce_odr dso_local noundef nonnull align 8 dereferenceable(24) ptr @_ZNSt6vectorIdSaIdEEaSERKS1_(ptr noundef nonnull align 8 dereferenceable(24) %0, ptr noundef nonnull align 8 dereferenceable(24) %1) local_unnamed_addr #0 comdat align 2 personality ptr @__gxx_personality_v0 {
  %3 = icmp eq ptr %1, %0
  br i1 %3, label %82, label %4

4:                                                ; preds = %2
  %5 = getelementptr inbounds %"struct.std::_Vector_base<double, std::allocator<double> >::_Vector_impl_data", ptr %1, i64 0, i32 1
  %6 = load ptr, ptr %5, align 8, !tbaa !54
  %7 = load ptr, ptr %1, align 8, !tbaa !54
  %8 = ptrtoint ptr %6 to i64
  %9 = ptrtoint ptr %7 to i64
  %10 = sub i64 %8, %9
  %11 = ashr exact i64 %10, 3
  %12 = getelementptr inbounds %"struct.std::_Vector_base<double, std::allocator<double> >::_Vector_impl_data", ptr %0, i64 0, i32 2
  %13 = load ptr, ptr %12, align 8, !tbaa !135
  %14 = load ptr, ptr %0, align 8, !tbaa !54
  %15 = ptrtoint ptr %13 to i64
  %16 = ptrtoint ptr %14 to i64
  %17 = sub i64 %15, %16
  %18 = ashr exact i64 %17, 3
  %19 = icmp ugt i64 %11, %18
  br i1 %19, label %20, label %36

20:                                               ; preds = %4
  %21 = icmp ugt i64 %10, 9223372036854775800
  br i1 %21, label %22, label %23, !prof !134

22:                                               ; preds = %20
  tail call void @_ZSt28__throw_bad_array_new_lengthv() #21
  unreachable

23:                                               ; preds = %20
  %24 = tail call noalias noundef nonnull ptr @_Znwm(i64 noundef %10) #23
  %25 = icmp ugt i64 %10, 8
  br i1 %25, label %26, label %27, !prof !136

26:                                               ; preds = %23
  tail call void @llvm.memcpy.p0.p0.i64(ptr nonnull align 8 %24, ptr align 8 %7, i64 %10, i1 false)
  br label %31

27:                                               ; preds = %23
  %28 = icmp eq i64 %10, 8
  br i1 %28, label %29, label %31

29:                                               ; preds = %27
  %30 = load double, ptr %7, align 8, !tbaa !52
  store double %30, ptr %24, align 8, !tbaa !52
  br label %31

31:                                               ; preds = %26, %27, %29
  %32 = icmp eq ptr %14, null
  br i1 %32, label %34, label %33

33:                                               ; preds = %31
  tail call void @_ZdlPv(ptr noundef nonnull %14) #20
  br label %34

34:                                               ; preds = %31, %33
  store ptr %24, ptr %0, align 8, !tbaa !55
  %35 = getelementptr inbounds double, ptr %24, i64 %11
  store ptr %35, ptr %12, align 8, !tbaa !135
  br label %78

36:                                               ; preds = %4
  %37 = getelementptr inbounds %"struct.std::_Vector_base<double, std::allocator<double> >::_Vector_impl_data", ptr %0, i64 0, i32 1
  %38 = load ptr, ptr %37, align 8, !tbaa !56
  %39 = ptrtoint ptr %38 to i64
  %40 = sub i64 %39, %16
  %41 = ashr exact i64 %40, 3
  %42 = icmp ult i64 %41, %11
  br i1 %42, label %50, label %43

43:                                               ; preds = %36
  %44 = icmp sgt i64 %10, 8
  br i1 %44, label %45, label %46, !prof !136

45:                                               ; preds = %43
  tail call void @llvm.memmove.p0.p0.i64(ptr align 8 %14, ptr align 8 %7, i64 %10, i1 false)
  br label %78

46:                                               ; preds = %43
  %47 = icmp eq i64 %10, 8
  br i1 %47, label %48, label %78

48:                                               ; preds = %46
  %49 = load double, ptr %7, align 8, !tbaa !52
  store double %49, ptr %14, align 8, !tbaa !52
  br label %78

50:                                               ; preds = %36
  %51 = icmp sgt i64 %40, 8
  br i1 %51, label %52, label %55, !prof !136

52:                                               ; preds = %50
  tail call void @llvm.memmove.p0.p0.i64(ptr align 8 %14, ptr align 8 %7, i64 %40, i1 false)
  %53 = load ptr, ptr %37, align 8, !tbaa !56
  %54 = ptrtoint ptr %53 to i64
  br label %59

55:                                               ; preds = %50
  %56 = icmp eq i64 %40, 8
  br i1 %56, label %57, label %59

57:                                               ; preds = %55
  %58 = load double, ptr %7, align 8, !tbaa !52
  store double %58, ptr %14, align 8, !tbaa !52
  br label %59

59:                                               ; preds = %52, %55, %57
  %60 = phi i64 [ %54, %52 ], [ %39, %55 ], [ %39, %57 ]
  %61 = phi ptr [ %53, %52 ], [ %38, %55 ], [ %38, %57 ]
  %62 = load ptr, ptr %1, align 8, !tbaa !55
  %63 = load ptr, ptr %0, align 8, !tbaa !55
  %64 = ptrtoint ptr %63 to i64
  %65 = sub i64 %60, %64
  %66 = ashr exact i64 %65, 3
