; ModuleID = 'source/numerics/matrices.cc'
source_filename = "source/numerics/matrices.cc"
target datalayout = "e-m:e-p270:32:32-p271:32:32-p272:64:64-i64:64-f80:128-n8:16:32:64-S128"
target triple = "x86_64-pc-linux-gnu"

module asm ".globl _ZSt21ios_base_library_initv"

%"class.dealii::MultithreadInfo" = type { i32, i32 }
%"class.dealii::MappingQ1" = type { %"class.dealii::Mapping" }
%"class.dealii::Mapping" = type { %"class.dealii::Subscriptor" }
%"class.dealii::Subscriptor" = type { ptr, i32, %"class.std::map", ptr }
%"class.std::map" = type { %"class.std::_Rb_tree" }
%"class.std::_Rb_tree" = type { %"struct.std::_Rb_tree<const char *, std::pair<const char *const, unsigned int>, std::_Select1st<std::pair<const char *const, unsigned int> >, std::less<const char *> >::_Rb_tree_impl" }
%"struct.std::_Rb_tree<const char *, std::pair<const char *const, unsigned int>, std::_Select1st<std::pair<const char *const, unsigned int> >, std::less<const char *> >::_Rb_tree_impl" = type { %"struct.std::_Rb_tree_key_compare", %"struct.std::_Rb_tree_header" }
%"struct.std::_Rb_tree_key_compare" = type { %"struct.std::less" }
%"struct.std::less" = type { i8 }
%"struct.std::_Rb_tree_header" = type { %"struct.std::_Rb_tree_node_base", i64 }
%"struct.std::_Rb_tree_node_base" = type { i32, ptr, ptr, ptr }
%"class.dealii::hp::MappingCollection" = type { %"class.dealii::Subscriptor", %"class.std::vector.71" }
%"class.std::vector.71" = type { %"struct.std::_Vector_base.72" }
%"struct.std::_Vector_base.72" = type { %"struct.std::_Vector_base<boost::shared_ptr<const dealii::Mapping<3, 3> >, std::allocator<boost::shared_ptr<const dealii::Mapping<3, 3> > > >::_Vector_impl" }
%"struct.std::_Vector_base<boost::shared_ptr<const dealii::Mapping<3, 3> >, std::allocator<boost::shared_ptr<const dealii::Mapping<3, 3> > > >::_Vector_impl" = type { %"struct.std::_Vector_base<boost::shared_ptr<const dealii::Mapping<3, 3> >, std::allocator<boost::shared_ptr<const dealii::Mapping<3, 3> > > >::_Vector_impl_data" }
%"struct.std::_Vector_base<boost::shared_ptr<const dealii::Mapping<3, 3> >, std::allocator<boost::shared_ptr<const dealii::Mapping<3, 3> > > >::_Vector_impl_data" = type { ptr, ptr, ptr }
%"struct.boost::detail::function::basic_vtable7" = type { %"struct.boost::detail::function::vtable_base", ptr }
%"struct.boost::detail::function::vtable_base" = type { ptr }
%"struct.boost::detail::function::basic_vtable0" = type { %"struct.boost::detail::function::vtable_base", ptr }
%"struct.boost::detail::function::basic_vtable9" = type { %"struct.boost::detail::function::vtable_base", ptr }
%"struct.boost::detail::function::basic_vtable7.175" = type { %"struct.boost::detail::function::vtable_base", ptr }
%"struct.boost::detail::function::basic_vtable9.176" = type { %"struct.boost::detail::function::vtable_base", ptr }
%"struct.boost::detail::function::basic_vtable7.177" = type { %"struct.boost::detail::function::vtable_base", ptr }
%"struct.boost::detail::function::basic_vtable9.178" = type { %"struct.boost::detail::function::vtable_base", ptr }
%"struct.boost::detail::function::basic_vtable7.179" = type { %"struct.boost::detail::function::vtable_base", ptr }
%"struct.boost::detail::function::basic_vtable9.180" = type { %"struct.boost::detail::function::vtable_base", ptr }
%"struct.boost::detail::function::basic_vtable9.181" = type { %"struct.boost::detail::function::vtable_base", ptr }
%"struct.boost::detail::function::basic_vtable9.182" = type { %"struct.boost::detail::function::vtable_base", ptr }
%"class.dealii::Threads::ThreadGroup" = type { %"class.std::__cxx11::list" }
%"class.std::__cxx11::list" = type { %"class.std::__cxx11::_List_base" }
%"class.std::__cxx11::_List_base" = type { %"struct.std::__cxx11::_List_base<dealii::Threads::Thread<>, std::allocator<dealii::Threads::Thread<> > >::_List_impl" }
%"struct.std::__cxx11::_List_base<dealii::Threads::Thread<>, std::allocator<dealii::Threads::Thread<> > >::_List_impl" = type { %"struct.std::__detail::_List_node_header" }
%"struct.std::__detail::_List_node_header" = type { %"struct.std::__detail::_List_node_base", i64 }
%"struct.std::__detail::_List_node_base" = type { ptr, ptr }
%"class.std::vector" = type { %"struct.std::_Vector_base" }
%"struct.std::_Vector_base" = type { %"struct.std::_Vector_base<std::pair<dealii::TriaActiveIterator<dealii::DoFCellAccessor<dealii::DoFHandler<3, 3> > >, dealii::TriaActiveIterator<dealii::DoFCellAccessor<dealii::DoFHandler<3, 3> > > >, std::allocator<std::pair<dealii::TriaActiveIterator<dealii::DoFCellAccessor<dealii::DoFHandler<3, 3> > >, dealii::TriaActiveIterator<dealii::DoFCellAccessor<dealii::DoFHandler<3, 3> > > > > >::_Vector_impl" }
%"struct.std::_Vector_base<std::pair<dealii::TriaActiveIterator<dealii::DoFCellAccessor<dealii::DoFHandler<3, 3> > >, dealii::TriaActiveIterator<dealii::DoFCellAccessor<dealii::DoFHandler<3, 3> > > >, std::allocator<std::pair<dealii::TriaActiveIterator<dealii::DoFCellAccessor<dealii::DoFHandler<3, 3> > >, dealii::TriaActiveIterator<dealii::DoFCellAccessor<dealii::DoFHandler<3, 3> > > > > >::_Vector_impl" = type { %"struct.std::_Vector_base<std::pair<dealii::TriaActiveIterator<dealii::DoFCellAccessor<dealii::DoFHandler<3, 3> > >, dealii::TriaActiveIterator<dealii::DoFCellAccessor<dealii::DoFHandler<3, 3> > > >, std::allocator<std::pair<dealii::TriaActiveIterator<dealii::DoFCellAccessor<dealii::DoFHandler<3, 3> > >, dealii::TriaActiveIterator<dealii::DoFCellAccessor<dealii::DoFHandler<3, 3> > > > > >::_Vector_impl_data" }
%"struct.std::_Vector_base<std::pair<dealii::TriaActiveIterator<dealii::DoFCellAccessor<dealii::DoFHandler<3, 3> > >, dealii::TriaActiveIterator<dealii::DoFCellAccessor<dealii::DoFHandler<3, 3> > > >, std::allocator<std::pair<dealii::TriaActiveIterator<dealii::DoFCellAccessor<dealii::DoFHandler<3, 3> > >, dealii::TriaActiveIterator<dealii::DoFCellAccessor<dealii::DoFHandler<3, 3> > > > > >::_Vector_impl_data" = type { ptr, ptr, ptr }
%"class.dealii::TriaActiveIterator" = type { %"class.dealii::TriaIterator" }
%"class.dealii::TriaIterator" = type { %"class.dealii::TriaRawIterator" }
%"class.dealii::TriaRawIterator" = type { %"class.dealii::DoFCellAccessor" }
%"class.dealii::DoFCellAccessor" = type { %"class.dealii::DoFAccessor" }
%"class.dealii::DoFAccessor" = type { %"class.dealii::CellAccessor", ptr }
%"class.dealii::CellAccessor" = type { %"class.dealii::TriaAccessor" }
%"class.dealii::TriaAccessor" = type { %"class.dealii::TriaAccessorBase" }
%"class.dealii::TriaAccessorBase" = type { i32, i32, ptr }
%"class.dealii::Threads::DummyThreadMutex" = type { i8 }
%"class.dealii::Threads::Thread" = type { %"class.boost::shared_ptr" }
%"class.boost::shared_ptr" = type { ptr, %"class.boost::detail::shared_count" }
%"class.boost::detail::shared_count" = type { ptr }
%"class.dealii::Threads::internal::fun_encapsulator" = type { %"class.boost::function" }
%"class.boost::function" = type { %"class.boost::function7" }
%"class.boost::function7" = type { %"class.boost::function_base" }
%"class.boost::function_base" = type { ptr, %"union.boost::detail::function::function_buffer" }
%"union.boost::detail::function::function_buffer" = type { %"struct.boost::detail::function::function_buffer::bound_memfunc_ptr_t" }
%"struct.boost::detail::function::function_buffer::bound_memfunc_ptr_t" = type { { i64, i64 }, ptr }
%"struct.dealii::MatrixCreator::IteratorRange" = type { %"class.dealii::TriaActiveIterator", %"class.dealii::TriaActiveIterator" }
%"struct.std::_List_node" = type { %"struct.std::__detail::_List_node_base", %"class.dealii::Threads::Thread" }
%"struct.std::pair" = type { %"class.dealii::TriaActiveIterator", %"class.dealii::TriaActiveIterator" }
%"class.boost::detail::sp_counted_base" = type { ptr, i64, i64 }
%"class.dealii::Triangulation" = type { %"class.dealii::Subscriptor", %"class.std::vector.208", ptr, %"class.std::vector.102", %"class.std::vector.126", [255 x %"class.dealii::SmartPointer.213"], [255 x %"class.dealii::SmartPointer.213"], i8, i32, %"struct.dealii::internal::Triangulation::NumberCache", %"class.std::__cxx11::list.216" }
%"class.std::vector.208" = type { %"struct.std::_Vector_base.209" }
%"struct.std::_Vector_base.209" = type { %"struct.std::_Vector_base<dealii::internal::Triangulation::TriaLevel<3> *, std::allocator<dealii::internal::Triangulation::TriaLevel<3> *> >::_Vector_impl" }
%"struct.std::_Vector_base<dealii::internal::Triangulation::TriaLevel<3> *, std::allocator<dealii::internal::Triangulation::TriaLevel<3> *> >::_Vector_impl" = type { %"struct.std::_Vector_base<dealii::internal::Triangulation::TriaLevel<3> *, std::allocator<dealii::internal::Triangulation::TriaLevel<3> *> >::_Vector_impl_data" }
%"struct.std::_Vector_base<dealii::internal::Triangulation::TriaLevel<3> *, std::allocator<dealii::internal::Triangulation::TriaLevel<3> *> >::_Vector_impl_data" = type { ptr, ptr, ptr }
%"class.std::vector.102" = type { %"struct.std::_Vector_base.103" }
%"struct.std::_Vector_base.103" = type { %"struct.std::_Vector_base<dealii::Point<3>, std::allocator<dealii::Point<3> > >::_Vector_impl" }
%"struct.std::_Vector_base<dealii::Point<3>, std::allocator<dealii::Point<3> > >::_Vector_impl" = type { %"struct.std::_Vector_base<dealii::Point<3>, std::allocator<dealii::Point<3> > >::_Vector_impl_data" }
%"struct.std::_Vector_base<dealii::Point<3>, std::allocator<dealii::Point<3> > >::_Vector_impl_data" = type { ptr, ptr, ptr }
%"class.std::vector.126" = type { %"struct.std::_Bvector_base" }
%"struct.std::_Bvector_base" = type { %"struct.std::_Bvector_base<std::allocator<bool> >::_Bvector_impl" }
%"struct.std::_Bvector_base<std::allocator<bool> >::_Bvector_impl" = type { %"struct.std::_Bvector_base<std::allocator<bool> >::_Bvector_impl_data" }
%"struct.std::_Bvector_base<std::allocator<bool> >::_Bvector_impl_data" = type { %"struct.std::_Bit_iterator", %"struct.std::_Bit_iterator", ptr }
%"struct.std::_Bit_iterator" = type { %"struct.std::_Bit_iterator_base.base", [4 x i8] }
%"struct.std::_Bit_iterator_base.base" = type <{ ptr, i32 }>
%"class.dealii::SmartPointer.213" = type { ptr, ptr }
%"struct.dealii::internal::Triangulation::NumberCache" = type { %"struct.dealii::internal::Triangulation::NumberCache.214", i32, %"class.std::vector.28", i32, %"class.std::vector.28" }
%"struct.dealii::internal::Triangulation::NumberCache.214" = type { %"struct.dealii::internal::Triangulation::NumberCache.215", i32, %"class.std::vector.28", i32, %"class.std::vector.28" }
%"struct.dealii::internal::Triangulation::NumberCache.215" = type { i32, %"class.std::vector.28", i32, %"class.std::vector.28" }
%"class.std::vector.28" = type { %"struct.std::_Vector_base.29" }
%"struct.std::_Vector_base.29" = type { %"struct.std::_Vector_base<unsigned int, std::allocator<unsigned int> >::_Vector_impl" }
%"struct.std::_Vector_base<unsigned int, std::allocator<unsigned int> >::_Vector_impl" = type { %"struct.std::_Vector_base<unsigned int, std::allocator<unsigned int> >::_Vector_impl_data" }
%"struct.std::_Vector_base<unsigned int, std::allocator<unsigned int> >::_Vector_impl_data" = type { ptr, ptr, ptr }
%"class.std::__cxx11::list.216" = type { %"class.std::__cxx11::_List_base.217" }
%"class.std::__cxx11::_List_base.217" = type { %"struct.std::__cxx11::_List_base<dealii::Triangulation<3, 3>::RefinementListener *, std::allocator<dealii::Triangulation<3, 3>::RefinementListener *> >::_List_impl" }
%"struct.std::__cxx11::_List_base<dealii::Triangulation<3, 3>::RefinementListener *, std::allocator<dealii::Triangulation<3, 3>::RefinementListener *> >::_List_impl" = type { %"struct.std::__detail::_List_node_header" }
%"class.dealii::internal::Triangulation::TriaLevel" = type { %"class.std::vector.183", %"class.std::vector.126", %"class.std::vector.188", %"class.std::vector.28", %"class.dealii::internal::Triangulation::TriaObjectsHex" }
%"class.std::vector.183" = type { %"struct.std::_Vector_base.184" }
%"struct.std::_Vector_base.184" = type { %"struct.std::_Vector_base<unsigned char, std::allocator<unsigned char> >::_Vector_impl" }
%"struct.std::_Vector_base<unsigned char, std::allocator<unsigned char> >::_Vector_impl" = type { %"struct.std::_Vector_base<unsigned char, std::allocator<unsigned char> >::_Vector_impl_data" }
%"struct.std::_Vector_base<unsigned char, std::allocator<unsigned char> >::_Vector_impl_data" = type { ptr, ptr, ptr }
%"class.std::vector.188" = type { %"struct.std::_Vector_base.189" }
%"struct.std::_Vector_base.189" = type { %"struct.std::_Vector_base<std::pair<int, int>, std::allocator<std::pair<int, int> > >::_Vector_impl" }
%"struct.std::_Vector_base<std::pair<int, int>, std::allocator<std::pair<int, int> > >::_Vector_impl" = type { %"struct.std::_Vector_base<std::pair<int, int>, std::allocator<std::pair<int, int> > >::_Vector_impl_data" }
%"struct.std::_Vector_base<std::pair<int, int>, std::allocator<std::pair<int, int> > >::_Vector_impl_data" = type { ptr, ptr, ptr }
%"class.dealii::internal::Triangulation::TriaObjectsHex" = type { %"class.dealii::internal::Triangulation::TriaObjects.base", %"class.std::vector.126", %"class.std::vector.126", %"class.std::vector.126" }
%"class.dealii::internal::Triangulation::TriaObjects.base" = type <{ %"class.std::vector.193", %"class.std::vector.111", %"class.std::vector.198", %"class.std::vector.126", %"class.std::vector.126", %"class.std::vector.183", i32, i32, i8, [7 x i8], %"class.std::vector.203", i32 }>
%"class.std::vector.193" = type { %"struct.std::_Vector_base.194" }
%"struct.std::_Vector_base.194" = type { %"struct.std::_Vector_base<dealii::internal::Triangulation::TriaObject<3>, std::allocator<dealii::internal::Triangulation::TriaObject<3> > >::_Vector_impl" }
%"struct.std::_Vector_base<dealii::internal::Triangulation::TriaObject<3>, std::allocator<dealii::internal::Triangulation::TriaObject<3> > >::_Vector_impl" = type { %"struct.std::_Vector_base<dealii::internal::Triangulation::TriaObject<3>, std::allocator<dealii::internal::Triangulation::TriaObject<3> > >::_Vector_impl_data" }
%"struct.std::_Vector_base<dealii::internal::Triangulation::TriaObject<3>, std::allocator<dealii::internal::Triangulation::TriaObject<3> > >::_Vector_impl_data" = type { ptr, ptr, ptr }
%"class.std::vector.111" = type { %"struct.std::_Vector_base.112" }
%"struct.std::_Vector_base.112" = type { %"struct.std::_Vector_base<int, std::allocator<int> >::_Vector_impl" }
%"struct.std::_Vector_base<int, std::allocator<int> >::_Vector_impl" = type { %"struct.std::_Vector_base<int, std::allocator<int> >::_Vector_impl_data" }
%"struct.std::_Vector_base<int, std::allocator<int> >::_Vector_impl_data" = type { ptr, ptr, ptr }
%"class.std::vector.198" = type { %"struct.std::_Vector_base.199" }
%"struct.std::_Vector_base.199" = type { %"struct.std::_Vector_base<dealii::RefinementCase<3>, std::allocator<dealii::RefinementCase<3> > >::_Vector_impl" }
%"struct.std::_Vector_base<dealii::RefinementCase<3>, std::allocator<dealii::RefinementCase<3> > >::_Vector_impl" = type { %"struct.std::_Vector_base<dealii::RefinementCase<3>, std::allocator<dealii::RefinementCase<3> > >::_Vector_impl_data" }
%"struct.std::_Vector_base<dealii::RefinementCase<3>, std::allocator<dealii::RefinementCase<3> > >::_Vector_impl_data" = type { ptr, ptr, ptr }
%"class.std::vector.203" = type { %"struct.std::_Vector_base.204" }
%"struct.std::_Vector_base.204" = type { %"struct.std::_Vector_base<dealii::internal::Triangulation::TriaObjects<dealii::internal::Triangulation::TriaObject<3> >::UserData, std::allocator<dealii::internal::Triangulation::TriaObjects<dealii::internal::Triangulation::TriaObject<3> >::UserData> >::_Vector_impl" }
%"struct.std::_Vector_base<dealii::internal::Triangulation::TriaObjects<dealii::internal::Triangulation::TriaObject<3> >::UserData, std::allocator<dealii::internal::Triangulation::TriaObjects<dealii::internal::Triangulation::TriaObject<3> >::UserData> >::_Vector_impl" = type { %"struct.std::_Vector_base<dealii::internal::Triangulation::TriaObjects<dealii::internal::Triangulation::TriaObject<3> >::UserData, std::allocator<dealii::internal::Triangulation::TriaObjects<dealii::internal::Triangulation::TriaObject<3> >::UserData> >::_Vector_impl_data" }
%"struct.std::_Vector_base<dealii::internal::Triangulation::TriaObjects<dealii::internal::Triangulation::TriaObject<3> >::UserData, std::allocator<dealii::internal::Triangulation::TriaObjects<dealii::internal::Triangulation::TriaObject<3> >::UserData> >::_Vector_impl_data" = type { ptr, ptr, ptr }
%"class.dealii::FEValues" = type { %"class.dealii::FEValuesBase", %"class.dealii::Quadrature" }
%"class.dealii::FEValuesBase" = type { %"class.dealii::Subscriptor", %"class.dealii::FEValuesData.base", i32, i32, %"class.std::auto_ptr", %"class.dealii::SmartPointer.246", %"class.dealii::SmartPointer.22", %"class.dealii::SmartPointer.247", %"class.dealii::SmartPointer.247", i32, %"struct.dealii::internal::FEValuesViews::Cache" }
%"class.dealii::FEValuesData.base" = type <{ %"class.dealii::Table", %"class.std::vector.221", %"class.std::vector.226", %"class.std::vector.92", %"class.std::vector.231", %"class.std::vector.236", %"class.std::vector.231", %"class.std::vector.102", %"class.std::vector.102", %"class.std::vector.102", %"class.std::vector.241", %"class.std::vector.102", %"class.std::vector.226", %"class.std::vector.226", %"class.std::vector.28", i32 }>
%"class.dealii::Table" = type { %"class.dealii::TableBase.base", [4 x i8] }
%"class.dealii::TableBase.base" = type <{ %"class.dealii::Subscriptor", ptr, i32, %"class.dealii::TableIndices" }>
%"class.dealii::TableIndices" = type { %"class.dealii::TableIndicesBase" }
%"class.dealii::TableIndicesBase" = type { [2 x i32] }
%"class.std::vector.221" = type { %"struct.std::_Vector_base.222" }
%"struct.std::_Vector_base.222" = type { %"struct.std::_Vector_base<std::vector<dealii::Tensor<1, 3> >, std::allocator<std::vector<dealii::Tensor<1, 3> > > >::_Vector_impl" }
%"struct.std::_Vector_base<std::vector<dealii::Tensor<1, 3> >, std::allocator<std::vector<dealii::Tensor<1, 3> > > >::_Vector_impl" = type { %"struct.std::_Vector_base<std::vector<dealii::Tensor<1, 3> >, std::allocator<std::vector<dealii::Tensor<1, 3> > > >::_Vector_impl_data" }
%"struct.std::_Vector_base<std::vector<dealii::Tensor<1, 3> >, std::allocator<std::vector<dealii::Tensor<1, 3> > > >::_Vector_impl_data" = type { ptr, ptr, ptr }
%"class.std::vector.92" = type { %"struct.std::_Vector_base.93" }
%"struct.std::_Vector_base.93" = type { %"struct.std::_Vector_base<double, std::allocator<double> >::_Vector_impl" }
%"struct.std::_Vector_base<double, std::allocator<double> >::_Vector_impl" = type { %"struct.std::_Vector_base<double, std::allocator<double> >::_Vector_impl_data" }
%"struct.std::_Vector_base<double, std::allocator<double> >::_Vector_impl_data" = type { ptr, ptr, ptr }
%"class.std::vector.236" = type { %"struct.std::_Vector_base.237" }
%"struct.std::_Vector_base.237" = type { %"struct.std::_Vector_base<dealii::Tensor<3, 3>, std::allocator<dealii::Tensor<3, 3> > >::_Vector_impl" }
%"struct.std::_Vector_base<dealii::Tensor<3, 3>, std::allocator<dealii::Tensor<3, 3> > >::_Vector_impl" = type { %"struct.std::_Vector_base<dealii::Tensor<3, 3>, std::allocator<dealii::Tensor<3, 3> > >::_Vector_impl_data" }
%"struct.std::_Vector_base<dealii::Tensor<3, 3>, std::allocator<dealii::Tensor<3, 3> > >::_Vector_impl_data" = type { ptr, ptr, ptr }
%"class.std::vector.231" = type { %"struct.std::_Vector_base.232" }
%"struct.std::_Vector_base.232" = type { %"struct.std::_Vector_base<dealii::Tensor<2, 3>, std::allocator<dealii::Tensor<2, 3> > >::_Vector_impl" }
%"struct.std::_Vector_base<dealii::Tensor<2, 3>, std::allocator<dealii::Tensor<2, 3> > >::_Vector_impl" = type { %"struct.std::_Vector_base<dealii::Tensor<2, 3>, std::allocator<dealii::Tensor<2, 3> > >::_Vector_impl_data" }
%"struct.std::_Vector_base<dealii::Tensor<2, 3>, std::allocator<dealii::Tensor<2, 3> > >::_Vector_impl_data" = type { ptr, ptr, ptr }
%"class.std::vector.241" = type { %"struct.std::_Vector_base.242" }
%"struct.std::_Vector_base.242" = type { %"struct.std::_Vector_base<dealii::Tensor<1, 3>, std::allocator<dealii::Tensor<1, 3> > >::_Vector_impl" }
%"struct.std::_Vector_base<dealii::Tensor<1, 3>, std::allocator<dealii::Tensor<1, 3> > >::_Vector_impl" = type { %"struct.std::_Vector_base<dealii::Tensor<1, 3>, std::allocator<dealii::Tensor<1, 3> > >::_Vector_impl_data" }
%"struct.std::_Vector_base<dealii::Tensor<1, 3>, std::allocator<dealii::Tensor<1, 3> > >::_Vector_impl_data" = type { ptr, ptr, ptr }
%"class.std::vector.226" = type { %"struct.std::_Vector_base.227" }
%"struct.std::_Vector_base.227" = type { %"struct.std::_Vector_base<std::vector<dealii::Tensor<2, 3> >, std::allocator<std::vector<dealii::Tensor<2, 3> > > >::_Vector_impl" }
%"struct.std::_Vector_base<std::vector<dealii::Tensor<2, 3> >, std::allocator<std::vector<dealii::Tensor<2, 3> > > >::_Vector_impl" = type { %"struct.std::_Vector_base<std::vector<dealii::Tensor<2, 3> >, std::allocator<std::vector<dealii::Tensor<2, 3> > > >::_Vector_impl_data" }
%"struct.std::_Vector_base<std::vector<dealii::Tensor<2, 3> >, std::allocator<std::vector<dealii::Tensor<2, 3> > > >::_Vector_impl_data" = type { ptr, ptr, ptr }
%"class.std::auto_ptr" = type { ptr }
%"class.dealii::SmartPointer.246" = type { ptr, ptr }
%"class.dealii::SmartPointer.22" = type { ptr, ptr }
%"class.dealii::SmartPointer.247" = type { ptr, ptr }
%"struct.dealii::internal::FEValuesViews::Cache" = type { %"class.std::vector.248", %"class.std::vector.253" }
%"class.std::vector.248" = type { %"struct.std::_Vector_base.249" }
%"struct.std::_Vector_base.249" = type { %"struct.std::_Vector_base<dealii::FEValuesViews::Scalar<3, 3>, std::allocator<dealii::FEValuesViews::Scalar<3, 3> > >::_Vector_impl" }
%"struct.std::_Vector_base<dealii::FEValuesViews::Scalar<3, 3>, std::allocator<dealii::FEValuesViews::Scalar<3, 3> > >::_Vector_impl" = type { %"struct.std::_Vector_base<dealii::FEValuesViews::Scalar<3, 3>, std::allocator<dealii::FEValuesViews::Scalar<3, 3> > >::_Vector_impl_data" }
%"struct.std::_Vector_base<dealii::FEValuesViews::Scalar<3, 3>, std::allocator<dealii::FEValuesViews::Scalar<3, 3> > >::_Vector_impl_data" = type { ptr, ptr, ptr }
%"class.std::vector.253" = type { %"struct.std::_Vector_base.254" }
%"struct.std::_Vector_base.254" = type { %"struct.std::_Vector_base<dealii::FEValuesViews::Vector<3, 3>, std::allocator<dealii::FEValuesViews::Vector<3, 3> > >::_Vector_impl" }
%"struct.std::_Vector_base<dealii::FEValuesViews::Vector<3, 3>, std::allocator<dealii::FEValuesViews::Vector<3, 3> > >::_Vector_impl" = type { %"struct.std::_Vector_base<dealii::FEValuesViews::Vector<3, 3>, std::allocator<dealii::FEValuesViews::Vector<3, 3> > >::_Vector_impl_data" }
%"struct.std::_Vector_base<dealii::FEValuesViews::Vector<3, 3>, std::allocator<dealii::FEValuesViews::Vector<3, 3> > >::_Vector_impl_data" = type { ptr, ptr, ptr }
%"class.dealii::Quadrature" = type { %"class.dealii::Subscriptor", i32, %"class.std::vector.102", %"class.std::vector.92" }
%"class.dealii::FullMatrix" = type { %"class.dealii::Table.base", [4 x i8] }
%"class.dealii::Table.base" = type { %"class.dealii::TableBase.base" }
%"class.std::vector.258" = type { %"struct.std::_Vector_base.259" }
%"struct.std::_Vector_base.259" = type { %"struct.std::_Vector_base<dealii::Vector<double>, std::allocator<dealii::Vector<double> > >::_Vector_impl" }
%"struct.std::_Vector_base<dealii::Vector<double>, std::allocator<dealii::Vector<double> > >::_Vector_impl" = type { %"struct.std::_Vector_base<dealii::Vector<double>, std::allocator<dealii::Vector<double> > >::_Vector_impl_data" }
%"struct.std::_Vector_base<dealii::Vector<double>, std::allocator<dealii::Vector<double> > >::_Vector_impl_data" = type { ptr, ptr, ptr }
%"class.dealii::Vector" = type { %"class.dealii::Subscriptor", i32, i32, ptr }
%"class.std::allocator.260" = type { i8 }
%"class.dealii::DoFHandler" = type { %"class.dealii::Subscriptor", %"class.dealii::SmartPointer", %"class.dealii::SmartPointer.22", %"class.std::vector.23", ptr, i32, %"class.std::vector.28" }
%"class.dealii::SmartPointer" = type { ptr, ptr }
%"class.std::vector.23" = type { %"struct.std::_Vector_base.24" }
%"struct.std::_Vector_base.24" = type { %"struct.std::_Vector_base<dealii::internal::DoFHandler::DoFLevel<3> *, std::allocator<dealii::internal::DoFHandler::DoFLevel<3> *> >::_Vector_impl" }
%"struct.std::_Vector_base<dealii::internal::DoFHandler::DoFLevel<3> *, std::allocator<dealii::internal::DoFHandler::DoFLevel<3> *> >::_Vector_impl" = type { %"struct.std::_Vector_base<dealii::internal::DoFHandler::DoFLevel<3> *, std::allocator<dealii::internal::DoFHandler::DoFLevel<3> *> >::_Vector_impl_data" }
%"struct.std::_Vector_base<dealii::internal::DoFHandler::DoFLevel<3> *, std::allocator<dealii::internal::DoFHandler::DoFLevel<3> *> >::_Vector_impl_data" = type { ptr, ptr, ptr }
%"class.dealii::TableBase" = type <{ %"class.dealii::Subscriptor", ptr, i32, %"class.dealii::TableIndices", [4 x i8] }>
%"class.dealii::Function" = type <{ %"class.dealii::FunctionTime", %"class.dealii::Subscriptor", i32, [4 x i8] }>
%"class.dealii::FunctionTime" = type { ptr, double }
%"class.dealii::FiniteElement" = type { %"class.dealii::Subscriptor", %"class.dealii::FiniteElementData", i8, %"class.std::vector.97", %"class.std::vector.97", %"class.dealii::FullMatrix", %"class.std::vector.102", %"class.std::vector.87", %"class.std::vector.102", %"class.std::vector.87", %"class.dealii::Table.107", %"class.std::vector.111", %"class.std::vector.116", %"class.std::vector.116", %"class.std::vector.121", %"class.std::vector.121", %"class.std::vector.28", %"class.std::vector.121", %"class.std::vector.126", %"class.std::vector.131", %"class.std::vector.28" }
%"class.dealii::FiniteElementData" = type { i32, i32, i32, i32, i32, i32, i32, i32, i32, i32, i32, i32, i32, i32, i32 }
%"class.std::vector.97" = type { %"struct.std::_Vector_base.98" }
%"struct.std::_Vector_base.98" = type { %"struct.std::_Vector_base<std::vector<dealii::FullMatrix<double> >, std::allocator<std::vector<dealii::FullMatrix<double> > > >::_Vector_impl" }
%"struct.std::_Vector_base<std::vector<dealii::FullMatrix<double> >, std::allocator<std::vector<dealii::FullMatrix<double> > > >::_Vector_impl" = type { %"struct.std::_Vector_base<std::vector<dealii::FullMatrix<double> >, std::allocator<std::vector<dealii::FullMatrix<double> > > >::_Vector_impl_data" }
%"struct.std::_Vector_base<std::vector<dealii::FullMatrix<double> >, std::allocator<std::vector<dealii::FullMatrix<double> > > >::_Vector_impl_data" = type { ptr, ptr, ptr }
%"class.std::vector.87" = type { %"struct.std::_Vector_base.88" }
%"struct.std::_Vector_base.88" = type { %"struct.std::_Vector_base<dealii::Point<2>, std::allocator<dealii::Point<2> > >::_Vector_impl" }
%"struct.std::_Vector_base<dealii::Point<2>, std::allocator<dealii::Point<2> > >::_Vector_impl" = type { %"struct.std::_Vector_base<dealii::Point<2>, std::allocator<dealii::Point<2> > >::_Vector_impl_data" }
%"struct.std::_Vector_base<dealii::Point<2>, std::allocator<dealii::Point<2> > >::_Vector_impl_data" = type { ptr, ptr, ptr }
%"class.dealii::Table.107" = type { %"class.dealii::TableBase.base.109", [4 x i8] }
%"class.dealii::TableBase.base.109" = type <{ %"class.dealii::Subscriptor", ptr, i32, %"class.dealii::TableIndices" }>
%"class.std::vector.116" = type { %"struct.std::_Vector_base.117" }
%"struct.std::_Vector_base.117" = type { %"struct.std::_Vector_base<std::pair<unsigned int, unsigned int>, std::allocator<std::pair<unsigned int, unsigned int> > >::_Vector_impl" }
%"struct.std::_Vector_base<std::pair<unsigned int, unsigned int>, std::allocator<std::pair<unsigned int, unsigned int> > >::_Vector_impl" = type { %"struct.std::_Vector_base<std::pair<unsigned int, unsigned int>, std::allocator<std::pair<unsigned int, unsigned int> > >::_Vector_impl_data" }
%"struct.std::_Vector_base<std::pair<unsigned int, unsigned int>, std::allocator<std::pair<unsigned int, unsigned int> > >::_Vector_impl_data" = type { ptr, ptr, ptr }
%"class.std::vector.121" = type { %"struct.std::_Vector_base.122" }
%"struct.std::_Vector_base.122" = type { %"struct.std::_Vector_base<std::pair<std::pair<unsigned int, unsigned int>, unsigned int>, std::allocator<std::pair<std::pair<unsigned int, unsigned int>, unsigned int> > >::_Vector_impl" }
%"struct.std::_Vector_base<std::pair<std::pair<unsigned int, unsigned int>, unsigned int>, std::allocator<std::pair<std::pair<unsigned int, unsigned int>, unsigned int> > >::_Vector_impl" = type { %"struct.std::_Vector_base<std::pair<std::pair<unsigned int, unsigned int>, unsigned int>, std::allocator<std::pair<std::pair<unsigned int, unsigned int>, unsigned int> > >::_Vector_impl_data" }
%"struct.std::_Vector_base<std::pair<std::pair<unsigned int, unsigned int>, unsigned int>, std::allocator<std::pair<std::pair<unsigned int, unsigned int>, unsigned int> > >::_Vector_impl_data" = type { ptr, ptr, ptr }
%"class.std::vector.131" = type { %"struct.std::_Vector_base.132" }
%"struct.std::_Vector_base.132" = type { %"struct.std::_Vector_base<std::vector<bool>, std::allocator<std::vector<bool> > >::_Vector_impl" }
%"struct.std::_Vector_base<std::vector<bool>, std::allocator<std::vector<bool> > >::_Vector_impl" = type { %"struct.std::_Vector_base<std::vector<bool>, std::allocator<std::vector<bool> > >::_Vector_impl_data" }
%"struct.std::_Vector_base<std::vector<bool>, std::allocator<std::vector<bool> > >::_Vector_impl_data" = type { ptr, ptr, ptr }
%"struct.std::pair.263" = type { i32, i32 }
%"class.boost::function.266" = type { %"class.boost::function0" }
%"class.boost::function0" = type { %"class.boost::function_base" }
%"class.boost::_bi::bind_t" = type { %"class.boost::function", %"class.boost::_bi::list7" }
%"class.boost::_bi::list7" = type { %"struct.boost::_bi::storage7" }
%"struct.boost::_bi::storage7" = type { %"struct.boost::_bi::storage6", %"class.boost::reference_wrapper.271" }
%"struct.boost::_bi::storage6" = type { %"struct.boost::_bi::storage5", %"class.boost::_bi::value.270" }
%"struct.boost::_bi::storage5" = type { %"struct.boost::_bi::storage4", %"class.boost::_bi::value" }
%"struct.boost::_bi::storage4" = type { %"struct.boost::_bi::storage3", %"class.boost::reference_wrapper.269" }
%"struct.boost::_bi::storage3" = type { %"struct.boost::_bi::storage2", %"class.boost::reference_wrapper.268" }
%"struct.boost::_bi::storage2" = type { %"struct.boost::_bi::storage1", %"class.boost::reference_wrapper.267" }
%"struct.boost::_bi::storage1" = type { %"class.boost::reference_wrapper" }
%"class.boost::reference_wrapper" = type { ptr }
%"class.boost::reference_wrapper.267" = type { ptr }
%"class.boost::reference_wrapper.268" = type { ptr }
%"class.boost::reference_wrapper.269" = type { ptr }
%"class.boost::_bi::value" = type { ptr }
%"class.boost::_bi::value.270" = type { %"struct.dealii::MatrixCreator::IteratorRange" }
%"class.boost::reference_wrapper.271" = type { ptr }
%"class.dealii::Threads::internal::fun_encapsulator.34" = type { %"class.boost::function.35" }
%"class.boost::function.35" = type { %"class.boost::function9" }
%"class.boost::function9" = type { %"class.boost::function_base" }
%"class.boost::_bi::bind_t.276" = type { %"class.boost::function.35", %"class.boost::_bi::list9" }
%"class.boost::_bi::list9" = type { %"struct.boost::_bi::storage9" }
%"struct.boost::_bi::storage9" = type { %"struct.boost::_bi::storage8", %"class.boost::reference_wrapper.271" }
%"struct.boost::_bi::storage8" = type { %"struct.boost::_bi::storage7.277", %"class.boost::_bi::value.270" }
%"struct.boost::_bi::storage7.277" = type { %"struct.boost::_bi::storage6.278", %"class.boost::_bi::value" }
%"struct.boost::_bi::storage6.278" = type { %"struct.boost::_bi::storage5.279", %"class.boost::reference_wrapper.281" }
%"struct.boost::_bi::storage5.279" = type { %"struct.boost::_bi::storage4", %"class.boost::reference_wrapper.280" }
%"class.boost::reference_wrapper.280" = type { ptr }
%"class.boost::reference_wrapper.281" = type { ptr }
%"class.dealii::Threads::internal::fun_encapsulator.36" = type { %"class.boost::function.37" }
%"class.boost::function.37" = type { %"class.boost::function7.38" }
%"class.boost::function7.38" = type { %"class.boost::function_base" }
%"class.dealii::FullMatrix.282" = type { %"class.dealii::Table.base.286", [4 x i8] }
%"class.dealii::Table.base.286" = type { %"class.dealii::TableBase.base.285" }
%"class.dealii::TableBase.base.285" = type <{ %"class.dealii::Subscriptor", ptr, i32, %"class.dealii::TableIndices" }>
%"class.dealii::TableBase.284" = type <{ %"class.dealii::Subscriptor", ptr, i32, %"class.dealii::TableIndices", [4 x i8] }>
%"class.boost::_bi::bind_t.288" = type { %"class.boost::function.37", %"class.boost::_bi::list7.289" }
%"class.boost::_bi::list7.289" = type { %"struct.boost::_bi::storage7.290" }
%"struct.boost::_bi::storage7.290" = type { %"struct.boost::_bi::storage6.291", %"class.boost::reference_wrapper.271" }
%"struct.boost::_bi::storage6.291" = type { %"struct.boost::_bi::storage5.292", %"class.boost::_bi::value.270" }
%"struct.boost::_bi::storage5.292" = type { %"struct.boost::_bi::storage4.293", %"class.boost::_bi::value" }
%"struct.boost::_bi::storage4.293" = type { %"struct.boost::_bi::storage3", %"class.boost::reference_wrapper.294" }
%"class.boost::reference_wrapper.294" = type { ptr }
%"class.dealii::Threads::internal::fun_encapsulator.40" = type { %"class.boost::function.41" }
%"class.boost::function.41" = type { %"class.boost::function9.42" }
%"class.boost::function9.42" = type { %"class.boost::function_base" }
%"class.boost::_bi::bind_t.295" = type { %"class.boost::function.41", %"class.boost::_bi::list9.296" }
%"class.boost::_bi::list9.296" = type { %"struct.boost::_bi::storage9.297" }
%"struct.boost::_bi::storage9.297" = type { %"struct.boost::_bi::storage8.298", %"class.boost::reference_wrapper.271" }
%"struct.boost::_bi::storage8.298" = type { %"struct.boost::_bi::storage7.299", %"class.boost::_bi::value.270" }
%"struct.boost::_bi::storage7.299" = type { %"struct.boost::_bi::storage6.300", %"class.boost::_bi::value" }
%"struct.boost::_bi::storage6.300" = type { %"struct.boost::_bi::storage5.301", %"class.boost::reference_wrapper.281" }
%"struct.boost::_bi::storage5.301" = type { %"struct.boost::_bi::storage4.293", %"class.boost::reference_wrapper.280" }
%"class.std::vector.43" = type { %"struct.std::_Vector_base.44" }
%"struct.std::_Vector_base.44" = type { %"struct.std::_Vector_base<std::pair<dealii::TriaActiveIterator<dealii::DoFCellAccessor<dealii::hp::DoFHandler<3, 3> > >, dealii::TriaActiveIterator<dealii::DoFCellAccessor<dealii::hp::DoFHandler<3, 3> > > >, std::allocator<std::pair<dealii::TriaActiveIterator<dealii::DoFCellAccessor<dealii::hp::DoFHandler<3, 3> > >, dealii::TriaActiveIterator<dealii::DoFCellAccessor<dealii::hp::DoFHandler<3, 3> > > > > >::_Vector_impl" }
%"struct.std::_Vector_base<std::pair<dealii::TriaActiveIterator<dealii::DoFCellAccessor<dealii::hp::DoFHandler<3, 3> > >, dealii::TriaActiveIterator<dealii::DoFCellAccessor<dealii::hp::DoFHandler<3, 3> > > >, std::allocator<std::pair<dealii::TriaActiveIterator<dealii::DoFCellAccessor<dealii::hp::DoFHandler<3, 3> > >, dealii::TriaActiveIterator<dealii::DoFCellAccessor<dealii::hp::DoFHandler<3, 3> > > > > >::_Vector_impl" = type { %"struct.std::_Vector_base<std::pair<dealii::TriaActiveIterator<dealii::DoFCellAccessor<dealii::hp::DoFHandler<3, 3> > >, dealii::TriaActiveIterator<dealii::DoFCellAccessor<dealii::hp::DoFHandler<3, 3> > > >, std::allocator<std::pair<dealii::TriaActiveIterator<dealii::DoFCellAccessor<dealii::hp::DoFHandler<3, 3> > >, dealii::TriaActiveIterator<dealii::DoFCellAccessor<dealii::hp::DoFHandler<3, 3> > > > > >::_Vector_impl_data" }
%"struct.std::_Vector_base<std::pair<dealii::TriaActiveIterator<dealii::DoFCellAccessor<dealii::hp::DoFHandler<3, 3> > >, dealii::TriaActiveIterator<dealii::DoFCellAccessor<dealii::hp::DoFHandler<3, 3> > > >, std::allocator<std::pair<dealii::TriaActiveIterator<dealii::DoFCellAccessor<dealii::hp::DoFHandler<3, 3> > >, dealii::TriaActiveIterator<dealii::DoFCellAccessor<dealii::hp::DoFHandler<3, 3> > > > > >::_Vector_impl_data" = type { ptr, ptr, ptr }
%"class.dealii::TriaActiveIterator.48" = type { %"class.dealii::TriaIterator.49" }
%"class.dealii::TriaIterator.49" = type { %"class.dealii::TriaRawIterator.50" }
%"class.dealii::TriaRawIterator.50" = type { %"class.dealii::DoFCellAccessor.52" }
%"class.dealii::DoFCellAccessor.52" = type { %"class.dealii::DoFAccessor.53" }
%"class.dealii::DoFAccessor.53" = type { %"class.dealii::CellAccessor", ptr }
%"class.dealii::Threads::internal::fun_encapsulator.66" = type { %"class.boost::function.67" }
%"class.boost::function.67" = type { %"class.boost::function7.68" }
%"class.boost::function7.68" = type { %"class.boost::function_base" }
%"struct.dealii::MatrixCreator::IteratorRange.65" = type { %"class.dealii::TriaActiveIterator.48", %"class.dealii::TriaActiveIterator.48" }
%"struct.std::pair.69" = type { %"class.dealii::TriaActiveIterator.48", %"class.dealii::TriaActiveIterator.48" }
%"class.dealii::hp::FEValues" = type { %"class.dealii::internal::hp::FEValuesBase" }
%"class.dealii::internal::hp::FEValuesBase" = type { %"class.dealii::SmartPointer.54", %"class.dealii::SmartPointer.302", %"class.dealii::hp::QCollection", %"class.dealii::Table.303", %"class.dealii::TableIndices.305", i32 }
%"class.dealii::SmartPointer.54" = type { ptr, ptr }
%"class.dealii::SmartPointer.302" = type { ptr, ptr }
%"class.dealii::hp::QCollection" = type { %"class.dealii::Subscriptor", %"class.std::vector.160" }
%"class.std::vector.160" = type { %"struct.std::_Vector_base.161" }
%"struct.std::_Vector_base.161" = type { %"struct.std::_Vector_base<boost::shared_ptr<const dealii::Quadrature<3> >, std::allocator<boost::shared_ptr<const dealii::Quadrature<3> > > >::_Vector_impl" }
%"struct.std::_Vector_base<boost::shared_ptr<const dealii::Quadrature<3> >, std::allocator<boost::shared_ptr<const dealii::Quadrature<3> > > >::_Vector_impl" = type { %"struct.std::_Vector_base<boost::shared_ptr<const dealii::Quadrature<3> >, std::allocator<boost::shared_ptr<const dealii::Quadrature<3> > > >::_Vector_impl_data" }
%"struct.std::_Vector_base<boost::shared_ptr<const dealii::Quadrature<3> >, std::allocator<boost::shared_ptr<const dealii::Quadrature<3> > > >::_Vector_impl_data" = type { ptr, ptr, ptr }
%"class.dealii::Table.303" = type { %"class.dealii::TableBase.304" }
%"class.dealii::TableBase.304" = type { %"class.dealii::Subscriptor", ptr, i32, %"class.dealii::TableIndices.305" }
%"class.dealii::TableIndices.305" = type { %"class.dealii::TableIndicesBase.306" }
%"class.dealii::TableIndicesBase.306" = type { [3 x i32] }
%"class.dealii::hp::DoFHandler" = type { %"class.dealii::Subscriptor", %"class.dealii::Triangulation<3, 3>::RefinementListener", %"class.dealii::SmartPointer", %"class.dealii::SmartPointer.54", %"class.std::vector.55", ptr, i32, %"class.std::vector.28", %"class.std::vector.28", %"class.std::vector.60" }
%"class.dealii::Triangulation<3, 3>::RefinementListener" = type { ptr }
%"class.std::vector.55" = type { %"struct.std::_Vector_base.56" }
%"struct.std::_Vector_base.56" = type { %"struct.std::_Vector_base<dealii::internal::hp::DoFLevel<3> *, std::allocator<dealii::internal::hp::DoFLevel<3> *> >::_Vector_impl" }
%"struct.std::_Vector_base<dealii::internal::hp::DoFLevel<3> *, std::allocator<dealii::internal::hp::DoFLevel<3> *> >::_Vector_impl" = type { %"struct.std::_Vector_base<dealii::internal::hp::DoFLevel<3> *, std::allocator<dealii::internal::hp::DoFLevel<3> *> >::_Vector_impl_data" }
%"struct.std::_Vector_base<dealii::internal::hp::DoFLevel<3> *, std::allocator<dealii::internal::hp::DoFLevel<3> *> >::_Vector_impl_data" = type { ptr, ptr, ptr }
%"class.std::vector.60" = type { %"struct.std::_Vector_base.61" }
%"struct.std::_Vector_base.61" = type { %"struct.std::_Vector_base<std::vector<bool> *, std::allocator<std::vector<bool> *> >::_Vector_impl" }
%"struct.std::_Vector_base<std::vector<bool> *, std::allocator<std::vector<bool> *> >::_Vector_impl" = type { %"struct.std::_Vector_base<std::vector<bool> *, std::allocator<std::vector<bool> *> >::_Vector_impl_data" }
%"struct.std::_Vector_base<std::vector<bool> *, std::allocator<std::vector<bool> *> >::_Vector_impl_data" = type { ptr, ptr, ptr }
%"class.dealii::hp::FECollection" = type { %"class.dealii::Subscriptor", %"class.std::vector.141" }
%"class.std::vector.141" = type { %"struct.std::_Vector_base.142" }
%"struct.std::_Vector_base.142" = type { %"struct.std::_Vector_base<boost::shared_ptr<const dealii::FiniteElement<3, 3> >, std::allocator<boost::shared_ptr<const dealii::FiniteElement<3, 3> > > >::_Vector_impl" }
%"struct.std::_Vector_base<boost::shared_ptr<const dealii::FiniteElement<3, 3> >, std::allocator<boost::shared_ptr<const dealii::FiniteElement<3, 3> > > >::_Vector_impl" = type { %"struct.std::_Vector_base<boost::shared_ptr<const dealii::FiniteElement<3, 3> >, std::allocator<boost::shared_ptr<const dealii::FiniteElement<3, 3> > > >::_Vector_impl_data" }
%"struct.std::_Vector_base<boost::shared_ptr<const dealii::FiniteElement<3, 3> >, std::allocator<boost::shared_ptr<const dealii::FiniteElement<3, 3> > > >::_Vector_impl_data" = type { ptr, ptr, ptr }
%"class.dealii::SparseMatrix" = type <{ ptr, %"class.dealii::SmartPointer.33", ptr, i32, [4 x i8], %"class.dealii::Subscriptor" }>
%"class.dealii::SmartPointer.33" = type { ptr, ptr }
%"class.boost::shared_ptr.307" = type { ptr, %"class.boost::detail::shared_count" }
%"class.boost::_bi::bind_t.371" = type { %"class.boost::function.67", %"class.boost::_bi::list7.372" }
%"class.boost::_bi::list7.372" = type { %"struct.boost::_bi::storage7.373" }
%"struct.boost::_bi::storage7.373" = type { %"struct.boost::_bi::storage6.374", %"class.boost::reference_wrapper.271" }
%"struct.boost::_bi::storage6.374" = type { %"struct.boost::_bi::storage5.375", %"class.boost::_bi::value.383" }
%"struct.boost::_bi::storage5.375" = type { %"struct.boost::_bi::storage4.376", %"class.boost::_bi::value" }
%"struct.boost::_bi::storage4.376" = type { %"struct.boost::_bi::storage3.377", %"class.boost::reference_wrapper.269" }
%"struct.boost::_bi::storage3.377" = type { %"struct.boost::_bi::storage2.378", %"class.boost::reference_wrapper.382" }
%"struct.boost::_bi::storage2.378" = type { %"struct.boost::_bi::storage1.379", %"class.boost::reference_wrapper.381" }
%"struct.boost::_bi::storage1.379" = type { %"class.boost::reference_wrapper.380" }
%"class.boost::reference_wrapper.380" = type { ptr }
%"class.boost::reference_wrapper.381" = type { ptr }
%"class.boost::reference_wrapper.382" = type { ptr }
%"class.boost::_bi::value.383" = type { %"struct.dealii::MatrixCreator::IteratorRange.65" }
%"class.dealii::Threads::internal::fun_encapsulator.76" = type { %"class.boost::function.77" }
%"class.boost::function.77" = type { %"class.boost::function9.78" }
%"class.boost::function9.78" = type { %"class.boost::function_base" }
%"class.boost::_bi::bind_t.384" = type { %"class.boost::function.77", %"class.boost::_bi::list9.385" }
%"class.boost::_bi::list9.385" = type { %"struct.boost::_bi::storage9.386" }
%"struct.boost::_bi::storage9.386" = type { %"struct.boost::_bi::storage8.387", %"class.boost::reference_wrapper.271" }
%"struct.boost::_bi::storage8.387" = type { %"struct.boost::_bi::storage7.388", %"class.boost::_bi::value.383" }
%"struct.boost::_bi::storage7.388" = type { %"struct.boost::_bi::storage6.389", %"class.boost::_bi::value" }
%"struct.boost::_bi::storage6.389" = type { %"struct.boost::_bi::storage5.390", %"class.boost::reference_wrapper.281" }
%"struct.boost::_bi::storage5.390" = type { %"struct.boost::_bi::storage4.376", %"class.boost::reference_wrapper.280" }
%"class.dealii::Threads::internal::fun_encapsulator.79" = type { %"class.boost::function.80" }
%"class.boost::function.80" = type { %"class.boost::function7.81" }
%"class.boost::function7.81" = type { %"class.boost::function_base" }
%"class.dealii::SparseMatrix.39" = type <{ ptr, %"class.dealii::SmartPointer.33", ptr, i32, [4 x i8], %"class.dealii::Subscriptor" }>
%"class.boost::_bi::bind_t.391" = type { %"class.boost::function.80", %"class.boost::_bi::list7.392" }
%"class.boost::_bi::list7.392" = type { %"struct.boost::_bi::storage7.393" }
%"struct.boost::_bi::storage7.393" = type { %"struct.boost::_bi::storage6.394", %"class.boost::reference_wrapper.271" }
%"struct.boost::_bi::storage6.394" = type { %"struct.boost::_bi::storage5.395", %"class.boost::_bi::value.383" }
%"struct.boost::_bi::storage5.395" = type { %"struct.boost::_bi::storage4.396", %"class.boost::_bi::value" }
%"struct.boost::_bi::storage4.396" = type { %"struct.boost::_bi::storage3.377", %"class.boost::reference_wrapper.294" }
%"class.dealii::Threads::internal::fun_encapsulator.82" = type { %"class.boost::function.83" }
%"class.boost::function.83" = type { %"class.boost::function9.84" }
%"class.boost::function9.84" = type { %"class.boost::function_base" }
%"class.boost::_bi::bind_t.397" = type { %"class.boost::function.83", %"class.boost::_bi::list9.398" }
%"class.boost::_bi::list9.398" = type { %"struct.boost::_bi::storage9.399" }
%"struct.boost::_bi::storage9.399" = type { %"struct.boost::_bi::storage8.400", %"class.boost::reference_wrapper.271" }
%"struct.boost::_bi::storage8.400" = type { %"struct.boost::_bi::storage7.401", %"class.boost::_bi::value.383" }
%"struct.boost::_bi::storage7.401" = type { %"struct.boost::_bi::storage6.402", %"class.boost::_bi::value" }
%"struct.boost::_bi::storage6.402" = type { %"struct.boost::_bi::storage5.403", %"class.boost::reference_wrapper.281" }
%"struct.boost::_bi::storage5.403" = type { %"struct.boost::_bi::storage4.396", %"class.boost::reference_wrapper.280" }
%"class.dealii::Threads::internal::fun_encapsulator.138" = type { %"class.boost::function.139" }
%"class.boost::function.139" = type { %"class.boost::function9.140" }
%"class.boost::function9.140" = type { %"class.boost::function_base" }
%"class.boost::tuples::tuple" = type { %"struct.boost::tuples::cons" }
%"struct.boost::tuples::cons" = type { ptr, %"struct.boost::tuples::cons.136" }
%"struct.boost::tuples::cons.136" = type { ptr, %"struct.boost::tuples::cons.137" }
%"struct.boost::tuples::cons.137" = type { ptr }
%"class.dealii::FEFaceValues" = type { %"class.dealii::FEFaceValuesBase" }
%"class.dealii::FEFaceValuesBase" = type { %"class.dealii::FEValuesBase", i32, %"class.dealii::Quadrature.85" }
%"class.dealii::Quadrature.85" = type { %"class.dealii::Subscriptor", i32, %"class.std::vector.87", %"class.std::vector.92" }
%"class.dealii::TriaIterator.411" = type { %"class.dealii::TriaRawIterator.412" }
%"class.dealii::TriaRawIterator.412" = type { %"class.dealii::DoFAccessor.410" }
%"class.dealii::DoFAccessor.410" = type { %"class.dealii::TriaAccessor.317", ptr }
%"class.dealii::TriaAccessor.317" = type { %"class.dealii::TriaAccessorBase.318" }
%"class.dealii::TriaAccessorBase.318" = type { i32, ptr }
%"struct.std::_Rb_tree_node" = type { %"struct.std::_Rb_tree_node_base", %"struct.std::pair.405" }
%"struct.std::pair.405" = type { i8, ptr }
%"class.dealii::internal::Triangulation::TriaObject" = type { [6 x i32] }
%"class.dealii::internal::Triangulation::TriaObjects.329" = type <{ %"class.std::vector.330", %"class.std::vector.111", %"class.std::vector.335", %"class.std::vector.126", %"class.std::vector.126", %"class.std::vector.183", i32, i32, i8, [7 x i8], %"class.std::vector.340", i32, [4 x i8] }>
%"class.std::vector.330" = type { %"struct.std::_Vector_base.331" }
%"struct.std::_Vector_base.331" = type { %"struct.std::_Vector_base<dealii::internal::Triangulation::TriaObject<2>, std::allocator<dealii::internal::Triangulation::TriaObject<2> > >::_Vector_impl" }
%"struct.std::_Vector_base<dealii::internal::Triangulation::TriaObject<2>, std::allocator<dealii::internal::Triangulation::TriaObject<2> > >::_Vector_impl" = type { %"struct.std::_Vector_base<dealii::internal::Triangulation::TriaObject<2>, std::allocator<dealii::internal::Triangulation::TriaObject<2> > >::_Vector_impl_data" }
%"struct.std::_Vector_base<dealii::internal::Triangulation::TriaObject<2>, std::allocator<dealii::internal::Triangulation::TriaObject<2> > >::_Vector_impl_data" = type { ptr, ptr, ptr }
%"class.std::vector.335" = type { %"struct.std::_Vector_base.336" }
%"struct.std::_Vector_base.336" = type { %"struct.std::_Vector_base<dealii::RefinementCase<2>, std::allocator<dealii::RefinementCase<2> > >::_Vector_impl" }
%"struct.std::_Vector_base<dealii::RefinementCase<2>, std::allocator<dealii::RefinementCase<2> > >::_Vector_impl" = type { %"struct.std::_Vector_base<dealii::RefinementCase<2>, std::allocator<dealii::RefinementCase<2> > >::_Vector_impl_data" }
%"struct.std::_Vector_base<dealii::RefinementCase<2>, std::allocator<dealii::RefinementCase<2> > >::_Vector_impl_data" = type { ptr, ptr, ptr }
%"class.std::vector.340" = type { %"struct.std::_Vector_base.341" }
%"struct.std::_Vector_base.341" = type { %"struct.std::_Vector_base<dealii::internal::Triangulation::TriaObjects<dealii::internal::Triangulation::TriaObject<2> >::UserData, std::allocator<dealii::internal::Triangulation::TriaObjects<dealii::internal::Triangulation::TriaObject<2> >::UserData> >::_Vector_impl" }
%"struct.std::_Vector_base<dealii::internal::Triangulation::TriaObjects<dealii::internal::Triangulation::TriaObject<2> >::UserData, std::allocator<dealii::internal::Triangulation::TriaObjects<dealii::internal::Triangulation::TriaObject<2> >::UserData> >::_Vector_impl" = type { %"struct.std::_Vector_base<dealii::internal::Triangulation::TriaObjects<dealii::internal::Triangulation::TriaObject<2> >::UserData, std::allocator<dealii::internal::Triangulation::TriaObjects<dealii::internal::Triangulation::TriaObject<2> >::UserData> >::_Vector_impl_data" }
%"struct.std::_Vector_base<dealii::internal::Triangulation::TriaObjects<dealii::internal::Triangulation::TriaObject<2> >::UserData, std::allocator<dealii::internal::Triangulation::TriaObjects<dealii::internal::Triangulation::TriaObject<2> >::UserData> >::_Vector_impl_data" = type { ptr, ptr, ptr }
%"struct.std::pair.420" = type { %"struct.std::pair.263", i32 }
%"class.dealii::Point" = type { %"class.dealii::Tensor" }
%"class.dealii::Tensor" = type { [3 x double] }
%"class.boost::_bi::bind_t.429" = type { %"class.boost::function.139", %"class.boost::_bi::list9.430" }
%"class.boost::_bi::list9.430" = type { %"struct.boost::_bi::storage9.431" }
%"struct.boost::_bi::storage9.431" = type { %"struct.boost::_bi::storage8.432", %"class.boost::reference_wrapper.271" }
%"struct.boost::_bi::storage8.432" = type { %"struct.boost::_bi::storage7.433", %"class.boost::_bi::value.270" }
%"struct.boost::_bi::storage7.433" = type { %"struct.boost::_bi::storage6.434", %"class.boost::reference_wrapper.443" }
%"struct.boost::_bi::storage6.434" = type { %"struct.boost::_bi::storage5.435", %"class.boost::_bi::value" }
%"struct.boost::_bi::storage5.435" = type { %"struct.boost::_bi::storage4.436", %"class.boost::reference_wrapper.442" }
%"struct.boost::_bi::storage4.436" = type { %"struct.boost::_bi::storage3.437", %"class.boost::reference_wrapper.281" }
%"struct.boost::_bi::storage3.437" = type { %"struct.boost::_bi::storage2.438", %"class.boost::reference_wrapper.441" }
%"struct.boost::_bi::storage2.438" = type { %"struct.boost::_bi::storage1.439", %"class.boost::reference_wrapper.269" }
%"struct.boost::_bi::storage1.439" = type { %"class.boost::_bi::value.440" }
%"class.boost::_bi::value.440" = type { %"class.boost::tuples::tuple" }
%"class.boost::reference_wrapper.441" = type { ptr }
%"class.boost::reference_wrapper.442" = type { ptr }
%"class.boost::reference_wrapper.443" = type { ptr }
%"class.dealii::Threads::internal::fun_encapsulator.150" = type { %"class.boost::function.151" }
%"class.boost::function.151" = type { %"class.boost::function9.152" }
%"class.boost::function9.152" = type { %"class.boost::function_base" }
%"class.boost::tuples::tuple.146" = type { %"struct.boost::tuples::cons.147" }
%"struct.boost::tuples::cons.147" = type { ptr, %"struct.boost::tuples::cons.148" }
%"struct.boost::tuples::cons.148" = type { ptr, %"struct.boost::tuples::cons.149" }
%"struct.boost::tuples::cons.149" = type { ptr }
%"class.dealii::hp::FEFaceValues" = type { %"class.dealii::internal::hp::FEValuesBase.444" }
%"class.dealii::internal::hp::FEValuesBase.444" = type { %"class.dealii::SmartPointer.54", %"class.dealii::SmartPointer.302", %"class.dealii::hp::QCollection.153", %"class.dealii::Table.445", %"class.dealii::TableIndices.305", i32 }
%"class.dealii::hp::QCollection.153" = type { %"class.dealii::Subscriptor", %"class.std::vector.154" }
%"class.std::vector.154" = type { %"struct.std::_Vector_base.155" }
%"struct.std::_Vector_base.155" = type { %"struct.std::_Vector_base<boost::shared_ptr<const dealii::Quadrature<2> >, std::allocator<boost::shared_ptr<const dealii::Quadrature<2> > > >::_Vector_impl" }
%"struct.std::_Vector_base<boost::shared_ptr<const dealii::Quadrature<2> >, std::allocator<boost::shared_ptr<const dealii::Quadrature<2> > > >::_Vector_impl" = type { %"struct.std::_Vector_base<boost::shared_ptr<const dealii::Quadrature<2> >, std::allocator<boost::shared_ptr<const dealii::Quadrature<2> > > >::_Vector_impl_data" }
%"struct.std::_Vector_base<boost::shared_ptr<const dealii::Quadrature<2> >, std::allocator<boost::shared_ptr<const dealii::Quadrature<2> > > >::_Vector_impl_data" = type { ptr, ptr, ptr }
%"class.dealii::Table.445" = type { %"class.dealii::TableBase.446" }
%"class.dealii::TableBase.446" = type { %"class.dealii::Subscriptor", ptr, i32, %"class.dealii::TableIndices.305" }
%"class.dealii::TriaIterator.319" = type { %"class.dealii::TriaRawIterator.320" }
%"class.dealii::TriaRawIterator.320" = type { %"class.dealii::DoFAccessor.316" }
%"class.dealii::DoFAccessor.316" = type { %"class.dealii::TriaAccessor.317", ptr }
%"class.boost::shared_ptr.322" = type { ptr, %"class.boost::detail::shared_count" }
%"struct.std::_Bit_iterator_base" = type <{ ptr, i32, [4 x i8] }>
%"class.boost::shared_ptr.447" = type { ptr, %"class.boost::detail::shared_count" }
%"class.boost::_bi::bind_t.449" = type { %"class.boost::function.151", %"class.boost::_bi::list9.450" }
%"class.boost::_bi::list9.450" = type { %"struct.boost::_bi::storage9.451" }
%"struct.boost::_bi::storage9.451" = type { %"struct.boost::_bi::storage8.452", %"class.boost::reference_wrapper.271" }
%"struct.boost::_bi::storage8.452" = type { %"struct.boost::_bi::storage7.453", %"class.boost::_bi::value.383" }
%"struct.boost::_bi::storage7.453" = type { %"struct.boost::_bi::storage6.454", %"class.boost::reference_wrapper.443" }
%"struct.boost::_bi::storage6.454" = type { %"struct.boost::_bi::storage5.455", %"class.boost::_bi::value" }
%"struct.boost::_bi::storage5.455" = type { %"struct.boost::_bi::storage4.456", %"class.boost::reference_wrapper.442" }
%"struct.boost::_bi::storage4.456" = type { %"struct.boost::_bi::storage3.457", %"class.boost::reference_wrapper.281" }
%"struct.boost::_bi::storage3.457" = type { %"struct.boost::_bi::storage2.458", %"class.boost::reference_wrapper.441" }
%"struct.boost::_bi::storage2.458" = type { %"struct.boost::_bi::storage1.459", %"class.boost::reference_wrapper.269" }
%"struct.boost::_bi::storage1.459" = type { %"class.boost::_bi::value.460" }
%"class.boost::_bi::value.460" = type { %"class.boost::tuples::tuple.146" }
%"struct.boost::detail::function::function_buffer::type_t" = type { ptr, i8, i8 }
%"class.std::type_info" = type { ptr, ptr }
%"class.boost::detail::sp_counted_impl_p" = type { %"class.boost::detail::sp_counted_base", ptr }
%"class.std::__cxx11::basic_string" = type { %"struct.std::__cxx11::basic_string<char>::_Alloc_hider", i64, %union.anon.275 }
%"struct.std::__cxx11::basic_string<char>::_Alloc_hider" = type { ptr }
%union.anon.275 = type { i64, [8 x i8] }
%"class.boost::bad_function_call" = type { %"class.std::runtime_error" }
%"class.std::runtime_error" = type { %"class.std::exception", %"struct.std::__cow_string" }
%"class.std::exception" = type { ptr }
%"struct.std::__cow_string" = type { %union.anon }
%union.anon = type { ptr }
%"struct.boost::exception_detail::error_info_injector" = type <{ %"class.boost::bad_function_call", %"class.boost::exception.base", [4 x i8] }>
%"class.boost::exception.base" = type <{ ptr, %"class.boost::exception_detail::refcount_ptr", ptr, ptr, i32 }>
%"class.boost::exception_detail::refcount_ptr" = type { ptr }
%"class.dealii::Threads::Thread<>::ExcNoThread" = type { %"class.dealii::ExceptionBase.base", [4 x i8] }
%"class.dealii::ExceptionBase.base" = type <{ %"class.std::exception", ptr, i32, [4 x i8], ptr, ptr, ptr, ptr, i32 }>
%"class.dealii::internal::Triangulation::TriaObject.346" = type { [4 x i32] }
%"class.dealii::internal::Triangulation::TriaObjectsQuad3D" = type { %"class.dealii::internal::Triangulation::TriaObjects.base.345", %"class.std::vector.126" }
%"class.dealii::internal::Triangulation::TriaObjects.base.345" = type <{ %"class.std::vector.330", %"class.std::vector.111", %"class.std::vector.335", %"class.std::vector.126", %"class.std::vector.126", %"class.std::vector.183", i32, i32, i8, [7 x i8], %"class.std::vector.340", i32 }>
%"class.dealii::internal::Triangulation::TriaFaces" = type { %"class.dealii::internal::Triangulation::TriaObjectsQuad3D", %"class.dealii::internal::Triangulation::TriaObjects.347" }
%"class.dealii::internal::Triangulation::TriaObjects.347" = type <{ %"class.std::vector.348", %"class.std::vector.111", %"class.std::vector.353", %"class.std::vector.126", %"class.std::vector.126", %"class.std::vector.183", i32, i32, i8, [7 x i8], %"class.std::vector.358", i32, [4 x i8] }>
%"class.std::vector.348" = type { %"struct.std::_Vector_base.349" }
%"struct.std::_Vector_base.349" = type { %"struct.std::_Vector_base<dealii::internal::Triangulation::TriaObject<1>, std::allocator<dealii::internal::Triangulation::TriaObject<1> > >::_Vector_impl" }
%"struct.std::_Vector_base<dealii::internal::Triangulation::TriaObject<1>, std::allocator<dealii::internal::Triangulation::TriaObject<1> > >::_Vector_impl" = type { %"struct.std::_Vector_base<dealii::internal::Triangulation::TriaObject<1>, std::allocator<dealii::internal::Triangulation::TriaObject<1> > >::_Vector_impl_data" }
%"struct.std::_Vector_base<dealii::internal::Triangulation::TriaObject<1>, std::allocator<dealii::internal::Triangulation::TriaObject<1> > >::_Vector_impl_data" = type { ptr, ptr, ptr }
%"class.std::vector.353" = type { %"struct.std::_Vector_base.354" }
%"struct.std::_Vector_base.354" = type { %"struct.std::_Vector_base<dealii::RefinementCase<1>, std::allocator<dealii::RefinementCase<1> > >::_Vector_impl" }
%"struct.std::_Vector_base<dealii::RefinementCase<1>, std::allocator<dealii::RefinementCase<1> > >::_Vector_impl" = type { %"struct.std::_Vector_base<dealii::RefinementCase<1>, std::allocator<dealii::RefinementCase<1> > >::_Vector_impl_data" }
%"struct.std::_Vector_base<dealii::RefinementCase<1>, std::allocator<dealii::RefinementCase<1> > >::_Vector_impl_data" = type { ptr, ptr, ptr }
%"class.std::vector.358" = type { %"struct.std::_Vector_base.359" }
%"struct.std::_Vector_base.359" = type { %"struct.std::_Vector_base<dealii::internal::Triangulation::TriaObjects<dealii::internal::Triangulation::TriaObject<1> >::UserData, std::allocator<dealii::internal::Triangulation::TriaObjects<dealii::internal::Triangulation::TriaObject<1> >::UserData> >::_Vector_impl" }
%"struct.std::_Vector_base<dealii::internal::Triangulation::TriaObjects<dealii::internal::Triangulation::TriaObject<1> >::UserData, std::allocator<dealii::internal::Triangulation::TriaObjects<dealii::internal::Triangulation::TriaObject<1> >::UserData> >::_Vector_impl" = type { %"struct.std::_Vector_base<dealii::internal::Triangulation::TriaObjects<dealii::internal::Triangulation::TriaObject<1> >::UserData, std::allocator<dealii::internal::Triangulation::TriaObjects<dealii::internal::Triangulation::TriaObject<1> >::UserData> >::_Vector_impl_data" }
%"struct.std::_Vector_base<dealii::internal::Triangulation::TriaObjects<dealii::internal::Triangulation::TriaObject<1> >::UserData, std::allocator<dealii::internal::Triangulation::TriaObjects<dealii::internal::Triangulation::TriaObject<1> >::UserData> >::_Vector_impl_data" = type { ptr, ptr, ptr }
%"class.dealii::internal::Triangulation::TriaObject.364" = type { [2 x i32] }
%"class.dealii::internal::hp::DoFObjects" = type { %"class.std::vector.28", %"class.std::vector.28" }
%"class.dealii::internal::hp::DoFFaces" = type { %"class.dealii::internal::hp::DoFObjects", %"class.dealii::internal::hp::DoFObjects.366" }
%"class.dealii::internal::hp::DoFObjects.366" = type { %"class.std::vector.28", %"class.std::vector.28" }
%"class.dealii::internal::hp::DoFLevel" = type { %"class.dealii::internal::hp::DoFLevel.368", %"class.dealii::internal::hp::DoFObjects.369" }
%"class.dealii::internal::hp::DoFLevel.368" = type { %"class.std::vector.28" }
%"class.dealii::internal::hp::DoFObjects.369" = type { %"class.std::vector.28", %"class.std::vector.28" }
%"class.boost::shared_ptr.370" = type { ptr, %"class.boost::detail::shared_count" }
%"class.dealii::internal::DoFHandler::DoFFaces" = type { %"class.dealii::internal::DoFHandler::DoFObjects.426", %"class.dealii::internal::DoFHandler::DoFObjects.427" }
%"class.dealii::internal::DoFHandler::DoFObjects.426" = type { %"class.std::vector.28" }
%"class.dealii::internal::DoFHandler::DoFObjects.427" = type { %"class.std::vector.28" }
%"class.boost::shared_ptr.448" = type { ptr, %"class.boost::detail::shared_count" }

$_ZN6dealii13MatrixCreator18create_mass_matrixILi3EdLi3EEEvRKNS_7MappingIXT_EXT1_EEERKNS_10DoFHandlerIXT_EXT1_EEERKNS_10QuadratureIXT_EEERNS_12SparseMatrixIT0_EEPKNS_8FunctionIXT1_EEE = comdat any

$_ZN6dealii7Threads11split_rangeINS_18TriaActiveIteratorINS_15DoFCellAccessorINS_10DoFHandlerILi3ELi3EEEEEEEEESt6vectorISt4pairIT_SA_ESaISB_EERKSA_SF_j = comdat any

$_ZN6dealii13MatrixCreator20create_mass_matrix_1ILi3EdLi3EEEvRKNS_7MappingIXT_EXT1_EEERKNS_10DoFHandlerIXT_EXT1_EEERKNS_10QuadratureIXT_EEERNS_12SparseMatrixIT0_EEPKNS_8FunctionIXT1_EEENS0_13IteratorRangeIS7_EERNS_7Threads16DummyThreadMutexE = comdat any

$_ZN6dealii7Threads8internal16fun_encapsulatorIvN5boost6tuples5tupleIRKNS_7MappingILi3ELi3EEERKNS_10DoFHandlerILi3ELi3EEERKNS_10QuadratureILi3EEERNS_12SparseMatrixIdEEPKNS_8FunctionILi3EEENS_13MatrixCreator13IteratorRangeISB_EERNS0_16DummyThreadMutexENS4_9null_typeESU_SU_EELi7EEclES9_SD_SH_SK_SO_SR_ST_ = comdat any

$_ZN6dealii7Threads6ThreadIvED2Ev = comdat any

$__clang_call_terminate = comdat any

$_ZN6dealii7Threads11ThreadGroupIvED2Ev = comdat any

$_ZN6dealii13MatrixCreator18create_mass_matrixILi3EdLi3EEEvRKNS_10DoFHandlerIXT_EXT1_EEERKNS_10QuadratureIXT_EEERNS_12SparseMatrixIT0_EEPKNS_8FunctionIXT1_EEE = comdat any

$_ZN6dealii13MatrixCreator18create_mass_matrixILi3EdLi3EEEvRKNS_7MappingIXT_EXT1_EEERKNS_10DoFHandlerIXT_EXT1_EEERKNS_10QuadratureIXT_EEERNS_12SparseMatrixIT0_EERKNS_8FunctionIXT1_EEERNS_6VectorIdEEPSK_ = comdat any

$_ZN6dealii13MatrixCreator20create_mass_matrix_2ILi3EdLi3EEEvRKNS_7MappingIXT_EXT1_EEERKNS_10DoFHandlerIXT_EXT1_EEERKNS_10QuadratureIXT_EEERNS_12SparseMatrixIT0_EERKNS_8FunctionIXT1_EEERNS_6VectorIdEEPSK_NS0_13IteratorRangeIS7_EERNS_7Threads16DummyThreadMutexE = comdat any

$_ZN6dealii7Threads8internal16fun_encapsulatorIvN5boost6tuples5tupleIRKNS_7MappingILi3ELi3EEERKNS_10DoFHandlerILi3ELi3EEERKNS_10QuadratureILi3EEERNS_12SparseMatrixIdEERKNS_8FunctionILi3EEERNS_6VectorIdEEPSN_NS_13MatrixCreator13IteratorRangeISB_EERNS0_16DummyThreadMutexENS4_9null_typeEEELi9EEclES9_SD_SH_SK_SO_SR_SS_SV_SX_ = comdat any

$_ZN6dealii13MatrixCreator18create_mass_matrixILi3EdLi3EEEvRKNS_10DoFHandlerIXT_EXT1_EEERKNS_10QuadratureIXT_EEERNS_12SparseMatrixIT0_EERKNS_8FunctionIXT1_EEERNS_6VectorIdEEPSG_ = comdat any

$_ZN6dealii13MatrixCreator18create_mass_matrixILi3EfLi3EEEvRKNS_7MappingIXT_EXT1_EEERKNS_10DoFHandlerIXT_EXT1_EEERKNS_10QuadratureIXT_EEERNS_12SparseMatrixIT0_EEPKNS_8FunctionIXT1_EEE = comdat any

$_ZN6dealii13MatrixCreator20create_mass_matrix_1ILi3EfLi3EEEvRKNS_7MappingIXT_EXT1_EEERKNS_10DoFHandlerIXT_EXT1_EEERKNS_10QuadratureIXT_EEERNS_12SparseMatrixIT0_EEPKNS_8FunctionIXT1_EEENS0_13IteratorRangeIS7_EERNS_7Threads16DummyThreadMutexE = comdat any

$_ZN6dealii7Threads8internal16fun_encapsulatorIvN5boost6tuples5tupleIRKNS_7MappingILi3ELi3EEERKNS_10DoFHandlerILi3ELi3EEERKNS_10QuadratureILi3EEERNS_12SparseMatrixIfEEPKNS_8FunctionILi3EEENS_13MatrixCreator13IteratorRangeISB_EERNS0_16DummyThreadMutexENS4_9null_typeESU_SU_EELi7EEclES9_SD_SH_SK_SO_SR_ST_ = comdat any

$_ZN6dealii13MatrixCreator18create_mass_matrixILi3EfLi3EEEvRKNS_10DoFHandlerIXT_EXT1_EEERKNS_10QuadratureIXT_EEERNS_12SparseMatrixIT0_EEPKNS_8FunctionIXT1_EEE = comdat any

$_ZN6dealii13MatrixCreator18create_mass_matrixILi3EfLi3EEEvRKNS_7MappingIXT_EXT1_EEERKNS_10DoFHandlerIXT_EXT1_EEERKNS_10QuadratureIXT_EEERNS_12SparseMatrixIT0_EERKNS_8FunctionIXT1_EEERNS_6VectorIdEEPSK_ = comdat any

$_ZN6dealii13MatrixCreator20create_mass_matrix_2ILi3EfLi3EEEvRKNS_7MappingIXT_EXT1_EEERKNS_10DoFHandlerIXT_EXT1_EEERKNS_10QuadratureIXT_EEERNS_12SparseMatrixIT0_EERKNS_8FunctionIXT1_EEERNS_6VectorIdEEPSK_NS0_13IteratorRangeIS7_EERNS_7Threads16DummyThreadMutexE = comdat any

$_ZN6dealii7Threads8internal16fun_encapsulatorIvN5boost6tuples5tupleIRKNS_7MappingILi3ELi3EEERKNS_10DoFHandlerILi3ELi3EEERKNS_10QuadratureILi3EEERNS_12SparseMatrixIfEERKNS_8FunctionILi3EEERNS_6VectorIdEEPSN_NS_13MatrixCreator13IteratorRangeISB_EERNS0_16DummyThreadMutexENS4_9null_typeEEELi9EEclES9_SD_SH_SK_SO_SR_SS_SV_SX_ = comdat any

$_ZN6dealii13MatrixCreator18create_mass_matrixILi3EfLi3EEEvRKNS_10DoFHandlerIXT_EXT1_EEERKNS_10QuadratureIXT_EEERNS_12SparseMatrixIT0_EERKNS_8FunctionIXT1_EEERNS_6VectorIdEEPSG_ = comdat any

$_ZN6dealii13MatrixCreator18create_mass_matrixILi3EdLi3EEEvRKNS_2hp17MappingCollectionIXT_EXT1_EEERKNS2_10DoFHandlerIXT_EXT1_EEERKNS2_11QCollectionIXT_EEERNS_12SparseMatrixIT0_EEPKNS_8FunctionIXT1_EEE = comdat any

$_ZN6dealii7Threads11split_rangeINS_18TriaActiveIteratorINS_15DoFCellAccessorINS_2hp10DoFHandlerILi3ELi3EEEEEEEEESt6vectorISt4pairIT_SB_ESaISC_EERKSB_SG_j = comdat any

$_ZN6dealii13MatrixCreator20create_mass_matrix_1ILi3EdLi3EEEvRKNS_2hp17MappingCollectionIXT_EXT1_EEERKNS2_10DoFHandlerIXT_EXT1_EEERKNS2_11QCollectionIXT_EEERNS_12SparseMatrixIT0_EEPKNS_8FunctionIXT1_EEENS0_13IteratorRangeIS8_EERNS_7Threads16DummyThreadMutexE = comdat any

$_ZN6dealii7Threads8internal16fun_encapsulatorIvN5boost6tuples5tupleIRKNS_2hp17MappingCollectionILi3ELi3EEERKNS6_10DoFHandlerILi3ELi3EEERKNS6_11QCollectionILi3EEERNS_12SparseMatrixIdEEPKNS_8FunctionILi3EEENS_13MatrixCreator13IteratorRangeISC_EERNS0_16DummyThreadMutexENS4_9null_typeESV_SV_EELi7EEclESA_SE_SI_SL_SP_SS_SU_ = comdat any

$_ZN6dealii13MatrixCreator18create_mass_matrixILi3EdLi3EEEvRKNS_2hp10DoFHandlerIXT_EXT1_EEERKNS2_11QCollectionIXT_EEERNS_12SparseMatrixIT0_EEPKNS_8FunctionIXT1_EEE = comdat any

$_ZN6dealii13MatrixCreator18create_mass_matrixILi3EdLi3EEEvRKNS_2hp17MappingCollectionIXT_EXT1_EEERKNS2_10DoFHandlerIXT_EXT1_EEERKNS2_11QCollectionIXT_EEERNS_12SparseMatrixIT0_EERKNS_8FunctionIXT1_EEERNS_6VectorIdEEPSL_ = comdat any

$_ZN6dealii13MatrixCreator20create_mass_matrix_2ILi3EdLi3EEEvRKNS_2hp17MappingCollectionIXT_EXT1_EEERKNS2_10DoFHandlerIXT_EXT1_EEERKNS2_11QCollectionIXT_EEERNS_12SparseMatrixIT0_EERKNS_8FunctionIXT1_EEERNS_6VectorIdEEPSL_NS0_13IteratorRangeIS8_EERNS_7Threads16DummyThreadMutexE = comdat any

$_ZN6dealii7Threads8internal16fun_encapsulatorIvN5boost6tuples5tupleIRKNS_2hp17MappingCollectionILi3ELi3EEERKNS6_10DoFHandlerILi3ELi3EEERKNS6_11QCollectionILi3EEERNS_12SparseMatrixIdEERKNS_8FunctionILi3EEERNS_6VectorIdEEPSO_NS_13MatrixCreator13IteratorRangeISC_EERNS0_16DummyThreadMutexENS4_9null_typeEEELi9EEclESA_SE_SI_SL_SP_SS_ST_SW_SY_ = comdat any

$_ZN6dealii13MatrixCreator18create_mass_matrixILi3EdLi3EEEvRKNS_2hp10DoFHandlerIXT_EXT1_EEERKNS2_11QCollectionIXT_EEERNS_12SparseMatrixIT0_EERKNS_8FunctionIXT1_EEERNS_6VectorIdEEPSH_ = comdat any

$_ZN6dealii13MatrixCreator18create_mass_matrixILi3EfLi3EEEvRKNS_2hp17MappingCollectionIXT_EXT1_EEERKNS2_10DoFHandlerIXT_EXT1_EEERKNS2_11QCollectionIXT_EEERNS_12SparseMatrixIT0_EEPKNS_8FunctionIXT1_EEE = comdat any

$_ZN6dealii13MatrixCreator20create_mass_matrix_1ILi3EfLi3EEEvRKNS_2hp17MappingCollectionIXT_EXT1_EEERKNS2_10DoFHandlerIXT_EXT1_EEERKNS2_11QCollectionIXT_EEERNS_12SparseMatrixIT0_EEPKNS_8FunctionIXT1_EEENS0_13IteratorRangeIS8_EERNS_7Threads16DummyThreadMutexE = comdat any

$_ZN6dealii7Threads8internal16fun_encapsulatorIvN5boost6tuples5tupleIRKNS_2hp17MappingCollectionILi3ELi3EEERKNS6_10DoFHandlerILi3ELi3EEERKNS6_11QCollectionILi3EEERNS_12SparseMatrixIfEEPKNS_8FunctionILi3EEENS_13MatrixCreator13IteratorRangeISC_EERNS0_16DummyThreadMutexENS4_9null_typeESV_SV_EELi7EEclESA_SE_SI_SL_SP_SS_SU_ = comdat any

$_ZN6dealii13MatrixCreator18create_mass_matrixILi3EfLi3EEEvRKNS_2hp10DoFHandlerIXT_EXT1_EEERKNS2_11QCollectionIXT_EEERNS_12SparseMatrixIT0_EEPKNS_8FunctionIXT1_EEE = comdat any

$_ZN6dealii13MatrixCreator18create_mass_matrixILi3EfLi3EEEvRKNS_2hp17MappingCollectionIXT_EXT1_EEERKNS2_10DoFHandlerIXT_EXT1_EEERKNS2_11QCollectionIXT_EEERNS_12SparseMatrixIT0_EERKNS_8FunctionIXT1_EEERNS_6VectorIdEEPSL_ = comdat any

$_ZN6dealii13MatrixCreator20create_mass_matrix_2ILi3EfLi3EEEvRKNS_2hp17MappingCollectionIXT_EXT1_EEERKNS2_10DoFHandlerIXT_EXT1_EEERKNS2_11QCollectionIXT_EEERNS_12SparseMatrixIT0_EERKNS_8FunctionIXT1_EEERNS_6VectorIdEEPSL_NS0_13IteratorRangeIS8_EERNS_7Threads16DummyThreadMutexE = comdat any

$_ZN6dealii7Threads8internal16fun_encapsulatorIvN5boost6tuples5tupleIRKNS_2hp17MappingCollectionILi3ELi3EEERKNS6_10DoFHandlerILi3ELi3EEERKNS6_11QCollectionILi3EEERNS_12SparseMatrixIfEERKNS_8FunctionILi3EEERNS_6VectorIdEEPSO_NS_13MatrixCreator13IteratorRangeISC_EERNS0_16DummyThreadMutexENS4_9null_typeEEELi9EEclESA_SE_SI_SL_SP_SS_ST_SW_SY_ = comdat any

$_ZN6dealii13MatrixCreator18create_mass_matrixILi3EfLi3EEEvRKNS_2hp10DoFHandlerIXT_EXT1_EEERKNS2_11QCollectionIXT_EEERNS_12SparseMatrixIT0_EERKNS_8FunctionIXT1_EEERNS_6VectorIdEEPSH_ = comdat any

$_ZN6dealii13MatrixCreator27create_boundary_mass_matrixILi3ELi3EEEvRKNS_10DoFHandlerIXT_EXT0_EEERKNS_10QuadratureIXmiT_Li1EEEERNS_12SparseMatrixIdEERKNS_11FunctionMapIXT0_EE4typeERNS_6VectorIdEERSt6vectorIjSaIjEEPKNS_8FunctionIXT0_EEESN_ = comdat any

$_ZN6dealii13MatrixCreator27create_boundary_mass_matrixILi3ELi3EEEvRKNS_7MappingIXT_EXT0_EEERKNS_10DoFHandlerIXT_EXT0_EEERKNS_10QuadratureIXmiT_Li1EEEERNS_12SparseMatrixIdEERKNS_11FunctionMapIXT0_EE4typeERNS_6VectorIdEERSt6vectorIjSaIjEEPKNS_8FunctionIXT0_EEESR_ = comdat any

$_ZN6dealii13MatrixCreator29create_boundary_mass_matrix_1ILi3ELi3EEEvN5boost6tuples5tupleIRKNS_7MappingIXT_EXT0_EEERKNS_10DoFHandlerIXT_EXT0_EEERKNS_10QuadratureIXmiT_Li1EEEENS3_9null_typeESH_SH_SH_SH_SH_SH_EERNS_12SparseMatrixIdEERKNS_11FunctionMapIXT0_EE4typeERNS_6VectorIdEERSt6vectorIjSaIjEEPKNS_8FunctionIXT0_EEERKSW_NS0_13IteratorRangeISA_EERNS_7Threads16DummyThreadMutexE = comdat any

$_ZN6dealii7Threads8internal16fun_encapsulatorIvN5boost6tuples5tupleINS5_IRKNS_7MappingILi3ELi3EEERKNS_10DoFHandlerILi3ELi3EEERKNS_10QuadratureILi2EEENS4_9null_typeESI_SI_SI_SI_SI_SI_EERNS_12SparseMatrixIdEERKSt3mapIhPKNS_8FunctionILi3EEESt4lessIhESaISt4pairIKhSR_EEERNS_6VectorIdEERSt6vectorIjSaIjEESR_RKS16_NS_13MatrixCreator13IteratorRangeISB_EERNS0_16DummyThreadMutexESI_EELi9EEclESJ_SM_S10_S13_S17_SR_S19_S1C_S1E_ = comdat any

$_ZN6dealii13MatrixCreator27create_boundary_mass_matrixILi3ELi3EEEvRKNS_2hp17MappingCollectionIXT_EXT0_EEERKNS2_10DoFHandlerIXT_EXT0_EEERKNS2_11QCollectionIXmiT_Li1EEEERNS_12SparseMatrixIdEERKNS_11FunctionMapIXT0_EE4typeERNS_6VectorIdEERSt6vectorIjSaIjEEPKNS_8FunctionIXT0_EEESS_ = comdat any

$_ZN6dealii13MatrixCreator29create_boundary_mass_matrix_1ILi3ELi3EEEvN5boost6tuples5tupleIRKNS_2hp17MappingCollectionIXT_EXT0_EEERKNS5_10DoFHandlerIXT_EXT0_EEERKNS5_11QCollectionIXmiT_Li1EEEENS3_9null_typeESI_SI_SI_SI_SI_SI_EERNS_12SparseMatrixIdEERKNS_11FunctionMapIXT0_EE4typeERNS_6VectorIdEERSt6vectorIjSaIjEEPKNS_8FunctionIXT0_EEERKSX_NS0_13IteratorRangeISB_EERNS_7Threads16DummyThreadMutexE = comdat any

$_ZN6dealii7Threads8internal16fun_encapsulatorIvN5boost6tuples5tupleINS5_IRKNS_2hp17MappingCollectionILi3ELi3EEERKNS6_10DoFHandlerILi3ELi3EEERKNS6_11QCollectionILi2EEENS4_9null_typeESJ_SJ_SJ_SJ_SJ_SJ_EERNS_12SparseMatrixIdEERKSt3mapIhPKNS_8FunctionILi3EEESt4lessIhESaISt4pairIKhSS_EEERNS_6VectorIdEERSt6vectorIjSaIjEESS_RKS17_NS_13MatrixCreator13IteratorRangeISC_EERNS0_16DummyThreadMutexESJ_EELi9EEclESK_SN_S11_S14_S18_SS_S1A_S1D_S1F_ = comdat any

$_ZN6dealii13MatrixCreator27create_boundary_mass_matrixILi3ELi3EEEvRKNS_2hp10DoFHandlerIXT_EXT0_EEERKNS2_11QCollectionIXmiT_Li1EEEERNS_12SparseMatrixIdEERKNS_11FunctionMapIXT0_EE4typeERNS_6VectorIdEERSt6vectorIjSaIjEEPKNS_8FunctionIXT0_EEESO_ = comdat any

$_ZN6dealii13MatrixCreator21create_laplace_matrixILi3ELi3EEEvRKNS_10DoFHandlerIXT_EXT0_EEERKNS_10QuadratureIXT_EEERNS_12SparseMatrixIdEEPKNS_8FunctionIXT0_EEE = comdat any

$_ZN6dealii13MatrixCreator21create_laplace_matrixILi3ELi3EEEvRKNS_7MappingIXT_EXT0_EEERKNS_10DoFHandlerIXT_EXT0_EEERKNS_10QuadratureIXT_EEERNS_12SparseMatrixIdEEPKNS_8FunctionIXT0_EEE = comdat any

$_ZN6dealii13MatrixCreator23create_laplace_matrix_1ILi3ELi3EEEvRKNS_7MappingIXT_EXT0_EEERKNS_10DoFHandlerIXT_EXT0_EEERKNS_10QuadratureIXT_EEERNS_12SparseMatrixIdEEPKNS_8FunctionIXT0_EEENS0_13IteratorRangeIS7_EERNS_7Threads16DummyThreadMutexE = comdat any

$_ZN6dealii13MatrixCreator21create_laplace_matrixILi3ELi3EEEvRKNS_7MappingIXT_EXT0_EEERKNS_10DoFHandlerIXT_EXT0_EEERKNS_10QuadratureIXT_EEERNS_12SparseMatrixIdEERKNS_8FunctionIXT0_EEERNS_6VectorIdEEPSJ_ = comdat any

$_ZN6dealii13MatrixCreator23create_laplace_matrix_2ILi3ELi3EEEvRKNS_7MappingIXT_EXT0_EEERKNS_10DoFHandlerIXT_EXT0_EEERKNS_10QuadratureIXT_EEERNS_12SparseMatrixIdEERKNS_8FunctionIXT0_EEERNS_6VectorIdEEPSJ_NS0_13IteratorRangeIS7_EERNS_7Threads16DummyThreadMutexE = comdat any

$_ZN6dealii13MatrixCreator21create_laplace_matrixILi3ELi3EEEvRKNS_10DoFHandlerIXT_EXT0_EEERKNS_10QuadratureIXT_EEERNS_12SparseMatrixIdEERKNS_8FunctionIXT0_EEERNS_6VectorIdEEPSF_ = comdat any

$_ZN6dealii13MatrixCreator21create_laplace_matrixILi3ELi3EEEvRKNS_2hp10DoFHandlerIXT_EXT0_EEERKNS2_11QCollectionIXT_EEERNS_12SparseMatrixIdEEPKNS_8FunctionIXT0_EEE = comdat any

$_ZN6dealii13MatrixCreator21create_laplace_matrixILi3ELi3EEEvRKNS_2hp17MappingCollectionIXT_EXT0_EEERKNS2_10DoFHandlerIXT_EXT0_EEERKNS2_11QCollectionIXT_EEERNS_12SparseMatrixIdEEPKNS_8FunctionIXT0_EEE = comdat any

$_ZN6dealii13MatrixCreator23create_laplace_matrix_1ILi3ELi3EEEvRKNS_2hp17MappingCollectionIXT_EXT0_EEERKNS2_10DoFHandlerIXT_EXT0_EEERKNS2_11QCollectionIXT_EEERNS_12SparseMatrixIdEEPKNS_8FunctionIXT0_EEENS0_13IteratorRangeIS8_EERNS_7Threads16DummyThreadMutexE = comdat any

$_ZN6dealii13MatrixCreator21create_laplace_matrixILi3ELi3EEEvRKNS_2hp17MappingCollectionIXT_EXT0_EEERKNS2_10DoFHandlerIXT_EXT0_EEERKNS2_11QCollectionIXT_EEERNS_12SparseMatrixIdEERKNS_8FunctionIXT0_EEERNS_6VectorIdEEPSK_ = comdat any

$_ZN6dealii13MatrixCreator23create_laplace_matrix_2ILi3ELi3EEEvRKNS_2hp17MappingCollectionIXT_EXT0_EEERKNS2_10DoFHandlerIXT_EXT0_EEERKNS2_11QCollectionIXT_EEERNS_12SparseMatrixIdEERKNS_8FunctionIXT0_EEERNS_6VectorIdEEPSK_NS0_13IteratorRangeIS8_EERNS_7Threads16DummyThreadMutexE = comdat any

$_ZN6dealii13MatrixCreator21create_laplace_matrixILi3ELi3EEEvRKNS_2hp10DoFHandlerIXT_EXT0_EEERKNS2_11QCollectionIXT_EEERNS_12SparseMatrixIdEERKNS_8FunctionIXT0_EEERNS_6VectorIdEEPSG_ = comdat any

$_ZN5boost10shared_ptrIN6dealii7Threads8internal16ThreadDescriptorIvEEED2Ev = comdat any

$_ZNSt6vectorIjSaIjEE17_M_realloc_insertEN9__gnu_cxx17__normal_iteratorIPjS1_EERKj = comdat any

$_ZSt9__advanceIN6dealii18TriaActiveIteratorINS0_15DoFCellAccessorINS0_10DoFHandlerILi3ELi3EEEEEEElEvRT_T0_St26bidirectional_iterator_tag = comdat any

$_ZNSt6vectorIN6dealii6VectorIdEESaIS2_EEC2EmRKS2_RKS3_ = comdat any

$_ZN6dealii6VectorIdED2Ev = comdat any

$_ZN6dealii8FEValuesILi3ELi3EED2Ev = comdat any

$_ZN6dealii6VectorIdED0Ev = comdat any

$_ZN6dealii6VectorIdE6reinitEjb = comdat any

$_ZN6dealii6VectorIdE4swapERS1_ = comdat any

$_ZN6dealii9TableBaseILi2EdED2Ev = comdat any

$_ZN6dealii9TableBaseILi2EdED0Ev = comdat any

$_ZN6dealii8FEValuesILi3ELi3EED0Ev = comdat any

$_ZN5boost6detail8function15functor_managerIPFvRKN6dealii7MappingILi3ELi3EEERKNS3_10DoFHandlerILi3ELi3EEERKNS3_10QuadratureILi3EEERNS3_12SparseMatrixIdEEPKNS3_8FunctionILi3EEENS3_13MatrixCreator13IteratorRangeIS9_EERNS3_7Threads16DummyThreadMutexEEE6manageERKNS1_15function_bufferERSW_NS1_30functor_manager_operation_typeE = comdat any

$_ZN5boost6detail8function22void_function_invoker7IPFvRKN6dealii7MappingILi3ELi3EEERKNS3_10DoFHandlerILi3ELi3EEERKNS3_10QuadratureILi3EEERNS3_12SparseMatrixIdEEPKNS3_8FunctionILi3EEENS3_13MatrixCreator13IteratorRangeIS9_EERNS3_7Threads16DummyThreadMutexEEvS7_SB_SF_SI_SM_SP_SS_E6invokeERNS1_15function_bufferES7_SB_SF_SI_SM_SP_SS_ = comdat any

$_ZN5boost4bindINS_8functionIFvRKN6dealii7MappingILi3ELi3EEERKNS2_10DoFHandlerILi3ELi3EEERKNS2_10QuadratureILi3EEERNS2_12SparseMatrixIdEEPKNS2_8FunctionILi3EEENS2_13MatrixCreator13IteratorRangeIS8_EERNS2_7Threads16DummyThreadMutexEEEENS_17reference_wrapperIS5_EENSU_IS9_EENSU_ISD_EENSU_ISG_EESL_SO_NSU_ISQ_EEEENS_3_bi6bind_tINS10_11unspecifiedET_NS10_9list_av_7IT0_T1_T2_T3_T4_T5_T6_E4typeEEES13_S15_S16_S17_S18_S19_S1A_S1B_ = comdat any

$_ZN5boost8functionIFvvEEC2INS_3_bi6bind_tINS4_11unspecifiedENS0_IFvRKN6dealii7MappingILi3ELi3EEERKNS7_10DoFHandlerILi3ELi3EEERKNS7_10QuadratureILi3EEERNS7_12SparseMatrixIdEEPKNS7_8FunctionILi3EEENS7_13MatrixCreator13IteratorRangeISD_EERNS7_7Threads16DummyThreadMutexEEEENS4_5list7INS_17reference_wrapperISA_EENS10_ISE_EENS10_ISI_EENS10_ISL_EENS4_5valueISQ_EENS15_IST_EENS10_ISV_EEEEEEEET_NS_11enable_if_cIXsr5boost11type_traits7ice_notIXsr11is_integralIS1B_EE5valueEEE5valueEiE4typeE = comdat any

$_ZN6dealii7Threads6ThreadIvEC2ERKN5boost8functionIFvvEEE = comdat any

$_ZN5boost9function0IvEC2INS_3_bi6bind_tINS3_11unspecifiedENS_8functionIFvRKN6dealii7MappingILi3ELi3EEERKNS7_10DoFHandlerILi3ELi3EEERKNS7_10QuadratureILi3EEERNS7_12SparseMatrixIdEEPKNS7_8FunctionILi3EEENS7_13MatrixCreator13IteratorRangeISD_EERNS7_7Threads16DummyThreadMutexEEEENS3_5list7INS_17reference_wrapperISA_EENS10_ISE_EENS10_ISI_EENS10_ISL_EENS3_5valueISQ_EENS15_IST_EENS10_ISV_EEEEEEEET_NS_11enable_if_cIXsr5boost11type_traits7ice_notIXsr11is_integralIS1B_EE5valueEEE5valueEiE4typeE = comdat any

$_ZN5boost9function0IvE9assign_toINS_3_bi6bind_tINS3_11unspecifiedENS_8functionIFvRKN6dealii7MappingILi3ELi3EEERKNS7_10DoFHandlerILi3ELi3EEERKNS7_10QuadratureILi3EEERNS7_12SparseMatrixIdEEPKNS7_8FunctionILi3EEENS7_13MatrixCreator13IteratorRangeISD_EERNS7_7Threads16DummyThreadMutexEEEENS3_5list7INS_17reference_wrapperISA_EENS10_ISE_EENS10_ISI_EENS10_ISL_EENS3_5valueISQ_EENS15_IST_EENS10_ISV_EEEEEEEEvT_ = comdat any

$_ZN5boost6detail8function15functor_managerINS_3_bi6bind_tINS3_11unspecifiedENS_8functionIFvRKN6dealii7MappingILi3ELi3EEERKNS7_10DoFHandlerILi3ELi3EEERKNS7_10QuadratureILi3EEERNS7_12SparseMatrixIdEEPKNS7_8FunctionILi3EEENS7_13MatrixCreator13IteratorRangeISD_EERNS7_7Threads16DummyThreadMutexEEEENS3_5list7INS_17reference_wrapperISA_EENS10_ISE_EENS10_ISI_EENS10_ISL_EENS3_5valueISQ_EENS15_IST_EENS10_ISV_EEEEEEE6manageERKNS1_15function_bufferERS1C_NS1_30functor_manager_operation_typeE = comdat any

$_ZN5boost6detail8function26void_function_obj_invoker0INS_3_bi6bind_tINS3_11unspecifiedENS_8functionIFvRKN6dealii7MappingILi3ELi3EEERKNS7_10DoFHandlerILi3ELi3EEERKNS7_10QuadratureILi3EEERNS7_12SparseMatrixIdEEPKNS7_8FunctionILi3EEENS7_13MatrixCreator13IteratorRangeISD_EERNS7_7Threads16DummyThreadMutexEEEENS3_5list7INS_17reference_wrapperISA_EENS10_ISE_EENS10_ISI_EENS10_ISL_EENS3_5valueISQ_EENS15_IST_EENS10_ISV_EEEEEEvE6invokeERNS1_15function_bufferE = comdat any

$_ZN5boost6detail8function13basic_vtable0IvE9assign_toINS_3_bi6bind_tINS5_11unspecifiedENS_8functionIFvRKN6dealii7MappingILi3ELi3EEERKNS9_10DoFHandlerILi3ELi3EEERKNS9_10QuadratureILi3EEERNS9_12SparseMatrixIdEEPKNS9_8FunctionILi3EEENS9_13MatrixCreator13IteratorRangeISF_EERNS9_7Threads16DummyThreadMutexEEEENS5_5list7INS_17reference_wrapperISC_EENS12_ISG_EENS12_ISK_EENS12_ISN_EENS5_5valueISS_EENS17_ISV_EENS12_ISX_EEEEEEEEbT_RNS1_15function_bufferE = comdat any

$_ZN5boost6detail8function15functor_managerINS_3_bi6bind_tINS3_11unspecifiedENS_8functionIFvRKN6dealii7MappingILi3ELi3EEERKNS7_10DoFHandlerILi3ELi3EEERKNS7_10QuadratureILi3EEERNS7_12SparseMatrixIdEEPKNS7_8FunctionILi3EEENS7_13MatrixCreator13IteratorRangeISD_EERNS7_7Threads16DummyThreadMutexEEEENS3_5list7INS_17reference_wrapperISA_EENS10_ISE_EENS10_ISI_EENS10_ISL_EENS3_5valueISQ_EENS15_IST_EENS10_ISV_EEEEEEE7managerERKNS1_15function_bufferERS1C_NS1_30functor_manager_operation_typeEN4mpl_5bool_ILb0EEE = comdat any

$_ZNK5boost9function7IvRKN6dealii7MappingILi3ELi3EEERKNS1_10DoFHandlerILi3ELi3EEERKNS1_10QuadratureILi3EEERNS1_12SparseMatrixIdEEPKNS1_8FunctionILi3EEENS1_13MatrixCreator13IteratorRangeIS7_EERNS1_7Threads16DummyThreadMutexEEclES5_S9_SD_SG_SK_SN_SQ_ = comdat any

$_ZN5boost15throw_exceptionINS_17bad_function_callEEEvRKT_ = comdat any

$_ZN5boost16exception_detail10clone_implINS0_19error_info_injectorINS_17bad_function_callEEEED2Ev = comdat any

$_ZN5boost16exception_detail19error_info_injectorINS_17bad_function_callEED2Ev = comdat any

$_ZN5boost16exception_detail10clone_implINS0_19error_info_injectorINS_17bad_function_callEEEED0Ev = comdat any

$_ZNK5boost16exception_detail10clone_implINS0_19error_info_injectorINS_17bad_function_callEEEE5cloneEv = comdat any

$_ZNK5boost16exception_detail10clone_implINS0_19error_info_injectorINS_17bad_function_callEEEE7rethrowEv = comdat any

$_ZThn16_N5boost16exception_detail10clone_implINS0_19error_info_injectorINS_17bad_function_callEEEED1Ev = comdat any

$_ZThn16_N5boost16exception_detail10clone_implINS0_19error_info_injectorINS_17bad_function_callEEEED0Ev = comdat any

$_ZThn56_NK5boost16exception_detail10clone_implINS0_19error_info_injectorINS_17bad_function_callEEEE5cloneEv = comdat any

$_ZThn56_NK5boost16exception_detail10clone_implINS0_19error_info_injectorINS_17bad_function_callEEEE7rethrowEv = comdat any

$_ZThn56_N5boost16exception_detail10clone_implINS0_19error_info_injectorINS_17bad_function_callEEEED1Ev = comdat any

$_ZThn56_N5boost16exception_detail10clone_implINS0_19error_info_injectorINS_17bad_function_callEEEED0Ev = comdat any

$_ZN5boost16exception_detail19error_info_injectorINS_17bad_function_callEED0Ev = comdat any

$_ZThn16_N5boost16exception_detail19error_info_injectorINS_17bad_function_callEED1Ev = comdat any

$_ZThn16_N5boost16exception_detail19error_info_injectorINS_17bad_function_callEED0Ev = comdat any

$_ZN5boost17bad_function_callD0Ev = comdat any

$_ZN5boost16exception_detail10clone_implINS0_19error_info_injectorINS_17bad_function_callEEEEC2ERKS5_ = comdat any

$_ZN5boost6detail8function13basic_vtable0IvE9assign_toINS_3_bi6bind_tINS5_11unspecifiedENS_8functionIFvRKN6dealii7MappingILi3ELi3EEERKNS9_10DoFHandlerILi3ELi3EEERKNS9_10QuadratureILi3EEERNS9_12SparseMatrixIdEEPKNS9_8FunctionILi3EEENS9_13MatrixCreator13IteratorRangeISF_EERNS9_7Threads16DummyThreadMutexEEEENS5_5list7INS_17reference_wrapperISC_EENS12_ISG_EENS12_ISK_EENS12_ISN_EENS5_5valueISS_EENS17_ISV_EENS12_ISX_EEEEEEEEbT_RNS1_15function_bufferENS1_16function_obj_tagE = comdat any

$_ZN5boost6detail15sp_counted_baseD2Ev = comdat any

$_ZN5boost6detail17sp_counted_impl_pIN6dealii7Threads8internal16ThreadDescriptorIvEEED0Ev = comdat any

$_ZN5boost6detail17sp_counted_impl_pIN6dealii7Threads8internal16ThreadDescriptorIvEEE7disposeEv = comdat any

$_ZN5boost6detail15sp_counted_base7destroyEv = comdat any

$_ZN5boost6detail17sp_counted_impl_pIN6dealii7Threads8internal16ThreadDescriptorIvEEE11get_deleterERKSt9type_info = comdat any

$_ZNK5boost9function0IvEclEv = comdat any

$_ZNK6dealii7Threads6ThreadIvE4joinEv = comdat any

$_ZN6dealii7Threads6ThreadIvE11ExcNoThreadD0Ev = comdat any

$_ZN5boost6detail8function15functor_managerIPFvRKN6dealii7MappingILi3ELi3EEERKNS3_10DoFHandlerILi3ELi3EEERKNS3_10QuadratureILi3EEERNS3_12SparseMatrixIdEERKNS3_8FunctionILi3EEERNS3_6VectorIdEEPSL_NS3_13MatrixCreator13IteratorRangeIS9_EERNS3_7Threads16DummyThreadMutexEEE6manageERKNS1_15function_bufferERS10_NS1_30functor_manager_operation_typeE = comdat any

$_ZN5boost6detail8function22void_function_invoker9IPFvRKN6dealii7MappingILi3ELi3EEERKNS3_10DoFHandlerILi3ELi3EEERKNS3_10QuadratureILi3EEERNS3_12SparseMatrixIdEERKNS3_8FunctionILi3EEERNS3_6VectorIdEEPSL_NS3_13MatrixCreator13IteratorRangeIS9_EERNS3_7Threads16DummyThreadMutexEEvS7_SB_SF_SI_SM_SP_SQ_ST_SW_E6invokeERNS1_15function_bufferES7_SB_SF_SI_SM_SP_SQ_ST_SW_ = comdat any

$_ZN5boost4bindINS_8functionIFvRKN6dealii7MappingILi3ELi3EEERKNS2_10DoFHandlerILi3ELi3EEERKNS2_10QuadratureILi3EEERNS2_12SparseMatrixIdEERKNS2_8FunctionILi3EEERNS2_6VectorIdEEPSK_NS2_13MatrixCreator13IteratorRangeIS8_EERNS2_7Threads16DummyThreadMutexEEEENS_17reference_wrapperIS5_EENSY_IS9_EENSY_ISD_EENSY_ISG_EENSY_ISK_EENSY_ISN_EESP_SS_NSY_ISU_EEEENS_3_bi6bind_tINS16_11unspecifiedET_NS16_9list_av_9IT0_T1_T2_T3_T4_T5_T6_T7_T8_E4typeEEES19_S1B_S1C_S1D_S1E_S1F_S1G_S1H_S1I_S1J_ = comdat any

$_ZN5boost8functionIFvvEEC2INS_3_bi6bind_tINS4_11unspecifiedENS0_IFvRKN6dealii7MappingILi3ELi3EEERKNS7_10DoFHandlerILi3ELi3EEERKNS7_10QuadratureILi3EEERNS7_12SparseMatrixIdEERKNS7_8FunctionILi3EEERNS7_6VectorIdEEPSP_NS7_13MatrixCreator13IteratorRangeISD_EERNS7_7Threads16DummyThreadMutexEEEENS4_5list9INS_17reference_wrapperISA_EENS14_ISE_EENS14_ISI_EENS14_ISL_EENS14_ISP_EENS14_ISS_EENS4_5valueISU_EENS1B_ISX_EENS14_ISZ_EEEEEEEET_NS_11enable_if_cIXsr5boost11type_traits7ice_notIXsr11is_integralIS1H_EE5valueEEE5valueEiE4typeE = comdat any

$_ZN5boost9function0IvEC2INS_3_bi6bind_tINS3_11unspecifiedENS_8functionIFvRKN6dealii7MappingILi3ELi3EEERKNS7_10DoFHandlerILi3ELi3EEERKNS7_10QuadratureILi3EEERNS7_12SparseMatrixIdEERKNS7_8FunctionILi3EEERNS7_6VectorIdEEPSP_NS7_13MatrixCreator13IteratorRangeISD_EERNS7_7Threads16DummyThreadMutexEEEENS3_5list9INS_17reference_wrapperISA_EENS14_ISE_EENS14_ISI_EENS14_ISL_EENS14_ISP_EENS14_ISS_EENS3_5valueISU_EENS1B_ISX_EENS14_ISZ_EEEEEEEET_NS_11enable_if_cIXsr5boost11type_traits7ice_notIXsr11is_integralIS1H_EE5valueEEE5valueEiE4typeE = comdat any

$_ZN5boost9function0IvE9assign_toINS_3_bi6bind_tINS3_11unspecifiedENS_8functionIFvRKN6dealii7MappingILi3ELi3EEERKNS7_10DoFHandlerILi3ELi3EEERKNS7_10QuadratureILi3EEERNS7_12SparseMatrixIdEERKNS7_8FunctionILi3EEERNS7_6VectorIdEEPSP_NS7_13MatrixCreator13IteratorRangeISD_EERNS7_7Threads16DummyThreadMutexEEEENS3_5list9INS_17reference_wrapperISA_EENS14_ISE_EENS14_ISI_EENS14_ISL_EENS14_ISP_EENS14_ISS_EENS3_5valueISU_EENS1B_ISX_EENS14_ISZ_EEEEEEEEvT_ = comdat any

$_ZN5boost6detail8function15functor_managerINS_3_bi6bind_tINS3_11unspecifiedENS_8functionIFvRKN6dealii7MappingILi3ELi3EEERKNS7_10DoFHandlerILi3ELi3EEERKNS7_10QuadratureILi3EEERNS7_12SparseMatrixIdEERKNS7_8FunctionILi3EEERNS7_6VectorIdEEPSP_NS7_13MatrixCreator13IteratorRangeISD_EERNS7_7Threads16DummyThreadMutexEEEENS3_5list9INS_17reference_wrapperISA_EENS14_ISE_EENS14_ISI_EENS14_ISL_EENS14_ISP_EENS14_ISS_EENS3_5valueISU_EENS1B_ISX_EENS14_ISZ_EEEEEEE6manageERKNS1_15function_bufferERS1I_NS1_30functor_manager_operation_typeE = comdat any

$_ZN5boost6detail8function26void_function_obj_invoker0INS_3_bi6bind_tINS3_11unspecifiedENS_8functionIFvRKN6dealii7MappingILi3ELi3EEERKNS7_10DoFHandlerILi3ELi3EEERKNS7_10QuadratureILi3EEERNS7_12SparseMatrixIdEERKNS7_8FunctionILi3EEERNS7_6VectorIdEEPSP_NS7_13MatrixCreator13IteratorRangeISD_EERNS7_7Threads16DummyThreadMutexEEEENS3_5list9INS_17reference_wrapperISA_EENS14_ISE_EENS14_ISI_EENS14_ISL_EENS14_ISP_EENS14_ISS_EENS3_5valueISU_EENS1B_ISX_EENS14_ISZ_EEEEEEvE6invokeERNS1_15function_bufferE = comdat any

$_ZN5boost6detail8function13basic_vtable0IvE9assign_toINS_3_bi6bind_tINS5_11unspecifiedENS_8functionIFvRKN6dealii7MappingILi3ELi3EEERKNS9_10DoFHandlerILi3ELi3EEERKNS9_10QuadratureILi3EEERNS9_12SparseMatrixIdEERKNS9_8FunctionILi3EEERNS9_6VectorIdEEPSR_NS9_13MatrixCreator13IteratorRangeISF_EERNS9_7Threads16DummyThreadMutexEEEENS5_5list9INS_17reference_wrapperISC_EENS16_ISG_EENS16_ISK_EENS16_ISN_EENS16_ISR_EENS16_ISU_EENS5_5valueISW_EENS1D_ISZ_EENS16_IS11_EEEEEEEEbT_RNS1_15function_bufferE = comdat any

$_ZN5boost6detail8function15functor_managerINS_3_bi6bind_tINS3_11unspecifiedENS_8functionIFvRKN6dealii7MappingILi3ELi3EEERKNS7_10DoFHandlerILi3ELi3EEERKNS7_10QuadratureILi3EEERNS7_12SparseMatrixIdEERKNS7_8FunctionILi3EEERNS7_6VectorIdEEPSP_NS7_13MatrixCreator13IteratorRangeISD_EERNS7_7Threads16DummyThreadMutexEEEENS3_5list9INS_17reference_wrapperISA_EENS14_ISE_EENS14_ISI_EENS14_ISL_EENS14_ISP_EENS14_ISS_EENS3_5valueISU_EENS1B_ISX_EENS14_ISZ_EEEEEEE7managerERKNS1_15function_bufferERS1I_NS1_30functor_manager_operation_typeEN4mpl_5bool_ILb0EEE = comdat any

$_ZNK5boost9function9IvRKN6dealii7MappingILi3ELi3EEERKNS1_10DoFHandlerILi3ELi3EEERKNS1_10QuadratureILi3EEERNS1_12SparseMatrixIdEERKNS1_8FunctionILi3EEERNS1_6VectorIdEEPSJ_NS1_13MatrixCreator13IteratorRangeIS7_EERNS1_7Threads16DummyThreadMutexEEclES5_S9_SD_SG_SK_SN_SO_SR_SU_ = comdat any

$_ZN5boost6detail8function13basic_vtable0IvE9assign_toINS_3_bi6bind_tINS5_11unspecifiedENS_8functionIFvRKN6dealii7MappingILi3ELi3EEERKNS9_10DoFHandlerILi3ELi3EEERKNS9_10QuadratureILi3EEERNS9_12SparseMatrixIdEERKNS9_8FunctionILi3EEERNS9_6VectorIdEEPSR_NS9_13MatrixCreator13IteratorRangeISF_EERNS9_7Threads16DummyThreadMutexEEEENS5_5list9INS_17reference_wrapperISC_EENS16_ISG_EENS16_ISK_EENS16_ISN_EENS16_ISR_EENS16_ISU_EENS5_5valueISW_EENS1D_ISZ_EENS16_IS11_EEEEEEEEbT_RNS1_15function_bufferENS1_16function_obj_tagE = comdat any

$_ZN6dealii9TableBaseILi2EfED2Ev = comdat any

$_ZN6dealii9TableBaseILi2EfED0Ev = comdat any

$_ZN5boost6detail8function15functor_managerIPFvRKN6dealii7MappingILi3ELi3EEERKNS3_10DoFHandlerILi3ELi3EEERKNS3_10QuadratureILi3EEERNS3_12SparseMatrixIfEEPKNS3_8FunctionILi3EEENS3_13MatrixCreator13IteratorRangeIS9_EERNS3_7Threads16DummyThreadMutexEEE6manageERKNS1_15function_bufferERSW_NS1_30functor_manager_operation_typeE = comdat any

$_ZN5boost6detail8function22void_function_invoker7IPFvRKN6dealii7MappingILi3ELi3EEERKNS3_10DoFHandlerILi3ELi3EEERKNS3_10QuadratureILi3EEERNS3_12SparseMatrixIfEEPKNS3_8FunctionILi3EEENS3_13MatrixCreator13IteratorRangeIS9_EERNS3_7Threads16DummyThreadMutexEEvS7_SB_SF_SI_SM_SP_SS_E6invokeERNS1_15function_bufferES7_SB_SF_SI_SM_SP_SS_ = comdat any

$_ZN5boost4bindINS_8functionIFvRKN6dealii7MappingILi3ELi3EEERKNS2_10DoFHandlerILi3ELi3EEERKNS2_10QuadratureILi3EEERNS2_12SparseMatrixIfEEPKNS2_8FunctionILi3EEENS2_13MatrixCreator13IteratorRangeIS8_EERNS2_7Threads16DummyThreadMutexEEEENS_17reference_wrapperIS5_EENSU_IS9_EENSU_ISD_EENSU_ISG_EESL_SO_NSU_ISQ_EEEENS_3_bi6bind_tINS10_11unspecifiedET_NS10_9list_av_7IT0_T1_T2_T3_T4_T5_T6_E4typeEEES13_S15_S16_S17_S18_S19_S1A_S1B_ = comdat any

$_ZN5boost8functionIFvvEEC2INS_3_bi6bind_tINS4_11unspecifiedENS0_IFvRKN6dealii7MappingILi3ELi3EEERKNS7_10DoFHandlerILi3ELi3EEERKNS7_10QuadratureILi3EEERNS7_12SparseMatrixIfEEPKNS7_8FunctionILi3EEENS7_13MatrixCreator13IteratorRangeISD_EERNS7_7Threads16DummyThreadMutexEEEENS4_5list7INS_17reference_wrapperISA_EENS10_ISE_EENS10_ISI_EENS10_ISL_EENS4_5valueISQ_EENS15_IST_EENS10_ISV_EEEEEEEET_NS_11enable_if_cIXsr5boost11type_traits7ice_notIXsr11is_integralIS1B_EE5valueEEE5valueEiE4typeE = comdat any

$_ZN5boost9function0IvEC2INS_3_bi6bind_tINS3_11unspecifiedENS_8functionIFvRKN6dealii7MappingILi3ELi3EEERKNS7_10DoFHandlerILi3ELi3EEERKNS7_10QuadratureILi3EEERNS7_12SparseMatrixIfEEPKNS7_8FunctionILi3EEENS7_13MatrixCreator13IteratorRangeISD_EERNS7_7Threads16DummyThreadMutexEEEENS3_5list7INS_17reference_wrapperISA_EENS10_ISE_EENS10_ISI_EENS10_ISL_EENS3_5valueISQ_EENS15_IST_EENS10_ISV_EEEEEEEET_NS_11enable_if_cIXsr5boost11type_traits7ice_notIXsr11is_integralIS1B_EE5valueEEE5valueEiE4typeE = comdat any

$_ZN5boost9function0IvE9assign_toINS_3_bi6bind_tINS3_11unspecifiedENS_8functionIFvRKN6dealii7MappingILi3ELi3EEERKNS7_10DoFHandlerILi3ELi3EEERKNS7_10QuadratureILi3EEERNS7_12SparseMatrixIfEEPKNS7_8FunctionILi3EEENS7_13MatrixCreator13IteratorRangeISD_EERNS7_7Threads16DummyThreadMutexEEEENS3_5list7INS_17reference_wrapperISA_EENS10_ISE_EENS10_ISI_EENS10_ISL_EENS3_5valueISQ_EENS15_IST_EENS10_ISV_EEEEEEEEvT_ = comdat any

$_ZN5boost6detail8function15functor_managerINS_3_bi6bind_tINS3_11unspecifiedENS_8functionIFvRKN6dealii7MappingILi3ELi3EEERKNS7_10DoFHandlerILi3ELi3EEERKNS7_10QuadratureILi3EEERNS7_12SparseMatrixIfEEPKNS7_8FunctionILi3EEENS7_13MatrixCreator13IteratorRangeISD_EERNS7_7Threads16DummyThreadMutexEEEENS3_5list7INS_17reference_wrapperISA_EENS10_ISE_EENS10_ISI_EENS10_ISL_EENS3_5valueISQ_EENS15_IST_EENS10_ISV_EEEEEEE6manageERKNS1_15function_bufferERS1C_NS1_30functor_manager_operation_typeE = comdat any

$_ZN5boost6detail8function26void_function_obj_invoker0INS_3_bi6bind_tINS3_11unspecifiedENS_8functionIFvRKN6dealii7MappingILi3ELi3EEERKNS7_10DoFHandlerILi3ELi3EEERKNS7_10QuadratureILi3EEERNS7_12SparseMatrixIfEEPKNS7_8FunctionILi3EEENS7_13MatrixCreator13IteratorRangeISD_EERNS7_7Threads16DummyThreadMutexEEEENS3_5list7INS_17reference_wrapperISA_EENS10_ISE_EENS10_ISI_EENS10_ISL_EENS3_5valueISQ_EENS15_IST_EENS10_ISV_EEEEEEvE6invokeERNS1_15function_bufferE = comdat any

$_ZN5boost6detail8function13basic_vtable0IvE9assign_toINS_3_bi6bind_tINS5_11unspecifiedENS_8functionIFvRKN6dealii7MappingILi3ELi3EEERKNS9_10DoFHandlerILi3ELi3EEERKNS9_10QuadratureILi3EEERNS9_12SparseMatrixIfEEPKNS9_8FunctionILi3EEENS9_13MatrixCreator13IteratorRangeISF_EERNS9_7Threads16DummyThreadMutexEEEENS5_5list7INS_17reference_wrapperISC_EENS12_ISG_EENS12_ISK_EENS12_ISN_EENS5_5valueISS_EENS17_ISV_EENS12_ISX_EEEEEEEEbT_RNS1_15function_bufferE = comdat any

$_ZN5boost6detail8function15functor_managerINS_3_bi6bind_tINS3_11unspecifiedENS_8functionIFvRKN6dealii7MappingILi3ELi3EEERKNS7_10DoFHandlerILi3ELi3EEERKNS7_10QuadratureILi3EEERNS7_12SparseMatrixIfEEPKNS7_8FunctionILi3EEENS7_13MatrixCreator13IteratorRangeISD_EERNS7_7Threads16DummyThreadMutexEEEENS3_5list7INS_17reference_wrapperISA_EENS10_ISE_EENS10_ISI_EENS10_ISL_EENS3_5valueISQ_EENS15_IST_EENS10_ISV_EEEEEEE7managerERKNS1_15function_bufferERS1C_NS1_30functor_manager_operation_typeEN4mpl_5bool_ILb0EEE = comdat any

$_ZNK5boost9function7IvRKN6dealii7MappingILi3ELi3EEERKNS1_10DoFHandlerILi3ELi3EEERKNS1_10QuadratureILi3EEERNS1_12SparseMatrixIfEEPKNS1_8FunctionILi3EEENS1_13MatrixCreator13IteratorRangeIS7_EERNS1_7Threads16DummyThreadMutexEEclES5_S9_SD_SG_SK_SN_SQ_ = comdat any

$_ZN5boost6detail8function13basic_vtable0IvE9assign_toINS_3_bi6bind_tINS5_11unspecifiedENS_8functionIFvRKN6dealii7MappingILi3ELi3EEERKNS9_10DoFHandlerILi3ELi3EEERKNS9_10QuadratureILi3EEERNS9_12SparseMatrixIfEEPKNS9_8FunctionILi3EEENS9_13MatrixCreator13IteratorRangeISF_EERNS9_7Threads16DummyThreadMutexEEEENS5_5list7INS_17reference_wrapperISC_EENS12_ISG_EENS12_ISK_EENS12_ISN_EENS5_5valueISS_EENS17_ISV_EENS12_ISX_EEEEEEEEbT_RNS1_15function_bufferENS1_16function_obj_tagE = comdat any

$_ZN5boost6detail8function15functor_managerIPFvRKN6dealii7MappingILi3ELi3EEERKNS3_10DoFHandlerILi3ELi3EEERKNS3_10QuadratureILi3EEERNS3_12SparseMatrixIfEERKNS3_8FunctionILi3EEERNS3_6VectorIdEEPSL_NS3_13MatrixCreator13IteratorRangeIS9_EERNS3_7Threads16DummyThreadMutexEEE6manageERKNS1_15function_bufferERS10_NS1_30functor_manager_operation_typeE = comdat any

$_ZN5boost6detail8function22void_function_invoker9IPFvRKN6dealii7MappingILi3ELi3EEERKNS3_10DoFHandlerILi3ELi3EEERKNS3_10QuadratureILi3EEERNS3_12SparseMatrixIfEERKNS3_8FunctionILi3EEERNS3_6VectorIdEEPSL_NS3_13MatrixCreator13IteratorRangeIS9_EERNS3_7Threads16DummyThreadMutexEEvS7_SB_SF_SI_SM_SP_SQ_ST_SW_E6invokeERNS1_15function_bufferES7_SB_SF_SI_SM_SP_SQ_ST_SW_ = comdat any

$_ZN5boost4bindINS_8functionIFvRKN6dealii7MappingILi3ELi3EEERKNS2_10DoFHandlerILi3ELi3EEERKNS2_10QuadratureILi3EEERNS2_12SparseMatrixIfEERKNS2_8FunctionILi3EEERNS2_6VectorIdEEPSK_NS2_13MatrixCreator13IteratorRangeIS8_EERNS2_7Threads16DummyThreadMutexEEEENS_17reference_wrapperIS5_EENSY_IS9_EENSY_ISD_EENSY_ISG_EENSY_ISK_EENSY_ISN_EESP_SS_NSY_ISU_EEEENS_3_bi6bind_tINS16_11unspecifiedET_NS16_9list_av_9IT0_T1_T2_T3_T4_T5_T6_T7_T8_E4typeEEES19_S1B_S1C_S1D_S1E_S1F_S1G_S1H_S1I_S1J_ = comdat any

$_ZN5boost8functionIFvvEEC2INS_3_bi6bind_tINS4_11unspecifiedENS0_IFvRKN6dealii7MappingILi3ELi3EEERKNS7_10DoFHandlerILi3ELi3EEERKNS7_10QuadratureILi3EEERNS7_12SparseMatrixIfEERKNS7_8FunctionILi3EEERNS7_6VectorIdEEPSP_NS7_13MatrixCreator13IteratorRangeISD_EERNS7_7Threads16DummyThreadMutexEEEENS4_5list9INS_17reference_wrapperISA_EENS14_ISE_EENS14_ISI_EENS14_ISL_EENS14_ISP_EENS14_ISS_EENS4_5valueISU_EENS1B_ISX_EENS14_ISZ_EEEEEEEET_NS_11enable_if_cIXsr5boost11type_traits7ice_notIXsr11is_integralIS1H_EE5valueEEE5valueEiE4typeE = comdat any

$_ZN5boost9function0IvEC2INS_3_bi6bind_tINS3_11unspecifiedENS_8functionIFvRKN6dealii7MappingILi3ELi3EEERKNS7_10DoFHandlerILi3ELi3EEERKNS7_10QuadratureILi3EEERNS7_12SparseMatrixIfEERKNS7_8FunctionILi3EEERNS7_6VectorIdEEPSP_NS7_13MatrixCreator13IteratorRangeISD_EERNS7_7Threads16DummyThreadMutexEEEENS3_5list9INS_17reference_wrapperISA_EENS14_ISE_EENS14_ISI_EENS14_ISL_EENS14_ISP_EENS14_ISS_EENS3_5valueISU_EENS1B_ISX_EENS14_ISZ_EEEEEEEET_NS_11enable_if_cIXsr5boost11type_traits7ice_notIXsr11is_integralIS1H_EE5valueEEE5valueEiE4typeE = comdat any

$_ZN5boost9function0IvE9assign_toINS_3_bi6bind_tINS3_11unspecifiedENS_8functionIFvRKN6dealii7MappingILi3ELi3EEERKNS7_10DoFHandlerILi3ELi3EEERKNS7_10QuadratureILi3EEERNS7_12SparseMatrixIfEERKNS7_8FunctionILi3EEERNS7_6VectorIdEEPSP_NS7_13MatrixCreator13IteratorRangeISD_EERNS7_7Threads16DummyThreadMutexEEEENS3_5list9INS_17reference_wrapperISA_EENS14_ISE_EENS14_ISI_EENS14_ISL_EENS14_ISP_EENS14_ISS_EENS3_5valueISU_EENS1B_ISX_EENS14_ISZ_EEEEEEEEvT_ = comdat any

$_ZN5boost6detail8function15functor_managerINS_3_bi6bind_tINS3_11unspecifiedENS_8functionIFvRKN6dealii7MappingILi3ELi3EEERKNS7_10DoFHandlerILi3ELi3EEERKNS7_10QuadratureILi3EEERNS7_12SparseMatrixIfEERKNS7_8FunctionILi3EEERNS7_6VectorIdEEPSP_NS7_13MatrixCreator13IteratorRangeISD_EERNS7_7Threads16DummyThreadMutexEEEENS3_5list9INS_17reference_wrapperISA_EENS14_ISE_EENS14_ISI_EENS14_ISL_EENS14_ISP_EENS14_ISS_EENS3_5valueISU_EENS1B_ISX_EENS14_ISZ_EEEEEEE6manageERKNS1_15function_bufferERS1I_NS1_30functor_manager_operation_typeE = comdat any

$_ZN5boost6detail8function26void_function_obj_invoker0INS_3_bi6bind_tINS3_11unspecifiedENS_8functionIFvRKN6dealii7MappingILi3ELi3EEERKNS7_10DoFHandlerILi3ELi3EEERKNS7_10QuadratureILi3EEERNS7_12SparseMatrixIfEERKNS7_8FunctionILi3EEERNS7_6VectorIdEEPSP_NS7_13MatrixCreator13IteratorRangeISD_EERNS7_7Threads16DummyThreadMutexEEEENS3_5list9INS_17reference_wrapperISA_EENS14_ISE_EENS14_ISI_EENS14_ISL_EENS14_ISP_EENS14_ISS_EENS3_5valueISU_EENS1B_ISX_EENS14_ISZ_EEEEEEvE6invokeERNS1_15function_bufferE = comdat any

$_ZN5boost6detail8function13basic_vtable0IvE9assign_toINS_3_bi6bind_tINS5_11unspecifiedENS_8functionIFvRKN6dealii7MappingILi3ELi3EEERKNS9_10DoFHandlerILi3ELi3EEERKNS9_10QuadratureILi3EEERNS9_12SparseMatrixIfEERKNS9_8FunctionILi3EEERNS9_6VectorIdEEPSR_NS9_13MatrixCreator13IteratorRangeISF_EERNS9_7Threads16DummyThreadMutexEEEENS5_5list9INS_17reference_wrapperISC_EENS16_ISG_EENS16_ISK_EENS16_ISN_EENS16_ISR_EENS16_ISU_EENS5_5valueISW_EENS1D_ISZ_EENS16_IS11_EEEEEEEEbT_RNS1_15function_bufferE = comdat any

$_ZN5boost6detail8function15functor_managerINS_3_bi6bind_tINS3_11unspecifiedENS_8functionIFvRKN6dealii7MappingILi3ELi3EEERKNS7_10DoFHandlerILi3ELi3EEERKNS7_10QuadratureILi3EEERNS7_12SparseMatrixIfEERKNS7_8FunctionILi3EEERNS7_6VectorIdEEPSP_NS7_13MatrixCreator13IteratorRangeISD_EERNS7_7Threads16DummyThreadMutexEEEENS3_5list9INS_17reference_wrapperISA_EENS14_ISE_EENS14_ISI_EENS14_ISL_EENS14_ISP_EENS14_ISS_EENS3_5valueISU_EENS1B_ISX_EENS14_ISZ_EEEEEEE7managerERKNS1_15function_bufferERS1I_NS1_30functor_manager_operation_typeEN4mpl_5bool_ILb0EEE = comdat any

$_ZNK5boost9function9IvRKN6dealii7MappingILi3ELi3EEERKNS1_10DoFHandlerILi3ELi3EEERKNS1_10QuadratureILi3EEERNS1_12SparseMatrixIfEERKNS1_8FunctionILi3EEERNS1_6VectorIdEEPSJ_NS1_13MatrixCreator13IteratorRangeIS7_EERNS1_7Threads16DummyThreadMutexEEclES5_S9_SD_SG_SK_SN_SO_SR_SU_ = comdat any

$_ZN5boost6detail8function13basic_vtable0IvE9assign_toINS_3_bi6bind_tINS5_11unspecifiedENS_8functionIFvRKN6dealii7MappingILi3ELi3EEERKNS9_10DoFHandlerILi3ELi3EEERKNS9_10QuadratureILi3EEERNS9_12SparseMatrixIfEERKNS9_8FunctionILi3EEERNS9_6VectorIdEEPSR_NS9_13MatrixCreator13IteratorRangeISF_EERNS9_7Threads16DummyThreadMutexEEEENS5_5list9INS_17reference_wrapperISC_EENS16_ISG_EENS16_ISK_EENS16_ISN_EENS16_ISR_EENS16_ISU_EENS5_5valueISW_EENS1D_ISZ_EENS16_IS11_EEEEEEEEbT_RNS1_15function_bufferENS1_16function_obj_tagE = comdat any

$_ZSt9__advanceIN6dealii18TriaActiveIteratorINS0_15DoFCellAccessorINS0_2hp10DoFHandlerILi3ELi3EEEEEEElEvRT_T0_St26bidirectional_iterator_tag = comdat any

$_ZNSt6vectorIdSaIdEE14_M_fill_insertEN9__gnu_cxx17__normal_iteratorIPdS1_EEmRKd = comdat any

$_ZNSt6vectorIN6dealii6VectorIdEESaIS2_EE14_M_fill_insertEN9__gnu_cxx17__normal_iteratorIPS2_S4_EEmRKS2_ = comdat any

$_ZNSt6vectorIjSaIjEE14_M_fill_insertEN9__gnu_cxx17__normal_iteratorIPjS1_EEmRKj = comdat any

$_ZN6dealii8internal11DoFAccessor15get_dof_indicesINS_2hp10DoFHandlerILi3ELi3EEEEEvRKNS_11DoFAccessorILi3ET_EERSt6vectorIjSaIjEEj = comdat any

$_ZN6dealii2hp11QCollectionILi3EED2Ev = comdat any

$_ZN5boost10shared_ptrIN6dealii8FEValuesILi3ELi3EEEED2Ev = comdat any

$_ZN6dealii9TableBaseILi3EN5boost10shared_ptrINS_8FEValuesILi3ELi3EEEEEED2Ev = comdat any

$_ZN6dealii9TableBaseILi3EN5boost10shared_ptrINS_8FEValuesILi3ELi3EEEEEED0Ev = comdat any

$_ZN6dealii2hp11QCollectionILi3EED0Ev = comdat any

$_ZN5boost6detail8function15functor_managerIPFvRKN6dealii2hp17MappingCollectionILi3ELi3EEERKNS4_10DoFHandlerILi3ELi3EEERKNS4_11QCollectionILi3EEERNS3_12SparseMatrixIdEEPKNS3_8FunctionILi3EEENS3_13MatrixCreator13IteratorRangeISA_EERNS3_7Threads16DummyThreadMutexEEE6manageERKNS1_15function_bufferERSX_NS1_30functor_manager_operation_typeE = comdat any

$_ZN5boost6detail8function22void_function_invoker7IPFvRKN6dealii2hp17MappingCollectionILi3ELi3EEERKNS4_10DoFHandlerILi3ELi3EEERKNS4_11QCollectionILi3EEERNS3_12SparseMatrixIdEEPKNS3_8FunctionILi3EEENS3_13MatrixCreator13IteratorRangeISA_EERNS3_7Threads16DummyThreadMutexEEvS8_SC_SG_SJ_SN_SQ_ST_E6invokeERNS1_15function_bufferES8_SC_SG_SJ_SN_SQ_ST_ = comdat any

$_ZN5boost4bindINS_8functionIFvRKN6dealii2hp17MappingCollectionILi3ELi3EEERKNS3_10DoFHandlerILi3ELi3EEERKNS3_11QCollectionILi3EEERNS2_12SparseMatrixIdEEPKNS2_8FunctionILi3EEENS2_13MatrixCreator13IteratorRangeIS9_EERNS2_7Threads16DummyThreadMutexEEEENS_17reference_wrapperIS6_EENSV_ISA_EENSV_ISE_EENSV_ISH_EESM_SP_NSV_ISR_EEEENS_3_bi6bind_tINS11_11unspecifiedET_NS11_9list_av_7IT0_T1_T2_T3_T4_T5_T6_E4typeEEES14_S16_S17_S18_S19_S1A_S1B_S1C_ = comdat any

$_ZN5boost8functionIFvvEEC2INS_3_bi6bind_tINS4_11unspecifiedENS0_IFvRKN6dealii2hp17MappingCollectionILi3ELi3EEERKNS8_10DoFHandlerILi3ELi3EEERKNS8_11QCollectionILi3EEERNS7_12SparseMatrixIdEEPKNS7_8FunctionILi3EEENS7_13MatrixCreator13IteratorRangeISE_EERNS7_7Threads16DummyThreadMutexEEEENS4_5list7INS_17reference_wrapperISB_EENS11_ISF_EENS11_ISJ_EENS11_ISM_EENS4_5valueISR_EENS16_ISU_EENS11_ISW_EEEEEEEET_NS_11enable_if_cIXsr5boost11type_traits7ice_notIXsr11is_integralIS1C_EE5valueEEE5valueEiE4typeE = comdat any

$_ZN5boost9function0IvEC2INS_3_bi6bind_tINS3_11unspecifiedENS_8functionIFvRKN6dealii2hp17MappingCollectionILi3ELi3EEERKNS8_10DoFHandlerILi3ELi3EEERKNS8_11QCollectionILi3EEERNS7_12SparseMatrixIdEEPKNS7_8FunctionILi3EEENS7_13MatrixCreator13IteratorRangeISE_EERNS7_7Threads16DummyThreadMutexEEEENS3_5list7INS_17reference_wrapperISB_EENS11_ISF_EENS11_ISJ_EENS11_ISM_EENS3_5valueISR_EENS16_ISU_EENS11_ISW_EEEEEEEET_NS_11enable_if_cIXsr5boost11type_traits7ice_notIXsr11is_integralIS1C_EE5valueEEE5valueEiE4typeE = comdat any

$_ZN5boost9function0IvE9assign_toINS_3_bi6bind_tINS3_11unspecifiedENS_8functionIFvRKN6dealii2hp17MappingCollectionILi3ELi3EEERKNS8_10DoFHandlerILi3ELi3EEERKNS8_11QCollectionILi3EEERNS7_12SparseMatrixIdEEPKNS7_8FunctionILi3EEENS7_13MatrixCreator13IteratorRangeISE_EERNS7_7Threads16DummyThreadMutexEEEENS3_5list7INS_17reference_wrapperISB_EENS11_ISF_EENS11_ISJ_EENS11_ISM_EENS3_5valueISR_EENS16_ISU_EENS11_ISW_EEEEEEEEvT_ = comdat any

$_ZN5boost6detail8function15functor_managerINS_3_bi6bind_tINS3_11unspecifiedENS_8functionIFvRKN6dealii2hp17MappingCollectionILi3ELi3EEERKNS8_10DoFHandlerILi3ELi3EEERKNS8_11QCollectionILi3EEERNS7_12SparseMatrixIdEEPKNS7_8FunctionILi3EEENS7_13MatrixCreator13IteratorRangeISE_EERNS7_7Threads16DummyThreadMutexEEEENS3_5list7INS_17reference_wrapperISB_EENS11_ISF_EENS11_ISJ_EENS11_ISM_EENS3_5valueISR_EENS16_ISU_EENS11_ISW_EEEEEEE6manageERKNS1_15function_bufferERS1D_NS1_30functor_manager_operation_typeE = comdat any

$_ZN5boost6detail8function26void_function_obj_invoker0INS_3_bi6bind_tINS3_11unspecifiedENS_8functionIFvRKN6dealii2hp17MappingCollectionILi3ELi3EEERKNS8_10DoFHandlerILi3ELi3EEERKNS8_11QCollectionILi3EEERNS7_12SparseMatrixIdEEPKNS7_8FunctionILi3EEENS7_13MatrixCreator13IteratorRangeISE_EERNS7_7Threads16DummyThreadMutexEEEENS3_5list7INS_17reference_wrapperISB_EENS11_ISF_EENS11_ISJ_EENS11_ISM_EENS3_5valueISR_EENS16_ISU_EENS11_ISW_EEEEEEvE6invokeERNS1_15function_bufferE = comdat any

$_ZN5boost6detail8function13basic_vtable0IvE9assign_toINS_3_bi6bind_tINS5_11unspecifiedENS_8functionIFvRKN6dealii2hp17MappingCollectionILi3ELi3EEERKNSA_10DoFHandlerILi3ELi3EEERKNSA_11QCollectionILi3EEERNS9_12SparseMatrixIdEEPKNS9_8FunctionILi3EEENS9_13MatrixCreator13IteratorRangeISG_EERNS9_7Threads16DummyThreadMutexEEEENS5_5list7INS_17reference_wrapperISD_EENS13_ISH_EENS13_ISL_EENS13_ISO_EENS5_5valueIST_EENS18_ISW_EENS13_ISY_EEEEEEEEbT_RNS1_15function_bufferE = comdat any

$_ZN5boost6detail8function15functor_managerINS_3_bi6bind_tINS3_11unspecifiedENS_8functionIFvRKN6dealii2hp17MappingCollectionILi3ELi3EEERKNS8_10DoFHandlerILi3ELi3EEERKNS8_11QCollectionILi3EEERNS7_12SparseMatrixIdEEPKNS7_8FunctionILi3EEENS7_13MatrixCreator13IteratorRangeISE_EERNS7_7Threads16DummyThreadMutexEEEENS3_5list7INS_17reference_wrapperISB_EENS11_ISF_EENS11_ISJ_EENS11_ISM_EENS3_5valueISR_EENS16_ISU_EENS11_ISW_EEEEEEE7managerERKNS1_15function_bufferERS1D_NS1_30functor_manager_operation_typeEN4mpl_5bool_ILb0EEE = comdat any

$_ZNK5boost9function7IvRKN6dealii2hp17MappingCollectionILi3ELi3EEERKNS2_10DoFHandlerILi3ELi3EEERKNS2_11QCollectionILi3EEERNS1_12SparseMatrixIdEEPKNS1_8FunctionILi3EEENS1_13MatrixCreator13IteratorRangeIS8_EERNS1_7Threads16DummyThreadMutexEEclES6_SA_SE_SH_SL_SO_SR_ = comdat any

$_ZN5boost6detail8function13basic_vtable0IvE9assign_toINS_3_bi6bind_tINS5_11unspecifiedENS_8functionIFvRKN6dealii2hp17MappingCollectionILi3ELi3EEERKNSA_10DoFHandlerILi3ELi3EEERKNSA_11QCollectionILi3EEERNS9_12SparseMatrixIdEEPKNS9_8FunctionILi3EEENS9_13MatrixCreator13IteratorRangeISG_EERNS9_7Threads16DummyThreadMutexEEEENS5_5list7INS_17reference_wrapperISD_EENS13_ISH_EENS13_ISL_EENS13_ISO_EENS5_5valueIST_EENS18_ISW_EENS13_ISY_EEEEEEEEbT_RNS1_15function_bufferENS1_16function_obj_tagE = comdat any

$_ZN5boost6detail8function15functor_managerIPFvRKN6dealii2hp17MappingCollectionILi3ELi3EEERKNS4_10DoFHandlerILi3ELi3EEERKNS4_11QCollectionILi3EEERNS3_12SparseMatrixIdEERKNS3_8FunctionILi3EEERNS3_6VectorIdEEPSM_NS3_13MatrixCreator13IteratorRangeISA_EERNS3_7Threads16DummyThreadMutexEEE6manageERKNS1_15function_bufferERS11_NS1_30functor_manager_operation_typeE = comdat any

$_ZN5boost6detail8function22void_function_invoker9IPFvRKN6dealii2hp17MappingCollectionILi3ELi3EEERKNS4_10DoFHandlerILi3ELi3EEERKNS4_11QCollectionILi3EEERNS3_12SparseMatrixIdEERKNS3_8FunctionILi3EEERNS3_6VectorIdEEPSM_NS3_13MatrixCreator13IteratorRangeISA_EERNS3_7Threads16DummyThreadMutexEEvS8_SC_SG_SJ_SN_SQ_SR_SU_SX_E6invokeERNS1_15function_bufferES8_SC_SG_SJ_SN_SQ_SR_SU_SX_ = comdat any

$_ZN5boost4bindINS_8functionIFvRKN6dealii2hp17MappingCollectionILi3ELi3EEERKNS3_10DoFHandlerILi3ELi3EEERKNS3_11QCollectionILi3EEERNS2_12SparseMatrixIdEERKNS2_8FunctionILi3EEERNS2_6VectorIdEEPSL_NS2_13MatrixCreator13IteratorRangeIS9_EERNS2_7Threads16DummyThreadMutexEEEENS_17reference_wrapperIS6_EENSZ_ISA_EENSZ_ISE_EENSZ_ISH_EENSZ_ISL_EENSZ_ISO_EESQ_ST_NSZ_ISV_EEEENS_3_bi6bind_tINS17_11unspecifiedET_NS17_9list_av_9IT0_T1_T2_T3_T4_T5_T6_T7_T8_E4typeEEES1A_S1C_S1D_S1E_S1F_S1G_S1H_S1I_S1J_S1K_ = comdat any

$_ZN5boost8functionIFvvEEC2INS_3_bi6bind_tINS4_11unspecifiedENS0_IFvRKN6dealii2hp17MappingCollectionILi3ELi3EEERKNS8_10DoFHandlerILi3ELi3EEERKNS8_11QCollectionILi3EEERNS7_12SparseMatrixIdEERKNS7_8FunctionILi3EEERNS7_6VectorIdEEPSQ_NS7_13MatrixCreator13IteratorRangeISE_EERNS7_7Threads16DummyThreadMutexEEEENS4_5list9INS_17reference_wrapperISB_EENS15_ISF_EENS15_ISJ_EENS15_ISM_EENS15_ISQ_EENS15_IST_EENS4_5valueISV_EENS1C_ISY_EENS15_IS10_EEEEEEEET_NS_11enable_if_cIXsr5boost11type_traits7ice_notIXsr11is_integralIS1I_EE5valueEEE5valueEiE4typeE = comdat any

$_ZN5boost9function0IvEC2INS_3_bi6bind_tINS3_11unspecifiedENS_8functionIFvRKN6dealii2hp17MappingCollectionILi3ELi3EEERKNS8_10DoFHandlerILi3ELi3EEERKNS8_11QCollectionILi3EEERNS7_12SparseMatrixIdEERKNS7_8FunctionILi3EEERNS7_6VectorIdEEPSQ_NS7_13MatrixCreator13IteratorRangeISE_EERNS7_7Threads16DummyThreadMutexEEEENS3_5list9INS_17reference_wrapperISB_EENS15_ISF_EENS15_ISJ_EENS15_ISM_EENS15_ISQ_EENS15_IST_EENS3_5valueISV_EENS1C_ISY_EENS15_IS10_EEEEEEEET_NS_11enable_if_cIXsr5boost11type_traits7ice_notIXsr11is_integralIS1I_EE5valueEEE5valueEiE4typeE = comdat any

$_ZN5boost9function0IvE9assign_toINS_3_bi6bind_tINS3_11unspecifiedENS_8functionIFvRKN6dealii2hp17MappingCollectionILi3ELi3EEERKNS8_10DoFHandlerILi3ELi3EEERKNS8_11QCollectionILi3EEERNS7_12SparseMatrixIdEERKNS7_8FunctionILi3EEERNS7_6VectorIdEEPSQ_NS7_13MatrixCreator13IteratorRangeISE_EERNS7_7Threads16DummyThreadMutexEEEENS3_5list9INS_17reference_wrapperISB_EENS15_ISF_EENS15_ISJ_EENS15_ISM_EENS15_ISQ_EENS15_IST_EENS3_5valueISV_EENS1C_ISY_EENS15_IS10_EEEEEEEEvT_ = comdat any

$_ZN5boost6detail8function15functor_managerINS_3_bi6bind_tINS3_11unspecifiedENS_8functionIFvRKN6dealii2hp17MappingCollectionILi3ELi3EEERKNS8_10DoFHandlerILi3ELi3EEERKNS8_11QCollectionILi3EEERNS7_12SparseMatrixIdEERKNS7_8FunctionILi3EEERNS7_6VectorIdEEPSQ_NS7_13MatrixCreator13IteratorRangeISE_EERNS7_7Threads16DummyThreadMutexEEEENS3_5list9INS_17reference_wrapperISB_EENS15_ISF_EENS15_ISJ_EENS15_ISM_EENS15_ISQ_EENS15_IST_EENS3_5valueISV_EENS1C_ISY_EENS15_IS10_EEEEEEE6manageERKNS1_15function_bufferERS1J_NS1_30functor_manager_operation_typeE = comdat any

$_ZN5boost6detail8function26void_function_obj_invoker0INS_3_bi6bind_tINS3_11unspecifiedENS_8functionIFvRKN6dealii2hp17MappingCollectionILi3ELi3EEERKNS8_10DoFHandlerILi3ELi3EEERKNS8_11QCollectionILi3EEERNS7_12SparseMatrixIdEERKNS7_8FunctionILi3EEERNS7_6VectorIdEEPSQ_NS7_13MatrixCreator13IteratorRangeISE_EERNS7_7Threads16DummyThreadMutexEEEENS3_5list9INS_17reference_wrapperISB_EENS15_ISF_EENS15_ISJ_EENS15_ISM_EENS15_ISQ_EENS15_IST_EENS3_5valueISV_EENS1C_ISY_EENS15_IS10_EEEEEEvE6invokeERNS1_15function_bufferE = comdat any

$_ZN5boost6detail8function13basic_vtable0IvE9assign_toINS_3_bi6bind_tINS5_11unspecifiedENS_8functionIFvRKN6dealii2hp17MappingCollectionILi3ELi3EEERKNSA_10DoFHandlerILi3ELi3EEERKNSA_11QCollectionILi3EEERNS9_12SparseMatrixIdEERKNS9_8FunctionILi3EEERNS9_6VectorIdEEPSS_NS9_13MatrixCreator13IteratorRangeISG_EERNS9_7Threads16DummyThreadMutexEEEENS5_5list9INS_17reference_wrapperISD_EENS17_ISH_EENS17_ISL_EENS17_ISO_EENS17_ISS_EENS17_ISV_EENS5_5valueISX_EENS1E_IS10_EENS17_IS12_EEEEEEEEbT_RNS1_15function_bufferE = comdat any

$_ZN5boost6detail8function15functor_managerINS_3_bi6bind_tINS3_11unspecifiedENS_8functionIFvRKN6dealii2hp17MappingCollectionILi3ELi3EEERKNS8_10DoFHandlerILi3ELi3EEERKNS8_11QCollectionILi3EEERNS7_12SparseMatrixIdEERKNS7_8FunctionILi3EEERNS7_6VectorIdEEPSQ_NS7_13MatrixCreator13IteratorRangeISE_EERNS7_7Threads16DummyThreadMutexEEEENS3_5list9INS_17reference_wrapperISB_EENS15_ISF_EENS15_ISJ_EENS15_ISM_EENS15_ISQ_EENS15_IST_EENS3_5valueISV_EENS1C_ISY_EENS15_IS10_EEEEEEE7managerERKNS1_15function_bufferERS1J_NS1_30functor_manager_operation_typeEN4mpl_5bool_ILb0EEE = comdat any

$_ZNK5boost9function9IvRKN6dealii2hp17MappingCollectionILi3ELi3EEERKNS2_10DoFHandlerILi3ELi3EEERKNS2_11QCollectionILi3EEERNS1_12SparseMatrixIdEERKNS1_8FunctionILi3EEERNS1_6VectorIdEEPSK_NS1_13MatrixCreator13IteratorRangeIS8_EERNS1_7Threads16DummyThreadMutexEEclES6_SA_SE_SH_SL_SO_SP_SS_SV_ = comdat any

$_ZN5boost6detail8function13basic_vtable0IvE9assign_toINS_3_bi6bind_tINS5_11unspecifiedENS_8functionIFvRKN6dealii2hp17MappingCollectionILi3ELi3EEERKNSA_10DoFHandlerILi3ELi3EEERKNSA_11QCollectionILi3EEERNS9_12SparseMatrixIdEERKNS9_8FunctionILi3EEERNS9_6VectorIdEEPSS_NS9_13MatrixCreator13IteratorRangeISG_EERNS9_7Threads16DummyThreadMutexEEEENS5_5list9INS_17reference_wrapperISD_EENS17_ISH_EENS17_ISL_EENS17_ISO_EENS17_ISS_EENS17_ISV_EENS5_5valueISX_EENS1E_IS10_EENS17_IS12_EEEEEEEEbT_RNS1_15function_bufferENS1_16function_obj_tagE = comdat any

$_ZN5boost6detail8function15functor_managerIPFvRKN6dealii2hp17MappingCollectionILi3ELi3EEERKNS4_10DoFHandlerILi3ELi3EEERKNS4_11QCollectionILi3EEERNS3_12SparseMatrixIfEEPKNS3_8FunctionILi3EEENS3_13MatrixCreator13IteratorRangeISA_EERNS3_7Threads16DummyThreadMutexEEE6manageERKNS1_15function_bufferERSX_NS1_30functor_manager_operation_typeE = comdat any

$_ZN5boost6detail8function22void_function_invoker7IPFvRKN6dealii2hp17MappingCollectionILi3ELi3EEERKNS4_10DoFHandlerILi3ELi3EEERKNS4_11QCollectionILi3EEERNS3_12SparseMatrixIfEEPKNS3_8FunctionILi3EEENS3_13MatrixCreator13IteratorRangeISA_EERNS3_7Threads16DummyThreadMutexEEvS8_SC_SG_SJ_SN_SQ_ST_E6invokeERNS1_15function_bufferES8_SC_SG_SJ_SN_SQ_ST_ = comdat any

$_ZN5boost4bindINS_8functionIFvRKN6dealii2hp17MappingCollectionILi3ELi3EEERKNS3_10DoFHandlerILi3ELi3EEERKNS3_11QCollectionILi3EEERNS2_12SparseMatrixIfEEPKNS2_8FunctionILi3EEENS2_13MatrixCreator13IteratorRangeIS9_EERNS2_7Threads16DummyThreadMutexEEEENS_17reference_wrapperIS6_EENSV_ISA_EENSV_ISE_EENSV_ISH_EESM_SP_NSV_ISR_EEEENS_3_bi6bind_tINS11_11unspecifiedET_NS11_9list_av_7IT0_T1_T2_T3_T4_T5_T6_E4typeEEES14_S16_S17_S18_S19_S1A_S1B_S1C_ = comdat any

$_ZN5boost8functionIFvvEEC2INS_3_bi6bind_tINS4_11unspecifiedENS0_IFvRKN6dealii2hp17MappingCollectionILi3ELi3EEERKNS8_10DoFHandlerILi3ELi3EEERKNS8_11QCollectionILi3EEERNS7_12SparseMatrixIfEEPKNS7_8FunctionILi3EEENS7_13MatrixCreator13IteratorRangeISE_EERNS7_7Threads16DummyThreadMutexEEEENS4_5list7INS_17reference_wrapperISB_EENS11_ISF_EENS11_ISJ_EENS11_ISM_EENS4_5valueISR_EENS16_ISU_EENS11_ISW_EEEEEEEET_NS_11enable_if_cIXsr5boost11type_traits7ice_notIXsr11is_integralIS1C_EE5valueEEE5valueEiE4typeE = comdat any

$_ZN5boost9function0IvEC2INS_3_bi6bind_tINS3_11unspecifiedENS_8functionIFvRKN6dealii2hp17MappingCollectionILi3ELi3EEERKNS8_10DoFHandlerILi3ELi3EEERKNS8_11QCollectionILi3EEERNS7_12SparseMatrixIfEEPKNS7_8FunctionILi3EEENS7_13MatrixCreator13IteratorRangeISE_EERNS7_7Threads16DummyThreadMutexEEEENS3_5list7INS_17reference_wrapperISB_EENS11_ISF_EENS11_ISJ_EENS11_ISM_EENS3_5valueISR_EENS16_ISU_EENS11_ISW_EEEEEEEET_NS_11enable_if_cIXsr5boost11type_traits7ice_notIXsr11is_integralIS1C_EE5valueEEE5valueEiE4typeE = comdat any

$_ZN5boost9function0IvE9assign_toINS_3_bi6bind_tINS3_11unspecifiedENS_8functionIFvRKN6dealii2hp17MappingCollectionILi3ELi3EEERKNS8_10DoFHandlerILi3ELi3EEERKNS8_11QCollectionILi3EEERNS7_12SparseMatrixIfEEPKNS7_8FunctionILi3EEENS7_13MatrixCreator13IteratorRangeISE_EERNS7_7Threads16DummyThreadMutexEEEENS3_5list7INS_17reference_wrapperISB_EENS11_ISF_EENS11_ISJ_EENS11_ISM_EENS3_5valueISR_EENS16_ISU_EENS11_ISW_EEEEEEEEvT_ = comdat any

$_ZN5boost6detail8function15functor_managerINS_3_bi6bind_tINS3_11unspecifiedENS_8functionIFvRKN6dealii2hp17MappingCollectionILi3ELi3EEERKNS8_10DoFHandlerILi3ELi3EEERKNS8_11QCollectionILi3EEERNS7_12SparseMatrixIfEEPKNS7_8FunctionILi3EEENS7_13MatrixCreator13IteratorRangeISE_EERNS7_7Threads16DummyThreadMutexEEEENS3_5list7INS_17reference_wrapperISB_EENS11_ISF_EENS11_ISJ_EENS11_ISM_EENS3_5valueISR_EENS16_ISU_EENS11_ISW_EEEEEEE6manageERKNS1_15function_bufferERS1D_NS1_30functor_manager_operation_typeE = comdat any

$_ZN5boost6detail8function26void_function_obj_invoker0INS_3_bi6bind_tINS3_11unspecifiedENS_8functionIFvRKN6dealii2hp17MappingCollectionILi3ELi3EEERKNS8_10DoFHandlerILi3ELi3EEERKNS8_11QCollectionILi3EEERNS7_12SparseMatrixIfEEPKNS7_8FunctionILi3EEENS7_13MatrixCreator13IteratorRangeISE_EERNS7_7Threads16DummyThreadMutexEEEENS3_5list7INS_17reference_wrapperISB_EENS11_ISF_EENS11_ISJ_EENS11_ISM_EENS3_5valueISR_EENS16_ISU_EENS11_ISW_EEEEEEvE6invokeERNS1_15function_bufferE = comdat any

$_ZN5boost6detail8function13basic_vtable0IvE9assign_toINS_3_bi6bind_tINS5_11unspecifiedENS_8functionIFvRKN6dealii2hp17MappingCollectionILi3ELi3EEERKNSA_10DoFHandlerILi3ELi3EEERKNSA_11QCollectionILi3EEERNS9_12SparseMatrixIfEEPKNS9_8FunctionILi3EEENS9_13MatrixCreator13IteratorRangeISG_EERNS9_7Threads16DummyThreadMutexEEEENS5_5list7INS_17reference_wrapperISD_EENS13_ISH_EENS13_ISL_EENS13_ISO_EENS5_5valueIST_EENS18_ISW_EENS13_ISY_EEEEEEEEbT_RNS1_15function_bufferE = comdat any

$_ZN5boost6detail8function15functor_managerINS_3_bi6bind_tINS3_11unspecifiedENS_8functionIFvRKN6dealii2hp17MappingCollectionILi3ELi3EEERKNS8_10DoFHandlerILi3ELi3EEERKNS8_11QCollectionILi3EEERNS7_12SparseMatrixIfEEPKNS7_8FunctionILi3EEENS7_13MatrixCreator13IteratorRangeISE_EERNS7_7Threads16DummyThreadMutexEEEENS3_5list7INS_17reference_wrapperISB_EENS11_ISF_EENS11_ISJ_EENS11_ISM_EENS3_5valueISR_EENS16_ISU_EENS11_ISW_EEEEEEE7managerERKNS1_15function_bufferERS1D_NS1_30functor_manager_operation_typeEN4mpl_5bool_ILb0EEE = comdat any

$_ZNK5boost9function7IvRKN6dealii2hp17MappingCollectionILi3ELi3EEERKNS2_10DoFHandlerILi3ELi3EEERKNS2_11QCollectionILi3EEERNS1_12SparseMatrixIfEEPKNS1_8FunctionILi3EEENS1_13MatrixCreator13IteratorRangeIS8_EERNS1_7Threads16DummyThreadMutexEEclES6_SA_SE_SH_SL_SO_SR_ = comdat any

$_ZN5boost6detail8function13basic_vtable0IvE9assign_toINS_3_bi6bind_tINS5_11unspecifiedENS_8functionIFvRKN6dealii2hp17MappingCollectionILi3ELi3EEERKNSA_10DoFHandlerILi3ELi3EEERKNSA_11QCollectionILi3EEERNS9_12SparseMatrixIfEEPKNS9_8FunctionILi3EEENS9_13MatrixCreator13IteratorRangeISG_EERNS9_7Threads16DummyThreadMutexEEEENS5_5list7INS_17reference_wrapperISD_EENS13_ISH_EENS13_ISL_EENS13_ISO_EENS5_5valueIST_EENS18_ISW_EENS13_ISY_EEEEEEEEbT_RNS1_15function_bufferENS1_16function_obj_tagE = comdat any

$_ZN5boost6detail8function15functor_managerIPFvRKN6dealii2hp17MappingCollectionILi3ELi3EEERKNS4_10DoFHandlerILi3ELi3EEERKNS4_11QCollectionILi3EEERNS3_12SparseMatrixIfEERKNS3_8FunctionILi3EEERNS3_6VectorIdEEPSM_NS3_13MatrixCreator13IteratorRangeISA_EERNS3_7Threads16DummyThreadMutexEEE6manageERKNS1_15function_bufferERS11_NS1_30functor_manager_operation_typeE = comdat any

$_ZN5boost6detail8function22void_function_invoker9IPFvRKN6dealii2hp17MappingCollectionILi3ELi3EEERKNS4_10DoFHandlerILi3ELi3EEERKNS4_11QCollectionILi3EEERNS3_12SparseMatrixIfEERKNS3_8FunctionILi3EEERNS3_6VectorIdEEPSM_NS3_13MatrixCreator13IteratorRangeISA_EERNS3_7Threads16DummyThreadMutexEEvS8_SC_SG_SJ_SN_SQ_SR_SU_SX_E6invokeERNS1_15function_bufferES8_SC_SG_SJ_SN_SQ_SR_SU_SX_ = comdat any

$_ZN5boost4bindINS_8functionIFvRKN6dealii2hp17MappingCollectionILi3ELi3EEERKNS3_10DoFHandlerILi3ELi3EEERKNS3_11QCollectionILi3EEERNS2_12SparseMatrixIfEERKNS2_8FunctionILi3EEERNS2_6VectorIdEEPSL_NS2_13MatrixCreator13IteratorRangeIS9_EERNS2_7Threads16DummyThreadMutexEEEENS_17reference_wrapperIS6_EENSZ_ISA_EENSZ_ISE_EENSZ_ISH_EENSZ_ISL_EENSZ_ISO_EESQ_ST_NSZ_ISV_EEEENS_3_bi6bind_tINS17_11unspecifiedET_NS17_9list_av_9IT0_T1_T2_T3_T4_T5_T6_T7_T8_E4typeEEES1A_S1C_S1D_S1E_S1F_S1G_S1H_S1I_S1J_S1K_ = comdat any

$_ZN5boost8functionIFvvEEC2INS_3_bi6bind_tINS4_11unspecifiedENS0_IFvRKN6dealii2hp17MappingCollectionILi3ELi3EEERKNS8_10DoFHandlerILi3ELi3EEERKNS8_11QCollectionILi3EEERNS7_12SparseMatrixIfEERKNS7_8FunctionILi3EEERNS7_6VectorIdEEPSQ_NS7_13MatrixCreator13IteratorRangeISE_EERNS7_7Threads16DummyThreadMutexEEEENS4_5list9INS_17reference_wrapperISB_EENS15_ISF_EENS15_ISJ_EENS15_ISM_EENS15_ISQ_EENS15_IST_EENS4_5valueISV_EENS1C_ISY_EENS15_IS10_EEEEEEEET_NS_11enable_if_cIXsr5boost11type_traits7ice_notIXsr11is_integralIS1I_EE5valueEEE5valueEiE4typeE = comdat any

$_ZN5boost9function0IvEC2INS_3_bi6bind_tINS3_11unspecifiedENS_8functionIFvRKN6dealii2hp17MappingCollectionILi3ELi3EEERKNS8_10DoFHandlerILi3ELi3EEERKNS8_11QCollectionILi3EEERNS7_12SparseMatrixIfEERKNS7_8FunctionILi3EEERNS7_6VectorIdEEPSQ_NS7_13MatrixCreator13IteratorRangeISE_EERNS7_7Threads16DummyThreadMutexEEEENS3_5list9INS_17reference_wrapperISB_EENS15_ISF_EENS15_ISJ_EENS15_ISM_EENS15_ISQ_EENS15_IST_EENS3_5valueISV_EENS1C_ISY_EENS15_IS10_EEEEEEEET_NS_11enable_if_cIXsr5boost11type_traits7ice_notIXsr11is_integralIS1I_EE5valueEEE5valueEiE4typeE = comdat any

$_ZN5boost9function0IvE9assign_toINS_3_bi6bind_tINS3_11unspecifiedENS_8functionIFvRKN6dealii2hp17MappingCollectionILi3ELi3EEERKNS8_10DoFHandlerILi3ELi3EEERKNS8_11QCollectionILi3EEERNS7_12SparseMatrixIfEERKNS7_8FunctionILi3EEERNS7_6VectorIdEEPSQ_NS7_13MatrixCreator13IteratorRangeISE_EERNS7_7Threads16DummyThreadMutexEEEENS3_5list9INS_17reference_wrapperISB_EENS15_ISF_EENS15_ISJ_EENS15_ISM_EENS15_ISQ_EENS15_IST_EENS3_5valueISV_EENS1C_ISY_EENS15_IS10_EEEEEEEEvT_ = comdat any

$_ZN5boost6detail8function15functor_managerINS_3_bi6bind_tINS3_11unspecifiedENS_8functionIFvRKN6dealii2hp17MappingCollectionILi3ELi3EEERKNS8_10DoFHandlerILi3ELi3EEERKNS8_11QCollectionILi3EEERNS7_12SparseMatrixIfEERKNS7_8FunctionILi3EEERNS7_6VectorIdEEPSQ_NS7_13MatrixCreator13IteratorRangeISE_EERNS7_7Threads16DummyThreadMutexEEEENS3_5list9INS_17reference_wrapperISB_EENS15_ISF_EENS15_ISJ_EENS15_ISM_EENS15_ISQ_EENS15_IST_EENS3_5valueISV_EENS1C_ISY_EENS15_IS10_EEEEEEE6manageERKNS1_15function_bufferERS1J_NS1_30functor_manager_operation_typeE = comdat any

$_ZN5boost6detail8function26void_function_obj_invoker0INS_3_bi6bind_tINS3_11unspecifiedENS_8functionIFvRKN6dealii2hp17MappingCollectionILi3ELi3EEERKNS8_10DoFHandlerILi3ELi3EEERKNS8_11QCollectionILi3EEERNS7_12SparseMatrixIfEERKNS7_8FunctionILi3EEERNS7_6VectorIdEEPSQ_NS7_13MatrixCreator13IteratorRangeISE_EERNS7_7Threads16DummyThreadMutexEEEENS3_5list9INS_17reference_wrapperISB_EENS15_ISF_EENS15_ISJ_EENS15_ISM_EENS15_ISQ_EENS15_IST_EENS3_5valueISV_EENS1C_ISY_EENS15_IS10_EEEEEEvE6invokeERNS1_15function_bufferE = comdat any

$_ZN5boost6detail8function13basic_vtable0IvE9assign_toINS_3_bi6bind_tINS5_11unspecifiedENS_8functionIFvRKN6dealii2hp17MappingCollectionILi3ELi3EEERKNSA_10DoFHandlerILi3ELi3EEERKNSA_11QCollectionILi3EEERNS9_12SparseMatrixIfEERKNS9_8FunctionILi3EEERNS9_6VectorIdEEPSS_NS9_13MatrixCreator13IteratorRangeISG_EERNS9_7Threads16DummyThreadMutexEEEENS5_5list9INS_17reference_wrapperISD_EENS17_ISH_EENS17_ISL_EENS17_ISO_EENS17_ISS_EENS17_ISV_EENS5_5valueISX_EENS1E_IS10_EENS17_IS12_EEEEEEEEbT_RNS1_15function_bufferE = comdat any

$_ZN5boost6detail8function15functor_managerINS_3_bi6bind_tINS3_11unspecifiedENS_8functionIFvRKN6dealii2hp17MappingCollectionILi3ELi3EEERKNS8_10DoFHandlerILi3ELi3EEERKNS8_11QCollectionILi3EEERNS7_12SparseMatrixIfEERKNS7_8FunctionILi3EEERNS7_6VectorIdEEPSQ_NS7_13MatrixCreator13IteratorRangeISE_EERNS7_7Threads16DummyThreadMutexEEEENS3_5list9INS_17reference_wrapperISB_EENS15_ISF_EENS15_ISJ_EENS15_ISM_EENS15_ISQ_EENS15_IST_EENS3_5valueISV_EENS1C_ISY_EENS15_IS10_EEEEEEE7managerERKNS1_15function_bufferERS1J_NS1_30functor_manager_operation_typeEN4mpl_5bool_ILb0EEE = comdat any

$_ZNK5boost9function9IvRKN6dealii2hp17MappingCollectionILi3ELi3EEERKNS2_10DoFHandlerILi3ELi3EEERKNS2_11QCollectionILi3EEERNS1_12SparseMatrixIfEERKNS1_8FunctionILi3EEERNS1_6VectorIdEEPSK_NS1_13MatrixCreator13IteratorRangeIS8_EERNS1_7Threads16DummyThreadMutexEEclES6_SA_SE_SH_SL_SO_SP_SS_SV_ = comdat any

$_ZN5boost6detail8function13basic_vtable0IvE9assign_toINS_3_bi6bind_tINS5_11unspecifiedENS_8functionIFvRKN6dealii2hp17MappingCollectionILi3ELi3EEERKNSA_10DoFHandlerILi3ELi3EEERKNSA_11QCollectionILi3EEERNS9_12SparseMatrixIfEERKNS9_8FunctionILi3EEERNS9_6VectorIdEEPSS_NS9_13MatrixCreator13IteratorRangeISG_EERNS9_7Threads16DummyThreadMutexEEEENS5_5list9INS_17reference_wrapperISD_EENS17_ISH_EENS17_ISL_EENS17_ISO_EENS17_ISS_EENS17_ISV_EENS5_5valueISX_EENS1E_IS10_EENS17_IS12_EEEEEEEEbT_RNS1_15function_bufferENS1_16function_obj_tagE = comdat any

$_ZSt18__do_uninit_fill_nIPSt6vectorIdSaIdEEmS2_ET_S4_T0_RKT1_ = comdat any

$_ZN6dealii8internal11DoFAccessor15get_dof_indicesINS_10DoFHandlerILi3ELi3EEEEEvRKNS_11DoFAccessorILi2ET_EERSt6vectorIjSaIjEEj = comdat any

$_ZN6dealii16FEFaceValuesBaseILi3ELi3EED2Ev = comdat any

$_ZN6dealii16FEFaceValuesBaseILi3ELi3EED0Ev = comdat any

$_ZN5boost6detail8function15functor_managerIPFvNS_6tuples5tupleIRKN6dealii7MappingILi3ELi3EEERKNS5_10DoFHandlerILi3ELi3EEERKNS5_10QuadratureILi2EEENS3_9null_typeESI_SI_SI_SI_SI_SI_EERNS5_12SparseMatrixIdEERKSt3mapIhPKNS5_8FunctionILi3EEESt4lessIhESaISt4pairIKhSR_EEERNS5_6VectorIdEERSt6vectorIjSaIjEESR_RKS16_NS5_13MatrixCreator13IteratorRangeISB_EERNS5_7Threads16DummyThreadMutexEEE6manageERKNS1_15function_bufferERS1J_NS1_30functor_manager_operation_typeE = comdat any

$_ZN5boost6detail8function22void_function_invoker9IPFvNS_6tuples5tupleIRKN6dealii7MappingILi3ELi3EEERKNS5_10DoFHandlerILi3ELi3EEERKNS5_10QuadratureILi2EEENS3_9null_typeESI_SI_SI_SI_SI_SI_EERNS5_12SparseMatrixIdEERKSt3mapIhPKNS5_8FunctionILi3EEESt4lessIhESaISt4pairIKhSR_EEERNS5_6VectorIdEERSt6vectorIjSaIjEESR_RKS16_NS5_13MatrixCreator13IteratorRangeISB_EERNS5_7Threads16DummyThreadMutexEEvSJ_SM_S10_S13_S17_SR_S19_S1C_S1F_E6invokeERNS1_15function_bufferESJ_SM_S10_S13_S17_SR_S19_S1C_S1F_ = comdat any

$_ZN5boost8functionIFvvEEC2INS_3_bi6bind_tINS4_11unspecifiedENS0_IFvNS_6tuples5tupleIRKN6dealii7MappingILi3ELi3EEERKNS9_10DoFHandlerILi3ELi3EEERKNS9_10QuadratureILi2EEENS7_9null_typeESM_SM_SM_SM_SM_SM_EERNS9_12SparseMatrixIdEERKSt3mapIhPKNS9_8FunctionILi3EEESt4lessIhESaISt4pairIKhSV_EEERNS9_6VectorIdEERSt6vectorIjSaIjEESV_RKS1A_NS9_13MatrixCreator13IteratorRangeISF_EERNS9_7Threads16DummyThreadMutexEEEENS4_5list9INS4_5valueISN_EENS_17reference_wrapperISP_EENS1P_IS13_EENS1P_IS16_EENS1P_IS1A_EENS1N_ISV_EENS1P_IS1C_EENS1N_IS1G_EENS1P_IS1I_EEEEEEEET_NS_11enable_if_cIXsr5boost11type_traits7ice_notIXsr11is_integralIS20_EE5valueEEE5valueEiE4typeE = comdat any

$_ZN5boost9function0IvEC2INS_3_bi6bind_tINS3_11unspecifiedENS_8functionIFvNS_6tuples5tupleIRKN6dealii7MappingILi3ELi3EEERKNS9_10DoFHandlerILi3ELi3EEERKNS9_10QuadratureILi2EEENS7_9null_typeESM_SM_SM_SM_SM_SM_EERNS9_12SparseMatrixIdEERKSt3mapIhPKNS9_8FunctionILi3EEESt4lessIhESaISt4pairIKhSV_EEERNS9_6VectorIdEERSt6vectorIjSaIjEESV_RKS1A_NS9_13MatrixCreator13IteratorRangeISF_EERNS9_7Threads16DummyThreadMutexEEEENS3_5list9INS3_5valueISN_EENS_17reference_wrapperISP_EENS1P_IS13_EENS1P_IS16_EENS1P_IS1A_EENS1N_ISV_EENS1P_IS1C_EENS1N_IS1G_EENS1P_IS1I_EEEEEEEET_NS_11enable_if_cIXsr5boost11type_traits7ice_notIXsr11is_integralIS20_EE5valueEEE5valueEiE4typeE = comdat any

$_ZN5boost9function0IvE9assign_toINS_3_bi6bind_tINS3_11unspecifiedENS_8functionIFvNS_6tuples5tupleIRKN6dealii7MappingILi3ELi3EEERKNS9_10DoFHandlerILi3ELi3EEERKNS9_10QuadratureILi2EEENS7_9null_typeESM_SM_SM_SM_SM_SM_EERNS9_12SparseMatrixIdEERKSt3mapIhPKNS9_8FunctionILi3EEESt4lessIhESaISt4pairIKhSV_EEERNS9_6VectorIdEERSt6vectorIjSaIjEESV_RKS1A_NS9_13MatrixCreator13IteratorRangeISF_EERNS9_7Threads16DummyThreadMutexEEEENS3_5list9INS3_5valueISN_EENS_17reference_wrapperISP_EENS1P_IS13_EENS1P_IS16_EENS1P_IS1A_EENS1N_ISV_EENS1P_IS1C_EENS1N_IS1G_EENS1P_IS1I_EEEEEEEEvT_ = comdat any

$_ZN5boost6detail8function15functor_managerINS_3_bi6bind_tINS3_11unspecifiedENS_8functionIFvNS_6tuples5tupleIRKN6dealii7MappingILi3ELi3EEERKNS9_10DoFHandlerILi3ELi3EEERKNS9_10QuadratureILi2EEENS7_9null_typeESM_SM_SM_SM_SM_SM_EERNS9_12SparseMatrixIdEERKSt3mapIhPKNS9_8FunctionILi3EEESt4lessIhESaISt4pairIKhSV_EEERNS9_6VectorIdEERSt6vectorIjSaIjEESV_RKS1A_NS9_13MatrixCreator13IteratorRangeISF_EERNS9_7Threads16DummyThreadMutexEEEENS3_5list9INS3_5valueISN_EENS_17reference_wrapperISP_EENS1P_IS13_EENS1P_IS16_EENS1P_IS1A_EENS1N_ISV_EENS1P_IS1C_EENS1N_IS1G_EENS1P_IS1I_EEEEEEE6manageERKNS1_15function_bufferERS21_NS1_30functor_manager_operation_typeE = comdat any

$_ZN5boost6detail8function26void_function_obj_invoker0INS_3_bi6bind_tINS3_11unspecifiedENS_8functionIFvNS_6tuples5tupleIRKN6dealii7MappingILi3ELi3EEERKNS9_10DoFHandlerILi3ELi3EEERKNS9_10QuadratureILi2EEENS7_9null_typeESM_SM_SM_SM_SM_SM_EERNS9_12SparseMatrixIdEERKSt3mapIhPKNS9_8FunctionILi3EEESt4lessIhESaISt4pairIKhSV_EEERNS9_6VectorIdEERSt6vectorIjSaIjEESV_RKS1A_NS9_13MatrixCreator13IteratorRangeISF_EERNS9_7Threads16DummyThreadMutexEEEENS3_5list9INS3_5valueISN_EENS_17reference_wrapperISP_EENS1P_IS13_EENS1P_IS16_EENS1P_IS1A_EENS1N_ISV_EENS1P_IS1C_EENS1N_IS1G_EENS1P_IS1I_EEEEEEvE6invokeERNS1_15function_bufferE = comdat any

$_ZN5boost6detail8function13basic_vtable0IvE9assign_toINS_3_bi6bind_tINS5_11unspecifiedENS_8functionIFvNS_6tuples5tupleIRKN6dealii7MappingILi3ELi3EEERKNSB_10DoFHandlerILi3ELi3EEERKNSB_10QuadratureILi2EEENS9_9null_typeESO_SO_SO_SO_SO_SO_EERNSB_12SparseMatrixIdEERKSt3mapIhPKNSB_8FunctionILi3EEESt4lessIhESaISt4pairIKhSX_EEERNSB_6VectorIdEERSt6vectorIjSaIjEESX_RKS1C_NSB_13MatrixCreator13IteratorRangeISH_EERNSB_7Threads16DummyThreadMutexEEEENS5_5list9INS5_5valueISP_EENS_17reference_wrapperISR_EENS1R_IS15_EENS1R_IS18_EENS1R_IS1C_EENS1P_ISX_EENS1R_IS1E_EENS1P_IS1I_EENS1R_IS1K_EEEEEEEEbT_RNS1_15function_bufferE = comdat any

$_ZN5boost6detail8function15functor_managerINS_3_bi6bind_tINS3_11unspecifiedENS_8functionIFvNS_6tuples5tupleIRKN6dealii7MappingILi3ELi3EEERKNS9_10DoFHandlerILi3ELi3EEERKNS9_10QuadratureILi2EEENS7_9null_typeESM_SM_SM_SM_SM_SM_EERNS9_12SparseMatrixIdEERKSt3mapIhPKNS9_8FunctionILi3EEESt4lessIhESaISt4pairIKhSV_EEERNS9_6VectorIdEERSt6vectorIjSaIjEESV_RKS1A_NS9_13MatrixCreator13IteratorRangeISF_EERNS9_7Threads16DummyThreadMutexEEEENS3_5list9INS3_5valueISN_EENS_17reference_wrapperISP_EENS1P_IS13_EENS1P_IS16_EENS1P_IS1A_EENS1N_ISV_EENS1P_IS1C_EENS1N_IS1G_EENS1P_IS1I_EEEEEEE7managerERKNS1_15function_bufferERS21_NS1_30functor_manager_operation_typeEN4mpl_5bool_ILb0EEE = comdat any

$_ZNK5boost9function9IvNS_6tuples5tupleIRKN6dealii7MappingILi3ELi3EEERKNS3_10DoFHandlerILi3ELi3EEERKNS3_10QuadratureILi2EEENS1_9null_typeESG_SG_SG_SG_SG_SG_EERNS3_12SparseMatrixIdEERKSt3mapIhPKNS3_8FunctionILi3EEESt4lessIhESaISt4pairIKhSP_EEERNS3_6VectorIdEERSt6vectorIjSaIjEESP_RKS14_NS3_13MatrixCreator13IteratorRangeIS9_EERNS3_7Threads16DummyThreadMutexEEclESH_SK_SY_S11_S15_SP_S17_S1A_S1D_ = comdat any

$_ZN5boost6detail8function13basic_vtable0IvE9assign_toINS_3_bi6bind_tINS5_11unspecifiedENS_8functionIFvNS_6tuples5tupleIRKN6dealii7MappingILi3ELi3EEERKNSB_10DoFHandlerILi3ELi3EEERKNSB_10QuadratureILi2EEENS9_9null_typeESO_SO_SO_SO_SO_SO_EERNSB_12SparseMatrixIdEERKSt3mapIhPKNSB_8FunctionILi3EEESt4lessIhESaISt4pairIKhSX_EEERNSB_6VectorIdEERSt6vectorIjSaIjEESX_RKS1C_NSB_13MatrixCreator13IteratorRangeISH_EERNSB_7Threads16DummyThreadMutexEEEENS5_5list9INS5_5valueISP_EENS_17reference_wrapperISR_EENS1R_IS15_EENS1R_IS18_EENS1R_IS1C_EENS1P_ISX_EENS1R_IS1E_EENS1P_IS1I_EENS1R_IS1K_EEEEEEEEbT_RNS1_15function_bufferENS1_16function_obj_tagE = comdat any

$_ZNSt6vectorIbSaIbEE14_M_fill_insertESt13_Bit_iteratormb = comdat any

$_ZN6dealii8internal11DoFAccessor15get_dof_indicesINS_2hp10DoFHandlerILi3ELi3EEEEEvRKNS_11DoFAccessorILi2ET_EERSt6vectorIjSaIjEEj = comdat any

$_ZN6dealii2hp11QCollectionILi2EED2Ev = comdat any

$_ZN5boost10shared_ptrIN6dealii12FEFaceValuesILi3ELi3EEEED2Ev = comdat any

$_ZN6dealii9TableBaseILi3EN5boost10shared_ptrINS_12FEFaceValuesILi3ELi3EEEEEED2Ev = comdat any

$_ZN6dealii9TableBaseILi3EN5boost10shared_ptrINS_12FEFaceValuesILi3ELi3EEEEEED0Ev = comdat any

$_ZN6dealii2hp11QCollectionILi2EED0Ev = comdat any

$_ZN5boost6detail8function15functor_managerIPFvNS_6tuples5tupleIRKN6dealii2hp17MappingCollectionILi3ELi3EEERKNS6_10DoFHandlerILi3ELi3EEERKNS6_11QCollectionILi2EEENS3_9null_typeESJ_SJ_SJ_SJ_SJ_SJ_EERNS5_12SparseMatrixIdEERKSt3mapIhPKNS5_8FunctionILi3EEESt4lessIhESaISt4pairIKhSS_EEERNS5_6VectorIdEERSt6vectorIjSaIjEESS_RKS17_NS5_13MatrixCreator13IteratorRangeISC_EERNS5_7Threads16DummyThreadMutexEEE6manageERKNS1_15function_bufferERS1K_NS1_30functor_manager_operation_typeE = comdat any

$_ZN5boost6detail8function22void_function_invoker9IPFvNS_6tuples5tupleIRKN6dealii2hp17MappingCollectionILi3ELi3EEERKNS6_10DoFHandlerILi3ELi3EEERKNS6_11QCollectionILi2EEENS3_9null_typeESJ_SJ_SJ_SJ_SJ_SJ_EERNS5_12SparseMatrixIdEERKSt3mapIhPKNS5_8FunctionILi3EEESt4lessIhESaISt4pairIKhSS_EEERNS5_6VectorIdEERSt6vectorIjSaIjEESS_RKS17_NS5_13MatrixCreator13IteratorRangeISC_EERNS5_7Threads16DummyThreadMutexEEvSK_SN_S11_S14_S18_SS_S1A_S1D_S1G_E6invokeERNS1_15function_bufferESK_SN_S11_S14_S18_SS_S1A_S1D_S1G_ = comdat any

$_ZN5boost8functionIFvvEEC2INS_3_bi6bind_tINS4_11unspecifiedENS0_IFvNS_6tuples5tupleIRKN6dealii2hp17MappingCollectionILi3ELi3EEERKNSA_10DoFHandlerILi3ELi3EEERKNSA_11QCollectionILi2EEENS7_9null_typeESN_SN_SN_SN_SN_SN_EERNS9_12SparseMatrixIdEERKSt3mapIhPKNS9_8FunctionILi3EEESt4lessIhESaISt4pairIKhSW_EEERNS9_6VectorIdEERSt6vectorIjSaIjEESW_RKS1B_NS9_13MatrixCreator13IteratorRangeISG_EERNS9_7Threads16DummyThreadMutexEEEENS4_5list9INS4_5valueISO_EENS_17reference_wrapperISQ_EENS1Q_IS14_EENS1Q_IS17_EENS1Q_IS1B_EENS1O_ISW_EENS1Q_IS1D_EENS1O_IS1H_EENS1Q_IS1J_EEEEEEEET_NS_11enable_if_cIXsr5boost11type_traits7ice_notIXsr11is_integralIS21_EE5valueEEE5valueEiE4typeE = comdat any

$_ZN5boost9function0IvEC2INS_3_bi6bind_tINS3_11unspecifiedENS_8functionIFvNS_6tuples5tupleIRKN6dealii2hp17MappingCollectionILi3ELi3EEERKNSA_10DoFHandlerILi3ELi3EEERKNSA_11QCollectionILi2EEENS7_9null_typeESN_SN_SN_SN_SN_SN_EERNS9_12SparseMatrixIdEERKSt3mapIhPKNS9_8FunctionILi3EEESt4lessIhESaISt4pairIKhSW_EEERNS9_6VectorIdEERSt6vectorIjSaIjEESW_RKS1B_NS9_13MatrixCreator13IteratorRangeISG_EERNS9_7Threads16DummyThreadMutexEEEENS3_5list9INS3_5valueISO_EENS_17reference_wrapperISQ_EENS1Q_IS14_EENS1Q_IS17_EENS1Q_IS1B_EENS1O_ISW_EENS1Q_IS1D_EENS1O_IS1H_EENS1Q_IS1J_EEEEEEEET_NS_11enable_if_cIXsr5boost11type_traits7ice_notIXsr11is_integralIS21_EE5valueEEE5valueEiE4typeE = comdat any

$_ZN5boost9function0IvE9assign_toINS_3_bi6bind_tINS3_11unspecifiedENS_8functionIFvNS_6tuples5tupleIRKN6dealii2hp17MappingCollectionILi3ELi3EEERKNSA_10DoFHandlerILi3ELi3EEERKNSA_11QCollectionILi2EEENS7_9null_typeESN_SN_SN_SN_SN_SN_EERNS9_12SparseMatrixIdEERKSt3mapIhPKNS9_8FunctionILi3EEESt4lessIhESaISt4pairIKhSW_EEERNS9_6VectorIdEERSt6vectorIjSaIjEESW_RKS1B_NS9_13MatrixCreator13IteratorRangeISG_EERNS9_7Threads16DummyThreadMutexEEEENS3_5list9INS3_5valueISO_EENS_17reference_wrapperISQ_EENS1Q_IS14_EENS1Q_IS17_EENS1Q_IS1B_EENS1O_ISW_EENS1Q_IS1D_EENS1O_IS1H_EENS1Q_IS1J_EEEEEEEEvT_ = comdat any

$_ZN5boost6detail8function15functor_managerINS_3_bi6bind_tINS3_11unspecifiedENS_8functionIFvNS_6tuples5tupleIRKN6dealii2hp17MappingCollectionILi3ELi3EEERKNSA_10DoFHandlerILi3ELi3EEERKNSA_11QCollectionILi2EEENS7_9null_typeESN_SN_SN_SN_SN_SN_EERNS9_12SparseMatrixIdEERKSt3mapIhPKNS9_8FunctionILi3EEESt4lessIhESaISt4pairIKhSW_EEERNS9_6VectorIdEERSt6vectorIjSaIjEESW_RKS1B_NS9_13MatrixCreator13IteratorRangeISG_EERNS9_7Threads16DummyThreadMutexEEEENS3_5list9INS3_5valueISO_EENS_17reference_wrapperISQ_EENS1Q_IS14_EENS1Q_IS17_EENS1Q_IS1B_EENS1O_ISW_EENS1Q_IS1D_EENS1O_IS1H_EENS1Q_IS1J_EEEEEEE6manageERKNS1_15function_bufferERS22_NS1_30functor_manager_operation_typeE = comdat any

$_ZN5boost6detail8function26void_function_obj_invoker0INS_3_bi6bind_tINS3_11unspecifiedENS_8functionIFvNS_6tuples5tupleIRKN6dealii2hp17MappingCollectionILi3ELi3EEERKNSA_10DoFHandlerILi3ELi3EEERKNSA_11QCollectionILi2EEENS7_9null_typeESN_SN_SN_SN_SN_SN_EERNS9_12SparseMatrixIdEERKSt3mapIhPKNS9_8FunctionILi3EEESt4lessIhESaISt4pairIKhSW_EEERNS9_6VectorIdEERSt6vectorIjSaIjEESW_RKS1B_NS9_13MatrixCreator13IteratorRangeISG_EERNS9_7Threads16DummyThreadMutexEEEENS3_5list9INS3_5valueISO_EENS_17reference_wrapperISQ_EENS1Q_IS14_EENS1Q_IS17_EENS1Q_IS1B_EENS1O_ISW_EENS1Q_IS1D_EENS1O_IS1H_EENS1Q_IS1J_EEEEEEvE6invokeERNS1_15function_bufferE = comdat any

$_ZN5boost6detail8function13basic_vtable0IvE9assign_toINS_3_bi6bind_tINS5_11unspecifiedENS_8functionIFvNS_6tuples5tupleIRKN6dealii2hp17MappingCollectionILi3ELi3EEERKNSC_10DoFHandlerILi3ELi3EEERKNSC_11QCollectionILi2EEENS9_9null_typeESP_SP_SP_SP_SP_SP_EERNSB_12SparseMatrixIdEERKSt3mapIhPKNSB_8FunctionILi3EEESt4lessIhESaISt4pairIKhSY_EEERNSB_6VectorIdEERSt6vectorIjSaIjEESY_RKS1D_NSB_13MatrixCreator13IteratorRangeISI_EERNSB_7Threads16DummyThreadMutexEEEENS5_5list9INS5_5valueISQ_EENS_17reference_wrapperISS_EENS1S_IS16_EENS1S_IS19_EENS1S_IS1D_EENS1Q_ISY_EENS1S_IS1F_EENS1Q_IS1J_EENS1S_IS1L_EEEEEEEEbT_RNS1_15function_bufferE = comdat any

$_ZN5boost6detail8function15functor_managerINS_3_bi6bind_tINS3_11unspecifiedENS_8functionIFvNS_6tuples5tupleIRKN6dealii2hp17MappingCollectionILi3ELi3EEERKNSA_10DoFHandlerILi3ELi3EEERKNSA_11QCollectionILi2EEENS7_9null_typeESN_SN_SN_SN_SN_SN_EERNS9_12SparseMatrixIdEERKSt3mapIhPKNS9_8FunctionILi3EEESt4lessIhESaISt4pairIKhSW_EEERNS9_6VectorIdEERSt6vectorIjSaIjEESW_RKS1B_NS9_13MatrixCreator13IteratorRangeISG_EERNS9_7Threads16DummyThreadMutexEEEENS3_5list9INS3_5valueISO_EENS_17reference_wrapperISQ_EENS1Q_IS14_EENS1Q_IS17_EENS1Q_IS1B_EENS1O_ISW_EENS1Q_IS1D_EENS1O_IS1H_EENS1Q_IS1J_EEEEEEE7managerERKNS1_15function_bufferERS22_NS1_30functor_manager_operation_typeEN4mpl_5bool_ILb0EEE = comdat any

$_ZNK5boost9function9IvNS_6tuples5tupleIRKN6dealii2hp17MappingCollectionILi3ELi3EEERKNS4_10DoFHandlerILi3ELi3EEERKNS4_11QCollectionILi2EEENS1_9null_typeESH_SH_SH_SH_SH_SH_EERNS3_12SparseMatrixIdEERKSt3mapIhPKNS3_8FunctionILi3EEESt4lessIhESaISt4pairIKhSQ_EEERNS3_6VectorIdEERSt6vectorIjSaIjEESQ_RKS15_NS3_13MatrixCreator13IteratorRangeISA_EERNS3_7Threads16DummyThreadMutexEEclESI_SL_SZ_S12_S16_SQ_S18_S1B_S1E_ = comdat any

$_ZN5boost6detail8function13basic_vtable0IvE9assign_toINS_3_bi6bind_tINS5_11unspecifiedENS_8functionIFvNS_6tuples5tupleIRKN6dealii2hp17MappingCollectionILi3ELi3EEERKNSC_10DoFHandlerILi3ELi3EEERKNSC_11QCollectionILi2EEENS9_9null_typeESP_SP_SP_SP_SP_SP_EERNSB_12SparseMatrixIdEERKSt3mapIhPKNSB_8FunctionILi3EEESt4lessIhESaISt4pairIKhSY_EEERNSB_6VectorIdEERSt6vectorIjSaIjEESY_RKS1D_NSB_13MatrixCreator13IteratorRangeISI_EERNSB_7Threads16DummyThreadMutexEEEENS5_5list9INS5_5valueISQ_EENS_17reference_wrapperISS_EENS1S_IS16_EENS1S_IS19_EENS1S_IS1D_EENS1Q_ISY_EENS1S_IS1F_EENS1Q_IS1J_EENS1S_IS1L_EEEEEEEEbT_RNS1_15function_bufferENS1_16function_obj_tagE = comdat any

$_ZTVN6dealii6VectorIdEE = comdat any

$_ZTSN6dealii6VectorIdEE = comdat any

$_ZTIN6dealii6VectorIdEE = comdat any

$_ZTVN6dealii9TableBaseILi2EdEE = comdat any

$_ZTSN6dealii9TableBaseILi2EdEE = comdat any

$_ZTIN6dealii9TableBaseILi2EdEE = comdat any

$_ZTVN6dealii8FEValuesILi3ELi3EEE = comdat any

$_ZTSN6dealii8FEValuesILi3ELi3EEE = comdat any

$_ZTSN6dealii12FEValuesBaseILi3ELi3EEE = comdat any

$_ZTSN6dealii12FEValuesDataILi3ELi3EEE = comdat any

$_ZTIN6dealii12FEValuesDataILi3ELi3EEE = comdat any

$_ZTIN6dealii12FEValuesBaseILi3ELi3EEE = comdat any

$_ZTIN6dealii8FEValuesILi3ELi3EEE = comdat any

$_ZZN5boost9function7IvRKN6dealii7MappingILi3ELi3EEERKNS1_10DoFHandlerILi3ELi3EEERKNS1_10QuadratureILi3EEERNS1_12SparseMatrixIdEEPKNS1_8FunctionILi3EEENS1_13MatrixCreator13IteratorRangeIS7_EERNS1_7Threads16DummyThreadMutexEE9assign_toIPFvS5_S9_SD_SG_SK_SN_SQ_EEEvT_E13stored_vtable = comdat any

$_ZTSPFvRKN6dealii7MappingILi3ELi3EEERKNS_10DoFHandlerILi3ELi3EEERKNS_10QuadratureILi3EEERNS_12SparseMatrixIdEEPKNS_8FunctionILi3EEENS_13MatrixCreator13IteratorRangeIS5_EERNS_7Threads16DummyThreadMutexEE = comdat any

$_ZTSFvRKN6dealii7MappingILi3ELi3EEERKNS_10DoFHandlerILi3ELi3EEERKNS_10QuadratureILi3EEERNS_12SparseMatrixIdEEPKNS_8FunctionILi3EEENS_13MatrixCreator13IteratorRangeIS5_EERNS_7Threads16DummyThreadMutexEE = comdat any

$_ZTIFvRKN6dealii7MappingILi3ELi3EEERKNS_10DoFHandlerILi3ELi3EEERKNS_10QuadratureILi3EEERNS_12SparseMatrixIdEEPKNS_8FunctionILi3EEENS_13MatrixCreator13IteratorRangeIS5_EERNS_7Threads16DummyThreadMutexEE = comdat any

$_ZTIPFvRKN6dealii7MappingILi3ELi3EEERKNS_10DoFHandlerILi3ELi3EEERKNS_10QuadratureILi3EEERNS_12SparseMatrixIdEEPKNS_8FunctionILi3EEENS_13MatrixCreator13IteratorRangeIS5_EERNS_7Threads16DummyThreadMutexEE = comdat any

$_ZZN5boost9function0IvE9assign_toINS_3_bi6bind_tINS3_11unspecifiedENS_8functionIFvRKN6dealii7MappingILi3ELi3EEERKNS7_10DoFHandlerILi3ELi3EEERKNS7_10QuadratureILi3EEERNS7_12SparseMatrixIdEEPKNS7_8FunctionILi3EEENS7_13MatrixCreator13IteratorRangeISD_EERNS7_7Threads16DummyThreadMutexEEEENS3_5list7INS_17reference_wrapperISA_EENS10_ISE_EENS10_ISI_EENS10_ISL_EENS3_5valueISQ_EENS15_IST_EENS10_ISV_EEEEEEEEvT_E13stored_vtable = comdat any

$_ZTSN5boost3_bi6bind_tINS0_11unspecifiedENS_8functionIFvRKN6dealii7MappingILi3ELi3EEERKNS4_10DoFHandlerILi3ELi3EEERKNS4_10QuadratureILi3EEERNS4_12SparseMatrixIdEEPKNS4_8FunctionILi3EEENS4_13MatrixCreator13IteratorRangeISA_EERNS4_7Threads16DummyThreadMutexEEEENS0_5list7INS_17reference_wrapperIS7_EENSX_ISB_EENSX_ISF_EENSX_ISI_EENS0_5valueISN_EENS12_ISQ_EENSX_ISS_EEEEEE = comdat any

$_ZTIN5boost3_bi6bind_tINS0_11unspecifiedENS_8functionIFvRKN6dealii7MappingILi3ELi3EEERKNS4_10DoFHandlerILi3ELi3EEERKNS4_10QuadratureILi3EEERNS4_12SparseMatrixIdEEPKNS4_8FunctionILi3EEENS4_13MatrixCreator13IteratorRangeISA_EERNS4_7Threads16DummyThreadMutexEEEENS0_5list7INS_17reference_wrapperIS7_EENSX_ISB_EENSX_ISF_EENSX_ISI_EENS0_5valueISN_EENS12_ISQ_EENSX_ISS_EEEEEE = comdat any

$_ZTSN5boost16exception_detail10clone_implINS0_19error_info_injectorINS_17bad_function_callEEEEE = comdat any

$_ZTSN5boost16exception_detail19error_info_injectorINS_17bad_function_callEEE = comdat any

$_ZTSN5boost17bad_function_callE = comdat any

$_ZTIN5boost17bad_function_callE = comdat any

$_ZTSN5boost9exceptionE = comdat any

$_ZTIN5boost9exceptionE = comdat any

$_ZTIN5boost16exception_detail19error_info_injectorINS_17bad_function_callEEE = comdat any

$_ZTSN5boost16exception_detail10clone_baseE = comdat any

$_ZTIN5boost16exception_detail10clone_baseE = comdat any

$_ZTIN5boost16exception_detail10clone_implINS0_19error_info_injectorINS_17bad_function_callEEEEE = comdat any

$_ZTVN5boost16exception_detail10clone_implINS0_19error_info_injectorINS_17bad_function_callEEEEE = comdat any

$_ZTVN5boost16exception_detail19error_info_injectorINS_17bad_function_callEEE = comdat any

$_ZTVN5boost17bad_function_callE = comdat any

$_ZTVN5boost9exceptionE = comdat any

$_ZTVN5boost6detail17sp_counted_impl_pIN6dealii7Threads8internal16ThreadDescriptorIvEEEE = comdat any

$_ZTSN5boost6detail17sp_counted_impl_pIN6dealii7Threads8internal16ThreadDescriptorIvEEEE = comdat any

$_ZTSN5boost6detail15sp_counted_baseE = comdat any

$_ZTIN5boost6detail15sp_counted_baseE = comdat any

$_ZTIN5boost6detail17sp_counted_impl_pIN6dealii7Threads8internal16ThreadDescriptorIvEEEE = comdat any

$_ZTSN6dealii7Threads6ThreadIvE11ExcNoThreadE = comdat any

$_ZTIN6dealii7Threads6ThreadIvE11ExcNoThreadE = comdat any

$_ZTVN6dealii7Threads6ThreadIvE11ExcNoThreadE = comdat any

$_ZZN5boost9function9IvRKN6dealii7MappingILi3ELi3EEERKNS1_10DoFHandlerILi3ELi3EEERKNS1_10QuadratureILi3EEERNS1_12SparseMatrixIdEERKNS1_8FunctionILi3EEERNS1_6VectorIdEEPSJ_NS1_13MatrixCreator13IteratorRangeIS7_EERNS1_7Threads16DummyThreadMutexEE9assign_toIPFvS5_S9_SD_SG_SK_SN_SO_SR_SU_EEEvT_E13stored_vtable = comdat any

$_ZTSPFvRKN6dealii7MappingILi3ELi3EEERKNS_10DoFHandlerILi3ELi3EEERKNS_10QuadratureILi3EEERNS_12SparseMatrixIdEERKNS_8FunctionILi3EEERNS_6VectorIdEEPSH_NS_13MatrixCreator13IteratorRangeIS5_EERNS_7Threads16DummyThreadMutexEE = comdat any

$_ZTSFvRKN6dealii7MappingILi3ELi3EEERKNS_10DoFHandlerILi3ELi3EEERKNS_10QuadratureILi3EEERNS_12SparseMatrixIdEERKNS_8FunctionILi3EEERNS_6VectorIdEEPSH_NS_13MatrixCreator13IteratorRangeIS5_EERNS_7Threads16DummyThreadMutexEE = comdat any

$_ZTIFvRKN6dealii7MappingILi3ELi3EEERKNS_10DoFHandlerILi3ELi3EEERKNS_10QuadratureILi3EEERNS_12SparseMatrixIdEERKNS_8FunctionILi3EEERNS_6VectorIdEEPSH_NS_13MatrixCreator13IteratorRangeIS5_EERNS_7Threads16DummyThreadMutexEE = comdat any

$_ZTIPFvRKN6dealii7MappingILi3ELi3EEERKNS_10DoFHandlerILi3ELi3EEERKNS_10QuadratureILi3EEERNS_12SparseMatrixIdEERKNS_8FunctionILi3EEERNS_6VectorIdEEPSH_NS_13MatrixCreator13IteratorRangeIS5_EERNS_7Threads16DummyThreadMutexEE = comdat any

$_ZZN5boost9function0IvE9assign_toINS_3_bi6bind_tINS3_11unspecifiedENS_8functionIFvRKN6dealii7MappingILi3ELi3EEERKNS7_10DoFHandlerILi3ELi3EEERKNS7_10QuadratureILi3EEERNS7_12SparseMatrixIdEERKNS7_8FunctionILi3EEERNS7_6VectorIdEEPSP_NS7_13MatrixCreator13IteratorRangeISD_EERNS7_7Threads16DummyThreadMutexEEEENS3_5list9INS_17reference_wrapperISA_EENS14_ISE_EENS14_ISI_EENS14_ISL_EENS14_ISP_EENS14_ISS_EENS3_5valueISU_EENS1B_ISX_EENS14_ISZ_EEEEEEEEvT_E13stored_vtable = comdat any

$_ZTSN5boost3_bi6bind_tINS0_11unspecifiedENS_8functionIFvRKN6dealii7MappingILi3ELi3EEERKNS4_10DoFHandlerILi3ELi3EEERKNS4_10QuadratureILi3EEERNS4_12SparseMatrixIdEERKNS4_8FunctionILi3EEERNS4_6VectorIdEEPSM_NS4_13MatrixCreator13IteratorRangeISA_EERNS4_7Threads16DummyThreadMutexEEEENS0_5list9INS_17reference_wrapperIS7_EENS11_ISB_EENS11_ISF_EENS11_ISI_EENS11_ISM_EENS11_ISP_EENS0_5valueISR_EENS18_ISU_EENS11_ISW_EEEEEE = comdat any

$_ZTIN5boost3_bi6bind_tINS0_11unspecifiedENS_8functionIFvRKN6dealii7MappingILi3ELi3EEERKNS4_10DoFHandlerILi3ELi3EEERKNS4_10QuadratureILi3EEERNS4_12SparseMatrixIdEERKNS4_8FunctionILi3EEERNS4_6VectorIdEEPSM_NS4_13MatrixCreator13IteratorRangeISA_EERNS4_7Threads16DummyThreadMutexEEEENS0_5list9INS_17reference_wrapperIS7_EENS11_ISB_EENS11_ISF_EENS11_ISI_EENS11_ISM_EENS11_ISP_EENS0_5valueISR_EENS18_ISU_EENS11_ISW_EEEEEE = comdat any

$_ZTVN6dealii9TableBaseILi2EfEE = comdat any

$_ZTSN6dealii9TableBaseILi2EfEE = comdat any

$_ZTIN6dealii9TableBaseILi2EfEE = comdat any

$_ZZN5boost9function7IvRKN6dealii7MappingILi3ELi3EEERKNS1_10DoFHandlerILi3ELi3EEERKNS1_10QuadratureILi3EEERNS1_12SparseMatrixIfEEPKNS1_8FunctionILi3EEENS1_13MatrixCreator13IteratorRangeIS7_EERNS1_7Threads16DummyThreadMutexEE9assign_toIPFvS5_S9_SD_SG_SK_SN_SQ_EEEvT_E13stored_vtable = comdat any

$_ZTSPFvRKN6dealii7MappingILi3ELi3EEERKNS_10DoFHandlerILi3ELi3EEERKNS_10QuadratureILi3EEERNS_12SparseMatrixIfEEPKNS_8FunctionILi3EEENS_13MatrixCreator13IteratorRangeIS5_EERNS_7Threads16DummyThreadMutexEE = comdat any

$_ZTSFvRKN6dealii7MappingILi3ELi3EEERKNS_10DoFHandlerILi3ELi3EEERKNS_10QuadratureILi3EEERNS_12SparseMatrixIfEEPKNS_8FunctionILi3EEENS_13MatrixCreator13IteratorRangeIS5_EERNS_7Threads16DummyThreadMutexEE = comdat any

$_ZTIFvRKN6dealii7MappingILi3ELi3EEERKNS_10DoFHandlerILi3ELi3EEERKNS_10QuadratureILi3EEERNS_12SparseMatrixIfEEPKNS_8FunctionILi3EEENS_13MatrixCreator13IteratorRangeIS5_EERNS_7Threads16DummyThreadMutexEE = comdat any

$_ZTIPFvRKN6dealii7MappingILi3ELi3EEERKNS_10DoFHandlerILi3ELi3EEERKNS_10QuadratureILi3EEERNS_12SparseMatrixIfEEPKNS_8FunctionILi3EEENS_13MatrixCreator13IteratorRangeIS5_EERNS_7Threads16DummyThreadMutexEE = comdat any

$_ZZN5boost9function0IvE9assign_toINS_3_bi6bind_tINS3_11unspecifiedENS_8functionIFvRKN6dealii7MappingILi3ELi3EEERKNS7_10DoFHandlerILi3ELi3EEERKNS7_10QuadratureILi3EEERNS7_12SparseMatrixIfEEPKNS7_8FunctionILi3EEENS7_13MatrixCreator13IteratorRangeISD_EERNS7_7Threads16DummyThreadMutexEEEENS3_5list7INS_17reference_wrapperISA_EENS10_ISE_EENS10_ISI_EENS10_ISL_EENS3_5valueISQ_EENS15_IST_EENS10_ISV_EEEEEEEEvT_E13stored_vtable = comdat any

$_ZTSN5boost3_bi6bind_tINS0_11unspecifiedENS_8functionIFvRKN6dealii7MappingILi3ELi3EEERKNS4_10DoFHandlerILi3ELi3EEERKNS4_10QuadratureILi3EEERNS4_12SparseMatrixIfEEPKNS4_8FunctionILi3EEENS4_13MatrixCreator13IteratorRangeISA_EERNS4_7Threads16DummyThreadMutexEEEENS0_5list7INS_17reference_wrapperIS7_EENSX_ISB_EENSX_ISF_EENSX_ISI_EENS0_5valueISN_EENS12_ISQ_EENSX_ISS_EEEEEE = comdat any

$_ZTIN5boost3_bi6bind_tINS0_11unspecifiedENS_8functionIFvRKN6dealii7MappingILi3ELi3EEERKNS4_10DoFHandlerILi3ELi3EEERKNS4_10QuadratureILi3EEERNS4_12SparseMatrixIfEEPKNS4_8FunctionILi3EEENS4_13MatrixCreator13IteratorRangeISA_EERNS4_7Threads16DummyThreadMutexEEEENS0_5list7INS_17reference_wrapperIS7_EENSX_ISB_EENSX_ISF_EENSX_ISI_EENS0_5valueISN_EENS12_ISQ_EENSX_ISS_EEEEEE = comdat any

$_ZZN5boost9function9IvRKN6dealii7MappingILi3ELi3EEERKNS1_10DoFHandlerILi3ELi3EEERKNS1_10QuadratureILi3EEERNS1_12SparseMatrixIfEERKNS1_8FunctionILi3EEERNS1_6VectorIdEEPSJ_NS1_13MatrixCreator13IteratorRangeIS7_EERNS1_7Threads16DummyThreadMutexEE9assign_toIPFvS5_S9_SD_SG_SK_SN_SO_SR_SU_EEEvT_E13stored_vtable = comdat any

$_ZTSPFvRKN6dealii7MappingILi3ELi3EEERKNS_10DoFHandlerILi3ELi3EEERKNS_10QuadratureILi3EEERNS_12SparseMatrixIfEERKNS_8FunctionILi3EEERNS_6VectorIdEEPSH_NS_13MatrixCreator13IteratorRangeIS5_EERNS_7Threads16DummyThreadMutexEE = comdat any

$_ZTSFvRKN6dealii7MappingILi3ELi3EEERKNS_10DoFHandlerILi3ELi3EEERKNS_10QuadratureILi3EEERNS_12SparseMatrixIfEERKNS_8FunctionILi3EEERNS_6VectorIdEEPSH_NS_13MatrixCreator13IteratorRangeIS5_EERNS_7Threads16DummyThreadMutexEE = comdat any

$_ZTIFvRKN6dealii7MappingILi3ELi3EEERKNS_10DoFHandlerILi3ELi3EEERKNS_10QuadratureILi3EEERNS_12SparseMatrixIfEERKNS_8FunctionILi3EEERNS_6VectorIdEEPSH_NS_13MatrixCreator13IteratorRangeIS5_EERNS_7Threads16DummyThreadMutexEE = comdat any

$_ZTIPFvRKN6dealii7MappingILi3ELi3EEERKNS_10DoFHandlerILi3ELi3EEERKNS_10QuadratureILi3EEERNS_12SparseMatrixIfEERKNS_8FunctionILi3EEERNS_6VectorIdEEPSH_NS_13MatrixCreator13IteratorRangeIS5_EERNS_7Threads16DummyThreadMutexEE = comdat any

$_ZZN5boost9function0IvE9assign_toINS_3_bi6bind_tINS3_11unspecifiedENS_8functionIFvRKN6dealii7MappingILi3ELi3EEERKNS7_10DoFHandlerILi3ELi3EEERKNS7_10QuadratureILi3EEERNS7_12SparseMatrixIfEERKNS7_8FunctionILi3EEERNS7_6VectorIdEEPSP_NS7_13MatrixCreator13IteratorRangeISD_EERNS7_7Threads16DummyThreadMutexEEEENS3_5list9INS_17reference_wrapperISA_EENS14_ISE_EENS14_ISI_EENS14_ISL_EENS14_ISP_EENS14_ISS_EENS3_5valueISU_EENS1B_ISX_EENS14_ISZ_EEEEEEEEvT_E13stored_vtable = comdat any

$_ZTSN5boost3_bi6bind_tINS0_11unspecifiedENS_8functionIFvRKN6dealii7MappingILi3ELi3EEERKNS4_10DoFHandlerILi3ELi3EEERKNS4_10QuadratureILi3EEERNS4_12SparseMatrixIfEERKNS4_8FunctionILi3EEERNS4_6VectorIdEEPSM_NS4_13MatrixCreator13IteratorRangeISA_EERNS4_7Threads16DummyThreadMutexEEEENS0_5list9INS_17reference_wrapperIS7_EENS11_ISB_EENS11_ISF_EENS11_ISI_EENS11_ISM_EENS11_ISP_EENS0_5valueISR_EENS18_ISU_EENS11_ISW_EEEEEE = comdat any

$_ZTIN5boost3_bi6bind_tINS0_11unspecifiedENS_8functionIFvRKN6dealii7MappingILi3ELi3EEERKNS4_10DoFHandlerILi3ELi3EEERKNS4_10QuadratureILi3EEERNS4_12SparseMatrixIfEERKNS4_8FunctionILi3EEERNS4_6VectorIdEEPSM_NS4_13MatrixCreator13IteratorRangeISA_EERNS4_7Threads16DummyThreadMutexEEEENS0_5list9INS_17reference_wrapperIS7_EENS11_ISB_EENS11_ISF_EENS11_ISI_EENS11_ISM_EENS11_ISP_EENS0_5valueISR_EENS18_ISU_EENS11_ISW_EEEEEE = comdat any

$_ZZN6dealii8internal12TriaAccessor14Implementation12vertex_indexILi3ELi3EEEjRKNS_12TriaAccessorILi2EXT_EXT0_EEEjE12switch_table = comdat any

$_ZZN6dealii8internal12TriaAccessor14Implementation10line_indexILi3ELi3EEEjRKNS_12TriaAccessorILi3EXT_EXT0_EEEjE12lookup_table = comdat any

$_ZZN6dealii8internal12TriaAccessor14Implementation16line_orientationILi3ELi3EEEbRKNS_12TriaAccessorILi3EXT_EXT0_EEEjE12lookup_table = comdat any

$_ZZN6dealii8internal12TriaAccessor14Implementation16line_orientationILi3ELi3EEEbRKNS_12TriaAccessorILi3EXT_EXT0_EEEjE10bool_table = comdat any

$_ZTVN6dealii9TableBaseILi3EN5boost10shared_ptrINS_8FEValuesILi3ELi3EEEEEEE = comdat any

$_ZTSN6dealii9TableBaseILi3EN5boost10shared_ptrINS_8FEValuesILi3ELi3EEEEEEE = comdat any

$_ZTIN6dealii9TableBaseILi3EN5boost10shared_ptrINS_8FEValuesILi3ELi3EEEEEEE = comdat any

$_ZTVN6dealii2hp11QCollectionILi3EEE = comdat any

$_ZTSN6dealii2hp11QCollectionILi3EEE = comdat any

$_ZTIN6dealii2hp11QCollectionILi3EEE = comdat any

$_ZZN5boost9function7IvRKN6dealii2hp17MappingCollectionILi3ELi3EEERKNS2_10DoFHandlerILi3ELi3EEERKNS2_11QCollectionILi3EEERNS1_12SparseMatrixIdEEPKNS1_8FunctionILi3EEENS1_13MatrixCreator13IteratorRangeIS8_EERNS1_7Threads16DummyThreadMutexEE9assign_toIPFvS6_SA_SE_SH_SL_SO_SR_EEEvT_E13stored_vtable = comdat any

$_ZTSPFvRKN6dealii2hp17MappingCollectionILi3ELi3EEERKNS0_10DoFHandlerILi3ELi3EEERKNS0_11QCollectionILi3EEERNS_12SparseMatrixIdEEPKNS_8FunctionILi3EEENS_13MatrixCreator13IteratorRangeIS6_EERNS_7Threads16DummyThreadMutexEE = comdat any

$_ZTSFvRKN6dealii2hp17MappingCollectionILi3ELi3EEERKNS0_10DoFHandlerILi3ELi3EEERKNS0_11QCollectionILi3EEERNS_12SparseMatrixIdEEPKNS_8FunctionILi3EEENS_13MatrixCreator13IteratorRangeIS6_EERNS_7Threads16DummyThreadMutexEE = comdat any

$_ZTIFvRKN6dealii2hp17MappingCollectionILi3ELi3EEERKNS0_10DoFHandlerILi3ELi3EEERKNS0_11QCollectionILi3EEERNS_12SparseMatrixIdEEPKNS_8FunctionILi3EEENS_13MatrixCreator13IteratorRangeIS6_EERNS_7Threads16DummyThreadMutexEE = comdat any

$_ZTIPFvRKN6dealii2hp17MappingCollectionILi3ELi3EEERKNS0_10DoFHandlerILi3ELi3EEERKNS0_11QCollectionILi3EEERNS_12SparseMatrixIdEEPKNS_8FunctionILi3EEENS_13MatrixCreator13IteratorRangeIS6_EERNS_7Threads16DummyThreadMutexEE = comdat any

$_ZZN5boost9function0IvE9assign_toINS_3_bi6bind_tINS3_11unspecifiedENS_8functionIFvRKN6dealii2hp17MappingCollectionILi3ELi3EEERKNS8_10DoFHandlerILi3ELi3EEERKNS8_11QCollectionILi3EEERNS7_12SparseMatrixIdEEPKNS7_8FunctionILi3EEENS7_13MatrixCreator13IteratorRangeISE_EERNS7_7Threads16DummyThreadMutexEEEENS3_5list7INS_17reference_wrapperISB_EENS11_ISF_EENS11_ISJ_EENS11_ISM_EENS3_5valueISR_EENS16_ISU_EENS11_ISW_EEEEEEEEvT_E13stored_vtable = comdat any

$_ZTSN5boost3_bi6bind_tINS0_11unspecifiedENS_8functionIFvRKN6dealii2hp17MappingCollectionILi3ELi3EEERKNS5_10DoFHandlerILi3ELi3EEERKNS5_11QCollectionILi3EEERNS4_12SparseMatrixIdEEPKNS4_8FunctionILi3EEENS4_13MatrixCreator13IteratorRangeISB_EERNS4_7Threads16DummyThreadMutexEEEENS0_5list7INS_17reference_wrapperIS8_EENSY_ISC_EENSY_ISG_EENSY_ISJ_EENS0_5valueISO_EENS13_ISR_EENSY_IST_EEEEEE = comdat any

$_ZTIN5boost3_bi6bind_tINS0_11unspecifiedENS_8functionIFvRKN6dealii2hp17MappingCollectionILi3ELi3EEERKNS5_10DoFHandlerILi3ELi3EEERKNS5_11QCollectionILi3EEERNS4_12SparseMatrixIdEEPKNS4_8FunctionILi3EEENS4_13MatrixCreator13IteratorRangeISB_EERNS4_7Threads16DummyThreadMutexEEEENS0_5list7INS_17reference_wrapperIS8_EENSY_ISC_EENSY_ISG_EENSY_ISJ_EENS0_5valueISO_EENS13_ISR_EENSY_IST_EEEEEE = comdat any

$_ZZN5boost9function9IvRKN6dealii2hp17MappingCollectionILi3ELi3EEERKNS2_10DoFHandlerILi3ELi3EEERKNS2_11QCollectionILi3EEERNS1_12SparseMatrixIdEERKNS1_8FunctionILi3EEERNS1_6VectorIdEEPSK_NS1_13MatrixCreator13IteratorRangeIS8_EERNS1_7Threads16DummyThreadMutexEE9assign_toIPFvS6_SA_SE_SH_SL_SO_SP_SS_SV_EEEvT_E13stored_vtable = comdat any

$_ZTSPFvRKN6dealii2hp17MappingCollectionILi3ELi3EEERKNS0_10DoFHandlerILi3ELi3EEERKNS0_11QCollectionILi3EEERNS_12SparseMatrixIdEERKNS_8FunctionILi3EEERNS_6VectorIdEEPSI_NS_13MatrixCreator13IteratorRangeIS6_EERNS_7Threads16DummyThreadMutexEE = comdat any

$_ZTSFvRKN6dealii2hp17MappingCollectionILi3ELi3EEERKNS0_10DoFHandlerILi3ELi3EEERKNS0_11QCollectionILi3EEERNS_12SparseMatrixIdEERKNS_8FunctionILi3EEERNS_6VectorIdEEPSI_NS_13MatrixCreator13IteratorRangeIS6_EERNS_7Threads16DummyThreadMutexEE = comdat any

$_ZTIFvRKN6dealii2hp17MappingCollectionILi3ELi3EEERKNS0_10DoFHandlerILi3ELi3EEERKNS0_11QCollectionILi3EEERNS_12SparseMatrixIdEERKNS_8FunctionILi3EEERNS_6VectorIdEEPSI_NS_13MatrixCreator13IteratorRangeIS6_EERNS_7Threads16DummyThreadMutexEE = comdat any

$_ZTIPFvRKN6dealii2hp17MappingCollectionILi3ELi3EEERKNS0_10DoFHandlerILi3ELi3EEERKNS0_11QCollectionILi3EEERNS_12SparseMatrixIdEERKNS_8FunctionILi3EEERNS_6VectorIdEEPSI_NS_13MatrixCreator13IteratorRangeIS6_EERNS_7Threads16DummyThreadMutexEE = comdat any

$_ZZN5boost9function0IvE9assign_toINS_3_bi6bind_tINS3_11unspecifiedENS_8functionIFvRKN6dealii2hp17MappingCollectionILi3ELi3EEERKNS8_10DoFHandlerILi3ELi3EEERKNS8_11QCollectionILi3EEERNS7_12SparseMatrixIdEERKNS7_8FunctionILi3EEERNS7_6VectorIdEEPSQ_NS7_13MatrixCreator13IteratorRangeISE_EERNS7_7Threads16DummyThreadMutexEEEENS3_5list9INS_17reference_wrapperISB_EENS15_ISF_EENS15_ISJ_EENS15_ISM_EENS15_ISQ_EENS15_IST_EENS3_5valueISV_EENS1C_ISY_EENS15_IS10_EEEEEEEEvT_E13stored_vtable = comdat any

$_ZTSN5boost3_bi6bind_tINS0_11unspecifiedENS_8functionIFvRKN6dealii2hp17MappingCollectionILi3ELi3EEERKNS5_10DoFHandlerILi3ELi3EEERKNS5_11QCollectionILi3EEERNS4_12SparseMatrixIdEERKNS4_8FunctionILi3EEERNS4_6VectorIdEEPSN_NS4_13MatrixCreator13IteratorRangeISB_EERNS4_7Threads16DummyThreadMutexEEEENS0_5list9INS_17reference_wrapperIS8_EENS12_ISC_EENS12_ISG_EENS12_ISJ_EENS12_ISN_EENS12_ISQ_EENS0_5valueISS_EENS19_ISV_EENS12_ISX_EEEEEE = comdat any

$_ZTIN5boost3_bi6bind_tINS0_11unspecifiedENS_8functionIFvRKN6dealii2hp17MappingCollectionILi3ELi3EEERKNS5_10DoFHandlerILi3ELi3EEERKNS5_11QCollectionILi3EEERNS4_12SparseMatrixIdEERKNS4_8FunctionILi3EEERNS4_6VectorIdEEPSN_NS4_13MatrixCreator13IteratorRangeISB_EERNS4_7Threads16DummyThreadMutexEEEENS0_5list9INS_17reference_wrapperIS8_EENS12_ISC_EENS12_ISG_EENS12_ISJ_EENS12_ISN_EENS12_ISQ_EENS0_5valueISS_EENS19_ISV_EENS12_ISX_EEEEEE = comdat any

$_ZZN5boost9function7IvRKN6dealii2hp17MappingCollectionILi3ELi3EEERKNS2_10DoFHandlerILi3ELi3EEERKNS2_11QCollectionILi3EEERNS1_12SparseMatrixIfEEPKNS1_8FunctionILi3EEENS1_13MatrixCreator13IteratorRangeIS8_EERNS1_7Threads16DummyThreadMutexEE9assign_toIPFvS6_SA_SE_SH_SL_SO_SR_EEEvT_E13stored_vtable = comdat any

$_ZTSPFvRKN6dealii2hp17MappingCollectionILi3ELi3EEERKNS0_10DoFHandlerILi3ELi3EEERKNS0_11QCollectionILi3EEERNS_12SparseMatrixIfEEPKNS_8FunctionILi3EEENS_13MatrixCreator13IteratorRangeIS6_EERNS_7Threads16DummyThreadMutexEE = comdat any

$_ZTSFvRKN6dealii2hp17MappingCollectionILi3ELi3EEERKNS0_10DoFHandlerILi3ELi3EEERKNS0_11QCollectionILi3EEERNS_12SparseMatrixIfEEPKNS_8FunctionILi3EEENS_13MatrixCreator13IteratorRangeIS6_EERNS_7Threads16DummyThreadMutexEE = comdat any

$_ZTIFvRKN6dealii2hp17MappingCollectionILi3ELi3EEERKNS0_10DoFHandlerILi3ELi3EEERKNS0_11QCollectionILi3EEERNS_12SparseMatrixIfEEPKNS_8FunctionILi3EEENS_13MatrixCreator13IteratorRangeIS6_EERNS_7Threads16DummyThreadMutexEE = comdat any

$_ZTIPFvRKN6dealii2hp17MappingCollectionILi3ELi3EEERKNS0_10DoFHandlerILi3ELi3EEERKNS0_11QCollectionILi3EEERNS_12SparseMatrixIfEEPKNS_8FunctionILi3EEENS_13MatrixCreator13IteratorRangeIS6_EERNS_7Threads16DummyThreadMutexEE = comdat any

$_ZZN5boost9function0IvE9assign_toINS_3_bi6bind_tINS3_11unspecifiedENS_8functionIFvRKN6dealii2hp17MappingCollectionILi3ELi3EEERKNS8_10DoFHandlerILi3ELi3EEERKNS8_11QCollectionILi3EEERNS7_12SparseMatrixIfEEPKNS7_8FunctionILi3EEENS7_13MatrixCreator13IteratorRangeISE_EERNS7_7Threads16DummyThreadMutexEEEENS3_5list7INS_17reference_wrapperISB_EENS11_ISF_EENS11_ISJ_EENS11_ISM_EENS3_5valueISR_EENS16_ISU_EENS11_ISW_EEEEEEEEvT_E13stored_vtable = comdat any

$_ZTSN5boost3_bi6bind_tINS0_11unspecifiedENS_8functionIFvRKN6dealii2hp17MappingCollectionILi3ELi3EEERKNS5_10DoFHandlerILi3ELi3EEERKNS5_11QCollectionILi3EEERNS4_12SparseMatrixIfEEPKNS4_8FunctionILi3EEENS4_13MatrixCreator13IteratorRangeISB_EERNS4_7Threads16DummyThreadMutexEEEENS0_5list7INS_17reference_wrapperIS8_EENSY_ISC_EENSY_ISG_EENSY_ISJ_EENS0_5valueISO_EENS13_ISR_EENSY_IST_EEEEEE = comdat any

$_ZTIN5boost3_bi6bind_tINS0_11unspecifiedENS_8functionIFvRKN6dealii2hp17MappingCollectionILi3ELi3EEERKNS5_10DoFHandlerILi3ELi3EEERKNS5_11QCollectionILi3EEERNS4_12SparseMatrixIfEEPKNS4_8FunctionILi3EEENS4_13MatrixCreator13IteratorRangeISB_EERNS4_7Threads16DummyThreadMutexEEEENS0_5list7INS_17reference_wrapperIS8_EENSY_ISC_EENSY_ISG_EENSY_ISJ_EENS0_5valueISO_EENS13_ISR_EENSY_IST_EEEEEE = comdat any

$_ZZN5boost9function9IvRKN6dealii2hp17MappingCollectionILi3ELi3EEERKNS2_10DoFHandlerILi3ELi3EEERKNS2_11QCollectionILi3EEERNS1_12SparseMatrixIfEERKNS1_8FunctionILi3EEERNS1_6VectorIdEEPSK_NS1_13MatrixCreator13IteratorRangeIS8_EERNS1_7Threads16DummyThreadMutexEE9assign_toIPFvS6_SA_SE_SH_SL_SO_SP_SS_SV_EEEvT_E13stored_vtable = comdat any

$_ZTSPFvRKN6dealii2hp17MappingCollectionILi3ELi3EEERKNS0_10DoFHandlerILi3ELi3EEERKNS0_11QCollectionILi3EEERNS_12SparseMatrixIfEERKNS_8FunctionILi3EEERNS_6VectorIdEEPSI_NS_13MatrixCreator13IteratorRangeIS6_EERNS_7Threads16DummyThreadMutexEE = comdat any

$_ZTSFvRKN6dealii2hp17MappingCollectionILi3ELi3EEERKNS0_10DoFHandlerILi3ELi3EEERKNS0_11QCollectionILi3EEERNS_12SparseMatrixIfEERKNS_8FunctionILi3EEERNS_6VectorIdEEPSI_NS_13MatrixCreator13IteratorRangeIS6_EERNS_7Threads16DummyThreadMutexEE = comdat any

$_ZTIFvRKN6dealii2hp17MappingCollectionILi3ELi3EEERKNS0_10DoFHandlerILi3ELi3EEERKNS0_11QCollectionILi3EEERNS_12SparseMatrixIfEERKNS_8FunctionILi3EEERNS_6VectorIdEEPSI_NS_13MatrixCreator13IteratorRangeIS6_EERNS_7Threads16DummyThreadMutexEE = comdat any

$_ZTIPFvRKN6dealii2hp17MappingCollectionILi3ELi3EEERKNS0_10DoFHandlerILi3ELi3EEERKNS0_11QCollectionILi3EEERNS_12SparseMatrixIfEERKNS_8FunctionILi3EEERNS_6VectorIdEEPSI_NS_13MatrixCreator13IteratorRangeIS6_EERNS_7Threads16DummyThreadMutexEE = comdat any

$_ZZN5boost9function0IvE9assign_toINS_3_bi6bind_tINS3_11unspecifiedENS_8functionIFvRKN6dealii2hp17MappingCollectionILi3ELi3EEERKNS8_10DoFHandlerILi3ELi3EEERKNS8_11QCollectionILi3EEERNS7_12SparseMatrixIfEERKNS7_8FunctionILi3EEERNS7_6VectorIdEEPSQ_NS7_13MatrixCreator13IteratorRangeISE_EERNS7_7Threads16DummyThreadMutexEEEENS3_5list9INS_17reference_wrapperISB_EENS15_ISF_EENS15_ISJ_EENS15_ISM_EENS15_ISQ_EENS15_IST_EENS3_5valueISV_EENS1C_ISY_EENS15_IS10_EEEEEEEEvT_E13stored_vtable = comdat any

$_ZTSN5boost3_bi6bind_tINS0_11unspecifiedENS_8functionIFvRKN6dealii2hp17MappingCollectionILi3ELi3EEERKNS5_10DoFHandlerILi3ELi3EEERKNS5_11QCollectionILi3EEERNS4_12SparseMatrixIfEERKNS4_8FunctionILi3EEERNS4_6VectorIdEEPSN_NS4_13MatrixCreator13IteratorRangeISB_EERNS4_7Threads16DummyThreadMutexEEEENS0_5list9INS_17reference_wrapperIS8_EENS12_ISC_EENS12_ISG_EENS12_ISJ_EENS12_ISN_EENS12_ISQ_EENS0_5valueISS_EENS19_ISV_EENS12_ISX_EEEEEE = comdat any

$_ZTIN5boost3_bi6bind_tINS0_11unspecifiedENS_8functionIFvRKN6dealii2hp17MappingCollectionILi3ELi3EEERKNS5_10DoFHandlerILi3ELi3EEERKNS5_11QCollectionILi3EEERNS4_12SparseMatrixIfEERKNS4_8FunctionILi3EEERNS4_6VectorIdEEPSN_NS4_13MatrixCreator13IteratorRangeISB_EERNS4_7Threads16DummyThreadMutexEEEENS0_5list9INS_17reference_wrapperIS8_EENS12_ISC_EENS12_ISG_EENS12_ISJ_EENS12_ISN_EENS12_ISQ_EENS0_5valueISS_EENS19_ISV_EENS12_ISX_EEEEEE = comdat any

$_ZTVN6dealii16FEFaceValuesBaseILi3ELi3EEE = comdat any

$_ZTSN6dealii16FEFaceValuesBaseILi3ELi3EEE = comdat any

$_ZTIN6dealii16FEFaceValuesBaseILi3ELi3EEE = comdat any

$_ZZN5boost9function9IvNS_6tuples5tupleIRKN6dealii7MappingILi3ELi3EEERKNS3_10DoFHandlerILi3ELi3EEERKNS3_10QuadratureILi2EEENS1_9null_typeESG_SG_SG_SG_SG_SG_EERNS3_12SparseMatrixIdEERKSt3mapIhPKNS3_8FunctionILi3EEESt4lessIhESaISt4pairIKhSP_EEERNS3_6VectorIdEERSt6vectorIjSaIjEESP_RKS14_NS3_13MatrixCreator13IteratorRangeIS9_EERNS3_7Threads16DummyThreadMutexEE9assign_toIPFvSH_SK_SY_S11_S15_SP_S17_S1A_S1D_EEEvT_E13stored_vtable = comdat any

$_ZTSPFvN5boost6tuples5tupleIRKN6dealii7MappingILi3ELi3EEERKNS2_10DoFHandlerILi3ELi3EEERKNS2_10QuadratureILi2EEENS0_9null_typeESF_SF_SF_SF_SF_SF_EERNS2_12SparseMatrixIdEERKSt3mapIhPKNS2_8FunctionILi3EEESt4lessIhESaISt4pairIKhSO_EEERNS2_6VectorIdEERSt6vectorIjSaIjEESO_RKS13_NS2_13MatrixCreator13IteratorRangeIS8_EERNS2_7Threads16DummyThreadMutexEE = comdat any

$_ZTSFvN5boost6tuples5tupleIRKN6dealii7MappingILi3ELi3EEERKNS2_10DoFHandlerILi3ELi3EEERKNS2_10QuadratureILi2EEENS0_9null_typeESF_SF_SF_SF_SF_SF_EERNS2_12SparseMatrixIdEERKSt3mapIhPKNS2_8FunctionILi3EEESt4lessIhESaISt4pairIKhSO_EEERNS2_6VectorIdEERSt6vectorIjSaIjEESO_RKS13_NS2_13MatrixCreator13IteratorRangeIS8_EERNS2_7Threads16DummyThreadMutexEE = comdat any

$_ZTIFvN5boost6tuples5tupleIRKN6dealii7MappingILi3ELi3EEERKNS2_10DoFHandlerILi3ELi3EEERKNS2_10QuadratureILi2EEENS0_9null_typeESF_SF_SF_SF_SF_SF_EERNS2_12SparseMatrixIdEERKSt3mapIhPKNS2_8FunctionILi3EEESt4lessIhESaISt4pairIKhSO_EEERNS2_6VectorIdEERSt6vectorIjSaIjEESO_RKS13_NS2_13MatrixCreator13IteratorRangeIS8_EERNS2_7Threads16DummyThreadMutexEE = comdat any

$_ZTIPFvN5boost6tuples5tupleIRKN6dealii7MappingILi3ELi3EEERKNS2_10DoFHandlerILi3ELi3EEERKNS2_10QuadratureILi2EEENS0_9null_typeESF_SF_SF_SF_SF_SF_EERNS2_12SparseMatrixIdEERKSt3mapIhPKNS2_8FunctionILi3EEESt4lessIhESaISt4pairIKhSO_EEERNS2_6VectorIdEERSt6vectorIjSaIjEESO_RKS13_NS2_13MatrixCreator13IteratorRangeIS8_EERNS2_7Threads16DummyThreadMutexEE = comdat any

$_ZZN5boost9function0IvE9assign_toINS_3_bi6bind_tINS3_11unspecifiedENS_8functionIFvNS_6tuples5tupleIRKN6dealii7MappingILi3ELi3EEERKNS9_10DoFHandlerILi3ELi3EEERKNS9_10QuadratureILi2EEENS7_9null_typeESM_SM_SM_SM_SM_SM_EERNS9_12SparseMatrixIdEERKSt3mapIhPKNS9_8FunctionILi3EEESt4lessIhESaISt4pairIKhSV_EEERNS9_6VectorIdEERSt6vectorIjSaIjEESV_RKS1A_NS9_13MatrixCreator13IteratorRangeISF_EERNS9_7Threads16DummyThreadMutexEEEENS3_5list9INS3_5valueISN_EENS_17reference_wrapperISP_EENS1P_IS13_EENS1P_IS16_EENS1P_IS1A_EENS1N_ISV_EENS1P_IS1C_EENS1N_IS1G_EENS1P_IS1I_EEEEEEEEvT_E13stored_vtable = comdat any

$_ZTSN5boost3_bi6bind_tINS0_11unspecifiedENS_8functionIFvNS_6tuples5tupleIRKN6dealii7MappingILi3ELi3EEERKNS6_10DoFHandlerILi3ELi3EEERKNS6_10QuadratureILi2EEENS4_9null_typeESJ_SJ_SJ_SJ_SJ_SJ_EERNS6_12SparseMatrixIdEERKSt3mapIhPKNS6_8FunctionILi3EEESt4lessIhESaISt4pairIKhSS_EEERNS6_6VectorIdEERSt6vectorIjSaIjEESS_RKS17_NS6_13MatrixCreator13IteratorRangeISC_EERNS6_7Threads16DummyThreadMutexEEEENS0_5list9INS0_5valueISK_EENS_17reference_wrapperISM_EENS1M_IS10_EENS1M_IS13_EENS1M_IS17_EENS1K_ISS_EENS1M_IS19_EENS1K_IS1D_EENS1M_IS1F_EEEEEE = comdat any

$_ZTIN5boost3_bi6bind_tINS0_11unspecifiedENS_8functionIFvNS_6tuples5tupleIRKN6dealii7MappingILi3ELi3EEERKNS6_10DoFHandlerILi3ELi3EEERKNS6_10QuadratureILi2EEENS4_9null_typeESJ_SJ_SJ_SJ_SJ_SJ_EERNS6_12SparseMatrixIdEERKSt3mapIhPKNS6_8FunctionILi3EEESt4lessIhESaISt4pairIKhSS_EEERNS6_6VectorIdEERSt6vectorIjSaIjEESS_RKS17_NS6_13MatrixCreator13IteratorRangeISC_EERNS6_7Threads16DummyThreadMutexEEEENS0_5list9INS0_5valueISK_EENS_17reference_wrapperISM_EENS1M_IS10_EENS1M_IS13_EENS1M_IS17_EENS1K_ISS_EENS1M_IS19_EENS1K_IS1D_EENS1M_IS1F_EEEEEE = comdat any

$_ZTVN6dealii9TableBaseILi3EN5boost10shared_ptrINS_12FEFaceValuesILi3ELi3EEEEEEE = comdat any

$_ZTSN6dealii9TableBaseILi3EN5boost10shared_ptrINS_12FEFaceValuesILi3ELi3EEEEEEE = comdat any

$_ZTIN6dealii9TableBaseILi3EN5boost10shared_ptrINS_12FEFaceValuesILi3ELi3EEEEEEE = comdat any

$_ZTVN6dealii2hp11QCollectionILi2EEE = comdat any

$_ZTSN6dealii2hp11QCollectionILi2EEE = comdat any

$_ZTIN6dealii2hp11QCollectionILi2EEE = comdat any

$_ZZN5boost9function9IvNS_6tuples5tupleIRKN6dealii2hp17MappingCollectionILi3ELi3EEERKNS4_10DoFHandlerILi3ELi3EEERKNS4_11QCollectionILi2EEENS1_9null_typeESH_SH_SH_SH_SH_SH_EERNS3_12SparseMatrixIdEERKSt3mapIhPKNS3_8FunctionILi3EEESt4lessIhESaISt4pairIKhSQ_EEERNS3_6VectorIdEERSt6vectorIjSaIjEESQ_RKS15_NS3_13MatrixCreator13IteratorRangeISA_EERNS3_7Threads16DummyThreadMutexEE9assign_toIPFvSI_SL_SZ_S12_S16_SQ_S18_S1B_S1E_EEEvT_E13stored_vtable = comdat any

$_ZTSPFvN5boost6tuples5tupleIRKN6dealii2hp17MappingCollectionILi3ELi3EEERKNS3_10DoFHandlerILi3ELi3EEERKNS3_11QCollectionILi2EEENS0_9null_typeESG_SG_SG_SG_SG_SG_EERNS2_12SparseMatrixIdEERKSt3mapIhPKNS2_8FunctionILi3EEESt4lessIhESaISt4pairIKhSP_EEERNS2_6VectorIdEERSt6vectorIjSaIjEESP_RKS14_NS2_13MatrixCreator13IteratorRangeIS9_EERNS2_7Threads16DummyThreadMutexEE = comdat any

$_ZTSFvN5boost6tuples5tupleIRKN6dealii2hp17MappingCollectionILi3ELi3EEERKNS3_10DoFHandlerILi3ELi3EEERKNS3_11QCollectionILi2EEENS0_9null_typeESG_SG_SG_SG_SG_SG_EERNS2_12SparseMatrixIdEERKSt3mapIhPKNS2_8FunctionILi3EEESt4lessIhESaISt4pairIKhSP_EEERNS2_6VectorIdEERSt6vectorIjSaIjEESP_RKS14_NS2_13MatrixCreator13IteratorRangeIS9_EERNS2_7Threads16DummyThreadMutexEE = comdat any

$_ZTIFvN5boost6tuples5tupleIRKN6dealii2hp17MappingCollectionILi3ELi3EEERKNS3_10DoFHandlerILi3ELi3EEERKNS3_11QCollectionILi2EEENS0_9null_typeESG_SG_SG_SG_SG_SG_EERNS2_12SparseMatrixIdEERKSt3mapIhPKNS2_8FunctionILi3EEESt4lessIhESaISt4pairIKhSP_EEERNS2_6VectorIdEERSt6vectorIjSaIjEESP_RKS14_NS2_13MatrixCreator13IteratorRangeIS9_EERNS2_7Threads16DummyThreadMutexEE = comdat any

$_ZTIPFvN5boost6tuples5tupleIRKN6dealii2hp17MappingCollectionILi3ELi3EEERKNS3_10DoFHandlerILi3ELi3EEERKNS3_11QCollectionILi2EEENS0_9null_typeESG_SG_SG_SG_SG_SG_EERNS2_12SparseMatrixIdEERKSt3mapIhPKNS2_8FunctionILi3EEESt4lessIhESaISt4pairIKhSP_EEERNS2_6VectorIdEERSt6vectorIjSaIjEESP_RKS14_NS2_13MatrixCreator13IteratorRangeIS9_EERNS2_7Threads16DummyThreadMutexEE = comdat any

$_ZZN5boost9function0IvE9assign_toINS_3_bi6bind_tINS3_11unspecifiedENS_8functionIFvNS_6tuples5tupleIRKN6dealii2hp17MappingCollectionILi3ELi3EEERKNSA_10DoFHandlerILi3ELi3EEERKNSA_11QCollectionILi2EEENS7_9null_typeESN_SN_SN_SN_SN_SN_EERNS9_12SparseMatrixIdEERKSt3mapIhPKNS9_8FunctionILi3EEESt4lessIhESaISt4pairIKhSW_EEERNS9_6VectorIdEERSt6vectorIjSaIjEESW_RKS1B_NS9_13MatrixCreator13IteratorRangeISG_EERNS9_7Threads16DummyThreadMutexEEEENS3_5list9INS3_5valueISO_EENS_17reference_wrapperISQ_EENS1Q_IS14_EENS1Q_IS17_EENS1Q_IS1B_EENS1O_ISW_EENS1Q_IS1D_EENS1O_IS1H_EENS1Q_IS1J_EEEEEEEEvT_E13stored_vtable = comdat any

$_ZTSN5boost3_bi6bind_tINS0_11unspecifiedENS_8functionIFvNS_6tuples5tupleIRKN6dealii2hp17MappingCollectionILi3ELi3EEERKNS7_10DoFHandlerILi3ELi3EEERKNS7_11QCollectionILi2EEENS4_9null_typeESK_SK_SK_SK_SK_SK_EERNS6_12SparseMatrixIdEERKSt3mapIhPKNS6_8FunctionILi3EEESt4lessIhESaISt4pairIKhST_EEERNS6_6VectorIdEERSt6vectorIjSaIjEEST_RKS18_NS6_13MatrixCreator13IteratorRangeISD_EERNS6_7Threads16DummyThreadMutexEEEENS0_5list9INS0_5valueISL_EENS_17reference_wrapperISN_EENS1N_IS11_EENS1N_IS14_EENS1N_IS18_EENS1L_IST_EENS1N_IS1A_EENS1L_IS1E_EENS1N_IS1G_EEEEEE = comdat any

$_ZTIN5boost3_bi6bind_tINS0_11unspecifiedENS_8functionIFvNS_6tuples5tupleIRKN6dealii2hp17MappingCollectionILi3ELi3EEERKNS7_10DoFHandlerILi3ELi3EEERKNS7_11QCollectionILi2EEENS4_9null_typeESK_SK_SK_SK_SK_SK_EERNS6_12SparseMatrixIdEERKSt3mapIhPKNS6_8FunctionILi3EEESt4lessIhESaISt4pairIKhST_EEERNS6_6VectorIdEERSt6vectorIjSaIjEEST_RKS18_NS6_13MatrixCreator13IteratorRangeISD_EERNS6_7Threads16DummyThreadMutexEEEENS0_5list9INS0_5valueISL_EENS_17reference_wrapperISN_EENS1N_IS11_EENS1N_IS14_EENS1N_IS18_EENS1L_IST_EENS1N_IS1A_EENS1L_IS1E_EENS1N_IS1G_EEEEEE = comdat any

@_ZN6dealii16multithread_infoE = external local_unnamed_addr global %"class.dealii::MultithreadInfo", align 4
@_ZN6dealii15StaticMappingQ1ILi3ELi3EE7mappingE = external global %"class.dealii::MappingQ1", align 8
@_ZN6dealii2hp15StaticMappingQ1ILi3ELi3EE18mapping_collectionE = external global %"class.dealii::hp::MappingCollection", align 8
@.str = private unnamed_addr constant [26 x i8] c"vector::_M_realloc_insert\00", align 1
@.str.9 = private unnamed_addr constant [49 x i8] c"cannot create std::vector larger than max_size()\00", align 1
@_ZTVN6dealii6VectorIdEE = linkonce_odr dso_local unnamed_addr constant { [6 x ptr] } { [6 x ptr] [ptr null, ptr @_ZTIN6dealii6VectorIdEE, ptr @_ZN6dealii6VectorIdED2Ev, ptr @_ZN6dealii6VectorIdED0Ev, ptr @_ZN6dealii6VectorIdE6reinitEjb, ptr @_ZN6dealii6VectorIdE4swapERS1_] }, comdat, align 8
@_ZTVN10__cxxabiv120__si_class_type_infoE = external global ptr
@_ZTSN6dealii6VectorIdEE = linkonce_odr dso_local constant [20 x i8] c"N6dealii6VectorIdEE\00", comdat, align 1
@_ZTIN6dealii11SubscriptorE = external constant ptr
@_ZTIN6dealii6VectorIdEE = linkonce_odr dso_local constant { ptr, ptr, ptr } { ptr getelementptr inbounds (ptr, ptr @_ZTVN10__cxxabiv120__si_class_type_infoE, i64 2), ptr @_ZTSN6dealii6VectorIdEE, ptr @_ZTIN6dealii11SubscriptorE }, comdat, align 8
@_ZTVN6dealii9TableBaseILi2EdEE = linkonce_odr dso_local unnamed_addr constant { [4 x ptr] } { [4 x ptr] [ptr null, ptr @_ZTIN6dealii9TableBaseILi2EdEE, ptr @_ZN6dealii9TableBaseILi2EdED2Ev, ptr @_ZN6dealii9TableBaseILi2EdED0Ev] }, comdat, align 8
@_ZTSN6dealii9TableBaseILi2EdEE = linkonce_odr dso_local constant [27 x i8] c"N6dealii9TableBaseILi2EdEE\00", comdat, align 1
@_ZTIN6dealii9TableBaseILi2EdEE = linkonce_odr dso_local constant { ptr, ptr, ptr } { ptr getelementptr inbounds (ptr, ptr @_ZTVN10__cxxabiv120__si_class_type_infoE, i64 2), ptr @_ZTSN6dealii9TableBaseILi2EdEE, ptr @_ZTIN6dealii11SubscriptorE }, comdat, align 8
@_ZTVN6dealii8FEValuesILi3ELi3EEE = linkonce_odr dso_local unnamed_addr constant { [4 x ptr] } { [4 x ptr] [ptr null, ptr @_ZTIN6dealii8FEValuesILi3ELi3EEE, ptr @_ZN6dealii8FEValuesILi3ELi3EED2Ev, ptr @_ZN6dealii8FEValuesILi3ELi3EED0Ev] }, comdat, align 8
@_ZTSN6dealii8FEValuesILi3ELi3EEE = linkonce_odr dso_local constant [29 x i8] c"N6dealii8FEValuesILi3ELi3EEE\00", comdat, align 1
@_ZTVN10__cxxabiv121__vmi_class_type_infoE = external global ptr
@_ZTSN6dealii12FEValuesBaseILi3ELi3EEE = linkonce_odr dso_local constant [34 x i8] c"N6dealii12FEValuesBaseILi3ELi3EEE\00", comdat, align 1
@_ZTVN10__cxxabiv117__class_type_infoE = external global ptr
@_ZTSN6dealii12FEValuesDataILi3ELi3EEE = linkonce_odr dso_local constant [34 x i8] c"N6dealii12FEValuesDataILi3ELi3EEE\00", comdat, align 1
@_ZTIN6dealii12FEValuesDataILi3ELi3EEE = linkonce_odr dso_local constant { ptr, ptr } { ptr getelementptr inbounds (ptr, ptr @_ZTVN10__cxxabiv117__class_type_infoE, i64 2), ptr @_ZTSN6dealii12FEValuesDataILi3ELi3EEE }, comdat, align 8
@_ZTIN6dealii12FEValuesBaseILi3ELi3EEE = linkonce_odr dso_local constant { ptr, ptr, i32, i32, ptr, i64, ptr, i64 } { ptr getelementptr inbounds (ptr, ptr @_ZTVN10__cxxabiv121__vmi_class_type_infoE, i64 2), ptr @_ZTSN6dealii12FEValuesBaseILi3ELi3EEE, i32 0, i32 2, ptr @_ZTIN6dealii12FEValuesDataILi3ELi3EEE, i64 18432, ptr @_ZTIN6dealii11SubscriptorE, i64 2 }, comdat, align 8
@_ZTIN6dealii8FEValuesILi3ELi3EEE = linkonce_odr dso_local constant { ptr, ptr, ptr } { ptr getelementptr inbounds (ptr, ptr @_ZTVN10__cxxabiv120__si_class_type_infoE, i64 2), ptr @_ZTSN6dealii8FEValuesILi3ELi3EEE, ptr @_ZTIN6dealii12FEValuesBaseILi3ELi3EEE }, comdat, align 8
@_ZZN5boost9function7IvRKN6dealii7MappingILi3ELi3EEERKNS1_10DoFHandlerILi3ELi3EEERKNS1_10QuadratureILi3EEERNS1_12SparseMatrixIdEEPKNS1_8FunctionILi3EEENS1_13MatrixCreator13IteratorRangeIS7_EERNS1_7Threads16DummyThreadMutexEE9assign_toIPFvS5_S9_SD_SG_SK_SN_SQ_EEEvT_E13stored_vtable = linkonce_odr dso_local global %"struct.boost::detail::function::basic_vtable7" { %"struct.boost::detail::function::vtable_base" { ptr @_ZN5boost6detail8function15functor_managerIPFvRKN6dealii7MappingILi3ELi3EEERKNS3_10DoFHandlerILi3ELi3EEERKNS3_10QuadratureILi3EEERNS3_12SparseMatrixIdEEPKNS3_8FunctionILi3EEENS3_13MatrixCreator13IteratorRangeIS9_EERNS3_7Threads16DummyThreadMutexEEE6manageERKNS1_15function_bufferERSW_NS1_30functor_manager_operation_typeE }, ptr @_ZN5boost6detail8function22void_function_invoker7IPFvRKN6dealii7MappingILi3ELi3EEERKNS3_10DoFHandlerILi3ELi3EEERKNS3_10QuadratureILi3EEERNS3_12SparseMatrixIdEEPKNS3_8FunctionILi3EEENS3_13MatrixCreator13IteratorRangeIS9_EERNS3_7Threads16DummyThreadMutexEEvS7_SB_SF_SI_SM_SP_SS_E6invokeERNS1_15function_bufferES7_SB_SF_SI_SM_SP_SS_ }, comdat, align 8
@_ZTVN10__cxxabiv119__pointer_type_infoE = external global ptr
@_ZTSPFvRKN6dealii7MappingILi3ELi3EEERKNS_10DoFHandlerILi3ELi3EEERKNS_10QuadratureILi3EEERNS_12SparseMatrixIdEEPKNS_8FunctionILi3EEENS_13MatrixCreator13IteratorRangeIS5_EERNS_7Threads16DummyThreadMutexEE = linkonce_odr dso_local constant [199 x i8] c"PFvRKN6dealii7MappingILi3ELi3EEERKNS_10DoFHandlerILi3ELi3EEERKNS_10QuadratureILi3EEERNS_12SparseMatrixIdEEPKNS_8FunctionILi3EEENS_13MatrixCreator13IteratorRangeIS5_EERNS_7Threads16DummyThreadMutexEE\00", comdat, align 1
@_ZTVN10__cxxabiv120__function_type_infoE = external global ptr
@_ZTSFvRKN6dealii7MappingILi3ELi3EEERKNS_10DoFHandlerILi3ELi3EEERKNS_10QuadratureILi3EEERNS_12SparseMatrixIdEEPKNS_8FunctionILi3EEENS_13MatrixCreator13IteratorRangeIS5_EERNS_7Threads16DummyThreadMutexEE = linkonce_odr dso_local constant [198 x i8] c"FvRKN6dealii7MappingILi3ELi3EEERKNS_10DoFHandlerILi3ELi3EEERKNS_10QuadratureILi3EEERNS_12SparseMatrixIdEEPKNS_8FunctionILi3EEENS_13MatrixCreator13IteratorRangeIS5_EERNS_7Threads16DummyThreadMutexEE\00", comdat, align 1
@_ZTIFvRKN6dealii7MappingILi3ELi3EEERKNS_10DoFHandlerILi3ELi3EEERKNS_10QuadratureILi3EEERNS_12SparseMatrixIdEEPKNS_8FunctionILi3EEENS_13MatrixCreator13IteratorRangeIS5_EERNS_7Threads16DummyThreadMutexEE = linkonce_odr dso_local constant { ptr, ptr } { ptr getelementptr inbounds (ptr, ptr @_ZTVN10__cxxabiv120__function_type_infoE, i64 2), ptr @_ZTSFvRKN6dealii7MappingILi3ELi3EEERKNS_10DoFHandlerILi3ELi3EEERKNS_10QuadratureILi3EEERNS_12SparseMatrixIdEEPKNS_8FunctionILi3EEENS_13MatrixCreator13IteratorRangeIS5_EERNS_7Threads16DummyThreadMutexEE }, comdat, align 8
@_ZTIPFvRKN6dealii7MappingILi3ELi3EEERKNS_10DoFHandlerILi3ELi3EEERKNS_10QuadratureILi3EEERNS_12SparseMatrixIdEEPKNS_8FunctionILi3EEENS_13MatrixCreator13IteratorRangeIS5_EERNS_7Threads16DummyThreadMutexEE = linkonce_odr dso_local constant { ptr, ptr, i32, ptr } { ptr getelementptr inbounds (ptr, ptr @_ZTVN10__cxxabiv119__pointer_type_infoE, i64 2), ptr @_ZTSPFvRKN6dealii7MappingILi3ELi3EEERKNS_10DoFHandlerILi3ELi3EEERKNS_10QuadratureILi3EEERNS_12SparseMatrixIdEEPKNS_8FunctionILi3EEENS_13MatrixCreator13IteratorRangeIS5_EERNS_7Threads16DummyThreadMutexEE, i32 0, ptr @_ZTIFvRKN6dealii7MappingILi3ELi3EEERKNS_10DoFHandlerILi3ELi3EEERKNS_10QuadratureILi3EEERNS_12SparseMatrixIdEEPKNS_8FunctionILi3EEENS_13MatrixCreator13IteratorRangeIS5_EERNS_7Threads16DummyThreadMutexEE }, comdat, align 8
@_ZZN5boost9function0IvE9assign_toINS_3_bi6bind_tINS3_11unspecifiedENS_8functionIFvRKN6dealii7MappingILi3ELi3EEERKNS7_10DoFHandlerILi3ELi3EEERKNS7_10QuadratureILi3EEERNS7_12SparseMatrixIdEEPKNS7_8FunctionILi3EEENS7_13MatrixCreator13IteratorRangeISD_EERNS7_7Threads16DummyThreadMutexEEEENS3_5list7INS_17reference_wrapperISA_EENS10_ISE_EENS10_ISI_EENS10_ISL_EENS3_5valueISQ_EENS15_IST_EENS10_ISV_EEEEEEEEvT_E13stored_vtable = linkonce_odr dso_local global %"struct.boost::detail::function::basic_vtable0" { %"struct.boost::detail::function::vtable_base" { ptr @_ZN5boost6detail8function15functor_managerINS_3_bi6bind_tINS3_11unspecifiedENS_8functionIFvRKN6dealii7MappingILi3ELi3EEERKNS7_10DoFHandlerILi3ELi3EEERKNS7_10QuadratureILi3EEERNS7_12SparseMatrixIdEEPKNS7_8FunctionILi3EEENS7_13MatrixCreator13IteratorRangeISD_EERNS7_7Threads16DummyThreadMutexEEEENS3_5list7INS_17reference_wrapperISA_EENS10_ISE_EENS10_ISI_EENS10_ISL_EENS3_5valueISQ_EENS15_IST_EENS10_ISV_EEEEEEE6manageERKNS1_15function_bufferERS1C_NS1_30functor_manager_operation_typeE }, ptr @_ZN5boost6detail8function26void_function_obj_invoker0INS_3_bi6bind_tINS3_11unspecifiedENS_8functionIFvRKN6dealii7MappingILi3ELi3EEERKNS7_10DoFHandlerILi3ELi3EEERKNS7_10QuadratureILi3EEERNS7_12SparseMatrixIdEEPKNS7_8FunctionILi3EEENS7_13MatrixCreator13IteratorRangeISD_EERNS7_7Threads16DummyThreadMutexEEEENS3_5list7INS_17reference_wrapperISA_EENS10_ISE_EENS10_ISI_EENS10_ISL_EENS3_5valueISQ_EENS15_IST_EENS10_ISV_EEEEEEvE6invokeERNS1_15function_bufferE }, comdat, align 8
@_ZTSN5boost3_bi6bind_tINS0_11unspecifiedENS_8functionIFvRKN6dealii7MappingILi3ELi3EEERKNS4_10DoFHandlerILi3ELi3EEERKNS4_10QuadratureILi3EEERNS4_12SparseMatrixIdEEPKNS4_8FunctionILi3EEENS4_13MatrixCreator13IteratorRangeISA_EERNS4_7Threads16DummyThreadMutexEEEENS0_5list7INS_17reference_wrapperIS7_EENSX_ISB_EENSX_ISF_EENSX_ISI_EENS0_5valueISN_EENS12_ISQ_EENSX_ISS_EEEEEE = linkonce_odr dso_local constant [366 x i8] c"N5boost3_bi6bind_tINS0_11unspecifiedENS_8functionIFvRKN6dealii7MappingILi3ELi3EEERKNS4_10DoFHandlerILi3ELi3EEERKNS4_10QuadratureILi3EEERNS4_12SparseMatrixIdEEPKNS4_8FunctionILi3EEENS4_13MatrixCreator13IteratorRangeISA_EERNS4_7Threads16DummyThreadMutexEEEENS0_5list7INS_17reference_wrapperIS7_EENSX_ISB_EENSX_ISF_EENSX_ISI_EENS0_5valueISN_EENS12_ISQ_EENSX_ISS_EEEEEE\00", comdat, align 1
@_ZTIN5boost3_bi6bind_tINS0_11unspecifiedENS_8functionIFvRKN6dealii7MappingILi3ELi3EEERKNS4_10DoFHandlerILi3ELi3EEERKNS4_10QuadratureILi3EEERNS4_12SparseMatrixIdEEPKNS4_8FunctionILi3EEENS4_13MatrixCreator13IteratorRangeISA_EERNS4_7Threads16DummyThreadMutexEEEENS0_5list7INS_17reference_wrapperIS7_EENSX_ISB_EENSX_ISF_EENSX_ISI_EENS0_5valueISN_EENS12_ISQ_EENSX_ISS_EEEEEE = linkonce_odr dso_local constant { ptr, ptr } { ptr getelementptr inbounds (ptr, ptr @_ZTVN10__cxxabiv117__class_type_infoE, i64 2), ptr @_ZTSN5boost3_bi6bind_tINS0_11unspecifiedENS_8functionIFvRKN6dealii7MappingILi3ELi3EEERKNS4_10DoFHandlerILi3ELi3EEERKNS4_10QuadratureILi3EEERNS4_12SparseMatrixIdEEPKNS4_8FunctionILi3EEENS4_13MatrixCreator13IteratorRangeISA_EERNS4_7Threads16DummyThreadMutexEEEENS0_5list7INS_17reference_wrapperIS7_EENSX_ISB_EENSX_ISF_EENSX_ISI_EENS0_5valueISN_EENS12_ISQ_EENSX_ISS_EEEEEE }, comdat, align 8
@_ZTSN5boost16exception_detail10clone_implINS0_19error_info_injectorINS_17bad_function_callEEEEE = linkonce_odr dso_local constant [92 x i8] c"N5boost16exception_detail10clone_implINS0_19error_info_injectorINS_17bad_function_callEEEEE\00", comdat, align 1
@_ZTSN5boost16exception_detail19error_info_injectorINS_17bad_function_callEEE = linkonce_odr dso_local constant [73 x i8] c"N5boost16exception_detail19error_info_injectorINS_17bad_function_callEEE\00", comdat, align 1
@_ZTSN5boost17bad_function_callE = linkonce_odr dso_local constant [28 x i8] c"N5boost17bad_function_callE\00", comdat, align 1
@_ZTISt13runtime_error = external constant ptr
@_ZTIN5boost17bad_function_callE = linkonce_odr dso_local constant { ptr, ptr, ptr } { ptr getelementptr inbounds (ptr, ptr @_ZTVN10__cxxabiv120__si_class_type_infoE, i64 2), ptr @_ZTSN5boost17bad_function_callE, ptr @_ZTISt13runtime_error }, comdat, align 8
@_ZTSN5boost9exceptionE = linkonce_odr dso_local constant [19 x i8] c"N5boost9exceptionE\00", comdat, align 1
@_ZTIN5boost9exceptionE = linkonce_odr dso_local constant { ptr, ptr } { ptr getelementptr inbounds (ptr, ptr @_ZTVN10__cxxabiv117__class_type_infoE, i64 2), ptr @_ZTSN5boost9exceptionE }, comdat, align 8
@_ZTIN5boost16exception_detail19error_info_injectorINS_17bad_function_callEEE = linkonce_odr dso_local constant { ptr, ptr, i32, i32, ptr, i64, ptr, i64 } { ptr getelementptr inbounds (ptr, ptr @_ZTVN10__cxxabiv121__vmi_class_type_infoE, i64 2), ptr @_ZTSN5boost16exception_detail19error_info_injectorINS_17bad_function_callEEE, i32 0, i32 2, ptr @_ZTIN5boost17bad_function_callE, i64 2, ptr @_ZTIN5boost9exceptionE, i64 4098 }, comdat, align 8
@_ZTSN5boost16exception_detail10clone_baseE = linkonce_odr dso_local constant [39 x i8] c"N5boost16exception_detail10clone_baseE\00", comdat, align 1
@_ZTIN5boost16exception_detail10clone_baseE = linkonce_odr dso_local constant { ptr, ptr } { ptr getelementptr inbounds (ptr, ptr @_ZTVN10__cxxabiv117__class_type_infoE, i64 2), ptr @_ZTSN5boost16exception_detail10clone_baseE }, comdat, align 8
@_ZTIN5boost16exception_detail10clone_implINS0_19error_info_injectorINS_17bad_function_callEEEEE = linkonce_odr dso_local constant { ptr, ptr, i32, i32, ptr, i64, ptr, i64 } { ptr getelementptr inbounds (ptr, ptr @_ZTVN10__cxxabiv121__vmi_class_type_infoE, i64 2), ptr @_ZTSN5boost16exception_detail10clone_implINS0_19error_info_injectorINS_17bad_function_callEEEEE, i32 0, i32 2, ptr @_ZTIN5boost16exception_detail19error_info_injectorINS_17bad_function_callEEE, i64 2, ptr @_ZTIN5boost16exception_detail10clone_baseE, i64 14338 }, comdat, align 8
@_ZTVN5boost16exception_detail10clone_implINS0_19error_info_injectorINS_17bad_function_callEEEEE = linkonce_odr dso_local unnamed_addr constant { [7 x ptr], [4 x ptr], [6 x ptr] } { [7 x ptr] [ptr null, ptr @_ZTIN5boost16exception_detail10clone_implINS0_19error_info_injectorINS_17bad_function_callEEEEE, ptr @_ZN5boost16exception_detail10clone_implINS0_19error_info_injectorINS_17bad_function_callEEEED2Ev, ptr @_ZN5boost16exception_detail10clone_implINS0_19error_info_injectorINS_17bad_function_callEEEED0Ev, ptr @_ZNKSt13runtime_error4whatEv, ptr @_ZNK5boost16exception_detail10clone_implINS0_19error_info_injectorINS_17bad_function_callEEEE5cloneEv, ptr @_ZNK5boost16exception_detail10clone_implINS0_19error_info_injectorINS_17bad_function_callEEEE7rethrowEv], [4 x ptr] [ptr inttoptr (i64 -16 to ptr), ptr @_ZTIN5boost16exception_detail10clone_implINS0_19error_info_injectorINS_17bad_function_callEEEEE, ptr @_ZThn16_N5boost16exception_detail10clone_implINS0_19error_info_injectorINS_17bad_function_callEEEED1Ev, ptr @_ZThn16_N5boost16exception_detail10clone_implINS0_19error_info_injectorINS_17bad_function_callEEEED0Ev], [6 x ptr] [ptr inttoptr (i64 -56 to ptr), ptr @_ZTIN5boost16exception_detail10clone_implINS0_19error_info_injectorINS_17bad_function_callEEEEE, ptr @_ZThn56_NK5boost16exception_detail10clone_implINS0_19error_info_injectorINS_17bad_function_callEEEE5cloneEv, ptr @_ZThn56_NK5boost16exception_detail10clone_implINS0_19error_info_injectorINS_17bad_function_callEEEE7rethrowEv, ptr @_ZThn56_N5boost16exception_detail10clone_implINS0_19error_info_injectorINS_17bad_function_callEEEED1Ev, ptr @_ZThn56_N5boost16exception_detail10clone_implINS0_19error_info_injectorINS_17bad_function_callEEEED0Ev] }, comdat, align 8
@_ZTVN5boost16exception_detail19error_info_injectorINS_17bad_function_callEEE = linkonce_odr dso_local unnamed_addr constant { [5 x ptr], [4 x ptr] } { [5 x ptr] [ptr null, ptr @_ZTIN5boost16exception_detail19error_info_injectorINS_17bad_function_callEEE, ptr @_ZN5boost16exception_detail19error_info_injectorINS_17bad_function_callEED2Ev, ptr @_ZN5boost16exception_detail19error_info_injectorINS_17bad_function_callEED0Ev, ptr @_ZNKSt13runtime_error4whatEv], [4 x ptr] [ptr inttoptr (i64 -16 to ptr), ptr @_ZTIN5boost16exception_detail19error_info_injectorINS_17bad_function_callEEE, ptr @_ZThn16_N5boost16exception_detail19error_info_injectorINS_17bad_function_callEED1Ev, ptr @_ZThn16_N5boost16exception_detail19error_info_injectorINS_17bad_function_callEED0Ev] }, comdat, align 8
@_ZTVN5boost17bad_function_callE = linkonce_odr dso_local unnamed_addr constant { [5 x ptr] } { [5 x ptr] [ptr null, ptr @_ZTIN5boost17bad_function_callE, ptr @_ZNSt13runtime_errorD2Ev, ptr @_ZN5boost17bad_function_callD0Ev, ptr @_ZNKSt13runtime_error4whatEv] }, comdat, align 8
@_ZTVN5boost9exceptionE = linkonce_odr dso_local unnamed_addr constant { [4 x ptr] } { [4 x ptr] [ptr null, ptr @_ZTIN5boost9exceptionE, ptr @__cxa_pure_virtual, ptr @__cxa_pure_virtual] }, comdat, align 8
@.str.10 = private unnamed_addr constant [30 x i8] c"call to empty boost::function\00", align 1
@_ZTVN5boost6detail17sp_counted_impl_pIN6dealii7Threads8internal16ThreadDescriptorIvEEEE = linkonce_odr dso_local unnamed_addr constant { [7 x ptr] } { [7 x ptr] [ptr null, ptr @_ZTIN5boost6detail17sp_counted_impl_pIN6dealii7Threads8internal16ThreadDescriptorIvEEEE, ptr @_ZN5boost6detail15sp_counted_baseD2Ev, ptr @_ZN5boost6detail17sp_counted_impl_pIN6dealii7Threads8internal16ThreadDescriptorIvEEED0Ev, ptr @_ZN5boost6detail17sp_counted_impl_pIN6dealii7Threads8internal16ThreadDescriptorIvEEE7disposeEv, ptr @_ZN5boost6detail15sp_counted_base7destroyEv, ptr @_ZN5boost6detail17sp_counted_impl_pIN6dealii7Threads8internal16ThreadDescriptorIvEEE11get_deleterERKSt9type_info] }, comdat, align 8
@_ZTSN5boost6detail17sp_counted_impl_pIN6dealii7Threads8internal16ThreadDescriptorIvEEEE = linkonce_odr dso_local constant [84 x i8] c"N5boost6detail17sp_counted_impl_pIN6dealii7Threads8internal16ThreadDescriptorIvEEEE\00", comdat, align 1
@_ZTSN5boost6detail15sp_counted_baseE = linkonce_odr dso_local constant [33 x i8] c"N5boost6detail15sp_counted_baseE\00", comdat, align 1
@_ZTIN5boost6detail15sp_counted_baseE = linkonce_odr dso_local constant { ptr, ptr } { ptr getelementptr inbounds (ptr, ptr @_ZTVN10__cxxabiv117__class_type_infoE, i64 2), ptr @_ZTSN5boost6detail15sp_counted_baseE }, comdat, align 8
@_ZTIN5boost6detail17sp_counted_impl_pIN6dealii7Threads8internal16ThreadDescriptorIvEEEE = linkonce_odr dso_local constant { ptr, ptr, ptr } { ptr getelementptr inbounds (ptr, ptr @_ZTVN10__cxxabiv120__si_class_type_infoE, i64 2), ptr @_ZTSN5boost6detail17sp_counted_impl_pIN6dealii7Threads8internal16ThreadDescriptorIvEEEE, ptr @_ZTIN5boost6detail15sp_counted_baseE }, comdat, align 8
@.str.12 = private unnamed_addr constant [33 x i8] c"include/base/thread_management.h\00", align 1
@.str.13 = private unnamed_addr constant [1 x i8] zeroinitializer, align 1
@.str.14 = private unnamed_addr constant [18 x i8] c"thread_descriptor\00", align 1
@.str.15 = private unnamed_addr constant [14 x i8] c"ExcNoThread()\00", align 1
@_ZTSN6dealii7Threads6ThreadIvE11ExcNoThreadE = linkonce_odr dso_local constant [41 x i8] c"N6dealii7Threads6ThreadIvE11ExcNoThreadE\00", comdat, align 1
@_ZTIN6dealii13ExceptionBaseE = external constant ptr
@_ZTIN6dealii7Threads6ThreadIvE11ExcNoThreadE = linkonce_odr dso_local constant { ptr, ptr, ptr } { ptr getelementptr inbounds (ptr, ptr @_ZTVN10__cxxabiv120__si_class_type_infoE, i64 2), ptr @_ZTSN6dealii7Threads6ThreadIvE11ExcNoThreadE, ptr @_ZTIN6dealii13ExceptionBaseE }, comdat, align 8
@_ZTVN6dealii7Threads6ThreadIvE11ExcNoThreadE = linkonce_odr dso_local unnamed_addr constant { [6 x ptr] } { [6 x ptr] [ptr null, ptr @_ZTIN6dealii7Threads6ThreadIvE11ExcNoThreadE, ptr @_ZN6dealii13ExceptionBaseD2Ev, ptr @_ZN6dealii7Threads6ThreadIvE11ExcNoThreadD0Ev, ptr @_ZNK6dealii13ExceptionBase4whatEv, ptr @_ZNK6dealii13ExceptionBase10print_infoERSo] }, comdat, align 8
@_ZZN5boost9function9IvRKN6dealii7MappingILi3ELi3EEERKNS1_10DoFHandlerILi3ELi3EEERKNS1_10QuadratureILi3EEERNS1_12SparseMatrixIdEERKNS1_8FunctionILi3EEERNS1_6VectorIdEEPSJ_NS1_13MatrixCreator13IteratorRangeIS7_EERNS1_7Threads16DummyThreadMutexEE9assign_toIPFvS5_S9_SD_SG_SK_SN_SO_SR_SU_EEEvT_E13stored_vtable = linkonce_odr dso_local global %"struct.boost::detail::function::basic_vtable9" { %"struct.boost::detail::function::vtable_base" { ptr @_ZN5boost6detail8function15functor_managerIPFvRKN6dealii7MappingILi3ELi3EEERKNS3_10DoFHandlerILi3ELi3EEERKNS3_10QuadratureILi3EEERNS3_12SparseMatrixIdEERKNS3_8FunctionILi3EEERNS3_6VectorIdEEPSL_NS3_13MatrixCreator13IteratorRangeIS9_EERNS3_7Threads16DummyThreadMutexEEE6manageERKNS1_15function_bufferERS10_NS1_30functor_manager_operation_typeE }, ptr @_ZN5boost6detail8function22void_function_invoker9IPFvRKN6dealii7MappingILi3ELi3EEERKNS3_10DoFHandlerILi3ELi3EEERKNS3_10QuadratureILi3EEERNS3_12SparseMatrixIdEERKNS3_8FunctionILi3EEERNS3_6VectorIdEEPSL_NS3_13MatrixCreator13IteratorRangeIS9_EERNS3_7Threads16DummyThreadMutexEEvS7_SB_SF_SI_SM_SP_SQ_ST_SW_E6invokeERNS1_15function_bufferES7_SB_SF_SI_SM_SP_SQ_ST_SW_ }, comdat, align 8
@_ZTSPFvRKN6dealii7MappingILi3ELi3EEERKNS_10DoFHandlerILi3ELi3EEERKNS_10QuadratureILi3EEERNS_12SparseMatrixIdEERKNS_8FunctionILi3EEERNS_6VectorIdEEPSH_NS_13MatrixCreator13IteratorRangeIS5_EERNS_7Threads16DummyThreadMutexEE = linkonce_odr dso_local constant [218 x i8] c"PFvRKN6dealii7MappingILi3ELi3EEERKNS_10DoFHandlerILi3ELi3EEERKNS_10QuadratureILi3EEERNS_12SparseMatrixIdEERKNS_8FunctionILi3EEERNS_6VectorIdEEPSH_NS_13MatrixCreator13IteratorRangeIS5_EERNS_7Threads16DummyThreadMutexEE\00", comdat, align 1
@_ZTSFvRKN6dealii7MappingILi3ELi3EEERKNS_10DoFHandlerILi3ELi3EEERKNS_10QuadratureILi3EEERNS_12SparseMatrixIdEERKNS_8FunctionILi3EEERNS_6VectorIdEEPSH_NS_13MatrixCreator13IteratorRangeIS5_EERNS_7Threads16DummyThreadMutexEE = linkonce_odr dso_local constant [217 x i8] c"FvRKN6dealii7MappingILi3ELi3EEERKNS_10DoFHandlerILi3ELi3EEERKNS_10QuadratureILi3EEERNS_12SparseMatrixIdEERKNS_8FunctionILi3EEERNS_6VectorIdEEPSH_NS_13MatrixCreator13IteratorRangeIS5_EERNS_7Threads16DummyThreadMutexEE\00", comdat, align 1
@_ZTIFvRKN6dealii7MappingILi3ELi3EEERKNS_10DoFHandlerILi3ELi3EEERKNS_10QuadratureILi3EEERNS_12SparseMatrixIdEERKNS_8FunctionILi3EEERNS_6VectorIdEEPSH_NS_13MatrixCreator13IteratorRangeIS5_EERNS_7Threads16DummyThreadMutexEE = linkonce_odr dso_local constant { ptr, ptr } { ptr getelementptr inbounds (ptr, ptr @_ZTVN10__cxxabiv120__function_type_infoE, i64 2), ptr @_ZTSFvRKN6dealii7MappingILi3ELi3EEERKNS_10DoFHandlerILi3ELi3EEERKNS_10QuadratureILi3EEERNS_12SparseMatrixIdEERKNS_8FunctionILi3EEERNS_6VectorIdEEPSH_NS_13MatrixCreator13IteratorRangeIS5_EERNS_7Threads16DummyThreadMutexEE }, comdat, align 8
@_ZTIPFvRKN6dealii7MappingILi3ELi3EEERKNS_10DoFHandlerILi3ELi3EEERKNS_10QuadratureILi3EEERNS_12SparseMatrixIdEERKNS_8FunctionILi3EEERNS_6VectorIdEEPSH_NS_13MatrixCreator13IteratorRangeIS5_EERNS_7Threads16DummyThreadMutexEE = linkonce_odr dso_local constant { ptr, ptr, i32, ptr } { ptr getelementptr inbounds (ptr, ptr @_ZTVN10__cxxabiv119__pointer_type_infoE, i64 2), ptr @_ZTSPFvRKN6dealii7MappingILi3ELi3EEERKNS_10DoFHandlerILi3ELi3EEERKNS_10QuadratureILi3EEERNS_12SparseMatrixIdEERKNS_8FunctionILi3EEERNS_6VectorIdEEPSH_NS_13MatrixCreator13IteratorRangeIS5_EERNS_7Threads16DummyThreadMutexEE, i32 0, ptr @_ZTIFvRKN6dealii7MappingILi3ELi3EEERKNS_10DoFHandlerILi3ELi3EEERKNS_10QuadratureILi3EEERNS_12SparseMatrixIdEERKNS_8FunctionILi3EEERNS_6VectorIdEEPSH_NS_13MatrixCreator13IteratorRangeIS5_EERNS_7Threads16DummyThreadMutexEE }, comdat, align 8
@_ZZN5boost9function0IvE9assign_toINS_3_bi6bind_tINS3_11unspecifiedENS_8functionIFvRKN6dealii7MappingILi3ELi3EEERKNS7_10DoFHandlerILi3ELi3EEERKNS7_10QuadratureILi3EEERNS7_12SparseMatrixIdEERKNS7_8FunctionILi3EEERNS7_6VectorIdEEPSP_NS7_13MatrixCreator13IteratorRangeISD_EERNS7_7Threads16DummyThreadMutexEEEENS3_5list9INS_17reference_wrapperISA_EENS14_ISE_EENS14_ISI_EENS14_ISL_EENS14_ISP_EENS14_ISS_EENS3_5valueISU_EENS1B_ISX_EENS14_ISZ_EEEEEEEEvT_E13stored_vtable = linkonce_odr dso_local global %"struct.boost::detail::function::basic_vtable0" { %"struct.boost::detail::function::vtable_base" { ptr @_ZN5boost6detail8function15functor_managerINS_3_bi6bind_tINS3_11unspecifiedENS_8functionIFvRKN6dealii7MappingILi3ELi3EEERKNS7_10DoFHandlerILi3ELi3EEERKNS7_10QuadratureILi3EEERNS7_12SparseMatrixIdEERKNS7_8FunctionILi3EEERNS7_6VectorIdEEPSP_NS7_13MatrixCreator13IteratorRangeISD_EERNS7_7Threads16DummyThreadMutexEEEENS3_5list9INS_17reference_wrapperISA_EENS14_ISE_EENS14_ISI_EENS14_ISL_EENS14_ISP_EENS14_ISS_EENS3_5valueISU_EENS1B_ISX_EENS14_ISZ_EEEEEEE6manageERKNS1_15function_bufferERS1I_NS1_30functor_manager_operation_typeE }, ptr @_ZN5boost6detail8function26void_function_obj_invoker0INS_3_bi6bind_tINS3_11unspecifiedENS_8functionIFvRKN6dealii7MappingILi3ELi3EEERKNS7_10DoFHandlerILi3ELi3EEERKNS7_10QuadratureILi3EEERNS7_12SparseMatrixIdEERKNS7_8FunctionILi3EEERNS7_6VectorIdEEPSP_NS7_13MatrixCreator13IteratorRangeISD_EERNS7_7Threads16DummyThreadMutexEEEENS3_5list9INS_17reference_wrapperISA_EENS14_ISE_EENS14_ISI_EENS14_ISL_EENS14_ISP_EENS14_ISS_EENS3_5valueISU_EENS1B_ISX_EENS14_ISZ_EEEEEEvE6invokeERNS1_15function_bufferE }, comdat, align 8
@_ZTSN5boost3_bi6bind_tINS0_11unspecifiedENS_8functionIFvRKN6dealii7MappingILi3ELi3EEERKNS4_10DoFHandlerILi3ELi3EEERKNS4_10QuadratureILi3EEERNS4_12SparseMatrixIdEERKNS4_8FunctionILi3EEERNS4_6VectorIdEEPSM_NS4_13MatrixCreator13IteratorRangeISA_EERNS4_7Threads16DummyThreadMutexEEEENS0_5list9INS_17reference_wrapperIS7_EENS11_ISB_EENS11_ISF_EENS11_ISI_EENS11_ISM_EENS11_ISP_EENS0_5valueISR_EENS18_ISU_EENS11_ISW_EEEEEE = linkonce_odr dso_local constant [412 x i8] c"N5boost3_bi6bind_tINS0_11unspecifiedENS_8functionIFvRKN6dealii7MappingILi3ELi3EEERKNS4_10DoFHandlerILi3ELi3EEERKNS4_10QuadratureILi3EEERNS4_12SparseMatrixIdEERKNS4_8FunctionILi3EEERNS4_6VectorIdEEPSM_NS4_13MatrixCreator13IteratorRangeISA_EERNS4_7Threads16DummyThreadMutexEEEENS0_5list9INS_17reference_wrapperIS7_EENS11_ISB_EENS11_ISF_EENS11_ISI_EENS11_ISM_EENS11_ISP_EENS0_5valueISR_EENS18_ISU_EENS11_ISW_EEEEEE\00", comdat, align 1
@_ZTIN5boost3_bi6bind_tINS0_11unspecifiedENS_8functionIFvRKN6dealii7MappingILi3ELi3EEERKNS4_10DoFHandlerILi3ELi3EEERKNS4_10QuadratureILi3EEERNS4_12SparseMatrixIdEERKNS4_8FunctionILi3EEERNS4_6VectorIdEEPSM_NS4_13MatrixCreator13IteratorRangeISA_EERNS4_7Threads16DummyThreadMutexEEEENS0_5list9INS_17reference_wrapperIS7_EENS11_ISB_EENS11_ISF_EENS11_ISI_EENS11_ISM_EENS11_ISP_EENS0_5valueISR_EENS18_ISU_EENS11_ISW_EEEEEE = linkonce_odr dso_local constant { ptr, ptr } { ptr getelementptr inbounds (ptr, ptr @_ZTVN10__cxxabiv117__class_type_infoE, i64 2), ptr @_ZTSN5boost3_bi6bind_tINS0_11unspecifiedENS_8functionIFvRKN6dealii7MappingILi3ELi3EEERKNS4_10DoFHandlerILi3ELi3EEERKNS4_10QuadratureILi3EEERNS4_12SparseMatrixIdEERKNS4_8FunctionILi3EEERNS4_6VectorIdEEPSM_NS4_13MatrixCreator13IteratorRangeISA_EERNS4_7Threads16DummyThreadMutexEEEENS0_5list9INS_17reference_wrapperIS7_EENS11_ISB_EENS11_ISF_EENS11_ISI_EENS11_ISM_EENS11_ISP_EENS0_5valueISR_EENS18_ISU_EENS11_ISW_EEEEEE }, comdat, align 8
@_ZTVN6dealii9TableBaseILi2EfEE = linkonce_odr dso_local unnamed_addr constant { [4 x ptr] } { [4 x ptr] [ptr null, ptr @_ZTIN6dealii9TableBaseILi2EfEE, ptr @_ZN6dealii9TableBaseILi2EfED2Ev, ptr @_ZN6dealii9TableBaseILi2EfED0Ev] }, comdat, align 8
@_ZTSN6dealii9TableBaseILi2EfEE = linkonce_odr dso_local constant [27 x i8] c"N6dealii9TableBaseILi2EfEE\00", comdat, align 1
@_ZTIN6dealii9TableBaseILi2EfEE = linkonce_odr dso_local constant { ptr, ptr, ptr } { ptr getelementptr inbounds (ptr, ptr @_ZTVN10__cxxabiv120__si_class_type_infoE, i64 2), ptr @_ZTSN6dealii9TableBaseILi2EfEE, ptr @_ZTIN6dealii11SubscriptorE }, comdat, align 8
@_ZZN5boost9function7IvRKN6dealii7MappingILi3ELi3EEERKNS1_10DoFHandlerILi3ELi3EEERKNS1_10QuadratureILi3EEERNS1_12SparseMatrixIfEEPKNS1_8FunctionILi3EEENS1_13MatrixCreator13IteratorRangeIS7_EERNS1_7Threads16DummyThreadMutexEE9assign_toIPFvS5_S9_SD_SG_SK_SN_SQ_EEEvT_E13stored_vtable = linkonce_odr dso_local global %"struct.boost::detail::function::basic_vtable7.175" { %"struct.boost::detail::function::vtable_base" { ptr @_ZN5boost6detail8function15functor_managerIPFvRKN6dealii7MappingILi3ELi3EEERKNS3_10DoFHandlerILi3ELi3EEERKNS3_10QuadratureILi3EEERNS3_12SparseMatrixIfEEPKNS3_8FunctionILi3EEENS3_13MatrixCreator13IteratorRangeIS9_EERNS3_7Threads16DummyThreadMutexEEE6manageERKNS1_15function_bufferERSW_NS1_30functor_manager_operation_typeE }, ptr @_ZN5boost6detail8function22void_function_invoker7IPFvRKN6dealii7MappingILi3ELi3EEERKNS3_10DoFHandlerILi3ELi3EEERKNS3_10QuadratureILi3EEERNS3_12SparseMatrixIfEEPKNS3_8FunctionILi3EEENS3_13MatrixCreator13IteratorRangeIS9_EERNS3_7Threads16DummyThreadMutexEEvS7_SB_SF_SI_SM_SP_SS_E6invokeERNS1_15function_bufferES7_SB_SF_SI_SM_SP_SS_ }, comdat, align 8
@_ZTSPFvRKN6dealii7MappingILi3ELi3EEERKNS_10DoFHandlerILi3ELi3EEERKNS_10QuadratureILi3EEERNS_12SparseMatrixIfEEPKNS_8FunctionILi3EEENS_13MatrixCreator13IteratorRangeIS5_EERNS_7Threads16DummyThreadMutexEE = linkonce_odr dso_local constant [199 x i8] c"PFvRKN6dealii7MappingILi3ELi3EEERKNS_10DoFHandlerILi3ELi3EEERKNS_10QuadratureILi3EEERNS_12SparseMatrixIfEEPKNS_8FunctionILi3EEENS_13MatrixCreator13IteratorRangeIS5_EERNS_7Threads16DummyThreadMutexEE\00", comdat, align 1
@_ZTSFvRKN6dealii7MappingILi3ELi3EEERKNS_10DoFHandlerILi3ELi3EEERKNS_10QuadratureILi3EEERNS_12SparseMatrixIfEEPKNS_8FunctionILi3EEENS_13MatrixCreator13IteratorRangeIS5_EERNS_7Threads16DummyThreadMutexEE = linkonce_odr dso_local constant [198 x i8] c"FvRKN6dealii7MappingILi3ELi3EEERKNS_10DoFHandlerILi3ELi3EEERKNS_10QuadratureILi3EEERNS_12SparseMatrixIfEEPKNS_8FunctionILi3EEENS_13MatrixCreator13IteratorRangeIS5_EERNS_7Threads16DummyThreadMutexEE\00", comdat, align 1
@_ZTIFvRKN6dealii7MappingILi3ELi3EEERKNS_10DoFHandlerILi3ELi3EEERKNS_10QuadratureILi3EEERNS_12SparseMatrixIfEEPKNS_8FunctionILi3EEENS_13MatrixCreator13IteratorRangeIS5_EERNS_7Threads16DummyThreadMutexEE = linkonce_odr dso_local constant { ptr, ptr } { ptr getelementptr inbounds (ptr, ptr @_ZTVN10__cxxabiv120__function_type_infoE, i64 2), ptr @_ZTSFvRKN6dealii7MappingILi3ELi3EEERKNS_10DoFHandlerILi3ELi3EEERKNS_10QuadratureILi3EEERNS_12SparseMatrixIfEEPKNS_8FunctionILi3EEENS_13MatrixCreator13IteratorRangeIS5_EERNS_7Threads16DummyThreadMutexEE }, comdat, align 8
@_ZTIPFvRKN6dealii7MappingILi3ELi3EEERKNS_10DoFHandlerILi3ELi3EEERKNS_10QuadratureILi3EEERNS_12SparseMatrixIfEEPKNS_8FunctionILi3EEENS_13MatrixCreator13IteratorRangeIS5_EERNS_7Threads16DummyThreadMutexEE = linkonce_odr dso_local constant { ptr, ptr, i32, ptr } { ptr getelementptr inbounds (ptr, ptr @_ZTVN10__cxxabiv119__pointer_type_infoE, i64 2), ptr @_ZTSPFvRKN6dealii7MappingILi3ELi3EEERKNS_10DoFHandlerILi3ELi3EEERKNS_10QuadratureILi3EEERNS_12SparseMatrixIfEEPKNS_8FunctionILi3EEENS_13MatrixCreator13IteratorRangeIS5_EERNS_7Threads16DummyThreadMutexEE, i32 0, ptr @_ZTIFvRKN6dealii7MappingILi3ELi3EEERKNS_10DoFHandlerILi3ELi3EEERKNS_10QuadratureILi3EEERNS_12SparseMatrixIfEEPKNS_8FunctionILi3EEENS_13MatrixCreator13IteratorRangeIS5_EERNS_7Threads16DummyThreadMutexEE }, comdat, align 8
@_ZZN5boost9function0IvE9assign_toINS_3_bi6bind_tINS3_11unspecifiedENS_8functionIFvRKN6dealii7MappingILi3ELi3EEERKNS7_10DoFHandlerILi3ELi3EEERKNS7_10QuadratureILi3EEERNS7_12SparseMatrixIfEEPKNS7_8FunctionILi3EEENS7_13MatrixCreator13IteratorRangeISD_EERNS7_7Threads16DummyThreadMutexEEEENS3_5list7INS_17reference_wrapperISA_EENS10_ISE_EENS10_ISI_EENS10_ISL_EENS3_5valueISQ_EENS15_IST_EENS10_ISV_EEEEEEEEvT_E13stored_vtable = linkonce_odr dso_local global %"struct.boost::detail::function::basic_vtable0" { %"struct.boost::detail::function::vtable_base" { ptr @_ZN5boost6detail8function15functor_managerINS_3_bi6bind_tINS3_11unspecifiedENS_8functionIFvRKN6dealii7MappingILi3ELi3EEERKNS7_10DoFHandlerILi3ELi3EEERKNS7_10QuadratureILi3EEERNS7_12SparseMatrixIfEEPKNS7_8FunctionILi3EEENS7_13MatrixCreator13IteratorRangeISD_EERNS7_7Threads16DummyThreadMutexEEEENS3_5list7INS_17reference_wrapperISA_EENS10_ISE_EENS10_ISI_EENS10_ISL_EENS3_5valueISQ_EENS15_IST_EENS10_ISV_EEEEEEE6manageERKNS1_15function_bufferERS1C_NS1_30functor_manager_operation_typeE }, ptr @_ZN5boost6detail8function26void_function_obj_invoker0INS_3_bi6bind_tINS3_11unspecifiedENS_8functionIFvRKN6dealii7MappingILi3ELi3EEERKNS7_10DoFHandlerILi3ELi3EEERKNS7_10QuadratureILi3EEERNS7_12SparseMatrixIfEEPKNS7_8FunctionILi3EEENS7_13MatrixCreator13IteratorRangeISD_EERNS7_7Threads16DummyThreadMutexEEEENS3_5list7INS_17reference_wrapperISA_EENS10_ISE_EENS10_ISI_EENS10_ISL_EENS3_5valueISQ_EENS15_IST_EENS10_ISV_EEEEEEvE6invokeERNS1_15function_bufferE }, comdat, align 8
@_ZTSN5boost3_bi6bind_tINS0_11unspecifiedENS_8functionIFvRKN6dealii7MappingILi3ELi3EEERKNS4_10DoFHandlerILi3ELi3EEERKNS4_10QuadratureILi3EEERNS4_12SparseMatrixIfEEPKNS4_8FunctionILi3EEENS4_13MatrixCreator13IteratorRangeISA_EERNS4_7Threads16DummyThreadMutexEEEENS0_5list7INS_17reference_wrapperIS7_EENSX_ISB_EENSX_ISF_EENSX_ISI_EENS0_5valueISN_EENS12_ISQ_EENSX_ISS_EEEEEE = linkonce_odr dso_local constant [366 x i8] c"N5boost3_bi6bind_tINS0_11unspecifiedENS_8functionIFvRKN6dealii7MappingILi3ELi3EEERKNS4_10DoFHandlerILi3ELi3EEERKNS4_10QuadratureILi3EEERNS4_12SparseMatrixIfEEPKNS4_8FunctionILi3EEENS4_13MatrixCreator13IteratorRangeISA_EERNS4_7Threads16DummyThreadMutexEEEENS0_5list7INS_17reference_wrapperIS7_EENSX_ISB_EENSX_ISF_EENSX_ISI_EENS0_5valueISN_EENS12_ISQ_EENSX_ISS_EEEEEE\00", comdat, align 1
@_ZTIN5boost3_bi6bind_tINS0_11unspecifiedENS_8functionIFvRKN6dealii7MappingILi3ELi3EEERKNS4_10DoFHandlerILi3ELi3EEERKNS4_10QuadratureILi3EEERNS4_12SparseMatrixIfEEPKNS4_8FunctionILi3EEENS4_13MatrixCreator13IteratorRangeISA_EERNS4_7Threads16DummyThreadMutexEEEENS0_5list7INS_17reference_wrapperIS7_EENSX_ISB_EENSX_ISF_EENSX_ISI_EENS0_5valueISN_EENS12_ISQ_EENSX_ISS_EEEEEE = linkonce_odr dso_local constant { ptr, ptr } { ptr getelementptr inbounds (ptr, ptr @_ZTVN10__cxxabiv117__class_type_infoE, i64 2), ptr @_ZTSN5boost3_bi6bind_tINS0_11unspecifiedENS_8functionIFvRKN6dealii7MappingILi3ELi3EEERKNS4_10DoFHandlerILi3ELi3EEERKNS4_10QuadratureILi3EEERNS4_12SparseMatrixIfEEPKNS4_8FunctionILi3EEENS4_13MatrixCreator13IteratorRangeISA_EERNS4_7Threads16DummyThreadMutexEEEENS0_5list7INS_17reference_wrapperIS7_EENSX_ISB_EENSX_ISF_EENSX_ISI_EENS0_5valueISN_EENS12_ISQ_EENSX_ISS_EEEEEE }, comdat, align 8
@_ZZN5boost9function9IvRKN6dealii7MappingILi3ELi3EEERKNS1_10DoFHandlerILi3ELi3EEERKNS1_10QuadratureILi3EEERNS1_12SparseMatrixIfEERKNS1_8FunctionILi3EEERNS1_6VectorIdEEPSJ_NS1_13MatrixCreator13IteratorRangeIS7_EERNS1_7Threads16DummyThreadMutexEE9assign_toIPFvS5_S9_SD_SG_SK_SN_SO_SR_SU_EEEvT_E13stored_vtable = linkonce_odr dso_local global %"struct.boost::detail::function::basic_vtable9.176" { %"struct.boost::detail::function::vtable_base" { ptr @_ZN5boost6detail8function15functor_managerIPFvRKN6dealii7MappingILi3ELi3EEERKNS3_10DoFHandlerILi3ELi3EEERKNS3_10QuadratureILi3EEERNS3_12SparseMatrixIfEERKNS3_8FunctionILi3EEERNS3_6VectorIdEEPSL_NS3_13MatrixCreator13IteratorRangeIS9_EERNS3_7Threads16DummyThreadMutexEEE6manageERKNS1_15function_bufferERS10_NS1_30functor_manager_operation_typeE }, ptr @_ZN5boost6detail8function22void_function_invoker9IPFvRKN6dealii7MappingILi3ELi3EEERKNS3_10DoFHandlerILi3ELi3EEERKNS3_10QuadratureILi3EEERNS3_12SparseMatrixIfEERKNS3_8FunctionILi3EEERNS3_6VectorIdEEPSL_NS3_13MatrixCreator13IteratorRangeIS9_EERNS3_7Threads16DummyThreadMutexEEvS7_SB_SF_SI_SM_SP_SQ_ST_SW_E6invokeERNS1_15function_bufferES7_SB_SF_SI_SM_SP_SQ_ST_SW_ }, comdat, align 8
@_ZTSPFvRKN6dealii7MappingILi3ELi3EEERKNS_10DoFHandlerILi3ELi3EEERKNS_10QuadratureILi3EEERNS_12SparseMatrixIfEERKNS_8FunctionILi3EEERNS_6VectorIdEEPSH_NS_13MatrixCreator13IteratorRangeIS5_EERNS_7Threads16DummyThreadMutexEE = linkonce_odr dso_local constant [218 x i8] c"PFvRKN6dealii7MappingILi3ELi3EEERKNS_10DoFHandlerILi3ELi3EEERKNS_10QuadratureILi3EEERNS_12SparseMatrixIfEERKNS_8FunctionILi3EEERNS_6VectorIdEEPSH_NS_13MatrixCreator13IteratorRangeIS5_EERNS_7Threads16DummyThreadMutexEE\00", comdat, align 1
@_ZTSFvRKN6dealii7MappingILi3ELi3EEERKNS_10DoFHandlerILi3ELi3EEERKNS_10QuadratureILi3EEERNS_12SparseMatrixIfEERKNS_8FunctionILi3EEERNS_6VectorIdEEPSH_NS_13MatrixCreator13IteratorRangeIS5_EERNS_7Threads16DummyThreadMutexEE = linkonce_odr dso_local constant [217 x i8] c"FvRKN6dealii7MappingILi3ELi3EEERKNS_10DoFHandlerILi3ELi3EEERKNS_10QuadratureILi3EEERNS_12SparseMatrixIfEERKNS_8FunctionILi3EEERNS_6VectorIdEEPSH_NS_13MatrixCreator13IteratorRangeIS5_EERNS_7Threads16DummyThreadMutexEE\00", comdat, align 1
@_ZTIFvRKN6dealii7MappingILi3ELi3EEERKNS_10DoFHandlerILi3ELi3EEERKNS_10QuadratureILi3EEERNS_12SparseMatrixIfEERKNS_8FunctionILi3EEERNS_6VectorIdEEPSH_NS_13MatrixCreator13IteratorRangeIS5_EERNS_7Threads16DummyThreadMutexEE = linkonce_odr dso_local constant { ptr, ptr } { ptr getelementptr inbounds (ptr, ptr @_ZTVN10__cxxabiv120__function_type_infoE, i64 2), ptr @_ZTSFvRKN6dealii7MappingILi3ELi3EEERKNS_10DoFHandlerILi3ELi3EEERKNS_10QuadratureILi3EEERNS_12SparseMatrixIfEERKNS_8FunctionILi3EEERNS_6VectorIdEEPSH_NS_13MatrixCreator13IteratorRangeIS5_EERNS_7Threads16DummyThreadMutexEE }, comdat, align 8
@_ZTIPFvRKN6dealii7MappingILi3ELi3EEERKNS_10DoFHandlerILi3ELi3EEERKNS_10QuadratureILi3EEERNS_12SparseMatrixIfEERKNS_8FunctionILi3EEERNS_6VectorIdEEPSH_NS_13MatrixCreator13IteratorRangeIS5_EERNS_7Threads16DummyThreadMutexEE = linkonce_odr dso_local constant { ptr, ptr, i32, ptr } { ptr getelementptr inbounds (ptr, ptr @_ZTVN10__cxxabiv119__pointer_type_infoE, i64 2), ptr @_ZTSPFvRKN6dealii7MappingILi3ELi3EEERKNS_10DoFHandlerILi3ELi3EEERKNS_10QuadratureILi3EEERNS_12SparseMatrixIfEERKNS_8FunctionILi3EEERNS_6VectorIdEEPSH_NS_13MatrixCreator13IteratorRangeIS5_EERNS_7Threads16DummyThreadMutexEE, i32 0, ptr @_ZTIFvRKN6dealii7MappingILi3ELi3EEERKNS_10DoFHandlerILi3ELi3EEERKNS_10QuadratureILi3EEERNS_12SparseMatrixIfEERKNS_8FunctionILi3EEERNS_6VectorIdEEPSH_NS_13MatrixCreator13IteratorRangeIS5_EERNS_7Threads16DummyThreadMutexEE }, comdat, align 8
@_ZZN5boost9function0IvE9assign_toINS_3_bi6bind_tINS3_11unspecifiedENS_8functionIFvRKN6dealii7MappingILi3ELi3EEERKNS7_10DoFHandlerILi3ELi3EEERKNS7_10QuadratureILi3EEERNS7_12SparseMatrixIfEERKNS7_8FunctionILi3EEERNS7_6VectorIdEEPSP_NS7_13MatrixCreator13IteratorRangeISD_EERNS7_7Threads16DummyThreadMutexEEEENS3_5list9INS_17reference_wrapperISA_EENS14_ISE_EENS14_ISI_EENS14_ISL_EENS14_ISP_EENS14_ISS_EENS3_5valueISU_EENS1B_ISX_EENS14_ISZ_EEEEEEEEvT_E13stored_vtable = linkonce_odr dso_local global %"struct.boost::detail::function::basic_vtable0" { %"struct.boost::detail::function::vtable_base" { ptr @_ZN5boost6detail8function15functor_managerINS_3_bi6bind_tINS3_11unspecifiedENS_8functionIFvRKN6dealii7MappingILi3ELi3EEERKNS7_10DoFHandlerILi3ELi3EEERKNS7_10QuadratureILi3EEERNS7_12SparseMatrixIfEERKNS7_8FunctionILi3EEERNS7_6VectorIdEEPSP_NS7_13MatrixCreator13IteratorRangeISD_EERNS7_7Threads16DummyThreadMutexEEEENS3_5list9INS_17reference_wrapperISA_EENS14_ISE_EENS14_ISI_EENS14_ISL_EENS14_ISP_EENS14_ISS_EENS3_5valueISU_EENS1B_ISX_EENS14_ISZ_EEEEEEE6manageERKNS1_15function_bufferERS1I_NS1_30functor_manager_operation_typeE }, ptr @_ZN5boost6detail8function26void_function_obj_invoker0INS_3_bi6bind_tINS3_11unspecifiedENS_8functionIFvRKN6dealii7MappingILi3ELi3EEERKNS7_10DoFHandlerILi3ELi3EEERKNS7_10QuadratureILi3EEERNS7_12SparseMatrixIfEERKNS7_8FunctionILi3EEERNS7_6VectorIdEEPSP_NS7_13MatrixCreator13IteratorRangeISD_EERNS7_7Threads16DummyThreadMutexEEEENS3_5list9INS_17reference_wrapperISA_EENS14_ISE_EENS14_ISI_EENS14_ISL_EENS14_ISP_EENS14_ISS_EENS3_5valueISU_EENS1B_ISX_EENS14_ISZ_EEEEEEvE6invokeERNS1_15function_bufferE }, comdat, align 8
@_ZTSN5boost3_bi6bind_tINS0_11unspecifiedENS_8functionIFvRKN6dealii7MappingILi3ELi3EEERKNS4_10DoFHandlerILi3ELi3EEERKNS4_10QuadratureILi3EEERNS4_12SparseMatrixIfEERKNS4_8FunctionILi3EEERNS4_6VectorIdEEPSM_NS4_13MatrixCreator13IteratorRangeISA_EERNS4_7Threads16DummyThreadMutexEEEENS0_5list9INS_17reference_wrapperIS7_EENS11_ISB_EENS11_ISF_EENS11_ISI_EENS11_ISM_EENS11_ISP_EENS0_5valueISR_EENS18_ISU_EENS11_ISW_EEEEEE = linkonce_odr dso_local constant [412 x i8] c"N5boost3_bi6bind_tINS0_11unspecifiedENS_8functionIFvRKN6dealii7MappingILi3ELi3EEERKNS4_10DoFHandlerILi3ELi3EEERKNS4_10QuadratureILi3EEERNS4_12SparseMatrixIfEERKNS4_8FunctionILi3EEERNS4_6VectorIdEEPSM_NS4_13MatrixCreator13IteratorRangeISA_EERNS4_7Threads16DummyThreadMutexEEEENS0_5list9INS_17reference_wrapperIS7_EENS11_ISB_EENS11_ISF_EENS11_ISI_EENS11_ISM_EENS11_ISP_EENS0_5valueISR_EENS18_ISU_EENS11_ISW_EEEEEE\00", comdat, align 1
@_ZTIN5boost3_bi6bind_tINS0_11unspecifiedENS_8functionIFvRKN6dealii7MappingILi3ELi3EEERKNS4_10DoFHandlerILi3ELi3EEERKNS4_10QuadratureILi3EEERNS4_12SparseMatrixIfEERKNS4_8FunctionILi3EEERNS4_6VectorIdEEPSM_NS4_13MatrixCreator13IteratorRangeISA_EERNS4_7Threads16DummyThreadMutexEEEENS0_5list9INS_17reference_wrapperIS7_EENS11_ISB_EENS11_ISF_EENS11_ISI_EENS11_ISM_EENS11_ISP_EENS0_5valueISR_EENS18_ISU_EENS11_ISW_EEEEEE = linkonce_odr dso_local constant { ptr, ptr } { ptr getelementptr inbounds (ptr, ptr @_ZTVN10__cxxabiv117__class_type_infoE, i64 2), ptr @_ZTSN5boost3_bi6bind_tINS0_11unspecifiedENS_8functionIFvRKN6dealii7MappingILi3ELi3EEERKNS4_10DoFHandlerILi3ELi3EEERKNS4_10QuadratureILi3EEERNS4_12SparseMatrixIfEERKNS4_8FunctionILi3EEERNS4_6VectorIdEEPSM_NS4_13MatrixCreator13IteratorRangeISA_EERNS4_7Threads16DummyThreadMutexEEEENS0_5list9INS_17reference_wrapperIS7_EENS11_ISB_EENS11_ISF_EENS11_ISI_EENS11_ISM_EENS11_ISP_EENS0_5valueISR_EENS18_ISU_EENS11_ISW_EEEEEE }, comdat, align 8
@.str.16 = private unnamed_addr constant [23 x i8] c"vector::_M_fill_insert\00", align 1
@_ZZN6dealii8internal12TriaAccessor14Implementation12vertex_indexILi3ELi3EEEjRKNS_12TriaAccessorILi2EXT_EXT0_EEEjE12switch_table = linkonce_odr dso_local local_unnamed_addr constant [2 x [2 x i32]] [[2 x i32] [i32 1, i32 0], [2 x i32] [i32 0, i32 1]], comdat, align 16
@_ZZN6dealii8internal12TriaAccessor14Implementation10line_indexILi3ELi3EEEjRKNS_12TriaAccessorILi3EXT_EXT0_EEEjE12lookup_table = linkonce_odr dso_local local_unnamed_addr constant [12 x [2 x i32]] [[2 x i32] [i32 4, i32 0], [2 x i32] [i32 4, i32 1], [2 x i32] [i32 4, i32 2], [2 x i32] [i32 4, i32 3], [2 x i32] [i32 5, i32 0], [2 x i32] [i32 5, i32 1], [2 x i32] [i32 5, i32 2], [2 x i32] [i32 5, i32 3], [2 x i32] zeroinitializer, [2 x i32] [i32 1, i32 0], [2 x i32] [i32 0, i32 1], [2 x i32] [i32 1, i32 1]], comdat, align 16
@_ZZN6dealii8internal12TriaAccessor14Implementation16line_orientationILi3ELi3EEEbRKNS_12TriaAccessorILi3EXT_EXT0_EEEjE12lookup_table = linkonce_odr dso_local local_unnamed_addr constant [12 x [2 x i32]] [[2 x i32] [i32 4, i32 0], [2 x i32] [i32 4, i32 1], [2 x i32] [i32 4, i32 2], [2 x i32] [i32 4, i32 3], [2 x i32] [i32 5, i32 0], [2 x i32] [i32 5, i32 1], [2 x i32] [i32 5, i32 2], [2 x i32] [i32 5, i32 3], [2 x i32] zeroinitializer, [2 x i32] [i32 1, i32 0], [2 x i32] [i32 0, i32 1], [2 x i32] [i32 1, i32 1]], comdat, align 16
@_ZZN6dealii8internal12TriaAccessor14Implementation16line_orientationILi3ELi3EEEbRKNS_12TriaAccessorILi3EXT_EXT0_EEEjE10bool_table = linkonce_odr dso_local local_unnamed_addr constant [2 x [2 x [2 x [2 x i8]]]] [[2 x [2 x [2 x i8]]] [[2 x [2 x i8]] [[2 x i8] c"\01\00", [2 x i8] c"\00\01"], [2 x [2 x i8]] [[2 x i8] c"\01\01", [2 x i8] zeroinitializer]], [2 x [2 x [2 x i8]]] [[2 x [2 x i8]] [[2 x i8] c"\01\01", [2 x i8] zeroinitializer], [2 x [2 x i8]] [[2 x i8] c"\01\00", [2 x i8] c"\00\01"]]], comdat, align 16
@_ZTVN6dealii9TableBaseILi3EN5boost10shared_ptrINS_8FEValuesILi3ELi3EEEEEEE = linkonce_odr dso_local unnamed_addr constant { [4 x ptr] } { [4 x ptr] [ptr null, ptr @_ZTIN6dealii9TableBaseILi3EN5boost10shared_ptrINS_8FEValuesILi3ELi3EEEEEEE, ptr @_ZN6dealii9TableBaseILi3EN5boost10shared_ptrINS_8FEValuesILi3ELi3EEEEEED2Ev, ptr @_ZN6dealii9TableBaseILi3EN5boost10shared_ptrINS_8FEValuesILi3ELi3EEEEEED0Ev] }, comdat, align 8
@_ZTSN6dealii9TableBaseILi3EN5boost10shared_ptrINS_8FEValuesILi3ELi3EEEEEEE = linkonce_odr dso_local constant [71 x i8] c"N6dealii9TableBaseILi3EN5boost10shared_ptrINS_8FEValuesILi3ELi3EEEEEEE\00", comdat, align 1
@_ZTIN6dealii9TableBaseILi3EN5boost10shared_ptrINS_8FEValuesILi3ELi3EEEEEEE = linkonce_odr dso_local constant { ptr, ptr, ptr } { ptr getelementptr inbounds (ptr, ptr @_ZTVN10__cxxabiv120__si_class_type_infoE, i64 2), ptr @_ZTSN6dealii9TableBaseILi3EN5boost10shared_ptrINS_8FEValuesILi3ELi3EEEEEEE, ptr @_ZTIN6dealii11SubscriptorE }, comdat, align 8
@_ZTVN6dealii2hp11QCollectionILi3EEE = linkonce_odr dso_local unnamed_addr constant { [4 x ptr] } { [4 x ptr] [ptr null, ptr @_ZTIN6dealii2hp11QCollectionILi3EEE, ptr @_ZN6dealii2hp11QCollectionILi3EED2Ev, ptr @_ZN6dealii2hp11QCollectionILi3EED0Ev] }, comdat, align 8
@_ZTSN6dealii2hp11QCollectionILi3EEE = linkonce_odr dso_local constant [32 x i8] c"N6dealii2hp11QCollectionILi3EEE\00", comdat, align 1
@_ZTIN6dealii2hp11QCollectionILi3EEE = linkonce_odr dso_local constant { ptr, ptr, ptr } { ptr getelementptr inbounds (ptr, ptr @_ZTVN10__cxxabiv120__si_class_type_infoE, i64 2), ptr @_ZTSN6dealii2hp11QCollectionILi3EEE, ptr @_ZTIN6dealii11SubscriptorE }, comdat, align 8
@_ZZN5boost9function7IvRKN6dealii2hp17MappingCollectionILi3ELi3EEERKNS2_10DoFHandlerILi3ELi3EEERKNS2_11QCollectionILi3EEERNS1_12SparseMatrixIdEEPKNS1_8FunctionILi3EEENS1_13MatrixCreator13IteratorRangeIS8_EERNS1_7Threads16DummyThreadMutexEE9assign_toIPFvS6_SA_SE_SH_SL_SO_SR_EEEvT_E13stored_vtable = linkonce_odr dso_local global %"struct.boost::detail::function::basic_vtable7.177" { %"struct.boost::detail::function::vtable_base" { ptr @_ZN5boost6detail8function15functor_managerIPFvRKN6dealii2hp17MappingCollectionILi3ELi3EEERKNS4_10DoFHandlerILi3ELi3EEERKNS4_11QCollectionILi3EEERNS3_12SparseMatrixIdEEPKNS3_8FunctionILi3EEENS3_13MatrixCreator13IteratorRangeISA_EERNS3_7Threads16DummyThreadMutexEEE6manageERKNS1_15function_bufferERSX_NS1_30functor_manager_operation_typeE }, ptr @_ZN5boost6detail8function22void_function_invoker7IPFvRKN6dealii2hp17MappingCollectionILi3ELi3EEERKNS4_10DoFHandlerILi3ELi3EEERKNS4_11QCollectionILi3EEERNS3_12SparseMatrixIdEEPKNS3_8FunctionILi3EEENS3_13MatrixCreator13IteratorRangeISA_EERNS3_7Threads16DummyThreadMutexEEvS8_SC_SG_SJ_SN_SQ_ST_E6invokeERNS1_15function_bufferES8_SC_SG_SJ_SN_SQ_ST_ }, comdat, align 8
@_ZTSPFvRKN6dealii2hp17MappingCollectionILi3ELi3EEERKNS0_10DoFHandlerILi3ELi3EEERKNS0_11QCollectionILi3EEERNS_12SparseMatrixIdEEPKNS_8FunctionILi3EEENS_13MatrixCreator13IteratorRangeIS6_EERNS_7Threads16DummyThreadMutexEE = linkonce_odr dso_local constant [216 x i8] c"PFvRKN6dealii2hp17MappingCollectionILi3ELi3EEERKNS0_10DoFHandlerILi3ELi3EEERKNS0_11QCollectionILi3EEERNS_12SparseMatrixIdEEPKNS_8FunctionILi3EEENS_13MatrixCreator13IteratorRangeIS6_EERNS_7Threads16DummyThreadMutexEE\00", comdat, align 1
@_ZTSFvRKN6dealii2hp17MappingCollectionILi3ELi3EEERKNS0_10DoFHandlerILi3ELi3EEERKNS0_11QCollectionILi3EEERNS_12SparseMatrixIdEEPKNS_8FunctionILi3EEENS_13MatrixCreator13IteratorRangeIS6_EERNS_7Threads16DummyThreadMutexEE = linkonce_odr dso_local constant [215 x i8] c"FvRKN6dealii2hp17MappingCollectionILi3ELi3EEERKNS0_10DoFHandlerILi3ELi3EEERKNS0_11QCollectionILi3EEERNS_12SparseMatrixIdEEPKNS_8FunctionILi3EEENS_13MatrixCreator13IteratorRangeIS6_EERNS_7Threads16DummyThreadMutexEE\00", comdat, align 1
@_ZTIFvRKN6dealii2hp17MappingCollectionILi3ELi3EEERKNS0_10DoFHandlerILi3ELi3EEERKNS0_11QCollectionILi3EEERNS_12SparseMatrixIdEEPKNS_8FunctionILi3EEENS_13MatrixCreator13IteratorRangeIS6_EERNS_7Threads16DummyThreadMutexEE = linkonce_odr dso_local constant { ptr, ptr } { ptr getelementptr inbounds (ptr, ptr @_ZTVN10__cxxabiv120__function_type_infoE, i64 2), ptr @_ZTSFvRKN6dealii2hp17MappingCollectionILi3ELi3EEERKNS0_10DoFHandlerILi3ELi3EEERKNS0_11QCollectionILi3EEERNS_12SparseMatrixIdEEPKNS_8FunctionILi3EEENS_13MatrixCreator13IteratorRangeIS6_EERNS_7Threads16DummyThreadMutexEE }, comdat, align 8
@_ZTIPFvRKN6dealii2hp17MappingCollectionILi3ELi3EEERKNS0_10DoFHandlerILi3ELi3EEERKNS0_11QCollectionILi3EEERNS_12SparseMatrixIdEEPKNS_8FunctionILi3EEENS_13MatrixCreator13IteratorRangeIS6_EERNS_7Threads16DummyThreadMutexEE = linkonce_odr dso_local constant { ptr, ptr, i32, ptr } { ptr getelementptr inbounds (ptr, ptr @_ZTVN10__cxxabiv119__pointer_type_infoE, i64 2), ptr @_ZTSPFvRKN6dealii2hp17MappingCollectionILi3ELi3EEERKNS0_10DoFHandlerILi3ELi3EEERKNS0_11QCollectionILi3EEERNS_12SparseMatrixIdEEPKNS_8FunctionILi3EEENS_13MatrixCreator13IteratorRangeIS6_EERNS_7Threads16DummyThreadMutexEE, i32 0, ptr @_ZTIFvRKN6dealii2hp17MappingCollectionILi3ELi3EEERKNS0_10DoFHandlerILi3ELi3EEERKNS0_11QCollectionILi3EEERNS_12SparseMatrixIdEEPKNS_8FunctionILi3EEENS_13MatrixCreator13IteratorRangeIS6_EERNS_7Threads16DummyThreadMutexEE }, comdat, align 8
@_ZZN5boost9function0IvE9assign_toINS_3_bi6bind_tINS3_11unspecifiedENS_8functionIFvRKN6dealii2hp17MappingCollectionILi3ELi3EEERKNS8_10DoFHandlerILi3ELi3EEERKNS8_11QCollectionILi3EEERNS7_12SparseMatrixIdEEPKNS7_8FunctionILi3EEENS7_13MatrixCreator13IteratorRangeISE_EERNS7_7Threads16DummyThreadMutexEEEENS3_5list7INS_17reference_wrapperISB_EENS11_ISF_EENS11_ISJ_EENS11_ISM_EENS3_5valueISR_EENS16_ISU_EENS11_ISW_EEEEEEEEvT_E13stored_vtable = linkonce_odr dso_local global %"struct.boost::detail::function::basic_vtable0" { %"struct.boost::detail::function::vtable_base" { ptr @_ZN5boost6detail8function15functor_managerINS_3_bi6bind_tINS3_11unspecifiedENS_8functionIFvRKN6dealii2hp17MappingCollectionILi3ELi3EEERKNS8_10DoFHandlerILi3ELi3EEERKNS8_11QCollectionILi3EEERNS7_12SparseMatrixIdEEPKNS7_8FunctionILi3EEENS7_13MatrixCreator13IteratorRangeISE_EERNS7_7Threads16DummyThreadMutexEEEENS3_5list7INS_17reference_wrapperISB_EENS11_ISF_EENS11_ISJ_EENS11_ISM_EENS3_5valueISR_EENS16_ISU_EENS11_ISW_EEEEEEE6manageERKNS1_15function_bufferERS1D_NS1_30functor_manager_operation_typeE }, ptr @_ZN5boost6detail8function26void_function_obj_invoker0INS_3_bi6bind_tINS3_11unspecifiedENS_8functionIFvRKN6dealii2hp17MappingCollectionILi3ELi3EEERKNS8_10DoFHandlerILi3ELi3EEERKNS8_11QCollectionILi3EEERNS7_12SparseMatrixIdEEPKNS7_8FunctionILi3EEENS7_13MatrixCreator13IteratorRangeISE_EERNS7_7Threads16DummyThreadMutexEEEENS3_5list7INS_17reference_wrapperISB_EENS11_ISF_EENS11_ISJ_EENS11_ISM_EENS3_5valueISR_EENS16_ISU_EENS11_ISW_EEEEEEvE6invokeERNS1_15function_bufferE }, comdat, align 8
@_ZTSN5boost3_bi6bind_tINS0_11unspecifiedENS_8functionIFvRKN6dealii2hp17MappingCollectionILi3ELi3EEERKNS5_10DoFHandlerILi3ELi3EEERKNS5_11QCollectionILi3EEERNS4_12SparseMatrixIdEEPKNS4_8FunctionILi3EEENS4_13MatrixCreator13IteratorRangeISB_EERNS4_7Threads16DummyThreadMutexEEEENS0_5list7INS_17reference_wrapperIS8_EENSY_ISC_EENSY_ISG_EENSY_ISJ_EENS0_5valueISO_EENS13_ISR_EENSY_IST_EEEEEE = linkonce_odr dso_local constant [381 x i8] c"N5boost3_bi6bind_tINS0_11unspecifiedENS_8functionIFvRKN6dealii2hp17MappingCollectionILi3ELi3EEERKNS5_10DoFHandlerILi3ELi3EEERKNS5_11QCollectionILi3EEERNS4_12SparseMatrixIdEEPKNS4_8FunctionILi3EEENS4_13MatrixCreator13IteratorRangeISB_EERNS4_7Threads16DummyThreadMutexEEEENS0_5list7INS_17reference_wrapperIS8_EENSY_ISC_EENSY_ISG_EENSY_ISJ_EENS0_5valueISO_EENS13_ISR_EENSY_IST_EEEEEE\00", comdat, align 1
@_ZTIN5boost3_bi6bind_tINS0_11unspecifiedENS_8functionIFvRKN6dealii2hp17MappingCollectionILi3ELi3EEERKNS5_10DoFHandlerILi3ELi3EEERKNS5_11QCollectionILi3EEERNS4_12SparseMatrixIdEEPKNS4_8FunctionILi3EEENS4_13MatrixCreator13IteratorRangeISB_EERNS4_7Threads16DummyThreadMutexEEEENS0_5list7INS_17reference_wrapperIS8_EENSY_ISC_EENSY_ISG_EENSY_ISJ_EENS0_5valueISO_EENS13_ISR_EENSY_IST_EEEEEE = linkonce_odr dso_local constant { ptr, ptr } { ptr getelementptr inbounds (ptr, ptr @_ZTVN10__cxxabiv117__class_type_infoE, i64 2), ptr @_ZTSN5boost3_bi6bind_tINS0_11unspecifiedENS_8functionIFvRKN6dealii2hp17MappingCollectionILi3ELi3EEERKNS5_10DoFHandlerILi3ELi3EEERKNS5_11QCollectionILi3EEERNS4_12SparseMatrixIdEEPKNS4_8FunctionILi3EEENS4_13MatrixCreator13IteratorRangeISB_EERNS4_7Threads16DummyThreadMutexEEEENS0_5list7INS_17reference_wrapperIS8_EENSY_ISC_EENSY_ISG_EENSY_ISJ_EENS0_5valueISO_EENS13_ISR_EENSY_IST_EEEEEE }, comdat, align 8
@_ZZN5boost9function9IvRKN6dealii2hp17MappingCollectionILi3ELi3EEERKNS2_10DoFHandlerILi3ELi3EEERKNS2_11QCollectionILi3EEERNS1_12SparseMatrixIdEERKNS1_8FunctionILi3EEERNS1_6VectorIdEEPSK_NS1_13MatrixCreator13IteratorRangeIS8_EERNS1_7Threads16DummyThreadMutexEE9assign_toIPFvS6_SA_SE_SH_SL_SO_SP_SS_SV_EEEvT_E13stored_vtable = linkonce_odr dso_local global %"struct.boost::detail::function::basic_vtable9.178" { %"struct.boost::detail::function::vtable_base" { ptr @_ZN5boost6detail8function15functor_managerIPFvRKN6dealii2hp17MappingCollectionILi3ELi3EEERKNS4_10DoFHandlerILi3ELi3EEERKNS4_11QCollectionILi3EEERNS3_12SparseMatrixIdEERKNS3_8FunctionILi3EEERNS3_6VectorIdEEPSM_NS3_13MatrixCreator13IteratorRangeISA_EERNS3_7Threads16DummyThreadMutexEEE6manageERKNS1_15function_bufferERS11_NS1_30functor_manager_operation_typeE }, ptr @_ZN5boost6detail8function22void_function_invoker9IPFvRKN6dealii2hp17MappingCollectionILi3ELi3EEERKNS4_10DoFHandlerILi3ELi3EEERKNS4_11QCollectionILi3EEERNS3_12SparseMatrixIdEERKNS3_8FunctionILi3EEERNS3_6VectorIdEEPSM_NS3_13MatrixCreator13IteratorRangeISA_EERNS3_7Threads16DummyThreadMutexEEvS8_SC_SG_SJ_SN_SQ_SR_SU_SX_E6invokeERNS1_15function_bufferES8_SC_SG_SJ_SN_SQ_SR_SU_SX_ }, comdat, align 8
@_ZTSPFvRKN6dealii2hp17MappingCollectionILi3ELi3EEERKNS0_10DoFHandlerILi3ELi3EEERKNS0_11QCollectionILi3EEERNS_12SparseMatrixIdEERKNS_8FunctionILi3EEERNS_6VectorIdEEPSI_NS_13MatrixCreator13IteratorRangeIS6_EERNS_7Threads16DummyThreadMutexEE = linkonce_odr dso_local constant [235 x i8] c"PFvRKN6dealii2hp17MappingCollectionILi3ELi3EEERKNS0_10DoFHandlerILi3ELi3EEERKNS0_11QCollectionILi3EEERNS_12SparseMatrixIdEERKNS_8FunctionILi3EEERNS_6VectorIdEEPSI_NS_13MatrixCreator13IteratorRangeIS6_EERNS_7Threads16DummyThreadMutexEE\00", comdat, align 1
@_ZTSFvRKN6dealii2hp17MappingCollectionILi3ELi3EEERKNS0_10DoFHandlerILi3ELi3EEERKNS0_11QCollectionILi3EEERNS_12SparseMatrixIdEERKNS_8FunctionILi3EEERNS_6VectorIdEEPSI_NS_13MatrixCreator13IteratorRangeIS6_EERNS_7Threads16DummyThreadMutexEE = linkonce_odr dso_local constant [234 x i8] c"FvRKN6dealii2hp17MappingCollectionILi3ELi3EEERKNS0_10DoFHandlerILi3ELi3EEERKNS0_11QCollectionILi3EEERNS_12SparseMatrixIdEERKNS_8FunctionILi3EEERNS_6VectorIdEEPSI_NS_13MatrixCreator13IteratorRangeIS6_EERNS_7Threads16DummyThreadMutexEE\00", comdat, align 1
@_ZTIFvRKN6dealii2hp17MappingCollectionILi3ELi3EEERKNS0_10DoFHandlerILi3ELi3EEERKNS0_11QCollectionILi3EEERNS_12SparseMatrixIdEERKNS_8FunctionILi3EEERNS_6VectorIdEEPSI_NS_13MatrixCreator13IteratorRangeIS6_EERNS_7Threads16DummyThreadMutexEE = linkonce_odr dso_local constant { ptr, ptr } { ptr getelementptr inbounds (ptr, ptr @_ZTVN10__cxxabiv120__function_type_infoE, i64 2), ptr @_ZTSFvRKN6dealii2hp17MappingCollectionILi3ELi3EEERKNS0_10DoFHandlerILi3ELi3EEERKNS0_11QCollectionILi3EEERNS_12SparseMatrixIdEERKNS_8FunctionILi3EEERNS_6VectorIdEEPSI_NS_13MatrixCreator13IteratorRangeIS6_EERNS_7Threads16DummyThreadMutexEE }, comdat, align 8
@_ZTIPFvRKN6dealii2hp17MappingCollectionILi3ELi3EEERKNS0_10DoFHandlerILi3ELi3EEERKNS0_11QCollectionILi3EEERNS_12SparseMatrixIdEERKNS_8FunctionILi3EEERNS_6VectorIdEEPSI_NS_13MatrixCreator13IteratorRangeIS6_EERNS_7Threads16DummyThreadMutexEE = linkonce_odr dso_local constant { ptr, ptr, i32, ptr } { ptr getelementptr inbounds (ptr, ptr @_ZTVN10__cxxabiv119__pointer_type_infoE, i64 2), ptr @_ZTSPFvRKN6dealii2hp17MappingCollectionILi3ELi3EEERKNS0_10DoFHandlerILi3ELi3EEERKNS0_11QCollectionILi3EEERNS_12SparseMatrixIdEERKNS_8FunctionILi3EEERNS_6VectorIdEEPSI_NS_13MatrixCreator13IteratorRangeIS6_EERNS_7Threads16DummyThreadMutexEE, i32 0, ptr @_ZTIFvRKN6dealii2hp17MappingCollectionILi3ELi3EEERKNS0_10DoFHandlerILi3ELi3EEERKNS0_11QCollectionILi3EEERNS_12SparseMatrixIdEERKNS_8FunctionILi3EEERNS_6VectorIdEEPSI_NS_13MatrixCreator13IteratorRangeIS6_EERNS_7Threads16DummyThreadMutexEE }, comdat, align 8
@_ZZN5boost9function0IvE9assign_toINS_3_bi6bind_tINS3_11unspecifiedENS_8functionIFvRKN6dealii2hp17MappingCollectionILi3ELi3EEERKNS8_10DoFHandlerILi3ELi3EEERKNS8_11QCollectionILi3EEERNS7_12SparseMatrixIdEERKNS7_8FunctionILi3EEERNS7_6VectorIdEEPSQ_NS7_13MatrixCreator13IteratorRangeISE_EERNS7_7Threads16DummyThreadMutexEEEENS3_5list9INS_17reference_wrapperISB_EENS15_ISF_EENS15_ISJ_EENS15_ISM_EENS15_ISQ_EENS15_IST_EENS3_5valueISV_EENS1C_ISY_EENS15_IS10_EEEEEEEEvT_E13stored_vtable = linkonce_odr dso_local global %"struct.boost::detail::function::basic_vtable0" { %"struct.boost::detail::function::vtable_base" { ptr @_ZN5boost6detail8function15functor_managerINS_3_bi6bind_tINS3_11unspecifiedENS_8functionIFvRKN6dealii2hp17MappingCollectionILi3ELi3EEERKNS8_10DoFHandlerILi3ELi3EEERKNS8_11QCollectionILi3EEERNS7_12SparseMatrixIdEERKNS7_8FunctionILi3EEERNS7_6VectorIdEEPSQ_NS7_13MatrixCreator13IteratorRangeISE_EERNS7_7Threads16DummyThreadMutexEEEENS3_5list9INS_17reference_wrapperISB_EENS15_ISF_EENS15_ISJ_EENS15_ISM_EENS15_ISQ_EENS15_IST_EENS3_5valueISV_EENS1C_ISY_EENS15_IS10_EEEEEEE6manageERKNS1_15function_bufferERS1J_NS1_30functor_manager_operation_typeE }, ptr @_ZN5boost6detail8function26void_function_obj_invoker0INS_3_bi6bind_tINS3_11unspecifiedENS_8functionIFvRKN6dealii2hp17MappingCollectionILi3ELi3EEERKNS8_10DoFHandlerILi3ELi3EEERKNS8_11QCollectionILi3EEERNS7_12SparseMatrixIdEERKNS7_8FunctionILi3EEERNS7_6VectorIdEEPSQ_NS7_13MatrixCreator13IteratorRangeISE_EERNS7_7Threads16DummyThreadMutexEEEENS3_5list9INS_17reference_wrapperISB_EENS15_ISF_EENS15_ISJ_EENS15_ISM_EENS15_ISQ_EENS15_IST_EENS3_5valueISV_EENS1C_ISY_EENS15_IS10_EEEEEEvE6invokeERNS1_15function_bufferE }, comdat, align 8
@_ZTSN5boost3_bi6bind_tINS0_11unspecifiedENS_8functionIFvRKN6dealii2hp17MappingCollectionILi3ELi3EEERKNS5_10DoFHandlerILi3ELi3EEERKNS5_11QCollectionILi3EEERNS4_12SparseMatrixIdEERKNS4_8FunctionILi3EEERNS4_6VectorIdEEPSN_NS4_13MatrixCreator13IteratorRangeISB_EERNS4_7Threads16DummyThreadMutexEEEENS0_5list9INS_17reference_wrapperIS8_EENS12_ISC_EENS12_ISG_EENS12_ISJ_EENS12_ISN_EENS12_ISQ_EENS0_5valueISS_EENS19_ISV_EENS12_ISX_EEEEEE = linkonce_odr dso_local constant [427 x i8] c"N5boost3_bi6bind_tINS0_11unspecifiedENS_8functionIFvRKN6dealii2hp17MappingCollectionILi3ELi3EEERKNS5_10DoFHandlerILi3ELi3EEERKNS5_11QCollectionILi3EEERNS4_12SparseMatrixIdEERKNS4_8FunctionILi3EEERNS4_6VectorIdEEPSN_NS4_13MatrixCreator13IteratorRangeISB_EERNS4_7Threads16DummyThreadMutexEEEENS0_5list9INS_17reference_wrapperIS8_EENS12_ISC_EENS12_ISG_EENS12_ISJ_EENS12_ISN_EENS12_ISQ_EENS0_5valueISS_EENS19_ISV_EENS12_ISX_EEEEEE\00", comdat, align 1
@_ZTIN5boost3_bi6bind_tINS0_11unspecifiedENS_8functionIFvRKN6dealii2hp17MappingCollectionILi3ELi3EEERKNS5_10DoFHandlerILi3ELi3EEERKNS5_11QCollectionILi3EEERNS4_12SparseMatrixIdEERKNS4_8FunctionILi3EEERNS4_6VectorIdEEPSN_NS4_13MatrixCreator13IteratorRangeISB_EERNS4_7Threads16DummyThreadMutexEEEENS0_5list9INS_17reference_wrapperIS8_EENS12_ISC_EENS12_ISG_EENS12_ISJ_EENS12_ISN_EENS12_ISQ_EENS0_5valueISS_EENS19_ISV_EENS12_ISX_EEEEEE = linkonce_odr dso_local constant { ptr, ptr } { ptr getelementptr inbounds (ptr, ptr @_ZTVN10__cxxabiv117__class_type_infoE, i64 2), ptr @_ZTSN5boost3_bi6bind_tINS0_11unspecifiedENS_8functionIFvRKN6dealii2hp17MappingCollectionILi3ELi3EEERKNS5_10DoFHandlerILi3ELi3EEERKNS5_11QCollectionILi3EEERNS4_12SparseMatrixIdEERKNS4_8FunctionILi3EEERNS4_6VectorIdEEPSN_NS4_13MatrixCreator13IteratorRangeISB_EERNS4_7Threads16DummyThreadMutexEEEENS0_5list9INS_17reference_wrapperIS8_EENS12_ISC_EENS12_ISG_EENS12_ISJ_EENS12_ISN_EENS12_ISQ_EENS0_5valueISS_EENS19_ISV_EENS12_ISX_EEEEEE }, comdat, align 8
@_ZZN5boost9function7IvRKN6dealii2hp17MappingCollectionILi3ELi3EEERKNS2_10DoFHandlerILi3ELi3EEERKNS2_11QCollectionILi3EEERNS1_12SparseMatrixIfEEPKNS1_8FunctionILi3EEENS1_13MatrixCreator13IteratorRangeIS8_EERNS1_7Threads16DummyThreadMutexEE9assign_toIPFvS6_SA_SE_SH_SL_SO_SR_EEEvT_E13stored_vtable = linkonce_odr dso_local global %"struct.boost::detail::function::basic_vtable7.179" { %"struct.boost::detail::function::vtable_base" { ptr @_ZN5boost6detail8function15functor_managerIPFvRKN6dealii2hp17MappingCollectionILi3ELi3EEERKNS4_10DoFHandlerILi3ELi3EEERKNS4_11QCollectionILi3EEERNS3_12SparseMatrixIfEEPKNS3_8FunctionILi3EEENS3_13MatrixCreator13IteratorRangeISA_EERNS3_7Threads16DummyThreadMutexEEE6manageERKNS1_15function_bufferERSX_NS1_30functor_manager_operation_typeE }, ptr @_ZN5boost6detail8function22void_function_invoker7IPFvRKN6dealii2hp17MappingCollectionILi3ELi3EEERKNS4_10DoFHandlerILi3ELi3EEERKNS4_11QCollectionILi3EEERNS3_12SparseMatrixIfEEPKNS3_8FunctionILi3EEENS3_13MatrixCreator13IteratorRangeISA_EERNS3_7Threads16DummyThreadMutexEEvS8_SC_SG_SJ_SN_SQ_ST_E6invokeERNS1_15function_bufferES8_SC_SG_SJ_SN_SQ_ST_ }, comdat, align 8
@_ZTSPFvRKN6dealii2hp17MappingCollectionILi3ELi3EEERKNS0_10DoFHandlerILi3ELi3EEERKNS0_11QCollectionILi3EEERNS_12SparseMatrixIfEEPKNS_8FunctionILi3EEENS_13MatrixCreator13IteratorRangeIS6_EERNS_7Threads16DummyThreadMutexEE = linkonce_odr dso_local constant [216 x i8] c"PFvRKN6dealii2hp17MappingCollectionILi3ELi3EEERKNS0_10DoFHandlerILi3ELi3EEERKNS0_11QCollectionILi3EEERNS_12SparseMatrixIfEEPKNS_8FunctionILi3EEENS_13MatrixCreator13IteratorRangeIS6_EERNS_7Threads16DummyThreadMutexEE\00", comdat, align 1
@_ZTSFvRKN6dealii2hp17MappingCollectionILi3ELi3EEERKNS0_10DoFHandlerILi3ELi3EEERKNS0_11QCollectionILi3EEERNS_12SparseMatrixIfEEPKNS_8FunctionILi3EEENS_13MatrixCreator13IteratorRangeIS6_EERNS_7Threads16DummyThreadMutexEE = linkonce_odr dso_local constant [215 x i8] c"FvRKN6dealii2hp17MappingCollectionILi3ELi3EEERKNS0_10DoFHandlerILi3ELi3EEERKNS0_11QCollectionILi3EEERNS_12SparseMatrixIfEEPKNS_8FunctionILi3EEENS_13MatrixCreator13IteratorRangeIS6_EERNS_7Threads16DummyThreadMutexEE\00", comdat, align 1
@_ZTIFvRKN6dealii2hp17MappingCollectionILi3ELi3EEERKNS0_10DoFHandlerILi3ELi3EEERKNS0_11QCollectionILi3EEERNS_12SparseMatrixIfEEPKNS_8FunctionILi3EEENS_13MatrixCreator13IteratorRangeIS6_EERNS_7Threads16DummyThreadMutexEE = linkonce_odr dso_local constant { ptr, ptr } { ptr getelementptr inbounds (ptr, ptr @_ZTVN10__cxxabiv120__function_type_infoE, i64 2), ptr @_ZTSFvRKN6dealii2hp17MappingCollectionILi3ELi3EEERKNS0_10DoFHandlerILi3ELi3EEERKNS0_11QCollectionILi3EEERNS_12SparseMatrixIfEEPKNS_8FunctionILi3EEENS_13MatrixCreator13IteratorRangeIS6_EERNS_7Threads16DummyThreadMutexEE }, comdat, align 8
@_ZTIPFvRKN6dealii2hp17MappingCollectionILi3ELi3EEERKNS0_10DoFHandlerILi3ELi3EEERKNS0_11QCollectionILi3EEERNS_12SparseMatrixIfEEPKNS_8FunctionILi3EEENS_13MatrixCreator13IteratorRangeIS6_EERNS_7Threads16DummyThreadMutexEE = linkonce_odr dso_local constant { ptr, ptr, i32, ptr } { ptr getelementptr inbounds (ptr, ptr @_ZTVN10__cxxabiv119__pointer_type_infoE, i64 2), ptr @_ZTSPFvRKN6dealii2hp17MappingCollectionILi3ELi3EEERKNS0_10DoFHandlerILi3ELi3EEERKNS0_11QCollectionILi3EEERNS_12SparseMatrixIfEEPKNS_8FunctionILi3EEENS_13MatrixCreator13IteratorRangeIS6_EERNS_7Threads16DummyThreadMutexEE, i32 0, ptr @_ZTIFvRKN6dealii2hp17MappingCollectionILi3ELi3EEERKNS0_10DoFHandlerILi3ELi3EEERKNS0_11QCollectionILi3EEERNS_12SparseMatrixIfEEPKNS_8FunctionILi3EEENS_13MatrixCreator13IteratorRangeIS6_EERNS_7Threads16DummyThreadMutexEE }, comdat, align 8
@_ZZN5boost9function0IvE9assign_toINS_3_bi6bind_tINS3_11unspecifiedENS_8functionIFvRKN6dealii2hp17MappingCollectionILi3ELi3EEERKNS8_10DoFHandlerILi3ELi3EEERKNS8_11QCollectionILi3EEERNS7_12SparseMatrixIfEEPKNS7_8FunctionILi3EEENS7_13MatrixCreator13IteratorRangeISE_EERNS7_7Threads16DummyThreadMutexEEEENS3_5list7INS_17reference_wrapperISB_EENS11_ISF_EENS11_ISJ_EENS11_ISM_EENS3_5valueISR_EENS16_ISU_EENS11_ISW_EEEEEEEEvT_E13stored_vtable = linkonce_odr dso_local global %"struct.boost::detail::function::basic_vtable0" { %"struct.boost::detail::function::vtable_base" { ptr @_ZN5boost6detail8function15functor_managerINS_3_bi6bind_tINS3_11unspecifiedENS_8functionIFvRKN6dealii2hp17MappingCollectionILi3ELi3EEERKNS8_10DoFHandlerILi3ELi3EEERKNS8_11QCollectionILi3EEERNS7_12SparseMatrixIfEEPKNS7_8FunctionILi3EEENS7_13MatrixCreator13IteratorRangeISE_EERNS7_7Threads16DummyThreadMutexEEEENS3_5list7INS_17reference_wrapperISB_EENS11_ISF_EENS11_ISJ_EENS11_ISM_EENS3_5valueISR_EENS16_ISU_EENS11_ISW_EEEEEEE6manageERKNS1_15function_bufferERS1D_NS1_30functor_manager_operation_typeE }, ptr @_ZN5boost6detail8function26void_function_obj_invoker0INS_3_bi6bind_tINS3_11unspecifiedENS_8functionIFvRKN6dealii2hp17MappingCollectionILi3ELi3EEERKNS8_10DoFHandlerILi3ELi3EEERKNS8_11QCollectionILi3EEERNS7_12SparseMatrixIfEEPKNS7_8FunctionILi3EEENS7_13MatrixCreator13IteratorRangeISE_EERNS7_7Threads16DummyThreadMutexEEEENS3_5list7INS_17reference_wrapperISB_EENS11_ISF_EENS11_ISJ_EENS11_ISM_EENS3_5valueISR_EENS16_ISU_EENS11_ISW_EEEEEEvE6invokeERNS1_15function_bufferE }, comdat, align 8
@_ZTSN5boost3_bi6bind_tINS0_11unspecifiedENS_8functionIFvRKN6dealii2hp17MappingCollectionILi3ELi3EEERKNS5_10DoFHandlerILi3ELi3EEERKNS5_11QCollectionILi3EEERNS4_12SparseMatrixIfEEPKNS4_8FunctionILi3EEENS4_13MatrixCreator13IteratorRangeISB_EERNS4_7Threads16DummyThreadMutexEEEENS0_5list7INS_17reference_wrapperIS8_EENSY_ISC_EENSY_ISG_EENSY_ISJ_EENS0_5valueISO_EENS13_ISR_EENSY_IST_EEEEEE = linkonce_odr dso_local constant [381 x i8] c"N5boost3_bi6bind_tINS0_11unspecifiedENS_8functionIFvRKN6dealii2hp17MappingCollectionILi3ELi3EEERKNS5_10DoFHandlerILi3ELi3EEERKNS5_11QCollectionILi3EEERNS4_12SparseMatrixIfEEPKNS4_8FunctionILi3EEENS4_13MatrixCreator13IteratorRangeISB_EERNS4_7Threads16DummyThreadMutexEEEENS0_5list7INS_17reference_wrapperIS8_EENSY_ISC_EENSY_ISG_EENSY_ISJ_EENS0_5valueISO_EENS13_ISR_EENSY_IST_EEEEEE\00", comdat, align 1
@_ZTIN5boost3_bi6bind_tINS0_11unspecifiedENS_8functionIFvRKN6dealii2hp17MappingCollectionILi3ELi3EEERKNS5_10DoFHandlerILi3ELi3EEERKNS5_11QCollectionILi3EEERNS4_12SparseMatrixIfEEPKNS4_8FunctionILi3EEENS4_13MatrixCreator13IteratorRangeISB_EERNS4_7Threads16DummyThreadMutexEEEENS0_5list7INS_17reference_wrapperIS8_EENSY_ISC_EENSY_ISG_EENSY_ISJ_EENS0_5valueISO_EENS13_ISR_EENSY_IST_EEEEEE = linkonce_odr dso_local constant { ptr, ptr } { ptr getelementptr inbounds (ptr, ptr @_ZTVN10__cxxabiv117__class_type_infoE, i64 2), ptr @_ZTSN5boost3_bi6bind_tINS0_11unspecifiedENS_8functionIFvRKN6dealii2hp17MappingCollectionILi3ELi3EEERKNS5_10DoFHandlerILi3ELi3EEERKNS5_11QCollectionILi3EEERNS4_12SparseMatrixIfEEPKNS4_8FunctionILi3EEENS4_13MatrixCreator13IteratorRangeISB_EERNS4_7Threads16DummyThreadMutexEEEENS0_5list7INS_17reference_wrapperIS8_EENSY_ISC_EENSY_ISG_EENSY_ISJ_EENS0_5valueISO_EENS13_ISR_EENSY_IST_EEEEEE }, comdat, align 8
@_ZZN5boost9function9IvRKN6dealii2hp17MappingCollectionILi3ELi3EEERKNS2_10DoFHandlerILi3ELi3EEERKNS2_11QCollectionILi3EEERNS1_12SparseMatrixIfEERKNS1_8FunctionILi3EEERNS1_6VectorIdEEPSK_NS1_13MatrixCreator13IteratorRangeIS8_EERNS1_7Threads16DummyThreadMutexEE9assign_toIPFvS6_SA_SE_SH_SL_SO_SP_SS_SV_EEEvT_E13stored_vtable = linkonce_odr dso_local global %"struct.boost::detail::function::basic_vtable9.180" { %"struct.boost::detail::function::vtable_base" { ptr @_ZN5boost6detail8function15functor_managerIPFvRKN6dealii2hp17MappingCollectionILi3ELi3EEERKNS4_10DoFHandlerILi3ELi3EEERKNS4_11QCollectionILi3EEERNS3_12SparseMatrixIfEERKNS3_8FunctionILi3EEERNS3_6VectorIdEEPSM_NS3_13MatrixCreator13IteratorRangeISA_EERNS3_7Threads16DummyThreadMutexEEE6manageERKNS1_15function_bufferERS11_NS1_30functor_manager_operation_typeE }, ptr @_ZN5boost6detail8function22void_function_invoker9IPFvRKN6dealii2hp17MappingCollectionILi3ELi3EEERKNS4_10DoFHandlerILi3ELi3EEERKNS4_11QCollectionILi3EEERNS3_12SparseMatrixIfEERKNS3_8FunctionILi3EEERNS3_6VectorIdEEPSM_NS3_13MatrixCreator13IteratorRangeISA_EERNS3_7Threads16DummyThreadMutexEEvS8_SC_SG_SJ_SN_SQ_SR_SU_SX_E6invokeERNS1_15function_bufferES8_SC_SG_SJ_SN_SQ_SR_SU_SX_ }, comdat, align 8
@_ZTSPFvRKN6dealii2hp17MappingCollectionILi3ELi3EEERKNS0_10DoFHandlerILi3ELi3EEERKNS0_11QCollectionILi3EEERNS_12SparseMatrixIfEERKNS_8FunctionILi3EEERNS_6VectorIdEEPSI_NS_13MatrixCreator13IteratorRangeIS6_EERNS_7Threads16DummyThreadMutexEE = linkonce_odr dso_local constant [235 x i8] c"PFvRKN6dealii2hp17MappingCollectionILi3ELi3EEERKNS0_10DoFHandlerILi3ELi3EEERKNS0_11QCollectionILi3EEERNS_12SparseMatrixIfEERKNS_8FunctionILi3EEERNS_6VectorIdEEPSI_NS_13MatrixCreator13IteratorRangeIS6_EERNS_7Threads16DummyThreadMutexEE\00", comdat, align 1
@_ZTSFvRKN6dealii2hp17MappingCollectionILi3ELi3EEERKNS0_10DoFHandlerILi3ELi3EEERKNS0_11QCollectionILi3EEERNS_12SparseMatrixIfEERKNS_8FunctionILi3EEERNS_6VectorIdEEPSI_NS_13MatrixCreator13IteratorRangeIS6_EERNS_7Threads16DummyThreadMutexEE = linkonce_odr dso_local constant [234 x i8] c"FvRKN6dealii2hp17MappingCollectionILi3ELi3EEERKNS0_10DoFHandlerILi3ELi3EEERKNS0_11QCollectionILi3EEERNS_12SparseMatrixIfEERKNS_8FunctionILi3EEERNS_6VectorIdEEPSI_NS_13MatrixCreator13IteratorRangeIS6_EERNS_7Threads16DummyThreadMutexEE\00", comdat, align 1
@_ZTIFvRKN6dealii2hp17MappingCollectionILi3ELi3EEERKNS0_10DoFHandlerILi3ELi3EEERKNS0_11QCollectionILi3EEERNS_12SparseMatrixIfEERKNS_8FunctionILi3EEERNS_6VectorIdEEPSI_NS_13MatrixCreator13IteratorRangeIS6_EERNS_7Threads16DummyThreadMutexEE = linkonce_odr dso_local constant { ptr, ptr } { ptr getelementptr inbounds (ptr, ptr @_ZTVN10__cxxabiv120__function_type_infoE, i64 2), ptr @_ZTSFvRKN6dealii2hp17MappingCollectionILi3ELi3EEERKNS0_10DoFHandlerILi3ELi3EEERKNS0_11QCollectionILi3EEERNS_12SparseMatrixIfEERKNS_8FunctionILi3EEERNS_6VectorIdEEPSI_NS_13MatrixCreator13IteratorRangeIS6_EERNS_7Threads16DummyThreadMutexEE }, comdat, align 8
@_ZTIPFvRKN6dealii2hp17MappingCollectionILi3ELi3EEERKNS0_10DoFHandlerILi3ELi3EEERKNS0_11QCollectionILi3EEERNS_12SparseMatrixIfEERKNS_8FunctionILi3EEERNS_6VectorIdEEPSI_NS_13MatrixCreator13IteratorRangeIS6_EERNS_7Threads16DummyThreadMutexEE = linkonce_odr dso_local constant { ptr, ptr, i32, ptr } { ptr getelementptr inbounds (ptr, ptr @_ZTVN10__cxxabiv119__pointer_type_infoE, i64 2), ptr @_ZTSPFvRKN6dealii2hp17MappingCollectionILi3ELi3EEERKNS0_10DoFHandlerILi3ELi3EEERKNS0_11QCollectionILi3EEERNS_12SparseMatrixIfEERKNS_8FunctionILi3EEERNS_6VectorIdEEPSI_NS_13MatrixCreator13IteratorRangeIS6_EERNS_7Threads16DummyThreadMutexEE, i32 0, ptr @_ZTIFvRKN6dealii2hp17MappingCollectionILi3ELi3EEERKNS0_10DoFHandlerILi3ELi3EEERKNS0_11QCollectionILi3EEERNS_12SparseMatrixIfEERKNS_8FunctionILi3EEERNS_6VectorIdEEPSI_NS_13MatrixCreator13IteratorRangeIS6_EERNS_7Threads16DummyThreadMutexEE }, comdat, align 8
@_ZZN5boost9function0IvE9assign_toINS_3_bi6bind_tINS3_11unspecifiedENS_8functionIFvRKN6dealii2hp17MappingCollectionILi3ELi3EEERKNS8_10DoFHandlerILi3ELi3EEERKNS8_11QCollectionILi3EEERNS7_12SparseMatrixIfEERKNS7_8FunctionILi3EEERNS7_6VectorIdEEPSQ_NS7_13MatrixCreator13IteratorRangeISE_EERNS7_7Threads16DummyThreadMutexEEEENS3_5list9INS_17reference_wrapperISB_EENS15_ISF_EENS15_ISJ_EENS15_ISM_EENS15_ISQ_EENS15_IST_EENS3_5valueISV_EENS1C_ISY_EENS15_IS10_EEEEEEEEvT_E13stored_vtable = linkonce_odr dso_local global %"struct.boost::detail::function::basic_vtable0" { %"struct.boost::detail::function::vtable_base" { ptr @_ZN5boost6detail8function15functor_managerINS_3_bi6bind_tINS3_11unspecifiedENS_8functionIFvRKN6dealii2hp17MappingCollectionILi3ELi3EEERKNS8_10DoFHandlerILi3ELi3EEERKNS8_11QCollectionILi3EEERNS7_12SparseMatrixIfEERKNS7_8FunctionILi3EEERNS7_6VectorIdEEPSQ_NS7_13MatrixCreator13IteratorRangeISE_EERNS7_7Threads16DummyThreadMutexEEEENS3_5list9INS_17reference_wrapperISB_EENS15_ISF_EENS15_ISJ_EENS15_ISM_EENS15_ISQ_EENS15_IST_EENS3_5valueISV_EENS1C_ISY_EENS15_IS10_EEEEEEE6manageERKNS1_15function_bufferERS1J_NS1_30functor_manager_operation_typeE }, ptr @_ZN5boost6detail8function26void_function_obj_invoker0INS_3_bi6bind_tINS3_11unspecifiedENS_8functionIFvRKN6dealii2hp17MappingCollectionILi3ELi3EEERKNS8_10DoFHandlerILi3ELi3EEERKNS8_11QCollectionILi3EEERNS7_12SparseMatrixIfEERKNS7_8FunctionILi3EEERNS7_6VectorIdEEPSQ_NS7_13MatrixCreator13IteratorRangeISE_EERNS7_7Threads16DummyThreadMutexEEEENS3_5list9INS_17reference_wrapperISB_EENS15_ISF_EENS15_ISJ_EENS15_ISM_EENS15_ISQ_EENS15_IST_EENS3_5valueISV_EENS1C_ISY_EENS15_IS10_EEEEEEvE6invokeERNS1_15function_bufferE }, comdat, align 8
@_ZTSN5boost3_bi6bind_tINS0_11unspecifiedENS_8functionIFvRKN6dealii2hp17MappingCollectionILi3ELi3EEERKNS5_10DoFHandlerILi3ELi3EEERKNS5_11QCollectionILi3EEERNS4_12SparseMatrixIfEERKNS4_8FunctionILi3EEERNS4_6VectorIdEEPSN_NS4_13MatrixCreator13IteratorRangeISB_EERNS4_7Threads16DummyThreadMutexEEEENS0_5list9INS_17reference_wrapperIS8_EENS12_ISC_EENS12_ISG_EENS12_ISJ_EENS12_ISN_EENS12_ISQ_EENS0_5valueISS_EENS19_ISV_EENS12_ISX_EEEEEE = linkonce_odr dso_local constant [427 x i8] c"N5boost3_bi6bind_tINS0_11unspecifiedENS_8functionIFvRKN6dealii2hp17MappingCollectionILi3ELi3EEERKNS5_10DoFHandlerILi3ELi3EEERKNS5_11QCollectionILi3EEERNS4_12SparseMatrixIfEERKNS4_8FunctionILi3EEERNS4_6VectorIdEEPSN_NS4_13MatrixCreator13IteratorRangeISB_EERNS4_7Threads16DummyThreadMutexEEEENS0_5list9INS_17reference_wrapperIS8_EENS12_ISC_EENS12_ISG_EENS12_ISJ_EENS12_ISN_EENS12_ISQ_EENS0_5valueISS_EENS19_ISV_EENS12_ISX_EEEEEE\00", comdat, align 1
@_ZTIN5boost3_bi6bind_tINS0_11unspecifiedENS_8functionIFvRKN6dealii2hp17MappingCollectionILi3ELi3EEERKNS5_10DoFHandlerILi3ELi3EEERKNS5_11QCollectionILi3EEERNS4_12SparseMatrixIfEERKNS4_8FunctionILi3EEERNS4_6VectorIdEEPSN_NS4_13MatrixCreator13IteratorRangeISB_EERNS4_7Threads16DummyThreadMutexEEEENS0_5list9INS_17reference_wrapperIS8_EENS12_ISC_EENS12_ISG_EENS12_ISJ_EENS12_ISN_EENS12_ISQ_EENS0_5valueISS_EENS19_ISV_EENS12_ISX_EEEEEE = linkonce_odr dso_local constant { ptr, ptr } { ptr getelementptr inbounds (ptr, ptr @_ZTVN10__cxxabiv117__class_type_infoE, i64 2), ptr @_ZTSN5boost3_bi6bind_tINS0_11unspecifiedENS_8functionIFvRKN6dealii2hp17MappingCollectionILi3ELi3EEERKNS5_10DoFHandlerILi3ELi3EEERKNS5_11QCollectionILi3EEERNS4_12SparseMatrixIfEERKNS4_8FunctionILi3EEERNS4_6VectorIdEEPSN_NS4_13MatrixCreator13IteratorRangeISB_EERNS4_7Threads16DummyThreadMutexEEEENS0_5list9INS_17reference_wrapperIS8_EENS12_ISC_EENS12_ISG_EENS12_ISJ_EENS12_ISN_EENS12_ISQ_EENS0_5valueISS_EENS19_ISV_EENS12_ISX_EEEEEE }, comdat, align 8
@_ZTVN6dealii16FEFaceValuesBaseILi3ELi3EEE = linkonce_odr dso_local unnamed_addr constant { [4 x ptr] } { [4 x ptr] [ptr null, ptr @_ZTIN6dealii16FEFaceValuesBaseILi3ELi3EEE, ptr @_ZN6dealii16FEFaceValuesBaseILi3ELi3EED2Ev, ptr @_ZN6dealii16FEFaceValuesBaseILi3ELi3EED0Ev] }, comdat, align 8
@_ZTSN6dealii16FEFaceValuesBaseILi3ELi3EEE = linkonce_odr dso_local constant [38 x i8] c"N6dealii16FEFaceValuesBaseILi3ELi3EEE\00", comdat, align 1
@_ZTIN6dealii16FEFaceValuesBaseILi3ELi3EEE = linkonce_odr dso_local constant { ptr, ptr, ptr } { ptr getelementptr inbounds (ptr, ptr @_ZTVN10__cxxabiv120__si_class_type_infoE, i64 2), ptr @_ZTSN6dealii16FEFaceValuesBaseILi3ELi3EEE, ptr @_ZTIN6dealii12FEValuesBaseILi3ELi3EEE }, comdat, align 8
@_ZZN5boost9function9IvNS_6tuples5tupleIRKN6dealii7MappingILi3ELi3EEERKNS3_10DoFHandlerILi3ELi3EEERKNS3_10QuadratureILi2EEENS1_9null_typeESG_SG_SG_SG_SG_SG_EERNS3_12SparseMatrixIdEERKSt3mapIhPKNS3_8FunctionILi3EEESt4lessIhESaISt4pairIKhSP_EEERNS3_6VectorIdEERSt6vectorIjSaIjEESP_RKS14_NS3_13MatrixCreator13IteratorRangeIS9_EERNS3_7Threads16DummyThreadMutexEE9assign_toIPFvSH_SK_SY_S11_S15_SP_S17_S1A_S1D_EEEvT_E13stored_vtable = linkonce_odr dso_local global %"struct.boost::detail::function::basic_vtable9.181" { %"struct.boost::detail::function::vtable_base" { ptr @_ZN5boost6detail8function15functor_managerIPFvNS_6tuples5tupleIRKN6dealii7MappingILi3ELi3EEERKNS5_10DoFHandlerILi3ELi3EEERKNS5_10QuadratureILi2EEENS3_9null_typeESI_SI_SI_SI_SI_SI_EERNS5_12SparseMatrixIdEERKSt3mapIhPKNS5_8FunctionILi3EEESt4lessIhESaISt4pairIKhSR_EEERNS5_6VectorIdEERSt6vectorIjSaIjEESR_RKS16_NS5_13MatrixCreator13IteratorRangeISB_EERNS5_7Threads16DummyThreadMutexEEE6manageERKNS1_15function_bufferERS1J_NS1_30functor_manager_operation_typeE }, ptr @_ZN5boost6detail8function22void_function_invoker9IPFvNS_6tuples5tupleIRKN6dealii7MappingILi3ELi3EEERKNS5_10DoFHandlerILi3ELi3EEERKNS5_10QuadratureILi2EEENS3_9null_typeESI_SI_SI_SI_SI_SI_EERNS5_12SparseMatrixIdEERKSt3mapIhPKNS5_8FunctionILi3EEESt4lessIhESaISt4pairIKhSR_EEERNS5_6VectorIdEERSt6vectorIjSaIjEESR_RKS16_NS5_13MatrixCreator13IteratorRangeISB_EERNS5_7Threads16DummyThreadMutexEEvSJ_SM_S10_S13_S17_SR_S19_S1C_S1F_E6invokeERNS1_15function_bufferESJ_SM_S10_S13_S17_SR_S19_S1C_S1F_ }, comdat, align 8
@_ZTSPFvN5boost6tuples5tupleIRKN6dealii7MappingILi3ELi3EEERKNS2_10DoFHandlerILi3ELi3EEERKNS2_10QuadratureILi2EEENS0_9null_typeESF_SF_SF_SF_SF_SF_EERNS2_12SparseMatrixIdEERKSt3mapIhPKNS2_8FunctionILi3EEESt4lessIhESaISt4pairIKhSO_EEERNS2_6VectorIdEERSt6vectorIjSaIjEESO_RKS13_NS2_13MatrixCreator13IteratorRangeIS8_EERNS2_7Threads16DummyThreadMutexEE = linkonce_odr dso_local constant [343 x i8] c"PFvN5boost6tuples5tupleIRKN6dealii7MappingILi3ELi3EEERKNS2_10DoFHandlerILi3ELi3EEERKNS2_10QuadratureILi2EEENS0_9null_typeESF_SF_SF_SF_SF_SF_EERNS2_12SparseMatrixIdEERKSt3mapIhPKNS2_8FunctionILi3EEESt4lessIhESaISt4pairIKhSO_EEERNS2_6VectorIdEERSt6vectorIjSaIjEESO_RKS13_NS2_13MatrixCreator13IteratorRangeIS8_EERNS2_7Threads16DummyThreadMutexEE\00", comdat, align 1
@_ZTSFvN5boost6tuples5tupleIRKN6dealii7MappingILi3ELi3EEERKNS2_10DoFHandlerILi3ELi3EEERKNS2_10QuadratureILi2EEENS0_9null_typeESF_SF_SF_SF_SF_SF_EERNS2_12SparseMatrixIdEERKSt3mapIhPKNS2_8FunctionILi3EEESt4lessIhESaISt4pairIKhSO_EEERNS2_6VectorIdEERSt6vectorIjSaIjEESO_RKS13_NS2_13MatrixCreator13IteratorRangeIS8_EERNS2_7Threads16DummyThreadMutexEE = linkonce_odr dso_local constant [342 x i8] c"FvN5boost6tuples5tupleIRKN6dealii7MappingILi3ELi3EEERKNS2_10DoFHandlerILi3ELi3EEERKNS2_10QuadratureILi2EEENS0_9null_typeESF_SF_SF_SF_SF_SF_EERNS2_12SparseMatrixIdEERKSt3mapIhPKNS2_8FunctionILi3EEESt4lessIhESaISt4pairIKhSO_EEERNS2_6VectorIdEERSt6vectorIjSaIjEESO_RKS13_NS2_13MatrixCreator13IteratorRangeIS8_EERNS2_7Threads16DummyThreadMutexEE\00", comdat, align 1
@_ZTIFvN5boost6tuples5tupleIRKN6dealii7MappingILi3ELi3EEERKNS2_10DoFHandlerILi3ELi3EEERKNS2_10QuadratureILi2EEENS0_9null_typeESF_SF_SF_SF_SF_SF_EERNS2_12SparseMatrixIdEERKSt3mapIhPKNS2_8FunctionILi3EEESt4lessIhESaISt4pairIKhSO_EEERNS2_6VectorIdEERSt6vectorIjSaIjEESO_RKS13_NS2_13MatrixCreator13IteratorRangeIS8_EERNS2_7Threads16DummyThreadMutexEE = linkonce_odr dso_local constant { ptr, ptr } { ptr getelementptr inbounds (ptr, ptr @_ZTVN10__cxxabiv120__function_type_infoE, i64 2), ptr @_ZTSFvN5boost6tuples5tupleIRKN6dealii7MappingILi3ELi3EEERKNS2_10DoFHandlerILi3ELi3EEERKNS2_10QuadratureILi2EEENS0_9null_typeESF_SF_SF_SF_SF_SF_EERNS2_12SparseMatrixIdEERKSt3mapIhPKNS2_8FunctionILi3EEESt4lessIhESaISt4pairIKhSO_EEERNS2_6VectorIdEERSt6vectorIjSaIjEESO_RKS13_NS2_13MatrixCreator13IteratorRangeIS8_EERNS2_7Threads16DummyThreadMutexEE }, comdat, align 8
@_ZTIPFvN5boost6tuples5tupleIRKN6dealii7MappingILi3ELi3EEERKNS2_10DoFHandlerILi3ELi3EEERKNS2_10QuadratureILi2EEENS0_9null_typeESF_SF_SF_SF_SF_SF_EERNS2_12SparseMatrixIdEERKSt3mapIhPKNS2_8FunctionILi3EEESt4lessIhESaISt4pairIKhSO_EEERNS2_6VectorIdEERSt6vectorIjSaIjEESO_RKS13_NS2_13MatrixCreator13IteratorRangeIS8_EERNS2_7Threads16DummyThreadMutexEE = linkonce_odr dso_local constant { ptr, ptr, i32, ptr } { ptr getelementptr inbounds (ptr, ptr @_ZTVN10__cxxabiv119__pointer_type_infoE, i64 2), ptr @_ZTSPFvN5boost6tuples5tupleIRKN6dealii7MappingILi3ELi3EEERKNS2_10DoFHandlerILi3ELi3EEERKNS2_10QuadratureILi2EEENS0_9null_typeESF_SF_SF_SF_SF_SF_EERNS2_12SparseMatrixIdEERKSt3mapIhPKNS2_8FunctionILi3EEESt4lessIhESaISt4pairIKhSO_EEERNS2_6VectorIdEERSt6vectorIjSaIjEESO_RKS13_NS2_13MatrixCreator13IteratorRangeIS8_EERNS2_7Threads16DummyThreadMutexEE, i32 0, ptr @_ZTIFvN5boost6tuples5tupleIRKN6dealii7MappingILi3ELi3EEERKNS2_10DoFHandlerILi3ELi3EEERKNS2_10QuadratureILi2EEENS0_9null_typeESF_SF_SF_SF_SF_SF_EERNS2_12SparseMatrixIdEERKSt3mapIhPKNS2_8FunctionILi3EEESt4lessIhESaISt4pairIKhSO_EEERNS2_6VectorIdEERSt6vectorIjSaIjEESO_RKS13_NS2_13MatrixCreator13IteratorRangeIS8_EERNS2_7Threads16DummyThreadMutexEE }, comdat, align 8
@_ZZN5boost9function0IvE9assign_toINS_3_bi6bind_tINS3_11unspecifiedENS_8functionIFvNS_6tuples5tupleIRKN6dealii7MappingILi3ELi3EEERKNS9_10DoFHandlerILi3ELi3EEERKNS9_10QuadratureILi2EEENS7_9null_typeESM_SM_SM_SM_SM_SM_EERNS9_12SparseMatrixIdEERKSt3mapIhPKNS9_8FunctionILi3EEESt4lessIhESaISt4pairIKhSV_EEERNS9_6VectorIdEERSt6vectorIjSaIjEESV_RKS1A_NS9_13MatrixCreator13IteratorRangeISF_EERNS9_7Threads16DummyThreadMutexEEEENS3_5list9INS3_5valueISN_EENS_17reference_wrapperISP_EENS1P_IS13_EENS1P_IS16_EENS1P_IS1A_EENS1N_ISV_EENS1P_IS1C_EENS1N_IS1G_EENS1P_IS1I_EEEEEEEEvT_E13stored_vtable = linkonce_odr dso_local global %"struct.boost::detail::function::basic_vtable0" { %"struct.boost::detail::function::vtable_base" { ptr @_ZN5boost6detail8function15functor_managerINS_3_bi6bind_tINS3_11unspecifiedENS_8functionIFvNS_6tuples5tupleIRKN6dealii7MappingILi3ELi3EEERKNS9_10DoFHandlerILi3ELi3EEERKNS9_10QuadratureILi2EEENS7_9null_typeESM_SM_SM_SM_SM_SM_EERNS9_12SparseMatrixIdEERKSt3mapIhPKNS9_8FunctionILi3EEESt4lessIhESaISt4pairIKhSV_EEERNS9_6VectorIdEERSt6vectorIjSaIjEESV_RKS1A_NS9_13MatrixCreator13IteratorRangeISF_EERNS9_7Threads16DummyThreadMutexEEEENS3_5list9INS3_5valueISN_EENS_17reference_wrapperISP_EENS1P_IS13_EENS1P_IS16_EENS1P_IS1A_EENS1N_ISV_EENS1P_IS1C_EENS1N_IS1G_EENS1P_IS1I_EEEEEEE6manageERKNS1_15function_bufferERS21_NS1_30functor_manager_operation_typeE }, ptr @_ZN5boost6detail8function26void_function_obj_invoker0INS_3_bi6bind_tINS3_11unspecifiedENS_8functionIFvNS_6tuples5tupleIRKN6dealii7MappingILi3ELi3EEERKNS9_10DoFHandlerILi3ELi3EEERKNS9_10QuadratureILi2EEENS7_9null_typeESM_SM_SM_SM_SM_SM_EERNS9_12SparseMatrixIdEERKSt3mapIhPKNS9_8FunctionILi3EEESt4lessIhESaISt4pairIKhSV_EEERNS9_6VectorIdEERSt6vectorIjSaIjEESV_RKS1A_NS9_13MatrixCreator13IteratorRangeISF_EERNS9_7Threads16DummyThreadMutexEEEENS3_5list9INS3_5valueISN_EENS_17reference_wrapperISP_EENS1P_IS13_EENS1P_IS16_EENS1P_IS1A_EENS1N_ISV_EENS1P_IS1C_EENS1N_IS1G_EENS1P_IS1I_EEEEEEvE6invokeERNS1_15function_bufferE }, comdat, align 8
@_ZTSN5boost3_bi6bind_tINS0_11unspecifiedENS_8functionIFvNS_6tuples5tupleIRKN6dealii7MappingILi3ELi3EEERKNS6_10DoFHandlerILi3ELi3EEERKNS6_10QuadratureILi2EEENS4_9null_typeESJ_SJ_SJ_SJ_SJ_SJ_EERNS6_12SparseMatrixIdEERKSt3mapIhPKNS6_8FunctionILi3EEESt4lessIhESaISt4pairIKhSS_EEERNS6_6VectorIdEERSt6vectorIjSaIjEESS_RKS17_NS6_13MatrixCreator13IteratorRangeISC_EERNS6_7Threads16DummyThreadMutexEEEENS0_5list9INS0_5valueISK_EENS_17reference_wrapperISM_EENS1M_IS10_EENS1M_IS13_EENS1M_IS17_EENS1K_ISS_EENS1M_IS19_EENS1K_IS1D_EENS1M_IS1F_EEEEEE = linkonce_odr dso_local constant [532 x i8] c"N5boost3_bi6bind_tINS0_11unspecifiedENS_8functionIFvNS_6tuples5tupleIRKN6dealii7MappingILi3ELi3EEERKNS6_10DoFHandlerILi3ELi3EEERKNS6_10QuadratureILi2EEENS4_9null_typeESJ_SJ_SJ_SJ_SJ_SJ_EERNS6_12SparseMatrixIdEERKSt3mapIhPKNS6_8FunctionILi3EEESt4lessIhESaISt4pairIKhSS_EEERNS6_6VectorIdEERSt6vectorIjSaIjEESS_RKS17_NS6_13MatrixCreator13IteratorRangeISC_EERNS6_7Threads16DummyThreadMutexEEEENS0_5list9INS0_5valueISK_EENS_17reference_wrapperISM_EENS1M_IS10_EENS1M_IS13_EENS1M_IS17_EENS1K_ISS_EENS1M_IS19_EENS1K_IS1D_EENS1M_IS1F_EEEEEE\00", comdat, align 1
@_ZTIN5boost3_bi6bind_tINS0_11unspecifiedENS_8functionIFvNS_6tuples5tupleIRKN6dealii7MappingILi3ELi3EEERKNS6_10DoFHandlerILi3ELi3EEERKNS6_10QuadratureILi2EEENS4_9null_typeESJ_SJ_SJ_SJ_SJ_SJ_EERNS6_12SparseMatrixIdEERKSt3mapIhPKNS6_8FunctionILi3EEESt4lessIhESaISt4pairIKhSS_EEERNS6_6VectorIdEERSt6vectorIjSaIjEESS_RKS17_NS6_13MatrixCreator13IteratorRangeISC_EERNS6_7Threads16DummyThreadMutexEEEENS0_5list9INS0_5valueISK_EENS_17reference_wrapperISM_EENS1M_IS10_EENS1M_IS13_EENS1M_IS17_EENS1K_ISS_EENS1M_IS19_EENS1K_IS1D_EENS1M_IS1F_EEEEEE = linkonce_odr dso_local constant { ptr, ptr } { ptr getelementptr inbounds (ptr, ptr @_ZTVN10__cxxabiv117__class_type_infoE, i64 2), ptr @_ZTSN5boost3_bi6bind_tINS0_11unspecifiedENS_8functionIFvNS_6tuples5tupleIRKN6dealii7MappingILi3ELi3EEERKNS6_10DoFHandlerILi3ELi3EEERKNS6_10QuadratureILi2EEENS4_9null_typeESJ_SJ_SJ_SJ_SJ_SJ_EERNS6_12SparseMatrixIdEERKSt3mapIhPKNS6_8FunctionILi3EEESt4lessIhESaISt4pairIKhSS_EEERNS6_6VectorIdEERSt6vectorIjSaIjEESS_RKS17_NS6_13MatrixCreator13IteratorRangeISC_EERNS6_7Threads16DummyThreadMutexEEEENS0_5list9INS0_5valueISK_EENS_17reference_wrapperISM_EENS1M_IS10_EENS1M_IS13_EENS1M_IS17_EENS1K_ISS_EENS1M_IS19_EENS1K_IS1D_EENS1M_IS1F_EEEEEE }, comdat, align 8
@.str.17 = private unnamed_addr constant [29 x i8] c"vector<bool>::_M_fill_insert\00", align 1
@_ZTVN6dealii9TableBaseILi3EN5boost10shared_ptrINS_12FEFaceValuesILi3ELi3EEEEEEE = linkonce_odr dso_local unnamed_addr constant { [4 x ptr] } { [4 x ptr] [ptr null, ptr @_ZTIN6dealii9TableBaseILi3EN5boost10shared_ptrINS_12FEFaceValuesILi3ELi3EEEEEEE, ptr @_ZN6dealii9TableBaseILi3EN5boost10shared_ptrINS_12FEFaceValuesILi3ELi3EEEEEED2Ev, ptr @_ZN6dealii9TableBaseILi3EN5boost10shared_ptrINS_12FEFaceValuesILi3ELi3EEEEEED0Ev] }, comdat, align 8
@_ZTSN6dealii9TableBaseILi3EN5boost10shared_ptrINS_12FEFaceValuesILi3ELi3EEEEEEE = linkonce_odr dso_local constant [76 x i8] c"N6dealii9TableBaseILi3EN5boost10shared_ptrINS_12FEFaceValuesILi3ELi3EEEEEEE\00", comdat, align 1
@_ZTIN6dealii9TableBaseILi3EN5boost10shared_ptrINS_12FEFaceValuesILi3ELi3EEEEEEE = linkonce_odr dso_local constant { ptr, ptr, ptr } { ptr getelementptr inbounds (ptr, ptr @_ZTVN10__cxxabiv120__si_class_type_infoE, i64 2), ptr @_ZTSN6dealii9TableBaseILi3EN5boost10shared_ptrINS_12FEFaceValuesILi3ELi3EEEEEEE, ptr @_ZTIN6dealii11SubscriptorE }, comdat, align 8
@_ZTVN6dealii2hp11QCollectionILi2EEE = linkonce_odr dso_local unnamed_addr constant { [4 x ptr] } { [4 x ptr] [ptr null, ptr @_ZTIN6dealii2hp11QCollectionILi2EEE, ptr @_ZN6dealii2hp11QCollectionILi2EED2Ev, ptr @_ZN6dealii2hp11QCollectionILi2EED0Ev] }, comdat, align 8
@_ZTSN6dealii2hp11QCollectionILi2EEE = linkonce_odr dso_local constant [32 x i8] c"N6dealii2hp11QCollectionILi2EEE\00", comdat, align 1
@_ZTIN6dealii2hp11QCollectionILi2EEE = linkonce_odr dso_local constant { ptr, ptr, ptr } { ptr getelementptr inbounds (ptr, ptr @_ZTVN10__cxxabiv120__si_class_type_infoE, i64 2), ptr @_ZTSN6dealii2hp11QCollectionILi2EEE, ptr @_ZTIN6dealii11SubscriptorE }, comdat, align 8
@_ZZN5boost9function9IvNS_6tuples5tupleIRKN6dealii2hp17MappingCollectionILi3ELi3EEERKNS4_10DoFHandlerILi3ELi3EEERKNS4_11QCollectionILi2EEENS1_9null_typeESH_SH_SH_SH_SH_SH_EERNS3_12SparseMatrixIdEERKSt3mapIhPKNS3_8FunctionILi3EEESt4lessIhESaISt4pairIKhSQ_EEERNS3_6VectorIdEERSt6vectorIjSaIjEESQ_RKS15_NS3_13MatrixCreator13IteratorRangeISA_EERNS3_7Threads16DummyThreadMutexEE9assign_toIPFvSI_SL_SZ_S12_S16_SQ_S18_S1B_S1E_EEEvT_E13stored_vtable = linkonce_odr dso_local global %"struct.boost::detail::function::basic_vtable9.182" { %"struct.boost::detail::function::vtable_base" { ptr @_ZN5boost6detail8function15functor_managerIPFvNS_6tuples5tupleIRKN6dealii2hp17MappingCollectionILi3ELi3EEERKNS6_10DoFHandlerILi3ELi3EEERKNS6_11QCollectionILi2EEENS3_9null_typeESJ_SJ_SJ_SJ_SJ_SJ_EERNS5_12SparseMatrixIdEERKSt3mapIhPKNS5_8FunctionILi3EEESt4lessIhESaISt4pairIKhSS_EEERNS5_6VectorIdEERSt6vectorIjSaIjEESS_RKS17_NS5_13MatrixCreator13IteratorRangeISC_EERNS5_7Threads16DummyThreadMutexEEE6manageERKNS1_15function_bufferERS1K_NS1_30functor_manager_operation_typeE }, ptr @_ZN5boost6detail8function22void_function_invoker9IPFvNS_6tuples5tupleIRKN6dealii2hp17MappingCollectionILi3ELi3EEERKNS6_10DoFHandlerILi3ELi3EEERKNS6_11QCollectionILi2EEENS3_9null_typeESJ_SJ_SJ_SJ_SJ_SJ_EERNS5_12SparseMatrixIdEERKSt3mapIhPKNS5_8FunctionILi3EEESt4lessIhESaISt4pairIKhSS_EEERNS5_6VectorIdEERSt6vectorIjSaIjEESS_RKS17_NS5_13MatrixCreator13IteratorRangeISC_EERNS5_7Threads16DummyThreadMutexEEvSK_SN_S11_S14_S18_SS_S1A_S1D_S1G_E6invokeERNS1_15function_bufferESK_SN_S11_S14_S18_SS_S1A_S1D_S1G_ }, comdat, align 8
@_ZTSPFvN5boost6tuples5tupleIRKN6dealii2hp17MappingCollectionILi3ELi3EEERKNS3_10DoFHandlerILi3ELi3EEERKNS3_11QCollectionILi2EEENS0_9null_typeESG_SG_SG_SG_SG_SG_EERNS2_12SparseMatrixIdEERKSt3mapIhPKNS2_8FunctionILi3EEESt4lessIhESaISt4pairIKhSP_EEERNS2_6VectorIdEERSt6vectorIjSaIjEESP_RKS14_NS2_13MatrixCreator13IteratorRangeIS9_EERNS2_7Threads16DummyThreadMutexEE = linkonce_odr dso_local constant [358 x i8] c"PFvN5boost6tuples5tupleIRKN6dealii2hp17MappingCollectionILi3ELi3EEERKNS3_10DoFHandlerILi3ELi3EEERKNS3_11QCollectionILi2EEENS0_9null_typeESG_SG_SG_SG_SG_SG_EERNS2_12SparseMatrixIdEERKSt3mapIhPKNS2_8FunctionILi3EEESt4lessIhESaISt4pairIKhSP_EEERNS2_6VectorIdEERSt6vectorIjSaIjEESP_RKS14_NS2_13MatrixCreator13IteratorRangeIS9_EERNS2_7Threads16DummyThreadMutexEE\00", comdat, align 1
@_ZTSFvN5boost6tuples5tupleIRKN6dealii2hp17MappingCollectionILi3ELi3EEERKNS3_10DoFHandlerILi3ELi3EEERKNS3_11QCollectionILi2EEENS0_9null_typeESG_SG_SG_SG_SG_SG_EERNS2_12SparseMatrixIdEERKSt3mapIhPKNS2_8FunctionILi3EEESt4lessIhESaISt4pairIKhSP_EEERNS2_6VectorIdEERSt6vectorIjSaIjEESP_RKS14_NS2_13MatrixCreator13IteratorRangeIS9_EERNS2_7Threads16DummyThreadMutexEE = linkonce_odr dso_local constant [357 x i8] c"FvN5boost6tuples5tupleIRKN6dealii2hp17MappingCollectionILi3ELi3EEERKNS3_10DoFHandlerILi3ELi3EEERKNS3_11QCollectionILi2EEENS0_9null_typeESG_SG_SG_SG_SG_SG_EERNS2_12SparseMatrixIdEERKSt3mapIhPKNS2_8FunctionILi3EEESt4lessIhESaISt4pairIKhSP_EEERNS2_6VectorIdEERSt6vectorIjSaIjEESP_RKS14_NS2_13MatrixCreator13IteratorRangeIS9_EERNS2_7Threads16DummyThreadMutexEE\00", comdat, align 1
@_ZTIFvN5boost6tuples5tupleIRKN6dealii2hp17MappingCollectionILi3ELi3EEERKNS3_10DoFHandlerILi3ELi3EEERKNS3_11QCollectionILi2EEENS0_9null_typeESG_SG_SG_SG_SG_SG_EERNS2_12SparseMatrixIdEERKSt3mapIhPKNS2_8FunctionILi3EEESt4lessIhESaISt4pairIKhSP_EEERNS2_6VectorIdEERSt6vectorIjSaIjEESP_RKS14_NS2_13MatrixCreator13IteratorRangeIS9_EERNS2_7Threads16DummyThreadMutexEE = linkonce_odr dso_local constant { ptr, ptr } { ptr getelementptr inbounds (ptr, ptr @_ZTVN10__cxxabiv120__function_type_infoE, i64 2), ptr @_ZTSFvN5boost6tuples5tupleIRKN6dealii2hp17MappingCollectionILi3ELi3EEERKNS3_10DoFHandlerILi3ELi3EEERKNS3_11QCollectionILi2EEENS0_9null_typeESG_SG_SG_SG_SG_SG_EERNS2_12SparseMatrixIdEERKSt3mapIhPKNS2_8FunctionILi3EEESt4lessIhESaISt4pairIKhSP_EEERNS2_6VectorIdEERSt6vectorIjSaIjEESP_RKS14_NS2_13MatrixCreator13IteratorRangeIS9_EERNS2_7Threads16DummyThreadMutexEE }, comdat, align 8
@_ZTIPFvN5boost6tuples5tupleIRKN6dealii2hp17MappingCollectionILi3ELi3EEERKNS3_10DoFHandlerILi3ELi3EEERKNS3_11QCollectionILi2EEENS0_9null_typeESG_SG_SG_SG_SG_SG_EERNS2_12SparseMatrixIdEERKSt3mapIhPKNS2_8FunctionILi3EEESt4lessIhESaISt4pairIKhSP_EEERNS2_6VectorIdEERSt6vectorIjSaIjEESP_RKS14_NS2_13MatrixCreator13IteratorRangeIS9_EERNS2_7Threads16DummyThreadMutexEE = linkonce_odr dso_local constant { ptr, ptr, i32, ptr } { ptr getelementptr inbounds (ptr, ptr @_ZTVN10__cxxabiv119__pointer_type_infoE, i64 2), ptr @_ZTSPFvN5boost6tuples5tupleIRKN6dealii2hp17MappingCollectionILi3ELi3EEERKNS3_10DoFHandlerILi3ELi3EEERKNS3_11QCollectionILi2EEENS0_9null_typeESG_SG_SG_SG_SG_SG_EERNS2_12SparseMatrixIdEERKSt3mapIhPKNS2_8FunctionILi3EEESt4lessIhESaISt4pairIKhSP_EEERNS2_6VectorIdEERSt6vectorIjSaIjEESP_RKS14_NS2_13MatrixCreator13IteratorRangeIS9_EERNS2_7Threads16DummyThreadMutexEE, i32 0, ptr @_ZTIFvN5boost6tuples5tupleIRKN6dealii2hp17MappingCollectionILi3ELi3EEERKNS3_10DoFHandlerILi3ELi3EEERKNS3_11QCollectionILi2EEENS0_9null_typeESG_SG_SG_SG_SG_SG_EERNS2_12SparseMatrixIdEERKSt3mapIhPKNS2_8FunctionILi3EEESt4lessIhESaISt4pairIKhSP_EEERNS2_6VectorIdEERSt6vectorIjSaIjEESP_RKS14_NS2_13MatrixCreator13IteratorRangeIS9_EERNS2_7Threads16DummyThreadMutexEE }, comdat, align 8
@_ZZN5boost9function0IvE9assign_toINS_3_bi6bind_tINS3_11unspecifiedENS_8functionIFvNS_6tuples5tupleIRKN6dealii2hp17MappingCollectionILi3ELi3EEERKNSA_10DoFHandlerILi3ELi3EEERKNSA_11QCollectionILi2EEENS7_9null_typeESN_SN_SN_SN_SN_SN_EERNS9_12SparseMatrixIdEERKSt3mapIhPKNS9_8FunctionILi3EEESt4lessIhESaISt4pairIKhSW_EEERNS9_6VectorIdEERSt6vectorIjSaIjEESW_RKS1B_NS9_13MatrixCreator13IteratorRangeISG_EERNS9_7Threads16DummyThreadMutexEEEENS3_5list9INS3_5valueISO_EENS_17reference_wrapperISQ_EENS1Q_IS14_EENS1Q_IS17_EENS1Q_IS1B_EENS1O_ISW_EENS1Q_IS1D_EENS1O_IS1H_EENS1Q_IS1J_EEEEEEEEvT_E13stored_vtable = linkonce_odr dso_local global %"struct.boost::detail::function::basic_vtable0" { %"struct.boost::detail::function::vtable_base" { ptr @_ZN5boost6detail8function15functor_managerINS_3_bi6bind_tINS3_11unspecifiedENS_8functionIFvNS_6tuples5tupleIRKN6dealii2hp17MappingCollectionILi3ELi3EEERKNSA_10DoFHandlerILi3ELi3EEERKNSA_11QCollectionILi2EEENS7_9null_typeESN_SN_SN_SN_SN_SN_EERNS9_12SparseMatrixIdEERKSt3mapIhPKNS9_8FunctionILi3EEESt4lessIhESaISt4pairIKhSW_EEERNS9_6VectorIdEERSt6vectorIjSaIjEESW_RKS1B_NS9_13MatrixCreator13IteratorRangeISG_EERNS9_7Threads16DummyThreadMutexEEEENS3_5list9INS3_5valueISO_EENS_17reference_wrapperISQ_EENS1Q_IS14_EENS1Q_IS17_EENS1Q_IS1B_EENS1O_ISW_EENS1Q_IS1D_EENS1O_IS1H_EENS1Q_IS1J_EEEEEEE6manageERKNS1_15function_bufferERS22_NS1_30functor_manager_operation_typeE }, ptr @_ZN5boost6detail8function26void_function_obj_invoker0INS_3_bi6bind_tINS3_11unspecifiedENS_8functionIFvNS_6tuples5tupleIRKN6dealii2hp17MappingCollectionILi3ELi3EEERKNSA_10DoFHandlerILi3ELi3EEERKNSA_11QCollectionILi2EEENS7_9null_typeESN_SN_SN_SN_SN_SN_EERNS9_12SparseMatrixIdEERKSt3mapIhPKNS9_8FunctionILi3EEESt4lessIhESaISt4pairIKhSW_EEERNS9_6VectorIdEERSt6vectorIjSaIjEESW_RKS1B_NS9_13MatrixCreator13IteratorRangeISG_EERNS9_7Threads16DummyThreadMutexEEEENS3_5list9INS3_5valueISO_EENS_17reference_wrapperISQ_EENS1Q_IS14_EENS1Q_IS17_EENS1Q_IS1B_EENS1O_ISW_EENS1Q_IS1D_EENS1O_IS1H_EENS1Q_IS1J_EEEEEEvE6invokeERNS1_15function_bufferE }, comdat, align 8
@_ZTSN5boost3_bi6bind_tINS0_11unspecifiedENS_8functionIFvNS_6tuples5tupleIRKN6dealii2hp17MappingCollectionILi3ELi3EEERKNS7_10DoFHandlerILi3ELi3EEERKNS7_11QCollectionILi2EEENS4_9null_typeESK_SK_SK_SK_SK_SK_EERNS6_12SparseMatrixIdEERKSt3mapIhPKNS6_8FunctionILi3EEESt4lessIhESaISt4pairIKhST_EEERNS6_6VectorIdEERSt6vectorIjSaIjEEST_RKS18_NS6_13MatrixCreator13IteratorRangeISD_EERNS6_7Threads16DummyThreadMutexEEEENS0_5list9INS0_5valueISL_EENS_17reference_wrapperISN_EENS1N_IS11_EENS1N_IS14_EENS1N_IS18_EENS1L_IST_EENS1N_IS1A_EENS1L_IS1E_EENS1N_IS1G_EEEEEE = linkonce_odr dso_local constant [547 x i8] c"N5boost3_bi6bind_tINS0_11unspecifiedENS_8functionIFvNS_6tuples5tupleIRKN6dealii2hp17MappingCollectionILi3ELi3EEERKNS7_10DoFHandlerILi3ELi3EEERKNS7_11QCollectionILi2EEENS4_9null_typeESK_SK_SK_SK_SK_SK_EERNS6_12SparseMatrixIdEERKSt3mapIhPKNS6_8FunctionILi3EEESt4lessIhESaISt4pairIKhST_EEERNS6_6VectorIdEERSt6vectorIjSaIjEEST_RKS18_NS6_13MatrixCreator13IteratorRangeISD_EERNS6_7Threads16DummyThreadMutexEEEENS0_5list9INS0_5valueISL_EENS_17reference_wrapperISN_EENS1N_IS11_EENS1N_IS14_EENS1N_IS18_EENS1L_IST_EENS1N_IS1A_EENS1L_IS1E_EENS1N_IS1G_EEEEEE\00", comdat, align 1
@_ZTIN5boost3_bi6bind_tINS0_11unspecifiedENS_8functionIFvNS_6tuples5tupleIRKN6dealii2hp17MappingCollectionILi3ELi3EEERKNS7_10DoFHandlerILi3ELi3EEERKNS7_11QCollectionILi2EEENS4_9null_typeESK_SK_SK_SK_SK_SK_EERNS6_12SparseMatrixIdEERKSt3mapIhPKNS6_8FunctionILi3EEESt4lessIhESaISt4pairIKhST_EEERNS6_6VectorIdEERSt6vectorIjSaIjEEST_RKS18_NS6_13MatrixCreator13IteratorRangeISD_EERNS6_7Threads16DummyThreadMutexEEEENS0_5list9INS0_5valueISL_EENS_17reference_wrapperISN_EENS1N_IS11_EENS1N_IS14_EENS1N_IS18_EENS1L_IST_EENS1N_IS1A_EENS1L_IS1E_EENS1N_IS1G_EEEEEE = linkonce_odr dso_local constant { ptr, ptr } { ptr getelementptr inbounds (ptr, ptr @_ZTVN10__cxxabiv117__class_type_infoE, i64 2), ptr @_ZTSN5boost3_bi6bind_tINS0_11unspecifiedENS_8functionIFvNS_6tuples5tupleIRKN6dealii2hp17MappingCollectionILi3ELi3EEERKNS7_10DoFHandlerILi3ELi3EEERKNS7_11QCollectionILi2EEENS4_9null_typeESK_SK_SK_SK_SK_SK_EERNS6_12SparseMatrixIdEERKSt3mapIhPKNS6_8FunctionILi3EEESt4lessIhESaISt4pairIKhST_EEERNS6_6VectorIdEERSt6vectorIjSaIjEEST_RKS18_NS6_13MatrixCreator13IteratorRangeISD_EERNS6_7Threads16DummyThreadMutexEEEENS0_5list9INS0_5valueISL_EENS_17reference_wrapperISN_EENS1N_IS11_EENS1N_IS14_EENS1N_IS18_EENS1L_IST_EENS1N_IS1A_EENS1L_IS1E_EENS1N_IS1G_EEEEEE }, comdat, align 8
@llvm.global_ctors = appending global [0 x { i32, ptr, ptr }] zeroinitializer

; Function Attrs: sspstrong uwtable
define weak_odr dso_local void @_ZN6dealii13MatrixCreator18create_mass_matrixILi3EdLi3EEEvRKNS_7MappingIXT_EXT1_EEERKNS_10DoFHandlerIXT_EXT1_EEERKNS_10QuadratureIXT_EEERNS_12SparseMatrixIT0_EEPKNS_8FunctionIXT1_EEE(ptr noundef nonnull align 8 dereferenceable(72) %0, ptr noundef nonnull align 8 dereferenceable(168) %1, ptr noundef nonnull align 1 %2, ptr noundef nonnull align 8 dereferenceable(36) %3, ptr noundef %4) local_unnamed_addr #0 comdat align 2 personality ptr @__gxx_personality_v0 {
  %6 = alloca %"class.dealii::Threads::ThreadGroup", align 8
  %7 = alloca %"class.std::vector", align 8
  %8 = alloca %"class.dealii::TriaActiveIterator", align 8
  %9 = alloca %"class.dealii::TriaActiveIterator", align 8
  %10 = alloca %"class.dealii::TriaRawIterator", align 8
  %11 = alloca %"class.dealii::Threads::DummyThreadMutex", align 1
  %12 = alloca %"class.dealii::Threads::Thread", align 16
  %13 = alloca %"class.dealii::Threads::internal::fun_encapsulator", align 8
  %14 = alloca %"struct.dealii::MatrixCreator::IteratorRange", align 8
  %15 = load i32, ptr getelementptr inbounds (%"class.dealii::MultithreadInfo", ptr @_ZN6dealii16multithread_infoE, i64 0, i32 1), align 4, !tbaa !5
  call void @llvm.lifetime.start.p0(i64 24, ptr nonnull %6) #19
  %16 = getelementptr inbounds %"struct.std::__detail::_List_node_base", ptr %6, i64 0, i32 1
  store ptr %6, ptr %16, align 8, !tbaa !10
  store ptr %6, ptr %6, align 8, !tbaa !13
  %17 = getelementptr inbounds %"struct.std::__detail::_List_node_header", ptr %6, i64 0, i32 1
  store i64 0, ptr %17, align 8, !tbaa !14
  call void @llvm.lifetime.start.p0(i64 24, ptr nonnull %7) #19
  call void @llvm.lifetime.start.p0(i64 24, ptr nonnull %8) #19
  invoke void @_ZNK6dealii10DoFHandlerILi3ELi3EE12begin_activeEj(ptr nonnull sret(%"class.dealii::TriaActiveIterator") align 8 %8, ptr noundef nonnull align 8 dereferenceable(168) %1, i32 noundef 0)
          to label %18 unwind label %41

18:                                               ; preds = %5
  call void @llvm.lifetime.start.p0(i64 24, ptr nonnull %9) #19
  call void @llvm.lifetime.start.p0(i64 24, ptr nonnull %10) #19
  invoke void @_ZNK6dealii10DoFHandlerILi3ELi3EE3endEv(ptr nonnull sret(%"class.dealii::TriaRawIterator") align 8 %10, ptr noundef nonnull align 8 dereferenceable(168) %1)
          to label %19 unwind label %43

19:                                               ; preds = %18
  call void @llvm.memcpy.p0.p0.i64(ptr noundef nonnull align 8 dereferenceable(16) %9, ptr noundef nonnull align 8 dereferenceable(16) %10, i64 16, i1 false)
  %20 = getelementptr inbounds %"class.dealii::DoFAccessor", ptr %9, i64 0, i32 1
  %21 = getelementptr inbounds %"class.dealii::DoFAccessor", ptr %10, i64 0, i32 1
  %22 = load ptr, ptr %21, align 8, !tbaa !17
  store ptr %22, ptr %20, align 8, !tbaa !17
  invoke void @_ZN6dealii7Threads11split_rangeINS_18TriaActiveIteratorINS_15DoFCellAccessorINS_10DoFHandlerILi3ELi3EEEEEEEEESt6vectorISt4pairIT_SA_ESaISB_EERKSA_SF_j(ptr nonnull sret(%"class.std::vector") align 8 %7, ptr noundef nonnull align 8 dereferenceable(24) %8, ptr noundef nonnull align 8 dereferenceable(24) %9, i32 noundef %15)
          to label %23 unwind label %43

23:                                               ; preds = %19
  call void @llvm.lifetime.end.p0(i64 24, ptr nonnull %10) #19
  call void @llvm.lifetime.end.p0(i64 24, ptr nonnull %9) #19
  call void @llvm.lifetime.end.p0(i64 24, ptr nonnull %8) #19
  call void @llvm.lifetime.start.p0(i64 1, ptr nonnull %11) #19
  %24 = icmp eq i32 %15, 0
  br i1 %24, label %32, label %25

25:                                               ; preds = %23
  %26 = getelementptr inbounds %"class.boost::function_base", ptr %13, i64 0, i32 1
  %27 = getelementptr inbounds %"class.dealii::DoFAccessor", ptr %14, i64 0, i32 1
  %28 = getelementptr inbounds %"struct.dealii::MatrixCreator::IteratorRange", ptr %14, i64 0, i32 1
  %29 = getelementptr inbounds %"struct.dealii::MatrixCreator::IteratorRange", ptr %14, i64 0, i32 1, i32 0, i32 0, i32 0, i32 0, i32 1
  %30 = getelementptr inbounds %"class.boost::shared_ptr", ptr %12, i64 0, i32 1
  %31 = zext i32 %15 to i64
  br label %47

32:                                               ; preds = %101, %23
  %33 = load ptr, ptr %6, align 8, !tbaa !13
  %34 = icmp eq ptr %33, %6
  br i1 %34, label %120, label %35

35:                                               ; preds = %32, %38
  %36 = phi ptr [ %39, %38 ], [ %33, %32 ]
  %37 = getelementptr inbounds %"struct.std::_List_node", ptr %36, i64 0, i32 1
  invoke void @_ZNK6dealii7Threads6ThreadIvE4joinEv(ptr noundef nonnull align 8 dereferenceable(16) %37)
          to label %38 unwind label %153

38:                                               ; preds = %35
  %39 = load ptr, ptr %36, align 8, !tbaa !13
  %40 = icmp eq ptr %39, %6
  br i1 %40, label %120, label %35

41:                                               ; preds = %5
  %42 = landingpad { ptr, i32 }
          cleanup
  br label %45

43:                                               ; preds = %19, %18
  %44 = landingpad { ptr, i32 }
          cleanup
  call void @llvm.lifetime.end.p0(i64 24, ptr nonnull %10) #19
  call void @llvm.lifetime.end.p0(i64 24, ptr nonnull %9) #19
  br label %45

45:                                               ; preds = %43, %41
  %46 = phi { ptr, i32 } [ %44, %43 ], [ %42, %41 ]
  call void @llvm.lifetime.end.p0(i64 24, ptr nonnull %8) #19
  br label %160

47:                                               ; preds = %25, %101
  %48 = phi i64 [ 0, %25 ], [ %102, %101 ]
  call void @llvm.lifetime.start.p0(i64 16, ptr nonnull %12) #19
  call void @llvm.lifetime.start.p0(i64 32, ptr nonnull %13) #19
  call void @llvm.experimental.noalias.scope.decl(metadata !22)
  store ptr null, ptr %13, align 8, !tbaa !25, !alias.scope !22
  %49 = load ptr, ptr @_ZZN5boost9function7IvRKN6dealii7MappingILi3ELi3EEERKNS1_10DoFHandlerILi3ELi3EEERKNS1_10QuadratureILi3EEERNS1_12SparseMatrixIdEEPKNS1_8FunctionILi3EEENS1_13MatrixCreator13IteratorRangeIS7_EERNS1_7Threads16DummyThreadMutexEE9assign_toIPFvS5_S9_SD_SG_SK_SN_SQ_EEEvT_E13stored_vtable, align 8, !tbaa !27, !noalias !22
  %50 = icmp eq ptr %49, null
  br i1 %50, label %52, label %51

51:                                               ; preds = %47
  invoke void %49(ptr noundef nonnull align 8 dereferenceable(24) %26, ptr noundef nonnull align 8 dereferenceable(24) %26, i32 noundef 2)
          to label %52 unwind label %104

52:                                               ; preds = %51, %47
  store ptr @_ZN6dealii13MatrixCreator20create_mass_matrix_1ILi3EdLi3EEEvRKNS_7MappingIXT_EXT1_EEERKNS_10DoFHandlerIXT_EXT1_EEERKNS_10QuadratureIXT_EEERNS_12SparseMatrixIT0_EEPKNS_8FunctionIXT1_EEENS0_13IteratorRangeIS7_EERNS_7Threads16DummyThreadMutexE, ptr %26, align 8, !tbaa !30, !alias.scope !22
  store ptr @_ZZN5boost9function7IvRKN6dealii7MappingILi3ELi3EEERKNS1_10DoFHandlerILi3ELi3EEERKNS1_10QuadratureILi3EEERNS1_12SparseMatrixIdEEPKNS1_8FunctionILi3EEENS1_13MatrixCreator13IteratorRangeIS7_EERNS1_7Threads16DummyThreadMutexEE9assign_toIPFvS5_S9_SD_SG_SK_SN_SQ_EEEvT_E13stored_vtable, ptr %13, align 8, !tbaa !25, !alias.scope !22
  %53 = load ptr, ptr %7, align 8, !tbaa !31
  %54 = getelementptr inbounds %"struct.std::pair", ptr %53, i64 %48
  %55 = getelementptr inbounds %"class.dealii::DoFAccessor", ptr %54, i64 0, i32 1
  %56 = load ptr, ptr %55, align 8, !tbaa !17
  call void @llvm.memmove.p0.p0.i64(ptr noundef nonnull align 8 dereferenceable(16) %14, ptr noundef nonnull align 8 dereferenceable(16) %54, i64 16, i1 false)
  store ptr %56, ptr %27, align 8, !tbaa !17
  %57 = getelementptr inbounds %"struct.std::pair", ptr %53, i64 %48, i32 1
  %58 = getelementptr inbounds %"struct.std::pair", ptr %53, i64 %48, i32 1, i32 0, i32 0, i32 0, i32 0, i32 1
  %59 = load ptr, ptr %58, align 8, !tbaa !17
  call void @llvm.memmove.p0.p0.i64(ptr noundef nonnull align 8 dereferenceable(16) %28, ptr noundef nonnull align 8 dereferenceable(16) %57, i64 16, i1 false)
  store ptr %59, ptr %29, align 8, !tbaa !17
  invoke void @_ZN6dealii7Threads8internal16fun_encapsulatorIvN5boost6tuples5tupleIRKNS_7MappingILi3ELi3EEERKNS_10DoFHandlerILi3ELi3EEERKNS_10QuadratureILi3EEERNS_12SparseMatrixIdEEPKNS_8FunctionILi3EEENS_13MatrixCreator13IteratorRangeISB_EERNS0_16DummyThreadMutexENS4_9null_typeESU_SU_EELi7EEclES9_SD_SH_SK_SO_SR_ST_(ptr nonnull sret(%"class.dealii::Threads::Thread") align 8 %12, ptr noundef nonnull align 8 dereferenceable(32) %13, ptr noundef nonnull align 8 dereferenceable(72) %0, ptr noundef nonnull align 8 dereferenceable(168) %1, ptr noundef nonnull align 1 %2, ptr noundef nonnull align 8 dereferenceable(36) %3, ptr noundef %4, ptr noundef nonnull %14, ptr noundef nonnull align 1 dereferenceable(1) %11)
          to label %60 unwind label %106

60:                                               ; preds = %52
  %61 = invoke noalias noundef nonnull dereferenceable(32) ptr @_Znwm(i64 noundef 32) #20
          to label %62 unwind label %108

62:                                               ; preds = %60
  %63 = getelementptr inbounds %"struct.std::_List_node", ptr %61, i64 0, i32 1
  %64 = load <2 x ptr>, ptr %12, align 16, !tbaa !33
  store <2 x ptr> %64, ptr %63, align 8, !tbaa !33
  %65 = extractelement <2 x ptr> %64, i64 1
  %66 = icmp eq ptr %65, null
  br i1 %66, label %71, label %67

67:                                               ; preds = %62
  %68 = getelementptr inbounds %"class.boost::detail::sp_counted_base", ptr %65, i64 0, i32 1
  %69 = load i64, ptr %68, align 8, !tbaa !34
  %70 = add nsw i64 %69, 1
  store i64 %70, ptr %68, align 8, !tbaa !34
  br label %71

71:                                               ; preds = %67, %62
  call void @_ZNSt8__detail15_List_node_base7_M_hookEPS0_(ptr noundef nonnull align 8 dereferenceable(16) %61, ptr noundef nonnull %6) #19
  %72 = load i64, ptr %17, align 8, !tbaa !36
  %73 = add i64 %72, 1
  store i64 %73, ptr %17, align 8, !tbaa !36
  %74 = load ptr, ptr %30, align 8, !tbaa !39
  %75 = icmp eq ptr %74, null
  br i1 %75, label %94, label %76

76:                                               ; preds = %71
  %77 = getelementptr inbounds %"class.boost::detail::sp_counted_base", ptr %74, i64 0, i32 1
  %78 = load i64, ptr %77, align 8, !tbaa !34
  %79 = add nsw i64 %78, -1
  store i64 %79, ptr %77, align 8, !tbaa !34
  %80 = icmp eq i64 %79, 0
  br i1 %80, label %81, label %94

81:                                               ; preds = %76
  %82 = load ptr, ptr %74, align 8, !tbaa !41
  %83 = getelementptr inbounds ptr, ptr %82, i64 2
  %84 = load ptr, ptr %83, align 8
  invoke void %84(ptr noundef nonnull align 8 dereferenceable(24) %74)
          to label %85 unwind label %106

85:                                               ; preds = %81
  %86 = getelementptr inbounds %"class.boost::detail::sp_counted_base", ptr %74, i64 0, i32 2
  %87 = load i64, ptr %86, align 8, !tbaa !43
  %88 = add nsw i64 %87, -1
  store i64 %88, ptr %86, align 8, !tbaa !43
  %89 = icmp eq i64 %88, 0
  br i1 %89, label %90, label %94

90:                                               ; preds = %85
  %91 = load ptr, ptr %74, align 8, !tbaa !41
  %92 = getelementptr inbounds ptr, ptr %91, i64 3
  %93 = load ptr, ptr %92, align 8
  invoke void %93(ptr noundef nonnull align 8 dereferenceable(24) %74)
          to label %94 unwind label %106

94:                                               ; preds = %85, %76, %71, %90
  %95 = load ptr, ptr %13, align 8, !tbaa !25
  %96 = icmp eq ptr %95, null
  br i1 %96, label %101, label %97

97:                                               ; preds = %94
  %98 = load ptr, ptr %95, align 8, !tbaa !27
  %99 = icmp eq ptr %98, null
  br i1 %99, label %101, label %100

100:                                              ; preds = %97
  invoke void %98(ptr noundef nonnull align 8 dereferenceable(24) %26, ptr noundef nonnull align 8 dereferenceable(24) %26, i32 noundef 2)
          to label %101 unwind label %104

101:                                              ; preds = %97, %100, %94
  call void @llvm.lifetime.end.p0(i64 32, ptr nonnull %13) #19
  call void @llvm.lifetime.end.p0(i64 16, ptr nonnull %12) #19
  %102 = add nuw nsw i64 %48, 1
  %103 = icmp eq i64 %102, %31
  br i1 %103, label %32, label %47

104:                                              ; preds = %100, %51
  %105 = landingpad { ptr, i32 }
          cleanup
  br label %118

106:                                              ; preds = %90, %81, %52
  %107 = landingpad { ptr, i32 }
          cleanup
  br label %110

108:                                              ; preds = %60
  %109 = landingpad { ptr, i32 }
          cleanup
  invoke void @_ZN6dealii7Threads6ThreadIvED2Ev(ptr noundef nonnull align 8 dereferenceable(16) %12)
          to label %110 unwind label %163

110:                                              ; preds = %108, %106
  %111 = phi { ptr, i32 } [ %107, %106 ], [ %109, %108 ]
  %112 = load ptr, ptr %13, align 8, !tbaa !25
  %113 = icmp eq ptr %112, null
  br i1 %113, label %118, label %114

114:                                              ; preds = %110
  %115 = load ptr, ptr %112, align 8, !tbaa !27
  %116 = icmp eq ptr %115, null
  br i1 %116, label %118, label %117

117:                                              ; preds = %114
  invoke void %115(ptr noundef nonnull align 8 dereferenceable(24) %26, ptr noundef nonnull align 8 dereferenceable(24) %26, i32 noundef 2)
          to label %118 unwind label %163

118:                                              ; preds = %114, %117, %110, %104
  %119 = phi { ptr, i32 } [ %105, %104 ], [ %111, %110 ], [ %111, %117 ], [ %111, %114 ]
  call void @llvm.lifetime.end.p0(i64 32, ptr nonnull %13) #19
  call void @llvm.lifetime.end.p0(i64 16, ptr nonnull %12) #19
  br label %155

120:                                              ; preds = %38, %32
  call void @llvm.lifetime.end.p0(i64 1, ptr nonnull %11) #19
  %121 = load ptr, ptr %7, align 8, !tbaa !31
  %122 = icmp eq ptr %121, null
  br i1 %122, label %124, label %123

123:                                              ; preds = %120
  call void @_ZdlPv(ptr noundef nonnull %121) #21
  br label %124

124:                                              ; preds = %123, %120
  call void @llvm.lifetime.end.p0(i64 24, ptr nonnull %7) #19
  %125 = load ptr, ptr %6, align 8, !tbaa !13
  %126 = icmp eq ptr %125, %6
  br i1 %126, label %152, label %127

127:                                              ; preds = %124, %150
  %128 = phi ptr [ %129, %150 ], [ %125, %124 ]
  %129 = load ptr, ptr %128, align 8, !tbaa !13
  %130 = getelementptr inbounds %"struct.std::_List_node", ptr %128, i64 0, i32 1, i32 0, i32 1
  %131 = load ptr, ptr %130, align 8, !tbaa !39
  %132 = icmp eq ptr %131, null
  br i1 %132, label %150, label %133

133:                                              ; preds = %127
  %134 = getelementptr inbounds %"class.boost::detail::sp_counted_base", ptr %131, i64 0, i32 1
  %135 = load i64, ptr %134, align 8, !tbaa !34
  %136 = add nsw i64 %135, -1
  store i64 %136, ptr %134, align 8, !tbaa !34
  %137 = icmp eq i64 %136, 0
  br i1 %137, label %138, label %150

138:                                              ; preds = %133
  %139 = load ptr, ptr %131, align 8, !tbaa !41
  %140 = getelementptr inbounds ptr, ptr %139, i64 2
  %141 = load ptr, ptr %140, align 8
  call void %141(ptr noundef nonnull align 8 dereferenceable(24) %131)
  %142 = getelementptr inbounds %"class.boost::detail::sp_counted_base", ptr %131, i64 0, i32 2
  %143 = load i64, ptr %142, align 8, !tbaa !43
  %144 = add nsw i64 %143, -1
  store i64 %144, ptr %142, align 8, !tbaa !43
  %145 = icmp eq i64 %144, 0
  br i1 %145, label %146, label %150

146:                                              ; preds = %138
  %147 = load ptr, ptr %131, align 8, !tbaa !41
  %148 = getelementptr inbounds ptr, ptr %147, i64 3
  %149 = load ptr, ptr %148, align 8
  call void %149(ptr noundef nonnull align 8 dereferenceable(24) %131)
  br label %150

150:                                              ; preds = %146, %138, %133, %127
  call void @_ZdlPv(ptr noundef nonnull %128) #21
  %151 = icmp eq ptr %129, %6
  br i1 %151, label %152, label %127

152:                                              ; preds = %150, %124
  call void @llvm.lifetime.end.p0(i64 24, ptr nonnull %6) #19
  ret void

153:                                              ; preds = %35
  %154 = landingpad { ptr, i32 }
          cleanup
  br label %155

155:                                              ; preds = %153, %118
  %156 = phi { ptr, i32 } [ %119, %118 ], [ %154, %153 ]
  call void @llvm.lifetime.end.p0(i64 1, ptr nonnull %11) #19
  %157 = load ptr, ptr %7, align 8, !tbaa !31
  %158 = icmp eq ptr %157, null
  br i1 %158, label %160, label %159

159:                                              ; preds = %155
  call void @_ZdlPv(ptr noundef nonnull %157) #21
  br label %160

160:                                              ; preds = %159, %155, %45
  %161 = phi { ptr, i32 } [ %46, %45 ], [ %156, %155 ], [ %156, %159 ]
  call void @llvm.lifetime.end.p0(i64 24, ptr nonnull %7) #19
  invoke void @_ZN6dealii7Threads11ThreadGroupIvED2Ev(ptr noundef nonnull align 8 dereferenceable(24) %6)
          to label %162 unwind label %163

162:                                              ; preds = %160
  call void @llvm.lifetime.end.p0(i64 24, ptr nonnull %6) #19
  resume { ptr, i32 } %161

163:                                              ; preds = %117, %160, %108
  %164 = landingpad { ptr, i32 }
          catch ptr null
  %165 = extractvalue { ptr, i32 } %164, 0
  call void @__clang_call_terminate(ptr %165) #22
  unreachable
}

; Function Attrs: mustprogress nocallback nofree nosync nounwind willreturn memory(argmem: readwrite)
declare void @llvm.lifetime.start.p0(i64 immarg, ptr nocapture) #1

; Function Attrs: sspstrong uwtable
define linkonce_odr dso_local void @_ZN6dealii7Threads11split_rangeINS_18TriaActiveIteratorINS_15DoFCellAccessorINS_10DoFHandlerILi3ELi3EEEEEEEEESt6vectorISt4pairIT_SA_ESaISB_EERKSA_SF_j(ptr noalias sret(%"class.std::vector") align 8 %0, ptr noundef nonnull align 8 dereferenceable(24) %1, ptr noundef nonnull align 8 dereferenceable(24) %2, i32 noundef %3) local_unnamed_addr #0 comdat personality ptr @__gxx_personality_v0 {
  %5 = icmp eq i32 %3, 1
  br i1 %5, label %6, label %18

6:                                                ; preds = %4
  %7 = getelementptr inbounds %"class.dealii::DoFAccessor", ptr %1, i64 0, i32 1
  %8 = getelementptr inbounds %"class.dealii::DoFAccessor", ptr %2, i64 0, i32 1
  %9 = load ptr, ptr %7, align 8, !tbaa !17
  %10 = load ptr, ptr %8, align 8, !tbaa !17
  tail call void @llvm.memset.p0.i64(ptr noundef nonnull align 8 dereferenceable(24) %0, i8 0, i64 24, i1 false)
  %11 = tail call noalias noundef nonnull dereferenceable(48) ptr @_Znwm(i64 noundef 48) #20
  store ptr %11, ptr %0, align 8, !tbaa !31
  %12 = getelementptr inbounds %"struct.std::_Vector_base<std::pair<dealii::TriaActiveIterator<dealii::DoFCellAccessor<dealii::DoFHandler<3, 3> > >, dealii::TriaActiveIterator<dealii::DoFCellAccessor<dealii::DoFHandler<3, 3> > > >, std::allocator<std::pair<dealii::TriaActiveIterator<dealii::DoFCellAccessor<dealii::DoFHandler<3, 3> > >, dealii::TriaActiveIterator<dealii::DoFCellAccessor<dealii::DoFHandler<3, 3> > > > > >::_Vector_impl_data", ptr %0, i64 0, i32 1
  %13 = getelementptr inbounds %"struct.std::pair", ptr %11, i64 1
  %14 = getelementptr inbounds %"struct.std::_Vector_base<std::pair<dealii::TriaActiveIterator<dealii::DoFCellAccessor<dealii::DoFHandler<3, 3> > >, dealii::TriaActiveIterator<dealii::DoFCellAccessor<dealii::DoFHandler<3, 3> > > >, std::allocator<std::pair<dealii::TriaActiveIterator<dealii::DoFCellAccessor<dealii::DoFHandler<3, 3> > >, dealii::TriaActiveIterator<dealii::DoFCellAccessor<dealii::DoFHandler<3, 3> > > > > >::_Vector_impl_data", ptr %0, i64 0, i32 2
  store ptr %13, ptr %14, align 8, !tbaa !44
  tail call void @llvm.memcpy.p0.p0.i64(ptr noundef nonnull align 8 dereferenceable(16) %11, ptr noundef nonnull align 8 dereferenceable(16) %1, i64 16, i1 false)
  %15 = getelementptr inbounds %"class.dealii::DoFAccessor", ptr %11, i64 0, i32 1
  store ptr %9, ptr %15, align 8, !tbaa !17
  %16 = getelementptr inbounds %"struct.std::pair", ptr %11, i64 0, i32 1
  tail call void @llvm.memcpy.p0.p0.i64(ptr noundef nonnull align 8 dereferenceable(16) %16, ptr noundef nonnull align 8 dereferenceable(16) %2, i64 16, i1 false)
  %17 = getelementptr inbounds %"struct.std::pair", ptr %11, i64 0, i32 1, i32 0, i32 0, i32 0, i32 0, i32 1
  store ptr %10, ptr %17, align 8, !tbaa !17
  store ptr %13, ptr %12, align 8, !tbaa !45
  br label %330

18:                                               ; preds = %4
  %19 = load i32, ptr %1, align 8
  %20 = getelementptr inbounds i8, ptr %1, i64 4
  %21 = load i32, ptr %20, align 4
  %22 = load i32, ptr %2, align 8
  %23 = getelementptr inbounds i8, ptr %2, i64 4
  %24 = load i32, ptr %23, align 4
  %25 = icmp ne i32 %21, %24
  %26 = icmp ne i32 %19, %22
  %27 = select i1 %25, i1 true, i1 %26
  br i1 %27, label %28, label %128

28:                                               ; preds = %18
  %29 = getelementptr inbounds i8, ptr %1, i64 8
  %30 = load ptr, ptr %29, align 8
  %31 = getelementptr inbounds %"class.dealii::Triangulation", ptr %30, i64 0, i32 1
  %32 = load ptr, ptr %31, align 8, !tbaa !46
  %33 = ptrtoint ptr %32 to i64
  %34 = getelementptr inbounds %"class.dealii::Triangulation", ptr %30, i64 0, i32 1, i32 0, i32 0, i32 0, i32 1
  br label %35

35:                                               ; preds = %123, %28
  %36 = phi i32 [ %19, %28 ], [ %86, %123 ]
  %37 = phi i32 [ %21, %28 ], [ %88, %123 ]
  %38 = phi i32 [ 0, %28 ], [ %124, %123 ]
  br label %39

39:                                               ; preds = %107, %35
  %40 = phi i32 [ %36, %35 ], [ %86, %107 ]
  %41 = phi i32 [ %36, %35 ], [ %87, %107 ]
  %42 = phi i32 [ %36, %35 ], [ %108, %107 ]
  %43 = phi i32 [ %37, %35 ], [ %88, %107 ]
  %44 = add nsw i32 %43, 1
  %45 = sext i32 %42 to i64
  %46 = getelementptr inbounds ptr, ptr %32, i64 %45
  %47 = load ptr, ptr %46, align 8, !tbaa !33
  %48 = getelementptr inbounds %"class.dealii::internal::Triangulation::TriaLevel", ptr %47, i64 0, i32 4
  %49 = getelementptr inbounds %"class.dealii::internal::Triangulation::TriaLevel", ptr %47, i64 0, i32 4, i32 0, i32 0, i32 0, i32 0, i32 0, i32 1
  %50 = load ptr, ptr %49, align 8, !tbaa !48
  %51 = load ptr, ptr %48, align 8, !tbaa !50
  %52 = ptrtoint ptr %50 to i64
  %53 = ptrtoint ptr %51 to i64
  %54 = sub i64 %52, %53
  %55 = sdiv exact i64 %54, 24
  %56 = trunc i64 %55 to i32
  %57 = icmp slt i32 %44, %56
  br i1 %57, label %85, label %58

58:                                               ; preds = %39
  %59 = add nsw i64 %45, 1
  %60 = load ptr, ptr %34, align 8, !tbaa !51
  %61 = ptrtoint ptr %60 to i64
  %62 = sub i64 %61, %33
  %63 = shl i64 %62, 29
  %64 = ashr i64 %63, 32
  %65 = icmp slt i64 %59, %64
  br i1 %65, label %66, label %85

66:                                               ; preds = %58, %80
  %67 = phi i64 [ %81, %80 ], [ %59, %58 ]
  %68 = getelementptr inbounds ptr, ptr %32, i64 %67
  %69 = load ptr, ptr %68, align 8, !tbaa !33
  %70 = getelementptr inbounds %"class.dealii::internal::Triangulation::TriaLevel", ptr %69, i64 0, i32 4
  %71 = getelementptr inbounds %"class.dealii::internal::Triangulation::TriaLevel", ptr %69, i64 0, i32 4, i32 0, i32 0, i32 0, i32 0, i32 0, i32 1
  %72 = load ptr, ptr %71, align 8, !tbaa !48
  %73 = load ptr, ptr %70, align 8, !tbaa !50
  %74 = ptrtoint ptr %72 to i64
  %75 = ptrtoint ptr %73 to i64
  %76 = sub i64 %74, %75
  %77 = sdiv exact i64 %76, 24
  %78 = trunc i64 %77 to i32
  %79 = icmp sgt i32 %78, 0
  br i1 %79, label %83, label %80

80:                                               ; preds = %66
  %81 = add i64 %67, 1
  %82 = icmp eq i64 %81, %64
  br i1 %82, label %85, label %66, !llvm.loop !52

83:                                               ; preds = %66
  %84 = trunc i64 %67 to i32
  br label %85

85:                                               ; preds = %80, %83, %58, %39
  %86 = phi i32 [ %40, %39 ], [ %84, %83 ], [ -1, %58 ], [ -1, %80 ]
  %87 = phi i32 [ %41, %39 ], [ %84, %83 ], [ -1, %58 ], [ -1, %80 ]
  %88 = phi i32 [ %44, %39 ], [ 0, %83 ], [ -1, %58 ], [ -1, %80 ]
  %89 = phi i32 [ %42, %39 ], [ %84, %83 ], [ -1, %58 ], [ -1, %80 ]
  %90 = or i32 %89, %88
  %91 = icmp sgt i32 %90, -1
  br i1 %91, label %92, label %109

92:                                               ; preds = %85
  %93 = zext i32 %89 to i64
  %94 = getelementptr inbounds ptr, ptr %32, i64 %93
  %95 = load ptr, ptr %94, align 8, !tbaa !33
  %96 = getelementptr inbounds %"class.dealii::internal::Triangulation::TriaLevel", ptr %95, i64 0, i32 4, i32 0, i32 3
  %97 = load ptr, ptr %96, align 8, !tbaa !54
  %98 = lshr i32 %88, 6
  %99 = zext i32 %98 to i64
  %100 = getelementptr inbounds i64, ptr %97, i64 %99
  %101 = and i32 %88, 63
  %102 = zext i32 %101 to i64
  %103 = shl nuw i64 1, %102
  %104 = load i64, ptr %100, align 8, !tbaa !56
  %105 = and i64 %104, %103
  %106 = icmp eq i64 %105, 0
  br i1 %106, label %107, label %109

107:                                              ; preds = %92, %112
  %108 = phi i32 [ %89, %92 ], [ %87, %112 ]
  br label %39

109:                                              ; preds = %92, %85
  %110 = or i32 %88, %87
  %111 = icmp sgt i32 %110, -1
  br i1 %111, label %112, label %123

112:                                              ; preds = %109
  %113 = zext i32 %87 to i64
  %114 = getelementptr inbounds ptr, ptr %32, i64 %113
  %115 = load ptr, ptr %114, align 8, !tbaa !33
  %116 = getelementptr inbounds %"class.dealii::internal::Triangulation::TriaLevel", ptr %115, i64 0, i32 4, i32 0, i32 1
  %117 = shl i32 %88, 2
  %118 = zext i32 %117 to i64
  %119 = load ptr, ptr %116, align 8, !tbaa !57
  %120 = getelementptr inbounds i32, ptr %119, i64 %118
  %121 = load i32, ptr %120, align 4, !tbaa !59
  %122 = icmp eq i32 %121, -1
  br i1 %122, label %123, label %107

123:                                              ; preds = %112, %109
  %124 = add i32 %38, 1
  %125 = icmp ne i32 %88, %24
  %126 = icmp ne i32 %86, %22
  %127 = select i1 %125, i1 true, i1 %126
  br i1 %127, label %35, label %128

128:                                              ; preds = %123, %18
  %129 = phi i32 [ 0, %18 ], [ %124, %123 ]
  %130 = udiv i32 %129, %3
  %131 = urem i32 %129, %3
  tail call void @llvm.memset.p0.i64(ptr noundef nonnull align 8 dereferenceable(24) %0, i8 0, i64 24, i1 false)
  %132 = icmp ne i32 %3, 0
  tail call void @llvm.assume(i1 %132)
  %133 = zext i32 %3 to i64
  %134 = mul nuw nsw i64 %133, 48
  %135 = tail call noalias noundef nonnull ptr @_Znwm(i64 noundef %134) #20
  store ptr %135, ptr %0, align 8, !tbaa !31
  %136 = getelementptr inbounds %"struct.std::_Vector_base<std::pair<dealii::TriaActiveIterator<dealii::DoFCellAccessor<dealii::DoFHandler<3, 3> > >, dealii::TriaActiveIterator<dealii::DoFCellAccessor<dealii::DoFHandler<3, 3> > > >, std::allocator<std::pair<dealii::TriaActiveIterator<dealii::DoFCellAccessor<dealii::DoFHandler<3, 3> > >, dealii::TriaActiveIterator<dealii::DoFCellAccessor<dealii::DoFHandler<3, 3> > > > > >::_Vector_impl_data", ptr %0, i64 0, i32 1
  store ptr %135, ptr %136, align 8, !tbaa !45
  %137 = getelementptr inbounds %"struct.std::pair", ptr %135, i64 %133
  %138 = getelementptr inbounds %"struct.std::_Vector_base<std::pair<dealii::TriaActiveIterator<dealii::DoFCellAccessor<dealii::DoFHandler<3, 3> > >, dealii::TriaActiveIterator<dealii::DoFCellAccessor<dealii::DoFHandler<3, 3> > > >, std::allocator<std::pair<dealii::TriaActiveIterator<dealii::DoFCellAccessor<dealii::DoFHandler<3, 3> > >, dealii::TriaActiveIterator<dealii::DoFCellAccessor<dealii::DoFHandler<3, 3> > > > > >::_Vector_impl_data", ptr %0, i64 0, i32 2
  store ptr %137, ptr %138, align 8, !tbaa !44
  %139 = and i64 %133, 1
  %140 = icmp eq i64 %139, 0
  br i1 %140, label %149, label %141

141:                                              ; preds = %128
  store i32 -2, ptr %135, align 8
  %142 = getelementptr inbounds i8, ptr %135, i64 4
  store i32 -2, ptr %142, align 4
  %143 = getelementptr inbounds i8, ptr %135, i64 8
  %144 = getelementptr inbounds %"struct.std::pair", ptr %135, i64 0, i32 1
  tail call void @llvm.memset.p0.i64(ptr noundef nonnull align 8 dereferenceable(16) %143, i8 0, i64 16, i1 false)
  store i32 -2, ptr %144, align 8
  %145 = getelementptr inbounds %"struct.std::pair", ptr %135, i64 0, i32 1, i32 0, i32 0, i32 0, i32 0, i32 0, i32 0, i32 0, i32 1
  store i32 -2, ptr %145, align 4
  %146 = getelementptr inbounds %"struct.std::pair", ptr %135, i64 0, i32 1, i32 0, i32 0, i32 0, i32 0, i32 0, i32 0, i32 0, i32 2
  %147 = add nsw i64 %133, -1
  %148 = getelementptr inbounds %"struct.std::pair", ptr %135, i64 1
  tail call void @llvm.memset.p0.i64(ptr noundef nonnull align 8 dereferenceable(16) %146, i8 0, i64 16, i1 false)
  br label %149

149:                                              ; preds = %141, %128
  %150 = phi ptr [ undef, %128 ], [ %148, %141 ]
  %151 = phi ptr [ %135, %128 ], [ %148, %141 ]
  %152 = phi i64 [ %133, %128 ], [ %147, %141 ]
  %153 = icmp eq i32 %3, 1
  br i1 %153, label %171, label %154

154:                                              ; preds = %149, %154
  %155 = phi ptr [ %169, %154 ], [ %151, %149 ]
  %156 = phi i64 [ %168, %154 ], [ %152, %149 ]
  store i32 -2, ptr %155, align 8
  %157 = getelementptr inbounds i8, ptr %155, i64 4
  store i32 -2, ptr %157, align 4
  %158 = getelementptr inbounds i8, ptr %155, i64 8
  %159 = getelementptr inbounds %"struct.std::pair", ptr %155, i64 0, i32 1
  tail call void @llvm.memset.p0.i64(ptr noundef nonnull align 8 dereferenceable(16) %158, i8 0, i64 16, i1 false)
  store i32 -2, ptr %159, align 8
  %160 = getelementptr inbounds %"struct.std::pair", ptr %155, i64 0, i32 1, i32 0, i32 0, i32 0, i32 0, i32 0, i32 0, i32 0, i32 1
  store i32 -2, ptr %160, align 4
  %161 = getelementptr inbounds %"struct.std::pair", ptr %155, i64 0, i32 1, i32 0, i32 0, i32 0, i32 0, i32 0, i32 0, i32 0, i32 2
  %162 = getelementptr inbounds %"struct.std::pair", ptr %155, i64 1
  tail call void @llvm.memset.p0.i64(ptr noundef nonnull align 8 dereferenceable(16) %161, i8 0, i64 16, i1 false)
  store i32 -2, ptr %162, align 8
  %163 = getelementptr inbounds %"struct.std::pair", ptr %155, i64 1, i32 0, i32 0, i32 0, i32 0, i32 0, i32 0, i32 0, i32 0, i32 1
  store i32 -2, ptr %163, align 4
  %164 = getelementptr inbounds %"struct.std::pair", ptr %155, i64 1, i32 0, i32 0, i32 0, i32 0, i32 0, i32 0, i32 0, i32 0, i32 2
  %165 = getelementptr inbounds %"struct.std::pair", ptr %155, i64 1, i32 1
  tail call void @llvm.memset.p0.i64(ptr noundef nonnull align 8 dereferenceable(16) %164, i8 0, i64 16, i1 false)
  store i32 -2, ptr %165, align 8
  %166 = getelementptr inbounds %"struct.std::pair", ptr %155, i64 1, i32 1, i32 0, i32 0, i32 0, i32 0, i32 0, i32 0, i32 0, i32 1
  store i32 -2, ptr %166, align 4
  %167 = getelementptr inbounds %"struct.std::pair", ptr %155, i64 1, i32 1, i32 0, i32 0, i32 0, i32 0, i32 0, i32 0, i32 0, i32 2
  %168 = add nsw i64 %156, -2
  %169 = getelementptr inbounds %"struct.std::pair", ptr %155, i64 2
  %170 = icmp eq i64 %168, 0
  tail call void @llvm.memset.p0.i64(ptr noundef nonnull align 8 dereferenceable(16) %167, i8 0, i64 16, i1 false)
  br i1 %170, label %171, label %154

171:                                              ; preds = %154, %149
  %172 = phi ptr [ %150, %149 ], [ %169, %154 ]
  store ptr %172, ptr %136, align 8, !tbaa !45
  store i32 %19, ptr %135, align 8, !tbaa !60
  %173 = getelementptr inbounds %"class.dealii::TriaAccessorBase", ptr %135, i64 0, i32 1
  store i32 %21, ptr %173, align 4, !tbaa !61
  %174 = getelementptr inbounds %"class.dealii::TriaAccessorBase", ptr %1, i64 0, i32 2
  %175 = getelementptr inbounds %"class.dealii::TriaAccessorBase", ptr %135, i64 0, i32 2
  %176 = load <2 x ptr>, ptr %174, align 8, !tbaa !33
  store <2 x ptr> %176, ptr %175, align 8, !tbaa !33
  br i1 %132, label %177, label %330

177:                                              ; preds = %171
  %178 = add i32 %3, -1
  %179 = sext i32 %130 to i64
  %180 = getelementptr inbounds %"class.dealii::TriaAccessorBase", ptr %2, i64 0, i32 2
  %181 = zext i32 %131 to i64
  %182 = zext i32 %178 to i64
  %183 = zext i32 %3 to i64
  %184 = getelementptr inbounds %"struct.std::pair", ptr %135, i64 %182, i32 1
  %185 = getelementptr inbounds %"class.dealii::TriaAccessorBase", ptr %184, i64 0, i32 2
  br label %186

186:                                              ; preds = %177, %327
  %187 = phi i64 [ 0, %177 ], [ %328, %327 ]
  %188 = icmp eq i64 %187, %182
  br i1 %188, label %323, label %189

189:                                              ; preds = %186
  %190 = getelementptr inbounds %"struct.std::pair", ptr %135, i64 %187
  %191 = getelementptr inbounds %"struct.std::pair", ptr %135, i64 %187, i32 1
  %192 = getelementptr inbounds %"class.dealii::TriaAccessorBase", ptr %191, i64 0, i32 1
  %193 = load <2 x i32>, ptr %190, align 8, !tbaa !59
  store <2 x i32> %193, ptr %191, align 8, !tbaa !59
  %194 = getelementptr inbounds %"class.dealii::TriaAccessorBase", ptr %190, i64 0, i32 2
  %195 = getelementptr inbounds %"class.dealii::TriaAccessorBase", ptr %191, i64 0, i32 2
  %196 = getelementptr inbounds %"class.dealii::DoFAccessor", ptr %191, i64 0, i32 1
  %197 = load <2 x ptr>, ptr %194, align 8, !tbaa !33
  store <2 x ptr> %197, ptr %195, align 8, !tbaa !33
  invoke void @_ZSt9__advanceIN6dealii18TriaActiveIteratorINS0_15DoFCellAccessorINS0_10DoFHandlerILi3ELi3EEEEEEElEvRT_T0_St26bidirectional_iterator_tag(ptr noundef nonnull align 8 dereferenceable(24) %191, i64 noundef %179)
          to label %198 unwind label %312

198:                                              ; preds = %189
  %199 = icmp ult i64 %187, %181
  %200 = load i32, ptr %191, align 8, !tbaa !60
  %201 = load i32, ptr %192, align 4
  %202 = load ptr, ptr %195, align 8, !tbaa !62
  br i1 %199, label %203, label %314

203:                                              ; preds = %198
  %204 = getelementptr inbounds %"class.dealii::Triangulation", ptr %202, i64 0, i32 1
  %205 = load ptr, ptr %204, align 8, !tbaa !46
  %206 = ptrtoint ptr %205 to i64
  %207 = getelementptr inbounds %"class.dealii::Triangulation", ptr %202, i64 0, i32 1, i32 0, i32 0, i32 0, i32 1
  br label %208

208:                                              ; preds = %296, %203
  %209 = phi i32 [ %200, %203 ], [ %275, %296 ]
  %210 = phi i32 [ %200, %203 ], [ %276, %296 ]
  %211 = phi i32 [ %200, %203 ], [ %297, %296 ]
  %212 = phi i32 [ %201, %203 ], [ %277, %296 ]
  %213 = add nsw i32 %212, 1
  %214 = sext i32 %211 to i64
  %215 = getelementptr inbounds ptr, ptr %205, i64 %214
  %216 = load ptr, ptr %215, align 8, !tbaa !33
  %217 = getelementptr inbounds %"class.dealii::internal::Triangulation::TriaLevel", ptr %216, i64 0, i32 4
  %218 = getelementptr inbounds %"class.dealii::internal::Triangulation::TriaLevel", ptr %216, i64 0, i32 4, i32 0, i32 0, i32 0, i32 0, i32 0, i32 1
  %219 = load ptr, ptr %218, align 8, !tbaa !48
  %220 = load ptr, ptr %217, align 8, !tbaa !50
  %221 = ptrtoint ptr %219 to i64
  %222 = ptrtoint ptr %220 to i64
  %223 = sub i64 %221, %222
  %224 = sdiv exact i64 %223, 24
  %225 = trunc i64 %224 to i32
  %226 = icmp slt i32 %213, %225
  br i1 %226, label %274, label %227

227:                                              ; preds = %208
  %228 = add nsw i64 %214, 1
  %229 = trunc i64 %228 to i32
  store i32 %229, ptr %191, align 8, !tbaa !60
  %230 = load ptr, ptr %207, align 8, !tbaa !51
  %231 = ptrtoint ptr %230 to i64
  %232 = sub i64 %231, %206
  %233 = shl i64 %232, 29
  %234 = ashr i64 %233, 32
  %235 = icmp slt i64 %228, %234
  br i1 %235, label %236, label %268

236:                                              ; preds = %227
  %237 = getelementptr inbounds ptr, ptr %205, i64 %228
  %238 = load ptr, ptr %237, align 8, !tbaa !33
  %239 = getelementptr inbounds %"class.dealii::internal::Triangulation::TriaLevel", ptr %238, i64 0, i32 4
  %240 = getelementptr inbounds %"class.dealii::internal::Triangulation::TriaLevel", ptr %238, i64 0, i32 4, i32 0, i32 0, i32 0, i32 0, i32 0, i32 1
  %241 = load ptr, ptr %240, align 8, !tbaa !48
  %242 = load ptr, ptr %239, align 8, !tbaa !50
  %243 = ptrtoint ptr %241 to i64
  %244 = ptrtoint ptr %242 to i64
  %245 = sub i64 %243, %244
  %246 = sdiv exact i64 %245, 24
  %247 = trunc i64 %246 to i32
  %248 = icmp sgt i32 %247, 0
  br i1 %248, label %270, label %262

249:                                              ; preds = %262
  %250 = getelementptr inbounds ptr, ptr %205, i64 %264
  %251 = load ptr, ptr %250, align 8, !tbaa !33
  %252 = getelementptr inbounds %"class.dealii::internal::Triangulation::TriaLevel", ptr %251, i64 0, i32 4
  %253 = getelementptr inbounds %"class.dealii::internal::Triangulation::TriaLevel", ptr %251, i64 0, i32 4, i32 0, i32 0, i32 0, i32 0, i32 0, i32 1
  %254 = load ptr, ptr %253, align 8, !tbaa !48
  %255 = load ptr, ptr %252, align 8, !tbaa !50
  %256 = ptrtoint ptr %254 to i64
  %257 = ptrtoint ptr %255 to i64
  %258 = sub i64 %256, %257
  %259 = sdiv exact i64 %258, 24
  %260 = trunc i64 %259 to i32
  %261 = icmp sgt i32 %260, 0
  br i1 %261, label %269, label %262, !llvm.loop !52

262:                                              ; preds = %236, %249
  %263 = phi i64 [ %264, %249 ], [ %228, %236 ]
  %264 = add i64 %263, 1
  %265 = trunc i64 %264 to i32
  %266 = icmp eq i64 %264, %234
  br i1 %266, label %267, label %249, !llvm.loop !52

267:                                              ; preds = %262
  store i32 %265, ptr %191, align 8, !tbaa !60
  br label %268

268:                                              ; preds = %267, %227
  store i32 -1, ptr %191, align 8, !tbaa !60
  br label %274

269:                                              ; preds = %249
  store i32 %265, ptr %191, align 8, !tbaa !60
  br label %270

270:                                              ; preds = %269, %236
  %271 = phi i32 [ %229, %236 ], [ %265, %269 ]
  %272 = phi i64 [ %228, %236 ], [ %264, %269 ]
  %273 = trunc i64 %272 to i32
  br label %274

274:                                              ; preds = %270, %268, %208
  %275 = phi i32 [ %209, %208 ], [ -1, %268 ], [ %271, %270 ]
  %276 = phi i32 [ %210, %208 ], [ -1, %268 ], [ %273, %270 ]
  %277 = phi i32 [ %213, %208 ], [ -1, %268 ], [ 0, %270 ]
  %278 = phi i32 [ %211, %208 ], [ -1, %268 ], [ %273, %270 ]
  %279 = or i32 %278, %277
  %280 = icmp sgt i32 %279, -1
  br i1 %280, label %281, label %298

281:                                              ; preds = %274
  %282 = zext i32 %278 to i64
  %283 = getelementptr inbounds ptr, ptr %205, i64 %282
  %284 = load ptr, ptr %283, align 8, !tbaa !33
  %285 = getelementptr inbounds %"class.dealii::internal::Triangulation::TriaLevel", ptr %284, i64 0, i32 4, i32 0, i32 3
  %286 = load ptr, ptr %285, align 8, !tbaa !54
  %287 = lshr i32 %277, 6
  %288 = zext i32 %287 to i64
  %289 = getelementptr inbounds i64, ptr %286, i64 %288
  %290 = and i32 %277, 63
  %291 = zext i32 %290 to i64
  %292 = shl nuw i64 1, %291
  %293 = load i64, ptr %289, align 8, !tbaa !56
  %294 = and i64 %293, %292
  %295 = icmp eq i64 %294, 0
  br i1 %295, label %296, label %298

296:                                              ; preds = %281, %301
  %297 = phi i32 [ %278, %281 ], [ %276, %301 ]
  br label %208

298:                                              ; preds = %281, %274
  store i32 %277, ptr %192, align 4, !tbaa !61
  %299 = or i32 %277, %276
  %300 = icmp sgt i32 %299, -1
  br i1 %300, label %301, label %314

301:                                              ; preds = %298
  %302 = zext i32 %276 to i64
  %303 = getelementptr inbounds ptr, ptr %205, i64 %302
  %304 = load ptr, ptr %303, align 8, !tbaa !33
  %305 = getelementptr inbounds %"class.dealii::internal::Triangulation::TriaLevel", ptr %304, i64 0, i32 4, i32 0, i32 1
  %306 = shl i32 %277, 2
  %307 = zext i32 %306 to i64
  %308 = load ptr, ptr %305, align 8, !tbaa !57
  %309 = getelementptr inbounds i32, ptr %308, i64 %307
  %310 = load i32, ptr %309, align 4, !tbaa !59
  %311 = icmp eq i32 %310, -1
  br i1 %311, label %314, label %296

312:                                              ; preds = %189
  %313 = landingpad { ptr, i32 }
          cleanup
  tail call void @_ZdlPv(ptr noundef nonnull %135) #21
  resume { ptr, i32 } %313

314:                                              ; preds = %301, %298, %198
  %315 = phi i32 [ %201, %198 ], [ %277, %298 ], [ %277, %301 ]
  %316 = phi i32 [ %200, %198 ], [ %275, %298 ], [ %275, %301 ]
  %317 = add nuw nsw i64 %187, 1
  %318 = getelementptr inbounds %"struct.std::pair", ptr %135, i64 %317
  store i32 %316, ptr %318, align 8, !tbaa !60
  %319 = getelementptr inbounds %"class.dealii::TriaAccessorBase", ptr %318, i64 0, i32 1
  store i32 %315, ptr %319, align 4, !tbaa !61
  %320 = getelementptr inbounds %"class.dealii::TriaAccessorBase", ptr %318, i64 0, i32 2
  store ptr %202, ptr %320, align 8, !tbaa !62
  %321 = load ptr, ptr %196, align 8, !tbaa !17
  %322 = getelementptr inbounds %"class.dealii::DoFAccessor", ptr %318, i64 0, i32 1
  store ptr %321, ptr %322, align 8, !tbaa !17
  br label %327

323:                                              ; preds = %186
  %324 = load <2 x i32>, ptr %2, align 8, !tbaa !59
  store <2 x i32> %324, ptr %184, align 8, !tbaa !59
  %325 = load <2 x ptr>, ptr %180, align 8, !tbaa !33
  store <2 x ptr> %325, ptr %185, align 8, !tbaa !33
  %326 = add nuw nsw i64 %187, 1
  br label %327

327:                                              ; preds = %323, %314
  %328 = phi i64 [ %326, %323 ], [ %317, %314 ]
  %329 = icmp eq i64 %328, %183
  br i1 %329, label %330, label %186

330:                                              ; preds = %327, %171, %6
  ret void
}

declare void @_ZNK6dealii10DoFHandlerILi3ELi3EE12begin_activeEj(ptr sret(%"class.dealii::TriaActiveIterator") align 8, ptr noundef nonnull align 8 dereferenceable(168), i32 noundef) local_unnamed_addr #2

declare i32 @__gxx_personality_v0(...)

declare void @_ZNK6dealii10DoFHandlerILi3ELi3EE3endEv(ptr sret(%"class.dealii::TriaRawIterator") align 8, ptr noundef nonnull align 8 dereferenceable(168)) local_unnamed_addr #2

; Function Attrs: mustprogress nocallback nofree nosync nounwind willreturn memory(argmem: readwrite)
declare void @llvm.lifetime.end.p0(i64 immarg, ptr nocapture) #1

; Function Attrs: sspstrong uwtable
define linkonce_odr dso_local void @_ZN6dealii13MatrixCreator20create_mass_matrix_1ILi3EdLi3EEEvRKNS_7MappingIXT_EXT1_EEERKNS_10DoFHandlerIXT_EXT1_EEERKNS_10QuadratureIXT_EEERNS_12SparseMatrixIT0_EEPKNS_8FunctionIXT1_EEENS0_13IteratorRangeIS7_EERNS_7Threads16DummyThreadMutexE(ptr noundef nonnull align 8 dereferenceable(72) %0, ptr noundef nonnull align 8 dereferenceable(168) %1, ptr noundef nonnull align 1 %2, ptr noundef nonnull align 8 dereferenceable(36) %3, ptr noundef %4, ptr noundef %5, ptr noundef nonnull align 1 dereferenceable(1) %6) #0 comdat align 2 personality ptr @__gxx_personality_v0 {
  %8 = alloca %"class.dealii::FEValues", align 8
  %9 = alloca %"class.dealii::FullMatrix", align 8
  %10 = alloca %"class.std::vector.92", align 8
  %11 = alloca %"class.std::vector.258", align 8
  %12 = alloca %"class.dealii::Vector", align 8
  %13 = alloca %"class.std::allocator.260", align 1
  %14 = alloca %"class.dealii::TriaActiveIterator", align 8
  %15 = icmp eq ptr %4, null
  %16 = select i1 %15, i32 33, i32 49
  call void @llvm.lifetime.start.p0(i64 776, ptr nonnull %8) #19
  %17 = getelementptr inbounds %"class.dealii::DoFHandler", ptr %1, i64 0, i32 2
  %18 = load ptr, ptr %17, align 8, !tbaa !63
  call void @_ZN6dealii8FEValuesILi3ELi3EEC1ERKNS_7MappingILi3ELi3EEERKNS_13FiniteElementILi3ELi3EEERKNS_10QuadratureILi3EEENS_11UpdateFlagsE(ptr noundef nonnull align 8 dereferenceable(776) %8, ptr noundef nonnull align 8 dereferenceable(72) %0, ptr noundef nonnull align 8 dereferenceable(728) %18, ptr noundef nonnull align 8 dereferenceable(128) %2, i32 noundef %16)
  %19 = getelementptr inbounds %"class.dealii::FEValuesBase", ptr %8, i64 0, i32 3
  %20 = load i32, ptr %19, align 8, !tbaa !65
  %21 = getelementptr inbounds %"class.dealii::FEValuesBase", ptr %8, i64 0, i32 2
  %22 = load i32, ptr %21, align 4, !tbaa !127
  %23 = getelementptr inbounds %"class.dealii::FEValuesBase", ptr %8, i64 0, i32 6
  %24 = load ptr, ptr %23, align 8, !tbaa !63
  %25 = getelementptr inbounds i8, ptr %24, i64 116
  %26 = load i32, ptr %25, align 4, !tbaa !128
  call void @llvm.lifetime.start.p0(i64 96, ptr nonnull %9) #19
  invoke void @_ZN6dealii10FullMatrixIdEC1Ejj(ptr noundef nonnull align 8 dereferenceable(92) %9, i32 noundef %20, i32 noundef %20)
          to label %27 unwind label %209

27:                                               ; preds = %7
  call void @llvm.lifetime.start.p0(i64 24, ptr nonnull %10) #19
  %28 = zext i32 %22 to i64
  %29 = icmp eq i32 %22, 0
  br i1 %29, label %30, label %31

30:                                               ; preds = %27
  call void @llvm.memset.p0.i64(ptr noundef nonnull align 8 dereferenceable(24) %10, i8 0, i64 24, i1 false)
  br label %37

31:                                               ; preds = %27
  %32 = shl nuw nsw i64 %28, 3
  %33 = invoke noalias noundef nonnull ptr @_Znwm(i64 noundef %32) #20
          to label %34 unwind label %211

34:                                               ; preds = %31
  store ptr %33, ptr %10, align 8, !tbaa !131
  %35 = getelementptr inbounds double, ptr %33, i64 %28
  %36 = getelementptr inbounds %"struct.std::_Vector_base<double, std::allocator<double> >::_Vector_impl_data", ptr %10, i64 0, i32 2
  store ptr %35, ptr %36, align 8, !tbaa !132
  call void @llvm.memset.p0.i64(ptr nonnull align 8 %33, i8 0, i64 %32, i1 false), !tbaa !133
  br label %37

37:                                               ; preds = %34, %30
  %38 = phi ptr [ null, %30 ], [ %35, %34 ]
  %39 = getelementptr inbounds %"struct.std::_Vector_base<double, std::allocator<double> >::_Vector_impl_data", ptr %10, i64 0, i32 1
  store ptr %38, ptr %39, align 8, !tbaa !135
  call void @llvm.lifetime.start.p0(i64 24, ptr nonnull %11) #19
  call void @llvm.lifetime.start.p0(i64 88, ptr nonnull %12) #19
  invoke void @_ZN6dealii11SubscriptorC2Ev(ptr noundef nonnull align 8 dereferenceable(72) %12)
          to label %40 unwind label %213

40:                                               ; preds = %37
  store ptr getelementptr inbounds ({ [6 x ptr] }, ptr @_ZTVN6dealii6VectorIdEE, i64 0, inrange i32 0, i64 2), ptr %12, align 8, !tbaa !41
  %41 = getelementptr inbounds %"class.dealii::Vector", ptr %12, i64 0, i32 1
  call void @llvm.memset.p0.i64(ptr noundef nonnull align 8 dereferenceable(16) %41, i8 0, i64 16, i1 false)
  %42 = icmp eq i32 %26, 0
  br i1 %42, label %55, label %43

43:                                               ; preds = %40
  %44 = zext i32 %26 to i64
  %45 = shl nuw nsw i64 %44, 3
  %46 = invoke noalias noundef nonnull ptr @_Znam(i64 noundef %45) #20
          to label %47 unwind label %50

47:                                               ; preds = %43
  %48 = getelementptr inbounds %"class.dealii::Vector", ptr %12, i64 0, i32 3
  %49 = getelementptr inbounds %"class.dealii::Vector", ptr %12, i64 0, i32 2
  store ptr %46, ptr %48, align 8, !tbaa !136
  store i32 %26, ptr %49, align 4, !tbaa !138
  store i32 %26, ptr %41, align 8, !tbaa !139
  call void @llvm.memset.p0.i64(ptr nonnull align 8 %46, i8 0, i64 %45, i1 false), !tbaa !133
  br label %55

50:                                               ; preds = %43
  %51 = landingpad { ptr, i32 }
          cleanup
  invoke void @_ZN6dealii11SubscriptorD2Ev(ptr noundef nonnull align 8 dereferenceable(72) %12)
          to label %217 unwind label %52

52:                                               ; preds = %50
  %53 = landingpad { ptr, i32 }
          catch ptr null
  %54 = extractvalue { ptr, i32 } %53, 0
  call void @__clang_call_terminate(ptr %54) #22
  unreachable

55:                                               ; preds = %47, %40
  call void @llvm.lifetime.start.p0(i64 1, ptr nonnull %13) #19
  invoke void @_ZNSt6vectorIN6dealii6VectorIdEESaIS2_EEC2EmRKS2_RKS3_(ptr noundef nonnull align 8 dereferenceable(24) %11, i64 noundef %28, ptr noundef nonnull align 8 dereferenceable(88) %12, ptr noundef nonnull align 1 dereferenceable(1) %13)
          to label %56 unwind label %215

56:                                               ; preds = %55
  call void @llvm.lifetime.end.p0(i64 1, ptr nonnull %13) #19
  store ptr getelementptr inbounds ({ [6 x ptr] }, ptr @_ZTVN6dealii6VectorIdEE, i64 0, inrange i32 0, i64 2), ptr %12, align 8, !tbaa !41
  %57 = getelementptr inbounds %"class.dealii::Vector", ptr %12, i64 0, i32 3
  %58 = load ptr, ptr %57, align 8, !tbaa !136
  %59 = icmp eq ptr %58, null
  br i1 %59, label %61, label %60

60:                                               ; preds = %56
  call void @_ZdaPv(ptr noundef nonnull %58) #21
  store ptr null, ptr %57, align 8, !tbaa !136
  br label %61

61:                                               ; preds = %60, %56
  invoke void @_ZN6dealii11SubscriptorD2Ev(ptr noundef nonnull align 8 dereferenceable(72) %12)
          to label %62 unwind label %213

62:                                               ; preds = %61
  call void @llvm.lifetime.end.p0(i64 88, ptr nonnull %12) #19
  %63 = zext i32 %20 to i64
  %64 = icmp eq i32 %20, 0
  br i1 %64, label %70, label %65

65:                                               ; preds = %62
  %66 = shl nuw nsw i64 %63, 2
  %67 = invoke noalias noundef nonnull ptr @_Znwm(i64 noundef %66) #20
          to label %68 unwind label %219

68:                                               ; preds = %65
  call void @llvm.memset.p0.i64(ptr nonnull align 4 %67, i8 0, i64 %66, i1 false), !tbaa !59
  %69 = getelementptr inbounds i32, ptr %67, i64 %63
  br label %70

70:                                               ; preds = %68, %62
  %71 = phi ptr [ null, %62 ], [ %67, %68 ]
  %72 = phi ptr [ null, %62 ], [ %69, %68 ]
  call void @llvm.lifetime.start.p0(i64 24, ptr nonnull %14) #19
  %73 = getelementptr inbounds %"class.dealii::DoFAccessor", ptr %5, i64 0, i32 1
  %74 = load ptr, ptr %73, align 8, !tbaa !17
  call void @llvm.memcpy.p0.p0.i64(ptr noundef nonnull align 8 dereferenceable(16) %14, ptr noundef nonnull align 8 dereferenceable(16) %5, i64 16, i1 false)
  %75 = getelementptr inbounds %"class.dealii::DoFAccessor", ptr %14, i64 0, i32 1
  store ptr %74, ptr %75, align 8, !tbaa !17
  %76 = getelementptr inbounds %"struct.dealii::MatrixCreator::IteratorRange", ptr %5, i64 0, i32 1
  %77 = getelementptr inbounds %"class.dealii::TriaAccessorBase", ptr %14, i64 0, i32 1
  %78 = getelementptr inbounds %"struct.dealii::MatrixCreator::IteratorRange", ptr %5, i64 0, i32 1, i32 0, i32 0, i32 0, i32 0, i32 0, i32 0, i32 0, i32 1
  %79 = load i32, ptr %77, align 4, !tbaa !61
  %80 = load i32, ptr %78, align 4, !tbaa !61
  %81 = icmp ne i32 %79, %80
  %82 = load i32, ptr %14, align 8
  %83 = load i32, ptr %76, align 8
  %84 = icmp ne i32 %82, %83
  %85 = select i1 %81, i1 true, i1 %84
  br i1 %85, label %86, label %1774

86:                                               ; preds = %70
  %87 = getelementptr inbounds %"class.dealii::TableBase", ptr %9, i64 0, i32 3
  %88 = getelementptr inbounds %"class.dealii::TableBase", ptr %9, i64 0, i32 3, i32 0, i32 0, i64 1
  %89 = getelementptr inbounds %"class.dealii::TableBase", ptr %9, i64 0, i32 1
  %90 = getelementptr inbounds %"class.dealii::Function", ptr %4, i64 0, i32 2
  %91 = getelementptr inbounds i8, ptr %8, i64 312
  %92 = getelementptr inbounds %"class.dealii::FiniteElement", ptr %24, i64 0, i32 2
  %93 = getelementptr inbounds i8, ptr %8, i64 216
  %94 = getelementptr inbounds i8, ptr %8, i64 480
  %95 = getelementptr inbounds i8, ptr %8, i64 144
  %96 = getelementptr inbounds i8, ptr %8, i64 160
  %97 = getelementptr inbounds %"class.dealii::FiniteElement", ptr %24, i64 0, i32 12
  %98 = icmp eq i32 %26, 1
  %99 = getelementptr inbounds %"class.dealii::FiniteElement", ptr %24, i64 0, i32 19
  %100 = icmp eq ptr %72, %71
  %101 = ptrtoint ptr %71 to i64
  %102 = ptrtoint ptr %72 to i64
  %103 = sub i64 %102, %101
  %104 = ashr exact i64 %103, 2
  %105 = trunc i64 %104 to i32
  %106 = getelementptr inbounds %"class.dealii::TriaAccessorBase", ptr %14, i64 0, i32 2
  %107 = zext i32 %26 to i64
  %108 = add nsw i64 %63, -1
  %109 = shl nuw nsw i64 %63, 3
  %110 = add nsw i64 %63, -1
  %111 = shl nuw nsw i64 %63, 3
  %112 = add nsw i64 %63, -1
  %113 = shl nuw nsw i64 %63, 3
  %114 = add nsw i64 %63, -1
  %115 = shl nuw nsw i64 %63, 3
  %116 = icmp ult i32 %20, 16
  %117 = trunc i64 %114 to i32
  %118 = icmp ugt i64 %114, 4294967295
  %119 = trunc i64 %114 to i32
  %120 = and i64 %63, 4294967292
  %121 = icmp eq i64 %120, %63
  %122 = and i64 %63, 1
  %123 = icmp eq i64 %122, 0
  %124 = sub nsw i64 0, %63
  %125 = icmp ult i32 %20, 16
  %126 = trunc i64 %112 to i32
  %127 = icmp ugt i64 %112, 4294967295
  %128 = trunc i64 %112 to i32
  %129 = and i64 %63, 4294967292
  %130 = icmp eq i64 %129, %63
  %131 = and i64 %63, 1
  %132 = icmp eq i64 %131, 0
  %133 = sub nsw i64 0, %63
  %134 = icmp ult i32 %20, 24
  %135 = trunc i64 %110 to i32
  %136 = icmp ugt i64 %110, 4294967295
  %137 = trunc i64 %110 to i32
  %138 = and i64 %63, 4294967292
  %139 = icmp eq i64 %138, %63
  %140 = icmp ult i32 %20, 16
  %141 = trunc i64 %108 to i32
  %142 = icmp ugt i64 %108, 4294967295
  %143 = trunc i64 %108 to i32
  %144 = and i64 %63, 4294967280
  %145 = icmp eq i64 %144, %63
  %146 = and i64 %63, 1
  %147 = icmp eq i64 %146, 0
  %148 = sub nsw i64 0, %63
  %149 = and i64 %63, 1
  %150 = icmp eq i64 %114, 0
  %151 = and i64 %63, 4294967294
  %152 = icmp eq i64 %149, 0
  %153 = or i1 %64, %42
  br label %154

154:                                              ; preds = %86, %1768
  invoke void @_ZN6dealii8FEValuesILi3ELi3EE6reinitERKNS_12TriaIteratorINS_15DoFCellAccessorINS_10DoFHandlerILi3ELi3EEEEEEE(ptr noundef nonnull align 8 dereferenceable(776) %8, ptr noundef nonnull align 8 dereferenceable(24) %14)
          to label %155 unwind label %223

155:                                              ; preds = %154
  %156 = load i32, ptr %87, align 4, !tbaa !59
  %157 = load i32, ptr %88, align 8, !tbaa !59
  %158 = mul i32 %157, %156
  %159 = icmp eq i32 %158, 0
  br i1 %159, label %164, label %160

160:                                              ; preds = %155
  %161 = load ptr, ptr %89, align 8, !tbaa !140
  %162 = zext i32 %158 to i64
  %163 = shl nuw nsw i64 %162, 3
  call void @llvm.memset.p0.i64(ptr align 8 %161, i8 0, i64 %163, i1 false), !tbaa !133
  br label %164

164:                                              ; preds = %155, %160
  %165 = load ptr, ptr %75, align 8, !tbaa !17
  %166 = getelementptr inbounds %"class.dealii::DoFHandler", ptr %165, i64 0, i32 2
  %167 = load ptr, ptr %166, align 8, !tbaa !63
  %168 = getelementptr inbounds i8, ptr %167, i64 112
  %169 = load i32, ptr %168, align 8, !tbaa !141
  %170 = icmp eq i32 %169, 0
  br i1 %170, label %193, label %171

171:                                              ; preds = %164
  %172 = getelementptr inbounds %"class.dealii::DoFHandler", ptr %165, i64 0, i32 3
  %173 = load ptr, ptr %172, align 8, !tbaa !142
  %174 = load i32, ptr %14, align 8, !tbaa !60
  %175 = sext i32 %174 to i64
  %176 = getelementptr inbounds ptr, ptr %173, i64 %175
  %177 = load ptr, ptr %176, align 8, !tbaa !33
  %178 = load ptr, ptr %177, align 8, !tbaa !144
  %179 = load i32, ptr %77, align 4, !tbaa !61
  %180 = mul i32 %179, %169
  %181 = zext i32 %180 to i64
  %182 = getelementptr inbounds i32, ptr %178, i64 %181
  br label %183

183:                                              ; preds = %183, %171
  %184 = phi i64 [ 0, %171 ], [ %188, %183 ]
  %185 = phi ptr [ %182, %171 ], [ %189, %183 ]
  %186 = load i32, ptr %185, align 4, !tbaa !59
  %187 = getelementptr inbounds i32, ptr %71, i64 %184
  store i32 %186, ptr %187, align 4, !tbaa !59
  %188 = add nuw nsw i64 %184, 1
  %189 = getelementptr inbounds i32, ptr %185, i64 1
  %190 = load i32, ptr %168, align 8, !tbaa !141
  %191 = zext i32 %190 to i64
  %192 = icmp ult i64 %188, %191
  br i1 %192, label %183, label %193

193:                                              ; preds = %183, %164
  br i1 %15, label %1015, label %194

194:                                              ; preds = %193
  %195 = load i32, ptr %90, align 8, !tbaa !145
  %196 = icmp eq i32 %195, 1
  %197 = load ptr, ptr %4, align 8, !tbaa !41
  br i1 %196, label %198, label %466

198:                                              ; preds = %194
  %199 = getelementptr inbounds ptr, ptr %197, i64 6
  %200 = load ptr, ptr %199, align 8
  invoke void %200(ptr noundef nonnull align 8 dereferenceable(92) %4, ptr noundef nonnull align 8 dereferenceable(24) %91, ptr noundef nonnull align 8 dereferenceable(24) %10, i32 noundef 0)
          to label %201 unwind label %223

201:                                              ; preds = %198
  br i1 %29, label %1641, label %202

202:                                              ; preds = %201
  %203 = load ptr, ptr %93, align 8, !tbaa !131
  %204 = load ptr, ptr %23, align 8
  %205 = getelementptr inbounds %"class.dealii::FiniteElement", ptr %204, i64 0, i32 2
  %206 = load ptr, ptr %95, align 8
  %207 = load i32, ptr %96, align 8
  %208 = icmp ne i32 %207, 1
  br label %226

209:                                              ; preds = %1809, %7
  %210 = landingpad { ptr, i32 }
          cleanup
  br label %1858

211:                                              ; preds = %31
  %212 = landingpad { ptr, i32 }
          cleanup
  br label %1851

213:                                              ; preds = %61, %37
  %214 = landingpad { ptr, i32 }
          cleanup
  br label %217

215:                                              ; preds = %55
  %216 = landingpad { ptr, i32 }
          cleanup
  call void @llvm.lifetime.end.p0(i64 1, ptr nonnull %13) #19
  invoke void @_ZN6dealii6VectorIdED2Ev(ptr noundef nonnull align 8 dereferenceable(88) %12)
          to label %217 unwind label %1868

217:                                              ; preds = %213, %50, %215
  %218 = phi { ptr, i32 } [ %216, %215 ], [ %214, %213 ], [ %51, %50 ]
  call void @llvm.lifetime.end.p0(i64 88, ptr nonnull %12) #19
  br label %1846

219:                                              ; preds = %65
  %220 = landingpad { ptr, i32 }
          cleanup
  br label %1822

221:                                              ; preds = %1642
  %222 = landingpad { ptr, i32 }
          cleanup
  call void @llvm.lifetime.end.p0(i64 24, ptr nonnull %14) #19
  br label %1820

223:                                              ; preds = %466, %198, %154
  %224 = landingpad { ptr, i32 }
          cleanup
  call void @llvm.lifetime.end.p0(i64 24, ptr nonnull %14) #19
  %225 = icmp eq ptr %71, null
  br i1 %225, label %1822, label %1820

226:                                              ; preds = %202, %463
  %227 = phi i64 [ 0, %202 ], [ %464, %463 ]
  %228 = shl nuw nsw i64 %227, 3
  %229 = add nuw i64 %228, 8
  %230 = getelementptr i8, ptr %206, i64 %228
  %231 = add nuw i64 %113, %228
  %232 = getelementptr i8, ptr %206, i64 %231
  %233 = trunc i64 %227 to i32
  %234 = getelementptr inbounds double, ptr %203, i64 %227
  %235 = load double, ptr %234, align 8, !tbaa !133
  br i1 %64, label %463, label %236

236:                                              ; preds = %226
  %237 = load i8, ptr %205, align 4, !tbaa !148, !range !182, !noundef !183
  %238 = icmp eq i8 %237, 0
  %239 = load ptr, ptr %94, align 8
  %240 = load ptr, ptr %97, align 8, !tbaa !184
  %241 = trunc i64 %227 to i32
  br i1 %98, label %242, label %388

242:                                              ; preds = %236
  %243 = xor i32 %233, -1
  %244 = icmp ult i32 %243, %128
  %245 = insertelement <4 x double> poison, double %235, i64 0
  %246 = shufflevector <4 x double> %245, <4 x double> poison, <4 x i32> zeroinitializer
  br label %247

247:                                              ; preds = %242, %365
  %248 = phi i64 [ %366, %365 ], [ 0, %242 ]
  %249 = trunc i64 %248 to i32
  br i1 %238, label %250, label %253

250:                                              ; preds = %247
  %251 = getelementptr inbounds i32, ptr %239, i64 %248
  %252 = load i32, ptr %251, align 4, !tbaa !59
  br label %253

253:                                              ; preds = %250, %247
  %254 = phi i32 [ %252, %250 ], [ %249, %247 ]
  %255 = mul i32 %207, %254
  %256 = add i32 %255, %241
  %257 = zext i32 %256 to i64
  %258 = getelementptr inbounds double, ptr %206, i64 %257
  %259 = load double, ptr %258, align 8, !tbaa !133
  %260 = load ptr, ptr %94, align 8
  %261 = load ptr, ptr %10, align 8
  %262 = getelementptr double, ptr %261, i64 %227
  %263 = load ptr, ptr %89, align 8
  %264 = load i32, ptr %88, align 8
  %265 = mul i32 %264, %249
  br i1 %238, label %368, label %266

266:                                              ; preds = %253
  br i1 %125, label %310, label %267

267:                                              ; preds = %266
  %268 = xor i32 %265, -1
  %269 = icmp ult i32 %268, %126
  %270 = or i1 %269, %127
  %271 = or i1 %208, %270
  %272 = or i1 %244, %271
  br i1 %272, label %310, label %273

273:                                              ; preds = %267
  %274 = getelementptr i8, ptr %261, i64 %229
  %275 = zext i32 %265 to i64
  %276 = shl nuw nsw i64 %275, 3
  %277 = getelementptr i8, ptr %263, i64 %276
  %278 = getelementptr i8, ptr %263, i64 %113
  %279 = getelementptr i8, ptr %278, i64 %276
  %280 = icmp ult ptr %262, %279
  %281 = icmp ult ptr %277, %274
  %282 = and i1 %280, %281
  %283 = icmp ult ptr %277, %232
  %284 = icmp ult ptr %230, %279
  %285 = and i1 %283, %284
  %286 = or i1 %282, %285
  br i1 %286, label %310, label %287

287:                                              ; preds = %273
  %288 = insertelement <4 x double> poison, double %259, i64 0
  %289 = shufflevector <4 x double> %288, <4 x double> poison, <4 x i32> zeroinitializer
  %290 = load double, ptr %262, align 8, !tbaa !133, !alias.scope !185, !noalias !188
  %291 = insertelement <4 x double> poison, double %290, i64 0
  %292 = shufflevector <4 x double> %291, <4 x double> poison, <4 x i32> zeroinitializer
  br label %293

293:                                              ; preds = %293, %287
  %294 = phi i64 [ 0, %287 ], [ %307, %293 ]
  %295 = trunc i64 %294 to i32
  %296 = add i64 %294, %227
  %297 = and i64 %296, 4294967295
  %298 = getelementptr inbounds double, ptr %206, i64 %297
  %299 = load <4 x double>, ptr %298, align 8, !tbaa !133, !alias.scope !190
  %300 = fmul <4 x double> %289, %299
  %301 = fmul <4 x double> %246, %300
  %302 = add i32 %265, %295
  %303 = zext i32 %302 to i64
  %304 = getelementptr inbounds double, ptr %263, i64 %303
  %305 = load <4 x double>, ptr %304, align 8, !tbaa !133, !alias.scope !188, !noalias !190
  %306 = call <4 x double> @llvm.fmuladd.v4f64(<4 x double> %301, <4 x double> %292, <4 x double> %305)
  store <4 x double> %306, ptr %304, align 8, !tbaa !133, !alias.scope !188, !noalias !190
  %307 = add nuw i64 %294, 4
  %308 = icmp eq i64 %307, %129
  br i1 %308, label %309, label %293, !llvm.loop !192

309:                                              ; preds = %293
  br i1 %130, label %365, label %310

310:                                              ; preds = %273, %267, %266, %309
  %311 = phi i64 [ 0, %273 ], [ 0, %267 ], [ 0, %266 ], [ %129, %309 ]
  %312 = xor i64 %311, -1
  br i1 %132, label %329, label %313

313:                                              ; preds = %310
  %314 = trunc i64 %311 to i32
  %315 = mul i32 %207, %314
  %316 = add i32 %315, %241
  %317 = zext i32 %316 to i64
  %318 = getelementptr inbounds double, ptr %206, i64 %317
  %319 = load double, ptr %318, align 8, !tbaa !133
  %320 = fmul double %259, %319
  %321 = fmul double %235, %320
  %322 = load double, ptr %262, align 8, !tbaa !133
  %323 = add i32 %265, %314
  %324 = zext i32 %323 to i64
  %325 = getelementptr inbounds double, ptr %263, i64 %324
  %326 = load double, ptr %325, align 8, !tbaa !133
  %327 = call double @llvm.fmuladd.f64(double %321, double %322, double %326)
  store double %327, ptr %325, align 8, !tbaa !133
  %328 = or i64 %311, 1
  br label %329

329:                                              ; preds = %313, %310
  %330 = phi i64 [ %311, %310 ], [ %328, %313 ]
  %331 = icmp eq i64 %312, %133
  br i1 %331, label %365, label %332

332:                                              ; preds = %329, %332
  %333 = phi i64 [ %363, %332 ], [ %330, %329 ]
  %334 = trunc i64 %333 to i32
  %335 = mul i32 %207, %334
  %336 = add i32 %335, %241
  %337 = zext i32 %336 to i64
  %338 = getelementptr inbounds double, ptr %206, i64 %337
  %339 = load double, ptr %338, align 8, !tbaa !133
  %340 = fmul double %259, %339
  %341 = fmul double %235, %340
  %342 = load double, ptr %262, align 8, !tbaa !133
  %343 = add i32 %265, %334
  %344 = zext i32 %343 to i64
  %345 = getelementptr inbounds double, ptr %263, i64 %344
  %346 = load double, ptr %345, align 8, !tbaa !133
  %347 = call double @llvm.fmuladd.f64(double %341, double %342, double %346)
  store double %347, ptr %345, align 8, !tbaa !133
  %348 = trunc i64 %333 to i32
  %349 = add i32 %348, 1
  %350 = mul i32 %207, %349
  %351 = add i32 %350, %241
  %352 = zext i32 %351 to i64
  %353 = getelementptr inbounds double, ptr %206, i64 %352
  %354 = load double, ptr %353, align 8, !tbaa !133
  %355 = fmul double %259, %354
  %356 = fmul double %235, %355
  %357 = load double, ptr %262, align 8, !tbaa !133
  %358 = add i32 %265, %349
  %359 = zext i32 %358 to i64
  %360 = getelementptr inbounds double, ptr %263, i64 %359
  %361 = load double, ptr %360, align 8, !tbaa !133
  %362 = call double @llvm.fmuladd.f64(double %356, double %357, double %361)
  store double %362, ptr %360, align 8, !tbaa !133
  %363 = add nuw nsw i64 %333, 2
  %364 = icmp eq i64 %363, %63
  br i1 %364, label %365, label %332, !llvm.loop !195

365:                                              ; preds = %329, %332, %368, %309
  %366 = add nuw nsw i64 %248, 1
  %367 = icmp eq i64 %366, %63
  br i1 %367, label %463, label %247

368:                                              ; preds = %253, %368
  %369 = phi i64 [ %386, %368 ], [ 0, %253 ]
  %370 = getelementptr inbounds i32, ptr %260, i64 %369
  %371 = load i32, ptr %370, align 4, !tbaa !59
  %372 = mul i32 %371, %207
  %373 = add i32 %372, %241
  %374 = zext i32 %373 to i64
  %375 = getelementptr inbounds double, ptr %206, i64 %374
  %376 = load double, ptr %375, align 8, !tbaa !133
  %377 = fmul double %259, %376
  %378 = fmul double %235, %377
  %379 = load double, ptr %262, align 8, !tbaa !133
  %380 = trunc i64 %369 to i32
  %381 = add i32 %265, %380
  %382 = zext i32 %381 to i64
  %383 = getelementptr inbounds double, ptr %263, i64 %382
  %384 = load double, ptr %383, align 8, !tbaa !133
  %385 = call double @llvm.fmuladd.f64(double %378, double %379, double %384)
  store double %385, ptr %383, align 8, !tbaa !133
  %386 = add nuw nsw i64 %369, 1
  %387 = icmp eq i64 %386, %63
  br i1 %387, label %365, label %368

388:                                              ; preds = %236, %434
  %389 = phi i64 [ %435, %434 ], [ 0, %236 ]
  %390 = trunc i64 %389 to i32
  br i1 %238, label %391, label %394

391:                                              ; preds = %388
  %392 = getelementptr inbounds i32, ptr %239, i64 %389
  %393 = load i32, ptr %392, align 4, !tbaa !59
  br label %394

394:                                              ; preds = %391, %388
  %395 = phi i32 [ %393, %391 ], [ %390, %388 ]
  %396 = mul i32 %207, %395
  %397 = add i32 %396, %241
  %398 = zext i32 %397 to i64
  %399 = getelementptr inbounds double, ptr %206, i64 %398
  %400 = load double, ptr %399, align 8, !tbaa !133
  %401 = getelementptr inbounds %"struct.std::pair.263", ptr %240, i64 %389
  %402 = load i64, ptr %401, align 4
  %403 = trunc i64 %402 to i32
  %404 = load ptr, ptr %94, align 8
  %405 = load ptr, ptr %10, align 8
  %406 = getelementptr inbounds double, ptr %405, i64 %227
  %407 = load ptr, ptr %89, align 8
  %408 = load i32, ptr %88, align 8
  %409 = mul i32 %408, %390
  br i1 %238, label %437, label %410

410:                                              ; preds = %394, %431
  %411 = phi i64 [ %432, %431 ], [ 0, %394 ]
  %412 = getelementptr inbounds %"struct.std::pair.263", ptr %240, i64 %411
  %413 = load i64, ptr %412, align 4
  %414 = trunc i64 %413 to i32
  %415 = icmp eq i32 %414, %403
  br i1 %415, label %416, label %431

416:                                              ; preds = %410
  %417 = trunc i64 %411 to i32
  %418 = mul i32 %207, %417
  %419 = add i32 %418, %241
  %420 = zext i32 %419 to i64
  %421 = getelementptr inbounds double, ptr %206, i64 %420
  %422 = load double, ptr %421, align 8, !tbaa !133
  %423 = fmul double %400, %422
  %424 = fmul double %235, %423
  %425 = load double, ptr %406, align 8, !tbaa !133
  %426 = add i32 %409, %417
  %427 = zext i32 %426 to i64
  %428 = getelementptr inbounds double, ptr %407, i64 %427
  %429 = load double, ptr %428, align 8, !tbaa !133
  %430 = call double @llvm.fmuladd.f64(double %424, double %425, double %429)
  store double %430, ptr %428, align 8, !tbaa !133
  br label %431

431:                                              ; preds = %416, %410
  %432 = add nuw nsw i64 %411, 1
  %433 = icmp eq i64 %432, %63
  br i1 %433, label %434, label %410

434:                                              ; preds = %431, %460
  %435 = add nuw nsw i64 %389, 1
  %436 = icmp eq i64 %435, %63
  br i1 %436, label %463, label %388

437:                                              ; preds = %394, %460
  %438 = phi i64 [ %461, %460 ], [ 0, %394 ]
  %439 = getelementptr inbounds %"struct.std::pair.263", ptr %240, i64 %438
  %440 = load i64, ptr %439, align 4
  %441 = trunc i64 %440 to i32
  %442 = icmp eq i32 %441, %403
  br i1 %442, label %443, label %460

443:                                              ; preds = %437
  %444 = getelementptr inbounds i32, ptr %404, i64 %438
  %445 = load i32, ptr %444, align 4, !tbaa !59
  %446 = mul i32 %445, %207
  %447 = add i32 %446, %241
  %448 = zext i32 %447 to i64
  %449 = getelementptr inbounds double, ptr %206, i64 %448
  %450 = load double, ptr %449, align 8, !tbaa !133
  %451 = fmul double %400, %450
  %452 = fmul double %235, %451
  %453 = load double, ptr %406, align 8, !tbaa !133
  %454 = trunc i64 %438 to i32
  %455 = add i32 %409, %454
  %456 = zext i32 %455 to i64
  %457 = getelementptr inbounds double, ptr %407, i64 %456
  %458 = load double, ptr %457, align 8, !tbaa !133
  %459 = call double @llvm.fmuladd.f64(double %452, double %453, double %458)
  store double %459, ptr %457, align 8, !tbaa !133
  br label %460

460:                                              ; preds = %443, %437
  %461 = add nuw nsw i64 %438, 1
  %462 = icmp eq i64 %461, %63
  br i1 %462, label %434, label %437

463:                                              ; preds = %434, %365, %226
  %464 = add nuw nsw i64 %227, 1
  %465 = icmp eq i64 %464, %28
  br i1 %465, label %1641, label %226

466:                                              ; preds = %194
  %467 = getelementptr inbounds ptr, ptr %197, i64 7
  %468 = load ptr, ptr %467, align 8
  invoke void %468(ptr noundef nonnull align 8 dereferenceable(92) %4, ptr noundef nonnull align 8 dereferenceable(24) %91, ptr noundef nonnull align 8 dereferenceable(24) %11)
          to label %469 unwind label %223

469:                                              ; preds = %466
  %470 = load i8, ptr %92, align 4, !tbaa !148, !range !182, !noundef !183
  %471 = icmp eq i8 %470, 0
  br i1 %471, label %749, label %472

472:                                              ; preds = %469
  br i1 %29, label %1641, label %473

473:                                              ; preds = %472
  %474 = load ptr, ptr %93, align 8, !tbaa !131
  %475 = load ptr, ptr %95, align 8
  %476 = load i32, ptr %96, align 8
  br i1 %64, label %1641, label %477

477:                                              ; preds = %473
  %478 = load ptr, ptr %23, align 8
  %479 = getelementptr inbounds %"class.dealii::FiniteElement", ptr %478, i64 0, i32 2
  %480 = load i8, ptr %479, align 4, !tbaa !148, !range !182, !noundef !183
  %481 = icmp eq i8 %480, 0
  %482 = load ptr, ptr %97, align 8, !tbaa !184
  %483 = icmp ne i32 %476, 1
  br label %484

484:                                              ; preds = %547, %477
  %485 = phi i64 [ %548, %547 ], [ 0, %477 ]
  %486 = shl nuw nsw i64 %485, 3
  %487 = getelementptr i8, ptr %475, i64 %486
  %488 = add nuw i64 %115, %486
  %489 = getelementptr i8, ptr %475, i64 %488
  %490 = trunc i64 %485 to i32
  %491 = getelementptr inbounds double, ptr %474, i64 %485
  %492 = load double, ptr %491, align 8, !tbaa !133
  %493 = load ptr, ptr %94, align 8
  %494 = trunc i64 %485 to i32
  br i1 %98, label %495, label %546

495:                                              ; preds = %484
  %496 = xor i32 %490, -1
  %497 = icmp ult i32 %496, %119
  %498 = insertelement <4 x double> poison, double %492, i64 0
  %499 = shufflevector <4 x double> %498, <4 x double> poison, <4 x i32> zeroinitializer
  br label %550

500:                                              ; preds = %546, %517
  %501 = phi i64 [ %518, %517 ], [ 0, %546 ]
  %502 = trunc i64 %501 to i32
  %503 = mul i32 %476, %502
  %504 = add i32 %503, %494
  %505 = zext i32 %504 to i64
  %506 = getelementptr inbounds double, ptr %475, i64 %505
  %507 = load double, ptr %506, align 8, !tbaa !133
  %508 = getelementptr inbounds %"struct.std::pair.263", ptr %482, i64 %501
  %509 = load i64, ptr %508, align 4
  %510 = trunc i64 %509 to i32
  %511 = load ptr, ptr %11, align 8
  %512 = getelementptr inbounds %"class.dealii::Vector", ptr %511, i64 %485, i32 3
  %513 = and i64 %509, 4294967295
  %514 = load ptr, ptr %89, align 8
  %515 = load i32, ptr %88, align 8
  %516 = mul i32 %515, %502
  br label %520

517:                                              ; preds = %543
  %518 = add nuw nsw i64 %501, 1
  %519 = icmp eq i64 %518, %63
  br i1 %519, label %547, label %500

520:                                              ; preds = %543, %500
  %521 = phi i64 [ %544, %543 ], [ 0, %500 ]
  %522 = getelementptr inbounds %"struct.std::pair.263", ptr %482, i64 %521
  %523 = load i64, ptr %522, align 4
  %524 = trunc i64 %523 to i32
  %525 = icmp eq i32 %524, %510
  br i1 %525, label %526, label %543

526:                                              ; preds = %520
  %527 = trunc i64 %521 to i32
  %528 = mul i32 %476, %527
  %529 = add i32 %528, %494
  %530 = zext i32 %529 to i64
  %531 = getelementptr inbounds double, ptr %475, i64 %530
  %532 = load double, ptr %531, align 8, !tbaa !133
  %533 = fmul double %507, %532
  %534 = fmul double %492, %533
  %535 = load ptr, ptr %512, align 8, !tbaa !136
  %536 = getelementptr inbounds double, ptr %535, i64 %513
  %537 = load double, ptr %536, align 8, !tbaa !133
  %538 = add i32 %516, %527
  %539 = zext i32 %538 to i64
  %540 = getelementptr inbounds double, ptr %514, i64 %539
  %541 = load double, ptr %540, align 8, !tbaa !133
  %542 = call double @llvm.fmuladd.f64(double %534, double %537, double %541)
  store double %542, ptr %540, align 8, !tbaa !133
  br label %543

543:                                              ; preds = %526, %520
  %544 = add nuw nsw i64 %521, 1
  %545 = icmp eq i64 %544, %63
  br i1 %545, label %517, label %520

546:                                              ; preds = %484
  br i1 %481, label %698, label %500

547:                                              ; preds = %517, %746, %675
  %548 = add nuw nsw i64 %485, 1
  %549 = icmp eq i64 %548, %28
  br i1 %549, label %1641, label %484

550:                                              ; preds = %495, %675
  %551 = phi i64 [ %676, %675 ], [ 0, %495 ]
  %552 = trunc i64 %551 to i32
  br i1 %481, label %553, label %556

553:                                              ; preds = %550
  %554 = getelementptr inbounds i32, ptr %493, i64 %551
  %555 = load i32, ptr %554, align 4, !tbaa !59
  br label %556

556:                                              ; preds = %553, %550
  %557 = phi i32 [ %555, %553 ], [ %552, %550 ]
  %558 = mul i32 %476, %557
  %559 = add i32 %558, %494
  %560 = zext i32 %559 to i64
  %561 = getelementptr inbounds double, ptr %475, i64 %560
  %562 = load double, ptr %561, align 8, !tbaa !133
  %563 = getelementptr inbounds %"struct.std::pair.263", ptr %482, i64 %551
  %564 = load i64, ptr %563, align 4
  %565 = load ptr, ptr %94, align 8
  %566 = load ptr, ptr %11, align 8
  %567 = getelementptr inbounds %"class.dealii::Vector", ptr %566, i64 %485, i32 3
  %568 = and i64 %564, 4294967295
  %569 = load ptr, ptr %89, align 8
  %570 = load i32, ptr %88, align 8
  %571 = mul i32 %570, %552
  %572 = load ptr, ptr %567, align 8, !tbaa !136
  %573 = getelementptr double, ptr %572, i64 %568
  br i1 %481, label %678, label %574

574:                                              ; preds = %556
  br i1 %116, label %620, label %575

575:                                              ; preds = %574
  %576 = xor i32 %571, -1
  %577 = icmp ult i32 %576, %117
  %578 = or i1 %577, %118
  %579 = or i1 %483, %578
  %580 = or i1 %497, %579
  br i1 %580, label %620, label %581

581:                                              ; preds = %575
  %582 = getelementptr i8, ptr %572, i64 8
  %583 = shl nuw nsw i64 %568, 3
  %584 = getelementptr i8, ptr %582, i64 %583
  %585 = zext i32 %571 to i64
  %586 = shl nuw nsw i64 %585, 3
  %587 = getelementptr i8, ptr %569, i64 %586
  %588 = getelementptr i8, ptr %569, i64 %115
  %589 = getelementptr i8, ptr %588, i64 %586
  %590 = icmp ult ptr %573, %589
  %591 = icmp ult ptr %587, %584
  %592 = and i1 %590, %591
  %593 = icmp ult ptr %587, %489
  %594 = icmp ult ptr %487, %589
  %595 = and i1 %593, %594
  %596 = or i1 %592, %595
  br i1 %596, label %620, label %597

597:                                              ; preds = %581
  %598 = insertelement <4 x double> poison, double %562, i64 0
  %599 = shufflevector <4 x double> %598, <4 x double> poison, <4 x i32> zeroinitializer
  %600 = load double, ptr %573, align 8, !tbaa !133, !alias.scope !196, !noalias !199
  %601 = insertelement <4 x double> poison, double %600, i64 0
  %602 = shufflevector <4 x double> %601, <4 x double> poison, <4 x i32> zeroinitializer
  br label %603

603:                                              ; preds = %603, %597
  %604 = phi i64 [ 0, %597 ], [ %617, %603 ]
  %605 = trunc i64 %604 to i32
  %606 = add i64 %604, %485
  %607 = and i64 %606, 4294967295
  %608 = getelementptr inbounds double, ptr %475, i64 %607
  %609 = load <4 x double>, ptr %608, align 8, !tbaa !133, !alias.scope !201
  %610 = fmul <4 x double> %599, %609
  %611 = fmul <4 x double> %499, %610
  %612 = add i32 %571, %605
  %613 = zext i32 %612 to i64
  %614 = getelementptr inbounds double, ptr %569, i64 %613
  %615 = load <4 x double>, ptr %614, align 8, !tbaa !133, !alias.scope !199, !noalias !201
  %616 = call <4 x double> @llvm.fmuladd.v4f64(<4 x double> %611, <4 x double> %602, <4 x double> %615)
  store <4 x double> %616, ptr %614, align 8, !tbaa !133, !alias.scope !199, !noalias !201
  %617 = add nuw i64 %604, 4
  %618 = icmp eq i64 %617, %120
  br i1 %618, label %619, label %603, !llvm.loop !203

619:                                              ; preds = %603
  br i1 %121, label %675, label %620

620:                                              ; preds = %581, %575, %574, %619
  %621 = phi i64 [ 0, %581 ], [ 0, %575 ], [ 0, %574 ], [ %120, %619 ]
  %622 = xor i64 %621, -1
  br i1 %123, label %639, label %623

623:                                              ; preds = %620
  %624 = trunc i64 %621 to i32
  %625 = mul i32 %476, %624
  %626 = add i32 %625, %494
  %627 = zext i32 %626 to i64
  %628 = getelementptr inbounds double, ptr %475, i64 %627
  %629 = load double, ptr %628, align 8, !tbaa !133
  %630 = fmul double %562, %629
  %631 = fmul double %492, %630
  %632 = load double, ptr %573, align 8, !tbaa !133
  %633 = add i32 %571, %624
  %634 = zext i32 %633 to i64
  %635 = getelementptr inbounds double, ptr %569, i64 %634
  %636 = load double, ptr %635, align 8, !tbaa !133
  %637 = call double @llvm.fmuladd.f64(double %631, double %632, double %636)
  store double %637, ptr %635, align 8, !tbaa !133
  %638 = or i64 %621, 1
  br label %639

639:                                              ; preds = %623, %620
  %640 = phi i64 [ %621, %620 ], [ %638, %623 ]
  %641 = icmp eq i64 %622, %124
  br i1 %641, label %675, label %642

642:                                              ; preds = %639, %642
  %643 = phi i64 [ %673, %642 ], [ %640, %639 ]
  %644 = trunc i64 %643 to i32
  %645 = mul i32 %476, %644
  %646 = add i32 %645, %494
  %647 = zext i32 %646 to i64
  %648 = getelementptr inbounds double, ptr %475, i64 %647
  %649 = load double, ptr %648, align 8, !tbaa !133
  %650 = fmul double %562, %649
  %651 = fmul double %492, %650
  %652 = load double, ptr %573, align 8, !tbaa !133
  %653 = add i32 %571, %644
  %654 = zext i32 %653 to i64
  %655 = getelementptr inbounds double, ptr %569, i64 %654
  %656 = load double, ptr %655, align 8, !tbaa !133
  %657 = call double @llvm.fmuladd.f64(double %651, double %652, double %656)
  store double %657, ptr %655, align 8, !tbaa !133
  %658 = trunc i64 %643 to i32
  %659 = add i32 %658, 1
  %660 = mul i32 %476, %659
  %661 = add i32 %660, %494
  %662 = zext i32 %661 to i64
  %663 = getelementptr inbounds double, ptr %475, i64 %662
  %664 = load double, ptr %663, align 8, !tbaa !133
  %665 = fmul double %562, %664
  %666 = fmul double %492, %665
  %667 = load double, ptr %573, align 8, !tbaa !133
  %668 = add i32 %571, %659
  %669 = zext i32 %668 to i64
  %670 = getelementptr inbounds double, ptr %569, i64 %669
  %671 = load double, ptr %670, align 8, !tbaa !133
  %672 = call double @llvm.fmuladd.f64(double %666, double %667, double %671)
  store double %672, ptr %670, align 8, !tbaa !133
  %673 = add nuw nsw i64 %643, 2
  %674 = icmp eq i64 %673, %63
  br i1 %674, label %675, label %642, !llvm.loop !204

675:                                              ; preds = %639, %642, %678, %619
  %676 = add nuw nsw i64 %551, 1
  %677 = icmp eq i64 %676, %63
  br i1 %677, label %547, label %550

678:                                              ; preds = %556, %678
  %679 = phi i64 [ %696, %678 ], [ 0, %556 ]
  %680 = getelementptr inbounds i32, ptr %565, i64 %679
  %681 = load i32, ptr %680, align 4, !tbaa !59
  %682 = mul i32 %681, %476
  %683 = add i32 %682, %494
  %684 = zext i32 %683 to i64
  %685 = getelementptr inbounds double, ptr %475, i64 %684
  %686 = load double, ptr %685, align 8, !tbaa !133
  %687 = fmul double %562, %686
  %688 = fmul double %492, %687
  %689 = load double, ptr %573, align 8, !tbaa !133
  %690 = trunc i64 %679 to i32
  %691 = add i32 %571, %690
  %692 = zext i32 %691 to i64
  %693 = getelementptr inbounds double, ptr %569, i64 %692
  %694 = load double, ptr %693, align 8, !tbaa !133
  %695 = call double @llvm.fmuladd.f64(double %688, double %689, double %694)
  store double %695, ptr %693, align 8, !tbaa !133
  %696 = add nuw nsw i64 %679, 1
  %697 = icmp eq i64 %696, %63
  br i1 %697, label %675, label %678

698:                                              ; preds = %546, %746
  %699 = phi i64 [ %747, %746 ], [ 0, %546 ]
  %700 = getelementptr inbounds i32, ptr %493, i64 %699
  %701 = load i32, ptr %700, align 4, !tbaa !59
  %702 = mul i32 %476, %701
  %703 = add i32 %702, %494
  %704 = zext i32 %703 to i64
  %705 = getelementptr inbounds double, ptr %475, i64 %704
  %706 = load double, ptr %705, align 8, !tbaa !133
  %707 = getelementptr inbounds %"struct.std::pair.263", ptr %482, i64 %699
  %708 = load i64, ptr %707, align 4
  %709 = trunc i64 %708 to i32
  %710 = load ptr, ptr %94, align 8
  %711 = load ptr, ptr %11, align 8
  %712 = getelementptr inbounds %"class.dealii::Vector", ptr %711, i64 %485, i32 3
  %713 = and i64 %708, 4294967295
  %714 = load ptr, ptr %89, align 8
  %715 = load i32, ptr %88, align 8
  %716 = trunc i64 %699 to i32
  %717 = mul i32 %715, %716
  br label %718

718:                                              ; preds = %743, %698
  %719 = phi i64 [ %744, %743 ], [ 0, %698 ]
  %720 = getelementptr inbounds %"struct.std::pair.263", ptr %482, i64 %719
  %721 = load i64, ptr %720, align 4
  %722 = trunc i64 %721 to i32
  %723 = icmp eq i32 %722, %709
  br i1 %723, label %724, label %743

724:                                              ; preds = %718
  %725 = getelementptr inbounds i32, ptr %710, i64 %719
  %726 = load i32, ptr %725, align 4, !tbaa !59
  %727 = mul i32 %726, %476
  %728 = add i32 %727, %494
  %729 = zext i32 %728 to i64
  %730 = getelementptr inbounds double, ptr %475, i64 %729
  %731 = load double, ptr %730, align 8, !tbaa !133
  %732 = fmul double %706, %731
  %733 = fmul double %492, %732
  %734 = load ptr, ptr %712, align 8, !tbaa !136
  %735 = getelementptr inbounds double, ptr %734, i64 %713
  %736 = load double, ptr %735, align 8, !tbaa !133
  %737 = trunc i64 %719 to i32
  %738 = add i32 %717, %737
  %739 = zext i32 %738 to i64
  %740 = getelementptr inbounds double, ptr %714, i64 %739
  %741 = load double, ptr %740, align 8, !tbaa !133
  %742 = call double @llvm.fmuladd.f64(double %733, double %736, double %741)
  store double %742, ptr %740, align 8, !tbaa !133
  br label %743

743:                                              ; preds = %724, %718
  %744 = add nuw nsw i64 %719, 1
  %745 = icmp eq i64 %744, %63
  br i1 %745, label %746, label %718

746:                                              ; preds = %743
  %747 = add nuw nsw i64 %699, 1
  %748 = icmp eq i64 %747, %63
  br i1 %748, label %547, label %698

749:                                              ; preds = %469
  br i1 %29, label %1641, label %750

750:                                              ; preds = %749
  %751 = load ptr, ptr %93, align 8, !tbaa !131
  br i1 %64, label %1641, label %752

752:                                              ; preds = %750, %756
  %753 = phi i64 [ %757, %756 ], [ 0, %750 ]
  %754 = getelementptr inbounds double, ptr %751, i64 %753
  %755 = load double, ptr %754, align 8, !tbaa !133
  br i1 %42, label %756, label %759

756:                                              ; preds = %1012, %752
  %757 = add nuw nsw i64 %753, 1
  %758 = icmp eq i64 %757, %28
  br i1 %758, label %1641, label %752

759:                                              ; preds = %752
  %760 = load ptr, ptr %99, align 8, !tbaa !205
  %761 = trunc i64 %753 to i32
  %762 = trunc i64 %753 to i32
  %763 = trunc i64 %753 to i32
  br label %764

764:                                              ; preds = %1012, %759
  %765 = phi i64 [ %1013, %1012 ], [ 0, %759 ]
  %766 = getelementptr inbounds %"class.std::vector.126", ptr %760, i64 %765
  %767 = load ptr, ptr %766, align 8, !tbaa !54
  %768 = load ptr, ptr %23, align 8
  %769 = getelementptr inbounds %"class.dealii::FiniteElement", ptr %768, i64 0, i32 2
  %770 = getelementptr inbounds %"class.dealii::FiniteElement", ptr %768, i64 0, i32 20
  %771 = getelementptr inbounds %"class.dealii::FiniteElement", ptr %768, i64 0, i32 19
  %772 = load ptr, ptr %94, align 8
  %773 = getelementptr inbounds i32, ptr %772, i64 %765
  %774 = getelementptr inbounds %"class.dealii::FiniteElement", ptr %768, i64 0, i32 12
  %775 = load ptr, ptr %95, align 8
  %776 = load i32, ptr %96, align 8
  %777 = trunc i64 %765 to i32
  %778 = trunc i64 %765 to i32
  br label %779

779:                                              ; preds = %893, %764
  %780 = phi i64 [ %894, %893 ], [ 0, %764 ]
  %781 = trunc i64 %780 to i32
  %782 = lshr i64 %780, 6
  %783 = and i64 %782, 67108863
  %784 = getelementptr inbounds i64, ptr %767, i64 %783
  %785 = and i32 %781, 63
  %786 = and i64 %780, 63
  %787 = shl nuw i64 1, %786
  %788 = load i64, ptr %784, align 8, !tbaa !56
  %789 = and i64 %788, %787
  %790 = icmp eq i64 %789, 0
  br i1 %790, label %893, label %791

791:                                              ; preds = %779
  %792 = load i8, ptr %769, align 4, !tbaa !148, !range !182, !noundef !183
  %793 = icmp eq i8 %792, 0
  br i1 %793, label %794, label %832

794:                                              ; preds = %791
  %795 = load ptr, ptr %770, align 8, !tbaa !144
  %796 = getelementptr inbounds i32, ptr %795, i64 %765
  %797 = load i32, ptr %796, align 4, !tbaa !59
  %798 = icmp eq i32 %797, 1
  br i1 %798, label %832, label %799

799:                                              ; preds = %794
  %800 = load ptr, ptr %771, align 8, !tbaa !205
  %801 = getelementptr inbounds %"class.std::vector.126", ptr %800, i64 %765
  %802 = load ptr, ptr %801, align 8, !tbaa !54
  %803 = getelementptr inbounds i64, ptr %802, i64 %783
  %804 = load i64, ptr %803, align 8, !tbaa !56
  %805 = and i64 %804, %787
  %806 = icmp eq i64 %805, 0
  br i1 %806, label %849, label %807

807:                                              ; preds = %799
  %808 = load i32, ptr %773, align 4, !tbaa !59
  %809 = icmp eq i64 %780, 0
  br i1 %809, label %829, label %810

810:                                              ; preds = %807, %810
  %811 = phi i64 [ %818, %810 ], [ 0, %807 ]
  %812 = phi i32 [ %823, %810 ], [ 0, %807 ]
  %813 = phi ptr [ %822, %810 ], [ %802, %807 ]
  %814 = zext i32 %812 to i64
  %815 = load i64, ptr %813, align 8, !tbaa !56
  %816 = lshr i64 %815, %814
  %817 = and i64 %816, 1
  %818 = add nuw nsw i64 %817, %811
  %819 = add i32 %812, 1
  %820 = icmp eq i32 %812, 63
  %821 = zext i1 %820 to i64
  %822 = getelementptr inbounds i64, ptr %813, i64 %821
  %823 = select i1 %820, i32 0, i32 %819
  %824 = icmp ne ptr %822, %803
  %825 = icmp ne i32 %823, %785
  %826 = or i1 %825, %824
  br i1 %826, label %810, label %827

827:                                              ; preds = %810
  %828 = trunc i64 %818 to i32
  br label %829

829:                                              ; preds = %827, %807
  %830 = phi i32 [ 0, %807 ], [ %828, %827 ]
  %831 = add i32 %830, %808
  br label %840

832:                                              ; preds = %794, %791
  %833 = load ptr, ptr %774, align 8, !tbaa !184
  %834 = getelementptr inbounds %"struct.std::pair.263", ptr %833, i64 %765
  %835 = load i64, ptr %834, align 4
  %836 = and i64 %835, 4294967295
  %837 = icmp eq i64 %780, %836
  br i1 %837, label %838, label %847

838:                                              ; preds = %832
  %839 = load i32, ptr %773, align 4, !tbaa !59
  br label %840

840:                                              ; preds = %838, %829
  %841 = phi i32 [ %831, %829 ], [ %839, %838 ]
  %842 = mul i32 %776, %841
  %843 = add i32 %842, %761
  %844 = zext i32 %843 to i64
  %845 = getelementptr inbounds double, ptr %775, i64 %844
  %846 = load double, ptr %845, align 8, !tbaa !133
  br label %847

847:                                              ; preds = %840, %832
  %848 = phi double [ 0.000000e+00, %832 ], [ %846, %840 ]
  br i1 %793, label %849, label %896

849:                                              ; preds = %799, %847
  %850 = phi double [ %848, %847 ], [ 0.000000e+00, %799 ]
  br label %913

851:                                              ; preds = %890
  %852 = add nuw nsw i64 %897, 1
  %853 = icmp eq i64 %852, %63
  br i1 %853, label %893, label %896

854:                                              ; preds = %896, %890
  %855 = phi i32 [ 0, %896 ], [ %891, %890 ]
  %856 = lshr i32 %855, 6
  %857 = zext i32 %856 to i64
  %858 = getelementptr inbounds i64, ptr %899, i64 %857
  %859 = and i32 %855, 63
  %860 = zext i32 %859 to i64
  %861 = shl nuw i64 1, %860
  %862 = load i64, ptr %858, align 8, !tbaa !56
  %863 = and i64 %862, %861
  %864 = icmp eq i64 %863, 0
  br i1 %864, label %890, label %865

865:                                              ; preds = %854
  %866 = load ptr, ptr %774, align 8, !tbaa !184
  %867 = getelementptr inbounds %"struct.std::pair.263", ptr %866, i64 %897
  %868 = load i64, ptr %867, align 4
  %869 = trunc i64 %868 to i32
  %870 = icmp eq i32 %855, %869
  br i1 %870, label %871, label %878

871:                                              ; preds = %865
  %872 = load i32, ptr %901, align 4, !tbaa !59
  %873 = mul i32 %903, %872
  %874 = add i32 %873, %762
  %875 = zext i32 %874 to i64
  %876 = getelementptr inbounds double, ptr %902, i64 %875
  %877 = load double, ptr %876, align 8, !tbaa !133
  br label %878

878:                                              ; preds = %871, %865
  %879 = phi double [ 0.000000e+00, %865 ], [ %877, %871 ]
  %880 = zext i32 %855 to i64
  %881 = icmp eq i64 %780, %880
  br i1 %881, label %882, label %890

882:                                              ; preds = %878
  %883 = fmul double %848, %879
  %884 = fmul double %755, %883
  %885 = load ptr, ptr %905, align 8, !tbaa !136
  %886 = getelementptr inbounds double, ptr %885, i64 %780
  %887 = load double, ptr %886, align 8, !tbaa !133
  %888 = load double, ptr %912, align 8, !tbaa !133
  %889 = call double @llvm.fmuladd.f64(double %884, double %887, double %888)
  store double %889, ptr %912, align 8, !tbaa !133
  br label %890

890:                                              ; preds = %882, %878, %854
  %891 = add nuw i32 %855, 1
  %892 = icmp eq i32 %891, %26
  br i1 %892, label %851, label %854

893:                                              ; preds = %851, %1009, %779
  %894 = add nuw nsw i64 %780, 1
  %895 = icmp eq i64 %894, %107
  br i1 %895, label %1012, label %779

896:                                              ; preds = %847, %851
  %897 = phi i64 [ %852, %851 ], [ 0, %847 ]
  %898 = getelementptr inbounds %"class.std::vector.126", ptr %760, i64 %897
  %899 = load ptr, ptr %898, align 8, !tbaa !54
  %900 = load ptr, ptr %94, align 8
  %901 = getelementptr inbounds i32, ptr %900, i64 %897
  %902 = load ptr, ptr %95, align 8
  %903 = load i32, ptr %96, align 8
  %904 = load ptr, ptr %11, align 8
  %905 = getelementptr inbounds %"class.dealii::Vector", ptr %904, i64 %753, i32 3
  %906 = load ptr, ptr %89, align 8
  %907 = load i32, ptr %88, align 8
  %908 = mul i32 %907, %777
  %909 = trunc i64 %897 to i32
  %910 = add i32 %908, %909
  %911 = zext i32 %910 to i64
  %912 = getelementptr inbounds double, ptr %906, i64 %911
  br label %854

913:                                              ; preds = %849, %1009
  %914 = phi i64 [ 0, %849 ], [ %1010, %1009 ]
  %915 = getelementptr inbounds %"class.std::vector.126", ptr %760, i64 %914
  %916 = load ptr, ptr %915, align 8, !tbaa !54
  %917 = load ptr, ptr %94, align 8
  %918 = getelementptr inbounds i32, ptr %917, i64 %914
  %919 = load ptr, ptr %95, align 8
  %920 = load i32, ptr %96, align 8
  %921 = load ptr, ptr %11, align 8
  %922 = getelementptr inbounds %"class.dealii::Vector", ptr %921, i64 %753, i32 3
  %923 = load ptr, ptr %89, align 8
  %924 = load i32, ptr %88, align 8
  %925 = mul i32 %924, %778
  %926 = trunc i64 %914 to i32
  %927 = add i32 %925, %926
  %928 = zext i32 %927 to i64
  %929 = getelementptr inbounds double, ptr %923, i64 %928
  br label %930

930:                                              ; preds = %1006, %913
  %931 = phi i32 [ 0, %913 ], [ %1007, %1006 ]
  %932 = lshr i32 %931, 6
  %933 = zext i32 %932 to i64
  %934 = getelementptr inbounds i64, ptr %916, i64 %933
  %935 = and i32 %931, 63
  %936 = zext i32 %935 to i64
  %937 = shl nuw i64 1, %936
  %938 = load i64, ptr %934, align 8, !tbaa !56
  %939 = and i64 %938, %937
  %940 = icmp eq i64 %939, 0
  br i1 %940, label %1006, label %941

941:                                              ; preds = %930
  %942 = load ptr, ptr %770, align 8, !tbaa !144
  %943 = getelementptr inbounds i32, ptr %942, i64 %914
  %944 = load i32, ptr %943, align 4, !tbaa !59
  %945 = icmp eq i32 %944, 1
  br i1 %945, label %979, label %946

946:                                              ; preds = %941
  %947 = load ptr, ptr %771, align 8, !tbaa !205
  %948 = getelementptr inbounds %"class.std::vector.126", ptr %947, i64 %914
  %949 = load ptr, ptr %948, align 8, !tbaa !54
  %950 = getelementptr inbounds i64, ptr %949, i64 %933
  %951 = load i64, ptr %950, align 8, !tbaa !56
  %952 = and i64 %951, %937
  %953 = icmp eq i64 %952, 0
  br i1 %953, label %994, label %954

954:                                              ; preds = %946
  %955 = load i32, ptr %918, align 4, !tbaa !59
  %956 = icmp eq i32 %931, 0
  br i1 %956, label %976, label %957

957:                                              ; preds = %954, %957
  %958 = phi i64 [ %965, %957 ], [ 0, %954 ]
  %959 = phi i32 [ %970, %957 ], [ 0, %954 ]
  %960 = phi ptr [ %969, %957 ], [ %949, %954 ]
  %961 = zext i32 %959 to i64
  %962 = load i64, ptr %960, align 8, !tbaa !56
  %963 = lshr i64 %962, %961
  %964 = and i64 %963, 1
  %965 = add nuw nsw i64 %964, %958
  %966 = add i32 %959, 1
  %967 = icmp eq i32 %959, 63
  %968 = zext i1 %967 to i64
  %969 = getelementptr inbounds i64, ptr %960, i64 %968
  %970 = select i1 %967, i32 0, i32 %966
  %971 = icmp ne ptr %969, %950
  %972 = icmp ne i32 %970, %935
  %973 = or i1 %972, %971
  br i1 %973, label %957, label %974

974:                                              ; preds = %957
  %975 = trunc i64 %965 to i32
  br label %976

976:                                              ; preds = %974, %954
  %977 = phi i32 [ 0, %954 ], [ %975, %974 ]
  %978 = add i32 %977, %955
  br label %987

979:                                              ; preds = %941
  %980 = load ptr, ptr %774, align 8, !tbaa !184
  %981 = getelementptr inbounds %"struct.std::pair.263", ptr %980, i64 %914
  %982 = load i64, ptr %981, align 4
  %983 = trunc i64 %982 to i32
  %984 = icmp eq i32 %931, %983
  br i1 %984, label %985, label %994

985:                                              ; preds = %979
  %986 = load i32, ptr %918, align 4, !tbaa !59
  br label %987

987:                                              ; preds = %985, %976
  %988 = phi i32 [ %978, %976 ], [ %986, %985 ]
  %989 = mul i32 %920, %988
  %990 = add i32 %989, %763
  %991 = zext i32 %990 to i64
  %992 = getelementptr inbounds double, ptr %919, i64 %991
  %993 = load double, ptr %992, align 8, !tbaa !133
  br label %994

994:                                              ; preds = %987, %979, %946
  %995 = phi double [ 0.000000e+00, %979 ], [ 0.000000e+00, %946 ], [ %993, %987 ]
  %996 = zext i32 %931 to i64
  %997 = icmp eq i64 %780, %996
  br i1 %997, label %998, label %1006

998:                                              ; preds = %994
  %999 = fmul double %850, %995
  %1000 = fmul double %755, %999
  %1001 = load ptr, ptr %922, align 8, !tbaa !136
  %1002 = getelementptr inbounds double, ptr %1001, i64 %780
  %1003 = load double, ptr %1002, align 8, !tbaa !133
  %1004 = load double, ptr %929, align 8, !tbaa !133
  %1005 = call double @llvm.fmuladd.f64(double %1000, double %1003, double %1004)
  store double %1005, ptr %929, align 8, !tbaa !133
  br label %1006

1006:                                             ; preds = %998, %994, %930
  %1007 = add nuw i32 %931, 1
  %1008 = icmp eq i32 %1007, %26
  br i1 %1008, label %1009, label %930

1009:                                             ; preds = %1006
  %1010 = add nuw nsw i64 %914, 1
  %1011 = icmp eq i64 %1010, %63
  br i1 %1011, label %893, label %913

1012:                                             ; preds = %893
  %1013 = add nuw nsw i64 %765, 1
  %1014 = icmp eq i64 %1013, %63
  br i1 %1014, label %756, label %764

1015:                                             ; preds = %193
  %1016 = load i8, ptr %92, align 4, !tbaa !148, !range !182, !noundef !183
  %1017 = icmp eq i8 %1016, 0
  br i1 %1017, label %1027, label %1018

1018:                                             ; preds = %1015
  br i1 %29, label %1641, label %1019

1019:                                             ; preds = %1018
  %1020 = load ptr, ptr %93, align 8, !tbaa !131
  %1021 = load ptr, ptr %23, align 8
  %1022 = getelementptr inbounds %"class.dealii::FiniteElement", ptr %1021, i64 0, i32 2
  %1023 = load ptr, ptr %95, align 8
  %1024 = load i32, ptr %96, align 8
  %1025 = icmp ne i32 %1024, 1
  %1026 = icmp ne i32 %1024, 1
  br label %1030

1027:                                             ; preds = %1015
  br i1 %29, label %1641, label %1028

1028:                                             ; preds = %1027
  %1029 = load ptr, ptr %93, align 8, !tbaa !131
  br label %1397

1030:                                             ; preds = %1019, %1394
  %1031 = phi i64 [ 0, %1019 ], [ %1395, %1394 ]
  %1032 = shl nuw nsw i64 %1031, 3
  %1033 = getelementptr i8, ptr %1023, i64 %1032
  %1034 = add nuw i64 %111, %1032
  %1035 = getelementptr i8, ptr %1023, i64 %1034
  %1036 = trunc i64 %1031 to i32
  %1037 = shl nuw nsw i64 %1031, 3
  %1038 = getelementptr i8, ptr %1023, i64 %1037
  %1039 = add nuw i64 %109, %1037
  %1040 = getelementptr i8, ptr %1023, i64 %1039
  %1041 = trunc i64 %1031 to i32
  %1042 = getelementptr inbounds double, ptr %1020, i64 %1031
  %1043 = load double, ptr %1042, align 8, !tbaa !133
  br i1 %64, label %1394, label %1044

1044:                                             ; preds = %1030
  %1045 = load i8, ptr %1022, align 4, !tbaa !148, !range !182, !noundef !183
  %1046 = icmp eq i8 %1045, 0
  %1047 = load ptr, ptr %94, align 8
  %1048 = trunc i64 %1031 to i32
  br i1 %98, label %1049, label %1249

1049:                                             ; preds = %1044
  %1050 = trunc i64 %1031 to i32
  %1051 = xor i32 %1041, -1
  %1052 = icmp ult i32 %1051, %143
  %1053 = insertelement <4 x double> poison, double %1043, i64 0
  %1054 = shufflevector <4 x double> %1053, <4 x double> poison, <4 x i32> zeroinitializer
  %1055 = insertelement <4 x double> poison, double %1043, i64 0
  %1056 = shufflevector <4 x double> %1055, <4 x double> poison, <4 x i32> zeroinitializer
  %1057 = insertelement <4 x double> poison, double %1043, i64 0
  %1058 = shufflevector <4 x double> %1057, <4 x double> poison, <4 x i32> zeroinitializer
  %1059 = insertelement <4 x double> poison, double %1043, i64 0
  %1060 = shufflevector <4 x double> %1059, <4 x double> poison, <4 x i32> zeroinitializer
  br label %1061

1061:                                             ; preds = %1049, %1211
  %1062 = phi i64 [ 0, %1049 ], [ %1212, %1211 ]
  %1063 = trunc i64 %1062 to i32
  %1064 = mul i32 %157, %1063
  %1065 = zext i32 %1064 to i64
  %1066 = shl nuw nsw i64 %1065, 3
  %1067 = trunc i64 %1062 to i32
  %1068 = mul i32 %157, %1067
  %1069 = trunc i64 %1062 to i32
  br i1 %1046, label %1154, label %1070

1070:                                             ; preds = %1061
  %1071 = mul i32 %1024, %1069
  %1072 = add i32 %1071, %1050
  %1073 = zext i32 %1072 to i64
  %1074 = getelementptr inbounds double, ptr %1023, i64 %1073
  %1075 = load double, ptr %1074, align 8, !tbaa !133
  %1076 = load ptr, ptr %89, align 8
  %1077 = mul i32 %157, %1069
  br i1 %140, label %1134, label %1078

1078:                                             ; preds = %1070
  %1079 = xor i32 %1068, -1
  %1080 = icmp ult i32 %1079, %141
  %1081 = or i1 %1080, %142
  %1082 = or i1 %1026, %1081
  %1083 = or i1 %1052, %1082
  br i1 %1083, label %1134, label %1084

1084:                                             ; preds = %1078
  %1085 = getelementptr i8, ptr %1076, i64 %1066
  %1086 = getelementptr i8, ptr %1076, i64 %109
  %1087 = getelementptr i8, ptr %1086, i64 %1066
  %1088 = icmp ult ptr %1085, %1040
  %1089 = icmp ult ptr %1038, %1087
  %1090 = and i1 %1088, %1089
  br i1 %1090, label %1134, label %1091

1091:                                             ; preds = %1084
  %1092 = insertelement <4 x double> poison, double %1075, i64 0
  %1093 = shufflevector <4 x double> %1092, <4 x double> poison, <4 x i32> zeroinitializer
  %1094 = insertelement <4 x double> poison, double %1075, i64 0
  %1095 = shufflevector <4 x double> %1094, <4 x double> poison, <4 x i32> zeroinitializer
  %1096 = insertelement <4 x double> poison, double %1075, i64 0
  %1097 = shufflevector <4 x double> %1096, <4 x double> poison, <4 x i32> zeroinitializer
  %1098 = insertelement <4 x double> poison, double %1075, i64 0
  %1099 = shufflevector <4 x double> %1098, <4 x double> poison, <4 x i32> zeroinitializer
  br label %1100

1100:                                             ; preds = %1100, %1091
  %1101 = phi i64 [ 0, %1091 ], [ %1131, %1100 ]
  %1102 = trunc i64 %1101 to i32
  %1103 = add i64 %1101, %1031
  %1104 = and i64 %1103, 4294967295
  %1105 = getelementptr inbounds double, ptr %1023, i64 %1104
  %1106 = load <4 x double>, ptr %1105, align 8, !tbaa !133, !alias.scope !206
  %1107 = getelementptr inbounds double, ptr %1105, i64 4
  %1108 = load <4 x double>, ptr %1107, align 8, !tbaa !133, !alias.scope !206
  %1109 = getelementptr inbounds double, ptr %1105, i64 8
  %1110 = load <4 x double>, ptr %1109, align 8, !tbaa !133, !alias.scope !206
  %1111 = getelementptr inbounds double, ptr %1105, i64 12
  %1112 = load <4 x double>, ptr %1111, align 8, !tbaa !133, !alias.scope !206
  %1113 = fmul <4 x double> %1093, %1106
  %1114 = fmul <4 x double> %1095, %1108
  %1115 = fmul <4 x double> %1097, %1110
  %1116 = fmul <4 x double> %1099, %1112
  %1117 = add i32 %1077, %1102
  %1118 = zext i32 %1117 to i64
  %1119 = getelementptr inbounds double, ptr %1076, i64 %1118
  %1120 = load <4 x double>, ptr %1119, align 8, !tbaa !133, !alias.scope !209, !noalias !206
  %1121 = getelementptr inbounds double, ptr %1119, i64 4
  %1122 = load <4 x double>, ptr %1121, align 8, !tbaa !133, !alias.scope !209, !noalias !206
  %1123 = getelementptr inbounds double, ptr %1119, i64 8
  %1124 = load <4 x double>, ptr %1123, align 8, !tbaa !133, !alias.scope !209, !noalias !206
  %1125 = getelementptr inbounds double, ptr %1119, i64 12
  %1126 = load <4 x double>, ptr %1125, align 8, !tbaa !133, !alias.scope !209, !noalias !206
  %1127 = call <4 x double> @llvm.fmuladd.v4f64(<4 x double> %1113, <4 x double> %1054, <4 x double> %1120)
  %1128 = call <4 x double> @llvm.fmuladd.v4f64(<4 x double> %1114, <4 x double> %1056, <4 x double> %1122)
  %1129 = call <4 x double> @llvm.fmuladd.v4f64(<4 x double> %1115, <4 x double> %1058, <4 x double> %1124)
  %1130 = call <4 x double> @llvm.fmuladd.v4f64(<4 x double> %1116, <4 x double> %1060, <4 x double> %1126)
  store <4 x double> %1127, ptr %1119, align 8, !tbaa !133, !alias.scope !209, !noalias !206
  store <4 x double> %1128, ptr %1121, align 8, !tbaa !133, !alias.scope !209, !noalias !206
  store <4 x double> %1129, ptr %1123, align 8, !tbaa !133, !alias.scope !209, !noalias !206
  store <4 x double> %1130, ptr %1125, align 8, !tbaa !133, !alias.scope !209, !noalias !206
  %1131 = add nuw i64 %1101, 16
  %1132 = icmp eq i64 %1131, %144
  br i1 %1132, label %1133, label %1100, !llvm.loop !211

1133:                                             ; preds = %1100
  br i1 %145, label %1211, label %1134

1134:                                             ; preds = %1084, %1078, %1070, %1133
  %1135 = phi i64 [ 0, %1084 ], [ 0, %1078 ], [ 0, %1070 ], [ %144, %1133 ]
  %1136 = xor i64 %1135, -1
  br i1 %147, label %1151, label %1137

1137:                                             ; preds = %1134
  %1138 = trunc i64 %1135 to i32
  %1139 = mul i32 %1024, %1138
  %1140 = add i32 %1139, %1050
  %1141 = zext i32 %1140 to i64
  %1142 = getelementptr inbounds double, ptr %1023, i64 %1141
  %1143 = load double, ptr %1142, align 8, !tbaa !133
  %1144 = fmul double %1075, %1143
  %1145 = add i32 %1077, %1138
  %1146 = zext i32 %1145 to i64
  %1147 = getelementptr inbounds double, ptr %1076, i64 %1146
  %1148 = load double, ptr %1147, align 8, !tbaa !133
  %1149 = call double @llvm.fmuladd.f64(double %1144, double %1043, double %1148)
  store double %1149, ptr %1147, align 8, !tbaa !133
  %1150 = or i64 %1135, 1
  br label %1151

1151:                                             ; preds = %1137, %1134
  %1152 = phi i64 [ %1135, %1134 ], [ %1150, %1137 ]
  %1153 = icmp eq i64 %1136, %148
  br i1 %1153, label %1211, label %1165

1154:                                             ; preds = %1061
  %1155 = getelementptr inbounds i32, ptr %1047, i64 %1062
  %1156 = load i32, ptr %1155, align 4, !tbaa !59
  %1157 = mul i32 %1024, %1156
  %1158 = add i32 %1157, %1048
  %1159 = zext i32 %1158 to i64
  %1160 = getelementptr inbounds double, ptr %1023, i64 %1159
  %1161 = load double, ptr %1160, align 8, !tbaa !133
  %1162 = load ptr, ptr %94, align 8
  %1163 = load ptr, ptr %89, align 8
  %1164 = mul i32 %157, %1069
  br i1 %150, label %1194, label %1214

1165:                                             ; preds = %1151, %1165
  %1166 = phi i64 [ %1192, %1165 ], [ %1152, %1151 ]
  %1167 = trunc i64 %1166 to i32
  %1168 = mul i32 %1024, %1167
  %1169 = add i32 %1168, %1050
  %1170 = zext i32 %1169 to i64
  %1171 = getelementptr inbounds double, ptr %1023, i64 %1170
  %1172 = load double, ptr %1171, align 8, !tbaa !133
  %1173 = fmul double %1075, %1172
  %1174 = add i32 %1077, %1167
  %1175 = zext i32 %1174 to i64
  %1176 = getelementptr inbounds double, ptr %1076, i64 %1175
  %1177 = load double, ptr %1176, align 8, !tbaa !133
  %1178 = call double @llvm.fmuladd.f64(double %1173, double %1043, double %1177)
  store double %1178, ptr %1176, align 8, !tbaa !133
  %1179 = trunc i64 %1166 to i32
  %1180 = add i32 %1179, 1
  %1181 = mul i32 %1024, %1180
  %1182 = add i32 %1181, %1050
  %1183 = zext i32 %1182 to i64
  %1184 = getelementptr inbounds double, ptr %1023, i64 %1183
  %1185 = load double, ptr %1184, align 8, !tbaa !133
  %1186 = fmul double %1075, %1185
  %1187 = add i32 %1077, %1180
  %1188 = zext i32 %1187 to i64
  %1189 = getelementptr inbounds double, ptr %1076, i64 %1188
  %1190 = load double, ptr %1189, align 8, !tbaa !133
  %1191 = call double @llvm.fmuladd.f64(double %1186, double %1043, double %1190)
  store double %1191, ptr %1189, align 8, !tbaa !133
  %1192 = add nuw nsw i64 %1166, 2
  %1193 = icmp eq i64 %1192, %63
  br i1 %1193, label %1211, label %1165, !llvm.loop !212

1194:                                             ; preds = %1214, %1154
  %1195 = phi i64 [ 0, %1154 ], [ %1246, %1214 ]
  br i1 %152, label %1211, label %1196

1196:                                             ; preds = %1194
  %1197 = getelementptr inbounds i32, ptr %1162, i64 %1195
  %1198 = load i32, ptr %1197, align 4, !tbaa !59
  %1199 = mul i32 %1198, %1024
  %1200 = add i32 %1199, %1048
  %1201 = zext i32 %1200 to i64
  %1202 = getelementptr inbounds double, ptr %1023, i64 %1201
  %1203 = load double, ptr %1202, align 8, !tbaa !133
  %1204 = fmul double %1161, %1203
  %1205 = trunc i64 %1195 to i32
  %1206 = add i32 %1164, %1205
  %1207 = zext i32 %1206 to i64
  %1208 = getelementptr inbounds double, ptr %1163, i64 %1207
  %1209 = load double, ptr %1208, align 8, !tbaa !133
  %1210 = call double @llvm.fmuladd.f64(double %1204, double %1043, double %1209)
  store double %1210, ptr %1208, align 8, !tbaa !133
  br label %1211

1211:                                             ; preds = %1151, %1165, %1196, %1194, %1133
  %1212 = add nuw nsw i64 %1062, 1
  %1213 = icmp eq i64 %1212, %63
  br i1 %1213, label %1394, label %1061

1214:                                             ; preds = %1154, %1214
  %1215 = phi i64 [ %1246, %1214 ], [ 0, %1154 ]
  %1216 = phi i64 [ %1247, %1214 ], [ 0, %1154 ]
  %1217 = getelementptr inbounds i32, ptr %1162, i64 %1215
  %1218 = load i32, ptr %1217, align 4, !tbaa !59
  %1219 = mul i32 %1218, %1024
  %1220 = add i32 %1219, %1048
  %1221 = zext i32 %1220 to i64
  %1222 = getelementptr inbounds double, ptr %1023, i64 %1221
  %1223 = load double, ptr %1222, align 8, !tbaa !133
  %1224 = fmul double %1161, %1223
  %1225 = trunc i64 %1215 to i32
  %1226 = add i32 %1164, %1225
  %1227 = zext i32 %1226 to i64
  %1228 = getelementptr inbounds double, ptr %1163, i64 %1227
  %1229 = load double, ptr %1228, align 8, !tbaa !133
  %1230 = call double @llvm.fmuladd.f64(double %1224, double %1043, double %1229)
  store double %1230, ptr %1228, align 8, !tbaa !133
  %1231 = or i64 %1215, 1
  %1232 = getelementptr inbounds i32, ptr %1162, i64 %1231
  %1233 = load i32, ptr %1232, align 4, !tbaa !59
  %1234 = mul i32 %1233, %1024
  %1235 = add i32 %1234, %1048
  %1236 = zext i32 %1235 to i64
  %1237 = getelementptr inbounds double, ptr %1023, i64 %1236
  %1238 = load double, ptr %1237, align 8, !tbaa !133
  %1239 = fmul double %1161, %1238
  %1240 = trunc i64 %1231 to i32
  %1241 = add i32 %1164, %1240
  %1242 = zext i32 %1241 to i64
  %1243 = getelementptr inbounds double, ptr %1163, i64 %1242
  %1244 = load double, ptr %1243, align 8, !tbaa !133
  %1245 = call double @llvm.fmuladd.f64(double %1239, double %1043, double %1244)
  store double %1245, ptr %1243, align 8, !tbaa !133
  %1246 = add nuw nsw i64 %1215, 2
  %1247 = add i64 %1216, 2
  %1248 = icmp eq i64 %1247, %151
  br i1 %1248, label %1194, label %1214

1249:                                             ; preds = %1044
  %1250 = load ptr, ptr %97, align 8, !tbaa !184
  %1251 = trunc i64 %1031 to i32
  %1252 = getelementptr i8, ptr %1250, i64 %111
  %1253 = xor i32 %1036, -1
  %1254 = icmp ult i32 %1253, %137
  %1255 = insertelement <4 x double> poison, double %1043, i64 0
  %1256 = shufflevector <4 x double> %1255, <4 x double> poison, <4 x i32> zeroinitializer
  br label %1257

1257:                                             ; preds = %1365, %1249
  %1258 = phi i64 [ %1366, %1365 ], [ 0, %1249 ]
  %1259 = trunc i64 %1258 to i32
  %1260 = mul i32 %157, %1259
  %1261 = zext i32 %1260 to i64
  %1262 = shl nuw nsw i64 %1261, 3
  %1263 = shl nuw nsw i64 %1258, 3
  %1264 = getelementptr i8, ptr %1250, i64 %1263
  %1265 = add nuw i64 %1263, 8
  %1266 = getelementptr i8, ptr %1250, i64 %1265
  %1267 = trunc i64 %1258 to i32
  %1268 = mul i32 %157, %1267
  %1269 = trunc i64 %1258 to i32
  br i1 %1046, label %1329, label %1270

1270:                                             ; preds = %1257
  %1271 = mul i32 %1024, %1269
  %1272 = add i32 %1271, %1048
  %1273 = zext i32 %1272 to i64
  %1274 = getelementptr inbounds double, ptr %1023, i64 %1273
  %1275 = load double, ptr %1274, align 8, !tbaa !133
  %1276 = load ptr, ptr %89, align 8
  %1277 = mul i32 %157, %1269
  %1278 = getelementptr inbounds %"struct.std::pair.263", ptr %1250, i64 %1258
  br i1 %134, label %1327, label %1279

1279:                                             ; preds = %1270
  %1280 = xor i32 %1268, -1
  %1281 = icmp ult i32 %1280, %135
  %1282 = or i1 %1281, %136
  %1283 = or i1 %1025, %1282
  %1284 = or i1 %1254, %1283
  br i1 %1284, label %1327, label %1285

1285:                                             ; preds = %1279
  %1286 = getelementptr i8, ptr %1276, i64 %1262
  %1287 = getelementptr i8, ptr %1276, i64 %111
  %1288 = getelementptr i8, ptr %1287, i64 %1262
  %1289 = icmp ult ptr %1250, %1288
  %1290 = icmp ult ptr %1286, %1252
  %1291 = and i1 %1289, %1290
  %1292 = icmp ult ptr %1264, %1288
  %1293 = icmp ult ptr %1286, %1266
  %1294 = and i1 %1292, %1293
  %1295 = or i1 %1291, %1294
  %1296 = icmp ult ptr %1286, %1035
  %1297 = icmp ult ptr %1033, %1288
  %1298 = and i1 %1296, %1297
  %1299 = or i1 %1295, %1298
  br i1 %1299, label %1327, label %1300

1300:                                             ; preds = %1285
  %1301 = insertelement <4 x double> poison, double %1275, i64 0
  %1302 = shufflevector <4 x double> %1301, <4 x double> poison, <4 x i32> zeroinitializer
  %1303 = load i64, ptr %1278, align 4, !alias.scope !213, !noalias !216
  %1304 = trunc i64 %1303 to i32
  %1305 = insertelement <4 x i32> undef, i32 %1304, i64 0
  %1306 = shufflevector <4 x i32> %1305, <4 x i32> poison, <4 x i32> zeroinitializer
  br label %1307

1307:                                             ; preds = %1307, %1300
  %1308 = phi i64 [ 0, %1300 ], [ %1324, %1307 ]
  %1309 = trunc i64 %1308 to i32
  %1310 = getelementptr inbounds %"struct.std::pair.263", ptr %1250, i64 %1308
  %1311 = load <4 x i64>, ptr %1310, align 4, !alias.scope !218, !noalias !216
  %1312 = trunc <4 x i64> %1311 to <4 x i32>
  %1313 = icmp eq <4 x i32> %1306, %1312
  %1314 = add i64 %1308, %1031
  %1315 = and i64 %1314, 4294967295
  %1316 = getelementptr double, ptr %1023, i64 %1315
  %1317 = call <4 x double> @llvm.masked.load.v4f64.p0(ptr %1316, i32 8, <4 x i1> %1313, <4 x double> poison), !tbaa !133, !alias.scope !220
  %1318 = fmul <4 x double> %1302, %1317
  %1319 = add i32 %1277, %1309
  %1320 = zext i32 %1319 to i64
  %1321 = getelementptr double, ptr %1276, i64 %1320
  %1322 = call <4 x double> @llvm.masked.load.v4f64.p0(ptr %1321, i32 8, <4 x i1> %1313, <4 x double> poison), !tbaa !133, !alias.scope !216, !noalias !220
  %1323 = call <4 x double> @llvm.fmuladd.v4f64(<4 x double> %1318, <4 x double> %1256, <4 x double> %1322)
  call void @llvm.masked.store.v4f64.p0(<4 x double> %1323, ptr %1321, i32 8, <4 x i1> %1313), !tbaa !133, !alias.scope !216, !noalias !220
  %1324 = add nuw i64 %1308, 4
  %1325 = icmp eq i64 %1324, %138
  br i1 %1325, label %1326, label %1307, !llvm.loop !222

1326:                                             ; preds = %1307
  br i1 %139, label %1365, label %1327

1327:                                             ; preds = %1285, %1279, %1270, %1326
  %1328 = phi i64 [ 0, %1285 ], [ 0, %1279 ], [ 0, %1270 ], [ %138, %1326 ]
  br label %1341

1329:                                             ; preds = %1257
  %1330 = getelementptr inbounds i32, ptr %1047, i64 %1258
  %1331 = load i32, ptr %1330, align 4, !tbaa !59
  %1332 = mul i32 %1024, %1331
  %1333 = add i32 %1332, %1251
  %1334 = zext i32 %1333 to i64
  %1335 = getelementptr inbounds double, ptr %1023, i64 %1334
  %1336 = load double, ptr %1335, align 8, !tbaa !133
  %1337 = load ptr, ptr %94, align 8
  %1338 = load ptr, ptr %89, align 8
  %1339 = mul i32 %157, %1269
  %1340 = getelementptr inbounds %"struct.std::pair.263", ptr %1250, i64 %1258
  br label %1368

1341:                                             ; preds = %1327, %1362
  %1342 = phi i64 [ %1363, %1362 ], [ %1328, %1327 ]
  %1343 = load i64, ptr %1278, align 4
  %1344 = getelementptr inbounds %"struct.std::pair.263", ptr %1250, i64 %1342
  %1345 = load i64, ptr %1344, align 4
  %1346 = trunc i64 %1343 to i32
  %1347 = trunc i64 %1345 to i32
  %1348 = icmp eq i32 %1346, %1347
  br i1 %1348, label %1349, label %1362

1349:                                             ; preds = %1341
  %1350 = trunc i64 %1342 to i32
  %1351 = mul i32 %1024, %1350
  %1352 = add i32 %1351, %1048
  %1353 = zext i32 %1352 to i64
  %1354 = getelementptr inbounds double, ptr %1023, i64 %1353
  %1355 = load double, ptr %1354, align 8, !tbaa !133
  %1356 = fmul double %1275, %1355
  %1357 = add i32 %1277, %1350
  %1358 = zext i32 %1357 to i64
  %1359 = getelementptr inbounds double, ptr %1276, i64 %1358
  %1360 = load double, ptr %1359, align 8, !tbaa !133
  %1361 = call double @llvm.fmuladd.f64(double %1356, double %1043, double %1360)
  store double %1361, ptr %1359, align 8, !tbaa !133
  br label %1362

1362:                                             ; preds = %1349, %1341
  %1363 = add nuw nsw i64 %1342, 1
  %1364 = icmp eq i64 %1363, %63
  br i1 %1364, label %1365, label %1341, !llvm.loop !223

1365:                                             ; preds = %1362, %1391, %1326
  %1366 = add nuw nsw i64 %1258, 1
  %1367 = icmp eq i64 %1366, %63
  br i1 %1367, label %1394, label %1257

1368:                                             ; preds = %1329, %1391
  %1369 = phi i64 [ 0, %1329 ], [ %1392, %1391 ]
  %1370 = load i64, ptr %1340, align 4
  %1371 = getelementptr inbounds %"struct.std::pair.263", ptr %1250, i64 %1369
  %1372 = load i64, ptr %1371, align 4
  %1373 = trunc i64 %1370 to i32
  %1374 = trunc i64 %1372 to i32
  %1375 = icmp eq i32 %1373, %1374
  br i1 %1375, label %1376, label %1391

1376:                                             ; preds = %1368
  %1377 = getelementptr inbounds i32, ptr %1337, i64 %1369
  %1378 = load i32, ptr %1377, align 4, !tbaa !59
  %1379 = mul i32 %1378, %1024
  %1380 = add i32 %1379, %1251
  %1381 = zext i32 %1380 to i64
  %1382 = getelementptr inbounds double, ptr %1023, i64 %1381
  %1383 = load double, ptr %1382, align 8, !tbaa !133
  %1384 = fmul double %1336, %1383
  %1385 = trunc i64 %1369 to i32
  %1386 = add i32 %1339, %1385
  %1387 = zext i32 %1386 to i64
  %1388 = getelementptr inbounds double, ptr %1338, i64 %1387
  %1389 = load double, ptr %1388, align 8, !tbaa !133
  %1390 = call double @llvm.fmuladd.f64(double %1384, double %1043, double %1389)
  store double %1390, ptr %1388, align 8, !tbaa !133
  br label %1391

1391:                                             ; preds = %1376, %1368
  %1392 = add nuw nsw i64 %1369, 1
  %1393 = icmp eq i64 %1392, %63
  br i1 %1393, label %1365, label %1368

1394:                                             ; preds = %1365, %1211, %1030
  %1395 = add nuw nsw i64 %1031, 1
  %1396 = icmp eq i64 %1395, %28
  br i1 %1396, label %1641, label %1030

1397:                                             ; preds = %1028, %1638
  %1398 = phi i64 [ 0, %1028 ], [ %1639, %1638 ]
  %1399 = getelementptr inbounds double, ptr %1029, i64 %1398
  %1400 = load double, ptr %1399, align 8, !tbaa !133
  br i1 %153, label %1638, label %1401

1401:                                             ; preds = %1397
  %1402 = load ptr, ptr %99, align 8, !tbaa !205
  %1403 = trunc i64 %1398 to i32
  %1404 = trunc i64 %1398 to i32
  %1405 = trunc i64 %1398 to i32
  br label %1406

1406:                                             ; preds = %1635, %1401
  %1407 = phi i64 [ %1636, %1635 ], [ 0, %1401 ]
  %1408 = getelementptr inbounds %"class.std::vector.126", ptr %1402, i64 %1407
  %1409 = load ptr, ptr %1408, align 8, !tbaa !54
  %1410 = load ptr, ptr %23, align 8
  %1411 = getelementptr inbounds %"class.dealii::FiniteElement", ptr %1410, i64 0, i32 2
  %1412 = getelementptr inbounds %"class.dealii::FiniteElement", ptr %1410, i64 0, i32 20
  %1413 = getelementptr inbounds %"class.dealii::FiniteElement", ptr %1410, i64 0, i32 19
  %1414 = load ptr, ptr %94, align 8
  %1415 = getelementptr inbounds i32, ptr %1414, i64 %1407
  %1416 = getelementptr inbounds %"class.dealii::FiniteElement", ptr %1410, i64 0, i32 12
  %1417 = load ptr, ptr %95, align 8
  %1418 = load i32, ptr %96, align 8
  %1419 = trunc i64 %1407 to i32
  %1420 = mul i32 %157, %1419
  br label %1421

1421:                                             ; preds = %1406, %1525
  %1422 = phi i32 [ 0, %1406 ], [ %1526, %1525 ]
  %1423 = lshr i32 %1422, 6
  %1424 = zext i32 %1423 to i64
  %1425 = getelementptr inbounds i64, ptr %1409, i64 %1424
  %1426 = and i32 %1422, 63
  %1427 = zext i32 %1426 to i64
  %1428 = shl nuw i64 1, %1427
  %1429 = load i64, ptr %1425, align 8, !tbaa !56
  %1430 = and i64 %1429, %1428
  %1431 = icmp eq i64 %1430, 0
  br i1 %1431, label %1525, label %1432

1432:                                             ; preds = %1421
  %1433 = load i8, ptr %1411, align 4, !tbaa !148, !range !182, !noundef !183
  %1434 = icmp eq i8 %1433, 0
  br i1 %1434, label %1435, label %1473

1435:                                             ; preds = %1432
  %1436 = load ptr, ptr %1412, align 8, !tbaa !144
  %1437 = getelementptr inbounds i32, ptr %1436, i64 %1407
  %1438 = load i32, ptr %1437, align 4, !tbaa !59
  %1439 = icmp eq i32 %1438, 1
  br i1 %1439, label %1473, label %1440

1440:                                             ; preds = %1435
  %1441 = load ptr, ptr %1413, align 8, !tbaa !205
  %1442 = getelementptr inbounds %"class.std::vector.126", ptr %1441, i64 %1407
  %1443 = load ptr, ptr %1442, align 8, !tbaa !54
  %1444 = getelementptr inbounds i64, ptr %1443, i64 %1424
  %1445 = load i64, ptr %1444, align 8, !tbaa !56
  %1446 = and i64 %1445, %1428
  %1447 = icmp eq i64 %1446, 0
  br i1 %1447, label %1543, label %1448

1448:                                             ; preds = %1440
  %1449 = load i32, ptr %1415, align 4, !tbaa !59
  %1450 = icmp eq i32 %1422, 0
  br i1 %1450, label %1470, label %1451

1451:                                             ; preds = %1448, %1451
  %1452 = phi i64 [ %1459, %1451 ], [ 0, %1448 ]
  %1453 = phi i32 [ %1464, %1451 ], [ 0, %1448 ]
  %1454 = phi ptr [ %1463, %1451 ], [ %1443, %1448 ]
  %1455 = zext i32 %1453 to i64
  %1456 = load i64, ptr %1454, align 8, !tbaa !56
  %1457 = lshr i64 %1456, %1455
  %1458 = and i64 %1457, 1
  %1459 = add nuw nsw i64 %1458, %1452
  %1460 = add i32 %1453, 1
  %1461 = icmp eq i32 %1453, 63
  %1462 = zext i1 %1461 to i64
  %1463 = getelementptr inbounds i64, ptr %1454, i64 %1462
  %1464 = select i1 %1461, i32 0, i32 %1460
  %1465 = icmp ne ptr %1463, %1444
  %1466 = icmp ne i32 %1464, %1426
  %1467 = or i1 %1466, %1465
  br i1 %1467, label %1451, label %1468

1468:                                             ; preds = %1451
  %1469 = trunc i64 %1459 to i32
  br label %1470

1470:                                             ; preds = %1468, %1448
  %1471 = phi i32 [ 0, %1448 ], [ %1469, %1468 ]
  %1472 = add i32 %1471, %1449
  br label %1481

1473:                                             ; preds = %1435, %1432
  %1474 = load ptr, ptr %1416, align 8, !tbaa !184
  %1475 = getelementptr inbounds %"struct.std::pair.263", ptr %1474, i64 %1407
  %1476 = load i64, ptr %1475, align 4
  %1477 = trunc i64 %1476 to i32
  %1478 = icmp eq i32 %1422, %1477
  br i1 %1478, label %1479, label %1541

1479:                                             ; preds = %1473
  %1480 = load i32, ptr %1415, align 4, !tbaa !59
  br label %1481

1481:                                             ; preds = %1479, %1470
  %1482 = phi i32 [ %1472, %1470 ], [ %1480, %1479 ]
  %1483 = mul i32 %1418, %1482
  %1484 = add i32 %1483, %1403
  %1485 = zext i32 %1484 to i64
  %1486 = getelementptr inbounds double, ptr %1417, i64 %1485
  %1487 = load double, ptr %1486, align 8, !tbaa !133
  br label %1541

1488:                                             ; preds = %1522
  %1489 = add nuw nsw i64 %1529, 1
  %1490 = icmp eq i64 %1489, %63
  br i1 %1490, label %1525, label %1528

1491:                                             ; preds = %1528, %1522
  %1492 = phi i32 [ 0, %1528 ], [ %1523, %1522 ]
  %1493 = lshr i32 %1492, 6
  %1494 = zext i32 %1493 to i64
  %1495 = getelementptr inbounds i64, ptr %1531, i64 %1494
  %1496 = and i32 %1492, 63
  %1497 = zext i32 %1496 to i64
  %1498 = shl nuw i64 1, %1497
  %1499 = load i64, ptr %1495, align 8, !tbaa !56
  %1500 = and i64 %1499, %1498
  %1501 = icmp eq i64 %1500, 0
  br i1 %1501, label %1522, label %1502

1502:                                             ; preds = %1491
  %1503 = load ptr, ptr %1416, align 8, !tbaa !184
  %1504 = getelementptr inbounds %"struct.std::pair.263", ptr %1503, i64 %1529
  %1505 = load i64, ptr %1504, align 4
  %1506 = trunc i64 %1505 to i32
  %1507 = icmp eq i32 %1492, %1506
  br i1 %1507, label %1508, label %1515

1508:                                             ; preds = %1502
  %1509 = load i32, ptr %1533, align 4, !tbaa !59
  %1510 = mul i32 %1535, %1509
  %1511 = add i32 %1510, %1404
  %1512 = zext i32 %1511 to i64
  %1513 = getelementptr inbounds double, ptr %1534, i64 %1512
  %1514 = load double, ptr %1513, align 8, !tbaa !133
  br label %1515

1515:                                             ; preds = %1508, %1502
  %1516 = phi double [ 0.000000e+00, %1502 ], [ %1514, %1508 ]
  %1517 = icmp eq i32 %1422, %1492
  br i1 %1517, label %1518, label %1522

1518:                                             ; preds = %1515
  %1519 = fmul double %1542, %1516
  %1520 = load double, ptr %1540, align 8, !tbaa !133
  %1521 = call double @llvm.fmuladd.f64(double %1519, double %1400, double %1520)
  store double %1521, ptr %1540, align 8, !tbaa !133
  br label %1522

1522:                                             ; preds = %1518, %1515, %1491
  %1523 = add nuw i32 %1492, 1
  %1524 = icmp eq i32 %1523, %26
  br i1 %1524, label %1488, label %1491

1525:                                             ; preds = %1488, %1632, %1421
  %1526 = add nuw i32 %1422, 1
  %1527 = icmp eq i32 %1526, %26
  br i1 %1527, label %1635, label %1421

1528:                                             ; preds = %1541, %1488
  %1529 = phi i64 [ %1489, %1488 ], [ 0, %1541 ]
  %1530 = getelementptr inbounds %"class.std::vector.126", ptr %1402, i64 %1529
  %1531 = load ptr, ptr %1530, align 8, !tbaa !54
  %1532 = load ptr, ptr %94, align 8
  %1533 = getelementptr inbounds i32, ptr %1532, i64 %1529
  %1534 = load ptr, ptr %95, align 8
  %1535 = load i32, ptr %96, align 8
  %1536 = load ptr, ptr %89, align 8
  %1537 = trunc i64 %1529 to i32
  %1538 = add i32 %1420, %1537
  %1539 = zext i32 %1538 to i64
  %1540 = getelementptr inbounds double, ptr %1536, i64 %1539
  br label %1491

1541:                                             ; preds = %1473, %1481
  %1542 = phi double [ 0.000000e+00, %1473 ], [ %1487, %1481 ]
  br i1 %1434, label %1543, label %1528

1543:                                             ; preds = %1440, %1541
  %1544 = phi double [ %1542, %1541 ], [ 0.000000e+00, %1440 ]
  br label %1545

1545:                                             ; preds = %1543, %1632
  %1546 = phi i64 [ 0, %1543 ], [ %1633, %1632 ]
  %1547 = getelementptr inbounds %"class.std::vector.126", ptr %1402, i64 %1546
  %1548 = load ptr, ptr %1547, align 8, !tbaa !54
  %1549 = load ptr, ptr %94, align 8
  %1550 = getelementptr inbounds i32, ptr %1549, i64 %1546
  %1551 = load ptr, ptr %95, align 8
  %1552 = load i32, ptr %96, align 8
  %1553 = load ptr, ptr %89, align 8
  %1554 = trunc i64 %1546 to i32
  %1555 = add i32 %1420, %1554
  %1556 = zext i32 %1555 to i64
  %1557 = getelementptr inbounds double, ptr %1553, i64 %1556
  br label %1558

1558:                                             ; preds = %1629, %1545
  %1559 = phi i32 [ 0, %1545 ], [ %1630, %1629 ]
  %1560 = lshr i32 %1559, 6
  %1561 = zext i32 %1560 to i64
  %1562 = getelementptr inbounds i64, ptr %1548, i64 %1561
  %1563 = and i32 %1559, 63
  %1564 = zext i32 %1563 to i64
  %1565 = shl nuw i64 1, %1564
  %1566 = load i64, ptr %1562, align 8, !tbaa !56
  %1567 = and i64 %1566, %1565
  %1568 = icmp eq i64 %1567, 0
  br i1 %1568, label %1629, label %1569

1569:                                             ; preds = %1558
  %1570 = load ptr, ptr %1412, align 8, !tbaa !144
  %1571 = getelementptr inbounds i32, ptr %1570, i64 %1546
  %1572 = load i32, ptr %1571, align 4, !tbaa !59
  %1573 = icmp eq i32 %1572, 1
  br i1 %1573, label %1607, label %1574

1574:                                             ; preds = %1569
  %1575 = load ptr, ptr %1413, align 8, !tbaa !205
  %1576 = getelementptr inbounds %"class.std::vector.126", ptr %1575, i64 %1546
  %1577 = load ptr, ptr %1576, align 8, !tbaa !54
  %1578 = getelementptr inbounds i64, ptr %1577, i64 %1561
  %1579 = load i64, ptr %1578, align 8, !tbaa !56
  %1580 = and i64 %1579, %1565
  %1581 = icmp eq i64 %1580, 0
  br i1 %1581, label %1622, label %1582

1582:                                             ; preds = %1574
  %1583 = load i32, ptr %1550, align 4, !tbaa !59
  %1584 = icmp eq i32 %1559, 0
  br i1 %1584, label %1604, label %1585

1585:                                             ; preds = %1582, %1585
  %1586 = phi i64 [ %1593, %1585 ], [ 0, %1582 ]
  %1587 = phi i32 [ %1598, %1585 ], [ 0, %1582 ]
  %1588 = phi ptr [ %1597, %1585 ], [ %1577, %1582 ]
  %1589 = zext i32 %1587 to i64
  %1590 = load i64, ptr %1588, align 8, !tbaa !56
  %1591 = lshr i64 %1590, %1589
  %1592 = and i64 %1591, 1
  %1593 = add nuw nsw i64 %1592, %1586
  %1594 = add i32 %1587, 1
  %1595 = icmp eq i32 %1587, 63
  %1596 = zext i1 %1595 to i64
  %1597 = getelementptr inbounds i64, ptr %1588, i64 %1596
  %1598 = select i1 %1595, i32 0, i32 %1594
  %1599 = icmp ne ptr %1597, %1578
  %1600 = icmp ne i32 %1598, %1563
  %1601 = or i1 %1600, %1599
  br i1 %1601, label %1585, label %1602

1602:                                             ; preds = %1585
  %1603 = trunc i64 %1593 to i32
  br label %1604

1604:                                             ; preds = %1602, %1582
  %1605 = phi i32 [ 0, %1582 ], [ %1603, %1602 ]
  %1606 = add i32 %1605, %1583
  br label %1615

1607:                                             ; preds = %1569
  %1608 = load ptr, ptr %1416, align 8, !tbaa !184
  %1609 = getelementptr inbounds %"struct.std::pair.263", ptr %1608, i64 %1546
  %1610 = load i64, ptr %1609, align 4
  %1611 = trunc i64 %1610 to i32
  %1612 = icmp eq i32 %1559, %1611
  br i1 %1612, label %1613, label %1622

1613:                                             ; preds = %1607
  %1614 = load i32, ptr %1550, align 4, !tbaa !59
  br label %1615

1615:                                             ; preds = %1613, %1604
  %1616 = phi i32 [ %1606, %1604 ], [ %1614, %1613 ]
  %1617 = mul i32 %1552, %1616
  %1618 = add i32 %1617, %1405
  %1619 = zext i32 %1618 to i64
  %1620 = getelementptr inbounds double, ptr %1551, i64 %1619
  %1621 = load double, ptr %1620, align 8, !tbaa !133
  br label %1622

1622:                                             ; preds = %1615, %1607, %1574
  %1623 = phi double [ 0.000000e+00, %1607 ], [ 0.000000e+00, %1574 ], [ %1621, %1615 ]
  %1624 = icmp eq i32 %1422, %1559
  br i1 %1624, label %1625, label %1629

1625:                                             ; preds = %1622
  %1626 = fmul double %1544, %1623
  %1627 = load double, ptr %1557, align 8, !tbaa !133
  %1628 = call double @llvm.fmuladd.f64(double %1626, double %1400, double %1627)
  store double %1628, ptr %1557, align 8, !tbaa !133
  br label %1629

1629:                                             ; preds = %1625, %1622, %1558
  %1630 = add nuw i32 %1559, 1
  %1631 = icmp eq i32 %1630, %26
  br i1 %1631, label %1632, label %1558

1632:                                             ; preds = %1629
  %1633 = add nuw nsw i64 %1546, 1
  %1634 = icmp eq i64 %1633, %63
  br i1 %1634, label %1525, label %1545

1635:                                             ; preds = %1525
  %1636 = add nuw nsw i64 %1407, 1
  %1637 = icmp eq i64 %1636, %63
  br i1 %1637, label %1638, label %1406

1638:                                             ; preds = %1635, %1397
  %1639 = add nuw nsw i64 %1398, 1
  %1640 = icmp eq i64 %1639, %28
  br i1 %1640, label %1641, label %1397

1641:                                             ; preds = %547, %756, %463, %1394, %1638, %750, %473, %472, %749, %201, %1018, %1027
  br i1 %100, label %1656, label %1642

1642:                                             ; preds = %1641, %1652
  %1643 = phi i64 [ %1654, %1652 ], [ 0, %1641 ]
  %1644 = phi i32 [ %1653, %1652 ], [ 0, %1641 ]
  %1645 = getelementptr inbounds i32, ptr %71, i64 %1643
  %1646 = load i32, ptr %1645, align 4, !tbaa !59
  %1647 = load ptr, ptr %89, align 8, !tbaa !140
  %1648 = load i32, ptr %88, align 8, !tbaa !59
  %1649 = mul i32 %1648, %1644
  %1650 = zext i32 %1649 to i64
  %1651 = getelementptr inbounds double, ptr %1647, i64 %1650
  invoke void @_ZN6dealii12SparseMatrixIdE3addIdEEvjjPKjPKT_bb(ptr noundef nonnull align 8 dereferenceable(36) %3, i32 noundef %1646, i32 noundef %105, ptr noundef nonnull %71, ptr noundef nonnull %1651, i1 noundef zeroext true, i1 noundef zeroext false)
          to label %1652 unwind label %221

1652:                                             ; preds = %1642
  %1653 = add i32 %1644, 1
  %1654 = zext i32 %1653 to i64
  %1655 = icmp ugt i64 %104, %1654
  br i1 %1655, label %1642, label %1656

1656:                                             ; preds = %1652, %1641
  %1657 = load ptr, ptr %106, align 8, !tbaa !62
  %1658 = getelementptr inbounds %"class.dealii::Triangulation", ptr %1657, i64 0, i32 1
  %1659 = load ptr, ptr %1658, align 8, !tbaa !46
  %1660 = ptrtoint ptr %1659 to i64
  %1661 = getelementptr inbounds %"class.dealii::Triangulation", ptr %1657, i64 0, i32 1, i32 0, i32 0, i32 0, i32 1
  %1662 = load i32, ptr %14, align 8
  %1663 = load i32, ptr %77, align 4
  br label %1664

1664:                                             ; preds = %1752, %1656
  %1665 = phi i32 [ %1662, %1656 ], [ %1731, %1752 ]
  %1666 = phi i32 [ %1662, %1656 ], [ %1732, %1752 ]
  %1667 = phi i32 [ %1662, %1656 ], [ %1753, %1752 ]
  %1668 = phi i32 [ %1663, %1656 ], [ %1733, %1752 ]
  %1669 = add nsw i32 %1668, 1
  %1670 = sext i32 %1667 to i64
  %1671 = getelementptr inbounds ptr, ptr %1659, i64 %1670
  %1672 = load ptr, ptr %1671, align 8, !tbaa !33
  %1673 = getelementptr inbounds %"class.dealii::internal::Triangulation::TriaLevel", ptr %1672, i64 0, i32 4
  %1674 = getelementptr inbounds %"class.dealii::internal::Triangulation::TriaLevel", ptr %1672, i64 0, i32 4, i32 0, i32 0, i32 0, i32 0, i32 0, i32 1
  %1675 = load ptr, ptr %1674, align 8, !tbaa !48
  %1676 = load ptr, ptr %1673, align 8, !tbaa !50
  %1677 = ptrtoint ptr %1675 to i64
  %1678 = ptrtoint ptr %1676 to i64
  %1679 = sub i64 %1677, %1678
  %1680 = sdiv exact i64 %1679, 24
  %1681 = trunc i64 %1680 to i32
  %1682 = icmp slt i32 %1669, %1681
  br i1 %1682, label %1730, label %1683

1683:                                             ; preds = %1664
  %1684 = add nsw i64 %1670, 1
  %1685 = trunc i64 %1684 to i32
  store i32 %1685, ptr %14, align 8, !tbaa !60
  %1686 = load ptr, ptr %1661, align 8, !tbaa !51
  %1687 = ptrtoint ptr %1686 to i64
  %1688 = sub i64 %1687, %1660
  %1689 = shl i64 %1688, 29
  %1690 = ashr i64 %1689, 32
  %1691 = icmp slt i64 %1684, %1690
  br i1 %1691, label %1692, label %1724

1692:                                             ; preds = %1683
  %1693 = getelementptr inbounds ptr, ptr %1659, i64 %1684
  %1694 = load ptr, ptr %1693, align 8, !tbaa !33
  %1695 = getelementptr inbounds %"class.dealii::internal::Triangulation::TriaLevel", ptr %1694, i64 0, i32 4
  %1696 = getelementptr inbounds %"class.dealii::internal::Triangulation::TriaLevel", ptr %1694, i64 0, i32 4, i32 0, i32 0, i32 0, i32 0, i32 0, i32 1
  %1697 = load ptr, ptr %1696, align 8, !tbaa !48
  %1698 = load ptr, ptr %1695, align 8, !tbaa !50
  %1699 = ptrtoint ptr %1697 to i64
  %1700 = ptrtoint ptr %1698 to i64
  %1701 = sub i64 %1699, %1700
  %1702 = sdiv exact i64 %1701, 24
  %1703 = trunc i64 %1702 to i32
  %1704 = icmp sgt i32 %1703, 0
  br i1 %1704, label %1726, label %1718

1705:                                             ; preds = %1718
  %1706 = getelementptr inbounds ptr, ptr %1659, i64 %1720
  %1707 = load ptr, ptr %1706, align 8, !tbaa !33
  %1708 = getelementptr inbounds %"class.dealii::internal::Triangulation::TriaLevel", ptr %1707, i64 0, i32 4
  %1709 = getelementptr inbounds %"class.dealii::internal::Triangulation::TriaLevel", ptr %1707, i64 0, i32 4, i32 0, i32 0, i32 0, i32 0, i32 0, i32 1
  %1710 = load ptr, ptr %1709, align 8, !tbaa !48
  %1711 = load ptr, ptr %1708, align 8, !tbaa !50
  %1712 = ptrtoint ptr %1710 to i64
  %1713 = ptrtoint ptr %1711 to i64
  %1714 = sub i64 %1712, %1713
  %1715 = sdiv exact i64 %1714, 24
  %1716 = trunc i64 %1715 to i32
  %1717 = icmp sgt i32 %1716, 0
  br i1 %1717, label %1725, label %1718, !llvm.loop !52

1718:                                             ; preds = %1692, %1705
  %1719 = phi i64 [ %1720, %1705 ], [ %1684, %1692 ]
  %1720 = add i64 %1719, 1
  %1721 = trunc i64 %1720 to i32
  %1722 = icmp eq i64 %1720, %1690
  br i1 %1722, label %1723, label %1705, !llvm.loop !52

1723:                                             ; preds = %1718
  store i32 %1721, ptr %14, align 8, !tbaa !60
  br label %1724

1724:                                             ; preds = %1723, %1683
  store i32 -1, ptr %14, align 8, !tbaa !60
  br label %1730

1725:                                             ; preds = %1705
  store i32 %1721, ptr %14, align 8, !tbaa !60
  br label %1726

1726:                                             ; preds = %1725, %1692
  %1727 = phi i32 [ %1685, %1692 ], [ %1721, %1725 ]
  %1728 = phi i64 [ %1684, %1692 ], [ %1720, %1725 ]
  %1729 = trunc i64 %1728 to i32
  br label %1730

1730:                                             ; preds = %1726, %1724, %1664
  %1731 = phi i32 [ %1665, %1664 ], [ -1, %1724 ], [ %1727, %1726 ]
  %1732 = phi i32 [ %1666, %1664 ], [ -1, %1724 ], [ %1729, %1726 ]
  %1733 = phi i32 [ %1669, %1664 ], [ -1, %1724 ], [ 0, %1726 ]
  %1734 = phi i32 [ %1667, %1664 ], [ -1, %1724 ], [ %1729, %1726 ]
  %1735 = or i32 %1734, %1733
  %1736 = icmp sgt i32 %1735, -1
  br i1 %1736, label %1737, label %1754

1737:                                             ; preds = %1730
  %1738 = zext i32 %1734 to i64
  %1739 = getelementptr inbounds ptr, ptr %1659, i64 %1738
  %1740 = load ptr, ptr %1739, align 8, !tbaa !33
  %1741 = getelementptr inbounds %"class.dealii::internal::Triangulation::TriaLevel", ptr %1740, i64 0, i32 4, i32 0, i32 3
  %1742 = load ptr, ptr %1741, align 8, !tbaa !54
  %1743 = lshr i32 %1733, 6
  %1744 = zext i32 %1743 to i64
  %1745 = getelementptr inbounds i64, ptr %1742, i64 %1744
  %1746 = and i32 %1733, 63
  %1747 = zext i32 %1746 to i64
  %1748 = shl nuw i64 1, %1747
  %1749 = load i64, ptr %1745, align 8, !tbaa !56
  %1750 = and i64 %1749, %1748
  %1751 = icmp eq i64 %1750, 0
  br i1 %1751, label %1752, label %1754

1752:                                             ; preds = %1737, %1757
  %1753 = phi i32 [ %1734, %1737 ], [ %1732, %1757 ]
  br label %1664

1754:                                             ; preds = %1737, %1730
  store i32 %1733, ptr %77, align 4, !tbaa !61
  %1755 = or i32 %1733, %1732
  %1756 = icmp sgt i32 %1755, -1
  br i1 %1756, label %1757, label %1768

1757:                                             ; preds = %1754
  %1758 = zext i32 %1732 to i64
  %1759 = getelementptr inbounds ptr, ptr %1659, i64 %1758
  %1760 = load ptr, ptr %1759, align 8, !tbaa !33
  %1761 = getelementptr inbounds %"class.dealii::internal::Triangulation::TriaLevel", ptr %1760, i64 0, i32 4, i32 0, i32 1
  %1762 = shl i32 %1733, 2
  %1763 = zext i32 %1762 to i64
  %1764 = load ptr, ptr %1761, align 8, !tbaa !57
  %1765 = getelementptr inbounds i32, ptr %1764, i64 %1763
  %1766 = load i32, ptr %1765, align 4, !tbaa !59
  %1767 = icmp eq i32 %1766, -1
  br i1 %1767, label %1768, label %1752

1768:                                             ; preds = %1754, %1757
  %1769 = load i32, ptr %78, align 4, !tbaa !61
  %1770 = icmp ne i32 %1733, %1769
  %1771 = load i32, ptr %76, align 8
  %1772 = icmp ne i32 %1731, %1771
  %1773 = select i1 %1770, i1 true, i1 %1772
  br i1 %1773, label %154, label %1774

1774:                                             ; preds = %1768, %70
  call void @llvm.lifetime.end.p0(i64 24, ptr nonnull %14) #19
  %1775 = icmp eq ptr %71, null
  br i1 %1775, label %1777, label %1776

1776:                                             ; preds = %1774
  call void @_ZdlPv(ptr noundef nonnull %71) #21
  br label %1777

1777:                                             ; preds = %1776, %1774
  %1778 = load ptr, ptr %11, align 8, !tbaa !224
  %1779 = getelementptr inbounds %"struct.std::_Vector_base<dealii::Vector<double>, std::allocator<dealii::Vector<double> > >::_Vector_impl_data", ptr %11, i64 0, i32 1
  %1780 = load ptr, ptr %1779, align 8, !tbaa !226
  %1781 = icmp eq ptr %1778, %1780
  br i1 %1781, label %1791, label %1782

1782:                                             ; preds = %1777, %1786
  %1783 = phi ptr [ %1787, %1786 ], [ %1778, %1777 ]
  %1784 = load ptr, ptr %1783, align 8, !tbaa !41
  %1785 = load ptr, ptr %1784, align 8
  invoke void %1785(ptr noundef nonnull align 8 dereferenceable(88) %1783)
          to label %1786 unwind label %1795

1786:                                             ; preds = %1782
  %1787 = getelementptr inbounds %"class.dealii::Vector", ptr %1783, i64 1
  %1788 = icmp eq ptr %1787, %1780
  br i1 %1788, label %1789, label %1782

1789:                                             ; preds = %1786
  %1790 = load ptr, ptr %11, align 8, !tbaa !224
  br label %1791

1791:                                             ; preds = %1789, %1777
  %1792 = phi ptr [ %1790, %1789 ], [ %1778, %1777 ]
  %1793 = icmp eq ptr %1792, null
  br i1 %1793, label %1800, label %1794

1794:                                             ; preds = %1791
  call void @_ZdlPv(ptr noundef nonnull %1792) #21
  br label %1800

1795:                                             ; preds = %1782
  %1796 = landingpad { ptr, i32 }
          cleanup
  %1797 = load ptr, ptr %11, align 8, !tbaa !224
  %1798 = icmp eq ptr %1797, null
  br i1 %1798, label %1846, label %1799

1799:                                             ; preds = %1795
  call void @_ZdlPv(ptr noundef nonnull %1797) #21
  br label %1846

1800:                                             ; preds = %1794, %1791
  call void @llvm.lifetime.end.p0(i64 24, ptr nonnull %11) #19
  %1801 = load ptr, ptr %10, align 8, !tbaa !131
  %1802 = icmp eq ptr %1801, null
  br i1 %1802, label %1804, label %1803

1803:                                             ; preds = %1800
  call void @_ZdlPv(ptr noundef nonnull %1801) #21
  br label %1804

1804:                                             ; preds = %1803, %1800
  call void @llvm.lifetime.end.p0(i64 24, ptr nonnull %10) #19
  store ptr getelementptr inbounds ({ [4 x ptr] }, ptr @_ZTVN6dealii9TableBaseILi2EdEE, i64 0, inrange i32 0, i64 2), ptr %9, align 8, !tbaa !41
  %1805 = getelementptr inbounds %"class.dealii::TableBase", ptr %9, i64 0, i32 1
  %1806 = load ptr, ptr %1805, align 8, !tbaa !140
  %1807 = icmp eq ptr %1806, null
  br i1 %1807, label %1809, label %1808

1808:                                             ; preds = %1804
  call void @_ZdaPv(ptr noundef nonnull %1806) #21
  br label %1809

1809:                                             ; preds = %1808, %1804
  invoke void @_ZN6dealii11SubscriptorD2Ev(ptr noundef nonnull align 8 dereferenceable(72) %9)
          to label %1810 unwind label %209

1810:                                             ; preds = %1809
  call void @llvm.lifetime.end.p0(i64 96, ptr nonnull %9) #19
  store ptr getelementptr inbounds ({ [4 x ptr] }, ptr @_ZTVN6dealii8FEValuesILi3ELi3EEE, i64 0, inrange i32 0, i64 2), ptr %8, align 8, !tbaa !41
  %1811 = getelementptr inbounds %"class.dealii::FEValues", ptr %8, i64 0, i32 1
  invoke void @_ZN6dealii10QuadratureILi3EED1Ev(ptr noundef nonnull align 8 dereferenceable(128) %1811)
          to label %1819 unwind label %1812

1812:                                             ; preds = %1810
  %1813 = landingpad { ptr, i32 }
          cleanup
  invoke void @_ZN6dealii12FEValuesBaseILi3ELi3EED2Ev(ptr noundef nonnull align 8 dereferenceable(648) %8)
          to label %1814 unwind label %1816

1814:                                             ; preds = %1812, %1867
  %1815 = phi { ptr, i32 } [ %1859, %1867 ], [ %1813, %1812 ]
  resume { ptr, i32 } %1815

1816:                                             ; preds = %1812
  %1817 = landingpad { ptr, i32 }
          catch ptr null
  %1818 = extractvalue { ptr, i32 } %1817, 0
  call void @__clang_call_terminate(ptr %1818) #22
  unreachable

1819:                                             ; preds = %1810
  call void @_ZN6dealii12FEValuesBaseILi3ELi3EED2Ev(ptr noundef nonnull align 8 dereferenceable(648) %8)
  call void @llvm.lifetime.end.p0(i64 776, ptr nonnull %8) #19
  ret void

1820:                                             ; preds = %221, %223
  %1821 = phi { ptr, i32 } [ %222, %221 ], [ %224, %223 ]
  call void @_ZdlPv(ptr noundef nonnull %71) #21
  br label %1822

1822:                                             ; preds = %1820, %223, %219
  %1823 = phi { ptr, i32 } [ %220, %219 ], [ %224, %223 ], [ %1821, %1820 ]
  %1824 = load ptr, ptr %11, align 8, !tbaa !224
  %1825 = getelementptr inbounds %"struct.std::_Vector_base<dealii::Vector<double>, std::allocator<dealii::Vector<double> > >::_Vector_impl_data", ptr %11, i64 0, i32 1
  %1826 = load ptr, ptr %1825, align 8, !tbaa !226
  %1827 = icmp eq ptr %1824, %1826
  br i1 %1827, label %1837, label %1828

1828:                                             ; preds = %1822, %1832
  %1829 = phi ptr [ %1833, %1832 ], [ %1824, %1822 ]
  %1830 = load ptr, ptr %1829, align 8, !tbaa !41
  %1831 = load ptr, ptr %1830, align 8
  invoke void %1831(ptr noundef nonnull align 8 dereferenceable(88) %1829)
          to label %1832 unwind label %1841

1832:                                             ; preds = %1828
  %1833 = getelementptr inbounds %"class.dealii::Vector", ptr %1829, i64 1
  %1834 = icmp eq ptr %1833, %1826
  br i1 %1834, label %1835, label %1828

1835:                                             ; preds = %1832
  %1836 = load ptr, ptr %11, align 8, !tbaa !224
  br label %1837

1837:                                             ; preds = %1835, %1822
  %1838 = phi ptr [ %1836, %1835 ], [ %1824, %1822 ]
  %1839 = icmp eq ptr %1838, null
  br i1 %1839, label %1846, label %1840

1840:                                             ; preds = %1837
  call void @_ZdlPv(ptr noundef nonnull %1838) #21
  br label %1846

1841:                                             ; preds = %1828
  %1842 = landingpad { ptr, i32 }
          catch ptr null
  %1843 = load ptr, ptr %11, align 8, !tbaa !224
  %1844 = icmp eq ptr %1843, null
  br i1 %1844, label %1870, label %1845

1845:                                             ; preds = %1841
  call void @_ZdlPv(ptr noundef nonnull %1843) #21
  br label %1870

1846:                                             ; preds = %1799, %1795, %1840, %1837, %217
  %1847 = phi { ptr, i32 } [ %218, %217 ], [ %1823, %1837 ], [ %1823, %1840 ], [ %1796, %1799 ], [ %1796, %1795 ]
  call void @llvm.lifetime.end.p0(i64 24, ptr nonnull %11) #19
  %1848 = load ptr, ptr %10, align 8, !tbaa !131
  %1849 = icmp eq ptr %1848, null
  br i1 %1849, label %1851, label %1850

1850:                                             ; preds = %1846
  call void @_ZdlPv(ptr noundef nonnull %1848) #21
  br label %1851

1851:                                             ; preds = %1850, %1846, %211
  %1852 = phi { ptr, i32 } [ %212, %211 ], [ %1847, %1846 ], [ %1847, %1850 ]
  call void @llvm.lifetime.end.p0(i64 24, ptr nonnull %10) #19
  store ptr getelementptr inbounds ({ [4 x ptr] }, ptr @_ZTVN6dealii9TableBaseILi2EdEE, i64 0, inrange i32 0, i64 2), ptr %9, align 8, !tbaa !41
  %1853 = getelementptr inbounds %"class.dealii::TableBase", ptr %9, i64 0, i32 1
  %1854 = load ptr, ptr %1853, align 8, !tbaa !140
  %1855 = icmp eq ptr %1854, null
  br i1 %1855, label %1857, label %1856

1856:                                             ; preds = %1851
  call void @_ZdaPv(ptr noundef nonnull %1854) #21
  br label %1857

1857:                                             ; preds = %1856, %1851
  invoke void @_ZN6dealii11SubscriptorD2Ev(ptr noundef nonnull align 8 dereferenceable(72) %9)
          to label %1858 unwind label %1868

1858:                                             ; preds = %1857, %209
  %1859 = phi { ptr, i32 } [ %210, %209 ], [ %1852, %1857 ]
  call void @llvm.lifetime.end.p0(i64 96, ptr nonnull %9) #19
  store ptr getelementptr inbounds ({ [4 x ptr] }, ptr @_ZTVN6dealii8FEValuesILi3ELi3EEE, i64 0, inrange i32 0, i64 2), ptr %8, align 8, !tbaa !41
  %1860 = getelementptr inbounds %"class.dealii::FEValues", ptr %8, i64 0, i32 1
  invoke void @_ZN6dealii10QuadratureILi3EED1Ev(ptr noundef nonnull align 8 dereferenceable(128) %1860)
          to label %1861 unwind label %1862

1861:                                             ; preds = %1858
  invoke void @_ZN6dealii12FEValuesBaseILi3ELi3EED2Ev(ptr noundef nonnull align 8 dereferenceable(648) %8)
          to label %1867 unwind label %1868

1862:                                             ; preds = %1858
  %1863 = landingpad { ptr, i32 }
          catch ptr null
  invoke void @_ZN6dealii12FEValuesBaseILi3ELi3EED2Ev(ptr noundef nonnull align 8 dereferenceable(648) %8)
          to label %1870 unwind label %1864

1864:                                             ; preds = %1862
  %1865 = landingpad { ptr, i32 }
          catch ptr null
  %1866 = extractvalue { ptr, i32 } %1865, 0
  call void @__clang_call_terminate(ptr %1866) #22
  unreachable

1867:                                             ; preds = %1861
  call void @llvm.lifetime.end.p0(i64 776, ptr nonnull %8) #19
  br label %1814

1868:                                             ; preds = %1861, %1857, %215
  %1869 = landingpad { ptr, i32 }
          catch ptr null
  br label %1870

1870:                                             ; preds = %1868, %1862, %1841, %1845
  %1871 = phi { ptr, i32 } [ %1842, %1845 ], [ %1842, %1841 ], [ %1869, %1868 ], [ %1863, %1862 ]
  %1872 = extractvalue { ptr, i32 } %1871, 0
  call void @__clang_call_terminate(ptr %1872) #22
  unreachable
}

; Function Attrs: inlinehint sspstrong uwtable
define linkonce_odr dso_local void @_ZN6dealii7Threads8internal16fun_encapsulatorIvN5boost6tuples5tupleIRKNS_7MappingILi3ELi3EEERKNS_10DoFHandlerILi3ELi3EEERKNS_10QuadratureILi3EEERNS_12SparseMatrixIdEEPKNS_8FunctionILi3EEENS_13MatrixCreator13IteratorRangeISB_EERNS0_16DummyThreadMutexENS4_9null_typeESU_SU_EELi7EEclES9_SD_SH_SK_SO_SR_ST_(ptr noalias sret(%"class.dealii::Threads::Thread") align 8 %0, ptr noundef nonnull align 8 dereferenceable(32) %1, ptr noundef nonnull align 8 dereferenceable(72) %2, ptr noundef nonnull align 8 dereferenceable(168) %3, ptr noundef nonnull align 1 %4, ptr noundef nonnull align 8 dereferenceable(36) %5, ptr noundef %6, ptr noundef %7, ptr noundef nonnull align 1 dereferenceable(1) %8) local_unnamed_addr #3 comdat align 2 personality ptr @__gxx_personality_v0 {
  %10 = alloca %"class.boost::function.266", align 8
  %11 = alloca %"class.boost::_bi::bind_t", align 8
  %12 = alloca %"class.boost::function", align 8
  %13 = alloca %"struct.dealii::MatrixCreator::IteratorRange", align 8
  call void @llvm.lifetime.start.p0(i64 32, ptr nonnull %10) #19
  store ptr null, ptr %12, align 8, !tbaa !25
  %14 = load ptr, ptr %1, align 8, !tbaa !25
  %15 = icmp eq ptr %14, null
  br i1 %15, label %20, label %16

16:                                               ; preds = %9
  store ptr %14, ptr %12, align 8, !tbaa !25
  %17 = load ptr, ptr %14, align 8, !tbaa !227
  %18 = getelementptr inbounds %"class.boost::function_base", ptr %1, i64 0, i32 1
  %19 = getelementptr inbounds %"class.boost::function_base", ptr %12, i64 0, i32 1
  call void %17(ptr noundef nonnull align 8 dereferenceable(24) %18, ptr noundef nonnull align 8 dereferenceable(24) %19, i32 noundef 0)
  br label %20

20:                                               ; preds = %9, %16
  call void @llvm.experimental.noalias.scope.decl(metadata !228)
  %21 = getelementptr inbounds %"class.dealii::DoFAccessor", ptr %7, i64 0, i32 1
  %22 = load ptr, ptr %21, align 8, !tbaa !17, !noalias !228
  call void @llvm.memcpy.p0.p0.i64(ptr noundef nonnull align 8 dereferenceable(16) %13, ptr noundef nonnull align 8 dereferenceable(16) %7, i64 16, i1 false)
  %23 = getelementptr inbounds %"class.dealii::DoFAccessor", ptr %13, i64 0, i32 1
  store ptr %22, ptr %23, align 8, !tbaa !17, !alias.scope !228
  %24 = getelementptr inbounds %"struct.dealii::MatrixCreator::IteratorRange", ptr %13, i64 0, i32 1
  %25 = getelementptr inbounds %"struct.dealii::MatrixCreator::IteratorRange", ptr %7, i64 0, i32 1
  %26 = getelementptr inbounds %"struct.dealii::MatrixCreator::IteratorRange", ptr %7, i64 0, i32 1, i32 0, i32 0, i32 0, i32 0, i32 1
  %27 = load ptr, ptr %26, align 8, !tbaa !17, !noalias !228
  call void @llvm.memcpy.p0.p0.i64(ptr noundef nonnull align 8 dereferenceable(16) %24, ptr noundef nonnull align 8 dereferenceable(16) %25, i64 16, i1 false)
  %28 = getelementptr inbounds %"struct.dealii::MatrixCreator::IteratorRange", ptr %13, i64 0, i32 1, i32 0, i32 0, i32 0, i32 0, i32 1
  store ptr %27, ptr %28, align 8, !tbaa !17, !alias.scope !228
  %29 = ptrtoint ptr %8 to i64
  invoke void @_ZN5boost4bindINS_8functionIFvRKN6dealii7MappingILi3ELi3EEERKNS2_10DoFHandlerILi3ELi3EEERKNS2_10QuadratureILi3EEERNS2_12SparseMatrixIdEEPKNS2_8FunctionILi3EEENS2_13MatrixCreator13IteratorRangeIS8_EERNS2_7Threads16DummyThreadMutexEEEENS_17reference_wrapperIS5_EENSU_IS9_EENSU_ISD_EENSU_ISG_EESL_SO_NSU_ISQ_EEEENS_3_bi6bind_tINS10_11unspecifiedET_NS10_9list_av_7IT0_T1_T2_T3_T4_T5_T6_E4typeEEES13_S15_S16_S17_S18_S19_S1A_S1B_(ptr nonnull sret(%"class.boost::_bi::bind_t") align 8 %11, ptr noundef nonnull %12, ptr nonnull %2, ptr nonnull %3, ptr nonnull %4, ptr nonnull %5, ptr noundef %6, ptr noundef nonnull %13, i64 %29)
          to label %30 unwind label %59

30:                                               ; preds = %20
  invoke void @_ZN5boost8functionIFvvEEC2INS_3_bi6bind_tINS4_11unspecifiedENS0_IFvRKN6dealii7MappingILi3ELi3EEERKNS7_10DoFHandlerILi3ELi3EEERKNS7_10QuadratureILi3EEERNS7_12SparseMatrixIdEEPKNS7_8FunctionILi3EEENS7_13MatrixCreator13IteratorRangeISD_EERNS7_7Threads16DummyThreadMutexEEEENS4_5list7INS_17reference_wrapperISA_EENS10_ISE_EENS10_ISI_EENS10_ISL_EENS4_5valueISQ_EENS15_IST_EENS10_ISV_EEEEEEEET_NS_11enable_if_cIXsr5boost11type_traits7ice_notIXsr11is_integralIS1B_EE5valueEEE5valueEiE4typeE(ptr noundef nonnull align 8 dereferenceable(32) %10, ptr noundef nonnull %11, i32 noundef 0)
          to label %31 unwind label %61

31:                                               ; preds = %30
  invoke void @_ZN6dealii7Threads6ThreadIvEC2ERKN5boost8functionIFvvEEE(ptr noundef nonnull align 8 dereferenceable(16) %0, ptr noundef nonnull align 8 dereferenceable(32) %10)
          to label %32 unwind label %63

32:                                               ; preds = %31
  %33 = load ptr, ptr %10, align 8, !tbaa !25
  %34 = icmp eq ptr %33, null
  br i1 %34, label %41, label %35

35:                                               ; preds = %32
  %36 = load ptr, ptr %33, align 8, !tbaa !231
  %37 = icmp eq ptr %36, null
  br i1 %37, label %40, label %38

38:                                               ; preds = %35
  %39 = getelementptr inbounds %"class.boost::function_base", ptr %10, i64 0, i32 1
  invoke void %36(ptr noundef nonnull align 8 dereferenceable(24) %39, ptr noundef nonnull align 8 dereferenceable(24) %39, i32 noundef 2)
          to label %40 unwind label %61

40:                                               ; preds = %38, %35
  store ptr null, ptr %10, align 8, !tbaa !25
  br label %41

41:                                               ; preds = %40, %32
  %42 = load ptr, ptr %11, align 8, !tbaa !25
  %43 = icmp eq ptr %42, null
  br i1 %43, label %50, label %44

44:                                               ; preds = %41
  %45 = load ptr, ptr %42, align 8, !tbaa !27
  %46 = icmp eq ptr %45, null
  br i1 %46, label %49, label %47

47:                                               ; preds = %44
  %48 = getelementptr inbounds %"class.boost::function_base", ptr %11, i64 0, i32 1
  invoke void %45(ptr noundef nonnull align 8 dereferenceable(24) %48, ptr noundef nonnull align 8 dereferenceable(24) %48, i32 noundef 2)
          to label %49 unwind label %59

49:                                               ; preds = %47, %44
  store ptr null, ptr %11, align 8, !tbaa !25
  br label %50

50:                                               ; preds = %49, %41
  %51 = load ptr, ptr %12, align 8, !tbaa !25
  %52 = icmp eq ptr %51, null
  br i1 %52, label %58, label %53

53:                                               ; preds = %50
  %54 = load ptr, ptr %51, align 8, !tbaa !27
  %55 = icmp eq ptr %54, null
  br i1 %55, label %58, label %56

56:                                               ; preds = %53
  %57 = getelementptr inbounds %"class.boost::function_base", ptr %12, i64 0, i32 1
  call void %54(ptr noundef nonnull align 8 dereferenceable(24) %57, ptr noundef nonnull align 8 dereferenceable(24) %57, i32 noundef 2)
  br label %58

58:                                               ; preds = %53, %56, %50
  call void @llvm.lifetime.end.p0(i64 32, ptr nonnull %10) #19
  ret void

59:                                               ; preds = %47, %20
  %60 = landingpad { ptr, i32 }
          cleanup
  br label %83

61:                                               ; preds = %38, %30
  %62 = landingpad { ptr, i32 }
          cleanup
  br label %73

63:                                               ; preds = %31
  %64 = landingpad { ptr, i32 }
          cleanup
  %65 = load ptr, ptr %10, align 8, !tbaa !25
  %66 = icmp eq ptr %65, null
  br i1 %66, label %73, label %67

67:                                               ; preds = %63
  %68 = load ptr, ptr %65, align 8, !tbaa !231
  %69 = icmp eq ptr %68, null
  br i1 %69, label %72, label %70

70:                                               ; preds = %67
  %71 = getelementptr inbounds %"class.boost::function_base", ptr %10, i64 0, i32 1
  invoke void %68(ptr noundef nonnull align 8 dereferenceable(24) %71, ptr noundef nonnull align 8 dereferenceable(24) %71, i32 noundef 2)
          to label %72 unwind label %93

72:                                               ; preds = %70, %67
  store ptr null, ptr %10, align 8, !tbaa !25
  br label %73

73:                                               ; preds = %72, %63, %61
  %74 = phi { ptr, i32 } [ %62, %61 ], [ %64, %63 ], [ %64, %72 ]
  %75 = load ptr, ptr %11, align 8, !tbaa !25
  %76 = icmp eq ptr %75, null
  br i1 %76, label %83, label %77

77:                                               ; preds = %73
  %78 = load ptr, ptr %75, align 8, !tbaa !27
  %79 = icmp eq ptr %78, null
  br i1 %79, label %82, label %80

80:                                               ; preds = %77
  %81 = getelementptr inbounds %"class.boost::function_base", ptr %11, i64 0, i32 1
  invoke void %78(ptr noundef nonnull align 8 dereferenceable(24) %81, ptr noundef nonnull align 8 dereferenceable(24) %81, i32 noundef 2)
          to label %82 unwind label %93

82:                                               ; preds = %80, %77
  store ptr null, ptr %11, align 8, !tbaa !25
  br label %83

83:                                               ; preds = %82, %73, %59
  %84 = phi { ptr, i32 } [ %60, %59 ], [ %74, %73 ], [ %74, %82 ]
  %85 = load ptr, ptr %12, align 8, !tbaa !25
  %86 = icmp eq ptr %85, null
  br i1 %86, label %92, label %87

87:                                               ; preds = %83
  %88 = load ptr, ptr %85, align 8, !tbaa !27
  %89 = icmp eq ptr %88, null
  br i1 %89, label %92, label %90

90:                                               ; preds = %87
  %91 = getelementptr inbounds %"class.boost::function_base", ptr %12, i64 0, i32 1
  invoke void %88(ptr noundef nonnull align 8 dereferenceable(24) %91, ptr noundef nonnull align 8 dereferenceable(24) %91, i32 noundef 2)
          to label %92 unwind label %93

92:                                               ; preds = %87, %90, %83
  call void @llvm.lifetime.end.p0(i64 32, ptr nonnull %10) #19
  resume { ptr, i32 } %84

93:                                               ; preds = %90, %80, %70
  %94 = landingpad { ptr, i32 }
          catch ptr null
  %95 = extractvalue { ptr, i32 } %94, 0
  call void @__clang_call_terminate(ptr %95) #22
  unreachable
}

; Function Attrs: inlinehint sspstrong uwtable
define linkonce_odr dso_local void @_ZN6dealii7Threads6ThreadIvED2Ev(ptr noundef nonnull align 8 dereferenceable(16) %0) unnamed_addr #3 comdat align 2 {
  %2 = getelementptr inbounds %"class.boost::shared_ptr", ptr %0, i64 0, i32 1
  %3 = load ptr, ptr %2, align 8, !tbaa !39
  %4 = icmp eq ptr %3, null
  br i1 %4, label %22, label %5

5:                                                ; preds = %1
  %6 = getelementptr inbounds %"class.boost::detail::sp_counted_base", ptr %3, i64 0, i32 1
  %7 = load i64, ptr %6, align 8, !tbaa !34
  %8 = add nsw i64 %7, -1
  store i64 %8, ptr %6, align 8, !tbaa !34
  %9 = icmp eq i64 %8, 0
  br i1 %9, label %10, label %22

10:                                               ; preds = %5
  %11 = load ptr, ptr %3, align 8, !tbaa !41
  %12 = getelementptr inbounds ptr, ptr %11, i64 2
  %13 = load ptr, ptr %12, align 8
  tail call void %13(ptr noundef nonnull align 8 dereferenceable(24) %3)
  %14 = getelementptr inbounds %"class.boost::detail::sp_counted_base", ptr %3, i64 0, i32 2
  %15 = load i64, ptr %14, align 8, !tbaa !43
  %16 = add nsw i64 %15, -1
  store i64 %16, ptr %14, align 8, !tbaa !43
  %17 = icmp eq i64 %16, 0
  br i1 %17, label %18, label %22

18:                                               ; preds = %10
  %19 = load ptr, ptr %3, align 8, !tbaa !41
  %20 = getelementptr inbounds ptr, ptr %19, i64 3
  %21 = load ptr, ptr %20, align 8
  tail call void %21(ptr noundef nonnull align 8 dereferenceable(24) %3)
  br label %22

22:                                               ; preds = %1, %5, %10, %18
  ret void
}

; Function Attrs: noinline noreturn nounwind sspstrong uwtable
define linkonce_odr hidden void @__clang_call_terminate(ptr noundef %0) local_unnamed_addr #4 comdat {
  %2 = tail call ptr @__cxa_begin_catch(ptr %0) #19
  tail call void @_ZSt9terminatev() #22
  unreachable
}

declare ptr @__cxa_begin_catch(ptr) local_unnamed_addr

declare void @_ZSt9terminatev() local_unnamed_addr

; Function Attrs: inlinehint sspstrong uwtable
define linkonce_odr dso_local void @_ZN6dealii7Threads11ThreadGroupIvED2Ev(ptr noundef nonnull align 8 dereferenceable(24) %0) unnamed_addr #3 comdat align 2 personality ptr @__gxx_personality_v0 {
  %2 = load ptr, ptr %0, align 8, !tbaa !13
  %3 = icmp eq ptr %2, %0
  br i1 %3, label %29, label %4

4:                                                ; preds = %1, %27
  %5 = phi ptr [ %6, %27 ], [ %2, %1 ]
  %6 = load ptr, ptr %5, align 8, !tbaa !13
  %7 = getelementptr inbounds %"struct.std::_List_node", ptr %5, i64 0, i32 1, i32 0, i32 1
  %8 = load ptr, ptr %7, align 8, !tbaa !39
  %9 = icmp eq ptr %8, null
  br i1 %9, label %27, label %10

10:                                               ; preds = %4
  %11 = getelementptr inbounds %"class.boost::detail::sp_counted_base", ptr %8, i64 0, i32 1
  %12 = load i64, ptr %11, align 8, !tbaa !34
  %13 = add nsw i64 %12, -1
  store i64 %13, ptr %11, align 8, !tbaa !34
  %14 = icmp eq i64 %13, 0
  br i1 %14, label %15, label %27

15:                                               ; preds = %10
  %16 = load ptr, ptr %8, align 8, !tbaa !41
  %17 = getelementptr inbounds ptr, ptr %16, i64 2
  %18 = load ptr, ptr %17, align 8
  tail call void %18(ptr noundef nonnull align 8 dereferenceable(24) %8)
  %19 = getelementptr inbounds %"class.boost::detail::sp_counted_base", ptr %8, i64 0, i32 2
  %20 = load i64, ptr %19, align 8, !tbaa !43
  %21 = add nsw i64 %20, -1
  store i64 %21, ptr %19, align 8, !tbaa !43
  %22 = icmp eq i64 %21, 0
  br i1 %22, label %23, label %27

23:                                               ; preds = %15
  %24 = load ptr, ptr %8, align 8, !tbaa !41
  %25 = getelementptr inbounds ptr, ptr %24, i64 3
  %26 = load ptr, ptr %25, align 8
  tail call void %26(ptr noundef nonnull align 8 dereferenceable(24) %8)
  br label %27

27:                                               ; preds = %23, %15, %10, %4
  tail call void @_ZdlPv(ptr noundef nonnull %5) #21
  %28 = icmp eq ptr %6, %0
  br i1 %28, label %29, label %4

29:                                               ; preds = %27, %1
  ret void
}

; Function Attrs: sspstrong uwtable
define weak_odr dso_local void @_ZN6dealii13MatrixCreator18create_mass_matrixILi3EdLi3EEEvRKNS_10DoFHandlerIXT_EXT1_EEERKNS_10QuadratureIXT_EEERNS_12SparseMatrixIT0_EEPKNS_8FunctionIXT1_EEE(ptr noundef nonnull align 8 dereferenceable(168) %0, ptr noundef nonnull align 1 %1, ptr noundef nonnull align 8 dereferenceable(36) %2, ptr noundef %3) local_unnamed_addr #0 comdat align 2 {
  tail call void @_ZN6dealii13MatrixCreator18create_mass_matrixILi3EdLi3EEEvRKNS_7MappingIXT_EXT1_EEERKNS_10DoFHandlerIXT_EXT1_EEERKNS_10QuadratureIXT_EEERNS_12SparseMatrixIT0_EEPKNS_8FunctionIXT1_EEE(ptr noundef nonnull align 8 dereferenceable(72) @_ZN6dealii15StaticMappingQ1ILi3ELi3EE7mappingE, ptr noundef nonnull align 8 dereferenceable(168) %0, ptr noundef nonnull align 1 %1, ptr noundef nonnull align 8 dereferenceable(36) %2, ptr noundef %3)
  ret void
}

; Function Attrs: sspstrong uwtable
define weak_odr dso_local void @_ZN6dealii13MatrixCreator18create_mass_matrixILi3EdLi3EEEvRKNS_7MappingIXT_EXT1_EEERKNS_10DoFHandlerIXT_EXT1_EEERKNS_10QuadratureIXT_EEERNS_12SparseMatrixIT0_EERKNS_8FunctionIXT1_EEERNS_6VectorIdEEPSK_(ptr noundef nonnull align 8 dereferenceable(72) %0, ptr noundef nonnull align 8 dereferenceable(168) %1, ptr noundef nonnull align 1 %2, ptr noundef nonnull align 8 dereferenceable(36) %3, ptr noundef nonnull align 1 %4, ptr noundef nonnull align 8 dereferenceable(88) %5, ptr noundef %6) local_unnamed_addr #0 comdat align 2 personality ptr @__gxx_personality_v0 {
  %8 = alloca %"class.dealii::Threads::ThreadGroup", align 8
  %9 = alloca %"class.std::vector", align 8
  %10 = alloca %"class.dealii::TriaActiveIterator", align 8
  %11 = alloca %"class.dealii::TriaActiveIterator", align 8
  %12 = alloca %"class.dealii::TriaRawIterator", align 8
  %13 = alloca %"class.dealii::Threads::DummyThreadMutex", align 1
  %14 = alloca %"class.dealii::Threads::Thread", align 16
  %15 = alloca %"class.dealii::Threads::internal::fun_encapsulator.34", align 8
  %16 = alloca %"struct.dealii::MatrixCreator::IteratorRange", align 8
  %17 = load i32, ptr getelementptr inbounds (%"class.dealii::MultithreadInfo", ptr @_ZN6dealii16multithread_infoE, i64 0, i32 1), align 4, !tbaa !5
  call void @llvm.lifetime.start.p0(i64 24, ptr nonnull %8) #19
  %18 = getelementptr inbounds %"struct.std::__detail::_List_node_base", ptr %8, i64 0, i32 1
  store ptr %8, ptr %18, align 8, !tbaa !10
  store ptr %8, ptr %8, align 8, !tbaa !13
  %19 = getelementptr inbounds %"struct.std::__detail::_List_node_header", ptr %8, i64 0, i32 1
  store i64 0, ptr %19, align 8, !tbaa !14
  call void @llvm.lifetime.start.p0(i64 24, ptr nonnull %9) #19
  call void @llvm.lifetime.start.p0(i64 24, ptr nonnull %10) #19
  invoke void @_ZNK6dealii10DoFHandlerILi3ELi3EE12begin_activeEj(ptr nonnull sret(%"class.dealii::TriaActiveIterator") align 8 %10, ptr noundef nonnull align 8 dereferenceable(168) %1, i32 noundef 0)
          to label %20 unwind label %43

20:                                               ; preds = %7
  call void @llvm.lifetime.start.p0(i64 24, ptr nonnull %11) #19
  call void @llvm.lifetime.start.p0(i64 24, ptr nonnull %12) #19
  invoke void @_ZNK6dealii10DoFHandlerILi3ELi3EE3endEv(ptr nonnull sret(%"class.dealii::TriaRawIterator") align 8 %12, ptr noundef nonnull align 8 dereferenceable(168) %1)
          to label %21 unwind label %45

21:                                               ; preds = %20
  call void @llvm.memcpy.p0.p0.i64(ptr noundef nonnull align 8 dereferenceable(16) %11, ptr noundef nonnull align 8 dereferenceable(16) %12, i64 16, i1 false)
  %22 = getelementptr inbounds %"class.dealii::DoFAccessor", ptr %11, i64 0, i32 1
  %23 = getelementptr inbounds %"class.dealii::DoFAccessor", ptr %12, i64 0, i32 1
  %24 = load ptr, ptr %23, align 8, !tbaa !17
  store ptr %24, ptr %22, align 8, !tbaa !17
  invoke void @_ZN6dealii7Threads11split_rangeINS_18TriaActiveIteratorINS_15DoFCellAccessorINS_10DoFHandlerILi3ELi3EEEEEEEEESt6vectorISt4pairIT_SA_ESaISB_EERKSA_SF_j(ptr nonnull sret(%"class.std::vector") align 8 %9, ptr noundef nonnull align 8 dereferenceable(24) %10, ptr noundef nonnull align 8 dereferenceable(24) %11, i32 noundef %17)
          to label %25 unwind label %45

25:                                               ; preds = %21
  call void @llvm.lifetime.end.p0(i64 24, ptr nonnull %12) #19
  call void @llvm.lifetime.end.p0(i64 24, ptr nonnull %11) #19
  call void @llvm.lifetime.end.p0(i64 24, ptr nonnull %10) #19
  call void @llvm.lifetime.start.p0(i64 1, ptr nonnull %13) #19
  %26 = icmp eq i32 %17, 0
  br i1 %26, label %34, label %27

27:                                               ; preds = %25
  %28 = getelementptr inbounds %"class.boost::function_base", ptr %15, i64 0, i32 1
  %29 = getelementptr inbounds %"class.dealii::DoFAccessor", ptr %16, i64 0, i32 1
  %30 = getelementptr inbounds %"struct.dealii::MatrixCreator::IteratorRange", ptr %16, i64 0, i32 1
  %31 = getelementptr inbounds %"struct.dealii::MatrixCreator::IteratorRange", ptr %16, i64 0, i32 1, i32 0, i32 0, i32 0, i32 0, i32 1
  %32 = getelementptr inbounds %"class.boost::shared_ptr", ptr %14, i64 0, i32 1
  %33 = zext i32 %17 to i64
  br label %49

34:                                               ; preds = %103, %25
  %35 = load ptr, ptr %8, align 8, !tbaa !13
  %36 = icmp eq ptr %35, %8
  br i1 %36, label %122, label %37

37:                                               ; preds = %34, %40
  %38 = phi ptr [ %41, %40 ], [ %35, %34 ]
  %39 = getelementptr inbounds %"struct.std::_List_node", ptr %38, i64 0, i32 1
  invoke void @_ZNK6dealii7Threads6ThreadIvE4joinEv(ptr noundef nonnull align 8 dereferenceable(16) %39)
          to label %40 unwind label %155

40:                                               ; preds = %37
  %41 = load ptr, ptr %38, align 8, !tbaa !13
  %42 = icmp eq ptr %41, %8
  br i1 %42, label %122, label %37

43:                                               ; preds = %7
  %44 = landingpad { ptr, i32 }
          cleanup
  br label %47

45:                                               ; preds = %21, %20
  %46 = landingpad { ptr, i32 }
          cleanup
  call void @llvm.lifetime.end.p0(i64 24, ptr nonnull %12) #19
  call void @llvm.lifetime.end.p0(i64 24, ptr nonnull %11) #19
  br label %47

47:                                               ; preds = %45, %43
  %48 = phi { ptr, i32 } [ %46, %45 ], [ %44, %43 ]
  call void @llvm.lifetime.end.p0(i64 24, ptr nonnull %10) #19
  br label %162

49:                                               ; preds = %27, %103
  %50 = phi i64 [ 0, %27 ], [ %104, %103 ]
  call void @llvm.lifetime.start.p0(i64 16, ptr nonnull %14) #19
  call void @llvm.lifetime.start.p0(i64 32, ptr nonnull %15) #19
  call void @llvm.experimental.noalias.scope.decl(metadata !233)
  store ptr null, ptr %15, align 8, !tbaa !25, !alias.scope !233
  %51 = load ptr, ptr @_ZZN5boost9function9IvRKN6dealii7MappingILi3ELi3EEERKNS1_10DoFHandlerILi3ELi3EEERKNS1_10QuadratureILi3EEERNS1_12SparseMatrixIdEERKNS1_8FunctionILi3EEERNS1_6VectorIdEEPSJ_NS1_13MatrixCreator13IteratorRangeIS7_EERNS1_7Threads16DummyThreadMutexEE9assign_toIPFvS5_S9_SD_SG_SK_SN_SO_SR_SU_EEEvT_E13stored_vtable, align 8, !tbaa !236, !noalias !233
  %52 = icmp eq ptr %51, null
  br i1 %52, label %54, label %53

53:                                               ; preds = %49
  invoke void %51(ptr noundef nonnull align 8 dereferenceable(24) %28, ptr noundef nonnull align 8 dereferenceable(24) %28, i32 noundef 2)
          to label %54 unwind label %106

54:                                               ; preds = %53, %49
  store ptr @_ZN6dealii13MatrixCreator20create_mass_matrix_2ILi3EdLi3EEEvRKNS_7MappingIXT_EXT1_EEERKNS_10DoFHandlerIXT_EXT1_EEERKNS_10QuadratureIXT_EEERNS_12SparseMatrixIT0_EERKNS_8FunctionIXT1_EEERNS_6VectorIdEEPSK_NS0_13IteratorRangeIS7_EERNS_7Threads16DummyThreadMutexE, ptr %28, align 8, !tbaa !30, !alias.scope !233
  store ptr @_ZZN5boost9function9IvRKN6dealii7MappingILi3ELi3EEERKNS1_10DoFHandlerILi3ELi3EEERKNS1_10QuadratureILi3EEERNS1_12SparseMatrixIdEERKNS1_8FunctionILi3EEERNS1_6VectorIdEEPSJ_NS1_13MatrixCreator13IteratorRangeIS7_EERNS1_7Threads16DummyThreadMutexEE9assign_toIPFvS5_S9_SD_SG_SK_SN_SO_SR_SU_EEEvT_E13stored_vtable, ptr %15, align 8, !tbaa !25, !alias.scope !233
  %55 = load ptr, ptr %9, align 8, !tbaa !31
  %56 = getelementptr inbounds %"struct.std::pair", ptr %55, i64 %50
  %57 = getelementptr inbounds %"class.dealii::DoFAccessor", ptr %56, i64 0, i32 1
  %58 = load ptr, ptr %57, align 8, !tbaa !17
  call void @llvm.memmove.p0.p0.i64(ptr noundef nonnull align 8 dereferenceable(16) %16, ptr noundef nonnull align 8 dereferenceable(16) %56, i64 16, i1 false)
  store ptr %58, ptr %29, align 8, !tbaa !17
  %59 = getelementptr inbounds %"struct.std::pair", ptr %55, i64 %50, i32 1
  %60 = getelementptr inbounds %"struct.std::pair", ptr %55, i64 %50, i32 1, i32 0, i32 0, i32 0, i32 0, i32 1
  %61 = load ptr, ptr %60, align 8, !tbaa !17
  call void @llvm.memmove.p0.p0.i64(ptr noundef nonnull align 8 dereferenceable(16) %30, ptr noundef nonnull align 8 dereferenceable(16) %59, i64 16, i1 false)
  store ptr %61, ptr %31, align 8, !tbaa !17
  invoke void @_ZN6dealii7Threads8internal16fun_encapsulatorIvN5boost6tuples5tupleIRKNS_7MappingILi3ELi3EEERKNS_10DoFHandlerILi3ELi3EEERKNS_10QuadratureILi3EEERNS_12SparseMatrixIdEERKNS_8FunctionILi3EEERNS_6VectorIdEEPSN_NS_13MatrixCreator13IteratorRangeISB_EERNS0_16DummyThreadMutexENS4_9null_typeEEELi9EEclES9_SD_SH_SK_SO_SR_SS_SV_SX_(ptr nonnull sret(%"class.dealii::Threads::Thread") align 8 %14, ptr noundef nonnull align 8 dereferenceable(32) %15, ptr noundef nonnull align 8 dereferenceable(72) %0, ptr noundef nonnull align 8 dereferenceable(168) %1, ptr noundef nonnull align 1 %2, ptr noundef nonnull align 8 dereferenceable(36) %3, ptr noundef nonnull align 1 %4, ptr noundef nonnull align 8 dereferenceable(88) %5, ptr noundef %6, ptr noundef nonnull %16, ptr noundef nonnull align 1 dereferenceable(1) %13)
          to label %62 unwind label %108

62:                                               ; preds = %54
  %63 = invoke noalias noundef nonnull dereferenceable(32) ptr @_Znwm(i64 noundef 32) #20
          to label %64 unwind label %110

64:                                               ; preds = %62
  %65 = getelementptr inbounds %"struct.std::_List_node", ptr %63, i64 0, i32 1
  %66 = load <2 x ptr>, ptr %14, align 16, !tbaa !33
  store <2 x ptr> %66, ptr %65, align 8, !tbaa !33
  %67 = extractelement <2 x ptr> %66, i64 1
  %68 = icmp eq ptr %67, null
  br i1 %68, label %73, label %69

69:                                               ; preds = %64
  %70 = getelementptr inbounds %"class.boost::detail::sp_counted_base", ptr %67, i64 0, i32 1
  %71 = load i64, ptr %70, align 8, !tbaa !34
  %72 = add nsw i64 %71, 1
  store i64 %72, ptr %70, align 8, !tbaa !34
  br label %73

73:                                               ; preds = %69, %64
  call void @_ZNSt8__detail15_List_node_base7_M_hookEPS0_(ptr noundef nonnull align 8 dereferenceable(16) %63, ptr noundef nonnull %8) #19
  %74 = load i64, ptr %19, align 8, !tbaa !36
  %75 = add i64 %74, 1
  store i64 %75, ptr %19, align 8, !tbaa !36
  %76 = load ptr, ptr %32, align 8, !tbaa !39
  %77 = icmp eq ptr %76, null
  br i1 %77, label %96, label %78

78:                                               ; preds = %73
  %79 = getelementptr inbounds %"class.boost::detail::sp_counted_base", ptr %76, i64 0, i32 1
  %80 = load i64, ptr %79, align 8, !tbaa !34
  %81 = add nsw i64 %80, -1
  store i64 %81, ptr %79, align 8, !tbaa !34
  %82 = icmp eq i64 %81, 0
  br i1 %82, label %83, label %96

83:                                               ; preds = %78
  %84 = load ptr, ptr %76, align 8, !tbaa !41
  %85 = getelementptr inbounds ptr, ptr %84, i64 2
  %86 = load ptr, ptr %85, align 8
  invoke void %86(ptr noundef nonnull align 8 dereferenceable(24) %76)
          to label %87 unwind label %108

87:                                               ; preds = %83
  %88 = getelementptr inbounds %"class.boost::detail::sp_counted_base", ptr %76, i64 0, i32 2
  %89 = load i64, ptr %88, align 8, !tbaa !43
  %90 = add nsw i64 %89, -1
  store i64 %90, ptr %88, align 8, !tbaa !43
  %91 = icmp eq i64 %90, 0
  br i1 %91, label %92, label %96

92:                                               ; preds = %87
  %93 = load ptr, ptr %76, align 8, !tbaa !41
  %94 = getelementptr inbounds ptr, ptr %93, i64 3
  %95 = load ptr, ptr %94, align 8
  invoke void %95(ptr noundef nonnull align 8 dereferenceable(24) %76)
          to label %96 unwind label %108

96:                                               ; preds = %87, %78, %73, %92
  %97 = load ptr, ptr %15, align 8, !tbaa !25
  %98 = icmp eq ptr %97, null
  br i1 %98, label %103, label %99

99:                                               ; preds = %96
  %100 = load ptr, ptr %97, align 8, !tbaa !236
  %101 = icmp eq ptr %100, null
  br i1 %101, label %103, label %102

102:                                              ; preds = %99
  invoke void %100(ptr noundef nonnull align 8 dereferenceable(24) %28, ptr noundef nonnull align 8 dereferenceable(24) %28, i32 noundef 2)
          to label %103 unwind label %106

103:                                              ; preds = %99, %102, %96
  call void @llvm.lifetime.end.p0(i64 32, ptr nonnull %15) #19
  call void @llvm.lifetime.end.p0(i64 16, ptr nonnull %14) #19
  %104 = add nuw nsw i64 %50, 1
  %105 = icmp eq i64 %104, %33
  br i1 %105, label %34, label %49

106:                                              ; preds = %102, %53
  %107 = landingpad { ptr, i32 }
          cleanup
  br label %120

108:                                              ; preds = %92, %83, %54
  %109 = landingpad { ptr, i32 }
          cleanup
  br label %112

110:                                              ; preds = %62
  %111 = landingpad { ptr, i32 }
          cleanup
  invoke void @_ZN6dealii7Threads6ThreadIvED2Ev(ptr noundef nonnull align 8 dereferenceable(16) %14)
          to label %112 unwind label %165

112:                                              ; preds = %110, %108
  %113 = phi { ptr, i32 } [ %109, %108 ], [ %111, %110 ]
  %114 = load ptr, ptr %15, align 8, !tbaa !25
  %115 = icmp eq ptr %114, null
  br i1 %115, label %120, label %116

116:                                              ; preds = %112
  %117 = load ptr, ptr %114, align 8, !tbaa !236
  %118 = icmp eq ptr %117, null
  br i1 %118, label %120, label %119

119:                                              ; preds = %116
  invoke void %117(ptr noundef nonnull align 8 dereferenceable(24) %28, ptr noundef nonnull align 8 dereferenceable(24) %28, i32 noundef 2)
          to label %120 unwind label %165

120:                                              ; preds = %116, %119, %112, %106
  %121 = phi { ptr, i32 } [ %107, %106 ], [ %113, %112 ], [ %113, %119 ], [ %113, %116 ]
  call void @llvm.lifetime.end.p0(i64 32, ptr nonnull %15) #19
  call void @llvm.lifetime.end.p0(i64 16, ptr nonnull %14) #19
  br label %157

122:                                              ; preds = %40, %34
  call void @llvm.lifetime.end.p0(i64 1, ptr nonnull %13) #19
  %123 = load ptr, ptr %9, align 8, !tbaa !31
  %124 = icmp eq ptr %123, null
  br i1 %124, label %126, label %125

125:                                              ; preds = %122
  call void @_ZdlPv(ptr noundef nonnull %123) #21
  br label %126

126:                                              ; preds = %125, %122
  call void @llvm.lifetime.end.p0(i64 24, ptr nonnull %9) #19
  %127 = load ptr, ptr %8, align 8, !tbaa !13
  %128 = icmp eq ptr %127, %8
  br i1 %128, label %154, label %129

129:                                              ; preds = %126, %152
  %130 = phi ptr [ %131, %152 ], [ %127, %126 ]
  %131 = load ptr, ptr %130, align 8, !tbaa !13
  %132 = getelementptr inbounds %"struct.std::_List_node", ptr %130, i64 0, i32 1, i32 0, i32 1
  %133 = load ptr, ptr %132, align 8, !tbaa !39
  %134 = icmp eq ptr %133, null
  br i1 %134, label %152, label %135

135:                                              ; preds = %129
  %136 = getelementptr inbounds %"class.boost::detail::sp_counted_base", ptr %133, i64 0, i32 1
  %137 = load i64, ptr %136, align 8, !tbaa !34
  %138 = add nsw i64 %137, -1
  store i64 %138, ptr %136, align 8, !tbaa !34
  %139 = icmp eq i64 %138, 0
  br i1 %139, label %140, label %152

140:                                              ; preds = %135
  %141 = load ptr, ptr %133, align 8, !tbaa !41
  %142 = getelementptr inbounds ptr, ptr %141, i64 2
  %143 = load ptr, ptr %142, align 8
  call void %143(ptr noundef nonnull align 8 dereferenceable(24) %133)
  %144 = getelementptr inbounds %"class.boost::detail::sp_counted_base", ptr %133, i64 0, i32 2
  %145 = load i64, ptr %144, align 8, !tbaa !43
  %146 = add nsw i64 %145, -1
  store i64 %146, ptr %144, align 8, !tbaa !43
  %147 = icmp eq i64 %146, 0
  br i1 %147, label %148, label %152

148:                                              ; preds = %140
  %149 = load ptr, ptr %133, align 8, !tbaa !41
  %150 = getelementptr inbounds ptr, ptr %149, i64 3
  %151 = load ptr, ptr %150, align 8
  call void %151(ptr noundef nonnull align 8 dereferenceable(24) %133)
  br label %152

152:                                              ; preds = %148, %140, %135, %129
  call void @_ZdlPv(ptr noundef nonnull %130) #21
  %153 = icmp eq ptr %131, %8
  br i1 %153, label %154, label %129

154:                                              ; preds = %152, %126
  call void @llvm.lifetime.end.p0(i64 24, ptr nonnull %8) #19
  ret void

155:                                              ; preds = %37
  %156 = landingpad { ptr, i32 }
          cleanup
  br label %157

157:                                              ; preds = %155, %120
  %158 = phi { ptr, i32 } [ %121, %120 ], [ %156, %155 ]
  call void @llvm.lifetime.end.p0(i64 1, ptr nonnull %13) #19
  %159 = load ptr, ptr %9, align 8, !tbaa !31
  %160 = icmp eq ptr %159, null
  br i1 %160, label %162, label %161

161:                                              ; preds = %157
  call void @_ZdlPv(ptr noundef nonnull %159) #21
  br label %162

162:                                              ; preds = %161, %157, %47
  %163 = phi { ptr, i32 } [ %48, %47 ], [ %158, %157 ], [ %158, %161 ]
  call void @llvm.lifetime.end.p0(i64 24, ptr nonnull %9) #19
  invoke void @_ZN6dealii7Threads11ThreadGroupIvED2Ev(ptr noundef nonnull align 8 dereferenceable(24) %8)
          to label %164 unwind label %165

164:                                              ; preds = %162
  call void @llvm.lifetime.end.p0(i64 24, ptr nonnull %8) #19
  resume { ptr, i32 } %163

165:                                              ; preds = %119, %162, %110
  %166 = landingpad { ptr, i32 }
          catch ptr null
  %167 = extractvalue { ptr, i32 } %166, 0
  call void @__clang_call_terminate(ptr %167) #22
  unreachable
}

; Function Attrs: sspstrong uwtable
define linkonce_odr dso_local void @_ZN6dealii13MatrixCreator20create_mass_matrix_2ILi3EdLi3EEEvRKNS_7MappingIXT_EXT1_EEERKNS_10DoFHandlerIXT_EXT1_EEERKNS_10QuadratureIXT_EEERNS_12SparseMatrixIT0_EERKNS_8FunctionIXT1_EEERNS_6VectorIdEEPSK_NS0_13IteratorRangeIS7_EERNS_7Threads16DummyThreadMutexE(ptr noundef nonnull align 8 dereferenceable(72) %0, ptr noundef nonnull align 8 dereferenceable(168) %1, ptr noundef nonnull align 1 %2, ptr noundef nonnull align 8 dereferenceable(36) %3, ptr noundef nonnull align 1 %4, ptr noundef nonnull align 8 dereferenceable(88) %5, ptr noundef %6, ptr noundef %7, ptr noundef nonnull align 1 dereferenceable(1) %8) #0 comdat align 2 personality ptr @__gxx_personality_v0 {
  %10 = alloca %"class.dealii::FEValues", align 8
  %11 = alloca %"class.dealii::FullMatrix", align 8
  %12 = alloca %"class.dealii::Vector", align 8
  %13 = alloca %"class.std::vector.92", align 8
  %14 = alloca %"class.std::vector.258", align 8
  %15 = alloca %"class.dealii::Vector", align 8
  %16 = alloca %"class.std::allocator.260", align 1
  %17 = alloca %"class.std::vector.92", align 8
  %18 = alloca %"class.std::vector.258", align 8
  %19 = alloca %"class.dealii::Vector", align 8
  %20 = alloca %"class.std::allocator.260", align 1
  %21 = alloca %"class.dealii::TriaActiveIterator", align 8
  %22 = icmp eq ptr %6, null
  call void @llvm.lifetime.start.p0(i64 776, ptr nonnull %10) #19
  %23 = getelementptr inbounds %"class.dealii::DoFHandler", ptr %1, i64 0, i32 2
  %24 = load ptr, ptr %23, align 8, !tbaa !63
  call void @_ZN6dealii8FEValuesILi3ELi3EEC1ERKNS_7MappingILi3ELi3EEERKNS_13FiniteElementILi3ELi3EEERKNS_10QuadratureILi3EEENS_11UpdateFlagsE(ptr noundef nonnull align 8 dereferenceable(776) %10, ptr noundef nonnull align 8 dereferenceable(72) %0, ptr noundef nonnull align 8 dereferenceable(728) %24, ptr noundef nonnull align 8 dereferenceable(128) %2, i32 noundef 49)
  %25 = getelementptr inbounds %"class.dealii::FEValuesBase", ptr %10, i64 0, i32 3
  %26 = load i32, ptr %25, align 8, !tbaa !65
  %27 = getelementptr inbounds %"class.dealii::FEValuesBase", ptr %10, i64 0, i32 2
  %28 = load i32, ptr %27, align 4, !tbaa !127
  %29 = getelementptr inbounds %"class.dealii::FEValuesBase", ptr %10, i64 0, i32 6
  %30 = load ptr, ptr %29, align 8, !tbaa !63
  %31 = getelementptr inbounds i8, ptr %30, i64 116
  %32 = load i32, ptr %31, align 4, !tbaa !128
  call void @llvm.lifetime.start.p0(i64 96, ptr nonnull %11) #19
  invoke void @_ZN6dealii10FullMatrixIdEC1Ejj(ptr noundef nonnull align 8 dereferenceable(92) %11, i32 noundef %26, i32 noundef %26)
          to label %33 unwind label %269

33:                                               ; preds = %9
  call void @llvm.lifetime.start.p0(i64 88, ptr nonnull %12) #19
  invoke void @_ZN6dealii11SubscriptorC2Ev(ptr noundef nonnull align 8 dereferenceable(72) %12)
          to label %34 unwind label %271

34:                                               ; preds = %33
  store ptr getelementptr inbounds ({ [6 x ptr] }, ptr @_ZTVN6dealii6VectorIdEE, i64 0, inrange i32 0, i64 2), ptr %12, align 8, !tbaa !41
  %35 = getelementptr inbounds %"class.dealii::Vector", ptr %12, i64 0, i32 1
  call void @llvm.memset.p0.i64(ptr noundef nonnull align 8 dereferenceable(16) %35, i8 0, i64 16, i1 false)
  %36 = icmp eq i32 %26, 0
  br i1 %36, label %49, label %37

37:                                               ; preds = %34
  %38 = zext i32 %26 to i64
  %39 = shl nuw nsw i64 %38, 3
  %40 = invoke noalias noundef nonnull ptr @_Znam(i64 noundef %39) #20
          to label %41 unwind label %44

41:                                               ; preds = %37
  %42 = getelementptr inbounds %"class.dealii::Vector", ptr %12, i64 0, i32 3
  %43 = getelementptr inbounds %"class.dealii::Vector", ptr %12, i64 0, i32 2
  store ptr %40, ptr %42, align 8, !tbaa !136
  store i32 %26, ptr %43, align 4, !tbaa !138
  store i32 %26, ptr %35, align 8, !tbaa !139
  call void @llvm.memset.p0.i64(ptr nonnull align 8 %40, i8 0, i64 %39, i1 false), !tbaa !133
  br label %49

44:                                               ; preds = %37
  %45 = landingpad { ptr, i32 }
          cleanup
  invoke void @_ZN6dealii11SubscriptorD2Ev(ptr noundef nonnull align 8 dereferenceable(72) %12)
          to label %2066 unwind label %46

46:                                               ; preds = %44
  %47 = landingpad { ptr, i32 }
          catch ptr null
  %48 = extractvalue { ptr, i32 } %47, 0
  call void @__clang_call_terminate(ptr %48) #22
  unreachable

49:                                               ; preds = %41, %34
  call void @llvm.lifetime.start.p0(i64 24, ptr nonnull %13) #19
  %50 = zext i32 %28 to i64
  %51 = icmp eq i32 %28, 0
  br i1 %51, label %52, label %53

52:                                               ; preds = %49
  call void @llvm.memset.p0.i64(ptr noundef nonnull align 8 dereferenceable(24) %13, i8 0, i64 24, i1 false)
  br label %59

53:                                               ; preds = %49
  %54 = shl nuw nsw i64 %50, 3
  %55 = invoke noalias noundef nonnull ptr @_Znwm(i64 noundef %54) #20
          to label %56 unwind label %273

56:                                               ; preds = %53
  store ptr %55, ptr %13, align 8, !tbaa !131
  %57 = getelementptr inbounds double, ptr %55, i64 %50
  %58 = getelementptr inbounds %"struct.std::_Vector_base<double, std::allocator<double> >::_Vector_impl_data", ptr %13, i64 0, i32 2
  store ptr %57, ptr %58, align 8, !tbaa !132
  call void @llvm.memset.p0.i64(ptr nonnull align 8 %55, i8 0, i64 %54, i1 false), !tbaa !133
  br label %59

59:                                               ; preds = %56, %52
  %60 = phi ptr [ null, %52 ], [ %57, %56 ]
  %61 = getelementptr inbounds %"struct.std::_Vector_base<double, std::allocator<double> >::_Vector_impl_data", ptr %13, i64 0, i32 1
  store ptr %60, ptr %61, align 8, !tbaa !135
  call void @llvm.lifetime.start.p0(i64 24, ptr nonnull %14) #19
  call void @llvm.lifetime.start.p0(i64 88, ptr nonnull %15) #19
  invoke void @_ZN6dealii11SubscriptorC2Ev(ptr noundef nonnull align 8 dereferenceable(72) %15)
          to label %62 unwind label %275

62:                                               ; preds = %59
  store ptr getelementptr inbounds ({ [6 x ptr] }, ptr @_ZTVN6dealii6VectorIdEE, i64 0, inrange i32 0, i64 2), ptr %15, align 8, !tbaa !41
  %63 = getelementptr inbounds %"class.dealii::Vector", ptr %15, i64 0, i32 1
  call void @llvm.memset.p0.i64(ptr noundef nonnull align 8 dereferenceable(16) %63, i8 0, i64 16, i1 false)
  %64 = icmp eq i32 %32, 0
  br i1 %64, label %77, label %65

65:                                               ; preds = %62
  %66 = zext i32 %32 to i64
  %67 = shl nuw nsw i64 %66, 3
  %68 = invoke noalias noundef nonnull ptr @_Znam(i64 noundef %67) #20
          to label %69 unwind label %72

69:                                               ; preds = %65
  %70 = getelementptr inbounds %"class.dealii::Vector", ptr %15, i64 0, i32 3
  %71 = getelementptr inbounds %"class.dealii::Vector", ptr %15, i64 0, i32 2
  store ptr %68, ptr %70, align 8, !tbaa !136
  store i32 %32, ptr %71, align 4, !tbaa !138
  store i32 %32, ptr %63, align 8, !tbaa !139
  call void @llvm.memset.p0.i64(ptr nonnull align 8 %68, i8 0, i64 %67, i1 false), !tbaa !133
  br label %77

72:                                               ; preds = %65
  %73 = landingpad { ptr, i32 }
          cleanup
  invoke void @_ZN6dealii11SubscriptorD2Ev(ptr noundef nonnull align 8 dereferenceable(72) %15)
          to label %279 unwind label %74

74:                                               ; preds = %72
  %75 = landingpad { ptr, i32 }
          catch ptr null
  %76 = extractvalue { ptr, i32 } %75, 0
  call void @__clang_call_terminate(ptr %76) #22
  unreachable

77:                                               ; preds = %69, %62
  call void @llvm.lifetime.start.p0(i64 1, ptr nonnull %16) #19
  invoke void @_ZNSt6vectorIN6dealii6VectorIdEESaIS2_EEC2EmRKS2_RKS3_(ptr noundef nonnull align 8 dereferenceable(24) %14, i64 noundef %50, ptr noundef nonnull align 8 dereferenceable(88) %15, ptr noundef nonnull align 1 dereferenceable(1) %16)
          to label %78 unwind label %277

78:                                               ; preds = %77
  call void @llvm.lifetime.end.p0(i64 1, ptr nonnull %16) #19
  store ptr getelementptr inbounds ({ [6 x ptr] }, ptr @_ZTVN6dealii6VectorIdEE, i64 0, inrange i32 0, i64 2), ptr %15, align 8, !tbaa !41
  %79 = getelementptr inbounds %"class.dealii::Vector", ptr %15, i64 0, i32 3
  %80 = load ptr, ptr %79, align 8, !tbaa !136
  %81 = icmp eq ptr %80, null
  br i1 %81, label %83, label %82

82:                                               ; preds = %78
  call void @_ZdaPv(ptr noundef nonnull %80) #21
  store ptr null, ptr %79, align 8, !tbaa !136
  br label %83

83:                                               ; preds = %82, %78
  invoke void @_ZN6dealii11SubscriptorD2Ev(ptr noundef nonnull align 8 dereferenceable(72) %15)
          to label %84 unwind label %275

84:                                               ; preds = %83
  call void @llvm.lifetime.end.p0(i64 88, ptr nonnull %15) #19
  call void @llvm.lifetime.start.p0(i64 24, ptr nonnull %17) #19
  br i1 %51, label %85, label %86

85:                                               ; preds = %84
  call void @llvm.memset.p0.i64(ptr noundef nonnull align 8 dereferenceable(24) %17, i8 0, i64 24, i1 false)
  br label %92

86:                                               ; preds = %84
  %87 = shl nuw nsw i64 %50, 3
  %88 = invoke noalias noundef nonnull ptr @_Znwm(i64 noundef %87) #20
          to label %89 unwind label %281

89:                                               ; preds = %86
  store ptr %88, ptr %17, align 8, !tbaa !131
  %90 = getelementptr inbounds double, ptr %88, i64 %50
  %91 = getelementptr inbounds %"struct.std::_Vector_base<double, std::allocator<double> >::_Vector_impl_data", ptr %17, i64 0, i32 2
  store ptr %90, ptr %91, align 8, !tbaa !132
  call void @llvm.memset.p0.i64(ptr nonnull align 8 %88, i8 0, i64 %87, i1 false), !tbaa !133
  br label %92

92:                                               ; preds = %89, %85
  %93 = phi ptr [ null, %85 ], [ %90, %89 ]
  %94 = getelementptr inbounds %"struct.std::_Vector_base<double, std::allocator<double> >::_Vector_impl_data", ptr %17, i64 0, i32 1
  store ptr %93, ptr %94, align 8, !tbaa !135
  call void @llvm.lifetime.start.p0(i64 24, ptr nonnull %18) #19
  call void @llvm.lifetime.start.p0(i64 88, ptr nonnull %19) #19
  invoke void @_ZN6dealii11SubscriptorC2Ev(ptr noundef nonnull align 8 dereferenceable(72) %19)
          to label %95 unwind label %283

95:                                               ; preds = %92
  store ptr getelementptr inbounds ({ [6 x ptr] }, ptr @_ZTVN6dealii6VectorIdEE, i64 0, inrange i32 0, i64 2), ptr %19, align 8, !tbaa !41
  %96 = getelementptr inbounds %"class.dealii::Vector", ptr %19, i64 0, i32 1
  call void @llvm.memset.p0.i64(ptr noundef nonnull align 8 dereferenceable(16) %96, i8 0, i64 16, i1 false)
  br i1 %64, label %109, label %97

97:                                               ; preds = %95
  %98 = zext i32 %32 to i64
  %99 = shl nuw nsw i64 %98, 3
  %100 = invoke noalias noundef nonnull ptr @_Znam(i64 noundef %99) #20
          to label %101 unwind label %104

101:                                              ; preds = %97
  %102 = getelementptr inbounds %"class.dealii::Vector", ptr %19, i64 0, i32 3
  %103 = getelementptr inbounds %"class.dealii::Vector", ptr %19, i64 0, i32 2
  store ptr %100, ptr %102, align 8, !tbaa !136
  store i32 %32, ptr %103, align 4, !tbaa !138
  store i32 %32, ptr %96, align 8, !tbaa !139
  call void @llvm.memset.p0.i64(ptr nonnull align 8 %100, i8 0, i64 %99, i1 false), !tbaa !133
  br label %109

104:                                              ; preds = %97
  %105 = landingpad { ptr, i32 }
          cleanup
  invoke void @_ZN6dealii11SubscriptorD2Ev(ptr noundef nonnull align 8 dereferenceable(72) %19)
          to label %287 unwind label %106

106:                                              ; preds = %104
  %107 = landingpad { ptr, i32 }
          catch ptr null
  %108 = extractvalue { ptr, i32 } %107, 0
  call void @__clang_call_terminate(ptr %108) #22
  unreachable

109:                                              ; preds = %101, %95
  call void @llvm.lifetime.start.p0(i64 1, ptr nonnull %20) #19
  invoke void @_ZNSt6vectorIN6dealii6VectorIdEESaIS2_EEC2EmRKS2_RKS3_(ptr noundef nonnull align 8 dereferenceable(24) %18, i64 noundef %50, ptr noundef nonnull align 8 dereferenceable(88) %19, ptr noundef nonnull align 1 dereferenceable(1) %20)
          to label %110 unwind label %285

110:                                              ; preds = %109
  call void @llvm.lifetime.end.p0(i64 1, ptr nonnull %20) #19
  store ptr getelementptr inbounds ({ [6 x ptr] }, ptr @_ZTVN6dealii6VectorIdEE, i64 0, inrange i32 0, i64 2), ptr %19, align 8, !tbaa !41
  %111 = getelementptr inbounds %"class.dealii::Vector", ptr %19, i64 0, i32 3
  %112 = load ptr, ptr %111, align 8, !tbaa !136
  %113 = icmp eq ptr %112, null
  br i1 %113, label %115, label %114

114:                                              ; preds = %110
  call void @_ZdaPv(ptr noundef nonnull %112) #21
  store ptr null, ptr %111, align 8, !tbaa !136
  br label %115

115:                                              ; preds = %114, %110
  invoke void @_ZN6dealii11SubscriptorD2Ev(ptr noundef nonnull align 8 dereferenceable(72) %19)
          to label %116 unwind label %283

116:                                              ; preds = %115
  call void @llvm.lifetime.end.p0(i64 88, ptr nonnull %19) #19
  %117 = zext i32 %26 to i64
  br i1 %36, label %123, label %118

118:                                              ; preds = %116
  %119 = shl nuw nsw i64 %117, 2
  %120 = invoke noalias noundef nonnull ptr @_Znwm(i64 noundef %119) #20
          to label %121 unwind label %289

121:                                              ; preds = %118
  call void @llvm.memset.p0.i64(ptr nonnull align 4 %120, i8 0, i64 %119, i1 false), !tbaa !59
  %122 = getelementptr inbounds i32, ptr %120, i64 %117
  br label %123

123:                                              ; preds = %121, %116
  %124 = phi ptr [ null, %116 ], [ %120, %121 ]
  %125 = phi ptr [ null, %116 ], [ %122, %121 ]
  call void @llvm.lifetime.start.p0(i64 24, ptr nonnull %21) #19
  %126 = getelementptr inbounds %"class.dealii::DoFAccessor", ptr %7, i64 0, i32 1
  %127 = load ptr, ptr %126, align 8, !tbaa !17
  call void @llvm.memcpy.p0.p0.i64(ptr noundef nonnull align 8 dereferenceable(16) %21, ptr noundef nonnull align 8 dereferenceable(16) %7, i64 16, i1 false)
  %128 = getelementptr inbounds %"class.dealii::DoFAccessor", ptr %21, i64 0, i32 1
  store ptr %127, ptr %128, align 8, !tbaa !17
  %129 = getelementptr inbounds %"struct.dealii::MatrixCreator::IteratorRange", ptr %7, i64 0, i32 1
  %130 = getelementptr inbounds %"class.dealii::TriaAccessorBase", ptr %21, i64 0, i32 1
  %131 = getelementptr inbounds %"struct.dealii::MatrixCreator::IteratorRange", ptr %7, i64 0, i32 1, i32 0, i32 0, i32 0, i32 0, i32 0, i32 0, i32 0, i32 1
  %132 = load i32, ptr %130, align 4, !tbaa !61
  %133 = load i32, ptr %131, align 4, !tbaa !61
  %134 = icmp ne i32 %132, %133
  %135 = load i32, ptr %21, align 8
  %136 = load i32, ptr %129, align 8
  %137 = icmp ne i32 %135, %136
  %138 = select i1 %134, i1 true, i1 %137
  br i1 %138, label %139, label %1920

139:                                              ; preds = %123
  %140 = getelementptr inbounds %"class.dealii::TableBase", ptr %11, i64 0, i32 3
  %141 = getelementptr inbounds %"class.dealii::TableBase", ptr %11, i64 0, i32 3, i32 0, i32 0, i64 1
  %142 = getelementptr inbounds %"class.dealii::TableBase", ptr %11, i64 0, i32 1
  %143 = getelementptr inbounds %"class.dealii::Vector", ptr %12, i64 0, i32 3
  %144 = getelementptr inbounds %"class.dealii::Function", ptr %4, i64 0, i32 2
  %145 = getelementptr inbounds i8, ptr %10, i64 312
  %146 = getelementptr inbounds %"class.dealii::Function", ptr %6, i64 0, i32 2
  %147 = getelementptr inbounds %"class.dealii::FiniteElement", ptr %30, i64 0, i32 2
  %148 = getelementptr inbounds i8, ptr %10, i64 216
  %149 = getelementptr inbounds i8, ptr %10, i64 480
  %150 = getelementptr inbounds i8, ptr %10, i64 144
  %151 = getelementptr inbounds i8, ptr %10, i64 160
  %152 = getelementptr inbounds %"class.dealii::FiniteElement", ptr %30, i64 0, i32 12
  %153 = icmp eq i32 %32, 1
  %154 = getelementptr inbounds %"class.dealii::FiniteElement", ptr %30, i64 0, i32 19
  %155 = icmp eq ptr %125, %124
  %156 = ptrtoint ptr %124 to i64
  %157 = ptrtoint ptr %125 to i64
  %158 = sub i64 %157, %156
  %159 = ashr exact i64 %158, 2
  %160 = trunc i64 %159 to i32
  %161 = getelementptr inbounds %"class.dealii::Vector", ptr %5, i64 0, i32 3
  %162 = getelementptr inbounds %"class.dealii::TriaAccessorBase", ptr %21, i64 0, i32 2
  %163 = zext i32 %32 to i64
  %164 = zext i32 %32 to i64
  %165 = add nsw i64 %117, -1
  %166 = shl nuw nsw i64 %117, 3
  %167 = add nsw i64 %117, -1
  %168 = shl nuw nsw i64 %117, 3
  %169 = add nsw i64 %117, -1
  %170 = shl nuw nsw i64 %117, 3
  %171 = add nsw i64 %117, -1
  %172 = shl nuw nsw i64 %117, 3
  %173 = icmp ult i32 %26, 16
  %174 = trunc i64 %171 to i32
  %175 = icmp ugt i64 %171, 4294967295
  %176 = trunc i64 %171 to i32
  %177 = and i64 %117, 4294967292
  %178 = icmp eq i64 %177, %117
  %179 = and i64 %117, 1
  %180 = icmp eq i64 %179, 0
  %181 = sub nsw i64 0, %117
  %182 = or i1 %36, %64
  %183 = icmp ult i32 %26, 16
  %184 = trunc i64 %169 to i32
  %185 = icmp ugt i64 %169, 4294967295
  %186 = trunc i64 %169 to i32
  %187 = and i64 %117, 4294967292
  %188 = icmp eq i64 %187, %117
  %189 = and i64 %117, 1
  %190 = icmp eq i64 %189, 0
  %191 = sub nsw i64 0, %117
  %192 = icmp ult i32 %26, 24
  %193 = trunc i64 %167 to i32
  %194 = icmp ugt i64 %167, 4294967295
  %195 = trunc i64 %167 to i32
  %196 = and i64 %117, 4294967292
  %197 = icmp eq i64 %196, %117
  %198 = icmp ult i32 %26, 16
  %199 = trunc i64 %165 to i32
  %200 = icmp ugt i64 %165, 4294967295
  %201 = trunc i64 %165 to i32
  %202 = and i64 %117, 4294967280
  %203 = icmp eq i64 %202, %117
  %204 = and i64 %117, 1
  %205 = icmp eq i64 %204, 0
  %206 = sub nsw i64 0, %117
  %207 = and i64 %117, 1
  %208 = icmp eq i64 %171, 0
  %209 = and i64 %117, 4294967294
  %210 = icmp eq i64 %207, 0
  %211 = or i1 %36, %64
  %212 = and i64 %117, 1
  %213 = icmp eq i64 %171, 0
  %214 = and i64 %117, 4294967294
  %215 = icmp eq i64 %212, 0
  br label %216

216:                                              ; preds = %139, %1889
  invoke void @_ZN6dealii8FEValuesILi3ELi3EE6reinitERKNS_12TriaIteratorINS_15DoFCellAccessorINS_10DoFHandlerILi3ELi3EEEEEEE(ptr noundef nonnull align 8 dereferenceable(776) %10, ptr noundef nonnull align 8 dereferenceable(24) %21)
          to label %217 unwind label %291

217:                                              ; preds = %216
  %218 = load i32, ptr %140, align 4, !tbaa !59
  %219 = load i32, ptr %141, align 8, !tbaa !59
  %220 = mul i32 %219, %218
  %221 = icmp eq i32 %220, 0
  br i1 %221, label %226, label %222

222:                                              ; preds = %217
  %223 = load ptr, ptr %142, align 8, !tbaa !140
  %224 = zext i32 %220 to i64
  %225 = shl nuw nsw i64 %224, 3
  call void @llvm.memset.p0.i64(ptr align 8 %223, i8 0, i64 %225, i1 false), !tbaa !133
  br label %226

226:                                              ; preds = %222, %217
  %227 = load i32, ptr %35, align 8, !tbaa !139
  %228 = icmp eq i32 %227, 0
  br i1 %228, label %233, label %229

229:                                              ; preds = %226
  %230 = load ptr, ptr %143, align 8, !tbaa !136
  %231 = zext i32 %227 to i64
  %232 = shl nuw nsw i64 %231, 3
  call void @llvm.memset.p0.i64(ptr align 8 %230, i8 0, i64 %232, i1 false), !tbaa !133
  br label %233

233:                                              ; preds = %229, %226
  %234 = load ptr, ptr %128, align 8, !tbaa !17
  %235 = getelementptr inbounds %"class.dealii::DoFHandler", ptr %234, i64 0, i32 2
  %236 = load ptr, ptr %235, align 8, !tbaa !63
  %237 = getelementptr inbounds i8, ptr %236, i64 112
  %238 = load i32, ptr %237, align 8, !tbaa !141
  %239 = icmp eq i32 %238, 0
  br i1 %239, label %262, label %240

240:                                              ; preds = %233
  %241 = getelementptr inbounds %"class.dealii::DoFHandler", ptr %234, i64 0, i32 3
  %242 = load ptr, ptr %241, align 8, !tbaa !142
  %243 = load i32, ptr %21, align 8, !tbaa !60
  %244 = sext i32 %243 to i64
  %245 = getelementptr inbounds ptr, ptr %242, i64 %244
  %246 = load ptr, ptr %245, align 8, !tbaa !33
  %247 = load ptr, ptr %246, align 8, !tbaa !144
  %248 = load i32, ptr %130, align 4, !tbaa !61
  %249 = mul i32 %248, %238
  %250 = zext i32 %249 to i64
  %251 = getelementptr inbounds i32, ptr %247, i64 %250
  br label %252

252:                                              ; preds = %252, %240
  %253 = phi i64 [ 0, %240 ], [ %257, %252 ]
  %254 = phi ptr [ %251, %240 ], [ %258, %252 ]
  %255 = load i32, ptr %254, align 4, !tbaa !59
  %256 = getelementptr inbounds i32, ptr %124, i64 %253
  store i32 %255, ptr %256, align 4, !tbaa !59
  %257 = add nuw nsw i64 %253, 1
  %258 = getelementptr inbounds i32, ptr %254, i64 1
  %259 = load i32, ptr %237, align 8, !tbaa !141
  %260 = zext i32 %259 to i64
  %261 = icmp ult i64 %257, %260
  br i1 %261, label %252, label %262

262:                                              ; preds = %252, %233
  %263 = load i32, ptr %144, align 8, !tbaa !145
  %264 = icmp eq i32 %263, 1
  %265 = load ptr, ptr %4, align 8, !tbaa !41
  br i1 %264, label %266, label %294

266:                                              ; preds = %262
  %267 = getelementptr inbounds ptr, ptr %265, i64 6
  %268 = load ptr, ptr %267, align 8
  invoke void %268(ptr noundef nonnull align 8 dereferenceable(92) %4, ptr noundef nonnull align 8 dereferenceable(24) %145, ptr noundef nonnull align 8 dereferenceable(24) %17, i32 noundef 0)
          to label %297 unwind label %291

269:                                              ; preds = %1988, %9
  %270 = landingpad { ptr, i32 }
          cleanup
  br label %2073

271:                                              ; preds = %1982, %33
  %272 = landingpad { ptr, i32 }
          cleanup
  br label %2066

273:                                              ; preds = %53
  %274 = landingpad { ptr, i32 }
          cleanup
  br label %2059

275:                                              ; preds = %83, %59
  %276 = landingpad { ptr, i32 }
          cleanup
  br label %279

277:                                              ; preds = %77
  %278 = landingpad { ptr, i32 }
          cleanup
  call void @llvm.lifetime.end.p0(i64 1, ptr nonnull %16) #19
  invoke void @_ZN6dealii6VectorIdED2Ev(ptr noundef nonnull align 8 dereferenceable(88) %15)
          to label %279 unwind label %2083

279:                                              ; preds = %275, %72, %277
  %280 = phi { ptr, i32 } [ %278, %277 ], [ %276, %275 ], [ %73, %72 ]
  call void @llvm.lifetime.end.p0(i64 88, ptr nonnull %15) #19
  br label %2054

281:                                              ; preds = %86
  %282 = landingpad { ptr, i32 }
          cleanup
  br label %2030

283:                                              ; preds = %115, %92
  %284 = landingpad { ptr, i32 }
          cleanup
  br label %287

285:                                              ; preds = %109
  %286 = landingpad { ptr, i32 }
          cleanup
  call void @llvm.lifetime.end.p0(i64 1, ptr nonnull %20) #19
  invoke void @_ZN6dealii6VectorIdED2Ev(ptr noundef nonnull align 8 dereferenceable(88) %19)
          to label %287 unwind label %2083

287:                                              ; preds = %283, %104, %285
  %288 = phi { ptr, i32 } [ %286, %285 ], [ %284, %283 ], [ %105, %104 ]
  call void @llvm.lifetime.end.p0(i64 88, ptr nonnull %19) #19
  br label %2025

289:                                              ; preds = %118
  %290 = landingpad { ptr, i32 }
          cleanup
  br label %2001

291:                                              ; preds = %550, %302, %294, %266, %216
  %292 = landingpad { ptr, i32 }
          cleanup
  call void @llvm.lifetime.end.p0(i64 24, ptr nonnull %21) #19
  %293 = icmp eq ptr %124, null
  br i1 %293, label %2001, label %1999

294:                                              ; preds = %262
  %295 = getelementptr inbounds ptr, ptr %265, i64 7
  %296 = load ptr, ptr %295, align 8
  invoke void %296(ptr noundef nonnull align 8 dereferenceable(92) %4, ptr noundef nonnull align 8 dereferenceable(24) %145, ptr noundef nonnull align 8 dereferenceable(24) %18)
          to label %297 unwind label %291

297:                                              ; preds = %294, %266
  br i1 %22, label %1127, label %298

298:                                              ; preds = %297
  %299 = load i32, ptr %146, align 8, !tbaa !145
  %300 = icmp eq i32 %299, 1
  %301 = load ptr, ptr %6, align 8, !tbaa !41
  br i1 %300, label %302, label %550

302:                                              ; preds = %298
  %303 = getelementptr inbounds ptr, ptr %301, i64 6
  %304 = load ptr, ptr %303, align 8
  invoke void %304(ptr noundef nonnull align 8 dereferenceable(92) %6, ptr noundef nonnull align 8 dereferenceable(24) %145, ptr noundef nonnull align 8 dereferenceable(24) %13, i32 noundef 0)
          to label %305 unwind label %291

305:                                              ; preds = %302
  br i1 %51, label %1747, label %306

306:                                              ; preds = %305
  %307 = load ptr, ptr %148, align 8, !tbaa !131
  %308 = load ptr, ptr %29, align 8
  %309 = getelementptr inbounds %"class.dealii::FiniteElement", ptr %308, i64 0, i32 2
  %310 = load ptr, ptr %150, align 8
  %311 = load i32, ptr %151, align 8
  %312 = icmp ne i32 %311, 1
  br label %313

313:                                              ; preds = %306, %547
  %314 = phi i64 [ 0, %306 ], [ %548, %547 ]
  %315 = shl nuw nsw i64 %314, 3
  %316 = add nuw i64 %315, 8
  %317 = getelementptr i8, ptr %310, i64 %315
  %318 = add nuw i64 %170, %315
  %319 = getelementptr i8, ptr %310, i64 %318
  %320 = trunc i64 %314 to i32
  %321 = getelementptr inbounds double, ptr %307, i64 %314
  %322 = load double, ptr %321, align 8, !tbaa !133
  br i1 %36, label %547, label %323

323:                                              ; preds = %313
  %324 = load i8, ptr %309, align 4, !tbaa !148, !range !182, !noundef !183
  %325 = icmp eq i8 %324, 0
  %326 = load ptr, ptr %149, align 8
  %327 = load ptr, ptr %152, align 8, !tbaa !184
  %328 = load i32, ptr %144, align 8, !tbaa !145
  %329 = icmp eq i32 %328, 1
  %330 = load ptr, ptr %18, align 8
  %331 = getelementptr inbounds %"class.dealii::Vector", ptr %330, i64 %314, i32 3
  %332 = load ptr, ptr %143, align 8
  %333 = load ptr, ptr %17, align 8
  %334 = getelementptr inbounds double, ptr %333, i64 %314
  %335 = trunc i64 %314 to i32
  %336 = xor i32 %320, -1
  %337 = icmp ult i32 %336, %186
  %338 = insertelement <4 x double> poison, double %322, i64 0
  %339 = shufflevector <4 x double> %338, <4 x double> poison, <4 x i32> zeroinitializer
  br label %340

340:                                              ; preds = %366, %323
  %341 = phi i64 [ %373, %366 ], [ 0, %323 ]
  %342 = trunc i64 %341 to i32
  br i1 %325, label %343, label %346

343:                                              ; preds = %340
  %344 = getelementptr inbounds i32, ptr %326, i64 %341
  %345 = load i32, ptr %344, align 4, !tbaa !59
  br label %346

346:                                              ; preds = %343, %340
  %347 = phi i32 [ %345, %343 ], [ %342, %340 ]
  %348 = mul i32 %311, %347
  %349 = add i32 %348, %335
  %350 = zext i32 %349 to i64
  %351 = getelementptr inbounds double, ptr %310, i64 %350
  %352 = load double, ptr %351, align 8, !tbaa !133
  %353 = getelementptr inbounds %"struct.std::pair.263", ptr %327, i64 %341
  %354 = load i64, ptr %353, align 4
  %355 = trunc i64 %354 to i32
  %356 = load ptr, ptr %149, align 8
  %357 = load ptr, ptr %13, align 8
  %358 = getelementptr double, ptr %357, i64 %314
  %359 = load ptr, ptr %142, align 8
  %360 = load i32, ptr %141, align 8
  %361 = mul i32 %360, %342
  br i1 %153, label %401, label %399

362:                                              ; preds = %400
  %363 = load ptr, ptr %331, align 8, !tbaa !136
  %364 = and i64 %354, 4294967295
  %365 = getelementptr inbounds double, ptr %363, i64 %364
  br label %366

366:                                              ; preds = %400, %362
  %367 = phi ptr [ %365, %362 ], [ %334, %400 ]
  %368 = load double, ptr %367, align 8, !tbaa !133
  %369 = fmul double %352, %368
  %370 = getelementptr inbounds double, ptr %332, i64 %341
  %371 = load double, ptr %370, align 8, !tbaa !133
  %372 = call double @llvm.fmuladd.f64(double %369, double %322, double %371)
  store double %372, ptr %370, align 8, !tbaa !133
  %373 = add nuw nsw i64 %341, 1
  %374 = icmp eq i64 %373, %117
  br i1 %374, label %547, label %340

375:                                              ; preds = %399, %396
  %376 = phi i64 [ %397, %396 ], [ 0, %399 ]
  %377 = getelementptr inbounds %"struct.std::pair.263", ptr %327, i64 %376
  %378 = load i64, ptr %377, align 4
  %379 = trunc i64 %378 to i32
  %380 = icmp eq i32 %379, %355
  br i1 %380, label %381, label %396

381:                                              ; preds = %375
  %382 = trunc i64 %376 to i32
  %383 = mul i32 %311, %382
  %384 = add i32 %383, %335
  %385 = zext i32 %384 to i64
  %386 = getelementptr inbounds double, ptr %310, i64 %385
  %387 = load double, ptr %386, align 8, !tbaa !133
  %388 = fmul double %352, %387
  %389 = fmul double %322, %388
  %390 = load double, ptr %358, align 8, !tbaa !133
  %391 = add i32 %361, %382
  %392 = zext i32 %391 to i64
  %393 = getelementptr inbounds double, ptr %359, i64 %392
  %394 = load double, ptr %393, align 8, !tbaa !133
  %395 = call double @llvm.fmuladd.f64(double %389, double %390, double %394)
  store double %395, ptr %393, align 8, !tbaa !133
  br label %396

396:                                              ; preds = %381, %375
  %397 = add nuw nsw i64 %376, 1
  %398 = icmp eq i64 %397, %117
  br i1 %398, label %400, label %375

399:                                              ; preds = %346
  br i1 %325, label %501, label %375

400:                                              ; preds = %396, %524, %465, %468, %527, %445
  br i1 %329, label %366, label %362

401:                                              ; preds = %346
  br i1 %325, label %527, label %402

402:                                              ; preds = %401
  br i1 %183, label %446, label %403

403:                                              ; preds = %402
  %404 = xor i32 %361, -1
  %405 = icmp ult i32 %404, %184
  %406 = or i1 %405, %185
  %407 = or i1 %312, %406
  %408 = or i1 %337, %407
  br i1 %408, label %446, label %409

409:                                              ; preds = %403
  %410 = getelementptr i8, ptr %357, i64 %316
  %411 = zext i32 %361 to i64
  %412 = shl nuw nsw i64 %411, 3
  %413 = getelementptr i8, ptr %359, i64 %412
  %414 = getelementptr i8, ptr %359, i64 %170
  %415 = getelementptr i8, ptr %414, i64 %412
  %416 = icmp ult ptr %358, %415
  %417 = icmp ult ptr %413, %410
  %418 = and i1 %416, %417
  %419 = icmp ult ptr %413, %319
  %420 = icmp ult ptr %317, %415
  %421 = and i1 %419, %420
  %422 = or i1 %418, %421
  br i1 %422, label %446, label %423

423:                                              ; preds = %409
  %424 = insertelement <4 x double> poison, double %352, i64 0
  %425 = shufflevector <4 x double> %424, <4 x double> poison, <4 x i32> zeroinitializer
  %426 = load double, ptr %358, align 8, !tbaa !133, !alias.scope !238, !noalias !241
  %427 = insertelement <4 x double> poison, double %426, i64 0
  %428 = shufflevector <4 x double> %427, <4 x double> poison, <4 x i32> zeroinitializer
  br label %429

429:                                              ; preds = %429, %423
  %430 = phi i64 [ 0, %423 ], [ %443, %429 ]
  %431 = trunc i64 %430 to i32
  %432 = add i64 %430, %314
  %433 = and i64 %432, 4294967295
  %434 = getelementptr inbounds double, ptr %310, i64 %433
  %435 = load <4 x double>, ptr %434, align 8, !tbaa !133, !alias.scope !243
  %436 = fmul <4 x double> %425, %435
  %437 = fmul <4 x double> %339, %436
  %438 = add i32 %361, %431
  %439 = zext i32 %438 to i64
  %440 = getelementptr inbounds double, ptr %359, i64 %439
  %441 = load <4 x double>, ptr %440, align 8, !tbaa !133, !alias.scope !241, !noalias !243
  %442 = call <4 x double> @llvm.fmuladd.v4f64(<4 x double> %437, <4 x double> %428, <4 x double> %441)
  store <4 x double> %442, ptr %440, align 8, !tbaa !133, !alias.scope !241, !noalias !243
  %443 = add nuw i64 %430, 4
  %444 = icmp eq i64 %443, %187
  br i1 %444, label %445, label %429, !llvm.loop !245

445:                                              ; preds = %429
  br i1 %188, label %400, label %446

446:                                              ; preds = %409, %403, %402, %445
  %447 = phi i64 [ 0, %409 ], [ 0, %403 ], [ 0, %402 ], [ %187, %445 ]
  %448 = xor i64 %447, -1
  br i1 %190, label %465, label %449

449:                                              ; preds = %446
  %450 = trunc i64 %447 to i32
  %451 = mul i32 %311, %450
  %452 = add i32 %451, %335
  %453 = zext i32 %452 to i64
  %454 = getelementptr inbounds double, ptr %310, i64 %453
  %455 = load double, ptr %454, align 8, !tbaa !133
  %456 = fmul double %352, %455
  %457 = fmul double %322, %456
  %458 = load double, ptr %358, align 8, !tbaa !133
  %459 = add i32 %361, %450
  %460 = zext i32 %459 to i64
  %461 = getelementptr inbounds double, ptr %359, i64 %460
  %462 = load double, ptr %461, align 8, !tbaa !133
  %463 = call double @llvm.fmuladd.f64(double %457, double %458, double %462)
  store double %463, ptr %461, align 8, !tbaa !133
  %464 = or i64 %447, 1
  br label %465

465:                                              ; preds = %449, %446
  %466 = phi i64 [ %447, %446 ], [ %464, %449 ]
  %467 = icmp eq i64 %448, %191
  br i1 %467, label %400, label %468

468:                                              ; preds = %465, %468
  %469 = phi i64 [ %499, %468 ], [ %466, %465 ]
  %470 = trunc i64 %469 to i32
  %471 = mul i32 %311, %470
  %472 = add i32 %471, %335
  %473 = zext i32 %472 to i64
  %474 = getelementptr inbounds double, ptr %310, i64 %473
  %475 = load double, ptr %474, align 8, !tbaa !133
  %476 = fmul double %352, %475
  %477 = fmul double %322, %476
  %478 = load double, ptr %358, align 8, !tbaa !133
  %479 = add i32 %361, %470
  %480 = zext i32 %479 to i64
  %481 = getelementptr inbounds double, ptr %359, i64 %480
  %482 = load double, ptr %481, align 8, !tbaa !133
  %483 = call double @llvm.fmuladd.f64(double %477, double %478, double %482)
  store double %483, ptr %481, align 8, !tbaa !133
  %484 = trunc i64 %469 to i32
  %485 = add i32 %484, 1
  %486 = mul i32 %311, %485
  %487 = add i32 %486, %335
  %488 = zext i32 %487 to i64
  %489 = getelementptr inbounds double, ptr %310, i64 %488
  %490 = load double, ptr %489, align 8, !tbaa !133
  %491 = fmul double %352, %490
  %492 = fmul double %322, %491
  %493 = load double, ptr %358, align 8, !tbaa !133
  %494 = add i32 %361, %485
  %495 = zext i32 %494 to i64
  %496 = getelementptr inbounds double, ptr %359, i64 %495
  %497 = load double, ptr %496, align 8, !tbaa !133
  %498 = call double @llvm.fmuladd.f64(double %492, double %493, double %497)
  store double %498, ptr %496, align 8, !tbaa !133
  %499 = add nuw nsw i64 %469, 2
  %500 = icmp eq i64 %499, %117
  br i1 %500, label %400, label %468, !llvm.loop !246

501:                                              ; preds = %399, %524
  %502 = phi i64 [ %525, %524 ], [ 0, %399 ]
  %503 = getelementptr inbounds %"struct.std::pair.263", ptr %327, i64 %502
  %504 = load i64, ptr %503, align 4
  %505 = trunc i64 %504 to i32
  %506 = icmp eq i32 %505, %355
  br i1 %506, label %507, label %524

507:                                              ; preds = %501
  %508 = getelementptr inbounds i32, ptr %356, i64 %502
  %509 = load i32, ptr %508, align 4, !tbaa !59
  %510 = mul i32 %509, %311
  %511 = add i32 %510, %335
  %512 = zext i32 %511 to i64
  %513 = getelementptr inbounds double, ptr %310, i64 %512
  %514 = load double, ptr %513, align 8, !tbaa !133
  %515 = fmul double %352, %514
  %516 = fmul double %322, %515
  %517 = load double, ptr %358, align 8, !tbaa !133
  %518 = trunc i64 %502 to i32
  %519 = add i32 %361, %518
  %520 = zext i32 %519 to i64
  %521 = getelementptr inbounds double, ptr %359, i64 %520
  %522 = load double, ptr %521, align 8, !tbaa !133
  %523 = call double @llvm.fmuladd.f64(double %516, double %517, double %522)
  store double %523, ptr %521, align 8, !tbaa !133
  br label %524

524:                                              ; preds = %507, %501
  %525 = add nuw nsw i64 %502, 1
  %526 = icmp eq i64 %525, %117
  br i1 %526, label %400, label %501

527:                                              ; preds = %401, %527
  %528 = phi i64 [ %545, %527 ], [ 0, %401 ]
  %529 = getelementptr inbounds i32, ptr %356, i64 %528
  %530 = load i32, ptr %529, align 4, !tbaa !59
  %531 = mul i32 %530, %311
  %532 = add i32 %531, %335
  %533 = zext i32 %532 to i64
  %534 = getelementptr inbounds double, ptr %310, i64 %533
  %535 = load double, ptr %534, align 8, !tbaa !133
  %536 = fmul double %352, %535
  %537 = fmul double %322, %536
  %538 = load double, ptr %358, align 8, !tbaa !133
  %539 = trunc i64 %528 to i32
  %540 = add i32 %361, %539
  %541 = zext i32 %540 to i64
  %542 = getelementptr inbounds double, ptr %359, i64 %541
  %543 = load double, ptr %542, align 8, !tbaa !133
  %544 = call double @llvm.fmuladd.f64(double %537, double %538, double %543)
  store double %544, ptr %542, align 8, !tbaa !133
  %545 = add nuw nsw i64 %528, 1
  %546 = icmp eq i64 %545, %117
  br i1 %546, label %400, label %527

547:                                              ; preds = %366, %313
  %548 = add nuw nsw i64 %314, 1
  %549 = icmp eq i64 %548, %50
  br i1 %549, label %1747, label %313

550:                                              ; preds = %298
  %551 = getelementptr inbounds ptr, ptr %301, i64 7
  %552 = load ptr, ptr %551, align 8
  invoke void %552(ptr noundef nonnull align 8 dereferenceable(92) %6, ptr noundef nonnull align 8 dereferenceable(24) %145, ptr noundef nonnull align 8 dereferenceable(24) %14)
          to label %553 unwind label %291

553:                                              ; preds = %550
  %554 = load i8, ptr %147, align 4, !tbaa !148, !range !182, !noundef !183
  %555 = icmp eq i8 %554, 0
  br i1 %555, label %564, label %556

556:                                              ; preds = %553
  br i1 %51, label %1747, label %557

557:                                              ; preds = %556
  %558 = load ptr, ptr %148, align 8, !tbaa !131
  %559 = load ptr, ptr %29, align 8
  %560 = getelementptr inbounds %"class.dealii::FiniteElement", ptr %559, i64 0, i32 2
  %561 = load ptr, ptr %150, align 8
  %562 = load i32, ptr %151, align 8
  %563 = icmp ne i32 %562, 1
  br label %567

564:                                              ; preds = %553
  br i1 %51, label %1747, label %565

565:                                              ; preds = %564
  %566 = load ptr, ptr %148, align 8, !tbaa !131
  br label %845

567:                                              ; preds = %557, %752
  %568 = phi i64 [ 0, %557 ], [ %753, %752 ]
  %569 = shl nuw nsw i64 %568, 3
  %570 = getelementptr i8, ptr %561, i64 %569
  %571 = add nuw i64 %172, %569
  %572 = getelementptr i8, ptr %561, i64 %571
  %573 = trunc i64 %568 to i32
  %574 = getelementptr inbounds double, ptr %558, i64 %568
  %575 = load double, ptr %574, align 8, !tbaa !133
  br i1 %36, label %752, label %576

576:                                              ; preds = %567
  %577 = load i8, ptr %560, align 4, !tbaa !148, !range !182, !noundef !183
  %578 = icmp eq i8 %577, 0
  %579 = load ptr, ptr %149, align 8
  %580 = load ptr, ptr %152, align 8, !tbaa !184
  %581 = load i32, ptr %144, align 8, !tbaa !145
  %582 = icmp eq i32 %581, 1
  %583 = load ptr, ptr %18, align 8
  %584 = getelementptr inbounds %"class.dealii::Vector", ptr %583, i64 %568, i32 3
  %585 = load ptr, ptr %143, align 8
  %586 = load ptr, ptr %17, align 8
  %587 = getelementptr inbounds double, ptr %586, i64 %568
  %588 = trunc i64 %568 to i32
  br i1 %153, label %589, label %755

589:                                              ; preds = %576
  %590 = xor i32 %573, -1
  %591 = icmp ult i32 %590, %176
  %592 = insertelement <4 x double> poison, double %575, i64 0
  %593 = shufflevector <4 x double> %592, <4 x double> poison, <4 x i32> zeroinitializer
  br label %594

594:                                              ; preds = %589, %689
  %595 = phi i64 [ %696, %689 ], [ 0, %589 ]
  %596 = trunc i64 %595 to i32
  br i1 %578, label %597, label %600

597:                                              ; preds = %594
  %598 = getelementptr inbounds i32, ptr %579, i64 %595
  %599 = load i32, ptr %598, align 4, !tbaa !59
  br label %600

600:                                              ; preds = %597, %594
  %601 = phi i32 [ %599, %597 ], [ %596, %594 ]
  %602 = mul i32 %562, %601
  %603 = add i32 %602, %588
  %604 = zext i32 %603 to i64
  %605 = getelementptr inbounds double, ptr %561, i64 %604
  %606 = load double, ptr %605, align 8, !tbaa !133
  %607 = getelementptr inbounds %"struct.std::pair.263", ptr %580, i64 %595
  %608 = load i64, ptr %607, align 4
  %609 = load ptr, ptr %149, align 8
  %610 = load ptr, ptr %14, align 8
  %611 = getelementptr inbounds %"class.dealii::Vector", ptr %610, i64 %568, i32 3
  %612 = and i64 %608, 4294967295
  %613 = load ptr, ptr %142, align 8
  %614 = load i32, ptr %141, align 8
  %615 = mul i32 %614, %596
  %616 = load ptr, ptr %611, align 8, !tbaa !136
  %617 = getelementptr double, ptr %616, i64 %612
  br i1 %578, label %732, label %618

618:                                              ; preds = %600
  br i1 %173, label %664, label %619

619:                                              ; preds = %618
  %620 = xor i32 %615, -1
  %621 = icmp ult i32 %620, %174
  %622 = or i1 %621, %175
  %623 = or i1 %563, %622
  %624 = or i1 %591, %623
  br i1 %624, label %664, label %625

625:                                              ; preds = %619
  %626 = getelementptr i8, ptr %616, i64 8
  %627 = shl nuw nsw i64 %612, 3
  %628 = getelementptr i8, ptr %626, i64 %627
  %629 = zext i32 %615 to i64
  %630 = shl nuw nsw i64 %629, 3
  %631 = getelementptr i8, ptr %613, i64 %630
  %632 = getelementptr i8, ptr %613, i64 %172
  %633 = getelementptr i8, ptr %632, i64 %630
  %634 = icmp ult ptr %617, %633
  %635 = icmp ult ptr %631, %628
  %636 = and i1 %634, %635
  %637 = icmp ult ptr %631, %572
  %638 = icmp ult ptr %570, %633
  %639 = and i1 %637, %638
  %640 = or i1 %636, %639
  br i1 %640, label %664, label %641

641:                                              ; preds = %625
  %642 = insertelement <4 x double> poison, double %606, i64 0
  %643 = shufflevector <4 x double> %642, <4 x double> poison, <4 x i32> zeroinitializer
  %644 = load double, ptr %617, align 8, !tbaa !133, !alias.scope !247, !noalias !250
  %645 = insertelement <4 x double> poison, double %644, i64 0
  %646 = shufflevector <4 x double> %645, <4 x double> poison, <4 x i32> zeroinitializer
  br label %647

647:                                              ; preds = %647, %641
  %648 = phi i64 [ 0, %641 ], [ %661, %647 ]
  %649 = trunc i64 %648 to i32
  %650 = add i64 %648, %568
  %651 = and i64 %650, 4294967295
  %652 = getelementptr inbounds double, ptr %561, i64 %651
  %653 = load <4 x double>, ptr %652, align 8, !tbaa !133, !alias.scope !252
  %654 = fmul <4 x double> %643, %653
  %655 = fmul <4 x double> %593, %654
  %656 = add i32 %615, %649
  %657 = zext i32 %656 to i64
  %658 = getelementptr inbounds double, ptr %613, i64 %657
  %659 = load <4 x double>, ptr %658, align 8, !tbaa !133, !alias.scope !250, !noalias !252
  %660 = call <4 x double> @llvm.fmuladd.v4f64(<4 x double> %655, <4 x double> %646, <4 x double> %659)
  store <4 x double> %660, ptr %658, align 8, !tbaa !133, !alias.scope !250, !noalias !252
  %661 = add nuw i64 %648, 4
  %662 = icmp eq i64 %661, %177
  br i1 %662, label %663, label %647, !llvm.loop !254

663:                                              ; preds = %647
  br i1 %178, label %731, label %664

664:                                              ; preds = %625, %619, %618, %663
  %665 = phi i64 [ 0, %625 ], [ 0, %619 ], [ 0, %618 ], [ %177, %663 ]
  %666 = xor i64 %665, -1
  br i1 %180, label %683, label %667

667:                                              ; preds = %664
  %668 = trunc i64 %665 to i32
  %669 = mul i32 %562, %668
  %670 = add i32 %669, %588
  %671 = zext i32 %670 to i64
  %672 = getelementptr inbounds double, ptr %561, i64 %671
  %673 = load double, ptr %672, align 8, !tbaa !133
  %674 = fmul double %606, %673
  %675 = fmul double %575, %674
  %676 = load double, ptr %617, align 8, !tbaa !133
  %677 = add i32 %615, %668
  %678 = zext i32 %677 to i64
  %679 = getelementptr inbounds double, ptr %613, i64 %678
  %680 = load double, ptr %679, align 8, !tbaa !133
  %681 = call double @llvm.fmuladd.f64(double %675, double %676, double %680)
  store double %681, ptr %679, align 8, !tbaa !133
  %682 = or i64 %665, 1
  br label %683

683:                                              ; preds = %667, %664
  %684 = phi i64 [ %665, %664 ], [ %682, %667 ]
  %685 = icmp eq i64 %666, %181
  br i1 %685, label %731, label %698

686:                                              ; preds = %731
  %687 = load ptr, ptr %584, align 8, !tbaa !136
  %688 = getelementptr inbounds double, ptr %687, i64 %612
  br label %689

689:                                              ; preds = %731, %686
  %690 = phi ptr [ %688, %686 ], [ %587, %731 ]
  %691 = load double, ptr %690, align 8, !tbaa !133
  %692 = fmul double %606, %691
  %693 = getelementptr inbounds double, ptr %585, i64 %595
  %694 = load double, ptr %693, align 8, !tbaa !133
  %695 = call double @llvm.fmuladd.f64(double %692, double %575, double %694)
  store double %695, ptr %693, align 8, !tbaa !133
  %696 = add nuw nsw i64 %595, 1
  %697 = icmp eq i64 %696, %117
  br i1 %697, label %752, label %594

698:                                              ; preds = %683, %698
  %699 = phi i64 [ %729, %698 ], [ %684, %683 ]
  %700 = trunc i64 %699 to i32
  %701 = mul i32 %562, %700
  %702 = add i32 %701, %588
  %703 = zext i32 %702 to i64
  %704 = getelementptr inbounds double, ptr %561, i64 %703
  %705 = load double, ptr %704, align 8, !tbaa !133
  %706 = fmul double %606, %705
  %707 = fmul double %575, %706
  %708 = load double, ptr %617, align 8, !tbaa !133
  %709 = add i32 %615, %700
  %710 = zext i32 %709 to i64
  %711 = getelementptr inbounds double, ptr %613, i64 %710
  %712 = load double, ptr %711, align 8, !tbaa !133
  %713 = call double @llvm.fmuladd.f64(double %707, double %708, double %712)
  store double %713, ptr %711, align 8, !tbaa !133
  %714 = trunc i64 %699 to i32
  %715 = add i32 %714, 1
