; ModuleID = 'source/numerics/solution_transfer.cc'
source_filename = "source/numerics/solution_transfer.cc"
target datalayout = "e-m:e-p270:32:32-p271:32:32-p272:64:64-i64:64-f80:128-n8:16:32:64-S128"
target triple = "x86_64-pc-linux-gnu"

module asm ".globl _ZSt21ios_base_library_initv"

%"class.dealii::SmartPointer" = type { ptr, ptr }
%"class.dealii::SolutionTransfer" = type { %"class.dealii::SmartPointer", i32, i32, %"class.std::vector", %"class.std::map", %"class.std::vector.19" }
%"class.std::vector" = type { %"struct.std::_Vector_base" }
%"struct.std::_Vector_base" = type { %"struct.std::_Vector_base<std::vector<unsigned int>, std::allocator<std::vector<unsigned int> > >::_Vector_impl" }
%"struct.std::_Vector_base<std::vector<unsigned int>, std::allocator<std::vector<unsigned int> > >::_Vector_impl" = type { %"struct.std::_Vector_base<std::vector<unsigned int>, std::allocator<std::vector<unsigned int> > >::_Vector_impl_data" }
%"struct.std::_Vector_base<std::vector<unsigned int>, std::allocator<std::vector<unsigned int> > >::_Vector_impl_data" = type { ptr, ptr, ptr }
%"class.std::map" = type { %"class.std::_Rb_tree" }
%"class.std::_Rb_tree" = type { %"struct.std::_Rb_tree<std::pair<unsigned int, unsigned int>, std::pair<const std::pair<unsigned int, unsigned int>, dealii::SolutionTransfer<3, dealii::Vector<float> >::Pointerstruct>, std::_Select1st<std::pair<const std::pair<unsigned int, unsigned int>, dealii::SolutionTransfer<3, dealii::Vector<float> >::Pointerstruct> >, std::less<std::pair<unsigned int, unsigned int> > >::_Rb_tree_impl" }
%"struct.std::_Rb_tree<std::pair<unsigned int, unsigned int>, std::pair<const std::pair<unsigned int, unsigned int>, dealii::SolutionTransfer<3, dealii::Vector<float> >::Pointerstruct>, std::_Select1st<std::pair<const std::pair<unsigned int, unsigned int>, dealii::SolutionTransfer<3, dealii::Vector<float> >::Pointerstruct> >, std::less<std::pair<unsigned int, unsigned int> > >::_Rb_tree_impl" = type { %"struct.std::_Rb_tree_key_compare", %"struct.std::_Rb_tree_header" }
%"struct.std::_Rb_tree_key_compare" = type { %"struct.std::less" }
%"struct.std::less" = type { i8 }
%"struct.std::_Rb_tree_header" = type { %"struct.std::_Rb_tree_node_base", i64 }
%"struct.std::_Rb_tree_node_base" = type { i32, ptr, ptr, ptr }
%"class.std::vector.19" = type { %"struct.std::_Vector_base.20" }
%"struct.std::_Vector_base.20" = type { %"struct.std::_Vector_base<std::vector<dealii::Vector<float> >, std::allocator<std::vector<dealii::Vector<float> > > >::_Vector_impl" }
%"struct.std::_Vector_base<std::vector<dealii::Vector<float> >, std::allocator<std::vector<dealii::Vector<float> > > >::_Vector_impl" = type { %"struct.std::_Vector_base<std::vector<dealii::Vector<float> >, std::allocator<std::vector<dealii::Vector<float> > > >::_Vector_impl_data" }
%"struct.std::_Vector_base<std::vector<dealii::Vector<float> >, std::allocator<std::vector<dealii::Vector<float> > > >::_Vector_impl_data" = type { ptr, ptr, ptr }
%"class.std::vector.39" = type { %"struct.std::_Vector_base.40" }
%"struct.std::_Vector_base.40" = type { %"struct.std::_Vector_base<unsigned int, std::allocator<unsigned int> >::_Vector_impl" }
%"struct.std::_Vector_base<unsigned int, std::allocator<unsigned int> >::_Vector_impl" = type { %"struct.std::_Vector_base<unsigned int, std::allocator<unsigned int> >::_Vector_impl_data" }
%"struct.std::_Vector_base<unsigned int, std::allocator<unsigned int> >::_Vector_impl_data" = type { ptr, ptr, ptr }
%"struct.std::_Vector_base<dealii::Vector<float>, std::allocator<dealii::Vector<float> > >::_Vector_impl_data" = type { ptr, ptr, ptr }
%"class.dealii::Vector" = type { %"class.dealii::Subscriptor", i32, i32, ptr }
%"class.dealii::Subscriptor" = type { ptr, i32, %"class.std::map.24", ptr }
%"class.std::map.24" = type { %"class.std::_Rb_tree.25" }
%"class.std::_Rb_tree.25" = type { %"struct.std::_Rb_tree<const char *, std::pair<const char *const, unsigned int>, std::_Select1st<std::pair<const char *const, unsigned int> >, std::less<const char *> >::_Rb_tree_impl" }
%"struct.std::_Rb_tree<const char *, std::pair<const char *const, unsigned int>, std::_Select1st<std::pair<const char *const, unsigned int> >, std::less<const char *> >::_Rb_tree_impl" = type { %"struct.std::_Rb_tree_key_compare.29", %"struct.std::_Rb_tree_header" }
%"struct.std::_Rb_tree_key_compare.29" = type { %"struct.std::less.30" }
%"struct.std::less.30" = type { i8 }
%"class.std::vector.101" = type { %"struct.std::_Vector_base.102" }
%"struct.std::_Vector_base.102" = type { %"struct.std::_Vector_base<dealii::Vector<float>, std::allocator<dealii::Vector<float> > >::_Vector_impl" }
%"struct.std::_Vector_base<dealii::Vector<float>, std::allocator<dealii::Vector<float> > >::_Vector_impl" = type { %"struct.std::_Vector_base<dealii::Vector<float>, std::allocator<dealii::Vector<float> > >::_Vector_impl_data" }
%"class.dealii::TriaActiveIterator" = type { %"class.dealii::TriaIterator" }
%"class.dealii::TriaIterator" = type { %"class.dealii::TriaRawIterator" }
%"class.dealii::TriaRawIterator" = type { %"class.dealii::DoFCellAccessor" }
%"class.dealii::DoFCellAccessor" = type { %"class.dealii::DoFAccessor" }
%"class.dealii::DoFAccessor" = type { %"class.dealii::CellAccessor", ptr }
%"class.dealii::CellAccessor" = type { %"class.dealii::TriaAccessor" }
%"class.dealii::TriaAccessor" = type { %"class.dealii::TriaAccessorBase" }
%"class.dealii::TriaAccessorBase" = type { i32, i32, ptr }
%"struct.std::pair" = type { i32, i32 }
%"class.dealii::DoFHandler" = type { %"class.dealii::Subscriptor", %"class.dealii::SmartPointer.32", %"class.dealii::SmartPointer.33", %"class.std::vector.34", ptr, i32, %"class.std::vector.39" }
%"class.dealii::SmartPointer.32" = type { ptr, ptr }
%"class.dealii::SmartPointer.33" = type { ptr, ptr }
%"class.std::vector.34" = type { %"struct.std::_Vector_base.35" }
%"struct.std::_Vector_base.35" = type { %"struct.std::_Vector_base<dealii::internal::DoFHandler::DoFLevel<3> *, std::allocator<dealii::internal::DoFHandler::DoFLevel<3> *> >::_Vector_impl" }
%"struct.std::_Vector_base<dealii::internal::DoFHandler::DoFLevel<3> *, std::allocator<dealii::internal::DoFHandler::DoFLevel<3> *> >::_Vector_impl" = type { %"struct.std::_Vector_base<dealii::internal::DoFHandler::DoFLevel<3> *, std::allocator<dealii::internal::DoFHandler::DoFLevel<3> *> >::_Vector_impl_data" }
%"struct.std::_Vector_base<dealii::internal::DoFHandler::DoFLevel<3> *, std::allocator<dealii::internal::DoFHandler::DoFLevel<3> *> >::_Vector_impl_data" = type { ptr, ptr, ptr }
%"class.dealii::Triangulation" = type { %"class.dealii::Subscriptor", %"class.std::vector.44", ptr, %"class.std::vector.49", %"class.std::vector.54", [255 x %"class.dealii::SmartPointer.58"], [255 x %"class.dealii::SmartPointer.58"], i8, i32, %"struct.dealii::internal::Triangulation::NumberCache", %"class.std::__cxx11::list" }
%"class.std::vector.44" = type { %"struct.std::_Vector_base.45" }
%"struct.std::_Vector_base.45" = type { %"struct.std::_Vector_base<dealii::internal::Triangulation::TriaLevel<3> *, std::allocator<dealii::internal::Triangulation::TriaLevel<3> *> >::_Vector_impl" }
%"struct.std::_Vector_base<dealii::internal::Triangulation::TriaLevel<3> *, std::allocator<dealii::internal::Triangulation::TriaLevel<3> *> >::_Vector_impl" = type { %"struct.std::_Vector_base<dealii::internal::Triangulation::TriaLevel<3> *, std::allocator<dealii::internal::Triangulation::TriaLevel<3> *> >::_Vector_impl_data" }
%"struct.std::_Vector_base<dealii::internal::Triangulation::TriaLevel<3> *, std::allocator<dealii::internal::Triangulation::TriaLevel<3> *> >::_Vector_impl_data" = type { ptr, ptr, ptr }
%"class.std::vector.49" = type { %"struct.std::_Vector_base.50" }
%"struct.std::_Vector_base.50" = type { %"struct.std::_Vector_base<dealii::Point<3>, std::allocator<dealii::Point<3> > >::_Vector_impl" }
%"struct.std::_Vector_base<dealii::Point<3>, std::allocator<dealii::Point<3> > >::_Vector_impl" = type { %"struct.std::_Vector_base<dealii::Point<3>, std::allocator<dealii::Point<3> > >::_Vector_impl_data" }
%"struct.std::_Vector_base<dealii::Point<3>, std::allocator<dealii::Point<3> > >::_Vector_impl_data" = type { ptr, ptr, ptr }
%"class.std::vector.54" = type { %"struct.std::_Bvector_base" }
%"struct.std::_Bvector_base" = type { %"struct.std::_Bvector_base<std::allocator<bool> >::_Bvector_impl" }
%"struct.std::_Bvector_base<std::allocator<bool> >::_Bvector_impl" = type { %"struct.std::_Bvector_base<std::allocator<bool> >::_Bvector_impl_data" }
%"struct.std::_Bvector_base<std::allocator<bool> >::_Bvector_impl_data" = type { %"struct.std::_Bit_iterator", %"struct.std::_Bit_iterator", ptr }
%"struct.std::_Bit_iterator" = type { %"struct.std::_Bit_iterator_base.base", [4 x i8] }
%"struct.std::_Bit_iterator_base.base" = type <{ ptr, i32 }>
%"class.dealii::SmartPointer.58" = type { ptr, ptr }
%"struct.dealii::internal::Triangulation::NumberCache" = type { %"struct.dealii::internal::Triangulation::NumberCache.59", i32, %"class.std::vector.39", i32, %"class.std::vector.39" }
%"struct.dealii::internal::Triangulation::NumberCache.59" = type { %"struct.dealii::internal::Triangulation::NumberCache.60", i32, %"class.std::vector.39", i32, %"class.std::vector.39" }
%"struct.dealii::internal::Triangulation::NumberCache.60" = type { i32, %"class.std::vector.39", i32, %"class.std::vector.39" }
%"class.std::__cxx11::list" = type { %"class.std::__cxx11::_List_base" }
%"class.std::__cxx11::_List_base" = type { %"struct.std::__cxx11::_List_base<dealii::Triangulation<3, 3>::RefinementListener *, std::allocator<dealii::Triangulation<3, 3>::RefinementListener *> >::_List_impl" }
%"struct.std::__cxx11::_List_base<dealii::Triangulation<3, 3>::RefinementListener *, std::allocator<dealii::Triangulation<3, 3>::RefinementListener *> >::_List_impl" = type { %"struct.std::__detail::_List_node_header" }
%"struct.std::__detail::_List_node_header" = type { %"struct.std::__detail::_List_node_base", i64 }
%"struct.std::__detail::_List_node_base" = type { ptr, ptr }
%"class.dealii::internal::Triangulation::TriaLevel" = type { %"class.std::vector.247", %"class.std::vector.54", %"class.std::vector.252", %"class.std::vector.39", %"class.dealii::internal::Triangulation::TriaObjectsHex" }
%"class.std::vector.247" = type { %"struct.std::_Vector_base.248" }
%"struct.std::_Vector_base.248" = type { %"struct.std::_Vector_base<unsigned char, std::allocator<unsigned char> >::_Vector_impl" }
%"struct.std::_Vector_base<unsigned char, std::allocator<unsigned char> >::_Vector_impl" = type { %"struct.std::_Vector_base<unsigned char, std::allocator<unsigned char> >::_Vector_impl_data" }
%"struct.std::_Vector_base<unsigned char, std::allocator<unsigned char> >::_Vector_impl_data" = type { ptr, ptr, ptr }
%"class.std::vector.252" = type { %"struct.std::_Vector_base.253" }
%"struct.std::_Vector_base.253" = type { %"struct.std::_Vector_base<std::pair<int, int>, std::allocator<std::pair<int, int> > >::_Vector_impl" }
%"struct.std::_Vector_base<std::pair<int, int>, std::allocator<std::pair<int, int> > >::_Vector_impl" = type { %"struct.std::_Vector_base<std::pair<int, int>, std::allocator<std::pair<int, int> > >::_Vector_impl_data" }
%"struct.std::_Vector_base<std::pair<int, int>, std::allocator<std::pair<int, int> > >::_Vector_impl_data" = type { ptr, ptr, ptr }
%"class.dealii::internal::Triangulation::TriaObjectsHex" = type { %"class.dealii::internal::Triangulation::TriaObjects.base", %"class.std::vector.54", %"class.std::vector.54", %"class.std::vector.54" }
%"class.dealii::internal::Triangulation::TriaObjects.base" = type <{ %"class.std::vector.257", %"class.std::vector.79", %"class.std::vector.262", %"class.std::vector.54", %"class.std::vector.54", %"class.std::vector.247", i32, i32, i8, [7 x i8], %"class.std::vector.267", i32 }>
%"class.std::vector.257" = type { %"struct.std::_Vector_base.258" }
%"struct.std::_Vector_base.258" = type { %"struct.std::_Vector_base<dealii::internal::Triangulation::TriaObject<3>, std::allocator<dealii::internal::Triangulation::TriaObject<3> > >::_Vector_impl" }
%"struct.std::_Vector_base<dealii::internal::Triangulation::TriaObject<3>, std::allocator<dealii::internal::Triangulation::TriaObject<3> > >::_Vector_impl" = type { %"struct.std::_Vector_base<dealii::internal::Triangulation::TriaObject<3>, std::allocator<dealii::internal::Triangulation::TriaObject<3> > >::_Vector_impl_data" }
%"struct.std::_Vector_base<dealii::internal::Triangulation::TriaObject<3>, std::allocator<dealii::internal::Triangulation::TriaObject<3> > >::_Vector_impl_data" = type { ptr, ptr, ptr }
%"class.std::vector.79" = type { %"struct.std::_Vector_base.80" }
%"struct.std::_Vector_base.80" = type { %"struct.std::_Vector_base<int, std::allocator<int> >::_Vector_impl" }
%"struct.std::_Vector_base<int, std::allocator<int> >::_Vector_impl" = type { %"struct.std::_Vector_base<int, std::allocator<int> >::_Vector_impl_data" }
%"struct.std::_Vector_base<int, std::allocator<int> >::_Vector_impl_data" = type { ptr, ptr, ptr }
%"class.std::vector.262" = type { %"struct.std::_Vector_base.263" }
%"struct.std::_Vector_base.263" = type { %"struct.std::_Vector_base<dealii::RefinementCase<3>, std::allocator<dealii::RefinementCase<3> > >::_Vector_impl" }
%"struct.std::_Vector_base<dealii::RefinementCase<3>, std::allocator<dealii::RefinementCase<3> > >::_Vector_impl" = type { %"struct.std::_Vector_base<dealii::RefinementCase<3>, std::allocator<dealii::RefinementCase<3> > >::_Vector_impl_data" }
%"struct.std::_Vector_base<dealii::RefinementCase<3>, std::allocator<dealii::RefinementCase<3> > >::_Vector_impl_data" = type { ptr, ptr, ptr }
%"class.std::vector.267" = type { %"struct.std::_Vector_base.268" }
%"struct.std::_Vector_base.268" = type { %"struct.std::_Vector_base<dealii::internal::Triangulation::TriaObjects<dealii::internal::Triangulation::TriaObject<3> >::UserData, std::allocator<dealii::internal::Triangulation::TriaObjects<dealii::internal::Triangulation::TriaObject<3> >::UserData> >::_Vector_impl" }
%"struct.std::_Vector_base<dealii::internal::Triangulation::TriaObjects<dealii::internal::Triangulation::TriaObject<3> >::UserData, std::allocator<dealii::internal::Triangulation::TriaObjects<dealii::internal::Triangulation::TriaObject<3> >::UserData> >::_Vector_impl" = type { %"struct.std::_Vector_base<dealii::internal::Triangulation::TriaObjects<dealii::internal::Triangulation::TriaObject<3> >::UserData, std::allocator<dealii::internal::Triangulation::TriaObjects<dealii::internal::Triangulation::TriaObject<3> >::UserData> >::_Vector_impl_data" }
%"struct.std::_Vector_base<dealii::internal::Triangulation::TriaObjects<dealii::internal::Triangulation::TriaObject<3> >::UserData, std::allocator<dealii::internal::Triangulation::TriaObjects<dealii::internal::Triangulation::TriaObject<3> >::UserData> >::_Vector_impl_data" = type { ptr, ptr, ptr }
%"struct.std::pair.106" = type { %"struct.std::pair", %"struct.dealii::SolutionTransfer<3, dealii::Vector<float> >::Pointerstruct" }
%"struct.dealii::SolutionTransfer<3, dealii::Vector<float> >::Pointerstruct" = type { ptr, ptr }
%"struct.std::_Rb_tree_node" = type { %"struct.std::_Rb_tree_node_base", %"struct.std::pair.106" }
%"class.dealii::RefinementCase" = type { i8 }
%"class.std::allocator.103" = type { i8 }
%"class.dealii::SolutionTransfer<3, dealii::Vector<float> >::ExcWrongVectorSize" = type { %"class.dealii::ExceptionBase.base", i32, i32, [4 x i8] }
%"class.dealii::ExceptionBase.base" = type <{ %"class.std::exception", ptr, i32, [4 x i8], ptr, ptr, ptr, ptr, i32 }>
%"class.std::exception" = type { ptr }
%"class.std::basic_ios" = type { %"class.std::ios_base", ptr, i8, i8, ptr, ptr, ptr, ptr }
%"class.std::ios_base" = type { ptr, i64, i64, i32, i32, i32, ptr, %"struct.std::ios_base::_Words", [8 x %"struct.std::ios_base::_Words"], i32, ptr, %"class.std::locale" }
%"struct.std::ios_base::_Words" = type { ptr, i64 }
%"class.std::locale" = type { ptr }
%"class.std::ctype" = type <{ %"class.std::locale::facet.base", [4 x i8], ptr, i8, [7 x i8], ptr, ptr, ptr, i8, [256 x i8], [256 x i8], i8, [6 x i8] }>
%"class.std::locale::facet.base" = type <{ ptr, i32 }>
%"class.dealii::SolutionTransfer.108" = type { %"class.dealii::SmartPointer", i32, i32, %"class.std::vector", %"class.std::map.109", %"class.std::vector.114" }
%"class.std::map.109" = type { %"class.std::_Rb_tree.110" }
%"class.std::_Rb_tree.110" = type { %"struct.std::_Rb_tree<std::pair<unsigned int, unsigned int>, std::pair<const std::pair<unsigned int, unsigned int>, dealii::SolutionTransfer<3>::Pointerstruct>, std::_Select1st<std::pair<const std::pair<unsigned int, unsigned int>, dealii::SolutionTransfer<3>::Pointerstruct> >, std::less<std::pair<unsigned int, unsigned int> > >::_Rb_tree_impl" }
%"struct.std::_Rb_tree<std::pair<unsigned int, unsigned int>, std::pair<const std::pair<unsigned int, unsigned int>, dealii::SolutionTransfer<3>::Pointerstruct>, std::_Select1st<std::pair<const std::pair<unsigned int, unsigned int>, dealii::SolutionTransfer<3>::Pointerstruct> >, std::less<std::pair<unsigned int, unsigned int> > >::_Rb_tree_impl" = type { %"struct.std::_Rb_tree_key_compare", %"struct.std::_Rb_tree_header" }
%"class.std::vector.114" = type { %"struct.std::_Vector_base.115" }
%"struct.std::_Vector_base.115" = type { %"struct.std::_Vector_base<std::vector<dealii::Vector<double> >, std::allocator<std::vector<dealii::Vector<double> > > >::_Vector_impl" }
%"struct.std::_Vector_base<std::vector<dealii::Vector<double> >, std::allocator<std::vector<dealii::Vector<double> > > >::_Vector_impl" = type { %"struct.std::_Vector_base<std::vector<dealii::Vector<double> >, std::allocator<std::vector<dealii::Vector<double> > > >::_Vector_impl_data" }
%"struct.std::_Vector_base<std::vector<dealii::Vector<double> >, std::allocator<std::vector<dealii::Vector<double> > > >::_Vector_impl_data" = type { ptr, ptr, ptr }
%"struct.std::_Vector_base<dealii::Vector<double>, std::allocator<dealii::Vector<double> > >::_Vector_impl_data" = type { ptr, ptr, ptr }
%"class.dealii::Vector.124" = type { %"class.dealii::Subscriptor", i32, i32, ptr }
%"class.std::vector.119" = type { %"struct.std::_Vector_base.120" }
%"struct.std::_Vector_base.120" = type { %"struct.std::_Vector_base<dealii::Vector<double>, std::allocator<dealii::Vector<double> > >::_Vector_impl" }
%"struct.std::_Vector_base<dealii::Vector<double>, std::allocator<dealii::Vector<double> > >::_Vector_impl" = type { %"struct.std::_Vector_base<dealii::Vector<double>, std::allocator<dealii::Vector<double> > >::_Vector_impl_data" }
%"struct.std::pair.126" = type { %"struct.std::pair", %"struct.dealii::SolutionTransfer<3>::Pointerstruct" }
%"struct.dealii::SolutionTransfer<3>::Pointerstruct" = type { ptr, ptr }
%"struct.std::_Rb_tree_node.215" = type { %"struct.std::_Rb_tree_node_base", %"struct.std::pair.126" }
%"class.std::allocator.121" = type { i8 }
%"class.dealii::SolutionTransfer<3>::ExcWrongVectorSize" = type { %"class.dealii::ExceptionBase.base", i32, i32, [4 x i8] }
%"class.dealii::SmartPointer.129" = type { ptr, ptr }
%"class.dealii::SolutionTransfer.128" = type { %"class.dealii::SmartPointer.129", i32, i32, %"class.std::vector", %"class.std::map.130", %"class.std::vector.19" }
%"class.std::map.130" = type { %"class.std::_Rb_tree.131" }
%"class.std::_Rb_tree.131" = type { %"struct.std::_Rb_tree<std::pair<unsigned int, unsigned int>, std::pair<const std::pair<unsigned int, unsigned int>, dealii::SolutionTransfer<3, dealii::Vector<float>, dealii::hp::DoFHandler<3, 3> >::Pointerstruct>, std::_Select1st<std::pair<const std::pair<unsigned int, unsigned int>, dealii::SolutionTransfer<3, dealii::Vector<float>, dealii::hp::DoFHandler<3, 3> >::Pointerstruct> >, std::less<std::pair<unsigned int, unsigned int> > >::_Rb_tree_impl" }
%"struct.std::_Rb_tree<std::pair<unsigned int, unsigned int>, std::pair<const std::pair<unsigned int, unsigned int>, dealii::SolutionTransfer<3, dealii::Vector<float>, dealii::hp::DoFHandler<3, 3> >::Pointerstruct>, std::_Select1st<std::pair<const std::pair<unsigned int, unsigned int>, dealii::SolutionTransfer<3, dealii::Vector<float>, dealii::hp::DoFHandler<3, 3> >::Pointerstruct> >, std::less<std::pair<unsigned int, unsigned int> > >::_Rb_tree_impl" = type { %"struct.std::_Rb_tree_key_compare", %"struct.std::_Rb_tree_header" }
%"class.dealii::TriaActiveIterator.146" = type { %"class.dealii::TriaIterator.147" }
%"class.dealii::TriaIterator.147" = type { %"class.dealii::TriaRawIterator.148" }
%"class.dealii::TriaRawIterator.148" = type { %"class.dealii::DoFCellAccessor.150" }
%"class.dealii::DoFCellAccessor.150" = type { %"class.dealii::DoFAccessor.151" }
%"class.dealii::DoFAccessor.151" = type { %"class.dealii::CellAccessor", ptr }
%"class.dealii::hp::DoFHandler" = type { %"class.dealii::Subscriptor", %"class.dealii::Triangulation<3, 3>::RefinementListener", %"class.dealii::SmartPointer.32", %"class.dealii::SmartPointer.135", %"class.std::vector.136", ptr, i32, %"class.std::vector.39", %"class.std::vector.39", %"class.std::vector.141" }
%"class.dealii::Triangulation<3, 3>::RefinementListener" = type { ptr }
%"class.dealii::SmartPointer.135" = type { ptr, ptr }
%"class.std::vector.136" = type { %"struct.std::_Vector_base.137" }
%"struct.std::_Vector_base.137" = type { %"struct.std::_Vector_base<dealii::internal::hp::DoFLevel<3> *, std::allocator<dealii::internal::hp::DoFLevel<3> *> >::_Vector_impl" }
%"struct.std::_Vector_base<dealii::internal::hp::DoFLevel<3> *, std::allocator<dealii::internal::hp::DoFLevel<3> *> >::_Vector_impl" = type { %"struct.std::_Vector_base<dealii::internal::hp::DoFLevel<3> *, std::allocator<dealii::internal::hp::DoFLevel<3> *> >::_Vector_impl_data" }
%"struct.std::_Vector_base<dealii::internal::hp::DoFLevel<3> *, std::allocator<dealii::internal::hp::DoFLevel<3> *> >::_Vector_impl_data" = type { ptr, ptr, ptr }
%"class.std::vector.141" = type { %"struct.std::_Vector_base.142" }
%"struct.std::_Vector_base.142" = type { %"struct.std::_Vector_base<std::vector<bool> *, std::allocator<std::vector<bool> *> >::_Vector_impl" }
%"struct.std::_Vector_base<std::vector<bool> *, std::allocator<std::vector<bool> *> >::_Vector_impl" = type { %"struct.std::_Vector_base<std::vector<bool> *, std::allocator<std::vector<bool> *> >::_Vector_impl_data" }
%"struct.std::_Vector_base<std::vector<bool> *, std::allocator<std::vector<bool> *> >::_Vector_impl_data" = type { ptr, ptr, ptr }
%"class.dealii::hp::FECollection" = type { %"class.dealii::Subscriptor", %"class.std::vector.277" }
%"class.std::vector.277" = type { %"struct.std::_Vector_base.278" }
%"struct.std::_Vector_base.278" = type { %"struct.std::_Vector_base<boost::shared_ptr<const dealii::FiniteElement<3, 3> >, std::allocator<boost::shared_ptr<const dealii::FiniteElement<3, 3> > > >::_Vector_impl" }
%"struct.std::_Vector_base<boost::shared_ptr<const dealii::FiniteElement<3, 3> >, std::allocator<boost::shared_ptr<const dealii::FiniteElement<3, 3> > > >::_Vector_impl" = type { %"struct.std::_Vector_base<boost::shared_ptr<const dealii::FiniteElement<3, 3> >, std::allocator<boost::shared_ptr<const dealii::FiniteElement<3, 3> > > >::_Vector_impl_data" }
%"struct.std::_Vector_base<boost::shared_ptr<const dealii::FiniteElement<3, 3> >, std::allocator<boost::shared_ptr<const dealii::FiniteElement<3, 3> > > >::_Vector_impl_data" = type { ptr, ptr, ptr }
%"class.boost::shared_ptr" = type { ptr, %"class.boost::detail::shared_count" }
%"class.boost::detail::shared_count" = type { ptr }
%"struct.std::pair.153" = type { %"struct.std::pair", %"struct.dealii::SolutionTransfer<3, dealii::Vector<float>, dealii::hp::DoFHandler<3, 3> >::Pointerstruct" }
%"struct.dealii::SolutionTransfer<3, dealii::Vector<float>, dealii::hp::DoFHandler<3, 3> >::Pointerstruct" = type { ptr, ptr }
%"struct.std::_Rb_tree_node.219" = type { %"struct.std::_Rb_tree_node_base", %"struct.std::pair.153" }
%"class.dealii::SolutionTransfer<3, dealii::Vector<float>, dealii::hp::DoFHandler<3, 3> >::ExcWrongVectorSize" = type { %"class.dealii::ExceptionBase.base", i32, i32, [4 x i8] }
%"class.dealii::SolutionTransfer.155" = type { %"class.dealii::SmartPointer.129", i32, i32, %"class.std::vector", %"class.std::map.156", %"class.std::vector.114" }
%"class.std::map.156" = type { %"class.std::_Rb_tree.157" }
%"class.std::_Rb_tree.157" = type { %"struct.std::_Rb_tree<std::pair<unsigned int, unsigned int>, std::pair<const std::pair<unsigned int, unsigned int>, dealii::SolutionTransfer<3, dealii::Vector<double>, dealii::hp::DoFHandler<3, 3> >::Pointerstruct>, std::_Select1st<std::pair<const std::pair<unsigned int, unsigned int>, dealii::SolutionTransfer<3, dealii::Vector<double>, dealii::hp::DoFHandler<3, 3> >::Pointerstruct> >, std::less<std::pair<unsigned int, unsigned int> > >::_Rb_tree_impl" }
%"struct.std::_Rb_tree<std::pair<unsigned int, unsigned int>, std::pair<const std::pair<unsigned int, unsigned int>, dealii::SolutionTransfer<3, dealii::Vector<double>, dealii::hp::DoFHandler<3, 3> >::Pointerstruct>, std::_Select1st<std::pair<const std::pair<unsigned int, unsigned int>, dealii::SolutionTransfer<3, dealii::Vector<double>, dealii::hp::DoFHandler<3, 3> >::Pointerstruct> >, std::less<std::pair<unsigned int, unsigned int> > >::_Rb_tree_impl" = type { %"struct.std::_Rb_tree_key_compare", %"struct.std::_Rb_tree_header" }
%"struct.std::pair.162" = type { %"struct.std::pair", %"struct.dealii::SolutionTransfer<3, dealii::Vector<double>, dealii::hp::DoFHandler<3, 3> >::Pointerstruct" }
%"struct.dealii::SolutionTransfer<3, dealii::Vector<double>, dealii::hp::DoFHandler<3, 3> >::Pointerstruct" = type { ptr, ptr }
%"struct.std::_Rb_tree_node.223" = type { %"struct.std::_Rb_tree_node_base", %"struct.std::pair.162" }
%"class.dealii::SolutionTransfer<3, dealii::Vector<double>, dealii::hp::DoFHandler<3, 3> >::ExcWrongVectorSize" = type { %"class.dealii::ExceptionBase.base", i32, i32, [4 x i8] }
%"class.dealii::SolutionTransfer.164" = type { %"class.dealii::SmartPointer", i32, i32, %"class.std::vector", %"class.std::map.165", %"class.std::vector.19" }
%"class.std::map.165" = type { %"class.std::_Rb_tree.166" }
%"class.std::_Rb_tree.166" = type { %"struct.std::_Rb_tree<std::pair<unsigned int, unsigned int>, std::pair<const std::pair<unsigned int, unsigned int>, dealii::SolutionTransfer<3, dealii::BlockVector<float> >::Pointerstruct>, std::_Select1st<std::pair<const std::pair<unsigned int, unsigned int>, dealii::SolutionTransfer<3, dealii::BlockVector<float> >::Pointerstruct> >, std::less<std::pair<unsigned int, unsigned int> > >::_Rb_tree_impl" }
%"struct.std::_Rb_tree<std::pair<unsigned int, unsigned int>, std::pair<const std::pair<unsigned int, unsigned int>, dealii::SolutionTransfer<3, dealii::BlockVector<float> >::Pointerstruct>, std::_Select1st<std::pair<const std::pair<unsigned int, unsigned int>, dealii::SolutionTransfer<3, dealii::BlockVector<float> >::Pointerstruct> >, std::less<std::pair<unsigned int, unsigned int> > >::_Rb_tree_impl" = type { %"struct.std::_Rb_tree_key_compare", %"struct.std::_Rb_tree_header" }
%"struct.std::pair.176" = type { %"struct.std::pair", %"struct.dealii::SolutionTransfer<3, dealii::BlockVector<float> >::Pointerstruct" }
%"struct.dealii::SolutionTransfer<3, dealii::BlockVector<float> >::Pointerstruct" = type { ptr, ptr }
%"struct.std::_Rb_tree_node.227" = type { %"struct.std::_Rb_tree_node_base", %"struct.std::pair.176" }
%"struct.std::_Vector_base<dealii::BlockVector<float>, std::allocator<dealii::BlockVector<float> > >::_Vector_impl_data" = type { ptr, ptr, ptr }
%"class.dealii::BlockVector" = type { %"class.dealii::BlockVectorBase" }
%"class.dealii::BlockVectorBase" = type { %"class.dealii::Subscriptor", %"class.std::vector.101", %"class.dealii::BlockIndices" }
%"class.dealii::BlockIndices" = type { i32, %"class.std::vector.39" }
%"class.std::vector.170" = type { %"struct.std::_Vector_base.171" }
%"struct.std::_Vector_base.171" = type { %"struct.std::_Vector_base<dealii::BlockVector<float>, std::allocator<dealii::BlockVector<float> > >::_Vector_impl" }
%"struct.std::_Vector_base<dealii::BlockVector<float>, std::allocator<dealii::BlockVector<float> > >::_Vector_impl" = type { %"struct.std::_Vector_base<dealii::BlockVector<float>, std::allocator<dealii::BlockVector<float> > >::_Vector_impl_data" }
%"class.std::allocator.172" = type { i8 }
%"class.dealii::SolutionTransfer<3, dealii::BlockVector<float> >::ExcWrongVectorSize" = type { %"class.dealii::ExceptionBase.base", i32, i32, [4 x i8] }
%"class.dealii::SolutionTransfer.178" = type { %"class.dealii::SmartPointer", i32, i32, %"class.std::vector", %"class.std::map.179", %"class.std::vector.114" }
%"class.std::map.179" = type { %"class.std::_Rb_tree.180" }
%"class.std::_Rb_tree.180" = type { %"struct.std::_Rb_tree<std::pair<unsigned int, unsigned int>, std::pair<const std::pair<unsigned int, unsigned int>, dealii::SolutionTransfer<3, dealii::BlockVector<double> >::Pointerstruct>, std::_Select1st<std::pair<const std::pair<unsigned int, unsigned int>, dealii::SolutionTransfer<3, dealii::BlockVector<double> >::Pointerstruct> >, std::less<std::pair<unsigned int, unsigned int> > >::_Rb_tree_impl" }
%"struct.std::_Rb_tree<std::pair<unsigned int, unsigned int>, std::pair<const std::pair<unsigned int, unsigned int>, dealii::SolutionTransfer<3, dealii::BlockVector<double> >::Pointerstruct>, std::_Select1st<std::pair<const std::pair<unsigned int, unsigned int>, dealii::SolutionTransfer<3, dealii::BlockVector<double> >::Pointerstruct> >, std::less<std::pair<unsigned int, unsigned int> > >::_Rb_tree_impl" = type { %"struct.std::_Rb_tree_key_compare", %"struct.std::_Rb_tree_header" }
%"struct.std::pair.192" = type { %"struct.std::pair", %"struct.dealii::SolutionTransfer<3, dealii::BlockVector<double> >::Pointerstruct" }
%"struct.dealii::SolutionTransfer<3, dealii::BlockVector<double> >::Pointerstruct" = type { ptr, ptr }
%"struct.std::_Rb_tree_node.231" = type { %"struct.std::_Rb_tree_node_base", %"struct.std::pair.192" }
%"struct.std::_Vector_base<dealii::BlockVector<double>, std::allocator<dealii::BlockVector<double> > >::_Vector_impl_data" = type { ptr, ptr, ptr }
%"class.dealii::BlockVector.189" = type { %"class.dealii::BlockVectorBase.190" }
%"class.dealii::BlockVectorBase.190" = type { %"class.dealii::Subscriptor", %"class.std::vector.119", %"class.dealii::BlockIndices" }
%"class.std::vector.184" = type { %"struct.std::_Vector_base.185" }
%"struct.std::_Vector_base.185" = type { %"struct.std::_Vector_base<dealii::BlockVector<double>, std::allocator<dealii::BlockVector<double> > >::_Vector_impl" }
%"struct.std::_Vector_base<dealii::BlockVector<double>, std::allocator<dealii::BlockVector<double> > >::_Vector_impl" = type { %"struct.std::_Vector_base<dealii::BlockVector<double>, std::allocator<dealii::BlockVector<double> > >::_Vector_impl_data" }
%"class.std::allocator.186" = type { i8 }
%"class.dealii::SolutionTransfer<3, dealii::BlockVector<double> >::ExcWrongVectorSize" = type { %"class.dealii::ExceptionBase.base", i32, i32, [4 x i8] }
%"class.dealii::SolutionTransfer.194" = type { %"class.dealii::SmartPointer.129", i32, i32, %"class.std::vector", %"class.std::map.195", %"class.std::vector.19" }
%"class.std::map.195" = type { %"class.std::_Rb_tree.196" }
%"class.std::_Rb_tree.196" = type { %"struct.std::_Rb_tree<std::pair<unsigned int, unsigned int>, std::pair<const std::pair<unsigned int, unsigned int>, dealii::SolutionTransfer<3, dealii::BlockVector<float>, dealii::hp::DoFHandler<3, 3> >::Pointerstruct>, std::_Select1st<std::pair<const std::pair<unsigned int, unsigned int>, dealii::SolutionTransfer<3, dealii::BlockVector<float>, dealii::hp::DoFHandler<3, 3> >::Pointerstruct> >, std::less<std::pair<unsigned int, unsigned int> > >::_Rb_tree_impl" }
%"struct.std::_Rb_tree<std::pair<unsigned int, unsigned int>, std::pair<const std::pair<unsigned int, unsigned int>, dealii::SolutionTransfer<3, dealii::BlockVector<float>, dealii::hp::DoFHandler<3, 3> >::Pointerstruct>, std::_Select1st<std::pair<const std::pair<unsigned int, unsigned int>, dealii::SolutionTransfer<3, dealii::BlockVector<float>, dealii::hp::DoFHandler<3, 3> >::Pointerstruct> >, std::less<std::pair<unsigned int, unsigned int> > >::_Rb_tree_impl" = type { %"struct.std::_Rb_tree_key_compare", %"struct.std::_Rb_tree_header" }
%"struct.std::pair.201" = type { %"struct.std::pair", %"struct.dealii::SolutionTransfer<3, dealii::BlockVector<float>, dealii::hp::DoFHandler<3, 3> >::Pointerstruct" }
%"struct.dealii::SolutionTransfer<3, dealii::BlockVector<float>, dealii::hp::DoFHandler<3, 3> >::Pointerstruct" = type { ptr, ptr }
%"struct.std::_Rb_tree_node.235" = type { %"struct.std::_Rb_tree_node_base", %"struct.std::pair.201" }
%"class.dealii::SolutionTransfer<3, dealii::BlockVector<float>, dealii::hp::DoFHandler<3, 3> >::ExcWrongVectorSize" = type { %"class.dealii::ExceptionBase.base", i32, i32, [4 x i8] }
%"class.dealii::SolutionTransfer.203" = type { %"class.dealii::SmartPointer.129", i32, i32, %"class.std::vector", %"class.std::map.204", %"class.std::vector.114" }
%"class.std::map.204" = type { %"class.std::_Rb_tree.205" }
%"class.std::_Rb_tree.205" = type { %"struct.std::_Rb_tree<std::pair<unsigned int, unsigned int>, std::pair<const std::pair<unsigned int, unsigned int>, dealii::SolutionTransfer<3, dealii::BlockVector<double>, dealii::hp::DoFHandler<3, 3> >::Pointerstruct>, std::_Select1st<std::pair<const std::pair<unsigned int, unsigned int>, dealii::SolutionTransfer<3, dealii::BlockVector<double>, dealii::hp::DoFHandler<3, 3> >::Pointerstruct> >, std::less<std::pair<unsigned int, unsigned int> > >::_Rb_tree_impl" }
%"struct.std::_Rb_tree<std::pair<unsigned int, unsigned int>, std::pair<const std::pair<unsigned int, unsigned int>, dealii::SolutionTransfer<3, dealii::BlockVector<double>, dealii::hp::DoFHandler<3, 3> >::Pointerstruct>, std::_Select1st<std::pair<const std::pair<unsigned int, unsigned int>, dealii::SolutionTransfer<3, dealii::BlockVector<double>, dealii::hp::DoFHandler<3, 3> >::Pointerstruct> >, std::less<std::pair<unsigned int, unsigned int> > >::_Rb_tree_impl" = type { %"struct.std::_Rb_tree_key_compare", %"struct.std::_Rb_tree_header" }
%"struct.std::pair.210" = type { %"struct.std::pair", %"struct.dealii::SolutionTransfer<3, dealii::BlockVector<double>, dealii::hp::DoFHandler<3, 3> >::Pointerstruct" }
%"struct.dealii::SolutionTransfer<3, dealii::BlockVector<double>, dealii::hp::DoFHandler<3, 3> >::Pointerstruct" = type { ptr, ptr }
%"struct.std::_Rb_tree_node.239" = type { %"struct.std::_Rb_tree_node_base", %"struct.std::pair.210" }
%"class.dealii::SolutionTransfer<3, dealii::BlockVector<double>, dealii::hp::DoFHandler<3, 3> >::ExcWrongVectorSize" = type { %"class.dealii::ExceptionBase.base", i32, i32, [4 x i8] }
%"class.dealii::internal::Triangulation::TriaObject" = type { [6 x i32] }
%"class.dealii::internal::Triangulation::TriaObject.318" = type { [4 x i32] }
%"class.dealii::internal::Triangulation::TriaObjectsQuad3D" = type { %"class.dealii::internal::Triangulation::TriaObjects.base.317", %"class.std::vector.54" }
%"class.dealii::internal::Triangulation::TriaObjects.base.317" = type <{ %"class.std::vector.302", %"class.std::vector.79", %"class.std::vector.307", %"class.std::vector.54", %"class.std::vector.54", %"class.std::vector.247", i32, i32, i8, [7 x i8], %"class.std::vector.312", i32 }>
%"class.std::vector.302" = type { %"struct.std::_Vector_base.303" }
%"struct.std::_Vector_base.303" = type { %"struct.std::_Vector_base<dealii::internal::Triangulation::TriaObject<2>, std::allocator<dealii::internal::Triangulation::TriaObject<2> > >::_Vector_impl" }
%"struct.std::_Vector_base<dealii::internal::Triangulation::TriaObject<2>, std::allocator<dealii::internal::Triangulation::TriaObject<2> > >::_Vector_impl" = type { %"struct.std::_Vector_base<dealii::internal::Triangulation::TriaObject<2>, std::allocator<dealii::internal::Triangulation::TriaObject<2> > >::_Vector_impl_data" }
%"struct.std::_Vector_base<dealii::internal::Triangulation::TriaObject<2>, std::allocator<dealii::internal::Triangulation::TriaObject<2> > >::_Vector_impl_data" = type { ptr, ptr, ptr }
%"class.std::vector.307" = type { %"struct.std::_Vector_base.308" }
%"struct.std::_Vector_base.308" = type { %"struct.std::_Vector_base<dealii::RefinementCase<2>, std::allocator<dealii::RefinementCase<2> > >::_Vector_impl" }
%"struct.std::_Vector_base<dealii::RefinementCase<2>, std::allocator<dealii::RefinementCase<2> > >::_Vector_impl" = type { %"struct.std::_Vector_base<dealii::RefinementCase<2>, std::allocator<dealii::RefinementCase<2> > >::_Vector_impl_data" }
%"struct.std::_Vector_base<dealii::RefinementCase<2>, std::allocator<dealii::RefinementCase<2> > >::_Vector_impl_data" = type { ptr, ptr, ptr }
%"class.std::vector.312" = type { %"struct.std::_Vector_base.313" }
%"struct.std::_Vector_base.313" = type { %"struct.std::_Vector_base<dealii::internal::Triangulation::TriaObjects<dealii::internal::Triangulation::TriaObject<2> >::UserData, std::allocator<dealii::internal::Triangulation::TriaObjects<dealii::internal::Triangulation::TriaObject<2> >::UserData> >::_Vector_impl" }
%"struct.std::_Vector_base<dealii::internal::Triangulation::TriaObjects<dealii::internal::Triangulation::TriaObject<2> >::UserData, std::allocator<dealii::internal::Triangulation::TriaObjects<dealii::internal::Triangulation::TriaObject<2> >::UserData> >::_Vector_impl" = type { %"struct.std::_Vector_base<dealii::internal::Triangulation::TriaObjects<dealii::internal::Triangulation::TriaObject<2> >::UserData, std::allocator<dealii::internal::Triangulation::TriaObjects<dealii::internal::Triangulation::TriaObject<2> >::UserData> >::_Vector_impl_data" }
%"struct.std::_Vector_base<dealii::internal::Triangulation::TriaObjects<dealii::internal::Triangulation::TriaObject<2> >::UserData, std::allocator<dealii::internal::Triangulation::TriaObjects<dealii::internal::Triangulation::TriaObject<2> >::UserData> >::_Vector_impl_data" = type { ptr, ptr, ptr }
%"class.dealii::internal::Triangulation::TriaFaces" = type { %"class.dealii::internal::Triangulation::TriaObjectsQuad3D", %"class.dealii::internal::Triangulation::TriaObjects.319" }
%"class.dealii::internal::Triangulation::TriaObjects.319" = type <{ %"class.std::vector.320", %"class.std::vector.79", %"class.std::vector.325", %"class.std::vector.54", %"class.std::vector.54", %"class.std::vector.247", i32, i32, i8, [7 x i8], %"class.std::vector.330", i32, [4 x i8] }>
%"class.std::vector.320" = type { %"struct.std::_Vector_base.321" }
%"struct.std::_Vector_base.321" = type { %"struct.std::_Vector_base<dealii::internal::Triangulation::TriaObject<1>, std::allocator<dealii::internal::Triangulation::TriaObject<1> > >::_Vector_impl" }
%"struct.std::_Vector_base<dealii::internal::Triangulation::TriaObject<1>, std::allocator<dealii::internal::Triangulation::TriaObject<1> > >::_Vector_impl" = type { %"struct.std::_Vector_base<dealii::internal::Triangulation::TriaObject<1>, std::allocator<dealii::internal::Triangulation::TriaObject<1> > >::_Vector_impl_data" }
%"struct.std::_Vector_base<dealii::internal::Triangulation::TriaObject<1>, std::allocator<dealii::internal::Triangulation::TriaObject<1> > >::_Vector_impl_data" = type { ptr, ptr, ptr }
%"class.std::vector.325" = type { %"struct.std::_Vector_base.326" }
%"struct.std::_Vector_base.326" = type { %"struct.std::_Vector_base<dealii::RefinementCase<1>, std::allocator<dealii::RefinementCase<1> > >::_Vector_impl" }
%"struct.std::_Vector_base<dealii::RefinementCase<1>, std::allocator<dealii::RefinementCase<1> > >::_Vector_impl" = type { %"struct.std::_Vector_base<dealii::RefinementCase<1>, std::allocator<dealii::RefinementCase<1> > >::_Vector_impl_data" }
%"struct.std::_Vector_base<dealii::RefinementCase<1>, std::allocator<dealii::RefinementCase<1> > >::_Vector_impl_data" = type { ptr, ptr, ptr }
%"class.std::vector.330" = type { %"struct.std::_Vector_base.331" }
%"struct.std::_Vector_base.331" = type { %"struct.std::_Vector_base<dealii::internal::Triangulation::TriaObjects<dealii::internal::Triangulation::TriaObject<1> >::UserData, std::allocator<dealii::internal::Triangulation::TriaObjects<dealii::internal::Triangulation::TriaObject<1> >::UserData> >::_Vector_impl" }
%"struct.std::_Vector_base<dealii::internal::Triangulation::TriaObjects<dealii::internal::Triangulation::TriaObject<1> >::UserData, std::allocator<dealii::internal::Triangulation::TriaObjects<dealii::internal::Triangulation::TriaObject<1> >::UserData> >::_Vector_impl" = type { %"struct.std::_Vector_base<dealii::internal::Triangulation::TriaObjects<dealii::internal::Triangulation::TriaObject<1> >::UserData, std::allocator<dealii::internal::Triangulation::TriaObjects<dealii::internal::Triangulation::TriaObject<1> >::UserData> >::_Vector_impl_data" }
%"struct.std::_Vector_base<dealii::internal::Triangulation::TriaObjects<dealii::internal::Triangulation::TriaObject<1> >::UserData, std::allocator<dealii::internal::Triangulation::TriaObjects<dealii::internal::Triangulation::TriaObject<1> >::UserData> >::_Vector_impl_data" = type { ptr, ptr, ptr }
%"class.dealii::internal::Triangulation::TriaObject.336" = type { [2 x i32] }
%"class.dealii::internal::hp::DoFObjects.338" = type { %"class.std::vector.39", %"class.std::vector.39" }
%"class.dealii::internal::hp::DoFFaces" = type { %"class.dealii::internal::hp::DoFObjects.338", %"class.dealii::internal::hp::DoFObjects.339" }
%"class.dealii::internal::hp::DoFObjects.339" = type { %"class.std::vector.39", %"class.std::vector.39" }
%"class.dealii::internal::hp::DoFLevel" = type { %"class.dealii::internal::hp::DoFLevel.282", %"class.dealii::internal::hp::DoFObjects" }
%"class.dealii::internal::hp::DoFLevel.282" = type { %"class.std::vector.39" }
%"class.dealii::internal::hp::DoFObjects" = type { %"class.std::vector.39", %"class.std::vector.39" }

$_ZN6dealii16SolutionTransferILi3ENS_6VectorIfEENS_10DoFHandlerILi3ELi3EEEEC5ERKS4_ = comdat any

$__clang_call_terminate = comdat any

$_ZNSt6vectorIS_IjSaIjEESaIS1_EED2Ev = comdat any

$_ZN6dealii16SolutionTransferILi3ENS_6VectorIfEENS_10DoFHandlerILi3ELi3EEEED5Ev = comdat any

$_ZN6dealii16SolutionTransferILi3ENS_6VectorIfEENS_10DoFHandlerILi3ELi3EEEE5clearEv = comdat any

$_ZNSt6vectorIS_IN6dealii6VectorIfEESaIS2_EESaIS4_EED2Ev = comdat any

$_ZN6dealii16SolutionTransferILi3ENS_6VectorIfEENS_10DoFHandlerILi3ELi3EEEE27prepare_for_pure_refinementEv = comdat any

$_ZNSt3mapISt4pairIjjEN6dealii16SolutionTransferILi3ENS2_6VectorIfEENS2_10DoFHandlerILi3ELi3EEEE13PointerstructESt4lessIS1_ESaIS0_IKS1_S9_EEEixERSC_ = comdat any

$_ZN6dealii16SolutionTransferILi3ENS_6VectorIfEENS_10DoFHandlerILi3ELi3EEEE37prepare_for_coarsening_and_refinementERKSt6vectorIS2_SaIS2_EE = comdat any

$_ZNSt6vectorIN6dealii6VectorIfEESaIS2_EEC2EmRKS2_RKS3_ = comdat any

$_ZNSt6vectorIN6dealii6VectorIfEESaIS2_EED2Ev = comdat any

$_ZN6dealii6VectorIfED2Ev = comdat any

$_ZN6dealii16SolutionTransferILi3ENS_6VectorIfEENS_10DoFHandlerILi3ELi3EEEE37prepare_for_coarsening_and_refinementERKS2_ = comdat any

$_ZNK6dealii16SolutionTransferILi3ENS_6VectorIfEENS_10DoFHandlerILi3ELi3EEEE18refine_interpolateERKS2_RS2_ = comdat any

$_ZN6dealii6VectorIfE6reinitEjb = comdat any

$_ZNK6dealii16SolutionTransferILi3ENS_6VectorIfEENS_10DoFHandlerILi3ELi3EEEE11interpolateERKSt6vectorIS2_SaIS2_EERS8_ = comdat any

$_ZNK6dealii16SolutionTransferILi3ENS_6VectorIfEENS_10DoFHandlerILi3ELi3EEEE11interpolateERKS2_RS2_ = comdat any

$_ZNK6dealii16SolutionTransferILi3ENS_6VectorIfEENS_10DoFHandlerILi3ELi3EEEE18memory_consumptionEv = comdat any

$_ZN6dealii16SolutionTransferILi3ENS_6VectorIfEENS_10DoFHandlerILi3ELi3EEEE18ExcWrongVectorSizeC5Eii = comdat any

$_ZN6dealii16SolutionTransferILi3ENS_6VectorIfEENS_10DoFHandlerILi3ELi3EEEE18ExcWrongVectorSizeD5Ev = comdat any

$_ZNK6dealii16SolutionTransferILi3ENS_6VectorIfEENS_10DoFHandlerILi3ELi3EEEE18ExcWrongVectorSize10print_infoERSo = comdat any

$_ZN6dealii16SolutionTransferILi3ENS_6VectorIfEENS_10DoFHandlerILi3ELi3EEEE13PointerstructC5Ev = comdat any

$_ZNK6dealii16SolutionTransferILi3ENS_6VectorIfEENS_10DoFHandlerILi3ELi3EEEE13Pointerstruct18memory_consumptionEv = comdat any

$_ZN6dealii16SolutionTransferILi3ENS_6VectorIdEENS_10DoFHandlerILi3ELi3EEEEC5ERKS4_ = comdat any

$_ZN6dealii16SolutionTransferILi3ENS_6VectorIdEENS_10DoFHandlerILi3ELi3EEEED5Ev = comdat any

$_ZN6dealii16SolutionTransferILi3ENS_6VectorIdEENS_10DoFHandlerILi3ELi3EEEE5clearEv = comdat any

$_ZNSt6vectorIS_IN6dealii6VectorIdEESaIS2_EESaIS4_EED2Ev = comdat any

$_ZN6dealii16SolutionTransferILi3ENS_6VectorIdEENS_10DoFHandlerILi3ELi3EEEE27prepare_for_pure_refinementEv = comdat any

$_ZNSt3mapISt4pairIjjEN6dealii16SolutionTransferILi3ENS2_6VectorIdEENS2_10DoFHandlerILi3ELi3EEEE13PointerstructESt4lessIS1_ESaIS0_IKS1_S9_EEEixERSC_ = comdat any

$_ZN6dealii16SolutionTransferILi3ENS_6VectorIdEENS_10DoFHandlerILi3ELi3EEEE37prepare_for_coarsening_and_refinementERKSt6vectorIS2_SaIS2_EE = comdat any

$_ZNSt6vectorIN6dealii6VectorIdEESaIS2_EEC2EmRKS2_RKS3_ = comdat any

$_ZNSt6vectorIN6dealii6VectorIdEESaIS2_EED2Ev = comdat any

$_ZN6dealii6VectorIdED2Ev = comdat any

$_ZN6dealii16SolutionTransferILi3ENS_6VectorIdEENS_10DoFHandlerILi3ELi3EEEE37prepare_for_coarsening_and_refinementERKS2_ = comdat any

$_ZNK6dealii16SolutionTransferILi3ENS_6VectorIdEENS_10DoFHandlerILi3ELi3EEEE18refine_interpolateERKS2_RS2_ = comdat any

$_ZN6dealii6VectorIdE6reinitEjb = comdat any

$_ZNK6dealii16SolutionTransferILi3ENS_6VectorIdEENS_10DoFHandlerILi3ELi3EEEE11interpolateERKSt6vectorIS2_SaIS2_EERS8_ = comdat any

$_ZNK6dealii16SolutionTransferILi3ENS_6VectorIdEENS_10DoFHandlerILi3ELi3EEEE11interpolateERKS2_RS2_ = comdat any

$_ZNK6dealii16SolutionTransferILi3ENS_6VectorIdEENS_10DoFHandlerILi3ELi3EEEE18memory_consumptionEv = comdat any

$_ZN6dealii16SolutionTransferILi3ENS_6VectorIdEENS_10DoFHandlerILi3ELi3EEEE18ExcWrongVectorSizeC5Eii = comdat any

$_ZN6dealii16SolutionTransferILi3ENS_6VectorIdEENS_10DoFHandlerILi3ELi3EEEE18ExcWrongVectorSizeD5Ev = comdat any

$_ZNK6dealii16SolutionTransferILi3ENS_6VectorIdEENS_10DoFHandlerILi3ELi3EEEE18ExcWrongVectorSize10print_infoERSo = comdat any

$_ZN6dealii16SolutionTransferILi3ENS_6VectorIdEENS_10DoFHandlerILi3ELi3EEEE13PointerstructC5Ev = comdat any

$_ZNK6dealii16SolutionTransferILi3ENS_6VectorIdEENS_10DoFHandlerILi3ELi3EEEE13Pointerstruct18memory_consumptionEv = comdat any

$_ZN6dealii16SolutionTransferILi3ENS_6VectorIfEENS_2hp10DoFHandlerILi3ELi3EEEEC5ERKS5_ = comdat any

$_ZN6dealii16SolutionTransferILi3ENS_6VectorIfEENS_2hp10DoFHandlerILi3ELi3EEEED5Ev = comdat any

$_ZN6dealii16SolutionTransferILi3ENS_6VectorIfEENS_2hp10DoFHandlerILi3ELi3EEEE5clearEv = comdat any

$_ZN6dealii16SolutionTransferILi3ENS_6VectorIfEENS_2hp10DoFHandlerILi3ELi3EEEE27prepare_for_pure_refinementEv = comdat any

$_ZNSt3mapISt4pairIjjEN6dealii16SolutionTransferILi3ENS2_6VectorIfEENS2_2hp10DoFHandlerILi3ELi3EEEE13PointerstructESt4lessIS1_ESaIS0_IKS1_SA_EEEixERSD_ = comdat any

$_ZN6dealii16SolutionTransferILi3ENS_6VectorIfEENS_2hp10DoFHandlerILi3ELi3EEEE37prepare_for_coarsening_and_refinementERKSt6vectorIS2_SaIS2_EE = comdat any

$_ZN6dealii16SolutionTransferILi3ENS_6VectorIfEENS_2hp10DoFHandlerILi3ELi3EEEE37prepare_for_coarsening_and_refinementERKS2_ = comdat any

$_ZNK6dealii16SolutionTransferILi3ENS_6VectorIfEENS_2hp10DoFHandlerILi3ELi3EEEE18refine_interpolateERKS2_RS2_ = comdat any

$_ZNK6dealii16SolutionTransferILi3ENS_6VectorIfEENS_2hp10DoFHandlerILi3ELi3EEEE11interpolateERKSt6vectorIS2_SaIS2_EERS9_ = comdat any

$_ZNK6dealii16SolutionTransferILi3ENS_6VectorIfEENS_2hp10DoFHandlerILi3ELi3EEEE11interpolateERKS2_RS2_ = comdat any

$_ZNK6dealii16SolutionTransferILi3ENS_6VectorIfEENS_2hp10DoFHandlerILi3ELi3EEEE18memory_consumptionEv = comdat any

$_ZN6dealii16SolutionTransferILi3ENS_6VectorIfEENS_2hp10DoFHandlerILi3ELi3EEEE18ExcWrongVectorSizeC5Eii = comdat any

$_ZN6dealii16SolutionTransferILi3ENS_6VectorIfEENS_2hp10DoFHandlerILi3ELi3EEEE18ExcWrongVectorSizeD5Ev = comdat any

$_ZNK6dealii16SolutionTransferILi3ENS_6VectorIfEENS_2hp10DoFHandlerILi3ELi3EEEE18ExcWrongVectorSize10print_infoERSo = comdat any

$_ZN6dealii16SolutionTransferILi3ENS_6VectorIfEENS_2hp10DoFHandlerILi3ELi3EEEE13PointerstructC5Ev = comdat any

$_ZNK6dealii16SolutionTransferILi3ENS_6VectorIfEENS_2hp10DoFHandlerILi3ELi3EEEE13Pointerstruct18memory_consumptionEv = comdat any

$_ZN6dealii16SolutionTransferILi3ENS_6VectorIdEENS_2hp10DoFHandlerILi3ELi3EEEEC5ERKS5_ = comdat any

$_ZN6dealii16SolutionTransferILi3ENS_6VectorIdEENS_2hp10DoFHandlerILi3ELi3EEEED5Ev = comdat any

$_ZN6dealii16SolutionTransferILi3ENS_6VectorIdEENS_2hp10DoFHandlerILi3ELi3EEEE5clearEv = comdat any

$_ZN6dealii16SolutionTransferILi3ENS_6VectorIdEENS_2hp10DoFHandlerILi3ELi3EEEE27prepare_for_pure_refinementEv = comdat any

$_ZNSt3mapISt4pairIjjEN6dealii16SolutionTransferILi3ENS2_6VectorIdEENS2_2hp10DoFHandlerILi3ELi3EEEE13PointerstructESt4lessIS1_ESaIS0_IKS1_SA_EEEixERSD_ = comdat any

$_ZN6dealii16SolutionTransferILi3ENS_6VectorIdEENS_2hp10DoFHandlerILi3ELi3EEEE37prepare_for_coarsening_and_refinementERKSt6vectorIS2_SaIS2_EE = comdat any

$_ZN6dealii16SolutionTransferILi3ENS_6VectorIdEENS_2hp10DoFHandlerILi3ELi3EEEE37prepare_for_coarsening_and_refinementERKS2_ = comdat any

$_ZNK6dealii16SolutionTransferILi3ENS_6VectorIdEENS_2hp10DoFHandlerILi3ELi3EEEE18refine_interpolateERKS2_RS2_ = comdat any

$_ZNK6dealii16SolutionTransferILi3ENS_6VectorIdEENS_2hp10DoFHandlerILi3ELi3EEEE11interpolateERKSt6vectorIS2_SaIS2_EERS9_ = comdat any

$_ZNK6dealii16SolutionTransferILi3ENS_6VectorIdEENS_2hp10DoFHandlerILi3ELi3EEEE11interpolateERKS2_RS2_ = comdat any

$_ZNK6dealii16SolutionTransferILi3ENS_6VectorIdEENS_2hp10DoFHandlerILi3ELi3EEEE18memory_consumptionEv = comdat any

$_ZN6dealii16SolutionTransferILi3ENS_6VectorIdEENS_2hp10DoFHandlerILi3ELi3EEEE18ExcWrongVectorSizeC5Eii = comdat any

$_ZN6dealii16SolutionTransferILi3ENS_6VectorIdEENS_2hp10DoFHandlerILi3ELi3EEEE18ExcWrongVectorSizeD5Ev = comdat any

$_ZNK6dealii16SolutionTransferILi3ENS_6VectorIdEENS_2hp10DoFHandlerILi3ELi3EEEE18ExcWrongVectorSize10print_infoERSo = comdat any

$_ZN6dealii16SolutionTransferILi3ENS_6VectorIdEENS_2hp10DoFHandlerILi3ELi3EEEE13PointerstructC5Ev = comdat any

$_ZNK6dealii16SolutionTransferILi3ENS_6VectorIdEENS_2hp10DoFHandlerILi3ELi3EEEE13Pointerstruct18memory_consumptionEv = comdat any

$_ZN6dealii16SolutionTransferILi3ENS_11BlockVectorIfEENS_10DoFHandlerILi3ELi3EEEEC5ERKS4_ = comdat any

$_ZN6dealii16SolutionTransferILi3ENS_11BlockVectorIfEENS_10DoFHandlerILi3ELi3EEEED5Ev = comdat any

$_ZN6dealii16SolutionTransferILi3ENS_11BlockVectorIfEENS_10DoFHandlerILi3ELi3EEEE5clearEv = comdat any

$_ZN6dealii16SolutionTransferILi3ENS_11BlockVectorIfEENS_10DoFHandlerILi3ELi3EEEE27prepare_for_pure_refinementEv = comdat any

$_ZNSt3mapISt4pairIjjEN6dealii16SolutionTransferILi3ENS2_11BlockVectorIfEENS2_10DoFHandlerILi3ELi3EEEE13PointerstructESt4lessIS1_ESaIS0_IKS1_S9_EEEixERSC_ = comdat any

$_ZN6dealii16SolutionTransferILi3ENS_11BlockVectorIfEENS_10DoFHandlerILi3ELi3EEEE37prepare_for_coarsening_and_refinementERKSt6vectorIS2_SaIS2_EE = comdat any

$_ZN6dealii16SolutionTransferILi3ENS_11BlockVectorIfEENS_10DoFHandlerILi3ELi3EEEE37prepare_for_coarsening_and_refinementERKS2_ = comdat any

$_ZNSt6vectorIN6dealii11BlockVectorIfEESaIS2_EEC2EmRKS2_RKS3_ = comdat any

$_ZNSt6vectorIN6dealii11BlockVectorIfEESaIS2_EED2Ev = comdat any

$_ZNK6dealii16SolutionTransferILi3ENS_11BlockVectorIfEENS_10DoFHandlerILi3ELi3EEEE18refine_interpolateERKS2_RS2_ = comdat any

$_ZNK6dealii16SolutionTransferILi3ENS_11BlockVectorIfEENS_10DoFHandlerILi3ELi3EEEE11interpolateERKSt6vectorIS2_SaIS2_EERS8_ = comdat any

$_ZNK6dealii16SolutionTransferILi3ENS_11BlockVectorIfEENS_10DoFHandlerILi3ELi3EEEE11interpolateERKS2_RS2_ = comdat any

$_ZNK6dealii16SolutionTransferILi3ENS_11BlockVectorIfEENS_10DoFHandlerILi3ELi3EEEE18memory_consumptionEv = comdat any

$_ZN6dealii16SolutionTransferILi3ENS_11BlockVectorIfEENS_10DoFHandlerILi3ELi3EEEE18ExcWrongVectorSizeC5Eii = comdat any

$_ZN6dealii16SolutionTransferILi3ENS_11BlockVectorIfEENS_10DoFHandlerILi3ELi3EEEE18ExcWrongVectorSizeD5Ev = comdat any

$_ZNK6dealii16SolutionTransferILi3ENS_11BlockVectorIfEENS_10DoFHandlerILi3ELi3EEEE18ExcWrongVectorSize10print_infoERSo = comdat any

$_ZN6dealii16SolutionTransferILi3ENS_11BlockVectorIfEENS_10DoFHandlerILi3ELi3EEEE13PointerstructC5Ev = comdat any

$_ZNK6dealii16SolutionTransferILi3ENS_11BlockVectorIfEENS_10DoFHandlerILi3ELi3EEEE13Pointerstruct18memory_consumptionEv = comdat any

$_ZN6dealii16SolutionTransferILi3ENS_11BlockVectorIdEENS_10DoFHandlerILi3ELi3EEEEC5ERKS4_ = comdat any

$_ZN6dealii16SolutionTransferILi3ENS_11BlockVectorIdEENS_10DoFHandlerILi3ELi3EEEED5Ev = comdat any

$_ZN6dealii16SolutionTransferILi3ENS_11BlockVectorIdEENS_10DoFHandlerILi3ELi3EEEE5clearEv = comdat any

$_ZN6dealii16SolutionTransferILi3ENS_11BlockVectorIdEENS_10DoFHandlerILi3ELi3EEEE27prepare_for_pure_refinementEv = comdat any

$_ZNSt3mapISt4pairIjjEN6dealii16SolutionTransferILi3ENS2_11BlockVectorIdEENS2_10DoFHandlerILi3ELi3EEEE13PointerstructESt4lessIS1_ESaIS0_IKS1_S9_EEEixERSC_ = comdat any

$_ZN6dealii16SolutionTransferILi3ENS_11BlockVectorIdEENS_10DoFHandlerILi3ELi3EEEE37prepare_for_coarsening_and_refinementERKSt6vectorIS2_SaIS2_EE = comdat any

$_ZN6dealii16SolutionTransferILi3ENS_11BlockVectorIdEENS_10DoFHandlerILi3ELi3EEEE37prepare_for_coarsening_and_refinementERKS2_ = comdat any

$_ZNSt6vectorIN6dealii11BlockVectorIdEESaIS2_EEC2EmRKS2_RKS3_ = comdat any

$_ZNSt6vectorIN6dealii11BlockVectorIdEESaIS2_EED2Ev = comdat any

$_ZNK6dealii16SolutionTransferILi3ENS_11BlockVectorIdEENS_10DoFHandlerILi3ELi3EEEE18refine_interpolateERKS2_RS2_ = comdat any

$_ZNK6dealii16SolutionTransferILi3ENS_11BlockVectorIdEENS_10DoFHandlerILi3ELi3EEEE11interpolateERKSt6vectorIS2_SaIS2_EERS8_ = comdat any

$_ZNK6dealii16SolutionTransferILi3ENS_11BlockVectorIdEENS_10DoFHandlerILi3ELi3EEEE11interpolateERKS2_RS2_ = comdat any

$_ZNK6dealii16SolutionTransferILi3ENS_11BlockVectorIdEENS_10DoFHandlerILi3ELi3EEEE18memory_consumptionEv = comdat any

$_ZN6dealii16SolutionTransferILi3ENS_11BlockVectorIdEENS_10DoFHandlerILi3ELi3EEEE18ExcWrongVectorSizeC5Eii = comdat any

$_ZN6dealii16SolutionTransferILi3ENS_11BlockVectorIdEENS_10DoFHandlerILi3ELi3EEEE18ExcWrongVectorSizeD5Ev = comdat any

$_ZNK6dealii16SolutionTransferILi3ENS_11BlockVectorIdEENS_10DoFHandlerILi3ELi3EEEE18ExcWrongVectorSize10print_infoERSo = comdat any

$_ZN6dealii16SolutionTransferILi3ENS_11BlockVectorIdEENS_10DoFHandlerILi3ELi3EEEE13PointerstructC5Ev = comdat any

$_ZNK6dealii16SolutionTransferILi3ENS_11BlockVectorIdEENS_10DoFHandlerILi3ELi3EEEE13Pointerstruct18memory_consumptionEv = comdat any

$_ZN6dealii16SolutionTransferILi3ENS_11BlockVectorIfEENS_2hp10DoFHandlerILi3ELi3EEEEC5ERKS5_ = comdat any

$_ZN6dealii16SolutionTransferILi3ENS_11BlockVectorIfEENS_2hp10DoFHandlerILi3ELi3EEEED5Ev = comdat any

$_ZN6dealii16SolutionTransferILi3ENS_11BlockVectorIfEENS_2hp10DoFHandlerILi3ELi3EEEE5clearEv = comdat any

$_ZN6dealii16SolutionTransferILi3ENS_11BlockVectorIfEENS_2hp10DoFHandlerILi3ELi3EEEE27prepare_for_pure_refinementEv = comdat any

$_ZNSt3mapISt4pairIjjEN6dealii16SolutionTransferILi3ENS2_11BlockVectorIfEENS2_2hp10DoFHandlerILi3ELi3EEEE13PointerstructESt4lessIS1_ESaIS0_IKS1_SA_EEEixERSD_ = comdat any

$_ZN6dealii16SolutionTransferILi3ENS_11BlockVectorIfEENS_2hp10DoFHandlerILi3ELi3EEEE37prepare_for_coarsening_and_refinementERKSt6vectorIS2_SaIS2_EE = comdat any

$_ZN6dealii16SolutionTransferILi3ENS_11BlockVectorIfEENS_2hp10DoFHandlerILi3ELi3EEEE37prepare_for_coarsening_and_refinementERKS2_ = comdat any

$_ZNK6dealii16SolutionTransferILi3ENS_11BlockVectorIfEENS_2hp10DoFHandlerILi3ELi3EEEE18refine_interpolateERKS2_RS2_ = comdat any

$_ZNK6dealii16SolutionTransferILi3ENS_11BlockVectorIfEENS_2hp10DoFHandlerILi3ELi3EEEE11interpolateERKSt6vectorIS2_SaIS2_EERS9_ = comdat any

$_ZNK6dealii16SolutionTransferILi3ENS_11BlockVectorIfEENS_2hp10DoFHandlerILi3ELi3EEEE11interpolateERKS2_RS2_ = comdat any

$_ZNK6dealii16SolutionTransferILi3ENS_11BlockVectorIfEENS_2hp10DoFHandlerILi3ELi3EEEE18memory_consumptionEv = comdat any

$_ZN6dealii16SolutionTransferILi3ENS_11BlockVectorIfEENS_2hp10DoFHandlerILi3ELi3EEEE18ExcWrongVectorSizeC5Eii = comdat any

$_ZN6dealii16SolutionTransferILi3ENS_11BlockVectorIfEENS_2hp10DoFHandlerILi3ELi3EEEE18ExcWrongVectorSizeD5Ev = comdat any

$_ZNK6dealii16SolutionTransferILi3ENS_11BlockVectorIfEENS_2hp10DoFHandlerILi3ELi3EEEE18ExcWrongVectorSize10print_infoERSo = comdat any

$_ZN6dealii16SolutionTransferILi3ENS_11BlockVectorIfEENS_2hp10DoFHandlerILi3ELi3EEEE13PointerstructC5Ev = comdat any

$_ZNK6dealii16SolutionTransferILi3ENS_11BlockVectorIfEENS_2hp10DoFHandlerILi3ELi3EEEE13Pointerstruct18memory_consumptionEv = comdat any

$_ZN6dealii16SolutionTransferILi3ENS_11BlockVectorIdEENS_2hp10DoFHandlerILi3ELi3EEEEC5ERKS5_ = comdat any

$_ZN6dealii16SolutionTransferILi3ENS_11BlockVectorIdEENS_2hp10DoFHandlerILi3ELi3EEEED5Ev = comdat any

$_ZN6dealii16SolutionTransferILi3ENS_11BlockVectorIdEENS_2hp10DoFHandlerILi3ELi3EEEE5clearEv = comdat any

$_ZN6dealii16SolutionTransferILi3ENS_11BlockVectorIdEENS_2hp10DoFHandlerILi3ELi3EEEE27prepare_for_pure_refinementEv = comdat any

$_ZNSt3mapISt4pairIjjEN6dealii16SolutionTransferILi3ENS2_11BlockVectorIdEENS2_2hp10DoFHandlerILi3ELi3EEEE13PointerstructESt4lessIS1_ESaIS0_IKS1_SA_EEEixERSD_ = comdat any

$_ZN6dealii16SolutionTransferILi3ENS_11BlockVectorIdEENS_2hp10DoFHandlerILi3ELi3EEEE37prepare_for_coarsening_and_refinementERKSt6vectorIS2_SaIS2_EE = comdat any

$_ZN6dealii16SolutionTransferILi3ENS_11BlockVectorIdEENS_2hp10DoFHandlerILi3ELi3EEEE37prepare_for_coarsening_and_refinementERKS2_ = comdat any

$_ZNK6dealii16SolutionTransferILi3ENS_11BlockVectorIdEENS_2hp10DoFHandlerILi3ELi3EEEE18refine_interpolateERKS2_RS2_ = comdat any

$_ZNK6dealii16SolutionTransferILi3ENS_11BlockVectorIdEENS_2hp10DoFHandlerILi3ELi3EEEE11interpolateERKSt6vectorIS2_SaIS2_EERS9_ = comdat any

$_ZNK6dealii16SolutionTransferILi3ENS_11BlockVectorIdEENS_2hp10DoFHandlerILi3ELi3EEEE11interpolateERKS2_RS2_ = comdat any

$_ZNK6dealii16SolutionTransferILi3ENS_11BlockVectorIdEENS_2hp10DoFHandlerILi3ELi3EEEE18memory_consumptionEv = comdat any

$_ZN6dealii16SolutionTransferILi3ENS_11BlockVectorIdEENS_2hp10DoFHandlerILi3ELi3EEEE18ExcWrongVectorSizeC5Eii = comdat any

$_ZN6dealii16SolutionTransferILi3ENS_11BlockVectorIdEENS_2hp10DoFHandlerILi3ELi3EEEE18ExcWrongVectorSizeD5Ev = comdat any

$_ZNK6dealii16SolutionTransferILi3ENS_11BlockVectorIdEENS_2hp10DoFHandlerILi3ELi3EEEE18ExcWrongVectorSize10print_infoERSo = comdat any

$_ZN6dealii16SolutionTransferILi3ENS_11BlockVectorIdEENS_2hp10DoFHandlerILi3ELi3EEEE13PointerstructC5Ev = comdat any

$_ZNK6dealii16SolutionTransferILi3ENS_11BlockVectorIdEENS_2hp10DoFHandlerILi3ELi3EEEE13Pointerstruct18memory_consumptionEv = comdat any

$_ZN6dealii16SolutionTransferILi3ENS_6VectorIfEENS_10DoFHandlerILi3ELi3EEEE14ExcNotPreparedD0Ev = comdat any

$_ZN6dealii16SolutionTransferILi3ENS_6VectorIfEENS_10DoFHandlerILi3ELi3EEEE20ExcAlreadyPrepForRefD0Ev = comdat any

$_ZN6dealii16SolutionTransferILi3ENS_6VectorIfEENS_10DoFHandlerILi3ELi3EEEE29ExcAlreadyPrepForCoarseAndRefD0Ev = comdat any

$_ZN6dealii16SolutionTransferILi3ENS_6VectorIfEENS_10DoFHandlerILi3ELi3EEEE36ExcTriaPrepCoarseningNotCalledBeforeD0Ev = comdat any

$_ZN6dealii16SolutionTransferILi3ENS_6VectorIfEENS_10DoFHandlerILi3ELi3EEEE19ExcNoInVectorsGivenD0Ev = comdat any

$_ZN6dealii16SolutionTransferILi3ENS_6VectorIfEENS_10DoFHandlerILi3ELi3EEEE29ExcVectorsDifferFromInVectorsD0Ev = comdat any

$_ZN6dealii16SolutionTransferILi3ENS_6VectorIfEENS_10DoFHandlerILi3ELi3EEEE32ExcNumberOfDoFsPerCellHasChangedD0Ev = comdat any

$_ZN6dealii16SolutionTransferILi3ENS_6VectorIdEENS_10DoFHandlerILi3ELi3EEEE14ExcNotPreparedD0Ev = comdat any

$_ZN6dealii16SolutionTransferILi3ENS_6VectorIdEENS_10DoFHandlerILi3ELi3EEEE20ExcAlreadyPrepForRefD0Ev = comdat any

$_ZN6dealii16SolutionTransferILi3ENS_6VectorIdEENS_10DoFHandlerILi3ELi3EEEE29ExcAlreadyPrepForCoarseAndRefD0Ev = comdat any

$_ZN6dealii16SolutionTransferILi3ENS_6VectorIdEENS_10DoFHandlerILi3ELi3EEEE36ExcTriaPrepCoarseningNotCalledBeforeD0Ev = comdat any

$_ZN6dealii16SolutionTransferILi3ENS_6VectorIdEENS_10DoFHandlerILi3ELi3EEEE19ExcNoInVectorsGivenD0Ev = comdat any

$_ZN6dealii16SolutionTransferILi3ENS_6VectorIdEENS_10DoFHandlerILi3ELi3EEEE29ExcVectorsDifferFromInVectorsD0Ev = comdat any

$_ZN6dealii16SolutionTransferILi3ENS_6VectorIdEENS_10DoFHandlerILi3ELi3EEEE32ExcNumberOfDoFsPerCellHasChangedD0Ev = comdat any

$_ZN6dealii16SolutionTransferILi3ENS_6VectorIfEENS_2hp10DoFHandlerILi3ELi3EEEE14ExcNotPreparedD0Ev = comdat any

$_ZN6dealii16SolutionTransferILi3ENS_6VectorIfEENS_2hp10DoFHandlerILi3ELi3EEEE20ExcAlreadyPrepForRefD0Ev = comdat any

$_ZN6dealii16SolutionTransferILi3ENS_6VectorIfEENS_2hp10DoFHandlerILi3ELi3EEEE29ExcAlreadyPrepForCoarseAndRefD0Ev = comdat any

$_ZN6dealii16SolutionTransferILi3ENS_6VectorIfEENS_2hp10DoFHandlerILi3ELi3EEEE36ExcTriaPrepCoarseningNotCalledBeforeD0Ev = comdat any

$_ZN6dealii16SolutionTransferILi3ENS_6VectorIfEENS_2hp10DoFHandlerILi3ELi3EEEE19ExcNoInVectorsGivenD0Ev = comdat any

$_ZN6dealii16SolutionTransferILi3ENS_6VectorIfEENS_2hp10DoFHandlerILi3ELi3EEEE29ExcVectorsDifferFromInVectorsD0Ev = comdat any

$_ZN6dealii16SolutionTransferILi3ENS_6VectorIfEENS_2hp10DoFHandlerILi3ELi3EEEE32ExcNumberOfDoFsPerCellHasChangedD0Ev = comdat any

$_ZN6dealii16SolutionTransferILi3ENS_6VectorIdEENS_2hp10DoFHandlerILi3ELi3EEEE14ExcNotPreparedD0Ev = comdat any

$_ZN6dealii16SolutionTransferILi3ENS_6VectorIdEENS_2hp10DoFHandlerILi3ELi3EEEE20ExcAlreadyPrepForRefD0Ev = comdat any

$_ZN6dealii16SolutionTransferILi3ENS_6VectorIdEENS_2hp10DoFHandlerILi3ELi3EEEE29ExcAlreadyPrepForCoarseAndRefD0Ev = comdat any

$_ZN6dealii16SolutionTransferILi3ENS_6VectorIdEENS_2hp10DoFHandlerILi3ELi3EEEE36ExcTriaPrepCoarseningNotCalledBeforeD0Ev = comdat any

$_ZN6dealii16SolutionTransferILi3ENS_6VectorIdEENS_2hp10DoFHandlerILi3ELi3EEEE19ExcNoInVectorsGivenD0Ev = comdat any

$_ZN6dealii16SolutionTransferILi3ENS_6VectorIdEENS_2hp10DoFHandlerILi3ELi3EEEE29ExcVectorsDifferFromInVectorsD0Ev = comdat any

$_ZN6dealii16SolutionTransferILi3ENS_6VectorIdEENS_2hp10DoFHandlerILi3ELi3EEEE32ExcNumberOfDoFsPerCellHasChangedD0Ev = comdat any

$_ZN6dealii16SolutionTransferILi3ENS_11BlockVectorIfEENS_10DoFHandlerILi3ELi3EEEE14ExcNotPreparedD0Ev = comdat any

$_ZN6dealii16SolutionTransferILi3ENS_11BlockVectorIfEENS_10DoFHandlerILi3ELi3EEEE20ExcAlreadyPrepForRefD0Ev = comdat any

$_ZN6dealii16SolutionTransferILi3ENS_11BlockVectorIfEENS_10DoFHandlerILi3ELi3EEEE29ExcAlreadyPrepForCoarseAndRefD0Ev = comdat any

$_ZN6dealii16SolutionTransferILi3ENS_11BlockVectorIfEENS_10DoFHandlerILi3ELi3EEEE36ExcTriaPrepCoarseningNotCalledBeforeD0Ev = comdat any

$_ZN6dealii16SolutionTransferILi3ENS_11BlockVectorIfEENS_10DoFHandlerILi3ELi3EEEE19ExcNoInVectorsGivenD0Ev = comdat any

$_ZN6dealii16SolutionTransferILi3ENS_11BlockVectorIfEENS_10DoFHandlerILi3ELi3EEEE29ExcVectorsDifferFromInVectorsD0Ev = comdat any

$_ZN6dealii16SolutionTransferILi3ENS_11BlockVectorIfEENS_10DoFHandlerILi3ELi3EEEE32ExcNumberOfDoFsPerCellHasChangedD0Ev = comdat any

$_ZN6dealii16SolutionTransferILi3ENS_11BlockVectorIdEENS_10DoFHandlerILi3ELi3EEEE14ExcNotPreparedD0Ev = comdat any

$_ZN6dealii16SolutionTransferILi3ENS_11BlockVectorIdEENS_10DoFHandlerILi3ELi3EEEE20ExcAlreadyPrepForRefD0Ev = comdat any

$_ZN6dealii16SolutionTransferILi3ENS_11BlockVectorIdEENS_10DoFHandlerILi3ELi3EEEE29ExcAlreadyPrepForCoarseAndRefD0Ev = comdat any

$_ZN6dealii16SolutionTransferILi3ENS_11BlockVectorIdEENS_10DoFHandlerILi3ELi3EEEE36ExcTriaPrepCoarseningNotCalledBeforeD0Ev = comdat any

$_ZN6dealii16SolutionTransferILi3ENS_11BlockVectorIdEENS_10DoFHandlerILi3ELi3EEEE19ExcNoInVectorsGivenD0Ev = comdat any

$_ZN6dealii16SolutionTransferILi3ENS_11BlockVectorIdEENS_10DoFHandlerILi3ELi3EEEE29ExcVectorsDifferFromInVectorsD0Ev = comdat any

$_ZN6dealii16SolutionTransferILi3ENS_11BlockVectorIdEENS_10DoFHandlerILi3ELi3EEEE32ExcNumberOfDoFsPerCellHasChangedD0Ev = comdat any

$_ZN6dealii16SolutionTransferILi3ENS_11BlockVectorIfEENS_2hp10DoFHandlerILi3ELi3EEEE14ExcNotPreparedD0Ev = comdat any

$_ZN6dealii16SolutionTransferILi3ENS_11BlockVectorIfEENS_2hp10DoFHandlerILi3ELi3EEEE20ExcAlreadyPrepForRefD0Ev = comdat any

$_ZN6dealii16SolutionTransferILi3ENS_11BlockVectorIfEENS_2hp10DoFHandlerILi3ELi3EEEE29ExcAlreadyPrepForCoarseAndRefD0Ev = comdat any

$_ZN6dealii16SolutionTransferILi3ENS_11BlockVectorIfEENS_2hp10DoFHandlerILi3ELi3EEEE36ExcTriaPrepCoarseningNotCalledBeforeD0Ev = comdat any

$_ZN6dealii16SolutionTransferILi3ENS_11BlockVectorIfEENS_2hp10DoFHandlerILi3ELi3EEEE19ExcNoInVectorsGivenD0Ev = comdat any

$_ZN6dealii16SolutionTransferILi3ENS_11BlockVectorIfEENS_2hp10DoFHandlerILi3ELi3EEEE29ExcVectorsDifferFromInVectorsD0Ev = comdat any

$_ZN6dealii16SolutionTransferILi3ENS_11BlockVectorIfEENS_2hp10DoFHandlerILi3ELi3EEEE32ExcNumberOfDoFsPerCellHasChangedD0Ev = comdat any

$_ZN6dealii16SolutionTransferILi3ENS_11BlockVectorIdEENS_2hp10DoFHandlerILi3ELi3EEEE14ExcNotPreparedD0Ev = comdat any

$_ZN6dealii16SolutionTransferILi3ENS_11BlockVectorIdEENS_2hp10DoFHandlerILi3ELi3EEEE20ExcAlreadyPrepForRefD0Ev = comdat any

$_ZN6dealii16SolutionTransferILi3ENS_11BlockVectorIdEENS_2hp10DoFHandlerILi3ELi3EEEE29ExcAlreadyPrepForCoarseAndRefD0Ev = comdat any

$_ZN6dealii16SolutionTransferILi3ENS_11BlockVectorIdEENS_2hp10DoFHandlerILi3ELi3EEEE36ExcTriaPrepCoarseningNotCalledBeforeD0Ev = comdat any

$_ZN6dealii16SolutionTransferILi3ENS_11BlockVectorIdEENS_2hp10DoFHandlerILi3ELi3EEEE19ExcNoInVectorsGivenD0Ev = comdat any

$_ZN6dealii16SolutionTransferILi3ENS_11BlockVectorIdEENS_2hp10DoFHandlerILi3ELi3EEEE29ExcVectorsDifferFromInVectorsD0Ev = comdat any

$_ZN6dealii16SolutionTransferILi3ENS_11BlockVectorIdEENS_2hp10DoFHandlerILi3ELi3EEEE32ExcNumberOfDoFsPerCellHasChangedD0Ev = comdat any

$_ZNSt8_Rb_treeISt4pairIjjES0_IKS1_N6dealii16SolutionTransferILi3ENS3_6VectorIfEENS3_10DoFHandlerILi3ELi3EEEE13PointerstructEESt10_Select1stISB_ESt4lessIS1_ESaISB_EE8_M_eraseEPSt13_Rb_tree_nodeISB_E = comdat any

$_ZNSt8_Rb_treeISt4pairIjjES0_IKS1_N6dealii16SolutionTransferILi3ENS3_6VectorIdEENS3_10DoFHandlerILi3ELi3EEEE13PointerstructEESt10_Select1stISB_ESt4lessIS1_ESaISB_EE8_M_eraseEPSt13_Rb_tree_nodeISB_E = comdat any

$_ZNSt8_Rb_treeISt4pairIjjES0_IKS1_N6dealii16SolutionTransferILi3ENS3_6VectorIfEENS3_2hp10DoFHandlerILi3ELi3EEEE13PointerstructEESt10_Select1stISC_ESt4lessIS1_ESaISC_EE8_M_eraseEPSt13_Rb_tree_nodeISC_E = comdat any

$_ZNSt8_Rb_treeISt4pairIjjES0_IKS1_N6dealii16SolutionTransferILi3ENS3_6VectorIdEENS3_2hp10DoFHandlerILi3ELi3EEEE13PointerstructEESt10_Select1stISC_ESt4lessIS1_ESaISC_EE8_M_eraseEPSt13_Rb_tree_nodeISC_E = comdat any

$_ZNSt8_Rb_treeISt4pairIjjES0_IKS1_N6dealii16SolutionTransferILi3ENS3_11BlockVectorIfEENS3_10DoFHandlerILi3ELi3EEEE13PointerstructEESt10_Select1stISB_ESt4lessIS1_ESaISB_EE8_M_eraseEPSt13_Rb_tree_nodeISB_E = comdat any

$_ZNSt8_Rb_treeISt4pairIjjES0_IKS1_N6dealii16SolutionTransferILi3ENS3_11BlockVectorIdEENS3_10DoFHandlerILi3ELi3EEEE13PointerstructEESt10_Select1stISB_ESt4lessIS1_ESaISB_EE8_M_eraseEPSt13_Rb_tree_nodeISB_E = comdat any

$_ZNSt8_Rb_treeISt4pairIjjES0_IKS1_N6dealii16SolutionTransferILi3ENS3_11BlockVectorIfEENS3_2hp10DoFHandlerILi3ELi3EEEE13PointerstructEESt10_Select1stISC_ESt4lessIS1_ESaISC_EE8_M_eraseEPSt13_Rb_tree_nodeISC_E = comdat any

$_ZNSt8_Rb_treeISt4pairIjjES0_IKS1_N6dealii16SolutionTransferILi3ENS3_11BlockVectorIdEENS3_2hp10DoFHandlerILi3ELi3EEEE13PointerstructEESt10_Select1stISC_ESt4lessIS1_ESaISC_EE8_M_eraseEPSt13_Rb_tree_nodeISC_E = comdat any

$_ZNSt6vectorIjSaIjEE14_M_fill_insertEN9__gnu_cxx17__normal_iteratorIPjS1_EEmRKj = comdat any

$_ZSt18__do_uninit_fill_nIPSt6vectorIjSaIjEEmS2_ET_S4_T0_RKT1_ = comdat any

$_ZNSt8_Rb_treeISt4pairIjjES0_IKS1_N6dealii16SolutionTransferILi3ENS3_6VectorIfEENS3_10DoFHandlerILi3ELi3EEEE13PointerstructEESt10_Select1stISB_ESt4lessIS1_ESaISB_EE29_M_get_insert_hint_unique_posESt23_Rb_tree_const_iteratorISB_ERS2_ = comdat any

$_ZN6dealii6VectorIfED0Ev = comdat any

$_ZN6dealii6VectorIfE4swapERS1_ = comdat any

$_ZNSt22__uninitialized_fill_nILb0EE15__uninit_fill_nIPSt6vectorIN6dealii6VectorIfEESaIS5_EEmS7_EET_S9_T0_RKT1_ = comdat any

$_ZNSt6vectorIN6dealii6VectorIfEESaIS2_EEC2ERKS4_ = comdat any

$_ZNSt8_Rb_treeISt4pairIjjES0_IKS1_N6dealii16SolutionTransferILi3ENS3_6VectorIdEENS3_10DoFHandlerILi3ELi3EEEE13PointerstructEESt10_Select1stISB_ESt4lessIS1_ESaISB_EE29_M_get_insert_hint_unique_posESt23_Rb_tree_const_iteratorISB_ERS2_ = comdat any

$_ZN6dealii6VectorIdED0Ev = comdat any

$_ZN6dealii6VectorIdE4swapERS1_ = comdat any

$_ZNSt22__uninitialized_fill_nILb0EE15__uninit_fill_nIPSt6vectorIN6dealii6VectorIdEESaIS5_EEmS7_EET_S9_T0_RKT1_ = comdat any

$_ZNSt6vectorIN6dealii6VectorIdEESaIS2_EEC2ERKS4_ = comdat any

$_ZN6dealii8internal11DoFAccessor15get_dof_indicesINS_2hp10DoFHandlerILi3ELi3EEEEEvRKNS_11DoFAccessorILi3ET_EERSt6vectorIjSaIjEEj = comdat any

$_ZNSt8_Rb_treeISt4pairIjjES0_IKS1_N6dealii16SolutionTransferILi3ENS3_6VectorIfEENS3_2hp10DoFHandlerILi3ELi3EEEE13PointerstructEESt10_Select1stISC_ESt4lessIS1_ESaISC_EE29_M_get_insert_hint_unique_posESt23_Rb_tree_const_iteratorISC_ERS2_ = comdat any

$_ZNSt8_Rb_treeISt4pairIjjES0_IKS1_N6dealii16SolutionTransferILi3ENS3_6VectorIdEENS3_2hp10DoFHandlerILi3ELi3EEEE13PointerstructEESt10_Select1stISC_ESt4lessIS1_ESaISC_EE29_M_get_insert_hint_unique_posESt23_Rb_tree_const_iteratorISC_ERS2_ = comdat any

$_ZNSt8_Rb_treeISt4pairIjjES0_IKS1_N6dealii16SolutionTransferILi3ENS3_11BlockVectorIfEENS3_10DoFHandlerILi3ELi3EEEE13PointerstructEESt10_Select1stISB_ESt4lessIS1_ESaISB_EE29_M_get_insert_hint_unique_posESt23_Rb_tree_const_iteratorISB_ERS2_ = comdat any

$_ZNSt8_Rb_treeISt4pairIjjES0_IKS1_N6dealii16SolutionTransferILi3ENS3_11BlockVectorIdEENS3_10DoFHandlerILi3ELi3EEEE13PointerstructEESt10_Select1stISB_ESt4lessIS1_ESaISB_EE29_M_get_insert_hint_unique_posESt23_Rb_tree_const_iteratorISB_ERS2_ = comdat any

$_ZNSt8_Rb_treeISt4pairIjjES0_IKS1_N6dealii16SolutionTransferILi3ENS3_11BlockVectorIfEENS3_2hp10DoFHandlerILi3ELi3EEEE13PointerstructEESt10_Select1stISC_ESt4lessIS1_ESaISC_EE29_M_get_insert_hint_unique_posESt23_Rb_tree_const_iteratorISC_ERS2_ = comdat any

$_ZNSt8_Rb_treeISt4pairIjjES0_IKS1_N6dealii16SolutionTransferILi3ENS3_11BlockVectorIdEENS3_2hp10DoFHandlerILi3ELi3EEEE13PointerstructEESt10_Select1stISC_ESt4lessIS1_ESaISC_EE29_M_get_insert_hint_unique_posESt23_Rb_tree_const_iteratorISC_ERS2_ = comdat any

$_ZTVN6dealii16SolutionTransferILi3ENS_6VectorIfEENS_10DoFHandlerILi3ELi3EEEE18ExcWrongVectorSizeE = comdat any

$_ZTVN6dealii16SolutionTransferILi3ENS_6VectorIdEENS_10DoFHandlerILi3ELi3EEEE18ExcWrongVectorSizeE = comdat any

$_ZTVN6dealii16SolutionTransferILi3ENS_6VectorIfEENS_2hp10DoFHandlerILi3ELi3EEEE18ExcWrongVectorSizeE = comdat any

$_ZTVN6dealii16SolutionTransferILi3ENS_6VectorIdEENS_2hp10DoFHandlerILi3ELi3EEEE18ExcWrongVectorSizeE = comdat any

$_ZTVN6dealii16SolutionTransferILi3ENS_11BlockVectorIfEENS_10DoFHandlerILi3ELi3EEEE18ExcWrongVectorSizeE = comdat any

$_ZTVN6dealii16SolutionTransferILi3ENS_11BlockVectorIdEENS_10DoFHandlerILi3ELi3EEEE18ExcWrongVectorSizeE = comdat any

$_ZTVN6dealii16SolutionTransferILi3ENS_11BlockVectorIfEENS_2hp10DoFHandlerILi3ELi3EEEE18ExcWrongVectorSizeE = comdat any

$_ZTVN6dealii16SolutionTransferILi3ENS_11BlockVectorIdEENS_2hp10DoFHandlerILi3ELi3EEEE18ExcWrongVectorSizeE = comdat any

$_ZTVN6dealii16SolutionTransferILi3ENS_6VectorIfEENS_10DoFHandlerILi3ELi3EEEE14ExcNotPreparedE = comdat any

$_ZTSN6dealii16SolutionTransferILi3ENS_6VectorIfEENS_10DoFHandlerILi3ELi3EEEE14ExcNotPreparedE = comdat any

$_ZTIN6dealii16SolutionTransferILi3ENS_6VectorIfEENS_10DoFHandlerILi3ELi3EEEE14ExcNotPreparedE = comdat any

$_ZTVN6dealii16SolutionTransferILi3ENS_6VectorIfEENS_10DoFHandlerILi3ELi3EEEE20ExcAlreadyPrepForRefE = comdat any

$_ZTSN6dealii16SolutionTransferILi3ENS_6VectorIfEENS_10DoFHandlerILi3ELi3EEEE20ExcAlreadyPrepForRefE = comdat any

$_ZTIN6dealii16SolutionTransferILi3ENS_6VectorIfEENS_10DoFHandlerILi3ELi3EEEE20ExcAlreadyPrepForRefE = comdat any

$_ZTVN6dealii16SolutionTransferILi3ENS_6VectorIfEENS_10DoFHandlerILi3ELi3EEEE29ExcAlreadyPrepForCoarseAndRefE = comdat any

$_ZTSN6dealii16SolutionTransferILi3ENS_6VectorIfEENS_10DoFHandlerILi3ELi3EEEE29ExcAlreadyPrepForCoarseAndRefE = comdat any

$_ZTIN6dealii16SolutionTransferILi3ENS_6VectorIfEENS_10DoFHandlerILi3ELi3EEEE29ExcAlreadyPrepForCoarseAndRefE = comdat any

$_ZTVN6dealii16SolutionTransferILi3ENS_6VectorIfEENS_10DoFHandlerILi3ELi3EEEE36ExcTriaPrepCoarseningNotCalledBeforeE = comdat any

$_ZTSN6dealii16SolutionTransferILi3ENS_6VectorIfEENS_10DoFHandlerILi3ELi3EEEE36ExcTriaPrepCoarseningNotCalledBeforeE = comdat any

$_ZTIN6dealii16SolutionTransferILi3ENS_6VectorIfEENS_10DoFHandlerILi3ELi3EEEE36ExcTriaPrepCoarseningNotCalledBeforeE = comdat any

$_ZTVN6dealii16SolutionTransferILi3ENS_6VectorIfEENS_10DoFHandlerILi3ELi3EEEE19ExcNoInVectorsGivenE = comdat any

$_ZTSN6dealii16SolutionTransferILi3ENS_6VectorIfEENS_10DoFHandlerILi3ELi3EEEE19ExcNoInVectorsGivenE = comdat any

$_ZTIN6dealii16SolutionTransferILi3ENS_6VectorIfEENS_10DoFHandlerILi3ELi3EEEE19ExcNoInVectorsGivenE = comdat any

$_ZTVN6dealii16SolutionTransferILi3ENS_6VectorIfEENS_10DoFHandlerILi3ELi3EEEE29ExcVectorsDifferFromInVectorsE = comdat any

$_ZTSN6dealii16SolutionTransferILi3ENS_6VectorIfEENS_10DoFHandlerILi3ELi3EEEE29ExcVectorsDifferFromInVectorsE = comdat any

$_ZTIN6dealii16SolutionTransferILi3ENS_6VectorIfEENS_10DoFHandlerILi3ELi3EEEE29ExcVectorsDifferFromInVectorsE = comdat any

$_ZTVN6dealii16SolutionTransferILi3ENS_6VectorIfEENS_10DoFHandlerILi3ELi3EEEE32ExcNumberOfDoFsPerCellHasChangedE = comdat any

$_ZTSN6dealii16SolutionTransferILi3ENS_6VectorIfEENS_10DoFHandlerILi3ELi3EEEE32ExcNumberOfDoFsPerCellHasChangedE = comdat any

$_ZTIN6dealii16SolutionTransferILi3ENS_6VectorIfEENS_10DoFHandlerILi3ELi3EEEE32ExcNumberOfDoFsPerCellHasChangedE = comdat any

$_ZTSN6dealii16SolutionTransferILi3ENS_6VectorIfEENS_10DoFHandlerILi3ELi3EEEE18ExcWrongVectorSizeE = comdat any

$_ZTIN6dealii16SolutionTransferILi3ENS_6VectorIfEENS_10DoFHandlerILi3ELi3EEEE18ExcWrongVectorSizeE = comdat any

$_ZTVN6dealii16SolutionTransferILi3ENS_6VectorIdEENS_10DoFHandlerILi3ELi3EEEE14ExcNotPreparedE = comdat any

$_ZTSN6dealii16SolutionTransferILi3ENS_6VectorIdEENS_10DoFHandlerILi3ELi3EEEE14ExcNotPreparedE = comdat any

$_ZTIN6dealii16SolutionTransferILi3ENS_6VectorIdEENS_10DoFHandlerILi3ELi3EEEE14ExcNotPreparedE = comdat any

$_ZTVN6dealii16SolutionTransferILi3ENS_6VectorIdEENS_10DoFHandlerILi3ELi3EEEE20ExcAlreadyPrepForRefE = comdat any

$_ZTSN6dealii16SolutionTransferILi3ENS_6VectorIdEENS_10DoFHandlerILi3ELi3EEEE20ExcAlreadyPrepForRefE = comdat any

$_ZTIN6dealii16SolutionTransferILi3ENS_6VectorIdEENS_10DoFHandlerILi3ELi3EEEE20ExcAlreadyPrepForRefE = comdat any

$_ZTVN6dealii16SolutionTransferILi3ENS_6VectorIdEENS_10DoFHandlerILi3ELi3EEEE29ExcAlreadyPrepForCoarseAndRefE = comdat any

$_ZTSN6dealii16SolutionTransferILi3ENS_6VectorIdEENS_10DoFHandlerILi3ELi3EEEE29ExcAlreadyPrepForCoarseAndRefE = comdat any

$_ZTIN6dealii16SolutionTransferILi3ENS_6VectorIdEENS_10DoFHandlerILi3ELi3EEEE29ExcAlreadyPrepForCoarseAndRefE = comdat any

$_ZTVN6dealii16SolutionTransferILi3ENS_6VectorIdEENS_10DoFHandlerILi3ELi3EEEE36ExcTriaPrepCoarseningNotCalledBeforeE = comdat any

$_ZTSN6dealii16SolutionTransferILi3ENS_6VectorIdEENS_10DoFHandlerILi3ELi3EEEE36ExcTriaPrepCoarseningNotCalledBeforeE = comdat any

$_ZTIN6dealii16SolutionTransferILi3ENS_6VectorIdEENS_10DoFHandlerILi3ELi3EEEE36ExcTriaPrepCoarseningNotCalledBeforeE = comdat any

$_ZTVN6dealii16SolutionTransferILi3ENS_6VectorIdEENS_10DoFHandlerILi3ELi3EEEE19ExcNoInVectorsGivenE = comdat any

$_ZTSN6dealii16SolutionTransferILi3ENS_6VectorIdEENS_10DoFHandlerILi3ELi3EEEE19ExcNoInVectorsGivenE = comdat any

$_ZTIN6dealii16SolutionTransferILi3ENS_6VectorIdEENS_10DoFHandlerILi3ELi3EEEE19ExcNoInVectorsGivenE = comdat any

$_ZTVN6dealii16SolutionTransferILi3ENS_6VectorIdEENS_10DoFHandlerILi3ELi3EEEE29ExcVectorsDifferFromInVectorsE = comdat any

$_ZTSN6dealii16SolutionTransferILi3ENS_6VectorIdEENS_10DoFHandlerILi3ELi3EEEE29ExcVectorsDifferFromInVectorsE = comdat any

$_ZTIN6dealii16SolutionTransferILi3ENS_6VectorIdEENS_10DoFHandlerILi3ELi3EEEE29ExcVectorsDifferFromInVectorsE = comdat any

$_ZTVN6dealii16SolutionTransferILi3ENS_6VectorIdEENS_10DoFHandlerILi3ELi3EEEE32ExcNumberOfDoFsPerCellHasChangedE = comdat any

$_ZTSN6dealii16SolutionTransferILi3ENS_6VectorIdEENS_10DoFHandlerILi3ELi3EEEE32ExcNumberOfDoFsPerCellHasChangedE = comdat any

$_ZTIN6dealii16SolutionTransferILi3ENS_6VectorIdEENS_10DoFHandlerILi3ELi3EEEE32ExcNumberOfDoFsPerCellHasChangedE = comdat any

$_ZTSN6dealii16SolutionTransferILi3ENS_6VectorIdEENS_10DoFHandlerILi3ELi3EEEE18ExcWrongVectorSizeE = comdat any

$_ZTIN6dealii16SolutionTransferILi3ENS_6VectorIdEENS_10DoFHandlerILi3ELi3EEEE18ExcWrongVectorSizeE = comdat any

$_ZTVN6dealii16SolutionTransferILi3ENS_6VectorIfEENS_2hp10DoFHandlerILi3ELi3EEEE14ExcNotPreparedE = comdat any

$_ZTSN6dealii16SolutionTransferILi3ENS_6VectorIfEENS_2hp10DoFHandlerILi3ELi3EEEE14ExcNotPreparedE = comdat any

$_ZTIN6dealii16SolutionTransferILi3ENS_6VectorIfEENS_2hp10DoFHandlerILi3ELi3EEEE14ExcNotPreparedE = comdat any

$_ZTVN6dealii16SolutionTransferILi3ENS_6VectorIfEENS_2hp10DoFHandlerILi3ELi3EEEE20ExcAlreadyPrepForRefE = comdat any

$_ZTSN6dealii16SolutionTransferILi3ENS_6VectorIfEENS_2hp10DoFHandlerILi3ELi3EEEE20ExcAlreadyPrepForRefE = comdat any

$_ZTIN6dealii16SolutionTransferILi3ENS_6VectorIfEENS_2hp10DoFHandlerILi3ELi3EEEE20ExcAlreadyPrepForRefE = comdat any

$_ZTVN6dealii16SolutionTransferILi3ENS_6VectorIfEENS_2hp10DoFHandlerILi3ELi3EEEE29ExcAlreadyPrepForCoarseAndRefE = comdat any

$_ZTSN6dealii16SolutionTransferILi3ENS_6VectorIfEENS_2hp10DoFHandlerILi3ELi3EEEE29ExcAlreadyPrepForCoarseAndRefE = comdat any

$_ZTIN6dealii16SolutionTransferILi3ENS_6VectorIfEENS_2hp10DoFHandlerILi3ELi3EEEE29ExcAlreadyPrepForCoarseAndRefE = comdat any

$_ZTVN6dealii16SolutionTransferILi3ENS_6VectorIfEENS_2hp10DoFHandlerILi3ELi3EEEE36ExcTriaPrepCoarseningNotCalledBeforeE = comdat any

$_ZTSN6dealii16SolutionTransferILi3ENS_6VectorIfEENS_2hp10DoFHandlerILi3ELi3EEEE36ExcTriaPrepCoarseningNotCalledBeforeE = comdat any

$_ZTIN6dealii16SolutionTransferILi3ENS_6VectorIfEENS_2hp10DoFHandlerILi3ELi3EEEE36ExcTriaPrepCoarseningNotCalledBeforeE = comdat any

$_ZTVN6dealii16SolutionTransferILi3ENS_6VectorIfEENS_2hp10DoFHandlerILi3ELi3EEEE19ExcNoInVectorsGivenE = comdat any

$_ZTSN6dealii16SolutionTransferILi3ENS_6VectorIfEENS_2hp10DoFHandlerILi3ELi3EEEE19ExcNoInVectorsGivenE = comdat any

$_ZTIN6dealii16SolutionTransferILi3ENS_6VectorIfEENS_2hp10DoFHandlerILi3ELi3EEEE19ExcNoInVectorsGivenE = comdat any

$_ZTVN6dealii16SolutionTransferILi3ENS_6VectorIfEENS_2hp10DoFHandlerILi3ELi3EEEE29ExcVectorsDifferFromInVectorsE = comdat any

$_ZTSN6dealii16SolutionTransferILi3ENS_6VectorIfEENS_2hp10DoFHandlerILi3ELi3EEEE29ExcVectorsDifferFromInVectorsE = comdat any

$_ZTIN6dealii16SolutionTransferILi3ENS_6VectorIfEENS_2hp10DoFHandlerILi3ELi3EEEE29ExcVectorsDifferFromInVectorsE = comdat any

$_ZTVN6dealii16SolutionTransferILi3ENS_6VectorIfEENS_2hp10DoFHandlerILi3ELi3EEEE32ExcNumberOfDoFsPerCellHasChangedE = comdat any

$_ZTSN6dealii16SolutionTransferILi3ENS_6VectorIfEENS_2hp10DoFHandlerILi3ELi3EEEE32ExcNumberOfDoFsPerCellHasChangedE = comdat any

$_ZTIN6dealii16SolutionTransferILi3ENS_6VectorIfEENS_2hp10DoFHandlerILi3ELi3EEEE32ExcNumberOfDoFsPerCellHasChangedE = comdat any

$_ZTSN6dealii16SolutionTransferILi3ENS_6VectorIfEENS_2hp10DoFHandlerILi3ELi3EEEE18ExcWrongVectorSizeE = comdat any

$_ZTIN6dealii16SolutionTransferILi3ENS_6VectorIfEENS_2hp10DoFHandlerILi3ELi3EEEE18ExcWrongVectorSizeE = comdat any

$_ZTVN6dealii16SolutionTransferILi3ENS_6VectorIdEENS_2hp10DoFHandlerILi3ELi3EEEE14ExcNotPreparedE = comdat any

$_ZTSN6dealii16SolutionTransferILi3ENS_6VectorIdEENS_2hp10DoFHandlerILi3ELi3EEEE14ExcNotPreparedE = comdat any

$_ZTIN6dealii16SolutionTransferILi3ENS_6VectorIdEENS_2hp10DoFHandlerILi3ELi3EEEE14ExcNotPreparedE = comdat any

$_ZTVN6dealii16SolutionTransferILi3ENS_6VectorIdEENS_2hp10DoFHandlerILi3ELi3EEEE20ExcAlreadyPrepForRefE = comdat any

$_ZTSN6dealii16SolutionTransferILi3ENS_6VectorIdEENS_2hp10DoFHandlerILi3ELi3EEEE20ExcAlreadyPrepForRefE = comdat any

$_ZTIN6dealii16SolutionTransferILi3ENS_6VectorIdEENS_2hp10DoFHandlerILi3ELi3EEEE20ExcAlreadyPrepForRefE = comdat any

$_ZTVN6dealii16SolutionTransferILi3ENS_6VectorIdEENS_2hp10DoFHandlerILi3ELi3EEEE29ExcAlreadyPrepForCoarseAndRefE = comdat any

$_ZTSN6dealii16SolutionTransferILi3ENS_6VectorIdEENS_2hp10DoFHandlerILi3ELi3EEEE29ExcAlreadyPrepForCoarseAndRefE = comdat any

$_ZTIN6dealii16SolutionTransferILi3ENS_6VectorIdEENS_2hp10DoFHandlerILi3ELi3EEEE29ExcAlreadyPrepForCoarseAndRefE = comdat any

$_ZTVN6dealii16SolutionTransferILi3ENS_6VectorIdEENS_2hp10DoFHandlerILi3ELi3EEEE36ExcTriaPrepCoarseningNotCalledBeforeE = comdat any

$_ZTSN6dealii16SolutionTransferILi3ENS_6VectorIdEENS_2hp10DoFHandlerILi3ELi3EEEE36ExcTriaPrepCoarseningNotCalledBeforeE = comdat any

$_ZTIN6dealii16SolutionTransferILi3ENS_6VectorIdEENS_2hp10DoFHandlerILi3ELi3EEEE36ExcTriaPrepCoarseningNotCalledBeforeE = comdat any

$_ZTVN6dealii16SolutionTransferILi3ENS_6VectorIdEENS_2hp10DoFHandlerILi3ELi3EEEE19ExcNoInVectorsGivenE = comdat any

$_ZTSN6dealii16SolutionTransferILi3ENS_6VectorIdEENS_2hp10DoFHandlerILi3ELi3EEEE19ExcNoInVectorsGivenE = comdat any

$_ZTIN6dealii16SolutionTransferILi3ENS_6VectorIdEENS_2hp10DoFHandlerILi3ELi3EEEE19ExcNoInVectorsGivenE = comdat any

$_ZTVN6dealii16SolutionTransferILi3ENS_6VectorIdEENS_2hp10DoFHandlerILi3ELi3EEEE29ExcVectorsDifferFromInVectorsE = comdat any

$_ZTSN6dealii16SolutionTransferILi3ENS_6VectorIdEENS_2hp10DoFHandlerILi3ELi3EEEE29ExcVectorsDifferFromInVectorsE = comdat any

$_ZTIN6dealii16SolutionTransferILi3ENS_6VectorIdEENS_2hp10DoFHandlerILi3ELi3EEEE29ExcVectorsDifferFromInVectorsE = comdat any

$_ZTVN6dealii16SolutionTransferILi3ENS_6VectorIdEENS_2hp10DoFHandlerILi3ELi3EEEE32ExcNumberOfDoFsPerCellHasChangedE = comdat any

$_ZTSN6dealii16SolutionTransferILi3ENS_6VectorIdEENS_2hp10DoFHandlerILi3ELi3EEEE32ExcNumberOfDoFsPerCellHasChangedE = comdat any

$_ZTIN6dealii16SolutionTransferILi3ENS_6VectorIdEENS_2hp10DoFHandlerILi3ELi3EEEE32ExcNumberOfDoFsPerCellHasChangedE = comdat any

$_ZTSN6dealii16SolutionTransferILi3ENS_6VectorIdEENS_2hp10DoFHandlerILi3ELi3EEEE18ExcWrongVectorSizeE = comdat any

$_ZTIN6dealii16SolutionTransferILi3ENS_6VectorIdEENS_2hp10DoFHandlerILi3ELi3EEEE18ExcWrongVectorSizeE = comdat any

$_ZTVN6dealii16SolutionTransferILi3ENS_11BlockVectorIfEENS_10DoFHandlerILi3ELi3EEEE14ExcNotPreparedE = comdat any

$_ZTSN6dealii16SolutionTransferILi3ENS_11BlockVectorIfEENS_10DoFHandlerILi3ELi3EEEE14ExcNotPreparedE = comdat any

$_ZTIN6dealii16SolutionTransferILi3ENS_11BlockVectorIfEENS_10DoFHandlerILi3ELi3EEEE14ExcNotPreparedE = comdat any

$_ZTVN6dealii16SolutionTransferILi3ENS_11BlockVectorIfEENS_10DoFHandlerILi3ELi3EEEE20ExcAlreadyPrepForRefE = comdat any

$_ZTSN6dealii16SolutionTransferILi3ENS_11BlockVectorIfEENS_10DoFHandlerILi3ELi3EEEE20ExcAlreadyPrepForRefE = comdat any

$_ZTIN6dealii16SolutionTransferILi3ENS_11BlockVectorIfEENS_10DoFHandlerILi3ELi3EEEE20ExcAlreadyPrepForRefE = comdat any

$_ZTVN6dealii16SolutionTransferILi3ENS_11BlockVectorIfEENS_10DoFHandlerILi3ELi3EEEE29ExcAlreadyPrepForCoarseAndRefE = comdat any

$_ZTSN6dealii16SolutionTransferILi3ENS_11BlockVectorIfEENS_10DoFHandlerILi3ELi3EEEE29ExcAlreadyPrepForCoarseAndRefE = comdat any

$_ZTIN6dealii16SolutionTransferILi3ENS_11BlockVectorIfEENS_10DoFHandlerILi3ELi3EEEE29ExcAlreadyPrepForCoarseAndRefE = comdat any

$_ZTVN6dealii16SolutionTransferILi3ENS_11BlockVectorIfEENS_10DoFHandlerILi3ELi3EEEE36ExcTriaPrepCoarseningNotCalledBeforeE = comdat any

$_ZTSN6dealii16SolutionTransferILi3ENS_11BlockVectorIfEENS_10DoFHandlerILi3ELi3EEEE36ExcTriaPrepCoarseningNotCalledBeforeE = comdat any

$_ZTIN6dealii16SolutionTransferILi3ENS_11BlockVectorIfEENS_10DoFHandlerILi3ELi3EEEE36ExcTriaPrepCoarseningNotCalledBeforeE = comdat any

$_ZTVN6dealii16SolutionTransferILi3ENS_11BlockVectorIfEENS_10DoFHandlerILi3ELi3EEEE19ExcNoInVectorsGivenE = comdat any

$_ZTSN6dealii16SolutionTransferILi3ENS_11BlockVectorIfEENS_10DoFHandlerILi3ELi3EEEE19ExcNoInVectorsGivenE = comdat any

$_ZTIN6dealii16SolutionTransferILi3ENS_11BlockVectorIfEENS_10DoFHandlerILi3ELi3EEEE19ExcNoInVectorsGivenE = comdat any

$_ZTVN6dealii16SolutionTransferILi3ENS_11BlockVectorIfEENS_10DoFHandlerILi3ELi3EEEE29ExcVectorsDifferFromInVectorsE = comdat any

$_ZTSN6dealii16SolutionTransferILi3ENS_11BlockVectorIfEENS_10DoFHandlerILi3ELi3EEEE29ExcVectorsDifferFromInVectorsE = comdat any

$_ZTIN6dealii16SolutionTransferILi3ENS_11BlockVectorIfEENS_10DoFHandlerILi3ELi3EEEE29ExcVectorsDifferFromInVectorsE = comdat any

$_ZTVN6dealii16SolutionTransferILi3ENS_11BlockVectorIfEENS_10DoFHandlerILi3ELi3EEEE32ExcNumberOfDoFsPerCellHasChangedE = comdat any

$_ZTSN6dealii16SolutionTransferILi3ENS_11BlockVectorIfEENS_10DoFHandlerILi3ELi3EEEE32ExcNumberOfDoFsPerCellHasChangedE = comdat any

$_ZTIN6dealii16SolutionTransferILi3ENS_11BlockVectorIfEENS_10DoFHandlerILi3ELi3EEEE32ExcNumberOfDoFsPerCellHasChangedE = comdat any

$_ZTSN6dealii16SolutionTransferILi3ENS_11BlockVectorIfEENS_10DoFHandlerILi3ELi3EEEE18ExcWrongVectorSizeE = comdat any

$_ZTIN6dealii16SolutionTransferILi3ENS_11BlockVectorIfEENS_10DoFHandlerILi3ELi3EEEE18ExcWrongVectorSizeE = comdat any

$_ZTVN6dealii16SolutionTransferILi3ENS_11BlockVectorIdEENS_10DoFHandlerILi3ELi3EEEE14ExcNotPreparedE = comdat any

$_ZTSN6dealii16SolutionTransferILi3ENS_11BlockVectorIdEENS_10DoFHandlerILi3ELi3EEEE14ExcNotPreparedE = comdat any

$_ZTIN6dealii16SolutionTransferILi3ENS_11BlockVectorIdEENS_10DoFHandlerILi3ELi3EEEE14ExcNotPreparedE = comdat any

$_ZTVN6dealii16SolutionTransferILi3ENS_11BlockVectorIdEENS_10DoFHandlerILi3ELi3EEEE20ExcAlreadyPrepForRefE = comdat any

$_ZTSN6dealii16SolutionTransferILi3ENS_11BlockVectorIdEENS_10DoFHandlerILi3ELi3EEEE20ExcAlreadyPrepForRefE = comdat any

$_ZTIN6dealii16SolutionTransferILi3ENS_11BlockVectorIdEENS_10DoFHandlerILi3ELi3EEEE20ExcAlreadyPrepForRefE = comdat any

$_ZTVN6dealii16SolutionTransferILi3ENS_11BlockVectorIdEENS_10DoFHandlerILi3ELi3EEEE29ExcAlreadyPrepForCoarseAndRefE = comdat any

$_ZTSN6dealii16SolutionTransferILi3ENS_11BlockVectorIdEENS_10DoFHandlerILi3ELi3EEEE29ExcAlreadyPrepForCoarseAndRefE = comdat any

$_ZTIN6dealii16SolutionTransferILi3ENS_11BlockVectorIdEENS_10DoFHandlerILi3ELi3EEEE29ExcAlreadyPrepForCoarseAndRefE = comdat any

$_ZTVN6dealii16SolutionTransferILi3ENS_11BlockVectorIdEENS_10DoFHandlerILi3ELi3EEEE36ExcTriaPrepCoarseningNotCalledBeforeE = comdat any

$_ZTSN6dealii16SolutionTransferILi3ENS_11BlockVectorIdEENS_10DoFHandlerILi3ELi3EEEE36ExcTriaPrepCoarseningNotCalledBeforeE = comdat any

$_ZTIN6dealii16SolutionTransferILi3ENS_11BlockVectorIdEENS_10DoFHandlerILi3ELi3EEEE36ExcTriaPrepCoarseningNotCalledBeforeE = comdat any

$_ZTVN6dealii16SolutionTransferILi3ENS_11BlockVectorIdEENS_10DoFHandlerILi3ELi3EEEE19ExcNoInVectorsGivenE = comdat any

$_ZTSN6dealii16SolutionTransferILi3ENS_11BlockVectorIdEENS_10DoFHandlerILi3ELi3EEEE19ExcNoInVectorsGivenE = comdat any

$_ZTIN6dealii16SolutionTransferILi3ENS_11BlockVectorIdEENS_10DoFHandlerILi3ELi3EEEE19ExcNoInVectorsGivenE = comdat any

$_ZTVN6dealii16SolutionTransferILi3ENS_11BlockVectorIdEENS_10DoFHandlerILi3ELi3EEEE29ExcVectorsDifferFromInVectorsE = comdat any

$_ZTSN6dealii16SolutionTransferILi3ENS_11BlockVectorIdEENS_10DoFHandlerILi3ELi3EEEE29ExcVectorsDifferFromInVectorsE = comdat any

$_ZTIN6dealii16SolutionTransferILi3ENS_11BlockVectorIdEENS_10DoFHandlerILi3ELi3EEEE29ExcVectorsDifferFromInVectorsE = comdat any

$_ZTVN6dealii16SolutionTransferILi3ENS_11BlockVectorIdEENS_10DoFHandlerILi3ELi3EEEE32ExcNumberOfDoFsPerCellHasChangedE = comdat any

$_ZTSN6dealii16SolutionTransferILi3ENS_11BlockVectorIdEENS_10DoFHandlerILi3ELi3EEEE32ExcNumberOfDoFsPerCellHasChangedE = comdat any

$_ZTIN6dealii16SolutionTransferILi3ENS_11BlockVectorIdEENS_10DoFHandlerILi3ELi3EEEE32ExcNumberOfDoFsPerCellHasChangedE = comdat any

$_ZTSN6dealii16SolutionTransferILi3ENS_11BlockVectorIdEENS_10DoFHandlerILi3ELi3EEEE18ExcWrongVectorSizeE = comdat any

$_ZTIN6dealii16SolutionTransferILi3ENS_11BlockVectorIdEENS_10DoFHandlerILi3ELi3EEEE18ExcWrongVectorSizeE = comdat any

$_ZTVN6dealii16SolutionTransferILi3ENS_11BlockVectorIfEENS_2hp10DoFHandlerILi3ELi3EEEE14ExcNotPreparedE = comdat any

$_ZTSN6dealii16SolutionTransferILi3ENS_11BlockVectorIfEENS_2hp10DoFHandlerILi3ELi3EEEE14ExcNotPreparedE = comdat any

$_ZTIN6dealii16SolutionTransferILi3ENS_11BlockVectorIfEENS_2hp10DoFHandlerILi3ELi3EEEE14ExcNotPreparedE = comdat any

$_ZTVN6dealii16SolutionTransferILi3ENS_11BlockVectorIfEENS_2hp10DoFHandlerILi3ELi3EEEE20ExcAlreadyPrepForRefE = comdat any

$_ZTSN6dealii16SolutionTransferILi3ENS_11BlockVectorIfEENS_2hp10DoFHandlerILi3ELi3EEEE20ExcAlreadyPrepForRefE = comdat any

$_ZTIN6dealii16SolutionTransferILi3ENS_11BlockVectorIfEENS_2hp10DoFHandlerILi3ELi3EEEE20ExcAlreadyPrepForRefE = comdat any

$_ZTVN6dealii16SolutionTransferILi3ENS_11BlockVectorIfEENS_2hp10DoFHandlerILi3ELi3EEEE29ExcAlreadyPrepForCoarseAndRefE = comdat any

$_ZTSN6dealii16SolutionTransferILi3ENS_11BlockVectorIfEENS_2hp10DoFHandlerILi3ELi3EEEE29ExcAlreadyPrepForCoarseAndRefE = comdat any

$_ZTIN6dealii16SolutionTransferILi3ENS_11BlockVectorIfEENS_2hp10DoFHandlerILi3ELi3EEEE29ExcAlreadyPrepForCoarseAndRefE = comdat any

$_ZTVN6dealii16SolutionTransferILi3ENS_11BlockVectorIfEENS_2hp10DoFHandlerILi3ELi3EEEE36ExcTriaPrepCoarseningNotCalledBeforeE = comdat any

$_ZTSN6dealii16SolutionTransferILi3ENS_11BlockVectorIfEENS_2hp10DoFHandlerILi3ELi3EEEE36ExcTriaPrepCoarseningNotCalledBeforeE = comdat any

$_ZTIN6dealii16SolutionTransferILi3ENS_11BlockVectorIfEENS_2hp10DoFHandlerILi3ELi3EEEE36ExcTriaPrepCoarseningNotCalledBeforeE = comdat any

$_ZTVN6dealii16SolutionTransferILi3ENS_11BlockVectorIfEENS_2hp10DoFHandlerILi3ELi3EEEE19ExcNoInVectorsGivenE = comdat any

$_ZTSN6dealii16SolutionTransferILi3ENS_11BlockVectorIfEENS_2hp10DoFHandlerILi3ELi3EEEE19ExcNoInVectorsGivenE = comdat any

$_ZTIN6dealii16SolutionTransferILi3ENS_11BlockVectorIfEENS_2hp10DoFHandlerILi3ELi3EEEE19ExcNoInVectorsGivenE = comdat any

$_ZTVN6dealii16SolutionTransferILi3ENS_11BlockVectorIfEENS_2hp10DoFHandlerILi3ELi3EEEE29ExcVectorsDifferFromInVectorsE = comdat any

$_ZTSN6dealii16SolutionTransferILi3ENS_11BlockVectorIfEENS_2hp10DoFHandlerILi3ELi3EEEE29ExcVectorsDifferFromInVectorsE = comdat any

$_ZTIN6dealii16SolutionTransferILi3ENS_11BlockVectorIfEENS_2hp10DoFHandlerILi3ELi3EEEE29ExcVectorsDifferFromInVectorsE = comdat any

$_ZTVN6dealii16SolutionTransferILi3ENS_11BlockVectorIfEENS_2hp10DoFHandlerILi3ELi3EEEE32ExcNumberOfDoFsPerCellHasChangedE = comdat any

$_ZTSN6dealii16SolutionTransferILi3ENS_11BlockVectorIfEENS_2hp10DoFHandlerILi3ELi3EEEE32ExcNumberOfDoFsPerCellHasChangedE = comdat any

$_ZTIN6dealii16SolutionTransferILi3ENS_11BlockVectorIfEENS_2hp10DoFHandlerILi3ELi3EEEE32ExcNumberOfDoFsPerCellHasChangedE = comdat any

$_ZTSN6dealii16SolutionTransferILi3ENS_11BlockVectorIfEENS_2hp10DoFHandlerILi3ELi3EEEE18ExcWrongVectorSizeE = comdat any

$_ZTIN6dealii16SolutionTransferILi3ENS_11BlockVectorIfEENS_2hp10DoFHandlerILi3ELi3EEEE18ExcWrongVectorSizeE = comdat any

$_ZTVN6dealii16SolutionTransferILi3ENS_11BlockVectorIdEENS_2hp10DoFHandlerILi3ELi3EEEE14ExcNotPreparedE = comdat any

$_ZTSN6dealii16SolutionTransferILi3ENS_11BlockVectorIdEENS_2hp10DoFHandlerILi3ELi3EEEE14ExcNotPreparedE = comdat any

$_ZTIN6dealii16SolutionTransferILi3ENS_11BlockVectorIdEENS_2hp10DoFHandlerILi3ELi3EEEE14ExcNotPreparedE = comdat any

$_ZTVN6dealii16SolutionTransferILi3ENS_11BlockVectorIdEENS_2hp10DoFHandlerILi3ELi3EEEE20ExcAlreadyPrepForRefE = comdat any

$_ZTSN6dealii16SolutionTransferILi3ENS_11BlockVectorIdEENS_2hp10DoFHandlerILi3ELi3EEEE20ExcAlreadyPrepForRefE = comdat any

$_ZTIN6dealii16SolutionTransferILi3ENS_11BlockVectorIdEENS_2hp10DoFHandlerILi3ELi3EEEE20ExcAlreadyPrepForRefE = comdat any

$_ZTVN6dealii16SolutionTransferILi3ENS_11BlockVectorIdEENS_2hp10DoFHandlerILi3ELi3EEEE29ExcAlreadyPrepForCoarseAndRefE = comdat any

$_ZTSN6dealii16SolutionTransferILi3ENS_11BlockVectorIdEENS_2hp10DoFHandlerILi3ELi3EEEE29ExcAlreadyPrepForCoarseAndRefE = comdat any

$_ZTIN6dealii16SolutionTransferILi3ENS_11BlockVectorIdEENS_2hp10DoFHandlerILi3ELi3EEEE29ExcAlreadyPrepForCoarseAndRefE = comdat any

$_ZTVN6dealii16SolutionTransferILi3ENS_11BlockVectorIdEENS_2hp10DoFHandlerILi3ELi3EEEE36ExcTriaPrepCoarseningNotCalledBeforeE = comdat any

$_ZTSN6dealii16SolutionTransferILi3ENS_11BlockVectorIdEENS_2hp10DoFHandlerILi3ELi3EEEE36ExcTriaPrepCoarseningNotCalledBeforeE = comdat any

$_ZTIN6dealii16SolutionTransferILi3ENS_11BlockVectorIdEENS_2hp10DoFHandlerILi3ELi3EEEE36ExcTriaPrepCoarseningNotCalledBeforeE = comdat any

$_ZTVN6dealii16SolutionTransferILi3ENS_11BlockVectorIdEENS_2hp10DoFHandlerILi3ELi3EEEE19ExcNoInVectorsGivenE = comdat any

$_ZTSN6dealii16SolutionTransferILi3ENS_11BlockVectorIdEENS_2hp10DoFHandlerILi3ELi3EEEE19ExcNoInVectorsGivenE = comdat any

$_ZTIN6dealii16SolutionTransferILi3ENS_11BlockVectorIdEENS_2hp10DoFHandlerILi3ELi3EEEE19ExcNoInVectorsGivenE = comdat any

$_ZTVN6dealii16SolutionTransferILi3ENS_11BlockVectorIdEENS_2hp10DoFHandlerILi3ELi3EEEE29ExcVectorsDifferFromInVectorsE = comdat any

$_ZTSN6dealii16SolutionTransferILi3ENS_11BlockVectorIdEENS_2hp10DoFHandlerILi3ELi3EEEE29ExcVectorsDifferFromInVectorsE = comdat any

$_ZTIN6dealii16SolutionTransferILi3ENS_11BlockVectorIdEENS_2hp10DoFHandlerILi3ELi3EEEE29ExcVectorsDifferFromInVectorsE = comdat any

$_ZTVN6dealii16SolutionTransferILi3ENS_11BlockVectorIdEENS_2hp10DoFHandlerILi3ELi3EEEE32ExcNumberOfDoFsPerCellHasChangedE = comdat any

$_ZTSN6dealii16SolutionTransferILi3ENS_11BlockVectorIdEENS_2hp10DoFHandlerILi3ELi3EEEE32ExcNumberOfDoFsPerCellHasChangedE = comdat any

$_ZTIN6dealii16SolutionTransferILi3ENS_11BlockVectorIdEENS_2hp10DoFHandlerILi3ELi3EEEE32ExcNumberOfDoFsPerCellHasChangedE = comdat any

$_ZTSN6dealii16SolutionTransferILi3ENS_11BlockVectorIdEENS_2hp10DoFHandlerILi3ELi3EEEE18ExcWrongVectorSizeE = comdat any

$_ZTIN6dealii16SolutionTransferILi3ENS_11BlockVectorIdEENS_2hp10DoFHandlerILi3ELi3EEEE18ExcWrongVectorSizeE = comdat any

$_ZTVN6dealii6VectorIfEE = comdat any

$_ZTSN6dealii6VectorIfEE = comdat any

$_ZTIN6dealii6VectorIfEE = comdat any

$_ZTVN6dealii6VectorIdEE = comdat any

$_ZTSN6dealii6VectorIdEE = comdat any

$_ZTIN6dealii6VectorIdEE = comdat any

$_ZZN6dealii8internal12TriaAccessor14Implementation12vertex_indexILi3ELi3EEEjRKNS_12TriaAccessorILi2EXT_EXT0_EEEjE12switch_table = comdat any

$_ZZN6dealii8internal12TriaAccessor14Implementation10line_indexILi3ELi3EEEjRKNS_12TriaAccessorILi3EXT_EXT0_EEEjE12lookup_table = comdat any

$_ZZN6dealii8internal12TriaAccessor14Implementation16line_orientationILi3ELi3EEEbRKNS_12TriaAccessorILi3EXT_EXT0_EEEjE12lookup_table = comdat any

$_ZZN6dealii8internal12TriaAccessor14Implementation16line_orientationILi3ELi3EEEbRKNS_12TriaAccessorILi3EXT_EXT0_EEEjE10bool_table = comdat any

@_ZTVN6dealii16SolutionTransferILi3ENS_6VectorIfEENS_10DoFHandlerILi3ELi3EEEE18ExcWrongVectorSizeE = weak_odr dso_local unnamed_addr constant { [6 x ptr] } { [6 x ptr] [ptr null, ptr @_ZTIN6dealii16SolutionTransferILi3ENS_6VectorIfEENS_10DoFHandlerILi3ELi3EEEE18ExcWrongVectorSizeE, ptr @_ZN6dealii16SolutionTransferILi3ENS_6VectorIfEENS_10DoFHandlerILi3ELi3EEEE18ExcWrongVectorSizeD2Ev, ptr @_ZN6dealii16SolutionTransferILi3ENS_6VectorIfEENS_10DoFHandlerILi3ELi3EEEE18ExcWrongVectorSizeD0Ev, ptr @_ZNK6dealii13ExceptionBase4whatEv, ptr @_ZNK6dealii16SolutionTransferILi3ENS_6VectorIfEENS_10DoFHandlerILi3ELi3EEEE18ExcWrongVectorSize10print_infoERSo] }, comdat, align 8
@.str = private unnamed_addr constant [27 x i8] c"The size of the vector is \00", align 1
@.str.9 = private unnamed_addr constant [24 x i8] c" although it should be \00", align 1
@.str.10 = private unnamed_addr constant [2 x i8] c".\00", align 1
@_ZTVN6dealii16SolutionTransferILi3ENS_6VectorIdEENS_10DoFHandlerILi3ELi3EEEE18ExcWrongVectorSizeE = weak_odr dso_local unnamed_addr constant { [6 x ptr] } { [6 x ptr] [ptr null, ptr @_ZTIN6dealii16SolutionTransferILi3ENS_6VectorIdEENS_10DoFHandlerILi3ELi3EEEE18ExcWrongVectorSizeE, ptr @_ZN6dealii16SolutionTransferILi3ENS_6VectorIdEENS_10DoFHandlerILi3ELi3EEEE18ExcWrongVectorSizeD2Ev, ptr @_ZN6dealii16SolutionTransferILi3ENS_6VectorIdEENS_10DoFHandlerILi3ELi3EEEE18ExcWrongVectorSizeD0Ev, ptr @_ZNK6dealii13ExceptionBase4whatEv, ptr @_ZNK6dealii16SolutionTransferILi3ENS_6VectorIdEENS_10DoFHandlerILi3ELi3EEEE18ExcWrongVectorSize10print_infoERSo] }, comdat, align 8
@_ZTVN6dealii16SolutionTransferILi3ENS_6VectorIfEENS_2hp10DoFHandlerILi3ELi3EEEE18ExcWrongVectorSizeE = weak_odr dso_local unnamed_addr constant { [6 x ptr] } { [6 x ptr] [ptr null, ptr @_ZTIN6dealii16SolutionTransferILi3ENS_6VectorIfEENS_2hp10DoFHandlerILi3ELi3EEEE18ExcWrongVectorSizeE, ptr @_ZN6dealii16SolutionTransferILi3ENS_6VectorIfEENS_2hp10DoFHandlerILi3ELi3EEEE18ExcWrongVectorSizeD2Ev, ptr @_ZN6dealii16SolutionTransferILi3ENS_6VectorIfEENS_2hp10DoFHandlerILi3ELi3EEEE18ExcWrongVectorSizeD0Ev, ptr @_ZNK6dealii13ExceptionBase4whatEv, ptr @_ZNK6dealii16SolutionTransferILi3ENS_6VectorIfEENS_2hp10DoFHandlerILi3ELi3EEEE18ExcWrongVectorSize10print_infoERSo] }, comdat, align 8
@_ZTVN6dealii16SolutionTransferILi3ENS_6VectorIdEENS_2hp10DoFHandlerILi3ELi3EEEE18ExcWrongVectorSizeE = weak_odr dso_local unnamed_addr constant { [6 x ptr] } { [6 x ptr] [ptr null, ptr @_ZTIN6dealii16SolutionTransferILi3ENS_6VectorIdEENS_2hp10DoFHandlerILi3ELi3EEEE18ExcWrongVectorSizeE, ptr @_ZN6dealii16SolutionTransferILi3ENS_6VectorIdEENS_2hp10DoFHandlerILi3ELi3EEEE18ExcWrongVectorSizeD2Ev, ptr @_ZN6dealii16SolutionTransferILi3ENS_6VectorIdEENS_2hp10DoFHandlerILi3ELi3EEEE18ExcWrongVectorSizeD0Ev, ptr @_ZNK6dealii13ExceptionBase4whatEv, ptr @_ZNK6dealii16SolutionTransferILi3ENS_6VectorIdEENS_2hp10DoFHandlerILi3ELi3EEEE18ExcWrongVectorSize10print_infoERSo] }, comdat, align 8
@_ZTVN6dealii16SolutionTransferILi3ENS_11BlockVectorIfEENS_10DoFHandlerILi3ELi3EEEE18ExcWrongVectorSizeE = weak_odr dso_local unnamed_addr constant { [6 x ptr] } { [6 x ptr] [ptr null, ptr @_ZTIN6dealii16SolutionTransferILi3ENS_11BlockVectorIfEENS_10DoFHandlerILi3ELi3EEEE18ExcWrongVectorSizeE, ptr @_ZN6dealii16SolutionTransferILi3ENS_11BlockVectorIfEENS_10DoFHandlerILi3ELi3EEEE18ExcWrongVectorSizeD2Ev, ptr @_ZN6dealii16SolutionTransferILi3ENS_11BlockVectorIfEENS_10DoFHandlerILi3ELi3EEEE18ExcWrongVectorSizeD0Ev, ptr @_ZNK6dealii13ExceptionBase4whatEv, ptr @_ZNK6dealii16SolutionTransferILi3ENS_11BlockVectorIfEENS_10DoFHandlerILi3ELi3EEEE18ExcWrongVectorSize10print_infoERSo] }, comdat, align 8
@_ZTVN6dealii16SolutionTransferILi3ENS_11BlockVectorIdEENS_10DoFHandlerILi3ELi3EEEE18ExcWrongVectorSizeE = weak_odr dso_local unnamed_addr constant { [6 x ptr] } { [6 x ptr] [ptr null, ptr @_ZTIN6dealii16SolutionTransferILi3ENS_11BlockVectorIdEENS_10DoFHandlerILi3ELi3EEEE18ExcWrongVectorSizeE, ptr @_ZN6dealii16SolutionTransferILi3ENS_11BlockVectorIdEENS_10DoFHandlerILi3ELi3EEEE18ExcWrongVectorSizeD2Ev, ptr @_ZN6dealii16SolutionTransferILi3ENS_11BlockVectorIdEENS_10DoFHandlerILi3ELi3EEEE18ExcWrongVectorSizeD0Ev, ptr @_ZNK6dealii13ExceptionBase4whatEv, ptr @_ZNK6dealii16SolutionTransferILi3ENS_11BlockVectorIdEENS_10DoFHandlerILi3ELi3EEEE18ExcWrongVectorSize10print_infoERSo] }, comdat, align 8
@_ZTVN6dealii16SolutionTransferILi3ENS_11BlockVectorIfEENS_2hp10DoFHandlerILi3ELi3EEEE18ExcWrongVectorSizeE = weak_odr dso_local unnamed_addr constant { [6 x ptr] } { [6 x ptr] [ptr null, ptr @_ZTIN6dealii16SolutionTransferILi3ENS_11BlockVectorIfEENS_2hp10DoFHandlerILi3ELi3EEEE18ExcWrongVectorSizeE, ptr @_ZN6dealii16SolutionTransferILi3ENS_11BlockVectorIfEENS_2hp10DoFHandlerILi3ELi3EEEE18ExcWrongVectorSizeD2Ev, ptr @_ZN6dealii16SolutionTransferILi3ENS_11BlockVectorIfEENS_2hp10DoFHandlerILi3ELi3EEEE18ExcWrongVectorSizeD0Ev, ptr @_ZNK6dealii13ExceptionBase4whatEv, ptr @_ZNK6dealii16SolutionTransferILi3ENS_11BlockVectorIfEENS_2hp10DoFHandlerILi3ELi3EEEE18ExcWrongVectorSize10print_infoERSo] }, comdat, align 8
@_ZTVN6dealii16SolutionTransferILi3ENS_11BlockVectorIdEENS_2hp10DoFHandlerILi3ELi3EEEE18ExcWrongVectorSizeE = weak_odr dso_local unnamed_addr constant { [6 x ptr] } { [6 x ptr] [ptr null, ptr @_ZTIN6dealii16SolutionTransferILi3ENS_11BlockVectorIdEENS_2hp10DoFHandlerILi3ELi3EEEE18ExcWrongVectorSizeE, ptr @_ZN6dealii16SolutionTransferILi3ENS_11BlockVectorIdEENS_2hp10DoFHandlerILi3ELi3EEEE18ExcWrongVectorSizeD2Ev, ptr @_ZN6dealii16SolutionTransferILi3ENS_11BlockVectorIdEENS_2hp10DoFHandlerILi3ELi3EEEE18ExcWrongVectorSizeD0Ev, ptr @_ZNK6dealii13ExceptionBase4whatEv, ptr @_ZNK6dealii16SolutionTransferILi3ENS_11BlockVectorIdEENS_2hp10DoFHandlerILi3ELi3EEEE18ExcWrongVectorSize10print_infoERSo] }, comdat, align 8
@_ZTVN6dealii16SolutionTransferILi3ENS_6VectorIfEENS_10DoFHandlerILi3ELi3EEEE14ExcNotPreparedE = weak_odr dso_local unnamed_addr constant { [6 x ptr] } { [6 x ptr] [ptr null, ptr @_ZTIN6dealii16SolutionTransferILi3ENS_6VectorIfEENS_10DoFHandlerILi3ELi3EEEE14ExcNotPreparedE, ptr @_ZN6dealii13ExceptionBaseD2Ev, ptr @_ZN6dealii16SolutionTransferILi3ENS_6VectorIfEENS_10DoFHandlerILi3ELi3EEEE14ExcNotPreparedD0Ev, ptr @_ZNK6dealii13ExceptionBase4whatEv, ptr @_ZNK6dealii13ExceptionBase10print_infoERSo] }, comdat, align 8
@_ZTVN10__cxxabiv120__si_class_type_infoE = external global ptr
@_ZTSN6dealii16SolutionTransferILi3ENS_6VectorIfEENS_10DoFHandlerILi3ELi3EEEE14ExcNotPreparedE = weak_odr dso_local constant [90 x i8] c"N6dealii16SolutionTransferILi3ENS_6VectorIfEENS_10DoFHandlerILi3ELi3EEEE14ExcNotPreparedE\00", comdat, align 1
@_ZTIN6dealii13ExceptionBaseE = external constant ptr
@_ZTIN6dealii16SolutionTransferILi3ENS_6VectorIfEENS_10DoFHandlerILi3ELi3EEEE14ExcNotPreparedE = weak_odr dso_local constant { ptr, ptr, ptr } { ptr getelementptr inbounds (ptr, ptr @_ZTVN10__cxxabiv120__si_class_type_infoE, i64 2), ptr @_ZTSN6dealii16SolutionTransferILi3ENS_6VectorIfEENS_10DoFHandlerILi3ELi3EEEE14ExcNotPreparedE, ptr @_ZTIN6dealii13ExceptionBaseE }, comdat, align 8
@_ZTVN6dealii16SolutionTransferILi3ENS_6VectorIfEENS_10DoFHandlerILi3ELi3EEEE20ExcAlreadyPrepForRefE = weak_odr dso_local unnamed_addr constant { [6 x ptr] } { [6 x ptr] [ptr null, ptr @_ZTIN6dealii16SolutionTransferILi3ENS_6VectorIfEENS_10DoFHandlerILi3ELi3EEEE20ExcAlreadyPrepForRefE, ptr @_ZN6dealii13ExceptionBaseD2Ev, ptr @_ZN6dealii16SolutionTransferILi3ENS_6VectorIfEENS_10DoFHandlerILi3ELi3EEEE20ExcAlreadyPrepForRefD0Ev, ptr @_ZNK6dealii13ExceptionBase4whatEv, ptr @_ZNK6dealii13ExceptionBase10print_infoERSo] }, comdat, align 8
@_ZTSN6dealii16SolutionTransferILi3ENS_6VectorIfEENS_10DoFHandlerILi3ELi3EEEE20ExcAlreadyPrepForRefE = weak_odr dso_local constant [96 x i8] c"N6dealii16SolutionTransferILi3ENS_6VectorIfEENS_10DoFHandlerILi3ELi3EEEE20ExcAlreadyPrepForRefE\00", comdat, align 1
@_ZTIN6dealii16SolutionTransferILi3ENS_6VectorIfEENS_10DoFHandlerILi3ELi3EEEE20ExcAlreadyPrepForRefE = weak_odr dso_local constant { ptr, ptr, ptr } { ptr getelementptr inbounds (ptr, ptr @_ZTVN10__cxxabiv120__si_class_type_infoE, i64 2), ptr @_ZTSN6dealii16SolutionTransferILi3ENS_6VectorIfEENS_10DoFHandlerILi3ELi3EEEE20ExcAlreadyPrepForRefE, ptr @_ZTIN6dealii13ExceptionBaseE }, comdat, align 8
@_ZTVN6dealii16SolutionTransferILi3ENS_6VectorIfEENS_10DoFHandlerILi3ELi3EEEE29ExcAlreadyPrepForCoarseAndRefE = weak_odr dso_local unnamed_addr constant { [6 x ptr] } { [6 x ptr] [ptr null, ptr @_ZTIN6dealii16SolutionTransferILi3ENS_6VectorIfEENS_10DoFHandlerILi3ELi3EEEE29ExcAlreadyPrepForCoarseAndRefE, ptr @_ZN6dealii13ExceptionBaseD2Ev, ptr @_ZN6dealii16SolutionTransferILi3ENS_6VectorIfEENS_10DoFHandlerILi3ELi3EEEE29ExcAlreadyPrepForCoarseAndRefD0Ev, ptr @_ZNK6dealii13ExceptionBase4whatEv, ptr @_ZNK6dealii13ExceptionBase10print_infoERSo] }, comdat, align 8
@_ZTSN6dealii16SolutionTransferILi3ENS_6VectorIfEENS_10DoFHandlerILi3ELi3EEEE29ExcAlreadyPrepForCoarseAndRefE = weak_odr dso_local constant [105 x i8] c"N6dealii16SolutionTransferILi3ENS_6VectorIfEENS_10DoFHandlerILi3ELi3EEEE29ExcAlreadyPrepForCoarseAndRefE\00", comdat, align 1
@_ZTIN6dealii16SolutionTransferILi3ENS_6VectorIfEENS_10DoFHandlerILi3ELi3EEEE29ExcAlreadyPrepForCoarseAndRefE = weak_odr dso_local constant { ptr, ptr, ptr } { ptr getelementptr inbounds (ptr, ptr @_ZTVN10__cxxabiv120__si_class_type_infoE, i64 2), ptr @_ZTSN6dealii16SolutionTransferILi3ENS_6VectorIfEENS_10DoFHandlerILi3ELi3EEEE29ExcAlreadyPrepForCoarseAndRefE, ptr @_ZTIN6dealii13ExceptionBaseE }, comdat, align 8
@_ZTVN6dealii16SolutionTransferILi3ENS_6VectorIfEENS_10DoFHandlerILi3ELi3EEEE36ExcTriaPrepCoarseningNotCalledBeforeE = weak_odr dso_local unnamed_addr constant { [6 x ptr] } { [6 x ptr] [ptr null, ptr @_ZTIN6dealii16SolutionTransferILi3ENS_6VectorIfEENS_10DoFHandlerILi3ELi3EEEE36ExcTriaPrepCoarseningNotCalledBeforeE, ptr @_ZN6dealii13ExceptionBaseD2Ev, ptr @_ZN6dealii16SolutionTransferILi3ENS_6VectorIfEENS_10DoFHandlerILi3ELi3EEEE36ExcTriaPrepCoarseningNotCalledBeforeD0Ev, ptr @_ZNK6dealii13ExceptionBase4whatEv, ptr @_ZNK6dealii13ExceptionBase10print_infoERSo] }, comdat, align 8
@_ZTSN6dealii16SolutionTransferILi3ENS_6VectorIfEENS_10DoFHandlerILi3ELi3EEEE36ExcTriaPrepCoarseningNotCalledBeforeE = weak_odr dso_local constant [112 x i8] c"N6dealii16SolutionTransferILi3ENS_6VectorIfEENS_10DoFHandlerILi3ELi3EEEE36ExcTriaPrepCoarseningNotCalledBeforeE\00", comdat, align 1
@_ZTIN6dealii16SolutionTransferILi3ENS_6VectorIfEENS_10DoFHandlerILi3ELi3EEEE36ExcTriaPrepCoarseningNotCalledBeforeE = weak_odr dso_local constant { ptr, ptr, ptr } { ptr getelementptr inbounds (ptr, ptr @_ZTVN10__cxxabiv120__si_class_type_infoE, i64 2), ptr @_ZTSN6dealii16SolutionTransferILi3ENS_6VectorIfEENS_10DoFHandlerILi3ELi3EEEE36ExcTriaPrepCoarseningNotCalledBeforeE, ptr @_ZTIN6dealii13ExceptionBaseE }, comdat, align 8
@_ZTVN6dealii16SolutionTransferILi3ENS_6VectorIfEENS_10DoFHandlerILi3ELi3EEEE19ExcNoInVectorsGivenE = weak_odr dso_local unnamed_addr constant { [6 x ptr] } { [6 x ptr] [ptr null, ptr @_ZTIN6dealii16SolutionTransferILi3ENS_6VectorIfEENS_10DoFHandlerILi3ELi3EEEE19ExcNoInVectorsGivenE, ptr @_ZN6dealii13ExceptionBaseD2Ev, ptr @_ZN6dealii16SolutionTransferILi3ENS_6VectorIfEENS_10DoFHandlerILi3ELi3EEEE19ExcNoInVectorsGivenD0Ev, ptr @_ZNK6dealii13ExceptionBase4whatEv, ptr @_ZNK6dealii13ExceptionBase10print_infoERSo] }, comdat, align 8
@_ZTSN6dealii16SolutionTransferILi3ENS_6VectorIfEENS_10DoFHandlerILi3ELi3EEEE19ExcNoInVectorsGivenE = weak_odr dso_local constant [95 x i8] c"N6dealii16SolutionTransferILi3ENS_6VectorIfEENS_10DoFHandlerILi3ELi3EEEE19ExcNoInVectorsGivenE\00", comdat, align 1
@_ZTIN6dealii16SolutionTransferILi3ENS_6VectorIfEENS_10DoFHandlerILi3ELi3EEEE19ExcNoInVectorsGivenE = weak_odr dso_local constant { ptr, ptr, ptr } { ptr getelementptr inbounds (ptr, ptr @_ZTVN10__cxxabiv120__si_class_type_infoE, i64 2), ptr @_ZTSN6dealii16SolutionTransferILi3ENS_6VectorIfEENS_10DoFHandlerILi3ELi3EEEE19ExcNoInVectorsGivenE, ptr @_ZTIN6dealii13ExceptionBaseE }, comdat, align 8
@_ZTVN6dealii16SolutionTransferILi3ENS_6VectorIfEENS_10DoFHandlerILi3ELi3EEEE29ExcVectorsDifferFromInVectorsE = weak_odr dso_local unnamed_addr constant { [6 x ptr] } { [6 x ptr] [ptr null, ptr @_ZTIN6dealii16SolutionTransferILi3ENS_6VectorIfEENS_10DoFHandlerILi3ELi3EEEE29ExcVectorsDifferFromInVectorsE, ptr @_ZN6dealii13ExceptionBaseD2Ev, ptr @_ZN6dealii16SolutionTransferILi3ENS_6VectorIfEENS_10DoFHandlerILi3ELi3EEEE29ExcVectorsDifferFromInVectorsD0Ev, ptr @_ZNK6dealii13ExceptionBase4whatEv, ptr @_ZNK6dealii13ExceptionBase10print_infoERSo] }, comdat, align 8
@_ZTSN6dealii16SolutionTransferILi3ENS_6VectorIfEENS_10DoFHandlerILi3ELi3EEEE29ExcVectorsDifferFromInVectorsE = weak_odr dso_local constant [105 x i8] c"N6dealii16SolutionTransferILi3ENS_6VectorIfEENS_10DoFHandlerILi3ELi3EEEE29ExcVectorsDifferFromInVectorsE\00", comdat, align 1
@_ZTIN6dealii16SolutionTransferILi3ENS_6VectorIfEENS_10DoFHandlerILi3ELi3EEEE29ExcVectorsDifferFromInVectorsE = weak_odr dso_local constant { ptr, ptr, ptr } { ptr getelementptr inbounds (ptr, ptr @_ZTVN10__cxxabiv120__si_class_type_infoE, i64 2), ptr @_ZTSN6dealii16SolutionTransferILi3ENS_6VectorIfEENS_10DoFHandlerILi3ELi3EEEE29ExcVectorsDifferFromInVectorsE, ptr @_ZTIN6dealii13ExceptionBaseE }, comdat, align 8
@_ZTVN6dealii16SolutionTransferILi3ENS_6VectorIfEENS_10DoFHandlerILi3ELi3EEEE32ExcNumberOfDoFsPerCellHasChangedE = weak_odr dso_local unnamed_addr constant { [6 x ptr] } { [6 x ptr] [ptr null, ptr @_ZTIN6dealii16SolutionTransferILi3ENS_6VectorIfEENS_10DoFHandlerILi3ELi3EEEE32ExcNumberOfDoFsPerCellHasChangedE, ptr @_ZN6dealii13ExceptionBaseD2Ev, ptr @_ZN6dealii16SolutionTransferILi3ENS_6VectorIfEENS_10DoFHandlerILi3ELi3EEEE32ExcNumberOfDoFsPerCellHasChangedD0Ev, ptr @_ZNK6dealii13ExceptionBase4whatEv, ptr @_ZNK6dealii13ExceptionBase10print_infoERSo] }, comdat, align 8
@_ZTSN6dealii16SolutionTransferILi3ENS_6VectorIfEENS_10DoFHandlerILi3ELi3EEEE32ExcNumberOfDoFsPerCellHasChangedE = weak_odr dso_local constant [108 x i8] c"N6dealii16SolutionTransferILi3ENS_6VectorIfEENS_10DoFHandlerILi3ELi3EEEE32ExcNumberOfDoFsPerCellHasChangedE\00", comdat, align 1
@_ZTIN6dealii16SolutionTransferILi3ENS_6VectorIfEENS_10DoFHandlerILi3ELi3EEEE32ExcNumberOfDoFsPerCellHasChangedE = weak_odr dso_local constant { ptr, ptr, ptr } { ptr getelementptr inbounds (ptr, ptr @_ZTVN10__cxxabiv120__si_class_type_infoE, i64 2), ptr @_ZTSN6dealii16SolutionTransferILi3ENS_6VectorIfEENS_10DoFHandlerILi3ELi3EEEE32ExcNumberOfDoFsPerCellHasChangedE, ptr @_ZTIN6dealii13ExceptionBaseE }, comdat, align 8
@_ZTSN6dealii16SolutionTransferILi3ENS_6VectorIfEENS_10DoFHandlerILi3ELi3EEEE18ExcWrongVectorSizeE = weak_odr dso_local constant [94 x i8] c"N6dealii16SolutionTransferILi3ENS_6VectorIfEENS_10DoFHandlerILi3ELi3EEEE18ExcWrongVectorSizeE\00", comdat, align 1
@_ZTIN6dealii16SolutionTransferILi3ENS_6VectorIfEENS_10DoFHandlerILi3ELi3EEEE18ExcWrongVectorSizeE = weak_odr dso_local constant { ptr, ptr, ptr } { ptr getelementptr inbounds (ptr, ptr @_ZTVN10__cxxabiv120__si_class_type_infoE, i64 2), ptr @_ZTSN6dealii16SolutionTransferILi3ENS_6VectorIfEENS_10DoFHandlerILi3ELi3EEEE18ExcWrongVectorSizeE, ptr @_ZTIN6dealii13ExceptionBaseE }, comdat, align 8
@_ZTVN6dealii16SolutionTransferILi3ENS_6VectorIdEENS_10DoFHandlerILi3ELi3EEEE14ExcNotPreparedE = weak_odr dso_local unnamed_addr constant { [6 x ptr] } { [6 x ptr] [ptr null, ptr @_ZTIN6dealii16SolutionTransferILi3ENS_6VectorIdEENS_10DoFHandlerILi3ELi3EEEE14ExcNotPreparedE, ptr @_ZN6dealii13ExceptionBaseD2Ev, ptr @_ZN6dealii16SolutionTransferILi3ENS_6VectorIdEENS_10DoFHandlerILi3ELi3EEEE14ExcNotPreparedD0Ev, ptr @_ZNK6dealii13ExceptionBase4whatEv, ptr @_ZNK6dealii13ExceptionBase10print_infoERSo] }, comdat, align 8
@_ZTSN6dealii16SolutionTransferILi3ENS_6VectorIdEENS_10DoFHandlerILi3ELi3EEEE14ExcNotPreparedE = weak_odr dso_local constant [90 x i8] c"N6dealii16SolutionTransferILi3ENS_6VectorIdEENS_10DoFHandlerILi3ELi3EEEE14ExcNotPreparedE\00", comdat, align 1
@_ZTIN6dealii16SolutionTransferILi3ENS_6VectorIdEENS_10DoFHandlerILi3ELi3EEEE14ExcNotPreparedE = weak_odr dso_local constant { ptr, ptr, ptr } { ptr getelementptr inbounds (ptr, ptr @_ZTVN10__cxxabiv120__si_class_type_infoE, i64 2), ptr @_ZTSN6dealii16SolutionTransferILi3ENS_6VectorIdEENS_10DoFHandlerILi3ELi3EEEE14ExcNotPreparedE, ptr @_ZTIN6dealii13ExceptionBaseE }, comdat, align 8
@_ZTVN6dealii16SolutionTransferILi3ENS_6VectorIdEENS_10DoFHandlerILi3ELi3EEEE20ExcAlreadyPrepForRefE = weak_odr dso_local unnamed_addr constant { [6 x ptr] } { [6 x ptr] [ptr null, ptr @_ZTIN6dealii16SolutionTransferILi3ENS_6VectorIdEENS_10DoFHandlerILi3ELi3EEEE20ExcAlreadyPrepForRefE, ptr @_ZN6dealii13ExceptionBaseD2Ev, ptr @_ZN6dealii16SolutionTransferILi3ENS_6VectorIdEENS_10DoFHandlerILi3ELi3EEEE20ExcAlreadyPrepForRefD0Ev, ptr @_ZNK6dealii13ExceptionBase4whatEv, ptr @_ZNK6dealii13ExceptionBase10print_infoERSo] }, comdat, align 8
@_ZTSN6dealii16SolutionTransferILi3ENS_6VectorIdEENS_10DoFHandlerILi3ELi3EEEE20ExcAlreadyPrepForRefE = weak_odr dso_local constant [96 x i8] c"N6dealii16SolutionTransferILi3ENS_6VectorIdEENS_10DoFHandlerILi3ELi3EEEE20ExcAlreadyPrepForRefE\00", comdat, align 1
@_ZTIN6dealii16SolutionTransferILi3ENS_6VectorIdEENS_10DoFHandlerILi3ELi3EEEE20ExcAlreadyPrepForRefE = weak_odr dso_local constant { ptr, ptr, ptr } { ptr getelementptr inbounds (ptr, ptr @_ZTVN10__cxxabiv120__si_class_type_infoE, i64 2), ptr @_ZTSN6dealii16SolutionTransferILi3ENS_6VectorIdEENS_10DoFHandlerILi3ELi3EEEE20ExcAlreadyPrepForRefE, ptr @_ZTIN6dealii13ExceptionBaseE }, comdat, align 8
@_ZTVN6dealii16SolutionTransferILi3ENS_6VectorIdEENS_10DoFHandlerILi3ELi3EEEE29ExcAlreadyPrepForCoarseAndRefE = weak_odr dso_local unnamed_addr constant { [6 x ptr] } { [6 x ptr] [ptr null, ptr @_ZTIN6dealii16SolutionTransferILi3ENS_6VectorIdEENS_10DoFHandlerILi3ELi3EEEE29ExcAlreadyPrepForCoarseAndRefE, ptr @_ZN6dealii13ExceptionBaseD2Ev, ptr @_ZN6dealii16SolutionTransferILi3ENS_6VectorIdEENS_10DoFHandlerILi3ELi3EEEE29ExcAlreadyPrepForCoarseAndRefD0Ev, ptr @_ZNK6dealii13ExceptionBase4whatEv, ptr @_ZNK6dealii13ExceptionBase10print_infoERSo] }, comdat, align 8
@_ZTSN6dealii16SolutionTransferILi3ENS_6VectorIdEENS_10DoFHandlerILi3ELi3EEEE29ExcAlreadyPrepForCoarseAndRefE = weak_odr dso_local constant [105 x i8] c"N6dealii16SolutionTransferILi3ENS_6VectorIdEENS_10DoFHandlerILi3ELi3EEEE29ExcAlreadyPrepForCoarseAndRefE\00", comdat, align 1
@_ZTIN6dealii16SolutionTransferILi3ENS_6VectorIdEENS_10DoFHandlerILi3ELi3EEEE29ExcAlreadyPrepForCoarseAndRefE = weak_odr dso_local constant { ptr, ptr, ptr } { ptr getelementptr inbounds (ptr, ptr @_ZTVN10__cxxabiv120__si_class_type_infoE, i64 2), ptr @_ZTSN6dealii16SolutionTransferILi3ENS_6VectorIdEENS_10DoFHandlerILi3ELi3EEEE29ExcAlreadyPrepForCoarseAndRefE, ptr @_ZTIN6dealii13ExceptionBaseE }, comdat, align 8
@_ZTVN6dealii16SolutionTransferILi3ENS_6VectorIdEENS_10DoFHandlerILi3ELi3EEEE36ExcTriaPrepCoarseningNotCalledBeforeE = weak_odr dso_local unnamed_addr constant { [6 x ptr] } { [6 x ptr] [ptr null, ptr @_ZTIN6dealii16SolutionTransferILi3ENS_6VectorIdEENS_10DoFHandlerILi3ELi3EEEE36ExcTriaPrepCoarseningNotCalledBeforeE, ptr @_ZN6dealii13ExceptionBaseD2Ev, ptr @_ZN6dealii16SolutionTransferILi3ENS_6VectorIdEENS_10DoFHandlerILi3ELi3EEEE36ExcTriaPrepCoarseningNotCalledBeforeD0Ev, ptr @_ZNK6dealii13ExceptionBase4whatEv, ptr @_ZNK6dealii13ExceptionBase10print_infoERSo] }, comdat, align 8
@_ZTSN6dealii16SolutionTransferILi3ENS_6VectorIdEENS_10DoFHandlerILi3ELi3EEEE36ExcTriaPrepCoarseningNotCalledBeforeE = weak_odr dso_local constant [112 x i8] c"N6dealii16SolutionTransferILi3ENS_6VectorIdEENS_10DoFHandlerILi3ELi3EEEE36ExcTriaPrepCoarseningNotCalledBeforeE\00", comdat, align 1
@_ZTIN6dealii16SolutionTransferILi3ENS_6VectorIdEENS_10DoFHandlerILi3ELi3EEEE36ExcTriaPrepCoarseningNotCalledBeforeE = weak_odr dso_local constant { ptr, ptr, ptr } { ptr getelementptr inbounds (ptr, ptr @_ZTVN10__cxxabiv120__si_class_type_infoE, i64 2), ptr @_ZTSN6dealii16SolutionTransferILi3ENS_6VectorIdEENS_10DoFHandlerILi3ELi3EEEE36ExcTriaPrepCoarseningNotCalledBeforeE, ptr @_ZTIN6dealii13ExceptionBaseE }, comdat, align 8
@_ZTVN6dealii16SolutionTransferILi3ENS_6VectorIdEENS_10DoFHandlerILi3ELi3EEEE19ExcNoInVectorsGivenE = weak_odr dso_local unnamed_addr constant { [6 x ptr] } { [6 x ptr] [ptr null, ptr @_ZTIN6dealii16SolutionTransferILi3ENS_6VectorIdEENS_10DoFHandlerILi3ELi3EEEE19ExcNoInVectorsGivenE, ptr @_ZN6dealii13ExceptionBaseD2Ev, ptr @_ZN6dealii16SolutionTransferILi3ENS_6VectorIdEENS_10DoFHandlerILi3ELi3EEEE19ExcNoInVectorsGivenD0Ev, ptr @_ZNK6dealii13ExceptionBase4whatEv, ptr @_ZNK6dealii13ExceptionBase10print_infoERSo] }, comdat, align 8
@_ZTSN6dealii16SolutionTransferILi3ENS_6VectorIdEENS_10DoFHandlerILi3ELi3EEEE19ExcNoInVectorsGivenE = weak_odr dso_local constant [95 x i8] c"N6dealii16SolutionTransferILi3ENS_6VectorIdEENS_10DoFHandlerILi3ELi3EEEE19ExcNoInVectorsGivenE\00", comdat, align 1
@_ZTIN6dealii16SolutionTransferILi3ENS_6VectorIdEENS_10DoFHandlerILi3ELi3EEEE19ExcNoInVectorsGivenE = weak_odr dso_local constant { ptr, ptr, ptr } { ptr getelementptr inbounds (ptr, ptr @_ZTVN10__cxxabiv120__si_class_type_infoE, i64 2), ptr @_ZTSN6dealii16SolutionTransferILi3ENS_6VectorIdEENS_10DoFHandlerILi3ELi3EEEE19ExcNoInVectorsGivenE, ptr @_ZTIN6dealii13ExceptionBaseE }, comdat, align 8
@_ZTVN6dealii16SolutionTransferILi3ENS_6VectorIdEENS_10DoFHandlerILi3ELi3EEEE29ExcVectorsDifferFromInVectorsE = weak_odr dso_local unnamed_addr constant { [6 x ptr] } { [6 x ptr] [ptr null, ptr @_ZTIN6dealii16SolutionTransferILi3ENS_6VectorIdEENS_10DoFHandlerILi3ELi3EEEE29ExcVectorsDifferFromInVectorsE, ptr @_ZN6dealii13ExceptionBaseD2Ev, ptr @_ZN6dealii16SolutionTransferILi3ENS_6VectorIdEENS_10DoFHandlerILi3ELi3EEEE29ExcVectorsDifferFromInVectorsD0Ev, ptr @_ZNK6dealii13ExceptionBase4whatEv, ptr @_ZNK6dealii13ExceptionBase10print_infoERSo] }, comdat, align 8
@_ZTSN6dealii16SolutionTransferILi3ENS_6VectorIdEENS_10DoFHandlerILi3ELi3EEEE29ExcVectorsDifferFromInVectorsE = weak_odr dso_local constant [105 x i8] c"N6dealii16SolutionTransferILi3ENS_6VectorIdEENS_10DoFHandlerILi3ELi3EEEE29ExcVectorsDifferFromInVectorsE\00", comdat, align 1
@_ZTIN6dealii16SolutionTransferILi3ENS_6VectorIdEENS_10DoFHandlerILi3ELi3EEEE29ExcVectorsDifferFromInVectorsE = weak_odr dso_local constant { ptr, ptr, ptr } { ptr getelementptr inbounds (ptr, ptr @_ZTVN10__cxxabiv120__si_class_type_infoE, i64 2), ptr @_ZTSN6dealii16SolutionTransferILi3ENS_6VectorIdEENS_10DoFHandlerILi3ELi3EEEE29ExcVectorsDifferFromInVectorsE, ptr @_ZTIN6dealii13ExceptionBaseE }, comdat, align 8
@_ZTVN6dealii16SolutionTransferILi3ENS_6VectorIdEENS_10DoFHandlerILi3ELi3EEEE32ExcNumberOfDoFsPerCellHasChangedE = weak_odr dso_local unnamed_addr constant { [6 x ptr] } { [6 x ptr] [ptr null, ptr @_ZTIN6dealii16SolutionTransferILi3ENS_6VectorIdEENS_10DoFHandlerILi3ELi3EEEE32ExcNumberOfDoFsPerCellHasChangedE, ptr @_ZN6dealii13ExceptionBaseD2Ev, ptr @_ZN6dealii16SolutionTransferILi3ENS_6VectorIdEENS_10DoFHandlerILi3ELi3EEEE32ExcNumberOfDoFsPerCellHasChangedD0Ev, ptr @_ZNK6dealii13ExceptionBase4whatEv, ptr @_ZNK6dealii13ExceptionBase10print_infoERSo] }, comdat, align 8
@_ZTSN6dealii16SolutionTransferILi3ENS_6VectorIdEENS_10DoFHandlerILi3ELi3EEEE32ExcNumberOfDoFsPerCellHasChangedE = weak_odr dso_local constant [108 x i8] c"N6dealii16SolutionTransferILi3ENS_6VectorIdEENS_10DoFHandlerILi3ELi3EEEE32ExcNumberOfDoFsPerCellHasChangedE\00", comdat, align 1
@_ZTIN6dealii16SolutionTransferILi3ENS_6VectorIdEENS_10DoFHandlerILi3ELi3EEEE32ExcNumberOfDoFsPerCellHasChangedE = weak_odr dso_local constant { ptr, ptr, ptr } { ptr getelementptr inbounds (ptr, ptr @_ZTVN10__cxxabiv120__si_class_type_infoE, i64 2), ptr @_ZTSN6dealii16SolutionTransferILi3ENS_6VectorIdEENS_10DoFHandlerILi3ELi3EEEE32ExcNumberOfDoFsPerCellHasChangedE, ptr @_ZTIN6dealii13ExceptionBaseE }, comdat, align 8
@_ZTSN6dealii16SolutionTransferILi3ENS_6VectorIdEENS_10DoFHandlerILi3ELi3EEEE18ExcWrongVectorSizeE = weak_odr dso_local constant [94 x i8] c"N6dealii16SolutionTransferILi3ENS_6VectorIdEENS_10DoFHandlerILi3ELi3EEEE18ExcWrongVectorSizeE\00", comdat, align 1
@_ZTIN6dealii16SolutionTransferILi3ENS_6VectorIdEENS_10DoFHandlerILi3ELi3EEEE18ExcWrongVectorSizeE = weak_odr dso_local constant { ptr, ptr, ptr } { ptr getelementptr inbounds (ptr, ptr @_ZTVN10__cxxabiv120__si_class_type_infoE, i64 2), ptr @_ZTSN6dealii16SolutionTransferILi3ENS_6VectorIdEENS_10DoFHandlerILi3ELi3EEEE18ExcWrongVectorSizeE, ptr @_ZTIN6dealii13ExceptionBaseE }, comdat, align 8
@_ZTVN6dealii16SolutionTransferILi3ENS_6VectorIfEENS_2hp10DoFHandlerILi3ELi3EEEE14ExcNotPreparedE = weak_odr dso_local unnamed_addr constant { [6 x ptr] } { [6 x ptr] [ptr null, ptr @_ZTIN6dealii16SolutionTransferILi3ENS_6VectorIfEENS_2hp10DoFHandlerILi3ELi3EEEE14ExcNotPreparedE, ptr @_ZN6dealii13ExceptionBaseD2Ev, ptr @_ZN6dealii16SolutionTransferILi3ENS_6VectorIfEENS_2hp10DoFHandlerILi3ELi3EEEE14ExcNotPreparedD0Ev, ptr @_ZNK6dealii13ExceptionBase4whatEv, ptr @_ZNK6dealii13ExceptionBase10print_infoERSo] }, comdat, align 8
@_ZTSN6dealii16SolutionTransferILi3ENS_6VectorIfEENS_2hp10DoFHandlerILi3ELi3EEEE14ExcNotPreparedE = weak_odr dso_local constant [93 x i8] c"N6dealii16SolutionTransferILi3ENS_6VectorIfEENS_2hp10DoFHandlerILi3ELi3EEEE14ExcNotPreparedE\00", comdat, align 1
@_ZTIN6dealii16SolutionTransferILi3ENS_6VectorIfEENS_2hp10DoFHandlerILi3ELi3EEEE14ExcNotPreparedE = weak_odr dso_local constant { ptr, ptr, ptr } { ptr getelementptr inbounds (ptr, ptr @_ZTVN10__cxxabiv120__si_class_type_infoE, i64 2), ptr @_ZTSN6dealii16SolutionTransferILi3ENS_6VectorIfEENS_2hp10DoFHandlerILi3ELi3EEEE14ExcNotPreparedE, ptr @_ZTIN6dealii13ExceptionBaseE }, comdat, align 8
@_ZTVN6dealii16SolutionTransferILi3ENS_6VectorIfEENS_2hp10DoFHandlerILi3ELi3EEEE20ExcAlreadyPrepForRefE = weak_odr dso_local unnamed_addr constant { [6 x ptr] } { [6 x ptr] [ptr null, ptr @_ZTIN6dealii16SolutionTransferILi3ENS_6VectorIfEENS_2hp10DoFHandlerILi3ELi3EEEE20ExcAlreadyPrepForRefE, ptr @_ZN6dealii13ExceptionBaseD2Ev, ptr @_ZN6dealii16SolutionTransferILi3ENS_6VectorIfEENS_2hp10DoFHandlerILi3ELi3EEEE20ExcAlreadyPrepForRefD0Ev, ptr @_ZNK6dealii13ExceptionBase4whatEv, ptr @_ZNK6dealii13ExceptionBase10print_infoERSo] }, comdat, align 8
@_ZTSN6dealii16SolutionTransferILi3ENS_6VectorIfEENS_2hp10DoFHandlerILi3ELi3EEEE20ExcAlreadyPrepForRefE = weak_odr dso_local constant [99 x i8] c"N6dealii16SolutionTransferILi3ENS_6VectorIfEENS_2hp10DoFHandlerILi3ELi3EEEE20ExcAlreadyPrepForRefE\00", comdat, align 1
@_ZTIN6dealii16SolutionTransferILi3ENS_6VectorIfEENS_2hp10DoFHandlerILi3ELi3EEEE20ExcAlreadyPrepForRefE = weak_odr dso_local constant { ptr, ptr, ptr } { ptr getelementptr inbounds (ptr, ptr @_ZTVN10__cxxabiv120__si_class_type_infoE, i64 2), ptr @_ZTSN6dealii16SolutionTransferILi3ENS_6VectorIfEENS_2hp10DoFHandlerILi3ELi3EEEE20ExcAlreadyPrepForRefE, ptr @_ZTIN6dealii13ExceptionBaseE }, comdat, align 8
@_ZTVN6dealii16SolutionTransferILi3ENS_6VectorIfEENS_2hp10DoFHandlerILi3ELi3EEEE29ExcAlreadyPrepForCoarseAndRefE = weak_odr dso_local unnamed_addr constant { [6 x ptr] } { [6 x ptr] [ptr null, ptr @_ZTIN6dealii16SolutionTransferILi3ENS_6VectorIfEENS_2hp10DoFHandlerILi3ELi3EEEE29ExcAlreadyPrepForCoarseAndRefE, ptr @_ZN6dealii13ExceptionBaseD2Ev, ptr @_ZN6dealii16SolutionTransferILi3ENS_6VectorIfEENS_2hp10DoFHandlerILi3ELi3EEEE29ExcAlreadyPrepForCoarseAndRefD0Ev, ptr @_ZNK6dealii13ExceptionBase4whatEv, ptr @_ZNK6dealii13ExceptionBase10print_infoERSo] }, comdat, align 8
@_ZTSN6dealii16SolutionTransferILi3ENS_6VectorIfEENS_2hp10DoFHandlerILi3ELi3EEEE29ExcAlreadyPrepForCoarseAndRefE = weak_odr dso_local constant [108 x i8] c"N6dealii16SolutionTransferILi3ENS_6VectorIfEENS_2hp10DoFHandlerILi3ELi3EEEE29ExcAlreadyPrepForCoarseAndRefE\00", comdat, align 1
@_ZTIN6dealii16SolutionTransferILi3ENS_6VectorIfEENS_2hp10DoFHandlerILi3ELi3EEEE29ExcAlreadyPrepForCoarseAndRefE = weak_odr dso_local constant { ptr, ptr, ptr } { ptr getelementptr inbounds (ptr, ptr @_ZTVN10__cxxabiv120__si_class_type_infoE, i64 2), ptr @_ZTSN6dealii16SolutionTransferILi3ENS_6VectorIfEENS_2hp10DoFHandlerILi3ELi3EEEE29ExcAlreadyPrepForCoarseAndRefE, ptr @_ZTIN6dealii13ExceptionBaseE }, comdat, align 8
@_ZTVN6dealii16SolutionTransferILi3ENS_6VectorIfEENS_2hp10DoFHandlerILi3ELi3EEEE36ExcTriaPrepCoarseningNotCalledBeforeE = weak_odr dso_local unnamed_addr constant { [6 x ptr] } { [6 x ptr] [ptr null, ptr @_ZTIN6dealii16SolutionTransferILi3ENS_6VectorIfEENS_2hp10DoFHandlerILi3ELi3EEEE36ExcTriaPrepCoarseningNotCalledBeforeE, ptr @_ZN6dealii13ExceptionBaseD2Ev, ptr @_ZN6dealii16SolutionTransferILi3ENS_6VectorIfEENS_2hp10DoFHandlerILi3ELi3EEEE36ExcTriaPrepCoarseningNotCalledBeforeD0Ev, ptr @_ZNK6dealii13ExceptionBase4whatEv, ptr @_ZNK6dealii13ExceptionBase10print_infoERSo] }, comdat, align 8
@_ZTSN6dealii16SolutionTransferILi3ENS_6VectorIfEENS_2hp10DoFHandlerILi3ELi3EEEE36ExcTriaPrepCoarseningNotCalledBeforeE = weak_odr dso_local constant [115 x i8] c"N6dealii16SolutionTransferILi3ENS_6VectorIfEENS_2hp10DoFHandlerILi3ELi3EEEE36ExcTriaPrepCoarseningNotCalledBeforeE\00", comdat, align 1
@_ZTIN6dealii16SolutionTransferILi3ENS_6VectorIfEENS_2hp10DoFHandlerILi3ELi3EEEE36ExcTriaPrepCoarseningNotCalledBeforeE = weak_odr dso_local constant { ptr, ptr, ptr } { ptr getelementptr inbounds (ptr, ptr @_ZTVN10__cxxabiv120__si_class_type_infoE, i64 2), ptr @_ZTSN6dealii16SolutionTransferILi3ENS_6VectorIfEENS_2hp10DoFHandlerILi3ELi3EEEE36ExcTriaPrepCoarseningNotCalledBeforeE, ptr @_ZTIN6dealii13ExceptionBaseE }, comdat, align 8
@_ZTVN6dealii16SolutionTransferILi3ENS_6VectorIfEENS_2hp10DoFHandlerILi3ELi3EEEE19ExcNoInVectorsGivenE = weak_odr dso_local unnamed_addr constant { [6 x ptr] } { [6 x ptr] [ptr null, ptr @_ZTIN6dealii16SolutionTransferILi3ENS_6VectorIfEENS_2hp10DoFHandlerILi3ELi3EEEE19ExcNoInVectorsGivenE, ptr @_ZN6dealii13ExceptionBaseD2Ev, ptr @_ZN6dealii16SolutionTransferILi3ENS_6VectorIfEENS_2hp10DoFHandlerILi3ELi3EEEE19ExcNoInVectorsGivenD0Ev, ptr @_ZNK6dealii13ExceptionBase4whatEv, ptr @_ZNK6dealii13ExceptionBase10print_infoERSo] }, comdat, align 8
@_ZTSN6dealii16SolutionTransferILi3ENS_6VectorIfEENS_2hp10DoFHandlerILi3ELi3EEEE19ExcNoInVectorsGivenE = weak_odr dso_local constant [98 x i8] c"N6dealii16SolutionTransferILi3ENS_6VectorIfEENS_2hp10DoFHandlerILi3ELi3EEEE19ExcNoInVectorsGivenE\00", comdat, align 1
@_ZTIN6dealii16SolutionTransferILi3ENS_6VectorIfEENS_2hp10DoFHandlerILi3ELi3EEEE19ExcNoInVectorsGivenE = weak_odr dso_local constant { ptr, ptr, ptr } { ptr getelementptr inbounds (ptr, ptr @_ZTVN10__cxxabiv120__si_class_type_infoE, i64 2), ptr @_ZTSN6dealii16SolutionTransferILi3ENS_6VectorIfEENS_2hp10DoFHandlerILi3ELi3EEEE19ExcNoInVectorsGivenE, ptr @_ZTIN6dealii13ExceptionBaseE }, comdat, align 8
@_ZTVN6dealii16SolutionTransferILi3ENS_6VectorIfEENS_2hp10DoFHandlerILi3ELi3EEEE29ExcVectorsDifferFromInVectorsE = weak_odr dso_local unnamed_addr constant { [6 x ptr] } { [6 x ptr] [ptr null, ptr @_ZTIN6dealii16SolutionTransferILi3ENS_6VectorIfEENS_2hp10DoFHandlerILi3ELi3EEEE29ExcVectorsDifferFromInVectorsE, ptr @_ZN6dealii13ExceptionBaseD2Ev, ptr @_ZN6dealii16SolutionTransferILi3ENS_6VectorIfEENS_2hp10DoFHandlerILi3ELi3EEEE29ExcVectorsDifferFromInVectorsD0Ev, ptr @_ZNK6dealii13ExceptionBase4whatEv, ptr @_ZNK6dealii13ExceptionBase10print_infoERSo] }, comdat, align 8
@_ZTSN6dealii16SolutionTransferILi3ENS_6VectorIfEENS_2hp10DoFHandlerILi3ELi3EEEE29ExcVectorsDifferFromInVectorsE = weak_odr dso_local constant [108 x i8] c"N6dealii16SolutionTransferILi3ENS_6VectorIfEENS_2hp10DoFHandlerILi3ELi3EEEE29ExcVectorsDifferFromInVectorsE\00", comdat, align 1
@_ZTIN6dealii16SolutionTransferILi3ENS_6VectorIfEENS_2hp10DoFHandlerILi3ELi3EEEE29ExcVectorsDifferFromInVectorsE = weak_odr dso_local constant { ptr, ptr, ptr } { ptr getelementptr inbounds (ptr, ptr @_ZTVN10__cxxabiv120__si_class_type_infoE, i64 2), ptr @_ZTSN6dealii16SolutionTransferILi3ENS_6VectorIfEENS_2hp10DoFHandlerILi3ELi3EEEE29ExcVectorsDifferFromInVectorsE, ptr @_ZTIN6dealii13ExceptionBaseE }, comdat, align 8
@_ZTVN6dealii16SolutionTransferILi3ENS_6VectorIfEENS_2hp10DoFHandlerILi3ELi3EEEE32ExcNumberOfDoFsPerCellHasChangedE = weak_odr dso_local unnamed_addr constant { [6 x ptr] } { [6 x ptr] [ptr null, ptr @_ZTIN6dealii16SolutionTransferILi3ENS_6VectorIfEENS_2hp10DoFHandlerILi3ELi3EEEE32ExcNumberOfDoFsPerCellHasChangedE, ptr @_ZN6dealii13ExceptionBaseD2Ev, ptr @_ZN6dealii16SolutionTransferILi3ENS_6VectorIfEENS_2hp10DoFHandlerILi3ELi3EEEE32ExcNumberOfDoFsPerCellHasChangedD0Ev, ptr @_ZNK6dealii13ExceptionBase4whatEv, ptr @_ZNK6dealii13ExceptionBase10print_infoERSo] }, comdat, align 8
@_ZTSN6dealii16SolutionTransferILi3ENS_6VectorIfEENS_2hp10DoFHandlerILi3ELi3EEEE32ExcNumberOfDoFsPerCellHasChangedE = weak_odr dso_local constant [111 x i8] c"N6dealii16SolutionTransferILi3ENS_6VectorIfEENS_2hp10DoFHandlerILi3ELi3EEEE32ExcNumberOfDoFsPerCellHasChangedE\00", comdat, align 1
@_ZTIN6dealii16SolutionTransferILi3ENS_6VectorIfEENS_2hp10DoFHandlerILi3ELi3EEEE32ExcNumberOfDoFsPerCellHasChangedE = weak_odr dso_local constant { ptr, ptr, ptr } { ptr getelementptr inbounds (ptr, ptr @_ZTVN10__cxxabiv120__si_class_type_infoE, i64 2), ptr @_ZTSN6dealii16SolutionTransferILi3ENS_6VectorIfEENS_2hp10DoFHandlerILi3ELi3EEEE32ExcNumberOfDoFsPerCellHasChangedE, ptr @_ZTIN6dealii13ExceptionBaseE }, comdat, align 8
@_ZTSN6dealii16SolutionTransferILi3ENS_6VectorIfEENS_2hp10DoFHandlerILi3ELi3EEEE18ExcWrongVectorSizeE = weak_odr dso_local constant [97 x i8] c"N6dealii16SolutionTransferILi3ENS_6VectorIfEENS_2hp10DoFHandlerILi3ELi3EEEE18ExcWrongVectorSizeE\00", comdat, align 1
@_ZTIN6dealii16SolutionTransferILi3ENS_6VectorIfEENS_2hp10DoFHandlerILi3ELi3EEEE18ExcWrongVectorSizeE = weak_odr dso_local constant { ptr, ptr, ptr } { ptr getelementptr inbounds (ptr, ptr @_ZTVN10__cxxabiv120__si_class_type_infoE, i64 2), ptr @_ZTSN6dealii16SolutionTransferILi3ENS_6VectorIfEENS_2hp10DoFHandlerILi3ELi3EEEE18ExcWrongVectorSizeE, ptr @_ZTIN6dealii13ExceptionBaseE }, comdat, align 8
@_ZTVN6dealii16SolutionTransferILi3ENS_6VectorIdEENS_2hp10DoFHandlerILi3ELi3EEEE14ExcNotPreparedE = weak_odr dso_local unnamed_addr constant { [6 x ptr] } { [6 x ptr] [ptr null, ptr @_ZTIN6dealii16SolutionTransferILi3ENS_6VectorIdEENS_2hp10DoFHandlerILi3ELi3EEEE14ExcNotPreparedE, ptr @_ZN6dealii13ExceptionBaseD2Ev, ptr @_ZN6dealii16SolutionTransferILi3ENS_6VectorIdEENS_2hp10DoFHandlerILi3ELi3EEEE14ExcNotPreparedD0Ev, ptr @_ZNK6dealii13ExceptionBase4whatEv, ptr @_ZNK6dealii13ExceptionBase10print_infoERSo] }, comdat, align 8
@_ZTSN6dealii16SolutionTransferILi3ENS_6VectorIdEENS_2hp10DoFHandlerILi3ELi3EEEE14ExcNotPreparedE = weak_odr dso_local constant [93 x i8] c"N6dealii16SolutionTransferILi3ENS_6VectorIdEENS_2hp10DoFHandlerILi3ELi3EEEE14ExcNotPreparedE\00", comdat, align 1
@_ZTIN6dealii16SolutionTransferILi3ENS_6VectorIdEENS_2hp10DoFHandlerILi3ELi3EEEE14ExcNotPreparedE = weak_odr dso_local constant { ptr, ptr, ptr } { ptr getelementptr inbounds (ptr, ptr @_ZTVN10__cxxabiv120__si_class_type_infoE, i64 2), ptr @_ZTSN6dealii16SolutionTransferILi3ENS_6VectorIdEENS_2hp10DoFHandlerILi3ELi3EEEE14ExcNotPreparedE, ptr @_ZTIN6dealii13ExceptionBaseE }, comdat, align 8
@_ZTVN6dealii16SolutionTransferILi3ENS_6VectorIdEENS_2hp10DoFHandlerILi3ELi3EEEE20ExcAlreadyPrepForRefE = weak_odr dso_local unnamed_addr constant { [6 x ptr] } { [6 x ptr] [ptr null, ptr @_ZTIN6dealii16SolutionTransferILi3ENS_6VectorIdEENS_2hp10DoFHandlerILi3ELi3EEEE20ExcAlreadyPrepForRefE, ptr @_ZN6dealii13ExceptionBaseD2Ev, ptr @_ZN6dealii16SolutionTransferILi3ENS_6VectorIdEENS_2hp10DoFHandlerILi3ELi3EEEE20ExcAlreadyPrepForRefD0Ev, ptr @_ZNK6dealii13ExceptionBase4whatEv, ptr @_ZNK6dealii13ExceptionBase10print_infoERSo] }, comdat, align 8
@_ZTSN6dealii16SolutionTransferILi3ENS_6VectorIdEENS_2hp10DoFHandlerILi3ELi3EEEE20ExcAlreadyPrepForRefE = weak_odr dso_local constant [99 x i8] c"N6dealii16SolutionTransferILi3ENS_6VectorIdEENS_2hp10DoFHandlerILi3ELi3EEEE20ExcAlreadyPrepForRefE\00", comdat, align 1
@_ZTIN6dealii16SolutionTransferILi3ENS_6VectorIdEENS_2hp10DoFHandlerILi3ELi3EEEE20ExcAlreadyPrepForRefE = weak_odr dso_local constant { ptr, ptr, ptr } { ptr getelementptr inbounds (ptr, ptr @_ZTVN10__cxxabiv120__si_class_type_infoE, i64 2), ptr @_ZTSN6dealii16SolutionTransferILi3ENS_6VectorIdEENS_2hp10DoFHandlerILi3ELi3EEEE20ExcAlreadyPrepForRefE, ptr @_ZTIN6dealii13ExceptionBaseE }, comdat, align 8
@_ZTVN6dealii16SolutionTransferILi3ENS_6VectorIdEENS_2hp10DoFHandlerILi3ELi3EEEE29ExcAlreadyPrepForCoarseAndRefE = weak_odr dso_local unnamed_addr constant { [6 x ptr] } { [6 x ptr] [ptr null, ptr @_ZTIN6dealii16SolutionTransferILi3ENS_6VectorIdEENS_2hp10DoFHandlerILi3ELi3EEEE29ExcAlreadyPrepForCoarseAndRefE, ptr @_ZN6dealii13ExceptionBaseD2Ev, ptr @_ZN6dealii16SolutionTransferILi3ENS_6VectorIdEENS_2hp10DoFHandlerILi3ELi3EEEE29ExcAlreadyPrepForCoarseAndRefD0Ev, ptr @_ZNK6dealii13ExceptionBase4whatEv, ptr @_ZNK6dealii13ExceptionBase10print_infoERSo] }, comdat, align 8
@_ZTSN6dealii16SolutionTransferILi3ENS_6VectorIdEENS_2hp10DoFHandlerILi3ELi3EEEE29ExcAlreadyPrepForCoarseAndRefE = weak_odr dso_local constant [108 x i8] c"N6dealii16SolutionTransferILi3ENS_6VectorIdEENS_2hp10DoFHandlerILi3ELi3EEEE29ExcAlreadyPrepForCoarseAndRefE\00", comdat, align 1
@_ZTIN6dealii16SolutionTransferILi3ENS_6VectorIdEENS_2hp10DoFHandlerILi3ELi3EEEE29ExcAlreadyPrepForCoarseAndRefE = weak_odr dso_local constant { ptr, ptr, ptr } { ptr getelementptr inbounds (ptr, ptr @_ZTVN10__cxxabiv120__si_class_type_infoE, i64 2), ptr @_ZTSN6dealii16SolutionTransferILi3ENS_6VectorIdEENS_2hp10DoFHandlerILi3ELi3EEEE29ExcAlreadyPrepForCoarseAndRefE, ptr @_ZTIN6dealii13ExceptionBaseE }, comdat, align 8
@_ZTVN6dealii16SolutionTransferILi3ENS_6VectorIdEENS_2hp10DoFHandlerILi3ELi3EEEE36ExcTriaPrepCoarseningNotCalledBeforeE = weak_odr dso_local unnamed_addr constant { [6 x ptr] } { [6 x ptr] [ptr null, ptr @_ZTIN6dealii16SolutionTransferILi3ENS_6VectorIdEENS_2hp10DoFHandlerILi3ELi3EEEE36ExcTriaPrepCoarseningNotCalledBeforeE, ptr @_ZN6dealii13ExceptionBaseD2Ev, ptr @_ZN6dealii16SolutionTransferILi3ENS_6VectorIdEENS_2hp10DoFHandlerILi3ELi3EEEE36ExcTriaPrepCoarseningNotCalledBeforeD0Ev, ptr @_ZNK6dealii13ExceptionBase4whatEv, ptr @_ZNK6dealii13ExceptionBase10print_infoERSo] }, comdat, align 8
@_ZTSN6dealii16SolutionTransferILi3ENS_6VectorIdEENS_2hp10DoFHandlerILi3ELi3EEEE36ExcTriaPrepCoarseningNotCalledBeforeE = weak_odr dso_local constant [115 x i8] c"N6dealii16SolutionTransferILi3ENS_6VectorIdEENS_2hp10DoFHandlerILi3ELi3EEEE36ExcTriaPrepCoarseningNotCalledBeforeE\00", comdat, align 1
@_ZTIN6dealii16SolutionTransferILi3ENS_6VectorIdEENS_2hp10DoFHandlerILi3ELi3EEEE36ExcTriaPrepCoarseningNotCalledBeforeE = weak_odr dso_local constant { ptr, ptr, ptr } { ptr getelementptr inbounds (ptr, ptr @_ZTVN10__cxxabiv120__si_class_type_infoE, i64 2), ptr @_ZTSN6dealii16SolutionTransferILi3ENS_6VectorIdEENS_2hp10DoFHandlerILi3ELi3EEEE36ExcTriaPrepCoarseningNotCalledBeforeE, ptr @_ZTIN6dealii13ExceptionBaseE }, comdat, align 8
@_ZTVN6dealii16SolutionTransferILi3ENS_6VectorIdEENS_2hp10DoFHandlerILi3ELi3EEEE19ExcNoInVectorsGivenE = weak_odr dso_local unnamed_addr constant { [6 x ptr] } { [6 x ptr] [ptr null, ptr @_ZTIN6dealii16SolutionTransferILi3ENS_6VectorIdEENS_2hp10DoFHandlerILi3ELi3EEEE19ExcNoInVectorsGivenE, ptr @_ZN6dealii13ExceptionBaseD2Ev, ptr @_ZN6dealii16SolutionTransferILi3ENS_6VectorIdEENS_2hp10DoFHandlerILi3ELi3EEEE19ExcNoInVectorsGivenD0Ev, ptr @_ZNK6dealii13ExceptionBase4whatEv, ptr @_ZNK6dealii13ExceptionBase10print_infoERSo] }, comdat, align 8
@_ZTSN6dealii16SolutionTransferILi3ENS_6VectorIdEENS_2hp10DoFHandlerILi3ELi3EEEE19ExcNoInVectorsGivenE = weak_odr dso_local constant [98 x i8] c"N6dealii16SolutionTransferILi3ENS_6VectorIdEENS_2hp10DoFHandlerILi3ELi3EEEE19ExcNoInVectorsGivenE\00", comdat, align 1
@_ZTIN6dealii16SolutionTransferILi3ENS_6VectorIdEENS_2hp10DoFHandlerILi3ELi3EEEE19ExcNoInVectorsGivenE = weak_odr dso_local constant { ptr, ptr, ptr } { ptr getelementptr inbounds (ptr, ptr @_ZTVN10__cxxabiv120__si_class_type_infoE, i64 2), ptr @_ZTSN6dealii16SolutionTransferILi3ENS_6VectorIdEENS_2hp10DoFHandlerILi3ELi3EEEE19ExcNoInVectorsGivenE, ptr @_ZTIN6dealii13ExceptionBaseE }, comdat, align 8
@_ZTVN6dealii16SolutionTransferILi3ENS_6VectorIdEENS_2hp10DoFHandlerILi3ELi3EEEE29ExcVectorsDifferFromInVectorsE = weak_odr dso_local unnamed_addr constant { [6 x ptr] } { [6 x ptr] [ptr null, ptr @_ZTIN6dealii16SolutionTransferILi3ENS_6VectorIdEENS_2hp10DoFHandlerILi3ELi3EEEE29ExcVectorsDifferFromInVectorsE, ptr @_ZN6dealii13ExceptionBaseD2Ev, ptr @_ZN6dealii16SolutionTransferILi3ENS_6VectorIdEENS_2hp10DoFHandlerILi3ELi3EEEE29ExcVectorsDifferFromInVectorsD0Ev, ptr @_ZNK6dealii13ExceptionBase4whatEv, ptr @_ZNK6dealii13ExceptionBase10print_infoERSo] }, comdat, align 8
@_ZTSN6dealii16SolutionTransferILi3ENS_6VectorIdEENS_2hp10DoFHandlerILi3ELi3EEEE29ExcVectorsDifferFromInVectorsE = weak_odr dso_local constant [108 x i8] c"N6dealii16SolutionTransferILi3ENS_6VectorIdEENS_2hp10DoFHandlerILi3ELi3EEEE29ExcVectorsDifferFromInVectorsE\00", comdat, align 1
@_ZTIN6dealii16SolutionTransferILi3ENS_6VectorIdEENS_2hp10DoFHandlerILi3ELi3EEEE29ExcVectorsDifferFromInVectorsE = weak_odr dso_local constant { ptr, ptr, ptr } { ptr getelementptr inbounds (ptr, ptr @_ZTVN10__cxxabiv120__si_class_type_infoE, i64 2), ptr @_ZTSN6dealii16SolutionTransferILi3ENS_6VectorIdEENS_2hp10DoFHandlerILi3ELi3EEEE29ExcVectorsDifferFromInVectorsE, ptr @_ZTIN6dealii13ExceptionBaseE }, comdat, align 8
@_ZTVN6dealii16SolutionTransferILi3ENS_6VectorIdEENS_2hp10DoFHandlerILi3ELi3EEEE32ExcNumberOfDoFsPerCellHasChangedE = weak_odr dso_local unnamed_addr constant { [6 x ptr] } { [6 x ptr] [ptr null, ptr @_ZTIN6dealii16SolutionTransferILi3ENS_6VectorIdEENS_2hp10DoFHandlerILi3ELi3EEEE32ExcNumberOfDoFsPerCellHasChangedE, ptr @_ZN6dealii13ExceptionBaseD2Ev, ptr @_ZN6dealii16SolutionTransferILi3ENS_6VectorIdEENS_2hp10DoFHandlerILi3ELi3EEEE32ExcNumberOfDoFsPerCellHasChangedD0Ev, ptr @_ZNK6dealii13ExceptionBase4whatEv, ptr @_ZNK6dealii13ExceptionBase10print_infoERSo] }, comdat, align 8
@_ZTSN6dealii16SolutionTransferILi3ENS_6VectorIdEENS_2hp10DoFHandlerILi3ELi3EEEE32ExcNumberOfDoFsPerCellHasChangedE = weak_odr dso_local constant [111 x i8] c"N6dealii16SolutionTransferILi3ENS_6VectorIdEENS_2hp10DoFHandlerILi3ELi3EEEE32ExcNumberOfDoFsPerCellHasChangedE\00", comdat, align 1
@_ZTIN6dealii16SolutionTransferILi3ENS_6VectorIdEENS_2hp10DoFHandlerILi3ELi3EEEE32ExcNumberOfDoFsPerCellHasChangedE = weak_odr dso_local constant { ptr, ptr, ptr } { ptr getelementptr inbounds (ptr, ptr @_ZTVN10__cxxabiv120__si_class_type_infoE, i64 2), ptr @_ZTSN6dealii16SolutionTransferILi3ENS_6VectorIdEENS_2hp10DoFHandlerILi3ELi3EEEE32ExcNumberOfDoFsPerCellHasChangedE, ptr @_ZTIN6dealii13ExceptionBaseE }, comdat, align 8
@_ZTSN6dealii16SolutionTransferILi3ENS_6VectorIdEENS_2hp10DoFHandlerILi3ELi3EEEE18ExcWrongVectorSizeE = weak_odr dso_local constant [97 x i8] c"N6dealii16SolutionTransferILi3ENS_6VectorIdEENS_2hp10DoFHandlerILi3ELi3EEEE18ExcWrongVectorSizeE\00", comdat, align 1
@_ZTIN6dealii16SolutionTransferILi3ENS_6VectorIdEENS_2hp10DoFHandlerILi3ELi3EEEE18ExcWrongVectorSizeE = weak_odr dso_local constant { ptr, ptr, ptr } { ptr getelementptr inbounds (ptr, ptr @_ZTVN10__cxxabiv120__si_class_type_infoE, i64 2), ptr @_ZTSN6dealii16SolutionTransferILi3ENS_6VectorIdEENS_2hp10DoFHandlerILi3ELi3EEEE18ExcWrongVectorSizeE, ptr @_ZTIN6dealii13ExceptionBaseE }, comdat, align 8
@_ZTVN6dealii16SolutionTransferILi3ENS_11BlockVectorIfEENS_10DoFHandlerILi3ELi3EEEE14ExcNotPreparedE = weak_odr dso_local unnamed_addr constant { [6 x ptr] } { [6 x ptr] [ptr null, ptr @_ZTIN6dealii16SolutionTransferILi3ENS_11BlockVectorIfEENS_10DoFHandlerILi3ELi3EEEE14ExcNotPreparedE, ptr @_ZN6dealii13ExceptionBaseD2Ev, ptr @_ZN6dealii16SolutionTransferILi3ENS_11BlockVectorIfEENS_10DoFHandlerILi3ELi3EEEE14ExcNotPreparedD0Ev, ptr @_ZNK6dealii13ExceptionBase4whatEv, ptr @_ZNK6dealii13ExceptionBase10print_infoERSo] }, comdat, align 8
@_ZTSN6dealii16SolutionTransferILi3ENS_11BlockVectorIfEENS_10DoFHandlerILi3ELi3EEEE14ExcNotPreparedE = weak_odr dso_local constant [96 x i8] c"N6dealii16SolutionTransferILi3ENS_11BlockVectorIfEENS_10DoFHandlerILi3ELi3EEEE14ExcNotPreparedE\00", comdat, align 1
@_ZTIN6dealii16SolutionTransferILi3ENS_11BlockVectorIfEENS_10DoFHandlerILi3ELi3EEEE14ExcNotPreparedE = weak_odr dso_local constant { ptr, ptr, ptr } { ptr getelementptr inbounds (ptr, ptr @_ZTVN10__cxxabiv120__si_class_type_infoE, i64 2), ptr @_ZTSN6dealii16SolutionTransferILi3ENS_11BlockVectorIfEENS_10DoFHandlerILi3ELi3EEEE14ExcNotPreparedE, ptr @_ZTIN6dealii13ExceptionBaseE }, comdat, align 8
@_ZTVN6dealii16SolutionTransferILi3ENS_11BlockVectorIfEENS_10DoFHandlerILi3ELi3EEEE20ExcAlreadyPrepForRefE = weak_odr dso_local unnamed_addr constant { [6 x ptr] } { [6 x ptr] [ptr null, ptr @_ZTIN6dealii16SolutionTransferILi3ENS_11BlockVectorIfEENS_10DoFHandlerILi3ELi3EEEE20ExcAlreadyPrepForRefE, ptr @_ZN6dealii13ExceptionBaseD2Ev, ptr @_ZN6dealii16SolutionTransferILi3ENS_11BlockVectorIfEENS_10DoFHandlerILi3ELi3EEEE20ExcAlreadyPrepForRefD0Ev, ptr @_ZNK6dealii13ExceptionBase4whatEv, ptr @_ZNK6dealii13ExceptionBase10print_infoERSo] }, comdat, align 8
@_ZTSN6dealii16SolutionTransferILi3ENS_11BlockVectorIfEENS_10DoFHandlerILi3ELi3EEEE20ExcAlreadyPrepForRefE = weak_odr dso_local constant [102 x i8] c"N6dealii16SolutionTransferILi3ENS_11BlockVectorIfEENS_10DoFHandlerILi3ELi3EEEE20ExcAlreadyPrepForRefE\00", comdat, align 1
@_ZTIN6dealii16SolutionTransferILi3ENS_11BlockVectorIfEENS_10DoFHandlerILi3ELi3EEEE20ExcAlreadyPrepForRefE = weak_odr dso_local constant { ptr, ptr, ptr } { ptr getelementptr inbounds (ptr, ptr @_ZTVN10__cxxabiv120__si_class_type_infoE, i64 2), ptr @_ZTSN6dealii16SolutionTransferILi3ENS_11BlockVectorIfEENS_10DoFHandlerILi3ELi3EEEE20ExcAlreadyPrepForRefE, ptr @_ZTIN6dealii13ExceptionBaseE }, comdat, align 8
@_ZTVN6dealii16SolutionTransferILi3ENS_11BlockVectorIfEENS_10DoFHandlerILi3ELi3EEEE29ExcAlreadyPrepForCoarseAndRefE = weak_odr dso_local unnamed_addr constant { [6 x ptr] } { [6 x ptr] [ptr null, ptr @_ZTIN6dealii16SolutionTransferILi3ENS_11BlockVectorIfEENS_10DoFHandlerILi3ELi3EEEE29ExcAlreadyPrepForCoarseAndRefE, ptr @_ZN6dealii13ExceptionBaseD2Ev, ptr @_ZN6dealii16SolutionTransferILi3ENS_11BlockVectorIfEENS_10DoFHandlerILi3ELi3EEEE29ExcAlreadyPrepForCoarseAndRefD0Ev, ptr @_ZNK6dealii13ExceptionBase4whatEv, ptr @_ZNK6dealii13ExceptionBase10print_infoERSo] }, comdat, align 8
@_ZTSN6dealii16SolutionTransferILi3ENS_11BlockVectorIfEENS_10DoFHandlerILi3ELi3EEEE29ExcAlreadyPrepForCoarseAndRefE = weak_odr dso_local constant [111 x i8] c"N6dealii16SolutionTransferILi3ENS_11BlockVectorIfEENS_10DoFHandlerILi3ELi3EEEE29ExcAlreadyPrepForCoarseAndRefE\00", comdat, align 1
@_ZTIN6dealii16SolutionTransferILi3ENS_11BlockVectorIfEENS_10DoFHandlerILi3ELi3EEEE29ExcAlreadyPrepForCoarseAndRefE = weak_odr dso_local constant { ptr, ptr, ptr } { ptr getelementptr inbounds (ptr, ptr @_ZTVN10__cxxabiv120__si_class_type_infoE, i64 2), ptr @_ZTSN6dealii16SolutionTransferILi3ENS_11BlockVectorIfEENS_10DoFHandlerILi3ELi3EEEE29ExcAlreadyPrepForCoarseAndRefE, ptr @_ZTIN6dealii13ExceptionBaseE }, comdat, align 8
@_ZTVN6dealii16SolutionTransferILi3ENS_11BlockVectorIfEENS_10DoFHandlerILi3ELi3EEEE36ExcTriaPrepCoarseningNotCalledBeforeE = weak_odr dso_local unnamed_addr constant { [6 x ptr] } { [6 x ptr] [ptr null, ptr @_ZTIN6dealii16SolutionTransferILi3ENS_11BlockVectorIfEENS_10DoFHandlerILi3ELi3EEEE36ExcTriaPrepCoarseningNotCalledBeforeE, ptr @_ZN6dealii13ExceptionBaseD2Ev, ptr @_ZN6dealii16SolutionTransferILi3ENS_11BlockVectorIfEENS_10DoFHandlerILi3ELi3EEEE36ExcTriaPrepCoarseningNotCalledBeforeD0Ev, ptr @_ZNK6dealii13ExceptionBase4whatEv, ptr @_ZNK6dealii13ExceptionBase10print_infoERSo] }, comdat, align 8
@_ZTSN6dealii16SolutionTransferILi3ENS_11BlockVectorIfEENS_10DoFHandlerILi3ELi3EEEE36ExcTriaPrepCoarseningNotCalledBeforeE = weak_odr dso_local constant [118 x i8] c"N6dealii16SolutionTransferILi3ENS_11BlockVectorIfEENS_10DoFHandlerILi3ELi3EEEE36ExcTriaPrepCoarseningNotCalledBeforeE\00", comdat, align 1
@_ZTIN6dealii16SolutionTransferILi3ENS_11BlockVectorIfEENS_10DoFHandlerILi3ELi3EEEE36ExcTriaPrepCoarseningNotCalledBeforeE = weak_odr dso_local constant { ptr, ptr, ptr } { ptr getelementptr inbounds (ptr, ptr @_ZTVN10__cxxabiv120__si_class_type_infoE, i64 2), ptr @_ZTSN6dealii16SolutionTransferILi3ENS_11BlockVectorIfEENS_10DoFHandlerILi3ELi3EEEE36ExcTriaPrepCoarseningNotCalledBeforeE, ptr @_ZTIN6dealii13ExceptionBaseE }, comdat, align 8
@_ZTVN6dealii16SolutionTransferILi3ENS_11BlockVectorIfEENS_10DoFHandlerILi3ELi3EEEE19ExcNoInVectorsGivenE = weak_odr dso_local unnamed_addr constant { [6 x ptr] } { [6 x ptr] [ptr null, ptr @_ZTIN6dealii16SolutionTransferILi3ENS_11BlockVectorIfEENS_10DoFHandlerILi3ELi3EEEE19ExcNoInVectorsGivenE, ptr @_ZN6dealii13ExceptionBaseD2Ev, ptr @_ZN6dealii16SolutionTransferILi3ENS_11BlockVectorIfEENS_10DoFHandlerILi3ELi3EEEE19ExcNoInVectorsGivenD0Ev, ptr @_ZNK6dealii13ExceptionBase4whatEv, ptr @_ZNK6dealii13ExceptionBase10print_infoERSo] }, comdat, align 8
@_ZTSN6dealii16SolutionTransferILi3ENS_11BlockVectorIfEENS_10DoFHandlerILi3ELi3EEEE19ExcNoInVectorsGivenE = weak_odr dso_local constant [101 x i8] c"N6dealii16SolutionTransferILi3ENS_11BlockVectorIfEENS_10DoFHandlerILi3ELi3EEEE19ExcNoInVectorsGivenE\00", comdat, align 1
@_ZTIN6dealii16SolutionTransferILi3ENS_11BlockVectorIfEENS_10DoFHandlerILi3ELi3EEEE19ExcNoInVectorsGivenE = weak_odr dso_local constant { ptr, ptr, ptr } { ptr getelementptr inbounds (ptr, ptr @_ZTVN10__cxxabiv120__si_class_type_infoE, i64 2), ptr @_ZTSN6dealii16SolutionTransferILi3ENS_11BlockVectorIfEENS_10DoFHandlerILi3ELi3EEEE19ExcNoInVectorsGivenE, ptr @_ZTIN6dealii13ExceptionBaseE }, comdat, align 8
@_ZTVN6dealii16SolutionTransferILi3ENS_11BlockVectorIfEENS_10DoFHandlerILi3ELi3EEEE29ExcVectorsDifferFromInVectorsE = weak_odr dso_local unnamed_addr constant { [6 x ptr] } { [6 x ptr] [ptr null, ptr @_ZTIN6dealii16SolutionTransferILi3ENS_11BlockVectorIfEENS_10DoFHandlerILi3ELi3EEEE29ExcVectorsDifferFromInVectorsE, ptr @_ZN6dealii13ExceptionBaseD2Ev, ptr @_ZN6dealii16SolutionTransferILi3ENS_11BlockVectorIfEENS_10DoFHandlerILi3ELi3EEEE29ExcVectorsDifferFromInVectorsD0Ev, ptr @_ZNK6dealii13ExceptionBase4whatEv, ptr @_ZNK6dealii13ExceptionBase10print_infoERSo] }, comdat, align 8
@_ZTSN6dealii16SolutionTransferILi3ENS_11BlockVectorIfEENS_10DoFHandlerILi3ELi3EEEE29ExcVectorsDifferFromInVectorsE = weak_odr dso_local constant [111 x i8] c"N6dealii16SolutionTransferILi3ENS_11BlockVectorIfEENS_10DoFHandlerILi3ELi3EEEE29ExcVectorsDifferFromInVectorsE\00", comdat, align 1
@_ZTIN6dealii16SolutionTransferILi3ENS_11BlockVectorIfEENS_10DoFHandlerILi3ELi3EEEE29ExcVectorsDifferFromInVectorsE = weak_odr dso_local constant { ptr, ptr, ptr } { ptr getelementptr inbounds (ptr, ptr @_ZTVN10__cxxabiv120__si_class_type_infoE, i64 2), ptr @_ZTSN6dealii16SolutionTransferILi3ENS_11BlockVectorIfEENS_10DoFHandlerILi3ELi3EEEE29ExcVectorsDifferFromInVectorsE, ptr @_ZTIN6dealii13ExceptionBaseE }, comdat, align 8
@_ZTVN6dealii16SolutionTransferILi3ENS_11BlockVectorIfEENS_10DoFHandlerILi3ELi3EEEE32ExcNumberOfDoFsPerCellHasChangedE = weak_odr dso_local unnamed_addr constant { [6 x ptr] } { [6 x ptr] [ptr null, ptr @_ZTIN6dealii16SolutionTransferILi3ENS_11BlockVectorIfEENS_10DoFHandlerILi3ELi3EEEE32ExcNumberOfDoFsPerCellHasChangedE, ptr @_ZN6dealii13ExceptionBaseD2Ev, ptr @_ZN6dealii16SolutionTransferILi3ENS_11BlockVectorIfEENS_10DoFHandlerILi3ELi3EEEE32ExcNumberOfDoFsPerCellHasChangedD0Ev, ptr @_ZNK6dealii13ExceptionBase4whatEv, ptr @_ZNK6dealii13ExceptionBase10print_infoERSo] }, comdat, align 8
@_ZTSN6dealii16SolutionTransferILi3ENS_11BlockVectorIfEENS_10DoFHandlerILi3ELi3EEEE32ExcNumberOfDoFsPerCellHasChangedE = weak_odr dso_local constant [114 x i8] c"N6dealii16SolutionTransferILi3ENS_11BlockVectorIfEENS_10DoFHandlerILi3ELi3EEEE32ExcNumberOfDoFsPerCellHasChangedE\00", comdat, align 1
@_ZTIN6dealii16SolutionTransferILi3ENS_11BlockVectorIfEENS_10DoFHandlerILi3ELi3EEEE32ExcNumberOfDoFsPerCellHasChangedE = weak_odr dso_local constant { ptr, ptr, ptr } { ptr getelementptr inbounds (ptr, ptr @_ZTVN10__cxxabiv120__si_class_type_infoE, i64 2), ptr @_ZTSN6dealii16SolutionTransferILi3ENS_11BlockVectorIfEENS_10DoFHandlerILi3ELi3EEEE32ExcNumberOfDoFsPerCellHasChangedE, ptr @_ZTIN6dealii13ExceptionBaseE }, comdat, align 8
@_ZTSN6dealii16SolutionTransferILi3ENS_11BlockVectorIfEENS_10DoFHandlerILi3ELi3EEEE18ExcWrongVectorSizeE = weak_odr dso_local constant [100 x i8] c"N6dealii16SolutionTransferILi3ENS_11BlockVectorIfEENS_10DoFHandlerILi3ELi3EEEE18ExcWrongVectorSizeE\00", comdat, align 1
@_ZTIN6dealii16SolutionTransferILi3ENS_11BlockVectorIfEENS_10DoFHandlerILi3ELi3EEEE18ExcWrongVectorSizeE = weak_odr dso_local constant { ptr, ptr, ptr } { ptr getelementptr inbounds (ptr, ptr @_ZTVN10__cxxabiv120__si_class_type_infoE, i64 2), ptr @_ZTSN6dealii16SolutionTransferILi3ENS_11BlockVectorIfEENS_10DoFHandlerILi3ELi3EEEE18ExcWrongVectorSizeE, ptr @_ZTIN6dealii13ExceptionBaseE }, comdat, align 8
@_ZTVN6dealii16SolutionTransferILi3ENS_11BlockVectorIdEENS_10DoFHandlerILi3ELi3EEEE14ExcNotPreparedE = weak_odr dso_local unnamed_addr constant { [6 x ptr] } { [6 x ptr] [ptr null, ptr @_ZTIN6dealii16SolutionTransferILi3ENS_11BlockVectorIdEENS_10DoFHandlerILi3ELi3EEEE14ExcNotPreparedE, ptr @_ZN6dealii13ExceptionBaseD2Ev, ptr @_ZN6dealii16SolutionTransferILi3ENS_11BlockVectorIdEENS_10DoFHandlerILi3ELi3EEEE14ExcNotPreparedD0Ev, ptr @_ZNK6dealii13ExceptionBase4whatEv, ptr @_ZNK6dealii13ExceptionBase10print_infoERSo] }, comdat, align 8
@_ZTSN6dealii16SolutionTransferILi3ENS_11BlockVectorIdEENS_10DoFHandlerILi3ELi3EEEE14ExcNotPreparedE = weak_odr dso_local constant [96 x i8] c"N6dealii16SolutionTransferILi3ENS_11BlockVectorIdEENS_10DoFHandlerILi3ELi3EEEE14ExcNotPreparedE\00", comdat, align 1
@_ZTIN6dealii16SolutionTransferILi3ENS_11BlockVectorIdEENS_10DoFHandlerILi3ELi3EEEE14ExcNotPreparedE = weak_odr dso_local constant { ptr, ptr, ptr } { ptr getelementptr inbounds (ptr, ptr @_ZTVN10__cxxabiv120__si_class_type_infoE, i64 2), ptr @_ZTSN6dealii16SolutionTransferILi3ENS_11BlockVectorIdEENS_10DoFHandlerILi3ELi3EEEE14ExcNotPreparedE, ptr @_ZTIN6dealii13ExceptionBaseE }, comdat, align 8
@_ZTVN6dealii16SolutionTransferILi3ENS_11BlockVectorIdEENS_10DoFHandlerILi3ELi3EEEE20ExcAlreadyPrepForRefE = weak_odr dso_local unnamed_addr constant { [6 x ptr] } { [6 x ptr] [ptr null, ptr @_ZTIN6dealii16SolutionTransferILi3ENS_11BlockVectorIdEENS_10DoFHandlerILi3ELi3EEEE20ExcAlreadyPrepForRefE, ptr @_ZN6dealii13ExceptionBaseD2Ev, ptr @_ZN6dealii16SolutionTransferILi3ENS_11BlockVectorIdEENS_10DoFHandlerILi3ELi3EEEE20ExcAlreadyPrepForRefD0Ev, ptr @_ZNK6dealii13ExceptionBase4whatEv, ptr @_ZNK6dealii13ExceptionBase10print_infoERSo] }, comdat, align 8
@_ZTSN6dealii16SolutionTransferILi3ENS_11BlockVectorIdEENS_10DoFHandlerILi3ELi3EEEE20ExcAlreadyPrepForRefE = weak_odr dso_local constant [102 x i8] c"N6dealii16SolutionTransferILi3ENS_11BlockVectorIdEENS_10DoFHandlerILi3ELi3EEEE20ExcAlreadyPrepForRefE\00", comdat, align 1
@_ZTIN6dealii16SolutionTransferILi3ENS_11BlockVectorIdEENS_10DoFHandlerILi3ELi3EEEE20ExcAlreadyPrepForRefE = weak_odr dso_local constant { ptr, ptr, ptr } { ptr getelementptr inbounds (ptr, ptr @_ZTVN10__cxxabiv120__si_class_type_infoE, i64 2), ptr @_ZTSN6dealii16SolutionTransferILi3ENS_11BlockVectorIdEENS_10DoFHandlerILi3ELi3EEEE20ExcAlreadyPrepForRefE, ptr @_ZTIN6dealii13ExceptionBaseE }, comdat, align 8
@_ZTVN6dealii16SolutionTransferILi3ENS_11BlockVectorIdEENS_10DoFHandlerILi3ELi3EEEE29ExcAlreadyPrepForCoarseAndRefE = weak_odr dso_local unnamed_addr constant { [6 x ptr] } { [6 x ptr] [ptr null, ptr @_ZTIN6dealii16SolutionTransferILi3ENS_11BlockVectorIdEENS_10DoFHandlerILi3ELi3EEEE29ExcAlreadyPrepForCoarseAndRefE, ptr @_ZN6dealii13ExceptionBaseD2Ev, ptr @_ZN6dealii16SolutionTransferILi3ENS_11BlockVectorIdEENS_10DoFHandlerILi3ELi3EEEE29ExcAlreadyPrepForCoarseAndRefD0Ev, ptr @_ZNK6dealii13ExceptionBase4whatEv, ptr @_ZNK6dealii13ExceptionBase10print_infoERSo] }, comdat, align 8
@_ZTSN6dealii16SolutionTransferILi3ENS_11BlockVectorIdEENS_10DoFHandlerILi3ELi3EEEE29ExcAlreadyPrepForCoarseAndRefE = weak_odr dso_local constant [111 x i8] c"N6dealii16SolutionTransferILi3ENS_11BlockVectorIdEENS_10DoFHandlerILi3ELi3EEEE29ExcAlreadyPrepForCoarseAndRefE\00", comdat, align 1
@_ZTIN6dealii16SolutionTransferILi3ENS_11BlockVectorIdEENS_10DoFHandlerILi3ELi3EEEE29ExcAlreadyPrepForCoarseAndRefE = weak_odr dso_local constant { ptr, ptr, ptr } { ptr getelementptr inbounds (ptr, ptr @_ZTVN10__cxxabiv120__si_class_type_infoE, i64 2), ptr @_ZTSN6dealii16SolutionTransferILi3ENS_11BlockVectorIdEENS_10DoFHandlerILi3ELi3EEEE29ExcAlreadyPrepForCoarseAndRefE, ptr @_ZTIN6dealii13ExceptionBaseE }, comdat, align 8
@_ZTVN6dealii16SolutionTransferILi3ENS_11BlockVectorIdEENS_10DoFHandlerILi3ELi3EEEE36ExcTriaPrepCoarseningNotCalledBeforeE = weak_odr dso_local unnamed_addr constant { [6 x ptr] } { [6 x ptr] [ptr null, ptr @_ZTIN6dealii16SolutionTransferILi3ENS_11BlockVectorIdEENS_10DoFHandlerILi3ELi3EEEE36ExcTriaPrepCoarseningNotCalledBeforeE, ptr @_ZN6dealii13ExceptionBaseD2Ev, ptr @_ZN6dealii16SolutionTransferILi3ENS_11BlockVectorIdEENS_10DoFHandlerILi3ELi3EEEE36ExcTriaPrepCoarseningNotCalledBeforeD0Ev, ptr @_ZNK6dealii13ExceptionBase4whatEv, ptr @_ZNK6dealii13ExceptionBase10print_infoERSo] }, comdat, align 8
@_ZTSN6dealii16SolutionTransferILi3ENS_11BlockVectorIdEENS_10DoFHandlerILi3ELi3EEEE36ExcTriaPrepCoarseningNotCalledBeforeE = weak_odr dso_local constant [118 x i8] c"N6dealii16SolutionTransferILi3ENS_11BlockVectorIdEENS_10DoFHandlerILi3ELi3EEEE36ExcTriaPrepCoarseningNotCalledBeforeE\00", comdat, align 1
@_ZTIN6dealii16SolutionTransferILi3ENS_11BlockVectorIdEENS_10DoFHandlerILi3ELi3EEEE36ExcTriaPrepCoarseningNotCalledBeforeE = weak_odr dso_local constant { ptr, ptr, ptr } { ptr getelementptr inbounds (ptr, ptr @_ZTVN10__cxxabiv120__si_class_type_infoE, i64 2), ptr @_ZTSN6dealii16SolutionTransferILi3ENS_11BlockVectorIdEENS_10DoFHandlerILi3ELi3EEEE36ExcTriaPrepCoarseningNotCalledBeforeE, ptr @_ZTIN6dealii13ExceptionBaseE }, comdat, align 8
@_ZTVN6dealii16SolutionTransferILi3ENS_11BlockVectorIdEENS_10DoFHandlerILi3ELi3EEEE19ExcNoInVectorsGivenE = weak_odr dso_local unnamed_addr constant { [6 x ptr] } { [6 x ptr] [ptr null, ptr @_ZTIN6dealii16SolutionTransferILi3ENS_11BlockVectorIdEENS_10DoFHandlerILi3ELi3EEEE19ExcNoInVectorsGivenE, ptr @_ZN6dealii13ExceptionBaseD2Ev, ptr @_ZN6dealii16SolutionTransferILi3ENS_11BlockVectorIdEENS_10DoFHandlerILi3ELi3EEEE19ExcNoInVectorsGivenD0Ev, ptr @_ZNK6dealii13ExceptionBase4whatEv, ptr @_ZNK6dealii13ExceptionBase10print_infoERSo] }, comdat, align 8
@_ZTSN6dealii16SolutionTransferILi3ENS_11BlockVectorIdEENS_10DoFHandlerILi3ELi3EEEE19ExcNoInVectorsGivenE = weak_odr dso_local constant [101 x i8] c"N6dealii16SolutionTransferILi3ENS_11BlockVectorIdEENS_10DoFHandlerILi3ELi3EEEE19ExcNoInVectorsGivenE\00", comdat, align 1
@_ZTIN6dealii16SolutionTransferILi3ENS_11BlockVectorIdEENS_10DoFHandlerILi3ELi3EEEE19ExcNoInVectorsGivenE = weak_odr dso_local constant { ptr, ptr, ptr } { ptr getelementptr inbounds (ptr, ptr @_ZTVN10__cxxabiv120__si_class_type_infoE, i64 2), ptr @_ZTSN6dealii16SolutionTransferILi3ENS_11BlockVectorIdEENS_10DoFHandlerILi3ELi3EEEE19ExcNoInVectorsGivenE, ptr @_ZTIN6dealii13ExceptionBaseE }, comdat, align 8
@_ZTVN6dealii16SolutionTransferILi3ENS_11BlockVectorIdEENS_10DoFHandlerILi3ELi3EEEE29ExcVectorsDifferFromInVectorsE = weak_odr dso_local unnamed_addr constant { [6 x ptr] } { [6 x ptr] [ptr null, ptr @_ZTIN6dealii16SolutionTransferILi3ENS_11BlockVectorIdEENS_10DoFHandlerILi3ELi3EEEE29ExcVectorsDifferFromInVectorsE, ptr @_ZN6dealii13ExceptionBaseD2Ev, ptr @_ZN6dealii16SolutionTransferILi3ENS_11BlockVectorIdEENS_10DoFHandlerILi3ELi3EEEE29ExcVectorsDifferFromInVectorsD0Ev, ptr @_ZNK6dealii13ExceptionBase4whatEv, ptr @_ZNK6dealii13ExceptionBase10print_infoERSo] }, comdat, align 8
@_ZTSN6dealii16SolutionTransferILi3ENS_11BlockVectorIdEENS_10DoFHandlerILi3ELi3EEEE29ExcVectorsDifferFromInVectorsE = weak_odr dso_local constant [111 x i8] c"N6dealii16SolutionTransferILi3ENS_11BlockVectorIdEENS_10DoFHandlerILi3ELi3EEEE29ExcVectorsDifferFromInVectorsE\00", comdat, align 1
@_ZTIN6dealii16SolutionTransferILi3ENS_11BlockVectorIdEENS_10DoFHandlerILi3ELi3EEEE29ExcVectorsDifferFromInVectorsE = weak_odr dso_local constant { ptr, ptr, ptr } { ptr getelementptr inbounds (ptr, ptr @_ZTVN10__cxxabiv120__si_class_type_infoE, i64 2), ptr @_ZTSN6dealii16SolutionTransferILi3ENS_11BlockVectorIdEENS_10DoFHandlerILi3ELi3EEEE29ExcVectorsDifferFromInVectorsE, ptr @_ZTIN6dealii13ExceptionBaseE }, comdat, align 8
@_ZTVN6dealii16SolutionTransferILi3ENS_11BlockVectorIdEENS_10DoFHandlerILi3ELi3EEEE32ExcNumberOfDoFsPerCellHasChangedE = weak_odr dso_local unnamed_addr constant { [6 x ptr] } { [6 x ptr] [ptr null, ptr @_ZTIN6dealii16SolutionTransferILi3ENS_11BlockVectorIdEENS_10DoFHandlerILi3ELi3EEEE32ExcNumberOfDoFsPerCellHasChangedE, ptr @_ZN6dealii13ExceptionBaseD2Ev, ptr @_ZN6dealii16SolutionTransferILi3ENS_11BlockVectorIdEENS_10DoFHandlerILi3ELi3EEEE32ExcNumberOfDoFsPerCellHasChangedD0Ev, ptr @_ZNK6dealii13ExceptionBase4whatEv, ptr @_ZNK6dealii13ExceptionBase10print_infoERSo] }, comdat, align 8
@_ZTSN6dealii16SolutionTransferILi3ENS_11BlockVectorIdEENS_10DoFHandlerILi3ELi3EEEE32ExcNumberOfDoFsPerCellHasChangedE = weak_odr dso_local constant [114 x i8] c"N6dealii16SolutionTransferILi3ENS_11BlockVectorIdEENS_10DoFHandlerILi3ELi3EEEE32ExcNumberOfDoFsPerCellHasChangedE\00", comdat, align 1
@_ZTIN6dealii16SolutionTransferILi3ENS_11BlockVectorIdEENS_10DoFHandlerILi3ELi3EEEE32ExcNumberOfDoFsPerCellHasChangedE = weak_odr dso_local constant { ptr, ptr, ptr } { ptr getelementptr inbounds (ptr, ptr @_ZTVN10__cxxabiv120__si_class_type_infoE, i64 2), ptr @_ZTSN6dealii16SolutionTransferILi3ENS_11BlockVectorIdEENS_10DoFHandlerILi3ELi3EEEE32ExcNumberOfDoFsPerCellHasChangedE, ptr @_ZTIN6dealii13ExceptionBaseE }, comdat, align 8
@_ZTSN6dealii16SolutionTransferILi3ENS_11BlockVectorIdEENS_10DoFHandlerILi3ELi3EEEE18ExcWrongVectorSizeE = weak_odr dso_local constant [100 x i8] c"N6dealii16SolutionTransferILi3ENS_11BlockVectorIdEENS_10DoFHandlerILi3ELi3EEEE18ExcWrongVectorSizeE\00", comdat, align 1
@_ZTIN6dealii16SolutionTransferILi3ENS_11BlockVectorIdEENS_10DoFHandlerILi3ELi3EEEE18ExcWrongVectorSizeE = weak_odr dso_local constant { ptr, ptr, ptr } { ptr getelementptr inbounds (ptr, ptr @_ZTVN10__cxxabiv120__si_class_type_infoE, i64 2), ptr @_ZTSN6dealii16SolutionTransferILi3ENS_11BlockVectorIdEENS_10DoFHandlerILi3ELi3EEEE18ExcWrongVectorSizeE, ptr @_ZTIN6dealii13ExceptionBaseE }, comdat, align 8
@_ZTVN6dealii16SolutionTransferILi3ENS_11BlockVectorIfEENS_2hp10DoFHandlerILi3ELi3EEEE14ExcNotPreparedE = weak_odr dso_local unnamed_addr constant { [6 x ptr] } { [6 x ptr] [ptr null, ptr @_ZTIN6dealii16SolutionTransferILi3ENS_11BlockVectorIfEENS_2hp10DoFHandlerILi3ELi3EEEE14ExcNotPreparedE, ptr @_ZN6dealii13ExceptionBaseD2Ev, ptr @_ZN6dealii16SolutionTransferILi3ENS_11BlockVectorIfEENS_2hp10DoFHandlerILi3ELi3EEEE14ExcNotPreparedD0Ev, ptr @_ZNK6dealii13ExceptionBase4whatEv, ptr @_ZNK6dealii13ExceptionBase10print_infoERSo] }, comdat, align 8
@_ZTSN6dealii16SolutionTransferILi3ENS_11BlockVectorIfEENS_2hp10DoFHandlerILi3ELi3EEEE14ExcNotPreparedE = weak_odr dso_local constant [99 x i8] c"N6dealii16SolutionTransferILi3ENS_11BlockVectorIfEENS_2hp10DoFHandlerILi3ELi3EEEE14ExcNotPreparedE\00", comdat, align 1
@_ZTIN6dealii16SolutionTransferILi3ENS_11BlockVectorIfEENS_2hp10DoFHandlerILi3ELi3EEEE14ExcNotPreparedE = weak_odr dso_local constant { ptr, ptr, ptr } { ptr getelementptr inbounds (ptr, ptr @_ZTVN10__cxxabiv120__si_class_type_infoE, i64 2), ptr @_ZTSN6dealii16SolutionTransferILi3ENS_11BlockVectorIfEENS_2hp10DoFHandlerILi3ELi3EEEE14ExcNotPreparedE, ptr @_ZTIN6dealii13ExceptionBaseE }, comdat, align 8
@_ZTVN6dealii16SolutionTransferILi3ENS_11BlockVectorIfEENS_2hp10DoFHandlerILi3ELi3EEEE20ExcAlreadyPrepForRefE = weak_odr dso_local unnamed_addr constant { [6 x ptr] } { [6 x ptr] [ptr null, ptr @_ZTIN6dealii16SolutionTransferILi3ENS_11BlockVectorIfEENS_2hp10DoFHandlerILi3ELi3EEEE20ExcAlreadyPrepForRefE, ptr @_ZN6dealii13ExceptionBaseD2Ev, ptr @_ZN6dealii16SolutionTransferILi3ENS_11BlockVectorIfEENS_2hp10DoFHandlerILi3ELi3EEEE20ExcAlreadyPrepForRefD0Ev, ptr @_ZNK6dealii13ExceptionBase4whatEv, ptr @_ZNK6dealii13ExceptionBase10print_infoERSo] }, comdat, align 8
@_ZTSN6dealii16SolutionTransferILi3ENS_11BlockVectorIfEENS_2hp10DoFHandlerILi3ELi3EEEE20ExcAlreadyPrepForRefE = weak_odr dso_local constant [105 x i8] c"N6dealii16SolutionTransferILi3ENS_11BlockVectorIfEENS_2hp10DoFHandlerILi3ELi3EEEE20ExcAlreadyPrepForRefE\00", comdat, align 1
@_ZTIN6dealii16SolutionTransferILi3ENS_11BlockVectorIfEENS_2hp10DoFHandlerILi3ELi3EEEE20ExcAlreadyPrepForRefE = weak_odr dso_local constant { ptr, ptr, ptr } { ptr getelementptr inbounds (ptr, ptr @_ZTVN10__cxxabiv120__si_class_type_infoE, i64 2), ptr @_ZTSN6dealii16SolutionTransferILi3ENS_11BlockVectorIfEENS_2hp10DoFHandlerILi3ELi3EEEE20ExcAlreadyPrepForRefE, ptr @_ZTIN6dealii13ExceptionBaseE }, comdat, align 8
@_ZTVN6dealii16SolutionTransferILi3ENS_11BlockVectorIfEENS_2hp10DoFHandlerILi3ELi3EEEE29ExcAlreadyPrepForCoarseAndRefE = weak_odr dso_local unnamed_addr constant { [6 x ptr] } { [6 x ptr] [ptr null, ptr @_ZTIN6dealii16SolutionTransferILi3ENS_11BlockVectorIfEENS_2hp10DoFHandlerILi3ELi3EEEE29ExcAlreadyPrepForCoarseAndRefE, ptr @_ZN6dealii13ExceptionBaseD2Ev, ptr @_ZN6dealii16SolutionTransferILi3ENS_11BlockVectorIfEENS_2hp10DoFHandlerILi3ELi3EEEE29ExcAlreadyPrepForCoarseAndRefD0Ev, ptr @_ZNK6dealii13ExceptionBase4whatEv, ptr @_ZNK6dealii13ExceptionBase10print_infoERSo] }, comdat, align 8
@_ZTSN6dealii16SolutionTransferILi3ENS_11BlockVectorIfEENS_2hp10DoFHandlerILi3ELi3EEEE29ExcAlreadyPrepForCoarseAndRefE = weak_odr dso_local constant [114 x i8] c"N6dealii16SolutionTransferILi3ENS_11BlockVectorIfEENS_2hp10DoFHandlerILi3ELi3EEEE29ExcAlreadyPrepForCoarseAndRefE\00", comdat, align 1
@_ZTIN6dealii16SolutionTransferILi3ENS_11BlockVectorIfEENS_2hp10DoFHandlerILi3ELi3EEEE29ExcAlreadyPrepForCoarseAndRefE = weak_odr dso_local constant { ptr, ptr, ptr } { ptr getelementptr inbounds (ptr, ptr @_ZTVN10__cxxabiv120__si_class_type_infoE, i64 2), ptr @_ZTSN6dealii16SolutionTransferILi3ENS_11BlockVectorIfEENS_2hp10DoFHandlerILi3ELi3EEEE29ExcAlreadyPrepForCoarseAndRefE, ptr @_ZTIN6dealii13ExceptionBaseE }, comdat, align 8
@_ZTVN6dealii16SolutionTransferILi3ENS_11BlockVectorIfEENS_2hp10DoFHandlerILi3ELi3EEEE36ExcTriaPrepCoarseningNotCalledBeforeE = weak_odr dso_local unnamed_addr constant { [6 x ptr] } { [6 x ptr] [ptr null, ptr @_ZTIN6dealii16SolutionTransferILi3ENS_11BlockVectorIfEENS_2hp10DoFHandlerILi3ELi3EEEE36ExcTriaPrepCoarseningNotCalledBeforeE, ptr @_ZN6dealii13ExceptionBaseD2Ev, ptr @_ZN6dealii16SolutionTransferILi3ENS_11BlockVectorIfEENS_2hp10DoFHandlerILi3ELi3EEEE36ExcTriaPrepCoarseningNotCalledBeforeD0Ev, ptr @_ZNK6dealii13ExceptionBase4whatEv, ptr @_ZNK6dealii13ExceptionBase10print_infoERSo] }, comdat, align 8
@_ZTSN6dealii16SolutionTransferILi3ENS_11BlockVectorIfEENS_2hp10DoFHandlerILi3ELi3EEEE36ExcTriaPrepCoarseningNotCalledBeforeE = weak_odr dso_local constant [121 x i8] c"N6dealii16SolutionTransferILi3ENS_11BlockVectorIfEENS_2hp10DoFHandlerILi3ELi3EEEE36ExcTriaPrepCoarseningNotCalledBeforeE\00", comdat, align 1
@_ZTIN6dealii16SolutionTransferILi3ENS_11BlockVectorIfEENS_2hp10DoFHandlerILi3ELi3EEEE36ExcTriaPrepCoarseningNotCalledBeforeE = weak_odr dso_local constant { ptr, ptr, ptr } { ptr getelementptr inbounds (ptr, ptr @_ZTVN10__cxxabiv120__si_class_type_infoE, i64 2), ptr @_ZTSN6dealii16SolutionTransferILi3ENS_11BlockVectorIfEENS_2hp10DoFHandlerILi3ELi3EEEE36ExcTriaPrepCoarseningNotCalledBeforeE, ptr @_ZTIN6dealii13ExceptionBaseE }, comdat, align 8
@_ZTVN6dealii16SolutionTransferILi3ENS_11BlockVectorIfEENS_2hp10DoFHandlerILi3ELi3EEEE19ExcNoInVectorsGivenE = weak_odr dso_local unnamed_addr constant { [6 x ptr] } { [6 x ptr] [ptr null, ptr @_ZTIN6dealii16SolutionTransferILi3ENS_11BlockVectorIfEENS_2hp10DoFHandlerILi3ELi3EEEE19ExcNoInVectorsGivenE, ptr @_ZN6dealii13ExceptionBaseD2Ev, ptr @_ZN6dealii16SolutionTransferILi3ENS_11BlockVectorIfEENS_2hp10DoFHandlerILi3ELi3EEEE19ExcNoInVectorsGivenD0Ev, ptr @_ZNK6dealii13ExceptionBase4whatEv, ptr @_ZNK6dealii13ExceptionBase10print_infoERSo] }, comdat, align 8
@_ZTSN6dealii16SolutionTransferILi3ENS_11BlockVectorIfEENS_2hp10DoFHandlerILi3ELi3EEEE19ExcNoInVectorsGivenE = weak_odr dso_local constant [104 x i8] c"N6dealii16SolutionTransferILi3ENS_11BlockVectorIfEENS_2hp10DoFHandlerILi3ELi3EEEE19ExcNoInVectorsGivenE\00", comdat, align 1
@_ZTIN6dealii16SolutionTransferILi3ENS_11BlockVectorIfEENS_2hp10DoFHandlerILi3ELi3EEEE19ExcNoInVectorsGivenE = weak_odr dso_local constant { ptr, ptr, ptr } { ptr getelementptr inbounds (ptr, ptr @_ZTVN10__cxxabiv120__si_class_type_infoE, i64 2), ptr @_ZTSN6dealii16SolutionTransferILi3ENS_11BlockVectorIfEENS_2hp10DoFHandlerILi3ELi3EEEE19ExcNoInVectorsGivenE, ptr @_ZTIN6dealii13ExceptionBaseE }, comdat, align 8
@_ZTVN6dealii16SolutionTransferILi3ENS_11BlockVectorIfEENS_2hp10DoFHandlerILi3ELi3EEEE29ExcVectorsDifferFromInVectorsE = weak_odr dso_local unnamed_addr constant { [6 x ptr] } { [6 x ptr] [ptr null, ptr @_ZTIN6dealii16SolutionTransferILi3ENS_11BlockVectorIfEENS_2hp10DoFHandlerILi3ELi3EEEE29ExcVectorsDifferFromInVectorsE, ptr @_ZN6dealii13ExceptionBaseD2Ev, ptr @_ZN6dealii16SolutionTransferILi3ENS_11BlockVectorIfEENS_2hp10DoFHandlerILi3ELi3EEEE29ExcVectorsDifferFromInVectorsD0Ev, ptr @_ZNK6dealii13ExceptionBase4whatEv, ptr @_ZNK6dealii13ExceptionBase10print_infoERSo] }, comdat, align 8
@_ZTSN6dealii16SolutionTransferILi3ENS_11BlockVectorIfEENS_2hp10DoFHandlerILi3ELi3EEEE29ExcVectorsDifferFromInVectorsE = weak_odr dso_local constant [114 x i8] c"N6dealii16SolutionTransferILi3ENS_11BlockVectorIfEENS_2hp10DoFHandlerILi3ELi3EEEE29ExcVectorsDifferFromInVectorsE\00", comdat, align 1
@_ZTIN6dealii16SolutionTransferILi3ENS_11BlockVectorIfEENS_2hp10DoFHandlerILi3ELi3EEEE29ExcVectorsDifferFromInVectorsE = weak_odr dso_local constant { ptr, ptr, ptr } { ptr getelementptr inbounds (ptr, ptr @_ZTVN10__cxxabiv120__si_class_type_infoE, i64 2), ptr @_ZTSN6dealii16SolutionTransferILi3ENS_11BlockVectorIfEENS_2hp10DoFHandlerILi3ELi3EEEE29ExcVectorsDifferFromInVectorsE, ptr @_ZTIN6dealii13ExceptionBaseE }, comdat, align 8
@_ZTVN6dealii16SolutionTransferILi3ENS_11BlockVectorIfEENS_2hp10DoFHandlerILi3ELi3EEEE32ExcNumberOfDoFsPerCellHasChangedE = weak_odr dso_local unnamed_addr constant { [6 x ptr] } { [6 x ptr] [ptr null, ptr @_ZTIN6dealii16SolutionTransferILi3ENS_11BlockVectorIfEENS_2hp10DoFHandlerILi3ELi3EEEE32ExcNumberOfDoFsPerCellHasChangedE, ptr @_ZN6dealii13ExceptionBaseD2Ev, ptr @_ZN6dealii16SolutionTransferILi3ENS_11BlockVectorIfEENS_2hp10DoFHandlerILi3ELi3EEEE32ExcNumberOfDoFsPerCellHasChangedD0Ev, ptr @_ZNK6dealii13ExceptionBase4whatEv, ptr @_ZNK6dealii13ExceptionBase10print_infoERSo] }, comdat, align 8
@_ZTSN6dealii16SolutionTransferILi3ENS_11BlockVectorIfEENS_2hp10DoFHandlerILi3ELi3EEEE32ExcNumberOfDoFsPerCellHasChangedE = weak_odr dso_local constant [117 x i8] c"N6dealii16SolutionTransferILi3ENS_11BlockVectorIfEENS_2hp10DoFHandlerILi3ELi3EEEE32ExcNumberOfDoFsPerCellHasChangedE\00", comdat, align 1
@_ZTIN6dealii16SolutionTransferILi3ENS_11BlockVectorIfEENS_2hp10DoFHandlerILi3ELi3EEEE32ExcNumberOfDoFsPerCellHasChangedE = weak_odr dso_local constant { ptr, ptr, ptr } { ptr getelementptr inbounds (ptr, ptr @_ZTVN10__cxxabiv120__si_class_type_infoE, i64 2), ptr @_ZTSN6dealii16SolutionTransferILi3ENS_11BlockVectorIfEENS_2hp10DoFHandlerILi3ELi3EEEE32ExcNumberOfDoFsPerCellHasChangedE, ptr @_ZTIN6dealii13ExceptionBaseE }, comdat, align 8
@_ZTSN6dealii16SolutionTransferILi3ENS_11BlockVectorIfEENS_2hp10DoFHandlerILi3ELi3EEEE18ExcWrongVectorSizeE = weak_odr dso_local constant [103 x i8] c"N6dealii16SolutionTransferILi3ENS_11BlockVectorIfEENS_2hp10DoFHandlerILi3ELi3EEEE18ExcWrongVectorSizeE\00", comdat, align 1
@_ZTIN6dealii16SolutionTransferILi3ENS_11BlockVectorIfEENS_2hp10DoFHandlerILi3ELi3EEEE18ExcWrongVectorSizeE = weak_odr dso_local constant { ptr, ptr, ptr } { ptr getelementptr inbounds (ptr, ptr @_ZTVN10__cxxabiv120__si_class_type_infoE, i64 2), ptr @_ZTSN6dealii16SolutionTransferILi3ENS_11BlockVectorIfEENS_2hp10DoFHandlerILi3ELi3EEEE18ExcWrongVectorSizeE, ptr @_ZTIN6dealii13ExceptionBaseE }, comdat, align 8
@_ZTVN6dealii16SolutionTransferILi3ENS_11BlockVectorIdEENS_2hp10DoFHandlerILi3ELi3EEEE14ExcNotPreparedE = weak_odr dso_local unnamed_addr constant { [6 x ptr] } { [6 x ptr] [ptr null, ptr @_ZTIN6dealii16SolutionTransferILi3ENS_11BlockVectorIdEENS_2hp10DoFHandlerILi3ELi3EEEE14ExcNotPreparedE, ptr @_ZN6dealii13ExceptionBaseD2Ev, ptr @_ZN6dealii16SolutionTransferILi3ENS_11BlockVectorIdEENS_2hp10DoFHandlerILi3ELi3EEEE14ExcNotPreparedD0Ev, ptr @_ZNK6dealii13ExceptionBase4whatEv, ptr @_ZNK6dealii13ExceptionBase10print_infoERSo] }, comdat, align 8
@_ZTSN6dealii16SolutionTransferILi3ENS_11BlockVectorIdEENS_2hp10DoFHandlerILi3ELi3EEEE14ExcNotPreparedE = weak_odr dso_local constant [99 x i8] c"N6dealii16SolutionTransferILi3ENS_11BlockVectorIdEENS_2hp10DoFHandlerILi3ELi3EEEE14ExcNotPreparedE\00", comdat, align 1
@_ZTIN6dealii16SolutionTransferILi3ENS_11BlockVectorIdEENS_2hp10DoFHandlerILi3ELi3EEEE14ExcNotPreparedE = weak_odr dso_local constant { ptr, ptr, ptr } { ptr getelementptr inbounds (ptr, ptr @_ZTVN10__cxxabiv120__si_class_type_infoE, i64 2), ptr @_ZTSN6dealii16SolutionTransferILi3ENS_11BlockVectorIdEENS_2hp10DoFHandlerILi3ELi3EEEE14ExcNotPreparedE, ptr @_ZTIN6dealii13ExceptionBaseE }, comdat, align 8
@_ZTVN6dealii16SolutionTransferILi3ENS_11BlockVectorIdEENS_2hp10DoFHandlerILi3ELi3EEEE20ExcAlreadyPrepForRefE = weak_odr dso_local unnamed_addr constant { [6 x ptr] } { [6 x ptr] [ptr null, ptr @_ZTIN6dealii16SolutionTransferILi3ENS_11BlockVectorIdEENS_2hp10DoFHandlerILi3ELi3EEEE20ExcAlreadyPrepForRefE, ptr @_ZN6dealii13ExceptionBaseD2Ev, ptr @_ZN6dealii16SolutionTransferILi3ENS_11BlockVectorIdEENS_2hp10DoFHandlerILi3ELi3EEEE20ExcAlreadyPrepForRefD0Ev, ptr @_ZNK6dealii13ExceptionBase4whatEv, ptr @_ZNK6dealii13ExceptionBase10print_infoERSo] }, comdat, align 8
@_ZTSN6dealii16SolutionTransferILi3ENS_11BlockVectorIdEENS_2hp10DoFHandlerILi3ELi3EEEE20ExcAlreadyPrepForRefE = weak_odr dso_local constant [105 x i8] c"N6dealii16SolutionTransferILi3ENS_11BlockVectorIdEENS_2hp10DoFHandlerILi3ELi3EEEE20ExcAlreadyPrepForRefE\00", comdat, align 1
@_ZTIN6dealii16SolutionTransferILi3ENS_11BlockVectorIdEENS_2hp10DoFHandlerILi3ELi3EEEE20ExcAlreadyPrepForRefE = weak_odr dso_local constant { ptr, ptr, ptr } { ptr getelementptr inbounds (ptr, ptr @_ZTVN10__cxxabiv120__si_class_type_infoE, i64 2), ptr @_ZTSN6dealii16SolutionTransferILi3ENS_11BlockVectorIdEENS_2hp10DoFHandlerILi3ELi3EEEE20ExcAlreadyPrepForRefE, ptr @_ZTIN6dealii13ExceptionBaseE }, comdat, align 8
@_ZTVN6dealii16SolutionTransferILi3ENS_11BlockVectorIdEENS_2hp10DoFHandlerILi3ELi3EEEE29ExcAlreadyPrepForCoarseAndRefE = weak_odr dso_local unnamed_addr constant { [6 x ptr] } { [6 x ptr] [ptr null, ptr @_ZTIN6dealii16SolutionTransferILi3ENS_11BlockVectorIdEENS_2hp10DoFHandlerILi3ELi3EEEE29ExcAlreadyPrepForCoarseAndRefE, ptr @_ZN6dealii13ExceptionBaseD2Ev, ptr @_ZN6dealii16SolutionTransferILi3ENS_11BlockVectorIdEENS_2hp10DoFHandlerILi3ELi3EEEE29ExcAlreadyPrepForCoarseAndRefD0Ev, ptr @_ZNK6dealii13ExceptionBase4whatEv, ptr @_ZNK6dealii13ExceptionBase10print_infoERSo] }, comdat, align 8
@_ZTSN6dealii16SolutionTransferILi3ENS_11BlockVectorIdEENS_2hp10DoFHandlerILi3ELi3EEEE29ExcAlreadyPrepForCoarseAndRefE = weak_odr dso_local constant [114 x i8] c"N6dealii16SolutionTransferILi3ENS_11BlockVectorIdEENS_2hp10DoFHandlerILi3ELi3EEEE29ExcAlreadyPrepForCoarseAndRefE\00", comdat, align 1
@_ZTIN6dealii16SolutionTransferILi3ENS_11BlockVectorIdEENS_2hp10DoFHandlerILi3ELi3EEEE29ExcAlreadyPrepForCoarseAndRefE = weak_odr dso_local constant { ptr, ptr, ptr } { ptr getelementptr inbounds (ptr, ptr @_ZTVN10__cxxabiv120__si_class_type_infoE, i64 2), ptr @_ZTSN6dealii16SolutionTransferILi3ENS_11BlockVectorIdEENS_2hp10DoFHandlerILi3ELi3EEEE29ExcAlreadyPrepForCoarseAndRefE, ptr @_ZTIN6dealii13ExceptionBaseE }, comdat, align 8
@_ZTVN6dealii16SolutionTransferILi3ENS_11BlockVectorIdEENS_2hp10DoFHandlerILi3ELi3EEEE36ExcTriaPrepCoarseningNotCalledBeforeE = weak_odr dso_local unnamed_addr constant { [6 x ptr] } { [6 x ptr] [ptr null, ptr @_ZTIN6dealii16SolutionTransferILi3ENS_11BlockVectorIdEENS_2hp10DoFHandlerILi3ELi3EEEE36ExcTriaPrepCoarseningNotCalledBeforeE, ptr @_ZN6dealii13ExceptionBaseD2Ev, ptr @_ZN6dealii16SolutionTransferILi3ENS_11BlockVectorIdEENS_2hp10DoFHandlerILi3ELi3EEEE36ExcTriaPrepCoarseningNotCalledBeforeD0Ev, ptr @_ZNK6dealii13ExceptionBase4whatEv, ptr @_ZNK6dealii13ExceptionBase10print_infoERSo] }, comdat, align 8
@_ZTSN6dealii16SolutionTransferILi3ENS_11BlockVectorIdEENS_2hp10DoFHandlerILi3ELi3EEEE36ExcTriaPrepCoarseningNotCalledBeforeE = weak_odr dso_local constant [121 x i8] c"N6dealii16SolutionTransferILi3ENS_11BlockVectorIdEENS_2hp10DoFHandlerILi3ELi3EEEE36ExcTriaPrepCoarseningNotCalledBeforeE\00", comdat, align 1
@_ZTIN6dealii16SolutionTransferILi3ENS_11BlockVectorIdEENS_2hp10DoFHandlerILi3ELi3EEEE36ExcTriaPrepCoarseningNotCalledBeforeE = weak_odr dso_local constant { ptr, ptr, ptr } { ptr getelementptr inbounds (ptr, ptr @_ZTVN10__cxxabiv120__si_class_type_infoE, i64 2), ptr @_ZTSN6dealii16SolutionTransferILi3ENS_11BlockVectorIdEENS_2hp10DoFHandlerILi3ELi3EEEE36ExcTriaPrepCoarseningNotCalledBeforeE, ptr @_ZTIN6dealii13ExceptionBaseE }, comdat, align 8
@_ZTVN6dealii16SolutionTransferILi3ENS_11BlockVectorIdEENS_2hp10DoFHandlerILi3ELi3EEEE19ExcNoInVectorsGivenE = weak_odr dso_local unnamed_addr constant { [6 x ptr] } { [6 x ptr] [ptr null, ptr @_ZTIN6dealii16SolutionTransferILi3ENS_11BlockVectorIdEENS_2hp10DoFHandlerILi3ELi3EEEE19ExcNoInVectorsGivenE, ptr @_ZN6dealii13ExceptionBaseD2Ev, ptr @_ZN6dealii16SolutionTransferILi3ENS_11BlockVectorIdEENS_2hp10DoFHandlerILi3ELi3EEEE19ExcNoInVectorsGivenD0Ev, ptr @_ZNK6dealii13ExceptionBase4whatEv, ptr @_ZNK6dealii13ExceptionBase10print_infoERSo] }, comdat, align 8
@_ZTSN6dealii16SolutionTransferILi3ENS_11BlockVectorIdEENS_2hp10DoFHandlerILi3ELi3EEEE19ExcNoInVectorsGivenE = weak_odr dso_local constant [104 x i8] c"N6dealii16SolutionTransferILi3ENS_11BlockVectorIdEENS_2hp10DoFHandlerILi3ELi3EEEE19ExcNoInVectorsGivenE\00", comdat, align 1
@_ZTIN6dealii16SolutionTransferILi3ENS_11BlockVectorIdEENS_2hp10DoFHandlerILi3ELi3EEEE19ExcNoInVectorsGivenE = weak_odr dso_local constant { ptr, ptr, ptr } { ptr getelementptr inbounds (ptr, ptr @_ZTVN10__cxxabiv120__si_class_type_infoE, i64 2), ptr @_ZTSN6dealii16SolutionTransferILi3ENS_11BlockVectorIdEENS_2hp10DoFHandlerILi3ELi3EEEE19ExcNoInVectorsGivenE, ptr @_ZTIN6dealii13ExceptionBaseE }, comdat, align 8
@_ZTVN6dealii16SolutionTransferILi3ENS_11BlockVectorIdEENS_2hp10DoFHandlerILi3ELi3EEEE29ExcVectorsDifferFromInVectorsE = weak_odr dso_local unnamed_addr constant { [6 x ptr] } { [6 x ptr] [ptr null, ptr @_ZTIN6dealii16SolutionTransferILi3ENS_11BlockVectorIdEENS_2hp10DoFHandlerILi3ELi3EEEE29ExcVectorsDifferFromInVectorsE, ptr @_ZN6dealii13ExceptionBaseD2Ev, ptr @_ZN6dealii16SolutionTransferILi3ENS_11BlockVectorIdEENS_2hp10DoFHandlerILi3ELi3EEEE29ExcVectorsDifferFromInVectorsD0Ev, ptr @_ZNK6dealii13ExceptionBase4whatEv, ptr @_ZNK6dealii13ExceptionBase10print_infoERSo] }, comdat, align 8
@_ZTSN6dealii16SolutionTransferILi3ENS_11BlockVectorIdEENS_2hp10DoFHandlerILi3ELi3EEEE29ExcVectorsDifferFromInVectorsE = weak_odr dso_local constant [114 x i8] c"N6dealii16SolutionTransferILi3ENS_11BlockVectorIdEENS_2hp10DoFHandlerILi3ELi3EEEE29ExcVectorsDifferFromInVectorsE\00", comdat, align 1
@_ZTIN6dealii16SolutionTransferILi3ENS_11BlockVectorIdEENS_2hp10DoFHandlerILi3ELi3EEEE29ExcVectorsDifferFromInVectorsE = weak_odr dso_local constant { ptr, ptr, ptr } { ptr getelementptr inbounds (ptr, ptr @_ZTVN10__cxxabiv120__si_class_type_infoE, i64 2), ptr @_ZTSN6dealii16SolutionTransferILi3ENS_11BlockVectorIdEENS_2hp10DoFHandlerILi3ELi3EEEE29ExcVectorsDifferFromInVectorsE, ptr @_ZTIN6dealii13ExceptionBaseE }, comdat, align 8
@_ZTVN6dealii16SolutionTransferILi3ENS_11BlockVectorIdEENS_2hp10DoFHandlerILi3ELi3EEEE32ExcNumberOfDoFsPerCellHasChangedE = weak_odr dso_local unnamed_addr constant { [6 x ptr] } { [6 x ptr] [ptr null, ptr @_ZTIN6dealii16SolutionTransferILi3ENS_11BlockVectorIdEENS_2hp10DoFHandlerILi3ELi3EEEE32ExcNumberOfDoFsPerCellHasChangedE, ptr @_ZN6dealii13ExceptionBaseD2Ev, ptr @_ZN6dealii16SolutionTransferILi3ENS_11BlockVectorIdEENS_2hp10DoFHandlerILi3ELi3EEEE32ExcNumberOfDoFsPerCellHasChangedD0Ev, ptr @_ZNK6dealii13ExceptionBase4whatEv, ptr @_ZNK6dealii13ExceptionBase10print_infoERSo] }, comdat, align 8
@_ZTSN6dealii16SolutionTransferILi3ENS_11BlockVectorIdEENS_2hp10DoFHandlerILi3ELi3EEEE32ExcNumberOfDoFsPerCellHasChangedE = weak_odr dso_local constant [117 x i8] c"N6dealii16SolutionTransferILi3ENS_11BlockVectorIdEENS_2hp10DoFHandlerILi3ELi3EEEE32ExcNumberOfDoFsPerCellHasChangedE\00", comdat, align 1
@_ZTIN6dealii16SolutionTransferILi3ENS_11BlockVectorIdEENS_2hp10DoFHandlerILi3ELi3EEEE32ExcNumberOfDoFsPerCellHasChangedE = weak_odr dso_local constant { ptr, ptr, ptr } { ptr getelementptr inbounds (ptr, ptr @_ZTVN10__cxxabiv120__si_class_type_infoE, i64 2), ptr @_ZTSN6dealii16SolutionTransferILi3ENS_11BlockVectorIdEENS_2hp10DoFHandlerILi3ELi3EEEE32ExcNumberOfDoFsPerCellHasChangedE, ptr @_ZTIN6dealii13ExceptionBaseE }, comdat, align 8
@_ZTSN6dealii16SolutionTransferILi3ENS_11BlockVectorIdEENS_2hp10DoFHandlerILi3ELi3EEEE18ExcWrongVectorSizeE = weak_odr dso_local constant [103 x i8] c"N6dealii16SolutionTransferILi3ENS_11BlockVectorIdEENS_2hp10DoFHandlerILi3ELi3EEEE18ExcWrongVectorSizeE\00", comdat, align 1
@_ZTIN6dealii16SolutionTransferILi3ENS_11BlockVectorIdEENS_2hp10DoFHandlerILi3ELi3EEEE18ExcWrongVectorSizeE = weak_odr dso_local constant { ptr, ptr, ptr } { ptr getelementptr inbounds (ptr, ptr @_ZTVN10__cxxabiv120__si_class_type_infoE, i64 2), ptr @_ZTSN6dealii16SolutionTransferILi3ENS_11BlockVectorIdEENS_2hp10DoFHandlerILi3ELi3EEEE18ExcWrongVectorSizeE, ptr @_ZTIN6dealii13ExceptionBaseE }, comdat, align 8
@.str.11 = private unnamed_addr constant [23 x i8] c"vector::_M_fill_insert\00", align 1
@.str.12 = private unnamed_addr constant [49 x i8] c"cannot create std::vector larger than max_size()\00", align 1
@_ZTVN6dealii6VectorIfEE = linkonce_odr dso_local unnamed_addr constant { [6 x ptr] } { [6 x ptr] [ptr null, ptr @_ZTIN6dealii6VectorIfEE, ptr @_ZN6dealii6VectorIfED2Ev, ptr @_ZN6dealii6VectorIfED0Ev, ptr @_ZN6dealii6VectorIfE6reinitEjb, ptr @_ZN6dealii6VectorIfE4swapERS1_] }, comdat, align 8
@_ZTSN6dealii6VectorIfEE = linkonce_odr dso_local constant [20 x i8] c"N6dealii6VectorIfEE\00", comdat, align 1
@_ZTIN6dealii11SubscriptorE = external constant ptr
@_ZTIN6dealii6VectorIfEE = linkonce_odr dso_local constant { ptr, ptr, ptr } { ptr getelementptr inbounds (ptr, ptr @_ZTVN10__cxxabiv120__si_class_type_infoE, i64 2), ptr @_ZTSN6dealii6VectorIfEE, ptr @_ZTIN6dealii11SubscriptorE }, comdat, align 8
@_ZTVN6dealii6VectorIdEE = linkonce_odr dso_local unnamed_addr constant { [6 x ptr] } { [6 x ptr] [ptr null, ptr @_ZTIN6dealii6VectorIdEE, ptr @_ZN6dealii6VectorIdED2Ev, ptr @_ZN6dealii6VectorIdED0Ev, ptr @_ZN6dealii6VectorIdE6reinitEjb, ptr @_ZN6dealii6VectorIdE4swapERS1_] }, comdat, align 8
@_ZTSN6dealii6VectorIdEE = linkonce_odr dso_local constant [20 x i8] c"N6dealii6VectorIdEE\00", comdat, align 1
@_ZTIN6dealii6VectorIdEE = linkonce_odr dso_local constant { ptr, ptr, ptr } { ptr getelementptr inbounds (ptr, ptr @_ZTVN10__cxxabiv120__si_class_type_infoE, i64 2), ptr @_ZTSN6dealii6VectorIdEE, ptr @_ZTIN6dealii11SubscriptorE }, comdat, align 8
@_ZZN6dealii8internal12TriaAccessor14Implementation12vertex_indexILi3ELi3EEEjRKNS_12TriaAccessorILi2EXT_EXT0_EEEjE12switch_table = linkonce_odr dso_local local_unnamed_addr constant [2 x [2 x i32]] [[2 x i32] [i32 1, i32 0], [2 x i32] [i32 0, i32 1]], comdat, align 16
@_ZZN6dealii8internal12TriaAccessor14Implementation10line_indexILi3ELi3EEEjRKNS_12TriaAccessorILi3EXT_EXT0_EEEjE12lookup_table = linkonce_odr dso_local local_unnamed_addr constant [12 x [2 x i32]] [[2 x i32] [i32 4, i32 0], [2 x i32] [i32 4, i32 1], [2 x i32] [i32 4, i32 2], [2 x i32] [i32 4, i32 3], [2 x i32] [i32 5, i32 0], [2 x i32] [i32 5, i32 1], [2 x i32] [i32 5, i32 2], [2 x i32] [i32 5, i32 3], [2 x i32] zeroinitializer, [2 x i32] [i32 1, i32 0], [2 x i32] [i32 0, i32 1], [2 x i32] [i32 1, i32 1]], comdat, align 16
@_ZZN6dealii8internal12TriaAccessor14Implementation16line_orientationILi3ELi3EEEbRKNS_12TriaAccessorILi3EXT_EXT0_EEEjE12lookup_table = linkonce_odr dso_local local_unnamed_addr constant [12 x [2 x i32]] [[2 x i32] [i32 4, i32 0], [2 x i32] [i32 4, i32 1], [2 x i32] [i32 4, i32 2], [2 x i32] [i32 4, i32 3], [2 x i32] [i32 5, i32 0], [2 x i32] [i32 5, i32 1], [2 x i32] [i32 5, i32 2], [2 x i32] [i32 5, i32 3], [2 x i32] zeroinitializer, [2 x i32] [i32 1, i32 0], [2 x i32] [i32 0, i32 1], [2 x i32] [i32 1, i32 1]], comdat, align 16
@_ZZN6dealii8internal12TriaAccessor14Implementation16line_orientationILi3ELi3EEEbRKNS_12TriaAccessorILi3EXT_EXT0_EEEjE10bool_table = linkonce_odr dso_local local_unnamed_addr constant [2 x [2 x [2 x [2 x i8]]]] [[2 x [2 x [2 x i8]]] [[2 x [2 x i8]] [[2 x i8] c"\01\00", [2 x i8] c"\00\01"], [2 x [2 x i8]] [[2 x i8] c"\01\01", [2 x i8] zeroinitializer]], [2 x [2 x [2 x i8]]] [[2 x [2 x i8]] [[2 x i8] c"\01\01", [2 x i8] zeroinitializer], [2 x [2 x i8]] [[2 x i8] c"\01\00", [2 x i8] c"\00\01"]]], comdat, align 16
@llvm.global_ctors = appending global [0 x { i32, ptr, ptr }] zeroinitializer

@_ZN6dealii16SolutionTransferILi3ENS_6VectorIfEENS_10DoFHandlerILi3ELi3EEEEC1ERKS4_ = weak_odr dso_local unnamed_addr alias void (ptr, ptr), ptr @_ZN6dealii16SolutionTransferILi3ENS_6VectorIfEENS_10DoFHandlerILi3ELi3EEEEC2ERKS4_
@_ZN6dealii16SolutionTransferILi3ENS_6VectorIfEENS_10DoFHandlerILi3ELi3EEEED1Ev = weak_odr dso_local unnamed_addr alias void (ptr), ptr @_ZN6dealii16SolutionTransferILi3ENS_6VectorIfEENS_10DoFHandlerILi3ELi3EEEED2Ev
@_ZN6dealii16SolutionTransferILi3ENS_6VectorIfEENS_10DoFHandlerILi3ELi3EEEE18ExcWrongVectorSizeC1Eii = weak_odr dso_local unnamed_addr alias void (ptr, i32, i32), ptr @_ZN6dealii16SolutionTransferILi3ENS_6VectorIfEENS_10DoFHandlerILi3ELi3EEEE18ExcWrongVectorSizeC2Eii
@_ZN6dealii16SolutionTransferILi3ENS_6VectorIfEENS_10DoFHandlerILi3ELi3EEEE18ExcWrongVectorSizeD1Ev = weak_odr dso_local unnamed_addr alias void (ptr), ptr @_ZN6dealii16SolutionTransferILi3ENS_6VectorIfEENS_10DoFHandlerILi3ELi3EEEE18ExcWrongVectorSizeD2Ev
@_ZN6dealii16SolutionTransferILi3ENS_6VectorIfEENS_10DoFHandlerILi3ELi3EEEE13PointerstructC1Ev = weak_odr dso_local unnamed_addr alias void (ptr), ptr @_ZN6dealii16SolutionTransferILi3ENS_6VectorIfEENS_10DoFHandlerILi3ELi3EEEE13PointerstructC2Ev
@_ZN6dealii16SolutionTransferILi3ENS_6VectorIdEENS_10DoFHandlerILi3ELi3EEEEC1ERKS4_ = weak_odr dso_local unnamed_addr alias void (ptr, ptr), ptr @_ZN6dealii16SolutionTransferILi3ENS_6VectorIdEENS_10DoFHandlerILi3ELi3EEEEC2ERKS4_
@_ZN6dealii16SolutionTransferILi3ENS_6VectorIdEENS_10DoFHandlerILi3ELi3EEEED1Ev = weak_odr dso_local unnamed_addr alias void (ptr), ptr @_ZN6dealii16SolutionTransferILi3ENS_6VectorIdEENS_10DoFHandlerILi3ELi3EEEED2Ev
@_ZN6dealii16SolutionTransferILi3ENS_6VectorIdEENS_10DoFHandlerILi3ELi3EEEE18ExcWrongVectorSizeC1Eii = weak_odr dso_local unnamed_addr alias void (ptr, i32, i32), ptr @_ZN6dealii16SolutionTransferILi3ENS_6VectorIdEENS_10DoFHandlerILi3ELi3EEEE18ExcWrongVectorSizeC2Eii
@_ZN6dealii16SolutionTransferILi3ENS_6VectorIdEENS_10DoFHandlerILi3ELi3EEEE18ExcWrongVectorSizeD1Ev = weak_odr dso_local unnamed_addr alias void (ptr), ptr @_ZN6dealii16SolutionTransferILi3ENS_6VectorIdEENS_10DoFHandlerILi3ELi3EEEE18ExcWrongVectorSizeD2Ev
@_ZN6dealii16SolutionTransferILi3ENS_6VectorIdEENS_10DoFHandlerILi3ELi3EEEE13PointerstructC1Ev = weak_odr dso_local unnamed_addr alias void (ptr), ptr @_ZN6dealii16SolutionTransferILi3ENS_6VectorIdEENS_10DoFHandlerILi3ELi3EEEE13PointerstructC2Ev
@_ZN6dealii16SolutionTransferILi3ENS_6VectorIfEENS_2hp10DoFHandlerILi3ELi3EEEEC1ERKS5_ = weak_odr dso_local unnamed_addr alias void (ptr, ptr), ptr @_ZN6dealii16SolutionTransferILi3ENS_6VectorIfEENS_2hp10DoFHandlerILi3ELi3EEEEC2ERKS5_
@_ZN6dealii16SolutionTransferILi3ENS_6VectorIfEENS_2hp10DoFHandlerILi3ELi3EEEED1Ev = weak_odr dso_local unnamed_addr alias void (ptr), ptr @_ZN6dealii16SolutionTransferILi3ENS_6VectorIfEENS_2hp10DoFHandlerILi3ELi3EEEED2Ev
@_ZN6dealii16SolutionTransferILi3ENS_6VectorIfEENS_2hp10DoFHandlerILi3ELi3EEEE18ExcWrongVectorSizeC1Eii = weak_odr dso_local unnamed_addr alias void (ptr, i32, i32), ptr @_ZN6dealii16SolutionTransferILi3ENS_6VectorIfEENS_2hp10DoFHandlerILi3ELi3EEEE18ExcWrongVectorSizeC2Eii
@_ZN6dealii16SolutionTransferILi3ENS_6VectorIfEENS_2hp10DoFHandlerILi3ELi3EEEE18ExcWrongVectorSizeD1Ev = weak_odr dso_local unnamed_addr alias void (ptr), ptr @_ZN6dealii16SolutionTransferILi3ENS_6VectorIfEENS_2hp10DoFHandlerILi3ELi3EEEE18ExcWrongVectorSizeD2Ev
@_ZN6dealii16SolutionTransferILi3ENS_6VectorIfEENS_2hp10DoFHandlerILi3ELi3EEEE13PointerstructC1Ev = weak_odr dso_local unnamed_addr alias void (ptr), ptr @_ZN6dealii16SolutionTransferILi3ENS_6VectorIfEENS_2hp10DoFHandlerILi3ELi3EEEE13PointerstructC2Ev
@_ZN6dealii16SolutionTransferILi3ENS_6VectorIdEENS_2hp10DoFHandlerILi3ELi3EEEEC1ERKS5_ = weak_odr dso_local unnamed_addr alias void (ptr, ptr), ptr @_ZN6dealii16SolutionTransferILi3ENS_6VectorIdEENS_2hp10DoFHandlerILi3ELi3EEEEC2ERKS5_
@_ZN6dealii16SolutionTransferILi3ENS_6VectorIdEENS_2hp10DoFHandlerILi3ELi3EEEED1Ev = weak_odr dso_local unnamed_addr alias void (ptr), ptr @_ZN6dealii16SolutionTransferILi3ENS_6VectorIdEENS_2hp10DoFHandlerILi3ELi3EEEED2Ev
@_ZN6dealii16SolutionTransferILi3ENS_6VectorIdEENS_2hp10DoFHandlerILi3ELi3EEEE18ExcWrongVectorSizeC1Eii = weak_odr dso_local unnamed_addr alias void (ptr, i32, i32), ptr @_ZN6dealii16SolutionTransferILi3ENS_6VectorIdEENS_2hp10DoFHandlerILi3ELi3EEEE18ExcWrongVectorSizeC2Eii
@_ZN6dealii16SolutionTransferILi3ENS_6VectorIdEENS_2hp10DoFHandlerILi3ELi3EEEE18ExcWrongVectorSizeD1Ev = weak_odr dso_local unnamed_addr alias void (ptr), ptr @_ZN6dealii16SolutionTransferILi3ENS_6VectorIdEENS_2hp10DoFHandlerILi3ELi3EEEE18ExcWrongVectorSizeD2Ev
@_ZN6dealii16SolutionTransferILi3ENS_6VectorIdEENS_2hp10DoFHandlerILi3ELi3EEEE13PointerstructC1Ev = weak_odr dso_local unnamed_addr alias void (ptr), ptr @_ZN6dealii16SolutionTransferILi3ENS_6VectorIdEENS_2hp10DoFHandlerILi3ELi3EEEE13PointerstructC2Ev
@_ZN6dealii16SolutionTransferILi3ENS_11BlockVectorIfEENS_10DoFHandlerILi3ELi3EEEEC1ERKS4_ = weak_odr dso_local unnamed_addr alias void (ptr, ptr), ptr @_ZN6dealii16SolutionTransferILi3ENS_11BlockVectorIfEENS_10DoFHandlerILi3ELi3EEEEC2ERKS4_
@_ZN6dealii16SolutionTransferILi3ENS_11BlockVectorIfEENS_10DoFHandlerILi3ELi3EEEED1Ev = weak_odr dso_local unnamed_addr alias void (ptr), ptr @_ZN6dealii16SolutionTransferILi3ENS_11BlockVectorIfEENS_10DoFHandlerILi3ELi3EEEED2Ev
@_ZN6dealii16SolutionTransferILi3ENS_11BlockVectorIfEENS_10DoFHandlerILi3ELi3EEEE18ExcWrongVectorSizeC1Eii = weak_odr dso_local unnamed_addr alias void (ptr, i32, i32), ptr @_ZN6dealii16SolutionTransferILi3ENS_11BlockVectorIfEENS_10DoFHandlerILi3ELi3EEEE18ExcWrongVectorSizeC2Eii
@_ZN6dealii16SolutionTransferILi3ENS_11BlockVectorIfEENS_10DoFHandlerILi3ELi3EEEE18ExcWrongVectorSizeD1Ev = weak_odr dso_local unnamed_addr alias void (ptr), ptr @_ZN6dealii16SolutionTransferILi3ENS_11BlockVectorIfEENS_10DoFHandlerILi3ELi3EEEE18ExcWrongVectorSizeD2Ev
@_ZN6dealii16SolutionTransferILi3ENS_11BlockVectorIfEENS_10DoFHandlerILi3ELi3EEEE13PointerstructC1Ev = weak_odr dso_local unnamed_addr alias void (ptr), ptr @_ZN6dealii16SolutionTransferILi3ENS_11BlockVectorIfEENS_10DoFHandlerILi3ELi3EEEE13PointerstructC2Ev
@_ZN6dealii16SolutionTransferILi3ENS_11BlockVectorIdEENS_10DoFHandlerILi3ELi3EEEEC1ERKS4_ = weak_odr dso_local unnamed_addr alias void (ptr, ptr), ptr @_ZN6dealii16SolutionTransferILi3ENS_11BlockVectorIdEENS_10DoFHandlerILi3ELi3EEEEC2ERKS4_
@_ZN6dealii16SolutionTransferILi3ENS_11BlockVectorIdEENS_10DoFHandlerILi3ELi3EEEED1Ev = weak_odr dso_local unnamed_addr alias void (ptr), ptr @_ZN6dealii16SolutionTransferILi3ENS_11BlockVectorIdEENS_10DoFHandlerILi3ELi3EEEED2Ev
@_ZN6dealii16SolutionTransferILi3ENS_11BlockVectorIdEENS_10DoFHandlerILi3ELi3EEEE18ExcWrongVectorSizeC1Eii = weak_odr dso_local unnamed_addr alias void (ptr, i32, i32), ptr @_ZN6dealii16SolutionTransferILi3ENS_11BlockVectorIdEENS_10DoFHandlerILi3ELi3EEEE18ExcWrongVectorSizeC2Eii
@_ZN6dealii16SolutionTransferILi3ENS_11BlockVectorIdEENS_10DoFHandlerILi3ELi3EEEE18ExcWrongVectorSizeD1Ev = weak_odr dso_local unnamed_addr alias void (ptr), ptr @_ZN6dealii16SolutionTransferILi3ENS_11BlockVectorIdEENS_10DoFHandlerILi3ELi3EEEE18ExcWrongVectorSizeD2Ev
@_ZN6dealii16SolutionTransferILi3ENS_11BlockVectorIdEENS_10DoFHandlerILi3ELi3EEEE13PointerstructC1Ev = weak_odr dso_local unnamed_addr alias void (ptr), ptr @_ZN6dealii16SolutionTransferILi3ENS_11BlockVectorIdEENS_10DoFHandlerILi3ELi3EEEE13PointerstructC2Ev
@_ZN6dealii16SolutionTransferILi3ENS_11BlockVectorIfEENS_2hp10DoFHandlerILi3ELi3EEEEC1ERKS5_ = weak_odr dso_local unnamed_addr alias void (ptr, ptr), ptr @_ZN6dealii16SolutionTransferILi3ENS_11BlockVectorIfEENS_2hp10DoFHandlerILi3ELi3EEEEC2ERKS5_
@_ZN6dealii16SolutionTransferILi3ENS_11BlockVectorIfEENS_2hp10DoFHandlerILi3ELi3EEEED1Ev = weak_odr dso_local unnamed_addr alias void (ptr), ptr @_ZN6dealii16SolutionTransferILi3ENS_11BlockVectorIfEENS_2hp10DoFHandlerILi3ELi3EEEED2Ev
@_ZN6dealii16SolutionTransferILi3ENS_11BlockVectorIfEENS_2hp10DoFHandlerILi3ELi3EEEE18ExcWrongVectorSizeC1Eii = weak_odr dso_local unnamed_addr alias void (ptr, i32, i32), ptr @_ZN6dealii16SolutionTransferILi3ENS_11BlockVectorIfEENS_2hp10DoFHandlerILi3ELi3EEEE18ExcWrongVectorSizeC2Eii
@_ZN6dealii16SolutionTransferILi3ENS_11BlockVectorIfEENS_2hp10DoFHandlerILi3ELi3EEEE18ExcWrongVectorSizeD1Ev = weak_odr dso_local unnamed_addr alias void (ptr), ptr @_ZN6dealii16SolutionTransferILi3ENS_11BlockVectorIfEENS_2hp10DoFHandlerILi3ELi3EEEE18ExcWrongVectorSizeD2Ev
@_ZN6dealii16SolutionTransferILi3ENS_11BlockVectorIfEENS_2hp10DoFHandlerILi3ELi3EEEE13PointerstructC1Ev = weak_odr dso_local unnamed_addr alias void (ptr), ptr @_ZN6dealii16SolutionTransferILi3ENS_11BlockVectorIfEENS_2hp10DoFHandlerILi3ELi3EEEE13PointerstructC2Ev
@_ZN6dealii16SolutionTransferILi3ENS_11BlockVectorIdEENS_2hp10DoFHandlerILi3ELi3EEEEC1ERKS5_ = weak_odr dso_local unnamed_addr alias void (ptr, ptr), ptr @_ZN6dealii16SolutionTransferILi3ENS_11BlockVectorIdEENS_2hp10DoFHandlerILi3ELi3EEEEC2ERKS5_
@_ZN6dealii16SolutionTransferILi3ENS_11BlockVectorIdEENS_2hp10DoFHandlerILi3ELi3EEEED1Ev = weak_odr dso_local unnamed_addr alias void (ptr), ptr @_ZN6dealii16SolutionTransferILi3ENS_11BlockVectorIdEENS_2hp10DoFHandlerILi3ELi3EEEED2Ev
@_ZN6dealii16SolutionTransferILi3ENS_11BlockVectorIdEENS_2hp10DoFHandlerILi3ELi3EEEE18ExcWrongVectorSizeC1Eii = weak_odr dso_local unnamed_addr alias void (ptr, i32, i32), ptr @_ZN6dealii16SolutionTransferILi3ENS_11BlockVectorIdEENS_2hp10DoFHandlerILi3ELi3EEEE18ExcWrongVectorSizeC2Eii
@_ZN6dealii16SolutionTransferILi3ENS_11BlockVectorIdEENS_2hp10DoFHandlerILi3ELi3EEEE18ExcWrongVectorSizeD1Ev = weak_odr dso_local unnamed_addr alias void (ptr), ptr @_ZN6dealii16SolutionTransferILi3ENS_11BlockVectorIdEENS_2hp10DoFHandlerILi3ELi3EEEE18ExcWrongVectorSizeD2Ev
@_ZN6dealii16SolutionTransferILi3ENS_11BlockVectorIdEENS_2hp10DoFHandlerILi3ELi3EEEE13PointerstructC1Ev = weak_odr dso_local unnamed_addr alias void (ptr), ptr @_ZN6dealii16SolutionTransferILi3ENS_11BlockVectorIdEENS_2hp10DoFHandlerILi3ELi3EEEE13PointerstructC2Ev

; Function Attrs: sspstrong uwtable
define weak_odr dso_local void @_ZN6dealii16SolutionTransferILi3ENS_6VectorIfEENS_10DoFHandlerILi3ELi3EEEEC2ERKS4_(ptr noundef nonnull align 8 dereferenceable(120) %0, ptr noundef nonnull align 8 dereferenceable(168) %1) unnamed_addr #0 comdat($_ZN6dealii16SolutionTransferILi3ENS_6VectorIfEENS_10DoFHandlerILi3ELi3EEEEC5ERKS4_) align 2 personality ptr @__gxx_personality_v0 {
  store ptr %1, ptr %0, align 8, !tbaa !5
  %3 = getelementptr inbounds %"class.dealii::SmartPointer", ptr %0, i64 0, i32 1
  %4 = getelementptr inbounds %"class.dealii::SolutionTransfer", ptr %0, i64 0, i32 4, i32 0, i32 0, i32 1
  store i32 0, ptr %4, align 8, !tbaa !10
  %5 = getelementptr inbounds %"class.dealii::SolutionTransfer", ptr %0, i64 0, i32 4, i32 0, i32 0, i32 1, i32 0, i32 1
  store ptr null, ptr %5, align 8, !tbaa !15
  %6 = getelementptr inbounds %"class.dealii::SolutionTransfer", ptr %0, i64 0, i32 4, i32 0, i32 0, i32 1, i32 0, i32 2
  tail call void @llvm.memset.p0.i64(ptr noundef nonnull align 8 dereferenceable(40) %3, i8 0, i64 40, i1 false)
  store ptr %4, ptr %6, align 8, !tbaa !16
  %7 = getelementptr inbounds %"class.dealii::SolutionTransfer", ptr %0, i64 0, i32 4, i32 0, i32 0, i32 1, i32 0, i32 3
  store ptr %4, ptr %7, align 8, !tbaa !17
  %8 = getelementptr inbounds %"class.dealii::SolutionTransfer", ptr %0, i64 0, i32 4, i32 0, i32 0, i32 1, i32 1
  tail call void @llvm.memset.p0.i64(ptr noundef nonnull align 8 dereferenceable(32) %8, i8 0, i64 32, i1 false)
  ret void
}

declare i32 @__gxx_personality_v0(...)

; Function Attrs: noinline noreturn nounwind sspstrong uwtable
define linkonce_odr hidden void @__clang_call_terminate(ptr noundef %0) local_unnamed_addr #1 comdat {
  %2 = tail call ptr @__cxa_begin_catch(ptr %0) #15
  tail call void @_ZSt9terminatev() #16
  unreachable
}

declare ptr @__cxa_begin_catch(ptr) local_unnamed_addr

declare void @_ZSt9terminatev() local_unnamed_addr

; Function Attrs: sspstrong uwtable
define linkonce_odr dso_local void @_ZNSt6vectorIS_IjSaIjEESaIS1_EED2Ev(ptr noundef nonnull align 8 dereferenceable(24) %0) unnamed_addr #0 comdat align 2 personality ptr @__gxx_personality_v0 {
  %2 = load ptr, ptr %0, align 8, !tbaa !18
  %3 = getelementptr inbounds %"struct.std::_Vector_base<std::vector<unsigned int>, std::allocator<std::vector<unsigned int> > >::_Vector_impl_data", ptr %0, i64 0, i32 1
  %4 = load ptr, ptr %3, align 8, !tbaa !20
  %5 = icmp eq ptr %2, %4
  br i1 %5, label %16, label %6

6:                                                ; preds = %1, %11
  %7 = phi ptr [ %12, %11 ], [ %2, %1 ]
  %8 = load ptr, ptr %7, align 8, !tbaa !21
  %9 = icmp eq ptr %8, null
  br i1 %9, label %11, label %10

10:                                               ; preds = %6
  tail call void @_ZdlPv(ptr noundef nonnull %8) #17
  br label %11

11:                                               ; preds = %10, %6
  %12 = getelementptr inbounds %"class.std::vector.39", ptr %7, i64 1
  %13 = icmp eq ptr %12, %4
  br i1 %13, label %14, label %6

14:                                               ; preds = %11
  %15 = load ptr, ptr %0, align 8, !tbaa !18
  br label %16

16:                                               ; preds = %14, %1
  %17 = phi ptr [ %15, %14 ], [ %2, %1 ]
  %18 = icmp eq ptr %17, null
  br i1 %18, label %20, label %19

19:                                               ; preds = %16
  tail call void @_ZdlPv(ptr noundef nonnull %17) #17
  br label %20

20:                                               ; preds = %16, %19
  ret void
}

; Function Attrs: sspstrong uwtable
define weak_odr dso_local void @_ZN6dealii16SolutionTransferILi3ENS_6VectorIfEENS_10DoFHandlerILi3ELi3EEEED2Ev(ptr noundef nonnull align 8 dereferenceable(120) %0) unnamed_addr #0 comdat($_ZN6dealii16SolutionTransferILi3ENS_6VectorIfEENS_10DoFHandlerILi3ELi3EEEED5Ev) align 2 personality ptr @__gxx_personality_v0 {
  invoke void @_ZN6dealii16SolutionTransferILi3ENS_6VectorIfEENS_10DoFHandlerILi3ELi3EEEE5clearEv(ptr noundef nonnull align 8 dereferenceable(120) %0)
          to label %2 unwind label %29

2:                                                ; preds = %1
  %3 = getelementptr inbounds %"class.dealii::SolutionTransfer", ptr %0, i64 0, i32 5
  invoke void @_ZNSt6vectorIS_IN6dealii6VectorIfEESaIS2_EESaIS4_EED2Ev(ptr noundef nonnull align 8 dereferenceable(24) %3)
          to label %4 unwind label %32

4:                                                ; preds = %2
  %5 = getelementptr inbounds %"class.dealii::SolutionTransfer", ptr %0, i64 0, i32 4
  %6 = getelementptr inbounds %"class.dealii::SolutionTransfer", ptr %0, i64 0, i32 4, i32 0, i32 0, i32 1, i32 0, i32 1
  %7 = load ptr, ptr %6, align 8, !tbaa !15
  invoke void @_ZNSt8_Rb_treeISt4pairIjjES0_IKS1_N6dealii16SolutionTransferILi3ENS3_6VectorIfEENS3_10DoFHandlerILi3ELi3EEEE13PointerstructEESt10_Select1stISB_ESt4lessIS1_ESaISB_EE8_M_eraseEPSt13_Rb_tree_nodeISB_E(ptr noundef nonnull align 8 dereferenceable(48) %5, ptr noundef %7)
          to label %8 unwind label %34

8:                                                ; preds = %4
  %9 = getelementptr inbounds %"class.dealii::SolutionTransfer", ptr %0, i64 0, i32 3
  %10 = load ptr, ptr %9, align 8, !tbaa !18
  %11 = getelementptr inbounds %"class.dealii::SolutionTransfer", ptr %0, i64 0, i32 3, i32 0, i32 0, i32 0, i32 1
  %12 = load ptr, ptr %11, align 8, !tbaa !20
  %13 = icmp eq ptr %10, %12
  br i1 %13, label %24, label %14

14:                                               ; preds = %8, %19
  %15 = phi ptr [ %20, %19 ], [ %10, %8 ]
  %16 = load ptr, ptr %15, align 8, !tbaa !21
  %17 = icmp eq ptr %16, null
  br i1 %17, label %19, label %18

18:                                               ; preds = %14
  tail call void @_ZdlPv(ptr noundef nonnull %16) #17
  br label %19

19:                                               ; preds = %18, %14
  %20 = getelementptr inbounds %"class.std::vector.39", ptr %15, i64 1
  %21 = icmp eq ptr %20, %12
  br i1 %21, label %22, label %14

22:                                               ; preds = %19
  %23 = load ptr, ptr %9, align 8, !tbaa !18
  br label %24

24:                                               ; preds = %22, %8
  %25 = phi ptr [ %23, %22 ], [ %10, %8 ]
  %26 = icmp eq ptr %25, null
  br i1 %26, label %28, label %27

27:                                               ; preds = %24
  tail call void @_ZdlPv(ptr noundef nonnull %25) #17
  br label %28

28:                                               ; preds = %27, %24
  ret void

29:                                               ; preds = %1
  %30 = landingpad { ptr, i32 }
          cleanup
  %31 = getelementptr inbounds %"class.dealii::SolutionTransfer", ptr %0, i64 0, i32 5
  invoke void @_ZNSt6vectorIS_IN6dealii6VectorIfEESaIS2_EESaIS4_EED2Ev(ptr noundef nonnull align 8 dereferenceable(24) %31)
          to label %36 unwind label %45

32:                                               ; preds = %2
  %33 = landingpad { ptr, i32 }
          cleanup
  br label %36

34:                                               ; preds = %4
  %35 = landingpad { ptr, i32 }
          cleanup
  br label %41

36:                                               ; preds = %29, %32
  %37 = phi { ptr, i32 } [ %33, %32 ], [ %30, %29 ]
  %38 = getelementptr inbounds %"class.dealii::SolutionTransfer", ptr %0, i64 0, i32 4
  %39 = getelementptr inbounds %"class.dealii::SolutionTransfer", ptr %0, i64 0, i32 4, i32 0, i32 0, i32 1, i32 0, i32 1
  %40 = load ptr, ptr %39, align 8, !tbaa !15
  invoke void @_ZNSt8_Rb_treeISt4pairIjjES0_IKS1_N6dealii16SolutionTransferILi3ENS3_6VectorIfEENS3_10DoFHandlerILi3ELi3EEEE13PointerstructEESt10_Select1stISB_ESt4lessIS1_ESaISB_EE8_M_eraseEPSt13_Rb_tree_nodeISB_E(ptr noundef nonnull align 8 dereferenceable(48) %38, ptr noundef %40)
          to label %41 unwind label %45

41:                                               ; preds = %36, %34
  %42 = phi { ptr, i32 } [ %35, %34 ], [ %37, %36 ]
  %43 = getelementptr inbounds %"class.dealii::SolutionTransfer", ptr %0, i64 0, i32 3
  invoke void @_ZNSt6vectorIS_IjSaIjEESaIS1_EED2Ev(ptr noundef nonnull align 8 dereferenceable(24) %43)
          to label %44 unwind label %45

44:                                               ; preds = %41
  resume { ptr, i32 } %42

45:                                               ; preds = %36, %41, %29
  %46 = landingpad { ptr, i32 }
          catch ptr null
  %47 = extractvalue { ptr, i32 } %46, 0
  tail call void @__clang_call_terminate(ptr %47) #16
  unreachable
}

; Function Attrs: sspstrong uwtable
define weak_odr dso_local void @_ZN6dealii16SolutionTransferILi3ENS_6VectorIfEENS_10DoFHandlerILi3ELi3EEEE5clearEv(ptr noundef nonnull align 8 dereferenceable(120) %0) local_unnamed_addr #0 comdat align 2 personality ptr @__gxx_personality_v0 {
  %2 = getelementptr inbounds %"class.dealii::SolutionTransfer", ptr %0, i64 0, i32 3
  %3 = load ptr, ptr %2, align 8, !tbaa !18
  %4 = getelementptr inbounds %"class.dealii::SolutionTransfer", ptr %0, i64 0, i32 3, i32 0, i32 0, i32 0, i32 1
  %5 = load ptr, ptr %4, align 8, !tbaa !20
  %6 = icmp eq ptr %5, %3
  br i1 %6, label %16, label %7

7:                                                ; preds = %1, %12
  %8 = phi ptr [ %13, %12 ], [ %3, %1 ]
  %9 = load ptr, ptr %8, align 8, !tbaa !21
  %10 = icmp eq ptr %9, null
  br i1 %10, label %12, label %11

11:                                               ; preds = %7
  tail call void @_ZdlPv(ptr noundef nonnull %9) #17
  br label %12

12:                                               ; preds = %11, %7
  %13 = getelementptr inbounds %"class.std::vector.39", ptr %8, i64 1
  %14 = icmp eq ptr %13, %5
  br i1 %14, label %15, label %7

15:                                               ; preds = %12
  store ptr %3, ptr %4, align 8, !tbaa !20
  br label %16

16:                                               ; preds = %1, %15
  %17 = getelementptr inbounds %"class.dealii::SolutionTransfer", ptr %0, i64 0, i32 5
  %18 = load ptr, ptr %17, align 8, !tbaa !23
  %19 = getelementptr inbounds %"class.dealii::SolutionTransfer", ptr %0, i64 0, i32 5, i32 0, i32 0, i32 0, i32 1
  %20 = load ptr, ptr %19, align 8, !tbaa !25
  %21 = icmp eq ptr %20, %18
  br i1 %21, label %51, label %22

22:                                               ; preds = %16, %47
  %23 = phi ptr [ %48, %47 ], [ %18, %16 ]
  %24 = load ptr, ptr %23, align 8, !tbaa !26
  %25 = getelementptr inbounds %"struct.std::_Vector_base<dealii::Vector<float>, std::allocator<dealii::Vector<float> > >::_Vector_impl_data", ptr %23, i64 0, i32 1
  %26 = load ptr, ptr %25, align 8, !tbaa !28
  %27 = icmp eq ptr %24, %26
  br i1 %27, label %37, label %28

28:                                               ; preds = %22, %32
  %29 = phi ptr [ %33, %32 ], [ %24, %22 ]
  %30 = load ptr, ptr %29, align 8, !tbaa !29
  %31 = load ptr, ptr %30, align 8
  invoke void %31(ptr noundef nonnull align 8 dereferenceable(88) %29)
          to label %32 unwind label %41

32:                                               ; preds = %28
  %33 = getelementptr inbounds %"class.dealii::Vector", ptr %29, i64 1
  %34 = icmp eq ptr %33, %26
  br i1 %34, label %35, label %28

35:                                               ; preds = %32
  %36 = load ptr, ptr %23, align 8, !tbaa !26
  br label %37

37:                                               ; preds = %35, %22
  %38 = phi ptr [ %36, %35 ], [ %24, %22 ]
  %39 = icmp eq ptr %38, null
  br i1 %39, label %47, label %40

40:                                               ; preds = %37
  tail call void @_ZdlPv(ptr noundef nonnull %38) #17
  br label %47

41:                                               ; preds = %28
  %42 = landingpad { ptr, i32 }
          cleanup
  %43 = load ptr, ptr %23, align 8, !tbaa !26
  %44 = icmp eq ptr %43, null
  br i1 %44, label %46, label %45

45:                                               ; preds = %41
  tail call void @_ZdlPv(ptr noundef nonnull %43) #17
  br label %46

46:                                               ; preds = %45, %41
  resume { ptr, i32 } %42

47:                                               ; preds = %40, %37
  %48 = getelementptr inbounds %"class.std::vector.101", ptr %23, i64 1
  %49 = icmp eq ptr %48, %20
  br i1 %49, label %50, label %22

50:                                               ; preds = %47
  store ptr %18, ptr %19, align 8, !tbaa !25
  br label %51

51:                                               ; preds = %16, %50
  %52 = getelementptr inbounds %"class.dealii::SolutionTransfer", ptr %0, i64 0, i32 4
  %53 = getelementptr inbounds %"class.dealii::SolutionTransfer", ptr %0, i64 0, i32 4, i32 0, i32 0, i32 1, i32 0, i32 1
  %54 = load ptr, ptr %53, align 8, !tbaa !15
  tail call void @_ZNSt8_Rb_treeISt4pairIjjES0_IKS1_N6dealii16SolutionTransferILi3ENS3_6VectorIfEENS3_10DoFHandlerILi3ELi3EEEE13PointerstructEESt10_Select1stISB_ESt4lessIS1_ESaISB_EE8_M_eraseEPSt13_Rb_tree_nodeISB_E(ptr noundef nonnull align 8 dereferenceable(48) %52, ptr noundef %54)
  %55 = getelementptr inbounds %"class.dealii::SolutionTransfer", ptr %0, i64 0, i32 4, i32 0, i32 0, i32 1
  store ptr null, ptr %53, align 8, !tbaa !15
  %56 = getelementptr inbounds %"class.dealii::SolutionTransfer", ptr %0, i64 0, i32 4, i32 0, i32 0, i32 1, i32 0, i32 2
  store ptr %55, ptr %56, align 8, !tbaa !16
  %57 = getelementptr inbounds %"class.dealii::SolutionTransfer", ptr %0, i64 0, i32 4, i32 0, i32 0, i32 1, i32 0, i32 3
  store ptr %55, ptr %57, align 8, !tbaa !17
  %58 = getelementptr inbounds %"class.dealii::SolutionTransfer", ptr %0, i64 0, i32 4, i32 0, i32 0, i32 1, i32 1
  store i64 0, ptr %58, align 8, !tbaa !31
  %59 = getelementptr inbounds %"class.dealii::SolutionTransfer", ptr %0, i64 0, i32 2
  store i32 0, ptr %59, align 4, !tbaa !32
  ret void
}

; Function Attrs: sspstrong uwtable
define linkonce_odr dso_local void @_ZNSt6vectorIS_IN6dealii6VectorIfEESaIS2_EESaIS4_EED2Ev(ptr noundef nonnull align 8 dereferenceable(24) %0) unnamed_addr #0 comdat align 2 personality ptr @__gxx_personality_v0 {
  %2 = load ptr, ptr %0, align 8, !tbaa !23
  %3 = getelementptr inbounds %"struct.std::_Vector_base<std::vector<dealii::Vector<float> >, std::allocator<std::vector<dealii::Vector<float> > > >::_Vector_impl_data", ptr %0, i64 0, i32 1
  %4 = load ptr, ptr %3, align 8, !tbaa !25
  %5 = icmp eq ptr %2, %4
  br i1 %5, label %35, label %6

6:                                                ; preds = %1, %30
  %7 = phi ptr [ %31, %30 ], [ %2, %1 ]
  %8 = load ptr, ptr %7, align 8, !tbaa !26
  %9 = getelementptr inbounds %"struct.std::_Vector_base<dealii::Vector<float>, std::allocator<dealii::Vector<float> > >::_Vector_impl_data", ptr %7, i64 0, i32 1
  %10 = load ptr, ptr %9, align 8, !tbaa !28
  %11 = icmp eq ptr %8, %10
  br i1 %11, label %21, label %12

12:                                               ; preds = %6, %16
  %13 = phi ptr [ %17, %16 ], [ %8, %6 ]
  %14 = load ptr, ptr %13, align 8, !tbaa !29
  %15 = load ptr, ptr %14, align 8
  invoke void %15(ptr noundef nonnull align 8 dereferenceable(88) %13)
          to label %16 unwind label %25

16:                                               ; preds = %12
  %17 = getelementptr inbounds %"class.dealii::Vector", ptr %13, i64 1
  %18 = icmp eq ptr %17, %10
  br i1 %18, label %19, label %12

19:                                               ; preds = %16
  %20 = load ptr, ptr %7, align 8, !tbaa !26
  br label %21

21:                                               ; preds = %19, %6
  %22 = phi ptr [ %20, %19 ], [ %8, %6 ]
  %23 = icmp eq ptr %22, null
  br i1 %23, label %30, label %24

24:                                               ; preds = %21
  tail call void @_ZdlPv(ptr noundef nonnull %22) #17
  br label %30

25:                                               ; preds = %12
  %26 = landingpad { ptr, i32 }
          cleanup
  %27 = load ptr, ptr %7, align 8, !tbaa !26
  %28 = icmp eq ptr %27, null
  br i1 %28, label %40, label %29

29:                                               ; preds = %25
  tail call void @_ZdlPv(ptr noundef nonnull %27) #17
  br label %40

30:                                               ; preds = %24, %21
  %31 = getelementptr inbounds %"class.std::vector.101", ptr %7, i64 1
  %32 = icmp eq ptr %31, %4
  br i1 %32, label %33, label %6

33:                                               ; preds = %30
  %34 = load ptr, ptr %0, align 8, !tbaa !23
  br label %35

35:                                               ; preds = %33, %1
  %36 = phi ptr [ %34, %33 ], [ %2, %1 ]
  %37 = icmp eq ptr %36, null
  br i1 %37, label %39, label %38

38:                                               ; preds = %35
  tail call void @_ZdlPv(ptr noundef nonnull %36) #17
  br label %39

39:                                               ; preds = %35, %38
  ret void

40:                                               ; preds = %25, %29
  %41 = load ptr, ptr %0, align 8, !tbaa !23
  %42 = icmp eq ptr %41, null
  br i1 %42, label %44, label %43

43:                                               ; preds = %40
  tail call void @_ZdlPv(ptr noundef nonnull %41) #17
  br label %44

44:                                               ; preds = %43, %40
  resume { ptr, i32 } %26
}

; Function Attrs: sspstrong uwtable
define weak_odr dso_local void @_ZN6dealii16SolutionTransferILi3ENS_6VectorIfEENS_10DoFHandlerILi3ELi3EEEE27prepare_for_pure_refinementEv(ptr noundef nonnull align 8 dereferenceable(120) %0) local_unnamed_addr #0 comdat align 2 personality ptr @__gxx_personality_v0 {
  %2 = alloca i32, align 4
  %3 = alloca %"class.std::vector.39", align 8
  %4 = alloca %"class.dealii::TriaActiveIterator", align 8
  %5 = alloca %"class.dealii::TriaRawIterator", align 8
  %6 = alloca %"struct.std::pair", align 4
  tail call void @_ZN6dealii16SolutionTransferILi3ENS_6VectorIfEENS_10DoFHandlerILi3ELi3EEEE5clearEv(ptr noundef nonnull align 8 dereferenceable(120) %0)
  %7 = load ptr, ptr %0, align 8, !tbaa !5
  %8 = getelementptr inbounds %"class.dealii::DoFHandler", ptr %7, i64 0, i32 1
  %9 = load ptr, ptr %8, align 8, !tbaa !47
  %10 = tail call noundef i32 @_ZNK6dealii13TriangulationILi3ELi3EE14n_active_cellsEv(ptr noundef nonnull align 8 dereferenceable(8552) %9)
  %11 = load ptr, ptr %0, align 8, !tbaa !5
  %12 = getelementptr inbounds %"class.dealii::DoFHandler", ptr %11, i64 0, i32 5
  %13 = load i32, ptr %12, align 8, !tbaa !49
  %14 = getelementptr inbounds %"class.dealii::SolutionTransfer", ptr %0, i64 0, i32 1
  store i32 %13, ptr %14, align 8, !tbaa !65
  %15 = zext i32 %10 to i64
  call void @llvm.lifetime.start.p0(i64 24, ptr nonnull %3) #15
  call void @llvm.memset.p0.i64(ptr noundef nonnull align 8 dereferenceable(24) %3, i8 0, i64 24, i1 false)
  %16 = icmp eq i32 %10, 0
  br i1 %16, label %20, label %17

17:                                               ; preds = %1
  %18 = mul nuw nsw i64 %15, 24
  %19 = invoke noalias noundef nonnull ptr @_Znwm(i64 noundef %18) #18
          to label %20 unwind label %69

20:                                               ; preds = %17, %1
  %21 = phi ptr [ null, %1 ], [ %19, %17 ]
  %22 = invoke noundef ptr @_ZSt18__do_uninit_fill_nIPSt6vectorIjSaIjEEmS2_ET_S4_T0_RKT1_(ptr noundef %21, i64 noundef %15, ptr noundef nonnull align 8 dereferenceable(24) %3)
          to label %27 unwind label %23

23:                                               ; preds = %20
  %24 = landingpad { ptr, i32 }
          cleanup
  %25 = icmp eq ptr %21, null
  br i1 %25, label %71, label %26

26:                                               ; preds = %23
  call void @_ZdlPv(ptr noundef nonnull %21) #17
  br label %71

27:                                               ; preds = %20
  %28 = getelementptr inbounds %"class.std::vector.39", ptr %21, i64 %15
  %29 = getelementptr inbounds %"class.dealii::SolutionTransfer", ptr %0, i64 0, i32 3
  %30 = load ptr, ptr %29, align 8, !tbaa !18
  %31 = getelementptr inbounds %"class.dealii::SolutionTransfer", ptr %0, i64 0, i32 3, i32 0, i32 0, i32 0, i32 1
  %32 = load ptr, ptr %31, align 8, !tbaa !20
  %33 = getelementptr inbounds %"class.dealii::SolutionTransfer", ptr %0, i64 0, i32 3, i32 0, i32 0, i32 0, i32 2
  store ptr %21, ptr %29, align 8, !tbaa !18
  store ptr %22, ptr %31, align 8, !tbaa !20
  store ptr %28, ptr %33, align 8, !tbaa !66
  %34 = icmp eq ptr %30, %32
  br i1 %34, label %43, label %35

35:                                               ; preds = %27, %40
  %36 = phi ptr [ %41, %40 ], [ %30, %27 ]
  %37 = load ptr, ptr %36, align 8, !tbaa !21
  %38 = icmp eq ptr %37, null
  br i1 %38, label %40, label %39

39:                                               ; preds = %35
  call void @_ZdlPv(ptr noundef nonnull %37) #17
  br label %40

40:                                               ; preds = %39, %35
  %41 = getelementptr inbounds %"class.std::vector.39", ptr %36, i64 1
  %42 = icmp eq ptr %41, %32
  br i1 %42, label %43, label %35

43:                                               ; preds = %40, %27
  %44 = icmp eq ptr %30, null
  br i1 %44, label %46, label %45

45:                                               ; preds = %43
  call void @_ZdlPv(ptr noundef nonnull %30) #17
  br label %46

46:                                               ; preds = %45, %43
  %47 = load ptr, ptr %3, align 8, !tbaa !21
  %48 = icmp eq ptr %47, null
  br i1 %48, label %50, label %49

49:                                               ; preds = %46
  call void @_ZdlPv(ptr noundef nonnull %47) #17
  br label %50

50:                                               ; preds = %46, %49
  call void @llvm.lifetime.end.p0(i64 24, ptr nonnull %3) #15
  call void @llvm.lifetime.start.p0(i64 24, ptr nonnull %4) #15
  %51 = load ptr, ptr %0, align 8, !tbaa !5
  call void @_ZNK6dealii10DoFHandlerILi3ELi3EE12begin_activeEj(ptr nonnull sret(%"class.dealii::TriaActiveIterator") align 8 %4, ptr noundef nonnull align 8 dereferenceable(168) %51, i32 noundef 0)
  call void @llvm.lifetime.start.p0(i64 24, ptr nonnull %5) #15
  %52 = load ptr, ptr %0, align 8, !tbaa !5
  call void @_ZNK6dealii10DoFHandlerILi3ELi3EE3endEv(ptr nonnull sret(%"class.dealii::TriaRawIterator") align 8 %5, ptr noundef nonnull align 8 dereferenceable(168) %52)
  %53 = load i32, ptr %5, align 8
  %54 = getelementptr inbounds i8, ptr %5, i64 4
  %55 = load i32, ptr %54, align 4
  call void @llvm.lifetime.end.p0(i64 24, ptr nonnull %5) #15
  %56 = getelementptr inbounds %"class.dealii::TriaAccessorBase", ptr %4, i64 0, i32 1
  %57 = load i32, ptr %56, align 4, !tbaa !67
  %58 = icmp ne i32 %57, %55
  %59 = load i32, ptr %4, align 8
  %60 = icmp ne i32 %59, %53
  %61 = select i1 %58, i1 true, i1 %60
  br i1 %61, label %62, label %67

62:                                               ; preds = %50
  %63 = getelementptr inbounds %"class.dealii::DoFAccessor", ptr %4, i64 0, i32 1
  %64 = getelementptr inbounds %"class.dealii::SolutionTransfer", ptr %0, i64 0, i32 4
  %65 = getelementptr inbounds %"struct.std::pair", ptr %6, i64 0, i32 1
  %66 = getelementptr inbounds %"class.dealii::TriaAccessorBase", ptr %4, i64 0, i32 2
  br label %77

67:                                               ; preds = %261, %50
  %68 = getelementptr inbounds %"class.dealii::SolutionTransfer", ptr %0, i64 0, i32 2
  store i32 1, ptr %68, align 4, !tbaa !32
  call void @llvm.lifetime.end.p0(i64 24, ptr nonnull %4) #15
  ret void

69:                                               ; preds = %17
  %70 = landingpad { ptr, i32 }
          cleanup
  br label %71

71:                                               ; preds = %69, %26, %23
  %72 = phi { ptr, i32 } [ %70, %69 ], [ %24, %26 ], [ %24, %23 ]
  %73 = load ptr, ptr %3, align 8, !tbaa !21
  %74 = icmp eq ptr %73, null
  br i1 %74, label %76, label %75

75:                                               ; preds = %71
  call void @_ZdlPv(ptr noundef nonnull %73) #17
  br label %76

76:                                               ; preds = %75, %71
  call void @llvm.lifetime.end.p0(i64 24, ptr nonnull %3) #15
  resume { ptr, i32 } %72

77:                                               ; preds = %62, %261
  %78 = phi i32 [ %57, %62 ], [ %226, %261 ]
  %79 = phi i32 [ 0, %62 ], [ %262, %261 ]
  %80 = zext i32 %79 to i64
  %81 = load ptr, ptr %29, align 8, !tbaa !18
  %82 = getelementptr inbounds %"class.std::vector.39", ptr %81, i64 %80
  %83 = load ptr, ptr %63, align 8, !tbaa !69
  %84 = getelementptr inbounds %"class.dealii::DoFHandler", ptr %83, i64 0, i32 2
  %85 = load ptr, ptr %84, align 8, !tbaa !73
  %86 = getelementptr inbounds i8, ptr %85, i64 112
  %87 = load i32, ptr %86, align 8, !tbaa !74
  %88 = zext i32 %87 to i64
  call void @llvm.lifetime.start.p0(i64 4, ptr nonnull %2)
  store i32 0, ptr %2, align 4, !tbaa !77
  %89 = getelementptr inbounds %"struct.std::_Vector_base<unsigned int, std::allocator<unsigned int> >::_Vector_impl_data", ptr %82, i64 0, i32 1
  %90 = load ptr, ptr %89, align 8, !tbaa !78
  %91 = load ptr, ptr %82, align 8, !tbaa !21
  %92 = ptrtoint ptr %90 to i64
  %93 = ptrtoint ptr %91 to i64
  %94 = sub i64 %92, %93
  %95 = ashr exact i64 %94, 2
  %96 = icmp ult i64 %95, %88
  br i1 %96, label %97, label %106

97:                                               ; preds = %77
  %98 = sub nsw i64 %88, %95
  call void @_ZNSt6vectorIjSaIjEE14_M_fill_insertEN9__gnu_cxx17__normal_iteratorIPjS1_EEmRKj(ptr noundef nonnull align 8 dereferenceable(24) %82, ptr %90, i64 noundef %98, ptr noundef nonnull align 4 dereferenceable(4) %2)
  %99 = load ptr, ptr %29, align 8, !tbaa !18
  %100 = load ptr, ptr %63, align 8, !tbaa !69
  %101 = getelementptr inbounds %"class.dealii::DoFHandler", ptr %100, i64 0, i32 2
  %102 = load ptr, ptr %101, align 8, !tbaa !73
  %103 = getelementptr inbounds i8, ptr %102, i64 112
  %104 = load i32, ptr %103, align 8, !tbaa !74
  %105 = load i32, ptr %56, align 4, !tbaa !67
  br label %112

106:                                              ; preds = %77
  %107 = icmp ugt i64 %95, %88
  br i1 %107, label %108, label %112

108:                                              ; preds = %106
  %109 = getelementptr inbounds i32, ptr %91, i64 %88
  %110 = icmp eq ptr %90, %109
  br i1 %110, label %112, label %111

111:                                              ; preds = %108
  store ptr %109, ptr %89, align 8, !tbaa !79
  br label %112

112:                                              ; preds = %97, %106, %108, %111
  %113 = phi i32 [ %105, %97 ], [ %78, %106 ], [ %78, %108 ], [ %78, %111 ]
  %114 = phi i32 [ %104, %97 ], [ %87, %106 ], [ %87, %108 ], [ %87, %111 ]
  %115 = phi ptr [ %102, %97 ], [ %85, %106 ], [ %85, %108 ], [ %85, %111 ]
  %116 = phi ptr [ %100, %97 ], [ %83, %106 ], [ %83, %108 ], [ %83, %111 ]
  %117 = phi ptr [ %99, %97 ], [ %81, %106 ], [ %81, %108 ], [ %81, %111 ]
  call void @llvm.lifetime.end.p0(i64 4, ptr nonnull %2)
  %118 = getelementptr inbounds %"class.std::vector.39", ptr %117, i64 %80
  %119 = getelementptr inbounds i8, ptr %115, i64 112
  %120 = icmp eq i32 %114, 0
  %121 = load i32, ptr %4, align 8, !tbaa !80
  br i1 %120, label %146, label %122

122:                                              ; preds = %112
  %123 = getelementptr inbounds %"class.dealii::DoFHandler", ptr %116, i64 0, i32 3
  %124 = load ptr, ptr %123, align 8, !tbaa !81
  %125 = sext i32 %121 to i64
  %126 = getelementptr inbounds ptr, ptr %124, i64 %125
  %127 = load ptr, ptr %126, align 8, !tbaa !78
  %128 = load ptr, ptr %127, align 8, !tbaa !21
  %129 = mul i32 %113, %114
  %130 = zext i32 %129 to i64
  %131 = getelementptr inbounds i32, ptr %128, i64 %130
  %132 = load ptr, ptr %118, align 8, !tbaa !21
  br label %133

133:                                              ; preds = %133, %122
  %134 = phi i64 [ 0, %122 ], [ %138, %133 ]
  %135 = phi ptr [ %131, %122 ], [ %139, %133 ]
  %136 = load i32, ptr %135, align 4, !tbaa !77
  %137 = getelementptr inbounds i32, ptr %132, i64 %134
  store i32 %136, ptr %137, align 4, !tbaa !77
  %138 = add nuw nsw i64 %134, 1
  %139 = getelementptr inbounds i32, ptr %135, i64 1
  %140 = load i32, ptr %119, align 8, !tbaa !74
  %141 = zext i32 %140 to i64
  %142 = icmp ult i64 %138, %141
  br i1 %142, label %133, label %143

143:                                              ; preds = %133
  %144 = load i32, ptr %4, align 8, !tbaa !80
  %145 = load i32, ptr %56, align 4, !tbaa !67
  br label %146

146:                                              ; preds = %143, %112
  %147 = phi i32 [ %145, %143 ], [ %113, %112 ]
  %148 = phi i32 [ %144, %143 ], [ %121, %112 ]
  call void @llvm.lifetime.start.p0(i64 8, ptr nonnull %6) #15
  store i32 %148, ptr %6, align 4, !tbaa !82
  store i32 %147, ptr %65, align 4, !tbaa !84
  %149 = call noundef nonnull align 8 dereferenceable(16) ptr @_ZNSt3mapISt4pairIjjEN6dealii16SolutionTransferILi3ENS2_6VectorIfEENS2_10DoFHandlerILi3ELi3EEEE13PointerstructESt4lessIS1_ESaIS0_IKS1_S9_EEEixERSC_(ptr noundef nonnull align 8 dereferenceable(48) %64, ptr noundef nonnull align 4 dereferenceable(8) %6)
  store ptr %118, ptr %149, align 8, !tbaa !85
  call void @llvm.lifetime.end.p0(i64 8, ptr nonnull %6) #15
  %150 = load ptr, ptr %66, align 8, !tbaa !87
  %151 = getelementptr inbounds %"class.dealii::Triangulation", ptr %150, i64 0, i32 1
  %152 = load ptr, ptr %151, align 8, !tbaa !88
  %153 = ptrtoint ptr %152 to i64
  %154 = getelementptr inbounds %"class.dealii::Triangulation", ptr %150, i64 0, i32 1, i32 0, i32 0, i32 0, i32 1
  %155 = load i32, ptr %4, align 8
  %156 = load i32, ptr %56, align 4
  br label %157

157:                                              ; preds = %245, %146
  %158 = phi i32 [ %155, %146 ], [ %224, %245 ]
  %159 = phi i32 [ %155, %146 ], [ %225, %245 ]
  %160 = phi i32 [ %155, %146 ], [ %246, %245 ]
  %161 = phi i32 [ %156, %146 ], [ %226, %245 ]
  %162 = add nsw i32 %161, 1
  %163 = sext i32 %160 to i64
  %164 = getelementptr inbounds ptr, ptr %152, i64 %163
  %165 = load ptr, ptr %164, align 8, !tbaa !78
  %166 = getelementptr inbounds %"class.dealii::internal::Triangulation::TriaLevel", ptr %165, i64 0, i32 4
  %167 = getelementptr inbounds %"class.dealii::internal::Triangulation::TriaLevel", ptr %165, i64 0, i32 4, i32 0, i32 0, i32 0, i32 0, i32 0, i32 1
  %168 = load ptr, ptr %167, align 8, !tbaa !90
  %169 = load ptr, ptr %166, align 8, !tbaa !92
  %170 = ptrtoint ptr %168 to i64
  %171 = ptrtoint ptr %169 to i64
  %172 = sub i64 %170, %171
  %173 = sdiv exact i64 %172, 24
  %174 = trunc i64 %173 to i32
  %175 = icmp slt i32 %162, %174
  br i1 %175, label %223, label %176

176:                                              ; preds = %157
  %177 = add nsw i64 %163, 1
  %178 = trunc i64 %177 to i32
  store i32 %178, ptr %4, align 8, !tbaa !80
  %179 = load ptr, ptr %154, align 8, !tbaa !93
  %180 = ptrtoint ptr %179 to i64
  %181 = sub i64 %180, %153
  %182 = shl i64 %181, 29
  %183 = ashr i64 %182, 32
  %184 = icmp slt i64 %177, %183
  br i1 %184, label %185, label %217

185:                                              ; preds = %176
  %186 = getelementptr inbounds ptr, ptr %152, i64 %177
  %187 = load ptr, ptr %186, align 8, !tbaa !78
  %188 = getelementptr inbounds %"class.dealii::internal::Triangulation::TriaLevel", ptr %187, i64 0, i32 4
  %189 = getelementptr inbounds %"class.dealii::internal::Triangulation::TriaLevel", ptr %187, i64 0, i32 4, i32 0, i32 0, i32 0, i32 0, i32 0, i32 1
  %190 = load ptr, ptr %189, align 8, !tbaa !90
  %191 = load ptr, ptr %188, align 8, !tbaa !92
  %192 = ptrtoint ptr %190 to i64
  %193 = ptrtoint ptr %191 to i64
  %194 = sub i64 %192, %193
  %195 = sdiv exact i64 %194, 24
  %196 = trunc i64 %195 to i32
  %197 = icmp sgt i32 %196, 0
  br i1 %197, label %219, label %211

198:                                              ; preds = %211
  %199 = getelementptr inbounds ptr, ptr %152, i64 %213
  %200 = load ptr, ptr %199, align 8, !tbaa !78
  %201 = getelementptr inbounds %"class.dealii::internal::Triangulation::TriaLevel", ptr %200, i64 0, i32 4
  %202 = getelementptr inbounds %"class.dealii::internal::Triangulation::TriaLevel", ptr %200, i64 0, i32 4, i32 0, i32 0, i32 0, i32 0, i32 0, i32 1
  %203 = load ptr, ptr %202, align 8, !tbaa !90
  %204 = load ptr, ptr %201, align 8, !tbaa !92
  %205 = ptrtoint ptr %203 to i64
  %206 = ptrtoint ptr %204 to i64
  %207 = sub i64 %205, %206
  %208 = sdiv exact i64 %207, 24
  %209 = trunc i64 %208 to i32
  %210 = icmp sgt i32 %209, 0
  br i1 %210, label %218, label %211, !llvm.loop !94

211:                                              ; preds = %185, %198
  %212 = phi i64 [ %213, %198 ], [ %177, %185 ]
  %213 = add i64 %212, 1
  %214 = trunc i64 %213 to i32
  %215 = icmp eq i64 %213, %183
  br i1 %215, label %216, label %198, !llvm.loop !94

216:                                              ; preds = %211
  store i32 %214, ptr %4, align 8, !tbaa !80
  br label %217

217:                                              ; preds = %216, %176
  store i32 -1, ptr %4, align 8, !tbaa !80
  br label %223

218:                                              ; preds = %198
  store i32 %214, ptr %4, align 8, !tbaa !80
  br label %219

219:                                              ; preds = %218, %185
  %220 = phi i32 [ %178, %185 ], [ %214, %218 ]
  %221 = phi i64 [ %177, %185 ], [ %213, %218 ]
  %222 = trunc i64 %221 to i32
  br label %223

223:                                              ; preds = %219, %217, %157
  %224 = phi i32 [ %158, %157 ], [ -1, %217 ], [ %220, %219 ]
  %225 = phi i32 [ %159, %157 ], [ -1, %217 ], [ %222, %219 ]
  %226 = phi i32 [ %162, %157 ], [ -1, %217 ], [ 0, %219 ]
  %227 = phi i32 [ %160, %157 ], [ -1, %217 ], [ %222, %219 ]
  %228 = or i32 %227, %226
  %229 = icmp sgt i32 %228, -1
  br i1 %229, label %230, label %247

230:                                              ; preds = %223
  %231 = zext i32 %227 to i64
  %232 = getelementptr inbounds ptr, ptr %152, i64 %231
  %233 = load ptr, ptr %232, align 8, !tbaa !78
  %234 = getelementptr inbounds %"class.dealii::internal::Triangulation::TriaLevel", ptr %233, i64 0, i32 4, i32 0, i32 3
  %235 = load ptr, ptr %234, align 8, !tbaa !96
  %236 = lshr i32 %226, 6
  %237 = zext i32 %236 to i64
  %238 = getelementptr inbounds i64, ptr %235, i64 %237
  %239 = and i32 %226, 63
  %240 = zext i32 %239 to i64
  %241 = shl nuw i64 1, %240
  %242 = load i64, ptr %238, align 8, !tbaa !98
  %243 = and i64 %242, %241
  %244 = icmp eq i64 %243, 0
  br i1 %244, label %245, label %247

245:                                              ; preds = %230, %250
  %246 = phi i32 [ %227, %230 ], [ %225, %250 ]
  br label %157

247:                                              ; preds = %230, %223
  store i32 %226, ptr %56, align 4, !tbaa !67
  %248 = or i32 %226, %225
  %249 = icmp sgt i32 %248, -1
  br i1 %249, label %250, label %261

250:                                              ; preds = %247
  %251 = zext i32 %225 to i64
  %252 = getelementptr inbounds ptr, ptr %152, i64 %251
  %253 = load ptr, ptr %252, align 8, !tbaa !78
  %254 = getelementptr inbounds %"class.dealii::internal::Triangulation::TriaLevel", ptr %253, i64 0, i32 4, i32 0, i32 1
  %255 = shl i32 %226, 2
  %256 = zext i32 %255 to i64
  %257 = load ptr, ptr %254, align 8, !tbaa !99
  %258 = getelementptr inbounds i32, ptr %257, i64 %256
  %259 = load i32, ptr %258, align 4, !tbaa !77
  %260 = icmp eq i32 %259, -1
  br i1 %260, label %261, label %245

261:                                              ; preds = %247, %250
  %262 = add i32 %79, 1
  %263 = icmp ne i32 %226, %55
  %264 = icmp ne i32 %224, %53
  %265 = select i1 %263, i1 true, i1 %264
  br i1 %265, label %77, label %67
}

; Function Attrs: mustprogress nocallback nofree nosync nounwind willreturn memory(argmem: readwrite)
declare void @llvm.lifetime.start.p0(i64 immarg, ptr nocapture) #2

declare noundef i32 @_ZNK6dealii13TriangulationILi3ELi3EE14n_active_cellsEv(ptr noundef nonnull align 8 dereferenceable(8552)) local_unnamed_addr #3

; Function Attrs: mustprogress nocallback nofree nosync nounwind willreturn memory(argmem: readwrite)
declare void @llvm.lifetime.end.p0(i64 immarg, ptr nocapture) #2

declare void @_ZNK6dealii10DoFHandlerILi3ELi3EE12begin_activeEj(ptr sret(%"class.dealii::TriaActiveIterator") align 8, ptr noundef nonnull align 8 dereferenceable(168), i32 noundef) local_unnamed_addr #3

declare void @_ZNK6dealii10DoFHandlerILi3ELi3EE3endEv(ptr sret(%"class.dealii::TriaRawIterator") align 8, ptr noundef nonnull align 8 dereferenceable(168)) local_unnamed_addr #3

; Function Attrs: sspstrong uwtable
define linkonce_odr dso_local noundef nonnull align 8 dereferenceable(16) ptr @_ZNSt3mapISt4pairIjjEN6dealii16SolutionTransferILi3ENS2_6VectorIfEENS2_10DoFHandlerILi3ELi3EEEE13PointerstructESt4lessIS1_ESaIS0_IKS1_S9_EEEixERSC_(ptr noundef nonnull align 8 dereferenceable(48) %0, ptr noundef nonnull align 4 dereferenceable(8) %1) local_unnamed_addr #0 comdat align 2 personality ptr @__gxx_personality_v0 {
  %3 = alloca %"struct.std::pair.106", align 8
  %4 = getelementptr inbounds i8, ptr %0, i64 16
  %5 = load ptr, ptr %4, align 8, !tbaa !15
  %6 = getelementptr inbounds i8, ptr %0, i64 8
  %7 = icmp eq ptr %5, null
  br i1 %7, label %45, label %8

8:                                                ; preds = %2
  %9 = load i32, ptr %1, align 4, !tbaa !82
  %10 = getelementptr inbounds %"struct.std::pair", ptr %1, i64 0, i32 1
  %11 = load i32, ptr %10, align 4
  br label %12

12:                                               ; preds = %28, %8
  %13 = phi ptr [ %5, %8 ], [ %31, %28 ]
  %14 = phi ptr [ %6, %8 ], [ %29, %28 ]
  %15 = getelementptr inbounds %"struct.std::_Rb_tree_node", ptr %13, i64 0, i32 1
  %16 = load i32, ptr %15, align 4, !tbaa !82
  %17 = icmp ult i32 %16, %9
  br i1 %17, label %26, label %18

18:                                               ; preds = %12
  %19 = icmp ult i32 %9, %16
  br i1 %19, label %24, label %20

20:                                               ; preds = %18
  %21 = getelementptr inbounds %"struct.std::_Rb_tree_node", ptr %13, i64 0, i32 1, i32 0, i32 1
  %22 = load i32, ptr %21, align 4, !tbaa !84
  %23 = icmp ult i32 %22, %11
  br i1 %23, label %26, label %24

24:                                               ; preds = %20, %18
  %25 = getelementptr inbounds %"struct.std::_Rb_tree_node_base", ptr %13, i64 0, i32 2
  br label %28

26:                                               ; preds = %20, %12
  %27 = getelementptr inbounds %"struct.std::_Rb_tree_node_base", ptr %13, i64 0, i32 3
  br label %28

28:                                               ; preds = %26, %24
  %29 = phi ptr [ %14, %26 ], [ %13, %24 ]
  %30 = phi ptr [ %27, %26 ], [ %25, %24 ]
  %31 = load ptr, ptr %30, align 8, !tbaa !78
  %32 = icmp eq ptr %31, null
  br i1 %32, label %33, label %12

33:                                               ; preds = %28
  %34 = icmp eq ptr %29, %6
  br i1 %34, label %45, label %35

35:                                               ; preds = %33
  %36 = getelementptr inbounds %"struct.std::_Rb_tree_node", ptr %29, i64 0, i32 1
  %37 = load i32, ptr %36, align 4, !tbaa !82
  %38 = icmp ult i32 %9, %37
  br i1 %38, label %45, label %39

39:                                               ; preds = %35
  %40 = icmp ult i32 %37, %9
  br i1 %40, label %79, label %41

41:                                               ; preds = %39
  %42 = getelementptr inbounds %"struct.std::_Rb_tree_node", ptr %29, i64 0, i32 1, i32 0, i32 1
  %43 = load i32, ptr %42, align 4, !tbaa !84
  %44 = icmp ult i32 %11, %43
  br i1 %44, label %45, label %79

45:                                               ; preds = %35, %2, %33, %41
  %46 = phi ptr [ %29, %41 ], [ %6, %33 ], [ %6, %2 ], [ %29, %35 ]
  call void @llvm.lifetime.start.p0(i64 24, ptr nonnull %3) #15
  %47 = getelementptr inbounds %"struct.std::pair.106", ptr %3, i64 0, i32 1
  call void @llvm.memset.p0.i64(ptr noundef nonnull align 8 dereferenceable(16) %47, i8 0, i64 16, i1 false)
  %48 = load i64, ptr %1, align 4
  store i64 %48, ptr %3, align 8
  %49 = call { ptr, ptr } @_ZNSt8_Rb_treeISt4pairIjjES0_IKS1_N6dealii16SolutionTransferILi3ENS3_6VectorIfEENS3_10DoFHandlerILi3ELi3EEEE13PointerstructEESt10_Select1stISB_ESt4lessIS1_ESaISB_EE29_M_get_insert_hint_unique_posESt23_Rb_tree_const_iteratorISB_ERS2_(ptr noundef nonnull align 8 dereferenceable(48) %0, ptr %46, ptr noundef nonnull align 4 dereferenceable(8) %3)
  %50 = extractvalue { ptr, ptr } %49, 0
  %51 = extractvalue { ptr, ptr } %49, 1
  %52 = icmp eq ptr %51, null
  br i1 %52, label %77, label %53

53:                                               ; preds = %45
  %54 = icmp ne ptr %50, null
  %55 = icmp eq ptr %6, %51
  %56 = select i1 %54, i1 true, i1 %55
  br i1 %56, label %70, label %57

57:                                               ; preds = %53
  %58 = getelementptr inbounds %"struct.std::_Rb_tree_node", ptr %51, i64 0, i32 1
  %59 = load i32, ptr %3, align 8, !tbaa !82
  %60 = load i32, ptr %58, align 4, !tbaa !82
  %61 = icmp ult i32 %59, %60
  br i1 %61, label %70, label %62

62:                                               ; preds = %57
  %63 = icmp ult i32 %60, %59
  br i1 %63, label %70, label %64

64:                                               ; preds = %62
  %65 = getelementptr inbounds %"struct.std::pair", ptr %3, i64 0, i32 1
  %66 = load i32, ptr %65, align 4, !tbaa !84
  %67 = getelementptr inbounds %"struct.std::_Rb_tree_node", ptr %51, i64 0, i32 1, i32 0, i32 1
  %68 = load i32, ptr %67, align 4, !tbaa !84
  %69 = icmp ult i32 %66, %68
  br label %70

70:                                               ; preds = %64, %62, %57, %53
  %71 = phi i1 [ true, %53 ], [ true, %57 ], [ false, %62 ], [ %69, %64 ]
  %72 = call noalias noundef nonnull dereferenceable(56) ptr @_Znwm(i64 noundef 56) #18
  %73 = getelementptr inbounds %"struct.std::_Rb_tree_node", ptr %72, i64 0, i32 1
  call void @llvm.memcpy.p0.p0.i64(ptr noundef nonnull align 8 dereferenceable(24) %73, ptr noundef nonnull align 8 dereferenceable(24) %3, i64 24, i1 false)
  call void @_ZSt29_Rb_tree_insert_and_rebalancebPSt18_Rb_tree_node_baseS0_RS_(i1 noundef zeroext %71, ptr noundef nonnull %72, ptr noundef nonnull %51, ptr noundef nonnull align 8 dereferenceable(32) %6) #15
  %74 = getelementptr inbounds i8, ptr %0, i64 40
  %75 = load i64, ptr %74, align 8, !tbaa !31
  %76 = add i64 %75, 1
  store i64 %76, ptr %74, align 8, !tbaa !31
  br label %77

77:                                               ; preds = %45, %70
  %78 = phi ptr [ %72, %70 ], [ %50, %45 ]
  call void @llvm.lifetime.end.p0(i64 24, ptr nonnull %3) #15
  br label %79

79:                                               ; preds = %39, %77, %41
  %80 = phi ptr [ %78, %77 ], [ %29, %41 ], [ %29, %39 ]
  %81 = getelementptr inbounds %"struct.std::_Rb_tree_node", ptr %80, i64 0, i32 1, i32 1
  ret ptr %81
}

; Function Attrs: sspstrong uwtable
define weak_odr dso_local void @_ZN6dealii16SolutionTransferILi3ENS_6VectorIfEENS_10DoFHandlerILi3ELi3EEEE37prepare_for_coarsening_and_refinementERKSt6vectorIS2_SaIS2_EE(ptr noundef nonnull align 8 dereferenceable(120) %0, ptr noundef nonnull align 8 dereferenceable(24) %1) local_unnamed_addr #0 comdat align 2 personality ptr @__gxx_personality_v0 {
  %3 = alloca %"class.dealii::RefinementCase", align 1
  %4 = alloca i32, align 4
  %5 = alloca %"class.dealii::TriaActiveIterator", align 8
  %6 = alloca %"class.dealii::TriaRawIterator", align 8
  %7 = alloca %"class.dealii::TriaIterator", align 8
  %8 = alloca %"class.std::vector.39", align 8
  %9 = alloca %"class.std::vector.101", align 8
  %10 = alloca %"class.dealii::Vector", align 8
  %11 = alloca %"class.std::allocator.103", align 1
  %12 = alloca %"class.dealii::TriaIterator", align 8
  %13 = alloca %"struct.std::pair", align 8
  %14 = alloca %"class.std::vector.101", align 16
  %15 = alloca %"class.dealii::Vector", align 8
  %16 = alloca %"class.std::allocator.103", align 1
  %17 = alloca %"struct.std::pair", align 8
  %18 = getelementptr inbounds %"struct.std::_Vector_base<dealii::Vector<float>, std::allocator<dealii::Vector<float> > >::_Vector_impl_data", ptr %1, i64 0, i32 1
  %19 = load ptr, ptr %18, align 8, !tbaa !28
  %20 = load ptr, ptr %1, align 8, !tbaa !26
  %21 = ptrtoint ptr %19 to i64
  %22 = ptrtoint ptr %20 to i64
  %23 = sub i64 %21, %22
  %24 = sdiv exact i64 %23, 88
  tail call void @_ZN6dealii16SolutionTransferILi3ENS_6VectorIfEENS_10DoFHandlerILi3ELi3EEEE5clearEv(ptr noundef nonnull align 8 dereferenceable(120) %0)
  %25 = load ptr, ptr %0, align 8, !tbaa !5
  %26 = getelementptr inbounds %"class.dealii::DoFHandler", ptr %25, i64 0, i32 1
  %27 = load ptr, ptr %26, align 8, !tbaa !47
  %28 = tail call noundef i32 @_ZNK6dealii13TriangulationILi3ELi3EE14n_active_cellsEv(ptr noundef nonnull align 8 dereferenceable(8552) %27)
  %29 = load ptr, ptr %0, align 8, !tbaa !5
  %30 = getelementptr inbounds %"class.dealii::DoFHandler", ptr %29, i64 0, i32 5
  %31 = load i32, ptr %30, align 8, !tbaa !49
  %32 = getelementptr inbounds %"class.dealii::SolutionTransfer", ptr %0, i64 0, i32 1
  store i32 %31, ptr %32, align 8, !tbaa !65
  call void @llvm.lifetime.start.p0(i64 24, ptr nonnull %5) #15
  call void @_ZNK6dealii10DoFHandlerILi3ELi3EE12begin_activeEj(ptr nonnull sret(%"class.dealii::TriaActiveIterator") align 8 %5, ptr noundef nonnull align 8 dereferenceable(168) %29, i32 noundef 0)
  call void @llvm.lifetime.start.p0(i64 24, ptr nonnull %6) #15
  %33 = load ptr, ptr %0, align 8, !tbaa !5
  call void @_ZNK6dealii10DoFHandlerILi3ELi3EE3endEv(ptr nonnull sret(%"class.dealii::TriaRawIterator") align 8 %6, ptr noundef nonnull align 8 dereferenceable(168) %33)
  %34 = load i32, ptr %6, align 8
  %35 = getelementptr inbounds i8, ptr %6, i64 4
  %36 = load i32, ptr %35, align 4
  call void @llvm.lifetime.end.p0(i64 24, ptr nonnull %6) #15
  %37 = getelementptr inbounds %"class.dealii::TriaAccessorBase", ptr %5, i64 0, i32 1
  %38 = load i32, ptr %37, align 4
  %39 = load i32, ptr %5, align 8
  %40 = icmp ne i32 %38, %36
  %41 = icmp ne i32 %39, %34
  %42 = select i1 %40, i1 true, i1 %41
  br i1 %42, label %43, label %166

43:                                               ; preds = %2
  %44 = getelementptr inbounds %"class.dealii::TriaAccessorBase", ptr %5, i64 0, i32 2
  %45 = load ptr, ptr %44, align 8, !tbaa !87
  %46 = getelementptr inbounds %"class.dealii::Triangulation", ptr %45, i64 0, i32 1
  %47 = load ptr, ptr %46, align 8, !tbaa !88
  %48 = ptrtoint ptr %47 to i64
  %49 = getelementptr inbounds %"class.dealii::Triangulation", ptr %45, i64 0, i32 1, i32 0, i32 0, i32 0, i32 1
  br label %50

50:                                               ; preds = %43, %162
  %51 = phi i32 [ 0, %43 ], [ %74, %162 ]
  %52 = phi i32 [ %38, %43 ], [ %127, %162 ]
  %53 = phi i32 [ %39, %43 ], [ %125, %162 ]
  %54 = sext i32 %53 to i64
  %55 = getelementptr inbounds ptr, ptr %47, i64 %54
  %56 = load ptr, ptr %55, align 8, !tbaa !78
  %57 = getelementptr inbounds %"class.dealii::internal::Triangulation::TriaLevel", ptr %56, i64 0, i32 1
  %58 = load ptr, ptr %57, align 8, !tbaa !96
  %59 = sdiv i32 %52, 64
  %60 = sext i32 %59 to i64
  %61 = getelementptr inbounds i64, ptr %58, i64 %60
  %62 = srem i32 %52, 64
  %63 = sext i32 %62 to i64
  %64 = icmp slt i32 %62, 0
  %65 = add nsw i64 %63, 64
  %66 = ashr i64 %63, 63
  %67 = getelementptr inbounds i64, ptr %61, i64 %66
  %68 = select i1 %64, i64 %65, i64 %63
  %69 = shl nuw i64 1, %68
  %70 = load i64, ptr %67, align 8, !tbaa !98
  %71 = and i64 %70, %69
  %72 = icmp eq i64 %71, 0
  %73 = zext i1 %72 to i32
  %74 = add i32 %51, %73
  br label %75

75:                                               ; preds = %146, %50
  %76 = phi i32 [ %53, %50 ], [ %125, %146 ]
  %77 = phi i32 [ %53, %50 ], [ %126, %146 ]
  %78 = phi i32 [ %53, %50 ], [ %147, %146 ]
  %79 = phi i32 [ %52, %50 ], [ %127, %146 ]
  %80 = add nsw i32 %79, 1
  %81 = sext i32 %78 to i64
  %82 = getelementptr inbounds ptr, ptr %47, i64 %81
  %83 = load ptr, ptr %82, align 8, !tbaa !78
  %84 = getelementptr inbounds %"class.dealii::internal::Triangulation::TriaLevel", ptr %83, i64 0, i32 4
  %85 = getelementptr inbounds %"class.dealii::internal::Triangulation::TriaLevel", ptr %83, i64 0, i32 4, i32 0, i32 0, i32 0, i32 0, i32 0, i32 1
  %86 = load ptr, ptr %85, align 8, !tbaa !90
  %87 = load ptr, ptr %84, align 8, !tbaa !92
  %88 = ptrtoint ptr %86 to i64
  %89 = ptrtoint ptr %87 to i64
  %90 = sub i64 %88, %89
  %91 = sdiv exact i64 %90, 24
  %92 = trunc i64 %91 to i32
  %93 = icmp slt i32 %80, %92
  br i1 %93, label %124, label %94

94:                                               ; preds = %75
  %95 = add nsw i64 %81, 1
  %96 = trunc i64 %95 to i32
  store i32 %96, ptr %5, align 8, !tbaa !80
  %97 = load ptr, ptr %49, align 8, !tbaa !93
  %98 = ptrtoint ptr %97 to i64
  %99 = sub i64 %98, %48
  %100 = shl i64 %99, 29
  %101 = ashr i64 %100, 32
  %102 = icmp slt i64 %95, %101
  br i1 %102, label %103, label %121

103:                                              ; preds = %94, %117
  %104 = phi i64 [ %118, %117 ], [ %95, %94 ]
  %105 = getelementptr inbounds ptr, ptr %47, i64 %104
  %106 = load ptr, ptr %105, align 8, !tbaa !78
  %107 = getelementptr inbounds %"class.dealii::internal::Triangulation::TriaLevel", ptr %106, i64 0, i32 4
  %108 = getelementptr inbounds %"class.dealii::internal::Triangulation::TriaLevel", ptr %106, i64 0, i32 4, i32 0, i32 0, i32 0, i32 0, i32 0, i32 1
  %109 = load ptr, ptr %108, align 8, !tbaa !90
  %110 = load ptr, ptr %107, align 8, !tbaa !92
  %111 = ptrtoint ptr %109 to i64
  %112 = ptrtoint ptr %110 to i64
  %113 = sub i64 %111, %112
  %114 = sdiv exact i64 %113, 24
  %115 = trunc i64 %114 to i32
  %116 = icmp sgt i32 %115, 0
  br i1 %116, label %122, label %117

117:                                              ; preds = %103
  %118 = add i64 %104, 1
  %119 = trunc i64 %118 to i32
  store i32 %119, ptr %5, align 8, !tbaa !80
  %120 = icmp eq i64 %118, %101
  br i1 %120, label %121, label %103, !llvm.loop !94

121:                                              ; preds = %117, %94
  store i32 -1, ptr %5, align 8, !tbaa !80
  br label %124

122:                                              ; preds = %103
  %123 = trunc i64 %104 to i32
  br label %124

124:                                              ; preds = %122, %121, %75
  %125 = phi i32 [ %76, %75 ], [ -1, %121 ], [ %123, %122 ]
  %126 = phi i32 [ %77, %75 ], [ -1, %121 ], [ %123, %122 ]
  %127 = phi i32 [ %80, %75 ], [ -1, %121 ], [ 0, %122 ]
  %128 = phi i32 [ %78, %75 ], [ -1, %121 ], [ %123, %122 ]
  %129 = or i32 %128, %127
  %130 = icmp sgt i32 %129, -1
  br i1 %130, label %131, label %148

131:                                              ; preds = %124
  %132 = zext i32 %128 to i64
  %133 = getelementptr inbounds ptr, ptr %47, i64 %132
  %134 = load ptr, ptr %133, align 8, !tbaa !78
  %135 = getelementptr inbounds %"class.dealii::internal::Triangulation::TriaLevel", ptr %134, i64 0, i32 4, i32 0, i32 3
  %136 = load ptr, ptr %135, align 8, !tbaa !96
  %137 = lshr i32 %127, 6
  %138 = zext i32 %137 to i64
  %139 = getelementptr inbounds i64, ptr %136, i64 %138
  %140 = and i32 %127, 63
  %141 = zext i32 %140 to i64
  %142 = shl nuw i64 1, %141
  %143 = load i64, ptr %139, align 8, !tbaa !98
  %144 = and i64 %143, %142
  %145 = icmp eq i64 %144, 0
  br i1 %145, label %146, label %148

146:                                              ; preds = %131, %151
  %147 = phi i32 [ %128, %131 ], [ %126, %151 ]
  br label %75

148:                                              ; preds = %131, %124
  store i32 %127, ptr %37, align 4, !tbaa !67
  %149 = or i32 %127, %126
  %150 = icmp sgt i32 %149, -1
  br i1 %150, label %151, label %162

151:                                              ; preds = %148
  %152 = zext i32 %126 to i64
  %153 = getelementptr inbounds ptr, ptr %47, i64 %152
  %154 = load ptr, ptr %153, align 8, !tbaa !78
  %155 = getelementptr inbounds %"class.dealii::internal::Triangulation::TriaLevel", ptr %154, i64 0, i32 4, i32 0, i32 1
  %156 = shl i32 %127, 2
  %157 = zext i32 %156 to i64
  %158 = load ptr, ptr %155, align 8, !tbaa !99
  %159 = getelementptr inbounds i32, ptr %158, i64 %157
  %160 = load i32, ptr %159, align 4, !tbaa !77
  %161 = icmp eq i32 %160, -1
  br i1 %161, label %162, label %146

162:                                              ; preds = %148, %151
  %163 = icmp ne i32 %127, %36
  %164 = icmp ne i32 %125, %34
  %165 = select i1 %163, i1 true, i1 %164
  br i1 %165, label %50, label %166

166:                                              ; preds = %162, %2
  %167 = phi i32 [ 0, %2 ], [ %74, %162 ]
  call void @llvm.lifetime.start.p0(i64 24, ptr nonnull %7) #15
  %168 = load ptr, ptr %0, align 8, !tbaa !5
  call void @_ZNK6dealii10DoFHandlerILi3ELi3EE5beginEj(ptr nonnull sret(%"class.dealii::TriaIterator") align 8 %7, ptr noundef nonnull align 8 dereferenceable(168) %168, i32 noundef 0)
  %169 = getelementptr inbounds %"class.dealii::TriaAccessorBase", ptr %7, i64 0, i32 1
  %170 = load i32, ptr %169, align 4
  %171 = load i32, ptr %7, align 8
  %172 = icmp ne i32 %170, %36
  %173 = icmp ne i32 %171, %34
  %174 = select i1 %172, i1 true, i1 %173
  br i1 %174, label %175, label %294

175:                                              ; preds = %166
  %176 = getelementptr inbounds %"class.dealii::TriaAccessorBase", ptr %7, i64 0, i32 2
  %177 = load ptr, ptr %176, align 8, !tbaa !87
  %178 = getelementptr inbounds %"class.dealii::Triangulation", ptr %177, i64 0, i32 1
  %179 = load ptr, ptr %178, align 8, !tbaa !88
  %180 = ptrtoint ptr %179 to i64
  %181 = getelementptr inbounds %"class.dealii::Triangulation", ptr %177, i64 0, i32 1, i32 0, i32 0, i32 0, i32 1
  br label %182

182:                                              ; preds = %175, %290
  %183 = phi i32 [ 0, %175 ], [ %220, %290 ]
  %184 = phi i32 [ %170, %175 ], [ %271, %290 ]
  %185 = phi i32 [ %171, %175 ], [ %270, %290 ]
  %186 = sext i32 %185 to i64
  %187 = getelementptr inbounds ptr, ptr %179, i64 %186
  %188 = load ptr, ptr %187, align 8, !tbaa !78
  %189 = getelementptr inbounds %"class.dealii::internal::Triangulation::TriaLevel", ptr %188, i64 0, i32 4, i32 0, i32 1
  %190 = shl i32 %184, 2
  %191 = zext i32 %190 to i64
  %192 = load ptr, ptr %189, align 8, !tbaa !99
  %193 = getelementptr inbounds i32, ptr %192, i64 %191
  %194 = load i32, ptr %193, align 4, !tbaa !77
  %195 = icmp eq i32 %194, -1
  br i1 %195, label %219, label %196

196:                                              ; preds = %182
  %197 = add nsw i32 %185, 1
  %198 = sext i32 %197 to i64
  %199 = getelementptr inbounds ptr, ptr %179, i64 %198
  %200 = load ptr, ptr %199, align 8, !tbaa !78
  %201 = getelementptr inbounds %"class.dealii::internal::Triangulation::TriaLevel", ptr %200, i64 0, i32 1
  %202 = load ptr, ptr %201, align 8, !tbaa !96
  %203 = sdiv i32 %194, 64
  %204 = sext i32 %203 to i64
  %205 = getelementptr inbounds i64, ptr %202, i64 %204
  %206 = srem i32 %194, 64
  %207 = sext i32 %206 to i64
  %208 = icmp slt i32 %206, 0
  %209 = add nsw i64 %207, 64
  %210 = ashr i64 %207, 63
  %211 = getelementptr inbounds i64, ptr %205, i64 %210
  %212 = select i1 %208, i64 %209, i64 %207
  %213 = shl nuw i64 1, %212
  %214 = load i64, ptr %211, align 8, !tbaa !98
  %215 = and i64 %214, %213
  %216 = icmp ne i64 %215, 0
  %217 = zext i1 %216 to i32
  %218 = add i32 %183, %217
  br label %219

219:                                              ; preds = %182, %196
  %220 = phi i32 [ %218, %196 ], [ %183, %182 ]
  br label %221

221:                                              ; preds = %275, %219
  %222 = phi i32 [ %270, %275 ], [ %185, %219 ]
  %223 = phi i32 [ %272, %275 ], [ %185, %219 ]
  %224 = phi i32 [ %271, %275 ], [ %184, %219 ]
  %225 = add nsw i32 %224, 1
  %226 = sext i32 %223 to i64
  %227 = getelementptr inbounds ptr, ptr %179, i64 %226
  %228 = load ptr, ptr %227, align 8, !tbaa !78
  %229 = getelementptr inbounds %"class.dealii::internal::Triangulation::TriaLevel", ptr %228, i64 0, i32 4
  %230 = getelementptr inbounds %"class.dealii::internal::Triangulation::TriaLevel", ptr %228, i64 0, i32 4, i32 0, i32 0, i32 0, i32 0, i32 0, i32 1
  %231 = load ptr, ptr %230, align 8, !tbaa !90
  %232 = load ptr, ptr %229, align 8, !tbaa !92
  %233 = ptrtoint ptr %231 to i64
  %234 = ptrtoint ptr %232 to i64
  %235 = sub i64 %233, %234
  %236 = sdiv exact i64 %235, 24
  %237 = trunc i64 %236 to i32
  %238 = icmp slt i32 %225, %237
  br i1 %238, label %269, label %239

239:                                              ; preds = %221
  %240 = add nsw i64 %226, 1
  %241 = trunc i64 %240 to i32
  store i32 %241, ptr %7, align 8, !tbaa !80
  %242 = load ptr, ptr %181, align 8, !tbaa !93
  %243 = ptrtoint ptr %242 to i64
  %244 = sub i64 %243, %180
  %245 = shl i64 %244, 29
  %246 = ashr i64 %245, 32
  %247 = icmp slt i64 %240, %246
  br i1 %247, label %248, label %266

248:                                              ; preds = %239, %262
  %249 = phi i64 [ %263, %262 ], [ %240, %239 ]
  %250 = getelementptr inbounds ptr, ptr %179, i64 %249
  %251 = load ptr, ptr %250, align 8, !tbaa !78
  %252 = getelementptr inbounds %"class.dealii::internal::Triangulation::TriaLevel", ptr %251, i64 0, i32 4
  %253 = getelementptr inbounds %"class.dealii::internal::Triangulation::TriaLevel", ptr %251, i64 0, i32 4, i32 0, i32 0, i32 0, i32 0, i32 0, i32 1
  %254 = load ptr, ptr %253, align 8, !tbaa !90
  %255 = load ptr, ptr %252, align 8, !tbaa !92
  %256 = ptrtoint ptr %254 to i64
  %257 = ptrtoint ptr %255 to i64
  %258 = sub i64 %256, %257
  %259 = sdiv exact i64 %258, 24
  %260 = trunc i64 %259 to i32
  %261 = icmp sgt i32 %260, 0
  br i1 %261, label %267, label %262

262:                                              ; preds = %248
  %263 = add i64 %249, 1
  %264 = trunc i64 %263 to i32
  store i32 %264, ptr %7, align 8, !tbaa !80
  %265 = icmp eq i64 %263, %246
  br i1 %265, label %266, label %248, !llvm.loop !94

266:                                              ; preds = %262, %239
  store i32 -1, ptr %7, align 8, !tbaa !80
  br label %269

267:                                              ; preds = %248
  %268 = trunc i64 %249 to i32
  br label %269

269:                                              ; preds = %267, %266, %221
  %270 = phi i32 [ %222, %221 ], [ -1, %266 ], [ %268, %267 ]
  %271 = phi i32 [ %225, %221 ], [ -1, %266 ], [ 0, %267 ]
  %272 = phi i32 [ %223, %221 ], [ -1, %266 ], [ %268, %267 ]
  %273 = or i32 %272, %271
  %274 = icmp sgt i32 %273, -1
  br i1 %274, label %275, label %290

275:                                              ; preds = %269
  %276 = zext i32 %272 to i64
  %277 = getelementptr inbounds ptr, ptr %179, i64 %276
  %278 = load ptr, ptr %277, align 8, !tbaa !78
  %279 = getelementptr inbounds %"class.dealii::internal::Triangulation::TriaLevel", ptr %278, i64 0, i32 4, i32 0, i32 3
  %280 = load ptr, ptr %279, align 8, !tbaa !96
  %281 = lshr i32 %271, 6
  %282 = zext i32 %281 to i64
  %283 = getelementptr inbounds i64, ptr %280, i64 %282
  %284 = and i32 %271, 63
  %285 = zext i32 %284 to i64
  %286 = shl nuw i64 1, %285
  %287 = load i64, ptr %283, align 8, !tbaa !98
  %288 = and i64 %287, %286
  %289 = icmp eq i64 %288, 0
  br i1 %289, label %221, label %290

290:                                              ; preds = %269, %275
  store i32 %271, ptr %169, align 4, !tbaa !67
  %291 = icmp ne i32 %271, %36
  %292 = icmp ne i32 %270, %34
  %293 = select i1 %291, i1 true, i1 %292
  br i1 %293, label %182, label %294

294:                                              ; preds = %290, %166
  %295 = phi i32 [ 0, %166 ], [ %220, %290 ]
  %296 = zext i32 %167 to i64
  call void @llvm.lifetime.start.p0(i64 24, ptr nonnull %8) #15
  call void @llvm.memset.p0.i64(ptr noundef nonnull align 8 dereferenceable(24) %8, i8 0, i64 24, i1 false)
  %297 = icmp eq i32 %167, 0
  br i1 %297, label %301, label %298

298:                                              ; preds = %294
  %299 = mul nuw nsw i64 %296, 24
  %300 = invoke noalias noundef nonnull ptr @_Znwm(i64 noundef %299) #18
          to label %301 unwind label %544

301:                                              ; preds = %298, %294
  %302 = phi ptr [ null, %294 ], [ %300, %298 ]
  %303 = invoke noundef ptr @_ZSt18__do_uninit_fill_nIPSt6vectorIjSaIjEEmS2_ET_S4_T0_RKT1_(ptr noundef %302, i64 noundef %296, ptr noundef nonnull align 8 dereferenceable(24) %8)
          to label %308 unwind label %304

304:                                              ; preds = %301
  %305 = landingpad { ptr, i32 }
          cleanup
  %306 = icmp eq ptr %302, null
  br i1 %306, label %546, label %307

307:                                              ; preds = %304
  call void @_ZdlPv(ptr noundef nonnull %302) #17
  br label %546

308:                                              ; preds = %301
  %309 = getelementptr inbounds %"class.std::vector.39", ptr %302, i64 %296
  %310 = getelementptr inbounds %"class.dealii::SolutionTransfer", ptr %0, i64 0, i32 3
  %311 = load ptr, ptr %310, align 8, !tbaa !18
  %312 = getelementptr inbounds %"class.dealii::SolutionTransfer", ptr %0, i64 0, i32 3, i32 0, i32 0, i32 0, i32 1
  %313 = load ptr, ptr %312, align 8, !tbaa !20
  %314 = getelementptr inbounds %"class.dealii::SolutionTransfer", ptr %0, i64 0, i32 3, i32 0, i32 0, i32 0, i32 2
  store ptr %302, ptr %310, align 8, !tbaa !18
  store ptr %303, ptr %312, align 8, !tbaa !20
  store ptr %309, ptr %314, align 8, !tbaa !66
  %315 = icmp eq ptr %311, %313
  br i1 %315, label %324, label %316

316:                                              ; preds = %308, %321
  %317 = phi ptr [ %322, %321 ], [ %311, %308 ]
  %318 = load ptr, ptr %317, align 8, !tbaa !21
  %319 = icmp eq ptr %318, null
  br i1 %319, label %321, label %320

320:                                              ; preds = %316
  call void @_ZdlPv(ptr noundef nonnull %318) #17
  br label %321

321:                                              ; preds = %320, %316
  %322 = getelementptr inbounds %"class.std::vector.39", ptr %317, i64 1
  %323 = icmp eq ptr %322, %313
  br i1 %323, label %324, label %316

324:                                              ; preds = %321, %308
  %325 = icmp eq ptr %311, null
  br i1 %325, label %327, label %326

326:                                              ; preds = %324
  call void @_ZdlPv(ptr noundef nonnull %311) #17
  br label %327

327:                                              ; preds = %326, %324
  %328 = load ptr, ptr %8, align 8, !tbaa !21
  %329 = icmp eq ptr %328, null
  br i1 %329, label %331, label %330

330:                                              ; preds = %327
  call void @_ZdlPv(ptr noundef nonnull %328) #17
  br label %331

331:                                              ; preds = %327, %330
  call void @llvm.lifetime.end.p0(i64 24, ptr nonnull %8) #15
  call void @llvm.lifetime.start.p0(i64 24, ptr nonnull %9) #15
  %332 = and i64 %24, 4294967295
  call void @llvm.lifetime.start.p0(i64 88, ptr nonnull %10) #15
  call void @_ZN6dealii11SubscriptorC2Ev(ptr noundef nonnull align 8 dereferenceable(72) %10)
  store ptr getelementptr inbounds ({ [6 x ptr] }, ptr @_ZTVN6dealii6VectorIfEE, i64 0, inrange i32 0, i64 2), ptr %10, align 8, !tbaa !29
  %333 = getelementptr inbounds %"class.dealii::Vector", ptr %10, i64 0, i32 1
  call void @llvm.memset.p0.i64(ptr noundef nonnull align 8 dereferenceable(16) %333, i8 0, i64 16, i1 false)
  call void @llvm.lifetime.start.p0(i64 1, ptr nonnull %11) #15
  invoke void @_ZNSt6vectorIN6dealii6VectorIfEESaIS2_EEC2EmRKS2_RKS3_(ptr noundef nonnull align 8 dereferenceable(24) %9, i64 noundef %332, ptr noundef nonnull align 8 dereferenceable(88) %10, ptr noundef nonnull align 1 dereferenceable(1) %11)
          to label %334 unwind label %552

334:                                              ; preds = %331
  %335 = zext i32 %295 to i64
  %336 = icmp eq i32 %295, 0
  br i1 %336, label %340, label %337

337:                                              ; preds = %334
  %338 = mul nuw nsw i64 %335, 24
  %339 = invoke noalias noundef nonnull ptr @_Znwm(i64 noundef %338) #18
          to label %340 unwind label %554

340:                                              ; preds = %337, %334
  %341 = phi ptr [ null, %334 ], [ %339, %337 ]
  %342 = invoke noundef ptr @_ZNSt22__uninitialized_fill_nILb0EE15__uninit_fill_nIPSt6vectorIN6dealii6VectorIfEESaIS5_EEmS7_EET_S9_T0_RKT1_(ptr noundef %341, i64 noundef %335, ptr noundef nonnull align 8 dereferenceable(24) %9)
          to label %347 unwind label %343

343:                                              ; preds = %340
  %344 = landingpad { ptr, i32 }
          cleanup
  %345 = icmp eq ptr %341, null
  br i1 %345, label %556, label %346

346:                                              ; preds = %343
  call void @_ZdlPv(ptr noundef nonnull %341) #17
  br label %556

347:                                              ; preds = %340
  %348 = getelementptr inbounds %"class.std::vector.101", ptr %341, i64 %335
  %349 = getelementptr inbounds %"class.dealii::SolutionTransfer", ptr %0, i64 0, i32 5
  %350 = load ptr, ptr %349, align 8, !tbaa !23
  %351 = getelementptr inbounds %"class.dealii::SolutionTransfer", ptr %0, i64 0, i32 5, i32 0, i32 0, i32 0, i32 1
  %352 = load ptr, ptr %351, align 8, !tbaa !25
  %353 = getelementptr inbounds %"class.dealii::SolutionTransfer", ptr %0, i64 0, i32 5, i32 0, i32 0, i32 0, i32 2
  store ptr %341, ptr %349, align 8, !tbaa !23
  store ptr %342, ptr %351, align 8, !tbaa !25
  store ptr %348, ptr %353, align 8, !tbaa !101
  %354 = icmp eq ptr %350, %352
  br i1 %354, label %382, label %355

355:                                              ; preds = %347, %379
  %356 = phi ptr [ %380, %379 ], [ %350, %347 ]
  %357 = load ptr, ptr %356, align 8, !tbaa !26
  %358 = getelementptr inbounds %"struct.std::_Vector_base<dealii::Vector<float>, std::allocator<dealii::Vector<float> > >::_Vector_impl_data", ptr %356, i64 0, i32 1
  %359 = load ptr, ptr %358, align 8, !tbaa !28
  %360 = icmp eq ptr %357, %359
  br i1 %360, label %370, label %361

361:                                              ; preds = %355, %365
  %362 = phi ptr [ %366, %365 ], [ %357, %355 ]
  %363 = load ptr, ptr %362, align 8, !tbaa !29
  %364 = load ptr, ptr %363, align 8
  invoke void %364(ptr noundef nonnull align 8 dereferenceable(88) %362)
          to label %365 unwind label %374

365:                                              ; preds = %361
  %366 = getelementptr inbounds %"class.dealii::Vector", ptr %362, i64 1
  %367 = icmp eq ptr %366, %359
  br i1 %367, label %368, label %361

368:                                              ; preds = %365
  %369 = load ptr, ptr %356, align 8, !tbaa !26
  br label %370

370:                                              ; preds = %368, %355
  %371 = phi ptr [ %369, %368 ], [ %357, %355 ]
  %372 = icmp eq ptr %371, null
  br i1 %372, label %379, label %373

373:                                              ; preds = %370
  call void @_ZdlPv(ptr noundef nonnull %371) #17
  br label %379

374:                                              ; preds = %361
  %375 = landingpad { ptr, i32 }
          cleanup
  %376 = load ptr, ptr %356, align 8, !tbaa !26
  %377 = icmp eq ptr %376, null
  br i1 %377, label %385, label %378

378:                                              ; preds = %374
  call void @_ZdlPv(ptr noundef nonnull %376) #17
  br label %385

379:                                              ; preds = %373, %370
  %380 = getelementptr inbounds %"class.std::vector.101", ptr %356, i64 1
  %381 = icmp eq ptr %380, %352
  br i1 %381, label %382, label %355

382:                                              ; preds = %379, %347
  %383 = icmp eq ptr %350, null
  br i1 %383, label %388, label %384

384:                                              ; preds = %382
  call void @_ZdlPv(ptr noundef nonnull %350) #17
  br label %388

385:                                              ; preds = %378, %374
  %386 = icmp eq ptr %350, null
  br i1 %386, label %556, label %387

387:                                              ; preds = %385
  call void @_ZdlPv(ptr noundef nonnull %350) #17
  br label %556

388:                                              ; preds = %384, %382
  %389 = load ptr, ptr %9, align 8, !tbaa !26
  %390 = getelementptr inbounds %"struct.std::_Vector_base<dealii::Vector<float>, std::allocator<dealii::Vector<float> > >::_Vector_impl_data", ptr %9, i64 0, i32 1
  %391 = load ptr, ptr %390, align 8, !tbaa !28
  %392 = icmp eq ptr %389, %391
  br i1 %392, label %402, label %393

393:                                              ; preds = %388, %397
  %394 = phi ptr [ %398, %397 ], [ %389, %388 ]
  %395 = load ptr, ptr %394, align 8, !tbaa !29
  %396 = load ptr, ptr %395, align 8
  invoke void %396(ptr noundef nonnull align 8 dereferenceable(88) %394)
          to label %397 unwind label %406

397:                                              ; preds = %393
  %398 = getelementptr inbounds %"class.dealii::Vector", ptr %394, i64 1
  %399 = icmp eq ptr %398, %391
  br i1 %399, label %400, label %393

400:                                              ; preds = %397
  %401 = load ptr, ptr %9, align 8, !tbaa !26
  br label %402

402:                                              ; preds = %400, %388
  %403 = phi ptr [ %401, %400 ], [ %389, %388 ]
  %404 = icmp eq ptr %403, null
  br i1 %404, label %411, label %405

405:                                              ; preds = %402
  call void @_ZdlPv(ptr noundef nonnull %403) #17
  br label %411

406:                                              ; preds = %393
  %407 = landingpad { ptr, i32 }
          cleanup
  %408 = load ptr, ptr %9, align 8, !tbaa !26
  %409 = icmp eq ptr %408, null
  br i1 %409, label %558, label %410

410:                                              ; preds = %406
  call void @_ZdlPv(ptr noundef nonnull %408) #17
  br label %558

411:                                              ; preds = %405, %402
  call void @llvm.lifetime.end.p0(i64 1, ptr nonnull %11) #15
  store ptr getelementptr inbounds ({ [6 x ptr] }, ptr @_ZTVN6dealii6VectorIfEE, i64 0, inrange i32 0, i64 2), ptr %10, align 8, !tbaa !29
  %412 = getelementptr inbounds %"class.dealii::Vector", ptr %10, i64 0, i32 3
  %413 = load ptr, ptr %412, align 8, !tbaa !102
  %414 = icmp eq ptr %413, null
  br i1 %414, label %416, label %415

415:                                              ; preds = %411
  call void @_ZdaPv(ptr noundef nonnull %413) #17
  store ptr null, ptr %412, align 8, !tbaa !102
  br label %416

416:                                              ; preds = %411, %415
  call void @_ZN6dealii11SubscriptorD2Ev(ptr noundef nonnull align 8 dereferenceable(72) %10)
  call void @llvm.lifetime.end.p0(i64 88, ptr nonnull %10) #15
  call void @llvm.lifetime.end.p0(i64 24, ptr nonnull %9) #15
  call void @llvm.lifetime.start.p0(i64 24, ptr nonnull %12) #15
  %417 = load ptr, ptr %0, align 8, !tbaa !5
  call void @_ZNK6dealii10DoFHandlerILi3ELi3EE5beginEj(ptr nonnull sret(%"class.dealii::TriaIterator") align 8 %12, ptr noundef nonnull align 8 dereferenceable(168) %417, i32 noundef 0)
  %418 = load i32, ptr %12, align 8, !tbaa !80
  store i32 %418, ptr %7, align 8, !tbaa !80
  %419 = getelementptr inbounds %"class.dealii::TriaAccessorBase", ptr %12, i64 0, i32 1
  %420 = load i32, ptr %419, align 4, !tbaa !67
  store i32 %420, ptr %169, align 4, !tbaa !67
  %421 = getelementptr inbounds %"class.dealii::TriaAccessorBase", ptr %12, i64 0, i32 2
  %422 = getelementptr inbounds %"class.dealii::TriaAccessorBase", ptr %7, i64 0, i32 2
  %423 = getelementptr inbounds %"class.dealii::DoFAccessor", ptr %7, i64 0, i32 1
  %424 = load <2 x ptr>, ptr %421, align 8, !tbaa !78
  store <2 x ptr> %424, ptr %422, align 8, !tbaa !78
  call void @llvm.lifetime.end.p0(i64 24, ptr nonnull %12) #15
  %425 = icmp ne i32 %420, %36
  %426 = icmp ne i32 %418, %34
  %427 = select i1 %425, i1 true, i1 %426
  br i1 %427, label %428, label %777

428:                                              ; preds = %416
  %429 = getelementptr inbounds %"class.dealii::Vector", ptr %15, i64 0, i32 1
  %430 = getelementptr inbounds %"class.dealii::Vector", ptr %15, i64 0, i32 3
  %431 = getelementptr inbounds %"class.dealii::Vector", ptr %15, i64 0, i32 2
  %432 = getelementptr inbounds %"struct.std::_Vector_base<dealii::Vector<float>, std::allocator<dealii::Vector<float> > >::_Vector_impl_data", ptr %14, i64 0, i32 1
  %433 = getelementptr inbounds %"struct.std::_Vector_base<dealii::Vector<float>, std::allocator<dealii::Vector<float> > >::_Vector_impl_data", ptr %14, i64 0, i32 2
  %434 = and i64 %24, 4294967295
  %435 = icmp eq i64 %434, 0
  %436 = getelementptr inbounds %"class.dealii::SolutionTransfer", ptr %0, i64 0, i32 4
  %437 = extractelement <2 x ptr> %424, i64 0
  %438 = getelementptr inbounds %"class.dealii::Triangulation", ptr %437, i64 0, i32 1
  %439 = load ptr, ptr %438, align 8, !tbaa !88
  %440 = and i64 %24, 4294967295
  br label %441

441:                                              ; preds = %428, %773
  %442 = phi ptr [ %439, %428 ], [ %682, %773 ]
  %443 = phi i32 [ %418, %428 ], [ %753, %773 ]
  %444 = phi i32 [ %420, %428 ], [ %754, %773 ]
  %445 = phi i32 [ 0, %428 ], [ %679, %773 ]
  %446 = phi i32 [ 0, %428 ], [ %678, %773 ]
  %447 = sext i32 %443 to i64
  %448 = getelementptr inbounds ptr, ptr %442, i64 %447
  %449 = load ptr, ptr %448, align 8, !tbaa !78
  %450 = getelementptr inbounds %"class.dealii::internal::Triangulation::TriaLevel", ptr %449, i64 0, i32 4, i32 0, i32 1
  %451 = shl i32 %444, 2
  %452 = zext i32 %451 to i64
  %453 = load ptr, ptr %450, align 8, !tbaa !99
  %454 = getelementptr inbounds i32, ptr %453, i64 %452
  %455 = load i32, ptr %454, align 4, !tbaa !77
  %456 = icmp eq i32 %455, -1
  br i1 %456, label %457, label %561

457:                                              ; preds = %441
  %458 = getelementptr inbounds %"class.dealii::internal::Triangulation::TriaLevel", ptr %449, i64 0, i32 1
  %459 = load ptr, ptr %458, align 8, !tbaa !96
  %460 = sdiv i32 %444, 64
  %461 = sext i32 %460 to i64
  %462 = getelementptr inbounds i64, ptr %459, i64 %461
  %463 = srem i32 %444, 64
  %464 = sext i32 %463 to i64
  %465 = icmp slt i32 %463, 0
  %466 = add nsw i64 %464, 64
  %467 = ashr i64 %464, 63
  %468 = getelementptr inbounds i64, ptr %462, i64 %467
  %469 = select i1 %465, i64 %466, i64 %464
  %470 = shl nuw i64 1, %469
  %471 = load i64, ptr %468, align 8, !tbaa !98
  %472 = and i64 %471, %470
  %473 = icmp eq i64 %472, 0
  br i1 %473, label %474, label %677

474:                                              ; preds = %457
  %475 = load ptr, ptr %423, align 8, !tbaa !69
  %476 = getelementptr inbounds %"class.dealii::DoFHandler", ptr %475, i64 0, i32 2
  %477 = load ptr, ptr %476, align 8, !tbaa !73
  %478 = getelementptr inbounds i8, ptr %477, i64 112
  %479 = load i32, ptr %478, align 8, !tbaa !74
  %480 = zext i32 %446 to i64
  %481 = load ptr, ptr %310, align 8, !tbaa !18
  %482 = getelementptr inbounds %"class.std::vector.39", ptr %481, i64 %480
  %483 = zext i32 %479 to i64
  call void @llvm.lifetime.start.p0(i64 4, ptr nonnull %4)
  store i32 0, ptr %4, align 4, !tbaa !77
  %484 = getelementptr inbounds %"struct.std::_Vector_base<unsigned int, std::allocator<unsigned int> >::_Vector_impl_data", ptr %482, i64 0, i32 1
  %485 = load ptr, ptr %484, align 8, !tbaa !78
  %486 = load ptr, ptr %482, align 8, !tbaa !21
  %487 = ptrtoint ptr %485 to i64
  %488 = ptrtoint ptr %486 to i64
  %489 = sub i64 %487, %488
  %490 = ashr exact i64 %489, 2
  %491 = icmp ult i64 %490, %483
  br i1 %491, label %492, label %500

492:                                              ; preds = %474
  %493 = sub nsw i64 %483, %490
  call void @_ZNSt6vectorIjSaIjEE14_M_fill_insertEN9__gnu_cxx17__normal_iteratorIPjS1_EEmRKj(ptr noundef nonnull align 8 dereferenceable(24) %482, ptr %485, i64 noundef %493, ptr noundef nonnull align 4 dereferenceable(4) %4)
  %494 = load ptr, ptr %310, align 8, !tbaa !18
  %495 = load ptr, ptr %423, align 8, !tbaa !69
  %496 = getelementptr inbounds %"class.dealii::DoFHandler", ptr %495, i64 0, i32 2
  %497 = load ptr, ptr %496, align 8, !tbaa !73
  %498 = getelementptr inbounds i8, ptr %497, i64 112
  %499 = load i32, ptr %498, align 8, !tbaa !74
  br label %506

500:                                              ; preds = %474
  %501 = icmp ugt i64 %490, %483
  br i1 %501, label %502, label %506

502:                                              ; preds = %500
  %503 = getelementptr inbounds i32, ptr %486, i64 %483
  %504 = icmp eq ptr %485, %503
  br i1 %504, label %506, label %505

505:                                              ; preds = %502
  store ptr %503, ptr %484, align 8, !tbaa !79
  br label %506

506:                                              ; preds = %492, %500, %502, %505
  %507 = phi i32 [ %499, %492 ], [ %479, %500 ], [ %479, %502 ], [ %479, %505 ]
  %508 = phi ptr [ %497, %492 ], [ %477, %500 ], [ %477, %502 ], [ %477, %505 ]
  %509 = phi ptr [ %495, %492 ], [ %475, %500 ], [ %475, %502 ], [ %475, %505 ]
  %510 = phi ptr [ %494, %492 ], [ %481, %500 ], [ %481, %502 ], [ %481, %505 ]
  call void @llvm.lifetime.end.p0(i64 4, ptr nonnull %4)
  %511 = getelementptr inbounds %"class.std::vector.39", ptr %510, i64 %480
  %512 = getelementptr inbounds i8, ptr %508, i64 112
  %513 = icmp eq i32 %507, 0
  %514 = load <2 x i32>, ptr %7, align 8, !tbaa !77
  br i1 %513, label %540, label %515

515:                                              ; preds = %506
  %516 = getelementptr inbounds %"class.dealii::DoFHandler", ptr %509, i64 0, i32 3
  %517 = load ptr, ptr %516, align 8, !tbaa !81
  %518 = extractelement <2 x i32> %514, i64 0
  %519 = sext i32 %518 to i64
  %520 = getelementptr inbounds ptr, ptr %517, i64 %519
  %521 = load ptr, ptr %520, align 8, !tbaa !78
  %522 = load ptr, ptr %521, align 8, !tbaa !21
  %523 = extractelement <2 x i32> %514, i64 1
  %524 = mul i32 %523, %507
  %525 = zext i32 %524 to i64
  %526 = getelementptr inbounds i32, ptr %522, i64 %525
  %527 = load ptr, ptr %511, align 8, !tbaa !21
  br label %528

528:                                              ; preds = %528, %515
  %529 = phi i64 [ 0, %515 ], [ %533, %528 ]
  %530 = phi ptr [ %526, %515 ], [ %534, %528 ]
  %531 = load i32, ptr %530, align 4, !tbaa !77
  %532 = getelementptr inbounds i32, ptr %527, i64 %529
  store i32 %531, ptr %532, align 4, !tbaa !77
  %533 = add nuw nsw i64 %529, 1
  %534 = getelementptr inbounds i32, ptr %530, i64 1
  %535 = load i32, ptr %512, align 8, !tbaa !74
  %536 = zext i32 %535 to i64
  %537 = icmp ult i64 %533, %536
  br i1 %537, label %528, label %538

538:                                              ; preds = %528
  %539 = load <2 x i32>, ptr %7, align 8, !tbaa !77
  br label %540

540:                                              ; preds = %538, %506
  %541 = phi <2 x i32> [ %539, %538 ], [ %514, %506 ]
  call void @llvm.lifetime.start.p0(i64 8, ptr nonnull %13) #15
  store <2 x i32> %541, ptr %13, align 8, !tbaa !77
  %542 = call noundef nonnull align 8 dereferenceable(16) ptr @_ZNSt3mapISt4pairIjjEN6dealii16SolutionTransferILi3ENS2_6VectorIfEENS2_10DoFHandlerILi3ELi3EEEE13PointerstructESt4lessIS1_ESaIS0_IKS1_S9_EEEixERSC_(ptr noundef nonnull align 8 dereferenceable(48) %436, ptr noundef nonnull align 4 dereferenceable(8) %13)
  store ptr %511, ptr %542, align 8, !tbaa !85
  call void @llvm.lifetime.end.p0(i64 8, ptr nonnull %13) #15
  %543 = add i32 %446, 1
  br label %677

544:                                              ; preds = %298
  %545 = landingpad { ptr, i32 }
          cleanup
  br label %546

546:                                              ; preds = %544, %307, %304
  %547 = phi { ptr, i32 } [ %545, %544 ], [ %305, %307 ], [ %305, %304 ]
  %548 = load ptr, ptr %8, align 8, !tbaa !21
  %549 = icmp eq ptr %548, null
  br i1 %549, label %551, label %550

550:                                              ; preds = %546
  call void @_ZdlPv(ptr noundef nonnull %548) #17
  br label %551

551:                                              ; preds = %550, %546
  call void @llvm.lifetime.end.p0(i64 24, ptr nonnull %8) #15
  br label %779

552:                                              ; preds = %331
  %553 = landingpad { ptr, i32 }
          cleanup
  br label %558

554:                                              ; preds = %337
  %555 = landingpad { ptr, i32 }
          cleanup
  br label %556

556:                                              ; preds = %346, %343, %385, %387, %554
  %557 = phi { ptr, i32 } [ %344, %346 ], [ %344, %343 ], [ %555, %554 ], [ %375, %387 ], [ %375, %385 ]
  invoke void @_ZNSt6vectorIN6dealii6VectorIfEESaIS2_EED2Ev(ptr noundef nonnull align 8 dereferenceable(24) %9)
          to label %558 unwind label %781

558:                                              ; preds = %552, %410, %406, %556
  %559 = phi { ptr, i32 } [ %557, %556 ], [ %553, %552 ], [ %407, %410 ], [ %407, %406 ]
  call void @llvm.lifetime.end.p0(i64 1, ptr nonnull %11) #15
  invoke void @_ZN6dealii6VectorIfED2Ev(ptr noundef nonnull align 8 dereferenceable(88) %10)
          to label %560 unwind label %781

560:                                              ; preds = %558
  call void @llvm.lifetime.end.p0(i64 88, ptr nonnull %10) #15
  call void @llvm.lifetime.end.p0(i64 24, ptr nonnull %9) #15
  br label %779

561:                                              ; preds = %441
  %562 = add nsw i32 %443, 1
  %563 = sext i32 %562 to i64
  %564 = getelementptr inbounds ptr, ptr %442, i64 %563
  %565 = load ptr, ptr %564, align 8, !tbaa !78
  %566 = getelementptr inbounds %"class.dealii::internal::Triangulation::TriaLevel", ptr %565, i64 0, i32 1
  %567 = load ptr, ptr %566, align 8, !tbaa !96
  %568 = sdiv i32 %455, 64
  %569 = sext i32 %568 to i64
  %570 = getelementptr inbounds i64, ptr %567, i64 %569
  %571 = srem i32 %455, 64
  %572 = sext i32 %571 to i64
  %573 = icmp slt i32 %571, 0
  %574 = add nsw i64 %572, 64
  %575 = ashr i64 %572, 63
  %576 = getelementptr inbounds i64, ptr %570, i64 %575
  %577 = select i1 %573, i64 %574, i64 %572
  %578 = shl nuw i64 1, %577
  %579 = load i64, ptr %576, align 8, !tbaa !98
  %580 = and i64 %579, %578
  %581 = icmp eq i64 %580, 0
  br i1 %581, label %677, label %582

582:                                              ; preds = %561, %582
  %583 = phi i32 [ %599, %582 ], [ 1, %561 ]
  call void @llvm.lifetime.start.p0(i64 1, ptr nonnull %3) #15
  %584 = load ptr, ptr %422, align 8, !tbaa !87
  %585 = getelementptr inbounds %"class.dealii::Triangulation", ptr %584, i64 0, i32 1
  %586 = load i32, ptr %7, align 8, !tbaa !80
  %587 = sext i32 %586 to i64
  %588 = load ptr, ptr %585, align 8, !tbaa !88
  %589 = getelementptr inbounds ptr, ptr %588, i64 %587
  %590 = load ptr, ptr %589, align 8, !tbaa !78
  %591 = getelementptr inbounds %"class.dealii::internal::Triangulation::TriaLevel", ptr %590, i64 0, i32 4, i32 0, i32 2
  %592 = load i32, ptr %169, align 4, !tbaa !67
  %593 = sext i32 %592 to i64
  %594 = load ptr, ptr %591, align 8, !tbaa !104
  %595 = getelementptr inbounds %"class.dealii::RefinementCase", ptr %594, i64 %593
  %596 = load i8, ptr %595, align 1
  store i8 %596, ptr %3, align 1
  %597 = call noundef i32 @_ZN6dealii12GeometryInfoILi3EE10n_childrenERKNS_14RefinementCaseILi3EEE(ptr noundef nonnull align 1 dereferenceable(1) %3)
  call void @llvm.lifetime.end.p0(i64 1, ptr nonnull %3) #15
  %598 = icmp ult i32 %583, %597
  %599 = add nuw i32 %583, 1
  br i1 %598, label %582, label %600

600:                                              ; preds = %582
  %601 = load ptr, ptr %423, align 8, !tbaa !69
  %602 = getelementptr inbounds %"class.dealii::DoFHandler", ptr %601, i64 0, i32 2
  %603 = load ptr, ptr %602, align 8, !tbaa !73
  %604 = getelementptr inbounds i8, ptr %603, i64 112
  %605 = load i32, ptr %604, align 8, !tbaa !74
  call void @llvm.lifetime.start.p0(i64 24, ptr nonnull %14) #15
  call void @llvm.lifetime.start.p0(i64 88, ptr nonnull %15) #15
  call void @_ZN6dealii11SubscriptorC2Ev(ptr noundef nonnull align 8 dereferenceable(72) %15)
  store ptr getelementptr inbounds ({ [6 x ptr] }, ptr @_ZTVN6dealii6VectorIfEE, i64 0, inrange i32 0, i64 2), ptr %15, align 8, !tbaa !29
  call void @llvm.memset.p0.i64(ptr noundef nonnull align 8 dereferenceable(16) %429, i8 0, i64 16, i1 false)
  %606 = icmp eq i32 %605, 0
  br i1 %606, label %619, label %607

607:                                              ; preds = %600
  %608 = zext i32 %605 to i64
  %609 = shl nuw nsw i64 %608, 2
  %610 = invoke noalias noundef nonnull ptr @_Znam(i64 noundef %609) #18
          to label %611 unwind label %612

611:                                              ; preds = %607
  store ptr %610, ptr %430, align 8, !tbaa !102
  store i32 %605, ptr %431, align 4, !tbaa !106
  store i32 %605, ptr %429, align 8, !tbaa !107
  call void @llvm.memset.p0.i64(ptr nonnull align 4 %610, i8 0, i64 %609, i1 false), !tbaa !108
  br label %619

612:                                              ; preds = %607
  %613 = landingpad { ptr, i32 }
          cleanup
  invoke void @_ZN6dealii11SubscriptorD2Ev(ptr noundef nonnull align 8 dereferenceable(72) %15)
          to label %614 unwind label %616

614:                                              ; preds = %612, %779
  %615 = phi { ptr, i32 } [ %780, %779 ], [ %613, %612 ]
  resume { ptr, i32 } %615

616:                                              ; preds = %612
  %617 = landingpad { ptr, i32 }
          catch ptr null
  %618 = extractvalue { ptr, i32 } %617, 0
  call void @__clang_call_terminate(ptr %618) #16
  unreachable

619:                                              ; preds = %600, %611
  call void @llvm.lifetime.start.p0(i64 1, ptr nonnull %16) #15
  invoke void @_ZNSt6vectorIN6dealii6VectorIfEESaIS2_EEC2EmRKS2_RKS3_(ptr noundef nonnull align 8 dereferenceable(24) %14, i64 noundef %332, ptr noundef nonnull align 8 dereferenceable(88) %15, ptr noundef nonnull align 1 dereferenceable(1) %16)
          to label %620 unwind label %662

620:                                              ; preds = %619
  %621 = zext i32 %445 to i64
  %622 = load ptr, ptr %349, align 8, !tbaa !23
  %623 = getelementptr inbounds %"class.std::vector.101", ptr %622, i64 %621
  %624 = load ptr, ptr %433, align 16, !tbaa !110
  %625 = load <2 x ptr>, ptr %623, align 8, !tbaa !78
  %626 = getelementptr inbounds %"struct.std::_Vector_base<dealii::Vector<float>, std::allocator<dealii::Vector<float> > >::_Vector_impl_data", ptr %623, i64 0, i32 2
  %627 = load <2 x ptr>, ptr %14, align 16, !tbaa !78
  store <2 x ptr> %625, ptr %14, align 16, !tbaa !78
  %628 = load ptr, ptr %626, align 8, !tbaa !110
  store ptr %628, ptr %433, align 16, !tbaa !110
  store <2 x ptr> %627, ptr %623, align 8, !tbaa !78
  store ptr %624, ptr %626, align 8, !tbaa !110
  %629 = load ptr, ptr %14, align 16, !tbaa !26
  %630 = load ptr, ptr %432, align 8, !tbaa !28
  %631 = icmp eq ptr %629, %630
  br i1 %631, label %641, label %632

632:                                              ; preds = %620, %636
  %633 = phi ptr [ %637, %636 ], [ %629, %620 ]
  %634 = load ptr, ptr %633, align 8, !tbaa !29
  %635 = load ptr, ptr %634, align 8
  invoke void %635(ptr noundef nonnull align 8 dereferenceable(88) %633)
          to label %636 unwind label %645

636:                                              ; preds = %632
  %637 = getelementptr inbounds %"class.dealii::Vector", ptr %633, i64 1
  %638 = icmp eq ptr %637, %630
  br i1 %638, label %639, label %632

639:                                              ; preds = %636
  %640 = load ptr, ptr %14, align 16, !tbaa !26
  br label %641

641:                                              ; preds = %639, %620
  %642 = phi ptr [ %640, %639 ], [ %629, %620 ]
  %643 = icmp eq ptr %642, null
  br i1 %643, label %650, label %644

644:                                              ; preds = %641
  call void @_ZdlPv(ptr noundef nonnull %642) #17
  br label %650

645:                                              ; preds = %632
  %646 = landingpad { ptr, i32 }
          cleanup
  %647 = load ptr, ptr %14, align 16, !tbaa !26
  %648 = icmp eq ptr %647, null
  br i1 %648, label %664, label %649

649:                                              ; preds = %645
  call void @_ZdlPv(ptr noundef nonnull %647) #17
  br label %664

650:                                              ; preds = %644, %641
  call void @llvm.lifetime.end.p0(i64 1, ptr nonnull %16) #15
  store ptr getelementptr inbounds ({ [6 x ptr] }, ptr @_ZTVN6dealii6VectorIfEE, i64 0, inrange i32 0, i64 2), ptr %15, align 8, !tbaa !29
  %651 = load ptr, ptr %430, align 8, !tbaa !102
  %652 = icmp eq ptr %651, null
  br i1 %652, label %654, label %653

653:                                              ; preds = %650
  call void @_ZdaPv(ptr noundef nonnull %651) #17
  store ptr null, ptr %430, align 8, !tbaa !102
  br label %654

654:                                              ; preds = %650, %653
  call void @_ZN6dealii11SubscriptorD2Ev(ptr noundef nonnull align 8 dereferenceable(72) %15)
  call void @llvm.lifetime.end.p0(i64 88, ptr nonnull %15) #15
  call void @llvm.lifetime.end.p0(i64 24, ptr nonnull %14) #15
  br i1 %435, label %655, label %667

655:                                              ; preds = %667, %654
  %656 = load ptr, ptr %349, align 8, !tbaa !23
  %657 = getelementptr inbounds %"class.std::vector.101", ptr %656, i64 %621
  call void @llvm.lifetime.start.p0(i64 8, ptr nonnull %17) #15
  %658 = load <2 x i32>, ptr %7, align 8, !tbaa !77
  store <2 x i32> %658, ptr %17, align 8, !tbaa !77
  %659 = call noundef nonnull align 8 dereferenceable(16) ptr @_ZNSt3mapISt4pairIjjEN6dealii16SolutionTransferILi3ENS2_6VectorIfEENS2_10DoFHandlerILi3ELi3EEEE13PointerstructESt4lessIS1_ESaIS0_IKS1_S9_EEEixERSC_(ptr noundef nonnull align 8 dereferenceable(48) %436, ptr noundef nonnull align 4 dereferenceable(8) %17)
  %660 = getelementptr inbounds %"struct.dealii::SolutionTransfer<3, dealii::Vector<float> >::Pointerstruct", ptr %659, i64 0, i32 1
  store ptr %657, ptr %660, align 8, !tbaa !111
  call void @llvm.lifetime.end.p0(i64 8, ptr nonnull %17) #15
  %661 = add i32 %445, 1
  br label %677

662:                                              ; preds = %619
  %663 = landingpad { ptr, i32 }
          cleanup
  br label %664

664:                                              ; preds = %662, %649, %645
  %665 = phi { ptr, i32 } [ %663, %662 ], [ %646, %649 ], [ %646, %645 ]
  call void @llvm.lifetime.end.p0(i64 1, ptr nonnull %16) #15
  invoke void @_ZN6dealii6VectorIfED2Ev(ptr noundef nonnull align 8 dereferenceable(88) %15)
          to label %666 unwind label %781

666:                                              ; preds = %664
  call void @llvm.lifetime.end.p0(i64 88, ptr nonnull %15) #15
  call void @llvm.lifetime.end.p0(i64 24, ptr nonnull %14) #15
  br label %779

667:                                              ; preds = %654, %667
  %668 = phi i64 [ %675, %667 ], [ 0, %654 ]
  %669 = load ptr, ptr %1, align 8, !tbaa !26
  %670 = getelementptr inbounds %"class.dealii::Vector", ptr %669, i64 %668
  %671 = load ptr, ptr %349, align 8, !tbaa !23
  %672 = getelementptr inbounds %"class.std::vector.101", ptr %671, i64 %621
  %673 = load ptr, ptr %672, align 8, !tbaa !26
  %674 = getelementptr inbounds %"class.dealii::Vector", ptr %673, i64 %668
  call void @_ZNK6dealii15DoFCellAccessorINS_10DoFHandlerILi3ELi3EEEE27get_interpolated_dof_valuesINS_6VectorIfEEfEEvRKT_RNS5_IT0_EE(ptr noundef nonnull align 8 dereferenceable(24) %7, ptr noundef nonnull align 8 dereferenceable(88) %670, ptr noundef nonnull align 8 dereferenceable(88) %674)
  %675 = add nuw nsw i64 %668, 1
  %676 = icmp eq i64 %675, %440
  br i1 %676, label %655, label %667

677:                                              ; preds = %457, %540, %655, %561
  %678 = phi i32 [ %446, %655 ], [ %446, %561 ], [ %543, %540 ], [ %446, %457 ]
  %679 = phi i32 [ %661, %655 ], [ %445, %561 ], [ %445, %540 ], [ %445, %457 ]
  %680 = load ptr, ptr %422, align 8, !tbaa !87
  %681 = getelementptr inbounds %"class.dealii::Triangulation", ptr %680, i64 0, i32 1
  %682 = load ptr, ptr %681, align 8, !tbaa !88
  %683 = load i32, ptr %169, align 4
  %684 = load i32, ptr %7, align 8
  %685 = ptrtoint ptr %682 to i64
  %686 = getelementptr inbounds %"class.dealii::Triangulation", ptr %680, i64 0, i32 1, i32 0, i32 0, i32 0, i32 1
  br label %687

687:                                              ; preds = %758, %677
  %688 = phi i32 [ %753, %758 ], [ %684, %677 ]
  %689 = phi i32 [ %755, %758 ], [ %684, %677 ]
  %690 = phi i32 [ %754, %758 ], [ %683, %677 ]
  %691 = add nsw i32 %690, 1
  %692 = sext i32 %689 to i64
  %693 = getelementptr inbounds ptr, ptr %682, i64 %692
  %694 = load ptr, ptr %693, align 8, !tbaa !78
  %695 = getelementptr inbounds %"class.dealii::internal::Triangulation::TriaLevel", ptr %694, i64 0, i32 4
  %696 = getelementptr inbounds %"class.dealii::internal::Triangulation::TriaLevel", ptr %694, i64 0, i32 4, i32 0, i32 0, i32 0, i32 0, i32 0, i32 1
  %697 = load ptr, ptr %696, align 8, !tbaa !90
  %698 = load ptr, ptr %695, align 8, !tbaa !92
  %699 = ptrtoint ptr %697 to i64
  %700 = ptrtoint ptr %698 to i64
  %701 = sub i64 %699, %700
  %702 = sdiv exact i64 %701, 24
  %703 = trunc i64 %702 to i32
  %704 = icmp slt i32 %691, %703
  br i1 %704, label %752, label %705

705:                                              ; preds = %687
  %706 = add nsw i64 %692, 1
  %707 = trunc i64 %706 to i32
  store i32 %707, ptr %7, align 8, !tbaa !80
  %708 = load ptr, ptr %686, align 8, !tbaa !93
  %709 = ptrtoint ptr %708 to i64
  %710 = sub i64 %709, %685
  %711 = shl i64 %710, 29
  %712 = ashr i64 %711, 32
  %713 = icmp slt i64 %706, %712
  br i1 %713, label %714, label %746

714:                                              ; preds = %705
  %715 = getelementptr inbounds ptr, ptr %682, i64 %706
  %716 = load ptr, ptr %715, align 8, !tbaa !78
  %717 = getelementptr inbounds %"class.dealii::internal::Triangulation::TriaLevel", ptr %716, i64 0, i32 4
  %718 = getelementptr inbounds %"class.dealii::internal::Triangulation::TriaLevel", ptr %716, i64 0, i32 4, i32 0, i32 0, i32 0, i32 0, i32 0, i32 1
  %719 = load ptr, ptr %718, align 8, !tbaa !90
  %720 = load ptr, ptr %717, align 8, !tbaa !92
  %721 = ptrtoint ptr %719 to i64
  %722 = ptrtoint ptr %720 to i64
  %723 = sub i64 %721, %722
  %724 = sdiv exact i64 %723, 24
  %725 = trunc i64 %724 to i32
  %726 = icmp sgt i32 %725, 0
  br i1 %726, label %748, label %740

727:                                              ; preds = %740
  %728 = getelementptr inbounds ptr, ptr %682, i64 %742
  %729 = load ptr, ptr %728, align 8, !tbaa !78
  %730 = getelementptr inbounds %"class.dealii::internal::Triangulation::TriaLevel", ptr %729, i64 0, i32 4
  %731 = getelementptr inbounds %"class.dealii::internal::Triangulation::TriaLevel", ptr %729, i64 0, i32 4, i32 0, i32 0, i32 0, i32 0, i32 0, i32 1
  %732 = load ptr, ptr %731, align 8, !tbaa !90
  %733 = load ptr, ptr %730, align 8, !tbaa !92
  %734 = ptrtoint ptr %732 to i64
  %735 = ptrtoint ptr %733 to i64
  %736 = sub i64 %734, %735
  %737 = sdiv exact i64 %736, 24
  %738 = trunc i64 %737 to i32
  %739 = icmp sgt i32 %738, 0
  br i1 %739, label %747, label %740, !llvm.loop !94

740:                                              ; preds = %714, %727
  %741 = phi i64 [ %742, %727 ], [ %706, %714 ]
  %742 = add i64 %741, 1
  %743 = trunc i64 %742 to i32
  %744 = icmp eq i64 %742, %712
  br i1 %744, label %745, label %727, !llvm.loop !94

745:                                              ; preds = %740
  store i32 %743, ptr %7, align 8, !tbaa !80
  br label %746

746:                                              ; preds = %745, %705
  store i32 -1, ptr %7, align 8, !tbaa !80
  br label %752

747:                                              ; preds = %727
  store i32 %743, ptr %7, align 8, !tbaa !80
  br label %748

748:                                              ; preds = %747, %714
  %749 = phi i32 [ %707, %714 ], [ %743, %747 ]
  %750 = phi i64 [ %706, %714 ], [ %742, %747 ]
  %751 = trunc i64 %750 to i32
  br label %752

752:                                              ; preds = %748, %746, %687
  %753 = phi i32 [ %688, %687 ], [ -1, %746 ], [ %749, %748 ]
  %754 = phi i32 [ %691, %687 ], [ -1, %746 ], [ 0, %748 ]
  %755 = phi i32 [ %689, %687 ], [ -1, %746 ], [ %751, %748 ]
  %756 = or i32 %755, %754
  %757 = icmp sgt i32 %756, -1
  br i1 %757, label %758, label %773

758:                                              ; preds = %752
  %759 = zext i32 %755 to i64
  %760 = getelementptr inbounds ptr, ptr %682, i64 %759
  %761 = load ptr, ptr %760, align 8, !tbaa !78
  %762 = getelementptr inbounds %"class.dealii::internal::Triangulation::TriaLevel", ptr %761, i64 0, i32 4, i32 0, i32 3
  %763 = load ptr, ptr %762, align 8, !tbaa !96
  %764 = lshr i32 %754, 6
  %765 = zext i32 %764 to i64
  %766 = getelementptr inbounds i64, ptr %763, i64 %765
  %767 = and i32 %754, 63
  %768 = zext i32 %767 to i64
  %769 = shl nuw i64 1, %768
  %770 = load i64, ptr %766, align 8, !tbaa !98
  %771 = and i64 %770, %769
  %772 = icmp eq i64 %771, 0
  br i1 %772, label %687, label %773

773:                                              ; preds = %752, %758
  store i32 %754, ptr %169, align 4, !tbaa !67
  %774 = icmp ne i32 %754, %36
  %775 = icmp ne i32 %753, %34
  %776 = select i1 %774, i1 true, i1 %775
  br i1 %776, label %441, label %777

777:                                              ; preds = %773, %416
  %778 = getelementptr inbounds %"class.dealii::SolutionTransfer", ptr %0, i64 0, i32 2
  store i32 2, ptr %778, align 4, !tbaa !32
  call void @llvm.lifetime.end.p0(i64 24, ptr nonnull %7) #15
  call void @llvm.lifetime.end.p0(i64 24, ptr nonnull %5) #15
  ret void

779:                                              ; preds = %666, %560, %551
  %780 = phi { ptr, i32 } [ %665, %666 ], [ %559, %560 ], [ %547, %551 ]
  call void @llvm.lifetime.end.p0(i64 24, ptr nonnull %7) #15
  call void @llvm.lifetime.end.p0(i64 24, ptr nonnull %5) #15
  br label %614

781:                                              ; preds = %664, %558, %556
  %782 = landingpad { ptr, i32 }
          catch ptr null
  %783 = extractvalue { ptr, i32 } %782, 0
  call void @__clang_call_terminate(ptr %783) #16
  unreachable
}

declare void @_ZNK6dealii10DoFHandlerILi3ELi3EE5beginEj(ptr sret(%"class.dealii::TriaIterator") align 8, ptr noundef nonnull align 8 dereferenceable(168), i32 noundef) local_unnamed_addr #3

; Function Attrs: sspstrong uwtable
define linkonce_odr dso_local void @_ZNSt6vectorIN6dealii6VectorIfEESaIS2_EEC2EmRKS2_RKS3_(ptr noundef nonnull align 8 dereferenceable(24) %0, i64 noundef %1, ptr noundef nonnull align 8 dereferenceable(88) %2, ptr noundef nonnull align 1 dereferenceable(1) %3) unnamed_addr #0 comdat align 2 personality ptr @__gxx_personality_v0 {
  %5 = icmp ugt i64 %1, 104811045873349725
  br i1 %5, label %6, label %7

6:                                                ; preds = %4
  tail call void @_ZSt20__throw_length_errorPKc(ptr noundef nonnull @.str.12) #19
  unreachable

7:                                                ; preds = %4
  tail call void @llvm.memset.p0.i64(ptr noundef nonnull align 8 dereferenceable(24) %0, i8 0, i64 24, i1 false)
  %8 = icmp eq i64 %1, 0
  br i1 %8, label %9, label %11

9:                                                ; preds = %7
  %10 = getelementptr inbounds %"struct.std::_Vector_base<dealii::Vector<float>, std::allocator<dealii::Vector<float> > >::_Vector_impl_data", ptr %0, i64 0, i32 1
  tail call void @llvm.memset.p0.i64(ptr noundef nonnull align 8 dereferenceable(24) %0, i8 0, i64 24, i1 false)
  br label %47

11:                                               ; preds = %7
  %12 = mul nuw nsw i64 %1, 88
  %13 = tail call noalias noundef nonnull ptr @_Znwm(i64 noundef %12) #18
  store ptr %13, ptr %0, align 8, !tbaa !26
  %14 = getelementptr inbounds %"struct.std::_Vector_base<dealii::Vector<float>, std::allocator<dealii::Vector<float> > >::_Vector_impl_data", ptr %0, i64 0, i32 1
  store ptr %13, ptr %14, align 8, !tbaa !28
  %15 = getelementptr inbounds %"class.dealii::Vector", ptr %13, i64 %1
  %16 = getelementptr inbounds %"struct.std::_Vector_base<dealii::Vector<float>, std::allocator<dealii::Vector<float> > >::_Vector_impl_data", ptr %0, i64 0, i32 2
  store ptr %15, ptr %16, align 8, !tbaa !110
  br label %17

17:                                               ; preds = %11, %20
  %18 = phi ptr [ %22, %20 ], [ %13, %11 ]
  %19 = phi i64 [ %21, %20 ], [ %1, %11 ]
  invoke void @_ZN6dealii6VectorIfEC1ERKS1_(ptr noundef nonnull align 8 dereferenceable(88) %18, ptr noundef nonnull align 8 dereferenceable(88) %2)
          to label %20 unwind label %24

20:                                               ; preds = %17
  %21 = add i64 %19, -1
  %22 = getelementptr inbounds %"class.dealii::Vector", ptr %18, i64 1
  %23 = icmp eq i64 %21, 0
  br i1 %23, label %47, label %17

24:                                               ; preds = %17
  %25 = landingpad { ptr, i32 }
          catch ptr null
  %26 = extractvalue { ptr, i32 } %25, 0
  %27 = tail call ptr @__cxa_begin_catch(ptr %26) #15
  %28 = icmp eq ptr %18, %13
  br i1 %28, label %36, label %29

29:                                               ; preds = %24, %33
  %30 = phi ptr [ %34, %33 ], [ %13, %24 ]
  %31 = load ptr, ptr %30, align 8, !tbaa !29
  %32 = load ptr, ptr %31, align 8
  invoke void %32(ptr noundef nonnull align 8 dereferenceable(88) %30)
          to label %33 unwind label %37

33:                                               ; preds = %29
  %34 = getelementptr inbounds %"class.dealii::Vector", ptr %30, i64 1
  %35 = icmp eq ptr %34, %18
  br i1 %35, label %36, label %29

36:                                               ; preds = %33, %24
  invoke void @__cxa_rethrow() #19
          to label %46 unwind label %39

37:                                               ; preds = %29
  %38 = landingpad { ptr, i32 }
          cleanup
  br label %41

39:                                               ; preds = %36
  %40 = landingpad { ptr, i32 }
          cleanup
  br label %41

41:                                               ; preds = %39, %37
  %42 = phi { ptr, i32 } [ %38, %37 ], [ %40, %39 ]
  invoke void @__cxa_end_catch()
          to label %50 unwind label %43

43:                                               ; preds = %41
  %44 = landingpad { ptr, i32 }
          catch ptr null
  %45 = extractvalue { ptr, i32 } %44, 0
  tail call void @__clang_call_terminate(ptr %45) #16
  unreachable

46:                                               ; preds = %36
  unreachable

47:                                               ; preds = %20, %9
  %48 = phi ptr [ %10, %9 ], [ %14, %20 ]
  %49 = phi ptr [ null, %9 ], [ %22, %20 ]
  store ptr %49, ptr %48, align 8, !tbaa !28
  ret void

50:                                               ; preds = %41
  %51 = load ptr, ptr %0, align 8, !tbaa !26
  %52 = icmp eq ptr %51, null
  br i1 %52, label %54, label %53

53:                                               ; preds = %50
  tail call void @_ZdlPv(ptr noundef nonnull %51) #17
  br label %54

54:                                               ; preds = %53, %50
  resume { ptr, i32 } %42
}

; Function Attrs: sspstrong uwtable
define linkonce_odr dso_local void @_ZNSt6vectorIN6dealii6VectorIfEESaIS2_EED2Ev(ptr noundef nonnull align 8 dereferenceable(24) %0) unnamed_addr #0 comdat align 2 personality ptr @__gxx_personality_v0 {
  %2 = load ptr, ptr %0, align 8, !tbaa !26
  %3 = getelementptr inbounds %"struct.std::_Vector_base<dealii::Vector<float>, std::allocator<dealii::Vector<float> > >::_Vector_impl_data", ptr %0, i64 0, i32 1
  %4 = load ptr, ptr %3, align 8, !tbaa !28
  %5 = icmp eq ptr %2, %4
  br i1 %5, label %15, label %6

6:                                                ; preds = %1, %10
  %7 = phi ptr [ %11, %10 ], [ %2, %1 ]
  %8 = load ptr, ptr %7, align 8, !tbaa !29
  %9 = load ptr, ptr %8, align 8
  invoke void %9(ptr noundef nonnull align 8 dereferenceable(88) %7)
          to label %10 unwind label %20

10:                                               ; preds = %6
  %11 = getelementptr inbounds %"class.dealii::Vector", ptr %7, i64 1
  %12 = icmp eq ptr %11, %4
  br i1 %12, label %13, label %6

13:                                               ; preds = %10
  %14 = load ptr, ptr %0, align 8, !tbaa !26
  br label %15

15:                                               ; preds = %13, %1
  %16 = phi ptr [ %14, %13 ], [ %2, %1 ]
  %17 = icmp eq ptr %16, null
  br i1 %17, label %19, label %18

18:                                               ; preds = %15
  tail call void @_ZdlPv(ptr noundef nonnull %16) #17
  br label %19

19:                                               ; preds = %15, %18
  ret void

20:                                               ; preds = %6
  %21 = landingpad { ptr, i32 }
          cleanup
  %22 = load ptr, ptr %0, align 8, !tbaa !26
  %23 = icmp eq ptr %22, null
  br i1 %23, label %25, label %24

24:                                               ; preds = %20
  tail call void @_ZdlPv(ptr noundef nonnull %22) #17
  br label %25

25:                                               ; preds = %24, %20
  resume { ptr, i32 } %21
}

; Function Attrs: inlinehint sspstrong uwtable
define linkonce_odr dso_local void @_ZN6dealii6VectorIfED2Ev(ptr noundef nonnull align 8 dereferenceable(88) %0) unnamed_addr #4 comdat align 2 {
  store ptr getelementptr inbounds ({ [6 x ptr] }, ptr @_ZTVN6dealii6VectorIfEE, i64 0, inrange i32 0, i64 2), ptr %0, align 8, !tbaa !29
  %2 = getelementptr inbounds %"class.dealii::Vector", ptr %0, i64 0, i32 3
  %3 = load ptr, ptr %2, align 8, !tbaa !102
  %4 = icmp eq ptr %3, null
  br i1 %4, label %6, label %5

5:                                                ; preds = %1
  tail call void @_ZdaPv(ptr noundef nonnull %3) #17
  store ptr null, ptr %2, align 8, !tbaa !102
  br label %6

6:                                                ; preds = %5, %1
  tail call void @_ZN6dealii11SubscriptorD2Ev(ptr noundef nonnull align 8 dereferenceable(72) %0)
  ret void
}

declare void @_ZNK6dealii15DoFCellAccessorINS_10DoFHandlerILi3ELi3EEEE27get_interpolated_dof_valuesINS_6VectorIfEEfEEvRKT_RNS5_IT0_EE(ptr noundef nonnull align 8 dereferenceable(24), ptr noundef nonnull align 8 dereferenceable(88), ptr noundef nonnull align 8 dereferenceable(88)) local_unnamed_addr #3

; Function Attrs: sspstrong uwtable
define weak_odr dso_local void @_ZN6dealii16SolutionTransferILi3ENS_6VectorIfEENS_10DoFHandlerILi3ELi3EEEE37prepare_for_coarsening_and_refinementERKS2_(ptr noundef nonnull align 8 dereferenceable(120) %0, ptr noundef nonnull align 8 dereferenceable(88) %1) local_unnamed_addr #0 comdat align 2 personality ptr @__gxx_personality_v0 {
  %3 = alloca %"class.std::vector.101", align 8
  %4 = alloca %"class.std::allocator.103", align 1
  call void @llvm.lifetime.start.p0(i64 24, ptr nonnull %3) #15
  call void @llvm.lifetime.start.p0(i64 1, ptr nonnull %4) #15
  invoke void @_ZNSt6vectorIN6dealii6VectorIfEESaIS2_EEC2EmRKS2_RKS3_(ptr noundef nonnull align 8 dereferenceable(24) %3, i64 noundef 1, ptr noundef nonnull align 8 dereferenceable(88) %1, ptr noundef nonnull align 1 dereferenceable(1) %4)
          to label %5 unwind label %32

5:                                                ; preds = %2
  call void @llvm.lifetime.end.p0(i64 1, ptr nonnull %4) #15
  invoke void @_ZN6dealii16SolutionTransferILi3ENS_6VectorIfEENS_10DoFHandlerILi3ELi3EEEE37prepare_for_coarsening_and_refinementERKSt6vectorIS2_SaIS2_EE(ptr noundef nonnull align 8 dereferenceable(120) %0, ptr noundef nonnull align 8 dereferenceable(24) %3)
          to label %6 unwind label %34

6:                                                ; preds = %5
  %7 = load ptr, ptr %3, align 8, !tbaa !26
  %8 = getelementptr inbounds %"struct.std::_Vector_base<dealii::Vector<float>, std::allocator<dealii::Vector<float> > >::_Vector_impl_data", ptr %3, i64 0, i32 1
  %9 = load ptr, ptr %8, align 8, !tbaa !28
  %10 = icmp eq ptr %7, %9
  br i1 %10, label %20, label %11

11:                                               ; preds = %6, %15
  %12 = phi ptr [ %16, %15 ], [ %7, %6 ]
  %13 = load ptr, ptr %12, align 8, !tbaa !29
  %14 = load ptr, ptr %13, align 8
  invoke void %14(ptr noundef nonnull align 8 dereferenceable(88) %12)
          to label %15 unwind label %24

15:                                               ; preds = %11
  %16 = getelementptr inbounds %"class.dealii::Vector", ptr %12, i64 1
  %17 = icmp eq ptr %16, %9
  br i1 %17, label %18, label %11

18:                                               ; preds = %15
  %19 = load ptr, ptr %3, align 8, !tbaa !26
  br label %20

20:                                               ; preds = %18, %6
  %21 = phi ptr [ %19, %18 ], [ %7, %6 ]
  %22 = icmp eq ptr %21, null
  br i1 %22, label %31, label %23

23:                                               ; preds = %20
  call void @_ZdlPv(ptr noundef nonnull %21) #17
  br label %31

24:                                               ; preds = %11
  %25 = landingpad { ptr, i32 }
          cleanup
  %26 = load ptr, ptr %3, align 8, !tbaa !26
  %27 = icmp eq ptr %26, null
  br i1 %27, label %29, label %28

28:                                               ; preds = %24
  call void @_ZdlPv(ptr noundef nonnull %26) #17
  br label %29

29:                                               ; preds = %24, %28, %36
  %30 = phi { ptr, i32 } [ %37, %36 ], [ %25, %28 ], [ %25, %24 ]
  resume { ptr, i32 } %30

31:                                               ; preds = %20, %23
  call void @llvm.lifetime.end.p0(i64 24, ptr nonnull %3) #15
  ret void

32:                                               ; preds = %2
  %33 = landingpad { ptr, i32 }
          cleanup
  call void @llvm.lifetime.end.p0(i64 1, ptr nonnull %4) #15
  br label %36

34:                                               ; preds = %5
  %35 = landingpad { ptr, i32 }
          cleanup
  invoke void @_ZNSt6vectorIN6dealii6VectorIfEESaIS2_EED2Ev(ptr noundef nonnull align 8 dereferenceable(24) %3)
          to label %36 unwind label %38

36:                                               ; preds = %34, %32
  %37 = phi { ptr, i32 } [ %35, %34 ], [ %33, %32 ]
  call void @llvm.lifetime.end.p0(i64 24, ptr nonnull %3) #15
  br label %29

38:                                               ; preds = %34
  %39 = landingpad { ptr, i32 }
          catch ptr null
  %40 = extractvalue { ptr, i32 } %39, 0
  call void @__clang_call_terminate(ptr %40) #16
  unreachable
}

; Function Attrs: sspstrong uwtable
define weak_odr dso_local void @_ZNK6dealii16SolutionTransferILi3ENS_6VectorIfEENS_10DoFHandlerILi3ELi3EEEE18refine_interpolateERKS2_RS2_(ptr noundef nonnull align 8 dereferenceable(120) %0, ptr noundef nonnull align 8 dereferenceable(88) %1, ptr noundef nonnull align 8 dereferenceable(88) %2) local_unnamed_addr #0 comdat align 2 personality ptr @__gxx_personality_v0 {
  %4 = alloca %"class.dealii::Vector", align 8
  %5 = alloca %"class.dealii::TriaIterator", align 8
  %6 = alloca %"class.dealii::TriaRawIterator", align 8
  call void @llvm.lifetime.start.p0(i64 88, ptr nonnull %4) #15
  call void @_ZN6dealii11SubscriptorC2Ev(ptr noundef nonnull align 8 dereferenceable(72) %4)
  store ptr getelementptr inbounds ({ [6 x ptr] }, ptr @_ZTVN6dealii6VectorIfEE, i64 0, inrange i32 0, i64 2), ptr %4, align 8, !tbaa !29
  %7 = getelementptr inbounds %"class.dealii::Vector", ptr %4, i64 0, i32 1
  call void @llvm.memset.p0.i64(ptr noundef nonnull align 8 dereferenceable(16) %7, i8 0, i64 16, i1 false)
  call void @llvm.lifetime.start.p0(i64 24, ptr nonnull %5) #15
  %8 = load ptr, ptr %0, align 8, !tbaa !5
  invoke void @_ZNK6dealii10DoFHandlerILi3ELi3EE5beginEj(ptr nonnull sret(%"class.dealii::TriaIterator") align 8 %5, ptr noundef nonnull align 8 dereferenceable(168) %8, i32 noundef 0)
          to label %9 unwind label %102

9:                                                ; preds = %3
  call void @llvm.lifetime.start.p0(i64 24, ptr nonnull %6) #15
  %10 = load ptr, ptr %0, align 8, !tbaa !5
  invoke void @_ZNK6dealii10DoFHandlerILi3ELi3EE3endEv(ptr nonnull sret(%"class.dealii::TriaRawIterator") align 8 %6, ptr noundef nonnull align 8 dereferenceable(168) %10)
          to label %11 unwind label %104

11:                                               ; preds = %9
  %12 = load i32, ptr %6, align 8
  %13 = getelementptr inbounds i8, ptr %6, i64 4
  %14 = load i32, ptr %13, align 4
  call void @llvm.lifetime.end.p0(i64 24, ptr nonnull %6) #15
  %15 = getelementptr inbounds %"class.dealii::SolutionTransfer", ptr %0, i64 0, i32 4, i32 0, i32 0, i32 1
  %16 = getelementptr inbounds %"class.dealii::TriaAccessorBase", ptr %5, i64 0, i32 1
  %17 = load i32, ptr %16, align 4
  %18 = icmp ne i32 %17, %14
  %19 = load i32, ptr %5, align 8
  %20 = icmp ne i32 %19, %12
  %21 = select i1 %18, i1 true, i1 %20
  br i1 %21, label %22, label %258

22:                                               ; preds = %11
  %23 = getelementptr inbounds %"class.dealii::SolutionTransfer", ptr %0, i64 0, i32 4, i32 0, i32 0, i32 1, i32 0, i32 1
  %24 = getelementptr inbounds %"class.dealii::DoFAccessor", ptr %5, i64 0, i32 1
  %25 = getelementptr inbounds %"class.dealii::Vector", ptr %4, i64 0, i32 2
  %26 = getelementptr inbounds %"class.dealii::Vector", ptr %4, i64 0, i32 3
  %27 = getelementptr inbounds %"class.dealii::Vector", ptr %1, i64 0, i32 3
  %28 = getelementptr inbounds %"class.dealii::TriaAccessorBase", ptr %5, i64 0, i32 2
  br label %29

29:                                               ; preds = %22, %254
  %30 = phi i32 [ %19, %22 ], [ %234, %254 ]
  %31 = phi i32 [ %17, %22 ], [ %235, %254 ]
  %32 = load ptr, ptr %23, align 8, !tbaa !15
  %33 = icmp eq ptr %32, null
  br i1 %33, label %160, label %34

34:                                               ; preds = %29, %50
  %35 = phi ptr [ %53, %50 ], [ %32, %29 ]
  %36 = phi ptr [ %51, %50 ], [ %15, %29 ]
  %37 = getelementptr inbounds %"struct.std::_Rb_tree_node", ptr %35, i64 0, i32 1
  %38 = load i32, ptr %37, align 4, !tbaa !82
  %39 = icmp ult i32 %38, %30
  br i1 %39, label %48, label %40

40:                                               ; preds = %34
  %41 = icmp ult i32 %30, %38
  br i1 %41, label %46, label %42

42:                                               ; preds = %40
  %43 = getelementptr inbounds %"struct.std::_Rb_tree_node", ptr %35, i64 0, i32 1, i32 0, i32 1
  %44 = load i32, ptr %43, align 4, !tbaa !84
  %45 = icmp ult i32 %44, %31
  br i1 %45, label %48, label %46

46:                                               ; preds = %42, %40
  %47 = getelementptr inbounds %"struct.std::_Rb_tree_node_base", ptr %35, i64 0, i32 2
  br label %50

48:                                               ; preds = %42, %34
  %49 = getelementptr inbounds %"struct.std::_Rb_tree_node_base", ptr %35, i64 0, i32 3
  br label %50

50:                                               ; preds = %48, %46
  %51 = phi ptr [ %36, %48 ], [ %35, %46 ]
  %52 = phi ptr [ %49, %48 ], [ %47, %46 ]
  %53 = load ptr, ptr %52, align 8, !tbaa !78
  %54 = icmp eq ptr %53, null
  br i1 %54, label %55, label %34

55:                                               ; preds = %50
  %56 = icmp eq ptr %51, %15
  br i1 %56, label %160, label %57

57:                                               ; preds = %55
  %58 = getelementptr inbounds %"struct.std::_Rb_tree_node", ptr %51, i64 0, i32 1
  %59 = load i32, ptr %58, align 4, !tbaa !82
  %60 = icmp ult i32 %30, %59
  br i1 %60, label %160, label %61

61:                                               ; preds = %57
  %62 = icmp ult i32 %59, %30
  br i1 %62, label %67, label %63

63:                                               ; preds = %61
  %64 = getelementptr inbounds %"struct.std::_Rb_tree_node", ptr %51, i64 0, i32 1, i32 0, i32 1
  %65 = load i32, ptr %64, align 4, !tbaa !84
  %66 = icmp ult i32 %31, %65
  br i1 %66, label %160, label %67

67:                                               ; preds = %61, %63
  %68 = load ptr, ptr %24, align 8, !tbaa !69
  %69 = getelementptr inbounds %"class.dealii::DoFHandler", ptr %68, i64 0, i32 2
  %70 = load ptr, ptr %69, align 8, !tbaa !73
  %71 = getelementptr inbounds i8, ptr %70, i64 112
  %72 = load i32, ptr %71, align 8, !tbaa !74
  %73 = icmp eq i32 %72, 0
  br i1 %73, label %74, label %79

74:                                               ; preds = %67
  %75 = load ptr, ptr %26, align 8, !tbaa !102
  %76 = icmp eq ptr %75, null
  br i1 %76, label %78, label %77

77:                                               ; preds = %74
  call void @_ZdaPv(ptr noundef nonnull %75) #17
  br label %78

78:                                               ; preds = %74, %77
  call void @llvm.memset.p0.i64(ptr noundef nonnull align 8 dereferenceable(16) %7, i8 0, i64 16, i1 false)
  br label %156

79:                                               ; preds = %67
  %80 = load i32, ptr %25, align 4, !tbaa !106
  %81 = icmp ult i32 %80, %72
  br i1 %81, label %82, label %91

82:                                               ; preds = %79
  %83 = load ptr, ptr %26, align 8, !tbaa !102
  %84 = icmp eq ptr %83, null
  br i1 %84, label %86, label %85

85:                                               ; preds = %82
  call void @_ZdaPv(ptr noundef nonnull %83) #17
  br label %86

86:                                               ; preds = %85, %82
  %87 = zext i32 %72 to i64
  %88 = shl nuw nsw i64 %87, 2
  %89 = invoke noalias noundef nonnull ptr @_Znam(i64 noundef %88) #18
          to label %90 unwind label %106

90:                                               ; preds = %86
  store ptr %89, ptr %26, align 8, !tbaa !102
  store i32 %72, ptr %25, align 4, !tbaa !106
  br label %91

91:                                               ; preds = %90, %79
  store i32 %72, ptr %7, align 8, !tbaa !107
  %92 = getelementptr inbounds %"struct.std::_Rb_tree_node", ptr %51, i64 0, i32 1, i32 1
  %93 = load ptr, ptr %92, align 8, !tbaa !112
  %94 = load ptr, ptr %93, align 8, !tbaa !21
  %95 = load ptr, ptr %27, align 8, !tbaa !102
  %96 = load ptr, ptr %26, align 8, !tbaa !102
  %97 = zext i32 %72 to i64
  %98 = and i64 %97, 3
  %99 = icmp ult i32 %72, 4
  br i1 %99, label %141, label %100

100:                                              ; preds = %91
  %101 = and i64 %97, 4294967292
  br label %108

102:                                              ; preds = %3
  %103 = landingpad { ptr, i32 }
          cleanup
  br label %264

104:                                              ; preds = %9
  %105 = landingpad { ptr, i32 }
          cleanup
  call void @llvm.lifetime.end.p0(i64 24, ptr nonnull %6) #15
  br label %264

106:                                              ; preds = %86, %156
  %107 = landingpad { ptr, i32 }
          cleanup
  br label %264

108:                                              ; preds = %108, %100
  %109 = phi i64 [ 0, %100 ], [ %138, %108 ]
  %110 = phi i64 [ 0, %100 ], [ %139, %108 ]
  %111 = getelementptr inbounds i32, ptr %94, i64 %109
  %112 = load i32, ptr %111, align 4, !tbaa !77
  %113 = zext i32 %112 to i64
  %114 = getelementptr inbounds float, ptr %95, i64 %113
  %115 = load float, ptr %114, align 4, !tbaa !108
  %116 = getelementptr inbounds float, ptr %96, i64 %109
  store float %115, ptr %116, align 4, !tbaa !108
  %117 = or i64 %109, 1
  %118 = getelementptr inbounds i32, ptr %94, i64 %117
  %119 = load i32, ptr %118, align 4, !tbaa !77
  %120 = zext i32 %119 to i64
  %121 = getelementptr inbounds float, ptr %95, i64 %120
  %122 = load float, ptr %121, align 4, !tbaa !108
  %123 = getelementptr inbounds float, ptr %96, i64 %117
  store float %122, ptr %123, align 4, !tbaa !108
  %124 = or i64 %109, 2
  %125 = getelementptr inbounds i32, ptr %94, i64 %124
  %126 = load i32, ptr %125, align 4, !tbaa !77
  %127 = zext i32 %126 to i64
  %128 = getelementptr inbounds float, ptr %95, i64 %127
  %129 = load float, ptr %128, align 4, !tbaa !108
  %130 = getelementptr inbounds float, ptr %96, i64 %124
  store float %129, ptr %130, align 4, !tbaa !108
  %131 = or i64 %109, 3
  %132 = getelementptr inbounds i32, ptr %94, i64 %131
  %133 = load i32, ptr %132, align 4, !tbaa !77
  %134 = zext i32 %133 to i64
  %135 = getelementptr inbounds float, ptr %95, i64 %134
  %136 = load float, ptr %135, align 4, !tbaa !108
  %137 = getelementptr inbounds float, ptr %96, i64 %131
  store float %136, ptr %137, align 4, !tbaa !108
  %138 = add nuw nsw i64 %109, 4
  %139 = add i64 %110, 4
  %140 = icmp eq i64 %139, %101
  br i1 %140, label %141, label %108

141:                                              ; preds = %108, %91
  %142 = phi i64 [ 0, %91 ], [ %138, %108 ]
  %143 = icmp eq i64 %98, 0
  br i1 %143, label %156, label %144

144:                                              ; preds = %141, %144
  %145 = phi i64 [ %153, %144 ], [ %142, %141 ]
  %146 = phi i64 [ %154, %144 ], [ 0, %141 ]
  %147 = getelementptr inbounds i32, ptr %94, i64 %145
  %148 = load i32, ptr %147, align 4, !tbaa !77
  %149 = zext i32 %148 to i64
  %150 = getelementptr inbounds float, ptr %95, i64 %149
  %151 = load float, ptr %150, align 4, !tbaa !108
  %152 = getelementptr inbounds float, ptr %96, i64 %145
  store float %151, ptr %152, align 4, !tbaa !108
  %153 = add nuw nsw i64 %145, 1
  %154 = add i64 %146, 1
  %155 = icmp eq i64 %154, %98
  br i1 %155, label %156, label %144, !llvm.loop !114

156:                                              ; preds = %141, %144, %78
  invoke void @_ZNK6dealii15DoFCellAccessorINS_10DoFHandlerILi3ELi3EEEE31set_dof_values_by_interpolationINS_6VectorIfEEfEEvRKNS5_IT0_EERT_(ptr noundef nonnull align 8 dereferenceable(24) %5, ptr noundef nonnull align 8 dereferenceable(88) %4, ptr noundef nonnull align 8 dereferenceable(88) %2)
          to label %157 unwind label %106

157:                                              ; preds = %156
  %158 = load i32, ptr %16, align 4
  %159 = load i32, ptr %5, align 8
  br label %160

160:                                              ; preds = %157, %57, %29, %55, %63
  %161 = phi i32 [ %159, %157 ], [ %30, %57 ], [ %30, %29 ], [ %30, %55 ], [ %30, %63 ]
  %162 = phi i32 [ %158, %157 ], [ %31, %57 ], [ %31, %29 ], [ %31, %55 ], [ %31, %63 ]
  %163 = load ptr, ptr %28, align 8, !tbaa !87
  %164 = getelementptr inbounds %"class.dealii::Triangulation", ptr %163, i64 0, i32 1
  %165 = load ptr, ptr %164, align 8, !tbaa !88
  %166 = ptrtoint ptr %165 to i64
  %167 = getelementptr inbounds %"class.dealii::Triangulation", ptr %163, i64 0, i32 1, i32 0, i32 0, i32 0, i32 1
  br label %168

168:                                              ; preds = %239, %160
  %169 = phi i32 [ %234, %239 ], [ %161, %160 ]
  %170 = phi i32 [ %236, %239 ], [ %161, %160 ]
  %171 = phi i32 [ %235, %239 ], [ %162, %160 ]
  %172 = add nsw i32 %171, 1
  %173 = sext i32 %170 to i64
  %174 = getelementptr inbounds ptr, ptr %165, i64 %173
  %175 = load ptr, ptr %174, align 8, !tbaa !78
  %176 = getelementptr inbounds %"class.dealii::internal::Triangulation::TriaLevel", ptr %175, i64 0, i32 4
  %177 = getelementptr inbounds %"class.dealii::internal::Triangulation::TriaLevel", ptr %175, i64 0, i32 4, i32 0, i32 0, i32 0, i32 0, i32 0, i32 1
  %178 = load ptr, ptr %177, align 8, !tbaa !90
  %179 = load ptr, ptr %176, align 8, !tbaa !92
  %180 = ptrtoint ptr %178 to i64
  %181 = ptrtoint ptr %179 to i64
  %182 = sub i64 %180, %181
  %183 = sdiv exact i64 %182, 24
  %184 = trunc i64 %183 to i32
  %185 = icmp slt i32 %172, %184
  br i1 %185, label %233, label %186

186:                                              ; preds = %168
  %187 = add nsw i64 %173, 1
  %188 = trunc i64 %187 to i32
  store i32 %188, ptr %5, align 8, !tbaa !80
  %189 = load ptr, ptr %167, align 8, !tbaa !93
  %190 = ptrtoint ptr %189 to i64
  %191 = sub i64 %190, %166
  %192 = shl i64 %191, 29
  %193 = ashr i64 %192, 32
  %194 = icmp slt i64 %187, %193
  br i1 %194, label %195, label %227

195:                                              ; preds = %186
  %196 = getelementptr inbounds ptr, ptr %165, i64 %187
  %197 = load ptr, ptr %196, align 8, !tbaa !78
  %198 = getelementptr inbounds %"class.dealii::internal::Triangulation::TriaLevel", ptr %197, i64 0, i32 4
  %199 = getelementptr inbounds %"class.dealii::internal::Triangulation::TriaLevel", ptr %197, i64 0, i32 4, i32 0, i32 0, i32 0, i32 0, i32 0, i32 1
  %200 = load ptr, ptr %199, align 8, !tbaa !90
  %201 = load ptr, ptr %198, align 8, !tbaa !92
  %202 = ptrtoint ptr %200 to i64
  %203 = ptrtoint ptr %201 to i64
  %204 = sub i64 %202, %203
  %205 = sdiv exact i64 %204, 24
  %206 = trunc i64 %205 to i32
  %207 = icmp sgt i32 %206, 0
  br i1 %207, label %229, label %221

208:                                              ; preds = %221
  %209 = getelementptr inbounds ptr, ptr %165, i64 %223
  %210 = load ptr, ptr %209, align 8, !tbaa !78
  %211 = getelementptr inbounds %"class.dealii::internal::Triangulation::TriaLevel", ptr %210, i64 0, i32 4
  %212 = getelementptr inbounds %"class.dealii::internal::Triangulation::TriaLevel", ptr %210, i64 0, i32 4, i32 0, i32 0, i32 0, i32 0, i32 0, i32 1
  %213 = load ptr, ptr %212, align 8, !tbaa !90
  %214 = load ptr, ptr %211, align 8, !tbaa !92
  %215 = ptrtoint ptr %213 to i64
  %216 = ptrtoint ptr %214 to i64
  %217 = sub i64 %215, %216
  %218 = sdiv exact i64 %217, 24
  %219 = trunc i64 %218 to i32
  %220 = icmp sgt i32 %219, 0
  br i1 %220, label %228, label %221, !llvm.loop !94

221:                                              ; preds = %195, %208
  %222 = phi i64 [ %223, %208 ], [ %187, %195 ]
  %223 = add i64 %222, 1
  %224 = trunc i64 %223 to i32
  %225 = icmp eq i64 %223, %193
  br i1 %225, label %226, label %208, !llvm.loop !94

226:                                              ; preds = %221
  store i32 %224, ptr %5, align 8, !tbaa !80
  br label %227

227:                                              ; preds = %226, %186
  store i32 -1, ptr %5, align 8, !tbaa !80
  br label %233

228:                                              ; preds = %208
  store i32 %224, ptr %5, align 8, !tbaa !80
  br label %229

229:                                              ; preds = %228, %195
  %230 = phi i32 [ %188, %195 ], [ %224, %228 ]
  %231 = phi i64 [ %187, %195 ], [ %223, %228 ]
  %232 = trunc i64 %231 to i32
  br label %233

233:                                              ; preds = %229, %227, %168
  %234 = phi i32 [ %169, %168 ], [ -1, %227 ], [ %230, %229 ]
  %235 = phi i32 [ %172, %168 ], [ -1, %227 ], [ 0, %229 ]
  %236 = phi i32 [ %170, %168 ], [ -1, %227 ], [ %232, %229 ]
  %237 = or i32 %236, %235
  %238 = icmp sgt i32 %237, -1
  br i1 %238, label %239, label %254

239:                                              ; preds = %233
  %240 = zext i32 %236 to i64
  %241 = getelementptr inbounds ptr, ptr %165, i64 %240
  %242 = load ptr, ptr %241, align 8, !tbaa !78
  %243 = getelementptr inbounds %"class.dealii::internal::Triangulation::TriaLevel", ptr %242, i64 0, i32 4, i32 0, i32 3
  %244 = load ptr, ptr %243, align 8, !tbaa !96
  %245 = lshr i32 %235, 6
  %246 = zext i32 %245 to i64
  %247 = getelementptr inbounds i64, ptr %244, i64 %246
  %248 = and i32 %235, 63
  %249 = zext i32 %248 to i64
  %250 = shl nuw i64 1, %249
  %251 = load i64, ptr %247, align 8, !tbaa !98
  %252 = and i64 %251, %250
  %253 = icmp eq i64 %252, 0
  br i1 %253, label %168, label %254

254:                                              ; preds = %233, %239
  store i32 %235, ptr %16, align 4, !tbaa !67
  %255 = icmp ne i32 %235, %14
  %256 = icmp ne i32 %234, %12
  %257 = select i1 %255, i1 true, i1 %256
  br i1 %257, label %29, label %258

258:                                              ; preds = %254, %11
  call void @llvm.lifetime.end.p0(i64 24, ptr nonnull %5) #15
  store ptr getelementptr inbounds ({ [6 x ptr] }, ptr @_ZTVN6dealii6VectorIfEE, i64 0, inrange i32 0, i64 2), ptr %4, align 8, !tbaa !29
  %259 = getelementptr inbounds %"class.dealii::Vector", ptr %4, i64 0, i32 3
  %260 = load ptr, ptr %259, align 8, !tbaa !102
  %261 = icmp eq ptr %260, null
  br i1 %261, label %263, label %262

262:                                              ; preds = %258
  call void @_ZdaPv(ptr noundef nonnull %260) #17
  store ptr null, ptr %259, align 8, !tbaa !102
  br label %263

263:                                              ; preds = %258, %262
  call void @_ZN6dealii11SubscriptorD2Ev(ptr noundef nonnull align 8 dereferenceable(72) %4)
  call void @llvm.lifetime.end.p0(i64 88, ptr nonnull %4) #15
  ret void

264:                                              ; preds = %104, %106, %102
  %265 = phi { ptr, i32 } [ %103, %102 ], [ %105, %104 ], [ %107, %106 ]
  call void @llvm.lifetime.end.p0(i64 24, ptr nonnull %5) #15
  invoke void @_ZN6dealii6VectorIfED2Ev(ptr noundef nonnull align 8 dereferenceable(88) %4)
          to label %266 unwind label %267

266:                                              ; preds = %264
  call void @llvm.lifetime.end.p0(i64 88, ptr nonnull %4) #15
  resume { ptr, i32 } %265

267:                                              ; preds = %264
  %268 = landingpad { ptr, i32 }
          catch ptr null
  %269 = extractvalue { ptr, i32 } %268, 0
  call void @__clang_call_terminate(ptr %269) #16
  unreachable
}

; Function Attrs: mustprogress nocallback nofree nounwind willreturn memory(argmem: readwrite)
declare void @llvm.memcpy.p0.p0.i64(ptr noalias nocapture writeonly, ptr noalias nocapture readonly, i64, i1 immarg) #5

; Function Attrs: inlinehint sspstrong uwtable
define linkonce_odr dso_local void @_ZN6dealii6VectorIfE6reinitEjb(ptr noundef nonnull align 8 dereferenceable(88) %0, i32 noundef %1, i1 noundef zeroext %2) unnamed_addr #4 comdat align 2 {
  %4 = icmp eq i32 %1, 0
  br i1 %4, label %5, label %12

5:                                                ; preds = %3
  %6 = getelementptr inbounds %"class.dealii::Vector", ptr %0, i64 0, i32 3
  %7 = load ptr, ptr %6, align 8, !tbaa !102
  %8 = icmp eq ptr %7, null
  br i1 %8, label %10, label %9

9:                                                ; preds = %5
  tail call void @_ZdaPv(ptr noundef nonnull %7) #17
  br label %10

10:                                               ; preds = %9, %5
  %11 = getelementptr inbounds %"class.dealii::Vector", ptr %0, i64 0, i32 1
  tail call void @llvm.memset.p0.i64(ptr noundef nonnull align 8 dereferenceable(16) %11, i8 0, i64 16, i1 false)
  br label %32

12:                                               ; preds = %3
  %13 = getelementptr inbounds %"class.dealii::Vector", ptr %0, i64 0, i32 2
  %14 = load i32, ptr %13, align 4, !tbaa !106
  %15 = icmp ult i32 %14, %1
  br i1 %15, label %16, label %25

16:                                               ; preds = %12
  %17 = getelementptr inbounds %"class.dealii::Vector", ptr %0, i64 0, i32 3
  %18 = load ptr, ptr %17, align 8, !tbaa !102
  %19 = icmp eq ptr %18, null
  br i1 %19, label %21, label %20

20:                                               ; preds = %16
  tail call void @_ZdaPv(ptr noundef nonnull %18) #17
  br label %21

21:                                               ; preds = %20, %16
  %22 = zext i32 %1 to i64
  %23 = shl nuw nsw i64 %22, 2
  %24 = tail call noalias noundef nonnull ptr @_Znam(i64 noundef %23) #18
  store ptr %24, ptr %17, align 8, !tbaa !102
  store i32 %1, ptr %13, align 4, !tbaa !106
  br label %25

25:                                               ; preds = %21, %12
  %26 = getelementptr inbounds %"class.dealii::Vector", ptr %0, i64 0, i32 1
  store i32 %1, ptr %26, align 8, !tbaa !107
  br i1 %2, label %32, label %27

27:                                               ; preds = %25
  %28 = getelementptr inbounds %"class.dealii::Vector", ptr %0, i64 0, i32 3
  %29 = load ptr, ptr %28, align 8, !tbaa !102
  %30 = zext i32 %1 to i64
  %31 = shl nuw nsw i64 %30, 2
  tail call void @llvm.memset.p0.i64(ptr align 4 %29, i8 0, i64 %31, i1 false), !tbaa !108
  br label %32

32:                                               ; preds = %27, %10, %25
  ret void
}

declare void @_ZNK6dealii15DoFCellAccessorINS_10DoFHandlerILi3ELi3EEEE31set_dof_values_by_interpolationINS_6VectorIfEEfEEvRKNS5_IT0_EERT_(ptr noundef nonnull align 8 dereferenceable(24), ptr noundef nonnull align 8 dereferenceable(88), ptr noundef nonnull align 8 dereferenceable(88)) local_unnamed_addr #3

; Function Attrs: sspstrong uwtable
define weak_odr dso_local void @_ZNK6dealii16SolutionTransferILi3ENS_6VectorIfEENS_10DoFHandlerILi3ELi3EEEE11interpolateERKSt6vectorIS2_SaIS2_EERS8_(ptr noundef nonnull align 8 dereferenceable(120) %0, ptr noundef nonnull align 8 dereferenceable(24) %1, ptr noundef nonnull align 8 dereferenceable(24) %2) local_unnamed_addr #0 comdat align 2 personality ptr @__gxx_personality_v0 {
  %4 = alloca i32, align 4
  %5 = alloca %"class.dealii::Vector", align 8
  %6 = alloca %"class.std::vector.39", align 8
  %7 = alloca %"class.dealii::TriaIterator", align 8
  %8 = alloca %"class.dealii::TriaRawIterator", align 8
  %9 = getelementptr inbounds %"struct.std::_Vector_base<dealii::Vector<float>, std::allocator<dealii::Vector<float> > >::_Vector_impl_data", ptr %1, i64 0, i32 1
  %10 = load ptr, ptr %9, align 8, !tbaa !28
  %11 = load ptr, ptr %1, align 8, !tbaa !26
  %12 = ptrtoint ptr %10 to i64
  %13 = ptrtoint ptr %11 to i64
  %14 = sub i64 %12, %13
  %15 = sdiv exact i64 %14, 88
  %16 = getelementptr inbounds %"struct.std::_Vector_base<dealii::Vector<float>, std::allocator<dealii::Vector<float> > >::_Vector_impl_data", ptr %2, i64 0, i32 1
  %17 = load ptr, ptr %16, align 8, !tbaa !28
  %18 = load ptr, ptr %2, align 8, !tbaa !26
  %19 = ptrtoint ptr %17 to i64
  %20 = ptrtoint ptr %18 to i64
  %21 = sub i64 %19, %20
  %22 = sdiv exact i64 %21, 88
  br label %23

23:                                               ; preds = %23, %3
  %24 = phi i32 [ %27, %23 ], [ 0, %3 ]
  %25 = zext i32 %24 to i64
  %26 = icmp ugt i64 %22, %25
  %27 = add i32 %24, 1
  br i1 %26, label %23, label %28

28:                                               ; preds = %23
  %29 = and i64 %15, 4294967295
  %30 = icmp eq i64 %29, 0
  call void @llvm.lifetime.start.p0(i64 88, ptr nonnull %5) #15
  call void @_ZN6dealii11SubscriptorC2Ev(ptr noundef nonnull align 8 dereferenceable(72) %5)
  store ptr getelementptr inbounds ({ [6 x ptr] }, ptr @_ZTVN6dealii6VectorIfEE, i64 0, inrange i32 0, i64 2), ptr %5, align 8, !tbaa !29
  %31 = getelementptr inbounds %"class.dealii::Vector", ptr %5, i64 0, i32 1
  call void @llvm.memset.p0.i64(ptr noundef nonnull align 8 dereferenceable(16) %31, i8 0, i64 16, i1 false)
  call void @llvm.lifetime.start.p0(i64 24, ptr nonnull %6) #15
  call void @llvm.memset.p0.i64(ptr noundef nonnull align 8 dereferenceable(24) %6, i8 0, i64 24, i1 false)
  %32 = getelementptr inbounds %"class.dealii::SolutionTransfer", ptr %0, i64 0, i32 4, i32 0, i32 0, i32 1
  call void @llvm.lifetime.start.p0(i64 24, ptr nonnull %7) #15
  %33 = load ptr, ptr %0, align 8, !tbaa !5
  invoke void @_ZNK6dealii10DoFHandlerILi3ELi3EE5beginEj(ptr nonnull sret(%"class.dealii::TriaIterator") align 8 %7, ptr noundef nonnull align 8 dereferenceable(168) %33, i32 noundef 0)
          to label %34 unwind label %139

34:                                               ; preds = %28
  call void @llvm.lifetime.start.p0(i64 24, ptr nonnull %8) #15
  %35 = load ptr, ptr %0, align 8, !tbaa !5
  invoke void @_ZNK6dealii10DoFHandlerILi3ELi3EE3endEv(ptr nonnull sret(%"class.dealii::TriaRawIterator") align 8 %8, ptr noundef nonnull align 8 dereferenceable(168) %35)
          to label %36 unwind label %141

36:                                               ; preds = %34
  %37 = load i32, ptr %8, align 8
  %38 = getelementptr inbounds i8, ptr %8, i64 4
  %39 = load i32, ptr %38, align 4
  call void @llvm.lifetime.end.p0(i64 24, ptr nonnull %8) #15
  %40 = getelementptr inbounds %"class.dealii::TriaAccessorBase", ptr %7, i64 0, i32 1
  %41 = load i32, ptr %40, align 4, !tbaa !67
  %42 = icmp ne i32 %41, %39
  %43 = load i32, ptr %7, align 8
  %44 = icmp ne i32 %43, %37
  %45 = select i1 %42, i1 true, i1 %44
  br i1 %45, label %46, label %419

46:                                               ; preds = %36
  %47 = getelementptr inbounds %"class.dealii::SolutionTransfer", ptr %0, i64 0, i32 4, i32 0, i32 0, i32 1, i32 0, i32 1
  %48 = getelementptr inbounds %"class.dealii::DoFAccessor", ptr %7, i64 0, i32 1
  %49 = getelementptr inbounds %"class.dealii::Vector", ptr %5, i64 0, i32 2
  %50 = getelementptr inbounds %"class.dealii::Vector", ptr %5, i64 0, i32 3
  %51 = getelementptr inbounds %"struct.std::_Vector_base<unsigned int, std::allocator<unsigned int> >::_Vector_impl_data", ptr %6, i64 0, i32 1
  %52 = getelementptr inbounds %"class.dealii::TriaAccessorBase", ptr %7, i64 0, i32 2
  %53 = and i64 %15, 4294967295
  %54 = and i64 %15, 4294967295
  br label %55

55:                                               ; preds = %46, %415
  %56 = phi i32 [ %43, %46 ], [ %395, %415 ]
  %57 = phi i32 [ %41, %46 ], [ %396, %415 ]
  %58 = load ptr, ptr %47, align 8, !tbaa !15
  %59 = icmp eq ptr %58, null
  br i1 %59, label %321, label %60

60:                                               ; preds = %55, %76
  %61 = phi ptr [ %79, %76 ], [ %58, %55 ]
  %62 = phi ptr [ %77, %76 ], [ %32, %55 ]
  %63 = getelementptr inbounds %"struct.std::_Rb_tree_node", ptr %61, i64 0, i32 1
  %64 = load i32, ptr %63, align 4, !tbaa !82
  %65 = icmp ult i32 %64, %56
  br i1 %65, label %74, label %66

66:                                               ; preds = %60
  %67 = icmp ult i32 %56, %64
  br i1 %67, label %72, label %68

68:                                               ; preds = %66
  %69 = getelementptr inbounds %"struct.std::_Rb_tree_node", ptr %61, i64 0, i32 1, i32 0, i32 1
  %70 = load i32, ptr %69, align 4, !tbaa !84
  %71 = icmp ult i32 %70, %57
  br i1 %71, label %74, label %72

72:                                               ; preds = %68, %66
  %73 = getelementptr inbounds %"struct.std::_Rb_tree_node_base", ptr %61, i64 0, i32 2
  br label %76

74:                                               ; preds = %68, %60
  %75 = getelementptr inbounds %"struct.std::_Rb_tree_node_base", ptr %61, i64 0, i32 3
  br label %76

76:                                               ; preds = %74, %72
  %77 = phi ptr [ %62, %74 ], [ %61, %72 ]
  %78 = phi ptr [ %75, %74 ], [ %73, %72 ]
  %79 = load ptr, ptr %78, align 8, !tbaa !78
  %80 = icmp eq ptr %79, null
  br i1 %80, label %81, label %60

81:                                               ; preds = %76
  %82 = icmp eq ptr %77, %32
  br i1 %82, label %321, label %83

83:                                               ; preds = %81
  %84 = getelementptr inbounds %"struct.std::_Rb_tree_node", ptr %77, i64 0, i32 1
  %85 = load i32, ptr %84, align 4, !tbaa !82
  %86 = icmp ult i32 %56, %85
  br i1 %86, label %321, label %87

87:                                               ; preds = %83
  %88 = icmp ult i32 %85, %56
  br i1 %88, label %93, label %89

89:                                               ; preds = %87
  %90 = getelementptr inbounds %"struct.std::_Rb_tree_node", ptr %77, i64 0, i32 1, i32 0, i32 1
  %91 = load i32, ptr %90, align 4, !tbaa !84
  %92 = icmp ult i32 %57, %91
  br i1 %92, label %321, label %93

93:                                               ; preds = %87, %89
  %94 = getelementptr inbounds %"struct.std::_Rb_tree_node", ptr %77, i64 0, i32 1, i32 1
  %95 = load ptr, ptr %94, align 8, !tbaa !112
  %96 = getelementptr inbounds %"struct.std::_Rb_tree_node", ptr %77, i64 0, i32 1, i32 1, i32 1
  %97 = load ptr, ptr %96, align 8, !tbaa !116
  %98 = load ptr, ptr %48, align 8, !tbaa !69
  %99 = getelementptr inbounds %"class.dealii::DoFHandler", ptr %98, i64 0, i32 2
  %100 = load ptr, ptr %99, align 8, !tbaa !73
  %101 = getelementptr inbounds i8, ptr %100, i64 112
  %102 = load i32, ptr %101, align 8, !tbaa !74
  %103 = icmp eq ptr %95, null
  br i1 %103, label %200, label %104

104:                                              ; preds = %93
  %105 = icmp eq i32 %102, 0
  br i1 %105, label %106, label %111

106:                                              ; preds = %104
  %107 = load ptr, ptr %50, align 8, !tbaa !102
  %108 = icmp eq ptr %107, null
  br i1 %108, label %110, label %109

109:                                              ; preds = %106
  call void @_ZdaPv(ptr noundef nonnull %107) #17
  br label %110

110:                                              ; preds = %109, %106
  call void @llvm.memset.p0.i64(ptr noundef nonnull align 8 dereferenceable(16) %31, i8 0, i64 16, i1 false)
  br label %124

111:                                              ; preds = %104
  %112 = load i32, ptr %49, align 4, !tbaa !106
  %113 = icmp ult i32 %112, %102
  br i1 %113, label %114, label %123

114:                                              ; preds = %111
  %115 = load ptr, ptr %50, align 8, !tbaa !102
  %116 = icmp eq ptr %115, null
  br i1 %116, label %118, label %117

117:                                              ; preds = %114
  call void @_ZdaPv(ptr noundef nonnull %115) #17
  br label %118

118:                                              ; preds = %117, %114
  %119 = zext i32 %102 to i64
  %120 = shl nuw nsw i64 %119, 2
  %121 = invoke noalias noundef nonnull ptr @_Znam(i64 noundef %120) #18
          to label %122 unwind label %143

122:                                              ; preds = %118
  store ptr %121, ptr %50, align 8, !tbaa !102
  store i32 %102, ptr %49, align 4, !tbaa !106
  br label %123

123:                                              ; preds = %122, %111
  store i32 %102, ptr %31, align 8, !tbaa !107
  br label %124

124:                                              ; preds = %110, %123
  br i1 %30, label %321, label %125

125:                                              ; preds = %124
  %126 = zext i32 %102 to i64
  %127 = and i64 %126, 3
  %128 = icmp ult i32 %102, 4
  %129 = and i64 %126, 4294967292
  %130 = icmp eq i64 %127, 0
  br label %131

131:                                              ; preds = %125, %195
  %132 = phi i64 [ 0, %125 ], [ %196, %195 ]
  br i1 %105, label %192, label %133

133:                                              ; preds = %131
  %134 = load ptr, ptr %1, align 8, !tbaa !26
  %135 = load ptr, ptr %95, align 8, !tbaa !21
  %136 = getelementptr inbounds %"class.dealii::Vector", ptr %134, i64 %132, i32 3
  %137 = load ptr, ptr %136, align 8, !tbaa !102
  %138 = load ptr, ptr %50, align 8, !tbaa !102
  br i1 %128, label %178, label %145

139:                                              ; preds = %28
  %140 = landingpad { ptr, i32 }
          cleanup
  br label %429

141:                                              ; preds = %34
  %142 = landingpad { ptr, i32 }
          cleanup
  call void @llvm.lifetime.end.p0(i64 24, ptr nonnull %8) #15
  br label %429

143:                                              ; preds = %211, %118
  %144 = landingpad { ptr, i32 }
          cleanup
  br label %429

145:                                              ; preds = %133, %145
  %146 = phi i64 [ %175, %145 ], [ 0, %133 ]
  %147 = phi i64 [ %176, %145 ], [ 0, %133 ]
  %148 = getelementptr inbounds i32, ptr %135, i64 %146
  %149 = load i32, ptr %148, align 4, !tbaa !77
  %150 = zext i32 %149 to i64
  %151 = getelementptr inbounds float, ptr %137, i64 %150
  %152 = load float, ptr %151, align 4, !tbaa !108
  %153 = getelementptr inbounds float, ptr %138, i64 %146
  store float %152, ptr %153, align 4, !tbaa !108
  %154 = or i64 %146, 1
  %155 = getelementptr inbounds i32, ptr %135, i64 %154
  %156 = load i32, ptr %155, align 4, !tbaa !77
  %157 = zext i32 %156 to i64
  %158 = getelementptr inbounds float, ptr %137, i64 %157
  %159 = load float, ptr %158, align 4, !tbaa !108
  %160 = getelementptr inbounds float, ptr %138, i64 %154
  store float %159, ptr %160, align 4, !tbaa !108
  %161 = or i64 %146, 2
  %162 = getelementptr inbounds i32, ptr %135, i64 %161
  %163 = load i32, ptr %162, align 4, !tbaa !77
  %164 = zext i32 %163 to i64
  %165 = getelementptr inbounds float, ptr %137, i64 %164
  %166 = load float, ptr %165, align 4, !tbaa !108
  %167 = getelementptr inbounds float, ptr %138, i64 %161
  store float %166, ptr %167, align 4, !tbaa !108
  %168 = or i64 %146, 3
  %169 = getelementptr inbounds i32, ptr %135, i64 %168
  %170 = load i32, ptr %169, align 4, !tbaa !77
  %171 = zext i32 %170 to i64
  %172 = getelementptr inbounds float, ptr %137, i64 %171
  %173 = load float, ptr %172, align 4, !tbaa !108
  %174 = getelementptr inbounds float, ptr %138, i64 %168
  store float %173, ptr %174, align 4, !tbaa !108
  %175 = add nuw nsw i64 %146, 4
  %176 = add i64 %147, 4
  %177 = icmp eq i64 %176, %129
  br i1 %177, label %178, label %145

178:                                              ; preds = %145, %133
  %179 = phi i64 [ 0, %133 ], [ %175, %145 ]
  br i1 %130, label %192, label %180

180:                                              ; preds = %178, %180
  %181 = phi i64 [ %189, %180 ], [ %179, %178 ]
  %182 = phi i64 [ %190, %180 ], [ 0, %178 ]
  %183 = getelementptr inbounds i32, ptr %135, i64 %181
  %184 = load i32, ptr %183, align 4, !tbaa !77
  %185 = zext i32 %184 to i64
  %186 = getelementptr inbounds float, ptr %137, i64 %185
  %187 = load float, ptr %186, align 4, !tbaa !108
  %188 = getelementptr inbounds float, ptr %138, i64 %181
  store float %187, ptr %188, align 4, !tbaa !108
  %189 = add nuw nsw i64 %181, 1
  %190 = add i64 %182, 1
  %191 = icmp eq i64 %190, %127
  br i1 %191, label %192, label %180, !llvm.loop !117

192:                                              ; preds = %178, %180, %131
  %193 = load ptr, ptr %2, align 8, !tbaa !26
  %194 = getelementptr inbounds %"class.dealii::Vector", ptr %193, i64 %132
  invoke void @_ZNK6dealii15DoFCellAccessorINS_10DoFHandlerILi3ELi3EEEE31set_dof_values_by_interpolationINS_6VectorIfEEfEEvRKNS5_IT0_EERT_(ptr noundef nonnull align 8 dereferenceable(24) %7, ptr noundef nonnull align 8 dereferenceable(88) %5, ptr noundef nonnull align 8 dereferenceable(88) %194)
          to label %195 unwind label %198

195:                                              ; preds = %192
  %196 = add nuw nsw i64 %132, 1
  %197 = icmp eq i64 %196, %53
  br i1 %197, label %321, label %131

198:                                              ; preds = %192
  %199 = landingpad { ptr, i32 }
          cleanup
  br label %429

200:                                              ; preds = %93
  %201 = icmp eq ptr %97, null
  br i1 %201, label %321, label %202

202:                                              ; preds = %200
  %203 = zext i32 %102 to i64
  call void @llvm.lifetime.start.p0(i64 4, ptr nonnull %4)
  store i32 0, ptr %4, align 4, !tbaa !77
  %204 = load ptr, ptr %51, align 8, !tbaa !78
  %205 = load ptr, ptr %6, align 8, !tbaa !21
  %206 = ptrtoint ptr %204 to i64
  %207 = ptrtoint ptr %205 to i64
  %208 = sub i64 %206, %207
  %209 = ashr exact i64 %208, 2
  %210 = icmp ult i64 %209, %203
  br i1 %210, label %211, label %219

211:                                              ; preds = %202
  %212 = sub nsw i64 %203, %209
  invoke void @_ZNSt6vectorIjSaIjEE14_M_fill_insertEN9__gnu_cxx17__normal_iteratorIPjS1_EEmRKj(ptr noundef nonnull align 8 dereferenceable(24) %6, ptr %204, i64 noundef %212, ptr noundef nonnull align 4 dereferenceable(4) %4)
          to label %213 unwind label %143

213:                                              ; preds = %211
  %214 = load ptr, ptr %48, align 8, !tbaa !69
  %215 = getelementptr inbounds %"class.dealii::DoFHandler", ptr %214, i64 0, i32 2
  %216 = load ptr, ptr %215, align 8, !tbaa !73
  %217 = getelementptr inbounds i8, ptr %216, i64 112
  %218 = load i32, ptr %217, align 8, !tbaa !74
  br label %225

219:                                              ; preds = %202
  %220 = icmp ugt i64 %209, %203
  br i1 %220, label %221, label %225

221:                                              ; preds = %219
  %222 = getelementptr inbounds i32, ptr %205, i64 %203
  %223 = icmp eq ptr %204, %222
  br i1 %223, label %225, label %224

224:                                              ; preds = %221
  store ptr %222, ptr %51, align 8, !tbaa !79
  br label %225

225:                                              ; preds = %213, %219, %221, %224
  %226 = phi i32 [ %218, %213 ], [ %102, %219 ], [ %102, %221 ], [ %102, %224 ]
  %227 = phi ptr [ %216, %213 ], [ %100, %219 ], [ %100, %221 ], [ %100, %224 ]
  %228 = phi ptr [ %214, %213 ], [ %98, %219 ], [ %98, %221 ], [ %98, %224 ]
  call void @llvm.lifetime.end.p0(i64 4, ptr nonnull %4)
  %229 = getelementptr inbounds i8, ptr %227, i64 112
  %230 = icmp eq i32 %226, 0
  br i1 %230, label %254, label %231

231:                                              ; preds = %225
  %232 = getelementptr inbounds %"class.dealii::DoFHandler", ptr %228, i64 0, i32 3
  %233 = load ptr, ptr %232, align 8, !tbaa !81
  %234 = load i32, ptr %7, align 8, !tbaa !80
  %235 = sext i32 %234 to i64
  %236 = getelementptr inbounds ptr, ptr %233, i64 %235
  %237 = load ptr, ptr %236, align 8, !tbaa !78
  %238 = load ptr, ptr %237, align 8, !tbaa !21
  %239 = load i32, ptr %40, align 4, !tbaa !67
  %240 = mul i32 %239, %226
  %241 = zext i32 %240 to i64
  %242 = getelementptr inbounds i32, ptr %238, i64 %241
  %243 = load ptr, ptr %6, align 8, !tbaa !21
  br label %244

244:                                              ; preds = %244, %231
  %245 = phi i64 [ 0, %231 ], [ %249, %244 ]
  %246 = phi ptr [ %242, %231 ], [ %250, %244 ]
  %247 = load i32, ptr %246, align 4, !tbaa !77
  %248 = getelementptr inbounds i32, ptr %243, i64 %245
  store i32 %247, ptr %248, align 4, !tbaa !77
  %249 = add nuw nsw i64 %245, 1
  %250 = getelementptr inbounds i32, ptr %246, i64 1
  %251 = load i32, ptr %229, align 8, !tbaa !74
  %252 = zext i32 %251 to i64
  %253 = icmp ult i64 %249, %252
  br i1 %253, label %244, label %254

254:                                              ; preds = %244, %225
  br i1 %30, label %321, label %255

255:                                              ; preds = %254
  %256 = icmp eq i32 %102, 0
  %257 = load ptr, ptr %2, align 8
  %258 = load ptr, ptr %6, align 8
  br i1 %256, label %321, label %259

259:                                              ; preds = %255
  %260 = load ptr, ptr %97, align 8, !tbaa !26
  %261 = and i64 %203, 3
  %262 = icmp ult i32 %102, 4
  %263 = and i64 %203, 4294967292
  %264 = icmp eq i64 %261, 0
  br label %265

265:                                              ; preds = %318, %259
  %266 = phi i64 [ %319, %318 ], [ 0, %259 ]
  %267 = getelementptr inbounds %"class.dealii::Vector", ptr %260, i64 %266, i32 3
  %268 = load ptr, ptr %267, align 8, !tbaa !102
  %269 = getelementptr inbounds %"class.dealii::Vector", ptr %257, i64 %266, i32 3
  %270 = load ptr, ptr %269, align 8, !tbaa !102
  br i1 %262, label %304, label %271

271:                                              ; preds = %265, %271
  %272 = phi i64 [ %301, %271 ], [ 0, %265 ]
  %273 = phi i64 [ %302, %271 ], [ 0, %265 ]
  %274 = getelementptr inbounds float, ptr %268, i64 %272
  %275 = load float, ptr %274, align 4, !tbaa !108
  %276 = getelementptr inbounds i32, ptr %258, i64 %272
  %277 = load i32, ptr %276, align 4, !tbaa !77
  %278 = zext i32 %277 to i64
  %279 = getelementptr inbounds float, ptr %270, i64 %278
  store float %275, ptr %279, align 4, !tbaa !108
  %280 = or i64 %272, 1
  %281 = getelementptr inbounds float, ptr %268, i64 %280
  %282 = load float, ptr %281, align 4, !tbaa !108
  %283 = getelementptr inbounds i32, ptr %258, i64 %280
  %284 = load i32, ptr %283, align 4, !tbaa !77
  %285 = zext i32 %284 to i64
  %286 = getelementptr inbounds float, ptr %270, i64 %285
  store float %282, ptr %286, align 4, !tbaa !108
  %287 = or i64 %272, 2
  %288 = getelementptr inbounds float, ptr %268, i64 %287
  %289 = load float, ptr %288, align 4, !tbaa !108
  %290 = getelementptr inbounds i32, ptr %258, i64 %287
  %291 = load i32, ptr %290, align 4, !tbaa !77
  %292 = zext i32 %291 to i64
  %293 = getelementptr inbounds float, ptr %270, i64 %292
  store float %289, ptr %293, align 4, !tbaa !108
  %294 = or i64 %272, 3
  %295 = getelementptr inbounds float, ptr %268, i64 %294
  %296 = load float, ptr %295, align 4, !tbaa !108
  %297 = getelementptr inbounds i32, ptr %258, i64 %294
  %298 = load i32, ptr %297, align 4, !tbaa !77
  %299 = zext i32 %298 to i64
  %300 = getelementptr inbounds float, ptr %270, i64 %299
  store float %296, ptr %300, align 4, !tbaa !108
  %301 = add nuw nsw i64 %272, 4
  %302 = add i64 %273, 4
  %303 = icmp eq i64 %302, %263
  br i1 %303, label %304, label %271

304:                                              ; preds = %271, %265
  %305 = phi i64 [ 0, %265 ], [ %301, %271 ]
  br i1 %264, label %318, label %306

306:                                              ; preds = %304, %306
  %307 = phi i64 [ %315, %306 ], [ %305, %304 ]
  %308 = phi i64 [ %316, %306 ], [ 0, %304 ]
  %309 = getelementptr inbounds float, ptr %268, i64 %307
  %310 = load float, ptr %309, align 4, !tbaa !108
  %311 = getelementptr inbounds i32, ptr %258, i64 %307
  %312 = load i32, ptr %311, align 4, !tbaa !77
  %313 = zext i32 %312 to i64
  %314 = getelementptr inbounds float, ptr %270, i64 %313
  store float %310, ptr %314, align 4, !tbaa !108
  %315 = add nuw nsw i64 %307, 1
  %316 = add i64 %308, 1
  %317 = icmp eq i64 %316, %261
  br i1 %317, label %318, label %306, !llvm.loop !118

318:                                              ; preds = %306, %304
  %319 = add nuw nsw i64 %266, 1
  %320 = icmp eq i64 %319, %54
  br i1 %320, label %321, label %265

321:                                              ; preds = %195, %318, %255, %124, %254, %83, %55, %81, %89, %200
  %322 = load ptr, ptr %52, align 8, !tbaa !87
  %323 = getelementptr inbounds %"class.dealii::Triangulation", ptr %322, i64 0, i32 1
  %324 = load ptr, ptr %323, align 8, !tbaa !88
  %325 = load i32, ptr %40, align 4
  %326 = load i32, ptr %7, align 8
  %327 = ptrtoint ptr %324 to i64
  %328 = getelementptr inbounds %"class.dealii::Triangulation", ptr %322, i64 0, i32 1, i32 0, i32 0, i32 0, i32 1
  br label %329

329:                                              ; preds = %400, %321
  %330 = phi i32 [ %395, %400 ], [ %326, %321 ]
  %331 = phi i32 [ %397, %400 ], [ %326, %321 ]
  %332 = phi i32 [ %396, %400 ], [ %325, %321 ]
  %333 = add nsw i32 %332, 1
  %334 = sext i32 %331 to i64
  %335 = getelementptr inbounds ptr, ptr %324, i64 %334
  %336 = load ptr, ptr %335, align 8, !tbaa !78
  %337 = getelementptr inbounds %"class.dealii::internal::Triangulation::TriaLevel", ptr %336, i64 0, i32 4
  %338 = getelementptr inbounds %"class.dealii::internal::Triangulation::TriaLevel", ptr %336, i64 0, i32 4, i32 0, i32 0, i32 0, i32 0, i32 0, i32 1
  %339 = load ptr, ptr %338, align 8, !tbaa !90
  %340 = load ptr, ptr %337, align 8, !tbaa !92
  %341 = ptrtoint ptr %339 to i64
  %342 = ptrtoint ptr %340 to i64
  %343 = sub i64 %341, %342
  %344 = sdiv exact i64 %343, 24
  %345 = trunc i64 %344 to i32
  %346 = icmp slt i32 %333, %345
  br i1 %346, label %394, label %347

347:                                              ; preds = %329
  %348 = add nsw i64 %334, 1
  %349 = trunc i64 %348 to i32
  store i32 %349, ptr %7, align 8, !tbaa !80
  %350 = load ptr, ptr %328, align 8, !tbaa !93
  %351 = ptrtoint ptr %350 to i64
  %352 = sub i64 %351, %327
  %353 = shl i64 %352, 29
  %354 = ashr i64 %353, 32
  %355 = icmp slt i64 %348, %354
  br i1 %355, label %356, label %388

356:                                              ; preds = %347
  %357 = getelementptr inbounds ptr, ptr %324, i64 %348
  %358 = load ptr, ptr %357, align 8, !tbaa !78
  %359 = getelementptr inbounds %"class.dealii::internal::Triangulation::TriaLevel", ptr %358, i64 0, i32 4
  %360 = getelementptr inbounds %"class.dealii::internal::Triangulation::TriaLevel", ptr %358, i64 0, i32 4, i32 0, i32 0, i32 0, i32 0, i32 0, i32 1
  %361 = load ptr, ptr %360, align 8, !tbaa !90
  %362 = load ptr, ptr %359, align 8, !tbaa !92
  %363 = ptrtoint ptr %361 to i64
  %364 = ptrtoint ptr %362 to i64
  %365 = sub i64 %363, %364
  %366 = sdiv exact i64 %365, 24
  %367 = trunc i64 %366 to i32
  %368 = icmp sgt i32 %367, 0
  br i1 %368, label %390, label %382

369:                                              ; preds = %382
  %370 = getelementptr inbounds ptr, ptr %324, i64 %384
  %371 = load ptr, ptr %370, align 8, !tbaa !78
  %372 = getelementptr inbounds %"class.dealii::internal::Triangulation::TriaLevel", ptr %371, i64 0, i32 4
  %373 = getelementptr inbounds %"class.dealii::internal::Triangulation::TriaLevel", ptr %371, i64 0, i32 4, i32 0, i32 0, i32 0, i32 0, i32 0, i32 1
  %374 = load ptr, ptr %373, align 8, !tbaa !90
  %375 = load ptr, ptr %372, align 8, !tbaa !92
  %376 = ptrtoint ptr %374 to i64
  %377 = ptrtoint ptr %375 to i64
  %378 = sub i64 %376, %377
  %379 = sdiv exact i64 %378, 24
  %380 = trunc i64 %379 to i32
  %381 = icmp sgt i32 %380, 0
  br i1 %381, label %389, label %382, !llvm.loop !94

382:                                              ; preds = %356, %369
  %383 = phi i64 [ %384, %369 ], [ %348, %356 ]
  %384 = add i64 %383, 1
  %385 = trunc i64 %384 to i32
  %386 = icmp eq i64 %384, %354
  br i1 %386, label %387, label %369, !llvm.loop !94

387:                                              ; preds = %382
  store i32 %385, ptr %7, align 8, !tbaa !80
  br label %388

388:                                              ; preds = %387, %347
  store i32 -1, ptr %7, align 8, !tbaa !80
  br label %394

389:                                              ; preds = %369
  store i32 %385, ptr %7, align 8, !tbaa !80
  br label %390

390:                                              ; preds = %389, %356
  %391 = phi i32 [ %349, %356 ], [ %385, %389 ]
  %392 = phi i64 [ %348, %356 ], [ %384, %389 ]
  %393 = trunc i64 %392 to i32
  br label %394

394:                                              ; preds = %390, %388, %329
  %395 = phi i32 [ %330, %329 ], [ -1, %388 ], [ %391, %390 ]
  %396 = phi i32 [ %333, %329 ], [ -1, %388 ], [ 0, %390 ]
  %397 = phi i32 [ %331, %329 ], [ -1, %388 ], [ %393, %390 ]
  %398 = or i32 %397, %396
  %399 = icmp sgt i32 %398, -1
  br i1 %399, label %400, label %415

400:                                              ; preds = %394
  %401 = zext i32 %397 to i64
  %402 = getelementptr inbounds ptr, ptr %324, i64 %401
  %403 = load ptr, ptr %402, align 8, !tbaa !78
  %404 = getelementptr inbounds %"class.dealii::internal::Triangulation::TriaLevel", ptr %403, i64 0, i32 4, i32 0, i32 3
  %405 = load ptr, ptr %404, align 8, !tbaa !96
  %406 = lshr i32 %396, 6
  %407 = zext i32 %406 to i64
  %408 = getelementptr inbounds i64, ptr %405, i64 %407
  %409 = and i32 %396, 63
  %410 = zext i32 %409 to i64
  %411 = shl nuw i64 1, %410
  %412 = load i64, ptr %408, align 8, !tbaa !98
  %413 = and i64 %412, %411
  %414 = icmp eq i64 %413, 0
  br i1 %414, label %329, label %415

415:                                              ; preds = %394, %400
  store i32 %396, ptr %40, align 4, !tbaa !67
  %416 = icmp ne i32 %396, %39
  %417 = icmp ne i32 %395, %37
  %418 = select i1 %416, i1 true, i1 %417
  br i1 %418, label %55, label %419

419:                                              ; preds = %415, %36
  call void @llvm.lifetime.end.p0(i64 24, ptr nonnull %7) #15
  %420 = load ptr, ptr %6, align 8, !tbaa !21
  %421 = icmp eq ptr %420, null
  br i1 %421, label %423, label %422

422:                                              ; preds = %419
  call void @_ZdlPv(ptr noundef nonnull %420) #17
  br label %423

423:                                              ; preds = %422, %419
  call void @llvm.lifetime.end.p0(i64 24, ptr nonnull %6) #15
  store ptr getelementptr inbounds ({ [6 x ptr] }, ptr @_ZTVN6dealii6VectorIfEE, i64 0, inrange i32 0, i64 2), ptr %5, align 8, !tbaa !29
  %424 = getelementptr inbounds %"class.dealii::Vector", ptr %5, i64 0, i32 3
  %425 = load ptr, ptr %424, align 8, !tbaa !102
  %426 = icmp eq ptr %425, null
  br i1 %426, label %428, label %427

427:                                              ; preds = %423
  call void @_ZdaPv(ptr noundef nonnull %425) #17
  store ptr null, ptr %424, align 8, !tbaa !102
  br label %428

428:                                              ; preds = %423, %427
  call void @_ZN6dealii11SubscriptorD2Ev(ptr noundef nonnull align 8 dereferenceable(72) %5)
  call void @llvm.lifetime.end.p0(i64 88, ptr nonnull %5) #15
  ret void

429:                                              ; preds = %141, %198, %143, %139
  %430 = phi { ptr, i32 } [ %140, %139 ], [ %142, %141 ], [ %199, %198 ], [ %144, %143 ]
  call void @llvm.lifetime.end.p0(i64 24, ptr nonnull %7) #15
  %431 = load ptr, ptr %6, align 8, !tbaa !21
  %432 = icmp eq ptr %431, null
  br i1 %432, label %434, label %433

433:                                              ; preds = %429
  call void @_ZdlPv(ptr noundef nonnull %431) #17
  br label %434

434:                                              ; preds = %433, %429
  call void @llvm.lifetime.end.p0(i64 24, ptr nonnull %6) #15
  invoke void @_ZN6dealii6VectorIfED2Ev(ptr noundef nonnull align 8 dereferenceable(88) %5)
          to label %435 unwind label %436

435:                                              ; preds = %434
  call void @llvm.lifetime.end.p0(i64 88, ptr nonnull %5) #15
  resume { ptr, i32 } %430

436:                                              ; preds = %434
  %437 = landingpad { ptr, i32 }
          catch ptr null
  %438 = extractvalue { ptr, i32 } %437, 0
  call void @__clang_call_terminate(ptr %438) #16
  unreachable
}

; Function Attrs: sspstrong uwtable
define weak_odr dso_local void @_ZNK6dealii16SolutionTransferILi3ENS_6VectorIfEENS_10DoFHandlerILi3ELi3EEEE11interpolateERKS2_RS2_(ptr noundef nonnull align 8 dereferenceable(120) %0, ptr noundef nonnull align 8 dereferenceable(88) %1, ptr noundef nonnull align 8 dereferenceable(88) %2) local_unnamed_addr #0 comdat align 2 personality ptr @__gxx_personality_v0 {
  %4 = alloca %"class.std::vector.101", align 8
  %5 = alloca %"class.dealii::Vector", align 8
  %6 = alloca %"class.std::allocator.103", align 1
  %7 = alloca %"class.std::vector.101", align 8
  %8 = alloca %"class.dealii::Vector", align 8
  %9 = alloca %"class.std::allocator.103", align 1
  call void @llvm.lifetime.start.p0(i64 24, ptr nonnull %4) #15
  call void @llvm.lifetime.start.p0(i64 88, ptr nonnull %5) #15
  call void @_ZN6dealii11SubscriptorC2Ev(ptr noundef nonnull align 8 dereferenceable(72) %5)
  store ptr getelementptr inbounds ({ [6 x ptr] }, ptr @_ZTVN6dealii6VectorIfEE, i64 0, inrange i32 0, i64 2), ptr %5, align 8, !tbaa !29
  %10 = getelementptr inbounds %"class.dealii::Vector", ptr %5, i64 0, i32 1
  call void @llvm.memset.p0.i64(ptr noundef nonnull align 8 dereferenceable(16) %10, i8 0, i64 16, i1 false)
  call void @llvm.lifetime.start.p0(i64 1, ptr nonnull %6) #15
  invoke void @_ZNSt6vectorIN6dealii6VectorIfEESaIS2_EEC2EmRKS2_RKS3_(ptr noundef nonnull align 8 dereferenceable(24) %4, i64 noundef 1, ptr noundef nonnull align 8 dereferenceable(88) %5, ptr noundef nonnull align 1 dereferenceable(1) %6)
          to label %11 unwind label %84

11:                                               ; preds = %3
  call void @llvm.lifetime.end.p0(i64 1, ptr nonnull %6) #15
  store ptr getelementptr inbounds ({ [6 x ptr] }, ptr @_ZTVN6dealii6VectorIfEE, i64 0, inrange i32 0, i64 2), ptr %5, align 8, !tbaa !29
  %12 = getelementptr inbounds %"class.dealii::Vector", ptr %5, i64 0, i32 3
  %13 = load ptr, ptr %12, align 8, !tbaa !102
  %14 = icmp eq ptr %13, null
  br i1 %14, label %16, label %15

15:                                               ; preds = %11
  call void @_ZdaPv(ptr noundef nonnull %13) #17
  store ptr null, ptr %12, align 8, !tbaa !102
  br label %16

16:                                               ; preds = %11, %15
  call void @_ZN6dealii11SubscriptorD2Ev(ptr noundef nonnull align 8 dereferenceable(72) %5)
  call void @llvm.lifetime.end.p0(i64 88, ptr nonnull %5) #15
  %17 = load ptr, ptr %4, align 8, !tbaa !26
  %18 = invoke noundef nonnull align 8 dereferenceable(88) ptr @_ZN6dealii6VectorIfEaSERKS1_(ptr noundef nonnull align 8 dereferenceable(88) %17, ptr noundef nonnull align 8 dereferenceable(88) %1)
          to label %19 unwind label %87

19:                                               ; preds = %16
  call void @llvm.lifetime.start.p0(i64 24, ptr nonnull %7) #15
  call void @llvm.lifetime.start.p0(i64 88, ptr nonnull %8) #15
  invoke void @_ZN6dealii11SubscriptorC2Ev(ptr noundef nonnull align 8 dereferenceable(72) %8)
          to label %20 unwind label %89

20:                                               ; preds = %19
  store ptr getelementptr inbounds ({ [6 x ptr] }, ptr @_ZTVN6dealii6VectorIfEE, i64 0, inrange i32 0, i64 2), ptr %8, align 8, !tbaa !29
  %21 = getelementptr inbounds %"class.dealii::Vector", ptr %8, i64 0, i32 1
  call void @llvm.memset.p0.i64(ptr noundef nonnull align 8 dereferenceable(16) %21, i8 0, i64 16, i1 false)
  call void @llvm.lifetime.start.p0(i64 1, ptr nonnull %9) #15
  invoke void @_ZNSt6vectorIN6dealii6VectorIfEESaIS2_EEC2EmRKS2_RKS3_(ptr noundef nonnull align 8 dereferenceable(24) %7, i64 noundef 1, ptr noundef nonnull align 8 dereferenceable(88) %8, ptr noundef nonnull align 1 dereferenceable(1) %9)
          to label %22 unwind label %91

22:                                               ; preds = %20
  call void @llvm.lifetime.end.p0(i64 1, ptr nonnull %9) #15
  store ptr getelementptr inbounds ({ [6 x ptr] }, ptr @_ZTVN6dealii6VectorIfEE, i64 0, inrange i32 0, i64 2), ptr %8, align 8, !tbaa !29
  %23 = getelementptr inbounds %"class.dealii::Vector", ptr %8, i64 0, i32 3
  %24 = load ptr, ptr %23, align 8, !tbaa !102
  %25 = icmp eq ptr %24, null
  br i1 %25, label %27, label %26

26:                                               ; preds = %22
  call void @_ZdaPv(ptr noundef nonnull %24) #17
  store ptr null, ptr %23, align 8, !tbaa !102
  br label %27

27:                                               ; preds = %26, %22
  invoke void @_ZN6dealii11SubscriptorD2Ev(ptr noundef nonnull align 8 dereferenceable(72) %8)
          to label %28 unwind label %89

28:                                               ; preds = %27
  call void @llvm.lifetime.end.p0(i64 88, ptr nonnull %8) #15
  %29 = load ptr, ptr %7, align 8, !tbaa !26
  %30 = invoke noundef nonnull align 8 dereferenceable(88) ptr @_ZN6dealii6VectorIfEaSERKS1_(ptr noundef nonnull align 8 dereferenceable(88) %29, ptr noundef nonnull align 8 dereferenceable(88) %2)
          to label %31 unwind label %95

31:                                               ; preds = %28
  invoke void @_ZNK6dealii16SolutionTransferILi3ENS_6VectorIfEENS_10DoFHandlerILi3ELi3EEEE11interpolateERKSt6vectorIS2_SaIS2_EERS8_(ptr noundef nonnull align 8 dereferenceable(120) %0, ptr noundef nonnull align 8 dereferenceable(24) %4, ptr noundef nonnull align 8 dereferenceable(24) %7)
          to label %32 unwind label %95

32:                                               ; preds = %31
  %33 = load ptr, ptr %7, align 8, !tbaa !26
  %34 = invoke noundef nonnull align 8 dereferenceable(88) ptr @_ZN6dealii6VectorIfEaSERKS1_(ptr noundef nonnull align 8 dereferenceable(88) %2, ptr noundef nonnull align 8 dereferenceable(88) %33)
          to label %35 unwind label %95

35:                                               ; preds = %32
  %36 = load ptr, ptr %7, align 8, !tbaa !26
  %37 = getelementptr inbounds %"struct.std::_Vector_base<dealii::Vector<float>, std::allocator<dealii::Vector<float> > >::_Vector_impl_data", ptr %7, i64 0, i32 1
  %38 = load ptr, ptr %37, align 8, !tbaa !28
  %39 = icmp eq ptr %36, %38
  br i1 %39, label %49, label %40

40:                                               ; preds = %35, %44
  %41 = phi ptr [ %45, %44 ], [ %36, %35 ]
  %42 = load ptr, ptr %41, align 8, !tbaa !29
  %43 = load ptr, ptr %42, align 8
  invoke void %43(ptr noundef nonnull align 8 dereferenceable(88) %41)
          to label %44 unwind label %53

44:                                               ; preds = %40
  %45 = getelementptr inbounds %"class.dealii::Vector", ptr %41, i64 1
  %46 = icmp eq ptr %45, %38
  br i1 %46, label %47, label %40

47:                                               ; preds = %44
  %48 = load ptr, ptr %7, align 8, !tbaa !26
  br label %49

49:                                               ; preds = %47, %35
  %50 = phi ptr [ %48, %47 ], [ %36, %35 ]
  %51 = icmp eq ptr %50, null
  br i1 %51, label %58, label %52

52:                                               ; preds = %49
  call void @_ZdlPv(ptr noundef nonnull %50) #17
  br label %58

53:                                               ; preds = %40
  %54 = landingpad { ptr, i32 }
          cleanup
  %55 = load ptr, ptr %7, align 8, !tbaa !26
  %56 = icmp eq ptr %55, null
  br i1 %56, label %97, label %57

57:                                               ; preds = %53
  call void @_ZdlPv(ptr noundef nonnull %55) #17
  br label %97

58:                                               ; preds = %52, %49
  call void @llvm.lifetime.end.p0(i64 24, ptr nonnull %7) #15
  %59 = load ptr, ptr %4, align 8, !tbaa !26
  %60 = getelementptr inbounds %"struct.std::_Vector_base<dealii::Vector<float>, std::allocator<dealii::Vector<float> > >::_Vector_impl_data", ptr %4, i64 0, i32 1
  %61 = load ptr, ptr %60, align 8, !tbaa !28
  %62 = icmp eq ptr %59, %61
  br i1 %62, label %72, label %63

63:                                               ; preds = %58, %67
  %64 = phi ptr [ %68, %67 ], [ %59, %58 ]
  %65 = load ptr, ptr %64, align 8, !tbaa !29
  %66 = load ptr, ptr %65, align 8
  invoke void %66(ptr noundef nonnull align 8 dereferenceable(88) %64)
          to label %67 unwind label %76

67:                                               ; preds = %63
  %68 = getelementptr inbounds %"class.dealii::Vector", ptr %64, i64 1
  %69 = icmp eq ptr %68, %61
  br i1 %69, label %70, label %63

70:                                               ; preds = %67
  %71 = load ptr, ptr %4, align 8, !tbaa !26
  br label %72

72:                                               ; preds = %70, %58
  %73 = phi ptr [ %71, %70 ], [ %59, %58 ]
  %74 = icmp eq ptr %73, null
  br i1 %74, label %83, label %75

75:                                               ; preds = %72
  call void @_ZdlPv(ptr noundef nonnull %73) #17
  br label %83

76:                                               ; preds = %63
  %77 = landingpad { ptr, i32 }
          cleanup
  %78 = load ptr, ptr %4, align 8, !tbaa !26
  %79 = icmp eq ptr %78, null
  br i1 %79, label %81, label %80

80:                                               ; preds = %76
  call void @_ZdlPv(ptr noundef nonnull %78) #17
  br label %81

81:                                               ; preds = %76, %80, %101
  %82 = phi { ptr, i32 } [ %102, %101 ], [ %77, %80 ], [ %77, %76 ]
  resume { ptr, i32 } %82

83:                                               ; preds = %72, %75
  call void @llvm.lifetime.end.p0(i64 24, ptr nonnull %4) #15
  ret void

84:                                               ; preds = %3
  %85 = landingpad { ptr, i32 }
          cleanup
  call void @llvm.lifetime.end.p0(i64 1, ptr nonnull %6) #15
  invoke void @_ZN6dealii6VectorIfED2Ev(ptr noundef nonnull align 8 dereferenceable(88) %5)
          to label %86 unwind label %103

86:                                               ; preds = %84
  call void @llvm.lifetime.end.p0(i64 88, ptr nonnull %5) #15
  br label %101

87:                                               ; preds = %16
  %88 = landingpad { ptr, i32 }
          cleanup
  br label %99

89:                                               ; preds = %27, %19
  %90 = landingpad { ptr, i32 }
          cleanup
  br label %93

91:                                               ; preds = %20
  %92 = landingpad { ptr, i32 }
          cleanup
  call void @llvm.lifetime.end.p0(i64 1, ptr nonnull %9) #15
  invoke void @_ZN6dealii6VectorIfED2Ev(ptr noundef nonnull align 8 dereferenceable(88) %8)
          to label %93 unwind label %103

93:                                               ; preds = %91, %89
  %94 = phi { ptr, i32 } [ %90, %89 ], [ %92, %91 ]
  call void @llvm.lifetime.end.p0(i64 88, ptr nonnull %8) #15
  br label %97

95:                                               ; preds = %32, %31, %28
  %96 = landingpad { ptr, i32 }
          cleanup
  invoke void @_ZNSt6vectorIN6dealii6VectorIfEESaIS2_EED2Ev(ptr noundef nonnull align 8 dereferenceable(24) %7)
          to label %97 unwind label %103

97:                                               ; preds = %57, %53, %95, %93
  %98 = phi { ptr, i32 } [ %96, %95 ], [ %94, %93 ], [ %54, %57 ], [ %54, %53 ]
  call void @llvm.lifetime.end.p0(i64 24, ptr nonnull %7) #15
  br label %99

99:                                               ; preds = %97, %87
  %100 = phi { ptr, i32 } [ %98, %97 ], [ %88, %87 ]
  invoke void @_ZNSt6vectorIN6dealii6VectorIfEESaIS2_EED2Ev(ptr noundef nonnull align 8 dereferenceable(24) %4)
          to label %101 unwind label %103

101:                                              ; preds = %99, %86
  %102 = phi { ptr, i32 } [ %100, %99 ], [ %85, %86 ]
  call void @llvm.lifetime.end.p0(i64 24, ptr nonnull %4) #15
  br label %81

103:                                              ; preds = %99, %95, %91, %84
  %104 = landingpad { ptr, i32 }
          catch ptr null
  %105 = extractvalue { ptr, i32 } %104, 0
  call void @__clang_call_terminate(ptr %105) #16
  unreachable
}

declare noundef nonnull align 8 dereferenceable(88) ptr @_ZN6dealii6VectorIfEaSERKS1_(ptr noundef nonnull align 8 dereferenceable(88), ptr noundef nonnull align 8 dereferenceable(88)) local_unnamed_addr #3

; Function Attrs: sspstrong uwtable
define weak_odr dso_local noundef i32 @_ZNK6dealii16SolutionTransferILi3ENS_6VectorIfEENS_10DoFHandlerILi3ELi3EEEE18memory_consumptionEv(ptr noundef nonnull align 8 dereferenceable(120) %0) local_unnamed_addr #0 comdat align 2 {
  %2 = getelementptr inbounds %"class.dealii::SolutionTransfer", ptr %0, i64 0, i32 3
  %3 = getelementptr inbounds %"class.dealii::SolutionTransfer", ptr %0, i64 0, i32 3, i32 0, i32 0, i32 0, i32 1
  %4 = load ptr, ptr %3, align 8, !tbaa !20
  %5 = load ptr, ptr %2, align 8, !tbaa !18
  %6 = ptrtoint ptr %4 to i64
  %7 = ptrtoint ptr %5 to i64
  %8 = sub i64 %6, %7
  %9 = sdiv exact i64 %8, 24
  %10 = and i64 %9, 4294967295
  %11 = icmp eq i64 %10, 0
  br i1 %11, label %125, label %12

12:                                               ; preds = %1
  %13 = icmp ult i64 %10, 4
  br i1 %13, label %94, label %14

14:                                               ; preds = %12
  %15 = and i64 %9, 3
  %16 = sub nsw i64 %10, %15
  br label %17

17:                                               ; preds = %17, %14
  %18 = phi i64 [ 0, %14 ], [ %88, %17 ]
  %19 = phi <2 x i32> [ <i32 24, i32 0>, %14 ], [ %86, %17 ]
  %20 = phi <2 x i32> [ zeroinitializer, %14 ], [ %87, %17 ]
  %21 = or i64 %18, 1
  %22 = or i64 %18, 2
  %23 = or i64 %18, 3
  %24 = getelementptr inbounds %"class.std::vector.39", ptr %5, i64 %18
  %25 = getelementptr inbounds %"class.std::vector.39", ptr %5, i64 %21
  %26 = getelementptr inbounds %"class.std::vector.39", ptr %5, i64 %22
  %27 = getelementptr inbounds %"class.std::vector.39", ptr %5, i64 %23
  %28 = getelementptr inbounds %"struct.std::_Vector_base<unsigned int, std::allocator<unsigned int> >::_Vector_impl_data", ptr %24, i64 0, i32 1
  %29 = getelementptr inbounds %"struct.std::_Vector_base<unsigned int, std::allocator<unsigned int> >::_Vector_impl_data", ptr %25, i64 0, i32 1
  %30 = getelementptr inbounds %"struct.std::_Vector_base<unsigned int, std::allocator<unsigned int> >::_Vector_impl_data", ptr %26, i64 0, i32 1
  %31 = getelementptr inbounds %"struct.std::_Vector_base<unsigned int, std::allocator<unsigned int> >::_Vector_impl_data", ptr %27, i64 0, i32 1
  %32 = load ptr, ptr %28, align 8, !tbaa !79
  %33 = load ptr, ptr %29, align 8, !tbaa !79
  %34 = insertelement <2 x ptr> poison, ptr %32, i64 0
  %35 = insertelement <2 x ptr> %34, ptr %33, i64 1
  %36 = load ptr, ptr %30, align 8, !tbaa !79
  %37 = load ptr, ptr %31, align 8, !tbaa !79
  %38 = insertelement <2 x ptr> poison, ptr %36, i64 0
  %39 = insertelement <2 x ptr> %38, ptr %37, i64 1
  %40 = load ptr, ptr %24, align 8, !tbaa !21
  %41 = load ptr, ptr %25, align 8, !tbaa !21
  %42 = insertelement <2 x ptr> poison, ptr %40, i64 0
  %43 = insertelement <2 x ptr> %42, ptr %41, i64 1
  %44 = load ptr, ptr %26, align 8, !tbaa !21
  %45 = load ptr, ptr %27, align 8, !tbaa !21
  %46 = insertelement <2 x ptr> poison, ptr %44, i64 0
  %47 = insertelement <2 x ptr> %46, ptr %45, i64 1
  %48 = ptrtoint <2 x ptr> %35 to <2 x i64>
  %49 = ptrtoint <2 x ptr> %39 to <2 x i64>
  %50 = ptrtoint <2 x ptr> %43 to <2 x i64>
  %51 = ptrtoint <2 x ptr> %47 to <2 x i64>
  %52 = sub <2 x i64> %48, %50
  %53 = sub <2 x i64> %49, %51
  %54 = ashr exact <2 x i64> %52, <i64 2, i64 2>
  %55 = ashr exact <2 x i64> %53, <i64 2, i64 2>
  %56 = trunc <2 x i64> %54 to <2 x i32>
  %57 = trunc <2 x i64> %55 to <2 x i32>
  %58 = getelementptr inbounds %"struct.std::_Vector_base<unsigned int, std::allocator<unsigned int> >::_Vector_impl_data", ptr %24, i64 0, i32 2
  %59 = getelementptr inbounds %"struct.std::_Vector_base<unsigned int, std::allocator<unsigned int> >::_Vector_impl_data", ptr %25, i64 0, i32 2
  %60 = getelementptr inbounds %"struct.std::_Vector_base<unsigned int, std::allocator<unsigned int> >::_Vector_impl_data", ptr %26, i64 0, i32 2
  %61 = getelementptr inbounds %"struct.std::_Vector_base<unsigned int, std::allocator<unsigned int> >::_Vector_impl_data", ptr %27, i64 0, i32 2
  %62 = load ptr, ptr %58, align 8, !tbaa !119
  %63 = load ptr, ptr %59, align 8, !tbaa !119
  %64 = insertelement <2 x ptr> poison, ptr %62, i64 0
  %65 = insertelement <2 x ptr> %64, ptr %63, i64 1
  %66 = load ptr, ptr %60, align 8, !tbaa !119
  %67 = load ptr, ptr %61, align 8, !tbaa !119
  %68 = insertelement <2 x ptr> poison, ptr %66, i64 0
  %69 = insertelement <2 x ptr> %68, ptr %67, i64 1
  %70 = ptrtoint <2 x ptr> %65 to <2 x i64>
  %71 = ptrtoint <2 x ptr> %69 to <2 x i64>
  %72 = sub <2 x i64> %70, %50
  %73 = sub <2 x i64> %71, %51
  %74 = lshr exact <2 x i64> %72, <i64 2, i64 2>
  %75 = lshr exact <2 x i64> %73, <i64 2, i64 2>
  %76 = sub nsw <2 x i64> %74, %54
  %77 = sub nsw <2 x i64> %75, %55
  %78 = trunc <2 x i64> %76 to <2 x i32>
  %79 = trunc <2 x i64> %77 to <2 x i32>
  %80 = add <2 x i32> %78, %56
  %81 = add <2 x i32> %79, %57
  %82 = shl <2 x i32> %80, <i32 2, i32 2>
  %83 = shl <2 x i32> %81, <i32 2, i32 2>
  %84 = add <2 x i32> %19, <i32 24, i32 24>
  %85 = add <2 x i32> %20, <i32 24, i32 24>
  %86 = add <2 x i32> %84, %82
  %87 = add <2 x i32> %85, %83
  %88 = add nuw i64 %18, 4
  %89 = icmp eq i64 %88, %16
  br i1 %89, label %90, label %17, !llvm.loop !120

90:                                               ; preds = %17
  %91 = add <2 x i32> %87, %86
  %92 = tail call i32 @llvm.vector.reduce.add.v2i32(<2 x i32> %91)
  %93 = icmp eq i64 %15, 0
  br i1 %93, label %122, label %94

94:                                               ; preds = %12, %90
  %95 = phi i64 [ 0, %12 ], [ %16, %90 ]
  %96 = phi i32 [ 24, %12 ], [ %92, %90 ]
  br label %97

97:                                               ; preds = %94, %97
  %98 = phi i64 [ %120, %97 ], [ %95, %94 ]
  %99 = phi i32 [ %119, %97 ], [ %96, %94 ]
  %100 = getelementptr inbounds %"class.std::vector.39", ptr %5, i64 %98
  %101 = getelementptr inbounds %"struct.std::_Vector_base<unsigned int, std::allocator<unsigned int> >::_Vector_impl_data", ptr %100, i64 0, i32 1
  %102 = load ptr, ptr %101, align 8, !tbaa !79
  %103 = load ptr, ptr %100, align 8, !tbaa !21
  %104 = ptrtoint ptr %102 to i64
  %105 = ptrtoint ptr %103 to i64
  %106 = sub i64 %104, %105
  %107 = ashr exact i64 %106, 2
  %108 = trunc i64 %107 to i32
  %109 = getelementptr inbounds %"struct.std::_Vector_base<unsigned int, std::allocator<unsigned int> >::_Vector_impl_data", ptr %100, i64 0, i32 2
  %110 = load ptr, ptr %109, align 8, !tbaa !119
  %111 = ptrtoint ptr %110 to i64
  %112 = sub i64 %111, %105
  %113 = lshr exact i64 %112, 2
  %114 = sub nsw i64 %113, %107
  %115 = trunc i64 %114 to i32
  %116 = add i32 %115, %108
  %117 = shl i32 %116, 2
  %118 = add i32 %99, 24
  %119 = add i32 %118, %117
  %120 = add nuw nsw i64 %98, 1
  %121 = icmp eq i64 %120, %10
  br i1 %121, label %122, label %97, !llvm.loop !123

122:                                              ; preds = %97, %90
  %123 = phi i32 [ %92, %90 ], [ %119, %97 ]
  %124 = add i32 %123, 24
  br label %125

125:                                              ; preds = %122, %1
  %126 = phi i32 [ 48, %1 ], [ %124, %122 ]
  %127 = getelementptr inbounds %"class.dealii::SolutionTransfer", ptr %0, i64 0, i32 3, i32 0, i32 0, i32 0, i32 2
  %128 = load ptr, ptr %127, align 8, !tbaa !66
  %129 = getelementptr inbounds %"class.dealii::SolutionTransfer", ptr %0, i64 0, i32 5
  %130 = getelementptr inbounds %"class.dealii::SolutionTransfer", ptr %0, i64 0, i32 5, i32 0, i32 0, i32 0, i32 1
  %131 = load ptr, ptr %130, align 8, !tbaa !25
  %132 = load ptr, ptr %129, align 8, !tbaa !23
  %133 = ptrtoint ptr %131 to i64
  %134 = ptrtoint ptr %132 to i64
  %135 = sub i64 %133, %134
  %136 = sdiv exact i64 %135, 24
  %137 = and i64 %136, 4294967295
  %138 = icmp eq i64 %137, 0
  br i1 %138, label %183, label %142

139:                                              ; preds = %168
  %140 = load ptr, ptr %129, align 8, !tbaa !23
  %141 = ptrtoint ptr %140 to i64
  br label %183

142:                                              ; preds = %125, %168
  %143 = phi i64 [ %181, %168 ], [ 0, %125 ]
  %144 = phi i32 [ %180, %168 ], [ 24, %125 ]
  %145 = load ptr, ptr %129, align 8, !tbaa !23
  %146 = getelementptr inbounds %"class.std::vector.101", ptr %145, i64 %143
  %147 = getelementptr inbounds %"struct.std::_Vector_base<dealii::Vector<float>, std::allocator<dealii::Vector<float> > >::_Vector_impl_data", ptr %146, i64 0, i32 1
  %148 = load ptr, ptr %147, align 8, !tbaa !28
  %149 = load ptr, ptr %146, align 8, !tbaa !26
  %150 = ptrtoint ptr %148 to i64
  %151 = ptrtoint ptr %149 to i64
  %152 = sub i64 %150, %151
  %153 = sdiv exact i64 %152, 88
  %154 = and i64 %153, 4294967295
  %155 = icmp eq i64 %154, 0
  br i1 %155, label %168, label %159

156:                                              ; preds = %159
  %157 = load ptr, ptr %146, align 8, !tbaa !26
  %158 = ptrtoint ptr %157 to i64
  br label %168

159:                                              ; preds = %142, %159
  %160 = phi i64 [ %166, %159 ], [ 0, %142 ]
  %161 = phi i32 [ %165, %159 ], [ 24, %142 ]
  %162 = load ptr, ptr %146, align 8, !tbaa !26
  %163 = getelementptr inbounds %"class.dealii::Vector", ptr %162, i64 %160
  %164 = tail call noundef i32 @_ZNK6dealii6VectorIfE18memory_consumptionEv(ptr noundef nonnull align 8 dereferenceable(88) %163)
  %165 = add i32 %164, %161
  %166 = add nuw nsw i64 %160, 1
  %167 = icmp eq i64 %166, %154
  br i1 %167, label %156, label %159

168:                                              ; preds = %156, %142
  %169 = phi i64 [ %158, %156 ], [ %151, %142 ]
  %170 = phi i32 [ %165, %156 ], [ 24, %142 ]
  %171 = getelementptr inbounds %"struct.std::_Vector_base<dealii::Vector<float>, std::allocator<dealii::Vector<float> > >::_Vector_impl_data", ptr %146, i64 0, i32 2
  %172 = load ptr, ptr %171, align 8, !tbaa !110
  %173 = ptrtoint ptr %172 to i64
  %174 = sub i64 %173, %169
  %175 = sdiv exact i64 %174, 88
  %176 = sub nsw i64 %175, %153
  %177 = trunc i64 %176 to i32
  %178 = mul i32 %177, 88
  %179 = add i32 %170, %144
  %180 = add i32 %179, %178
  %181 = add nuw nsw i64 %143, 1
  %182 = icmp eq i64 %181, %137
  br i1 %182, label %139, label %142

183:                                              ; preds = %125, %139
  %184 = phi i64 [ %141, %139 ], [ %134, %125 ]
  %185 = phi i32 [ %180, %139 ], [ 24, %125 ]
  %186 = ptrtoint ptr %128 to i64
  %187 = sub i64 %186, %7
  %188 = sdiv exact i64 %187, 24
  %189 = sub nsw i64 %188, %9
  %190 = trunc i64 %189 to i32
  %191 = getelementptr inbounds %"class.dealii::SolutionTransfer", ptr %0, i64 0, i32 5, i32 0, i32 0, i32 0, i32 2
  %192 = load ptr, ptr %191, align 8, !tbaa !101
  %193 = ptrtoint ptr %192 to i64
  %194 = sub i64 %193, %184
  %195 = sdiv exact i64 %194, 24
  %196 = sub nsw i64 %195, %136
  %197 = trunc i64 %196 to i32
  %198 = add i32 %197, %190
  %199 = mul i32 %198, 24
  %200 = add i32 %126, %185
  %201 = add i32 %200, %199
  ret i32 %201
}

; Function Attrs: sspstrong uwtable
define weak_odr dso_local void @_ZN6dealii16SolutionTransferILi3ENS_6VectorIfEENS_10DoFHandlerILi3ELi3EEEE18ExcWrongVectorSizeC2Eii(ptr noundef nonnull align 8 dereferenceable(68) %0, i32 noundef %1, i32 noundef %2) unnamed_addr #0 comdat($_ZN6dealii16SolutionTransferILi3ENS_6VectorIfEENS_10DoFHandlerILi3ELi3EEEE18ExcWrongVectorSizeC5Eii) align 2 {
  tail call void @_ZN6dealii13ExceptionBaseC2Ev(ptr noundef nonnull align 8 dereferenceable(60) %0)
  store ptr getelementptr inbounds ({ [6 x ptr] }, ptr @_ZTVN6dealii16SolutionTransferILi3ENS_6VectorIfEENS_10DoFHandlerILi3ELi3EEEE18ExcWrongVectorSizeE, i64 0, inrange i32 0, i64 2), ptr %0, align 8, !tbaa !29
  %4 = getelementptr inbounds %"class.dealii::SolutionTransfer<3, dealii::Vector<float> >::ExcWrongVectorSize", ptr %0, i64 0, i32 1
  store i32 %1, ptr %4, align 4, !tbaa !124
  %5 = getelementptr inbounds %"class.dealii::SolutionTransfer<3, dealii::Vector<float> >::ExcWrongVectorSize", ptr %0, i64 0, i32 2
  store i32 %2, ptr %5, align 8, !tbaa !128
  ret void
}

declare void @_ZN6dealii13ExceptionBaseC2Ev(ptr noundef nonnull align 8 dereferenceable(60)) unnamed_addr #3

; Function Attrs: nounwind sspstrong uwtable
define weak_odr dso_local void @_ZN6dealii16SolutionTransferILi3ENS_6VectorIfEENS_10DoFHandlerILi3ELi3EEEE18ExcWrongVectorSizeD2Ev(ptr noundef nonnull align 8 dereferenceable(68) %0) unnamed_addr #6 comdat($_ZN6dealii16SolutionTransferILi3ENS_6VectorIfEENS_10DoFHandlerILi3ELi3EEEE18ExcWrongVectorSizeD5Ev) align 2 {
  tail call void @_ZN6dealii13ExceptionBaseD2Ev(ptr noundef nonnull align 8 dereferenceable(60) %0) #15
  ret void
}

; Function Attrs: nounwind sspstrong uwtable
define weak_odr dso_local void @_ZN6dealii16SolutionTransferILi3ENS_6VectorIfEENS_10DoFHandlerILi3ELi3EEEE18ExcWrongVectorSizeD0Ev(ptr noundef nonnull align 8 dereferenceable(68) %0) unnamed_addr #6 comdat($_ZN6dealii16SolutionTransferILi3ENS_6VectorIfEENS_10DoFHandlerILi3ELi3EEEE18ExcWrongVectorSizeD5Ev) align 2 {
  tail call void @_ZN6dealii13ExceptionBaseD2Ev(ptr noundef nonnull align 8 dereferenceable(60) %0) #15
  tail call void @_ZdlPv(ptr noundef nonnull %0) #17
  ret void
}

; Function Attrs: nobuiltin nounwind
declare void @_ZdlPv(ptr noundef) local_unnamed_addr #7

; Function Attrs: sspstrong uwtable
define weak_odr dso_local void @_ZNK6dealii16SolutionTransferILi3ENS_6VectorIfEENS_10DoFHandlerILi3ELi3EEEE18ExcWrongVectorSize10print_infoERSo(ptr noundef nonnull align 8 dereferenceable(68) %0, ptr noundef nonnull align 8 dereferenceable(8) %1) unnamed_addr #0 comdat align 2 {
  %3 = tail call noundef nonnull align 8 dereferenceable(8) ptr @_ZSt16__ostream_insertIcSt11char_traitsIcEERSt13basic_ostreamIT_T0_ES6_PKS3_l(ptr noundef nonnull align 8 dereferenceable(8) %1, ptr noundef nonnull @.str, i64 noundef 26)
  %4 = getelementptr inbounds %"class.dealii::SolutionTransfer<3, dealii::Vector<float> >::ExcWrongVectorSize", ptr %0, i64 0, i32 1
  %5 = load i32, ptr %4, align 4, !tbaa !124
  %6 = tail call noundef nonnull align 8 dereferenceable(8) ptr @_ZNSolsEi(ptr noundef nonnull align 8 dereferenceable(8) %1, i32 noundef %5)
  %7 = tail call noundef nonnull align 8 dereferenceable(8) ptr @_ZSt16__ostream_insertIcSt11char_traitsIcEERSt13basic_ostreamIT_T0_ES6_PKS3_l(ptr noundef nonnull align 8 dereferenceable(8) %6, ptr noundef nonnull @.str.9, i64 noundef 23)
  %8 = getelementptr inbounds %"class.dealii::SolutionTransfer<3, dealii::Vector<float> >::ExcWrongVectorSize", ptr %0, i64 0, i32 2
  %9 = load i32, ptr %8, align 8, !tbaa !128
  %10 = tail call noundef nonnull align 8 dereferenceable(8) ptr @_ZNSolsEi(ptr noundef nonnull align 8 dereferenceable(8) %6, i32 noundef %9)
  %11 = tail call noundef nonnull align 8 dereferenceable(8) ptr @_ZSt16__ostream_insertIcSt11char_traitsIcEERSt13basic_ostreamIT_T0_ES6_PKS3_l(ptr noundef nonnull align 8 dereferenceable(8) %10, ptr noundef nonnull @.str.10, i64 noundef 1)
  %12 = load ptr, ptr %10, align 8, !tbaa !29
  %13 = getelementptr i8, ptr %12, i64 -24
  %14 = load i64, ptr %13, align 8
  %15 = getelementptr inbounds i8, ptr %10, i64 %14
  %16 = getelementptr inbounds %"class.std::basic_ios", ptr %15, i64 0, i32 5
  %17 = load ptr, ptr %16, align 8, !tbaa !129
  %18 = icmp eq ptr %17, null
  br i1 %18, label %19, label %20

19:                                               ; preds = %2
  tail call void @_ZSt16__throw_bad_castv() #19
  unreachable

20:                                               ; preds = %2
  %21 = getelementptr inbounds %"class.std::ctype", ptr %17, i64 0, i32 8
  %22 = load i8, ptr %21, align 8, !tbaa !137
  %23 = icmp eq i8 %22, 0
  br i1 %23, label %27, label %24

24:                                               ; preds = %20
  %25 = getelementptr inbounds %"class.std::ctype", ptr %17, i64 0, i32 9, i64 10
  %26 = load i8, ptr %25, align 1, !tbaa !140
  br label %32

27:                                               ; preds = %20
  tail call void @_ZNKSt5ctypeIcE13_M_widen_initEv(ptr noundef nonnull align 8 dereferenceable(570) %17)
  %28 = load ptr, ptr %17, align 8, !tbaa !29
  %29 = getelementptr inbounds ptr, ptr %28, i64 6
  %30 = load ptr, ptr %29, align 8
  %31 = tail call noundef signext i8 %30(ptr noundef nonnull align 8 dereferenceable(570) %17, i8 noundef signext 10)
  br label %32

32:                                               ; preds = %24, %27
  %33 = phi i8 [ %26, %24 ], [ %31, %27 ]
  %34 = tail call noundef nonnull align 8 dereferenceable(8) ptr @_ZNSo3putEc(ptr noundef nonnull align 8 dereferenceable(8) %10, i8 noundef signext %33)
  %35 = tail call noundef nonnull align 8 dereferenceable(8) ptr @_ZNSo5flushEv(ptr noundef nonnull align 8 dereferenceable(8) %34)
  ret void
}

declare noundef nonnull align 8 dereferenceable(8) ptr @_ZNSolsEi(ptr noundef nonnull align 8 dereferenceable(8), i32 noundef) local_unnamed_addr #3

; Function Attrs: nounwind sspstrong uwtable
define weak_odr dso_local void @_ZN6dealii16SolutionTransferILi3ENS_6VectorIfEENS_10DoFHandlerILi3ELi3EEEE13PointerstructC2Ev(ptr noundef nonnull align 8 dereferenceable(16) %0) unnamed_addr #6 comdat($_ZN6dealii16SolutionTransferILi3ENS_6VectorIfEENS_10DoFHandlerILi3ELi3EEEE13PointerstructC5Ev) align 2 {
  tail call void @llvm.memset.p0.i64(ptr noundef nonnull align 8 dereferenceable(16) %0, i8 0, i64 16, i1 false)
  ret void
}

; Function Attrs: nounwind sspstrong uwtable
define weak_odr dso_local noundef i32 @_ZNK6dealii16SolutionTransferILi3ENS_6VectorIfEENS_10DoFHandlerILi3ELi3EEEE13Pointerstruct18memory_consumptionEv(ptr noundef nonnull align 8 dereferenceable(16) %0) local_unnamed_addr #6 comdat align 2 {
  ret i32 16
}

; Function Attrs: sspstrong uwtable
define weak_odr dso_local void @_ZN6dealii16SolutionTransferILi3ENS_6VectorIdEENS_10DoFHandlerILi3ELi3EEEEC2ERKS4_(ptr noundef nonnull align 8 dereferenceable(120) %0, ptr noundef nonnull align 8 dereferenceable(168) %1) unnamed_addr #0 comdat($_ZN6dealii16SolutionTransferILi3ENS_6VectorIdEENS_10DoFHandlerILi3ELi3EEEEC5ERKS4_) align 2 personality ptr @__gxx_personality_v0 {
  store ptr %1, ptr %0, align 8, !tbaa !5
  %3 = getelementptr inbounds %"class.dealii::SmartPointer", ptr %0, i64 0, i32 1
  %4 = getelementptr inbounds %"class.dealii::SolutionTransfer.108", ptr %0, i64 0, i32 4, i32 0, i32 0, i32 1
  store i32 0, ptr %4, align 8, !tbaa !10
  %5 = getelementptr inbounds %"class.dealii::SolutionTransfer.108", ptr %0, i64 0, i32 4, i32 0, i32 0, i32 1, i32 0, i32 1
  store ptr null, ptr %5, align 8, !tbaa !15
  %6 = getelementptr inbounds %"class.dealii::SolutionTransfer.108", ptr %0, i64 0, i32 4, i32 0, i32 0, i32 1, i32 0, i32 2
  tail call void @llvm.memset.p0.i64(ptr noundef nonnull align 8 dereferenceable(40) %3, i8 0, i64 40, i1 false)
  store ptr %4, ptr %6, align 8, !tbaa !16
  %7 = getelementptr inbounds %"class.dealii::SolutionTransfer.108", ptr %0, i64 0, i32 4, i32 0, i32 0, i32 1, i32 0, i32 3
  store ptr %4, ptr %7, align 8, !tbaa !17
  %8 = getelementptr inbounds %"class.dealii::SolutionTransfer.108", ptr %0, i64 0, i32 4, i32 0, i32 0, i32 1, i32 1
  tail call void @llvm.memset.p0.i64(ptr noundef nonnull align 8 dereferenceable(32) %8, i8 0, i64 32, i1 false)
  ret void
}

; Function Attrs: sspstrong uwtable
define weak_odr dso_local void @_ZN6dealii16SolutionTransferILi3ENS_6VectorIdEENS_10DoFHandlerILi3ELi3EEEED2Ev(ptr noundef nonnull align 8 dereferenceable(120) %0) unnamed_addr #0 comdat($_ZN6dealii16SolutionTransferILi3ENS_6VectorIdEENS_10DoFHandlerILi3ELi3EEEED5Ev) align 2 personality ptr @__gxx_personality_v0 {
  invoke void @_ZN6dealii16SolutionTransferILi3ENS_6VectorIdEENS_10DoFHandlerILi3ELi3EEEE5clearEv(ptr noundef nonnull align 8 dereferenceable(120) %0)
          to label %2 unwind label %29

2:                                                ; preds = %1
  %3 = getelementptr inbounds %"class.dealii::SolutionTransfer.108", ptr %0, i64 0, i32 5
  invoke void @_ZNSt6vectorIS_IN6dealii6VectorIdEESaIS2_EESaIS4_EED2Ev(ptr noundef nonnull align 8 dereferenceable(24) %3)
          to label %4 unwind label %32

4:                                                ; preds = %2
  %5 = getelementptr inbounds %"class.dealii::SolutionTransfer.108", ptr %0, i64 0, i32 4
  %6 = getelementptr inbounds %"class.dealii::SolutionTransfer.108", ptr %0, i64 0, i32 4, i32 0, i32 0, i32 1, i32 0, i32 1
  %7 = load ptr, ptr %6, align 8, !tbaa !15
  invoke void @_ZNSt8_Rb_treeISt4pairIjjES0_IKS1_N6dealii16SolutionTransferILi3ENS3_6VectorIdEENS3_10DoFHandlerILi3ELi3EEEE13PointerstructEESt10_Select1stISB_ESt4lessIS1_ESaISB_EE8_M_eraseEPSt13_Rb_tree_nodeISB_E(ptr noundef nonnull align 8 dereferenceable(48) %5, ptr noundef %7)
          to label %8 unwind label %34

8:                                                ; preds = %4
  %9 = getelementptr inbounds %"class.dealii::SolutionTransfer.108", ptr %0, i64 0, i32 3
  %10 = load ptr, ptr %9, align 8, !tbaa !18
  %11 = getelementptr inbounds %"class.dealii::SolutionTransfer.108", ptr %0, i64 0, i32 3, i32 0, i32 0, i32 0, i32 1
  %12 = load ptr, ptr %11, align 8, !tbaa !20
  %13 = icmp eq ptr %10, %12
  br i1 %13, label %24, label %14

14:                                               ; preds = %8, %19
  %15 = phi ptr [ %20, %19 ], [ %10, %8 ]
  %16 = load ptr, ptr %15, align 8, !tbaa !21
  %17 = icmp eq ptr %16, null
  br i1 %17, label %19, label %18

18:                                               ; preds = %14
  tail call void @_ZdlPv(ptr noundef nonnull %16) #17
  br label %19

19:                                               ; preds = %18, %14
  %20 = getelementptr inbounds %"class.std::vector.39", ptr %15, i64 1
  %21 = icmp eq ptr %20, %12
  br i1 %21, label %22, label %14

22:                                               ; preds = %19
  %23 = load ptr, ptr %9, align 8, !tbaa !18
  br label %24

24:                                               ; preds = %22, %8
  %25 = phi ptr [ %23, %22 ], [ %10, %8 ]
  %26 = icmp eq ptr %25, null
  br i1 %26, label %28, label %27

27:                                               ; preds = %24
  tail call void @_ZdlPv(ptr noundef nonnull %25) #17
  br label %28

28:                                               ; preds = %27, %24
  ret void

29:                                               ; preds = %1
  %30 = landingpad { ptr, i32 }
          cleanup
  %31 = getelementptr inbounds %"class.dealii::SolutionTransfer.108", ptr %0, i64 0, i32 5
  invoke void @_ZNSt6vectorIS_IN6dealii6VectorIdEESaIS2_EESaIS4_EED2Ev(ptr noundef nonnull align 8 dereferenceable(24) %31)
          to label %36 unwind label %45

32:                                               ; preds = %2
  %33 = landingpad { ptr, i32 }
          cleanup
  br label %36

34:                                               ; preds = %4
  %35 = landingpad { ptr, i32 }
          cleanup
  br label %41

36:                                               ; preds = %29, %32
  %37 = phi { ptr, i32 } [ %33, %32 ], [ %30, %29 ]
  %38 = getelementptr inbounds %"class.dealii::SolutionTransfer.108", ptr %0, i64 0, i32 4
  %39 = getelementptr inbounds %"class.dealii::SolutionTransfer.108", ptr %0, i64 0, i32 4, i32 0, i32 0, i32 1, i32 0, i32 1
  %40 = load ptr, ptr %39, align 8, !tbaa !15
  invoke void @_ZNSt8_Rb_treeISt4pairIjjES0_IKS1_N6dealii16SolutionTransferILi3ENS3_6VectorIdEENS3_10DoFHandlerILi3ELi3EEEE13PointerstructEESt10_Select1stISB_ESt4lessIS1_ESaISB_EE8_M_eraseEPSt13_Rb_tree_nodeISB_E(ptr noundef nonnull align 8 dereferenceable(48) %38, ptr noundef %40)
          to label %41 unwind label %45

41:                                               ; preds = %36, %34
  %42 = phi { ptr, i32 } [ %35, %34 ], [ %37, %36 ]
  %43 = getelementptr inbounds %"class.dealii::SolutionTransfer.108", ptr %0, i64 0, i32 3
  invoke void @_ZNSt6vectorIS_IjSaIjEESaIS1_EED2Ev(ptr noundef nonnull align 8 dereferenceable(24) %43)
          to label %44 unwind label %45

44:                                               ; preds = %41
  resume { ptr, i32 } %42

45:                                               ; preds = %36, %41, %29
  %46 = landingpad { ptr, i32 }
          catch ptr null
  %47 = extractvalue { ptr, i32 } %46, 0
  tail call void @__clang_call_terminate(ptr %47) #16
  unreachable
}

; Function Attrs: sspstrong uwtable
define weak_odr dso_local void @_ZN6dealii16SolutionTransferILi3ENS_6VectorIdEENS_10DoFHandlerILi3ELi3EEEE5clearEv(ptr noundef nonnull align 8 dereferenceable(120) %0) local_unnamed_addr #0 comdat align 2 personality ptr @__gxx_personality_v0 {
  %2 = getelementptr inbounds %"class.dealii::SolutionTransfer.108", ptr %0, i64 0, i32 3
  %3 = load ptr, ptr %2, align 8, !tbaa !18
  %4 = getelementptr inbounds %"class.dealii::SolutionTransfer.108", ptr %0, i64 0, i32 3, i32 0, i32 0, i32 0, i32 1
  %5 = load ptr, ptr %4, align 8, !tbaa !20
  %6 = icmp eq ptr %5, %3
  br i1 %6, label %16, label %7

7:                                                ; preds = %1, %12
  %8 = phi ptr [ %13, %12 ], [ %3, %1 ]
  %9 = load ptr, ptr %8, align 8, !tbaa !21
  %10 = icmp eq ptr %9, null
  br i1 %10, label %12, label %11

11:                                               ; preds = %7
  tail call void @_ZdlPv(ptr noundef nonnull %9) #17
  br label %12

12:                                               ; preds = %11, %7
  %13 = getelementptr inbounds %"class.std::vector.39", ptr %8, i64 1
  %14 = icmp eq ptr %13, %5
  br i1 %14, label %15, label %7

15:                                               ; preds = %12
  store ptr %3, ptr %4, align 8, !tbaa !20
  br label %16

16:                                               ; preds = %1, %15
  %17 = getelementptr inbounds %"class.dealii::SolutionTransfer.108", ptr %0, i64 0, i32 5
  %18 = load ptr, ptr %17, align 8, !tbaa !141
  %19 = getelementptr inbounds %"class.dealii::SolutionTransfer.108", ptr %0, i64 0, i32 5, i32 0, i32 0, i32 0, i32 1
  %20 = load ptr, ptr %19, align 8, !tbaa !143
  %21 = icmp eq ptr %20, %18
  br i1 %21, label %51, label %22

22:                                               ; preds = %16, %47
  %23 = phi ptr [ %48, %47 ], [ %18, %16 ]
  %24 = load ptr, ptr %23, align 8, !tbaa !144
  %25 = getelementptr inbounds %"struct.std::_Vector_base<dealii::Vector<double>, std::allocator<dealii::Vector<double> > >::_Vector_impl_data", ptr %23, i64 0, i32 1
  %26 = load ptr, ptr %25, align 8, !tbaa !146
  %27 = icmp eq ptr %24, %26
  br i1 %27, label %37, label %28

28:                                               ; preds = %22, %32
  %29 = phi ptr [ %33, %32 ], [ %24, %22 ]
  %30 = load ptr, ptr %29, align 8, !tbaa !29
  %31 = load ptr, ptr %30, align 8
  invoke void %31(ptr noundef nonnull align 8 dereferenceable(88) %29)
          to label %32 unwind label %41

32:                                               ; preds = %28
  %33 = getelementptr inbounds %"class.dealii::Vector.124", ptr %29, i64 1
  %34 = icmp eq ptr %33, %26
  br i1 %34, label %35, label %28

35:                                               ; preds = %32
  %36 = load ptr, ptr %23, align 8, !tbaa !144
  br label %37

37:                                               ; preds = %35, %22
  %38 = phi ptr [ %36, %35 ], [ %24, %22 ]
  %39 = icmp eq ptr %38, null
  br i1 %39, label %47, label %40

40:                                               ; preds = %37
  tail call void @_ZdlPv(ptr noundef nonnull %38) #17
  br label %47

41:                                               ; preds = %28
  %42 = landingpad { ptr, i32 }
          cleanup
  %43 = load ptr, ptr %23, align 8, !tbaa !144
  %44 = icmp eq ptr %43, null
  br i1 %44, label %46, label %45

45:                                               ; preds = %41
  tail call void @_ZdlPv(ptr noundef nonnull %43) #17
  br label %46

46:                                               ; preds = %45, %41
  resume { ptr, i32 } %42

47:                                               ; preds = %40, %37
  %48 = getelementptr inbounds %"class.std::vector.119", ptr %23, i64 1
  %49 = icmp eq ptr %48, %20
  br i1 %49, label %50, label %22

50:                                               ; preds = %47
  store ptr %18, ptr %19, align 8, !tbaa !143
  br label %51

51:                                               ; preds = %16, %50
  %52 = getelementptr inbounds %"class.dealii::SolutionTransfer.108", ptr %0, i64 0, i32 4
  %53 = getelementptr inbounds %"class.dealii::SolutionTransfer.108", ptr %0, i64 0, i32 4, i32 0, i32 0, i32 1, i32 0, i32 1
  %54 = load ptr, ptr %53, align 8, !tbaa !15
  tail call void @_ZNSt8_Rb_treeISt4pairIjjES0_IKS1_N6dealii16SolutionTransferILi3ENS3_6VectorIdEENS3_10DoFHandlerILi3ELi3EEEE13PointerstructEESt10_Select1stISB_ESt4lessIS1_ESaISB_EE8_M_eraseEPSt13_Rb_tree_nodeISB_E(ptr noundef nonnull align 8 dereferenceable(48) %52, ptr noundef %54)
  %55 = getelementptr inbounds %"class.dealii::SolutionTransfer.108", ptr %0, i64 0, i32 4, i32 0, i32 0, i32 1
  store ptr null, ptr %53, align 8, !tbaa !15
  %56 = getelementptr inbounds %"class.dealii::SolutionTransfer.108", ptr %0, i64 0, i32 4, i32 0, i32 0, i32 1, i32 0, i32 2
  store ptr %55, ptr %56, align 8, !tbaa !16
  %57 = getelementptr inbounds %"class.dealii::SolutionTransfer.108", ptr %0, i64 0, i32 4, i32 0, i32 0, i32 1, i32 0, i32 3
  store ptr %55, ptr %57, align 8, !tbaa !17
  %58 = getelementptr inbounds %"class.dealii::SolutionTransfer.108", ptr %0, i64 0, i32 4, i32 0, i32 0, i32 1, i32 1
  store i64 0, ptr %58, align 8, !tbaa !31
  %59 = getelementptr inbounds %"class.dealii::SolutionTransfer.108", ptr %0, i64 0, i32 2
  store i32 0, ptr %59, align 4, !tbaa !147
  ret void
}

; Function Attrs: sspstrong uwtable
define linkonce_odr dso_local void @_ZNSt6vectorIS_IN6dealii6VectorIdEESaIS2_EESaIS4_EED2Ev(ptr noundef nonnull align 8 dereferenceable(24) %0) unnamed_addr #0 comdat align 2 personality ptr @__gxx_personality_v0 {
  %2 = load ptr, ptr %0, align 8, !tbaa !141
  %3 = getelementptr inbounds %"struct.std::_Vector_base<std::vector<dealii::Vector<double> >, std::allocator<std::vector<dealii::Vector<double> > > >::_Vector_impl_data", ptr %0, i64 0, i32 1
  %4 = load ptr, ptr %3, align 8, !tbaa !143
  %5 = icmp eq ptr %2, %4
  br i1 %5, label %35, label %6

6:                                                ; preds = %1, %30
  %7 = phi ptr [ %31, %30 ], [ %2, %1 ]
  %8 = load ptr, ptr %7, align 8, !tbaa !144
  %9 = getelementptr inbounds %"struct.std::_Vector_base<dealii::Vector<double>, std::allocator<dealii::Vector<double> > >::_Vector_impl_data", ptr %7, i64 0, i32 1
  %10 = load ptr, ptr %9, align 8, !tbaa !146
  %11 = icmp eq ptr %8, %10
  br i1 %11, label %21, label %12

12:                                               ; preds = %6, %16
  %13 = phi ptr [ %17, %16 ], [ %8, %6 ]
  %14 = load ptr, ptr %13, align 8, !tbaa !29
  %15 = load ptr, ptr %14, align 8
  invoke void %15(ptr noundef nonnull align 8 dereferenceable(88) %13)
          to label %16 unwind label %25

16:                                               ; preds = %12
  %17 = getelementptr inbounds %"class.dealii::Vector.124", ptr %13, i64 1
  %18 = icmp eq ptr %17, %10
  br i1 %18, label %19, label %12

19:                                               ; preds = %16
  %20 = load ptr, ptr %7, align 8, !tbaa !144
  br label %21

21:                                               ; preds = %19, %6
  %22 = phi ptr [ %20, %19 ], [ %8, %6 ]
  %23 = icmp eq ptr %22, null
  br i1 %23, label %30, label %24

24:                                               ; preds = %21
  tail call void @_ZdlPv(ptr noundef nonnull %22) #17
  br label %30

25:                                               ; preds = %12
  %26 = landingpad { ptr, i32 }
          cleanup
  %27 = load ptr, ptr %7, align 8, !tbaa !144
  %28 = icmp eq ptr %27, null
  br i1 %28, label %40, label %29

29:                                               ; preds = %25
  tail call void @_ZdlPv(ptr noundef nonnull %27) #17
  br label %40

30:                                               ; preds = %24, %21
  %31 = getelementptr inbounds %"class.std::vector.119", ptr %7, i64 1
  %32 = icmp eq ptr %31, %4
  br i1 %32, label %33, label %6

33:                                               ; preds = %30
  %34 = load ptr, ptr %0, align 8, !tbaa !141
  br label %35

35:                                               ; preds = %33, %1
  %36 = phi ptr [ %34, %33 ], [ %2, %1 ]
  %37 = icmp eq ptr %36, null
  br i1 %37, label %39, label %38

38:                                               ; preds = %35
  tail call void @_ZdlPv(ptr noundef nonnull %36) #17
  br label %39

39:                                               ; preds = %35, %38
  ret void

40:                                               ; preds = %25, %29
  %41 = load ptr, ptr %0, align 8, !tbaa !141
  %42 = icmp eq ptr %41, null
  br i1 %42, label %44, label %43

43:                                               ; preds = %40
  tail call void @_ZdlPv(ptr noundef nonnull %41) #17
  br label %44

44:                                               ; preds = %43, %40
  resume { ptr, i32 } %26
}

; Function Attrs: sspstrong uwtable
define weak_odr dso_local void @_ZN6dealii16SolutionTransferILi3ENS_6VectorIdEENS_10DoFHandlerILi3ELi3EEEE27prepare_for_pure_refinementEv(ptr noundef nonnull align 8 dereferenceable(120) %0) local_unnamed_addr #0 comdat align 2 personality ptr @__gxx_personality_v0 {
  %2 = alloca i32, align 4
  %3 = alloca %"class.std::vector.39", align 8
  %4 = alloca %"class.dealii::TriaActiveIterator", align 8
  %5 = alloca %"class.dealii::TriaRawIterator", align 8
  %6 = alloca %"struct.std::pair", align 4
  tail call void @_ZN6dealii16SolutionTransferILi3ENS_6VectorIdEENS_10DoFHandlerILi3ELi3EEEE5clearEv(ptr noundef nonnull align 8 dereferenceable(120) %0)
  %7 = load ptr, ptr %0, align 8, !tbaa !5
  %8 = getelementptr inbounds %"class.dealii::DoFHandler", ptr %7, i64 0, i32 1
  %9 = load ptr, ptr %8, align 8, !tbaa !47
  %10 = tail call noundef i32 @_ZNK6dealii13TriangulationILi3ELi3EE14n_active_cellsEv(ptr noundef nonnull align 8 dereferenceable(8552) %9)
  %11 = load ptr, ptr %0, align 8, !tbaa !5
  %12 = getelementptr inbounds %"class.dealii::DoFHandler", ptr %11, i64 0, i32 5
  %13 = load i32, ptr %12, align 8, !tbaa !49
  %14 = getelementptr inbounds %"class.dealii::SolutionTransfer.108", ptr %0, i64 0, i32 1
  store i32 %13, ptr %14, align 8, !tbaa !156
  %15 = zext i32 %10 to i64
  call void @llvm.lifetime.start.p0(i64 24, ptr nonnull %3) #15
  call void @llvm.memset.p0.i64(ptr noundef nonnull align 8 dereferenceable(24) %3, i8 0, i64 24, i1 false)
  %16 = icmp eq i32 %10, 0
  br i1 %16, label %20, label %17

17:                                               ; preds = %1
  %18 = mul nuw nsw i64 %15, 24
  %19 = invoke noalias noundef nonnull ptr @_Znwm(i64 noundef %18) #18
          to label %20 unwind label %69

20:                                               ; preds = %17, %1
  %21 = phi ptr [ null, %1 ], [ %19, %17 ]
  %22 = invoke noundef ptr @_ZSt18__do_uninit_fill_nIPSt6vectorIjSaIjEEmS2_ET_S4_T0_RKT1_(ptr noundef %21, i64 noundef %15, ptr noundef nonnull align 8 dereferenceable(24) %3)
          to label %27 unwind label %23

23:                                               ; preds = %20
  %24 = landingpad { ptr, i32 }
          cleanup
  %25 = icmp eq ptr %21, null
  br i1 %25, label %71, label %26

26:                                               ; preds = %23
  call void @_ZdlPv(ptr noundef nonnull %21) #17
  br label %71

27:                                               ; preds = %20
  %28 = getelementptr inbounds %"class.std::vector.39", ptr %21, i64 %15
  %29 = getelementptr inbounds %"class.dealii::SolutionTransfer.108", ptr %0, i64 0, i32 3
  %30 = load ptr, ptr %29, align 8, !tbaa !18
  %31 = getelementptr inbounds %"class.dealii::SolutionTransfer.108", ptr %0, i64 0, i32 3, i32 0, i32 0, i32 0, i32 1
  %32 = load ptr, ptr %31, align 8, !tbaa !20
  %33 = getelementptr inbounds %"class.dealii::SolutionTransfer.108", ptr %0, i64 0, i32 3, i32 0, i32 0, i32 0, i32 2
  store ptr %21, ptr %29, align 8, !tbaa !18
  store ptr %22, ptr %31, align 8, !tbaa !20
  store ptr %28, ptr %33, align 8, !tbaa !66
  %34 = icmp eq ptr %30, %32
  br i1 %34, label %43, label %35

35:                                               ; preds = %27, %40
  %36 = phi ptr [ %41, %40 ], [ %30, %27 ]
  %37 = load ptr, ptr %36, align 8, !tbaa !21
  %38 = icmp eq ptr %37, null
  br i1 %38, label %40, label %39

39:                                               ; preds = %35
  call void @_ZdlPv(ptr noundef nonnull %37) #17
  br label %40

40:                                               ; preds = %39, %35
  %41 = getelementptr inbounds %"class.std::vector.39", ptr %36, i64 1
  %42 = icmp eq ptr %41, %32
  br i1 %42, label %43, label %35

43:                                               ; preds = %40, %27
  %44 = icmp eq ptr %30, null
  br i1 %44, label %46, label %45

45:                                               ; preds = %43
  call void @_ZdlPv(ptr noundef nonnull %30) #17
  br label %46

46:                                               ; preds = %45, %43
  %47 = load ptr, ptr %3, align 8, !tbaa !21
  %48 = icmp eq ptr %47, null
  br i1 %48, label %50, label %49

49:                                               ; preds = %46
  call void @_ZdlPv(ptr noundef nonnull %47) #17
  br label %50

50:                                               ; preds = %46, %49
  call void @llvm.lifetime.end.p0(i64 24, ptr nonnull %3) #15
  call void @llvm.lifetime.start.p0(i64 24, ptr nonnull %4) #15
  %51 = load ptr, ptr %0, align 8, !tbaa !5
  call void @_ZNK6dealii10DoFHandlerILi3ELi3EE12begin_activeEj(ptr nonnull sret(%"class.dealii::TriaActiveIterator") align 8 %4, ptr noundef nonnull align 8 dereferenceable(168) %51, i32 noundef 0)
  call void @llvm.lifetime.start.p0(i64 24, ptr nonnull %5) #15
  %52 = load ptr, ptr %0, align 8, !tbaa !5
  call void @_ZNK6dealii10DoFHandlerILi3ELi3EE3endEv(ptr nonnull sret(%"class.dealii::TriaRawIterator") align 8 %5, ptr noundef nonnull align 8 dereferenceable(168) %52)
  %53 = load i32, ptr %5, align 8
  %54 = getelementptr inbounds i8, ptr %5, i64 4
  %55 = load i32, ptr %54, align 4
  call void @llvm.lifetime.end.p0(i64 24, ptr nonnull %5) #15
  %56 = getelementptr inbounds %"class.dealii::TriaAccessorBase", ptr %4, i64 0, i32 1
  %57 = load i32, ptr %56, align 4, !tbaa !67
  %58 = icmp ne i32 %57, %55
  %59 = load i32, ptr %4, align 8
  %60 = icmp ne i32 %59, %53
  %61 = select i1 %58, i1 true, i1 %60
  br i1 %61, label %62, label %67

62:                                               ; preds = %50
  %63 = getelementptr inbounds %"class.dealii::DoFAccessor", ptr %4, i64 0, i32 1
  %64 = getelementptr inbounds %"class.dealii::SolutionTransfer.108", ptr %0, i64 0, i32 4
  %65 = getelementptr inbounds %"struct.std::pair", ptr %6, i64 0, i32 1
  %66 = getelementptr inbounds %"class.dealii::TriaAccessorBase", ptr %4, i64 0, i32 2
  br label %77

67:                                               ; preds = %261, %50
  %68 = getelementptr inbounds %"class.dealii::SolutionTransfer.108", ptr %0, i64 0, i32 2
  store i32 1, ptr %68, align 4, !tbaa !147
  call void @llvm.lifetime.end.p0(i64 24, ptr nonnull %4) #15
  ret void

69:                                               ; preds = %17
  %70 = landingpad { ptr, i32 }
          cleanup
  br label %71

71:                                               ; preds = %69, %26, %23
  %72 = phi { ptr, i32 } [ %70, %69 ], [ %24, %26 ], [ %24, %23 ]
  %73 = load ptr, ptr %3, align 8, !tbaa !21
  %74 = icmp eq ptr %73, null
  br i1 %74, label %76, label %75

75:                                               ; preds = %71
  call void @_ZdlPv(ptr noundef nonnull %73) #17
  br label %76

76:                                               ; preds = %75, %71
  call void @llvm.lifetime.end.p0(i64 24, ptr nonnull %3) #15
  resume { ptr, i32 } %72

77:                                               ; preds = %62, %261
  %78 = phi i32 [ %57, %62 ], [ %226, %261 ]
  %79 = phi i32 [ 0, %62 ], [ %262, %261 ]
  %80 = zext i32 %79 to i64
  %81 = load ptr, ptr %29, align 8, !tbaa !18
  %82 = getelementptr inbounds %"class.std::vector.39", ptr %81, i64 %80
  %83 = load ptr, ptr %63, align 8, !tbaa !69
  %84 = getelementptr inbounds %"class.dealii::DoFHandler", ptr %83, i64 0, i32 2
  %85 = load ptr, ptr %84, align 8, !tbaa !73
  %86 = getelementptr inbounds i8, ptr %85, i64 112
  %87 = load i32, ptr %86, align 8, !tbaa !74
  %88 = zext i32 %87 to i64
  call void @llvm.lifetime.start.p0(i64 4, ptr nonnull %2)
  store i32 0, ptr %2, align 4, !tbaa !77
  %89 = getelementptr inbounds %"struct.std::_Vector_base<unsigned int, std::allocator<unsigned int> >::_Vector_impl_data", ptr %82, i64 0, i32 1
  %90 = load ptr, ptr %89, align 8, !tbaa !78
  %91 = load ptr, ptr %82, align 8, !tbaa !21
  %92 = ptrtoint ptr %90 to i64
  %93 = ptrtoint ptr %91 to i64
  %94 = sub i64 %92, %93
  %95 = ashr exact i64 %94, 2
  %96 = icmp ult i64 %95, %88
  br i1 %96, label %97, label %106

97:                                               ; preds = %77
  %98 = sub nsw i64 %88, %95
  call void @_ZNSt6vectorIjSaIjEE14_M_fill_insertEN9__gnu_cxx17__normal_iteratorIPjS1_EEmRKj(ptr noundef nonnull align 8 dereferenceable(24) %82, ptr %90, i64 noundef %98, ptr noundef nonnull align 4 dereferenceable(4) %2)
  %99 = load ptr, ptr %29, align 8, !tbaa !18
  %100 = load ptr, ptr %63, align 8, !tbaa !69
  %101 = getelementptr inbounds %"class.dealii::DoFHandler", ptr %100, i64 0, i32 2
  %102 = load ptr, ptr %101, align 8, !tbaa !73
  %103 = getelementptr inbounds i8, ptr %102, i64 112
  %104 = load i32, ptr %103, align 8, !tbaa !74
  %105 = load i32, ptr %56, align 4, !tbaa !67
  br label %112

106:                                              ; preds = %77
  %107 = icmp ugt i64 %95, %88
  br i1 %107, label %108, label %112

108:                                              ; preds = %106
  %109 = getelementptr inbounds i32, ptr %91, i64 %88
  %110 = icmp eq ptr %90, %109
  br i1 %110, label %112, label %111

111:                                              ; preds = %108
  store ptr %109, ptr %89, align 8, !tbaa !79
  br label %112

112:                                              ; preds = %97, %106, %108, %111
  %113 = phi i32 [ %105, %97 ], [ %78, %106 ], [ %78, %108 ], [ %78, %111 ]
  %114 = phi i32 [ %104, %97 ], [ %87, %106 ], [ %87, %108 ], [ %87, %111 ]
  %115 = phi ptr [ %102, %97 ], [ %85, %106 ], [ %85, %108 ], [ %85, %111 ]
  %116 = phi ptr [ %100, %97 ], [ %83, %106 ], [ %83, %108 ], [ %83, %111 ]
  %117 = phi ptr [ %99, %97 ], [ %81, %106 ], [ %81, %108 ], [ %81, %111 ]
  call void @llvm.lifetime.end.p0(i64 4, ptr nonnull %2)
  %118 = getelementptr inbounds %"class.std::vector.39", ptr %117, i64 %80
  %119 = getelementptr inbounds i8, ptr %115, i64 112
  %120 = icmp eq i32 %114, 0
  %121 = load i32, ptr %4, align 8, !tbaa !80
  br i1 %120, label %146, label %122

122:                                              ; preds = %112
  %123 = getelementptr inbounds %"class.dealii::DoFHandler", ptr %116, i64 0, i32 3
  %124 = load ptr, ptr %123, align 8, !tbaa !81
  %125 = sext i32 %121 to i64
  %126 = getelementptr inbounds ptr, ptr %124, i64 %125
  %127 = load ptr, ptr %126, align 8, !tbaa !78
  %128 = load ptr, ptr %127, align 8, !tbaa !21
  %129 = mul i32 %113, %114
  %130 = zext i32 %129 to i64
  %131 = getelementptr inbounds i32, ptr %128, i64 %130
  %132 = load ptr, ptr %118, align 8, !tbaa !21
  br label %133

133:                                              ; preds = %133, %122
  %134 = phi i64 [ 0, %122 ], [ %138, %133 ]
  %135 = phi ptr [ %131, %122 ], [ %139, %133 ]
  %136 = load i32, ptr %135, align 4, !tbaa !77
  %137 = getelementptr inbounds i32, ptr %132, i64 %134
  store i32 %136, ptr %137, align 4, !tbaa !77
  %138 = add nuw nsw i64 %134, 1
  %139 = getelementptr inbounds i32, ptr %135, i64 1
  %140 = load i32, ptr %119, align 8, !tbaa !74
  %141 = zext i32 %140 to i64
  %142 = icmp ult i64 %138, %141
  br i1 %142, label %133, label %143

143:                                              ; preds = %133
  %144 = load i32, ptr %4, align 8, !tbaa !80
  %145 = load i32, ptr %56, align 4, !tbaa !67
  br label %146

146:                                              ; preds = %143, %112
  %147 = phi i32 [ %145, %143 ], [ %113, %112 ]
  %148 = phi i32 [ %144, %143 ], [ %121, %112 ]
  call void @llvm.lifetime.start.p0(i64 8, ptr nonnull %6) #15
  store i32 %148, ptr %6, align 4, !tbaa !82
  store i32 %147, ptr %65, align 4, !tbaa !84
  %149 = call noundef nonnull align 8 dereferenceable(16) ptr @_ZNSt3mapISt4pairIjjEN6dealii16SolutionTransferILi3ENS2_6VectorIdEENS2_10DoFHandlerILi3ELi3EEEE13PointerstructESt4lessIS1_ESaIS0_IKS1_S9_EEEixERSC_(ptr noundef nonnull align 8 dereferenceable(48) %64, ptr noundef nonnull align 4 dereferenceable(8) %6)
  store ptr %118, ptr %149, align 8, !tbaa !157
  call void @llvm.lifetime.end.p0(i64 8, ptr nonnull %6) #15
  %150 = load ptr, ptr %66, align 8, !tbaa !87
  %151 = getelementptr inbounds %"class.dealii::Triangulation", ptr %150, i64 0, i32 1
  %152 = load ptr, ptr %151, align 8, !tbaa !88
  %153 = ptrtoint ptr %152 to i64
  %154 = getelementptr inbounds %"class.dealii::Triangulation", ptr %150, i64 0, i32 1, i32 0, i32 0, i32 0, i32 1
  %155 = load i32, ptr %4, align 8
  %156 = load i32, ptr %56, align 4
  br label %157

157:                                              ; preds = %245, %146
  %158 = phi i32 [ %155, %146 ], [ %224, %245 ]
  %159 = phi i32 [ %155, %146 ], [ %225, %245 ]
  %160 = phi i32 [ %155, %146 ], [ %246, %245 ]
  %161 = phi i32 [ %156, %146 ], [ %226, %245 ]
  %162 = add nsw i32 %161, 1
  %163 = sext i32 %160 to i64
  %164 = getelementptr inbounds ptr, ptr %152, i64 %163
  %165 = load ptr, ptr %164, align 8, !tbaa !78
  %166 = getelementptr inbounds %"class.dealii::internal::Triangulation::TriaLevel", ptr %165, i64 0, i32 4
  %167 = getelementptr inbounds %"class.dealii::internal::Triangulation::TriaLevel", ptr %165, i64 0, i32 4, i32 0, i32 0, i32 0, i32 0, i32 0, i32 1
  %168 = load ptr, ptr %167, align 8, !tbaa !90
  %169 = load ptr, ptr %166, align 8, !tbaa !92
  %170 = ptrtoint ptr %168 to i64
  %171 = ptrtoint ptr %169 to i64
  %172 = sub i64 %170, %171
  %173 = sdiv exact i64 %172, 24
  %174 = trunc i64 %173 to i32
  %175 = icmp slt i32 %162, %174
  br i1 %175, label %223, label %176

176:                                              ; preds = %157
  %177 = add nsw i64 %163, 1
  %178 = trunc i64 %177 to i32
  store i32 %178, ptr %4, align 8, !tbaa !80
  %179 = load ptr, ptr %154, align 8, !tbaa !93
  %180 = ptrtoint ptr %179 to i64
  %181 = sub i64 %180, %153
  %182 = shl i64 %181, 29
  %183 = ashr i64 %182, 32
  %184 = icmp slt i64 %177, %183
  br i1 %184, label %185, label %217

185:                                              ; preds = %176
  %186 = getelementptr inbounds ptr, ptr %152, i64 %177
  %187 = load ptr, ptr %186, align 8, !tbaa !78
  %188 = getelementptr inbounds %"class.dealii::internal::Triangulation::TriaLevel", ptr %187, i64 0, i32 4
  %189 = getelementptr inbounds %"class.dealii::internal::Triangulation::TriaLevel", ptr %187, i64 0, i32 4, i32 0, i32 0, i32 0, i32 0, i32 0, i32 1
  %190 = load ptr, ptr %189, align 8, !tbaa !90
  %191 = load ptr, ptr %188, align 8, !tbaa !92
  %192 = ptrtoint ptr %190 to i64
  %193 = ptrtoint ptr %191 to i64
  %194 = sub i64 %192, %193
  %195 = sdiv exact i64 %194, 24
  %196 = trunc i64 %195 to i32
  %197 = icmp sgt i32 %196, 0
  br i1 %197, label %219, label %211

198:                                              ; preds = %211
  %199 = getelementptr inbounds ptr, ptr %152, i64 %213
  %200 = load ptr, ptr %199, align 8, !tbaa !78
  %201 = getelementptr inbounds %"class.dealii::internal::Triangulation::TriaLevel", ptr %200, i64 0, i32 4
  %202 = getelementptr inbounds %"class.dealii::internal::Triangulation::TriaLevel", ptr %200, i64 0, i32 4, i32 0, i32 0, i32 0, i32 0, i32 0, i32 1
  %203 = load ptr, ptr %202, align 8, !tbaa !90
  %204 = load ptr, ptr %201, align 8, !tbaa !92
  %205 = ptrtoint ptr %203 to i64
  %206 = ptrtoint ptr %204 to i64
  %207 = sub i64 %205, %206
  %208 = sdiv exact i64 %207, 24
  %209 = trunc i64 %208 to i32
  %210 = icmp sgt i32 %209, 0
  br i1 %210, label %218, label %211, !llvm.loop !94

211:                                              ; preds = %185, %198
  %212 = phi i64 [ %213, %198 ], [ %177, %185 ]
  %213 = add i64 %212, 1
  %214 = trunc i64 %213 to i32
  %215 = icmp eq i64 %213, %183
  br i1 %215, label %216, label %198, !llvm.loop !94

216:                                              ; preds = %211
  store i32 %214, ptr %4, align 8, !tbaa !80
  br label %217

217:                                              ; preds = %216, %176
  store i32 -1, ptr %4, align 8, !tbaa !80
  br label %223

218:                                              ; preds = %198
  store i32 %214, ptr %4, align 8, !tbaa !80
  br label %219

219:                                              ; preds = %218, %185
  %220 = phi i32 [ %178, %185 ], [ %214, %218 ]
  %221 = phi i64 [ %177, %185 ], [ %213, %218 ]
  %222 = trunc i64 %221 to i32
  br label %223

223:                                              ; preds = %219, %217, %157
  %224 = phi i32 [ %158, %157 ], [ -1, %217 ], [ %220, %219 ]
  %225 = phi i32 [ %159, %157 ], [ -1, %217 ], [ %222, %219 ]
  %226 = phi i32 [ %162, %157 ], [ -1, %217 ], [ 0, %219 ]
  %227 = phi i32 [ %160, %157 ], [ -1, %217 ], [ %222, %219 ]
  %228 = or i32 %227, %226
  %229 = icmp sgt i32 %228, -1
  br i1 %229, label %230, label %247

230:                                              ; preds = %223
  %231 = zext i32 %227 to i64
  %232 = getelementptr inbounds ptr, ptr %152, i64 %231
  %233 = load ptr, ptr %232, align 8, !tbaa !78
  %234 = getelementptr inbounds %"class.dealii::internal::Triangulation::TriaLevel", ptr %233, i64 0, i32 4, i32 0, i32 3
  %235 = load ptr, ptr %234, align 8, !tbaa !96
  %236 = lshr i32 %226, 6
  %237 = zext i32 %236 to i64
  %238 = getelementptr inbounds i64, ptr %235, i64 %237
  %239 = and i32 %226, 63
  %240 = zext i32 %239 to i64
  %241 = shl nuw i64 1, %240
  %242 = load i64, ptr %238, align 8, !tbaa !98
  %243 = and i64 %242, %241
  %244 = icmp eq i64 %243, 0
  br i1 %244, label %245, label %247

245:                                              ; preds = %230, %250
  %246 = phi i32 [ %227, %230 ], [ %225, %250 ]
  br label %157

247:                                              ; preds = %230, %223
  store i32 %226, ptr %56, align 4, !tbaa !67
  %248 = or i32 %226, %225
  %249 = icmp sgt i32 %248, -1
  br i1 %249, label %250, label %261

250:                                              ; preds = %247
  %251 = zext i32 %225 to i64
  %252 = getelementptr inbounds ptr, ptr %152, i64 %251
  %253 = load ptr, ptr %252, align 8, !tbaa !78
  %254 = getelementptr inbounds %"class.dealii::internal::Triangulation::TriaLevel", ptr %253, i64 0, i32 4, i32 0, i32 1
  %255 = shl i32 %226, 2
  %256 = zext i32 %255 to i64
  %257 = load ptr, ptr %254, align 8, !tbaa !99
  %258 = getelementptr inbounds i32, ptr %257, i64 %256
  %259 = load i32, ptr %258, align 4, !tbaa !77
  %260 = icmp eq i32 %259, -1
  br i1 %260, label %261, label %245

261:                                              ; preds = %247, %250
  %262 = add i32 %79, 1
  %263 = icmp ne i32 %226, %55
  %264 = icmp ne i32 %224, %53
  %265 = select i1 %263, i1 true, i1 %264
  br i1 %265, label %77, label %67
}

; Function Attrs: sspstrong uwtable
define linkonce_odr dso_local noundef nonnull align 8 dereferenceable(16) ptr @_ZNSt3mapISt4pairIjjEN6dealii16SolutionTransferILi3ENS2_6VectorIdEENS2_10DoFHandlerILi3ELi3EEEE13PointerstructESt4lessIS1_ESaIS0_IKS1_S9_EEEixERSC_(ptr noundef nonnull align 8 dereferenceable(48) %0, ptr noundef nonnull align 4 dereferenceable(8) %1) local_unnamed_addr #0 comdat align 2 personality ptr @__gxx_personality_v0 {
  %3 = alloca %"struct.std::pair.126", align 8
  %4 = getelementptr inbounds i8, ptr %0, i64 16
  %5 = load ptr, ptr %4, align 8, !tbaa !15
  %6 = getelementptr inbounds i8, ptr %0, i64 8
  %7 = icmp eq ptr %5, null
  br i1 %7, label %45, label %8

8:                                                ; preds = %2
  %9 = load i32, ptr %1, align 4, !tbaa !82
  %10 = getelementptr inbounds %"struct.std::pair", ptr %1, i64 0, i32 1
  %11 = load i32, ptr %10, align 4
  br label %12

12:                                               ; preds = %28, %8
  %13 = phi ptr [ %5, %8 ], [ %31, %28 ]
  %14 = phi ptr [ %6, %8 ], [ %29, %28 ]
  %15 = getelementptr inbounds %"struct.std::_Rb_tree_node.215", ptr %13, i64 0, i32 1
  %16 = load i32, ptr %15, align 4, !tbaa !82
  %17 = icmp ult i32 %16, %9
  br i1 %17, label %26, label %18

18:                                               ; preds = %12
  %19 = icmp ult i32 %9, %16
  br i1 %19, label %24, label %20

20:                                               ; preds = %18
  %21 = getelementptr inbounds %"struct.std::_Rb_tree_node.215", ptr %13, i64 0, i32 1, i32 0, i32 1
  %22 = load i32, ptr %21, align 4, !tbaa !84
  %23 = icmp ult i32 %22, %11
  br i1 %23, label %26, label %24

24:                                               ; preds = %20, %18
  %25 = getelementptr inbounds %"struct.std::_Rb_tree_node_base", ptr %13, i64 0, i32 2
  br label %28

26:                                               ; preds = %20, %12
  %27 = getelementptr inbounds %"struct.std::_Rb_tree_node_base", ptr %13, i64 0, i32 3
  br label %28

28:                                               ; preds = %26, %24
  %29 = phi ptr [ %14, %26 ], [ %13, %24 ]
  %30 = phi ptr [ %27, %26 ], [ %25, %24 ]
  %31 = load ptr, ptr %30, align 8, !tbaa !78
  %32 = icmp eq ptr %31, null
  br i1 %32, label %33, label %12

33:                                               ; preds = %28
  %34 = icmp eq ptr %29, %6
  br i1 %34, label %45, label %35

35:                                               ; preds = %33
  %36 = getelementptr inbounds %"struct.std::_Rb_tree_node.215", ptr %29, i64 0, i32 1
  %37 = load i32, ptr %36, align 4, !tbaa !82
  %38 = icmp ult i32 %9, %37
  br i1 %38, label %45, label %39

39:                                               ; preds = %35
  %40 = icmp ult i32 %37, %9
  br i1 %40, label %79, label %41

41:                                               ; preds = %39
  %42 = getelementptr inbounds %"struct.std::_Rb_tree_node.215", ptr %29, i64 0, i32 1, i32 0, i32 1
  %43 = load i32, ptr %42, align 4, !tbaa !84
  %44 = icmp ult i32 %11, %43
  br i1 %44, label %45, label %79

45:                                               ; preds = %35, %2, %33, %41
  %46 = phi ptr [ %29, %41 ], [ %6, %33 ], [ %6, %2 ], [ %29, %35 ]
  call void @llvm.lifetime.start.p0(i64 24, ptr nonnull %3) #15
  %47 = getelementptr inbounds %"struct.std::pair.126", ptr %3, i64 0, i32 1
  call void @llvm.memset.p0.i64(ptr noundef nonnull align 8 dereferenceable(16) %47, i8 0, i64 16, i1 false)
  %48 = load i64, ptr %1, align 4
  store i64 %48, ptr %3, align 8
  %49 = call { ptr, ptr } @_ZNSt8_Rb_treeISt4pairIjjES0_IKS1_N6dealii16SolutionTransferILi3ENS3_6VectorIdEENS3_10DoFHandlerILi3ELi3EEEE13PointerstructEESt10_Select1stISB_ESt4lessIS1_ESaISB_EE29_M_get_insert_hint_unique_posESt23_Rb_tree_const_iteratorISB_ERS2_(ptr noundef nonnull align 8 dereferenceable(48) %0, ptr %46, ptr noundef nonnull align 4 dereferenceable(8) %3)
  %50 = extractvalue { ptr, ptr } %49, 0
  %51 = extractvalue { ptr, ptr } %49, 1
  %52 = icmp eq ptr %51, null
  br i1 %52, label %77, label %53

53:                                               ; preds = %45
  %54 = icmp ne ptr %50, null
  %55 = icmp eq ptr %6, %51
  %56 = select i1 %54, i1 true, i1 %55
  br i1 %56, label %70, label %57

57:                                               ; preds = %53
  %58 = getelementptr inbounds %"struct.std::_Rb_tree_node.215", ptr %51, i64 0, i32 1
  %59 = load i32, ptr %3, align 8, !tbaa !82
  %60 = load i32, ptr %58, align 4, !tbaa !82
  %61 = icmp ult i32 %59, %60
  br i1 %61, label %70, label %62

62:                                               ; preds = %57
  %63 = icmp ult i32 %60, %59
  br i1 %63, label %70, label %64

64:                                               ; preds = %62
  %65 = getelementptr inbounds %"struct.std::pair", ptr %3, i64 0, i32 1
  %66 = load i32, ptr %65, align 4, !tbaa !84
  %67 = getelementptr inbounds %"struct.std::_Rb_tree_node.215", ptr %51, i64 0, i32 1, i32 0, i32 1
  %68 = load i32, ptr %67, align 4, !tbaa !84
  %69 = icmp ult i32 %66, %68
  br label %70

70:                                               ; preds = %64, %62, %57, %53
  %71 = phi i1 [ true, %53 ], [ true, %57 ], [ false, %62 ], [ %69, %64 ]
  %72 = call noalias noundef nonnull dereferenceable(56) ptr @_Znwm(i64 noundef 56) #18
  %73 = getelementptr inbounds %"struct.std::_Rb_tree_node.215", ptr %72, i64 0, i32 1
  call void @llvm.memcpy.p0.p0.i64(ptr noundef nonnull align 8 dereferenceable(24) %73, ptr noundef nonnull align 8 dereferenceable(24) %3, i64 24, i1 false)
  call void @_ZSt29_Rb_tree_insert_and_rebalancebPSt18_Rb_tree_node_baseS0_RS_(i1 noundef zeroext %71, ptr noundef nonnull %72, ptr noundef nonnull %51, ptr noundef nonnull align 8 dereferenceable(32) %6) #15
  %74 = getelementptr inbounds i8, ptr %0, i64 40
  %75 = load i64, ptr %74, align 8, !tbaa !31
  %76 = add i64 %75, 1
  store i64 %76, ptr %74, align 8, !tbaa !31
  br label %77

77:                                               ; preds = %45, %70
  %78 = phi ptr [ %72, %70 ], [ %50, %45 ]
  call void @llvm.lifetime.end.p0(i64 24, ptr nonnull %3) #15
  br label %79

79:                                               ; preds = %39, %77, %41
  %80 = phi ptr [ %78, %77 ], [ %29, %41 ], [ %29, %39 ]
  %81 = getelementptr inbounds %"struct.std::_Rb_tree_node.215", ptr %80, i64 0, i32 1, i32 1
  ret ptr %81
}

; Function Attrs: sspstrong uwtable
define weak_odr dso_local void @_ZN6dealii16SolutionTransferILi3ENS_6VectorIdEENS_10DoFHandlerILi3ELi3EEEE37prepare_for_coarsening_and_refinementERKSt6vectorIS2_SaIS2_EE(ptr noundef nonnull align 8 dereferenceable(120) %0, ptr noundef nonnull align 8 dereferenceable(24) %1) local_unnamed_addr #0 comdat align 2 personality ptr @__gxx_personality_v0 {
  %3 = alloca %"class.dealii::RefinementCase", align 1
  %4 = alloca i32, align 4
  %5 = alloca %"class.dealii::TriaActiveIterator", align 8
  %6 = alloca %"class.dealii::TriaRawIterator", align 8
  %7 = alloca %"class.dealii::TriaIterator", align 8
  %8 = alloca %"class.std::vector.39", align 8
  %9 = alloca %"class.std::vector.119", align 8
  %10 = alloca %"class.dealii::Vector.124", align 8
  %11 = alloca %"class.std::allocator.121", align 1
  %12 = alloca %"class.dealii::TriaIterator", align 8
  %13 = alloca %"struct.std::pair", align 8
  %14 = alloca %"class.std::vector.119", align 16
  %15 = alloca %"class.dealii::Vector.124", align 8
  %16 = alloca %"class.std::allocator.121", align 1
  %17 = alloca %"struct.std::pair", align 8
  %18 = getelementptr inbounds %"struct.std::_Vector_base<dealii::Vector<double>, std::allocator<dealii::Vector<double> > >::_Vector_impl_data", ptr %1, i64 0, i32 1
  %19 = load ptr, ptr %18, align 8, !tbaa !146
  %20 = load ptr, ptr %1, align 8, !tbaa !144
  %21 = ptrtoint ptr %19 to i64
  %22 = ptrtoint ptr %20 to i64
  %23 = sub i64 %21, %22
  %24 = sdiv exact i64 %23, 88
  tail call void @_ZN6dealii16SolutionTransferILi3ENS_6VectorIdEENS_10DoFHandlerILi3ELi3EEEE5clearEv(ptr noundef nonnull align 8 dereferenceable(120) %0)
  %25 = load ptr, ptr %0, align 8, !tbaa !5
  %26 = getelementptr inbounds %"class.dealii::DoFHandler", ptr %25, i64 0, i32 1
  %27 = load ptr, ptr %26, align 8, !tbaa !47
  %28 = tail call noundef i32 @_ZNK6dealii13TriangulationILi3ELi3EE14n_active_cellsEv(ptr noundef nonnull align 8 dereferenceable(8552) %27)
  %29 = load ptr, ptr %0, align 8, !tbaa !5
  %30 = getelementptr inbounds %"class.dealii::DoFHandler", ptr %29, i64 0, i32 5
  %31 = load i32, ptr %30, align 8, !tbaa !49
  %32 = getelementptr inbounds %"class.dealii::SolutionTransfer.108", ptr %0, i64 0, i32 1
  store i32 %31, ptr %32, align 8, !tbaa !156
  call void @llvm.lifetime.start.p0(i64 24, ptr nonnull %5) #15
  call void @_ZNK6dealii10DoFHandlerILi3ELi3EE12begin_activeEj(ptr nonnull sret(%"class.dealii::TriaActiveIterator") align 8 %5, ptr noundef nonnull align 8 dereferenceable(168) %29, i32 noundef 0)
  call void @llvm.lifetime.start.p0(i64 24, ptr nonnull %6) #15
  %33 = load ptr, ptr %0, align 8, !tbaa !5
  call void @_ZNK6dealii10DoFHandlerILi3ELi3EE3endEv(ptr nonnull sret(%"class.dealii::TriaRawIterator") align 8 %6, ptr noundef nonnull align 8 dereferenceable(168) %33)
  %34 = load i32, ptr %6, align 8
  %35 = getelementptr inbounds i8, ptr %6, i64 4
  %36 = load i32, ptr %35, align 4
  call void @llvm.lifetime.end.p0(i64 24, ptr nonnull %6) #15
  %37 = getelementptr inbounds %"class.dealii::TriaAccessorBase", ptr %5, i64 0, i32 1
  %38 = load i32, ptr %37, align 4
  %39 = load i32, ptr %5, align 8
  %40 = icmp ne i32 %38, %36
  %41 = icmp ne i32 %39, %34
  %42 = select i1 %40, i1 true, i1 %41
  br i1 %42, label %43, label %166

43:                                               ; preds = %2
  %44 = getelementptr inbounds %"class.dealii::TriaAccessorBase", ptr %5, i64 0, i32 2
  %45 = load ptr, ptr %44, align 8, !tbaa !87
  %46 = getelementptr inbounds %"class.dealii::Triangulation", ptr %45, i64 0, i32 1
  %47 = load ptr, ptr %46, align 8, !tbaa !88
  %48 = ptrtoint ptr %47 to i64
  %49 = getelementptr inbounds %"class.dealii::Triangulation", ptr %45, i64 0, i32 1, i32 0, i32 0, i32 0, i32 1
  br label %50

50:                                               ; preds = %43, %162
  %51 = phi i32 [ 0, %43 ], [ %74, %162 ]
  %52 = phi i32 [ %38, %43 ], [ %127, %162 ]
  %53 = phi i32 [ %39, %43 ], [ %125, %162 ]
  %54 = sext i32 %53 to i64
  %55 = getelementptr inbounds ptr, ptr %47, i64 %54
  %56 = load ptr, ptr %55, align 8, !tbaa !78
  %57 = getelementptr inbounds %"class.dealii::internal::Triangulation::TriaLevel", ptr %56, i64 0, i32 1
  %58 = load ptr, ptr %57, align 8, !tbaa !96
  %59 = sdiv i32 %52, 64
  %60 = sext i32 %59 to i64
  %61 = getelementptr inbounds i64, ptr %58, i64 %60
  %62 = srem i32 %52, 64
  %63 = sext i32 %62 to i64
  %64 = icmp slt i32 %62, 0
  %65 = add nsw i64 %63, 64
  %66 = ashr i64 %63, 63
  %67 = getelementptr inbounds i64, ptr %61, i64 %66
  %68 = select i1 %64, i64 %65, i64 %63
  %69 = shl nuw i64 1, %68
  %70 = load i64, ptr %67, align 8, !tbaa !98
  %71 = and i64 %70, %69
  %72 = icmp eq i64 %71, 0
  %73 = zext i1 %72 to i32
  %74 = add i32 %51, %73
  br label %75

75:                                               ; preds = %146, %50
  %76 = phi i32 [ %53, %50 ], [ %125, %146 ]
  %77 = phi i32 [ %53, %50 ], [ %126, %146 ]
  %78 = phi i32 [ %53, %50 ], [ %147, %146 ]
  %79 = phi i32 [ %52, %50 ], [ %127, %146 ]
  %80 = add nsw i32 %79, 1
  %81 = sext i32 %78 to i64
  %82 = getelementptr inbounds ptr, ptr %47, i64 %81
  %83 = load ptr, ptr %82, align 8, !tbaa !78
  %84 = getelementptr inbounds %"class.dealii::internal::Triangulation::TriaLevel", ptr %83, i64 0, i32 4
  %85 = getelementptr inbounds %"class.dealii::internal::Triangulation::TriaLevel", ptr %83, i64 0, i32 4, i32 0, i32 0, i32 0, i32 0, i32 0, i32 1
  %86 = load ptr, ptr %85, align 8, !tbaa !90
  %87 = load ptr, ptr %84, align 8, !tbaa !92
  %88 = ptrtoint ptr %86 to i64
  %89 = ptrtoint ptr %87 to i64
  %90 = sub i64 %88, %89
  %91 = sdiv exact i64 %90, 24
  %92 = trunc i64 %91 to i32
  %93 = icmp slt i32 %80, %92
  br i1 %93, label %124, label %94

94:                                               ; preds = %75
  %95 = add nsw i64 %81, 1
  %96 = trunc i64 %95 to i32
  store i32 %96, ptr %5, align 8, !tbaa !80
  %97 = load ptr, ptr %49, align 8, !tbaa !93
  %98 = ptrtoint ptr %97 to i64
  %99 = sub i64 %98, %48
  %100 = shl i64 %99, 29
  %101 = ashr i64 %100, 32
  %102 = icmp slt i64 %95, %101
  br i1 %102, label %103, label %121

103:                                              ; preds = %94, %117
  %104 = phi i64 [ %118, %117 ], [ %95, %94 ]
  %105 = getelementptr inbounds ptr, ptr %47, i64 %104
  %106 = load ptr, ptr %105, align 8, !tbaa !78
  %107 = getelementptr inbounds %"class.dealii::internal::Triangulation::TriaLevel", ptr %106, i64 0, i32 4
  %108 = getelementptr inbounds %"class.dealii::internal::Triangulation::TriaLevel", ptr %106, i64 0, i32 4, i32 0, i32 0, i32 0, i32 0, i32 0, i32 1
  %109 = load ptr, ptr %108, align 8, !tbaa !90
  %110 = load ptr, ptr %107, align 8, !tbaa !92
  %111 = ptrtoint ptr %109 to i64
  %112 = ptrtoint ptr %110 to i64
  %113 = sub i64 %111, %112
  %114 = sdiv exact i64 %113, 24
  %115 = trunc i64 %114 to i32
  %116 = icmp sgt i32 %115, 0
  br i1 %116, label %122, label %117

117:                                              ; preds = %103
  %118 = add i64 %104, 1
  %119 = trunc i64 %118 to i32
  store i32 %119, ptr %5, align 8, !tbaa !80
  %120 = icmp eq i64 %118, %101
  br i1 %120, label %121, label %103, !llvm.loop !94

121:                                              ; preds = %117, %94
  store i32 -1, ptr %5, align 8, !tbaa !80
  br label %124

122:                                              ; preds = %103
  %123 = trunc i64 %104 to i32
  br label %124

124:                                              ; preds = %122, %121, %75
  %125 = phi i32 [ %76, %75 ], [ -1, %121 ], [ %123, %122 ]
  %126 = phi i32 [ %77, %75 ], [ -1, %121 ], [ %123, %122 ]
  %127 = phi i32 [ %80, %75 ], [ -1, %121 ], [ 0, %122 ]
  %128 = phi i32 [ %78, %75 ], [ -1, %121 ], [ %123, %122 ]
  %129 = or i32 %128, %127
  %130 = icmp sgt i32 %129, -1
  br i1 %130, label %131, label %148

131:                                              ; preds = %124
  %132 = zext i32 %128 to i64
  %133 = getelementptr inbounds ptr, ptr %47, i64 %132
  %134 = load ptr, ptr %133, align 8, !tbaa !78
  %135 = getelementptr inbounds %"class.dealii::internal::Triangulation::TriaLevel", ptr %134, i64 0, i32 4, i32 0, i32 3
  %136 = load ptr, ptr %135, align 8, !tbaa !96
  %137 = lshr i32 %127, 6
  %138 = zext i32 %137 to i64
  %139 = getelementptr inbounds i64, ptr %136, i64 %138
  %140 = and i32 %127, 63
  %141 = zext i32 %140 to i64
  %142 = shl nuw i64 1, %141
  %143 = load i64, ptr %139, align 8, !tbaa !98
  %144 = and i64 %143, %142
  %145 = icmp eq i64 %144, 0
  br i1 %145, label %146, label %148

146:                                              ; preds = %131, %151
  %147 = phi i32 [ %128, %131 ], [ %126, %151 ]
  br label %75

148:                                              ; preds = %131, %124
  store i32 %127, ptr %37, align 4, !tbaa !67
  %149 = or i32 %127, %126
  %150 = icmp sgt i32 %149, -1
  br i1 %150, label %151, label %162

151:                                              ; preds = %148
  %152 = zext i32 %126 to i64
  %153 = getelementptr inbounds ptr, ptr %47, i64 %152
  %154 = load ptr, ptr %153, align 8, !tbaa !78
  %155 = getelementptr inbounds %"class.dealii::internal::Triangulation::TriaLevel", ptr %154, i64 0, i32 4, i32 0, i32 1
  %156 = shl i32 %127, 2
  %157 = zext i32 %156 to i64
  %158 = load ptr, ptr %155, align 8, !tbaa !99
  %159 = getelementptr inbounds i32, ptr %158, i64 %157
  %160 = load i32, ptr %159, align 4, !tbaa !77
  %161 = icmp eq i32 %160, -1
  br i1 %161, label %162, label %146

162:                                              ; preds = %148, %151
  %163 = icmp ne i32 %127, %36
  %164 = icmp ne i32 %125, %34
  %165 = select i1 %163, i1 true, i1 %164
  br i1 %165, label %50, label %166

166:                                              ; preds = %162, %2
  %167 = phi i32 [ 0, %2 ], [ %74, %162 ]
  call void @llvm.lifetime.start.p0(i64 24, ptr nonnull %7) #15
  %168 = load ptr, ptr %0, align 8, !tbaa !5
  call void @_ZNK6dealii10DoFHandlerILi3ELi3EE5beginEj(ptr nonnull sret(%"class.dealii::TriaIterator") align 8 %7, ptr noundef nonnull align 8 dereferenceable(168) %168, i32 noundef 0)
  %169 = getelementptr inbounds %"class.dealii::TriaAccessorBase", ptr %7, i64 0, i32 1
  %170 = load i32, ptr %169, align 4
  %171 = load i32, ptr %7, align 8
  %172 = icmp ne i32 %170, %36
  %173 = icmp ne i32 %171, %34
  %174 = select i1 %172, i1 true, i1 %173
  br i1 %174, label %175, label %294

175:                                              ; preds = %166
  %176 = getelementptr inbounds %"class.dealii::TriaAccessorBase", ptr %7, i64 0, i32 2
  %177 = load ptr, ptr %176, align 8, !tbaa !87
  %178 = getelementptr inbounds %"class.dealii::Triangulation", ptr %177, i64 0, i32 1
  %179 = load ptr, ptr %178, align 8, !tbaa !88
  %180 = ptrtoint ptr %179 to i64
  %181 = getelementptr inbounds %"class.dealii::Triangulation", ptr %177, i64 0, i32 1, i32 0, i32 0, i32 0, i32 1
  br label %182

182:                                              ; preds = %175, %290
  %183 = phi i32 [ 0, %175 ], [ %220, %290 ]
  %184 = phi i32 [ %170, %175 ], [ %271, %290 ]
  %185 = phi i32 [ %171, %175 ], [ %270, %290 ]
  %186 = sext i32 %185 to i64
  %187 = getelementptr inbounds ptr, ptr %179, i64 %186
  %188 = load ptr, ptr %187, align 8, !tbaa !78
  %189 = getelementptr inbounds %"class.dealii::internal::Triangulation::TriaLevel", ptr %188, i64 0, i32 4, i32 0, i32 1
  %190 = shl i32 %184, 2
  %191 = zext i32 %190 to i64
  %192 = load ptr, ptr %189, align 8, !tbaa !99
  %193 = getelementptr inbounds i32, ptr %192, i64 %191
  %194 = load i32, ptr %193, align 4, !tbaa !77
  %195 = icmp eq i32 %194, -1
  br i1 %195, label %219, label %196

196:                                              ; preds = %182
  %197 = add nsw i32 %185, 1
  %198 = sext i32 %197 to i64
  %199 = getelementptr inbounds ptr, ptr %179, i64 %198
  %200 = load ptr, ptr %199, align 8, !tbaa !78
  %201 = getelementptr inbounds %"class.dealii::internal::Triangulation::TriaLevel", ptr %200, i64 0, i32 1
  %202 = load ptr, ptr %201, align 8, !tbaa !96
  %203 = sdiv i32 %194, 64
  %204 = sext i32 %203 to i64
  %205 = getelementptr inbounds i64, ptr %202, i64 %204
  %206 = srem i32 %194, 64
  %207 = sext i32 %206 to i64
  %208 = icmp slt i32 %206, 0
  %209 = add nsw i64 %207, 64
  %210 = ashr i64 %207, 63
  %211 = getelementptr inbounds i64, ptr %205, i64 %210
  %212 = select i1 %208, i64 %209, i64 %207
  %213 = shl nuw i64 1, %212
  %214 = load i64, ptr %211, align 8, !tbaa !98
  %215 = and i64 %214, %213
  %216 = icmp ne i64 %215, 0
  %217 = zext i1 %216 to i32
  %218 = add i32 %183, %217
  br label %219

219:                                              ; preds = %182, %196
  %220 = phi i32 [ %218, %196 ], [ %183, %182 ]
  br label %221

221:                                              ; preds = %275, %219
  %222 = phi i32 [ %270, %275 ], [ %185, %219 ]
  %223 = phi i32 [ %272, %275 ], [ %185, %219 ]
  %224 = phi i32 [ %271, %275 ], [ %184, %219 ]
  %225 = add nsw i32 %224, 1
  %226 = sext i32 %223 to i64
  %227 = getelementptr inbounds ptr, ptr %179, i64 %226
  %228 = load ptr, ptr %227, align 8, !tbaa !78
  %229 = getelementptr inbounds %"class.dealii::internal::Triangulation::TriaLevel", ptr %228, i64 0, i32 4
  %230 = getelementptr inbounds %"class.dealii::internal::Triangulation::TriaLevel", ptr %228, i64 0, i32 4, i32 0, i32 0, i32 0, i32 0, i32 0, i32 1
  %231 = load ptr, ptr %230, align 8, !tbaa !90
  %232 = load ptr, ptr %229, align 8, !tbaa !92
  %233 = ptrtoint ptr %231 to i64
  %234 = ptrtoint ptr %232 to i64
  %235 = sub i64 %233, %234
  %236 = sdiv exact i64 %235, 24
  %237 = trunc i64 %236 to i32
  %238 = icmp slt i32 %225, %237
  br i1 %238, label %269, label %239

239:                                              ; preds = %221
  %240 = add nsw i64 %226, 1
  %241 = trunc i64 %240 to i32
  store i32 %241, ptr %7, align 8, !tbaa !80
  %242 = load ptr, ptr %181, align 8, !tbaa !93
  %243 = ptrtoint ptr %242 to i64
  %244 = sub i64 %243, %180
  %245 = shl i64 %244, 29
  %246 = ashr i64 %245, 32
  %247 = icmp slt i64 %240, %246
  br i1 %247, label %248, label %266

248:                                              ; preds = %239, %262
  %249 = phi i64 [ %263, %262 ], [ %240, %239 ]
  %250 = getelementptr inbounds ptr, ptr %179, i64 %249
  %251 = load ptr, ptr %250, align 8, !tbaa !78
  %252 = getelementptr inbounds %"class.dealii::internal::Triangulation::TriaLevel", ptr %251, i64 0, i32 4
  %253 = getelementptr inbounds %"class.dealii::internal::Triangulation::TriaLevel", ptr %251, i64 0, i32 4, i32 0, i32 0, i32 0, i32 0, i32 0, i32 1
  %254 = load ptr, ptr %253, align 8, !tbaa !90
  %255 = load ptr, ptr %252, align 8, !tbaa !92
  %256 = ptrtoint ptr %254 to i64
  %257 = ptrtoint ptr %255 to i64
  %258 = sub i64 %256, %257
  %259 = sdiv exact i64 %258, 24
  %260 = trunc i64 %259 to i32
  %261 = icmp sgt i32 %260, 0
  br i1 %261, label %267, label %262

262:                                              ; preds = %248
  %263 = add i64 %249, 1
  %264 = trunc i64 %263 to i32
  store i32 %264, ptr %7, align 8, !tbaa !80
  %265 = icmp eq i64 %263, %246
  br i1 %265, label %266, label %248, !llvm.loop !94

266:                                              ; preds = %262, %239
  store i32 -1, ptr %7, align 8, !tbaa !80
  br label %269

267:                                              ; preds = %248
  %268 = trunc i64 %249 to i32
  br label %269

269:                                              ; preds = %267, %266, %221
  %270 = phi i32 [ %222, %221 ], [ -1, %266 ], [ %268, %267 ]
  %271 = phi i32 [ %225, %221 ], [ -1, %266 ], [ 0, %267 ]
  %272 = phi i32 [ %223, %221 ], [ -1, %266 ], [ %268, %267 ]
  %273 = or i32 %272, %271
  %274 = icmp sgt i32 %273, -1
  br i1 %274, label %275, label %290

275:                                              ; preds = %269
  %276 = zext i32 %272 to i64
  %277 = getelementptr inbounds ptr, ptr %179, i64 %276
  %278 = load ptr, ptr %277, align 8, !tbaa !78
  %279 = getelementptr inbounds %"class.dealii::internal::Triangulation::TriaLevel", ptr %278, i64 0, i32 4, i32 0, i32 3
  %280 = load ptr, ptr %279, align 8, !tbaa !96
  %281 = lshr i32 %271, 6
  %282 = zext i32 %281 to i64
  %283 = getelementptr inbounds i64, ptr %280, i64 %282
  %284 = and i32 %271, 63
  %285 = zext i32 %284 to i64
  %286 = shl nuw i64 1, %285
  %287 = load i64, ptr %283, align 8, !tbaa !98
  %288 = and i64 %287, %286
  %289 = icmp eq i64 %288, 0
  br i1 %289, label %221, label %290

290:                                              ; preds = %269, %275
  store i32 %271, ptr %169, align 4, !tbaa !67
  %291 = icmp ne i32 %271, %36
  %292 = icmp ne i32 %270, %34
  %293 = select i1 %291, i1 true, i1 %292
  br i1 %293, label %182, label %294

294:                                              ; preds = %290, %166
  %295 = phi i32 [ 0, %166 ], [ %220, %290 ]
  %296 = zext i32 %167 to i64
  call void @llvm.lifetime.start.p0(i64 24, ptr nonnull %8) #15
  call void @llvm.memset.p0.i64(ptr noundef nonnull align 8 dereferenceable(24) %8, i8 0, i64 24, i1 false)
  %297 = icmp eq i32 %167, 0
  br i1 %297, label %301, label %298

298:                                              ; preds = %294
  %299 = mul nuw nsw i64 %296, 24
  %300 = invoke noalias noundef nonnull ptr @_Znwm(i64 noundef %299) #18
          to label %301 unwind label %544

301:                                              ; preds = %298, %294
  %302 = phi ptr [ null, %294 ], [ %300, %298 ]
  %303 = invoke noundef ptr @_ZSt18__do_uninit_fill_nIPSt6vectorIjSaIjEEmS2_ET_S4_T0_RKT1_(ptr noundef %302, i64 noundef %296, ptr noundef nonnull align 8 dereferenceable(24) %8)
          to label %308 unwind label %304

304:                                              ; preds = %301
  %305 = landingpad { ptr, i32 }
          cleanup
  %306 = icmp eq ptr %302, null
  br i1 %306, label %546, label %307

307:                                              ; preds = %304
  call void @_ZdlPv(ptr noundef nonnull %302) #17
  br label %546

308:                                              ; preds = %301
  %309 = getelementptr inbounds %"class.std::vector.39", ptr %302, i64 %296
  %310 = getelementptr inbounds %"class.dealii::SolutionTransfer.108", ptr %0, i64 0, i32 3
  %311 = load ptr, ptr %310, align 8, !tbaa !18
  %312 = getelementptr inbounds %"class.dealii::SolutionTransfer.108", ptr %0, i64 0, i32 3, i32 0, i32 0, i32 0, i32 1
  %313 = load ptr, ptr %312, align 8, !tbaa !20
  %314 = getelementptr inbounds %"class.dealii::SolutionTransfer.108", ptr %0, i64 0, i32 3, i32 0, i32 0, i32 0, i32 2
  store ptr %302, ptr %310, align 8, !tbaa !18
  store ptr %303, ptr %312, align 8, !tbaa !20
  store ptr %309, ptr %314, align 8, !tbaa !66
  %315 = icmp eq ptr %311, %313
  br i1 %315, label %324, label %316

316:                                              ; preds = %308, %321
  %317 = phi ptr [ %322, %321 ], [ %311, %308 ]
  %318 = load ptr, ptr %317, align 8, !tbaa !21
  %319 = icmp eq ptr %318, null
  br i1 %319, label %321, label %320

320:                                              ; preds = %316
  call void @_ZdlPv(ptr noundef nonnull %318) #17
  br label %321

321:                                              ; preds = %320, %316
  %322 = getelementptr inbounds %"class.std::vector.39", ptr %317, i64 1
  %323 = icmp eq ptr %322, %313
  br i1 %323, label %324, label %316

324:                                              ; preds = %321, %308
  %325 = icmp eq ptr %311, null
  br i1 %325, label %327, label %326

326:                                              ; preds = %324
  call void @_ZdlPv(ptr noundef nonnull %311) #17
  br label %327

327:                                              ; preds = %326, %324
  %328 = load ptr, ptr %8, align 8, !tbaa !21
  %329 = icmp eq ptr %328, null
  br i1 %329, label %331, label %330

330:                                              ; preds = %327
  call void @_ZdlPv(ptr noundef nonnull %328) #17
  br label %331

331:                                              ; preds = %327, %330
  call void @llvm.lifetime.end.p0(i64 24, ptr nonnull %8) #15
  call void @llvm.lifetime.start.p0(i64 24, ptr nonnull %9) #15
  %332 = and i64 %24, 4294967295
  call void @llvm.lifetime.start.p0(i64 88, ptr nonnull %10) #15
  call void @_ZN6dealii11SubscriptorC2Ev(ptr noundef nonnull align 8 dereferenceable(72) %10)
  store ptr getelementptr inbounds ({ [6 x ptr] }, ptr @_ZTVN6dealii6VectorIdEE, i64 0, inrange i32 0, i64 2), ptr %10, align 8, !tbaa !29
  %333 = getelementptr inbounds %"class.dealii::Vector.124", ptr %10, i64 0, i32 1
  call void @llvm.memset.p0.i64(ptr noundef nonnull align 8 dereferenceable(16) %333, i8 0, i64 16, i1 false)
  call void @llvm.lifetime.start.p0(i64 1, ptr nonnull %11) #15
  invoke void @_ZNSt6vectorIN6dealii6VectorIdEESaIS2_EEC2EmRKS2_RKS3_(ptr noundef nonnull align 8 dereferenceable(24) %9, i64 noundef %332, ptr noundef nonnull align 8 dereferenceable(88) %10, ptr noundef nonnull align 1 dereferenceable(1) %11)
          to label %334 unwind label %552

334:                                              ; preds = %331
  %335 = zext i32 %295 to i64
  %336 = icmp eq i32 %295, 0
  br i1 %336, label %340, label %337

337:                                              ; preds = %334
  %338 = mul nuw nsw i64 %335, 24
  %339 = invoke noalias noundef nonnull ptr @_Znwm(i64 noundef %338) #18
          to label %340 unwind label %554

340:                                              ; preds = %337, %334
  %341 = phi ptr [ null, %334 ], [ %339, %337 ]
  %342 = invoke noundef ptr @_ZNSt22__uninitialized_fill_nILb0EE15__uninit_fill_nIPSt6vectorIN6dealii6VectorIdEESaIS5_EEmS7_EET_S9_T0_RKT1_(ptr noundef %341, i64 noundef %335, ptr noundef nonnull align 8 dereferenceable(24) %9)
          to label %347 unwind label %343

343:                                              ; preds = %340
  %344 = landingpad { ptr, i32 }
          cleanup
  %345 = icmp eq ptr %341, null
  br i1 %345, label %556, label %346

346:                                              ; preds = %343
  call void @_ZdlPv(ptr noundef nonnull %341) #17
  br label %556

347:                                              ; preds = %340
  %348 = getelementptr inbounds %"class.std::vector.119", ptr %341, i64 %335
  %349 = getelementptr inbounds %"class.dealii::SolutionTransfer.108", ptr %0, i64 0, i32 5
  %350 = load ptr, ptr %349, align 8, !tbaa !141
  %351 = getelementptr inbounds %"class.dealii::SolutionTransfer.108", ptr %0, i64 0, i32 5, i32 0, i32 0, i32 0, i32 1
  %352 = load ptr, ptr %351, align 8, !tbaa !143
  %353 = getelementptr inbounds %"class.dealii::SolutionTransfer.108", ptr %0, i64 0, i32 5, i32 0, i32 0, i32 0, i32 2
  store ptr %341, ptr %349, align 8, !tbaa !141
  store ptr %342, ptr %351, align 8, !tbaa !143
  store ptr %348, ptr %353, align 8, !tbaa !159
  %354 = icmp eq ptr %350, %352
  br i1 %354, label %382, label %355

355:                                              ; preds = %347, %379
  %356 = phi ptr [ %380, %379 ], [ %350, %347 ]
  %357 = load ptr, ptr %356, align 8, !tbaa !144
  %358 = getelementptr inbounds %"struct.std::_Vector_base<dealii::Vector<double>, std::allocator<dealii::Vector<double> > >::_Vector_impl_data", ptr %356, i64 0, i32 1
  %359 = load ptr, ptr %358, align 8, !tbaa !146
  %360 = icmp eq ptr %357, %359
  br i1 %360, label %370, label %361

361:                                              ; preds = %355, %365
  %362 = phi ptr [ %366, %365 ], [ %357, %355 ]
  %363 = load ptr, ptr %362, align 8, !tbaa !29
  %364 = load ptr, ptr %363, align 8
  invoke void %364(ptr noundef nonnull align 8 dereferenceable(88) %362)
          to label %365 unwind label %374

365:                                              ; preds = %361
  %366 = getelementptr inbounds %"class.dealii::Vector.124", ptr %362, i64 1
  %367 = icmp eq ptr %366, %359
  br i1 %367, label %368, label %361

368:                                              ; preds = %365
  %369 = load ptr, ptr %356, align 8, !tbaa !144
  br label %370

370:                                              ; preds = %368, %355
  %371 = phi ptr [ %369, %368 ], [ %357, %355 ]
  %372 = icmp eq ptr %371, null
  br i1 %372, label %379, label %373

373:                                              ; preds = %370
  call void @_ZdlPv(ptr noundef nonnull %371) #17
  br label %379

374:                                              ; preds = %361
  %375 = landingpad { ptr, i32 }
          cleanup
  %376 = load ptr, ptr %356, align 8, !tbaa !144
  %377 = icmp eq ptr %376, null
  br i1 %377, label %385, label %378

378:                                              ; preds = %374
  call void @_ZdlPv(ptr noundef nonnull %376) #17
  br label %385

379:                                              ; preds = %373, %370
  %380 = getelementptr inbounds %"class.std::vector.119", ptr %356, i64 1
  %381 = icmp eq ptr %380, %352
  br i1 %381, label %382, label %355

382:                                              ; preds = %379, %347
  %383 = icmp eq ptr %350, null
  br i1 %383, label %388, label %384

384:                                              ; preds = %382
  call void @_ZdlPv(ptr noundef nonnull %350) #17
  br label %388

385:                                              ; preds = %378, %374
  %386 = icmp eq ptr %350, null
  br i1 %386, label %556, label %387

387:                                              ; preds = %385
  call void @_ZdlPv(ptr noundef nonnull %350) #17
  br label %556

388:                                              ; preds = %384, %382
  %389 = load ptr, ptr %9, align 8, !tbaa !144
  %390 = getelementptr inbounds %"struct.std::_Vector_base<dealii::Vector<double>, std::allocator<dealii::Vector<double> > >::_Vector_impl_data", ptr %9, i64 0, i32 1
  %391 = load ptr, ptr %390, align 8, !tbaa !146
  %392 = icmp eq ptr %389, %391
  br i1 %392, label %402, label %393

393:                                              ; preds = %388, %397
  %394 = phi ptr [ %398, %397 ], [ %389, %388 ]
  %395 = load ptr, ptr %394, align 8, !tbaa !29
  %396 = load ptr, ptr %395, align 8
  invoke void %396(ptr noundef nonnull align 8 dereferenceable(88) %394)
          to label %397 unwind label %406

397:                                              ; preds = %393
  %398 = getelementptr inbounds %"class.dealii::Vector.124", ptr %394, i64 1
  %399 = icmp eq ptr %398, %391
  br i1 %399, label %400, label %393

400:                                              ; preds = %397
  %401 = load ptr, ptr %9, align 8, !tbaa !144
  br label %402

402:                                              ; preds = %400, %388
  %403 = phi ptr [ %401, %400 ], [ %389, %388 ]
  %404 = icmp eq ptr %403, null
  br i1 %404, label %411, label %405

405:                                              ; preds = %402
  call void @_ZdlPv(ptr noundef nonnull %403) #17
  br label %411

406:                                              ; preds = %393
  %407 = landingpad { ptr, i32 }
          cleanup
  %408 = load ptr, ptr %9, align 8, !tbaa !144
  %409 = icmp eq ptr %408, null
  br i1 %409, label %558, label %410

410:                                              ; preds = %406
  call void @_ZdlPv(ptr noundef nonnull %408) #17
  br label %558

411:                                              ; preds = %405, %402
  call void @llvm.lifetime.end.p0(i64 1, ptr nonnull %11) #15
  store ptr getelementptr inbounds ({ [6 x ptr] }, ptr @_ZTVN6dealii6VectorIdEE, i64 0, inrange i32 0, i64 2), ptr %10, align 8, !tbaa !29
  %412 = getelementptr inbounds %"class.dealii::Vector.124", ptr %10, i64 0, i32 3
  %413 = load ptr, ptr %412, align 8, !tbaa !160
  %414 = icmp eq ptr %413, null
  br i1 %414, label %416, label %415

415:                                              ; preds = %411
  call void @_ZdaPv(ptr noundef nonnull %413) #17
  store ptr null, ptr %412, align 8, !tbaa !160
  br label %416

416:                                              ; preds = %411, %415
  call void @_ZN6dealii11SubscriptorD2Ev(ptr noundef nonnull align 8 dereferenceable(72) %10)
  call void @llvm.lifetime.end.p0(i64 88, ptr nonnull %10) #15
  call void @llvm.lifetime.end.p0(i64 24, ptr nonnull %9) #15
  call void @llvm.lifetime.start.p0(i64 24, ptr nonnull %12) #15
  %417 = load ptr, ptr %0, align 8, !tbaa !5
  call void @_ZNK6dealii10DoFHandlerILi3ELi3EE5beginEj(ptr nonnull sret(%"class.dealii::TriaIterator") align 8 %12, ptr noundef nonnull align 8 dereferenceable(168) %417, i32 noundef 0)
  %418 = load i32, ptr %12, align 8, !tbaa !80
  store i32 %418, ptr %7, align 8, !tbaa !80
  %419 = getelementptr inbounds %"class.dealii::TriaAccessorBase", ptr %12, i64 0, i32 1
  %420 = load i32, ptr %419, align 4, !tbaa !67
  store i32 %420, ptr %169, align 4, !tbaa !67
  %421 = getelementptr inbounds %"class.dealii::TriaAccessorBase", ptr %12, i64 0, i32 2
  %422 = getelementptr inbounds %"class.dealii::TriaAccessorBase", ptr %7, i64 0, i32 2
  %423 = getelementptr inbounds %"class.dealii::DoFAccessor", ptr %7, i64 0, i32 1
  %424 = load <2 x ptr>, ptr %421, align 8, !tbaa !78
  store <2 x ptr> %424, ptr %422, align 8, !tbaa !78
  call void @llvm.lifetime.end.p0(i64 24, ptr nonnull %12) #15
  %425 = icmp ne i32 %420, %36
  %426 = icmp ne i32 %418, %34
  %427 = select i1 %425, i1 true, i1 %426
  br i1 %427, label %428, label %777

428:                                              ; preds = %416
  %429 = getelementptr inbounds %"class.dealii::Vector.124", ptr %15, i64 0, i32 1
  %430 = getelementptr inbounds %"class.dealii::Vector.124", ptr %15, i64 0, i32 3
  %431 = getelementptr inbounds %"class.dealii::Vector.124", ptr %15, i64 0, i32 2
  %432 = getelementptr inbounds %"struct.std::_Vector_base<dealii::Vector<double>, std::allocator<dealii::Vector<double> > >::_Vector_impl_data", ptr %14, i64 0, i32 1
  %433 = getelementptr inbounds %"struct.std::_Vector_base<dealii::Vector<double>, std::allocator<dealii::Vector<double> > >::_Vector_impl_data", ptr %14, i64 0, i32 2
  %434 = and i64 %24, 4294967295
  %435 = icmp eq i64 %434, 0
  %436 = getelementptr inbounds %"class.dealii::SolutionTransfer.108", ptr %0, i64 0, i32 4
  %437 = extractelement <2 x ptr> %424, i64 0
  %438 = getelementptr inbounds %"class.dealii::Triangulation", ptr %437, i64 0, i32 1
  %439 = load ptr, ptr %438, align 8, !tbaa !88
  %440 = and i64 %24, 4294967295
  br label %441

441:                                              ; preds = %428, %773
  %442 = phi ptr [ %439, %428 ], [ %682, %773 ]
  %443 = phi i32 [ %418, %428 ], [ %753, %773 ]
  %444 = phi i32 [ %420, %428 ], [ %754, %773 ]
  %445 = phi i32 [ 0, %428 ], [ %679, %773 ]
  %446 = phi i32 [ 0, %428 ], [ %678, %773 ]
  %447 = sext i32 %443 to i64
  %448 = getelementptr inbounds ptr, ptr %442, i64 %447
  %449 = load ptr, ptr %448, align 8, !tbaa !78
  %450 = getelementptr inbounds %"class.dealii::internal::Triangulation::TriaLevel", ptr %449, i64 0, i32 4, i32 0, i32 1
  %451 = shl i32 %444, 2
  %452 = zext i32 %451 to i64
  %453 = load ptr, ptr %450, align 8, !tbaa !99
  %454 = getelementptr inbounds i32, ptr %453, i64 %452
  %455 = load i32, ptr %454, align 4, !tbaa !77
  %456 = icmp eq i32 %455, -1
  br i1 %456, label %457, label %561

457:                                              ; preds = %441
  %458 = getelementptr inbounds %"class.dealii::internal::Triangulation::TriaLevel", ptr %449, i64 0, i32 1
  %459 = load ptr, ptr %458, align 8, !tbaa !96
  %460 = sdiv i32 %444, 64
  %461 = sext i32 %460 to i64
  %462 = getelementptr inbounds i64, ptr %459, i64 %461
  %463 = srem i32 %444, 64
  %464 = sext i32 %463 to i64
  %465 = icmp slt i32 %463, 0
  %466 = add nsw i64 %464, 64
  %467 = ashr i64 %464, 63
  %468 = getelementptr inbounds i64, ptr %462, i64 %467
  %469 = select i1 %465, i64 %466, i64 %464
  %470 = shl nuw i64 1, %469
  %471 = load i64, ptr %468, align 8, !tbaa !98
  %472 = and i64 %471, %470
  %473 = icmp eq i64 %472, 0
  br i1 %473, label %474, label %677

474:                                              ; preds = %457
  %475 = load ptr, ptr %423, align 8, !tbaa !69
  %476 = getelementptr inbounds %"class.dealii::DoFHandler", ptr %475, i64 0, i32 2
  %477 = load ptr, ptr %476, align 8, !tbaa !73
  %478 = getelementptr inbounds i8, ptr %477, i64 112
  %479 = load i32, ptr %478, align 8, !tbaa !74
  %480 = zext i32 %446 to i64
  %481 = load ptr, ptr %310, align 8, !tbaa !18
  %482 = getelementptr inbounds %"class.std::vector.39", ptr %481, i64 %480
  %483 = zext i32 %479 to i64
  call void @llvm.lifetime.start.p0(i64 4, ptr nonnull %4)
  store i32 0, ptr %4, align 4, !tbaa !77
  %484 = getelementptr inbounds %"struct.std::_Vector_base<unsigned int, std::allocator<unsigned int> >::_Vector_impl_data", ptr %482, i64 0, i32 1
  %485 = load ptr, ptr %484, align 8, !tbaa !78
  %486 = load ptr, ptr %482, align 8, !tbaa !21
  %487 = ptrtoint ptr %485 to i64
  %488 = ptrtoint ptr %486 to i64
  %489 = sub i64 %487, %488
  %490 = ashr exact i64 %489, 2
  %491 = icmp ult i64 %490, %483
  br i1 %491, label %492, label %500

492:                                              ; preds = %474
  %493 = sub nsw i64 %483, %490
  call void @_ZNSt6vectorIjSaIjEE14_M_fill_insertEN9__gnu_cxx17__normal_iteratorIPjS1_EEmRKj(ptr noundef nonnull align 8 dereferenceable(24) %482, ptr %485, i64 noundef %493, ptr noundef nonnull align 4 dereferenceable(4) %4)
  %494 = load ptr, ptr %310, align 8, !tbaa !18
  %495 = load ptr, ptr %423, align 8, !tbaa !69
  %496 = getelementptr inbounds %"class.dealii::DoFHandler", ptr %495, i64 0, i32 2
  %497 = load ptr, ptr %496, align 8, !tbaa !73
  %498 = getelementptr inbounds i8, ptr %497, i64 112
  %499 = load i32, ptr %498, align 8, !tbaa !74
  br label %506

500:                                              ; preds = %474
  %501 = icmp ugt i64 %490, %483
  br i1 %501, label %502, label %506

502:                                              ; preds = %500
  %503 = getelementptr inbounds i32, ptr %486, i64 %483
  %504 = icmp eq ptr %485, %503
  br i1 %504, label %506, label %505

505:                                              ; preds = %502
  store ptr %503, ptr %484, align 8, !tbaa !79
  br label %506

506:                                              ; preds = %492, %500, %502, %505
  %507 = phi i32 [ %499, %492 ], [ %479, %500 ], [ %479, %502 ], [ %479, %505 ]
  %508 = phi ptr [ %497, %492 ], [ %477, %500 ], [ %477, %502 ], [ %477, %505 ]
  %509 = phi ptr [ %495, %492 ], [ %475, %500 ], [ %475, %502 ], [ %475, %505 ]
  %510 = phi ptr [ %494, %492 ], [ %481, %500 ], [ %481, %502 ], [ %481, %505 ]
  call void @llvm.lifetime.end.p0(i64 4, ptr nonnull %4)
  %511 = getelementptr inbounds %"class.std::vector.39", ptr %510, i64 %480
  %512 = getelementptr inbounds i8, ptr %508, i64 112
  %513 = icmp eq i32 %507, 0
  %514 = load <2 x i32>, ptr %7, align 8, !tbaa !77
  br i1 %513, label %540, label %515

515:                                              ; preds = %506
  %516 = getelementptr inbounds %"class.dealii::DoFHandler", ptr %509, i64 0, i32 3
  %517 = load ptr, ptr %516, align 8, !tbaa !81
  %518 = extractelement <2 x i32> %514, i64 0
  %519 = sext i32 %518 to i64
  %520 = getelementptr inbounds ptr, ptr %517, i64 %519
  %521 = load ptr, ptr %520, align 8, !tbaa !78
  %522 = load ptr, ptr %521, align 8, !tbaa !21
  %523 = extractelement <2 x i32> %514, i64 1
  %524 = mul i32 %523, %507
  %525 = zext i32 %524 to i64
  %526 = getelementptr inbounds i32, ptr %522, i64 %525
  %527 = load ptr, ptr %511, align 8, !tbaa !21
  br label %528

528:                                              ; preds = %528, %515
  %529 = phi i64 [ 0, %515 ], [ %533, %528 ]
  %530 = phi ptr [ %526, %515 ], [ %534, %528 ]
  %531 = load i32, ptr %530, align 4, !tbaa !77
  %532 = getelementptr inbounds i32, ptr %527, i64 %529
  store i32 %531, ptr %532, align 4, !tbaa !77
  %533 = add nuw nsw i64 %529, 1
  %534 = getelementptr inbounds i32, ptr %530, i64 1
  %535 = load i32, ptr %512, align 8, !tbaa !74
  %536 = zext i32 %535 to i64
  %537 = icmp ult i64 %533, %536
  br i1 %537, label %528, label %538

538:                                              ; preds = %528
  %539 = load <2 x i32>, ptr %7, align 8, !tbaa !77
  br label %540

540:                                              ; preds = %538, %506
  %541 = phi <2 x i32> [ %539, %538 ], [ %514, %506 ]
  call void @llvm.lifetime.start.p0(i64 8, ptr nonnull %13) #15
  store <2 x i32> %541, ptr %13, align 8, !tbaa !77
  %542 = call noundef nonnull align 8 dereferenceable(16) ptr @_ZNSt3mapISt4pairIjjEN6dealii16SolutionTransferILi3ENS2_6VectorIdEENS2_10DoFHandlerILi3ELi3EEEE13PointerstructESt4lessIS1_ESaIS0_IKS1_S9_EEEixERSC_(ptr noundef nonnull align 8 dereferenceable(48) %436, ptr noundef nonnull align 4 dereferenceable(8) %13)
  store ptr %511, ptr %542, align 8, !tbaa !157
  call void @llvm.lifetime.end.p0(i64 8, ptr nonnull %13) #15
  %543 = add i32 %446, 1
  br label %677

544:                                              ; preds = %298
  %545 = landingpad { ptr, i32 }
          cleanup
  br label %546

546:                                              ; preds = %544, %307, %304
  %547 = phi { ptr, i32 } [ %545, %544 ], [ %305, %307 ], [ %305, %304 ]
  %548 = load ptr, ptr %8, align 8, !tbaa !21
  %549 = icmp eq ptr %548, null
  br i1 %549, label %551, label %550

550:                                              ; preds = %546
  call void @_ZdlPv(ptr noundef nonnull %548) #17
  br label %551

551:                                              ; preds = %550, %546
  call void @llvm.lifetime.end.p0(i64 24, ptr nonnull %8) #15
  br label %779

552:                                              ; preds = %331
  %553 = landingpad { ptr, i32 }
          cleanup
  br label %558

554:                                              ; preds = %337
  %555 = landingpad { ptr, i32 }
          cleanup
  br label %556

556:                                              ; preds = %346, %343, %385, %387, %554
  %557 = phi { ptr, i32 } [ %344, %346 ], [ %344, %343 ], [ %555, %554 ], [ %375, %387 ], [ %375, %385 ]
  invoke void @_ZNSt6vectorIN6dealii6VectorIdEESaIS2_EED2Ev(ptr noundef nonnull align 8 dereferenceable(24) %9)
          to label %558 unwind label %781

558:                                              ; preds = %552, %410, %406, %556
  %559 = phi { ptr, i32 } [ %557, %556 ], [ %553, %552 ], [ %407, %410 ], [ %407, %406 ]
  call void @llvm.lifetime.end.p0(i64 1, ptr nonnull %11) #15
  invoke void @_ZN6dealii6VectorIdED2Ev(ptr noundef nonnull align 8 dereferenceable(88) %10)
          to label %560 unwind label %781

560:                                              ; preds = %558
  call void @llvm.lifetime.end.p0(i64 88, ptr nonnull %10) #15
  call void @llvm.lifetime.end.p0(i64 24, ptr nonnull %9) #15
  br label %779

561:                                              ; preds = %441
  %562 = add nsw i32 %443, 1
  %563 = sext i32 %562 to i64
  %564 = getelementptr inbounds ptr, ptr %442, i64 %563
  %565 = load ptr, ptr %564, align 8, !tbaa !78
  %566 = getelementptr inbounds %"class.dealii::internal::Triangulation::TriaLevel", ptr %565, i64 0, i32 1
  %567 = load ptr, ptr %566, align 8, !tbaa !96
  %568 = sdiv i32 %455, 64
  %569 = sext i32 %568 to i64
  %570 = getelementptr inbounds i64, ptr %567, i64 %569
  %571 = srem i32 %455, 64
  %572 = sext i32 %571 to i64
  %573 = icmp slt i32 %571, 0
  %574 = add nsw i64 %572, 64
  %575 = ashr i64 %572, 63
  %576 = getelementptr inbounds i64, ptr %570, i64 %575
  %577 = select i1 %573, i64 %574, i64 %572
  %578 = shl nuw i64 1, %577
  %579 = load i64, ptr %576, align 8, !tbaa !98
  %580 = and i64 %579, %578
  %581 = icmp eq i64 %580, 0
  br i1 %581, label %677, label %582

582:                                              ; preds = %561, %582
  %583 = phi i32 [ %599, %582 ], [ 1, %561 ]
  call void @llvm.lifetime.start.p0(i64 1, ptr nonnull %3) #15
  %584 = load ptr, ptr %422, align 8, !tbaa !87
  %585 = getelementptr inbounds %"class.dealii::Triangulation", ptr %584, i64 0, i32 1
  %586 = load i32, ptr %7, align 8, !tbaa !80
  %587 = sext i32 %586 to i64
  %588 = load ptr, ptr %585, align 8, !tbaa !88
  %589 = getelementptr inbounds ptr, ptr %588, i64 %587
  %590 = load ptr, ptr %589, align 8, !tbaa !78
  %591 = getelementptr inbounds %"class.dealii::internal::Triangulation::TriaLevel", ptr %590, i64 0, i32 4, i32 0, i32 2
  %592 = load i32, ptr %169, align 4, !tbaa !67
  %593 = sext i32 %592 to i64
  %594 = load ptr, ptr %591, align 8, !tbaa !104
  %595 = getelementptr inbounds %"class.dealii::RefinementCase", ptr %594, i64 %593
  %596 = load i8, ptr %595, align 1
  store i8 %596, ptr %3, align 1
  %597 = call noundef i32 @_ZN6dealii12GeometryInfoILi3EE10n_childrenERKNS_14RefinementCaseILi3EEE(ptr noundef nonnull align 1 dereferenceable(1) %3)
  call void @llvm.lifetime.end.p0(i64 1, ptr nonnull %3) #15
  %598 = icmp ult i32 %583, %597
  %599 = add nuw i32 %583, 1
  br i1 %598, label %582, label %600

600:                                              ; preds = %582
  %601 = load ptr, ptr %423, align 8, !tbaa !69
  %602 = getelementptr inbounds %"class.dealii::DoFHandler", ptr %601, i64 0, i32 2
  %603 = load ptr, ptr %602, align 8, !tbaa !73
  %604 = getelementptr inbounds i8, ptr %603, i64 112
  %605 = load i32, ptr %604, align 8, !tbaa !74
  call void @llvm.lifetime.start.p0(i64 24, ptr nonnull %14) #15
  call void @llvm.lifetime.start.p0(i64 88, ptr nonnull %15) #15
  call void @_ZN6dealii11SubscriptorC2Ev(ptr noundef nonnull align 8 dereferenceable(72) %15)
  store ptr getelementptr inbounds ({ [6 x ptr] }, ptr @_ZTVN6dealii6VectorIdEE, i64 0, inrange i32 0, i64 2), ptr %15, align 8, !tbaa !29
  call void @llvm.memset.p0.i64(ptr noundef nonnull align 8 dereferenceable(16) %429, i8 0, i64 16, i1 false)
  %606 = icmp eq i32 %605, 0
  br i1 %606, label %619, label %607

607:                                              ; preds = %600
  %608 = zext i32 %605 to i64
  %609 = shl nuw nsw i64 %608, 3
  %610 = invoke noalias noundef nonnull ptr @_Znam(i64 noundef %609) #18
          to label %611 unwind label %612

611:                                              ; preds = %607
  store ptr %610, ptr %430, align 8, !tbaa !160
  store i32 %605, ptr %431, align 4, !tbaa !162
  store i32 %605, ptr %429, align 8, !tbaa !163
  call void @llvm.memset.p0.i64(ptr nonnull align 8 %610, i8 0, i64 %609, i1 false), !tbaa !164
  br label %619

612:                                              ; preds = %607
  %613 = landingpad { ptr, i32 }
          cleanup
  invoke void @_ZN6dealii11SubscriptorD2Ev(ptr noundef nonnull align 8 dereferenceable(72) %15)
          to label %614 unwind label %616

614:                                              ; preds = %612, %779
  %615 = phi { ptr, i32 } [ %780, %779 ], [ %613, %612 ]
  resume { ptr, i32 } %615

616:                                              ; preds = %612
  %617 = landingpad { ptr, i32 }
          catch ptr null
  %618 = extractvalue { ptr, i32 } %617, 0
  call void @__clang_call_terminate(ptr %618) #16
  unreachable

619:                                              ; preds = %600, %611
  call void @llvm.lifetime.start.p0(i64 1, ptr nonnull %16) #15
  invoke void @_ZNSt6vectorIN6dealii6VectorIdEESaIS2_EEC2EmRKS2_RKS3_(ptr noundef nonnull align 8 dereferenceable(24) %14, i64 noundef %332, ptr noundef nonnull align 8 dereferenceable(88) %15, ptr noundef nonnull align 1 dereferenceable(1) %16)
          to label %620 unwind label %662

620:                                              ; preds = %619
  %621 = zext i32 %445 to i64
  %622 = load ptr, ptr %349, align 8, !tbaa !141
  %623 = getelementptr inbounds %"class.std::vector.119", ptr %622, i64 %621
  %624 = load ptr, ptr %433, align 16, !tbaa !166
  %625 = load <2 x ptr>, ptr %623, align 8, !tbaa !78
  %626 = getelementptr inbounds %"struct.std::_Vector_base<dealii::Vector<double>, std::allocator<dealii::Vector<double> > >::_Vector_impl_data", ptr %623, i64 0, i32 2
  %627 = load <2 x ptr>, ptr %14, align 16, !tbaa !78
  store <2 x ptr> %625, ptr %14, align 16, !tbaa !78
  %628 = load ptr, ptr %626, align 8, !tbaa !166
  store ptr %628, ptr %433, align 16, !tbaa !166
  store <2 x ptr> %627, ptr %623, align 8, !tbaa !78
  store ptr %624, ptr %626, align 8, !tbaa !166
  %629 = load ptr, ptr %14, align 16, !tbaa !144
  %630 = load ptr, ptr %432, align 8, !tbaa !146
  %631 = icmp eq ptr %629, %630
  br i1 %631, label %641, label %632

632:                                              ; preds = %620, %636
  %633 = phi ptr [ %637, %636 ], [ %629, %620 ]
  %634 = load ptr, ptr %633, align 8, !tbaa !29
  %635 = load ptr, ptr %634, align 8
  invoke void %635(ptr noundef nonnull align 8 dereferenceable(88) %633)
          to label %636 unwind label %645

636:                                              ; preds = %632
  %637 = getelementptr inbounds %"class.dealii::Vector.124", ptr %633, i64 1
  %638 = icmp eq ptr %637, %630
  br i1 %638, label %639, label %632

639:                                              ; preds = %636
  %640 = load ptr, ptr %14, align 16, !tbaa !144
  br label %641

641:                                              ; preds = %639, %620
  %642 = phi ptr [ %640, %639 ], [ %629, %620 ]
  %643 = icmp eq ptr %642, null
  br i1 %643, label %650, label %644

644:                                              ; preds = %641
  call void @_ZdlPv(ptr noundef nonnull %642) #17
  br label %650

645:                                              ; preds = %632
  %646 = landingpad { ptr, i32 }
          cleanup
  %647 = load ptr, ptr %14, align 16, !tbaa !144
  %648 = icmp eq ptr %647, null
  br i1 %648, label %664, label %649

649:                                              ; preds = %645
  call void @_ZdlPv(ptr noundef nonnull %647) #17
  br label %664

650:                                              ; preds = %644, %641
  call void @llvm.lifetime.end.p0(i64 1, ptr nonnull %16) #15
  store ptr getelementptr inbounds ({ [6 x ptr] }, ptr @_ZTVN6dealii6VectorIdEE, i64 0, inrange i32 0, i64 2), ptr %15, align 8, !tbaa !29
  %651 = load ptr, ptr %430, align 8, !tbaa !160
  %652 = icmp eq ptr %651, null
  br i1 %652, label %654, label %653

653:                                              ; preds = %650
  call void @_ZdaPv(ptr noundef nonnull %651) #17
  store ptr null, ptr %430, align 8, !tbaa !160
  br label %654

654:                                              ; preds = %650, %653
  call void @_ZN6dealii11SubscriptorD2Ev(ptr noundef nonnull align 8 dereferenceable(72) %15)
  call void @llvm.lifetime.end.p0(i64 88, ptr nonnull %15) #15
  call void @llvm.lifetime.end.p0(i64 24, ptr nonnull %14) #15
  br i1 %435, label %655, label %667

655:                                              ; preds = %667, %654
  %656 = load ptr, ptr %349, align 8, !tbaa !141
  %657 = getelementptr inbounds %"class.std::vector.119", ptr %656, i64 %621
  call void @llvm.lifetime.start.p0(i64 8, ptr nonnull %17) #15
  %658 = load <2 x i32>, ptr %7, align 8, !tbaa !77
  store <2 x i32> %658, ptr %17, align 8, !tbaa !77
  %659 = call noundef nonnull align 8 dereferenceable(16) ptr @_ZNSt3mapISt4pairIjjEN6dealii16SolutionTransferILi3ENS2_6VectorIdEENS2_10DoFHandlerILi3ELi3EEEE13PointerstructESt4lessIS1_ESaIS0_IKS1_S9_EEEixERSC_(ptr noundef nonnull align 8 dereferenceable(48) %436, ptr noundef nonnull align 4 dereferenceable(8) %17)
  %660 = getelementptr inbounds %"struct.dealii::SolutionTransfer<3>::Pointerstruct", ptr %659, i64 0, i32 1
  store ptr %657, ptr %660, align 8, !tbaa !167
  call void @llvm.lifetime.end.p0(i64 8, ptr nonnull %17) #15
  %661 = add i32 %445, 1
  br label %677

662:                                              ; preds = %619
  %663 = landingpad { ptr, i32 }
          cleanup
  br label %664

664:                                              ; preds = %662, %649, %645
  %665 = phi { ptr, i32 } [ %663, %662 ], [ %646, %649 ], [ %646, %645 ]
  call void @llvm.lifetime.end.p0(i64 1, ptr nonnull %16) #15
  invoke void @_ZN6dealii6VectorIdED2Ev(ptr noundef nonnull align 8 dereferenceable(88) %15)
          to label %666 unwind label %781

666:                                              ; preds = %664
  call void @llvm.lifetime.end.p0(i64 88, ptr nonnull %15) #15
  call void @llvm.lifetime.end.p0(i64 24, ptr nonnull %14) #15
  br label %779

667:                                              ; preds = %654, %667
  %668 = phi i64 [ %675, %667 ], [ 0, %654 ]
  %669 = load ptr, ptr %1, align 8, !tbaa !144
  %670 = getelementptr inbounds %"class.dealii::Vector.124", ptr %669, i64 %668
  %671 = load ptr, ptr %349, align 8, !tbaa !141
  %672 = getelementptr inbounds %"class.std::vector.119", ptr %671, i64 %621
  %673 = load ptr, ptr %672, align 8, !tbaa !144
  %674 = getelementptr inbounds %"class.dealii::Vector.124", ptr %673, i64 %668
  call void @_ZNK6dealii15DoFCellAccessorINS_10DoFHandlerILi3ELi3EEEE27get_interpolated_dof_valuesINS_6VectorIdEEdEEvRKT_RNS5_IT0_EE(ptr noundef nonnull align 8 dereferenceable(24) %7, ptr noundef nonnull align 8 dereferenceable(88) %670, ptr noundef nonnull align 8 dereferenceable(88) %674)
  %675 = add nuw nsw i64 %668, 1
  %676 = icmp eq i64 %675, %440
  br i1 %676, label %655, label %667

677:                                              ; preds = %457, %540, %655, %561
  %678 = phi i32 [ %446, %655 ], [ %446, %561 ], [ %543, %540 ], [ %446, %457 ]
  %679 = phi i32 [ %661, %655 ], [ %445, %561 ], [ %445, %540 ], [ %445, %457 ]
  %680 = load ptr, ptr %422, align 8, !tbaa !87
  %681 = getelementptr inbounds %"class.dealii::Triangulation", ptr %680, i64 0, i32 1
  %682 = load ptr, ptr %681, align 8, !tbaa !88
  %683 = load i32, ptr %169, align 4
  %684 = load i32, ptr %7, align 8
  %685 = ptrtoint ptr %682 to i64
  %686 = getelementptr inbounds %"class.dealii::Triangulation", ptr %680, i64 0, i32 1, i32 0, i32 0, i32 0, i32 1
  br label %687

687:                                              ; preds = %758, %677
  %688 = phi i32 [ %753, %758 ], [ %684, %677 ]
  %689 = phi i32 [ %755, %758 ], [ %684, %677 ]
  %690 = phi i32 [ %754, %758 ], [ %683, %677 ]
  %691 = add nsw i32 %690, 1
  %692 = sext i32 %689 to i64
  %693 = getelementptr inbounds ptr, ptr %682, i64 %692
  %694 = load ptr, ptr %693, align 8, !tbaa !78
  %695 = getelementptr inbounds %"class.dealii::internal::Triangulation::TriaLevel", ptr %694, i64 0, i32 4
  %696 = getelementptr inbounds %"class.dealii::internal::Triangulation::TriaLevel", ptr %694, i64 0, i32 4, i32 0, i32 0, i32 0, i32 0, i32 0, i32 1
  %697 = load ptr, ptr %696, align 8, !tbaa !90
  %698 = load ptr, ptr %695, align 8, !tbaa !92
  %699 = ptrtoint ptr %697 to i64
  %700 = ptrtoint ptr %698 to i64
  %701 = sub i64 %699, %700
  %702 = sdiv exact i64 %701, 24
  %703 = trunc i64 %702 to i32
  %704 = icmp slt i32 %691, %703
  br i1 %704, label %752, label %705

705:                                              ; preds = %687
  %706 = add nsw i64 %692, 1
  %707 = trunc i64 %706 to i32
  store i32 %707, ptr %7, align 8, !tbaa !80
  %708 = load ptr, ptr %686, align 8, !tbaa !93
  %709 = ptrtoint ptr %708 to i64
  %710 = sub i64 %709, %685
  %711 = shl i64 %710, 29
  %712 = ashr i64 %711, 32
  %713 = icmp slt i64 %706, %712
  br i1 %713, label %714, label %746

714:                                              ; preds = %705
  %715 = getelementptr inbounds ptr, ptr %682, i64 %706
  %716 = load ptr, ptr %715, align 8, !tbaa !78
  %717 = getelementptr inbounds %"class.dealii::internal::Triangulation::TriaLevel", ptr %716, i64 0, i32 4
  %718 = getelementptr inbounds %"class.dealii::internal::Triangulation::TriaLevel", ptr %716, i64 0, i32 4, i32 0, i32 0, i32 0, i32 0, i32 0, i32 1
  %719 = load ptr, ptr %718, align 8, !tbaa !90
  %720 = load ptr, ptr %717, align 8, !tbaa !92
  %721 = ptrtoint ptr %719 to i64
  %722 = ptrtoint ptr %720 to i64
  %723 = sub i64 %721, %722
  %724 = sdiv exact i64 %723, 24
  %725 = trunc i64 %724 to i32
  %726 = icmp sgt i32 %725, 0
  br i1 %726, label %748, label %740

727:                                              ; preds = %740
  %728 = getelementptr inbounds ptr, ptr %682, i64 %742
  %729 = load ptr, ptr %728, align 8, !tbaa !78
  %730 = getelementptr inbounds %"class.dealii::internal::Triangulation::TriaLevel", ptr %729, i64 0, i32 4
  %731 = getelementptr inbounds %"class.dealii::internal::Triangulation::TriaLevel", ptr %729, i64 0, i32 4, i32 0, i32 0, i32 0, i32 0, i32 0, i32 1
  %732 = load ptr, ptr %731, align 8, !tbaa !90
  %733 = load ptr, ptr %730, align 8, !tbaa !92
  %734 = ptrtoint ptr %732 to i64
  %735 = ptrtoint ptr %733 to i64
  %736 = sub i64 %734, %735
  %737 = sdiv exact i64 %736, 24
  %738 = trunc i64 %737 to i32
  %739 = icmp sgt i32 %738, 0
  br i1 %739, label %747, label %740, !llvm.loop !94

740:                                              ; preds = %714, %727
  %741 = phi i64 [ %742, %727 ], [ %706, %714 ]
  %742 = add i64 %741, 1
  %743 = trunc i64 %742 to i32
  %744 = icmp eq i64 %742, %712
  br i1 %744, label %745, label %727, !llvm.loop !94

745:                                              ; preds = %740
  store i32 %743, ptr %7, align 8, !tbaa !80
  br label %746

746:                                              ; preds = %745, %705
  store i32 -1, ptr %7, align 8, !tbaa !80
  br label %752

747:                                              ; preds = %727
  store i32 %743, ptr %7, align 8, !tbaa !80
  br label %748

748:                                              ; preds = %747, %714
  %749 = phi i32 [ %707, %714 ], [ %743, %747 ]
  %750 = phi i64 [ %706, %714 ], [ %742, %747 ]
  %751 = trunc i64 %750 to i32
  br label %752

752:                                              ; preds = %748, %746, %687
  %753 = phi i32 [ %688, %687 ], [ -1, %746 ], [ %749, %748 ]
  %754 = phi i32 [ %691, %687 ], [ -1, %746 ], [ 0, %748 ]
  %755 = phi i32 [ %689, %687 ], [ -1, %746 ], [ %751, %748 ]
  %756 = or i32 %755, %754
  %757 = icmp sgt i32 %756, -1
  br i1 %757, label %758, label %773

758:                                              ; preds = %752
  %759 = zext i32 %755 to i64
  %760 = getelementptr inbounds ptr, ptr %682, i64 %759
  %761 = load ptr, ptr %760, align 8, !tbaa !78
  %762 = getelementptr inbounds %"class.dealii::internal::Triangulation::TriaLevel", ptr %761, i64 0, i32 4, i32 0, i32 3
  %763 = load ptr, ptr %762, align 8, !tbaa !96
  %764 = lshr i32 %754, 6
  %765 = zext i32 %764 to i64
  %766 = getelementptr inbounds i64, ptr %763, i64 %765
  %767 = and i32 %754, 63
  %768 = zext i32 %767 to i64
  %769 = shl nuw i64 1, %768
  %770 = load i64, ptr %766, align 8, !tbaa !98
  %771 = and i64 %770, %769
  %772 = icmp eq i64 %771, 0
  br i1 %772, label %687, label %773

773:                                              ; preds = %752, %758
  store i32 %754, ptr %169, align 4, !tbaa !67
  %774 = icmp ne i32 %754, %36
  %775 = icmp ne i32 %753, %34
  %776 = select i1 %774, i1 true, i1 %775
  br i1 %776, label %441, label %777

777:                                              ; preds = %773, %416
  %778 = getelementptr inbounds %"class.dealii::SolutionTransfer.108", ptr %0, i64 0, i32 2
  store i32 2, ptr %778, align 4, !tbaa !147
  call void @llvm.lifetime.end.p0(i64 24, ptr nonnull %7) #15
  call void @llvm.lifetime.end.p0(i64 24, ptr nonnull %5) #15
  ret void

779:                                              ; preds = %666, %560, %551
  %780 = phi { ptr, i32 } [ %665, %666 ], [ %559, %560 ], [ %547, %551 ]
  call void @llvm.lifetime.end.p0(i64 24, ptr nonnull %7) #15
  call void @llvm.lifetime.end.p0(i64 24, ptr nonnull %5) #15
  br label %614

781:                                              ; preds = %664, %558, %556
  %782 = landingpad { ptr, i32 }
          catch ptr null
  %783 = extractvalue { ptr, i32 } %782, 0
  call void @__clang_call_terminate(ptr %783) #16
  unreachable
}

; Function Attrs: sspstrong uwtable
define linkonce_odr dso_local void @_ZNSt6vectorIN6dealii6VectorIdEESaIS2_EEC2EmRKS2_RKS3_(ptr noundef nonnull align 8 dereferenceable(24) %0, i64 noundef %1, ptr noundef nonnull align 8 dereferenceable(88) %2, ptr noundef nonnull align 1 dereferenceable(1) %3) unnamed_addr #0 comdat align 2 personality ptr @__gxx_personality_v0 {
  %5 = icmp ugt i64 %1, 104811045873349725
  br i1 %5, label %6, label %7

6:                                                ; preds = %4
  tail call void @_ZSt20__throw_length_errorPKc(ptr noundef nonnull @.str.12) #19
  unreachable

7:                                                ; preds = %4
  tail call void @llvm.memset.p0.i64(ptr noundef nonnull align 8 dereferenceable(24) %0, i8 0, i64 24, i1 false)
  %8 = icmp eq i64 %1, 0
  br i1 %8, label %9, label %11

9:                                                ; preds = %7
  %10 = getelementptr inbounds %"struct.std::_Vector_base<dealii::Vector<double>, std::allocator<dealii::Vector<double> > >::_Vector_impl_data", ptr %0, i64 0, i32 1
  tail call void @llvm.memset.p0.i64(ptr noundef nonnull align 8 dereferenceable(24) %0, i8 0, i64 24, i1 false)
  br label %47

11:                                               ; preds = %7
  %12 = mul nuw nsw i64 %1, 88
  %13 = tail call noalias noundef nonnull ptr @_Znwm(i64 noundef %12) #18
  store ptr %13, ptr %0, align 8, !tbaa !144
  %14 = getelementptr inbounds %"struct.std::_Vector_base<dealii::Vector<double>, std::allocator<dealii::Vector<double> > >::_Vector_impl_data", ptr %0, i64 0, i32 1
  store ptr %13, ptr %14, align 8, !tbaa !146
  %15 = getelementptr inbounds %"class.dealii::Vector.124", ptr %13, i64 %1
  %16 = getelementptr inbounds %"struct.std::_Vector_base<dealii::Vector<double>, std::allocator<dealii::Vector<double> > >::_Vector_impl_data", ptr %0, i64 0, i32 2
  store ptr %15, ptr %16, align 8, !tbaa !166
  br label %17

17:                                               ; preds = %11, %20
  %18 = phi ptr [ %22, %20 ], [ %13, %11 ]
  %19 = phi i64 [ %21, %20 ], [ %1, %11 ]
  invoke void @_ZN6dealii6VectorIdEC1ERKS1_(ptr noundef nonnull align 8 dereferenceable(88) %18, ptr noundef nonnull align 8 dereferenceable(88) %2)
          to label %20 unwind label %24

20:                                               ; preds = %17
  %21 = add i64 %19, -1
  %22 = getelementptr inbounds %"class.dealii::Vector.124", ptr %18, i64 1
  %23 = icmp eq i64 %21, 0
  br i1 %23, label %47, label %17

24:                                               ; preds = %17
  %25 = landingpad { ptr, i32 }
          catch ptr null
  %26 = extractvalue { ptr, i32 } %25, 0
  %27 = tail call ptr @__cxa_begin_catch(ptr %26) #15
  %28 = icmp eq ptr %18, %13
  br i1 %28, label %36, label %29

29:                                               ; preds = %24, %33
  %30 = phi ptr [ %34, %33 ], [ %13, %24 ]
  %31 = load ptr, ptr %30, align 8, !tbaa !29
  %32 = load ptr, ptr %31, align 8
  invoke void %32(ptr noundef nonnull align 8 dereferenceable(88) %30)
          to label %33 unwind label %37

33:                                               ; preds = %29
  %34 = getelementptr inbounds %"class.dealii::Vector.124", ptr %30, i64 1
  %35 = icmp eq ptr %34, %18
  br i1 %35, label %36, label %29

36:                                               ; preds = %33, %24
  invoke void @__cxa_rethrow() #19
          to label %46 unwind label %39

37:                                               ; preds = %29
  %38 = landingpad { ptr, i32 }
          cleanup
  br label %41

39:                                               ; preds = %36
  %40 = landingpad { ptr, i32 }
          cleanup
  br label %41

41:                                               ; preds = %39, %37
  %42 = phi { ptr, i32 } [ %38, %37 ], [ %40, %39 ]
  invoke void @__cxa_end_catch()
          to label %50 unwind label %43

43:                                               ; preds = %41
  %44 = landingpad { ptr, i32 }
          catch ptr null
  %45 = extractvalue { ptr, i32 } %44, 0
  tail call void @__clang_call_terminate(ptr %45) #16
  unreachable

46:                                               ; preds = %36
  unreachable

47:                                               ; preds = %20, %9
  %48 = phi ptr [ %10, %9 ], [ %14, %20 ]
  %49 = phi ptr [ null, %9 ], [ %22, %20 ]
  store ptr %49, ptr %48, align 8, !tbaa !146
  ret void

50:                                               ; preds = %41
  %51 = load ptr, ptr %0, align 8, !tbaa !144
  %52 = icmp eq ptr %51, null
  br i1 %52, label %54, label %53

53:                                               ; preds = %50
  tail call void @_ZdlPv(ptr noundef nonnull %51) #17
  br label %54

54:                                               ; preds = %53, %50
  resume { ptr, i32 } %42
}

; Function Attrs: sspstrong uwtable
define linkonce_odr dso_local void @_ZNSt6vectorIN6dealii6VectorIdEESaIS2_EED2Ev(ptr noundef nonnull align 8 dereferenceable(24) %0) unnamed_addr #0 comdat align 2 personality ptr @__gxx_personality_v0 {
  %2 = load ptr, ptr %0, align 8, !tbaa !144
  %3 = getelementptr inbounds %"struct.std::_Vector_base<dealii::Vector<double>, std::allocator<dealii::Vector<double> > >::_Vector_impl_data", ptr %0, i64 0, i32 1
  %4 = load ptr, ptr %3, align 8, !tbaa !146
  %5 = icmp eq ptr %2, %4
  br i1 %5, label %15, label %6

6:                                                ; preds = %1, %10
  %7 = phi ptr [ %11, %10 ], [ %2, %1 ]
  %8 = load ptr, ptr %7, align 8, !tbaa !29
  %9 = load ptr, ptr %8, align 8
  invoke void %9(ptr noundef nonnull align 8 dereferenceable(88) %7)
          to label %10 unwind label %20

10:                                               ; preds = %6
  %11 = getelementptr inbounds %"class.dealii::Vector.124", ptr %7, i64 1
  %12 = icmp eq ptr %11, %4
  br i1 %12, label %13, label %6

13:                                               ; preds = %10
  %14 = load ptr, ptr %0, align 8, !tbaa !144
  br label %15

15:                                               ; preds = %13, %1
  %16 = phi ptr [ %14, %13 ], [ %2, %1 ]
  %17 = icmp eq ptr %16, null
  br i1 %17, label %19, label %18

18:                                               ; preds = %15
  tail call void @_ZdlPv(ptr noundef nonnull %16) #17
  br label %19

19:                                               ; preds = %15, %18
  ret void

20:                                               ; preds = %6
  %21 = landingpad { ptr, i32 }
          cleanup
  %22 = load ptr, ptr %0, align 8, !tbaa !144
  %23 = icmp eq ptr %22, null
  br i1 %23, label %25, label %24

24:                                               ; preds = %20
  tail call void @_ZdlPv(ptr noundef nonnull %22) #17
  br label %25

25:                                               ; preds = %24, %20
  resume { ptr, i32 } %21
}

; Function Attrs: inlinehint sspstrong uwtable
define linkonce_odr dso_local void @_ZN6dealii6VectorIdED2Ev(ptr noundef nonnull align 8 dereferenceable(88) %0) unnamed_addr #4 comdat align 2 {
  store ptr getelementptr inbounds ({ [6 x ptr] }, ptr @_ZTVN6dealii6VectorIdEE, i64 0, inrange i32 0, i64 2), ptr %0, align 8, !tbaa !29
  %2 = getelementptr inbounds %"class.dealii::Vector.124", ptr %0, i64 0, i32 3
  %3 = load ptr, ptr %2, align 8, !tbaa !160
  %4 = icmp eq ptr %3, null
  br i1 %4, label %6, label %5

5:                                                ; preds = %1
  tail call void @_ZdaPv(ptr noundef nonnull %3) #17
  store ptr null, ptr %2, align 8, !tbaa !160
  br label %6

6:                                                ; preds = %5, %1
  tail call void @_ZN6dealii11SubscriptorD2Ev(ptr noundef nonnull align 8 dereferenceable(72) %0)
  ret void
}

declare void @_ZNK6dealii15DoFCellAccessorINS_10DoFHandlerILi3ELi3EEEE27get_interpolated_dof_valuesINS_6VectorIdEEdEEvRKT_RNS5_IT0_EE(ptr noundef nonnull align 8 dereferenceable(24), ptr noundef nonnull align 8 dereferenceable(88), ptr noundef nonnull align 8 dereferenceable(88)) local_unnamed_addr #3

; Function Attrs: sspstrong uwtable
define weak_odr dso_local void @_ZN6dealii16SolutionTransferILi3ENS_6VectorIdEENS_10DoFHandlerILi3ELi3EEEE37prepare_for_coarsening_and_refinementERKS2_(ptr noundef nonnull align 8 dereferenceable(120) %0, ptr noundef nonnull align 8 dereferenceable(88) %1) local_unnamed_addr #0 comdat align 2 personality ptr @__gxx_personality_v0 {
  %3 = alloca %"class.std::vector.119", align 8
  %4 = alloca %"class.std::allocator.121", align 1
  call void @llvm.lifetime.start.p0(i64 24, ptr nonnull %3) #15
  call void @llvm.lifetime.start.p0(i64 1, ptr nonnull %4) #15
  invoke void @_ZNSt6vectorIN6dealii6VectorIdEESaIS2_EEC2EmRKS2_RKS3_(ptr noundef nonnull align 8 dereferenceable(24) %3, i64 noundef 1, ptr noundef nonnull align 8 dereferenceable(88) %1, ptr noundef nonnull align 1 dereferenceable(1) %4)
          to label %5 unwind label %32

5:                                                ; preds = %2
  call void @llvm.lifetime.end.p0(i64 1, ptr nonnull %4) #15
  invoke void @_ZN6dealii16SolutionTransferILi3ENS_6VectorIdEENS_10DoFHandlerILi3ELi3EEEE37prepare_for_coarsening_and_refinementERKSt6vectorIS2_SaIS2_EE(ptr noundef nonnull align 8 dereferenceable(120) %0, ptr noundef nonnull align 8 dereferenceable(24) %3)
          to label %6 unwind label %34

6:                                                ; preds = %5
  %7 = load ptr, ptr %3, align 8, !tbaa !144
  %8 = getelementptr inbounds %"struct.std::_Vector_base<dealii::Vector<double>, std::allocator<dealii::Vector<double> > >::_Vector_impl_data", ptr %3, i64 0, i32 1
  %9 = load ptr, ptr %8, align 8, !tbaa !146
  %10 = icmp eq ptr %7, %9
  br i1 %10, label %20, label %11

11:                                               ; preds = %6, %15
  %12 = phi ptr [ %16, %15 ], [ %7, %6 ]
  %13 = load ptr, ptr %12, align 8, !tbaa !29
  %14 = load ptr, ptr %13, align 8
  invoke void %14(ptr noundef nonnull align 8 dereferenceable(88) %12)
          to label %15 unwind label %24

15:                                               ; preds = %11
  %16 = getelementptr inbounds %"class.dealii::Vector.124", ptr %12, i64 1
  %17 = icmp eq ptr %16, %9
  br i1 %17, label %18, label %11

18:                                               ; preds = %15
  %19 = load ptr, ptr %3, align 8, !tbaa !144
  br label %20

20:                                               ; preds = %18, %6
  %21 = phi ptr [ %19, %18 ], [ %7, %6 ]
  %22 = icmp eq ptr %21, null
  br i1 %22, label %31, label %23

23:                                               ; preds = %20
  call void @_ZdlPv(ptr noundef nonnull %21) #17
  br label %31

24:                                               ; preds = %11
  %25 = landingpad { ptr, i32 }
          cleanup
  %26 = load ptr, ptr %3, align 8, !tbaa !144
  %27 = icmp eq ptr %26, null
  br i1 %27, label %29, label %28

28:                                               ; preds = %24
  call void @_ZdlPv(ptr noundef nonnull %26) #17
  br label %29

29:                                               ; preds = %24, %28, %36
  %30 = phi { ptr, i32 } [ %37, %36 ], [ %25, %28 ], [ %25, %24 ]
  resume { ptr, i32 } %30

31:                                               ; preds = %20, %23
  call void @llvm.lifetime.end.p0(i64 24, ptr nonnull %3) #15
  ret void

32:                                               ; preds = %2
  %33 = landingpad { ptr, i32 }
          cleanup
  call void @llvm.lifetime.end.p0(i64 1, ptr nonnull %4) #15
  br label %36

34:                                               ; preds = %5
  %35 = landingpad { ptr, i32 }
          cleanup
  invoke void @_ZNSt6vectorIN6dealii6VectorIdEESaIS2_EED2Ev(ptr noundef nonnull align 8 dereferenceable(24) %3)
          to label %36 unwind label %38

36:                                               ; preds = %34, %32
  %37 = phi { ptr, i32 } [ %35, %34 ], [ %33, %32 ]
  call void @llvm.lifetime.end.p0(i64 24, ptr nonnull %3) #15
  br label %29

38:                                               ; preds = %34
  %39 = landingpad { ptr, i32 }
          catch ptr null
  %40 = extractvalue { ptr, i32 } %39, 0
  call void @__clang_call_terminate(ptr %40) #16
  unreachable
}

; Function Attrs: sspstrong uwtable
define weak_odr dso_local void @_ZNK6dealii16SolutionTransferILi3ENS_6VectorIdEENS_10DoFHandlerILi3ELi3EEEE18refine_interpolateERKS2_RS2_(ptr noundef nonnull align 8 dereferenceable(120) %0, ptr noundef nonnull align 8 dereferenceable(88) %1, ptr noundef nonnull align 8 dereferenceable(88) %2) local_unnamed_addr #0 comdat align 2 personality ptr @__gxx_personality_v0 {
  %4 = alloca %"class.dealii::Vector.124", align 8
  %5 = alloca %"class.dealii::TriaIterator", align 8
  %6 = alloca %"class.dealii::TriaRawIterator", align 8
  call void @llvm.lifetime.start.p0(i64 88, ptr nonnull %4) #15
  call void @_ZN6dealii11SubscriptorC2Ev(ptr noundef nonnull align 8 dereferenceable(72) %4)
  store ptr getelementptr inbounds ({ [6 x ptr] }, ptr @_ZTVN6dealii6VectorIdEE, i64 0, inrange i32 0, i64 2), ptr %4, align 8, !tbaa !29
  %7 = getelementptr inbounds %"class.dealii::Vector.124", ptr %4, i64 0, i32 1
  call void @llvm.memset.p0.i64(ptr noundef nonnull align 8 dereferenceable(16) %7, i8 0, i64 16, i1 false)
  call void @llvm.lifetime.start.p0(i64 24, ptr nonnull %5) #15
  %8 = load ptr, ptr %0, align 8, !tbaa !5
  invoke void @_ZNK6dealii10DoFHandlerILi3ELi3EE5beginEj(ptr nonnull sret(%"class.dealii::TriaIterator") align 8 %5, ptr noundef nonnull align 8 dereferenceable(168) %8, i32 noundef 0)
          to label %9 unwind label %102

9:                                                ; preds = %3
  call void @llvm.lifetime.start.p0(i64 24, ptr nonnull %6) #15
  %10 = load ptr, ptr %0, align 8, !tbaa !5
  invoke void @_ZNK6dealii10DoFHandlerILi3ELi3EE3endEv(ptr nonnull sret(%"class.dealii::TriaRawIterator") align 8 %6, ptr noundef nonnull align 8 dereferenceable(168) %10)
          to label %11 unwind label %104

11:                                               ; preds = %9
  %12 = load i32, ptr %6, align 8
  %13 = getelementptr inbounds i8, ptr %6, i64 4
  %14 = load i32, ptr %13, align 4
  call void @llvm.lifetime.end.p0(i64 24, ptr nonnull %6) #15
  %15 = getelementptr inbounds %"class.dealii::SolutionTransfer.108", ptr %0, i64 0, i32 4, i32 0, i32 0, i32 1
  %16 = getelementptr inbounds %"class.dealii::TriaAccessorBase", ptr %5, i64 0, i32 1
  %17 = load i32, ptr %16, align 4
  %18 = icmp ne i32 %17, %14
  %19 = load i32, ptr %5, align 8
  %20 = icmp ne i32 %19, %12
  %21 = select i1 %18, i1 true, i1 %20
  br i1 %21, label %22, label %258

22:                                               ; preds = %11
  %23 = getelementptr inbounds %"class.dealii::SolutionTransfer.108", ptr %0, i64 0, i32 4, i32 0, i32 0, i32 1, i32 0, i32 1
  %24 = getelementptr inbounds %"class.dealii::DoFAccessor", ptr %5, i64 0, i32 1
  %25 = getelementptr inbounds %"class.dealii::Vector.124", ptr %4, i64 0, i32 2
  %26 = getelementptr inbounds %"class.dealii::Vector.124", ptr %4, i64 0, i32 3
  %27 = getelementptr inbounds %"class.dealii::Vector.124", ptr %1, i64 0, i32 3
  %28 = getelementptr inbounds %"class.dealii::TriaAccessorBase", ptr %5, i64 0, i32 2
  br label %29

29:                                               ; preds = %22, %254
  %30 = phi i32 [ %19, %22 ], [ %234, %254 ]
  %31 = phi i32 [ %17, %22 ], [ %235, %254 ]
  %32 = load ptr, ptr %23, align 8, !tbaa !15
  %33 = icmp eq ptr %32, null
  br i1 %33, label %160, label %34

34:                                               ; preds = %29, %50
  %35 = phi ptr [ %53, %50 ], [ %32, %29 ]
  %36 = phi ptr [ %51, %50 ], [ %15, %29 ]
  %37 = getelementptr inbounds %"struct.std::_Rb_tree_node.215", ptr %35, i64 0, i32 1
  %38 = load i32, ptr %37, align 4, !tbaa !82
  %39 = icmp ult i32 %38, %30
  br i1 %39, label %48, label %40

40:                                               ; preds = %34
  %41 = icmp ult i32 %30, %38
  br i1 %41, label %46, label %42

42:                                               ; preds = %40
  %43 = getelementptr inbounds %"struct.std::_Rb_tree_node.215", ptr %35, i64 0, i32 1, i32 0, i32 1
  %44 = load i32, ptr %43, align 4, !tbaa !84
  %45 = icmp ult i32 %44, %31
  br i1 %45, label %48, label %46

46:                                               ; preds = %42, %40
  %47 = getelementptr inbounds %"struct.std::_Rb_tree_node_base", ptr %35, i64 0, i32 2
  br label %50

48:                                               ; preds = %42, %34
  %49 = getelementptr inbounds %"struct.std::_Rb_tree_node_base", ptr %35, i64 0, i32 3
  br label %50

50:                                               ; preds = %48, %46
  %51 = phi ptr [ %36, %48 ], [ %35, %46 ]
  %52 = phi ptr [ %49, %48 ], [ %47, %46 ]
  %53 = load ptr, ptr %52, align 8, !tbaa !78
  %54 = icmp eq ptr %53, null
  br i1 %54, label %55, label %34

55:                                               ; preds = %50
  %56 = icmp eq ptr %51, %15
  br i1 %56, label %160, label %57

57:                                               ; preds = %55
  %58 = getelementptr inbounds %"struct.std::_Rb_tree_node.215", ptr %51, i64 0, i32 1
  %59 = load i32, ptr %58, align 4, !tbaa !82
  %60 = icmp ult i32 %30, %59
  br i1 %60, label %160, label %61

61:                                               ; preds = %57
  %62 = icmp ult i32 %59, %30
  br i1 %62, label %67, label %63

63:                                               ; preds = %61
  %64 = getelementptr inbounds %"struct.std::_Rb_tree_node.215", ptr %51, i64 0, i32 1, i32 0, i32 1
  %65 = load i32, ptr %64, align 4, !tbaa !84
  %66 = icmp ult i32 %31, %65
  br i1 %66, label %160, label %67

67:                                               ; preds = %61, %63
  %68 = load ptr, ptr %24, align 8, !tbaa !69
  %69 = getelementptr inbounds %"class.dealii::DoFHandler", ptr %68, i64 0, i32 2
  %70 = load ptr, ptr %69, align 8, !tbaa !73
  %71 = getelementptr inbounds i8, ptr %70, i64 112
  %72 = load i32, ptr %71, align 8, !tbaa !74
  %73 = icmp eq i32 %72, 0
  br i1 %73, label %74, label %79

74:                                               ; preds = %67
  %75 = load ptr, ptr %26, align 8, !tbaa !160
  %76 = icmp eq ptr %75, null
  br i1 %76, label %78, label %77

77:                                               ; preds = %74
  call void @_ZdaPv(ptr noundef nonnull %75) #17
  br label %78

78:                                               ; preds = %74, %77
  call void @llvm.memset.p0.i64(ptr noundef nonnull align 8 dereferenceable(16) %7, i8 0, i64 16, i1 false)
  br label %156

79:                                               ; preds = %67
  %80 = load i32, ptr %25, align 4, !tbaa !162
  %81 = icmp ult i32 %80, %72
  br i1 %81, label %82, label %91

82:                                               ; preds = %79
  %83 = load ptr, ptr %26, align 8, !tbaa !160
  %84 = icmp eq ptr %83, null
  br i1 %84, label %86, label %85

85:                                               ; preds = %82
  call void @_ZdaPv(ptr noundef nonnull %83) #17
  br label %86

86:                                               ; preds = %85, %82
  %87 = zext i32 %72 to i64
  %88 = shl nuw nsw i64 %87, 3
  %89 = invoke noalias noundef nonnull ptr @_Znam(i64 noundef %88) #18
          to label %90 unwind label %106

90:                                               ; preds = %86
  store ptr %89, ptr %26, align 8, !tbaa !160
  store i32 %72, ptr %25, align 4, !tbaa !162
  br label %91

91:                                               ; preds = %90, %79
  store i32 %72, ptr %7, align 8, !tbaa !163
  %92 = getelementptr inbounds %"struct.std::_Rb_tree_node.215", ptr %51, i64 0, i32 1, i32 1
  %93 = load ptr, ptr %92, align 8, !tbaa !168
  %94 = load ptr, ptr %93, align 8, !tbaa !21
  %95 = load ptr, ptr %27, align 8, !tbaa !160
  %96 = load ptr, ptr %26, align 8, !tbaa !160
  %97 = zext i32 %72 to i64
  %98 = and i64 %97, 3
  %99 = icmp ult i32 %72, 4
  br i1 %99, label %141, label %100

100:                                              ; preds = %91
  %101 = and i64 %97, 4294967292
  br label %108

102:                                              ; preds = %3
  %103 = landingpad { ptr, i32 }
          cleanup
  br label %264

104:                                              ; preds = %9
  %105 = landingpad { ptr, i32 }
          cleanup
  call void @llvm.lifetime.end.p0(i64 24, ptr nonnull %6) #15
  br label %264

106:                                              ; preds = %86, %156
  %107 = landingpad { ptr, i32 }
          cleanup
  br label %264

108:                                              ; preds = %108, %100
  %109 = phi i64 [ 0, %100 ], [ %138, %108 ]
  %110 = phi i64 [ 0, %100 ], [ %139, %108 ]
  %111 = getelementptr inbounds i32, ptr %94, i64 %109
  %112 = load i32, ptr %111, align 4, !tbaa !77
  %113 = zext i32 %112 to i64
  %114 = getelementptr inbounds double, ptr %95, i64 %113
  %115 = load double, ptr %114, align 8, !tbaa !164
  %116 = getelementptr inbounds double, ptr %96, i64 %109
  store double %115, ptr %116, align 8, !tbaa !164
  %117 = or i64 %109, 1
  %118 = getelementptr inbounds i32, ptr %94, i64 %117
  %119 = load i32, ptr %118, align 4, !tbaa !77
  %120 = zext i32 %119 to i64
  %121 = getelementptr inbounds double, ptr %95, i64 %120
