; ModuleID = 'GTP.cpp'
source_filename = "GTP.cpp"
target datalayout = "e-m:e-p270:32:32-p271:32:32-p272:64:64-i64:64-f80:128-n8:16:32:64-S128"
target triple = "x86_64-pc-linux-gnu"

module asm ".globl _ZSt21ios_base_library_initv"

%"class.std::__cxx11::basic_string" = type { %"struct.std::__cxx11::basic_string<char>::_Alloc_hider", i64, %union.anon }
%"struct.std::__cxx11::basic_string<char>::_Alloc_hider" = type { ptr }
%union.anon = type { i64, [8 x i8] }
%"class.std::vector" = type { %"struct.std::_Vector_base" }
%"struct.std::_Vector_base" = type { %"struct.std::_Vector_base<std::__cxx11::basic_string<char>, std::allocator<std::__cxx11::basic_string<char>>>::_Vector_impl" }
%"struct.std::_Vector_base<std::__cxx11::basic_string<char>, std::allocator<std::__cxx11::basic_string<char>>>::_Vector_impl" = type { %"struct.std::_Vector_base<std::__cxx11::basic_string<char>, std::allocator<std::__cxx11::basic_string<char>>>::_Vector_impl_data" }
%"struct.std::_Vector_base<std::__cxx11::basic_string<char>, std::allocator<std::__cxx11::basic_string<char>>>::_Vector_impl_data" = type { ptr, ptr, ptr }
%"class.std::vector.27" = type { %"struct.std::_Bvector_base" }
%"struct.std::_Bvector_base" = type { %"struct.std::_Bvector_base<std::allocator<bool>>::_Bvector_impl" }
%"struct.std::_Bvector_base<std::allocator<bool>>::_Bvector_impl" = type { %"struct.std::_Bvector_base<std::allocator<bool>>::_Bvector_impl_data" }
%"struct.std::_Bvector_base<std::allocator<bool>>::_Bvector_impl_data" = type { %"struct.std::_Bit_iterator", %"struct.std::_Bit_iterator", ptr }
%"struct.std::_Bit_iterator" = type { %"struct.std::_Bit_iterator_base.base", [4 x i8] }
%"struct.std::_Bit_iterator_base.base" = type <{ ptr, i32 }>
%"struct.__gnu_cxx::__ops::_Iter_less_iter" = type { i8 }
%"struct.__gnu_cxx::__ops::_Iter_less_val" = type { i8 }
%"class.std::__cxx11::basic_istringstream" = type { %"class.std::basic_istream.base", %"class.std::__cxx11::basic_stringbuf", %"class.std::basic_ios" }
%"class.std::basic_istream.base" = type { ptr, i64 }
%"class.std::__cxx11::basic_stringbuf" = type { %"class.std::basic_streambuf", i32, %"class.std::__cxx11::basic_string" }
%"class.std::basic_streambuf" = type { ptr, ptr, ptr, ptr, ptr, ptr, ptr, %"class.std::locale" }
%"class.std::locale" = type { ptr }
%"class.std::basic_ios" = type { %"class.std::ios_base", ptr, i8, i8, ptr, ptr, ptr, ptr }
%"class.std::ios_base" = type { ptr, i64, i64, i32, i32, i32, ptr, %"struct.std::ios_base::_Words", [8 x %"struct.std::ios_base::_Words"], i32, ptr, %"class.std::locale" }
%"struct.std::ios_base::_Words" = type { ptr, i64 }
%"class.std::auto_ptr" = type { ptr }
%"class.std::vector.8" = type { %"struct.std::_Vector_base.9" }
%"struct.std::_Vector_base.9" = type { %"struct.std::_Vector_base<int, std::allocator<int>>::_Vector_impl" }
%"struct.std::_Vector_base<int, std::allocator<int>>::_Vector_impl" = type { %"struct.std::_Vector_base<int, std::allocator<int>>::_Vector_impl_data" }
%"struct.std::_Vector_base<int, std::allocator<int>>::_Vector_impl_data" = type { ptr, ptr, ptr }
%"class.std::allocator" = type { i8 }
%"class.std::auto_ptr.32" = type { ptr }
%class.GameState = type <{ %class.KoState, %"class.std::vector.20", %class.TimeControl, [4 x i8] }>
%class.KoState = type { %class.FastState.base, %"class.std::vector.15", %"class.std::vector.15" }
%class.FastState.base = type <{ %class.FullBoard, float, i32, i32, i32, i32, i32, i32, %"class.boost::array.13", %"class.boost::array.14" }>
%class.FullBoard = type { %class.FastBoard.base, i64, i64 }
%class.FastBoard.base = type <{ %"class.boost::array", %"class.boost::array", i32, i32, i32, %"class.boost::array.3", %"class.boost::array.4", %"class.boost::array.4", %"class.boost::array.4", %"class.boost::array.4", %"class.boost::array", [2 x i8], %"class.boost::array.5", %"class.boost::array.6", %"class.boost::array.7", %"class.boost::array.7", %"class.std::vector.8", i32 }>
%"class.boost::array.3" = type { [441 x i32] }
%"class.boost::array.4" = type { [442 x i16] }
%"class.boost::array" = type { [441 x i16] }
%"class.boost::array.5" = type { [4 x i32] }
%"class.boost::array.6" = type { [8 x i32] }
%"class.boost::array.7" = type { [2 x i32] }
%"class.boost::array.13" = type { [24 x i32] }
%"class.boost::array.14" = type { [24 x %"struct.std::pair"] }
%"struct.std::pair" = type { i32, i32 }
%"class.std::vector.15" = type { %"struct.std::_Vector_base.16" }
%"struct.std::_Vector_base.16" = type { %"struct.std::_Vector_base<unsigned long long, std::allocator<unsigned long long>>::_Vector_impl" }
%"struct.std::_Vector_base<unsigned long long, std::allocator<unsigned long long>>::_Vector_impl" = type { %"struct.std::_Vector_base<unsigned long long, std::allocator<unsigned long long>>::_Vector_impl_data" }
%"struct.std::_Vector_base<unsigned long long, std::allocator<unsigned long long>>::_Vector_impl_data" = type { ptr, ptr, ptr }
%"class.std::vector.20" = type { %"struct.std::_Vector_base.21" }
%"struct.std::_Vector_base.21" = type { %"struct.std::_Vector_base<KoState, std::allocator<KoState>>::_Vector_impl" }
%"struct.std::_Vector_base<KoState, std::allocator<KoState>>::_Vector_impl" = type { %"struct.std::_Vector_base<KoState, std::allocator<KoState>>::_Vector_impl_data" }
%"struct.std::_Vector_base<KoState, std::allocator<KoState>>::_Vector_impl_data" = type { ptr, ptr, ptr }
%class.TimeControl = type { i32, i32, i32, i32, %"class.boost::array.7", %"class.boost::array.7", %"class.boost::array.25", %"class.boost::array.26" }
%"class.boost::array.25" = type { [2 x i8] }
%"class.boost::array.26" = type { [2 x %class.Time] }
%class.Time = type { i32 }
%"class.std::ctype" = type <{ %"class.std::locale::facet.base", [4 x i8], ptr, i8, [7 x i8], ptr, ptr, ptr, i8, [256 x i8], [256 x i8], i8, [6 x i8] }>
%"class.std::locale::facet.base" = type <{ ptr, i32 }>
%"class.std::basic_istream" = type { ptr, i64, %"class.std::basic_ios" }
%class.UCTSearch = type <{ ptr, %class.UCTNode, i32, i32, float, i8, i8, [2 x i8], ptr, i8, i8, [6 x i8] }>
%class.UCTNode = type { ptr, ptr, i32, i32, i32, i32, i32, i8, i32, %"class.SMP::Mutex" }
%"class.SMP::Mutex" = type { i64 }
%class.FastBoard = type <{ %"class.boost::array", %"class.boost::array", i32, i32, i32, %"class.boost::array.3", %"class.boost::array.4", %"class.boost::array.4", %"class.boost::array.4", %"class.boost::array.4", %"class.boost::array", [2 x i8], %"class.boost::array.5", %"class.boost::array.6", %"class.boost::array.7", %"class.boost::array.7", %"class.std::vector.8", i32, [4 x i8] }>
%class.SGFTree = type { %class.KoState, %"class.std::vector.33", %"class.std::multimap" }
%"class.std::vector.33" = type { %"struct.std::_Vector_base.34" }
%"struct.std::_Vector_base.34" = type { %"struct.std::_Vector_base<SGFTree, std::allocator<SGFTree>>::_Vector_impl" }
%"struct.std::_Vector_base<SGFTree, std::allocator<SGFTree>>::_Vector_impl" = type { %"struct.std::_Vector_base<SGFTree, std::allocator<SGFTree>>::_Vector_impl_data" }
%"struct.std::_Vector_base<SGFTree, std::allocator<SGFTree>>::_Vector_impl_data" = type { ptr, ptr, ptr }
%"class.std::multimap" = type { %"class.std::_Rb_tree" }
%"class.std::_Rb_tree" = type { %"struct.std::_Rb_tree<std::__cxx11::basic_string<char>, std::pair<const std::__cxx11::basic_string<char>, std::__cxx11::basic_string<char>>, std::_Select1st<std::pair<const std::__cxx11::basic_string<char>, std::__cxx11::basic_string<char>>>, std::less<std::__cxx11::basic_string<char>>>::_Rb_tree_impl" }
%"struct.std::_Rb_tree<std::__cxx11::basic_string<char>, std::pair<const std::__cxx11::basic_string<char>, std::__cxx11::basic_string<char>>, std::_Select1st<std::pair<const std::__cxx11::basic_string<char>, std::__cxx11::basic_string<char>>>, std::less<std::__cxx11::basic_string<char>>>::_Rb_tree_impl" = type { %"struct.std::_Rb_tree_key_compare", %"struct.std::_Rb_tree_header" }
%"struct.std::_Rb_tree_key_compare" = type { %"struct.std::less" }
%"struct.std::less" = type { i8 }
%"struct.std::_Rb_tree_header" = type { %"struct.std::_Rb_tree_node_base", i64 }
%"struct.std::_Rb_tree_node_base" = type { i32, ptr, ptr, ptr }
%class.FastState = type <{ %class.FullBoard, float, i32, i32, i32, i32, i32, i32, %"class.boost::array.13", %"class.boost::array.14", [4 x i8] }>
%"struct.std::_Rb_tree_node" = type { %"struct.std::_Rb_tree_node_base", %"struct.__gnu_cxx::__aligned_membuf" }
%"struct.__gnu_cxx::__aligned_membuf" = type { [64 x i8] }

$_ZNSt7__cxx1112basic_stringIcSt11char_traitsIcESaIcEEC2IS3_EEPKcRKS3_ = comdat any

$__clang_call_terminate = comdat any

$_ZNSt6vectorINSt7__cxx1112basic_stringIcSt11char_traitsIcESaIcEEESaIS5_EED2Ev = comdat any

$_ZSt16__introsort_loopIN9__gnu_cxx17__normal_iteratorIPNSt7__cxx1112basic_stringIcSt11char_traitsIcESaIcEEESt6vectorIS7_SaIS7_EEEElNS0_5__ops15_Iter_less_iterEEvT_SF_T0_T1_ = comdat any

$_ZSt11__make_heapIN9__gnu_cxx17__normal_iteratorIPNSt7__cxx1112basic_stringIcSt11char_traitsIcESaIcEEESt6vectorIS7_SaIS7_EEEENS0_5__ops15_Iter_less_iterEEvT_SF_RT0_ = comdat any

$_ZSt10__pop_heapIN9__gnu_cxx17__normal_iteratorIPNSt7__cxx1112basic_stringIcSt11char_traitsIcESaIcEEESt6vectorIS7_SaIS7_EEEENS0_5__ops15_Iter_less_iterEEvT_SF_SF_RT0_ = comdat any

$_ZSt13__adjust_heapIN9__gnu_cxx17__normal_iteratorIPNSt7__cxx1112basic_stringIcSt11char_traitsIcESaIcEEESt6vectorIS7_SaIS7_EEEElS7_NS0_5__ops15_Iter_less_iterEEvT_T0_SG_T1_T2_ = comdat any

$_ZSt11__push_heapIN9__gnu_cxx17__normal_iteratorIPNSt7__cxx1112basic_stringIcSt11char_traitsIcESaIcEEESt6vectorIS7_SaIS7_EEEElS7_NS0_5__ops14_Iter_less_valEEvT_T0_SG_T1_RT2_ = comdat any

$_ZSt22__move_median_to_firstIN9__gnu_cxx17__normal_iteratorIPNSt7__cxx1112basic_stringIcSt11char_traitsIcESaIcEEESt6vectorIS7_SaIS7_EEEENS0_5__ops15_Iter_less_iterEEvT_SF_SF_SF_T0_ = comdat any

$_ZSt16__insertion_sortIN9__gnu_cxx17__normal_iteratorIPNSt7__cxx1112basic_stringIcSt11char_traitsIcESaIcEEESt6vectorIS7_SaIS7_EEEENS0_5__ops15_Iter_less_iterEEvT_SF_T0_ = comdat any

$_ZSt25__unguarded_linear_insertIN9__gnu_cxx17__normal_iteratorIPNSt7__cxx1112basic_stringIcSt11char_traitsIcESaIcEEESt6vectorIS7_SaIS7_EEEENS0_5__ops14_Val_less_iterEEvT_T0_ = comdat any

$_ZNSt6vectorINSt7__cxx1112basic_stringIcSt11char_traitsIcESaIcEEESaIS5_EE8_M_eraseEN9__gnu_cxx17__normal_iteratorIPS5_S7_EESB_ = comdat any

$_ZSt8__uniqueIN9__gnu_cxx17__normal_iteratorIPNSt7__cxx1112basic_stringIcSt11char_traitsIcESaIcEEESt6vectorIS7_SaIS7_EEEENS0_5__ops19_Iter_equal_to_iterEET_SF_SF_T0_ = comdat any

$_ZSteqIcSt11char_traitsIcESaIcEEbRKNSt7__cxx1112basic_stringIT_T0_T1_EEPKS5_ = comdat any

$_ZNSt8auto_ptrI9UCTSearchED2Ev = comdat any

$_ZN9GameStateaSEOS_ = comdat any

$_ZN9GameStateD2Ev = comdat any

$_ZNSt8auto_ptrI7SGFTreeED2Ev = comdat any

$_ZN9FastStateaSEOS_ = comdat any

$_ZNSt8_Rb_treeINSt7__cxx1112basic_stringIcSt11char_traitsIcESaIcEEESt4pairIKS5_S5_ESt10_Select1stIS8_ESt4lessIS5_ESaIS8_EE8_M_eraseEPSt13_Rb_tree_nodeIS8_E = comdat any

$_ZSt8_DestroyI7SGFTreeEvPT_ = comdat any

@_ZN3GTP10s_commandsB5cxx11E = dso_local global [26 x %"class.std::__cxx11::basic_string"] zeroinitializer, align 16
@.str = private unnamed_addr constant [17 x i8] c"protocol_version\00", align 1
@.str.1 = private unnamed_addr constant [5 x i8] c"name\00", align 1
@.str.2 = private unnamed_addr constant [8 x i8] c"version\00", align 1
@.str.3 = private unnamed_addr constant [5 x i8] c"quit\00", align 1
@.str.4 = private unnamed_addr constant [14 x i8] c"known_command\00", align 1
@.str.5 = private unnamed_addr constant [14 x i8] c"list_commands\00", align 1
@.str.6 = private unnamed_addr constant [10 x i8] c"boardsize\00", align 1
@.str.7 = private unnamed_addr constant [12 x i8] c"clear_board\00", align 1
@.str.8 = private unnamed_addr constant [5 x i8] c"komi\00", align 1
@.str.9 = private unnamed_addr constant [5 x i8] c"play\00", align 1
@.str.10 = private unnamed_addr constant [8 x i8] c"genmove\00", align 1
@.str.11 = private unnamed_addr constant [10 x i8] c"showboard\00", align 1
@.str.12 = private unnamed_addr constant [5 x i8] c"undo\00", align 1
@.str.13 = private unnamed_addr constant [12 x i8] c"final_score\00", align 1
@.str.14 = private unnamed_addr constant [18 x i8] c"final_status_list\00", align 1
@.str.15 = private unnamed_addr constant [14 x i8] c"time_settings\00", align 1
@.str.16 = private unnamed_addr constant [10 x i8] c"time_left\00", align 1
@.str.17 = private unnamed_addr constant [10 x i8] c"influence\00", align 1
@.str.18 = private unnamed_addr constant [9 x i8] c"mc_score\00", align 1
@.str.19 = private unnamed_addr constant [20 x i8] c"kgs-genmove_cleanup\00", align 1
@.str.20 = private unnamed_addr constant [15 x i8] c"fixed_handicap\00", align 1
@.str.21 = private unnamed_addr constant [20 x i8] c"place_free_handicap\00", align 1
@.str.22 = private unnamed_addr constant [18 x i8] c"set_free_handicap\00", align 1
@.str.23 = private unnamed_addr constant [8 x i8] c"loadsgf\00", align 1
@.str.24 = private unnamed_addr constant [1 x i8] zeroinitializer, align 1
@__dso_handle = external hidden global i8
@.str.25 = private unnamed_addr constant [50 x i8] c"basic_string: construction from null is not valid\00", align 1
@.str.26 = private unnamed_addr constant [2 x i8] c"\0A\00", align 1
@.str.27 = private unnamed_addr constant [26 x i8] c"vector::_M_realloc_insert\00", align 1
@.str.28 = private unnamed_addr constant [21 x i8] c"basic_string::append\00", align 1
@.str.29 = private unnamed_addr constant [2 x i8] c" \00", align 1
@.str.30 = private unnamed_addr constant [5 x i8] c"exit\00", align 1
@.str.31 = private unnamed_addr constant [2 x i8] c"#\00", align 1
@.str.32 = private unnamed_addr constant [3 x i8] c"%d\00", align 1
@.str.33 = private unnamed_addr constant [6 x i8] c"Leela\00", align 1
@.str.34 = private unnamed_addr constant [7 x i8] c"0.3.16\00", align 1
@.str.35 = private unnamed_addr constant [5 x i8] c"true\00", align 1
@.str.36 = private unnamed_addr constant [6 x i8] c"false\00", align 1
@.str.37 = private unnamed_addr constant [18 x i8] c"unacceptable size\00", align 1
@.str.38 = private unnamed_addr constant [22 x i8] c"syntax not understood\00", align 1
@.str.39 = private unnamed_addr constant [5 x i8] c"pass\00", align 1
@.str.40 = private unnamed_addr constant [7 x i8] c"resign\00", align 1
@.str.41 = private unnamed_addr constant [13 x i8] c"illegal move\00", align 1
@.str.42 = private unnamed_addr constant [2 x i8] c"w\00", align 1
@.str.43 = private unnamed_addr constant [6 x i8] c"white\00", align 1
@.str.44 = private unnamed_addr constant [2 x i8] c"b\00", align 1
@.str.45 = private unnamed_addr constant [6 x i8] c"black\00", align 1
@.str.46 = private unnamed_addr constant [13 x i8] c"syntax error\00", align 1
@.str.47 = private unnamed_addr constant [3 x i8] c"%s\00", align 1
@.str.48 = private unnamed_addr constant [12 x i8] c"cannot undo\00", align 1
@.str.49 = private unnamed_addr constant [8 x i8] c"W+%3.1f\00", align 1
@.str.50 = private unnamed_addr constant [8 x i8] c"B+%3.1f\00", align 1
@.str.51 = private unnamed_addr constant [2 x i8] c"0\00", align 1
@.str.52 = private unnamed_addr constant [6 x i8] c"alive\00", align 1
@.str.53 = private unnamed_addr constant [5 x i8] c"dead\00", align 1
@.str.54 = private unnamed_addr constant [38 x i8] c"Color in time adjust not understood.\0A\00", align 1
@.str.55 = private unnamed_addr constant [5 x i8] c"auto\00", align 1
@.str.56 = private unnamed_addr constant [6 x i8] c"bench\00", align 1
@.str.57 = private unnamed_addr constant [3 x i8] c"go\00", align 1
@.str.58 = private unnamed_addr constant [4 x i8] c"%s\0A\00", align 1
@.str.59 = private unnamed_addr constant [38 x i8] c"Not a valid number of handicap stones\00", align 1
@.str.60 = private unnamed_addr constant [16 x i8] c"unknown command\00", align 1
@_ZTTNSt7__cxx1119basic_istringstreamIcSt11char_traitsIcESaIcEEE = external unnamed_addr constant [4 x ptr], align 8
@_ZTVNSt7__cxx1115basic_stringbufIcSt11char_traitsIcESaIcEEE = external unnamed_addr constant { [16 x ptr] }, align 8
@_ZTVSt15basic_streambufIcSt11char_traitsIcEE = external unnamed_addr constant { [16 x ptr] }, align 8
@llvm.global_ctors = appending global [1 x { i32, ptr, ptr }] [{ i32, ptr, ptr } { i32 65535, ptr @_GLOBAL__sub_I_GTP.cpp, ptr null }]

; Function Attrs: mustprogress nocallback nofree nosync nounwind willreturn memory(argmem: readwrite)
declare void @llvm.lifetime.start.p0(i64 immarg, ptr nocapture) #0

; Function Attrs: sspstrong uwtable
define linkonce_odr dso_local void @_ZNSt7__cxx1112basic_stringIcSt11char_traitsIcESaIcEEC2IS3_EEPKcRKS3_(ptr noundef nonnull align 8 dereferenceable(32) %0, ptr noundef %1, ptr noundef nonnull align 1 dereferenceable(1) %2) unnamed_addr #1 comdat align 2 personality ptr @__gxx_personality_v0 {
  %4 = alloca i64, align 8
  %5 = getelementptr inbounds %"class.std::__cxx11::basic_string", ptr %0, i64 0, i32 2
  store ptr %5, ptr %0, align 8, !tbaa !6
  %6 = icmp eq ptr %1, null
  br i1 %6, label %7, label %8

7:                                                ; preds = %3
  tail call void @_ZSt19__throw_logic_errorPKc(ptr noundef nonnull @.str.25) #23
  unreachable

8:                                                ; preds = %3
  %9 = tail call i64 @strlen(ptr noundef nonnull dereferenceable(1) %1) #24
  call void @llvm.lifetime.start.p0(i64 8, ptr nonnull %4) #24
  store i64 %9, ptr %4, align 8, !tbaa !11
  %10 = icmp ugt i64 %9, 15
  br i1 %10, label %11, label %14

11:                                               ; preds = %8
  %12 = call noundef ptr @_ZNSt7__cxx1112basic_stringIcSt11char_traitsIcESaIcEE9_M_createERmm(ptr noundef nonnull align 8 dereferenceable(32) %0, ptr noundef nonnull align 8 dereferenceable(8) %4, i64 noundef 0)
  store ptr %12, ptr %0, align 8, !tbaa !13
  %13 = load i64, ptr %4, align 8, !tbaa !11
  store i64 %13, ptr %5, align 8, !tbaa !15
  br label %14

14:                                               ; preds = %8, %11
  %15 = phi ptr [ %12, %11 ], [ %5, %8 ]
  switch i64 %9, label %18 [
    i64 1, label %16
    i64 0, label %19
  ]

16:                                               ; preds = %14
  %17 = load i8, ptr %1, align 1, !tbaa !15
  store i8 %17, ptr %15, align 1, !tbaa !15
  br label %19

18:                                               ; preds = %14
  call void @llvm.memcpy.p0.p0.i64(ptr align 1 %15, ptr nonnull align 1 %1, i64 %9, i1 false)
  br label %19

19:                                               ; preds = %18, %16, %14
  %20 = load i64, ptr %4, align 8, !tbaa !11
  %21 = getelementptr inbounds %"class.std::__cxx11::basic_string", ptr %0, i64 0, i32 1
  store i64 %20, ptr %21, align 8, !tbaa !16
  %22 = load ptr, ptr %0, align 8, !tbaa !13
  %23 = getelementptr inbounds i8, ptr %22, i64 %20
  store i8 0, ptr %23, align 1, !tbaa !15
  call void @llvm.lifetime.end.p0(i64 8, ptr nonnull %4) #24
  ret void
}

declare i32 @__gxx_personality_v0(...)

; Function Attrs: mustprogress nocallback nofree nosync nounwind willreturn memory(argmem: readwrite)
declare void @llvm.lifetime.end.p0(i64 immarg, ptr nocapture) #0

; Function Attrs: nounwind sspstrong uwtable
define internal void @__cxx_global_array_dtor(ptr nocapture readnone %0) #2 section ".text.startup" personality ptr @__gxx_personality_v0 {
  %2 = load ptr, ptr getelementptr inbounds ([26 x %"class.std::__cxx11::basic_string"], ptr @_ZN3GTP10s_commandsB5cxx11E, i64 0, i64 25), align 16, !tbaa !13
  %3 = icmp eq ptr %2, getelementptr inbounds ([26 x %"class.std::__cxx11::basic_string"], ptr @_ZN3GTP10s_commandsB5cxx11E, i64 0, i64 25, i32 2)
  br i1 %3, label %4, label %7

4:                                                ; preds = %1
  %5 = load i64, ptr getelementptr inbounds ([26 x %"class.std::__cxx11::basic_string"], ptr @_ZN3GTP10s_commandsB5cxx11E, i64 0, i64 25, i32 1), align 8, !tbaa !16
  %6 = icmp ult i64 %5, 16
  tail call void @llvm.assume(i1 %6)
  br label %8

7:                                                ; preds = %1
  tail call void @_ZdlPv(ptr noundef %2) #25
  br label %8

8:                                                ; preds = %4, %7
  %9 = load ptr, ptr getelementptr inbounds ([26 x %"class.std::__cxx11::basic_string"], ptr @_ZN3GTP10s_commandsB5cxx11E, i64 0, i64 24), align 16, !tbaa !13
  %10 = icmp eq ptr %9, getelementptr inbounds ([26 x %"class.std::__cxx11::basic_string"], ptr @_ZN3GTP10s_commandsB5cxx11E, i64 0, i64 24, i32 2)
  br i1 %10, label %12, label %11

11:                                               ; preds = %8
  tail call void @_ZdlPv(ptr noundef %9) #25
  br label %15

12:                                               ; preds = %8
  %13 = load i64, ptr getelementptr inbounds ([26 x %"class.std::__cxx11::basic_string"], ptr @_ZN3GTP10s_commandsB5cxx11E, i64 0, i64 24, i32 1), align 8, !tbaa !16
  %14 = icmp ult i64 %13, 16
  tail call void @llvm.assume(i1 %14)
  br label %15

15:                                               ; preds = %12, %11
  %16 = load ptr, ptr getelementptr inbounds ([26 x %"class.std::__cxx11::basic_string"], ptr @_ZN3GTP10s_commandsB5cxx11E, i64 0, i64 23), align 16, !tbaa !13
  %17 = icmp eq ptr %16, getelementptr inbounds ([26 x %"class.std::__cxx11::basic_string"], ptr @_ZN3GTP10s_commandsB5cxx11E, i64 0, i64 23, i32 2)
  br i1 %17, label %19, label %18

18:                                               ; preds = %15
  tail call void @_ZdlPv(ptr noundef %16) #25
  br label %22

19:                                               ; preds = %15
  %20 = load i64, ptr getelementptr inbounds ([26 x %"class.std::__cxx11::basic_string"], ptr @_ZN3GTP10s_commandsB5cxx11E, i64 0, i64 23, i32 1), align 8, !tbaa !16
  %21 = icmp ult i64 %20, 16
  tail call void @llvm.assume(i1 %21)
  br label %22

22:                                               ; preds = %19, %18
  %23 = load ptr, ptr getelementptr inbounds ([26 x %"class.std::__cxx11::basic_string"], ptr @_ZN3GTP10s_commandsB5cxx11E, i64 0, i64 22), align 16, !tbaa !13
  %24 = icmp eq ptr %23, getelementptr inbounds ([26 x %"class.std::__cxx11::basic_string"], ptr @_ZN3GTP10s_commandsB5cxx11E, i64 0, i64 22, i32 2)
  br i1 %24, label %26, label %25

25:                                               ; preds = %22
  tail call void @_ZdlPv(ptr noundef %23) #25
  br label %29

26:                                               ; preds = %22
  %27 = load i64, ptr getelementptr inbounds ([26 x %"class.std::__cxx11::basic_string"], ptr @_ZN3GTP10s_commandsB5cxx11E, i64 0, i64 22, i32 1), align 8, !tbaa !16
  %28 = icmp ult i64 %27, 16
  tail call void @llvm.assume(i1 %28)
  br label %29

29:                                               ; preds = %26, %25
  %30 = load ptr, ptr getelementptr inbounds ([26 x %"class.std::__cxx11::basic_string"], ptr @_ZN3GTP10s_commandsB5cxx11E, i64 0, i64 21), align 16, !tbaa !13
  %31 = icmp eq ptr %30, getelementptr inbounds ([26 x %"class.std::__cxx11::basic_string"], ptr @_ZN3GTP10s_commandsB5cxx11E, i64 0, i64 21, i32 2)
  br i1 %31, label %33, label %32

32:                                               ; preds = %29
  tail call void @_ZdlPv(ptr noundef %30) #25
  br label %36

33:                                               ; preds = %29
  %34 = load i64, ptr getelementptr inbounds ([26 x %"class.std::__cxx11::basic_string"], ptr @_ZN3GTP10s_commandsB5cxx11E, i64 0, i64 21, i32 1), align 8, !tbaa !16
  %35 = icmp ult i64 %34, 16
  tail call void @llvm.assume(i1 %35)
  br label %36

36:                                               ; preds = %33, %32
  %37 = load ptr, ptr getelementptr inbounds ([26 x %"class.std::__cxx11::basic_string"], ptr @_ZN3GTP10s_commandsB5cxx11E, i64 0, i64 20), align 16, !tbaa !13
  %38 = icmp eq ptr %37, getelementptr inbounds ([26 x %"class.std::__cxx11::basic_string"], ptr @_ZN3GTP10s_commandsB5cxx11E, i64 0, i64 20, i32 2)
  br i1 %38, label %40, label %39

39:                                               ; preds = %36
  tail call void @_ZdlPv(ptr noundef %37) #25
  br label %43

40:                                               ; preds = %36
  %41 = load i64, ptr getelementptr inbounds ([26 x %"class.std::__cxx11::basic_string"], ptr @_ZN3GTP10s_commandsB5cxx11E, i64 0, i64 20, i32 1), align 8, !tbaa !16
  %42 = icmp ult i64 %41, 16
  tail call void @llvm.assume(i1 %42)
  br label %43

43:                                               ; preds = %40, %39
  %44 = load ptr, ptr getelementptr inbounds ([26 x %"class.std::__cxx11::basic_string"], ptr @_ZN3GTP10s_commandsB5cxx11E, i64 0, i64 19), align 16, !tbaa !13
  %45 = icmp eq ptr %44, getelementptr inbounds ([26 x %"class.std::__cxx11::basic_string"], ptr @_ZN3GTP10s_commandsB5cxx11E, i64 0, i64 19, i32 2)
  br i1 %45, label %47, label %46

46:                                               ; preds = %43
  tail call void @_ZdlPv(ptr noundef %44) #25
  br label %50

47:                                               ; preds = %43
  %48 = load i64, ptr getelementptr inbounds ([26 x %"class.std::__cxx11::basic_string"], ptr @_ZN3GTP10s_commandsB5cxx11E, i64 0, i64 19, i32 1), align 8, !tbaa !16
  %49 = icmp ult i64 %48, 16
  tail call void @llvm.assume(i1 %49)
  br label %50

50:                                               ; preds = %47, %46
  %51 = load ptr, ptr getelementptr inbounds ([26 x %"class.std::__cxx11::basic_string"], ptr @_ZN3GTP10s_commandsB5cxx11E, i64 0, i64 18), align 16, !tbaa !13
  %52 = icmp eq ptr %51, getelementptr inbounds ([26 x %"class.std::__cxx11::basic_string"], ptr @_ZN3GTP10s_commandsB5cxx11E, i64 0, i64 18, i32 2)
  br i1 %52, label %54, label %53

53:                                               ; preds = %50
  tail call void @_ZdlPv(ptr noundef %51) #25
  br label %57

54:                                               ; preds = %50
  %55 = load i64, ptr getelementptr inbounds ([26 x %"class.std::__cxx11::basic_string"], ptr @_ZN3GTP10s_commandsB5cxx11E, i64 0, i64 18, i32 1), align 8, !tbaa !16
  %56 = icmp ult i64 %55, 16
  tail call void @llvm.assume(i1 %56)
  br label %57

57:                                               ; preds = %54, %53
  %58 = load ptr, ptr getelementptr inbounds ([26 x %"class.std::__cxx11::basic_string"], ptr @_ZN3GTP10s_commandsB5cxx11E, i64 0, i64 17), align 16, !tbaa !13
  %59 = icmp eq ptr %58, getelementptr inbounds ([26 x %"class.std::__cxx11::basic_string"], ptr @_ZN3GTP10s_commandsB5cxx11E, i64 0, i64 17, i32 2)
  br i1 %59, label %61, label %60

60:                                               ; preds = %57
  tail call void @_ZdlPv(ptr noundef %58) #25
  br label %64

61:                                               ; preds = %57
  %62 = load i64, ptr getelementptr inbounds ([26 x %"class.std::__cxx11::basic_string"], ptr @_ZN3GTP10s_commandsB5cxx11E, i64 0, i64 17, i32 1), align 8, !tbaa !16
  %63 = icmp ult i64 %62, 16
  tail call void @llvm.assume(i1 %63)
  br label %64

64:                                               ; preds = %61, %60
  %65 = load ptr, ptr getelementptr inbounds ([26 x %"class.std::__cxx11::basic_string"], ptr @_ZN3GTP10s_commandsB5cxx11E, i64 0, i64 16), align 16, !tbaa !13
  %66 = icmp eq ptr %65, getelementptr inbounds ([26 x %"class.std::__cxx11::basic_string"], ptr @_ZN3GTP10s_commandsB5cxx11E, i64 0, i64 16, i32 2)
  br i1 %66, label %68, label %67

67:                                               ; preds = %64
  tail call void @_ZdlPv(ptr noundef %65) #25
  br label %71

68:                                               ; preds = %64
  %69 = load i64, ptr getelementptr inbounds ([26 x %"class.std::__cxx11::basic_string"], ptr @_ZN3GTP10s_commandsB5cxx11E, i64 0, i64 16, i32 1), align 8, !tbaa !16
  %70 = icmp ult i64 %69, 16
  tail call void @llvm.assume(i1 %70)
  br label %71

71:                                               ; preds = %68, %67
  %72 = load ptr, ptr getelementptr inbounds ([26 x %"class.std::__cxx11::basic_string"], ptr @_ZN3GTP10s_commandsB5cxx11E, i64 0, i64 15), align 16, !tbaa !13
  %73 = icmp eq ptr %72, getelementptr inbounds ([26 x %"class.std::__cxx11::basic_string"], ptr @_ZN3GTP10s_commandsB5cxx11E, i64 0, i64 15, i32 2)
  br i1 %73, label %75, label %74

74:                                               ; preds = %71
  tail call void @_ZdlPv(ptr noundef %72) #25
  br label %78

75:                                               ; preds = %71
  %76 = load i64, ptr getelementptr inbounds ([26 x %"class.std::__cxx11::basic_string"], ptr @_ZN3GTP10s_commandsB5cxx11E, i64 0, i64 15, i32 1), align 8, !tbaa !16
  %77 = icmp ult i64 %76, 16
  tail call void @llvm.assume(i1 %77)
  br label %78

78:                                               ; preds = %75, %74
  %79 = load ptr, ptr getelementptr inbounds ([26 x %"class.std::__cxx11::basic_string"], ptr @_ZN3GTP10s_commandsB5cxx11E, i64 0, i64 14), align 16, !tbaa !13
  %80 = icmp eq ptr %79, getelementptr inbounds ([26 x %"class.std::__cxx11::basic_string"], ptr @_ZN3GTP10s_commandsB5cxx11E, i64 0, i64 14, i32 2)
  br i1 %80, label %82, label %81

81:                                               ; preds = %78
  tail call void @_ZdlPv(ptr noundef %79) #25
  br label %85

82:                                               ; preds = %78
  %83 = load i64, ptr getelementptr inbounds ([26 x %"class.std::__cxx11::basic_string"], ptr @_ZN3GTP10s_commandsB5cxx11E, i64 0, i64 14, i32 1), align 8, !tbaa !16
  %84 = icmp ult i64 %83, 16
  tail call void @llvm.assume(i1 %84)
  br label %85

85:                                               ; preds = %82, %81
  %86 = load ptr, ptr getelementptr inbounds ([26 x %"class.std::__cxx11::basic_string"], ptr @_ZN3GTP10s_commandsB5cxx11E, i64 0, i64 13), align 16, !tbaa !13
  %87 = icmp eq ptr %86, getelementptr inbounds ([26 x %"class.std::__cxx11::basic_string"], ptr @_ZN3GTP10s_commandsB5cxx11E, i64 0, i64 13, i32 2)
  br i1 %87, label %89, label %88

88:                                               ; preds = %85
  tail call void @_ZdlPv(ptr noundef %86) #25
  br label %92

89:                                               ; preds = %85
  %90 = load i64, ptr getelementptr inbounds ([26 x %"class.std::__cxx11::basic_string"], ptr @_ZN3GTP10s_commandsB5cxx11E, i64 0, i64 13, i32 1), align 8, !tbaa !16
  %91 = icmp ult i64 %90, 16
  tail call void @llvm.assume(i1 %91)
  br label %92

92:                                               ; preds = %89, %88
  %93 = load ptr, ptr getelementptr inbounds ([26 x %"class.std::__cxx11::basic_string"], ptr @_ZN3GTP10s_commandsB5cxx11E, i64 0, i64 12), align 16, !tbaa !13
  %94 = icmp eq ptr %93, getelementptr inbounds ([26 x %"class.std::__cxx11::basic_string"], ptr @_ZN3GTP10s_commandsB5cxx11E, i64 0, i64 12, i32 2)
  br i1 %94, label %96, label %95

95:                                               ; preds = %92
  tail call void @_ZdlPv(ptr noundef %93) #25
  br label %99

96:                                               ; preds = %92
  %97 = load i64, ptr getelementptr inbounds ([26 x %"class.std::__cxx11::basic_string"], ptr @_ZN3GTP10s_commandsB5cxx11E, i64 0, i64 12, i32 1), align 8, !tbaa !16
  %98 = icmp ult i64 %97, 16
  tail call void @llvm.assume(i1 %98)
  br label %99

99:                                               ; preds = %96, %95
  %100 = load ptr, ptr getelementptr inbounds ([26 x %"class.std::__cxx11::basic_string"], ptr @_ZN3GTP10s_commandsB5cxx11E, i64 0, i64 11), align 16, !tbaa !13
  %101 = icmp eq ptr %100, getelementptr inbounds ([26 x %"class.std::__cxx11::basic_string"], ptr @_ZN3GTP10s_commandsB5cxx11E, i64 0, i64 11, i32 2)
  br i1 %101, label %103, label %102

102:                                              ; preds = %99
  tail call void @_ZdlPv(ptr noundef %100) #25
  br label %106

103:                                              ; preds = %99
  %104 = load i64, ptr getelementptr inbounds ([26 x %"class.std::__cxx11::basic_string"], ptr @_ZN3GTP10s_commandsB5cxx11E, i64 0, i64 11, i32 1), align 8, !tbaa !16
  %105 = icmp ult i64 %104, 16
  tail call void @llvm.assume(i1 %105)
  br label %106

106:                                              ; preds = %103, %102
  %107 = load ptr, ptr getelementptr inbounds ([26 x %"class.std::__cxx11::basic_string"], ptr @_ZN3GTP10s_commandsB5cxx11E, i64 0, i64 10), align 16, !tbaa !13
  %108 = icmp eq ptr %107, getelementptr inbounds ([26 x %"class.std::__cxx11::basic_string"], ptr @_ZN3GTP10s_commandsB5cxx11E, i64 0, i64 10, i32 2)
  br i1 %108, label %110, label %109

109:                                              ; preds = %106
  tail call void @_ZdlPv(ptr noundef %107) #25
  br label %113

110:                                              ; preds = %106
  %111 = load i64, ptr getelementptr inbounds ([26 x %"class.std::__cxx11::basic_string"], ptr @_ZN3GTP10s_commandsB5cxx11E, i64 0, i64 10, i32 1), align 8, !tbaa !16
  %112 = icmp ult i64 %111, 16
  tail call void @llvm.assume(i1 %112)
  br label %113

113:                                              ; preds = %110, %109
  %114 = load ptr, ptr getelementptr inbounds ([26 x %"class.std::__cxx11::basic_string"], ptr @_ZN3GTP10s_commandsB5cxx11E, i64 0, i64 9), align 16, !tbaa !13
  %115 = icmp eq ptr %114, getelementptr inbounds ([26 x %"class.std::__cxx11::basic_string"], ptr @_ZN3GTP10s_commandsB5cxx11E, i64 0, i64 9, i32 2)
  br i1 %115, label %117, label %116

116:                                              ; preds = %113
  tail call void @_ZdlPv(ptr noundef %114) #25
  br label %120

117:                                              ; preds = %113
  %118 = load i64, ptr getelementptr inbounds ([26 x %"class.std::__cxx11::basic_string"], ptr @_ZN3GTP10s_commandsB5cxx11E, i64 0, i64 9, i32 1), align 8, !tbaa !16
  %119 = icmp ult i64 %118, 16
  tail call void @llvm.assume(i1 %119)
  br label %120

120:                                              ; preds = %117, %116
  %121 = load ptr, ptr getelementptr inbounds ([26 x %"class.std::__cxx11::basic_string"], ptr @_ZN3GTP10s_commandsB5cxx11E, i64 0, i64 8), align 16, !tbaa !13
  %122 = icmp eq ptr %121, getelementptr inbounds ([26 x %"class.std::__cxx11::basic_string"], ptr @_ZN3GTP10s_commandsB5cxx11E, i64 0, i64 8, i32 2)
  br i1 %122, label %124, label %123

123:                                              ; preds = %120
  tail call void @_ZdlPv(ptr noundef %121) #25
  br label %127

124:                                              ; preds = %120
  %125 = load i64, ptr getelementptr inbounds ([26 x %"class.std::__cxx11::basic_string"], ptr @_ZN3GTP10s_commandsB5cxx11E, i64 0, i64 8, i32 1), align 8, !tbaa !16
  %126 = icmp ult i64 %125, 16
  tail call void @llvm.assume(i1 %126)
  br label %127

127:                                              ; preds = %124, %123
  %128 = load ptr, ptr getelementptr inbounds ([26 x %"class.std::__cxx11::basic_string"], ptr @_ZN3GTP10s_commandsB5cxx11E, i64 0, i64 7), align 16, !tbaa !13
  %129 = icmp eq ptr %128, getelementptr inbounds ([26 x %"class.std::__cxx11::basic_string"], ptr @_ZN3GTP10s_commandsB5cxx11E, i64 0, i64 7, i32 2)
  br i1 %129, label %131, label %130

130:                                              ; preds = %127
  tail call void @_ZdlPv(ptr noundef %128) #25
  br label %134

131:                                              ; preds = %127
  %132 = load i64, ptr getelementptr inbounds ([26 x %"class.std::__cxx11::basic_string"], ptr @_ZN3GTP10s_commandsB5cxx11E, i64 0, i64 7, i32 1), align 8, !tbaa !16
  %133 = icmp ult i64 %132, 16
  tail call void @llvm.assume(i1 %133)
  br label %134

134:                                              ; preds = %131, %130
  %135 = load ptr, ptr getelementptr inbounds ([26 x %"class.std::__cxx11::basic_string"], ptr @_ZN3GTP10s_commandsB5cxx11E, i64 0, i64 6), align 16, !tbaa !13
  %136 = icmp eq ptr %135, getelementptr inbounds ([26 x %"class.std::__cxx11::basic_string"], ptr @_ZN3GTP10s_commandsB5cxx11E, i64 0, i64 6, i32 2)
  br i1 %136, label %138, label %137

137:                                              ; preds = %134
  tail call void @_ZdlPv(ptr noundef %135) #25
  br label %141

138:                                              ; preds = %134
  %139 = load i64, ptr getelementptr inbounds ([26 x %"class.std::__cxx11::basic_string"], ptr @_ZN3GTP10s_commandsB5cxx11E, i64 0, i64 6, i32 1), align 8, !tbaa !16
  %140 = icmp ult i64 %139, 16
  tail call void @llvm.assume(i1 %140)
  br label %141

141:                                              ; preds = %138, %137
  %142 = load ptr, ptr getelementptr inbounds ([26 x %"class.std::__cxx11::basic_string"], ptr @_ZN3GTP10s_commandsB5cxx11E, i64 0, i64 5), align 16, !tbaa !13
  %143 = icmp eq ptr %142, getelementptr inbounds ([26 x %"class.std::__cxx11::basic_string"], ptr @_ZN3GTP10s_commandsB5cxx11E, i64 0, i64 5, i32 2)
  br i1 %143, label %145, label %144

144:                                              ; preds = %141
  tail call void @_ZdlPv(ptr noundef %142) #25
  br label %148

145:                                              ; preds = %141
  %146 = load i64, ptr getelementptr inbounds ([26 x %"class.std::__cxx11::basic_string"], ptr @_ZN3GTP10s_commandsB5cxx11E, i64 0, i64 5, i32 1), align 8, !tbaa !16
  %147 = icmp ult i64 %146, 16
  tail call void @llvm.assume(i1 %147)
  br label %148

148:                                              ; preds = %145, %144
  %149 = load ptr, ptr getelementptr inbounds ([26 x %"class.std::__cxx11::basic_string"], ptr @_ZN3GTP10s_commandsB5cxx11E, i64 0, i64 4), align 16, !tbaa !13
  %150 = icmp eq ptr %149, getelementptr inbounds ([26 x %"class.std::__cxx11::basic_string"], ptr @_ZN3GTP10s_commandsB5cxx11E, i64 0, i64 4, i32 2)
  br i1 %150, label %152, label %151

151:                                              ; preds = %148
  tail call void @_ZdlPv(ptr noundef %149) #25
  br label %155

152:                                              ; preds = %148
  %153 = load i64, ptr getelementptr inbounds ([26 x %"class.std::__cxx11::basic_string"], ptr @_ZN3GTP10s_commandsB5cxx11E, i64 0, i64 4, i32 1), align 8, !tbaa !16
  %154 = icmp ult i64 %153, 16
  tail call void @llvm.assume(i1 %154)
  br label %155

155:                                              ; preds = %152, %151
  %156 = load ptr, ptr getelementptr inbounds ([26 x %"class.std::__cxx11::basic_string"], ptr @_ZN3GTP10s_commandsB5cxx11E, i64 0, i64 3), align 16, !tbaa !13
  %157 = icmp eq ptr %156, getelementptr inbounds ([26 x %"class.std::__cxx11::basic_string"], ptr @_ZN3GTP10s_commandsB5cxx11E, i64 0, i64 3, i32 2)
  br i1 %157, label %159, label %158

158:                                              ; preds = %155
  tail call void @_ZdlPv(ptr noundef %156) #25
  br label %162

159:                                              ; preds = %155
  %160 = load i64, ptr getelementptr inbounds ([26 x %"class.std::__cxx11::basic_string"], ptr @_ZN3GTP10s_commandsB5cxx11E, i64 0, i64 3, i32 1), align 8, !tbaa !16
  %161 = icmp ult i64 %160, 16
  tail call void @llvm.assume(i1 %161)
  br label %162

162:                                              ; preds = %159, %158
  %163 = load ptr, ptr getelementptr inbounds ([26 x %"class.std::__cxx11::basic_string"], ptr @_ZN3GTP10s_commandsB5cxx11E, i64 0, i64 2), align 16, !tbaa !13
  %164 = icmp eq ptr %163, getelementptr inbounds ([26 x %"class.std::__cxx11::basic_string"], ptr @_ZN3GTP10s_commandsB5cxx11E, i64 0, i64 2, i32 2)
  br i1 %164, label %166, label %165

165:                                              ; preds = %162
  tail call void @_ZdlPv(ptr noundef %163) #25
  br label %169

166:                                              ; preds = %162
  %167 = load i64, ptr getelementptr inbounds ([26 x %"class.std::__cxx11::basic_string"], ptr @_ZN3GTP10s_commandsB5cxx11E, i64 0, i64 2, i32 1), align 8, !tbaa !16
  %168 = icmp ult i64 %167, 16
  tail call void @llvm.assume(i1 %168)
  br label %169

169:                                              ; preds = %166, %165
  %170 = load ptr, ptr getelementptr inbounds ([26 x %"class.std::__cxx11::basic_string"], ptr @_ZN3GTP10s_commandsB5cxx11E, i64 0, i64 1), align 16, !tbaa !13
  %171 = icmp eq ptr %170, getelementptr inbounds ([26 x %"class.std::__cxx11::basic_string"], ptr @_ZN3GTP10s_commandsB5cxx11E, i64 0, i64 1, i32 2)
  br i1 %171, label %173, label %172

172:                                              ; preds = %169
  tail call void @_ZdlPv(ptr noundef %170) #25
  br label %176

173:                                              ; preds = %169
  %174 = load i64, ptr getelementptr inbounds ([26 x %"class.std::__cxx11::basic_string"], ptr @_ZN3GTP10s_commandsB5cxx11E, i64 0, i64 1, i32 1), align 8, !tbaa !16
  %175 = icmp ult i64 %174, 16
  tail call void @llvm.assume(i1 %175)
  br label %176

176:                                              ; preds = %173, %172
  %177 = load ptr, ptr @_ZN3GTP10s_commandsB5cxx11E, align 16, !tbaa !13
  %178 = icmp eq ptr %177, getelementptr inbounds ([26 x %"class.std::__cxx11::basic_string"], ptr @_ZN3GTP10s_commandsB5cxx11E, i64 0, i64 0, i32 2)
  br i1 %178, label %180, label %179

179:                                              ; preds = %176
  tail call void @_ZdlPv(ptr noundef %177) #25
  br label %183

180:                                              ; preds = %176
  %181 = load i64, ptr getelementptr inbounds ([26 x %"class.std::__cxx11::basic_string"], ptr @_ZN3GTP10s_commandsB5cxx11E, i64 0, i64 0, i32 1), align 8, !tbaa !16
  %182 = icmp ult i64 %181, 16
  tail call void @llvm.assume(i1 %182)
  br label %183

183:                                              ; preds = %180, %179
  ret void
}

; Function Attrs: nofree nounwind
declare i32 @__cxa_atexit(ptr, ptr, ptr) local_unnamed_addr #3

; Function Attrs: noreturn
declare void @_ZSt19__throw_logic_errorPKc(ptr noundef) local_unnamed_addr #4

; Function Attrs: mustprogress nofree nounwind willreturn memory(argmem: read)
declare i64 @strlen(ptr nocapture noundef) local_unnamed_addr #5

declare noundef ptr @_ZNSt7__cxx1112basic_stringIcSt11char_traitsIcESaIcEE9_M_createERmm(ptr noundef nonnull align 8 dereferenceable(32), ptr noundef nonnull align 8 dereferenceable(8), i64 noundef) local_unnamed_addr #6

; Function Attrs: noinline noreturn nounwind sspstrong uwtable
define linkonce_odr hidden void @__clang_call_terminate(ptr noundef %0) local_unnamed_addr #7 comdat {
  %2 = tail call ptr @__cxa_begin_catch(ptr %0) #24
  tail call void @_ZSt9terminatev() #26
  unreachable
}

declare ptr @__cxa_begin_catch(ptr) local_unnamed_addr

declare void @_ZSt9terminatev() local_unnamed_addr

; Function Attrs: mustprogress nocallback nofree nounwind willreturn memory(argmem: readwrite)
declare void @llvm.memcpy.p0.p0.i64(ptr noalias nocapture writeonly, ptr noalias nocapture readonly, i64, i1 immarg) #8

; Function Attrs: nobuiltin nounwind
declare void @_ZdlPv(ptr noundef) local_unnamed_addr #9

; Function Attrs: sspstrong uwtable
define dso_local void @_ZN3GTP13get_life_listB5cxx11ER9GameStateb(ptr noalias sret(%"class.std::__cxx11::basic_string") align 8 %0, ptr noundef nonnull align 8 dereferenceable(8508) %1, i1 noundef zeroext %2) local_unnamed_addr #1 align 2 personality ptr @__gxx_personality_v0 {
  %4 = alloca %"class.std::vector", align 8
  %5 = alloca %"class.std::vector.27", align 8
  %6 = alloca %"class.std::__cxx11::basic_string", align 8
  %7 = alloca %"class.std::__cxx11::basic_string", align 8
  call void @llvm.lifetime.start.p0(i64 24, ptr nonnull %4) #24
  call void @llvm.memset.p0.i64(ptr noundef nonnull align 8 dereferenceable(24) %4, i8 0, i64 24, i1 false)
  %8 = getelementptr inbounds %"class.std::__cxx11::basic_string", ptr %0, i64 0, i32 2
  store ptr %8, ptr %0, align 8, !tbaa !6
  %9 = getelementptr inbounds %"class.std::__cxx11::basic_string", ptr %0, i64 0, i32 1
  store i64 0, ptr %9, align 8, !tbaa !16
  store i8 0, ptr %8, align 8, !tbaa !15
  call void @llvm.lifetime.start.p0(i64 40, ptr nonnull %5) #24
  invoke void @_ZN9FastState9mark_deadEv(ptr nonnull sret(%"class.std::vector.27") align 8 %5, ptr noundef nonnull align 8 dereferenceable(8388) %1)
          to label %10 unwind label %44

10:                                               ; preds = %3
  %11 = getelementptr inbounds %"struct.std::_Vector_base<std::__cxx11::basic_string<char>, std::allocator<std::__cxx11::basic_string<char>>>::_Vector_impl_data", ptr %4, i64 0, i32 1
  %12 = getelementptr inbounds %"struct.std::_Vector_base<std::__cxx11::basic_string<char>, std::allocator<std::__cxx11::basic_string<char>>>::_Vector_impl_data", ptr %4, i64 0, i32 2
  %13 = getelementptr inbounds %"class.std::__cxx11::basic_string", ptr %6, i64 0, i32 2
  %14 = getelementptr inbounds %"class.std::__cxx11::basic_string", ptr %6, i64 0, i32 1
  br label %15

15:                                               ; preds = %10, %53
  %16 = phi i32 [ %54, %53 ], [ 0, %10 ]
  %17 = invoke noundef i32 @_ZN9FastBoard13get_boardsizeEv(ptr noundef nonnull align 8 dereferenceable(8052) %1)
          to label %18 unwind label %46

18:                                               ; preds = %15
  %19 = icmp slt i32 %16, %17
  br i1 %19, label %48, label %20

20:                                               ; preds = %18
  %21 = load ptr, ptr %4, align 8, !tbaa !17
  %22 = load ptr, ptr %11, align 8, !tbaa !17
  %23 = icmp eq ptr %21, %22
  br i1 %23, label %194, label %24

24:                                               ; preds = %20
  %25 = ptrtoint ptr %22 to i64
  %26 = ptrtoint ptr %21 to i64
  %27 = sub i64 %25, %26
  %28 = ashr exact i64 %27, 5
  %29 = call i64 @llvm.ctlz.i64(i64 %28, i1 false), !range !18
  %30 = shl nuw nsw i64 %29, 1
  %31 = sub nsw i64 126, %30
  invoke void @_ZSt16__introsort_loopIN9__gnu_cxx17__normal_iteratorIPNSt7__cxx1112basic_stringIcSt11char_traitsIcESaIcEEESt6vectorIS7_SaIS7_EEEElNS0_5__ops15_Iter_less_iterEEvT_SF_T0_T1_(ptr %21, ptr %22, i64 noundef %31)
          to label %32 unwind label %260

32:                                               ; preds = %24
  %33 = icmp sgt i64 %27, 512
  br i1 %33, label %34, label %43

34:                                               ; preds = %32
  %35 = getelementptr inbounds %"class.std::__cxx11::basic_string", ptr %21, i64 16
  invoke void @_ZSt16__insertion_sortIN9__gnu_cxx17__normal_iteratorIPNSt7__cxx1112basic_stringIcSt11char_traitsIcESaIcEEESt6vectorIS7_SaIS7_EEEENS0_5__ops15_Iter_less_iterEEvT_SF_T0_(ptr %21, ptr nonnull %35)
          to label %36 unwind label %260

36:                                               ; preds = %34
  %37 = icmp eq ptr %35, %22
  br i1 %37, label %194, label %38

38:                                               ; preds = %36, %40
  %39 = phi ptr [ %41, %40 ], [ %35, %36 ]
  invoke void @_ZSt25__unguarded_linear_insertIN9__gnu_cxx17__normal_iteratorIPNSt7__cxx1112basic_stringIcSt11char_traitsIcESaIcEEESt6vectorIS7_SaIS7_EEEENS0_5__ops14_Val_less_iterEEvT_T0_(ptr nonnull %39)
          to label %40 unwind label %258

40:                                               ; preds = %38
  %41 = getelementptr inbounds %"class.std::__cxx11::basic_string", ptr %39, i64 1
  %42 = icmp eq ptr %41, %22
  br i1 %42, label %194, label %38, !llvm.loop !19

43:                                               ; preds = %32
  invoke void @_ZSt16__insertion_sortIN9__gnu_cxx17__normal_iteratorIPNSt7__cxx1112basic_stringIcSt11char_traitsIcESaIcEEESt6vectorIS7_SaIS7_EEEENS0_5__ops15_Iter_less_iterEEvT_SF_T0_(ptr %21, ptr %22)
          to label %194 unwind label %260

44:                                               ; preds = %3
  %45 = landingpad { ptr, i32 }
          cleanup
  br label %360

46:                                               ; preds = %15
  %47 = landingpad { ptr, i32 }
          cleanup
  br label %345

48:                                               ; preds = %18, %192
  %49 = phi i32 [ %193, %192 ], [ 0, %18 ]
  %50 = invoke noundef i32 @_ZN9FastBoard13get_boardsizeEv(ptr noundef nonnull align 8 dereferenceable(8052) %1)
          to label %51 unwind label %55

51:                                               ; preds = %48
  %52 = icmp slt i32 %49, %50
  br i1 %52, label %57, label %53

53:                                               ; preds = %51
  %54 = add nuw nsw i32 %16, 1
  br label %15, !llvm.loop !21

55:                                               ; preds = %48
  %56 = landingpad { ptr, i32 }
          cleanup
  br label %345

57:                                               ; preds = %51
  %58 = invoke noundef i32 @_ZN9FastBoard10get_vertexEii(ptr noundef nonnull align 8 dereferenceable(8052) %1, i32 noundef %16, i32 noundef %49)
          to label %59 unwind label %174

59:                                               ; preds = %57
  %60 = invoke noundef i32 @_ZN9FastBoard10get_squareEi(ptr noundef nonnull align 8 dereferenceable(8052) %1, i32 noundef %58)
          to label %61 unwind label %174

61:                                               ; preds = %59
  %62 = icmp eq i32 %60, 2
  br i1 %62, label %192, label %63

63:                                               ; preds = %61
  %64 = load ptr, ptr %5, align 8, !tbaa !22
  %65 = sdiv i32 %58, 64
  %66 = sext i32 %65 to i64
  %67 = getelementptr inbounds i64, ptr %64, i64 %66
  %68 = srem i32 %58, 64
  %69 = sext i32 %68 to i64
  %70 = icmp slt i32 %68, 0
  %71 = add nsw i64 %69, 64
  %72 = ashr i64 %69, 63
  %73 = getelementptr inbounds i64, ptr %67, i64 %72
  %74 = select i1 %70, i64 %71, i64 %69
  %75 = shl nuw i64 1, %74
  %76 = load i64, ptr %73, align 8, !tbaa !11
  %77 = and i64 %76, %75
  %78 = icmp ne i64 %77, 0
  %79 = xor i1 %78, %2
  br i1 %79, label %80, label %192

80:                                               ; preds = %63
  call void @llvm.lifetime.start.p0(i64 32, ptr nonnull %6) #24
  invoke void @_ZN9FastBoard10get_stringB5cxx11Ei(ptr nonnull sret(%"class.std::__cxx11::basic_string") align 8 %6, ptr noundef nonnull align 8 dereferenceable(8052) %1, i32 noundef %58)
          to label %81 unwind label %176

81:                                               ; preds = %80
  %82 = load ptr, ptr %11, align 8, !tbaa !17
  %83 = load ptr, ptr %12, align 8, !tbaa !25
  %84 = icmp eq ptr %82, %83
  br i1 %84, label %100, label %85

85:                                               ; preds = %81
  %86 = getelementptr inbounds %"class.std::__cxx11::basic_string", ptr %82, i64 0, i32 2
  store ptr %86, ptr %82, align 8, !tbaa !6
  %87 = load ptr, ptr %6, align 8, !tbaa !13
  %88 = icmp eq ptr %87, %13
  br i1 %88, label %89, label %93

89:                                               ; preds = %85
  %90 = load i64, ptr %14, align 8, !tbaa !16
  %91 = icmp ult i64 %90, 16
  call void @llvm.assume(i1 %91)
  %92 = add nuw nsw i64 %90, 1
  call void @llvm.memcpy.p0.p0.i64(ptr noundef nonnull align 8 dereferenceable(1) %86, ptr noundef nonnull align 8 dereferenceable(1) %13, i64 %92, i1 false)
  br label %96

93:                                               ; preds = %85
  store ptr %87, ptr %82, align 8, !tbaa !13
  %94 = load i64, ptr %13, align 8, !tbaa !15
  store i64 %94, ptr %86, align 8, !tbaa !15
  %95 = load i64, ptr %14, align 8, !tbaa !16
  br label %96

96:                                               ; preds = %89, %93
  %97 = phi i64 [ %95, %93 ], [ %90, %89 ]
  %98 = getelementptr inbounds %"class.std::__cxx11::basic_string", ptr %82, i64 0, i32 1
  store i64 %97, ptr %98, align 8, !tbaa !16
  store ptr %13, ptr %6, align 8, !tbaa !13
  store i64 0, ptr %14, align 8, !tbaa !16
  %99 = getelementptr inbounds %"class.std::__cxx11::basic_string", ptr %82, i64 1
  store ptr %99, ptr %11, align 8, !tbaa !27
  br label %169

100:                                              ; preds = %81
  %101 = load ptr, ptr %4, align 8, !tbaa !17
  %102 = ptrtoint ptr %82 to i64
  %103 = ptrtoint ptr %101 to i64
  %104 = sub i64 %102, %103
  %105 = icmp eq i64 %104, 9223372036854775776
  br i1 %105, label %106, label %108

106:                                              ; preds = %100
  invoke void @_ZSt20__throw_length_errorPKc(ptr noundef nonnull @.str.27) #23
          to label %107 unwind label %180

107:                                              ; preds = %106
  unreachable

108:                                              ; preds = %100
  %109 = ashr exact i64 %104, 5
  %110 = call i64 @llvm.umax.i64(i64 %109, i64 1)
  %111 = add i64 %110, %109
  %112 = icmp ult i64 %111, %109
  %113 = icmp ugt i64 %111, 288230376151711743
  %114 = or i1 %112, %113
  %115 = select i1 %114, i64 288230376151711743, i64 %111
  %116 = icmp eq i64 %115, 0
  br i1 %116, label %120, label %117

117:                                              ; preds = %108
  %118 = shl nuw nsw i64 %115, 5
  %119 = invoke noalias noundef nonnull ptr @_Znwm(i64 noundef %118) #27
          to label %120 unwind label %178

120:                                              ; preds = %117, %108
  %121 = phi ptr [ null, %108 ], [ %119, %117 ]
  %122 = getelementptr inbounds %"class.std::__cxx11::basic_string", ptr %121, i64 %109
  %123 = getelementptr inbounds %"class.std::__cxx11::basic_string", ptr %121, i64 %109, i32 2
  store ptr %123, ptr %122, align 8, !tbaa !6
  %124 = load ptr, ptr %6, align 8, !tbaa !13
  %125 = icmp eq ptr %124, %13
  br i1 %125, label %126, label %130

126:                                              ; preds = %120
  %127 = load i64, ptr %14, align 8, !tbaa !16
  %128 = icmp ult i64 %127, 16
  call void @llvm.assume(i1 %128)
  %129 = add nuw nsw i64 %127, 1
  call void @llvm.memcpy.p0.p0.i64(ptr noundef nonnull align 8 dereferenceable(1) %123, ptr noundef nonnull align 8 dereferenceable(1) %13, i64 %129, i1 false)
  br label %133

130:                                              ; preds = %120
  store ptr %124, ptr %122, align 8, !tbaa !13
  %131 = load i64, ptr %13, align 8, !tbaa !15
  store i64 %131, ptr %123, align 8, !tbaa !15
  %132 = load i64, ptr %14, align 8, !tbaa !16
  br label %133

133:                                              ; preds = %130, %126
  %134 = phi i64 [ %127, %126 ], [ %132, %130 ]
  %135 = getelementptr inbounds %"class.std::__cxx11::basic_string", ptr %121, i64 %109, i32 1
  store i64 %134, ptr %135, align 8, !tbaa !16
  store ptr %13, ptr %6, align 8, !tbaa !13
  store i64 0, ptr %14, align 8, !tbaa !16
  store i8 0, ptr %13, align 8, !tbaa !15
  %136 = icmp eq ptr %101, %82
  br i1 %136, label %160, label %137

137:                                              ; preds = %133, %153
  %138 = phi ptr [ %158, %153 ], [ %121, %133 ]
  %139 = phi ptr [ %157, %153 ], [ %101, %133 ]
  call void @llvm.experimental.noalias.scope.decl(metadata !28)
  call void @llvm.experimental.noalias.scope.decl(metadata !31)
  %140 = getelementptr inbounds %"class.std::__cxx11::basic_string", ptr %138, i64 0, i32 2
  store ptr %140, ptr %138, align 8, !tbaa !6, !alias.scope !28, !noalias !31
  %141 = load ptr, ptr %139, align 8, !tbaa !13, !alias.scope !31, !noalias !28
  %142 = getelementptr inbounds %"class.std::__cxx11::basic_string", ptr %139, i64 0, i32 2
  %143 = icmp eq ptr %141, %142
  br i1 %143, label %144, label %149

144:                                              ; preds = %137
  %145 = getelementptr inbounds %"class.std::__cxx11::basic_string", ptr %139, i64 0, i32 1
  %146 = load i64, ptr %145, align 8, !tbaa !16, !alias.scope !31, !noalias !28
  %147 = icmp ult i64 %146, 16
  call void @llvm.assume(i1 %147)
  %148 = add nuw nsw i64 %146, 1
  call void @llvm.memcpy.p0.p0.i64(ptr noundef nonnull align 8 dereferenceable(1) %140, ptr noundef nonnull align 8 dereferenceable(1) %141, i64 %148, i1 false)
  br label %153

149:                                              ; preds = %137
  store ptr %141, ptr %138, align 8, !tbaa !13, !alias.scope !28, !noalias !31
  %150 = load i64, ptr %142, align 8, !tbaa !15, !alias.scope !31, !noalias !28
  store i64 %150, ptr %140, align 8, !tbaa !15, !alias.scope !28, !noalias !31
  %151 = getelementptr inbounds %"class.std::__cxx11::basic_string", ptr %139, i64 0, i32 1
  %152 = load i64, ptr %151, align 8, !tbaa !16, !alias.scope !31, !noalias !28
  br label %153

153:                                              ; preds = %149, %144
  %154 = phi i64 [ %146, %144 ], [ %152, %149 ]
  %155 = getelementptr inbounds %"class.std::__cxx11::basic_string", ptr %139, i64 0, i32 1
  %156 = getelementptr inbounds %"class.std::__cxx11::basic_string", ptr %138, i64 0, i32 1
  store i64 %154, ptr %156, align 8, !tbaa !16, !alias.scope !28, !noalias !31
  store ptr %142, ptr %139, align 8, !tbaa !13, !alias.scope !31, !noalias !28
  store i64 0, ptr %155, align 8, !tbaa !16, !alias.scope !31, !noalias !28
  store i8 0, ptr %142, align 8, !tbaa !15, !alias.scope !31, !noalias !28
  %157 = getelementptr inbounds %"class.std::__cxx11::basic_string", ptr %139, i64 1
  %158 = getelementptr inbounds %"class.std::__cxx11::basic_string", ptr %138, i64 1
  %159 = icmp eq ptr %157, %82
  br i1 %159, label %160, label %137, !llvm.loop !33

160:                                              ; preds = %153, %133
  %161 = phi ptr [ %121, %133 ], [ %158, %153 ]
  %162 = getelementptr inbounds %"class.std::__cxx11::basic_string", ptr %161, i64 1
  %163 = icmp eq ptr %101, null
  br i1 %163, label %165, label %164

164:                                              ; preds = %160
  call void @_ZdlPv(ptr noundef nonnull %101) #25
  br label %165

165:                                              ; preds = %160, %164
  store ptr %121, ptr %4, align 8, !tbaa !34
  store ptr %162, ptr %11, align 8, !tbaa !27
  %166 = getelementptr inbounds %"class.std::__cxx11::basic_string", ptr %121, i64 %115
  store ptr %166, ptr %12, align 8, !tbaa !25
  %167 = load ptr, ptr %6, align 8, !tbaa !13
  %168 = icmp eq ptr %167, %13
  br i1 %168, label %169, label %172

169:                                              ; preds = %96, %165
  %170 = load i64, ptr %14, align 8, !tbaa !16
  %171 = icmp ult i64 %170, 16
  call void @llvm.assume(i1 %171)
  br label %173

172:                                              ; preds = %165
  call void @_ZdlPv(ptr noundef %167) #25
  br label %173

173:                                              ; preds = %169, %172
  call void @llvm.lifetime.end.p0(i64 32, ptr nonnull %6) #24
  br label %192

174:                                              ; preds = %59, %57
  %175 = landingpad { ptr, i32 }
          cleanup
  br label %345

176:                                              ; preds = %80
  %177 = landingpad { ptr, i32 }
          cleanup
  br label %190

178:                                              ; preds = %117
  %179 = landingpad { ptr, i32 }
          cleanup
  br label %182

180:                                              ; preds = %106
  %181 = landingpad { ptr, i32 }
          cleanup
  br label %182

182:                                              ; preds = %180, %178
  %183 = phi { ptr, i32 } [ %179, %178 ], [ %181, %180 ]
  %184 = load ptr, ptr %6, align 8, !tbaa !13
  %185 = icmp eq ptr %184, %13
  br i1 %185, label %186, label %189

186:                                              ; preds = %182
  %187 = load i64, ptr %14, align 8, !tbaa !16
  %188 = icmp ult i64 %187, 16
  call void @llvm.assume(i1 %188)
  br label %190

189:                                              ; preds = %182
  call void @_ZdlPv(ptr noundef %184) #25
  br label %190

190:                                              ; preds = %189, %186, %176
  %191 = phi { ptr, i32 } [ %177, %176 ], [ %183, %186 ], [ %183, %189 ]
  call void @llvm.lifetime.end.p0(i64 32, ptr nonnull %6) #24
  br label %345

192:                                              ; preds = %63, %173, %61
  %193 = add nuw nsw i32 %49, 1
  br label %48, !llvm.loop !35

194:                                              ; preds = %40, %36, %20, %43
  %195 = load ptr, ptr %4, align 8, !tbaa !17
  %196 = load ptr, ptr %11, align 8, !tbaa !17
  %197 = invoke ptr @_ZSt8__uniqueIN9__gnu_cxx17__normal_iteratorIPNSt7__cxx1112basic_stringIcSt11char_traitsIcESaIcEEESt6vectorIS7_SaIS7_EEEENS0_5__ops19_Iter_equal_to_iterEET_SF_SF_T0_(ptr %195, ptr %196)
          to label %198 unwind label %262

198:                                              ; preds = %194
  %199 = load ptr, ptr %11, align 8, !tbaa !17
  %200 = load ptr, ptr %4, align 8, !tbaa !17
  %201 = ptrtoint ptr %197 to i64
  %202 = ptrtoint ptr %200 to i64
  %203 = sub i64 %201, %202
  %204 = ashr exact i64 %203, 5
  %205 = getelementptr inbounds %"class.std::__cxx11::basic_string", ptr %200, i64 %204
  %206 = ptrtoint ptr %199 to i64
  %207 = sub i64 %206, %202
  %208 = ashr exact i64 %207, 5
  %209 = getelementptr inbounds %"class.std::__cxx11::basic_string", ptr %200, i64 %208
  %210 = invoke ptr @_ZNSt6vectorINSt7__cxx1112basic_stringIcSt11char_traitsIcESaIcEEESaIS5_EE8_M_eraseEN9__gnu_cxx17__normal_iteratorIPS5_S7_EESB_(ptr noundef nonnull align 8 dereferenceable(24) %4, ptr %205, ptr %209)
          to label %211 unwind label %264

211:                                              ; preds = %198
  %212 = load ptr, ptr %11, align 8, !tbaa !27
  %213 = load ptr, ptr %4, align 8, !tbaa !34
  %214 = icmp eq ptr %212, %213
  br i1 %214, label %218, label %215

215:                                              ; preds = %211
  %216 = getelementptr inbounds %"class.std::__cxx11::basic_string", ptr %7, i64 0, i32 2
  %217 = getelementptr inbounds %"class.std::__cxx11::basic_string", ptr %7, i64 0, i32 1
  br label %266

218:                                              ; preds = %321, %211
  %219 = phi ptr [ %212, %211 ], [ %324, %321 ]
  %220 = phi ptr [ %212, %211 ], [ %325, %321 ]
  %221 = load ptr, ptr %5, align 8, !tbaa !22
  %222 = icmp eq ptr %221, null
  br i1 %222, label %234, label %223

223:                                              ; preds = %218
  %224 = getelementptr inbounds %"struct.std::_Bvector_base<std::allocator<bool>>::_Bvector_impl_data", ptr %5, i64 0, i32 2
  %225 = load ptr, ptr %224, align 8, !tbaa !36
  %226 = ptrtoint ptr %225 to i64
  %227 = ptrtoint ptr %221 to i64
  %228 = sub i64 %226, %227
  %229 = ashr exact i64 %228, 3
  %230 = sub nsw i64 0, %229
  %231 = getelementptr inbounds i64, ptr %225, i64 %230
  call void @_ZdlPv(ptr noundef %231) #25
  %232 = load ptr, ptr %4, align 8, !tbaa !34
  %233 = load ptr, ptr %11, align 8, !tbaa !27
  br label %234

234:                                              ; preds = %218, %223
  %235 = phi ptr [ %219, %218 ], [ %233, %223 ]
  %236 = phi ptr [ %220, %218 ], [ %232, %223 ]
  call void @llvm.lifetime.end.p0(i64 40, ptr nonnull %5) #24
  %237 = icmp eq ptr %236, %235
  br i1 %237, label %253, label %238

238:                                              ; preds = %234, %248
  %239 = phi ptr [ %249, %248 ], [ %236, %234 ]
  %240 = load ptr, ptr %239, align 8, !tbaa !13
  %241 = getelementptr inbounds %"class.std::__cxx11::basic_string", ptr %239, i64 0, i32 2
  %242 = icmp eq ptr %240, %241
  br i1 %242, label %243, label %247

243:                                              ; preds = %238
  %244 = getelementptr inbounds %"class.std::__cxx11::basic_string", ptr %239, i64 0, i32 1
  %245 = load i64, ptr %244, align 8, !tbaa !16
  %246 = icmp ult i64 %245, 16
  call void @llvm.assume(i1 %246)
  br label %248

247:                                              ; preds = %238
  call void @_ZdlPv(ptr noundef %240) #25
  br label %248

248:                                              ; preds = %247, %243
  %249 = getelementptr inbounds %"class.std::__cxx11::basic_string", ptr %239, i64 1
  %250 = icmp eq ptr %249, %235
  br i1 %250, label %251, label %238, !llvm.loop !39

251:                                              ; preds = %248
  %252 = load ptr, ptr %4, align 8, !tbaa !34
  br label %253

253:                                              ; preds = %251, %234
  %254 = phi ptr [ %252, %251 ], [ %235, %234 ]
  %255 = icmp eq ptr %254, null
  br i1 %255, label %257, label %256

256:                                              ; preds = %253
  call void @_ZdlPv(ptr noundef nonnull %254) #25
  br label %257

257:                                              ; preds = %253, %256
  call void @llvm.lifetime.end.p0(i64 24, ptr nonnull %4) #24
  ret void

258:                                              ; preds = %38
  %259 = landingpad { ptr, i32 }
          cleanup
  br label %345

260:                                              ; preds = %24, %34, %43
  %261 = landingpad { ptr, i32 }
          cleanup
  br label %345

262:                                              ; preds = %194
  %263 = landingpad { ptr, i32 }
          cleanup
  br label %345

264:                                              ; preds = %198
  %265 = landingpad { ptr, i32 }
          cleanup
  br label %345

266:                                              ; preds = %215, %321
  %267 = phi ptr [ %213, %215 ], [ %325, %321 ]
  %268 = phi i64 [ 0, %215 ], [ %323, %321 ]
  %269 = phi i32 [ 0, %215 ], [ %322, %321 ]
  call void @llvm.lifetime.start.p0(i64 32, ptr nonnull %7) #24
  %270 = icmp ne i32 %269, 0
  %271 = select i1 %270, ptr @.str.26, ptr @.str.24
  %272 = getelementptr inbounds %"class.std::__cxx11::basic_string", ptr %267, i64 %268
  call void @llvm.experimental.noalias.scope.decl(metadata !40)
  %273 = zext i1 %270 to i64
  %274 = load ptr, ptr %272, align 8, !tbaa !13, !noalias !40
  %275 = getelementptr inbounds %"class.std::__cxx11::basic_string", ptr %267, i64 %268, i32 1
  %276 = load i64, ptr %275, align 8, !tbaa !16, !noalias !40
  store ptr %216, ptr %7, align 8, !tbaa !6, !alias.scope !43
  store i64 0, ptr %217, align 8, !tbaa !16, !alias.scope !43
  store i8 0, ptr %216, align 8, !tbaa !15, !alias.scope !43
  %277 = add i64 %276, %273
  invoke void @_ZNSt7__cxx1112basic_stringIcSt11char_traitsIcESaIcEE7reserveEm(ptr noundef nonnull align 8 dereferenceable(32) %7, i64 noundef %277)
          to label %278 unwind label %292

278:                                              ; preds = %266
  %279 = load i64, ptr %217, align 8, !tbaa !16, !alias.scope !43
  %280 = sub i64 4611686018427387903, %279
  %281 = icmp ult i64 %280, %273
  br i1 %281, label %288, label %282

282:                                              ; preds = %278
  %283 = invoke noundef nonnull align 8 dereferenceable(32) ptr @_ZNSt7__cxx1112basic_stringIcSt11char_traitsIcESaIcEE9_M_appendEPKcm(ptr noundef nonnull align 8 dereferenceable(32) %7, ptr noundef nonnull %271, i64 noundef %273)
          to label %284 unwind label %292

284:                                              ; preds = %282
  %285 = load i64, ptr %217, align 8, !tbaa !16, !alias.scope !43
  %286 = sub i64 4611686018427387903, %285
  %287 = icmp ult i64 %286, %276
  br i1 %287, label %288, label %290

288:                                              ; preds = %284, %278
  invoke void @_ZSt20__throw_length_errorPKc(ptr noundef nonnull @.str.28) #23
          to label %289 unwind label %294

289:                                              ; preds = %288
  unreachable

290:                                              ; preds = %284
  %291 = invoke noundef nonnull align 8 dereferenceable(32) ptr @_ZNSt7__cxx1112basic_stringIcSt11char_traitsIcESaIcEE9_M_appendEPKcm(ptr noundef nonnull align 8 dereferenceable(32) %7, ptr noundef %274, i64 noundef %276)
          to label %304 unwind label %292

292:                                              ; preds = %266, %282, %290
  %293 = landingpad { ptr, i32 }
          cleanup
  br label %296

294:                                              ; preds = %288
  %295 = landingpad { ptr, i32 }
          cleanup
  br label %296

296:                                              ; preds = %294, %292
  %297 = phi { ptr, i32 } [ %293, %292 ], [ %295, %294 ]
  %298 = load ptr, ptr %7, align 8, !tbaa !13, !alias.scope !43
  %299 = icmp eq ptr %298, %216
  br i1 %299, label %300, label %303

300:                                              ; preds = %296
  %301 = load i64, ptr %217, align 8, !tbaa !16, !alias.scope !43
  %302 = icmp ult i64 %301, 16
  call void @llvm.assume(i1 %302)
  br label %343

303:                                              ; preds = %296
  call void @_ZdlPv(ptr noundef %298) #25
  br label %343

304:                                              ; preds = %290
  %305 = load i64, ptr %217, align 8, !tbaa !16
  %306 = load i64, ptr %9, align 8, !tbaa !16
  %307 = sub i64 4611686018427387903, %306
  %308 = icmp ult i64 %307, %305
  br i1 %308, label %309, label %311

309:                                              ; preds = %304
  invoke void @_ZSt20__throw_length_errorPKc(ptr noundef nonnull @.str.28) #23
          to label %310 unwind label %333

310:                                              ; preds = %309
  unreachable

311:                                              ; preds = %304
  %312 = load ptr, ptr %7, align 8, !tbaa !13
  %313 = invoke noundef nonnull align 8 dereferenceable(32) ptr @_ZNSt7__cxx1112basic_stringIcSt11char_traitsIcESaIcEE9_M_appendEPKcm(ptr noundef nonnull align 8 dereferenceable(32) %0, ptr noundef %312, i64 noundef %305)
          to label %314 unwind label %331

314:                                              ; preds = %311
  %315 = load ptr, ptr %7, align 8, !tbaa !13
  %316 = icmp eq ptr %315, %216
  br i1 %316, label %317, label %320

317:                                              ; preds = %314
  %318 = load i64, ptr %217, align 8, !tbaa !16
  %319 = icmp ult i64 %318, 16
  call void @llvm.assume(i1 %319)
  br label %321

320:                                              ; preds = %314
  call void @_ZdlPv(ptr noundef %315) #25
  br label %321

321:                                              ; preds = %317, %320
  call void @llvm.lifetime.end.p0(i64 32, ptr nonnull %7) #24
  %322 = add i32 %269, 1
  %323 = zext i32 %322 to i64
  %324 = load ptr, ptr %11, align 8, !tbaa !27
  %325 = load ptr, ptr %4, align 8, !tbaa !34
  %326 = ptrtoint ptr %324 to i64
  %327 = ptrtoint ptr %325 to i64
  %328 = sub i64 %326, %327
  %329 = ashr exact i64 %328, 5
  %330 = icmp ugt i64 %329, %323
  br i1 %330, label %266, label %218, !llvm.loop !46

331:                                              ; preds = %311
  %332 = landingpad { ptr, i32 }
          cleanup
  br label %335

333:                                              ; preds = %309
  %334 = landingpad { ptr, i32 }
          cleanup
  br label %335

335:                                              ; preds = %333, %331
  %336 = phi { ptr, i32 } [ %332, %331 ], [ %334, %333 ]
  %337 = load ptr, ptr %7, align 8, !tbaa !13
  %338 = icmp eq ptr %337, %216
  br i1 %338, label %339, label %342

339:                                              ; preds = %335
  %340 = load i64, ptr %217, align 8, !tbaa !16
  %341 = icmp ult i64 %340, 16
  call void @llvm.assume(i1 %341)
  br label %343

342:                                              ; preds = %335
  call void @_ZdlPv(ptr noundef %337) #25
  br label %343

343:                                              ; preds = %342, %339, %303, %300
  %344 = phi { ptr, i32 } [ %297, %303 ], [ %297, %300 ], [ %336, %339 ], [ %336, %342 ]
  call void @llvm.lifetime.end.p0(i64 32, ptr nonnull %7) #24
  br label %345

345:                                              ; preds = %258, %260, %262, %264, %46, %174, %190, %55, %343
  %346 = phi { ptr, i32 } [ %344, %343 ], [ %47, %46 ], [ %56, %55 ], [ %191, %190 ], [ %175, %174 ], [ %265, %264 ], [ %263, %262 ], [ %259, %258 ], [ %261, %260 ]
  %347 = load ptr, ptr %5, align 8, !tbaa !22
  %348 = icmp eq ptr %347, null
  br i1 %348, label %360, label %349

349:                                              ; preds = %345
  %350 = getelementptr inbounds %"struct.std::_Bvector_base<std::allocator<bool>>::_Bvector_impl_data", ptr %5, i64 0, i32 2
  %351 = load ptr, ptr %350, align 8, !tbaa !36
  %352 = ptrtoint ptr %351 to i64
  %353 = ptrtoint ptr %347 to i64
  %354 = sub i64 %352, %353
  %355 = ashr exact i64 %354, 3
  %356 = sub nsw i64 0, %355
  %357 = getelementptr inbounds i64, ptr %351, i64 %356
  call void @_ZdlPv(ptr noundef %357) #25
  store ptr null, ptr %5, align 8
  %358 = getelementptr inbounds i8, ptr %5, i64 8
  store i32 0, ptr %358, align 8
  %359 = getelementptr inbounds i8, ptr %5, i64 16
  store ptr null, ptr %359, align 8
  br label %360

360:                                              ; preds = %349, %345, %44
  %361 = phi { ptr, i32 } [ %45, %44 ], [ %346, %345 ], [ %346, %349 ]
  call void @llvm.lifetime.end.p0(i64 40, ptr nonnull %5) #24
  %362 = load ptr, ptr %0, align 8, !tbaa !13
  %363 = icmp eq ptr %362, %8
  br i1 %363, label %364, label %367

364:                                              ; preds = %360
  %365 = load i64, ptr %9, align 8, !tbaa !16
  %366 = icmp ult i64 %365, 16
  call void @llvm.assume(i1 %366)
  br label %368

367:                                              ; preds = %360
  call void @_ZdlPv(ptr noundef %362) #25
  br label %368

368:                                              ; preds = %364, %367
  call void @_ZNSt6vectorINSt7__cxx1112basic_stringIcSt11char_traitsIcESaIcEEESaIS5_EED2Ev(ptr noundef nonnull align 8 dereferenceable(24) %4) #24
  call void @llvm.lifetime.end.p0(i64 24, ptr nonnull %4) #24
  resume { ptr, i32 } %361
}

declare void @_ZN9FastState9mark_deadEv(ptr sret(%"class.std::vector.27") align 8, ptr noundef nonnull align 8 dereferenceable(8388)) local_unnamed_addr #6

declare noundef i32 @_ZN9FastBoard13get_boardsizeEv(ptr noundef nonnull align 8 dereferenceable(8052)) local_unnamed_addr #6

declare noundef i32 @_ZN9FastBoard10get_vertexEii(ptr noundef nonnull align 8 dereferenceable(8052), i32 noundef, i32 noundef) local_unnamed_addr #6

declare noundef i32 @_ZN9FastBoard10get_squareEi(ptr noundef nonnull align 8 dereferenceable(8052), i32 noundef) local_unnamed_addr #6

declare void @_ZN9FastBoard10get_stringB5cxx11Ei(ptr sret(%"class.std::__cxx11::basic_string") align 8, ptr noundef nonnull align 8 dereferenceable(8052), i32 noundef) local_unnamed_addr #6

; Function Attrs: nounwind sspstrong uwtable
define linkonce_odr dso_local void @_ZNSt6vectorINSt7__cxx1112basic_stringIcSt11char_traitsIcESaIcEEESaIS5_EED2Ev(ptr noundef nonnull align 8 dereferenceable(24) %0) unnamed_addr #2 comdat align 2 personality ptr @__gxx_personality_v0 {
  %2 = load ptr, ptr %0, align 8, !tbaa !34
  %3 = getelementptr inbounds %"struct.std::_Vector_base<std::__cxx11::basic_string<char>, std::allocator<std::__cxx11::basic_string<char>>>::_Vector_impl_data", ptr %0, i64 0, i32 1
  %4 = load ptr, ptr %3, align 8, !tbaa !27
  %5 = icmp eq ptr %2, %4
  br i1 %5, label %21, label %6

6:                                                ; preds = %1, %16
  %7 = phi ptr [ %17, %16 ], [ %2, %1 ]
  %8 = load ptr, ptr %7, align 8, !tbaa !13
  %9 = getelementptr inbounds %"class.std::__cxx11::basic_string", ptr %7, i64 0, i32 2
  %10 = icmp eq ptr %8, %9
  br i1 %10, label %11, label %15

11:                                               ; preds = %6
  %12 = getelementptr inbounds %"class.std::__cxx11::basic_string", ptr %7, i64 0, i32 1
  %13 = load i64, ptr %12, align 8, !tbaa !16
  %14 = icmp ult i64 %13, 16
  tail call void @llvm.assume(i1 %14)
  br label %16

15:                                               ; preds = %6
  tail call void @_ZdlPv(ptr noundef %8) #25
  br label %16

16:                                               ; preds = %15, %11
  %17 = getelementptr inbounds %"class.std::__cxx11::basic_string", ptr %7, i64 1
  %18 = icmp eq ptr %17, %4
  br i1 %18, label %19, label %6, !llvm.loop !39

19:                                               ; preds = %16
  %20 = load ptr, ptr %0, align 8, !tbaa !34
  br label %21

21:                                               ; preds = %19, %1
  %22 = phi ptr [ %20, %19 ], [ %2, %1 ]
  %23 = icmp eq ptr %22, null
  br i1 %23, label %25, label %24

24:                                               ; preds = %21
  tail call void @_ZdlPv(ptr noundef nonnull %22) #25
  br label %25

25:                                               ; preds = %21, %24
  ret void
}

; Function Attrs: noreturn
declare void @_ZSt20__throw_length_errorPKc(ptr noundef) local_unnamed_addr #4

; Function Attrs: nobuiltin allocsize(0)
declare noundef nonnull ptr @_Znwm(i64 noundef) local_unnamed_addr #10

; Function Attrs: sspstrong uwtable
define linkonce_odr dso_local void @_ZSt16__introsort_loopIN9__gnu_cxx17__normal_iteratorIPNSt7__cxx1112basic_stringIcSt11char_traitsIcESaIcEEESt6vectorIS7_SaIS7_EEEElNS0_5__ops15_Iter_less_iterEEvT_SF_T0_T1_(ptr %0, ptr %1, i64 noundef %2) local_unnamed_addr #1 comdat personality ptr @__gxx_personality_v0 {
  %4 = alloca %"struct.__gnu_cxx::__ops::_Iter_less_iter", align 1
  %5 = alloca %"struct.__gnu_cxx::__ops::_Iter_less_iter", align 1
  %6 = ptrtoint ptr %0 to i64
  %7 = ptrtoint ptr %1 to i64
  %8 = sub i64 %7, %6
  %9 = icmp sgt i64 %8, 512
  br i1 %9, label %10, label %82

10:                                               ; preds = %3
  %11 = getelementptr inbounds %"class.std::__cxx11::basic_string", ptr %0, i64 1
  %12 = getelementptr inbounds %"class.std::__cxx11::basic_string", ptr %0, i64 0, i32 1
  br label %13

13:                                               ; preds = %10, %77
  %14 = phi i64 [ %8, %10 ], [ %80, %77 ]
  %15 = phi i64 [ %2, %10 ], [ %78, %77 ]
  %16 = phi ptr [ %1, %10 ], [ %35, %77 ]
  %17 = icmp eq i64 %15, 0
  br i1 %17, label %18, label %26

18:                                               ; preds = %13
  call void @llvm.lifetime.start.p0(i64 1, ptr nonnull %5)
  call void @llvm.lifetime.start.p0(i64 1, ptr nonnull %4)
  call void @_ZSt11__make_heapIN9__gnu_cxx17__normal_iteratorIPNSt7__cxx1112basic_stringIcSt11char_traitsIcESaIcEEESt6vectorIS7_SaIS7_EEEENS0_5__ops15_Iter_less_iterEEvT_SF_RT0_(ptr %0, ptr %16, ptr noundef nonnull align 1 dereferenceable(1) %4)
  call void @llvm.lifetime.end.p0(i64 1, ptr nonnull %4)
  br label %19

19:                                               ; preds = %18, %19
  %20 = phi ptr [ %21, %19 ], [ %16, %18 ]
  %21 = getelementptr inbounds %"class.std::__cxx11::basic_string", ptr %20, i64 -1
  call void @_ZSt10__pop_heapIN9__gnu_cxx17__normal_iteratorIPNSt7__cxx1112basic_stringIcSt11char_traitsIcESaIcEEESt6vectorIS7_SaIS7_EEEENS0_5__ops15_Iter_less_iterEEvT_SF_SF_RT0_(ptr %0, ptr nonnull %21, ptr nonnull %21, ptr noundef nonnull align 1 dereferenceable(1) %5)
  %22 = ptrtoint ptr %21 to i64
  %23 = sub i64 %22, %6
  %24 = icmp sgt i64 %23, 32
  br i1 %24, label %19, label %25, !llvm.loop !47

25:                                               ; preds = %19
  call void @llvm.lifetime.end.p0(i64 1, ptr nonnull %5)
  br label %82

26:                                               ; preds = %13
  %27 = lshr i64 %14, 6
  %28 = getelementptr inbounds %"class.std::__cxx11::basic_string", ptr %0, i64 %27
  %29 = getelementptr inbounds %"class.std::__cxx11::basic_string", ptr %16, i64 -1
  tail call void @_ZSt22__move_median_to_firstIN9__gnu_cxx17__normal_iteratorIPNSt7__cxx1112basic_stringIcSt11char_traitsIcESaIcEEESt6vectorIS7_SaIS7_EEEENS0_5__ops15_Iter_less_iterEEvT_SF_SF_SF_T0_(ptr %0, ptr nonnull %11, ptr %28, ptr nonnull %29)
  br label %30

30:                                               ; preds = %76, %26
  %31 = phi ptr [ %11, %26 ], [ %53, %76 ]
  %32 = phi ptr [ %16, %26 ], [ %56, %76 ]
  %33 = load i64, ptr %12, align 8, !tbaa !16
  br label %34

34:                                               ; preds = %50, %30
  %35 = phi ptr [ %31, %30 ], [ %53, %50 ]
  %36 = getelementptr inbounds %"class.std::__cxx11::basic_string", ptr %35, i64 0, i32 1
  %37 = load i64, ptr %36, align 8, !tbaa !16
  %38 = tail call i64 @llvm.umin.i64(i64 %33, i64 %37)
  %39 = icmp eq i64 %38, 0
  br i1 %39, label %45, label %40

40:                                               ; preds = %34
  %41 = load ptr, ptr %0, align 8, !tbaa !13
  %42 = load ptr, ptr %35, align 8, !tbaa !13
  %43 = tail call i32 @memcmp(ptr noundef %42, ptr noundef %41, i64 noundef %38) #24
  %44 = icmp eq i32 %43, 0
  br i1 %44, label %45, label %50

45:                                               ; preds = %40, %34
  %46 = sub i64 %37, %33
  %47 = tail call i64 @llvm.smax.i64(i64 %46, i64 -2147483648)
  %48 = tail call i64 @llvm.smin.i64(i64 %47, i64 2147483647)
  %49 = trunc i64 %48 to i32
  br label %50

50:                                               ; preds = %45, %40
  %51 = phi i32 [ %43, %40 ], [ %49, %45 ]
  %52 = icmp slt i32 %51, 0
  %53 = getelementptr inbounds %"class.std::__cxx11::basic_string", ptr %35, i64 1
  br i1 %52, label %34, label %54, !llvm.loop !48

54:                                               ; preds = %50, %71
  %55 = phi ptr [ %56, %71 ], [ %32, %50 ]
  %56 = getelementptr inbounds %"class.std::__cxx11::basic_string", ptr %55, i64 -1
  %57 = getelementptr %"class.std::__cxx11::basic_string", ptr %55, i64 -1, i32 1
  %58 = load i64, ptr %57, align 8, !tbaa !16
  %59 = tail call i64 @llvm.umin.i64(i64 %58, i64 %33)
  %60 = icmp eq i64 %59, 0
  br i1 %60, label %66, label %61

61:                                               ; preds = %54
  %62 = load ptr, ptr %56, align 8, !tbaa !13
  %63 = load ptr, ptr %0, align 8, !tbaa !13
  %64 = tail call i32 @memcmp(ptr noundef %63, ptr noundef %62, i64 noundef %59) #24
  %65 = icmp eq i32 %64, 0
  br i1 %65, label %66, label %71

66:                                               ; preds = %61, %54
  %67 = sub i64 %33, %58
  %68 = tail call i64 @llvm.smax.i64(i64 %67, i64 -2147483648)
  %69 = tail call i64 @llvm.smin.i64(i64 %68, i64 2147483647)
  %70 = trunc i64 %69 to i32
  br label %71

71:                                               ; preds = %66, %61
  %72 = phi i32 [ %64, %61 ], [ %70, %66 ]
  %73 = icmp slt i32 %72, 0
  br i1 %73, label %54, label %74, !llvm.loop !49

74:                                               ; preds = %71
  %75 = icmp ult ptr %35, %56
  br i1 %75, label %76, label %77

76:                                               ; preds = %74
  tail call void @_ZNSt7__cxx1112basic_stringIcSt11char_traitsIcESaIcEE4swapERS4_(ptr noundef nonnull align 8 dereferenceable(32) %35, ptr noundef nonnull align 8 dereferenceable(32) %56) #24
  br label %30, !llvm.loop !50

77:                                               ; preds = %74
  %78 = add nsw i64 %15, -1
  tail call void @_ZSt16__introsort_loopIN9__gnu_cxx17__normal_iteratorIPNSt7__cxx1112basic_stringIcSt11char_traitsIcESaIcEEESt6vectorIS7_SaIS7_EEEElNS0_5__ops15_Iter_less_iterEEvT_SF_T0_T1_(ptr %35, ptr %16, i64 noundef %78)
  %79 = ptrtoint ptr %35 to i64
  %80 = sub i64 %79, %6
  %81 = icmp sgt i64 %80, 512
  br i1 %81, label %13, label %82, !llvm.loop !51

82:                                               ; preds = %77, %3, %25
  ret void
}

; Function Attrs: sspstrong uwtable
define linkonce_odr dso_local void @_ZSt11__make_heapIN9__gnu_cxx17__normal_iteratorIPNSt7__cxx1112basic_stringIcSt11char_traitsIcESaIcEEESt6vectorIS7_SaIS7_EEEENS0_5__ops15_Iter_less_iterEEvT_SF_RT0_(ptr %0, ptr %1, ptr noundef nonnull align 1 dereferenceable(1) %2) local_unnamed_addr #1 comdat personality ptr @__gxx_personality_v0 {
  %4 = alloca %"class.std::__cxx11::basic_string", align 8
  %5 = alloca %"class.std::__cxx11::basic_string", align 8
  %6 = ptrtoint ptr %1 to i64
  %7 = ptrtoint ptr %0 to i64
  %8 = sub i64 %6, %7
  %9 = ashr exact i64 %8, 5
  %10 = icmp slt i64 %8, 64
  br i1 %10, label %77, label %11

11:                                               ; preds = %3
  %12 = add nsw i64 %9, -2
  %13 = lshr i64 %12, 1
  %14 = getelementptr inbounds %"class.std::__cxx11::basic_string", ptr %4, i64 0, i32 2
  %15 = getelementptr inbounds %"class.std::__cxx11::basic_string", ptr %4, i64 0, i32 1
  %16 = getelementptr inbounds %"class.std::__cxx11::basic_string", ptr %5, i64 0, i32 2
  %17 = getelementptr inbounds %"class.std::__cxx11::basic_string", ptr %5, i64 0, i32 1
  br label %18

18:                                               ; preds = %60, %11
  %19 = phi i64 [ %13, %11 ], [ %53, %60 ]
  call void @llvm.lifetime.start.p0(i64 32, ptr nonnull %4) #24
  %20 = getelementptr inbounds %"class.std::__cxx11::basic_string", ptr %0, i64 %19
  store ptr %14, ptr %4, align 8, !tbaa !6
  %21 = load ptr, ptr %20, align 8, !tbaa !13
  %22 = getelementptr inbounds %"class.std::__cxx11::basic_string", ptr %0, i64 %19, i32 2
  %23 = icmp eq ptr %21, %22
  br i1 %23, label %24, label %29

24:                                               ; preds = %18
  %25 = getelementptr inbounds %"class.std::__cxx11::basic_string", ptr %0, i64 %19, i32 1
  %26 = load i64, ptr %25, align 8, !tbaa !16
  %27 = icmp ult i64 %26, 16
  call void @llvm.assume(i1 %27)
  %28 = add nuw nsw i64 %26, 1
  call void @llvm.memcpy.p0.p0.i64(ptr noundef nonnull align 8 dereferenceable(1) %14, ptr noundef nonnull align 8 dereferenceable(1) %21, i64 %28, i1 false)
  br label %33

29:                                               ; preds = %18
  store ptr %21, ptr %4, align 8, !tbaa !13
  %30 = load i64, ptr %22, align 8, !tbaa !15
  store i64 %30, ptr %14, align 8, !tbaa !15
  %31 = getelementptr inbounds %"class.std::__cxx11::basic_string", ptr %0, i64 %19, i32 1
  %32 = load i64, ptr %31, align 8, !tbaa !16
  br label %33

33:                                               ; preds = %24, %29
  %34 = phi ptr [ %14, %24 ], [ %21, %29 ]
  %35 = phi i64 [ %26, %24 ], [ %32, %29 ]
  %36 = getelementptr inbounds %"class.std::__cxx11::basic_string", ptr %0, i64 %19, i32 1
  store ptr %22, ptr %20, align 8, !tbaa !13
  store i64 0, ptr %36, align 8, !tbaa !16
  store i8 0, ptr %22, align 8, !tbaa !15
  store ptr %16, ptr %5, align 8, !tbaa !6
  %37 = icmp eq ptr %34, %14
  br i1 %37, label %38, label %41

38:                                               ; preds = %33
  %39 = icmp ult i64 %35, 16
  call void @llvm.assume(i1 %39)
  %40 = add nuw nsw i64 %35, 1
  call void @llvm.memcpy.p0.p0.i64(ptr noundef nonnull align 8 dereferenceable(1) %16, ptr noundef nonnull align 8 dereferenceable(1) %14, i64 %40, i1 false)
  br label %43

41:                                               ; preds = %33
  store ptr %34, ptr %5, align 8, !tbaa !13
  %42 = load i64, ptr %14, align 8, !tbaa !15
  store i64 %42, ptr %16, align 8, !tbaa !15
  br label %43

43:                                               ; preds = %38, %41
  store i64 %35, ptr %17, align 8, !tbaa !16
  store ptr %14, ptr %4, align 8, !tbaa !13
  store i64 0, ptr %15, align 8, !tbaa !16
  store i8 0, ptr %14, align 8, !tbaa !15
  invoke void @_ZSt13__adjust_heapIN9__gnu_cxx17__normal_iteratorIPNSt7__cxx1112basic_stringIcSt11char_traitsIcESaIcEEESt6vectorIS7_SaIS7_EEEElS7_NS0_5__ops15_Iter_less_iterEEvT_T0_SG_T1_T2_(ptr nonnull %0, i64 noundef %19, i64 noundef %9, ptr noundef nonnull %5)
          to label %44 unwind label %61

44:                                               ; preds = %43
  %45 = load ptr, ptr %5, align 8, !tbaa !13
  %46 = icmp eq ptr %45, %16
  br i1 %46, label %47, label %50

47:                                               ; preds = %44
  %48 = load i64, ptr %17, align 8, !tbaa !16
  %49 = icmp ult i64 %48, 16
  call void @llvm.assume(i1 %49)
  br label %51

50:                                               ; preds = %44
  call void @_ZdlPv(ptr noundef %45) #25
  br label %51

51:                                               ; preds = %47, %50
  %52 = icmp eq i64 %19, 0
  %53 = add nsw i64 %19, -1
  %54 = load ptr, ptr %4, align 8, !tbaa !13
  %55 = icmp eq ptr %54, %14
  br i1 %55, label %56, label %59

56:                                               ; preds = %51
  %57 = load i64, ptr %15, align 8, !tbaa !16
  %58 = icmp ult i64 %57, 16
  call void @llvm.assume(i1 %58)
  br label %60

59:                                               ; preds = %51
  call void @_ZdlPv(ptr noundef %54) #25
  br label %60

60:                                               ; preds = %56, %59
  call void @llvm.lifetime.end.p0(i64 32, ptr nonnull %4) #24
  br i1 %52, label %77, label %18, !llvm.loop !52

61:                                               ; preds = %43
  %62 = landingpad { ptr, i32 }
          cleanup
  %63 = load ptr, ptr %5, align 8, !tbaa !13
  %64 = icmp eq ptr %63, %16
  br i1 %64, label %65, label %68

65:                                               ; preds = %61
  %66 = load i64, ptr %17, align 8, !tbaa !16
  %67 = icmp ult i64 %66, 16
  call void @llvm.assume(i1 %67)
  br label %69

68:                                               ; preds = %61
  call void @_ZdlPv(ptr noundef %63) #25
  br label %69

69:                                               ; preds = %65, %68
  %70 = load ptr, ptr %4, align 8, !tbaa !13
  %71 = icmp eq ptr %70, %14
  br i1 %71, label %72, label %75

72:                                               ; preds = %69
  %73 = load i64, ptr %15, align 8, !tbaa !16
  %74 = icmp ult i64 %73, 16
  call void @llvm.assume(i1 %74)
  br label %76

75:                                               ; preds = %69
  call void @_ZdlPv(ptr noundef %70) #25
  br label %76

76:                                               ; preds = %72, %75
  call void @llvm.lifetime.end.p0(i64 32, ptr nonnull %4) #24
  resume { ptr, i32 } %62

77:                                               ; preds = %60, %3
  ret void
}

; Function Attrs: inlinehint sspstrong uwtable
define linkonce_odr dso_local void @_ZSt10__pop_heapIN9__gnu_cxx17__normal_iteratorIPNSt7__cxx1112basic_stringIcSt11char_traitsIcESaIcEEESt6vectorIS7_SaIS7_EEEENS0_5__ops15_Iter_less_iterEEvT_SF_SF_RT0_(ptr %0, ptr %1, ptr %2, ptr noundef nonnull align 1 dereferenceable(1) %3) local_unnamed_addr #11 comdat personality ptr @__gxx_personality_v0 {
  %5 = alloca %"class.std::__cxx11::basic_string", align 8
  %6 = alloca %"class.std::__cxx11::basic_string", align 8
  call void @llvm.lifetime.start.p0(i64 32, ptr nonnull %5) #24
  %7 = getelementptr inbounds %"class.std::__cxx11::basic_string", ptr %5, i64 0, i32 2
  store ptr %7, ptr %5, align 8, !tbaa !6
  %8 = load ptr, ptr %2, align 8, !tbaa !13
  %9 = getelementptr inbounds %"class.std::__cxx11::basic_string", ptr %2, i64 0, i32 2
  %10 = icmp eq ptr %8, %9
  br i1 %10, label %11, label %16

11:                                               ; preds = %4
  %12 = getelementptr inbounds %"class.std::__cxx11::basic_string", ptr %2, i64 0, i32 1
  %13 = load i64, ptr %12, align 8, !tbaa !16
  %14 = icmp ult i64 %13, 16
  call void @llvm.assume(i1 %14)
  %15 = add nuw nsw i64 %13, 1
  call void @llvm.memcpy.p0.p0.i64(ptr noundef nonnull align 8 dereferenceable(1) %7, ptr noundef nonnull align 8 dereferenceable(1) %8, i64 %15, i1 false)
  br label %20

16:                                               ; preds = %4
  store ptr %8, ptr %5, align 8, !tbaa !13
  %17 = load i64, ptr %9, align 8, !tbaa !15
  store i64 %17, ptr %7, align 8, !tbaa !15
  %18 = getelementptr inbounds %"class.std::__cxx11::basic_string", ptr %2, i64 0, i32 1
  %19 = load i64, ptr %18, align 8, !tbaa !16
  br label %20

20:                                               ; preds = %16, %11
  %21 = phi i64 [ %19, %16 ], [ %13, %11 ]
  %22 = getelementptr inbounds %"class.std::__cxx11::basic_string", ptr %2, i64 0, i32 1
  %23 = getelementptr inbounds %"class.std::__cxx11::basic_string", ptr %5, i64 0, i32 1
  store i64 %21, ptr %23, align 8, !tbaa !16
  store ptr %9, ptr %2, align 8, !tbaa !13
  store i64 0, ptr %22, align 8, !tbaa !16
  store i8 0, ptr %9, align 8, !tbaa !15
  %24 = load ptr, ptr %0, align 8, !tbaa !13
  %25 = getelementptr inbounds %"class.std::__cxx11::basic_string", ptr %0, i64 0, i32 2
  %26 = icmp eq ptr %24, %25
  br i1 %26, label %27, label %40

27:                                               ; preds = %20
  %28 = getelementptr inbounds %"class.std::__cxx11::basic_string", ptr %0, i64 0, i32 1
  %29 = load i64, ptr %28, align 8, !tbaa !16
  %30 = icmp ult i64 %29, 16
  call void @llvm.assume(i1 %30)
  %31 = icmp eq ptr %0, %2
  br i1 %31, label %44, label %32, !prof !53

32:                                               ; preds = %27
  switch i64 %29, label %35 [
    i64 0, label %36
    i64 1, label %33
  ]

33:                                               ; preds = %32
  %34 = load i8, ptr %24, align 1, !tbaa !15
  store i8 %34, ptr %9, align 1, !tbaa !15
  br label %36

35:                                               ; preds = %32
  call void @llvm.memcpy.p0.p0.i64(ptr nonnull align 1 %9, ptr nonnull align 1 %24, i64 %29, i1 false)
  br label %36

36:                                               ; preds = %35, %33, %32
  %37 = load i64, ptr %28, align 8, !tbaa !16
  store i64 %37, ptr %22, align 8, !tbaa !16
  %38 = getelementptr inbounds i8, ptr %9, i64 %37
  store i8 0, ptr %38, align 1, !tbaa !15
  %39 = load ptr, ptr %0, align 8, !tbaa !13
  br label %44

40:                                               ; preds = %20
  store ptr %24, ptr %2, align 8, !tbaa !13
  %41 = getelementptr inbounds %"class.std::__cxx11::basic_string", ptr %0, i64 0, i32 1
  %42 = load i64, ptr %41, align 8, !tbaa !16
  store i64 %42, ptr %22, align 8, !tbaa !16
  %43 = load i64, ptr %25, align 8, !tbaa !15
  store i64 %43, ptr %9, align 8, !tbaa !15
  store ptr %25, ptr %0, align 8, !tbaa !13
  br label %44

44:                                               ; preds = %27, %36, %40
  %45 = phi ptr [ %39, %36 ], [ %25, %40 ], [ %24, %27 ]
  %46 = getelementptr inbounds %"class.std::__cxx11::basic_string", ptr %0, i64 0, i32 1
  store i64 0, ptr %46, align 8, !tbaa !16
  store i8 0, ptr %45, align 1, !tbaa !15
  %47 = ptrtoint ptr %1 to i64
  %48 = ptrtoint ptr %0 to i64
  %49 = sub i64 %47, %48
  %50 = ashr exact i64 %49, 5
  %51 = getelementptr inbounds %"class.std::__cxx11::basic_string", ptr %6, i64 0, i32 2
  store ptr %51, ptr %6, align 8, !tbaa !6
  %52 = load ptr, ptr %5, align 8, !tbaa !13
  %53 = icmp eq ptr %52, %7
  br i1 %53, label %54, label %58

54:                                               ; preds = %44
  %55 = load i64, ptr %23, align 8, !tbaa !16
  %56 = icmp ult i64 %55, 16
  call void @llvm.assume(i1 %56)
  %57 = add nuw nsw i64 %55, 1
  call void @llvm.memcpy.p0.p0.i64(ptr noundef nonnull align 8 dereferenceable(1) %51, ptr noundef nonnull align 8 dereferenceable(1) %7, i64 %57, i1 false)
  br label %61

58:                                               ; preds = %44
  store ptr %52, ptr %6, align 8, !tbaa !13
  %59 = load i64, ptr %7, align 8, !tbaa !15
  store i64 %59, ptr %51, align 8, !tbaa !15
  %60 = load i64, ptr %23, align 8, !tbaa !16
  br label %61

61:                                               ; preds = %54, %58
  %62 = phi i64 [ %55, %54 ], [ %60, %58 ]
  %63 = getelementptr inbounds %"class.std::__cxx11::basic_string", ptr %6, i64 0, i32 1
  store i64 %62, ptr %63, align 8, !tbaa !16
  store ptr %7, ptr %5, align 8, !tbaa !13
  store i64 0, ptr %23, align 8, !tbaa !16
  store i8 0, ptr %7, align 8, !tbaa !15
  invoke void @_ZSt13__adjust_heapIN9__gnu_cxx17__normal_iteratorIPNSt7__cxx1112basic_stringIcSt11char_traitsIcESaIcEEESt6vectorIS7_SaIS7_EEEElS7_NS0_5__ops15_Iter_less_iterEEvT_T0_SG_T1_T2_(ptr nonnull %0, i64 noundef 0, i64 noundef %50, ptr noundef nonnull %6)
          to label %64 unwind label %79

64:                                               ; preds = %61
  %65 = load ptr, ptr %6, align 8, !tbaa !13
  %66 = icmp eq ptr %65, %51
  br i1 %66, label %67, label %70

67:                                               ; preds = %64
  %68 = load i64, ptr %63, align 8, !tbaa !16
  %69 = icmp ult i64 %68, 16
  call void @llvm.assume(i1 %69)
  br label %71

70:                                               ; preds = %64
  call void @_ZdlPv(ptr noundef %65) #25
  br label %71

71:                                               ; preds = %67, %70
  %72 = load ptr, ptr %5, align 8, !tbaa !13
  %73 = icmp eq ptr %72, %7
  br i1 %73, label %74, label %77

74:                                               ; preds = %71
  %75 = load i64, ptr %23, align 8, !tbaa !16
  %76 = icmp ult i64 %75, 16
  call void @llvm.assume(i1 %76)
  br label %78

77:                                               ; preds = %71
  call void @_ZdlPv(ptr noundef %72) #25
  br label %78

78:                                               ; preds = %74, %77
  call void @llvm.lifetime.end.p0(i64 32, ptr nonnull %5) #24
  ret void

79:                                               ; preds = %61
  %80 = landingpad { ptr, i32 }
          cleanup
  %81 = load ptr, ptr %6, align 8, !tbaa !13
  %82 = icmp eq ptr %81, %51
  br i1 %82, label %83, label %86

83:                                               ; preds = %79
  %84 = load i64, ptr %63, align 8, !tbaa !16
  %85 = icmp ult i64 %84, 16
  call void @llvm.assume(i1 %85)
  br label %87

86:                                               ; preds = %79
  call void @_ZdlPv(ptr noundef %81) #25
  br label %87

87:                                               ; preds = %83, %86
  %88 = load ptr, ptr %5, align 8, !tbaa !13
  %89 = icmp eq ptr %88, %7
  br i1 %89, label %90, label %93

90:                                               ; preds = %87
  %91 = load i64, ptr %23, align 8, !tbaa !16
  %92 = icmp ult i64 %91, 16
  call void @llvm.assume(i1 %92)
  br label %94

93:                                               ; preds = %87
  call void @_ZdlPv(ptr noundef %88) #25
  br label %94

94:                                               ; preds = %90, %93
  call void @llvm.lifetime.end.p0(i64 32, ptr nonnull %5) #24
  resume { ptr, i32 } %80
}

; Function Attrs: sspstrong uwtable
define linkonce_odr dso_local void @_ZSt13__adjust_heapIN9__gnu_cxx17__normal_iteratorIPNSt7__cxx1112basic_stringIcSt11char_traitsIcESaIcEEESt6vectorIS7_SaIS7_EEEElS7_NS0_5__ops15_Iter_less_iterEEvT_T0_SG_T1_T2_(ptr %0, i64 noundef %1, i64 noundef %2, ptr noundef %3) local_unnamed_addr #1 comdat personality ptr @__gxx_personality_v0 {
  %5 = alloca %"struct.__gnu_cxx::__ops::_Iter_less_val", align 1
  %6 = alloca %"class.std::__cxx11::basic_string", align 8
  %7 = add nsw i64 %2, -1
  %8 = sdiv i64 %7, 2
  %9 = icmp sgt i64 %8, %1
  br i1 %9, label %10, label %86

10:                                               ; preds = %4, %82
  %11 = phi i64 [ %36, %82 ], [ %1, %4 ]
  %12 = shl i64 %11, 1
  %13 = add i64 %12, 2
  %14 = or i64 %12, 1
  %15 = getelementptr inbounds %"class.std::__cxx11::basic_string", ptr %0, i64 %13, i32 1
  %16 = load i64, ptr %15, align 8, !tbaa !16
  %17 = getelementptr inbounds %"class.std::__cxx11::basic_string", ptr %0, i64 %14, i32 1
  %18 = load i64, ptr %17, align 8, !tbaa !16
  %19 = tail call i64 @llvm.umin.i64(i64 %18, i64 %16)
  %20 = icmp eq i64 %19, 0
  br i1 %20, label %28, label %21

21:                                               ; preds = %10
  %22 = getelementptr inbounds %"class.std::__cxx11::basic_string", ptr %0, i64 %14
  %23 = getelementptr inbounds %"class.std::__cxx11::basic_string", ptr %0, i64 %13
  %24 = load ptr, ptr %22, align 8, !tbaa !13
  %25 = load ptr, ptr %23, align 8, !tbaa !13
  %26 = tail call i32 @memcmp(ptr noundef %25, ptr noundef %24, i64 noundef %19) #24
  %27 = icmp eq i32 %26, 0
  br i1 %27, label %28, label %33

28:                                               ; preds = %21, %10
  %29 = sub i64 %16, %18
  %30 = tail call i64 @llvm.smax.i64(i64 %29, i64 -2147483648)
  %31 = tail call i64 @llvm.smin.i64(i64 %30, i64 2147483647)
  %32 = trunc i64 %31 to i32
  br label %33

33:                                               ; preds = %21, %28
  %34 = phi i32 [ %26, %21 ], [ %32, %28 ]
  %35 = icmp slt i32 %34, 0
  %36 = select i1 %35, i64 %14, i64 %13
  %37 = getelementptr inbounds %"class.std::__cxx11::basic_string", ptr %0, i64 %36
  %38 = getelementptr inbounds %"class.std::__cxx11::basic_string", ptr %0, i64 %11
  %39 = load ptr, ptr %38, align 8, !tbaa !13
  %40 = getelementptr inbounds %"class.std::__cxx11::basic_string", ptr %0, i64 %11, i32 2
  %41 = icmp eq ptr %39, %40
  br i1 %41, label %42, label %49

42:                                               ; preds = %33
  %43 = getelementptr inbounds %"class.std::__cxx11::basic_string", ptr %0, i64 %11, i32 1
  %44 = load i64, ptr %43, align 8, !tbaa !16
  %45 = icmp ult i64 %44, 16
  tail call void @llvm.assume(i1 %45)
  %46 = load ptr, ptr %37, align 8, !tbaa !13
  %47 = getelementptr inbounds %"class.std::__cxx11::basic_string", ptr %0, i64 %36, i32 2
  %48 = icmp eq ptr %46, %47
  br i1 %48, label %53, label %69

49:                                               ; preds = %33
  %50 = load ptr, ptr %37, align 8, !tbaa !13
  %51 = getelementptr inbounds %"class.std::__cxx11::basic_string", ptr %0, i64 %36, i32 2
  %52 = icmp eq ptr %50, %51
  br i1 %52, label %53, label %73

53:                                               ; preds = %49, %42
  %54 = phi ptr [ %50, %49 ], [ %47, %42 ]
  %55 = getelementptr inbounds %"class.std::__cxx11::basic_string", ptr %0, i64 %36, i32 1
  %56 = load i64, ptr %55, align 8, !tbaa !16
  %57 = icmp ult i64 %56, 16
  tail call void @llvm.assume(i1 %57)
  %58 = icmp eq i64 %36, %11
  br i1 %58, label %82, label %59, !prof !53

59:                                               ; preds = %53
  switch i64 %56, label %62 [
    i64 0, label %63
    i64 1, label %60
  ]

60:                                               ; preds = %59
  %61 = load i8, ptr %54, align 1, !tbaa !15
  store i8 %61, ptr %39, align 1, !tbaa !15
  br label %63

62:                                               ; preds = %59
  tail call void @llvm.memcpy.p0.p0.i64(ptr align 1 %39, ptr align 1 %54, i64 %56, i1 false)
  br label %63

63:                                               ; preds = %62, %60, %59
  %64 = load i64, ptr %55, align 8, !tbaa !16
  %65 = getelementptr inbounds %"class.std::__cxx11::basic_string", ptr %0, i64 %11, i32 1
  store i64 %64, ptr %65, align 8, !tbaa !16
  %66 = load ptr, ptr %38, align 8, !tbaa !13
  %67 = getelementptr inbounds i8, ptr %66, i64 %64
  store i8 0, ptr %67, align 1, !tbaa !15
  %68 = load ptr, ptr %37, align 8, !tbaa !13
  br label %82

69:                                               ; preds = %42
  store ptr %46, ptr %38, align 8, !tbaa !13
  %70 = getelementptr inbounds %"class.std::__cxx11::basic_string", ptr %0, i64 %36, i32 1
  %71 = load i64, ptr %70, align 8, !tbaa !16
  store i64 %71, ptr %43, align 8, !tbaa !16
  %72 = load i64, ptr %47, align 8, !tbaa !15
  store i64 %72, ptr %39, align 8, !tbaa !15
  br label %80

73:                                               ; preds = %49
  %74 = load i64, ptr %40, align 8, !tbaa !15
  store ptr %50, ptr %38, align 8, !tbaa !13
  %75 = getelementptr inbounds %"class.std::__cxx11::basic_string", ptr %0, i64 %36, i32 1
  %76 = getelementptr inbounds %"class.std::__cxx11::basic_string", ptr %0, i64 %11, i32 1
  %77 = load <2 x i64>, ptr %75, align 8, !tbaa !15
  store <2 x i64> %77, ptr %76, align 8, !tbaa !15
  %78 = icmp eq ptr %39, null
  br i1 %78, label %80, label %79

79:                                               ; preds = %73
  store ptr %39, ptr %37, align 8, !tbaa !13
  store i64 %74, ptr %51, align 8, !tbaa !15
  br label %82

80:                                               ; preds = %73, %69
  %81 = phi ptr [ %47, %69 ], [ %51, %73 ]
  store ptr %81, ptr %37, align 8, !tbaa !13
  br label %82

82:                                               ; preds = %53, %63, %79, %80
  %83 = phi ptr [ %68, %63 ], [ %39, %79 ], [ %81, %80 ], [ %54, %53 ]
  %84 = getelementptr inbounds %"class.std::__cxx11::basic_string", ptr %0, i64 %36, i32 1
  store i64 0, ptr %84, align 8, !tbaa !16
  store i8 0, ptr %83, align 1, !tbaa !15
  %85 = icmp slt i64 %36, %8
  br i1 %85, label %10, label %86, !llvm.loop !54

86:                                               ; preds = %82, %4
  %87 = phi i64 [ %1, %4 ], [ %36, %82 ]
  %88 = and i64 %2, 1
  %89 = icmp eq i64 %88, 0
  br i1 %89, label %90, label %145

90:                                               ; preds = %86
  %91 = add nsw i64 %2, -2
  %92 = sdiv i64 %91, 2
  %93 = icmp eq i64 %87, %92
  br i1 %93, label %94, label %145

94:                                               ; preds = %90
  %95 = shl i64 %87, 1
  %96 = or i64 %95, 1
  %97 = getelementptr inbounds %"class.std::__cxx11::basic_string", ptr %0, i64 %96
  %98 = getelementptr inbounds %"class.std::__cxx11::basic_string", ptr %0, i64 %87
  %99 = load ptr, ptr %98, align 8, !tbaa !13
  %100 = getelementptr inbounds %"class.std::__cxx11::basic_string", ptr %0, i64 %87, i32 2
  %101 = icmp eq ptr %99, %100
  br i1 %101, label %102, label %109

102:                                              ; preds = %94
  %103 = getelementptr inbounds %"class.std::__cxx11::basic_string", ptr %0, i64 %87, i32 1
  %104 = load i64, ptr %103, align 8, !tbaa !16
  %105 = icmp ult i64 %104, 16
  tail call void @llvm.assume(i1 %105)
  %106 = load ptr, ptr %97, align 8, !tbaa !13
  %107 = getelementptr inbounds %"class.std::__cxx11::basic_string", ptr %0, i64 %96, i32 2
  %108 = icmp eq ptr %106, %107
  br i1 %108, label %113, label %129

109:                                              ; preds = %94
  %110 = load ptr, ptr %97, align 8, !tbaa !13
  %111 = getelementptr inbounds %"class.std::__cxx11::basic_string", ptr %0, i64 %96, i32 2
  %112 = icmp eq ptr %110, %111
  br i1 %112, label %113, label %133

113:                                              ; preds = %109, %102
  %114 = phi ptr [ %110, %109 ], [ %107, %102 ]
  %115 = getelementptr inbounds %"class.std::__cxx11::basic_string", ptr %0, i64 %96, i32 1
  %116 = load i64, ptr %115, align 8, !tbaa !16
  %117 = icmp ult i64 %116, 16
  tail call void @llvm.assume(i1 %117)
  %118 = icmp eq i64 %96, %87
  br i1 %118, label %142, label %119, !prof !53

119:                                              ; preds = %113
  switch i64 %116, label %122 [
    i64 0, label %123
    i64 1, label %120
  ]

120:                                              ; preds = %119
  %121 = load i8, ptr %114, align 1, !tbaa !15
  store i8 %121, ptr %99, align 1, !tbaa !15
  br label %123

122:                                              ; preds = %119
  tail call void @llvm.memcpy.p0.p0.i64(ptr align 1 %99, ptr align 1 %114, i64 %116, i1 false)
  br label %123

123:                                              ; preds = %122, %120, %119
  %124 = load i64, ptr %115, align 8, !tbaa !16
  %125 = getelementptr inbounds %"class.std::__cxx11::basic_string", ptr %0, i64 %87, i32 1
  store i64 %124, ptr %125, align 8, !tbaa !16
  %126 = load ptr, ptr %98, align 8, !tbaa !13
  %127 = getelementptr inbounds i8, ptr %126, i64 %124
  store i8 0, ptr %127, align 1, !tbaa !15
  %128 = load ptr, ptr %97, align 8, !tbaa !13
  br label %142

129:                                              ; preds = %102
  store ptr %106, ptr %98, align 8, !tbaa !13
  %130 = getelementptr inbounds %"class.std::__cxx11::basic_string", ptr %0, i64 %96, i32 1
  %131 = load i64, ptr %130, align 8, !tbaa !16
  store i64 %131, ptr %103, align 8, !tbaa !16
  %132 = load i64, ptr %107, align 8, !tbaa !15
  store i64 %132, ptr %99, align 8, !tbaa !15
  br label %140

133:                                              ; preds = %109
  %134 = load i64, ptr %100, align 8, !tbaa !15
  store ptr %110, ptr %98, align 8, !tbaa !13
  %135 = getelementptr inbounds %"class.std::__cxx11::basic_string", ptr %0, i64 %96, i32 1
  %136 = getelementptr inbounds %"class.std::__cxx11::basic_string", ptr %0, i64 %87, i32 1
  %137 = load <2 x i64>, ptr %135, align 8, !tbaa !15
  store <2 x i64> %137, ptr %136, align 8, !tbaa !15
  %138 = icmp eq ptr %99, null
  br i1 %138, label %140, label %139

139:                                              ; preds = %133
  store ptr %99, ptr %97, align 8, !tbaa !13
  store i64 %134, ptr %111, align 8, !tbaa !15
  br label %142

140:                                              ; preds = %133, %129
  %141 = phi ptr [ %107, %129 ], [ %111, %133 ]
  store ptr %141, ptr %97, align 8, !tbaa !13
  br label %142

142:                                              ; preds = %113, %123, %139, %140
  %143 = phi ptr [ %128, %123 ], [ %99, %139 ], [ %141, %140 ], [ %114, %113 ]
  %144 = getelementptr inbounds %"class.std::__cxx11::basic_string", ptr %0, i64 %96, i32 1
  store i64 0, ptr %144, align 8, !tbaa !16
  store i8 0, ptr %143, align 1, !tbaa !15
  br label %145

145:                                              ; preds = %142, %90, %86
  %146 = phi i64 [ %96, %142 ], [ %87, %90 ], [ %87, %86 ]
  call void @llvm.lifetime.start.p0(i64 1, ptr nonnull %5) #24
  %147 = getelementptr inbounds %"class.std::__cxx11::basic_string", ptr %6, i64 0, i32 2
  store ptr %147, ptr %6, align 8, !tbaa !6
  %148 = load ptr, ptr %3, align 8, !tbaa !13
  %149 = getelementptr inbounds %"class.std::__cxx11::basic_string", ptr %3, i64 0, i32 2
  %150 = icmp eq ptr %148, %149
  br i1 %150, label %151, label %156

151:                                              ; preds = %145
  %152 = getelementptr inbounds %"class.std::__cxx11::basic_string", ptr %3, i64 0, i32 1
  %153 = load i64, ptr %152, align 8, !tbaa !16
  %154 = icmp ult i64 %153, 16
  call void @llvm.assume(i1 %154)
  %155 = add nuw nsw i64 %153, 1
  call void @llvm.memcpy.p0.p0.i64(ptr noundef nonnull align 8 dereferenceable(1) %147, ptr noundef nonnull align 8 dereferenceable(1) %148, i64 %155, i1 false)
  br label %160

156:                                              ; preds = %145
  store ptr %148, ptr %6, align 8, !tbaa !13
  %157 = load i64, ptr %149, align 8, !tbaa !15
  store i64 %157, ptr %147, align 8, !tbaa !15
  %158 = getelementptr inbounds %"class.std::__cxx11::basic_string", ptr %3, i64 0, i32 1
  %159 = load i64, ptr %158, align 8, !tbaa !16
  br label %160

160:                                              ; preds = %151, %156
  %161 = phi i64 [ %153, %151 ], [ %159, %156 ]
  %162 = getelementptr inbounds %"class.std::__cxx11::basic_string", ptr %3, i64 0, i32 1
  %163 = getelementptr inbounds %"class.std::__cxx11::basic_string", ptr %6, i64 0, i32 1
  store i64 %161, ptr %163, align 8, !tbaa !16
  store ptr %149, ptr %3, align 8, !tbaa !13
  store i64 0, ptr %162, align 8, !tbaa !16
  store i8 0, ptr %149, align 8, !tbaa !15
  invoke void @_ZSt11__push_heapIN9__gnu_cxx17__normal_iteratorIPNSt7__cxx1112basic_stringIcSt11char_traitsIcESaIcEEESt6vectorIS7_SaIS7_EEEElS7_NS0_5__ops14_Iter_less_valEEvT_T0_SG_T1_RT2_(ptr %0, i64 noundef %146, i64 noundef %1, ptr noundef nonnull %6, ptr noundef nonnull align 1 dereferenceable(1) %5)
          to label %164 unwind label %172

164:                                              ; preds = %160
  %165 = load ptr, ptr %6, align 8, !tbaa !13
  %166 = icmp eq ptr %165, %147
  br i1 %166, label %167, label %170

167:                                              ; preds = %164
  %168 = load i64, ptr %163, align 8, !tbaa !16
  %169 = icmp ult i64 %168, 16
  call void @llvm.assume(i1 %169)
  br label %171

170:                                              ; preds = %164
  call void @_ZdlPv(ptr noundef %165) #25
  br label %171

171:                                              ; preds = %167, %170
  call void @llvm.lifetime.end.p0(i64 1, ptr nonnull %5) #24
  ret void

172:                                              ; preds = %160
  %173 = landingpad { ptr, i32 }
          cleanup
  %174 = load ptr, ptr %6, align 8, !tbaa !13
  %175 = icmp eq ptr %174, %147
  br i1 %175, label %176, label %179

176:                                              ; preds = %172
  %177 = load i64, ptr %163, align 8, !tbaa !16
  %178 = icmp ult i64 %177, 16
  call void @llvm.assume(i1 %178)
  br label %180

179:                                              ; preds = %172
  call void @_ZdlPv(ptr noundef %174) #25
  br label %180

180:                                              ; preds = %176, %179
  call void @llvm.lifetime.end.p0(i64 1, ptr nonnull %5) #24
  resume { ptr, i32 } %173
}

; Function Attrs: sspstrong uwtable
define linkonce_odr dso_local void @_ZSt11__push_heapIN9__gnu_cxx17__normal_iteratorIPNSt7__cxx1112basic_stringIcSt11char_traitsIcESaIcEEESt6vectorIS7_SaIS7_EEEElS7_NS0_5__ops14_Iter_less_valEEvT_T0_SG_T1_RT2_(ptr %0, i64 noundef %1, i64 noundef %2, ptr noundef %3, ptr noundef nonnull align 1 dereferenceable(1) %4) local_unnamed_addr #1 comdat personality ptr @__gxx_personality_v0 {
  %6 = icmp sgt i64 %1, %2
  br i1 %6, label %7, label %75

7:                                                ; preds = %5
  %8 = getelementptr inbounds %"class.std::__cxx11::basic_string", ptr %3, i64 0, i32 1
  br label %9

9:                                                ; preds = %7, %72
  %10 = phi i64 [ %1, %7 ], [ %12, %72 ]
  %11 = add nsw i64 %10, -1
  %12 = sdiv i64 %11, 2
  %13 = getelementptr inbounds %"class.std::__cxx11::basic_string", ptr %0, i64 %12
  %14 = getelementptr inbounds %"class.std::__cxx11::basic_string", ptr %0, i64 %12, i32 1
  %15 = load i64, ptr %14, align 8, !tbaa !16
  %16 = load i64, ptr %8, align 8, !tbaa !16
  %17 = tail call i64 @llvm.umin.i64(i64 %16, i64 %15)
  %18 = icmp eq i64 %17, 0
  br i1 %18, label %24, label %19

19:                                               ; preds = %9
  %20 = load ptr, ptr %3, align 8, !tbaa !13
  %21 = load ptr, ptr %13, align 8, !tbaa !13
  %22 = tail call i32 @memcmp(ptr noundef %21, ptr noundef %20, i64 noundef %17) #24
  %23 = icmp eq i32 %22, 0
  br i1 %23, label %24, label %29

24:                                               ; preds = %19, %9
  %25 = sub i64 %15, %16
  %26 = tail call i64 @llvm.smax.i64(i64 %25, i64 -2147483648)
  %27 = tail call i64 @llvm.smin.i64(i64 %26, i64 2147483647)
  %28 = trunc i64 %27 to i32
  br label %29

29:                                               ; preds = %19, %24
  %30 = phi i32 [ %22, %19 ], [ %28, %24 ]
  %31 = icmp slt i32 %30, 0
  br i1 %31, label %32, label %75

32:                                               ; preds = %29
  %33 = getelementptr inbounds %"class.std::__cxx11::basic_string", ptr %0, i64 %10
  %34 = load ptr, ptr %33, align 8, !tbaa !13
  %35 = getelementptr inbounds %"class.std::__cxx11::basic_string", ptr %0, i64 %10, i32 2
  %36 = icmp eq ptr %34, %35
  br i1 %36, label %37, label %44

37:                                               ; preds = %32
  %38 = getelementptr inbounds %"class.std::__cxx11::basic_string", ptr %0, i64 %10, i32 1
  %39 = load i64, ptr %38, align 8, !tbaa !16
  %40 = icmp ult i64 %39, 16
  tail call void @llvm.assume(i1 %40)
  %41 = load ptr, ptr %13, align 8, !tbaa !13
  %42 = getelementptr inbounds %"class.std::__cxx11::basic_string", ptr %0, i64 %12, i32 2
  %43 = icmp eq ptr %41, %42
  br i1 %43, label %48, label %62

44:                                               ; preds = %32
  %45 = load ptr, ptr %13, align 8, !tbaa !13
  %46 = getelementptr inbounds %"class.std::__cxx11::basic_string", ptr %0, i64 %12, i32 2
  %47 = icmp eq ptr %45, %46
  br i1 %47, label %48, label %64

48:                                               ; preds = %44, %37
  %49 = phi ptr [ %45, %44 ], [ %42, %37 ]
  %50 = icmp ult i64 %15, 16
  tail call void @llvm.assume(i1 %50)
  %51 = icmp eq i64 %12, %10
  br i1 %51, label %72, label %52, !prof !53

52:                                               ; preds = %48
  switch i64 %15, label %55 [
    i64 0, label %56
    i64 1, label %53
  ]

53:                                               ; preds = %52
  %54 = load i8, ptr %49, align 1, !tbaa !15
  store i8 %54, ptr %34, align 1, !tbaa !15
  br label %56

55:                                               ; preds = %52
  tail call void @llvm.memcpy.p0.p0.i64(ptr align 1 %34, ptr align 1 %49, i64 %15, i1 false)
  br label %56

56:                                               ; preds = %55, %53, %52
  %57 = load i64, ptr %14, align 8, !tbaa !16
  %58 = getelementptr inbounds %"class.std::__cxx11::basic_string", ptr %0, i64 %10, i32 1
  store i64 %57, ptr %58, align 8, !tbaa !16
  %59 = load ptr, ptr %33, align 8, !tbaa !13
  %60 = getelementptr inbounds i8, ptr %59, i64 %57
  store i8 0, ptr %60, align 1, !tbaa !15
  %61 = load ptr, ptr %13, align 8, !tbaa !13
  br label %72

62:                                               ; preds = %37
  store ptr %41, ptr %33, align 8, !tbaa !13
  store i64 %15, ptr %38, align 8, !tbaa !16
  %63 = load i64, ptr %42, align 8, !tbaa !15
  store i64 %63, ptr %34, align 8, !tbaa !15
  br label %70

64:                                               ; preds = %44
  %65 = load i64, ptr %35, align 8, !tbaa !15
  store ptr %45, ptr %33, align 8, !tbaa !13
  %66 = getelementptr inbounds %"class.std::__cxx11::basic_string", ptr %0, i64 %10, i32 1
  store i64 %15, ptr %66, align 8, !tbaa !16
  %67 = load i64, ptr %46, align 8, !tbaa !15
  store i64 %67, ptr %35, align 8, !tbaa !15
  %68 = icmp eq ptr %34, null
  br i1 %68, label %70, label %69

69:                                               ; preds = %64
  store ptr %34, ptr %13, align 8, !tbaa !13
  store i64 %65, ptr %46, align 8, !tbaa !15
  br label %72

70:                                               ; preds = %64, %62
  %71 = phi ptr [ %42, %62 ], [ %46, %64 ]
  store ptr %71, ptr %13, align 8, !tbaa !13
  br label %72

72:                                               ; preds = %48, %56, %69, %70
  %73 = phi ptr [ %61, %56 ], [ %34, %69 ], [ %71, %70 ], [ %49, %48 ]
  store i64 0, ptr %14, align 8, !tbaa !16
  store i8 0, ptr %73, align 1, !tbaa !15
  %74 = icmp sgt i64 %12, %2
  br i1 %74, label %9, label %75, !llvm.loop !55

75:                                               ; preds = %29, %72, %5
  %76 = phi i64 [ %1, %5 ], [ %12, %72 ], [ %10, %29 ]
  %77 = getelementptr inbounds %"class.std::__cxx11::basic_string", ptr %0, i64 %76
  %78 = load ptr, ptr %77, align 8, !tbaa !13
  %79 = getelementptr inbounds %"class.std::__cxx11::basic_string", ptr %0, i64 %76, i32 2
  %80 = icmp eq ptr %78, %79
  br i1 %80, label %81, label %88

81:                                               ; preds = %75
  %82 = getelementptr inbounds %"class.std::__cxx11::basic_string", ptr %0, i64 %76, i32 1
  %83 = load i64, ptr %82, align 8, !tbaa !16
  %84 = icmp ult i64 %83, 16
  tail call void @llvm.assume(i1 %84)
  %85 = load ptr, ptr %3, align 8, !tbaa !13
  %86 = getelementptr inbounds %"class.std::__cxx11::basic_string", ptr %3, i64 0, i32 2
  %87 = icmp eq ptr %85, %86
  br i1 %87, label %92, label %108

88:                                               ; preds = %75
  %89 = load ptr, ptr %3, align 8, !tbaa !13
  %90 = getelementptr inbounds %"class.std::__cxx11::basic_string", ptr %3, i64 0, i32 2
  %91 = icmp eq ptr %89, %90
  br i1 %91, label %92, label %112

92:                                               ; preds = %88, %81
  %93 = phi ptr [ %89, %88 ], [ %86, %81 ]
  %94 = getelementptr inbounds %"class.std::__cxx11::basic_string", ptr %3, i64 0, i32 1
  %95 = load i64, ptr %94, align 8, !tbaa !16
  %96 = icmp ult i64 %95, 16
  tail call void @llvm.assume(i1 %96)
  %97 = icmp eq ptr %77, %3
  br i1 %97, label %122, label %98, !prof !53

98:                                               ; preds = %92
  switch i64 %95, label %101 [
    i64 0, label %102
    i64 1, label %99
  ]

99:                                               ; preds = %98
  %100 = load i8, ptr %93, align 1, !tbaa !15
  store i8 %100, ptr %78, align 1, !tbaa !15
  br label %102

101:                                              ; preds = %98
  tail call void @llvm.memcpy.p0.p0.i64(ptr align 1 %78, ptr align 1 %93, i64 %95, i1 false)
  br label %102

102:                                              ; preds = %101, %99, %98
  %103 = load i64, ptr %94, align 8, !tbaa !16
  %104 = getelementptr inbounds %"class.std::__cxx11::basic_string", ptr %0, i64 %76, i32 1
  store i64 %103, ptr %104, align 8, !tbaa !16
  %105 = load ptr, ptr %77, align 8, !tbaa !13
  %106 = getelementptr inbounds i8, ptr %105, i64 %103
  store i8 0, ptr %106, align 1, !tbaa !15
  %107 = load ptr, ptr %3, align 8, !tbaa !13
  br label %122

108:                                              ; preds = %81
  store ptr %85, ptr %77, align 8, !tbaa !13
  %109 = getelementptr inbounds %"class.std::__cxx11::basic_string", ptr %3, i64 0, i32 1
  %110 = load i64, ptr %109, align 8, !tbaa !16
  store i64 %110, ptr %82, align 8, !tbaa !16
  %111 = load i64, ptr %86, align 8, !tbaa !15
  store i64 %111, ptr %78, align 8, !tbaa !15
  br label %120

112:                                              ; preds = %88
  %113 = load i64, ptr %79, align 8, !tbaa !15
  store ptr %89, ptr %77, align 8, !tbaa !13
  %114 = getelementptr inbounds %"class.std::__cxx11::basic_string", ptr %3, i64 0, i32 1
  %115 = load i64, ptr %114, align 8, !tbaa !16
  %116 = getelementptr inbounds %"class.std::__cxx11::basic_string", ptr %0, i64 %76, i32 1
  store i64 %115, ptr %116, align 8, !tbaa !16
  %117 = load i64, ptr %90, align 8, !tbaa !15
  store i64 %117, ptr %79, align 8, !tbaa !15
  %118 = icmp eq ptr %78, null
  br i1 %118, label %120, label %119

119:                                              ; preds = %112
  store ptr %78, ptr %3, align 8, !tbaa !13
  store i64 %113, ptr %90, align 8, !tbaa !15
  br label %122

120:                                              ; preds = %112, %108
  %121 = phi ptr [ %86, %108 ], [ %90, %112 ]
  store ptr %121, ptr %3, align 8, !tbaa !13
  br label %122

122:                                              ; preds = %92, %102, %119, %120
  %123 = phi ptr [ %107, %102 ], [ %78, %119 ], [ %121, %120 ], [ %93, %92 ]
  %124 = getelementptr inbounds %"class.std::__cxx11::basic_string", ptr %3, i64 0, i32 1
  store i64 0, ptr %124, align 8, !tbaa !16
  store i8 0, ptr %123, align 1, !tbaa !15
  ret void
}

; Function Attrs: mustprogress nofree nounwind willreturn memory(argmem: read)
declare i32 @memcmp(ptr nocapture noundef, ptr nocapture noundef, i64 noundef) local_unnamed_addr #5

; Function Attrs: mustprogress sspstrong uwtable
define linkonce_odr dso_local void @_ZSt22__move_median_to_firstIN9__gnu_cxx17__normal_iteratorIPNSt7__cxx1112basic_stringIcSt11char_traitsIcESaIcEEESt6vectorIS7_SaIS7_EEEENS0_5__ops15_Iter_less_iterEEvT_SF_SF_SF_T0_(ptr %0, ptr %1, ptr %2, ptr %3) local_unnamed_addr #12 comdat personality ptr @__gxx_personality_v0 {
  %5 = getelementptr inbounds %"class.std::__cxx11::basic_string", ptr %1, i64 0, i32 1
  %6 = load i64, ptr %5, align 8, !tbaa !16
  %7 = getelementptr inbounds %"class.std::__cxx11::basic_string", ptr %2, i64 0, i32 1
  %8 = load i64, ptr %7, align 8, !tbaa !16
  %9 = tail call i64 @llvm.umin.i64(i64 %8, i64 %6)
  %10 = icmp eq i64 %9, 0
  br i1 %10, label %16, label %11

11:                                               ; preds = %4
  %12 = load ptr, ptr %2, align 8, !tbaa !13
  %13 = load ptr, ptr %1, align 8, !tbaa !13
  %14 = tail call i32 @memcmp(ptr noundef %13, ptr noundef %12, i64 noundef %9) #24
  %15 = icmp eq i32 %14, 0
  br i1 %15, label %16, label %21

16:                                               ; preds = %11, %4
  %17 = sub i64 %6, %8
  %18 = tail call i64 @llvm.smax.i64(i64 %17, i64 -2147483648)
  %19 = tail call i64 @llvm.smin.i64(i64 %18, i64 2147483647)
  %20 = trunc i64 %19 to i32
  br label %21

21:                                               ; preds = %11, %16
  %22 = phi i32 [ %14, %11 ], [ %20, %16 ]
  %23 = icmp slt i32 %22, 0
  %24 = getelementptr inbounds %"class.std::__cxx11::basic_string", ptr %3, i64 0, i32 1
  %25 = load i64, ptr %24, align 8, !tbaa !16
  br i1 %23, label %26, label %59

26:                                               ; preds = %21
  %27 = tail call i64 @llvm.umin.i64(i64 %25, i64 %8)
  %28 = icmp eq i64 %27, 0
  br i1 %28, label %34, label %29

29:                                               ; preds = %26
  %30 = load ptr, ptr %3, align 8, !tbaa !13
  %31 = load ptr, ptr %2, align 8, !tbaa !13
  %32 = tail call i32 @memcmp(ptr noundef %31, ptr noundef %30, i64 noundef %27) #24
  %33 = icmp eq i32 %32, 0
  br i1 %33, label %34, label %39

34:                                               ; preds = %29, %26
  %35 = sub i64 %8, %25
  %36 = tail call i64 @llvm.smax.i64(i64 %35, i64 -2147483648)
  %37 = tail call i64 @llvm.smin.i64(i64 %36, i64 2147483647)
  %38 = trunc i64 %37 to i32
  br label %39

39:                                               ; preds = %29, %34
  %40 = phi i32 [ %32, %29 ], [ %38, %34 ]
  %41 = icmp slt i32 %40, 0
  br i1 %41, label %92, label %42

42:                                               ; preds = %39
  %43 = tail call i64 @llvm.umin.i64(i64 %25, i64 %6)
  %44 = icmp eq i64 %43, 0
  br i1 %44, label %50, label %45

45:                                               ; preds = %42
  %46 = load ptr, ptr %3, align 8, !tbaa !13
  %47 = load ptr, ptr %1, align 8, !tbaa !13
  %48 = tail call i32 @memcmp(ptr noundef %47, ptr noundef %46, i64 noundef %43) #24
  %49 = icmp eq i32 %48, 0
  br i1 %49, label %50, label %55

50:                                               ; preds = %45, %42
  %51 = sub i64 %6, %25
  %52 = tail call i64 @llvm.smax.i64(i64 %51, i64 -2147483648)
  %53 = tail call i64 @llvm.smin.i64(i64 %52, i64 2147483647)
  %54 = trunc i64 %53 to i32
  br label %55

55:                                               ; preds = %45, %50
  %56 = phi i32 [ %48, %45 ], [ %54, %50 ]
  %57 = icmp slt i32 %56, 0
  %58 = select i1 %57, ptr %3, ptr %1
  br label %92

59:                                               ; preds = %21
  %60 = tail call i64 @llvm.umin.i64(i64 %25, i64 %6)
  %61 = icmp eq i64 %60, 0
  br i1 %61, label %67, label %62

62:                                               ; preds = %59
  %63 = load ptr, ptr %3, align 8, !tbaa !13
  %64 = load ptr, ptr %1, align 8, !tbaa !13
  %65 = tail call i32 @memcmp(ptr noundef %64, ptr noundef %63, i64 noundef %60) #24
  %66 = icmp eq i32 %65, 0
  br i1 %66, label %67, label %72

67:                                               ; preds = %62, %59
  %68 = sub i64 %6, %25
  %69 = tail call i64 @llvm.smax.i64(i64 %68, i64 -2147483648)
  %70 = tail call i64 @llvm.smin.i64(i64 %69, i64 2147483647)
  %71 = trunc i64 %70 to i32
  br label %72

72:                                               ; preds = %62, %67
  %73 = phi i32 [ %65, %62 ], [ %71, %67 ]
  %74 = icmp slt i32 %73, 0
  br i1 %74, label %92, label %75

75:                                               ; preds = %72
  %76 = tail call i64 @llvm.umin.i64(i64 %25, i64 %8)
  %77 = icmp eq i64 %76, 0
  br i1 %77, label %83, label %78

78:                                               ; preds = %75
  %79 = load ptr, ptr %3, align 8, !tbaa !13
  %80 = load ptr, ptr %2, align 8, !tbaa !13
  %81 = tail call i32 @memcmp(ptr noundef %80, ptr noundef %79, i64 noundef %76) #24
  %82 = icmp eq i32 %81, 0
  br i1 %82, label %83, label %88

83:                                               ; preds = %78, %75
  %84 = sub i64 %8, %25
  %85 = tail call i64 @llvm.smax.i64(i64 %84, i64 -2147483648)
  %86 = tail call i64 @llvm.smin.i64(i64 %85, i64 2147483647)
  %87 = trunc i64 %86 to i32
  br label %88

88:                                               ; preds = %78, %83
  %89 = phi i32 [ %81, %78 ], [ %87, %83 ]
  %90 = icmp slt i32 %89, 0
  %91 = select i1 %90, ptr %3, ptr %2
  br label %92

92:                                               ; preds = %88, %72, %55, %39
  %93 = phi ptr [ %2, %39 ], [ %58, %55 ], [ %1, %72 ], [ %91, %88 ]
  tail call void @_ZNSt7__cxx1112basic_stringIcSt11char_traitsIcESaIcEE4swapERS4_(ptr noundef nonnull align 8 dereferenceable(32) %0, ptr noundef nonnull align 8 dereferenceable(32) %93) #24
  ret void
}

; Function Attrs: nounwind
declare void @_ZNSt7__cxx1112basic_stringIcSt11char_traitsIcESaIcEE4swapERS4_(ptr noundef nonnull align 8 dereferenceable(32), ptr noundef nonnull align 8 dereferenceable(32)) local_unnamed_addr #13

; Function Attrs: mustprogress nocallback nofree nosync nounwind speculatable willreturn memory(none)
declare i64 @llvm.ctlz.i64(i64, i1 immarg) #14

; Function Attrs: sspstrong uwtable
define linkonce_odr dso_local void @_ZSt16__insertion_sortIN9__gnu_cxx17__normal_iteratorIPNSt7__cxx1112basic_stringIcSt11char_traitsIcESaIcEEESt6vectorIS7_SaIS7_EEEENS0_5__ops15_Iter_less_iterEEvT_SF_T0_(ptr %0, ptr %1) local_unnamed_addr #1 comdat personality ptr @__gxx_personality_v0 {
  %3 = alloca %"class.std::__cxx11::basic_string", align 8
  %4 = icmp eq ptr %0, %1
  br i1 %4, label %153, label %5

5:                                                ; preds = %2
  %6 = getelementptr inbounds %"class.std::__cxx11::basic_string", ptr %0, i64 1
  %7 = icmp eq ptr %6, %1
  br i1 %7, label %153, label %8

8:                                                ; preds = %5
  %9 = getelementptr inbounds %"class.std::__cxx11::basic_string", ptr %0, i64 0, i32 1
  %10 = getelementptr inbounds %"class.std::__cxx11::basic_string", ptr %3, i64 0, i32 2
  %11 = getelementptr inbounds %"class.std::__cxx11::basic_string", ptr %3, i64 0, i32 1
  %12 = ptrtoint ptr %0 to i64
  %13 = getelementptr inbounds %"class.std::__cxx11::basic_string", ptr %0, i64 0, i32 2
  %14 = icmp eq ptr %3, %0
  br label %15

15:                                               ; preds = %8, %150
  %16 = phi ptr [ %6, %8 ], [ %151, %150 ]
  %17 = phi ptr [ %0, %8 ], [ %16, %150 ]
  %18 = getelementptr inbounds %"class.std::__cxx11::basic_string", ptr %17, i64 1, i32 1
  %19 = load i64, ptr %18, align 8, !tbaa !16
  %20 = load i64, ptr %9, align 8, !tbaa !16
  %21 = call i64 @llvm.umin.i64(i64 %20, i64 %19)
  %22 = icmp eq i64 %21, 0
  br i1 %22, label %28, label %23

23:                                               ; preds = %15
  %24 = load ptr, ptr %0, align 8, !tbaa !13
  %25 = load ptr, ptr %16, align 8, !tbaa !13
  %26 = call i32 @memcmp(ptr noundef %25, ptr noundef %24, i64 noundef %21) #24
  %27 = icmp eq i32 %26, 0
  br i1 %27, label %28, label %33

28:                                               ; preds = %23, %15
  %29 = sub i64 %19, %20
  %30 = call i64 @llvm.smax.i64(i64 %29, i64 -2147483648)
  %31 = call i64 @llvm.smin.i64(i64 %30, i64 2147483647)
  %32 = trunc i64 %31 to i32
  br label %33

33:                                               ; preds = %23, %28
  %34 = phi i32 [ %26, %23 ], [ %32, %28 ]
  %35 = icmp slt i32 %34, 0
  br i1 %35, label %36, label %149

36:                                               ; preds = %33
  call void @llvm.lifetime.start.p0(i64 32, ptr nonnull %3) #24
  store ptr %10, ptr %3, align 8, !tbaa !6
  %37 = load ptr, ptr %16, align 8, !tbaa !13
  %38 = getelementptr inbounds %"class.std::__cxx11::basic_string", ptr %17, i64 1, i32 2
  %39 = icmp eq ptr %37, %38
  br i1 %39, label %40, label %44

40:                                               ; preds = %36
  %41 = icmp ult i64 %19, 16
  call void @llvm.assume(i1 %41)
  %42 = add nuw nsw i64 %19, 1
  call void @llvm.memcpy.p0.p0.i64(ptr noundef nonnull align 8 dereferenceable(1) %10, ptr noundef nonnull align 8 dereferenceable(1) %37, i64 %42, i1 false)
  %43 = load i64, ptr %18, align 8, !tbaa !16
  br label %46

44:                                               ; preds = %36
  store ptr %37, ptr %3, align 8, !tbaa !13
  %45 = load i64, ptr %38, align 8, !tbaa !15
  store i64 %45, ptr %10, align 8, !tbaa !15
  br label %46

46:                                               ; preds = %40, %44
  %47 = phi i64 [ %43, %40 ], [ %19, %44 ]
  store i64 %47, ptr %11, align 8, !tbaa !16
  store ptr %38, ptr %16, align 8, !tbaa !13
  store i64 0, ptr %18, align 8, !tbaa !16
  store i8 0, ptr %38, align 8, !tbaa !15
  %48 = ptrtoint ptr %16 to i64
  %49 = sub i64 %48, %12
  %50 = icmp sgt i64 %49, 0
  br i1 %50, label %51, label %107

51:                                               ; preds = %46
  %52 = getelementptr inbounds %"class.std::__cxx11::basic_string", ptr %17, i64 2
  %53 = lshr exact i64 %49, 5
  br label %54

54:                                               ; preds = %102, %51
  %55 = phi i64 [ %105, %102 ], [ %53, %51 ]
  %56 = phi ptr [ %59, %102 ], [ %52, %51 ]
  %57 = phi ptr [ %58, %102 ], [ %16, %51 ]
  %58 = getelementptr inbounds %"class.std::__cxx11::basic_string", ptr %57, i64 -1
  %59 = getelementptr inbounds %"class.std::__cxx11::basic_string", ptr %56, i64 -1
  %60 = load ptr, ptr %59, align 8, !tbaa !13
  %61 = getelementptr %"class.std::__cxx11::basic_string", ptr %56, i64 -1, i32 2
  %62 = icmp eq ptr %60, %61
  br i1 %62, label %63, label %70

63:                                               ; preds = %54
  %64 = getelementptr %"class.std::__cxx11::basic_string", ptr %56, i64 -1, i32 1
  %65 = load i64, ptr %64, align 8, !tbaa !16
  %66 = icmp ult i64 %65, 16
  call void @llvm.assume(i1 %66)
  %67 = load ptr, ptr %58, align 8, !tbaa !13
  %68 = getelementptr %"class.std::__cxx11::basic_string", ptr %57, i64 -1, i32 2
  %69 = icmp eq ptr %67, %68
  br i1 %69, label %74, label %88

70:                                               ; preds = %54
  %71 = load ptr, ptr %58, align 8, !tbaa !13
  %72 = getelementptr %"class.std::__cxx11::basic_string", ptr %57, i64 -1, i32 2
  %73 = icmp eq ptr %71, %72
  br i1 %73, label %74, label %92

74:                                               ; preds = %63, %70
  %75 = phi ptr [ %71, %70 ], [ %68, %63 ]
  %76 = getelementptr %"class.std::__cxx11::basic_string", ptr %57, i64 -1, i32 1
  %77 = load i64, ptr %76, align 8, !tbaa !16
  %78 = icmp ult i64 %77, 16
  call void @llvm.assume(i1 %78)
  switch i64 %77, label %81 [
    i64 0, label %82
    i64 1, label %79
  ]

79:                                               ; preds = %74
  %80 = load i8, ptr %75, align 1, !tbaa !15
  store i8 %80, ptr %60, align 1, !tbaa !15
  br label %82

81:                                               ; preds = %74
  call void @llvm.memcpy.p0.p0.i64(ptr align 1 %60, ptr align 1 %75, i64 %77, i1 false)
  br label %82

82:                                               ; preds = %81, %79, %74
  %83 = load i64, ptr %76, align 8, !tbaa !16
  %84 = getelementptr %"class.std::__cxx11::basic_string", ptr %56, i64 -1, i32 1
  store i64 %83, ptr %84, align 8, !tbaa !16
  %85 = load ptr, ptr %59, align 8, !tbaa !13
  %86 = getelementptr inbounds i8, ptr %85, i64 %83
  store i8 0, ptr %86, align 1, !tbaa !15
  %87 = load ptr, ptr %58, align 8, !tbaa !13
  br label %102

88:                                               ; preds = %63
  store ptr %67, ptr %59, align 8, !tbaa !13
  %89 = getelementptr %"class.std::__cxx11::basic_string", ptr %57, i64 -1, i32 1
  %90 = load i64, ptr %89, align 8, !tbaa !16
  store i64 %90, ptr %64, align 8, !tbaa !16
  %91 = load i64, ptr %68, align 8, !tbaa !15
  store i64 %91, ptr %60, align 8, !tbaa !15
  br label %100

92:                                               ; preds = %70
  %93 = load i64, ptr %61, align 8, !tbaa !15
  store ptr %71, ptr %59, align 8, !tbaa !13
  %94 = getelementptr %"class.std::__cxx11::basic_string", ptr %57, i64 -1, i32 1
  %95 = load i64, ptr %94, align 8, !tbaa !16
  %96 = getelementptr %"class.std::__cxx11::basic_string", ptr %56, i64 -1, i32 1
  store i64 %95, ptr %96, align 8, !tbaa !16
  %97 = load i64, ptr %72, align 8, !tbaa !15
  store i64 %97, ptr %61, align 8, !tbaa !15
  %98 = icmp eq ptr %60, null
  br i1 %98, label %100, label %99

99:                                               ; preds = %92
  store ptr %60, ptr %58, align 8, !tbaa !13
  store i64 %93, ptr %72, align 8, !tbaa !15
  br label %102

100:                                              ; preds = %92, %88
  %101 = phi ptr [ %68, %88 ], [ %72, %92 ]
  store ptr %101, ptr %58, align 8, !tbaa !13
  br label %102

102:                                              ; preds = %100, %99, %82
  %103 = phi ptr [ %87, %82 ], [ %60, %99 ], [ %101, %100 ]
  %104 = getelementptr %"class.std::__cxx11::basic_string", ptr %57, i64 -1, i32 1
  store i64 0, ptr %104, align 8, !tbaa !16
  store i8 0, ptr %103, align 1, !tbaa !15
  %105 = add nsw i64 %55, -1
  %106 = icmp sgt i64 %55, 1
  br i1 %106, label %54, label %107, !llvm.loop !56

107:                                              ; preds = %102, %46
  %108 = load ptr, ptr %0, align 8, !tbaa !13
  %109 = icmp eq ptr %108, %13
  br i1 %109, label %110, label %116

110:                                              ; preds = %107
  %111 = load i64, ptr %9, align 8, !tbaa !16
  %112 = icmp ult i64 %111, 16
  call void @llvm.assume(i1 %112)
  %113 = load ptr, ptr %3, align 8, !tbaa !13
  %114 = icmp eq ptr %113, %10
  %115 = load i64, ptr %11, align 8, !tbaa !16
  br i1 %114, label %120, label %132

116:                                              ; preds = %107
  %117 = load ptr, ptr %3, align 8, !tbaa !13
  %118 = icmp eq ptr %117, %10
  %119 = load i64, ptr %11, align 8, !tbaa !16
  br i1 %118, label %120, label %134

120:                                              ; preds = %116, %110
  %121 = phi i64 [ %119, %116 ], [ %115, %110 ]
  %122 = icmp ult i64 %121, 16
  call void @llvm.assume(i1 %122)
  br i1 %14, label %140, label %123, !prof !53

123:                                              ; preds = %120
  switch i64 %121, label %126 [
    i64 0, label %127
    i64 1, label %124
  ]

124:                                              ; preds = %123
  %125 = load i8, ptr %10, align 8, !tbaa !15
  store i8 %125, ptr %108, align 1, !tbaa !15
  br label %127

126:                                              ; preds = %123
  call void @llvm.memcpy.p0.p0.i64(ptr align 1 %108, ptr nonnull align 8 %10, i64 %121, i1 false)
  br label %127

127:                                              ; preds = %126, %124, %123
  %128 = load i64, ptr %11, align 8, !tbaa !16
  store i64 %128, ptr %9, align 8, !tbaa !16
  %129 = load ptr, ptr %0, align 8, !tbaa !13
  %130 = getelementptr inbounds i8, ptr %129, i64 %128
  store i8 0, ptr %130, align 1, !tbaa !15
  %131 = load ptr, ptr %3, align 8, !tbaa !13
  br label %140

132:                                              ; preds = %110
  store ptr %113, ptr %0, align 8, !tbaa !13
  store i64 %115, ptr %9, align 8, !tbaa !16
  %133 = load i64, ptr %10, align 8, !tbaa !15
  store i64 %133, ptr %13, align 8, !tbaa !15
  br label %139

134:                                              ; preds = %116
  %135 = load i64, ptr %13, align 8, !tbaa !15
  store ptr %117, ptr %0, align 8, !tbaa !13
  store i64 %119, ptr %9, align 8, !tbaa !16
  %136 = load i64, ptr %10, align 8, !tbaa !15
  store i64 %136, ptr %13, align 8, !tbaa !15
  %137 = icmp eq ptr %108, null
  br i1 %137, label %139, label %138

138:                                              ; preds = %134
  store ptr %108, ptr %3, align 8, !tbaa !13
  store i64 %135, ptr %10, align 8, !tbaa !15
  br label %140

139:                                              ; preds = %134, %132
  store ptr %10, ptr %3, align 8, !tbaa !13
  br label %140

140:                                              ; preds = %120, %127, %138, %139
  %141 = phi ptr [ %131, %127 ], [ %108, %138 ], [ %10, %139 ], [ %10, %120 ]
  store i64 0, ptr %11, align 8, !tbaa !16
  store i8 0, ptr %141, align 1, !tbaa !15
  %142 = load ptr, ptr %3, align 8, !tbaa !13
  %143 = icmp eq ptr %142, %10
  br i1 %143, label %144, label %147

144:                                              ; preds = %140
  %145 = load i64, ptr %11, align 8, !tbaa !16
  %146 = icmp ult i64 %145, 16
  call void @llvm.assume(i1 %146)
  br label %148

147:                                              ; preds = %140
  call void @_ZdlPv(ptr noundef %142) #25
  br label %148

148:                                              ; preds = %144, %147
  call void @llvm.lifetime.end.p0(i64 32, ptr nonnull %3) #24
  br label %150

149:                                              ; preds = %33
  call void @_ZSt25__unguarded_linear_insertIN9__gnu_cxx17__normal_iteratorIPNSt7__cxx1112basic_stringIcSt11char_traitsIcESaIcEEESt6vectorIS7_SaIS7_EEEENS0_5__ops14_Val_less_iterEEvT_T0_(ptr nonnull %16)
  br label %150

150:                                              ; preds = %148, %149
  %151 = getelementptr inbounds %"class.std::__cxx11::basic_string", ptr %16, i64 1
  %152 = icmp eq ptr %151, %1
  br i1 %152, label %153, label %15, !llvm.loop !57

153:                                              ; preds = %150, %5, %2
  ret void
}

; Function Attrs: sspstrong uwtable
define linkonce_odr dso_local void @_ZSt25__unguarded_linear_insertIN9__gnu_cxx17__normal_iteratorIPNSt7__cxx1112basic_stringIcSt11char_traitsIcESaIcEEESt6vectorIS7_SaIS7_EEEENS0_5__ops14_Val_less_iterEEvT_T0_(ptr %0) local_unnamed_addr #1 comdat personality ptr @__gxx_personality_v0 {
  %2 = alloca %"class.std::__cxx11::basic_string", align 8
  call void @llvm.lifetime.start.p0(i64 32, ptr nonnull %2) #24
  %3 = getelementptr inbounds %"class.std::__cxx11::basic_string", ptr %2, i64 0, i32 2
  store ptr %3, ptr %2, align 8, !tbaa !6
  %4 = load ptr, ptr %0, align 8, !tbaa !13
  %5 = getelementptr inbounds %"class.std::__cxx11::basic_string", ptr %0, i64 0, i32 2
  %6 = icmp eq ptr %4, %5
  br i1 %6, label %7, label %12

7:                                                ; preds = %1
  %8 = getelementptr inbounds %"class.std::__cxx11::basic_string", ptr %0, i64 0, i32 1
  %9 = load i64, ptr %8, align 8, !tbaa !16
  %10 = icmp ult i64 %9, 16
  call void @llvm.assume(i1 %10)
  %11 = add nuw nsw i64 %9, 1
  call void @llvm.memcpy.p0.p0.i64(ptr noundef nonnull align 8 dereferenceable(1) %3, ptr noundef nonnull align 8 dereferenceable(1) %4, i64 %11, i1 false)
  br label %16

12:                                               ; preds = %1
  store ptr %4, ptr %2, align 8, !tbaa !13
  %13 = load i64, ptr %5, align 8, !tbaa !15
  store i64 %13, ptr %3, align 8, !tbaa !15
  %14 = getelementptr inbounds %"class.std::__cxx11::basic_string", ptr %0, i64 0, i32 1
  %15 = load i64, ptr %14, align 8, !tbaa !16
  br label %16

16:                                               ; preds = %7, %12
  %17 = phi i64 [ %9, %7 ], [ %15, %12 ]
  %18 = getelementptr inbounds %"class.std::__cxx11::basic_string", ptr %0, i64 0, i32 1
  %19 = getelementptr inbounds %"class.std::__cxx11::basic_string", ptr %2, i64 0, i32 1
  store i64 %17, ptr %19, align 8, !tbaa !16
  store ptr %5, ptr %0, align 8, !tbaa !13
  store i64 0, ptr %18, align 8, !tbaa !16
  store i8 0, ptr %5, align 8, !tbaa !15
  br label %20

20:                                               ; preds = %78, %16
  %21 = phi i64 [ %17, %16 ], [ %80, %78 ]
  %22 = phi ptr [ %0, %16 ], [ %23, %78 ]
  %23 = getelementptr inbounds %"class.std::__cxx11::basic_string", ptr %22, i64 -1
  %24 = getelementptr %"class.std::__cxx11::basic_string", ptr %22, i64 -1, i32 1
  %25 = load i64, ptr %24, align 8, !tbaa !16
  %26 = call i64 @llvm.umin.i64(i64 %25, i64 %21)
  %27 = icmp eq i64 %26, 0
  br i1 %27, label %33, label %28

28:                                               ; preds = %20
  %29 = load ptr, ptr %23, align 8, !tbaa !13
  %30 = load ptr, ptr %2, align 8, !tbaa !13
  %31 = call i32 @memcmp(ptr noundef %30, ptr noundef %29, i64 noundef %26) #24
  %32 = icmp eq i32 %31, 0
  br i1 %32, label %33, label %38

33:                                               ; preds = %28, %20
  %34 = sub i64 %21, %25
  %35 = call i64 @llvm.smax.i64(i64 %34, i64 -2147483648)
  %36 = call i64 @llvm.smin.i64(i64 %35, i64 2147483647)
  %37 = trunc i64 %36 to i32
  br label %38

38:                                               ; preds = %28, %33
  %39 = phi i32 [ %31, %28 ], [ %37, %33 ]
  %40 = icmp slt i32 %39, 0
  %41 = load ptr, ptr %22, align 8, !tbaa !13
  %42 = getelementptr inbounds %"class.std::__cxx11::basic_string", ptr %22, i64 0, i32 2
  %43 = icmp eq ptr %41, %42
  br i1 %40, label %44, label %81

44:                                               ; preds = %38
  br i1 %43, label %45, label %52

45:                                               ; preds = %44
  %46 = getelementptr inbounds %"class.std::__cxx11::basic_string", ptr %22, i64 0, i32 1
  %47 = load i64, ptr %46, align 8, !tbaa !16
  %48 = icmp ult i64 %47, 16
  call void @llvm.assume(i1 %48)
  %49 = load ptr, ptr %23, align 8, !tbaa !13
  %50 = getelementptr %"class.std::__cxx11::basic_string", ptr %22, i64 -1, i32 2
  %51 = icmp eq ptr %49, %50
  br i1 %51, label %56, label %68

52:                                               ; preds = %44
  %53 = load ptr, ptr %23, align 8, !tbaa !13
  %54 = getelementptr %"class.std::__cxx11::basic_string", ptr %22, i64 -1, i32 2
  %55 = icmp eq ptr %53, %54
  br i1 %55, label %56, label %70

56:                                               ; preds = %52, %45
  %57 = phi ptr [ %53, %52 ], [ %50, %45 ]
  %58 = icmp ult i64 %25, 16
  call void @llvm.assume(i1 %58)
  switch i64 %25, label %61 [
    i64 0, label %62
    i64 1, label %59
  ]

59:                                               ; preds = %56
  %60 = load i8, ptr %57, align 1, !tbaa !15
  store i8 %60, ptr %41, align 1, !tbaa !15
  br label %62

61:                                               ; preds = %56
  call void @llvm.memcpy.p0.p0.i64(ptr align 1 %41, ptr align 1 %57, i64 %25, i1 false)
  br label %62

62:                                               ; preds = %61, %59, %56
  %63 = load i64, ptr %24, align 8, !tbaa !16
  %64 = getelementptr inbounds %"class.std::__cxx11::basic_string", ptr %22, i64 0, i32 1
  store i64 %63, ptr %64, align 8, !tbaa !16
  %65 = load ptr, ptr %22, align 8, !tbaa !13
  %66 = getelementptr inbounds i8, ptr %65, i64 %63
  store i8 0, ptr %66, align 1, !tbaa !15
  %67 = load ptr, ptr %23, align 8, !tbaa !13
  br label %78

68:                                               ; preds = %45
  store ptr %49, ptr %22, align 8, !tbaa !13
  store i64 %25, ptr %46, align 8, !tbaa !16
  %69 = load i64, ptr %50, align 8, !tbaa !15
  store i64 %69, ptr %42, align 8, !tbaa !15
  br label %76

70:                                               ; preds = %52
  %71 = load i64, ptr %42, align 8, !tbaa !15
  store ptr %53, ptr %22, align 8, !tbaa !13
  %72 = getelementptr inbounds %"class.std::__cxx11::basic_string", ptr %22, i64 0, i32 1
  store i64 %25, ptr %72, align 8, !tbaa !16
  %73 = load i64, ptr %54, align 8, !tbaa !15
  store i64 %73, ptr %42, align 8, !tbaa !15
  %74 = icmp eq ptr %41, null
  br i1 %74, label %76, label %75

75:                                               ; preds = %70
  store ptr %41, ptr %23, align 8, !tbaa !13
  store i64 %71, ptr %54, align 8, !tbaa !15
  br label %78

76:                                               ; preds = %70, %68
  %77 = phi ptr [ %50, %68 ], [ %54, %70 ]
  store ptr %77, ptr %23, align 8, !tbaa !13
  br label %78

78:                                               ; preds = %62, %75, %76
  %79 = phi ptr [ %67, %62 ], [ %41, %75 ], [ %77, %76 ]
  store i64 0, ptr %24, align 8, !tbaa !16
  store i8 0, ptr %79, align 1, !tbaa !15
  %80 = load i64, ptr %19, align 8, !tbaa !16
  br label %20, !llvm.loop !58

81:                                               ; preds = %38
  br i1 %43, label %82, label %88

82:                                               ; preds = %81
  %83 = getelementptr inbounds %"class.std::__cxx11::basic_string", ptr %22, i64 0, i32 1
  %84 = load i64, ptr %83, align 8, !tbaa !16
  %85 = icmp ult i64 %84, 16
  call void @llvm.assume(i1 %85)
  %86 = load ptr, ptr %2, align 8, !tbaa !13
  %87 = icmp eq ptr %86, %3
  br i1 %87, label %91, label %104

88:                                               ; preds = %81
  %89 = load ptr, ptr %2, align 8, !tbaa !13
  %90 = icmp eq ptr %89, %3
  br i1 %90, label %91, label %106

91:                                               ; preds = %88, %82
  %92 = icmp ult i64 %21, 16
  call void @llvm.assume(i1 %92)
  %93 = icmp eq ptr %2, %22
  br i1 %93, label %113, label %94, !prof !53

94:                                               ; preds = %91
  switch i64 %21, label %97 [
    i64 0, label %98
    i64 1, label %95
  ]

95:                                               ; preds = %94
  %96 = load i8, ptr %3, align 8, !tbaa !15
  store i8 %96, ptr %41, align 1, !tbaa !15
  br label %98

97:                                               ; preds = %94
  call void @llvm.memcpy.p0.p0.i64(ptr align 1 %41, ptr nonnull align 8 %3, i64 %21, i1 false)
  br label %98

98:                                               ; preds = %97, %95, %94
  %99 = load i64, ptr %19, align 8, !tbaa !16
  %100 = getelementptr inbounds %"class.std::__cxx11::basic_string", ptr %22, i64 0, i32 1
  store i64 %99, ptr %100, align 8, !tbaa !16
  %101 = load ptr, ptr %22, align 8, !tbaa !13
  %102 = getelementptr inbounds i8, ptr %101, i64 %99
  store i8 0, ptr %102, align 1, !tbaa !15
  %103 = load ptr, ptr %2, align 8, !tbaa !13
  br label %113

104:                                              ; preds = %82
  store ptr %86, ptr %22, align 8, !tbaa !13
  store i64 %21, ptr %83, align 8, !tbaa !16
  %105 = load i64, ptr %3, align 8, !tbaa !15
  store i64 %105, ptr %41, align 8, !tbaa !15
  br label %112

106:                                              ; preds = %88
  %107 = load i64, ptr %42, align 8, !tbaa !15
  store ptr %89, ptr %22, align 8, !tbaa !13
  %108 = getelementptr inbounds %"class.std::__cxx11::basic_string", ptr %22, i64 0, i32 1
  store i64 %21, ptr %108, align 8, !tbaa !16
  %109 = load i64, ptr %3, align 8, !tbaa !15
  store i64 %109, ptr %42, align 8, !tbaa !15
  %110 = icmp eq ptr %41, null
  br i1 %110, label %112, label %111

111:                                              ; preds = %106
  store ptr %41, ptr %2, align 8, !tbaa !13
  store i64 %107, ptr %3, align 8, !tbaa !15
  br label %113

112:                                              ; preds = %106, %104
  store ptr %3, ptr %2, align 8, !tbaa !13
  br label %113

113:                                              ; preds = %91, %98, %111, %112
  %114 = phi ptr [ %103, %98 ], [ %41, %111 ], [ %3, %112 ], [ %3, %91 ]
  store i64 0, ptr %19, align 8, !tbaa !16
  store i8 0, ptr %114, align 1, !tbaa !15
  %115 = load ptr, ptr %2, align 8, !tbaa !13
  %116 = icmp eq ptr %115, %3
  br i1 %116, label %117, label %120

117:                                              ; preds = %113
  %118 = load i64, ptr %19, align 8, !tbaa !16
  %119 = icmp ult i64 %118, 16
  call void @llvm.assume(i1 %119)
  br label %121

120:                                              ; preds = %113
  call void @_ZdlPv(ptr noundef %115) #25
  br label %121

121:                                              ; preds = %117, %120
  call void @llvm.lifetime.end.p0(i64 32, ptr nonnull %2) #24
  ret void
}

; Function Attrs: sspstrong uwtable
define linkonce_odr dso_local ptr @_ZNSt6vectorINSt7__cxx1112basic_stringIcSt11char_traitsIcESaIcEEESaIS5_EE8_M_eraseEN9__gnu_cxx17__normal_iteratorIPS5_S7_EESB_(ptr noundef nonnull align 8 dereferenceable(24) %0, ptr %1, ptr %2) local_unnamed_addr #1 comdat align 2 personality ptr @__gxx_personality_v0 {
  %4 = icmp eq ptr %1, %2
  br i1 %4, label %98, label %5

5:                                                ; preds = %3
  %6 = getelementptr inbounds %"struct.std::_Vector_base<std::__cxx11::basic_string<char>, std::allocator<std::__cxx11::basic_string<char>>>::_Vector_impl_data", ptr %0, i64 0, i32 1
  %7 = load ptr, ptr %6, align 8, !tbaa !17
  %8 = icmp eq ptr %7, %2
  br i1 %8, label %9, label %11

9:                                                ; preds = %5
  %10 = ptrtoint ptr %2 to i64
  br label %76

11:                                               ; preds = %5
  %12 = ptrtoint ptr %7 to i64
  %13 = ptrtoint ptr %2 to i64
  %14 = sub i64 %12, %13
  %15 = icmp sgt i64 %14, 0
  br i1 %15, label %16, label %76

16:                                               ; preds = %11
  %17 = lshr exact i64 %14, 5
  br label %18

18:                                               ; preds = %66, %16
  %19 = phi i64 [ %71, %66 ], [ %17, %16 ]
  %20 = phi ptr [ %70, %66 ], [ %1, %16 ]
  %21 = phi ptr [ %69, %66 ], [ %2, %16 ]
  %22 = load ptr, ptr %20, align 8, !tbaa !13
  %23 = getelementptr inbounds %"class.std::__cxx11::basic_string", ptr %20, i64 0, i32 2
  %24 = icmp eq ptr %22, %23
  br i1 %24, label %25, label %32

25:                                               ; preds = %18
  %26 = getelementptr inbounds %"class.std::__cxx11::basic_string", ptr %20, i64 0, i32 1
  %27 = load i64, ptr %26, align 8, !tbaa !16
  %28 = icmp ult i64 %27, 16
  tail call void @llvm.assume(i1 %28)
  %29 = load ptr, ptr %21, align 8, !tbaa !13
  %30 = getelementptr inbounds %"class.std::__cxx11::basic_string", ptr %21, i64 0, i32 2
  %31 = icmp eq ptr %29, %30
  br i1 %31, label %36, label %52

32:                                               ; preds = %18
  %33 = load ptr, ptr %21, align 8, !tbaa !13
  %34 = getelementptr inbounds %"class.std::__cxx11::basic_string", ptr %21, i64 0, i32 2
  %35 = icmp eq ptr %33, %34
  br i1 %35, label %36, label %56

36:                                               ; preds = %32, %25
  %37 = phi ptr [ %33, %32 ], [ %30, %25 ]
  %38 = getelementptr inbounds %"class.std::__cxx11::basic_string", ptr %21, i64 0, i32 1
  %39 = load i64, ptr %38, align 8, !tbaa !16
  %40 = icmp ult i64 %39, 16
  tail call void @llvm.assume(i1 %40)
  %41 = icmp eq ptr %21, %20
  br i1 %41, label %66, label %42, !prof !53

42:                                               ; preds = %36
  switch i64 %39, label %45 [
    i64 0, label %46
    i64 1, label %43
  ]

43:                                               ; preds = %42
  %44 = load i8, ptr %37, align 1, !tbaa !15
  store i8 %44, ptr %22, align 1, !tbaa !15
  br label %46

45:                                               ; preds = %42
  tail call void @llvm.memcpy.p0.p0.i64(ptr align 1 %22, ptr align 1 %37, i64 %39, i1 false)
  br label %46

46:                                               ; preds = %45, %43, %42
  %47 = load i64, ptr %38, align 8, !tbaa !16
  %48 = getelementptr inbounds %"class.std::__cxx11::basic_string", ptr %20, i64 0, i32 1
  store i64 %47, ptr %48, align 8, !tbaa !16
  %49 = load ptr, ptr %20, align 8, !tbaa !13
  %50 = getelementptr inbounds i8, ptr %49, i64 %47
  store i8 0, ptr %50, align 1, !tbaa !15
  %51 = load ptr, ptr %21, align 8, !tbaa !13
  br label %66

52:                                               ; preds = %25
  store ptr %29, ptr %20, align 8, !tbaa !13
  %53 = getelementptr inbounds %"class.std::__cxx11::basic_string", ptr %21, i64 0, i32 1
  %54 = load i64, ptr %53, align 8, !tbaa !16
  store i64 %54, ptr %26, align 8, !tbaa !16
  %55 = load i64, ptr %30, align 8, !tbaa !15
  store i64 %55, ptr %22, align 8, !tbaa !15
  br label %64

56:                                               ; preds = %32
  %57 = load i64, ptr %23, align 8, !tbaa !15
  store ptr %33, ptr %20, align 8, !tbaa !13
  %58 = getelementptr inbounds %"class.std::__cxx11::basic_string", ptr %21, i64 0, i32 1
  %59 = load i64, ptr %58, align 8, !tbaa !16
  %60 = getelementptr inbounds %"class.std::__cxx11::basic_string", ptr %20, i64 0, i32 1
  store i64 %59, ptr %60, align 8, !tbaa !16
  %61 = load i64, ptr %34, align 8, !tbaa !15
  store i64 %61, ptr %23, align 8, !tbaa !15
  %62 = icmp eq ptr %22, null
  br i1 %62, label %64, label %63

63:                                               ; preds = %56
  store ptr %22, ptr %21, align 8, !tbaa !13
  store i64 %57, ptr %34, align 8, !tbaa !15
  br label %66

64:                                               ; preds = %56, %52
  %65 = phi ptr [ %30, %52 ], [ %34, %56 ]
  store ptr %65, ptr %21, align 8, !tbaa !13
  br label %66

66:                                               ; preds = %64, %63, %46, %36
  %67 = phi ptr [ %51, %46 ], [ %22, %63 ], [ %65, %64 ], [ %37, %36 ]
  %68 = getelementptr inbounds %"class.std::__cxx11::basic_string", ptr %21, i64 0, i32 1
  store i64 0, ptr %68, align 8, !tbaa !16
  store i8 0, ptr %67, align 1, !tbaa !15
  %69 = getelementptr inbounds %"class.std::__cxx11::basic_string", ptr %21, i64 1
  %70 = getelementptr inbounds %"class.std::__cxx11::basic_string", ptr %20, i64 1
  %71 = add nsw i64 %19, -1
  %72 = icmp sgt i64 %19, 1
  br i1 %72, label %18, label %73, !llvm.loop !59

73:                                               ; preds = %66
  %74 = load ptr, ptr %6, align 8, !tbaa !17
  %75 = ptrtoint ptr %74 to i64
  br label %76

76:                                               ; preds = %9, %73, %11
  %77 = phi i64 [ %10, %9 ], [ %75, %73 ], [ %12, %11 ]
  %78 = phi i64 [ %10, %9 ], [ %13, %73 ], [ %13, %11 ]
  %79 = phi ptr [ %2, %9 ], [ %74, %73 ], [ %7, %11 ]
  %80 = sub i64 %77, %78
  %81 = ashr exact i64 %80, 5
  %82 = getelementptr inbounds %"class.std::__cxx11::basic_string", ptr %1, i64 %81
  %83 = icmp eq ptr %79, %82
  br i1 %83, label %98, label %84

84:                                               ; preds = %76, %94
  %85 = phi ptr [ %95, %94 ], [ %82, %76 ]
  %86 = load ptr, ptr %85, align 8, !tbaa !13
  %87 = getelementptr inbounds %"class.std::__cxx11::basic_string", ptr %85, i64 0, i32 2
  %88 = icmp eq ptr %86, %87
  br i1 %88, label %89, label %93

89:                                               ; preds = %84
  %90 = getelementptr inbounds %"class.std::__cxx11::basic_string", ptr %85, i64 0, i32 1
  %91 = load i64, ptr %90, align 8, !tbaa !16
  %92 = icmp ult i64 %91, 16
  tail call void @llvm.assume(i1 %92)
  br label %94

93:                                               ; preds = %84
  tail call void @_ZdlPv(ptr noundef %86) #25
  br label %94

94:                                               ; preds = %93, %89
  %95 = getelementptr inbounds %"class.std::__cxx11::basic_string", ptr %85, i64 1
  %96 = icmp eq ptr %95, %79
  br i1 %96, label %97, label %84, !llvm.loop !39

97:                                               ; preds = %94
  store ptr %82, ptr %6, align 8, !tbaa !27
  br label %98

98:                                               ; preds = %97, %76, %3
  ret ptr %1
}

; Function Attrs: mustprogress sspstrong uwtable
define linkonce_odr dso_local ptr @_ZSt8__uniqueIN9__gnu_cxx17__normal_iteratorIPNSt7__cxx1112basic_stringIcSt11char_traitsIcESaIcEEESt6vectorIS7_SaIS7_EEEENS0_5__ops19_Iter_equal_to_iterEET_SF_SF_T0_(ptr %0, ptr %1) local_unnamed_addr #12 comdat personality ptr @__gxx_personality_v0 {
  %3 = icmp eq ptr %0, %1
  %4 = getelementptr inbounds %"class.std::__cxx11::basic_string", ptr %0, i64 1
  %5 = icmp eq ptr %4, %1
  %6 = select i1 %3, i1 true, i1 %5
  br i1 %6, label %97, label %7

7:                                                ; preds = %2, %22
  %8 = phi ptr [ %23, %22 ], [ %4, %2 ]
  %9 = phi ptr [ %8, %22 ], [ %0, %2 ]
  %10 = getelementptr inbounds %"class.std::__cxx11::basic_string", ptr %9, i64 0, i32 1
  %11 = load i64, ptr %10, align 8, !tbaa !16
  %12 = getelementptr inbounds %"class.std::__cxx11::basic_string", ptr %9, i64 1, i32 1
  %13 = load i64, ptr %12, align 8, !tbaa !16
  %14 = icmp eq i64 %11, %13
  br i1 %14, label %15, label %22

15:                                               ; preds = %7
  %16 = icmp eq i64 %11, 0
  br i1 %16, label %25, label %17

17:                                               ; preds = %15
  %18 = load ptr, ptr %8, align 8, !tbaa !13
  %19 = load ptr, ptr %9, align 8, !tbaa !13
  %20 = tail call i32 @bcmp(ptr %19, ptr %18, i64 %11)
  %21 = icmp eq i32 %20, 0
  br i1 %21, label %25, label %22

22:                                               ; preds = %17, %7
  %23 = getelementptr inbounds %"class.std::__cxx11::basic_string", ptr %8, i64 1
  %24 = icmp eq ptr %23, %1
  br i1 %24, label %97, label %7, !llvm.loop !60

25:                                               ; preds = %15, %17
  %26 = icmp eq ptr %9, %1
  br i1 %26, label %97, label %27

27:                                               ; preds = %25
  %28 = getelementptr inbounds %"class.std::__cxx11::basic_string", ptr %9, i64 2
  %29 = icmp eq ptr %28, %1
  br i1 %29, label %94, label %30

30:                                               ; preds = %27
  %31 = getelementptr inbounds %"class.std::__cxx11::basic_string", ptr %9, i64 1
  br label %32

32:                                               ; preds = %30, %90
  %33 = phi ptr [ %92, %90 ], [ %28, %30 ]
  %34 = phi ptr [ %91, %90 ], [ %9, %30 ]
  %35 = phi ptr [ %33, %90 ], [ %31, %30 ]
  %36 = getelementptr inbounds %"class.std::__cxx11::basic_string", ptr %34, i64 0, i32 1
  %37 = load i64, ptr %36, align 8, !tbaa !16
  %38 = getelementptr inbounds %"class.std::__cxx11::basic_string", ptr %35, i64 1, i32 1
  %39 = load i64, ptr %38, align 8, !tbaa !16
  %40 = icmp eq i64 %37, %39
  br i1 %40, label %41, label %48

41:                                               ; preds = %32
  %42 = icmp eq i64 %37, 0
  br i1 %42, label %90, label %43

43:                                               ; preds = %41
  %44 = load ptr, ptr %33, align 8, !tbaa !13
  %45 = load ptr, ptr %34, align 8, !tbaa !13
  %46 = tail call i32 @bcmp(ptr %45, ptr %44, i64 %37)
  %47 = icmp eq i32 %46, 0
  br i1 %47, label %90, label %48

48:                                               ; preds = %32, %43
  %49 = getelementptr inbounds %"class.std::__cxx11::basic_string", ptr %34, i64 1
  %50 = load ptr, ptr %49, align 8, !tbaa !13
  %51 = getelementptr inbounds %"class.std::__cxx11::basic_string", ptr %34, i64 1, i32 2
  %52 = icmp eq ptr %50, %51
  br i1 %52, label %53, label %60

53:                                               ; preds = %48
  %54 = getelementptr inbounds %"class.std::__cxx11::basic_string", ptr %34, i64 1, i32 1
  %55 = load i64, ptr %54, align 8, !tbaa !16
  %56 = icmp ult i64 %55, 16
  tail call void @llvm.assume(i1 %56)
  %57 = load ptr, ptr %33, align 8, !tbaa !13
  %58 = getelementptr inbounds %"class.std::__cxx11::basic_string", ptr %35, i64 1, i32 2
  %59 = icmp eq ptr %57, %58
  br i1 %59, label %64, label %78

60:                                               ; preds = %48
  %61 = load ptr, ptr %33, align 8, !tbaa !13
  %62 = getelementptr inbounds %"class.std::__cxx11::basic_string", ptr %35, i64 1, i32 2
  %63 = icmp eq ptr %61, %62
  br i1 %63, label %64, label %80

64:                                               ; preds = %60, %53
  %65 = phi ptr [ %61, %60 ], [ %58, %53 ]
  %66 = icmp ult i64 %39, 16
  tail call void @llvm.assume(i1 %66)
  %67 = icmp eq ptr %35, %34
  br i1 %67, label %88, label %68, !prof !53

68:                                               ; preds = %64
  switch i64 %39, label %71 [
    i64 0, label %72
    i64 1, label %69
  ]

69:                                               ; preds = %68
  %70 = load i8, ptr %65, align 1, !tbaa !15
  store i8 %70, ptr %50, align 1, !tbaa !15
  br label %72

71:                                               ; preds = %68
  tail call void @llvm.memcpy.p0.p0.i64(ptr align 1 %50, ptr align 1 %65, i64 %39, i1 false)
  br label %72

72:                                               ; preds = %71, %69, %68
  %73 = load i64, ptr %38, align 8, !tbaa !16
  %74 = getelementptr inbounds %"class.std::__cxx11::basic_string", ptr %34, i64 1, i32 1
  store i64 %73, ptr %74, align 8, !tbaa !16
  %75 = load ptr, ptr %49, align 8, !tbaa !13
  %76 = getelementptr inbounds i8, ptr %75, i64 %73
  store i8 0, ptr %76, align 1, !tbaa !15
  %77 = load ptr, ptr %33, align 8, !tbaa !13
  br label %88

78:                                               ; preds = %53
  store ptr %57, ptr %49, align 8, !tbaa !13
  store i64 %39, ptr %54, align 8, !tbaa !16
  %79 = load i64, ptr %58, align 8, !tbaa !15
  store i64 %79, ptr %50, align 8, !tbaa !15
  br label %86

80:                                               ; preds = %60
  %81 = load i64, ptr %51, align 8, !tbaa !15
  store ptr %61, ptr %49, align 8, !tbaa !13
  %82 = getelementptr inbounds %"class.std::__cxx11::basic_string", ptr %34, i64 1, i32 1
  store i64 %39, ptr %82, align 8, !tbaa !16
  %83 = load i64, ptr %62, align 8, !tbaa !15
  store i64 %83, ptr %51, align 8, !tbaa !15
  %84 = icmp eq ptr %50, null
  br i1 %84, label %86, label %85

85:                                               ; preds = %80
  store ptr %50, ptr %33, align 8, !tbaa !13
  store i64 %81, ptr %62, align 8, !tbaa !15
  br label %88

86:                                               ; preds = %80, %78
  %87 = phi ptr [ %58, %78 ], [ %62, %80 ]
  store ptr %87, ptr %33, align 8, !tbaa !13
  br label %88

88:                                               ; preds = %64, %72, %85, %86
  %89 = phi ptr [ %77, %72 ], [ %50, %85 ], [ %87, %86 ], [ %65, %64 ]
  store i64 0, ptr %38, align 8, !tbaa !16
  store i8 0, ptr %89, align 1, !tbaa !15
  br label %90

90:                                               ; preds = %41, %88, %43
  %91 = phi ptr [ %34, %43 ], [ %49, %88 ], [ %34, %41 ]
  %92 = getelementptr inbounds %"class.std::__cxx11::basic_string", ptr %33, i64 1
  %93 = icmp eq ptr %92, %1
  br i1 %93, label %94, label %32, !llvm.loop !61

94:                                               ; preds = %90, %27
  %95 = phi ptr [ %9, %27 ], [ %91, %90 ]
  %96 = getelementptr inbounds %"class.std::__cxx11::basic_string", ptr %95, i64 1
  br label %97

97:                                               ; preds = %22, %2, %25, %94
  %98 = phi ptr [ %96, %94 ], [ %1, %25 ], [ %1, %2 ], [ %1, %22 ]
  ret ptr %98
}

declare void @_ZNSt7__cxx1112basic_stringIcSt11char_traitsIcESaIcEE7reserveEm(ptr noundef nonnull align 8 dereferenceable(32), i64 noundef) local_unnamed_addr #6

declare noundef nonnull align 8 dereferenceable(32) ptr @_ZNSt7__cxx1112basic_stringIcSt11char_traitsIcESaIcEE9_M_appendEPKcm(ptr noundef nonnull align 8 dereferenceable(32), ptr noundef, i64 noundef) local_unnamed_addr #6

; Function Attrs: sspstrong uwtable
define dso_local noundef zeroext i1 @_ZN3GTP7executeER9GameStateNSt7__cxx1112basic_stringIcSt11char_traitsIcESaIcEEE(ptr noundef nonnull align 8 dereferenceable(8508) %0, ptr nocapture noundef readonly %1) local_unnamed_addr #1 align 2 personality ptr @__gxx_personality_v0 {
  %3 = alloca %"class.std::__cxx11::basic_string", align 8
  %4 = alloca %"class.std::__cxx11::basic_string", align 8
  %5 = alloca i32, align 4
  %6 = alloca %"class.std::__cxx11::basic_istringstream", align 8
  %7 = alloca i8, align 1
  %8 = alloca %"class.std::__cxx11::basic_istringstream", align 8
  %9 = alloca %"class.std::__cxx11::basic_string", align 8
  %10 = alloca %"class.std::__cxx11::basic_string", align 8
  %11 = alloca %"class.std::__cxx11::basic_string", align 8
  %12 = alloca %"class.std::__cxx11::basic_string", align 8
  %13 = alloca %"class.std::__cxx11::basic_istringstream", align 8
  %14 = alloca %"class.std::__cxx11::basic_string", align 8
  %15 = alloca i32, align 4
  %16 = alloca %"class.std::__cxx11::basic_istringstream", align 8
  %17 = alloca %"class.std::__cxx11::basic_string", align 8
  %18 = alloca float, align 4
  %19 = alloca %"class.std::__cxx11::basic_istringstream", align 8
  %20 = alloca %"class.std::__cxx11::basic_string", align 8
  %21 = alloca %"class.std::__cxx11::basic_string", align 8
  %22 = alloca %"class.std::__cxx11::basic_string", align 8
  %23 = alloca %"class.std::__cxx11::basic_string", align 8
  %24 = alloca %"class.std::__cxx11::basic_string", align 8
  %25 = alloca %"class.std::__cxx11::basic_istringstream", align 8
  %26 = alloca %"class.std::__cxx11::basic_string", align 8
  %27 = alloca %"class.std::auto_ptr", align 8
  %28 = alloca %"class.std::__cxx11::basic_string", align 8
  %29 = alloca %"class.std::__cxx11::basic_istringstream", align 8
  %30 = alloca %"class.std::__cxx11::basic_string", align 8
  %31 = alloca %"class.std::auto_ptr", align 8
  %32 = alloca %"class.std::__cxx11::basic_string", align 8
  %33 = alloca %"class.std::__cxx11::basic_string", align 8
  %34 = alloca %"class.std::__cxx11::basic_string", align 8
  %35 = alloca %"class.std::__cxx11::basic_istringstream", align 8
  %36 = alloca %"class.std::__cxx11::basic_string", align 8
  %37 = alloca i32, align 4
  %38 = alloca i32, align 4
  %39 = alloca i32, align 4
  %40 = alloca %"class.std::__cxx11::basic_istringstream", align 8
  %41 = alloca %"class.std::__cxx11::basic_string", align 8
  %42 = alloca %"class.std::__cxx11::basic_string", align 8
  %43 = alloca i32, align 4
  %44 = alloca i32, align 4
  %45 = alloca %"class.std::auto_ptr", align 8
  %46 = alloca %"class.std::auto_ptr", align 8
  %47 = alloca %"class.std::__cxx11::basic_string", align 8
  %48 = alloca %"class.std::vector.8", align 8
  %49 = alloca %"class.std::__cxx11::basic_istringstream", align 8
  %50 = alloca %"class.std::__cxx11::basic_string", align 8
  %51 = alloca i32, align 4
  %52 = alloca %"class.std::__cxx11::basic_string", align 8
  %53 = alloca %"class.std::__cxx11::basic_istringstream", align 8
  %54 = alloca %"class.std::__cxx11::basic_string", align 8
  %55 = alloca i32, align 4
  %56 = alloca %"class.std::__cxx11::basic_string", align 8
  %57 = alloca %"class.std::__cxx11::basic_istringstream", align 8
  %58 = alloca %"class.std::__cxx11::basic_string", align 8
  %59 = alloca %"class.std::__cxx11::basic_string", align 8
  %60 = alloca %"class.std::__cxx11::basic_string", align 8
  %61 = alloca %"class.std::allocator", align 1
  %62 = alloca %"class.std::__cxx11::basic_string", align 8
  %63 = alloca %"class.std::__cxx11::basic_string", align 8
  %64 = alloca %"class.std::__cxx11::basic_istringstream", align 8
  %65 = alloca %"class.std::__cxx11::basic_string", align 8
  %66 = alloca %"class.std::__cxx11::basic_string", align 8
  %67 = alloca i32, align 4
  %68 = alloca %"class.std::auto_ptr.32", align 8
  %69 = alloca %"class.std::__cxx11::basic_string", align 8
  %70 = alloca %class.GameState, align 8
  call void @llvm.lifetime.start.p0(i64 32, ptr nonnull %3) #24
  %71 = getelementptr inbounds %"class.std::__cxx11::basic_string", ptr %3, i64 0, i32 2
  store ptr %71, ptr %3, align 8, !tbaa !6
  %72 = getelementptr inbounds %"class.std::__cxx11::basic_string", ptr %3, i64 0, i32 1
  store i64 0, ptr %72, align 8, !tbaa !16
  store i8 0, ptr %71, align 8, !tbaa !15
  %73 = getelementptr inbounds %"class.std::__cxx11::basic_string", ptr %1, i64 0, i32 1
  %74 = load i64, ptr %73, align 8, !tbaa !16
  %75 = icmp eq i64 %74, 0
  br i1 %75, label %76, label %85

76:                                               ; preds = %2
  call void @llvm.lifetime.start.p0(i64 32, ptr nonnull %4) #24
  %77 = getelementptr inbounds %"class.std::__cxx11::basic_string", ptr %4, i64 0, i32 2
  store ptr %77, ptr %4, align 8, !tbaa !6
  %78 = getelementptr inbounds %"class.std::__cxx11::basic_string", ptr %4, i64 0, i32 1
  store i64 0, ptr %78, align 8, !tbaa !16
  store i8 0, ptr %77, align 8, !tbaa !15
  call void @llvm.lifetime.start.p0(i64 4, ptr nonnull %5) #24
  br label %1682

79:                                               ; preds = %154
  %80 = load i64, ptr %72, align 8, !tbaa !16
  call void @llvm.lifetime.start.p0(i64 32, ptr nonnull %4) #24
  %81 = getelementptr inbounds %"class.std::__cxx11::basic_string", ptr %4, i64 0, i32 2
  store ptr %81, ptr %4, align 8, !tbaa !6
  %82 = getelementptr inbounds %"class.std::__cxx11::basic_string", ptr %4, i64 0, i32 1
  store i64 0, ptr %82, align 8, !tbaa !16
  store i8 0, ptr %81, align 8, !tbaa !15
  call void @llvm.lifetime.start.p0(i64 4, ptr nonnull %5) #24
  store i32 -1, ptr %5, align 4, !tbaa !62
  switch i64 %80, label %83 [
    i64 0, label %1682
    i64 4, label %163
    i64 1, label %168
  ]

83:                                               ; preds = %79
  %84 = load ptr, ptr %3, align 8, !tbaa !13
  br label %172

85:                                               ; preds = %2, %154
  %86 = phi i64 [ %156, %154 ], [ 0, %2 ]
  %87 = phi i32 [ %155, %154 ], [ 0, %2 ]
  %88 = load ptr, ptr %1, align 8, !tbaa !13
  %89 = getelementptr inbounds i8, ptr %88, i64 %86
  %90 = load i8, ptr %89, align 1, !tbaa !15
  %91 = icmp eq i8 %90, 9
  br i1 %91, label %92, label %103

92:                                               ; preds = %85
  %93 = load i64, ptr %72, align 8, !tbaa !16
  %94 = icmp eq i64 %93, 4611686018427387903
  br i1 %94, label %95, label %97

95:                                               ; preds = %92
  invoke void @_ZSt20__throw_length_errorPKc(ptr noundef nonnull @.str.28) #23
          to label %96 unwind label %101

96:                                               ; preds = %95
  unreachable

97:                                               ; preds = %92
  %98 = invoke noundef nonnull align 8 dereferenceable(32) ptr @_ZNSt7__cxx1112basic_stringIcSt11char_traitsIcESaIcEE9_M_appendEPKcm(ptr noundef nonnull align 8 dereferenceable(32) %3, ptr noundef nonnull @.str.29, i64 noundef 1)
          to label %135 unwind label %99

99:                                               ; preds = %97, %127, %153
  %100 = landingpad { ptr, i32 }
          cleanup
  br label %1708

101:                                              ; preds = %95
  %102 = landingpad { ptr, i32 }
          cleanup
  br label %1708

103:                                              ; preds = %85
  %104 = icmp sgt i8 %90, 0
  br i1 %104, label %105, label %113

105:                                              ; preds = %103
  %106 = icmp ult i8 %90, 10
  br i1 %106, label %154, label %107

107:                                              ; preds = %105
  %108 = icmp eq i8 %90, 10
  br i1 %108, label %113, label %109

109:                                              ; preds = %107
  %110 = icmp ult i8 %90, 32
  %111 = icmp eq i8 %90, 127
  %112 = or i1 %110, %111
  br i1 %112, label %154, label %113

113:                                              ; preds = %109, %103, %107
  %114 = sext i8 %90 to i32
  %115 = call i32 @tolower(i32 noundef %114) #28
  %116 = trunc i32 %115 to i8
  %117 = load i64, ptr %72, align 8, !tbaa !16
  %118 = add i64 %117, 1
  %119 = load ptr, ptr %3, align 8, !tbaa !13
  %120 = icmp eq ptr %119, %71
  br i1 %120, label %121, label %123

121:                                              ; preds = %113
  %122 = icmp ult i64 %117, 16
  call void @llvm.assume(i1 %122)
  br label %123

123:                                              ; preds = %121, %113
  %124 = load i64, ptr %71, align 8
  %125 = select i1 %120, i64 15, i64 %124
  %126 = icmp ugt i64 %118, %125
  br i1 %126, label %127, label %130

127:                                              ; preds = %123
  invoke void @_ZNSt7__cxx1112basic_stringIcSt11char_traitsIcESaIcEE9_M_mutateEmmPKcm(ptr noundef nonnull align 8 dereferenceable(32) %3, i64 noundef %117, i64 noundef 0, ptr noundef null, i64 noundef 1)
          to label %128 unwind label %99

128:                                              ; preds = %127
  %129 = load ptr, ptr %3, align 8, !tbaa !13
  br label %130

130:                                              ; preds = %123, %128
  %131 = phi ptr [ %129, %128 ], [ %119, %123 ]
  %132 = getelementptr inbounds i8, ptr %131, i64 %117
  store i8 %116, ptr %132, align 1, !tbaa !15
  store i64 %118, ptr %72, align 8, !tbaa !16
  %133 = load ptr, ptr %3, align 8, !tbaa !13
  %134 = getelementptr inbounds i8, ptr %133, i64 %118
  store i8 0, ptr %134, align 1, !tbaa !15
  br label %135

135:                                              ; preds = %97, %130
  %136 = load i64, ptr %72, align 8, !tbaa !16
  %137 = icmp ugt i64 %136, 1
  br i1 %137, label %138, label %154

138:                                              ; preds = %135
  %139 = add i64 %136, -2
  %140 = load ptr, ptr %3, align 8, !tbaa !13
  %141 = getelementptr inbounds i8, ptr %140, i64 %139
  %142 = load i8, ptr %141, align 1, !tbaa !15
  %143 = sext i8 %142 to i32
  %144 = call i32 @isspace(i32 noundef %143) #28
  %145 = icmp eq i32 %144, 0
  br i1 %145, label %154, label %146

146:                                              ; preds = %138
  %147 = add i64 %136, -1
  %148 = getelementptr inbounds i8, ptr %140, i64 %147
  %149 = load i8, ptr %148, align 1, !tbaa !15
  %150 = sext i8 %149 to i32
  %151 = call i32 @isspace(i32 noundef %150) #28
  %152 = icmp eq i32 %151, 0
  br i1 %152, label %154, label %153

153:                                              ; preds = %146
  invoke void @_ZNSt7__cxx1112basic_stringIcSt11char_traitsIcESaIcEE6resizeEmc(ptr noundef nonnull align 8 dereferenceable(32) %3, i64 noundef %147, i8 noundef signext 0)
          to label %154 unwind label %99

154:                                              ; preds = %153, %135, %146, %138, %105, %109
  %155 = add i32 %87, 1
  %156 = zext i32 %155 to i64
  %157 = load i64, ptr %73, align 8, !tbaa !16
  %158 = icmp ugt i64 %157, %156
  br i1 %158, label %85, label %79, !llvm.loop !63

159:                                              ; preds = %1220
  %160 = landingpad { ptr, i32 }
          cleanup
  br label %1699

161:                                              ; preds = %949, %262, %254, %274, %553, %611, %945, %955, %957, %1235, %1287, %1289, %247
  %162 = landingpad { ptr, i32 }
          cleanup
  br label %1699

163:                                              ; preds = %79
  %164 = load ptr, ptr %3, align 8, !tbaa !13
  %165 = call i32 @bcmp(ptr noundef nonnull dereferenceable(4) %164, ptr noundef nonnull dereferenceable(4) @.str.30, i64 4)
  %166 = icmp eq i32 %165, 0
  br i1 %166, label %167, label %172

167:                                              ; preds = %163
  call void @exit(i32 noundef 0) #26
  unreachable

168:                                              ; preds = %79
  %169 = load ptr, ptr %3, align 8, !tbaa !13
  %170 = call i32 @bcmp(ptr %169, ptr nonnull @.str.31, i64 %80)
  %171 = icmp eq i32 %170, 0
  br i1 %171, label %1682, label %172

172:                                              ; preds = %163, %83, %168
  %173 = phi ptr [ %84, %83 ], [ %169, %168 ], [ %164, %163 ]
  %174 = load i8, ptr %173, align 1, !tbaa !15
  %175 = sext i8 %174 to i32
  %176 = add nsw i32 %175, -48
  %177 = icmp ult i32 %176, 10
  br i1 %177, label %178, label %247

178:                                              ; preds = %172
  call void @llvm.lifetime.start.p0(i64 384, ptr nonnull %6) #24
  invoke void @_ZNSt7__cxx1119basic_istringstreamIcSt11char_traitsIcESaIcEEC1ERKNS_12basic_stringIcS2_S3_EESt13_Ios_Openmode(ptr noundef nonnull align 8 dereferenceable(120) %6, ptr noundef nonnull align 8 dereferenceable(32) %3, i32 noundef 8)
          to label %179 unwind label %241

179:                                              ; preds = %178
  call void @llvm.lifetime.start.p0(i64 1, ptr nonnull %7) #24
  %180 = invoke noundef nonnull align 8 dereferenceable(16) ptr @_ZNSirsERi(ptr noundef nonnull align 8 dereferenceable(16) %6, ptr noundef nonnull align 4 dereferenceable(4) %5)
          to label %181 unwind label %243

181:                                              ; preds = %179
  %182 = load ptr, ptr %6, align 8, !tbaa !64
  %183 = getelementptr i8, ptr %182, i64 -24
  %184 = load i64, ptr %183, align 8
  %185 = getelementptr inbounds i8, ptr %6, i64 %184
  %186 = getelementptr inbounds %"class.std::ios_base", ptr %185, i64 0, i32 3
  %187 = load i32, ptr %186, align 8, !tbaa !66
  %188 = and i32 %187, -4097
  store i32 %188, ptr %186, align 8, !tbaa !66
  %189 = invoke noundef nonnull align 8 dereferenceable(16) ptr @_ZStrsIcSt11char_traitsIcEERSt13basic_istreamIT_T0_ES6_RS3_(ptr noundef nonnull align 8 dereferenceable(16) %6, ptr noundef nonnull align 1 dereferenceable(1) %7)
          to label %190 unwind label %243

190:                                              ; preds = %181
  %191 = load ptr, ptr %6, align 8, !tbaa !64
  %192 = getelementptr i8, ptr %191, i64 -24
  %193 = load i64, ptr %192, align 8
  %194 = getelementptr inbounds i8, ptr %6, i64 %193
  %195 = getelementptr inbounds %"class.std::basic_ios", ptr %194, i64 0, i32 5
  %196 = load ptr, ptr %195, align 8, !tbaa !68
  %197 = icmp eq ptr %196, null
  br i1 %197, label %198, label %200

198:                                              ; preds = %190
  invoke void @_ZSt16__throw_bad_castv() #23
          to label %199 unwind label %243

199:                                              ; preds = %198
  unreachable

200:                                              ; preds = %190
  %201 = getelementptr inbounds %"class.std::ctype", ptr %196, i64 0, i32 8
  %202 = load i8, ptr %201, align 8, !tbaa !75
  %203 = icmp eq i8 %202, 0
  br i1 %203, label %207, label %204

204:                                              ; preds = %200
  %205 = getelementptr inbounds %"class.std::ctype", ptr %196, i64 0, i32 9, i64 10
  %206 = load i8, ptr %205, align 1, !tbaa !15
  br label %213

207:                                              ; preds = %200
  invoke void @_ZNKSt5ctypeIcE13_M_widen_initEv(ptr noundef nonnull align 8 dereferenceable(570) %196)
          to label %208 unwind label %243

208:                                              ; preds = %207
  %209 = load ptr, ptr %196, align 8, !tbaa !64
  %210 = getelementptr inbounds ptr, ptr %209, i64 6
  %211 = load ptr, ptr %210, align 8
  %212 = invoke noundef signext i8 %211(ptr noundef nonnull align 8 dereferenceable(570) %196, i8 noundef signext 10)
          to label %213 unwind label %243

213:                                              ; preds = %208, %204
  %214 = phi i8 [ %206, %204 ], [ %212, %208 ]
  %215 = invoke noundef nonnull align 8 dereferenceable(16) ptr @_ZSt7getlineIcSt11char_traitsIcESaIcEERSt13basic_istreamIT_T0_ES7_RNSt7__cxx1112basic_stringIS4_S5_T1_EES4_(ptr noundef nonnull align 8 dereferenceable(16) %6, ptr noundef nonnull align 8 dereferenceable(32) %4, i8 noundef signext %214)
          to label %216 unwind label %243

216:                                              ; preds = %213
  call void @llvm.lifetime.end.p0(i64 1, ptr nonnull %7) #24
  %217 = load ptr, ptr @_ZTTNSt7__cxx1119basic_istringstreamIcSt11char_traitsIcESaIcEEE, align 8
  store ptr %217, ptr %6, align 8, !tbaa !64
  %218 = load ptr, ptr getelementptr inbounds ([4 x ptr], ptr @_ZTTNSt7__cxx1119basic_istringstreamIcSt11char_traitsIcESaIcEEE, i64 0, i64 3), align 8
  %219 = getelementptr i8, ptr %217, i64 -24
  %220 = load i64, ptr %219, align 8
  %221 = getelementptr inbounds i8, ptr %6, i64 %220
  store ptr %218, ptr %221, align 8, !tbaa !64
  %222 = getelementptr inbounds %"class.std::__cxx11::basic_istringstream", ptr %6, i64 0, i32 1
  store ptr getelementptr inbounds ({ [16 x ptr] }, ptr @_ZTVNSt7__cxx1115basic_stringbufIcSt11char_traitsIcESaIcEEE, i64 0, inrange i32 0, i64 2), ptr %222, align 8, !tbaa !64
  %223 = getelementptr inbounds %"class.std::__cxx11::basic_istringstream", ptr %6, i64 0, i32 1, i32 2
  %224 = load ptr, ptr %223, align 8, !tbaa !13
  %225 = getelementptr inbounds %"class.std::__cxx11::basic_istringstream", ptr %6, i64 0, i32 1, i32 2, i32 2
  %226 = icmp eq ptr %224, %225
  br i1 %226, label %227, label %231

227:                                              ; preds = %216
  %228 = getelementptr inbounds %"class.std::__cxx11::basic_istringstream", ptr %6, i64 0, i32 1, i32 2, i32 1
  %229 = load i64, ptr %228, align 8, !tbaa !16
  %230 = icmp ult i64 %229, 16
  call void @llvm.assume(i1 %230)
  br label %232

231:                                              ; preds = %216
  call void @_ZdlPv(ptr noundef %224) #25
  br label %232

232:                                              ; preds = %227, %231
  store ptr getelementptr inbounds ({ [16 x ptr] }, ptr @_ZTVSt15basic_streambufIcSt11char_traitsIcEE, i64 0, inrange i32 0, i64 2), ptr %222, align 8, !tbaa !64
  %233 = getelementptr inbounds %"class.std::__cxx11::basic_istringstream", ptr %6, i64 0, i32 1, i32 0, i32 7
  call void @_ZNSt6localeD1Ev(ptr noundef nonnull align 8 dereferenceable(8) %233) #24
  %234 = load ptr, ptr getelementptr inbounds ([4 x ptr], ptr @_ZTTNSt7__cxx1119basic_istringstreamIcSt11char_traitsIcESaIcEEE, i64 0, i64 1), align 8
  store ptr %234, ptr %6, align 8, !tbaa !64
  %235 = load ptr, ptr getelementptr inbounds ([4 x ptr], ptr @_ZTTNSt7__cxx1119basic_istringstreamIcSt11char_traitsIcESaIcEEE, i64 0, i64 2), align 8
  %236 = getelementptr i8, ptr %234, i64 -24
  %237 = load i64, ptr %236, align 8
  %238 = getelementptr inbounds i8, ptr %6, i64 %237
  store ptr %235, ptr %238, align 8, !tbaa !64
  %239 = getelementptr inbounds %"class.std::basic_istream", ptr %6, i64 0, i32 1
  store i64 0, ptr %239, align 8, !tbaa !78
  %240 = getelementptr inbounds i8, ptr %6, i64 120
  call void @_ZNSt8ios_baseD2Ev(ptr noundef nonnull align 8 dereferenceable(264) %240) #24
  call void @llvm.lifetime.end.p0(i64 384, ptr nonnull %6) #24
  br label %248

241:                                              ; preds = %178
  %242 = landingpad { ptr, i32 }
          cleanup
  br label %245

243:                                              ; preds = %213, %208, %207, %198, %181, %179
  %244 = landingpad { ptr, i32 }
          cleanup
  call void @llvm.lifetime.end.p0(i64 1, ptr nonnull %7) #24
  call void @_ZNSt7__cxx1119basic_istringstreamIcSt11char_traitsIcESaIcEED1Ev(ptr noundef nonnull align 8 dereferenceable(120) %6) #24
  br label %245

245:                                              ; preds = %243, %241
  %246 = phi { ptr, i32 } [ %244, %243 ], [ %242, %241 ]
  call void @llvm.lifetime.end.p0(i64 384, ptr nonnull %6) #24
  br label %1699

247:                                              ; preds = %172
  invoke void @_ZNSt7__cxx1112basic_stringIcSt11char_traitsIcESaIcEE9_M_assignERKS4_(ptr noundef nonnull align 8 dereferenceable(32) %4, ptr noundef nonnull align 8 dereferenceable(32) %3)
          to label %248 unwind label %161

248:                                              ; preds = %247, %232
  %249 = load i64, ptr %82, align 8, !tbaa !16
  switch i64 %249, label %277 [
    i64 16, label %250
    i64 4, label %256
    i64 7, label %265
  ]

250:                                              ; preds = %248
  %251 = load ptr, ptr %4, align 8, !tbaa !13
  %252 = call i32 @bcmp(ptr noundef nonnull dereferenceable(16) %251, ptr noundef nonnull dereferenceable(16) @.str, i64 16)
  %253 = icmp eq i32 %252, 0
  br i1 %253, label %254, label %277

254:                                              ; preds = %250
  %255 = load i32, ptr %5, align 4, !tbaa !62
  invoke void (i32, ptr, ...) @_ZN5Utils10gtp_printfEiPKcz(i32 noundef %255, ptr noundef nonnull @.str.32, i32 noundef 2)
          to label %1682 unwind label %161

256:                                              ; preds = %248
  %257 = load ptr, ptr %4, align 8, !tbaa !13
  %258 = call i32 @bcmp(ptr %257, ptr nonnull @.str.1, i64 %249)
  %259 = icmp eq i32 %258, 0
  br i1 %259, label %260, label %271

260:                                              ; preds = %256
  %261 = load i32, ptr %5, align 4, !tbaa !62
  br label %262

262:                                              ; preds = %947, %1069, %612, %554, %269, %260
  %263 = phi i32 [ %261, %260 ], [ %270, %269 ], [ %555, %554 ], [ %613, %612 ], [ %1070, %1069 ], [ %948, %947 ]
  %264 = phi ptr [ @.str.33, %260 ], [ @.str.34, %269 ], [ @.str.24, %554 ], [ @.str.24, %612 ], [ @.str.24, %1069 ], [ @.str.24, %947 ]
  invoke void (i32, ptr, ...) @_ZN5Utils10gtp_printfEiPKcz(i32 noundef %263, ptr noundef nonnull %264)
          to label %1682 unwind label %161

265:                                              ; preds = %248
  %266 = load ptr, ptr %4, align 8, !tbaa !13
  %267 = call i32 @bcmp(ptr %266, ptr nonnull @.str.2, i64 %249)
  %268 = icmp eq i32 %267, 0
  br i1 %268, label %269, label %277

269:                                              ; preds = %265
  %270 = load i32, ptr %5, align 4, !tbaa !62
  br label %262

271:                                              ; preds = %256
  %272 = call i32 @bcmp(ptr %257, ptr nonnull @.str.3, i64 %249)
  %273 = icmp eq i32 %272, 0
  br i1 %273, label %274, label %277

274:                                              ; preds = %271
  %275 = load i32, ptr %5, align 4, !tbaa !62
  invoke void (i32, ptr, ...) @_ZN5Utils10gtp_printfEiPKcz(i32 noundef %275, ptr noundef nonnull @.str.24)
          to label %276 unwind label %161

276:                                              ; preds = %274
  call void @exit(i32 noundef 0) #26
  unreachable

277:                                              ; preds = %265, %250, %248, %271
  %278 = call noundef i64 @_ZNKSt7__cxx1112basic_stringIcSt11char_traitsIcESaIcEE4findEPKcmm(ptr noundef nonnull align 8 dereferenceable(32) %4, ptr noundef nonnull @.str.4, i64 noundef 0, i64 noundef 13) #24
  %279 = icmp eq i64 %278, 0
  br i1 %279, label %280, label %337

280:                                              ; preds = %277
  call void @llvm.lifetime.start.p0(i64 384, ptr nonnull %8) #24
  invoke void @_ZNSt7__cxx1119basic_istringstreamIcSt11char_traitsIcESaIcEEC1ERKNS_12basic_stringIcS2_S3_EESt13_Ios_Openmode(ptr noundef nonnull align 8 dereferenceable(120) %8, ptr noundef nonnull align 8 dereferenceable(32) %4, i32 noundef 8)
          to label %281 unwind label %293

281:                                              ; preds = %280
  call void @llvm.lifetime.start.p0(i64 32, ptr nonnull %9) #24
  %282 = getelementptr inbounds %"class.std::__cxx11::basic_string", ptr %9, i64 0, i32 2
  store ptr %282, ptr %9, align 8, !tbaa !6
  %283 = getelementptr inbounds %"class.std::__cxx11::basic_string", ptr %9, i64 0, i32 1
  store i64 0, ptr %283, align 8, !tbaa !16
  store i8 0, ptr %282, align 8, !tbaa !15
  %284 = invoke noundef nonnull align 8 dereferenceable(16) ptr @_ZStrsIcSt11char_traitsIcESaIcEERSt13basic_istreamIT_T0_ES7_RNSt7__cxx1112basic_stringIS4_S5_T1_EE(ptr noundef nonnull align 8 dereferenceable(16) %8, ptr noundef nonnull align 8 dereferenceable(32) %9)
          to label %285 unwind label %295

285:                                              ; preds = %281
  %286 = invoke noundef nonnull align 8 dereferenceable(16) ptr @_ZStrsIcSt11char_traitsIcESaIcEERSt13basic_istreamIT_T0_ES7_RNSt7__cxx1112basic_stringIS4_S5_T1_EE(ptr noundef nonnull align 8 dereferenceable(16) %8, ptr noundef nonnull align 8 dereferenceable(32) %9)
          to label %287 unwind label %295

287:                                              ; preds = %285
  %288 = load i64, ptr getelementptr inbounds ([26 x %"class.std::__cxx11::basic_string"], ptr @_ZN3GTP10s_commandsB5cxx11E, i64 0, i64 0, i32 1), align 8, !tbaa !16
  %289 = icmp eq i64 %288, 0
  br i1 %289, label %316, label %290

290:                                              ; preds = %287
  %291 = load i64, ptr %283, align 8, !tbaa !16
  %292 = load ptr, ptr %9, align 8
  br label %297

293:                                              ; preds = %280
  %294 = landingpad { ptr, i32 }
          cleanup
  br label %335

295:                                              ; preds = %316, %285, %281
  %296 = landingpad { ptr, i32 }
          cleanup
  br label %326

297:                                              ; preds = %290, %310
  %298 = phi i64 [ 0, %290 ], [ %311, %310 ]
  %299 = phi i64 [ %288, %290 ], [ %314, %310 ]
  %300 = phi ptr [ @_ZN3GTP10s_commandsB5cxx11E, %290 ], [ %312, %310 ]
  %301 = icmp eq i64 %291, %299
  br i1 %301, label %302, label %310

302:                                              ; preds = %297
  %303 = load ptr, ptr %300, align 16, !tbaa !13
  %304 = call i32 @bcmp(ptr %292, ptr %303, i64 %291)
  %305 = icmp eq i32 %304, 0
  br i1 %305, label %306, label %310

306:                                              ; preds = %302
  %307 = load i32, ptr %5, align 4, !tbaa !62
  invoke void (i32, ptr, ...) @_ZN5Utils10gtp_printfEiPKcz(i32 noundef %307, ptr noundef nonnull @.str.35)
          to label %318 unwind label %308

308:                                              ; preds = %306
  %309 = landingpad { ptr, i32 }
          cleanup
  br label %326

310:                                              ; preds = %297, %302
  %311 = add nuw i64 %298, 1
  %312 = getelementptr inbounds [26 x %"class.std::__cxx11::basic_string"], ptr @_ZN3GTP10s_commandsB5cxx11E, i64 0, i64 %311
  %313 = getelementptr inbounds [26 x %"class.std::__cxx11::basic_string"], ptr @_ZN3GTP10s_commandsB5cxx11E, i64 0, i64 %311, i32 1
  %314 = load i64, ptr %313, align 8, !tbaa !16
  %315 = icmp eq i64 %314, 0
  br i1 %315, label %316, label %297, !llvm.loop !80

316:                                              ; preds = %310, %287
  %317 = load i32, ptr %5, align 4, !tbaa !62
  invoke void (i32, ptr, ...) @_ZN5Utils10gtp_printfEiPKcz(i32 noundef %317, ptr noundef nonnull @.str.36)
          to label %318 unwind label %295

318:                                              ; preds = %306, %316
  %319 = load ptr, ptr %9, align 8, !tbaa !13
  %320 = icmp eq ptr %319, %282
  br i1 %320, label %321, label %324

321:                                              ; preds = %318
  %322 = load i64, ptr %283, align 8, !tbaa !16
  %323 = icmp ult i64 %322, 16
  call void @llvm.assume(i1 %323)
  br label %325

324:                                              ; preds = %318
  call void @_ZdlPv(ptr noundef %319) #25
  br label %325

325:                                              ; preds = %321, %324
  call void @llvm.lifetime.end.p0(i64 32, ptr nonnull %9) #24
  call void @_ZNSt7__cxx1119basic_istringstreamIcSt11char_traitsIcESaIcEED1Ev(ptr noundef nonnull align 8 dereferenceable(120) %8) #24
  call void @llvm.lifetime.end.p0(i64 384, ptr nonnull %8) #24
  br label %1682

326:                                              ; preds = %308, %295
  %327 = phi { ptr, i32 } [ %296, %295 ], [ %309, %308 ]
  %328 = load ptr, ptr %9, align 8, !tbaa !13
  %329 = icmp eq ptr %328, %282
  br i1 %329, label %330, label %333

330:                                              ; preds = %326
  %331 = load i64, ptr %283, align 8, !tbaa !16
  %332 = icmp ult i64 %331, 16
  call void @llvm.assume(i1 %332)
  br label %334

333:                                              ; preds = %326
  call void @_ZdlPv(ptr noundef %328) #25
  br label %334

334:                                              ; preds = %330, %333
  call void @llvm.lifetime.end.p0(i64 32, ptr nonnull %9) #24
  call void @_ZNSt7__cxx1119basic_istringstreamIcSt11char_traitsIcESaIcEED1Ev(ptr noundef nonnull align 8 dereferenceable(120) %8) #24
  br label %335

335:                                              ; preds = %334, %293
  %336 = phi { ptr, i32 } [ %327, %334 ], [ %294, %293 ]
  call void @llvm.lifetime.end.p0(i64 384, ptr nonnull %8) #24
  br label %1699

337:                                              ; preds = %277
  %338 = call noundef i64 @_ZNKSt7__cxx1112basic_stringIcSt11char_traitsIcESaIcEE4findEPKcmm(ptr noundef nonnull align 8 dereferenceable(32) %4, ptr noundef nonnull @.str.5, i64 noundef 0, i64 noundef 13) #24
  %339 = icmp eq i64 %338, 0
  br i1 %339, label %340, label %500

340:                                              ; preds = %337
  call void @llvm.lifetime.start.p0(i64 32, ptr nonnull %10) #24
  invoke void @_ZNSt7__cxx1112basic_stringIcSt11char_traitsIcESaIcEEC2ERKS4_(ptr noundef nonnull align 8 dereferenceable(32) %10, ptr noundef nonnull align 8 dereferenceable(32) @_ZN3GTP10s_commandsB5cxx11E)
          to label %341 unwind label %354

341:                                              ; preds = %340
  %342 = load i64, ptr getelementptr inbounds ([26 x %"class.std::__cxx11::basic_string"], ptr @_ZN3GTP10s_commandsB5cxx11E, i64 0, i64 1, i32 1), align 8, !tbaa !16
  %343 = icmp eq i64 %342, 0
  br i1 %343, label %351, label %344

344:                                              ; preds = %341
  %345 = getelementptr inbounds %"class.std::__cxx11::basic_string", ptr %10, i64 0, i32 1
  %346 = getelementptr inbounds %"class.std::__cxx11::basic_string", ptr %12, i64 0, i32 2
  %347 = getelementptr inbounds %"class.std::__cxx11::basic_string", ptr %12, i64 0, i32 1
  %348 = getelementptr inbounds %"class.std::__cxx11::basic_string", ptr %11, i64 0, i32 2
  %349 = getelementptr inbounds %"class.std::__cxx11::basic_string", ptr %11, i64 0, i32 1
  %350 = getelementptr inbounds %"class.std::__cxx11::basic_string", ptr %10, i64 0, i32 2
  br label %356

351:                                              ; preds = %456, %341
  %352 = load i32, ptr %5, align 4, !tbaa !62
  %353 = load ptr, ptr %10, align 8, !tbaa !13
  invoke void (i32, ptr, ...) @_ZN5Utils10gtp_printfEiPKcz(i32 noundef %352, ptr noundef %353)
          to label %476 unwind label %486

354:                                              ; preds = %340
  %355 = landingpad { ptr, i32 }
          cleanup
  br label %498

356:                                              ; preds = %344, %456
  %357 = phi i64 [ 1, %344 ], [ %457, %456 ]
  %358 = phi ptr [ getelementptr inbounds ([26 x %"class.std::__cxx11::basic_string"], ptr @_ZN3GTP10s_commandsB5cxx11E, i64 0, i64 1, i32 1), %344 ], [ %459, %456 ]
  %359 = phi ptr [ getelementptr inbounds ([26 x %"class.std::__cxx11::basic_string"], ptr @_ZN3GTP10s_commandsB5cxx11E, i64 0, i64 1), %344 ], [ %458, %456 ]
  call void @llvm.lifetime.start.p0(i64 32, ptr nonnull %11) #24
  call void @llvm.lifetime.start.p0(i64 32, ptr nonnull %12) #24
  call void @llvm.experimental.noalias.scope.decl(metadata !81)
  %360 = load ptr, ptr %10, align 8, !tbaa !13, !noalias !81
  %361 = load i64, ptr %345, align 8, !tbaa !16, !noalias !81
  store ptr %346, ptr %12, align 8, !tbaa !6, !alias.scope !84
  store i64 0, ptr %347, align 8, !tbaa !16, !alias.scope !84
  store i8 0, ptr %346, align 8, !tbaa !15, !alias.scope !84
  %362 = add i64 %361, 1
  invoke void @_ZNSt7__cxx1112basic_stringIcSt11char_traitsIcESaIcEE7reserveEm(ptr noundef nonnull align 8 dereferenceable(32) %12, i64 noundef %362)
          to label %363 unwind label %376

363:                                              ; preds = %356
  %364 = load i64, ptr %347, align 8, !tbaa !16, !alias.scope !84
  %365 = sub i64 4611686018427387903, %364
  %366 = icmp ult i64 %365, %361
  br i1 %366, label %372, label %367

367:                                              ; preds = %363
  %368 = invoke noundef nonnull align 8 dereferenceable(32) ptr @_ZNSt7__cxx1112basic_stringIcSt11char_traitsIcESaIcEE9_M_appendEPKcm(ptr noundef nonnull align 8 dereferenceable(32) %12, ptr noundef %360, i64 noundef %361)
          to label %369 unwind label %376

369:                                              ; preds = %367
  %370 = load i64, ptr %347, align 8, !tbaa !16, !alias.scope !84
  %371 = icmp eq i64 %370, 4611686018427387903
  br i1 %371, label %372, label %374

372:                                              ; preds = %369, %363
  invoke void @_ZSt20__throw_length_errorPKc(ptr noundef nonnull @.str.28) #23
          to label %373 unwind label %378

373:                                              ; preds = %372
  unreachable

374:                                              ; preds = %369
  %375 = invoke noundef nonnull align 8 dereferenceable(32) ptr @_ZNSt7__cxx1112basic_stringIcSt11char_traitsIcESaIcEE9_M_appendEPKcm(ptr noundef nonnull align 8 dereferenceable(32) %12, ptr noundef nonnull @.str.26, i64 noundef 1)
          to label %388 unwind label %376

376:                                              ; preds = %356, %367, %374
  %377 = landingpad { ptr, i32 }
          cleanup
  br label %380

378:                                              ; preds = %372
  %379 = landingpad { ptr, i32 }
          cleanup
  br label %380

380:                                              ; preds = %378, %376
  %381 = phi { ptr, i32 } [ %377, %376 ], [ %379, %378 ]
  %382 = load ptr, ptr %12, align 8, !tbaa !13, !alias.scope !84
  %383 = icmp eq ptr %382, %346
  br i1 %383, label %384, label %387

384:                                              ; preds = %380
  %385 = load i64, ptr %347, align 8, !tbaa !16, !alias.scope !84
  %386 = icmp ult i64 %385, 16
  call void @llvm.assume(i1 %386)
  br label %474

387:                                              ; preds = %380
  call void @_ZdlPv(ptr noundef %382) #25
  br label %474

388:                                              ; preds = %374
  call void @llvm.experimental.noalias.scope.decl(metadata !87)
  %389 = load i64, ptr %358, align 8, !tbaa !16, !noalias !87
  %390 = load i64, ptr %347, align 8, !tbaa !16, !noalias !87
  %391 = sub i64 4611686018427387903, %390
  %392 = icmp ult i64 %391, %389
  br i1 %392, label %393, label %395

393:                                              ; preds = %388
  invoke void @_ZSt20__throw_length_errorPKc(ptr noundef nonnull @.str.28) #23
          to label %394 unwind label %464

394:                                              ; preds = %393
  unreachable

395:                                              ; preds = %388
  %396 = load ptr, ptr %359, align 16, !tbaa !13, !noalias !87
  %397 = invoke noundef nonnull align 8 dereferenceable(32) ptr @_ZNSt7__cxx1112basic_stringIcSt11char_traitsIcESaIcEE9_M_appendEPKcm(ptr noundef nonnull align 8 dereferenceable(32) %12, ptr noundef %396, i64 noundef %389)
          to label %398 unwind label %462

398:                                              ; preds = %395
  store ptr %348, ptr %11, align 8, !tbaa !6, !alias.scope !87
  %399 = load ptr, ptr %397, align 8, !tbaa !13
  %400 = getelementptr inbounds %"class.std::__cxx11::basic_string", ptr %397, i64 0, i32 2
  %401 = icmp eq ptr %399, %400
  br i1 %401, label %402, label %407

402:                                              ; preds = %398
  %403 = getelementptr inbounds %"class.std::__cxx11::basic_string", ptr %397, i64 0, i32 1
  %404 = load i64, ptr %403, align 8, !tbaa !16
  %405 = icmp ult i64 %404, 16
  call void @llvm.assume(i1 %405)
  %406 = add nuw nsw i64 %404, 1
  call void @llvm.memcpy.p0.p0.i64(ptr noundef nonnull align 8 dereferenceable(1) %348, ptr noundef nonnull align 8 dereferenceable(1) %399, i64 %406, i1 false)
  br label %409

407:                                              ; preds = %398
  store ptr %399, ptr %11, align 8, !tbaa !13, !alias.scope !87
  %408 = load i64, ptr %400, align 8, !tbaa !15
  store i64 %408, ptr %348, align 8, !tbaa !15, !alias.scope !87
  br label %409

409:                                              ; preds = %407, %402
  %410 = getelementptr inbounds %"class.std::__cxx11::basic_string", ptr %397, i64 0, i32 1
  %411 = load i64, ptr %410, align 8, !tbaa !16
  store i64 %411, ptr %349, align 8, !tbaa !16, !alias.scope !87
  store ptr %400, ptr %397, align 8, !tbaa !13
  store i64 0, ptr %410, align 8, !tbaa !16
  store i8 0, ptr %400, align 8, !tbaa !15
  %412 = load ptr, ptr %10, align 8, !tbaa !13
  %413 = icmp eq ptr %412, %350
  br i1 %413, label %414, label %419

414:                                              ; preds = %409
  %415 = load i64, ptr %345, align 8, !tbaa !16
  %416 = icmp ult i64 %415, 16
  call void @llvm.assume(i1 %416)
  %417 = load ptr, ptr %11, align 8, !tbaa !13
  %418 = icmp eq ptr %417, %348
  br i1 %418, label %422, label %433

419:                                              ; preds = %409
  %420 = load ptr, ptr %11, align 8, !tbaa !13
  %421 = icmp eq ptr %420, %348
  br i1 %421, label %422, label %435

422:                                              ; preds = %419, %414
  %423 = load i64, ptr %349, align 8, !tbaa !16
  %424 = icmp ult i64 %423, 16
  call void @llvm.assume(i1 %424)
  switch i64 %423, label %427 [
    i64 0, label %428
    i64 1, label %425
  ]

425:                                              ; preds = %422
  %426 = load i8, ptr %348, align 8, !tbaa !15
  store i8 %426, ptr %412, align 1, !tbaa !15
  br label %428

427:                                              ; preds = %422
  call void @llvm.memcpy.p0.p0.i64(ptr align 1 %412, ptr nonnull align 8 %348, i64 %423, i1 false)
  br label %428

428:                                              ; preds = %427, %425, %422
  %429 = load i64, ptr %349, align 8, !tbaa !16
  store i64 %429, ptr %345, align 8, !tbaa !16
  %430 = load ptr, ptr %10, align 8, !tbaa !13
  %431 = getelementptr inbounds i8, ptr %430, i64 %429
  store i8 0, ptr %431, align 1, !tbaa !15
  %432 = load ptr, ptr %11, align 8, !tbaa !13
  br label %441

433:                                              ; preds = %414
  store ptr %417, ptr %10, align 8, !tbaa !13
  %434 = load <2 x i64>, ptr %349, align 8, !tbaa !15
  store <2 x i64> %434, ptr %345, align 8, !tbaa !15
  br label %440

435:                                              ; preds = %419
  %436 = load i64, ptr %350, align 8, !tbaa !15
  store ptr %420, ptr %10, align 8, !tbaa !13
  %437 = load <2 x i64>, ptr %349, align 8, !tbaa !15
  store <2 x i64> %437, ptr %345, align 8, !tbaa !15
  %438 = icmp eq ptr %412, null
  br i1 %438, label %440, label %439

439:                                              ; preds = %435
  store ptr %412, ptr %11, align 8, !tbaa !13
  store i64 %436, ptr %348, align 8, !tbaa !15
  br label %441

440:                                              ; preds = %435, %433
  store ptr %348, ptr %11, align 8, !tbaa !13
  br label %441

441:                                              ; preds = %428, %439, %440
  %442 = phi ptr [ %432, %428 ], [ %412, %439 ], [ %348, %440 ]
  store i64 0, ptr %349, align 8, !tbaa !16
  store i8 0, ptr %442, align 1, !tbaa !15
  %443 = load ptr, ptr %11, align 8, !tbaa !13
  %444 = icmp eq ptr %443, %348
  br i1 %444, label %445, label %448

445:                                              ; preds = %441
  %446 = load i64, ptr %349, align 8, !tbaa !16
  %447 = icmp ult i64 %446, 16
  call void @llvm.assume(i1 %447)
  br label %449

448:                                              ; preds = %441
  call void @_ZdlPv(ptr noundef %443) #25
  br label %449

449:                                              ; preds = %445, %448
  %450 = load ptr, ptr %12, align 8, !tbaa !13
  %451 = icmp eq ptr %450, %346
  br i1 %451, label %452, label %455

452:                                              ; preds = %449
  %453 = load i64, ptr %347, align 8, !tbaa !16
  %454 = icmp ult i64 %453, 16
  call void @llvm.assume(i1 %454)
  br label %456

455:                                              ; preds = %449
  call void @_ZdlPv(ptr noundef %450) #25
  br label %456

456:                                              ; preds = %452, %455
  call void @llvm.lifetime.end.p0(i64 32, ptr nonnull %12) #24
  call void @llvm.lifetime.end.p0(i64 32, ptr nonnull %11) #24
  %457 = add nuw i64 %357, 1
  %458 = getelementptr inbounds [26 x %"class.std::__cxx11::basic_string"], ptr @_ZN3GTP10s_commandsB5cxx11E, i64 0, i64 %457
  %459 = getelementptr inbounds [26 x %"class.std::__cxx11::basic_string"], ptr @_ZN3GTP10s_commandsB5cxx11E, i64 0, i64 %457, i32 1
  %460 = load i64, ptr %459, align 8, !tbaa !16
  %461 = icmp eq i64 %460, 0
  br i1 %461, label %351, label %356, !llvm.loop !90

462:                                              ; preds = %395
  %463 = landingpad { ptr, i32 }
          cleanup
  br label %466

464:                                              ; preds = %393
  %465 = landingpad { ptr, i32 }
          cleanup
  br label %466

466:                                              ; preds = %464, %462
  %467 = phi { ptr, i32 } [ %463, %462 ], [ %465, %464 ]
  %468 = load ptr, ptr %12, align 8, !tbaa !13
  %469 = icmp eq ptr %468, %346
  br i1 %469, label %470, label %473

470:                                              ; preds = %466
  %471 = load i64, ptr %347, align 8, !tbaa !16
  %472 = icmp ult i64 %471, 16
  call void @llvm.assume(i1 %472)
  br label %474

473:                                              ; preds = %466
  call void @_ZdlPv(ptr noundef %468) #25
  br label %474

474:                                              ; preds = %473, %470, %387, %384
  %475 = phi { ptr, i32 } [ %381, %387 ], [ %381, %384 ], [ %467, %470 ], [ %467, %473 ]
  call void @llvm.lifetime.end.p0(i64 32, ptr nonnull %12) #24
  call void @llvm.lifetime.end.p0(i64 32, ptr nonnull %11) #24
  br label %488

476:                                              ; preds = %351
  %477 = load ptr, ptr %10, align 8, !tbaa !13
  %478 = getelementptr inbounds %"class.std::__cxx11::basic_string", ptr %10, i64 0, i32 2
  %479 = icmp eq ptr %477, %478
  br i1 %479, label %480, label %484

480:                                              ; preds = %476
  %481 = getelementptr inbounds %"class.std::__cxx11::basic_string", ptr %10, i64 0, i32 1
  %482 = load i64, ptr %481, align 8, !tbaa !16
  %483 = icmp ult i64 %482, 16
  call void @llvm.assume(i1 %483)
  br label %485

484:                                              ; preds = %476
  call void @_ZdlPv(ptr noundef %477) #25
  br label %485

485:                                              ; preds = %480, %484
  call void @llvm.lifetime.end.p0(i64 32, ptr nonnull %10) #24
  br label %1682

486:                                              ; preds = %351
  %487 = landingpad { ptr, i32 }
          cleanup
  br label %488

488:                                              ; preds = %486, %474
  %489 = phi { ptr, i32 } [ %475, %474 ], [ %487, %486 ]
  %490 = load ptr, ptr %10, align 8, !tbaa !13
  %491 = getelementptr inbounds %"class.std::__cxx11::basic_string", ptr %10, i64 0, i32 2
  %492 = icmp eq ptr %490, %491
  br i1 %492, label %493, label %497

493:                                              ; preds = %488
  %494 = getelementptr inbounds %"class.std::__cxx11::basic_string", ptr %10, i64 0, i32 1
  %495 = load i64, ptr %494, align 8, !tbaa !16
  %496 = icmp ult i64 %495, 16
  call void @llvm.assume(i1 %496)
  br label %498

497:                                              ; preds = %488
  call void @_ZdlPv(ptr noundef %490) #25
  br label %498

498:                                              ; preds = %497, %493, %354
  %499 = phi { ptr, i32 } [ %355, %354 ], [ %489, %493 ], [ %489, %497 ]
  call void @llvm.lifetime.end.p0(i64 32, ptr nonnull %10) #24
  br label %1699

500:                                              ; preds = %337
  %501 = call noundef i64 @_ZNKSt7__cxx1112basic_stringIcSt11char_traitsIcESaIcEE4findEPKcmm(ptr noundef nonnull align 8 dereferenceable(32) %4, ptr noundef nonnull @.str.6, i64 noundef 0, i64 noundef 9) #24
  %502 = icmp eq i64 %501, 0
  br i1 %502, label %503, label %550

503:                                              ; preds = %500
  call void @llvm.lifetime.start.p0(i64 384, ptr nonnull %13) #24
  invoke void @_ZNSt7__cxx1119basic_istringstreamIcSt11char_traitsIcESaIcEEC1ERKNS_12basic_stringIcS2_S3_EESt13_Ios_Openmode(ptr noundef nonnull align 8 dereferenceable(120) %13, ptr noundef nonnull align 8 dereferenceable(32) %4, i32 noundef 8)
          to label %504 unwind label %523

504:                                              ; preds = %503
  call void @llvm.lifetime.start.p0(i64 32, ptr nonnull %14) #24
  %505 = getelementptr inbounds %"class.std::__cxx11::basic_string", ptr %14, i64 0, i32 2
  store ptr %505, ptr %14, align 8, !tbaa !6
  %506 = getelementptr inbounds %"class.std::__cxx11::basic_string", ptr %14, i64 0, i32 1
  store i64 0, ptr %506, align 8, !tbaa !16
  store i8 0, ptr %505, align 8, !tbaa !15
  call void @llvm.lifetime.start.p0(i64 4, ptr nonnull %15) #24
  %507 = invoke noundef nonnull align 8 dereferenceable(16) ptr @_ZStrsIcSt11char_traitsIcESaIcEERSt13basic_istreamIT_T0_ES7_RNSt7__cxx1112basic_stringIS4_S5_T1_EE(ptr noundef nonnull align 8 dereferenceable(16) %13, ptr noundef nonnull align 8 dereferenceable(32) %14)
          to label %508 unwind label %525

508:                                              ; preds = %504
  %509 = invoke noundef nonnull align 8 dereferenceable(16) ptr @_ZNSirsERi(ptr noundef nonnull align 8 dereferenceable(16) %13, ptr noundef nonnull align 4 dereferenceable(4) %15)
          to label %510 unwind label %525

510:                                              ; preds = %508
  %511 = load ptr, ptr %13, align 8, !tbaa !64
  %512 = getelementptr i8, ptr %511, i64 -24
  %513 = load i64, ptr %512, align 8
  %514 = getelementptr inbounds i8, ptr %13, i64 %513
  %515 = getelementptr inbounds %"class.std::ios_base", ptr %514, i64 0, i32 5
  %516 = load i32, ptr %515, align 8, !tbaa !91
  %517 = and i32 %516, 5
  %518 = icmp eq i32 %517, 0
  br i1 %518, label %519, label %537

519:                                              ; preds = %510
  %520 = load i32, ptr %15, align 4
  %521 = add i32 %520, -20
  %522 = icmp ult i32 %521, -18
  br i1 %522, label %537, label %534

523:                                              ; preds = %503
  %524 = landingpad { ptr, i32 }
          cleanup
  br label %548

525:                                              ; preds = %537, %535, %534, %508, %504
  %526 = landingpad { ptr, i32 }
          cleanup
  call void @llvm.lifetime.end.p0(i64 4, ptr nonnull %15) #24
  %527 = load ptr, ptr %14, align 8, !tbaa !13
  %528 = icmp eq ptr %527, %505
  br i1 %528, label %529, label %532

529:                                              ; preds = %525
  %530 = load i64, ptr %506, align 8, !tbaa !16
  %531 = icmp ult i64 %530, 16
  call void @llvm.assume(i1 %531)
  br label %533

532:                                              ; preds = %525
  call void @_ZdlPv(ptr noundef %527) #25
  br label %533

533:                                              ; preds = %529, %532
  call void @llvm.lifetime.end.p0(i64 32, ptr nonnull %14) #24
  call void @_ZNSt7__cxx1119basic_istringstreamIcSt11char_traitsIcESaIcEED1Ev(ptr noundef nonnull align 8 dereferenceable(120) %13) #24
  br label %548

534:                                              ; preds = %519
  invoke void @_ZN9GameState9init_gameEif(ptr noundef nonnull align 8 dereferenceable(8508) %0, i32 noundef %520, float noundef 7.500000e+00)
          to label %535 unwind label %525

535:                                              ; preds = %534
  %536 = load i32, ptr %5, align 4, !tbaa !62
  invoke void (i32, ptr, ...) @_ZN5Utils10gtp_printfEiPKcz(i32 noundef %536, ptr noundef nonnull @.str.24)
          to label %540 unwind label %525

537:                                              ; preds = %510, %519
  %538 = phi ptr [ @.str.37, %519 ], [ @.str.38, %510 ]
  %539 = load i32, ptr %5, align 4, !tbaa !62
  invoke void (i32, ptr, ...) @_ZN5Utils15gtp_fail_printfEiPKcz(i32 noundef %539, ptr noundef nonnull %538)
          to label %540 unwind label %525

540:                                              ; preds = %537, %535
  call void @llvm.lifetime.end.p0(i64 4, ptr nonnull %15) #24
  %541 = load ptr, ptr %14, align 8, !tbaa !13
  %542 = icmp eq ptr %541, %505
  br i1 %542, label %543, label %546

543:                                              ; preds = %540
  %544 = load i64, ptr %506, align 8, !tbaa !16
  %545 = icmp ult i64 %544, 16
  call void @llvm.assume(i1 %545)
  br label %547

546:                                              ; preds = %540
  call void @_ZdlPv(ptr noundef %541) #25
  br label %547

547:                                              ; preds = %543, %546
  call void @llvm.lifetime.end.p0(i64 32, ptr nonnull %14) #24
  call void @_ZNSt7__cxx1119basic_istringstreamIcSt11char_traitsIcESaIcEED1Ev(ptr noundef nonnull align 8 dereferenceable(120) %13) #24
  call void @llvm.lifetime.end.p0(i64 384, ptr nonnull %13) #24
  br label %1682

548:                                              ; preds = %533, %523
  %549 = phi { ptr, i32 } [ %526, %533 ], [ %524, %523 ]
  call void @llvm.lifetime.end.p0(i64 384, ptr nonnull %13) #24
  br label %1699

550:                                              ; preds = %500
  %551 = call noundef i64 @_ZNKSt7__cxx1112basic_stringIcSt11char_traitsIcESaIcEE4findEPKcmm(ptr noundef nonnull align 8 dereferenceable(32) %4, ptr noundef nonnull @.str.7, i64 noundef 0, i64 noundef 11) #24
  %552 = icmp eq i64 %551, 0
  br i1 %552, label %553, label %556

553:                                              ; preds = %550
  invoke void @_ZN9GameState10reset_gameEv(ptr noundef nonnull align 8 dereferenceable(8508) %0)
          to label %554 unwind label %161

554:                                              ; preds = %553
  %555 = load i32, ptr %5, align 4, !tbaa !62
  br label %262

556:                                              ; preds = %550
  %557 = call noundef i64 @_ZNKSt7__cxx1112basic_stringIcSt11char_traitsIcESaIcEE4findEPKcmm(ptr noundef nonnull align 8 dereferenceable(32) %4, ptr noundef nonnull @.str.8, i64 noundef 0, i64 noundef 4) #24
  %558 = icmp eq i64 %557, 0
  br i1 %558, label %559, label %602

559:                                              ; preds = %556
  call void @llvm.lifetime.start.p0(i64 384, ptr nonnull %16) #24
  invoke void @_ZNSt7__cxx1119basic_istringstreamIcSt11char_traitsIcESaIcEEC1ERKNS_12basic_stringIcS2_S3_EESt13_Ios_Openmode(ptr noundef nonnull align 8 dereferenceable(120) %16, ptr noundef nonnull align 8 dereferenceable(32) %4, i32 noundef 8)
          to label %560 unwind label %579

560:                                              ; preds = %559
  call void @llvm.lifetime.start.p0(i64 32, ptr nonnull %17) #24
  %561 = getelementptr inbounds %"class.std::__cxx11::basic_string", ptr %17, i64 0, i32 2
  store ptr %561, ptr %17, align 8, !tbaa !6
  %562 = getelementptr inbounds %"class.std::__cxx11::basic_string", ptr %17, i64 0, i32 1
  store i64 0, ptr %562, align 8, !tbaa !16
  store i8 0, ptr %561, align 8, !tbaa !15
  call void @llvm.lifetime.start.p0(i64 4, ptr nonnull %18) #24
  store float 7.500000e+00, ptr %18, align 4, !tbaa !92
  %563 = invoke noundef nonnull align 8 dereferenceable(16) ptr @_ZStrsIcSt11char_traitsIcESaIcEERSt13basic_istreamIT_T0_ES7_RNSt7__cxx1112basic_stringIS4_S5_T1_EE(ptr noundef nonnull align 8 dereferenceable(16) %16, ptr noundef nonnull align 8 dereferenceable(32) %17)
          to label %564 unwind label %581

564:                                              ; preds = %560
  %565 = invoke noundef nonnull align 8 dereferenceable(16) ptr @_ZNSi10_M_extractIfEERSiRT_(ptr noundef nonnull align 8 dereferenceable(16) %16, ptr noundef nonnull align 4 dereferenceable(4) %18)
          to label %566 unwind label %581

566:                                              ; preds = %564
  %567 = load ptr, ptr %16, align 8, !tbaa !64
  %568 = getelementptr i8, ptr %567, i64 -24
  %569 = load i64, ptr %568, align 8
  %570 = getelementptr inbounds i8, ptr %16, i64 %569
  %571 = getelementptr inbounds %"class.std::ios_base", ptr %570, i64 0, i32 5
  %572 = load i32, ptr %571, align 8, !tbaa !91
  %573 = and i32 %572, 5
  %574 = icmp eq i32 %573, 0
  br i1 %574, label %575, label %590

575:                                              ; preds = %566
  %576 = load float, ptr %18, align 4, !tbaa !92
  invoke void @_ZN9FastState8set_komiEf(ptr noundef nonnull align 8 dereferenceable(8388) %0, float noundef %576)
          to label %577 unwind label %581

577:                                              ; preds = %575
  %578 = load i32, ptr %5, align 4, !tbaa !62
  invoke void (i32, ptr, ...) @_ZN5Utils10gtp_printfEiPKcz(i32 noundef %578, ptr noundef nonnull @.str.24)
          to label %592 unwind label %581

579:                                              ; preds = %559
  %580 = landingpad { ptr, i32 }
          cleanup
  br label %600

581:                                              ; preds = %564, %590, %577, %575, %560
  %582 = landingpad { ptr, i32 }
          cleanup
  call void @llvm.lifetime.end.p0(i64 4, ptr nonnull %18) #24
  %583 = load ptr, ptr %17, align 8, !tbaa !13
  %584 = icmp eq ptr %583, %561
  br i1 %584, label %585, label %588

585:                                              ; preds = %581
  %586 = load i64, ptr %562, align 8, !tbaa !16
  %587 = icmp ult i64 %586, 16
  call void @llvm.assume(i1 %587)
  br label %589

588:                                              ; preds = %581
  call void @_ZdlPv(ptr noundef %583) #25
  br label %589

589:                                              ; preds = %585, %588
  call void @llvm.lifetime.end.p0(i64 32, ptr nonnull %17) #24
  call void @_ZNSt7__cxx1119basic_istringstreamIcSt11char_traitsIcESaIcEED1Ev(ptr noundef nonnull align 8 dereferenceable(120) %16) #24
  br label %600

590:                                              ; preds = %566
  %591 = load i32, ptr %5, align 4, !tbaa !62
  invoke void (i32, ptr, ...) @_ZN5Utils15gtp_fail_printfEiPKcz(i32 noundef %591, ptr noundef nonnull @.str.38)
          to label %592 unwind label %581

592:                                              ; preds = %590, %577
  call void @llvm.lifetime.end.p0(i64 4, ptr nonnull %18) #24
  %593 = load ptr, ptr %17, align 8, !tbaa !13
  %594 = icmp eq ptr %593, %561
  br i1 %594, label %595, label %598

595:                                              ; preds = %592
  %596 = load i64, ptr %562, align 8, !tbaa !16
  %597 = icmp ult i64 %596, 16
  call void @llvm.assume(i1 %597)
  br label %599

598:                                              ; preds = %592
  call void @_ZdlPv(ptr noundef %593) #25
  br label %599

599:                                              ; preds = %595, %598
  call void @llvm.lifetime.end.p0(i64 32, ptr nonnull %17) #24
  call void @_ZNSt7__cxx1119basic_istringstreamIcSt11char_traitsIcESaIcEED1Ev(ptr noundef nonnull align 8 dereferenceable(120) %16) #24
  call void @llvm.lifetime.end.p0(i64 384, ptr nonnull %16) #24
  br label %1682

600:                                              ; preds = %589, %579
  %601 = phi { ptr, i32 } [ %582, %589 ], [ %580, %579 ]
  call void @llvm.lifetime.end.p0(i64 384, ptr nonnull %16) #24
  br label %1699

602:                                              ; preds = %556
  %603 = call noundef i64 @_ZNKSt7__cxx1112basic_stringIcSt11char_traitsIcESaIcEE4findEPKcmm(ptr noundef nonnull align 8 dereferenceable(32) %4, ptr noundef nonnull @.str.9, i64 noundef 0, i64 noundef 4) #24
  %604 = icmp eq i64 %603, 0
  br i1 %604, label %605, label %739

605:                                              ; preds = %602
  %606 = call noundef i64 @_ZNKSt7__cxx1112basic_stringIcSt11char_traitsIcESaIcEE4findEPKcmm(ptr noundef nonnull align 8 dereferenceable(32) %4, ptr noundef nonnull @.str.39, i64 noundef 0, i64 noundef 4) #24
  %607 = icmp eq i64 %606, -1
  br i1 %607, label %608, label %611

608:                                              ; preds = %605
  %609 = call noundef i64 @_ZNKSt7__cxx1112basic_stringIcSt11char_traitsIcESaIcEE4findEPKcmm(ptr noundef nonnull align 8 dereferenceable(32) %4, ptr noundef nonnull @.str.40, i64 noundef 0, i64 noundef 6) #24
  %610 = icmp eq i64 %609, -1
  br i1 %610, label %614, label %611

611:                                              ; preds = %608, %605
  invoke void @_ZN9GameState9play_passEv(ptr noundef nonnull align 8 dereferenceable(8508) %0)
          to label %612 unwind label %161

612:                                              ; preds = %611
  %613 = load i32, ptr %5, align 4, !tbaa !62
  br label %262

614:                                              ; preds = %608
  call void @llvm.lifetime.start.p0(i64 384, ptr nonnull %19) #24
  invoke void @_ZNSt7__cxx1119basic_istringstreamIcSt11char_traitsIcESaIcEEC1ERKNS_12basic_stringIcS2_S3_EESt13_Ios_Openmode(ptr noundef nonnull align 8 dereferenceable(120) %19, ptr noundef nonnull align 8 dereferenceable(32) %4, i32 noundef 8)
          to label %615 unwind label %660

615:                                              ; preds = %614
  call void @llvm.lifetime.start.p0(i64 32, ptr nonnull %20) #24
  %616 = getelementptr inbounds %"class.std::__cxx11::basic_string", ptr %20, i64 0, i32 2
  store ptr %616, ptr %20, align 8, !tbaa !6
  %617 = getelementptr inbounds %"class.std::__cxx11::basic_string", ptr %20, i64 0, i32 1
  store i64 0, ptr %617, align 8, !tbaa !16
  store i8 0, ptr %616, align 8, !tbaa !15
  call void @llvm.lifetime.start.p0(i64 32, ptr nonnull %21) #24
  %618 = getelementptr inbounds %"class.std::__cxx11::basic_string", ptr %21, i64 0, i32 2
  store ptr %618, ptr %21, align 8, !tbaa !6
  %619 = getelementptr inbounds %"class.std::__cxx11::basic_string", ptr %21, i64 0, i32 1
  store i64 0, ptr %619, align 8, !tbaa !16
  store i8 0, ptr %618, align 8, !tbaa !15
  call void @llvm.lifetime.start.p0(i64 32, ptr nonnull %22) #24
  %620 = getelementptr inbounds %"class.std::__cxx11::basic_string", ptr %22, i64 0, i32 2
  store ptr %620, ptr %22, align 8, !tbaa !6
  %621 = getelementptr inbounds %"class.std::__cxx11::basic_string", ptr %22, i64 0, i32 1
  store i64 0, ptr %621, align 8, !tbaa !16
  store i8 0, ptr %620, align 8, !tbaa !15
  %622 = invoke noundef nonnull align 8 dereferenceable(16) ptr @_ZStrsIcSt11char_traitsIcESaIcEERSt13basic_istreamIT_T0_ES7_RNSt7__cxx1112basic_stringIS4_S5_T1_EE(ptr noundef nonnull align 8 dereferenceable(16) %19, ptr noundef nonnull align 8 dereferenceable(32) %20)
          to label %623 unwind label %662

623:                                              ; preds = %615
  %624 = invoke noundef nonnull align 8 dereferenceable(16) ptr @_ZStrsIcSt11char_traitsIcESaIcEERSt13basic_istreamIT_T0_ES7_RNSt7__cxx1112basic_stringIS4_S5_T1_EE(ptr noundef nonnull align 8 dereferenceable(16) %19, ptr noundef nonnull align 8 dereferenceable(32) %21)
          to label %625 unwind label %662

625:                                              ; preds = %623
  %626 = invoke noundef nonnull align 8 dereferenceable(16) ptr @_ZStrsIcSt11char_traitsIcESaIcEERSt13basic_istreamIT_T0_ES7_RNSt7__cxx1112basic_stringIS4_S5_T1_EE(ptr noundef nonnull align 8 dereferenceable(16) %19, ptr noundef nonnull align 8 dereferenceable(32) %22)
          to label %627 unwind label %662

627:                                              ; preds = %625
  %628 = load ptr, ptr %19, align 8, !tbaa !64
  %629 = getelementptr i8, ptr %628, i64 -24
  %630 = load i64, ptr %629, align 8
  %631 = getelementptr inbounds i8, ptr %19, i64 %630
  %632 = getelementptr inbounds %"class.std::ios_base", ptr %631, i64 0, i32 5
  %633 = load i32, ptr %632, align 8, !tbaa !91
  %634 = and i32 %633, 5
  %635 = icmp eq i32 %634, 0
  br i1 %635, label %636, label %687

636:                                              ; preds = %627
  invoke void @_ZNSt7__cxx1112basic_stringIcSt11char_traitsIcESaIcEEC2ERKS4_(ptr noundef nonnull align 8 dereferenceable(32) %23, ptr noundef nonnull align 8 dereferenceable(32) %21)
          to label %637 unwind label %662

637:                                              ; preds = %636
  invoke void @_ZNSt7__cxx1112basic_stringIcSt11char_traitsIcESaIcEEC2ERKS4_(ptr noundef nonnull align 8 dereferenceable(32) %24, ptr noundef nonnull align 8 dereferenceable(32) %22)
          to label %638 unwind label %664

638:                                              ; preds = %637
  %639 = invoke noundef zeroext i1 @_ZN9GameState13play_textmoveENSt7__cxx1112basic_stringIcSt11char_traitsIcESaIcEEES5_(ptr noundef nonnull align 8 dereferenceable(8508) %0, ptr noundef nonnull %23, ptr noundef nonnull %24)
          to label %640 unwind label %666

640:                                              ; preds = %638
  %641 = load ptr, ptr %24, align 8, !tbaa !13
  %642 = getelementptr inbounds %"class.std::__cxx11::basic_string", ptr %24, i64 0, i32 2
  %643 = icmp eq ptr %641, %642
  br i1 %643, label %644, label %648

644:                                              ; preds = %640
  %645 = getelementptr inbounds %"class.std::__cxx11::basic_string", ptr %24, i64 0, i32 1
  %646 = load i64, ptr %645, align 8, !tbaa !16
  %647 = icmp ult i64 %646, 16
  call void @llvm.assume(i1 %647)
  br label %649

648:                                              ; preds = %640
  call void @_ZdlPv(ptr noundef %641) #25
  br label %649

649:                                              ; preds = %644, %648
  %650 = load ptr, ptr %23, align 8, !tbaa !13
  %651 = getelementptr inbounds %"class.std::__cxx11::basic_string", ptr %23, i64 0, i32 2
  %652 = icmp eq ptr %650, %651
  br i1 %652, label %653, label %657

653:                                              ; preds = %649
  %654 = getelementptr inbounds %"class.std::__cxx11::basic_string", ptr %23, i64 0, i32 1
  %655 = load i64, ptr %654, align 8, !tbaa !16
  %656 = icmp ult i64 %655, 16
  call void @llvm.assume(i1 %656)
  br label %658

657:                                              ; preds = %649
  call void @_ZdlPv(ptr noundef %650) #25
  br label %658

658:                                              ; preds = %653, %657
  %659 = load i32, ptr %5, align 4, !tbaa !62
  br i1 %639, label %686, label %689

660:                                              ; preds = %614
  %661 = landingpad { ptr, i32 }
          cleanup
  br label %737

662:                                              ; preds = %689, %686, %636, %625, %623, %615
  %663 = landingpad { ptr, i32 }
          cleanup
  br label %714

664:                                              ; preds = %637
  %665 = landingpad { ptr, i32 }
          cleanup
  br label %676

666:                                              ; preds = %638
  %667 = landingpad { ptr, i32 }
          cleanup
  %668 = load ptr, ptr %24, align 8, !tbaa !13
  %669 = getelementptr inbounds %"class.std::__cxx11::basic_string", ptr %24, i64 0, i32 2
  %670 = icmp eq ptr %668, %669
  br i1 %670, label %671, label %675

671:                                              ; preds = %666
  %672 = getelementptr inbounds %"class.std::__cxx11::basic_string", ptr %24, i64 0, i32 1
  %673 = load i64, ptr %672, align 8, !tbaa !16
  %674 = icmp ult i64 %673, 16
  call void @llvm.assume(i1 %674)
  br label %676

675:                                              ; preds = %666
  call void @_ZdlPv(ptr noundef %668) #25
  br label %676

676:                                              ; preds = %675, %671, %664
  %677 = phi { ptr, i32 } [ %665, %664 ], [ %667, %671 ], [ %667, %675 ]
  %678 = load ptr, ptr %23, align 8, !tbaa !13
  %679 = getelementptr inbounds %"class.std::__cxx11::basic_string", ptr %23, i64 0, i32 2
  %680 = icmp eq ptr %678, %679
  br i1 %680, label %681, label %685

681:                                              ; preds = %676
  %682 = getelementptr inbounds %"class.std::__cxx11::basic_string", ptr %23, i64 0, i32 1
  %683 = load i64, ptr %682, align 8, !tbaa !16
  %684 = icmp ult i64 %683, 16
  call void @llvm.assume(i1 %684)
  br label %714

685:                                              ; preds = %676
  call void @_ZdlPv(ptr noundef %678) #25
  br label %714

686:                                              ; preds = %658
  invoke void (i32, ptr, ...) @_ZN5Utils10gtp_printfEiPKcz(i32 noundef %659, ptr noundef nonnull @.str.24)
          to label %692 unwind label %662

687:                                              ; preds = %627
  %688 = load i32, ptr %5, align 4, !tbaa !62
  br label %689

689:                                              ; preds = %658, %687
  %690 = phi i32 [ %688, %687 ], [ %659, %658 ]
  %691 = phi ptr [ @.str.38, %687 ], [ @.str.41, %658 ]
  invoke void (i32, ptr, ...) @_ZN5Utils15gtp_fail_printfEiPKcz(i32 noundef %690, ptr noundef nonnull %691)
          to label %692 unwind label %662

692:                                              ; preds = %689, %686
  %693 = load ptr, ptr %22, align 8, !tbaa !13
  %694 = icmp eq ptr %693, %620
  br i1 %694, label %695, label %698

695:                                              ; preds = %692
  %696 = load i64, ptr %621, align 8, !tbaa !16
  %697 = icmp ult i64 %696, 16
  call void @llvm.assume(i1 %697)
  br label %699

698:                                              ; preds = %692
  call void @_ZdlPv(ptr noundef %693) #25
  br label %699

699:                                              ; preds = %695, %698
  call void @llvm.lifetime.end.p0(i64 32, ptr nonnull %22) #24
  %700 = load ptr, ptr %21, align 8, !tbaa !13
  %701 = icmp eq ptr %700, %618
  br i1 %701, label %702, label %705

702:                                              ; preds = %699
  %703 = load i64, ptr %619, align 8, !tbaa !16
  %704 = icmp ult i64 %703, 16
  call void @llvm.assume(i1 %704)
  br label %706

705:                                              ; preds = %699
  call void @_ZdlPv(ptr noundef %700) #25
  br label %706

706:                                              ; preds = %702, %705
  call void @llvm.lifetime.end.p0(i64 32, ptr nonnull %21) #24
  %707 = load ptr, ptr %20, align 8, !tbaa !13
  %708 = icmp eq ptr %707, %616
  br i1 %708, label %709, label %712

709:                                              ; preds = %706
  %710 = load i64, ptr %617, align 8, !tbaa !16
  %711 = icmp ult i64 %710, 16
  call void @llvm.assume(i1 %711)
  br label %713

712:                                              ; preds = %706
  call void @_ZdlPv(ptr noundef %707) #25
  br label %713

713:                                              ; preds = %709, %712
  call void @llvm.lifetime.end.p0(i64 32, ptr nonnull %20) #24
  call void @_ZNSt7__cxx1119basic_istringstreamIcSt11char_traitsIcESaIcEED1Ev(ptr noundef nonnull align 8 dereferenceable(120) %19) #24
  call void @llvm.lifetime.end.p0(i64 384, ptr nonnull %19) #24
  br label %1682

714:                                              ; preds = %685, %681, %662
  %715 = phi { ptr, i32 } [ %663, %662 ], [ %677, %681 ], [ %677, %685 ]
  %716 = load ptr, ptr %22, align 8, !tbaa !13
  %717 = icmp eq ptr %716, %620
  br i1 %717, label %718, label %721

718:                                              ; preds = %714
  %719 = load i64, ptr %621, align 8, !tbaa !16
  %720 = icmp ult i64 %719, 16
  call void @llvm.assume(i1 %720)
  br label %722

721:                                              ; preds = %714
  call void @_ZdlPv(ptr noundef %716) #25
  br label %722

722:                                              ; preds = %718, %721
  call void @llvm.lifetime.end.p0(i64 32, ptr nonnull %22) #24
  %723 = load ptr, ptr %21, align 8, !tbaa !13
  %724 = icmp eq ptr %723, %618
  br i1 %724, label %725, label %728

725:                                              ; preds = %722
  %726 = load i64, ptr %619, align 8, !tbaa !16
  %727 = icmp ult i64 %726, 16
  call void @llvm.assume(i1 %727)
  br label %729

728:                                              ; preds = %722
  call void @_ZdlPv(ptr noundef %723) #25
  br label %729

729:                                              ; preds = %725, %728
  call void @llvm.lifetime.end.p0(i64 32, ptr nonnull %21) #24
  %730 = load ptr, ptr %20, align 8, !tbaa !13
  %731 = icmp eq ptr %730, %616
  br i1 %731, label %732, label %735

732:                                              ; preds = %729
  %733 = load i64, ptr %617, align 8, !tbaa !16
  %734 = icmp ult i64 %733, 16
  call void @llvm.assume(i1 %734)
  br label %736

735:                                              ; preds = %729
  call void @_ZdlPv(ptr noundef %730) #25
  br label %736

736:                                              ; preds = %732, %735
  call void @llvm.lifetime.end.p0(i64 32, ptr nonnull %20) #24
  call void @_ZNSt7__cxx1119basic_istringstreamIcSt11char_traitsIcESaIcEED1Ev(ptr noundef nonnull align 8 dereferenceable(120) %19) #24
  br label %737

737:                                              ; preds = %736, %660
  %738 = phi { ptr, i32 } [ %715, %736 ], [ %661, %660 ]
  call void @llvm.lifetime.end.p0(i64 384, ptr nonnull %19) #24
  br label %1699

739:                                              ; preds = %602
  %740 = call noundef i64 @_ZNKSt7__cxx1112basic_stringIcSt11char_traitsIcESaIcEE4findEPKcmm(ptr noundef nonnull align 8 dereferenceable(32) %4, ptr noundef nonnull @.str.10, i64 noundef 0, i64 noundef 7) #24
  %741 = icmp eq i64 %740, 0
  br i1 %741, label %742, label %840

742:                                              ; preds = %739
  call void @llvm.lifetime.start.p0(i64 384, ptr nonnull %25) #24
  invoke void @_ZNSt7__cxx1119basic_istringstreamIcSt11char_traitsIcESaIcEEC1ERKNS_12basic_stringIcS2_S3_EESt13_Ios_Openmode(ptr noundef nonnull align 8 dereferenceable(120) %25, ptr noundef nonnull align 8 dereferenceable(32) %4, i32 noundef 8)
          to label %743 unwind label %762

743:                                              ; preds = %742
  call void @llvm.lifetime.start.p0(i64 32, ptr nonnull %26) #24
  %744 = getelementptr inbounds %"class.std::__cxx11::basic_string", ptr %26, i64 0, i32 2
  store ptr %744, ptr %26, align 8, !tbaa !6
  %745 = getelementptr inbounds %"class.std::__cxx11::basic_string", ptr %26, i64 0, i32 1
  store i64 0, ptr %745, align 8, !tbaa !16
  store i8 0, ptr %744, align 8, !tbaa !15
  %746 = invoke noundef nonnull align 8 dereferenceable(16) ptr @_ZStrsIcSt11char_traitsIcESaIcEERSt13basic_istreamIT_T0_ES7_RNSt7__cxx1112basic_stringIS4_S5_T1_EE(ptr noundef nonnull align 8 dereferenceable(16) %25, ptr noundef nonnull align 8 dereferenceable(32) %26)
          to label %747 unwind label %764

747:                                              ; preds = %743
  %748 = invoke noundef nonnull align 8 dereferenceable(16) ptr @_ZStrsIcSt11char_traitsIcESaIcEERSt13basic_istreamIT_T0_ES7_RNSt7__cxx1112basic_stringIS4_S5_T1_EE(ptr noundef nonnull align 8 dereferenceable(16) %25, ptr noundef nonnull align 8 dereferenceable(32) %26)
          to label %749 unwind label %764

749:                                              ; preds = %747
  %750 = load ptr, ptr %25, align 8, !tbaa !64
  %751 = getelementptr i8, ptr %750, i64 -24
  %752 = load i64, ptr %751, align 8
  %753 = getelementptr inbounds i8, ptr %25, i64 %752
  %754 = getelementptr inbounds %"class.std::ios_base", ptr %753, i64 0, i32 5
  %755 = load i32, ptr %754, align 8, !tbaa !91
  %756 = and i32 %755, 5
  %757 = icmp eq i32 %756, 0
  br i1 %757, label %758, label %819

758:                                              ; preds = %749
  %759 = call noundef zeroext i1 @_ZSteqIcSt11char_traitsIcESaIcEEbRKNSt7__cxx1112basic_stringIT_T0_T1_EEPKS5_(ptr noundef nonnull align 8 dereferenceable(32) %26, ptr noundef nonnull @.str.42)
  br i1 %759, label %774, label %760

760:                                              ; preds = %758
  %761 = call noundef zeroext i1 @_ZSteqIcSt11char_traitsIcESaIcEEbRKNSt7__cxx1112basic_stringIT_T0_T1_EEPKS5_(ptr noundef nonnull align 8 dereferenceable(32) %26, ptr noundef nonnull @.str.43)
  br i1 %761, label %774, label %768

762:                                              ; preds = %742
  %763 = landingpad { ptr, i32 }
          cleanup
  br label %838

764:                                              ; preds = %819, %747, %743
  %765 = landingpad { ptr, i32 }
          cleanup
  br label %829

766:                                              ; preds = %772
  %767 = landingpad { ptr, i32 }
          cleanup
  br label %829

768:                                              ; preds = %760
  %769 = call noundef zeroext i1 @_ZSteqIcSt11char_traitsIcESaIcEEbRKNSt7__cxx1112basic_stringIT_T0_T1_EEPKS5_(ptr noundef nonnull align 8 dereferenceable(32) %26, ptr noundef nonnull @.str.44)
  br i1 %769, label %774, label %770

770:                                              ; preds = %768
  %771 = call noundef zeroext i1 @_ZSteqIcSt11char_traitsIcESaIcEEbRKNSt7__cxx1112basic_stringIT_T0_T1_EEPKS5_(ptr noundef nonnull align 8 dereferenceable(32) %26, ptr noundef nonnull @.str.45)
  br i1 %771, label %774, label %772

772:                                              ; preds = %770
  %773 = load i32, ptr %5, align 4, !tbaa !62
  invoke void (i32, ptr, ...) @_ZN5Utils15gtp_fail_printfEiPKcz(i32 noundef %773, ptr noundef nonnull @.str.46)
          to label %821 unwind label %766

774:                                              ; preds = %768, %770, %758, %760
  %775 = phi i32 [ 1, %760 ], [ 1, %758 ], [ 0, %770 ], [ 0, %768 ]
  call void @llvm.lifetime.start.p0(i64 8, ptr nonnull %27) #24
  %776 = invoke noalias noundef nonnull dereferenceable(96) ptr @_Znwm(i64 noundef 96) #27
          to label %777 unwind label %795

777:                                              ; preds = %774
  invoke void @_ZN9UCTSearchC1ER9GameState(ptr noundef nonnull align 8 dereferenceable(90) %776, ptr noundef nonnull align 8 dereferenceable(8508) %0)
          to label %778 unwind label %797

778:                                              ; preds = %777
  store ptr %776, ptr %27, align 8, !tbaa !94
  %779 = invoke noundef i32 @_ZN9UCTSearch5thinkEii(ptr noundef nonnull align 8 dereferenceable(90) %776, i32 noundef %775, i32 noundef 0)
          to label %780 unwind label %799

780:                                              ; preds = %778
  invoke void @_ZN9GameState9play_moveEii(ptr noundef nonnull align 8 dereferenceable(8508) %0, i32 noundef %775, i32 noundef %779)
          to label %781 unwind label %799

781:                                              ; preds = %780
  call void @llvm.lifetime.start.p0(i64 32, ptr nonnull %28) #24
  invoke void @_ZN9FastState12move_to_textB5cxx11Ei(ptr nonnull sret(%"class.std::__cxx11::basic_string") align 8 %28, ptr noundef nonnull align 8 dereferenceable(8388) %0, i32 noundef %779)
          to label %782 unwind label %801

782:                                              ; preds = %781
  %783 = load i32, ptr %5, align 4, !tbaa !62
  %784 = load ptr, ptr %28, align 8, !tbaa !13
  invoke void (i32, ptr, ...) @_ZN5Utils10gtp_printfEiPKcz(i32 noundef %783, ptr noundef nonnull @.str.47, ptr noundef %784)
          to label %785 unwind label %803

785:                                              ; preds = %782
  %786 = load ptr, ptr %28, align 8, !tbaa !13
  %787 = getelementptr inbounds %"class.std::__cxx11::basic_string", ptr %28, i64 0, i32 2
  %788 = icmp eq ptr %786, %787
  br i1 %788, label %789, label %793

789:                                              ; preds = %785
  %790 = getelementptr inbounds %"class.std::__cxx11::basic_string", ptr %28, i64 0, i32 1
  %791 = load i64, ptr %790, align 8, !tbaa !16
  %792 = icmp ult i64 %791, 16
  call void @llvm.assume(i1 %792)
  br label %794

793:                                              ; preds = %785
  call void @_ZdlPv(ptr noundef %786) #25
  br label %794

794:                                              ; preds = %789, %793
  call void @llvm.lifetime.end.p0(i64 32, ptr nonnull %28) #24
  call void @_ZNSt8auto_ptrI9UCTSearchED2Ev(ptr noundef nonnull align 8 dereferenceable(8) %27) #24
  call void @llvm.lifetime.end.p0(i64 8, ptr nonnull %27) #24
  br label %821

795:                                              ; preds = %774
  %796 = landingpad { ptr, i32 }
          cleanup
  br label %817

797:                                              ; preds = %777
  %798 = landingpad { ptr, i32 }
          cleanup
  call void @_ZdlPv(ptr noundef nonnull %776) #25
  br label %817

799:                                              ; preds = %780, %778
  %800 = landingpad { ptr, i32 }
          cleanup
  br label %815

801:                                              ; preds = %781
  %802 = landingpad { ptr, i32 }
          cleanup
  br label %813

803:                                              ; preds = %782
  %804 = landingpad { ptr, i32 }
          cleanup
  %805 = load ptr, ptr %28, align 8, !tbaa !13
  %806 = getelementptr inbounds %"class.std::__cxx11::basic_string", ptr %28, i64 0, i32 2
  %807 = icmp eq ptr %805, %806
  br i1 %807, label %808, label %812

808:                                              ; preds = %803
  %809 = getelementptr inbounds %"class.std::__cxx11::basic_string", ptr %28, i64 0, i32 1
  %810 = load i64, ptr %809, align 8, !tbaa !16
  %811 = icmp ult i64 %810, 16
  call void @llvm.assume(i1 %811)
  br label %813

812:                                              ; preds = %803
  call void @_ZdlPv(ptr noundef %805) #25
  br label %813

813:                                              ; preds = %812, %808, %801
  %814 = phi { ptr, i32 } [ %802, %801 ], [ %804, %808 ], [ %804, %812 ]
  call void @llvm.lifetime.end.p0(i64 32, ptr nonnull %28) #24
  br label %815

815:                                              ; preds = %813, %799
  %816 = phi { ptr, i32 } [ %814, %813 ], [ %800, %799 ]
  call void @_ZNSt8auto_ptrI9UCTSearchED2Ev(ptr noundef nonnull align 8 dereferenceable(8) %27) #24
  br label %817

817:                                              ; preds = %815, %797, %795
  %818 = phi { ptr, i32 } [ %816, %815 ], [ %798, %797 ], [ %796, %795 ]
  call void @llvm.lifetime.end.p0(i64 8, ptr nonnull %27) #24
  br label %829

819:                                              ; preds = %749
  %820 = load i32, ptr %5, align 4, !tbaa !62
  invoke void (i32, ptr, ...) @_ZN5Utils15gtp_fail_printfEiPKcz(i32 noundef %820, ptr noundef nonnull @.str.38)
          to label %821 unwind label %764

821:                                              ; preds = %819, %794, %772
  %822 = load ptr, ptr %26, align 8, !tbaa !13
  %823 = icmp eq ptr %822, %744
  br i1 %823, label %824, label %827

824:                                              ; preds = %821
  %825 = load i64, ptr %745, align 8, !tbaa !16
  %826 = icmp ult i64 %825, 16
  call void @llvm.assume(i1 %826)
  br label %828

827:                                              ; preds = %821
  call void @_ZdlPv(ptr noundef %822) #25
  br label %828

828:                                              ; preds = %824, %827
  call void @llvm.lifetime.end.p0(i64 32, ptr nonnull %26) #24
  call void @_ZNSt7__cxx1119basic_istringstreamIcSt11char_traitsIcESaIcEED1Ev(ptr noundef nonnull align 8 dereferenceable(120) %25) #24
  call void @llvm.lifetime.end.p0(i64 384, ptr nonnull %25) #24
  br label %1682

829:                                              ; preds = %766, %817, %764
  %830 = phi { ptr, i32 } [ %765, %764 ], [ %818, %817 ], [ %767, %766 ]
  %831 = load ptr, ptr %26, align 8, !tbaa !13
  %832 = icmp eq ptr %831, %744
  br i1 %832, label %833, label %836

833:                                              ; preds = %829
  %834 = load i64, ptr %745, align 8, !tbaa !16
  %835 = icmp ult i64 %834, 16
  call void @llvm.assume(i1 %835)
  br label %837

836:                                              ; preds = %829
  call void @_ZdlPv(ptr noundef %831) #25
  br label %837

837:                                              ; preds = %833, %836
  call void @llvm.lifetime.end.p0(i64 32, ptr nonnull %26) #24
  call void @_ZNSt7__cxx1119basic_istringstreamIcSt11char_traitsIcESaIcEED1Ev(ptr noundef nonnull align 8 dereferenceable(120) %25) #24
  br label %838

838:                                              ; preds = %837, %762
  %839 = phi { ptr, i32 } [ %830, %837 ], [ %763, %762 ]
  call void @llvm.lifetime.end.p0(i64 384, ptr nonnull %25) #24
  br label %1699

840:                                              ; preds = %739
  %841 = call noundef i64 @_ZNKSt7__cxx1112basic_stringIcSt11char_traitsIcESaIcEE4findEPKcmm(ptr noundef nonnull align 8 dereferenceable(32) %4, ptr noundef nonnull @.str.19, i64 noundef 0, i64 noundef 19) #24
  %842 = icmp eq i64 %841, 0
  br i1 %842, label %843, label %942

843:                                              ; preds = %840
  call void @llvm.lifetime.start.p0(i64 384, ptr nonnull %29) #24
  invoke void @_ZNSt7__cxx1119basic_istringstreamIcSt11char_traitsIcESaIcEEC1ERKNS_12basic_stringIcS2_S3_EESt13_Ios_Openmode(ptr noundef nonnull align 8 dereferenceable(120) %29, ptr noundef nonnull align 8 dereferenceable(32) %4, i32 noundef 8)
          to label %844 unwind label %863

844:                                              ; preds = %843
  call void @llvm.lifetime.start.p0(i64 32, ptr nonnull %30) #24
  %845 = getelementptr inbounds %"class.std::__cxx11::basic_string", ptr %30, i64 0, i32 2
  store ptr %845, ptr %30, align 8, !tbaa !6
  %846 = getelementptr inbounds %"class.std::__cxx11::basic_string", ptr %30, i64 0, i32 1
  store i64 0, ptr %846, align 8, !tbaa !16
  store i8 0, ptr %845, align 8, !tbaa !15
  %847 = invoke noundef nonnull align 8 dereferenceable(16) ptr @_ZStrsIcSt11char_traitsIcESaIcEERSt13basic_istreamIT_T0_ES7_RNSt7__cxx1112basic_stringIS4_S5_T1_EE(ptr noundef nonnull align 8 dereferenceable(16) %29, ptr noundef nonnull align 8 dereferenceable(32) %30)
          to label %848 unwind label %865

848:                                              ; preds = %844
  %849 = invoke noundef nonnull align 8 dereferenceable(16) ptr @_ZStrsIcSt11char_traitsIcESaIcEERSt13basic_istreamIT_T0_ES7_RNSt7__cxx1112basic_stringIS4_S5_T1_EE(ptr noundef nonnull align 8 dereferenceable(16) %29, ptr noundef nonnull align 8 dereferenceable(32) %30)
          to label %850 unwind label %865

850:                                              ; preds = %848
  %851 = load ptr, ptr %29, align 8, !tbaa !64
  %852 = getelementptr i8, ptr %851, i64 -24
  %853 = load i64, ptr %852, align 8
  %854 = getelementptr inbounds i8, ptr %29, i64 %853
  %855 = getelementptr inbounds %"class.std::ios_base", ptr %854, i64 0, i32 5
  %856 = load i32, ptr %855, align 8, !tbaa !91
  %857 = and i32 %856, 5
  %858 = icmp eq i32 %857, 0
  br i1 %858, label %859, label %921

859:                                              ; preds = %850
  %860 = call noundef zeroext i1 @_ZSteqIcSt11char_traitsIcESaIcEEbRKNSt7__cxx1112basic_stringIT_T0_T1_EEPKS5_(ptr noundef nonnull align 8 dereferenceable(32) %30, ptr noundef nonnull @.str.42)
  br i1 %860, label %875, label %861

861:                                              ; preds = %859
  %862 = call noundef zeroext i1 @_ZSteqIcSt11char_traitsIcESaIcEEbRKNSt7__cxx1112basic_stringIT_T0_T1_EEPKS5_(ptr noundef nonnull align 8 dereferenceable(32) %30, ptr noundef nonnull @.str.43)
  br i1 %862, label %875, label %869

863:                                              ; preds = %843
  %864 = landingpad { ptr, i32 }
          cleanup
  br label %940

865:                                              ; preds = %921, %848, %844
  %866 = landingpad { ptr, i32 }
          cleanup
  br label %931

867:                                              ; preds = %875, %873
  %868 = landingpad { ptr, i32 }
          cleanup
  br label %931

869:                                              ; preds = %861
  %870 = call noundef zeroext i1 @_ZSteqIcSt11char_traitsIcESaIcEEbRKNSt7__cxx1112basic_stringIT_T0_T1_EEPKS5_(ptr noundef nonnull align 8 dereferenceable(32) %30, ptr noundef nonnull @.str.44)
  br i1 %870, label %875, label %871

871:                                              ; preds = %869
