; ModuleID = 'simulator/envirbase.cc'
source_filename = "simulator/envirbase.cc"
target datalayout = "e-m:e-p270:32:32-p271:32:32-p272:64:64-i64:64-f80:128-n8:16:32:64-S128"
target triple = "x86_64-pc-linux-gnu"

module asm ".globl _ZSt21ios_base_library_initv"

%class.ExecuteOnStartup = type { ptr, ptr }
%class.cGlobalRegistrationList = type { ptr, ptr }
%class.EnvirBase = type { %class.cRunnableEnvir, ptr, ptr, ptr, i32, i64, %class.opp_string, i8, %class.opp_string, %class.opp_string, %class.opp_string, %class.opp_string, i32, %class.opp_string, i32, %class.opp_string, %class.opp_string, %class.opp_string, i8, i8, i8, i8, %class.SimTime, i64, %class.opp_string, ptr, ptr, i32, ptr, ptr, ptr, ptr, ptr, i64, %struct.timeval, %struct.timeval, %struct.timeval, %struct.timeval, %class.SimTime }
%class.cRunnableEnvir = type { %class.cEnvir }
%class.cEnvir = type { ptr, i8, i8, i8, %"class.std::basic_ostream" }
%"class.std::basic_ostream" = type { ptr, %"class.std::basic_ios" }
%"class.std::basic_ios" = type { %"class.std::ios_base", ptr, i8, i8, ptr, ptr, ptr, ptr }
%"class.std::ios_base" = type { ptr, i64, i64, i32, i32, i32, ptr, %"struct.std::ios_base::_Words", [8 x %"struct.std::ios_base::_Words"], i32, ptr, %"class.std::locale" }
%"struct.std::ios_base::_Words" = type { ptr, i64 }
%"class.std::locale" = type { ptr }
%class.opp_string = type { ptr }
%struct.timeval = type { i64, i64 }
%class.SimTime = type { i64 }
%"class.std::__cxx11::basic_string" = type { %"struct.std::__cxx11::basic_string<char>::_Alloc_hider", i64, %union.anon }
%"struct.std::__cxx11::basic_string<char>::_Alloc_hider" = type { ptr }
%union.anon = type { i64, [8 x i8] }
%class.ModNameParamResolver = type { %"class.cXMLElement::ParamResolver", ptr }
%"class.cXMLElement::ParamResolver" = type { ptr }
%"class.std::vector.51" = type { %"struct.std::_Vector_base.52" }
%"struct.std::_Vector_base.52" = type { %"struct.std::_Vector_base<const char *, std::allocator<const char *> >::_Vector_impl" }
%"struct.std::_Vector_base<const char *, std::allocator<const char *> >::_Vector_impl" = type { %"struct.std::_Vector_base<const char *, std::allocator<const char *> >::_Vector_impl_data" }
%"struct.std::_Vector_base<const char *, std::allocator<const char *> >::_Vector_impl_data" = type { ptr, ptr, ptr }
%class.cComponent = type { %class.cDefaultList, ptr, i16, ptr, i16, i16, ptr, ptr }
%class.cDefaultList = type { %class.cNoncopyableOwnedObject.base, ptr, i32, i32 }
%class.cNoncopyableOwnedObject.base = type { %class.cOwnedObject.base }
%class.cOwnedObject.base = type <{ %class.cNamedObject.base, [4 x i8], ptr, i32 }>
%class.cNamedObject.base = type <{ %class.cObject, ptr, i16, i16 }>
%class.cObject = type { ptr }
%class.ArgList = type { i32, ptr, %"class.std::__cxx11::basic_string", %"class.std::map.6", %"class.std::map.14", %"class.std::vector.19" }
%"class.std::map.6" = type { %"class.std::_Rb_tree.7" }
%"class.std::_Rb_tree.7" = type { %"struct.std::_Rb_tree<char, std::pair<const char, std::vector<std::__cxx11::basic_string<char> > >, std::_Select1st<std::pair<const char, std::vector<std::__cxx11::basic_string<char> > > >, std::less<char> >::_Rb_tree_impl" }
%"struct.std::_Rb_tree<char, std::pair<const char, std::vector<std::__cxx11::basic_string<char> > >, std::_Select1st<std::pair<const char, std::vector<std::__cxx11::basic_string<char> > > >, std::less<char> >::_Rb_tree_impl" = type { %"struct.std::_Rb_tree_key_compare.11", %"struct.std::_Rb_tree_header" }
%"struct.std::_Rb_tree_key_compare.11" = type { %"struct.std::less.12" }
%"struct.std::less.12" = type { i8 }
%"struct.std::_Rb_tree_header" = type { %"struct.std::_Rb_tree_node_base", i64 }
%"struct.std::_Rb_tree_node_base" = type { i32, ptr, ptr, ptr }
%"class.std::map.14" = type { %"class.std::_Rb_tree.15" }
%"class.std::_Rb_tree.15" = type { %"struct.std::_Rb_tree<std::__cxx11::basic_string<char>, std::pair<const std::__cxx11::basic_string<char>, std::__cxx11::basic_string<char> >, std::_Select1st<std::pair<const std::__cxx11::basic_string<char>, std::__cxx11::basic_string<char> > >, std::less<std::__cxx11::basic_string<char> > >::_Rb_tree_impl" }
%"struct.std::_Rb_tree<std::__cxx11::basic_string<char>, std::pair<const std::__cxx11::basic_string<char>, std::__cxx11::basic_string<char> >, std::_Select1st<std::pair<const std::__cxx11::basic_string<char>, std::__cxx11::basic_string<char> > >, std::less<std::__cxx11::basic_string<char> > >::_Rb_tree_impl" = type { %"struct.std::_Rb_tree_key_compare", %"struct.std::_Rb_tree_header" }
%"struct.std::_Rb_tree_key_compare" = type { %"struct.std::less" }
%"struct.std::less" = type { i8 }
%"class.std::vector.19" = type { %"struct.std::_Vector_base.20" }
%"struct.std::_Vector_base.20" = type { %"struct.std::_Vector_base<std::__cxx11::basic_string<char>, std::allocator<std::__cxx11::basic_string<char> > >::_Vector_impl" }
%"struct.std::_Vector_base<std::__cxx11::basic_string<char>, std::allocator<std::__cxx11::basic_string<char> > >::_Vector_impl" = type { %"struct.std::_Vector_base<std::__cxx11::basic_string<char>, std::allocator<std::__cxx11::basic_string<char> > >::_Vector_impl_data" }
%"struct.std::_Vector_base<std::__cxx11::basic_string<char>, std::allocator<std::__cxx11::basic_string<char> > >::_Vector_impl_data" = type { ptr, ptr, ptr }
%class.StringTokenizer = type { ptr, ptr, %"class.std::__cxx11::basic_string" }
%"class.std::set" = type { %"class.std::_Rb_tree.38" }
%"class.std::_Rb_tree.38" = type { %"struct.std::_Rb_tree<std::__cxx11::basic_string<char>, std::__cxx11::basic_string<char>, std::_Identity<std::__cxx11::basic_string<char> >, std::less<std::__cxx11::basic_string<char> > >::_Rb_tree_impl" }
%"struct.std::_Rb_tree<std::__cxx11::basic_string<char>, std::__cxx11::basic_string<char>, std::_Identity<std::__cxx11::basic_string<char> >, std::less<std::__cxx11::basic_string<char> > >::_Rb_tree_impl" = type { %"struct.std::_Rb_tree_key_compare", %"struct.std::_Rb_tree_header" }
%"struct.std::_Rb_tree_node.44" = type { %"struct.std::_Rb_tree_node_base", %"class.std::__cxx11::basic_string" }
%"struct.std::_Rb_tree_node" = type { %"struct.std::_Rb_tree_node_base", %"struct.std::pair" }
%"struct.std::pair" = type { %"class.std::__cxx11::basic_string", %"class.std::__cxx11::basic_string" }
%"struct.std::_Rb_tree_node.32" = type { %"struct.std::_Rb_tree_node_base", %"struct.std::pair.33" }
%"struct.std::pair.33" = type { i8, %"class.std::vector.19" }
%class.cException = type <{ %"class.std::exception", i32, [4 x i8], %"class.std::__cxx11::basic_string", i8, [7 x i8], %"class.std::__cxx11::basic_string", %"class.std::__cxx11::basic_string", i32, [4 x i8] }>
%"class.std::exception" = type { ptr }
%class.cOmnetAppRegistration = type <{ %class.cOwnedObject.base, [4 x i8], ptr, %"class.std::__cxx11::basic_string", i32, [4 x i8] }>
%class.cConfigOption = type { %class.cNoncopyableOwnedObject.base, i8, i8, i32, %"class.std::__cxx11::basic_string", %"class.std::__cxx11::basic_string", %"class.std::__cxx11::basic_string" }
%class.cNEDFunction = type { %class.cNoncopyableOwnedObject.base, %"class.std::__cxx11::basic_string", %"class.std::__cxx11::basic_string", i8, i32, i32, ptr, %"class.std::__cxx11::basic_string", %"class.std::__cxx11::basic_string" }
%class.cMathFunction = type { %class.cNoncopyableOwnedObject.base, ptr, i32, %"class.std::__cxx11::basic_string", %"class.std::__cxx11::basic_string" }
%class.cSimulation = type { %class.cNoncopyableOwnedObject.base, i32, i32, ptr, i32, ptr, ptr, ptr, ptr, i32, ptr, ptr, %class.SimTime, i64, ptr, ptr, ptr, %class.cMessageHeap }
%class.cMessageHeap = type { %class.cOwnedObject.base, ptr, i32, i32, i64 }

$__clang_call_terminate = comdat any

$_ZN7ArgListD2Ev = comdat any

$_ZNSt6vectorINSt7__cxx1112basic_stringIcSt11char_traitsIcESaIcEEESaIS5_EED2Ev = comdat any

$_ZNSt8_Rb_treeINSt7__cxx1112basic_stringIcSt11char_traitsIcESaIcEEESt4pairIKS5_S5_ESt10_Select1stIS8_ESt4lessIS5_ESaIS8_EE8_M_eraseEPSt13_Rb_tree_nodeIS8_E = comdat any

$_ZNSt8_Rb_treeIcSt4pairIKcSt6vectorINSt7__cxx1112basic_stringIcSt11char_traitsIcESaIcEEESaIS8_EEESt10_Select1stISB_ESt4lessIcESaISB_EE8_M_eraseEPSt13_Rb_tree_nodeISB_E = comdat any

$_ZN10cExceptionD0Ev = comdat any

$_ZNK10cException4whatEv = comdat any

$_ZNK10cException3dupEv = comdat any

$_ZNK10cException12getErrorCodeEv = comdat any

$_ZN10cException10setMessageEPKc = comdat any

$_ZN10cException14prependMessageEPKc = comdat any

$_ZNK10cException10hasContextEv = comdat any

$_ZNK10cException19getContextClassNameEv = comdat any

$_ZNK10cException18getContextFullPathEv = comdat any

$_ZNK10cException11getModuleIDEv = comdat any

$_ZStplIcSt11char_traitsIcESaIcEENSt7__cxx1112basic_stringIT_T0_T1_EERKS8_PKS5_ = comdat any

$_ZNSt8_Rb_treeINSt7__cxx1112basic_stringIcSt11char_traitsIcESaIcEEES5_St9_IdentityIS5_ESt4lessIS5_ESaIS5_EE16_M_insert_uniqueERKS5_ = comdat any

$_ZNSt8_Rb_treeINSt7__cxx1112basic_stringIcSt11char_traitsIcESaIcEEES5_St9_IdentityIS5_ESt4lessIS5_ESaIS5_EE24_M_get_insert_unique_posERKS5_ = comdat any

$_ZNSt8_Rb_treeINSt7__cxx1112basic_stringIcSt11char_traitsIcESaIcEEES5_St9_IdentityIS5_ESt4lessIS5_ESaIS5_EE17_M_construct_nodeEPSt13_Rb_tree_nodeIS5_ERKS5_ = comdat any

$_ZNSt8_Rb_treeINSt7__cxx1112basic_stringIcSt11char_traitsIcESaIcEEES5_St9_IdentityIS5_ESt4lessIS5_ESaIS5_EE8_M_eraseEPSt13_Rb_tree_nodeIS5_E = comdat any

$_Z14check_and_castIP21cOmnetAppRegistrationET_P7cObject = comdat any

$_ZN10cExceptionD2Ev = comdat any

$_ZTS14cRunnableEnvir = comdat any

$_ZTI14cRunnableEnvir = comdat any

$_ZTS16cConfigurationEx = comdat any

$_ZTI16cConfigurationEx = comdat any

$_ZTS13cRuntimeError = comdat any

$_ZTS10cException = comdat any

$_ZTI10cException = comdat any

$_ZTI13cRuntimeError = comdat any

$_ZTV10cException = comdat any

$_ZTS7SimTime = comdat any

$_ZTI7SimTime = comdat any

$_ZTSP21cOmnetAppRegistration = comdat any

$_ZTS21cOmnetAppRegistration = comdat any

$_ZTI21cOmnetAppRegistration = comdat any

$_ZTIP21cOmnetAppRegistration = comdat any

$_ZTS21cTerminationException = comdat any

$_ZTI21cTerminationException = comdat any

@_ZTV9EnvirBase = dso_local unnamed_addr constant { [73 x ptr] } { [73 x ptr] [ptr null, ptr @_ZTI9EnvirBase, ptr @_ZN9EnvirBase5sputnEPKci, ptr @__cxa_pure_virtual, ptr @__cxa_pure_virtual, ptr @_ZN9EnvirBaseD2Ev, ptr @_ZN9EnvirBaseD0Ev, ptr @_ZN9EnvirBase13objectDeletedEP7cObject, ptr @_ZN9EnvirBase15simulationEventEP8cMessage, ptr @__cxa_pure_virtual, ptr @_ZN9EnvirBase16messageScheduledEP8cMessage, ptr @_ZN9EnvirBase16messageCancelledEP8cMessage, ptr @_ZN9EnvirBase9beginSendEP8cMessage, ptr @_ZN9EnvirBase17messageSendDirectEP8cMessageP5cGate7SimTimeS4_, ptr @_ZN9EnvirBase14messageSendHopEP8cMessageP5cGate, ptr @_ZN9EnvirBase14messageSendHopEP8cMessageP5cGate7SimTimeS4_, ptr @_ZN9EnvirBase7endSendEP8cMessage, ptr @_ZN9EnvirBase14messageDeletedEP8cMessage, ptr @_ZN9EnvirBase16moduleReparentedEP7cModuleS1_, ptr @_ZN9EnvirBase20componentMethodBeginEP10cComponentS1_PKcP13__va_list_tag, ptr @_ZN9EnvirBase18componentMethodEndEv, ptr @_ZN9EnvirBase13moduleCreatedEP7cModule, ptr @_ZN9EnvirBase13moduleDeletedEP7cModule, ptr @_ZN9EnvirBase11gateCreatedEP5cGate, ptr @_ZN9EnvirBase11gateDeletedEP5cGate, ptr @_ZN9EnvirBase17connectionCreatedEP5cGate, ptr @_ZN9EnvirBase17connectionDeletedEP5cGate, ptr @_ZN9EnvirBase20displayStringChangedEP10cComponent, ptr @_ZN9EnvirBase16undisposedObjectEP7cObject, ptr @_ZN9EnvirBase13readParameterEP4cPar, ptr @_ZN9EnvirBase13isModuleLocalEP7cModulePKci, ptr @_ZN9EnvirBase14getXMLDocumentEPKcS1_, ptr @__cxa_pure_virtual, ptr @_ZN9EnvirBase9getConfigEv, ptr @_ZN9EnvirBase11getConfigExEv, ptr @__cxa_pure_virtual, ptr @_ZN9EnvirBase6bubbleEP10cComponentPKc, ptr @_ZN6cEnvir9printfmsgEPKcz, ptr @_ZN6cEnvir6printfEPKcz, ptr @__cxa_pure_virtual, ptr @__cxa_pure_virtual, ptr @_ZN6cEnvir8askYesNoEPKcz, ptr @_ZNK9EnvirBase10getNumRNGsEv, ptr @_ZN9EnvirBase6getRNGEi, ptr @_ZN9EnvirBase16getRNGMappingForEP10cComponent, ptr @_ZN9EnvirBase20registerOutputVectorEPKcS1_, ptr @_ZN9EnvirBase22deregisterOutputVectorEPv, ptr @_ZN9EnvirBase18setVectorAttributeEPvPKcS2_, ptr @_ZN9EnvirBase20recordInOutputVectorEPv7SimTimed, ptr @_ZN9EnvirBase12recordScalarEP10cComponentPKcdP14opp_string_map, ptr @_ZN9EnvirBase15recordStatisticEP10cComponentPKcP10cStatisticP14opp_string_map, ptr @_ZN9EnvirBase20getStreamForSnapshotEv, ptr @_ZN9EnvirBase24releaseStreamForSnapshotEPSo, ptr @_ZNK9EnvirBase11getArgCountEv, ptr @_ZNK9EnvirBase12getArgVectorEv, ptr @_ZNK9EnvirBase15getParsimProcIdEv, ptr @_ZNK9EnvirBase22getParsimNumPartitionsEv, ptr @_ZN9EnvirBase15getUniqueNumberEv, ptr @_ZN9EnvirBase4idleEv, ptr @_ZN9EnvirBase3runEiPPcP14cConfiguration, ptr @_ZN9EnvirBase18simulationRequiredEv, ptr @_ZN9EnvirBase5setupEv, ptr @__cxa_pure_virtual, ptr @_ZN9EnvirBase8shutdownEv, ptr @_ZN9EnvirBase8startRunEv, ptr @_ZN9EnvirBase6endRunEv, ptr @__cxa_pure_virtual, ptr @_ZN9EnvirBase11readOptionsEv, ptr @_ZN9EnvirBase17readPerRunOptionsEv, ptr @__cxa_pure_virtual, ptr @_ZN9EnvirBase15processFileNameER10opp_string, ptr @_ZN9EnvirBase12displayErrorERSt9exception, ptr @_ZN9EnvirBase14displayMessageERSt9exception] }, align 8
@_ZTVN10__cxxabiv120__si_class_type_infoE = external global ptr
@_ZTS9EnvirBase = dso_local constant [11 x i8] c"9EnvirBase\00", align 1
@_ZTS14cRunnableEnvir = linkonce_odr dso_local constant [17 x i8] c"14cRunnableEnvir\00", comdat, align 1
@_ZTI6cEnvir = external constant ptr
@_ZTI14cRunnableEnvir = linkonce_odr dso_local constant { ptr, ptr, ptr } { ptr getelementptr inbounds (ptr, ptr @_ZTVN10__cxxabiv120__si_class_type_infoE, i64 2), ptr @_ZTS14cRunnableEnvir, ptr @_ZTI6cEnvir }, comdat, align 8
@_ZTI9EnvirBase = dso_local constant { ptr, ptr, ptr } { ptr getelementptr inbounds (ptr, ptr @_ZTVN10__cxxabiv120__si_class_type_infoE, i64 2), ptr @_ZTS9EnvirBase, ptr @_ZTI14cRunnableEnvir }, align 8
@CFGID_TOTAL_STACK = dso_local local_unnamed_addr global ptr null, align 8
@_ZN12_GLOBAL__N_118__onstartup_obj_91E = internal global %class.ExecuteOnStartup zeroinitializer, align 8
@__dso_handle = external hidden global i8
@configOptions = external global %class.cGlobalRegistrationList, align 8
@.str = private unnamed_addr constant [12 x i8] c"total-stack\00", align 1
@.str.1 = private unnamed_addr constant [2 x i8] c"B\00", align 1
@.str.2 = private unnamed_addr constant [154 x i8] c"Specifies the maximum memory for activity() simple module stacks. You need to increase this value if you get a ``Cannot allocate coroutine stack'' error.\00", align 1
@CFGID_PARALLEL_SIMULATION = dso_local local_unnamed_addr global ptr null, align 8
@_ZN12_GLOBAL__N_118__onstartup_obj_92E = internal global %class.ExecuteOnStartup zeroinitializer, align 8
@.str.4 = private unnamed_addr constant [20 x i8] c"parallel-simulation\00", align 1
@.str.5 = private unnamed_addr constant [6 x i8] c"false\00", align 1
@.str.6 = private unnamed_addr constant [41 x i8] c"Enables parallel distributed simulation.\00", align 1
@CFGID_SCHEDULER_CLASS = dso_local local_unnamed_addr global ptr null, align 8
@_ZN12_GLOBAL__N_118__onstartup_obj_93E = internal global %class.ExecuteOnStartup zeroinitializer, align 8
@.str.8 = private unnamed_addr constant [16 x i8] c"scheduler-class\00", align 1
@.str.9 = private unnamed_addr constant [21 x i8] c"cSequentialScheduler\00", align 1
@.str.10 = private unnamed_addr constant [246 x i8] c"Part of the Envir plugin mechanism: selects the scheduler class. This plugin interface allows for implementing real-time, hardware-in-the-loop, distributed and distributed parallel simulation. The class has to implement the cScheduler interface.\00", align 1
@CFGID_PARSIM_COMMUNICATIONS_CLASS = dso_local local_unnamed_addr global ptr null, align 8
@_ZN12_GLOBAL__N_118__onstartup_obj_94E = internal global %class.ExecuteOnStartup zeroinitializer, align 8
@.str.12 = private unnamed_addr constant [28 x i8] c"parsim-communications-class\00", align 1
@.str.13 = private unnamed_addr constant [20 x i8] c"cFileCommunications\00", align 1
@.str.14 = private unnamed_addr constant [162 x i8] c"If parallel-simulation=true, it selects the class that implements communication between partitions. The class must implement the cParsimCommunications interface.\00", align 1
@CFGID_PARSIM_SYNCHRONIZATION_CLASS = dso_local local_unnamed_addr global ptr null, align 8
@_ZN12_GLOBAL__N_118__onstartup_obj_95E = internal global %class.ExecuteOnStartup zeroinitializer, align 8
@.str.16 = private unnamed_addr constant [29 x i8] c"parsim-synchronization-class\00", align 1
@.str.17 = private unnamed_addr constant [21 x i8] c"cNullMessageProtocol\00", align 1
@.str.18 = private unnamed_addr constant [135 x i8] c"If parallel-simulation=true, it selects the parallel simulation algorithm. The class must implement the cParsimSynchronizer interface.\00", align 1
@CFGID_OUTPUTVECTORMANAGER_CLASS = dso_local local_unnamed_addr global ptr null, align 8
@_ZN12_GLOBAL__N_118__onstartup_obj_96E = internal global %class.ExecuteOnStartup zeroinitializer, align 8
@.str.20 = private unnamed_addr constant [26 x i8] c"outputvectormanager-class\00", align 1
@.str.21 = private unnamed_addr constant [32 x i8] c"cIndexedFileOutputVectorManager\00", align 1
@.str.22 = private unnamed_addr constant [186 x i8] c"Part of the Envir plugin mechanism: selects the output vector manager class to be used to record data from output vectors. The class has to implement the cOutputVectorManager interface.\00", align 1
@CFGID_OUTPUTSCALARMANAGER_CLASS = dso_local local_unnamed_addr global ptr null, align 8
@_ZN12_GLOBAL__N_118__onstartup_obj_97E = internal global %class.ExecuteOnStartup zeroinitializer, align 8
@.str.24 = private unnamed_addr constant [26 x i8] c"outputscalarmanager-class\00", align 1
@.str.25 = private unnamed_addr constant [25 x i8] c"cFileOutputScalarManager\00", align 1
@.str.26 = private unnamed_addr constant [191 x i8] c"Part of the Envir plugin mechanism: selects the output scalar manager class to be used to record data passed to recordScalar(). The class has to implement the cOutputScalarManager interface.\00", align 1
@CFGID_SNAPSHOTMANAGER_CLASS = dso_local local_unnamed_addr global ptr null, align 8
@_ZN12_GLOBAL__N_118__onstartup_obj_98E = internal global %class.ExecuteOnStartup zeroinitializer, align 8
@.str.28 = private unnamed_addr constant [22 x i8] c"snapshotmanager-class\00", align 1
@.str.29 = private unnamed_addr constant [21 x i8] c"cFileSnapshotManager\00", align 1
@.str.30 = private unnamed_addr constant [170 x i8] c"Part of the Envir plugin mechanism: selects the class to handle streams to which snapshot() writes its output. The class has to implement the cSnapshotManager interface.\00", align 1
@CFGID_FNAME_APPEND_HOST = dso_local local_unnamed_addr global ptr null, align 8
@_ZN12_GLOBAL__N_118__onstartup_obj_99E = internal global %class.ExecuteOnStartup zeroinitializer, align 8
@.str.32 = private unnamed_addr constant [18 x i8] c"fname-append-host\00", align 1
@.str.33 = private unnamed_addr constant [186 x i8] c"Turning it on will cause the host name and process Id to be appended to the names of output files (e.g. omnetpp.vec, omnetpp.sca). This is especially useful with distributed simulation.\00", align 1
@CFGID_DEBUG_ON_ERRORS = dso_local local_unnamed_addr global ptr null, align 8
@_ZN12_GLOBAL__N_119__onstartup_obj_100E = internal global %class.ExecuteOnStartup zeroinitializer, align 8
@.str.35 = private unnamed_addr constant [16 x i8] c"debug-on-errors\00", align 1
@.str.36 = private unnamed_addr constant [253 x i8] c"When set to true, runtime errors will cause the simulation program to break into the C++ debugger (if the simulation is running under one, or just-in-time debugging is activated). Once in the debugger, you can view the stack trace or examine variables.\00", align 1
@CFGID_PRINT_UNDISPOSED = dso_local local_unnamed_addr global ptr null, align 8
@_ZN12_GLOBAL__N_119__onstartup_obj_101E = internal global %class.ExecuteOnStartup zeroinitializer, align 8
@.str.38 = private unnamed_addr constant [17 x i8] c"print-undisposed\00", align 1
@.str.39 = private unnamed_addr constant [5 x i8] c"true\00", align 1
@.str.40 = private unnamed_addr constant [110 x i8] c"Whether to report objects left (that is, not deallocated by simple module destructors) after network cleanup.\00", align 1
@CFGID_SIMTIME_SCALE = dso_local local_unnamed_addr global ptr null, align 8
@_ZN12_GLOBAL__N_119__onstartup_obj_102E = internal global %class.ExecuteOnStartup zeroinitializer, align 8
@.str.42 = private unnamed_addr constant [14 x i8] c"simtime-scale\00", align 1
@.str.43 = private unnamed_addr constant [4 x i8] c"-12\00", align 1
@.str.44 = private unnamed_addr constant [262 x i8] c"Sets the scale exponent, and thus the resolution of time for the 64-bit fixed-point simulation time representation. Accepted values are -18..0; for example, -6 selects microsecond resolution. -12 means picosecond resolution, with a maximum simtime of ~110 days.\00", align 1
@CFGID_NED_PATH = dso_local local_unnamed_addr global ptr null, align 8
@_ZN12_GLOBAL__N_119__onstartup_obj_103E = internal global %class.ExecuteOnStartup zeroinitializer, align 8
@.str.46 = private unnamed_addr constant [9 x i8] c"ned-path\00", align 1
@.str.47 = private unnamed_addr constant [1 x i8] zeroinitializer, align 1
@.str.48 = private unnamed_addr constant [410 x i8] c"A semicolon-separated list of directories. The directories will be regarded as roots of the NED package hierarchy, and all NED files will be loaded from their subdirectory trees. This option is normally left empty, as the OMNeT++ IDE sets the NED path automatically, and for simulations started outside the IDE it is more convenient to specify it via a command-line option or the NEDPATH environment variable.\00", align 1
@CFGID_NETWORK = dso_local local_unnamed_addr global ptr null, align 8
@_ZN12_GLOBAL__N_119__onstartup_obj_105E = internal global %class.ExecuteOnStartup zeroinitializer, align 8
@.str.50 = private unnamed_addr constant [8 x i8] c"network\00", align 1
@.str.51 = private unnamed_addr constant [158 x i8] c"The name of the network to be simulated.  The package name can be omitted if the ini file is in the same directory as the NED file that contains the network.\00", align 1
@CFGID_WARNINGS = dso_local local_unnamed_addr global ptr null, align 8
@_ZN12_GLOBAL__N_119__onstartup_obj_106E = internal global %class.ExecuteOnStartup zeroinitializer, align 8
@.str.53 = private unnamed_addr constant [9 x i8] c"warnings\00", align 1
@.str.54 = private unnamed_addr constant [18 x i8] c"Enables warnings.\00", align 1
@CFGID_SIM_TIME_LIMIT = dso_local local_unnamed_addr global ptr null, align 8
@_ZN12_GLOBAL__N_119__onstartup_obj_107E = internal global %class.ExecuteOnStartup zeroinitializer, align 8
@.str.56 = private unnamed_addr constant [15 x i8] c"sim-time-limit\00", align 1
@.str.57 = private unnamed_addr constant [2 x i8] c"s\00", align 1
@.str.58 = private unnamed_addr constant [92 x i8] c"Stops the simulation when simulation time reaches the given limit. The default is no limit.\00", align 1
@CFGID_CPU_TIME_LIMIT = dso_local local_unnamed_addr global ptr null, align 8
@_ZN12_GLOBAL__N_119__onstartup_obj_108E = internal global %class.ExecuteOnStartup zeroinitializer, align 8
@.str.60 = private unnamed_addr constant [15 x i8] c"cpu-time-limit\00", align 1
@.str.61 = private unnamed_addr constant [90 x i8] c"Stops the simulation when CPU usage has reached the given limit. The default is no limit.\00", align 1
@CFGID_FINGERPRINT = dso_local local_unnamed_addr global ptr null, align 8
@_ZN12_GLOBAL__N_119__onstartup_obj_109E = internal global %class.ExecuteOnStartup zeroinitializer, align 8
@.str.63 = private unnamed_addr constant [12 x i8] c"fingerprint\00", align 1
@.str.64 = private unnamed_addr constant [534 x i8] c"The expected fingerprint of the simulation. When provided, a fingerprint will be calculated from the simulation event times and other quantities during simulation, and checked against the given one. Fingerprints are suitable for crude regression tests. As fingerprints occasionally differ across platforms, more than one fingerprint values can be specified here, separated by spaces, and a match with any of them will be accepted. To calculate the initial fingerprint, enter any dummy string (such as \22none\22), and run the simulation.\00", align 1
@CFGID_NUM_RNGS = dso_local local_unnamed_addr global ptr null, align 8
@_ZN12_GLOBAL__N_119__onstartup_obj_110E = internal global %class.ExecuteOnStartup zeroinitializer, align 8
@.str.66 = private unnamed_addr constant [9 x i8] c"num-rngs\00", align 1
@.str.67 = private unnamed_addr constant [2 x i8] c"1\00", align 1
@.str.68 = private unnamed_addr constant [40 x i8] c"The number of random number generators.\00", align 1
@CFGID_RNG_CLASS = dso_local local_unnamed_addr global ptr null, align 8
@_ZN12_GLOBAL__N_119__onstartup_obj_111E = internal global %class.ExecuteOnStartup zeroinitializer, align 8
@.str.70 = private unnamed_addr constant [10 x i8] c"rng-class\00", align 1
@.str.71 = private unnamed_addr constant [17 x i8] c"cMersenneTwister\00", align 1
@.str.72 = private unnamed_addr constant [169 x i8] c"The random number generator class to be used. It can be `cMersenneTwister', `cLCG32', `cAkaroaRNG', or you can use your own RNG class (it must be subclassed from cRNG).\00", align 1
@CFGID_SEED_SET = dso_local local_unnamed_addr global ptr null, align 8
@_ZN12_GLOBAL__N_119__onstartup_obj_112E = internal global %class.ExecuteOnStartup zeroinitializer, align 8
@.str.74 = private unnamed_addr constant [9 x i8] c"seed-set\00", align 1
@.str.75 = private unnamed_addr constant [13 x i8] c"${runnumber}\00", align 1
@.str.76 = private unnamed_addr constant [183 x i8] c"Selects the kth set of automatic random number seeds for the simulation. Meaningful values include ${repetition} which is the repeat loop counter (see repeat= key), and ${runnumber}.\00", align 1
@CFGID_RESULT_DIR = dso_local local_unnamed_addr global ptr null, align 8
@_ZN12_GLOBAL__N_119__onstartup_obj_113E = internal global %class.ExecuteOnStartup zeroinitializer, align 8
@.str.78 = private unnamed_addr constant [11 x i8] c"result-dir\00", align 1
@.str.79 = private unnamed_addr constant [8 x i8] c"results\00", align 1
@.str.80 = private unnamed_addr constant [155 x i8] c"Value for the ${resultdir} variable, which is used as the default directory for result files (output vector file, output scalar file, eventlog file, etc.)\00", align 1
@CFGID_RECORD_EVENTLOG = dso_local local_unnamed_addr global ptr null, align 8
@_ZN12_GLOBAL__N_119__onstartup_obj_114E = internal global %class.ExecuteOnStartup zeroinitializer, align 8
@.str.82 = private unnamed_addr constant [16 x i8] c"record-eventlog\00", align 1
@.str.83 = private unnamed_addr constant [118 x i8] c"Enables recording an eventlog file, which can be later visualized on a sequence chart. See eventlog-file= option too.\00", align 1
@CFGID_PARTITION_ID = dso_local local_unnamed_addr global ptr null, align 8
@_ZN12_GLOBAL__N_119__onstartup_obj_115E = internal global %class.ExecuteOnStartup zeroinitializer, align 8
@.str.85 = private unnamed_addr constant [13 x i8] c"partition-id\00", align 1
@.str.86 = private unnamed_addr constant [261 x i8] c"With parallel simulation: in which partition the module should be instantiated. Specify numeric partition ID, or a comma-separated list of partition IDs for compound modules that span across multiple partitions. Ranges (\225..9\22) and \22*\22 (=all) are accepted too.\00", align 1
@CFGID_RNG_K = dso_local local_unnamed_addr global ptr null, align 8
@_ZN12_GLOBAL__N_119__onstartup_obj_116E = internal global %class.ExecuteOnStartup zeroinitializer, align 8
@.str.88 = private unnamed_addr constant [6 x i8] c"rng-%\00", align 1
@.str.89 = private unnamed_addr constant [181 x i8] c"Maps a module-local RNG to one of the global RNGs. Example: **.gen.rng-1=3 maps the local RNG 1 of modules matching `**.gen' to the global RNG 3. The default is one-to-one mapping.\00", align 1
@.str.90 = private unnamed_addr constant [23 x i8] c"h?f:u:l:c:r:p:n:x:agGv\00", align 1
@_ZTI14cConfiguration = external constant ptr
@_ZTS16cConfigurationEx = linkonce_odr dso_local constant [19 x i8] c"16cConfigurationEx\00", comdat, align 1
@_ZTI16cConfigurationEx = linkonce_odr dso_local constant { ptr, ptr, ptr } { ptr getelementptr inbounds (ptr, ptr @_ZTVN10__cxxabiv120__si_class_type_infoE, i64 2), ptr @_ZTS16cConfigurationEx, ptr @_ZTI14cConfiguration }, comdat, align 8
@.str.91 = private unnamed_addr constant [56 x i8] c"Cannot cast configuration object %s to cConfigurationEx\00", align 1
@_ZTS13cRuntimeError = linkonce_odr dso_local constant [16 x i8] c"13cRuntimeError\00", comdat, align 1
@_ZTS10cException = linkonce_odr dso_local constant [13 x i8] c"10cException\00", comdat, align 1
@_ZTISt9exception = external constant ptr
@_ZTI10cException = linkonce_odr dso_local constant { ptr, ptr, ptr } { ptr getelementptr inbounds (ptr, ptr @_ZTVN10__cxxabiv120__si_class_type_infoE, i64 2), ptr @_ZTS10cException, ptr @_ZTISt9exception }, comdat, align 8
@_ZTI13cRuntimeError = linkonce_odr dso_local constant { ptr, ptr, ptr } { ptr getelementptr inbounds (ptr, ptr @_ZTVN10__cxxabiv120__si_class_type_infoE, i64 2), ptr @_ZTS13cRuntimeError, ptr @_ZTI10cException }, comdat, align 8
@_ZTV10cException = linkonce_odr dso_local unnamed_addr constant { [13 x ptr] } { [13 x ptr] [ptr null, ptr @_ZTI10cException, ptr @_ZN10cExceptionD2Ev, ptr @_ZN10cExceptionD0Ev, ptr @_ZNK10cException4whatEv, ptr @_ZNK10cException3dupEv, ptr @_ZNK10cException12getErrorCodeEv, ptr @_ZN10cException10setMessageEPKc, ptr @_ZN10cException14prependMessageEPKc, ptr @_ZNK10cException10hasContextEv, ptr @_ZNK10cException19getContextClassNameEv, ptr @_ZNK10cException18getContextFullPathEv, ptr @_ZNK10cException11getModuleIDEv] }, comdat, align 8
@.str.92 = private unnamed_addr constant [3 x i8] c": \00", align 1
@.str.93 = private unnamed_addr constant [21 x i8] c"basic_string::append\00", align 1
@.str.94 = private unnamed_addr constant [50 x i8] c"basic_string: construction from null is not valid\00", align 1
@.str.95 = private unnamed_addr constant [2 x i8] c"\0A\00", align 1
@.str.96 = private unnamed_addr constant [32 x i8] c"Build: omnetpp-4.0 090310-10709\00", align 1
@.str.97 = private unnamed_addr constant [11 x i8] c"Compiler: \00", align 1
@.str.98 = private unnamed_addr constant [10 x i8] c"Options: \00", align 1
@_ZTVN10__cxxabiv117__class_type_infoE = external global ptr
@_ZTS7SimTime = linkonce_odr dso_local constant [9 x i8] c"7SimTime\00", comdat, align 1
@_ZTI7SimTime = linkonce_odr dso_local constant { ptr, ptr } { ptr getelementptr inbounds (ptr, ptr @_ZTVN10__cxxabiv117__class_type_infoE, i64 2), ptr @_ZTS7SimTime }, comdat, align 8
@.str.99 = private unnamed_addr constant [4 x i8] c"yes\00", align 1
@.str.100 = private unnamed_addr constant [15 x i8] c"Config %s: %d\0A\00", align 1
@.str.101 = private unnamed_addr constant [12 x i8] c"Config: %s\0A\00", align 1
@.str.102 = private unnamed_addr constant [20 x i8] c"Number of runs: %d\0A\00", align 1
@.str.103 = private unnamed_addr constant [11 x i8] c"Run %d:\0A%s\00", align 1
@.str.104 = private unnamed_addr constant [12 x i8] c"Run %d: %s\0A\00", align 1
@_ZN11cSimulation5evPtrE = external local_unnamed_addr global ptr, align 8
@.str.105 = private unnamed_addr constant [17 x i8] c"GCC Clang 17.0.6\00", align 1
@.str.106 = private unnamed_addr constant [50 x i8] c"%d-bit RELEASE simtime_t=%s large-file-support=%s\00", align 1
@.str.107 = private unnamed_addr constant [17 x i8] c" WITH_NETBUILDER\00", align 1
@.str.108 = private unnamed_addr constant [37 x i8] c"Total stack size %d increased to %d\0A\00", align 1
@.str.109 = private unnamed_addr constant [55 x i8] c"Class \22%s\22 is not subclassed from cOutputVectorManager\00", align 1
@.str.110 = private unnamed_addr constant [55 x i8] c"Class \22%s\22 is not subclassed from cOutputScalarManager\00", align 1
@.str.111 = private unnamed_addr constant [51 x i8] c"Class \22%s\22 is not subclassed from cSnapshotManager\00", align 1
@.str.112 = private unnamed_addr constant [45 x i8] c"Class \22%s\22 is not subclassed from cScheduler\00", align 1
@.str.113 = private unnamed_addr constant [128 x i8] c"Parallel simulation is turned on in the ini file, but OMNeT++ was compiled without parallel simulation support (WITH_PARSIM=no)\00", align 1
@.str.114 = private unnamed_addr constant [8 x i8] c"NEDPATH\00", align 1
@.str.115 = private unnamed_addr constant [2 x i8] c";\00", align 1
@.str.116 = private unnamed_addr constant [2 x i8] c".\00", align 1
@.str.117 = private unnamed_addr constant [3 x i8] c":;\00", align 1
@.str.118 = private unnamed_addr constant [40 x i8] c"Loading NED files from a SPEC directory\00", align 1
@.str.119 = private unnamed_addr constant [5 x i8] c" %d\0A\00", align 1
@_ZN11cSimulation6simPtrE = external local_unnamed_addr global ptr, align 8
@.str.120 = private unnamed_addr constant [23 x i8] c"Command line options:\0A\00", align 1
@.str.121 = private unnamed_addr constant [29 x i8] c"  <inifile> or -f <inifile>\0A\00", align 1
@.str.122 = private unnamed_addr constant [78 x i8] c"                Use the given ini file instead of omnetpp.ini. More than one\0A\00", align 1
@.str.123 = private unnamed_addr constant [51 x i8] c"                ini files can be loaded this way.\0A\00", align 1
@.str.124 = private unnamed_addr constant [73 x i8] c"  -u <ui>       Selects the user interface. Standard choices are Cmdenv\0A\00", align 1
@.str.125 = private unnamed_addr constant [73 x i8] c"                and Tkenv. To make a user interface available, you need\0A\00", align 1
@.str.126 = private unnamed_addr constant [73 x i8] c"                to link the simulation executable with the Cmdenv/Tkenv\0A\00", align 1
@.str.127 = private unnamed_addr constant [74 x i8] c"                library, or load it as shared library via the -l option.\0A\00", align 1
@.str.128 = private unnamed_addr constant [75 x i8] c"  -n <nedpath>  When present, overrides the NEDPATH environment variable.\0A\00", align 1
@.str.129 = private unnamed_addr constant [77 x i8] c"  -l <library>  Load the specified shared library (.so or .dll) on startup.\0A\00", align 1
@.str.130 = private unnamed_addr constant [78 x i8] c"                The file name should be given without the .so or .dll suffix\0A\00", align 1
@.str.131 = private unnamed_addr constant [76 x i8] c"                (it will be appended automatically.) The loaded module may\0A\00", align 1
@.str.132 = private unnamed_addr constant [75 x i8] c"                contain simple modules, plugins, etc. Multiple -l options\0A\00", align 1
@.str.133 = private unnamed_addr constant [33 x i8] c"                can be present.\0A\00", align 1
@.str.134 = private unnamed_addr constant [33 x i8] c"  --<configuration-key>=<value>\0A\00", align 1
@.str.135 = private unnamed_addr constant [74 x i8] c"                Any configuration option can be specified on the command\0A\00", align 1
@.str.136 = private unnamed_addr constant [78 x i8] c"                line, and it takes precedence over settings specified in the\0A\00", align 1
@.str.137 = private unnamed_addr constant [40 x i8] c"                ini file(s). Examples:\0A\00", align 1
@.str.138 = private unnamed_addr constant [46 x i8] c"                      --debug-on-errors=true\0A\00", align 1
@.str.139 = private unnamed_addr constant [46 x i8] c"                      --record-eventlog=true\0A\00", align 1
@.str.140 = private unnamed_addr constant [46 x i8] c"                      --sim-time-limit=1000s\0A\00", align 1
@.str.141 = private unnamed_addr constant [47 x i8] c"  -v            Print version and build info.\0A\00", align 1
@.str.142 = private unnamed_addr constant [43 x i8] c"  -h            Print this help and exit.\0A\00", align 1
@.str.143 = private unnamed_addr constant [46 x i8] c"  -h <category> Lists registered components:\0A\00", align 1
@.str.144 = private unnamed_addr constant [67 x i8] c"    -h config         Prints the list of available config options\0A\00", align 1
@.str.145 = private unnamed_addr constant [73 x i8] c"    -h configdetails  Prints the list of available config options, with\0A\00", align 1
@.str.146 = private unnamed_addr constant [43 x i8] c"                      their documentation\0A\00", align 1
@.str.147 = private unnamed_addr constant [71 x i8] c"    -h userinterfaces Lists available user interfaces (see -u option)\0A\00", align 1
@.str.148 = private unnamed_addr constant [79 x i8] c"    -h classes        Lists registered C++ classes (including module classes)\0A\00", align 1
@.str.149 = private unnamed_addr constant [73 x i8] c"    -h classdesc      Lists C++ classes that have associated reflection\0A\00", align 1
@.str.150 = private unnamed_addr constant [65 x i8] c"                      information (needed for Tkenv inspectors)\0A\00", align 1
@.str.151 = private unnamed_addr constant [54 x i8] c"    -h nedfunctions   Lists registered NED functions\0A\00", align 1
@.str.152 = private unnamed_addr constant [55 x i8] c"    -h units          Lists recognized physical units\0A\00", align 1
@.str.153 = private unnamed_addr constant [46 x i8] c"    -h enums          Lists registered enums\0A\00", align 1
@.str.154 = private unnamed_addr constant [46 x i8] c"    -h all            Union of all the above\0A\00", align 1
@omnetapps = external global %class.cGlobalRegistrationList, align 8
@.str.155 = private unnamed_addr constant [56 x i8] c"check_and_cast(): cannot cast NULL pointer to type '%s'\00", align 1
@_ZTVN10__cxxabiv119__pointer_type_infoE = external global ptr
@_ZTSP21cOmnetAppRegistration = linkonce_odr dso_local constant [25 x i8] c"P21cOmnetAppRegistration\00", comdat, align 1
@_ZTS21cOmnetAppRegistration = linkonce_odr dso_local constant [24 x i8] c"21cOmnetAppRegistration\00", comdat, align 1
@_ZTI12cOwnedObject = external constant ptr
@_ZTI21cOmnetAppRegistration = linkonce_odr dso_local constant { ptr, ptr, ptr } { ptr getelementptr inbounds (ptr, ptr @_ZTVN10__cxxabiv120__si_class_type_infoE, i64 2), ptr @_ZTS21cOmnetAppRegistration, ptr @_ZTI12cOwnedObject }, comdat, align 8
@_ZTIP21cOmnetAppRegistration = linkonce_odr dso_local constant { ptr, ptr, i32, ptr } { ptr getelementptr inbounds (ptr, ptr @_ZTVN10__cxxabiv119__pointer_type_infoE, i64 2), ptr @_ZTSP21cOmnetAppRegistration, i32 0, ptr @_ZTI21cOmnetAppRegistration }, comdat, align 8
@_ZTI7cObject = external constant ptr
@.str.156 = private unnamed_addr constant [52 x i8] c"check_and_cast(): cannot cast (%s *)%s to type '%s'\00", align 1
@.str.157 = private unnamed_addr constant [4 x i8] c"all\00", align 1
@.str.158 = private unnamed_addr constant [7 x i8] c"config\00", align 1
@.str.159 = private unnamed_addr constant [14 x i8] c"configdetails\00", align 1
@.str.160 = private unnamed_addr constant [34 x i8] c"Supported configuration options:\0A\00", align 1
@_ZTI13cConfigOption = external constant ptr
@.str.161 = private unnamed_addr constant [3 x i8] c"  \00", align 1
@.str.162 = private unnamed_addr constant [20 x i8] c"<object-full-path>.\00", align 1
@.str.163 = private unnamed_addr constant [2 x i8] c"=\00", align 1
@.str.164 = private unnamed_addr constant [2 x i8] c"<\00", align 1
@.str.165 = private unnamed_addr constant [2 x i8] c">\00", align 1
@.str.166 = private unnamed_addr constant [9 x i8] c", unit=\22\00", align 1
@.str.167 = private unnamed_addr constant [2 x i8] c"\22\00", align 1
@.str.168 = private unnamed_addr constant [11 x i8] c", default:\00", align 1
@.str.169 = private unnamed_addr constant [3 x i8] c"; \00", align 1
@.str.170 = private unnamed_addr constant [7 x i8] c"global\00", align 1
@.str.171 = private unnamed_addr constant [11 x i8] c"per-object\00", align 1
@.str.172 = private unnamed_addr constant [8 x i8] c"per-run\00", align 1
@.str.173 = private unnamed_addr constant [9 x i8] c" setting\00", align 1
@.str.174 = private unnamed_addr constant [5 x i8] c"    \00", align 1
@.str.175 = private unnamed_addr constant [57 x i8] c"Predefined variables that can be used in config values:\0A\00", align 1
@.str.176 = private unnamed_addr constant [3 x i8] c"${\00", align 1
@.str.177 = private unnamed_addr constant [3 x i8] c"}\0A\00", align 1
@.str.178 = private unnamed_addr constant [8 x i8] c"jconfig\00", align 1
@.str.179 = private unnamed_addr constant [49 x i8] c"Supported configuration options (as Java code):\0A\00", align 1
@.str.180 = private unnamed_addr constant [7 x i8] c"CFGID_\00", align 1
@.str.181 = private unnamed_addr constant [16 x i8] c"addGlobalOption\00", align 1
@.str.182 = private unnamed_addr constant [16 x i8] c"addPerRunOption\00", align 1
@.str.183 = private unnamed_addr constant [19 x i8] c"addPerObjectOption\00", align 1
@.str.184 = private unnamed_addr constant [9 x i8] c"CFG_BOOL\00", align 1
@.str.185 = private unnamed_addr constant [8 x i8] c"CFG_INT\00", align 1
@.str.186 = private unnamed_addr constant [11 x i8] c"CFG_DOUBLE\00", align 1
@.str.187 = private unnamed_addr constant [11 x i8] c"CFG_STRING\00", align 1
@.str.188 = private unnamed_addr constant [13 x i8] c"CFG_FILENAME\00", align 1
@.str.189 = private unnamed_addr constant [14 x i8] c"CFG_FILENAMES\00", align 1
@.str.190 = private unnamed_addr constant [9 x i8] c"CFG_PATH\00", align 1
@.str.191 = private unnamed_addr constant [11 x i8] c"CFG_CUSTOM\00", align 1
@.str.192 = private unnamed_addr constant [38 x i8] c"    public static final ConfigOption \00", align 1
@.str.193 = private unnamed_addr constant [4 x i8] c" = \00", align 1
@.str.194 = private unnamed_addr constant [2 x i8] c"U\00", align 1
@.str.195 = private unnamed_addr constant [3 x i8] c"(\0A\00", align 1
@.str.196 = private unnamed_addr constant [10 x i8] c"        \22\00", align 1
@.str.197 = private unnamed_addr constant [4 x i8] c"\22, \00", align 1
@.str.198 = private unnamed_addr constant [3 x i8] c", \00", align 1
@.str.199 = private unnamed_addr constant [5 x i8] c"null\00", align 1
@.str.200 = private unnamed_addr constant [3 x i8] c"\\\22\00", align 1
@.str.201 = private unnamed_addr constant [3 x i8] c",\0A\00", align 1
@.str.202 = private unnamed_addr constant [4 x i8] c"\\n\0A\00", align 1
@.str.203 = private unnamed_addr constant [7 x i8] c" \22 +\0A\22\00", align 1
@.str.204 = private unnamed_addr constant [5 x i8] c"\\n \22\00", align 1
@.str.205 = private unnamed_addr constant [4 x i8] c"\\n\22\00", align 1
@.str.206 = private unnamed_addr constant [9 x i8] c"        \00", align 1
@.str.207 = private unnamed_addr constant [4 x i8] c");\0A\00", align 1
@.str.208 = private unnamed_addr constant [39 x i8] c"    public static final String CFGVAR_\00", align 1
@.str.209 = private unnamed_addr constant [22 x i8] c" = addConfigVariable(\00", align 1
@.str.210 = private unnamed_addr constant [5 x i8] c"\22, \22\00", align 1
@.str.211 = private unnamed_addr constant [5 x i8] c"\22);\0A\00", align 1
@.str.212 = private unnamed_addr constant [8 x i8] c"classes\00", align 1
@.str.213 = private unnamed_addr constant [67 x i8] c"Registered C++ classes, including modules, channels and messages:\0A\00", align 1
@classes = external global %class.cGlobalRegistrationList, align 8
@.str.214 = private unnamed_addr constant [9 x i8] c"  class \00", align 1
@.str.215 = private unnamed_addr constant [69 x i8] c"Note: if your class is not listed, it needs to be registered in the\0A\00", align 1
@.str.216 = private unnamed_addr constant [71 x i8] c"C++ code using Define_Module(), Define_Channel() or Register_Class().\0A\00", align 1
@.str.217 = private unnamed_addr constant [10 x i8] c"classdesc\00", align 1
@.str.218 = private unnamed_addr constant [84 x i8] c"Classes that have associated reflection information (needed for Tkenv inspectors):\0A\00", align 1
@classDescriptors = external global %class.cGlobalRegistrationList, align 8
@.str.219 = private unnamed_addr constant [13 x i8] c"nedfunctions\00", align 1
@.str.220 = private unnamed_addr constant [67 x i8] c"Functions that can be used in NED expressions and in omnetpp.ini:\0A\00", align 1
@nedFunctions = external global %class.cGlobalRegistrationList, align 8
@_ZTI12cNEDFunction = external constant ptr
@_ZTI13cMathFunction = external constant ptr
@.str.221 = private unnamed_addr constant [4 x i8] c"???\00", align 1
@.str.222 = private unnamed_addr constant [13 x i8] c"\0A Category \22\00", align 1
@.str.223 = private unnamed_addr constant [4 x i8] c"\22:\0A\00", align 1
@.str.224 = private unnamed_addr constant [4 x i8] c" : \00", align 1
@.str.225 = private unnamed_addr constant [6 x i8] c"units\00", align 1
@.str.226 = private unnamed_addr constant [72 x i8] c"Recognized physical units (note: other units can be used as well, only\0A\00", align 1
@.str.227 = private unnamed_addr constant [54 x i8] c"no automatic conversion will be available for them):\0A\00", align 1
@.str.228 = private unnamed_addr constant [2 x i8] c"\09\00", align 1
@.str.229 = private unnamed_addr constant [6 x i8] c"enums\00", align 1
@.str.230 = private unnamed_addr constant [29 x i8] c"Enums defined in .msg files\0A\00", align 1
@enums = external global %class.cGlobalRegistrationList, align 8
@.str.231 = private unnamed_addr constant [15 x i8] c"userinterfaces\00", align 1
@.str.232 = private unnamed_addr constant [25 x i8] c"User interfaces loaded:\0A\00", align 1
@.str.233 = private unnamed_addr constant [42 x i8] c"Unrecognized category for '-h' option: %s\00", align 1
@.str.234 = private unnamed_addr constant [8 x i8] c"default\00", align 1
@.str.235 = private unnamed_addr constant [4 x i8] c"ask\00", align 1
@_ZTV20ModNameParamResolver = external unnamed_addr constant { [5 x ptr] }, align 8
@.str.236 = private unnamed_addr constant [55 x i8] c"undisposed object: (%s) %s -- check module destructor\0A\00", align 1
@.str.237 = private unnamed_addr constant [5 x i8] c"HOST\00", align 1
@.str.238 = private unnamed_addr constant [9 x i8] c"HOSTNAME\00", align 1
@.str.239 = private unnamed_addr constant [13 x i8] c"COMPUTERNAME\00", align 1
@.str.240 = private unnamed_addr constant [107 x i8] c"Cannot append hostname to file name `%s': no HOST, HOSTNAME or COMPUTERNAME (Windows) environment variable\00", align 1
@.str.241 = private unnamed_addr constant [7 x i8] c".%s.%d\00", align 1
@.str.242 = private unnamed_addr constant [39 x i8] c"Class \22%s\22 is not subclassed from cRNG\00", align 1
@_ZN7SimTime6fscaleE = external local_unnamed_addr global double, align 8
@_ZN7SimTime8scaleexpE = external local_unnamed_addr global i32, align 4
@.str.243 = private unnamed_addr constant [68 x i8] c"RNG index %d is out of range (num-rngs=%d, check the configuration)\00", align 1
@.str.244 = private unnamed_addr constant [6 x i8] c"rng-*\00", align 1
@.str.245 = private unnamed_addr constant [79 x i8] c"Configuration error: %s=%s for module/channel %s: numeric RNG indices expected\00", align 1
@.str.246 = private unnamed_addr constant [90 x i8] c"Configuration error: rng-%d=%d of module/channel %s: RNG index out of range (num-rngs=%d)\00", align 1
@.str.247 = private unnamed_addr constant [99 x i8] c"Configuration error: rng-%d=... of module/channel %s: local RNG index out of supported range 0..99\00", align 1
@.str.248 = private unnamed_addr constant [11 x i8] c"Error: %s.\00", align 1
@.str.249 = private unnamed_addr constant [32 x i8] c"Error in component (%s) %s: %s.\00", align 1
@.str.250 = private unnamed_addr constant [37 x i8] c"Error in module (%s) %s (id=%d): %s.\00", align 1
@.str.251 = private unnamed_addr constant [4 x i8] c"%s.\00", align 1
@.str.252 = private unnamed_addr constant [23 x i8] c"Component (%s) %s: %s.\00", align 1
@.str.253 = private unnamed_addr constant [28 x i8] c"Module (%s) %s (id=%d): %s.\00", align 1
@_ZTS21cTerminationException = linkonce_odr dso_local constant [24 x i8] c"21cTerminationException\00", comdat, align 1
@_ZTI21cTerminationException = linkonce_odr dso_local constant { ptr, ptr, ptr } { ptr getelementptr inbounds (ptr, ptr @_ZTVN10__cxxabiv120__si_class_type_infoE, i64 2), ptr @_ZTS21cTerminationException, ptr @_ZTI10cException }, comdat, align 8
@.str.254 = private unnamed_addr constant [38 x i8] c"Fingerprint successfully verified: %s\00", align 1
@.str.255 = private unnamed_addr constant [53 x i8] c"Fingerprint mismatch! calculated: %s, expected: %s%s\00", align 1
@.str.256 = private unnamed_addr constant [9 x i8] c"one of: \00", align 1
@.str.257 = private unnamed_addr constant [2 x i8] c"-\00", align 1
@.str.258 = private unnamed_addr constant [58 x i8] c"Network `%s' or `%s' not found, check .ini and .ned files\00", align 1
@.str.259 = private unnamed_addr constant [50 x i8] c"Network `%s' not found, check .ini and .ned files\00", align 1
@.str.260 = private unnamed_addr constant [34 x i8] c"Module type `%s' is not a network\00", align 1
@llvm.global_ctors = appending global [1 x { i32, ptr, ptr }] [{ i32, ptr, ptr } { i32 65535, ptr @_GLOBAL__sub_I_envirbase.cc, ptr null }]
@reltable._ZN9EnvirBase17dumpComponentListEPKc = private unnamed_addr constant [8 x i32] [i32 trunc (i64 sub (i64 ptrtoint (ptr @.str.184 to i64), i64 ptrtoint (ptr @reltable._ZN9EnvirBase17dumpComponentListEPKc to i64)) to i32), i32 trunc (i64 sub (i64 ptrtoint (ptr @.str.185 to i64), i64 ptrtoint (ptr @reltable._ZN9EnvirBase17dumpComponentListEPKc to i64)) to i32), i32 trunc (i64 sub (i64 ptrtoint (ptr @.str.186 to i64), i64 ptrtoint (ptr @reltable._ZN9EnvirBase17dumpComponentListEPKc to i64)) to i32), i32 trunc (i64 sub (i64 ptrtoint (ptr @.str.187 to i64), i64 ptrtoint (ptr @reltable._ZN9EnvirBase17dumpComponentListEPKc to i64)) to i32), i32 trunc (i64 sub (i64 ptrtoint (ptr @.str.188 to i64), i64 ptrtoint (ptr @reltable._ZN9EnvirBase17dumpComponentListEPKc to i64)) to i32), i32 trunc (i64 sub (i64 ptrtoint (ptr @.str.189 to i64), i64 ptrtoint (ptr @reltable._ZN9EnvirBase17dumpComponentListEPKc to i64)) to i32), i32 trunc (i64 sub (i64 ptrtoint (ptr @.str.190 to i64), i64 ptrtoint (ptr @reltable._ZN9EnvirBase17dumpComponentListEPKc to i64)) to i32), i32 trunc (i64 sub (i64 ptrtoint (ptr @.str.191 to i64), i64 ptrtoint (ptr @reltable._ZN9EnvirBase17dumpComponentListEPKc to i64)) to i32)], align 4

@_ZN9EnvirBaseD1Ev = dso_local unnamed_addr alias void (ptr), ptr @_ZN9EnvirBaseD2Ev

; Function Attrs: sspstrong uwtable
define dso_local void @_ZN9EnvirBase5sputnEPKci(ptr nocapture noundef nonnull readonly align 8 dereferenceable(600) %0, ptr noundef %1, i32 noundef %2) unnamed_addr #0 align 2 {
  %4 = getelementptr inbounds %class.EnvirBase, ptr %0, i64 0, i32 29
  %5 = load ptr, ptr %4, align 8, !tbaa !6
  %6 = icmp eq ptr %5, null
  br i1 %6, label %11, label %7

7:                                                ; preds = %3
  %8 = load ptr, ptr %5, align 8, !tbaa !20
  %9 = getelementptr inbounds ptr, ptr %8, i64 26
  %10 = load ptr, ptr %9, align 8
  tail call void %10(ptr noundef nonnull align 8 dereferenceable(43) %5, ptr noundef %1, i32 noundef %2)
  br label %11

11:                                               ; preds = %7, %3
  ret void
}

declare void @__cxa_pure_virtual() unnamed_addr

; Function Attrs: noreturn nounwind sspstrong uwtable
define dso_local void @_ZN9EnvirBaseD0Ev(ptr nocapture nonnull readnone align 8 %0) unnamed_addr #1 align 2 {
  tail call void @llvm.trap() #33
  unreachable
}

; Function Attrs: mustprogress nofree norecurse nosync nounwind sspstrong willreturn memory(none) uwtable
define dso_local void @_ZN9EnvirBase13objectDeletedEP7cObject(ptr nocapture nonnull align 8 %0, ptr nocapture %1) unnamed_addr #2 align 2 {
  ret void
}

; Function Attrs: sspstrong uwtable
define dso_local void @_ZN9EnvirBase15simulationEventEP8cMessage(ptr nocapture noundef nonnull readonly align 8 dereferenceable(600) %0, ptr noundef %1) unnamed_addr #0 align 2 {
  %3 = getelementptr inbounds %class.EnvirBase, ptr %0, i64 0, i32 29
  %4 = load ptr, ptr %3, align 8, !tbaa !6
  %5 = icmp eq ptr %4, null
  br i1 %5, label %10, label %6

6:                                                ; preds = %2
  %7 = load ptr, ptr %4, align 8, !tbaa !20
  %8 = getelementptr inbounds ptr, ptr %7, i64 6
  %9 = load ptr, ptr %8, align 8
  tail call void %9(ptr noundef nonnull align 8 dereferenceable(43) %4, ptr noundef %1)
  br label %10

10:                                               ; preds = %6, %2
  ret void
}

; Function Attrs: sspstrong uwtable
define dso_local void @_ZN9EnvirBase16messageScheduledEP8cMessage(ptr nocapture noundef nonnull readonly align 8 dereferenceable(600) %0, ptr noundef %1) unnamed_addr #0 align 2 {
  %3 = getelementptr inbounds %class.EnvirBase, ptr %0, i64 0, i32 29
  %4 = load ptr, ptr %3, align 8, !tbaa !6
  %5 = icmp eq ptr %4, null
  br i1 %5, label %10, label %6

6:                                                ; preds = %2
  %7 = load ptr, ptr %4, align 8, !tbaa !20
  %8 = getelementptr inbounds ptr, ptr %7, i64 8
  %9 = load ptr, ptr %8, align 8
  tail call void %9(ptr noundef nonnull align 8 dereferenceable(43) %4, ptr noundef %1)
  br label %10

10:                                               ; preds = %6, %2
  ret void
}

; Function Attrs: sspstrong uwtable
define dso_local void @_ZN9EnvirBase16messageCancelledEP8cMessage(ptr nocapture noundef nonnull readonly align 8 dereferenceable(600) %0, ptr noundef %1) unnamed_addr #0 align 2 {
  %3 = getelementptr inbounds %class.EnvirBase, ptr %0, i64 0, i32 29
  %4 = load ptr, ptr %3, align 8, !tbaa !6
  %5 = icmp eq ptr %4, null
  br i1 %5, label %10, label %6

6:                                                ; preds = %2
  %7 = load ptr, ptr %4, align 8, !tbaa !20
  %8 = getelementptr inbounds ptr, ptr %7, i64 9
  %9 = load ptr, ptr %8, align 8
  tail call void %9(ptr noundef nonnull align 8 dereferenceable(43) %4, ptr noundef %1)
  br label %10

10:                                               ; preds = %6, %2
  ret void
}

; Function Attrs: sspstrong uwtable
define dso_local void @_ZN9EnvirBase9beginSendEP8cMessage(ptr nocapture noundef nonnull readonly align 8 dereferenceable(600) %0, ptr noundef %1) unnamed_addr #0 align 2 {
  %3 = getelementptr inbounds %class.EnvirBase, ptr %0, i64 0, i32 29
  %4 = load ptr, ptr %3, align 8, !tbaa !6
  %5 = icmp eq ptr %4, null
  br i1 %5, label %10, label %6

6:                                                ; preds = %2
  %7 = load ptr, ptr %4, align 8, !tbaa !20
  %8 = getelementptr inbounds ptr, ptr %7, i64 10
  %9 = load ptr, ptr %8, align 8
  tail call void %9(ptr noundef nonnull align 8 dereferenceable(43) %4, ptr noundef %1)
  br label %10

10:                                               ; preds = %6, %2
  ret void
}

; Function Attrs: sspstrong uwtable
define dso_local void @_ZN9EnvirBase17messageSendDirectEP8cMessageP5cGate7SimTimeS4_(ptr nocapture noundef nonnull readonly align 8 dereferenceable(600) %0, ptr noundef %1, ptr noundef %2, ptr nocapture noundef readonly %3, ptr nocapture noundef readonly %4) unnamed_addr #0 align 2 {
  %6 = alloca %class.SimTime, align 8
  %7 = alloca %class.SimTime, align 8
  %8 = getelementptr inbounds %class.EnvirBase, ptr %0, i64 0, i32 29
  %9 = load ptr, ptr %8, align 8, !tbaa !6
  %10 = icmp eq ptr %9, null
  br i1 %10, label %17, label %11

11:                                               ; preds = %5
  %12 = load i64, ptr %3, align 8, !tbaa !22
  store i64 %12, ptr %6, align 8, !tbaa !22
  %13 = load i64, ptr %4, align 8, !tbaa !22
  store i64 %13, ptr %7, align 8, !tbaa !22
  %14 = load ptr, ptr %9, align 8, !tbaa !20
  %15 = getelementptr inbounds ptr, ptr %14, i64 11
  %16 = load ptr, ptr %15, align 8
  call void %16(ptr noundef nonnull align 8 dereferenceable(43) %9, ptr noundef %1, ptr noundef %2, ptr noundef nonnull %6, ptr noundef nonnull %7)
  br label %17

17:                                               ; preds = %11, %5
  ret void
}

; Function Attrs: sspstrong uwtable
define dso_local void @_ZN9EnvirBase14messageSendHopEP8cMessageP5cGate(ptr nocapture noundef nonnull readonly align 8 dereferenceable(600) %0, ptr noundef %1, ptr noundef %2) unnamed_addr #0 align 2 {
  %4 = getelementptr inbounds %class.EnvirBase, ptr %0, i64 0, i32 29
  %5 = load ptr, ptr %4, align 8, !tbaa !6
  %6 = icmp eq ptr %5, null
  br i1 %6, label %11, label %7

7:                                                ; preds = %3
  %8 = load ptr, ptr %5, align 8, !tbaa !20
  %9 = getelementptr inbounds ptr, ptr %8, i64 12
  %10 = load ptr, ptr %9, align 8
  tail call void %10(ptr noundef nonnull align 8 dereferenceable(43) %5, ptr noundef %1, ptr noundef %2)
  br label %11

11:                                               ; preds = %7, %3
  ret void
}

; Function Attrs: sspstrong uwtable
define dso_local void @_ZN9EnvirBase14messageSendHopEP8cMessageP5cGate7SimTimeS4_(ptr nocapture noundef nonnull readonly align 8 dereferenceable(600) %0, ptr noundef %1, ptr noundef %2, ptr nocapture noundef readonly %3, ptr nocapture noundef readonly %4) unnamed_addr #0 align 2 {
  %6 = alloca %class.SimTime, align 8
  %7 = alloca %class.SimTime, align 8
  %8 = getelementptr inbounds %class.EnvirBase, ptr %0, i64 0, i32 29
  %9 = load ptr, ptr %8, align 8, !tbaa !6
  %10 = icmp eq ptr %9, null
  br i1 %10, label %17, label %11

11:                                               ; preds = %5
  %12 = load i64, ptr %3, align 8, !tbaa !22
  store i64 %12, ptr %6, align 8, !tbaa !22
  %13 = load i64, ptr %4, align 8, !tbaa !22
  store i64 %13, ptr %7, align 8, !tbaa !22
  %14 = load ptr, ptr %9, align 8, !tbaa !20
  %15 = getelementptr inbounds ptr, ptr %14, i64 13
  %16 = load ptr, ptr %15, align 8
  call void %16(ptr noundef nonnull align 8 dereferenceable(43) %9, ptr noundef %1, ptr noundef %2, ptr noundef nonnull %6, ptr noundef nonnull %7)
  br label %17

17:                                               ; preds = %11, %5
  ret void
}

; Function Attrs: sspstrong uwtable
define dso_local void @_ZN9EnvirBase7endSendEP8cMessage(ptr nocapture noundef nonnull readonly align 8 dereferenceable(600) %0, ptr noundef %1) unnamed_addr #0 align 2 {
  %3 = getelementptr inbounds %class.EnvirBase, ptr %0, i64 0, i32 29
  %4 = load ptr, ptr %3, align 8, !tbaa !6
  %5 = icmp eq ptr %4, null
  br i1 %5, label %10, label %6

6:                                                ; preds = %2
  %7 = load ptr, ptr %4, align 8, !tbaa !20
  %8 = getelementptr inbounds ptr, ptr %7, i64 14
  %9 = load ptr, ptr %8, align 8
  tail call void %9(ptr noundef nonnull align 8 dereferenceable(43) %4, ptr noundef %1)
  br label %10

10:                                               ; preds = %6, %2
  ret void
}

; Function Attrs: sspstrong uwtable
define dso_local void @_ZN9EnvirBase14messageDeletedEP8cMessage(ptr nocapture noundef nonnull readonly align 8 dereferenceable(600) %0, ptr noundef %1) unnamed_addr #0 align 2 {
  %3 = getelementptr inbounds %class.EnvirBase, ptr %0, i64 0, i32 29
  %4 = load ptr, ptr %3, align 8, !tbaa !6
  %5 = icmp eq ptr %4, null
  br i1 %5, label %10, label %6

6:                                                ; preds = %2
  %7 = load ptr, ptr %4, align 8, !tbaa !20
  %8 = getelementptr inbounds ptr, ptr %7, i64 15
  %9 = load ptr, ptr %8, align 8
  tail call void %9(ptr noundef nonnull align 8 dereferenceable(43) %4, ptr noundef %1)
  br label %10

10:                                               ; preds = %6, %2
  ret void
}

; Function Attrs: sspstrong uwtable
define dso_local void @_ZN9EnvirBase16moduleReparentedEP7cModuleS1_(ptr nocapture noundef nonnull readonly align 8 dereferenceable(600) %0, ptr noundef %1, ptr noundef %2) unnamed_addr #0 align 2 {
  %4 = getelementptr inbounds %class.EnvirBase, ptr %0, i64 0, i32 29
  %5 = load ptr, ptr %4, align 8, !tbaa !6
  %6 = icmp eq ptr %5, null
  br i1 %6, label %11, label %7

7:                                                ; preds = %3
  %8 = load ptr, ptr %5, align 8, !tbaa !20
  %9 = getelementptr inbounds ptr, ptr %8, i64 16
  %10 = load ptr, ptr %9, align 8
  tail call void %10(ptr noundef nonnull align 8 dereferenceable(43) %5, ptr noundef %1, ptr noundef %2)
  br label %11

11:                                               ; preds = %7, %3
  ret void
}

; Function Attrs: sspstrong uwtable
define dso_local void @_ZN9EnvirBase20componentMethodBeginEP10cComponentS1_PKcP13__va_list_tag(ptr nocapture noundef nonnull readonly align 8 dereferenceable(600) %0, ptr noundef %1, ptr noundef %2, ptr noundef %3, ptr noundef %4) unnamed_addr #0 align 2 {
  %6 = getelementptr inbounds %class.EnvirBase, ptr %0, i64 0, i32 29
  %7 = load ptr, ptr %6, align 8, !tbaa !6
  %8 = icmp eq ptr %7, null
  br i1 %8, label %13, label %9

9:                                                ; preds = %5
  %10 = load ptr, ptr %7, align 8, !tbaa !20
  %11 = getelementptr inbounds ptr, ptr %10, i64 17
  %12 = load ptr, ptr %11, align 8
  tail call void %12(ptr noundef nonnull align 8 dereferenceable(43) %7, ptr noundef %1, ptr noundef %2, ptr noundef %3, ptr noundef %4)
  br label %13

13:                                               ; preds = %9, %5
  ret void
}

; Function Attrs: sspstrong uwtable
define dso_local void @_ZN9EnvirBase18componentMethodEndEv(ptr nocapture noundef nonnull readonly align 8 dereferenceable(600) %0) unnamed_addr #0 align 2 {
  %2 = getelementptr inbounds %class.EnvirBase, ptr %0, i64 0, i32 29
  %3 = load ptr, ptr %2, align 8, !tbaa !6
  %4 = icmp eq ptr %3, null
  br i1 %4, label %9, label %5

5:                                                ; preds = %1
  %6 = load ptr, ptr %3, align 8, !tbaa !20
  %7 = getelementptr inbounds ptr, ptr %6, i64 18
  %8 = load ptr, ptr %7, align 8
  tail call void %8(ptr noundef nonnull align 8 dereferenceable(43) %3)
  br label %9

9:                                                ; preds = %5, %1
  ret void
}

; Function Attrs: sspstrong uwtable
define dso_local void @_ZN9EnvirBase13moduleCreatedEP7cModule(ptr nocapture noundef nonnull readonly align 8 dereferenceable(600) %0, ptr noundef %1) unnamed_addr #0 align 2 {
  %3 = getelementptr inbounds %class.EnvirBase, ptr %0, i64 0, i32 29
  %4 = load ptr, ptr %3, align 8, !tbaa !6
  %5 = icmp eq ptr %4, null
  br i1 %5, label %10, label %6

6:                                                ; preds = %2
  %7 = load ptr, ptr %4, align 8, !tbaa !20
  %8 = getelementptr inbounds ptr, ptr %7, i64 19
  %9 = load ptr, ptr %8, align 8
  tail call void %9(ptr noundef nonnull align 8 dereferenceable(43) %4, ptr noundef %1)
  br label %10

10:                                               ; preds = %6, %2
  ret void
}

; Function Attrs: sspstrong uwtable
define dso_local void @_ZN9EnvirBase13moduleDeletedEP7cModule(ptr nocapture noundef nonnull readonly align 8 dereferenceable(600) %0, ptr noundef %1) unnamed_addr #0 align 2 {
  %3 = getelementptr inbounds %class.EnvirBase, ptr %0, i64 0, i32 29
  %4 = load ptr, ptr %3, align 8, !tbaa !6
  %5 = icmp eq ptr %4, null
  br i1 %5, label %10, label %6

6:                                                ; preds = %2
  %7 = load ptr, ptr %4, align 8, !tbaa !20
  %8 = getelementptr inbounds ptr, ptr %7, i64 20
  %9 = load ptr, ptr %8, align 8
  tail call void %9(ptr noundef nonnull align 8 dereferenceable(43) %4, ptr noundef %1)
  br label %10

10:                                               ; preds = %6, %2
  ret void
}

; Function Attrs: sspstrong uwtable
define dso_local void @_ZN9EnvirBase11gateCreatedEP5cGate(ptr nocapture noundef nonnull readonly align 8 dereferenceable(600) %0, ptr noundef %1) unnamed_addr #0 align 2 {
  %3 = getelementptr inbounds %class.EnvirBase, ptr %0, i64 0, i32 29
  %4 = load ptr, ptr %3, align 8, !tbaa !6
  %5 = icmp eq ptr %4, null
  br i1 %5, label %10, label %6

6:                                                ; preds = %2
  %7 = load ptr, ptr %4, align 8, !tbaa !20
  %8 = getelementptr inbounds ptr, ptr %7, i64 21
  %9 = load ptr, ptr %8, align 8
  tail call void %9(ptr noundef nonnull align 8 dereferenceable(43) %4, ptr noundef %1)
  br label %10

10:                                               ; preds = %6, %2
  ret void
}

; Function Attrs: sspstrong uwtable
define dso_local void @_ZN9EnvirBase11gateDeletedEP5cGate(ptr nocapture noundef nonnull readonly align 8 dereferenceable(600) %0, ptr noundef %1) unnamed_addr #0 align 2 {
  %3 = getelementptr inbounds %class.EnvirBase, ptr %0, i64 0, i32 29
  %4 = load ptr, ptr %3, align 8, !tbaa !6
  %5 = icmp eq ptr %4, null
  br i1 %5, label %10, label %6

6:                                                ; preds = %2
  %7 = load ptr, ptr %4, align 8, !tbaa !20
  %8 = getelementptr inbounds ptr, ptr %7, i64 22
  %9 = load ptr, ptr %8, align 8
  tail call void %9(ptr noundef nonnull align 8 dereferenceable(43) %4, ptr noundef %1)
  br label %10

10:                                               ; preds = %6, %2
  ret void
}

; Function Attrs: sspstrong uwtable
define dso_local void @_ZN9EnvirBase17connectionCreatedEP5cGate(ptr nocapture noundef nonnull readonly align 8 dereferenceable(600) %0, ptr noundef %1) unnamed_addr #0 align 2 {
  %3 = getelementptr inbounds %class.EnvirBase, ptr %0, i64 0, i32 29
  %4 = load ptr, ptr %3, align 8, !tbaa !6
  %5 = icmp eq ptr %4, null
  br i1 %5, label %10, label %6

6:                                                ; preds = %2
  %7 = load ptr, ptr %4, align 8, !tbaa !20
  %8 = getelementptr inbounds ptr, ptr %7, i64 23
  %9 = load ptr, ptr %8, align 8
  tail call void %9(ptr noundef nonnull align 8 dereferenceable(43) %4, ptr noundef %1)
  br label %10

10:                                               ; preds = %6, %2
  ret void
}

; Function Attrs: sspstrong uwtable
define dso_local void @_ZN9EnvirBase17connectionDeletedEP5cGate(ptr nocapture noundef nonnull readonly align 8 dereferenceable(600) %0, ptr noundef %1) unnamed_addr #0 align 2 {
  %3 = getelementptr inbounds %class.EnvirBase, ptr %0, i64 0, i32 29
  %4 = load ptr, ptr %3, align 8, !tbaa !6
  %5 = icmp eq ptr %4, null
  br i1 %5, label %10, label %6

6:                                                ; preds = %2
  %7 = load ptr, ptr %4, align 8, !tbaa !20
  %8 = getelementptr inbounds ptr, ptr %7, i64 24
  %9 = load ptr, ptr %8, align 8
  tail call void %9(ptr noundef nonnull align 8 dereferenceable(43) %4, ptr noundef %1)
  br label %10

10:                                               ; preds = %6, %2
  ret void
}

; Function Attrs: sspstrong uwtable
define dso_local void @_ZN9EnvirBase20displayStringChangedEP10cComponent(ptr nocapture noundef nonnull readonly align 8 dereferenceable(600) %0, ptr noundef %1) unnamed_addr #0 align 2 {
  %3 = getelementptr inbounds %class.EnvirBase, ptr %0, i64 0, i32 29
  %4 = load ptr, ptr %3, align 8, !tbaa !6
  %5 = icmp eq ptr %4, null
  br i1 %5, label %10, label %6

6:                                                ; preds = %2
  %7 = load ptr, ptr %4, align 8, !tbaa !20
  %8 = getelementptr inbounds ptr, ptr %7, i64 25
  %9 = load ptr, ptr %8, align 8
  tail call void %9(ptr noundef nonnull align 8 dereferenceable(43) %4, ptr noundef %1)
  br label %10

10:                                               ; preds = %6, %2
  ret void
}

; Function Attrs: sspstrong uwtable
define dso_local void @_ZN9EnvirBase16undisposedObjectEP7cObject(ptr nocapture noundef nonnull readonly align 8 dereferenceable(600) %0, ptr noundef %1) unnamed_addr #0 align 2 personality ptr @__gxx_personality_v0 {
  %3 = alloca %"class.std::__cxx11::basic_string", align 8
  %4 = getelementptr inbounds %class.EnvirBase, ptr %0, i64 0, i32 21
  %5 = load i8, ptr %4, align 1, !tbaa !23, !range !24, !noundef !25
  %6 = icmp eq i8 %5, 0
  br i1 %6, label %26, label %7

7:                                                ; preds = %2
  %8 = load ptr, ptr %1, align 8, !tbaa !20
  %9 = getelementptr inbounds ptr, ptr %8, i64 5
  %10 = load ptr, ptr %9, align 8
  %11 = tail call noundef ptr %10(ptr noundef nonnull align 8 dereferenceable(8) %1)
  call void @llvm.lifetime.start.p0(i64 32, ptr nonnull %3) #34
  %12 = load ptr, ptr %1, align 8, !tbaa !20
  %13 = getelementptr inbounds ptr, ptr %12, i64 8
  %14 = load ptr, ptr %13, align 8
  call void %14(ptr nonnull sret(%"class.std::__cxx11::basic_string") align 8 %3, ptr noundef nonnull align 8 dereferenceable(8) %1)
  %15 = load ptr, ptr %3, align 8, !tbaa !26
  %16 = call i32 (ptr, ...) @printf(ptr noundef nonnull dereferenceable(1) @.str.236, ptr noundef %11, ptr noundef %15)
  %17 = load ptr, ptr %3, align 8, !tbaa !26
  %18 = getelementptr inbounds %"class.std::__cxx11::basic_string", ptr %3, i64 0, i32 2
  %19 = icmp eq ptr %17, %18
  br i1 %19, label %20, label %24

20:                                               ; preds = %7
  %21 = getelementptr inbounds %"class.std::__cxx11::basic_string", ptr %3, i64 0, i32 1
  %22 = load i64, ptr %21, align 8, !tbaa !29
  %23 = icmp ult i64 %22, 16
  call void @llvm.assume(i1 %23)
  br label %25

24:                                               ; preds = %7
  call void @_ZdlPv(ptr noundef %17) #35
  br label %25

25:                                               ; preds = %20, %24
  call void @llvm.lifetime.end.p0(i64 32, ptr nonnull %3) #34
  br label %26

26:                                               ; preds = %25, %2
  ret void
}

; Function Attrs: sspstrong uwtable
define dso_local void @_ZN9EnvirBase13readParameterEP4cPar(ptr noundef nonnull align 8 dereferenceable(600) %0, ptr noundef %1) unnamed_addr #0 align 2 personality ptr @__gxx_personality_v0 {
  %3 = alloca %"class.std::__cxx11::basic_string", align 8
  call void @llvm.lifetime.start.p0(i64 32, ptr nonnull %3) #34
  %4 = load ptr, ptr %1, align 8, !tbaa !20
  %5 = getelementptr inbounds ptr, ptr %4, i64 16
  %6 = load ptr, ptr %5, align 8
  %7 = tail call noundef ptr %6(ptr noundef nonnull align 8 dereferenceable(24) %1)
  %8 = load ptr, ptr %7, align 8, !tbaa !20
  %9 = getelementptr inbounds ptr, ptr %8, i64 8
  %10 = load ptr, ptr %9, align 8
  call void %10(ptr nonnull sret(%"class.std::__cxx11::basic_string") align 8 %3, ptr noundef nonnull align 8 dereferenceable(8) %7)
  %11 = load ptr, ptr %0, align 8, !tbaa !20
  %12 = getelementptr inbounds ptr, ptr %11, i64 32
  %13 = load ptr, ptr %12, align 8
  %14 = invoke noundef ptr %13(ptr noundef nonnull align 8 dereferenceable(600) %0)
          to label %15 unwind label %33

15:                                               ; preds = %2
  %16 = load ptr, ptr %3, align 8, !tbaa !26
  %17 = load ptr, ptr %1, align 8, !tbaa !20
  %18 = getelementptr inbounds ptr, ptr %17, i64 6
  %19 = load ptr, ptr %18, align 8
  %20 = invoke noundef ptr %19(ptr noundef nonnull align 8 dereferenceable(24) %1)
          to label %21 unwind label %33

21:                                               ; preds = %15
  %22 = invoke noundef zeroext i1 @_ZNK4cPar13containsValueEv(ptr noundef nonnull align 8 dereferenceable(24) %1)
          to label %23 unwind label %33

23:                                               ; preds = %21
  %24 = load ptr, ptr %14, align 8, !tbaa !20
  %25 = getelementptr inbounds ptr, ptr %24, i64 57
  %26 = load ptr, ptr %25, align 8
  %27 = invoke noundef ptr %26(ptr noundef nonnull align 8 dereferenceable(8) %14, ptr noundef %16, ptr noundef %20, i1 noundef zeroext %22)
          to label %28 unwind label %33

28:                                               ; preds = %23
  %29 = icmp eq ptr %27, null
  br i1 %29, label %50, label %30

30:                                               ; preds = %28
  %31 = call i32 @strcmp(ptr noundef nonnull dereferenceable(1) %27, ptr noundef nonnull dereferenceable(8) @.str.234) #36
  %32 = icmp eq i32 %31, 0
  br i1 %32, label %53, label %43

33:                                               ; preds = %53, %54, %50, %49, %23, %21, %15, %2
  %34 = landingpad { ptr, i32 }
          cleanup
  %35 = load ptr, ptr %3, align 8, !tbaa !26
  %36 = getelementptr inbounds %"class.std::__cxx11::basic_string", ptr %3, i64 0, i32 2
  %37 = icmp eq ptr %35, %36
  br i1 %37, label %38, label %42

38:                                               ; preds = %33
  %39 = getelementptr inbounds %"class.std::__cxx11::basic_string", ptr %3, i64 0, i32 1
  %40 = load i64, ptr %39, align 8, !tbaa !29
  %41 = icmp ult i64 %40, 16
  call void @llvm.assume(i1 %41)
  br label %68

42:                                               ; preds = %33
  call void @_ZdlPv(ptr noundef %35) #35
  br label %68

43:                                               ; preds = %30
  %44 = call i32 @strcmp(ptr noundef nonnull dereferenceable(1) %27, ptr noundef nonnull dereferenceable(4) @.str.235) #36
  %45 = icmp eq i32 %44, 0
  br i1 %45, label %54, label %46

46:                                               ; preds = %43
  %47 = load i8, ptr %27, align 1, !tbaa !30
  %48 = icmp eq i8 %47, 0
  br i1 %48, label %50, label %49

49:                                               ; preds = %46
  invoke void @_ZN4cPar5parseEPKc(ptr noundef nonnull align 8 dereferenceable(24) %1, ptr noundef nonnull %27)
          to label %58 unwind label %33

50:                                               ; preds = %28, %46
  %51 = invoke noundef zeroext i1 @_ZNK4cPar13containsValueEv(ptr noundef nonnull align 8 dereferenceable(24) %1)
          to label %52 unwind label %33

52:                                               ; preds = %50
  br i1 %51, label %53, label %54

53:                                               ; preds = %30, %52
  invoke void @_ZN4cPar13acceptDefaultEv(ptr noundef nonnull align 8 dereferenceable(24) %1)
          to label %58 unwind label %33

54:                                               ; preds = %52, %43
  %55 = load ptr, ptr %0, align 8, !tbaa !20
  %56 = getelementptr inbounds ptr, ptr %55, i64 67
  %57 = load ptr, ptr %56, align 8
  invoke void %57(ptr noundef nonnull align 8 dereferenceable(600) %0, ptr noundef nonnull %1)
          to label %58 unwind label %33

58:                                               ; preds = %53, %54, %49
  %59 = load ptr, ptr %3, align 8, !tbaa !26
  %60 = getelementptr inbounds %"class.std::__cxx11::basic_string", ptr %3, i64 0, i32 2
  %61 = icmp eq ptr %59, %60
  br i1 %61, label %62, label %66

62:                                               ; preds = %58
  %63 = getelementptr inbounds %"class.std::__cxx11::basic_string", ptr %3, i64 0, i32 1
  %64 = load i64, ptr %63, align 8, !tbaa !29
  %65 = icmp ult i64 %64, 16
  call void @llvm.assume(i1 %65)
  br label %67

66:                                               ; preds = %58
  call void @_ZdlPv(ptr noundef %59) #35
  br label %67

67:                                               ; preds = %62, %66
  call void @llvm.lifetime.end.p0(i64 32, ptr nonnull %3) #34
  ret void

68:                                               ; preds = %42, %38
  call void @llvm.lifetime.end.p0(i64 32, ptr nonnull %3) #34
  resume { ptr, i32 } %34
}

; Function Attrs: mustprogress nofree norecurse nosync nounwind sspstrong willreturn memory(none) uwtable
define dso_local noundef zeroext i1 @_ZN9EnvirBase13isModuleLocalEP7cModulePKci(ptr nocapture nonnull readnone align 8 %0, ptr nocapture readnone %1, ptr nocapture readnone %2, i32 %3) unnamed_addr #2 align 2 {
  ret i1 true
}

; Function Attrs: sspstrong uwtable
define dso_local noundef ptr @_ZN9EnvirBase14getXMLDocumentEPKcS1_(ptr nocapture noundef nonnull readonly align 8 dereferenceable(600) %0, ptr noundef %1, ptr noundef %2) unnamed_addr #0 align 2 personality ptr @__gxx_personality_v0 {
  %4 = alloca %class.ModNameParamResolver, align 8
  %5 = getelementptr inbounds %class.EnvirBase, ptr %0, i64 0, i32 3
  %6 = load ptr, ptr %5, align 8, !tbaa !31
  %7 = load ptr, ptr %6, align 8, !tbaa !20
  %8 = getelementptr inbounds ptr, ptr %7, i64 19
  %9 = load ptr, ptr %8, align 8
  %10 = tail call noundef ptr %9(ptr noundef nonnull align 8 dereferenceable(56) %6, ptr noundef %1)
  %11 = icmp eq ptr %2, null
  br i1 %11, label %17, label %12

12:                                               ; preds = %3
  call void @llvm.lifetime.start.p0(i64 16, ptr nonnull %4) #34
  %13 = load ptr, ptr @_ZN11cSimulation6simPtrE, align 8, !tbaa !32
  %14 = tail call noundef ptr @_ZNK11cSimulation16getContextModuleEv(ptr noundef nonnull align 8 dereferenceable(224) %13)
  store ptr getelementptr inbounds ({ [5 x ptr] }, ptr @_ZTV20ModNameParamResolver, i64 0, inrange i32 0, i64 2), ptr %4, align 8, !tbaa !20
  %15 = getelementptr inbounds %class.ModNameParamResolver, ptr %4, i64 0, i32 1
  store ptr %14, ptr %15, align 8, !tbaa !33
  %16 = call noundef ptr @_ZN11cXMLElement24getDocumentElementByPathEPS_PKcPNS_13ParamResolverE(ptr noundef %10, ptr noundef nonnull %2, ptr noundef nonnull %4)
  call void @llvm.lifetime.end.p0(i64 16, ptr nonnull %4) #34
  br label %22

17:                                               ; preds = %3
  %18 = load ptr, ptr %10, align 8, !tbaa !20
  %19 = getelementptr inbounds ptr, ptr %18, i64 16
  %20 = load ptr, ptr %19, align 8
  %21 = tail call noundef ptr %20(ptr noundef nonnull align 8 dereferenceable(192) %10)
  br label %22

22:                                               ; preds = %17, %12
  %23 = phi ptr [ %16, %12 ], [ %21, %17 ]
  ret ptr %23
}

; Function Attrs: mustprogress nofree norecurse nosync nounwind sspstrong willreturn memory(argmem: read) uwtable
define dso_local noundef ptr @_ZN9EnvirBase9getConfigEv(ptr nocapture noundef nonnull readonly align 8 dereferenceable(600) %0) unnamed_addr #3 align 2 {
  %2 = getelementptr inbounds %class.EnvirBase, ptr %0, i64 0, i32 1
  %3 = load ptr, ptr %2, align 8, !tbaa !36
  ret ptr %3
}

; Function Attrs: mustprogress nofree norecurse nosync nounwind sspstrong willreturn memory(argmem: read) uwtable
define dso_local noundef ptr @_ZN9EnvirBase11getConfigExEv(ptr nocapture noundef nonnull readonly align 8 dereferenceable(600) %0) unnamed_addr #3 align 2 {
  %2 = getelementptr inbounds %class.EnvirBase, ptr %0, i64 0, i32 1
  %3 = load ptr, ptr %2, align 8, !tbaa !36
  ret ptr %3
}

; Function Attrs: sspstrong uwtable
define dso_local void @_ZN9EnvirBase6bubbleEP10cComponentPKc(ptr nocapture noundef nonnull readonly align 8 dereferenceable(600) %0, ptr noundef %1, ptr noundef %2) unnamed_addr #0 align 2 {
  %4 = getelementptr inbounds %class.EnvirBase, ptr %0, i64 0, i32 29
  %5 = load ptr, ptr %4, align 8, !tbaa !6
  %6 = icmp eq ptr %5, null
  br i1 %6, label %11, label %7

7:                                                ; preds = %3
  %8 = load ptr, ptr %5, align 8, !tbaa !20
  %9 = getelementptr inbounds ptr, ptr %8, i64 7
  %10 = load ptr, ptr %9, align 8
  tail call void %10(ptr noundef nonnull align 8 dereferenceable(43) %5, ptr noundef %1, ptr noundef %2)
  br label %11

11:                                               ; preds = %7, %3
  ret void
}

declare void @_ZN6cEnvir9printfmsgEPKcz(ptr noundef nonnull align 8 dereferenceable(288), ptr noundef, ...) unnamed_addr #4

declare noundef i32 @_ZN6cEnvir6printfEPKcz(ptr noundef nonnull align 8 dereferenceable(288), ptr noundef, ...) unnamed_addr #4

declare noundef zeroext i1 @_ZN6cEnvir8askYesNoEPKcz(ptr noundef nonnull align 8 dereferenceable(288), ptr noundef, ...) unnamed_addr #4

; Function Attrs: mustprogress nofree norecurse nosync nounwind sspstrong willreturn memory(argmem: read) uwtable
define dso_local noundef i32 @_ZNK9EnvirBase10getNumRNGsEv(ptr nocapture noundef nonnull readonly align 8 dereferenceable(600) %0) unnamed_addr #3 align 2 {
  %2 = getelementptr inbounds %class.EnvirBase, ptr %0, i64 0, i32 27
  %3 = load i32, ptr %2, align 8, !tbaa !37
  ret i32 %3
}

; Function Attrs: sspstrong uwtable
define dso_local noundef ptr @_ZN9EnvirBase6getRNGEi(ptr nocapture noundef nonnull readonly align 8 dereferenceable(600) %0, i32 noundef %1) unnamed_addr #0 align 2 personality ptr @__gxx_personality_v0 {
  %3 = icmp sgt i32 %1, -1
  %4 = getelementptr inbounds %class.EnvirBase, ptr %0, i64 0, i32 27
  %5 = load i32, ptr %4, align 8
  %6 = icmp sgt i32 %5, %1
  %7 = select i1 %3, i1 %6, i1 false
  br i1 %7, label %14, label %8

8:                                                ; preds = %2
  %9 = tail call ptr @__cxa_allocate_exception(i64 128) #34
  %10 = load i32, ptr %4, align 8, !tbaa !37
  invoke void (ptr, ptr, ...) @_ZN13cRuntimeErrorC1EPKcz(ptr noundef nonnull align 8 dereferenceable(124) %9, ptr noundef nonnull @.str.243, i32 noundef %1, i32 noundef %10)
          to label %11 unwind label %12

11:                                               ; preds = %8
  tail call void @__cxa_throw(ptr nonnull %9, ptr nonnull @_ZTI13cRuntimeError, ptr nonnull @_ZN10cExceptionD2Ev) #37
  unreachable

12:                                               ; preds = %8
  %13 = landingpad { ptr, i32 }
          cleanup
  tail call void @__cxa_free_exception(ptr %9) #34
  resume { ptr, i32 } %13

14:                                               ; preds = %2
  %15 = getelementptr inbounds %class.EnvirBase, ptr %0, i64 0, i32 28
  %16 = load ptr, ptr %15, align 8, !tbaa !38
  %17 = zext i32 %1 to i64
  %18 = getelementptr inbounds ptr, ptr %16, i64 %17
  %19 = load ptr, ptr %18, align 8, !tbaa !32
  ret ptr %19
}

; Function Attrs: sspstrong uwtable
define dso_local void @_ZN9EnvirBase16getRNGMappingForEP10cComponent(ptr noundef nonnull align 8 dereferenceable(600) %0, ptr noundef %1) unnamed_addr #0 align 2 personality ptr @__gxx_personality_v0 {
  %3 = alloca %"class.std::__cxx11::basic_string", align 8
  %4 = alloca %"class.std::vector.51", align 8
  %5 = alloca [100 x i32], align 16
  %6 = alloca ptr, align 8
  %7 = alloca ptr, align 8
  %8 = alloca %"class.std::__cxx11::basic_string", align 8
  %9 = alloca %"class.std::__cxx11::basic_string", align 8
  %10 = alloca %"class.std::__cxx11::basic_string", align 8
  %11 = load ptr, ptr %0, align 8, !tbaa !20
  %12 = getelementptr inbounds ptr, ptr %11, i64 32
  %13 = load ptr, ptr %12, align 8
  %14 = tail call noundef ptr %13(ptr noundef nonnull align 8 dereferenceable(600) %0)
  call void @llvm.lifetime.start.p0(i64 32, ptr nonnull %3) #34
  %15 = load ptr, ptr %1, align 8, !tbaa !20
  %16 = getelementptr inbounds ptr, ptr %15, i64 8
  %17 = load ptr, ptr %16, align 8
  call void %17(ptr nonnull sret(%"class.std::__cxx11::basic_string") align 8 %3, ptr noundef nonnull align 8 dereferenceable(8) %1)
  call void @llvm.lifetime.start.p0(i64 24, ptr nonnull %4) #34
  %18 = load ptr, ptr %3, align 8, !tbaa !26
  %19 = load ptr, ptr %14, align 8, !tbaa !20
  %20 = getelementptr inbounds ptr, ptr %19, i64 61
  %21 = load ptr, ptr %20, align 8
  invoke void %21(ptr nonnull sret(%"class.std::vector.51") align 8 %4, ptr noundef nonnull align 8 dereferenceable(8) %14, ptr noundef %18, ptr noundef nonnull @.str.244)
          to label %22 unwind label %27

22:                                               ; preds = %2
  %23 = getelementptr inbounds %"struct.std::_Vector_base<const char *, std::allocator<const char *> >::_Vector_impl_data", ptr %4, i64 0, i32 1
  %24 = load ptr, ptr %23, align 8, !tbaa !39
  %25 = load ptr, ptr %4, align 8, !tbaa !41
  %26 = icmp eq ptr %24, %25
  br i1 %26, label %217, label %29

27:                                               ; preds = %2
  %28 = landingpad { ptr, i32 }
          cleanup
  br label %236

29:                                               ; preds = %22
  call void @llvm.lifetime.start.p0(i64 400, ptr nonnull %5) #34
  %30 = ptrtoint ptr %24 to i64
  %31 = ptrtoint ptr %25 to i64
  %32 = sub i64 %30, %31
  %33 = lshr exact i64 %32, 3
  %34 = trunc i64 %33 to i32
  %35 = icmp sgt i32 %34, 0
  br i1 %35, label %38, label %215

36:                                               ; preds = %189
  %37 = icmp sgt i32 %190, 0
  br i1 %37, label %205, label %215

38:                                               ; preds = %29, %189
  %39 = phi i64 [ %194, %189 ], [ 0, %29 ]
  %40 = phi ptr [ %196, %189 ], [ %25, %29 ]
  %41 = phi i32 [ %190, %189 ], [ 0, %29 ]
  %42 = getelementptr inbounds ptr, ptr %40, i64 %39
  %43 = load ptr, ptr %42, align 8, !tbaa !32
  %44 = load ptr, ptr %3, align 8, !tbaa !26
  %45 = load ptr, ptr %14, align 8, !tbaa !20
  %46 = getelementptr inbounds ptr, ptr %45, i64 22
  %47 = load ptr, ptr %46, align 8
  %48 = invoke noundef ptr %47(ptr noundef nonnull align 8 dereferenceable(8) %14, ptr noundef %44, ptr noundef %43)
          to label %49 unwind label %70

49:                                               ; preds = %38
  call void @llvm.lifetime.start.p0(i64 8, ptr nonnull %6) #34
  call void @llvm.lifetime.start.p0(i64 8, ptr nonnull %7) #34
  %50 = getelementptr inbounds i8, ptr %43, i64 4
  %51 = call i64 @__isoc23_strtol(ptr noundef nonnull %50, ptr noundef nonnull %6, i32 noundef 10) #34
  %52 = trunc i64 %51 to i32
  %53 = call i64 @__isoc23_strtol(ptr noundef %48, ptr noundef nonnull %7, i32 noundef 10) #34
  %54 = trunc i64 %53 to i32
  %55 = load ptr, ptr %6, align 8, !tbaa !32
  %56 = load i8, ptr %55, align 1, !tbaa !30
  %57 = icmp eq i8 %56, 0
  br i1 %57, label %58, label %62

58:                                               ; preds = %49
  %59 = load ptr, ptr %7, align 8, !tbaa !32
  %60 = load i8, ptr %59, align 1, !tbaa !30
  %61 = icmp eq i8 %60, 0
  br i1 %61, label %87, label %62

62:                                               ; preds = %58, %49
  %63 = call ptr @__cxa_allocate_exception(i64 128) #34
  call void @llvm.lifetime.start.p0(i64 32, ptr nonnull %8) #34
  %64 = load ptr, ptr %1, align 8, !tbaa !20
  %65 = getelementptr inbounds ptr, ptr %64, i64 8
  %66 = load ptr, ptr %65, align 8
  invoke void %66(ptr nonnull sret(%"class.std::__cxx11::basic_string") align 8 %8, ptr noundef nonnull align 8 dereferenceable(8) %1)
          to label %67 unwind label %72

67:                                               ; preds = %62
  %68 = load ptr, ptr %8, align 8, !tbaa !26
  invoke void (ptr, ptr, ...) @_ZN13cRuntimeErrorC1EPKcz(ptr noundef nonnull align 8 dereferenceable(124) %63, ptr noundef nonnull @.str.245, ptr noundef %43, ptr noundef %48, ptr noundef %68)
          to label %69 unwind label %74

69:                                               ; preds = %67
  invoke void @__cxa_throw(ptr nonnull %63, ptr nonnull @_ZTI13cRuntimeError, ptr nonnull @_ZN10cExceptionD2Ev) #37
          to label %247 unwind label %74

70:                                               ; preds = %38
  %71 = landingpad { ptr, i32 }
          cleanup
  br label %231

72:                                               ; preds = %62
  %73 = landingpad { ptr, i32 }
          cleanup
  call void @llvm.lifetime.end.p0(i64 32, ptr nonnull %8) #34
  br label %85

74:                                               ; preds = %69, %67
  %75 = phi i1 [ false, %69 ], [ true, %67 ]
  %76 = landingpad { ptr, i32 }
          cleanup
  %77 = load ptr, ptr %8, align 8, !tbaa !26
  %78 = getelementptr inbounds %"class.std::__cxx11::basic_string", ptr %8, i64 0, i32 2
  %79 = icmp eq ptr %77, %78
  br i1 %79, label %80, label %84

80:                                               ; preds = %74
  %81 = getelementptr inbounds %"class.std::__cxx11::basic_string", ptr %8, i64 0, i32 1
  %82 = load i64, ptr %81, align 8, !tbaa !29
  %83 = icmp ult i64 %82, 16
  call void @llvm.assume(i1 %83)
  call void @llvm.lifetime.end.p0(i64 32, ptr nonnull %8) #34
  br i1 %75, label %85, label %203

84:                                               ; preds = %74
  call void @_ZdlPv(ptr noundef %77) #35
  call void @llvm.lifetime.end.p0(i64 32, ptr nonnull %8) #34
  br i1 %75, label %85, label %203

85:                                               ; preds = %80, %72, %84
  %86 = phi { ptr, i32 } [ %73, %72 ], [ %76, %84 ], [ %76, %80 ]
  call void @__cxa_free_exception(ptr %63) #34
  br label %203

87:                                               ; preds = %58
  %88 = load ptr, ptr %0, align 8, !tbaa !20
  %89 = getelementptr inbounds ptr, ptr %88, i64 40
  %90 = load ptr, ptr %89, align 8
  %91 = invoke noundef i32 %90(ptr noundef nonnull align 8 dereferenceable(600) %0)
          to label %92 unwind label %107

92:                                               ; preds = %87
  %93 = icmp slt i32 %91, %54
  br i1 %93, label %94, label %124

94:                                               ; preds = %92
  %95 = call ptr @__cxa_allocate_exception(i64 128) #34
  call void @llvm.lifetime.start.p0(i64 32, ptr nonnull %9) #34
  %96 = load ptr, ptr %1, align 8, !tbaa !20
  %97 = getelementptr inbounds ptr, ptr %96, i64 8
  %98 = load ptr, ptr %97, align 8
  invoke void %98(ptr nonnull sret(%"class.std::__cxx11::basic_string") align 8 %9, ptr noundef nonnull align 8 dereferenceable(8) %1)
          to label %99 unwind label %109

99:                                               ; preds = %94
  %100 = load ptr, ptr %9, align 8, !tbaa !26
  %101 = load ptr, ptr %0, align 8, !tbaa !20
  %102 = getelementptr inbounds ptr, ptr %101, i64 40
  %103 = load ptr, ptr %102, align 8
  %104 = invoke noundef i32 %103(ptr noundef nonnull align 8 dereferenceable(600) %0)
          to label %105 unwind label %111

105:                                              ; preds = %99
  invoke void (ptr, ptr, ...) @_ZN13cRuntimeErrorC1EPKcz(ptr noundef nonnull align 8 dereferenceable(124) %95, ptr noundef nonnull @.str.246, i32 noundef %52, i32 noundef %54, ptr noundef %100, i32 noundef %104)
          to label %106 unwind label %111

106:                                              ; preds = %105
  invoke void @__cxa_throw(ptr nonnull %95, ptr nonnull @_ZTI13cRuntimeError, ptr nonnull @_ZN10cExceptionD2Ev) #37
          to label %247 unwind label %111

107:                                              ; preds = %87
  %108 = landingpad { ptr, i32 }
          cleanup
  br label %203

109:                                              ; preds = %94
  %110 = landingpad { ptr, i32 }
          cleanup
  call void @llvm.lifetime.end.p0(i64 32, ptr nonnull %9) #34
  br label %122

111:                                              ; preds = %106, %105, %99
  %112 = phi i1 [ false, %106 ], [ true, %105 ], [ true, %99 ]
  %113 = landingpad { ptr, i32 }
          cleanup
  %114 = load ptr, ptr %9, align 8, !tbaa !26
  %115 = getelementptr inbounds %"class.std::__cxx11::basic_string", ptr %9, i64 0, i32 2
  %116 = icmp eq ptr %114, %115
  br i1 %116, label %117, label %121

117:                                              ; preds = %111
  %118 = getelementptr inbounds %"class.std::__cxx11::basic_string", ptr %9, i64 0, i32 1
  %119 = load i64, ptr %118, align 8, !tbaa !29
  %120 = icmp ult i64 %119, 16
  call void @llvm.assume(i1 %120)
  call void @llvm.lifetime.end.p0(i64 32, ptr nonnull %9) #34
  br i1 %112, label %122, label %203

121:                                              ; preds = %111
  call void @_ZdlPv(ptr noundef %114) #35
  call void @llvm.lifetime.end.p0(i64 32, ptr nonnull %9) #34
  br i1 %112, label %122, label %203

122:                                              ; preds = %117, %109, %121
  %123 = phi { ptr, i32 } [ %110, %109 ], [ %113, %121 ], [ %113, %117 ]
  call void @__cxa_free_exception(ptr %95) #34
  br label %203

124:                                              ; preds = %92
  %125 = icmp sgt i32 %41, %52
  br i1 %125, label %189, label %126

126:                                              ; preds = %124
  %127 = icmp sgt i32 %52, 99
  br i1 %127, label %159, label %128

128:                                              ; preds = %126
  %129 = sext i32 %41 to i64
  %130 = add nsw i32 %52, 1
  %131 = sub i32 %52, %41
  %132 = zext i32 %131 to i64
  %133 = add nuw nsw i64 %132, 1
  %134 = icmp ult i32 %131, 31
  br i1 %134, label %157, label %135

135:                                              ; preds = %128
  %136 = and i64 %133, 8589934560
  %137 = add nsw i64 %136, %129
  %138 = insertelement <8 x i32> poison, i32 %41, i64 0
  %139 = shufflevector <8 x i32> %138, <8 x i32> poison, <8 x i32> zeroinitializer
  %140 = add <8 x i32> %139, <i32 0, i32 1, i32 2, i32 3, i32 4, i32 5, i32 6, i32 7>
  br label %141

141:                                              ; preds = %141, %135
  %142 = phi i64 [ 0, %135 ], [ %152, %141 ]
  %143 = phi <8 x i32> [ %140, %135 ], [ %153, %141 ]
  %144 = add <8 x i32> %143, <i32 8, i32 8, i32 8, i32 8, i32 8, i32 8, i32 8, i32 8>
  %145 = add <8 x i32> %143, <i32 16, i32 16, i32 16, i32 16, i32 16, i32 16, i32 16, i32 16>
  %146 = add <8 x i32> %143, <i32 24, i32 24, i32 24, i32 24, i32 24, i32 24, i32 24, i32 24>
  %147 = add i64 %142, %129
  %148 = getelementptr inbounds [100 x i32], ptr %5, i64 0, i64 %147
  store <8 x i32> %143, ptr %148, align 4, !tbaa !42
  %149 = getelementptr inbounds i32, ptr %148, i64 8
  store <8 x i32> %144, ptr %149, align 4, !tbaa !42
  %150 = getelementptr inbounds i32, ptr %148, i64 16
  store <8 x i32> %145, ptr %150, align 4, !tbaa !42
  %151 = getelementptr inbounds i32, ptr %148, i64 24
  store <8 x i32> %146, ptr %151, align 4, !tbaa !42
  %152 = add nuw i64 %142, 32
  %153 = add <8 x i32> %143, <i32 32, i32 32, i32 32, i32 32, i32 32, i32 32, i32 32, i32 32>
  %154 = icmp eq i64 %152, %136
  br i1 %154, label %155, label %141, !llvm.loop !43

155:                                              ; preds = %141
  %156 = icmp eq i64 %133, %136
  br i1 %156, label %189, label %157

157:                                              ; preds = %128, %155
  %158 = phi i64 [ %129, %128 ], [ %137, %155 ]
  br label %182

159:                                              ; preds = %126
  %160 = call ptr @__cxa_allocate_exception(i64 128) #34
  call void @llvm.lifetime.start.p0(i64 32, ptr nonnull %10) #34
  %161 = load ptr, ptr %1, align 8, !tbaa !20
  %162 = getelementptr inbounds ptr, ptr %161, i64 8
  %163 = load ptr, ptr %162, align 8
  invoke void %163(ptr nonnull sret(%"class.std::__cxx11::basic_string") align 8 %10, ptr noundef nonnull align 8 dereferenceable(8) %1)
          to label %164 unwind label %167

164:                                              ; preds = %159
  %165 = load ptr, ptr %10, align 8, !tbaa !26
  invoke void (ptr, ptr, ...) @_ZN13cRuntimeErrorC1EPKcz(ptr noundef nonnull align 8 dereferenceable(124) %160, ptr noundef nonnull @.str.247, i32 noundef %52, ptr noundef %165)
          to label %166 unwind label %169

166:                                              ; preds = %164
  invoke void @__cxa_throw(ptr nonnull %160, ptr nonnull @_ZTI13cRuntimeError, ptr nonnull @_ZN10cExceptionD2Ev) #37
          to label %247 unwind label %169

167:                                              ; preds = %159
  %168 = landingpad { ptr, i32 }
          cleanup
  call void @llvm.lifetime.end.p0(i64 32, ptr nonnull %10) #34
  br label %180

169:                                              ; preds = %166, %164
  %170 = phi i1 [ false, %166 ], [ true, %164 ]
  %171 = landingpad { ptr, i32 }
          cleanup
  %172 = load ptr, ptr %10, align 8, !tbaa !26
  %173 = getelementptr inbounds %"class.std::__cxx11::basic_string", ptr %10, i64 0, i32 2
  %174 = icmp eq ptr %172, %173
  br i1 %174, label %175, label %179

175:                                              ; preds = %169
  %176 = getelementptr inbounds %"class.std::__cxx11::basic_string", ptr %10, i64 0, i32 1
  %177 = load i64, ptr %176, align 8, !tbaa !29
  %178 = icmp ult i64 %177, 16
  call void @llvm.assume(i1 %178)
  call void @llvm.lifetime.end.p0(i64 32, ptr nonnull %10) #34
  br i1 %170, label %180, label %203

179:                                              ; preds = %169
  call void @_ZdlPv(ptr noundef %172) #35
  call void @llvm.lifetime.end.p0(i64 32, ptr nonnull %10) #34
  br i1 %170, label %180, label %203

180:                                              ; preds = %175, %167, %179
  %181 = phi { ptr, i32 } [ %168, %167 ], [ %171, %179 ], [ %171, %175 ]
  call void @__cxa_free_exception(ptr %160) #34
  br label %203

182:                                              ; preds = %157, %182
  %183 = phi i64 [ %186, %182 ], [ %158, %157 ]
  %184 = getelementptr inbounds [100 x i32], ptr %5, i64 0, i64 %183
  %185 = trunc i64 %183 to i32
  store i32 %185, ptr %184, align 4, !tbaa !42
  %186 = add nsw i64 %183, 1
  %187 = trunc i64 %186 to i32
  %188 = icmp eq i32 %130, %187
  br i1 %188, label %189, label %182, !llvm.loop !46

189:                                              ; preds = %182, %155, %124
  %190 = phi i32 [ %41, %124 ], [ %130, %155 ], [ %130, %182 ]
  %191 = shl i64 %51, 32
  %192 = ashr exact i64 %191, 32
  %193 = getelementptr inbounds [100 x i32], ptr %5, i64 0, i64 %192
  store i32 %54, ptr %193, align 4, !tbaa !42
  call void @llvm.lifetime.end.p0(i64 8, ptr nonnull %7) #34
  call void @llvm.lifetime.end.p0(i64 8, ptr nonnull %6) #34
  %194 = add nuw nsw i64 %39, 1
  %195 = load ptr, ptr %23, align 8, !tbaa !39
  %196 = load ptr, ptr %4, align 8, !tbaa !41
  %197 = ptrtoint ptr %195 to i64
  %198 = ptrtoint ptr %196 to i64
  %199 = sub i64 %197, %198
  %200 = shl i64 %199, 29
  %201 = ashr i64 %200, 32
  %202 = icmp slt i64 %194, %201
  br i1 %202, label %38, label %36

203:                                              ; preds = %175, %117, %80, %179, %180, %121, %122, %84, %85, %107
  %204 = phi { ptr, i32 } [ %86, %85 ], [ %76, %84 ], [ %123, %122 ], [ %113, %121 ], [ %181, %180 ], [ %171, %179 ], [ %108, %107 ], [ %76, %80 ], [ %113, %117 ], [ %171, %175 ]
  call void @llvm.lifetime.end.p0(i64 8, ptr nonnull %7) #34
  call void @llvm.lifetime.end.p0(i64 8, ptr nonnull %6) #34
  br label %231

205:                                              ; preds = %36
  %206 = zext i32 %190 to i64
  %207 = shl nuw nsw i64 %206, 2
  %208 = invoke noalias noundef nonnull ptr @_Znam(i64 noundef %207) #38
          to label %209 unwind label %213

209:                                              ; preds = %205
  call void @llvm.memcpy.p0.p0.i64(ptr nonnull align 4 %208, ptr nonnull align 16 %5, i64 %207, i1 false)
  %210 = trunc i32 %190 to i16
  %211 = getelementptr inbounds %class.cComponent, ptr %1, i64 0, i32 2
  store i16 %210, ptr %211, align 8, !tbaa !47
  %212 = getelementptr inbounds %class.cComponent, ptr %1, i64 0, i32 3
  store ptr %208, ptr %212, align 8, !tbaa !55
  br label %215

213:                                              ; preds = %205
  %214 = landingpad { ptr, i32 }
          cleanup
  br label %231

215:                                              ; preds = %29, %209, %36
  %216 = phi ptr [ %196, %209 ], [ %196, %36 ], [ %25, %29 ]
  call void @llvm.lifetime.end.p0(i64 400, ptr nonnull %5) #34
  br label %217

217:                                              ; preds = %22, %215
  %218 = phi ptr [ %24, %22 ], [ %216, %215 ]
  %219 = icmp eq ptr %218, null
  br i1 %219, label %221, label %220

220:                                              ; preds = %217
  call void @_ZdlPv(ptr noundef nonnull %218) #35
  br label %221

221:                                              ; preds = %220, %217
  call void @llvm.lifetime.end.p0(i64 24, ptr nonnull %4) #34
  %222 = load ptr, ptr %3, align 8, !tbaa !26
  %223 = getelementptr inbounds %"class.std::__cxx11::basic_string", ptr %3, i64 0, i32 2
  %224 = icmp eq ptr %222, %223
  br i1 %224, label %225, label %229

225:                                              ; preds = %221
  %226 = getelementptr inbounds %"class.std::__cxx11::basic_string", ptr %3, i64 0, i32 1
  %227 = load i64, ptr %226, align 8, !tbaa !29
  %228 = icmp ult i64 %227, 16
  call void @llvm.assume(i1 %228)
  br label %230

229:                                              ; preds = %221
  call void @_ZdlPv(ptr noundef %222) #35
  br label %230

230:                                              ; preds = %225, %229
  call void @llvm.lifetime.end.p0(i64 32, ptr nonnull %3) #34
  ret void

231:                                              ; preds = %70, %203, %213
  %232 = phi { ptr, i32 } [ %214, %213 ], [ %204, %203 ], [ %71, %70 ]
  call void @llvm.lifetime.end.p0(i64 400, ptr nonnull %5) #34
  %233 = load ptr, ptr %4, align 8, !tbaa !41
  %234 = icmp eq ptr %233, null
  br i1 %234, label %236, label %235

235:                                              ; preds = %231
  call void @_ZdlPv(ptr noundef nonnull %233) #35
  br label %236

236:                                              ; preds = %235, %231, %27
  %237 = phi { ptr, i32 } [ %28, %27 ], [ %232, %231 ], [ %232, %235 ]
  call void @llvm.lifetime.end.p0(i64 24, ptr nonnull %4) #34
  %238 = load ptr, ptr %3, align 8, !tbaa !26
  %239 = getelementptr inbounds %"class.std::__cxx11::basic_string", ptr %3, i64 0, i32 2
  %240 = icmp eq ptr %238, %239
  br i1 %240, label %241, label %245

241:                                              ; preds = %236
  %242 = getelementptr inbounds %"class.std::__cxx11::basic_string", ptr %3, i64 0, i32 1
  %243 = load i64, ptr %242, align 8, !tbaa !29
  %244 = icmp ult i64 %243, 16
  call void @llvm.assume(i1 %244)
  br label %246

245:                                              ; preds = %236
  call void @_ZdlPv(ptr noundef %238) #35
  br label %246

246:                                              ; preds = %245, %241
  call void @llvm.lifetime.end.p0(i64 32, ptr nonnull %3) #34
  resume { ptr, i32 } %237

247:                                              ; preds = %166, %106, %69
  unreachable
}

; Function Attrs: sspstrong uwtable
define dso_local noundef ptr @_ZN9EnvirBase20registerOutputVectorEPKcS1_(ptr nocapture noundef nonnull readonly align 8 dereferenceable(600) %0, ptr noundef %1, ptr noundef %2) unnamed_addr #0 align 2 {
  %4 = getelementptr inbounds %class.EnvirBase, ptr %0, i64 0, i32 30
  %5 = load ptr, ptr %4, align 8, !tbaa !56
  %6 = load ptr, ptr %5, align 8, !tbaa !20
  %7 = getelementptr inbounds ptr, ptr %6, i64 21
  %8 = load ptr, ptr %7, align 8
  %9 = tail call noundef ptr %8(ptr noundef nonnull align 8 dereferenceable(8) %5, ptr noundef %1, ptr noundef %2)
  ret ptr %9
}

; Function Attrs: sspstrong uwtable
define dso_local void @_ZN9EnvirBase22deregisterOutputVectorEPv(ptr nocapture noundef nonnull readonly align 8 dereferenceable(600) %0, ptr noundef %1) unnamed_addr #0 align 2 {
  %3 = getelementptr inbounds %class.EnvirBase, ptr %0, i64 0, i32 30
  %4 = load ptr, ptr %3, align 8, !tbaa !56
  %5 = load ptr, ptr %4, align 8, !tbaa !20
  %6 = getelementptr inbounds ptr, ptr %5, i64 22
  %7 = load ptr, ptr %6, align 8
  tail call void %7(ptr noundef nonnull align 8 dereferenceable(8) %4, ptr noundef %1)
  ret void
}

; Function Attrs: sspstrong uwtable
define dso_local void @_ZN9EnvirBase18setVectorAttributeEPvPKcS2_(ptr nocapture noundef nonnull readonly align 8 dereferenceable(600) %0, ptr noundef %1, ptr noundef %2, ptr noundef %3) unnamed_addr #0 align 2 {
  %5 = getelementptr inbounds %class.EnvirBase, ptr %0, i64 0, i32 30
  %6 = load ptr, ptr %5, align 8, !tbaa !56
  %7 = load ptr, ptr %6, align 8, !tbaa !20
  %8 = getelementptr inbounds ptr, ptr %7, i64 23
  %9 = load ptr, ptr %8, align 8
  tail call void %9(ptr noundef nonnull align 8 dereferenceable(8) %6, ptr noundef %1, ptr noundef %2, ptr noundef %3)
  ret void
}

; Function Attrs: sspstrong uwtable
define dso_local noundef zeroext i1 @_ZN9EnvirBase20recordInOutputVectorEPv7SimTimed(ptr nocapture noundef nonnull readonly align 8 dereferenceable(600) %0, ptr noundef %1, ptr nocapture noundef readonly %2, double noundef %3) unnamed_addr #0 align 2 {
  %5 = alloca %class.SimTime, align 8
  %6 = getelementptr inbounds %class.EnvirBase, ptr %0, i64 0, i32 30
  %7 = load ptr, ptr %6, align 8, !tbaa !56
  %8 = load i64, ptr %2, align 8, !tbaa !22
  store i64 %8, ptr %5, align 8, !tbaa !22
  %9 = load ptr, ptr %7, align 8, !tbaa !20
  %10 = getelementptr inbounds ptr, ptr %9, i64 24
  %11 = load ptr, ptr %10, align 8
  %12 = call noundef zeroext i1 %11(ptr noundef nonnull align 8 dereferenceable(8) %7, ptr noundef %1, ptr noundef nonnull %5, double noundef %3)
  ret i1 %12
}

; Function Attrs: sspstrong uwtable
define dso_local void @_ZN9EnvirBase12recordScalarEP10cComponentPKcdP14opp_string_map(ptr nocapture noundef nonnull readonly align 8 dereferenceable(600) %0, ptr noundef %1, ptr noundef %2, double noundef %3, ptr noundef %4) unnamed_addr #0 align 2 {
  %6 = getelementptr inbounds %class.EnvirBase, ptr %0, i64 0, i32 31
  %7 = load ptr, ptr %6, align 8, !tbaa !57
  %8 = load ptr, ptr %7, align 8, !tbaa !20
  %9 = getelementptr inbounds ptr, ptr %8, i64 21
  %10 = load ptr, ptr %9, align 8
  tail call void %10(ptr noundef nonnull align 8 dereferenceable(8) %7, ptr noundef %1, ptr noundef %2, double noundef %3, ptr noundef %4)
  ret void
}

; Function Attrs: sspstrong uwtable
define dso_local void @_ZN9EnvirBase15recordStatisticEP10cComponentPKcP10cStatisticP14opp_string_map(ptr nocapture noundef nonnull readonly align 8 dereferenceable(600) %0, ptr noundef %1, ptr noundef %2, ptr noundef %3, ptr noundef %4) unnamed_addr #0 align 2 {
  %6 = getelementptr inbounds %class.EnvirBase, ptr %0, i64 0, i32 31
  %7 = load ptr, ptr %6, align 8, !tbaa !57
  %8 = load ptr, ptr %7, align 8, !tbaa !20
  %9 = getelementptr inbounds ptr, ptr %8, i64 22
  %10 = load ptr, ptr %9, align 8
  tail call void %10(ptr noundef nonnull align 8 dereferenceable(8) %7, ptr noundef %1, ptr noundef %2, ptr noundef %3, ptr noundef %4)
  ret void
}

; Function Attrs: sspstrong uwtable
define dso_local noundef ptr @_ZN9EnvirBase20getStreamForSnapshotEv(ptr nocapture noundef nonnull readonly align 8 dereferenceable(600) %0) unnamed_addr #0 align 2 {
  %2 = getelementptr inbounds %class.EnvirBase, ptr %0, i64 0, i32 32
  %3 = load ptr, ptr %2, align 8, !tbaa !58
  %4 = load ptr, ptr %3, align 8, !tbaa !20
  %5 = getelementptr inbounds ptr, ptr %4, i64 21
  %6 = load ptr, ptr %5, align 8
  %7 = tail call noundef ptr %6(ptr noundef nonnull align 8 dereferenceable(8) %3)
  ret ptr %7
}

; Function Attrs: sspstrong uwtable
define dso_local void @_ZN9EnvirBase24releaseStreamForSnapshotEPSo(ptr nocapture noundef nonnull readonly align 8 dereferenceable(600) %0, ptr noundef %1) unnamed_addr #0 align 2 {
  %3 = getelementptr inbounds %class.EnvirBase, ptr %0, i64 0, i32 32
  %4 = load ptr, ptr %3, align 8, !tbaa !58
  %5 = load ptr, ptr %4, align 8, !tbaa !20
  %6 = getelementptr inbounds ptr, ptr %5, i64 22
  %7 = load ptr, ptr %6, align 8
  tail call void %7(ptr noundef nonnull align 8 dereferenceable(8) %4, ptr noundef %1)
  ret void
}

; Function Attrs: mustprogress nofree norecurse nosync nounwind sspstrong willreturn memory(read, inaccessiblemem: none) uwtable
define dso_local noundef i32 @_ZNK9EnvirBase11getArgCountEv(ptr nocapture noundef nonnull readonly align 8 dereferenceable(600) %0) unnamed_addr #5 align 2 {
  %2 = getelementptr inbounds %class.EnvirBase, ptr %0, i64 0, i32 2
  %3 = load ptr, ptr %2, align 8, !tbaa !59
  %4 = load i32, ptr %3, align 8, !tbaa !60
  ret i32 %4
}

; Function Attrs: mustprogress nofree norecurse nosync nounwind sspstrong willreturn memory(read, inaccessiblemem: none) uwtable
define dso_local noundef ptr @_ZNK9EnvirBase12getArgVectorEv(ptr nocapture noundef nonnull readonly align 8 dereferenceable(600) %0) unnamed_addr #5 align 2 {
  %2 = getelementptr inbounds %class.EnvirBase, ptr %0, i64 0, i32 2
  %3 = load ptr, ptr %2, align 8, !tbaa !59
  %4 = getelementptr inbounds %class.ArgList, ptr %3, i64 0, i32 1
  %5 = load ptr, ptr %4, align 8, !tbaa !79
  ret ptr %5
}

; Function Attrs: mustprogress nofree norecurse nosync nounwind sspstrong willreturn memory(none) uwtable
define dso_local noundef i32 @_ZNK9EnvirBase15getParsimProcIdEv(ptr nocapture nonnull readnone align 8 %0) unnamed_addr #2 align 2 {
  ret i32 0
}

; Function Attrs: mustprogress nofree norecurse nosync nounwind sspstrong willreturn memory(none) uwtable
define dso_local noundef i32 @_ZNK9EnvirBase22getParsimNumPartitionsEv(ptr nocapture nonnull readnone align 8 %0) unnamed_addr #2 align 2 {
  ret i32 0
}

; Function Attrs: mustprogress nofree norecurse nosync nounwind sspstrong willreturn memory(argmem: readwrite) uwtable
define dso_local noundef i64 @_ZN9EnvirBase15getUniqueNumberEv(ptr nocapture noundef nonnull align 8 dereferenceable(600) %0) unnamed_addr #6 align 2 {
  %2 = getelementptr inbounds %class.EnvirBase, ptr %0, i64 0, i32 33
  %3 = load i64, ptr %2, align 8, !tbaa !80
  %4 = add i64 %3, 1
  store i64 %4, ptr %2, align 8, !tbaa !80
  ret i64 %3
}

; Function Attrs: mustprogress nofree norecurse nosync nounwind sspstrong willreturn memory(none) uwtable
define dso_local noundef zeroext i1 @_ZN9EnvirBase4idleEv(ptr nocapture nonnull readnone align 8 %0) unnamed_addr #2 align 2 {
  ret i1 false
}

; Function Attrs: sspstrong uwtable
define dso_local noundef i32 @_ZN9EnvirBase3runEiPPcP14cConfiguration(ptr noundef nonnull align 8 dereferenceable(600) %0, i32 noundef %1, ptr noundef %2, ptr noundef %3) unnamed_addr #0 align 2 personality ptr @__gxx_personality_v0 {
  %5 = tail call noalias noundef nonnull dereferenceable(168) ptr @_Znwm(i64 noundef 168) #38
  invoke void @_ZN7ArgListC1Ev(ptr noundef nonnull align 8 dereferenceable(168) %5)
          to label %6 unwind label %11

6:                                                ; preds = %4
  %7 = getelementptr inbounds %class.EnvirBase, ptr %0, i64 0, i32 2
  store ptr %5, ptr %7, align 8, !tbaa !59
  tail call void @_ZN7ArgList5parseEiPPcPKc(ptr noundef nonnull align 8 dereferenceable(168) %5, i32 noundef %1, ptr noundef %2, ptr noundef nonnull @.str.90)
  %8 = icmp eq ptr %3, null
  br i1 %8, label %9, label %13

9:                                                ; preds = %6
  %10 = getelementptr inbounds %class.EnvirBase, ptr %0, i64 0, i32 1
  store ptr null, ptr %10, align 8, !tbaa !36
  br label %17

11:                                               ; preds = %4
  %12 = landingpad { ptr, i32 }
          cleanup
  tail call void @_ZdlPv(ptr noundef nonnull %5) #35
  br label %48

13:                                               ; preds = %6
  %14 = tail call ptr @__dynamic_cast(ptr nonnull %3, ptr nonnull @_ZTI14cConfiguration, ptr nonnull @_ZTI16cConfigurationEx, i64 0) #34
  %15 = getelementptr inbounds %class.EnvirBase, ptr %0, i64 0, i32 1
  store ptr %14, ptr %15, align 8, !tbaa !36
  %16 = icmp eq ptr %14, null
  br i1 %16, label %17, label %27

17:                                               ; preds = %9, %13
  %18 = tail call ptr @__cxa_allocate_exception(i64 128) #34
  %19 = load ptr, ptr %3, align 8, !tbaa !20
  %20 = getelementptr inbounds ptr, ptr %19, i64 5
  %21 = load ptr, ptr %20, align 8
  %22 = invoke noundef ptr %21(ptr noundef nonnull align 8 dereferenceable(8) %3)
          to label %23 unwind label %25

23:                                               ; preds = %17
  invoke void (ptr, ptr, ...) @_ZN13cRuntimeErrorC1EPKcz(ptr noundef nonnull align 8 dereferenceable(124) %18, ptr noundef nonnull @.str.91, ptr noundef %22)
          to label %24 unwind label %25

24:                                               ; preds = %23
  tail call void @__cxa_throw(ptr nonnull %18, ptr nonnull @_ZTI13cRuntimeError, ptr nonnull @_ZN10cExceptionD2Ev) #37
  unreachable

25:                                               ; preds = %23, %17
  %26 = landingpad { ptr, i32 }
          cleanup
  tail call void @__cxa_free_exception(ptr %18) #34
  br label %48

27:                                               ; preds = %13
  %28 = load ptr, ptr %0, align 8, !tbaa !20
  %29 = getelementptr inbounds ptr, ptr %28, i64 58
  %30 = load ptr, ptr %29, align 8
  %31 = tail call noundef zeroext i1 %30(ptr noundef nonnull align 8 dereferenceable(600) %0)
  br i1 %31, label %32, label %45

32:                                               ; preds = %27
  %33 = load ptr, ptr %0, align 8, !tbaa !20
  %34 = getelementptr inbounds ptr, ptr %33, i64 59
  %35 = load ptr, ptr %34, align 8
  %36 = tail call noundef zeroext i1 %35(ptr noundef nonnull align 8 dereferenceable(600) %0)
  br i1 %36, label %37, label %41

37:                                               ; preds = %32
  %38 = load ptr, ptr %0, align 8, !tbaa !20
  %39 = getelementptr inbounds ptr, ptr %38, i64 60
  %40 = load ptr, ptr %39, align 8
  tail call void %40(ptr noundef nonnull align 8 dereferenceable(600) %0)
  br label %41

41:                                               ; preds = %37, %32
  %42 = load ptr, ptr %0, align 8, !tbaa !20
  %43 = getelementptr inbounds ptr, ptr %42, i64 61
  %44 = load ptr, ptr %43, align 8
  tail call void %44(ptr noundef nonnull align 8 dereferenceable(600) %0)
  br label %45

45:                                               ; preds = %41, %27
  %46 = getelementptr inbounds %class.EnvirBase, ptr %0, i64 0, i32 4
  %47 = load i32, ptr %46, align 8, !tbaa !81
  ret i32 %47

48:                                               ; preds = %25, %11
  %49 = phi { ptr, i32 } [ %26, %25 ], [ %12, %11 ]
  resume { ptr, i32 } %49
}

; Function Attrs: sspstrong uwtable
define dso_local noundef zeroext i1 @_ZN9EnvirBase18simulationRequiredEv(ptr noundef nonnull align 8 dereferenceable(600) %0) unnamed_addr #0 align 2 personality ptr @__gxx_personality_v0 {
  %2 = alloca %"class.std::__cxx11::basic_string", align 8
  %3 = alloca %"class.std::vector.19", align 8
  %4 = alloca %"class.std::vector.19", align 8
  %5 = getelementptr inbounds %class.EnvirBase, ptr %0, i64 0, i32 2
  %6 = load ptr, ptr %5, align 8, !tbaa !59
  %7 = tail call noundef zeroext i1 @_ZNK7ArgList11optionGivenEc(ptr noundef nonnull align 8 dereferenceable(168) %6, i8 noundef signext 104)
  %8 = load ptr, ptr %5, align 8, !tbaa !59
  br i1 %7, label %9, label %14

9:                                                ; preds = %1
  %10 = tail call noundef ptr @_ZNK7ArgList11optionValueEci(ptr noundef nonnull align 8 dereferenceable(168) %8, i8 noundef signext 104, i32 noundef 0)
  %11 = icmp eq ptr %10, null
  br i1 %11, label %12, label %13

12:                                               ; preds = %9
  tail call void @_ZN9EnvirBase9printHelpEv(ptr nonnull align 8 poison)
  br label %228

13:                                               ; preds = %9
  tail call void @_ZN9EnvirBase17dumpComponentListEPKc(ptr noundef nonnull align 8 dereferenceable(600) %0, ptr noundef nonnull %10)
  br label %228

14:                                               ; preds = %1
  %15 = tail call noundef zeroext i1 @_ZNK7ArgList11optionGivenEc(ptr noundef nonnull align 8 dereferenceable(168) %8, i8 noundef signext 118)
  br i1 %15, label %16, label %60

16:                                               ; preds = %14
  %17 = load ptr, ptr @_ZN11cSimulation5evPtrE, align 8, !tbaa !32
  %18 = getelementptr inbounds %class.cEnvir, ptr %17, i64 0, i32 4
  %19 = tail call noundef nonnull align 8 dereferenceable(8) ptr @_ZSt16__ostream_insertIcSt11char_traitsIcEERSt13basic_ostreamIT_T0_ES6_PKS3_l(ptr noundef nonnull align 8 dereferenceable(8) %18, ptr noundef nonnull @.str.95, i64 noundef 1)
  %20 = load ptr, ptr @_ZN11cSimulation5evPtrE, align 8, !tbaa !32
  %21 = getelementptr inbounds %class.cEnvir, ptr %20, i64 0, i32 4
  %22 = tail call noundef nonnull align 8 dereferenceable(8) ptr @_ZSt16__ostream_insertIcSt11char_traitsIcEERSt13basic_ostreamIT_T0_ES6_PKS3_l(ptr noundef nonnull align 8 dereferenceable(8) %21, ptr noundef nonnull @.str.96, i64 noundef 31)
  %23 = tail call noundef nonnull align 8 dereferenceable(8) ptr @_ZSt16__ostream_insertIcSt11char_traitsIcEERSt13basic_ostreamIT_T0_ES6_PKS3_l(ptr noundef nonnull align 8 dereferenceable(8) %21, ptr noundef nonnull @.str.95, i64 noundef 1)
  %24 = load ptr, ptr @_ZN11cSimulation5evPtrE, align 8, !tbaa !32
  %25 = getelementptr inbounds %class.cEnvir, ptr %24, i64 0, i32 4
  %26 = tail call noundef nonnull align 8 dereferenceable(8) ptr @_ZSt16__ostream_insertIcSt11char_traitsIcEERSt13basic_ostreamIT_T0_ES6_PKS3_l(ptr noundef nonnull align 8 dereferenceable(8) %25, ptr noundef nonnull @.str.97, i64 noundef 10)
  %27 = tail call noundef nonnull align 8 dereferenceable(8) ptr @_ZSt16__ostream_insertIcSt11char_traitsIcEERSt13basic_ostreamIT_T0_ES6_PKS3_l(ptr noundef nonnull align 8 dereferenceable(8) %25, ptr noundef nonnull @.str.105, i64 noundef 16)
  %28 = tail call noundef nonnull align 8 dereferenceable(8) ptr @_ZSt16__ostream_insertIcSt11char_traitsIcEERSt13basic_ostreamIT_T0_ES6_PKS3_l(ptr noundef nonnull align 8 dereferenceable(8) %25, ptr noundef nonnull @.str.95, i64 noundef 1)
  %29 = load ptr, ptr @_ZN11cSimulation5evPtrE, align 8, !tbaa !32
  %30 = getelementptr inbounds %class.cEnvir, ptr %29, i64 0, i32 4
  %31 = tail call noundef nonnull align 8 dereferenceable(8) ptr @_ZSt16__ostream_insertIcSt11char_traitsIcEERSt13basic_ostreamIT_T0_ES6_PKS3_l(ptr noundef nonnull align 8 dereferenceable(8) %30, ptr noundef nonnull @.str.98, i64 noundef 9)
  call void @llvm.lifetime.start.p0(i64 32, ptr nonnull %2) #34
  %32 = tail call noundef ptr @_Z12opp_typenameRKSt9type_info(ptr noundef nonnull align 8 dereferenceable(16) @_ZTI7SimTime)
  call void (ptr, ptr, ...) @_Z11opp_stringfB5cxx11PKcz(ptr nonnull sret(%"class.std::__cxx11::basic_string") align 8 %2, ptr noundef nonnull @.str.106, i64 noundef 64, ptr noundef %32, ptr noundef nonnull @.str.99)
  %33 = load ptr, ptr %2, align 8, !tbaa !26
  %34 = getelementptr inbounds %"class.std::__cxx11::basic_string", ptr %2, i64 0, i32 1
  %35 = load i64, ptr %34, align 8, !tbaa !29
  %36 = invoke noundef nonnull align 8 dereferenceable(8) ptr @_ZSt16__ostream_insertIcSt11char_traitsIcEERSt13basic_ostreamIT_T0_ES6_PKS3_l(ptr noundef nonnull align 8 dereferenceable(8) %30, ptr noundef %33, i64 noundef %35)
          to label %37 unwind label %50

37:                                               ; preds = %16
  %38 = load ptr, ptr %2, align 8, !tbaa !26
  %39 = getelementptr inbounds %"class.std::__cxx11::basic_string", ptr %2, i64 0, i32 2
  %40 = icmp eq ptr %38, %39
  br i1 %40, label %41, label %44

41:                                               ; preds = %37
  %42 = load i64, ptr %34, align 8, !tbaa !29
  %43 = icmp ult i64 %42, 16
  call void @llvm.assume(i1 %43)
  br label %45

44:                                               ; preds = %37
  call void @_ZdlPv(ptr noundef %38) #35
  br label %45

45:                                               ; preds = %41, %44
  call void @llvm.lifetime.end.p0(i64 32, ptr nonnull %2) #34
  %46 = load ptr, ptr @_ZN11cSimulation5evPtrE, align 8, !tbaa !32
  %47 = getelementptr inbounds %class.cEnvir, ptr %46, i64 0, i32 4
  %48 = call noundef nonnull align 8 dereferenceable(8) ptr @_ZSt16__ostream_insertIcSt11char_traitsIcEERSt13basic_ostreamIT_T0_ES6_PKS3_l(ptr noundef nonnull align 8 dereferenceable(8) %47, ptr noundef nonnull @.str.107, i64 noundef 16)
  %49 = call noundef nonnull align 8 dereferenceable(8) ptr @_ZSt16__ostream_insertIcSt11char_traitsIcEERSt13basic_ostreamIT_T0_ES6_PKS3_l(ptr noundef nonnull align 8 dereferenceable(8) %47, ptr noundef nonnull @.str.95, i64 noundef 1)
  br label %228

50:                                               ; preds = %16
  %51 = landingpad { ptr, i32 }
          cleanup
  %52 = load ptr, ptr %2, align 8, !tbaa !26
  %53 = getelementptr inbounds %"class.std::__cxx11::basic_string", ptr %2, i64 0, i32 2
  %54 = icmp eq ptr %52, %53
  br i1 %54, label %55, label %58

55:                                               ; preds = %50
  %56 = load i64, ptr %34, align 8, !tbaa !29
  %57 = icmp ult i64 %56, 16
  call void @llvm.assume(i1 %57)
  br label %59

58:                                               ; preds = %50
  call void @_ZdlPv(ptr noundef %52) #35
  br label %59

59:                                               ; preds = %58, %55
  call void @llvm.lifetime.end.p0(i64 32, ptr nonnull %2) #34
  br label %230

60:                                               ; preds = %14
  %61 = load ptr, ptr %0, align 8, !tbaa !20
  %62 = getelementptr inbounds ptr, ptr %61, i64 32
  %63 = load ptr, ptr %62, align 8
  %64 = tail call noundef ptr %63(ptr noundef nonnull align 8 dereferenceable(600) %0)
  %65 = load ptr, ptr %5, align 8, !tbaa !59
  %66 = tail call noundef zeroext i1 @_ZNK7ArgList11optionGivenEc(ptr noundef nonnull align 8 dereferenceable(168) %65, i8 noundef signext 97)
  br i1 %66, label %67, label %137

67:                                               ; preds = %60
  %68 = load ptr, ptr @_ZN11cSimulation5evPtrE, align 8, !tbaa !32
  %69 = load ptr, ptr %68, align 8, !tbaa !20
  %70 = getelementptr inbounds ptr, ptr %69, i64 36
  %71 = load ptr, ptr %70, align 8
  %72 = tail call noundef i32 (ptr, ptr, ...) %71(ptr noundef nonnull align 8 dereferenceable(288) %68, ptr noundef nonnull @.str.95)
  call void @llvm.lifetime.start.p0(i64 24, ptr nonnull %3) #34
  %73 = load ptr, ptr %64, align 8, !tbaa !20
  %74 = getelementptr inbounds ptr, ptr %73, i64 43
  %75 = load ptr, ptr %74, align 8
  call void %75(ptr nonnull sret(%"class.std::vector.19") align 8 %3, ptr noundef nonnull align 8 dereferenceable(8) %64)
  %76 = getelementptr inbounds %"struct.std::_Vector_base<std::__cxx11::basic_string<char>, std::allocator<std::__cxx11::basic_string<char> > >::_Vector_impl_data", ptr %3, i64 0, i32 1
  %77 = load ptr, ptr %76, align 8, !tbaa !82
  %78 = load ptr, ptr %3, align 8, !tbaa !83
  %79 = ptrtoint ptr %77 to i64
  %80 = ptrtoint ptr %78 to i64
  %81 = sub i64 %79, %80
  %82 = lshr exact i64 %81, 5
  %83 = trunc i64 %82 to i32
  %84 = icmp sgt i32 %83, 0
  br i1 %84, label %111, label %85

85:                                               ; preds = %126, %67
  %86 = phi ptr [ %77, %67 ], [ %128, %126 ]
  %87 = phi ptr [ %78, %67 ], [ %129, %126 ]
  %88 = icmp eq ptr %87, %86
  br i1 %88, label %104, label %89

89:                                               ; preds = %85, %99
  %90 = phi ptr [ %100, %99 ], [ %87, %85 ]
  %91 = load ptr, ptr %90, align 8, !tbaa !26
  %92 = getelementptr inbounds %"class.std::__cxx11::basic_string", ptr %90, i64 0, i32 2
  %93 = icmp eq ptr %91, %92
  br i1 %93, label %94, label %98

94:                                               ; preds = %89
  %95 = getelementptr inbounds %"class.std::__cxx11::basic_string", ptr %90, i64 0, i32 1
  %96 = load i64, ptr %95, align 8, !tbaa !29
  %97 = icmp ult i64 %96, 16
  call void @llvm.assume(i1 %97)
  br label %99

98:                                               ; preds = %89
  call void @_ZdlPv(ptr noundef %91) #35
  br label %99

99:                                               ; preds = %98, %94
  %100 = getelementptr inbounds %"class.std::__cxx11::basic_string", ptr %90, i64 1
  %101 = icmp eq ptr %100, %86
  br i1 %101, label %102, label %89

102:                                              ; preds = %99
  %103 = load ptr, ptr %3, align 8, !tbaa !83
  br label %104

104:                                              ; preds = %102, %85
  %105 = phi ptr [ %103, %102 ], [ %86, %85 ]
  %106 = icmp eq ptr %105, null
  br i1 %106, label %108, label %107

107:                                              ; preds = %104
  call void @_ZdlPv(ptr noundef nonnull %105) #35
  br label %108

108:                                              ; preds = %104, %107
  call void @llvm.lifetime.end.p0(i64 24, ptr nonnull %3) #34
  br label %228

109:                                              ; preds = %121, %111
  %110 = landingpad { ptr, i32 }
          cleanup
  invoke void @_ZNSt6vectorINSt7__cxx1112basic_stringIcSt11char_traitsIcESaIcEEESaIS5_EED2Ev(ptr noundef nonnull align 8 dereferenceable(24) %3)
          to label %136 unwind label %232

111:                                              ; preds = %67, %126
  %112 = phi i64 [ %127, %126 ], [ 0, %67 ]
  %113 = phi ptr [ %129, %126 ], [ %78, %67 ]
  %114 = load ptr, ptr @_ZN11cSimulation5evPtrE, align 8, !tbaa !32
  %115 = getelementptr inbounds %"class.std::__cxx11::basic_string", ptr %113, i64 %112
  %116 = load ptr, ptr %115, align 8, !tbaa !26
  %117 = load ptr, ptr %64, align 8, !tbaa !20
  %118 = getelementptr inbounds ptr, ptr %117, i64 47
  %119 = load ptr, ptr %118, align 8
  %120 = invoke noundef i32 %119(ptr noundef nonnull align 8 dereferenceable(8) %64, ptr noundef %116)
          to label %121 unwind label %109

121:                                              ; preds = %111
  %122 = load ptr, ptr %114, align 8, !tbaa !20
  %123 = getelementptr inbounds ptr, ptr %122, i64 36
  %124 = load ptr, ptr %123, align 8
  %125 = invoke noundef i32 (ptr, ptr, ...) %124(ptr noundef nonnull align 8 dereferenceable(288) %114, ptr noundef nonnull @.str.100, ptr noundef %116, i32 noundef %120)
          to label %126 unwind label %109

126:                                              ; preds = %121
  %127 = add nuw nsw i64 %112, 1
  %128 = load ptr, ptr %76, align 8, !tbaa !82
  %129 = load ptr, ptr %3, align 8, !tbaa !83
  %130 = ptrtoint ptr %128 to i64
  %131 = ptrtoint ptr %129 to i64
  %132 = sub i64 %130, %131
  %133 = shl i64 %132, 27
  %134 = ashr i64 %133, 32
  %135 = icmp slt i64 %127, %134
  br i1 %135, label %111, label %85

136:                                              ; preds = %109
  call void @llvm.lifetime.end.p0(i64 24, ptr nonnull %3) #34
  br label %230

137:                                              ; preds = %60
  %138 = load ptr, ptr %5, align 8, !tbaa !59
  %139 = tail call noundef ptr @_ZNK7ArgList11optionValueEci(ptr noundef nonnull align 8 dereferenceable(168) %138, i8 noundef signext 120, i32 noundef 0)
  %140 = icmp eq ptr %139, null
  br i1 %140, label %228, label %141

141:                                              ; preds = %137
  %142 = load ptr, ptr %5, align 8, !tbaa !59
  %143 = tail call noundef zeroext i1 @_ZNK7ArgList11optionGivenEc(ptr noundef nonnull align 8 dereferenceable(168) %142, i8 noundef signext 103)
  %144 = load ptr, ptr %5, align 8, !tbaa !59
  %145 = tail call noundef zeroext i1 @_ZNK7ArgList11optionGivenEc(ptr noundef nonnull align 8 dereferenceable(168) %144, i8 noundef signext 71)
  %146 = load ptr, ptr @_ZN11cSimulation5evPtrE, align 8, !tbaa !32
  %147 = load ptr, ptr %146, align 8, !tbaa !20
  %148 = getelementptr inbounds ptr, ptr %147, i64 36
  %149 = load ptr, ptr %148, align 8
  %150 = tail call noundef i32 (ptr, ptr, ...) %149(ptr noundef nonnull align 8 dereferenceable(288) %146, ptr noundef nonnull @.str.95)
  %151 = load ptr, ptr @_ZN11cSimulation5evPtrE, align 8, !tbaa !32
  %152 = load ptr, ptr %151, align 8, !tbaa !20
  %153 = getelementptr inbounds ptr, ptr %152, i64 36
  %154 = load ptr, ptr %153, align 8
  %155 = tail call noundef i32 (ptr, ptr, ...) %154(ptr noundef nonnull align 8 dereferenceable(288) %151, ptr noundef nonnull @.str.101, ptr noundef nonnull %139)
  %156 = load ptr, ptr @_ZN11cSimulation5evPtrE, align 8, !tbaa !32
  %157 = load ptr, ptr %64, align 8, !tbaa !20
  %158 = getelementptr inbounds ptr, ptr %157, i64 47
  %159 = load ptr, ptr %158, align 8
  %160 = tail call noundef i32 %159(ptr noundef nonnull align 8 dereferenceable(8) %64, ptr noundef nonnull %139)
  %161 = load ptr, ptr %156, align 8, !tbaa !20
  %162 = getelementptr inbounds ptr, ptr %161, i64 36
  %163 = load ptr, ptr %162, align 8
  %164 = tail call noundef i32 (ptr, ptr, ...) %163(ptr noundef nonnull align 8 dereferenceable(288) %156, ptr noundef nonnull @.str.102, i32 noundef %160)
  %165 = or i1 %143, %145
  br i1 %165, label %166, label %228

166:                                              ; preds = %141
  call void @llvm.lifetime.start.p0(i64 24, ptr nonnull %4) #34
  %167 = load ptr, ptr %64, align 8, !tbaa !20
  %168 = getelementptr inbounds ptr, ptr %167, i64 48
  %169 = load ptr, ptr %168, align 8
  call void %169(ptr nonnull sret(%"class.std::vector.19") align 8 %4, ptr noundef nonnull align 8 dereferenceable(8) %64, ptr noundef nonnull %139, i1 noundef zeroext %145)
  %170 = select i1 %145, ptr @.str.103, ptr @.str.104
  %171 = getelementptr inbounds %"struct.std::_Vector_base<std::__cxx11::basic_string<char>, std::allocator<std::__cxx11::basic_string<char> > >::_Vector_impl_data", ptr %4, i64 0, i32 1
  %172 = load ptr, ptr %171, align 8, !tbaa !82
  %173 = load ptr, ptr %4, align 8, !tbaa !83
  %174 = ptrtoint ptr %172 to i64
  %175 = ptrtoint ptr %173 to i64
  %176 = sub i64 %174, %175
  %177 = lshr exact i64 %176, 5
  %178 = trunc i64 %177 to i32
  %179 = icmp sgt i32 %178, 0
  br i1 %179, label %206, label %180

180:                                              ; preds = %217, %166
  %181 = phi ptr [ %172, %166 ], [ %219, %217 ]
  %182 = phi ptr [ %173, %166 ], [ %220, %217 ]
  %183 = icmp eq ptr %182, %181
  br i1 %183, label %199, label %184

184:                                              ; preds = %180, %194
  %185 = phi ptr [ %195, %194 ], [ %182, %180 ]
  %186 = load ptr, ptr %185, align 8, !tbaa !26
  %187 = getelementptr inbounds %"class.std::__cxx11::basic_string", ptr %185, i64 0, i32 2
  %188 = icmp eq ptr %186, %187
  br i1 %188, label %189, label %193

189:                                              ; preds = %184
  %190 = getelementptr inbounds %"class.std::__cxx11::basic_string", ptr %185, i64 0, i32 1
  %191 = load i64, ptr %190, align 8, !tbaa !29
  %192 = icmp ult i64 %191, 16
  call void @llvm.assume(i1 %192)
  br label %194

193:                                              ; preds = %184
  call void @_ZdlPv(ptr noundef %186) #35
  br label %194

194:                                              ; preds = %193, %189
  %195 = getelementptr inbounds %"class.std::__cxx11::basic_string", ptr %185, i64 1
  %196 = icmp eq ptr %195, %181
  br i1 %196, label %197, label %184

197:                                              ; preds = %194
  %198 = load ptr, ptr %4, align 8, !tbaa !83
  br label %199

199:                                              ; preds = %197, %180
  %200 = phi ptr [ %198, %197 ], [ %181, %180 ]
  %201 = icmp eq ptr %200, null
  br i1 %201, label %203, label %202

202:                                              ; preds = %199
  call void @_ZdlPv(ptr noundef nonnull %200) #35
  br label %203

203:                                              ; preds = %199, %202
  call void @llvm.lifetime.end.p0(i64 24, ptr nonnull %4) #34
  br label %228

204:                                              ; preds = %206
  %205 = landingpad { ptr, i32 }
          cleanup
  invoke void @_ZNSt6vectorINSt7__cxx1112basic_stringIcSt11char_traitsIcESaIcEEESaIS5_EED2Ev(ptr noundef nonnull align 8 dereferenceable(24) %4)
          to label %227 unwind label %232

206:                                              ; preds = %166, %217
  %207 = phi i64 [ %218, %217 ], [ 0, %166 ]
  %208 = phi ptr [ %220, %217 ], [ %173, %166 ]
  %209 = load ptr, ptr @_ZN11cSimulation5evPtrE, align 8, !tbaa !32
  %210 = getelementptr inbounds %"class.std::__cxx11::basic_string", ptr %208, i64 %207
  %211 = load ptr, ptr %210, align 8, !tbaa !26
  %212 = load ptr, ptr %209, align 8, !tbaa !20
  %213 = getelementptr inbounds ptr, ptr %212, i64 36
  %214 = load ptr, ptr %213, align 8
  %215 = trunc i64 %207 to i32
  %216 = invoke noundef i32 (ptr, ptr, ...) %214(ptr noundef nonnull align 8 dereferenceable(288) %209, ptr noundef nonnull %170, i32 noundef %215, ptr noundef %211)
          to label %217 unwind label %204

217:                                              ; preds = %206
  %218 = add nuw nsw i64 %207, 1
  %219 = load ptr, ptr %171, align 8, !tbaa !82
  %220 = load ptr, ptr %4, align 8, !tbaa !83
  %221 = ptrtoint ptr %219 to i64
  %222 = ptrtoint ptr %220 to i64
  %223 = sub i64 %221, %222
  %224 = shl i64 %223, 27
  %225 = ashr i64 %224, 32
  %226 = icmp slt i64 %218, %225
  br i1 %226, label %206, label %180

227:                                              ; preds = %204
  call void @llvm.lifetime.end.p0(i64 24, ptr nonnull %4) #34
  br label %230

228:                                              ; preds = %108, %137, %203, %141, %12, %13, %45
  %229 = phi i1 [ false, %45 ], [ false, %13 ], [ false, %12 ], [ false, %108 ], [ true, %137 ], [ false, %203 ], [ false, %141 ]
  ret i1 %229

230:                                              ; preds = %136, %227, %59
  %231 = phi { ptr, i32 } [ %51, %59 ], [ %110, %136 ], [ %205, %227 ]
  resume { ptr, i32 } %231

232:                                              ; preds = %204, %109
  %233 = landingpad { ptr, i32 }
          catch ptr null
  %234 = extractvalue { ptr, i32 } %233, 0
  call void @__clang_call_terminate(ptr %234) #33
  unreachable
}

; Function Attrs: sspstrong uwtable
define dso_local noundef zeroext i1 @_ZN9EnvirBase5setupEv(ptr noundef nonnull align 8 dereferenceable(600) %0) unnamed_addr #0 align 2 personality ptr @__gxx_personality_v0 {
  %2 = alloca i64, align 8
  %3 = alloca i64, align 8
  %4 = alloca %"class.std::__cxx11::basic_string", align 8
  %5 = alloca %"class.std::__cxx11::basic_string", align 8
  %6 = alloca %class.StringTokenizer, align 8
  %7 = alloca %"class.std::set", align 8
  %8 = alloca %"class.std::__cxx11::basic_string", align 8
  %9 = alloca %"class.std::__cxx11::basic_string", align 8
  invoke void @_Z14setPosixLocalev()
          to label %10 unwind label %25

10:                                               ; preds = %1
  %11 = load ptr, ptr %0, align 8, !tbaa !20
  %12 = getelementptr inbounds ptr, ptr %11, i64 65
  %13 = load ptr, ptr %12, align 8
  invoke void %13(ptr noundef nonnull align 8 dereferenceable(600) %0)
          to label %14 unwind label %25

14:                                               ; preds = %10
  %15 = getelementptr inbounds %class.EnvirBase, ptr %0, i64 0, i32 5
  %16 = load i64, ptr %15, align 8, !tbaa !84
  %17 = icmp ult i64 %16, 135169
  br i1 %17, label %18, label %27

18:                                               ; preds = %14
  %19 = load ptr, ptr @_ZN11cSimulation5evPtrE, align 8, !tbaa !32
  %20 = load ptr, ptr %19, align 8, !tbaa !20
  %21 = getelementptr inbounds ptr, ptr %20, i64 36
  %22 = load ptr, ptr %21, align 8
  %23 = invoke noundef i32 (ptr, ptr, ...) %22(ptr noundef nonnull align 8 dereferenceable(288) %19, ptr noundef nonnull @.str.108, i64 noundef %16, i32 noundef 131072)
          to label %24 unwind label %25

24:                                               ; preds = %18
  store i64 135168, ptr %15, align 8, !tbaa !84
  br label %27

25:                                               ; preds = %30, %27, %18, %10, %1
  %26 = landingpad { ptr, i32 }
          catch ptr @_ZTISt9exception
  br label %386

27:                                               ; preds = %24, %14
  %28 = phi i64 [ 135168, %24 ], [ %16, %14 ]
  %29 = trunc i64 %28 to i32
  invoke void @_ZN10cCoroutine4initEjj(i32 noundef %29, i32 noundef 131072)
          to label %30 unwind label %25

30:                                               ; preds = %27
  %31 = invoke noalias noundef nonnull dereferenceable(56) ptr @_Znwm(i64 noundef 56) #38
          to label %32 unwind label %25

32:                                               ; preds = %30
  invoke void @_ZN12cXMLDocCacheC1Ev(ptr noundef nonnull align 8 dereferenceable(56) %31)
          to label %33 unwind label %49

33:                                               ; preds = %32
  %34 = getelementptr inbounds %class.EnvirBase, ptr %0, i64 0, i32 3
  store ptr %31, ptr %34, align 8, !tbaa !31
  %35 = getelementptr inbounds %class.EnvirBase, ptr %0, i64 0, i32 15
  %36 = load ptr, ptr %35, align 8, !tbaa !85
  %37 = icmp eq ptr %36, null
  %38 = select i1 %37, ptr @.str.47, ptr %36
  %39 = invoke noundef ptr @_ZN13cClassFactory9createOneEPKc(ptr noundef nonnull %38)
          to label %40 unwind label %51

40:                                               ; preds = %33
  %41 = getelementptr inbounds %class.EnvirBase, ptr %0, i64 0, i32 30
  store ptr %39, ptr %41, align 8, !tbaa !56
  %42 = icmp eq ptr %39, null
  br i1 %42, label %43, label %55

43:                                               ; preds = %40
  %44 = tail call ptr @__cxa_allocate_exception(i64 128) #34
  %45 = load ptr, ptr %35, align 8, !tbaa !85
  %46 = icmp eq ptr %45, null
  %47 = select i1 %46, ptr @.str.47, ptr %45
  invoke void (ptr, ptr, ...) @_ZN13cRuntimeErrorC1EPKcz(ptr noundef nonnull align 8 dereferenceable(124) %44, ptr noundef nonnull @.str.109, ptr noundef nonnull %47)
          to label %48 unwind label %53

48:                                               ; preds = %43
  invoke void @__cxa_throw(ptr nonnull %44, ptr nonnull @_ZTI13cRuntimeError, ptr nonnull @_ZN10cExceptionD2Ev) #37
          to label %407 unwind label %51

49:                                               ; preds = %32
  %50 = landingpad { ptr, i32 }
          cleanup
          catch ptr @_ZTISt9exception
  tail call void @_ZdlPv(ptr noundef nonnull %31) #35
  br label %386

51:                                               ; preds = %33, %48
  %52 = landingpad { ptr, i32 }
          cleanup
          catch ptr @_ZTISt9exception
  br label %386

53:                                               ; preds = %43
  %54 = landingpad { ptr, i32 }
          cleanup
          catch ptr @_ZTISt9exception
  tail call void @__cxa_free_exception(ptr %44) #34
  br label %386

55:                                               ; preds = %40
  %56 = getelementptr inbounds %class.EnvirBase, ptr %0, i64 0, i32 16
  %57 = load ptr, ptr %56, align 8, !tbaa !85
  %58 = icmp eq ptr %57, null
  %59 = select i1 %58, ptr @.str.47, ptr %57
  %60 = invoke noundef ptr @_ZN13cClassFactory9createOneEPKc(ptr noundef nonnull %59)
          to label %61 unwind label %70

61:                                               ; preds = %55
  %62 = getelementptr inbounds %class.EnvirBase, ptr %0, i64 0, i32 31
  store ptr %60, ptr %62, align 8, !tbaa !57
  %63 = icmp eq ptr %60, null
  br i1 %63, label %64, label %74

64:                                               ; preds = %61
  %65 = tail call ptr @__cxa_allocate_exception(i64 128) #34
  %66 = load ptr, ptr %56, align 8, !tbaa !85
  %67 = icmp eq ptr %66, null
  %68 = select i1 %67, ptr @.str.47, ptr %66
  invoke void (ptr, ptr, ...) @_ZN13cRuntimeErrorC1EPKcz(ptr noundef nonnull align 8 dereferenceable(124) %65, ptr noundef nonnull @.str.110, ptr noundef nonnull %68)
          to label %69 unwind label %72

69:                                               ; preds = %64
  invoke void @__cxa_throw(ptr nonnull %65, ptr nonnull @_ZTI13cRuntimeError, ptr nonnull @_ZN10cExceptionD2Ev) #37
          to label %407 unwind label %70

70:                                               ; preds = %55, %69
  %71 = landingpad { ptr, i32 }
          cleanup
          catch ptr @_ZTISt9exception
  br label %386

72:                                               ; preds = %64
  %73 = landingpad { ptr, i32 }
          cleanup
          catch ptr @_ZTISt9exception
  tail call void @__cxa_free_exception(ptr %65) #34
  br label %386

74:                                               ; preds = %61
  %75 = getelementptr inbounds %class.EnvirBase, ptr %0, i64 0, i32 17
  %76 = load ptr, ptr %75, align 8, !tbaa !85
  %77 = icmp eq ptr %76, null
  %78 = select i1 %77, ptr @.str.47, ptr %76
  %79 = invoke noundef ptr @_ZN13cClassFactory9createOneEPKc(ptr noundef nonnull %78)
          to label %80 unwind label %88

80:                                               ; preds = %74
  %81 = getelementptr inbounds %class.EnvirBase, ptr %0, i64 0, i32 32
  store ptr %79, ptr %81, align 8, !tbaa !58
  %82 = icmp eq ptr %79, null
  br i1 %82, label %83, label %92

83:                                               ; preds = %80
  %84 = tail call ptr @__cxa_allocate_exception(i64 128) #34
  %85 = load ptr, ptr %75, align 8, !tbaa !85
  %86 = icmp eq ptr %85, null
  %87 = select i1 %86, ptr @.str.47, ptr %85
  invoke void (ptr, ptr, ...) @_ZN13cRuntimeErrorC1EPKcz(ptr noundef nonnull align 8 dereferenceable(124) %84, ptr noundef nonnull @.str.111, ptr noundef nonnull %87)
          to label %122 unwind label %90

88:                                               ; preds = %122, %74
  %89 = landingpad { ptr, i32 }
          cleanup
          catch ptr @_ZTISt9exception
  br label %386

90:                                               ; preds = %83
  %91 = landingpad { ptr, i32 }
          cleanup
          catch ptr @_ZTISt9exception
  tail call void @__cxa_free_exception(ptr %84) #34
  br label %386

92:                                               ; preds = %80
  %93 = getelementptr inbounds %class.EnvirBase, ptr %0, i64 0, i32 7
  %94 = load i8, ptr %93, align 8, !tbaa !86, !range !24, !noundef !25
  %95 = icmp eq i8 %94, 0
  br i1 %95, label %96, label %120

96:                                               ; preds = %92
  %97 = getelementptr inbounds %class.EnvirBase, ptr %0, i64 0, i32 6
  %98 = load ptr, ptr %97, align 8, !tbaa !85
  %99 = icmp eq ptr %98, null
  %100 = select i1 %99, ptr @.str.47, ptr %98
  %101 = invoke noundef ptr @_ZN13cClassFactory9createOneEPKc(ptr noundef nonnull %100)
          to label %102 unwind label %110

102:                                              ; preds = %96
  %103 = icmp eq ptr %101, null
  br i1 %103, label %104, label %114

104:                                              ; preds = %102
  %105 = tail call ptr @__cxa_allocate_exception(i64 128) #34
  %106 = load ptr, ptr %97, align 8, !tbaa !85
  %107 = icmp eq ptr %106, null
  %108 = select i1 %107, ptr @.str.47, ptr %106
  invoke void (ptr, ptr, ...) @_ZN13cRuntimeErrorC1EPKcz(ptr noundef nonnull align 8 dereferenceable(124) %105, ptr noundef nonnull @.str.112, ptr noundef nonnull %108)
          to label %109 unwind label %112

109:                                              ; preds = %104
  invoke void @__cxa_throw(ptr nonnull %105, ptr nonnull @_ZTI13cRuntimeError, ptr nonnull @_ZN10cExceptionD2Ev) #37
          to label %407 unwind label %110

110:                                              ; preds = %96, %114, %109
  %111 = landingpad { ptr, i32 }
          cleanup
          catch ptr @_ZTISt9exception
  br label %386

112:                                              ; preds = %104
  %113 = landingpad { ptr, i32 }
          cleanup
          catch ptr @_ZTISt9exception
  tail call void @__cxa_free_exception(ptr %105) #34
  br label %386

114:                                              ; preds = %102
  %115 = load ptr, ptr @_ZN11cSimulation6simPtrE, align 8, !tbaa !32
  invoke void @_ZN11cSimulation12setSchedulerEP10cScheduler(ptr noundef nonnull align 8 dereferenceable(224) %115, ptr noundef nonnull %101)
          to label %116 unwind label %110

116:                                              ; preds = %114
  %117 = getelementptr inbounds %class.EnvirBase, ptr %0, i64 0, i32 2
  %118 = load ptr, ptr %117, align 8, !tbaa !59
  %119 = invoke noundef ptr @_ZNK7ArgList11optionValueEci(ptr noundef nonnull align 8 dereferenceable(168) %118, i8 noundef signext 110, i32 noundef 0)
          to label %127 unwind label %131

120:                                              ; preds = %92
  %121 = tail call ptr @__cxa_allocate_exception(i64 128) #34
  invoke void (ptr, ptr, ...) @_ZN13cRuntimeErrorC1EPKcz(ptr noundef nonnull align 8 dereferenceable(124) %121, ptr noundef nonnull @.str.113)
          to label %122 unwind label %125

122:                                              ; preds = %83, %120
  %123 = phi ptr [ %121, %120 ], [ %84, %83 ]
  invoke void @__cxa_throw(ptr nonnull %123, ptr nonnull @_ZTI13cRuntimeError, ptr nonnull @_ZN10cExceptionD2Ev) #37
          to label %124 unwind label %88

124:                                              ; preds = %122
  unreachable

125:                                              ; preds = %120
  %126 = landingpad { ptr, i32 }
          cleanup
          catch ptr @_ZTISt9exception
  tail call void @__cxa_free_exception(ptr %121) #34
  br label %386

127:                                              ; preds = %116
  %128 = icmp eq ptr %119, null
  br i1 %128, label %129, label %133

129:                                              ; preds = %127
  %130 = tail call ptr @getenv(ptr noundef nonnull @.str.114) #34
  br label %133

131:                                              ; preds = %116
  %132 = landingpad { ptr, i32 }
          cleanup
          catch ptr @_ZTISt9exception
  br label %386

133:                                              ; preds = %129, %127
  %134 = phi ptr [ %119, %127 ], [ %130, %129 ]
  call void @llvm.lifetime.start.p0(i64 32, ptr nonnull %4) #34
  %135 = load ptr, ptr %0, align 8, !tbaa !20
  %136 = getelementptr inbounds ptr, ptr %135, i64 31
  %137 = load ptr, ptr %136, align 8
  %138 = invoke noundef ptr %137(ptr noundef nonnull align 8 dereferenceable(600) %0)
          to label %139 unwind label %152

139:                                              ; preds = %133
  %140 = load ptr, ptr @CFGID_NED_PATH, align 8, !tbaa !32
  %141 = load ptr, ptr %138, align 8, !tbaa !20
  %142 = getelementptr inbounds ptr, ptr %141, i64 31
  %143 = load ptr, ptr %142, align 8
  invoke void %143(ptr nonnull sret(%"class.std::__cxx11::basic_string") align 8 %4, ptr noundef nonnull align 8 dereferenceable(8) %138, ptr noundef %140)
          to label %144 unwind label %152

144:                                              ; preds = %139
  call void @llvm.lifetime.start.p0(i64 32, ptr nonnull %5) #34
  %145 = load ptr, ptr %4, align 8, !tbaa !26
  invoke void @_Z8opp_joinB5cxx11PKcS0_S0_(ptr nonnull sret(%"class.std::__cxx11::basic_string") align 8 %5, ptr noundef nonnull @.str.115, ptr noundef %134, ptr noundef %145)
          to label %146 unwind label %154

146:                                              ; preds = %144
  %147 = getelementptr inbounds %"class.std::__cxx11::basic_string", ptr %5, i64 0, i32 1
  %148 = load i64, ptr %147, align 8, !tbaa !29
  %149 = icmp eq i64 %148, 0
  br i1 %149, label %150, label %158

150:                                              ; preds = %146
  %151 = invoke noundef nonnull align 8 dereferenceable(32) ptr @_ZNSt7__cxx1112basic_stringIcSt11char_traitsIcESaIcEE10_M_replaceEmmPKcm(ptr noundef nonnull align 8 dereferenceable(32) %5, i64 noundef 0, i64 noundef 0, ptr noundef nonnull @.str.116, i64 noundef 1)
          to label %158 unwind label %156

152:                                              ; preds = %139, %133
  %153 = landingpad { ptr, i32 }
          cleanup
          catch ptr @_ZTISt9exception
  br label %384

154:                                              ; preds = %144
  %155 = landingpad { ptr, i32 }
          cleanup
          catch ptr @_ZTISt9exception
  br label %374

156:                                              ; preds = %150
  %157 = landingpad { ptr, i32 }
          cleanup
          catch ptr @_ZTISt9exception
  br label %365

158:                                              ; preds = %150, %146
  call void @llvm.lifetime.start.p0(i64 48, ptr nonnull %6) #34
  %159 = load ptr, ptr %5, align 8, !tbaa !26
  invoke void @_ZN15StringTokenizerC1EPKcS1_(ptr noundef nonnull align 8 dereferenceable(48) %6, ptr noundef %159, ptr noundef nonnull @.str.117)
          to label %160 unwind label %306

160:                                              ; preds = %158
  call void @llvm.lifetime.start.p0(i64 48, ptr nonnull %7) #34
  %161 = getelementptr inbounds i8, ptr %7, i64 8
  store i32 0, ptr %161, align 8, !tbaa !87
  %162 = getelementptr inbounds i8, ptr %7, i64 16
  store ptr null, ptr %162, align 8, !tbaa !88
  %163 = getelementptr inbounds i8, ptr %7, i64 24
  store ptr %161, ptr %163, align 8, !tbaa !89
  %164 = getelementptr inbounds i8, ptr %7, i64 32
  store ptr %161, ptr %164, align 8, !tbaa !90
  %165 = getelementptr inbounds i8, ptr %7, i64 40
  store i64 0, ptr %165, align 8, !tbaa !91
  %166 = getelementptr inbounds %"class.std::__cxx11::basic_string", ptr %8, i64 0, i32 2
  %167 = getelementptr inbounds %"class.std::__cxx11::basic_string", ptr %8, i64 0, i32 1
  %168 = getelementptr inbounds %"class.std::__cxx11::basic_string", ptr %9, i64 0, i32 2
  %169 = getelementptr inbounds %"class.std::__cxx11::basic_string", ptr %9, i64 0, i32 1
  br label %170

170:                                              ; preds = %305, %160
  %171 = invoke noundef zeroext i1 @_ZN15StringTokenizer13hasMoreTokensEv(ptr noundef nonnull align 8 dereferenceable(48) %6)
          to label %172 unwind label %310

172:                                              ; preds = %170
  br i1 %171, label %173, label %336

173:                                              ; preds = %172
  %174 = invoke noundef ptr @_ZN15StringTokenizer9nextTokenEv(ptr noundef nonnull align 8 dereferenceable(48) %6)
          to label %175 unwind label %314

175:                                              ; preds = %173
  call void @llvm.lifetime.start.p0(i64 32, ptr nonnull %8) #34
  store ptr %166, ptr %8, align 8, !tbaa !92
  %176 = icmp eq ptr %174, null
  br i1 %176, label %177, label %179

177:                                              ; preds = %175
  invoke void @_ZSt19__throw_logic_errorPKc(ptr noundef nonnull @.str.94) #37
          to label %178 unwind label %318

178:                                              ; preds = %177
  unreachable

179:                                              ; preds = %175
  %180 = call i64 @strlen(ptr noundef nonnull dereferenceable(1) %174) #34
  call void @llvm.lifetime.start.p0(i64 8, ptr nonnull %3) #34
  store i64 %180, ptr %3, align 8, !tbaa !93
  %181 = icmp ugt i64 %180, 15
  br i1 %181, label %182, label %186

182:                                              ; preds = %179
  %183 = invoke noundef ptr @_ZNSt7__cxx1112basic_stringIcSt11char_traitsIcESaIcEE9_M_createERmm(ptr noundef nonnull align 8 dereferenceable(32) %8, ptr noundef nonnull align 8 dereferenceable(8) %3, i64 noundef 0)
          to label %184 unwind label %316

184:                                              ; preds = %182
  store ptr %183, ptr %8, align 8, !tbaa !26
  %185 = load i64, ptr %3, align 8, !tbaa !93
  store i64 %185, ptr %166, align 8, !tbaa !30
  br label %186

186:                                              ; preds = %184, %179
  %187 = phi ptr [ %183, %184 ], [ %166, %179 ]
  switch i64 %180, label %190 [
    i64 1, label %188
    i64 0, label %191
  ]

188:                                              ; preds = %186
  %189 = load i8, ptr %174, align 1, !tbaa !30
  store i8 %189, ptr %187, align 1, !tbaa !30
  br label %191

190:                                              ; preds = %186
  call void @llvm.memcpy.p0.p0.i64(ptr align 1 %187, ptr nonnull align 1 %174, i64 %180, i1 false)
  br label %191

191:                                              ; preds = %190, %188, %186
  %192 = load i64, ptr %3, align 8, !tbaa !93
  store i64 %192, ptr %167, align 8, !tbaa !29
  %193 = load ptr, ptr %8, align 8, !tbaa !26
  %194 = getelementptr inbounds i8, ptr %193, i64 %192
  store i8 0, ptr %194, align 1, !tbaa !30
  call void @llvm.lifetime.end.p0(i64 8, ptr nonnull %3) #34
  %195 = load ptr, ptr %162, align 8, !tbaa !88
  %196 = icmp eq ptr %195, null
  %197 = load ptr, ptr %8, align 8
  br i1 %196, label %251, label %198

198:                                              ; preds = %191
  %199 = load i64, ptr %167, align 8, !tbaa !29
  br label %200

200:                                              ; preds = %217, %198
  %201 = phi ptr [ %195, %198 ], [ %224, %217 ]
  %202 = phi ptr [ %161, %198 ], [ %222, %217 ]
  %203 = getelementptr inbounds %"struct.std::_Rb_tree_node.44", ptr %201, i64 0, i32 1, i32 1
  %204 = load i64, ptr %203, align 8, !tbaa !29
  %205 = call i64 @llvm.umin.i64(i64 %199, i64 %204)
  %206 = icmp eq i64 %205, 0
  br i1 %206, label %212, label %207

207:                                              ; preds = %200
  %208 = getelementptr inbounds %"struct.std::_Rb_tree_node.44", ptr %201, i64 0, i32 1
  %209 = load ptr, ptr %208, align 8, !tbaa !26
  %210 = call i32 @memcmp(ptr noundef %209, ptr noundef %197, i64 noundef %205) #34
  %211 = icmp eq i32 %210, 0
  br i1 %211, label %212, label %217

212:                                              ; preds = %207, %200
  %213 = sub i64 %204, %199
  %214 = call i64 @llvm.smax.i64(i64 %213, i64 -2147483648)
  %215 = call i64 @llvm.smin.i64(i64 %214, i64 2147483647)
  %216 = trunc i64 %215 to i32
  br label %217

217:                                              ; preds = %212, %207
  %218 = phi i32 [ %210, %207 ], [ %216, %212 ]
  %219 = icmp slt i32 %218, 0
  %220 = getelementptr inbounds %"struct.std::_Rb_tree_node_base", ptr %201, i64 0, i32 3
  %221 = getelementptr inbounds %"struct.std::_Rb_tree_node_base", ptr %201, i64 0, i32 2
  %222 = select i1 %219, ptr %202, ptr %201
  %223 = select i1 %219, ptr %220, ptr %221
  %224 = load ptr, ptr %223, align 8, !tbaa !32
  %225 = icmp eq ptr %224, null
  br i1 %225, label %226, label %200

226:                                              ; preds = %217
  %227 = icmp eq ptr %222, %161
  br i1 %227, label %251, label %228

228:                                              ; preds = %226
  %229 = getelementptr inbounds %"struct.std::_Rb_tree_node.44", ptr %201, i64 0, i32 1, i32 1
  %230 = getelementptr inbounds %"struct.std::_Rb_tree_node.44", ptr %202, i64 0, i32 1, i32 1
  %231 = select i1 %219, ptr %230, ptr %229
  %232 = load i64, ptr %231, align 8, !tbaa !29
  %233 = call i64 @llvm.umin.i64(i64 %232, i64 %199)
  %234 = icmp eq i64 %233, 0
  br i1 %234, label %242, label %235

235:                                              ; preds = %228
  %236 = getelementptr inbounds %"struct.std::_Rb_tree_node.44", ptr %202, i64 0, i32 1
  %237 = getelementptr inbounds %"struct.std::_Rb_tree_node.44", ptr %201, i64 0, i32 1
  %238 = select i1 %219, ptr %236, ptr %237
  %239 = load ptr, ptr %238, align 8, !tbaa !26
  %240 = call i32 @memcmp(ptr noundef %197, ptr noundef %239, i64 noundef %233) #34
  %241 = icmp eq i32 %240, 0
  br i1 %241, label %242, label %247

242:                                              ; preds = %235, %228
  %243 = sub i64 %199, %232
  %244 = call i64 @llvm.smax.i64(i64 %243, i64 -2147483648)
  %245 = call i64 @llvm.smin.i64(i64 %244, i64 2147483647)
  %246 = trunc i64 %245 to i32
  br label %247

247:                                              ; preds = %242, %235
  %248 = phi i32 [ %240, %235 ], [ %246, %242 ]
  %249 = icmp slt i32 %248, 0
  %250 = select i1 %249, ptr %161, ptr %222
  br label %251

251:                                              ; preds = %191, %226, %247
  %252 = phi ptr [ %161, %226 ], [ %161, %191 ], [ %250, %247 ]
  %253 = icmp eq ptr %252, %161
  %254 = icmp eq ptr %197, %166
  br i1 %254, label %255, label %258

255:                                              ; preds = %251
  %256 = load i64, ptr %167, align 8, !tbaa !29
  %257 = icmp ult i64 %256, 16
  call void @llvm.assume(i1 %257)
  br label %259

258:                                              ; preds = %251
  call void @_ZdlPv(ptr noundef %197) #35
  br label %259

259:                                              ; preds = %258, %255
  call void @llvm.lifetime.end.p0(i64 32, ptr nonnull %8) #34
  br i1 %253, label %260, label %305

260:                                              ; preds = %259
  %261 = load ptr, ptr @_ZN11cSimulation5evPtrE, align 8, !tbaa !32
  %262 = load ptr, ptr %261, align 8, !tbaa !20
  %263 = getelementptr inbounds ptr, ptr %262, i64 36
  %264 = load ptr, ptr %263, align 8
  %265 = invoke noundef i32 (ptr, ptr, ...) %264(ptr noundef nonnull align 8 dereferenceable(288) %261, ptr noundef nonnull @.str.118)
          to label %266 unwind label %314

266:                                              ; preds = %260
  %267 = load ptr, ptr @_ZN11cSimulation5evPtrE, align 8, !tbaa !32
  %268 = load ptr, ptr %267, align 8, !tbaa !20
  %269 = getelementptr inbounds ptr, ptr %268, i64 37
  %270 = load ptr, ptr %269, align 8
  %271 = invoke noundef nonnull align 8 dereferenceable(288) ptr %270(ptr noundef nonnull align 8 dereferenceable(288) %267)
          to label %272 unwind label %314

272:                                              ; preds = %266
  %273 = invoke noundef i32 @_ZN11cSimulation19loadNedSourceFolderEPKc(ptr noundef nonnull %174)
          to label %274 unwind label %322

274:                                              ; preds = %272
  %275 = load ptr, ptr @_ZN11cSimulation5evPtrE, align 8, !tbaa !32
  %276 = load ptr, ptr %275, align 8, !tbaa !20
  %277 = getelementptr inbounds ptr, ptr %276, i64 36
  %278 = load ptr, ptr %277, align 8
  %279 = invoke noundef i32 (ptr, ptr, ...) %278(ptr noundef nonnull align 8 dereferenceable(288) %275, ptr noundef nonnull @.str.119, i32 noundef %273)
          to label %280 unwind label %322

280:                                              ; preds = %274
  call void @llvm.lifetime.start.p0(i64 32, ptr nonnull %9) #34
  store ptr %168, ptr %9, align 8, !tbaa !92
  %281 = call i64 @strlen(ptr noundef nonnull dereferenceable(1) %174) #34
  call void @llvm.lifetime.start.p0(i64 8, ptr nonnull %2) #34
  store i64 %281, ptr %2, align 8, !tbaa !93
  %282 = icmp ugt i64 %281, 15
  br i1 %282, label %283, label %287

283:                                              ; preds = %280
  %284 = invoke noundef ptr @_ZNSt7__cxx1112basic_stringIcSt11char_traitsIcESaIcEE9_M_createERmm(ptr noundef nonnull align 8 dereferenceable(32) %9, ptr noundef nonnull align 8 dereferenceable(8) %2, i64 noundef 0)
          to label %285 unwind label %324

285:                                              ; preds = %283
  store ptr %284, ptr %9, align 8, !tbaa !26
  %286 = load i64, ptr %2, align 8, !tbaa !93
  store i64 %286, ptr %168, align 8, !tbaa !30
  br label %287

287:                                              ; preds = %285, %280
  %288 = phi ptr [ %284, %285 ], [ %168, %280 ]
  switch i64 %281, label %291 [
    i64 1, label %289
    i64 0, label %292
  ]

289:                                              ; preds = %287
  %290 = load i8, ptr %174, align 1, !tbaa !30
  store i8 %290, ptr %288, align 1, !tbaa !30
  br label %292

291:                                              ; preds = %287
  call void @llvm.memcpy.p0.p0.i64(ptr align 1 %288, ptr nonnull align 1 %174, i64 %281, i1 false)
  br label %292

292:                                              ; preds = %291, %289, %287
  %293 = load i64, ptr %2, align 8, !tbaa !93
  store i64 %293, ptr %169, align 8, !tbaa !29
  %294 = load ptr, ptr %9, align 8, !tbaa !26
  %295 = getelementptr inbounds i8, ptr %294, i64 %293
  store i8 0, ptr %295, align 1, !tbaa !30
  call void @llvm.lifetime.end.p0(i64 8, ptr nonnull %2) #34
  %296 = invoke { ptr, i8 } @_ZNSt8_Rb_treeINSt7__cxx1112basic_stringIcSt11char_traitsIcESaIcEEES5_St9_IdentityIS5_ESt4lessIS5_ESaIS5_EE16_M_insert_uniqueERKS5_(ptr noundef nonnull align 8 dereferenceable(48) %7, ptr noundef nonnull align 8 dereferenceable(32) %9)
          to label %297 unwind label %326

297:                                              ; preds = %292
  %298 = load ptr, ptr %9, align 8, !tbaa !26
  %299 = icmp eq ptr %298, %168
  br i1 %299, label %300, label %303

300:                                              ; preds = %297
  %301 = load i64, ptr %169, align 8, !tbaa !29
  %302 = icmp ult i64 %301, 16
  call void @llvm.assume(i1 %302)
  br label %304

303:                                              ; preds = %297
  call void @_ZdlPv(ptr noundef %298) #35
  br label %304

304:                                              ; preds = %303, %300
  call void @llvm.lifetime.end.p0(i64 32, ptr nonnull %9) #34
  br label %305

305:                                              ; preds = %304, %259
  br label %170

306:                                              ; preds = %339, %158
  %307 = landingpad { ptr, i32 }
          cleanup
          catch ptr @_ZTISt9exception
  br label %363

308:                                              ; preds = %337
  %309 = landingpad { ptr, i32 }
          cleanup
          catch ptr @_ZTISt9exception
  br label %361

310:                                              ; preds = %170
  %311 = landingpad { ptr, i32 }
          cleanup
          catch ptr @_ZTISt9exception
  br label %358

312:                                              ; preds = %336
  %313 = landingpad { ptr, i32 }
          cleanup
          catch ptr @_ZTISt9exception
  br label %358

314:                                              ; preds = %266, %260, %173
  %315 = landingpad { ptr, i32 }
          cleanup
          catch ptr @_ZTISt9exception
  br label %358

316:                                              ; preds = %182
  %317 = landingpad { ptr, i32 }
          cleanup
          catch ptr @_ZTISt9exception
  br label %320

318:                                              ; preds = %177
  %319 = landingpad { ptr, i32 }
          cleanup
          catch ptr @_ZTISt9exception
  br label %320

320:                                              ; preds = %318, %316
  %321 = phi { ptr, i32 } [ %317, %316 ], [ %319, %318 ]
  call void @llvm.lifetime.end.p0(i64 32, ptr nonnull %8) #34
  br label %358

322:                                              ; preds = %274, %272
  %323 = landingpad { ptr, i32 }
          cleanup
          catch ptr @_ZTISt9exception
  br label %358

324:                                              ; preds = %283
  %325 = landingpad { ptr, i32 }
          cleanup
          catch ptr @_ZTISt9exception
  br label %334

326:                                              ; preds = %292
  %327 = landingpad { ptr, i32 }
          cleanup
          catch ptr @_ZTISt9exception
  %328 = load ptr, ptr %9, align 8, !tbaa !26
  %329 = icmp eq ptr %328, %168
  br i1 %329, label %330, label %333

330:                                              ; preds = %326
  %331 = load i64, ptr %169, align 8, !tbaa !29
  %332 = icmp ult i64 %331, 16
  call void @llvm.assume(i1 %332)
  br label %334

333:                                              ; preds = %326
  call void @_ZdlPv(ptr noundef %328) #35
  br label %334

334:                                              ; preds = %333, %330, %324
  %335 = phi { ptr, i32 } [ %325, %324 ], [ %327, %330 ], [ %327, %333 ]
  call void @llvm.lifetime.end.p0(i64 32, ptr nonnull %9) #34
  br label %358

336:                                              ; preds = %172
  invoke void @_ZN11cSimulation19doneLoadingNedFilesEv()
          to label %337 unwind label %312

337:                                              ; preds = %336
  %338 = load ptr, ptr %162, align 8, !tbaa !88
  invoke void @_ZNSt8_Rb_treeINSt7__cxx1112basic_stringIcSt11char_traitsIcESaIcEEES5_St9_IdentityIS5_ESt4lessIS5_ESaIS5_EE8_M_eraseEPSt13_Rb_tree_nodeIS5_E(ptr noundef nonnull align 8 dereferenceable(48) %7, ptr noundef %338)
          to label %339 unwind label %308

339:                                              ; preds = %337
  call void @llvm.lifetime.end.p0(i64 48, ptr nonnull %7) #34
  invoke void @_ZN15StringTokenizerD1Ev(ptr noundef nonnull align 8 dereferenceable(48) %6)
          to label %340 unwind label %306

340:                                              ; preds = %339
  call void @llvm.lifetime.end.p0(i64 48, ptr nonnull %6) #34
  %341 = load ptr, ptr %5, align 8, !tbaa !26
  %342 = getelementptr inbounds %"class.std::__cxx11::basic_string", ptr %5, i64 0, i32 2
  %343 = icmp eq ptr %341, %342
  br i1 %343, label %344, label %347

344:                                              ; preds = %340
  %345 = load i64, ptr %147, align 8, !tbaa !29
  %346 = icmp ult i64 %345, 16
  call void @llvm.assume(i1 %346)
  br label %348

347:                                              ; preds = %340
  call void @_ZdlPv(ptr noundef %341) #35
  br label %348

348:                                              ; preds = %347, %344
  call void @llvm.lifetime.end.p0(i64 32, ptr nonnull %5) #34
  %349 = load ptr, ptr %4, align 8, !tbaa !26
  %350 = getelementptr inbounds %"class.std::__cxx11::basic_string", ptr %4, i64 0, i32 2
  %351 = icmp eq ptr %349, %350
  br i1 %351, label %352, label %356

352:                                              ; preds = %348
  %353 = getelementptr inbounds %"class.std::__cxx11::basic_string", ptr %4, i64 0, i32 1
  %354 = load i64, ptr %353, align 8, !tbaa !29
  %355 = icmp ult i64 %354, 16
  call void @llvm.assume(i1 %355)
  br label %357

356:                                              ; preds = %348
  call void @_ZdlPv(ptr noundef %349) #35
  br label %357

357:                                              ; preds = %356, %352
  call void @llvm.lifetime.end.p0(i64 32, ptr nonnull %4) #34
  br label %400

358:                                              ; preds = %310, %312, %314, %320, %334, %322
  %359 = phi { ptr, i32 } [ %315, %314 ], [ %321, %320 ], [ %335, %334 ], [ %323, %322 ], [ %311, %310 ], [ %313, %312 ]
  %360 = load ptr, ptr %162, align 8, !tbaa !88
  invoke void @_ZNSt8_Rb_treeINSt7__cxx1112basic_stringIcSt11char_traitsIcESaIcEEES5_St9_IdentityIS5_ESt4lessIS5_ESaIS5_EE8_M_eraseEPSt13_Rb_tree_nodeIS5_E(ptr noundef nonnull align 8 dereferenceable(48) %7, ptr noundef %360)
          to label %361 unwind label %404

361:                                              ; preds = %358, %308
  %362 = phi { ptr, i32 } [ %309, %308 ], [ %359, %358 ]
  call void @llvm.lifetime.end.p0(i64 48, ptr nonnull %7) #34
  invoke void @_ZN15StringTokenizerD1Ev(ptr noundef nonnull align 8 dereferenceable(48) %6)
          to label %363 unwind label %404

363:                                              ; preds = %361, %306
  %364 = phi { ptr, i32 } [ %362, %361 ], [ %307, %306 ]
  call void @llvm.lifetime.end.p0(i64 48, ptr nonnull %6) #34
  br label %365

365:                                              ; preds = %363, %156
  %366 = phi { ptr, i32 } [ %364, %363 ], [ %157, %156 ]
  %367 = load ptr, ptr %5, align 8, !tbaa !26
  %368 = getelementptr inbounds %"class.std::__cxx11::basic_string", ptr %5, i64 0, i32 2
  %369 = icmp eq ptr %367, %368
  br i1 %369, label %370, label %373

370:                                              ; preds = %365
  %371 = load i64, ptr %147, align 8, !tbaa !29
  %372 = icmp ult i64 %371, 16
  call void @llvm.assume(i1 %372)
  br label %374

373:                                              ; preds = %365
  call void @_ZdlPv(ptr noundef %367) #35
  br label %374

374:                                              ; preds = %373, %370, %154
  %375 = phi { ptr, i32 } [ %155, %154 ], [ %366, %370 ], [ %366, %373 ]
  call void @llvm.lifetime.end.p0(i64 32, ptr nonnull %5) #34
  %376 = load ptr, ptr %4, align 8, !tbaa !26
  %377 = getelementptr inbounds %"class.std::__cxx11::basic_string", ptr %4, i64 0, i32 2
  %378 = icmp eq ptr %376, %377
  br i1 %378, label %379, label %383

379:                                              ; preds = %374
  %380 = getelementptr inbounds %"class.std::__cxx11::basic_string", ptr %4, i64 0, i32 1
  %381 = load i64, ptr %380, align 8, !tbaa !29
  %382 = icmp ult i64 %381, 16
  call void @llvm.assume(i1 %382)
  br label %384

383:                                              ; preds = %374
  call void @_ZdlPv(ptr noundef %376) #35
  br label %384

384:                                              ; preds = %383, %379, %152
  %385 = phi { ptr, i32 } [ %153, %152 ], [ %375, %379 ], [ %375, %383 ]
  call void @llvm.lifetime.end.p0(i64 32, ptr nonnull %4) #34
  br label %386

386:                                              ; preds = %51, %53, %88, %90, %125, %112, %110, %384, %131, %72, %70, %49, %25
  %387 = phi { ptr, i32 } [ %50, %49 ], [ %26, %25 ], [ %52, %51 ], [ %54, %53 ], [ %71, %70 ], [ %73, %72 ], [ %89, %88 ], [ %126, %125 ], [ %91, %90 ], [ %111, %110 ], [ %113, %112 ], [ %385, %384 ], [ %132, %131 ]
  %388 = extractvalue { ptr, i32 } %387, 1
  %389 = call i32 @llvm.eh.typeid.for(ptr nonnull @_ZTISt9exception) #34
  %390 = icmp eq i32 %388, %389
  br i1 %390, label %391, label %402

391:                                              ; preds = %386
  %392 = extractvalue { ptr, i32 } %387, 0
  %393 = call ptr @__cxa_begin_catch(ptr %392) #34
  %394 = load ptr, ptr %0, align 8, !tbaa !20
  %395 = getelementptr inbounds ptr, ptr %394, i64 69
  %396 = load ptr, ptr %395, align 8
  invoke void %396(ptr noundef nonnull align 8 dereferenceable(600) %0, ptr noundef nonnull align 8 dereferenceable(8) %393)
          to label %397 unwind label %398

397:                                              ; preds = %391
  call void @__cxa_end_catch()
  br label %400

398:                                              ; preds = %391
  %399 = landingpad { ptr, i32 }
          cleanup
  invoke void @__cxa_end_catch()
          to label %402 unwind label %404

400:                                              ; preds = %357, %397
  %401 = phi i1 [ false, %397 ], [ true, %357 ]
  ret i1 %401

402:                                              ; preds = %398, %386
  %403 = phi { ptr, i32 } [ %387, %386 ], [ %399, %398 ]
  resume { ptr, i32 } %403

404:                                              ; preds = %358, %398, %361
  %405 = landingpad { ptr, i32 }
          catch ptr null
  %406 = extractvalue { ptr, i32 } %405, 0
  call void @__clang_call_terminate(ptr %406) #33
  unreachable

407:                                              ; preds = %109, %69, %48
  unreachable
}

; Function Attrs: sspstrong uwtable
define dso_local void @_ZN9EnvirBase8shutdownEv(ptr noundef nonnull align 8 dereferenceable(600) %0) unnamed_addr #0 align 2 personality ptr @__gxx_personality_v0 {
  %2 = load ptr, ptr @_ZN11cSimulation6simPtrE, align 8, !tbaa !32
  invoke void @_ZN11cSimulation13deleteNetworkEv(ptr noundef nonnull align 8 dereferenceable(224) %2)
          to label %15 unwind label %3

3:                                                ; preds = %1
  %4 = landingpad { ptr, i32 }
          catch ptr @_ZTISt9exception
  %5 = extractvalue { ptr, i32 } %4, 1
  %6 = tail call i32 @llvm.eh.typeid.for(ptr nonnull @_ZTISt9exception) #34
  %7 = icmp eq i32 %5, %6
  br i1 %7, label %8, label %18

8:                                                ; preds = %3
  %9 = extractvalue { ptr, i32 } %4, 0
  %10 = tail call ptr @__cxa_begin_catch(ptr %9) #34
  %11 = load ptr, ptr %0, align 8, !tbaa !20
  %12 = getelementptr inbounds ptr, ptr %11, i64 69
  %13 = load ptr, ptr %12, align 8
  invoke void %13(ptr noundef nonnull align 8 dereferenceable(600) %0, ptr noundef nonnull align 8 dereferenceable(8) %10)
          to label %14 unwind label %16

14:                                               ; preds = %8
  tail call void @__cxa_end_catch()
  br label %15

15:                                               ; preds = %1, %14
  ret void

16:                                               ; preds = %8
  %17 = landingpad { ptr, i32 }
          cleanup
  invoke void @__cxa_end_catch()
          to label %18 unwind label %20

18:                                               ; preds = %16, %3
  %19 = phi { ptr, i32 } [ %4, %3 ], [ %17, %16 ]
  resume { ptr, i32 } %19

20:                                               ; preds = %16
  %21 = landingpad { ptr, i32 }
          catch ptr null
  %22 = extractvalue { ptr, i32 } %21, 0
  tail call void @__clang_call_terminate(ptr %22) #33
  unreachable
}

; Function Attrs: sspstrong uwtable
define dso_local void @_ZN9EnvirBase8startRunEv(ptr noundef nonnull align 8 dereferenceable(600) %0) unnamed_addr #0 align 2 {
  %2 = getelementptr inbounds %class.EnvirBase, ptr %0, i64 0, i32 34
  tail call void @llvm.memset.p0.i64(ptr noundef nonnull align 8 dereferenceable(64) %2, i8 0, i64 64, i1 false)
  %3 = getelementptr inbounds %class.EnvirBase, ptr %0, i64 0, i32 30
  %4 = load ptr, ptr %3, align 8, !tbaa !56
  %5 = load ptr, ptr %4, align 8, !tbaa !20
  %6 = getelementptr inbounds ptr, ptr %5, i64 19
  %7 = load ptr, ptr %6, align 8
  tail call void %7(ptr noundef nonnull align 8 dereferenceable(8) %4)
  %8 = getelementptr inbounds %class.EnvirBase, ptr %0, i64 0, i32 31
  %9 = load ptr, ptr %8, align 8, !tbaa !57
  %10 = load ptr, ptr %9, align 8, !tbaa !20
  %11 = getelementptr inbounds ptr, ptr %10, i64 19
  %12 = load ptr, ptr %11, align 8
  tail call void %12(ptr noundef nonnull align 8 dereferenceable(8) %9)
  %13 = getelementptr inbounds %class.EnvirBase, ptr %0, i64 0, i32 32
  %14 = load ptr, ptr %13, align 8, !tbaa !58
  %15 = load ptr, ptr %14, align 8, !tbaa !20
  %16 = getelementptr inbounds ptr, ptr %15, i64 19
  %17 = load ptr, ptr %16, align 8
  tail call void %17(ptr noundef nonnull align 8 dereferenceable(8) %14)
  %18 = getelementptr inbounds %class.EnvirBase, ptr %0, i64 0, i32 29
  %19 = load ptr, ptr %18, align 8, !tbaa !6
  %20 = icmp eq ptr %19, null
  br i1 %20, label %25, label %21

21:                                               ; preds = %1
  %22 = load ptr, ptr %19, align 8, !tbaa !20
  %23 = getelementptr inbounds ptr, ptr %22, i64 3
  %24 = load ptr, ptr %23, align 8
  tail call void %24(ptr noundef nonnull align 8 dereferenceable(43) %19)
  br label %25

25:                                               ; preds = %21, %1
  %26 = load ptr, ptr @_ZN11cSimulation6simPtrE, align 8, !tbaa !32
  tail call void @_ZN11cSimulation8startRunEv(ptr noundef nonnull align 8 dereferenceable(224) %26)
  tail call void @_ZN6cEnvir13flushLastLineEv(ptr noundef nonnull align 8 dereferenceable(288) %0)
  ret void
}

; Function Attrs: sspstrong uwtable
define dso_local void @_ZN9EnvirBase6endRunEv(ptr nocapture noundef nonnull align 8 dereferenceable(600) %0) unnamed_addr #0 align 2 {
  %2 = load ptr, ptr @_ZN11cSimulation6simPtrE, align 8, !tbaa !32
  tail call void @_ZN11cSimulation6endRunEv(ptr noundef nonnull align 8 dereferenceable(224) %2)
  %3 = getelementptr inbounds %class.EnvirBase, ptr %0, i64 0, i32 29
  %4 = load ptr, ptr %3, align 8, !tbaa !6
  %5 = icmp eq ptr %4, null
  br i1 %5, label %17, label %6

6:                                                ; preds = %1
  %7 = load ptr, ptr %4, align 8, !tbaa !20
  %8 = getelementptr inbounds ptr, ptr %7, i64 4
  %9 = load ptr, ptr %8, align 8
  tail call void %9(ptr noundef nonnull align 8 dereferenceable(43) %4)
  %10 = load ptr, ptr %3, align 8, !tbaa !6
  %11 = icmp eq ptr %10, null
  br i1 %11, label %16, label %12

12:                                               ; preds = %6
  %13 = load ptr, ptr %10, align 8, !tbaa !20
  %14 = getelementptr inbounds ptr, ptr %13, i64 1
  %15 = load ptr, ptr %14, align 8
  tail call void %15(ptr noundef nonnull align 8 dereferenceable(43) %10)
  br label %16

16:                                               ; preds = %12, %6
  store ptr null, ptr %3, align 8, !tbaa !6
  br label %17

17:                                               ; preds = %16, %1
  %18 = getelementptr inbounds %class.EnvirBase, ptr %0, i64 0, i32 32
  %19 = load ptr, ptr %18, align 8, !tbaa !58
  %20 = load ptr, ptr %19, align 8, !tbaa !20
  %21 = getelementptr inbounds ptr, ptr %20, i64 20
  %22 = load ptr, ptr %21, align 8
  tail call void %22(ptr noundef nonnull align 8 dereferenceable(8) %19)
  %23 = getelementptr inbounds %class.EnvirBase, ptr %0, i64 0, i32 31
  %24 = load ptr, ptr %23, align 8, !tbaa !57
  %25 = load ptr, ptr %24, align 8, !tbaa !20
  %26 = getelementptr inbounds ptr, ptr %25, i64 20
  %27 = load ptr, ptr %26, align 8
  tail call void %27(ptr noundef nonnull align 8 dereferenceable(8) %24)
  %28 = getelementptr inbounds %class.EnvirBase, ptr %0, i64 0, i32 30
  %29 = load ptr, ptr %28, align 8, !tbaa !56
  %30 = load ptr, ptr %29, align 8, !tbaa !20
  %31 = getelementptr inbounds ptr, ptr %30, i64 20
  %32 = load ptr, ptr %31, align 8
  tail call void %32(ptr noundef nonnull align 8 dereferenceable(8) %29)
  ret void
}

; Function Attrs: sspstrong uwtable
define dso_local void @_ZN9EnvirBase11readOptionsEv(ptr noundef nonnull align 8 dereferenceable(600) %0) unnamed_addr #0 align 2 personality ptr @__gxx_personality_v0 {
  %2 = alloca %"class.std::__cxx11::basic_string", align 8
  %3 = alloca %"class.std::__cxx11::basic_string", align 8
  %4 = alloca %"class.std::__cxx11::basic_string", align 8
  %5 = alloca %"class.std::__cxx11::basic_string", align 8
  %6 = load ptr, ptr %0, align 8, !tbaa !20
  %7 = getelementptr inbounds ptr, ptr %6, i64 31
  %8 = load ptr, ptr %7, align 8
  %9 = tail call noundef ptr %8(ptr noundef nonnull align 8 dereferenceable(600) %0)
  %10 = load ptr, ptr @CFGID_TOTAL_STACK, align 8, !tbaa !32
  %11 = load ptr, ptr %9, align 8, !tbaa !20
  %12 = getelementptr inbounds ptr, ptr %11, i64 27
  %13 = load ptr, ptr %12, align 8
  %14 = tail call noundef double %13(ptr noundef nonnull align 8 dereferenceable(8) %9, ptr noundef %10, double noundef 0x4140000000000000)
  %15 = fptoui double %14 to i64
  %16 = getelementptr inbounds %class.EnvirBase, ptr %0, i64 0, i32 5
  store i64 %15, ptr %16, align 8, !tbaa !84
  %17 = load ptr, ptr @CFGID_PARALLEL_SIMULATION, align 8, !tbaa !32
  %18 = load ptr, ptr %9, align 8, !tbaa !20
  %19 = getelementptr inbounds ptr, ptr %18, i64 25
  %20 = load ptr, ptr %19, align 8
  %21 = tail call noundef zeroext i1 %20(ptr noundef nonnull align 8 dereferenceable(8) %9, ptr noundef %17, i1 noundef zeroext false)
  %22 = getelementptr inbounds %class.EnvirBase, ptr %0, i64 0, i32 7
  %23 = zext i1 %21 to i8
  store i8 %23, ptr %22, align 8, !tbaa !86
  br i1 %21, label %87, label %24

24:                                               ; preds = %1
  call void @llvm.lifetime.start.p0(i64 32, ptr nonnull %2) #34
  %25 = load ptr, ptr @CFGID_SCHEDULER_CLASS, align 8, !tbaa !32
  %26 = load ptr, ptr %9, align 8, !tbaa !20
  %27 = getelementptr inbounds ptr, ptr %26, i64 28
  %28 = load ptr, ptr %27, align 8
  call void %28(ptr nonnull sret(%"class.std::__cxx11::basic_string") align 8 %2, ptr noundef nonnull align 8 dereferenceable(8) %9, ptr noundef %25, ptr noundef nonnull @.str.47)
  %29 = getelementptr inbounds %class.EnvirBase, ptr %0, i64 0, i32 6
  %30 = load ptr, ptr %2, align 8, !tbaa !26
  %31 = load ptr, ptr %29, align 8, !tbaa !85
  %32 = icmp eq ptr %31, null
  br i1 %32, label %34, label %33

33:                                               ; preds = %24
  call void @_ZdaPv(ptr noundef nonnull %31) #35
  br label %34

34:                                               ; preds = %33, %24
  %35 = icmp eq ptr %30, null
  br i1 %35, label %45, label %36

36:                                               ; preds = %34
  %37 = load i8, ptr %30, align 1, !tbaa !30
  %38 = icmp eq i8 %37, 0
  br i1 %38, label %45, label %39

39:                                               ; preds = %36
  %40 = call i64 @strlen(ptr noundef nonnull dereferenceable(1) %30) #36
  %41 = add i64 %40, 1
  %42 = invoke noalias noundef nonnull ptr @_Znam(i64 noundef %41) #38
          to label %43 unwind label %76

43:                                               ; preds = %39
  %44 = call ptr @strcpy(ptr noundef nonnull dereferenceable(1) %42, ptr noundef nonnull dereferenceable(1) %30) #34
  br label %45

45:                                               ; preds = %43, %36, %34
  %46 = phi ptr [ %42, %43 ], [ null, %36 ], [ null, %34 ]
  store ptr %46, ptr %29, align 8, !tbaa !85
  %47 = load ptr, ptr %2, align 8, !tbaa !26
  %48 = getelementptr inbounds %"class.std::__cxx11::basic_string", ptr %2, i64 0, i32 2
  %49 = icmp eq ptr %47, %48
  br i1 %49, label %50, label %54

50:                                               ; preds = %45
  %51 = getelementptr inbounds %"class.std::__cxx11::basic_string", ptr %2, i64 0, i32 1
  %52 = load i64, ptr %51, align 8, !tbaa !29
  %53 = icmp ult i64 %52, 16
  call void @llvm.assume(i1 %53)
  br label %55

54:                                               ; preds = %45
  call void @_ZdlPv(ptr noundef %47) #35
  br label %55

55:                                               ; preds = %50, %54
  call void @llvm.lifetime.end.p0(i64 32, ptr nonnull %2) #34
  call void @llvm.lifetime.start.p0(i64 32, ptr nonnull %3) #34
  %56 = load ptr, ptr @CFGID_OUTPUTVECTORMANAGER_CLASS, align 8, !tbaa !32
  %57 = load ptr, ptr %9, align 8, !tbaa !20
  %58 = getelementptr inbounds ptr, ptr %57, i64 28
  %59 = load ptr, ptr %58, align 8
  call void %59(ptr nonnull sret(%"class.std::__cxx11::basic_string") align 8 %3, ptr noundef nonnull align 8 dereferenceable(8) %9, ptr noundef %56, ptr noundef nonnull @.str.47)
  %60 = getelementptr inbounds %class.EnvirBase, ptr %0, i64 0, i32 15
  %61 = load ptr, ptr %3, align 8, !tbaa !26
  %62 = load ptr, ptr %60, align 8, !tbaa !85
  %63 = icmp eq ptr %62, null
  br i1 %63, label %65, label %64

64:                                               ; preds = %55
  call void @_ZdaPv(ptr noundef nonnull %62) #35
  br label %65

65:                                               ; preds = %64, %55
  %66 = icmp eq ptr %61, null
  br i1 %66, label %92, label %67

67:                                               ; preds = %65
  %68 = load i8, ptr %61, align 1, !tbaa !30
  %69 = icmp eq i8 %68, 0
  br i1 %69, label %92, label %70

70:                                               ; preds = %67
  %71 = call i64 @strlen(ptr noundef nonnull dereferenceable(1) %61) #36
  %72 = add i64 %71, 1
  %73 = invoke noalias noundef nonnull ptr @_Znam(i64 noundef %72) #38
          to label %74 unwind label %222

74:                                               ; preds = %70
  %75 = call ptr @strcpy(ptr noundef nonnull dereferenceable(1) %73, ptr noundef nonnull dereferenceable(1) %61) #34
  br label %92

76:                                               ; preds = %39
  %77 = landingpad { ptr, i32 }
          cleanup
  %78 = load ptr, ptr %2, align 8, !tbaa !26
  %79 = getelementptr inbounds %"class.std::__cxx11::basic_string", ptr %2, i64 0, i32 2
  %80 = icmp eq ptr %78, %79
  br i1 %80, label %81, label %85

81:                                               ; preds = %76
  %82 = getelementptr inbounds %"class.std::__cxx11::basic_string", ptr %2, i64 0, i32 1
  %83 = load i64, ptr %82, align 8, !tbaa !29
  %84 = icmp ult i64 %83, 16
  call void @llvm.assume(i1 %84)
  br label %86

85:                                               ; preds = %76
  call void @_ZdlPv(ptr noundef %78) #35
  br label %86

86:                                               ; preds = %85, %81
  call void @llvm.lifetime.end.p0(i64 32, ptr nonnull %2) #34
  br label %255

87:                                               ; preds = %1
  %88 = tail call ptr @__cxa_allocate_exception(i64 128) #34
  invoke void (ptr, ptr, ...) @_ZN13cRuntimeErrorC1EPKcz(ptr noundef nonnull align 8 dereferenceable(124) %88, ptr noundef nonnull @.str.113)
          to label %89 unwind label %90

89:                                               ; preds = %87
  tail call void @__cxa_throw(ptr nonnull %88, ptr nonnull @_ZTI13cRuntimeError, ptr nonnull @_ZN10cExceptionD2Ev) #37
  unreachable

90:                                               ; preds = %87
  %91 = landingpad { ptr, i32 }
          cleanup
  tail call void @__cxa_free_exception(ptr %88) #34
  br label %255

92:                                               ; preds = %74, %67, %65
  %93 = phi ptr [ %73, %74 ], [ null, %67 ], [ null, %65 ]
  store ptr %93, ptr %60, align 8, !tbaa !85
  %94 = load ptr, ptr %3, align 8, !tbaa !26
  %95 = getelementptr inbounds %"class.std::__cxx11::basic_string", ptr %3, i64 0, i32 2
  %96 = icmp eq ptr %94, %95
  br i1 %96, label %97, label %101

97:                                               ; preds = %92
  %98 = getelementptr inbounds %"class.std::__cxx11::basic_string", ptr %3, i64 0, i32 1
  %99 = load i64, ptr %98, align 8, !tbaa !29
  %100 = icmp ult i64 %99, 16
  call void @llvm.assume(i1 %100)
  br label %102

101:                                              ; preds = %92
  call void @_ZdlPv(ptr noundef %94) #35
  br label %102

102:                                              ; preds = %97, %101
  call void @llvm.lifetime.end.p0(i64 32, ptr nonnull %3) #34
  call void @llvm.lifetime.start.p0(i64 32, ptr nonnull %4) #34
  %103 = load ptr, ptr @CFGID_OUTPUTSCALARMANAGER_CLASS, align 8, !tbaa !32
  %104 = load ptr, ptr %9, align 8, !tbaa !20
  %105 = getelementptr inbounds ptr, ptr %104, i64 28
  %106 = load ptr, ptr %105, align 8
  call void %106(ptr nonnull sret(%"class.std::__cxx11::basic_string") align 8 %4, ptr noundef nonnull align 8 dereferenceable(8) %9, ptr noundef %103, ptr noundef nonnull @.str.47)
  %107 = getelementptr inbounds %class.EnvirBase, ptr %0, i64 0, i32 16
  %108 = load ptr, ptr %4, align 8, !tbaa !26
  %109 = load ptr, ptr %107, align 8, !tbaa !85
  %110 = icmp eq ptr %109, null
  br i1 %110, label %112, label %111

111:                                              ; preds = %102
  call void @_ZdaPv(ptr noundef nonnull %109) #35
  br label %112

112:                                              ; preds = %111, %102
  %113 = icmp eq ptr %108, null
  br i1 %113, label %123, label %114

114:                                              ; preds = %112
  %115 = load i8, ptr %108, align 1, !tbaa !30
  %116 = icmp eq i8 %115, 0
  br i1 %116, label %123, label %117

117:                                              ; preds = %114
  %118 = call i64 @strlen(ptr noundef nonnull dereferenceable(1) %108) #36
  %119 = add i64 %118, 1
  %120 = invoke noalias noundef nonnull ptr @_Znam(i64 noundef %119) #38
          to label %121 unwind label %233

121:                                              ; preds = %117
  %122 = call ptr @strcpy(ptr noundef nonnull dereferenceable(1) %120, ptr noundef nonnull dereferenceable(1) %108) #34
  br label %123

123:                                              ; preds = %121, %114, %112
  %124 = phi ptr [ %120, %121 ], [ null, %114 ], [ null, %112 ]
  store ptr %124, ptr %107, align 8, !tbaa !85
  %125 = load ptr, ptr %4, align 8, !tbaa !26
  %126 = getelementptr inbounds %"class.std::__cxx11::basic_string", ptr %4, i64 0, i32 2
  %127 = icmp eq ptr %125, %126
  br i1 %127, label %128, label %132

128:                                              ; preds = %123
  %129 = getelementptr inbounds %"class.std::__cxx11::basic_string", ptr %4, i64 0, i32 1
  %130 = load i64, ptr %129, align 8, !tbaa !29
  %131 = icmp ult i64 %130, 16
  call void @llvm.assume(i1 %131)
  br label %133

132:                                              ; preds = %123
  call void @_ZdlPv(ptr noundef %125) #35
  br label %133

133:                                              ; preds = %128, %132
  call void @llvm.lifetime.end.p0(i64 32, ptr nonnull %4) #34
  call void @llvm.lifetime.start.p0(i64 32, ptr nonnull %5) #34
  %134 = load ptr, ptr @CFGID_SNAPSHOTMANAGER_CLASS, align 8, !tbaa !32
  %135 = load ptr, ptr %9, align 8, !tbaa !20
  %136 = getelementptr inbounds ptr, ptr %135, i64 28
  %137 = load ptr, ptr %136, align 8
  call void %137(ptr nonnull sret(%"class.std::__cxx11::basic_string") align 8 %5, ptr noundef nonnull align 8 dereferenceable(8) %9, ptr noundef %134, ptr noundef nonnull @.str.47)
  %138 = getelementptr inbounds %class.EnvirBase, ptr %0, i64 0, i32 17
  %139 = load ptr, ptr %5, align 8, !tbaa !26
  %140 = load ptr, ptr %138, align 8, !tbaa !85
  %141 = icmp eq ptr %140, null
  br i1 %141, label %143, label %142

142:                                              ; preds = %133
  call void @_ZdaPv(ptr noundef nonnull %140) #35
  br label %143

143:                                              ; preds = %142, %133
  %144 = icmp eq ptr %139, null
  br i1 %144, label %154, label %145

145:                                              ; preds = %143
  %146 = load i8, ptr %139, align 1, !tbaa !30
  %147 = icmp eq i8 %146, 0
  br i1 %147, label %154, label %148

148:                                              ; preds = %145
  %149 = call i64 @strlen(ptr noundef nonnull dereferenceable(1) %139) #36
  %150 = add i64 %149, 1
  %151 = invoke noalias noundef nonnull ptr @_Znam(i64 noundef %150) #38
          to label %152 unwind label %244

152:                                              ; preds = %148
  %153 = call ptr @strcpy(ptr noundef nonnull dereferenceable(1) %151, ptr noundef nonnull dereferenceable(1) %139) #34
  br label %154

154:                                              ; preds = %152, %145, %143
  %155 = phi ptr [ %151, %152 ], [ null, %145 ], [ null, %143 ]
  store ptr %155, ptr %138, align 8, !tbaa !85
  %156 = load ptr, ptr %5, align 8, !tbaa !26
  %157 = getelementptr inbounds %"class.std::__cxx11::basic_string", ptr %5, i64 0, i32 2
  %158 = icmp eq ptr %156, %157
  br i1 %158, label %159, label %163

159:                                              ; preds = %154
  %160 = getelementptr inbounds %"class.std::__cxx11::basic_string", ptr %5, i64 0, i32 1
  %161 = load i64, ptr %160, align 8, !tbaa !29
  %162 = icmp ult i64 %161, 16
  call void @llvm.assume(i1 %162)
  br label %164

163:                                              ; preds = %154
  call void @_ZdlPv(ptr noundef %156) #35
  br label %164

164:                                              ; preds = %159, %163
  call void @llvm.lifetime.end.p0(i64 32, ptr nonnull %5) #34
  %165 = load ptr, ptr @CFGID_FNAME_APPEND_HOST, align 8, !tbaa !32
  %166 = load ptr, ptr %9, align 8, !tbaa !20
  %167 = getelementptr inbounds ptr, ptr %166, i64 25
  %168 = load ptr, ptr %167, align 8
  %169 = call noundef zeroext i1 %168(ptr noundef nonnull align 8 dereferenceable(8) %9, ptr noundef %165, i1 noundef zeroext false)
  %170 = getelementptr inbounds %class.EnvirBase, ptr %0, i64 0, i32 19
  %171 = zext i1 %169 to i8
  store i8 %171, ptr %170, align 1, !tbaa !94
  %172 = load ptr, ptr @CFGID_DEBUG_ON_ERRORS, align 8, !tbaa !32
  %173 = load ptr, ptr %9, align 8, !tbaa !20
  %174 = getelementptr inbounds ptr, ptr %173, i64 25
  %175 = load ptr, ptr %174, align 8
  %176 = call noundef zeroext i1 %175(ptr noundef nonnull align 8 dereferenceable(8) %9, ptr noundef %172, i1 noundef zeroext false)
  %177 = load ptr, ptr @_ZN11cSimulation5evPtrE, align 8, !tbaa !32
  %178 = getelementptr inbounds %class.cEnvir, ptr %177, i64 0, i32 3
  %179 = zext i1 %176 to i8
  store i8 %179, ptr %178, align 2, !tbaa !95
  %180 = load ptr, ptr @CFGID_PRINT_UNDISPOSED, align 8, !tbaa !32
  %181 = load ptr, ptr %9, align 8, !tbaa !20
  %182 = getelementptr inbounds ptr, ptr %181, i64 25
  %183 = load ptr, ptr %182, align 8
  %184 = call noundef zeroext i1 %183(ptr noundef nonnull align 8 dereferenceable(8) %9, ptr noundef %180, i1 noundef zeroext false)
  %185 = getelementptr inbounds %class.EnvirBase, ptr %0, i64 0, i32 21
  %186 = zext i1 %184 to i8
  store i8 %186, ptr %185, align 1, !tbaa !23
  %187 = load ptr, ptr @CFGID_SIMTIME_SCALE, align 8, !tbaa !32
  %188 = load ptr, ptr %9, align 8, !tbaa !20
  %189 = getelementptr inbounds ptr, ptr %188, i64 26
  %190 = load ptr, ptr %189, align 8
  %191 = call noundef i64 %190(ptr noundef nonnull align 8 dereferenceable(8) %9, ptr noundef %187, i64 noundef 0)
  %192 = trunc i64 %191 to i32
  call void @_ZN7SimTime11setScaleExpEi(i32 noundef %192)
  %193 = load ptr, ptr @CFGID_NETWORK, align 8, !tbaa !32
  %194 = load ptr, ptr %193, align 8, !tbaa !20
  %195 = getelementptr inbounds ptr, ptr %194, i64 6
  %196 = load ptr, ptr %195, align 8
  %197 = call noundef ptr %196(ptr noundef nonnull align 8 dereferenceable(20) %193)
  %198 = load ptr, ptr %9, align 8, !tbaa !20
  %199 = getelementptr inbounds ptr, ptr %198, i64 21
  %200 = load ptr, ptr %199, align 8
  %201 = call noundef nonnull align 8 dereferenceable(8) ptr %200(ptr noundef nonnull align 8 dereferenceable(8) %9, ptr noundef %197)
  %202 = load ptr, ptr %201, align 8, !tbaa !20
  %203 = getelementptr inbounds ptr, ptr %202, i64 4
  %204 = load ptr, ptr %203, align 8
  %205 = call noundef ptr %204(ptr noundef nonnull align 8 dereferenceable(8) %201)
  %206 = getelementptr inbounds %class.EnvirBase, ptr %0, i64 0, i32 11
  %207 = load ptr, ptr %206, align 8, !tbaa !85
  %208 = icmp eq ptr %207, null
  br i1 %208, label %210, label %209

209:                                              ; preds = %164
  call void @_ZdaPv(ptr noundef nonnull %207) #35
  br label %210

210:                                              ; preds = %209, %164
  %211 = icmp eq ptr %205, null
  br i1 %211, label %220, label %212

212:                                              ; preds = %210
  %213 = load i8, ptr %205, align 1, !tbaa !30
  %214 = icmp eq i8 %213, 0
  br i1 %214, label %220, label %215

215:                                              ; preds = %212
  %216 = call i64 @strlen(ptr noundef nonnull dereferenceable(1) %205) #36
  %217 = add i64 %216, 1
  %218 = call noalias noundef nonnull ptr @_Znam(i64 noundef %217) #38
  %219 = call ptr @strcpy(ptr noundef nonnull dereferenceable(1) %218, ptr noundef nonnull dereferenceable(1) %205) #34
  br label %220

220:                                              ; preds = %210, %212, %215
  %221 = phi ptr [ %218, %215 ], [ null, %212 ], [ null, %210 ]
  store ptr %221, ptr %206, align 8, !tbaa !85
  ret void

222:                                              ; preds = %70
  %223 = landingpad { ptr, i32 }
          cleanup
  %224 = load ptr, ptr %3, align 8, !tbaa !26
  %225 = getelementptr inbounds %"class.std::__cxx11::basic_string", ptr %3, i64 0, i32 2
  %226 = icmp eq ptr %224, %225
  br i1 %226, label %227, label %231

227:                                              ; preds = %222
  %228 = getelementptr inbounds %"class.std::__cxx11::basic_string", ptr %3, i64 0, i32 1
  %229 = load i64, ptr %228, align 8, !tbaa !29
  %230 = icmp ult i64 %229, 16
  call void @llvm.assume(i1 %230)
  br label %232

231:                                              ; preds = %222
  call void @_ZdlPv(ptr noundef %224) #35
  br label %232

232:                                              ; preds = %231, %227
  call void @llvm.lifetime.end.p0(i64 32, ptr nonnull %3) #34
  br label %255

233:                                              ; preds = %117
  %234 = landingpad { ptr, i32 }
          cleanup
  %235 = load ptr, ptr %4, align 8, !tbaa !26
  %236 = getelementptr inbounds %"class.std::__cxx11::basic_string", ptr %4, i64 0, i32 2
  %237 = icmp eq ptr %235, %236
  br i1 %237, label %238, label %242

238:                                              ; preds = %233
  %239 = getelementptr inbounds %"class.std::__cxx11::basic_string", ptr %4, i64 0, i32 1
  %240 = load i64, ptr %239, align 8, !tbaa !29
  %241 = icmp ult i64 %240, 16
  call void @llvm.assume(i1 %241)
  br label %243

242:                                              ; preds = %233
  call void @_ZdlPv(ptr noundef %235) #35
  br label %243

243:                                              ; preds = %242, %238
  call void @llvm.lifetime.end.p0(i64 32, ptr nonnull %4) #34
  br label %255

244:                                              ; preds = %148
  %245 = landingpad { ptr, i32 }
          cleanup
  %246 = load ptr, ptr %5, align 8, !tbaa !26
  %247 = getelementptr inbounds %"class.std::__cxx11::basic_string", ptr %5, i64 0, i32 2
  %248 = icmp eq ptr %246, %247
  br i1 %248, label %249, label %253

249:                                              ; preds = %244
  %250 = getelementptr inbounds %"class.std::__cxx11::basic_string", ptr %5, i64 0, i32 1
  %251 = load i64, ptr %250, align 8, !tbaa !29
  %252 = icmp ult i64 %251, 16
  call void @llvm.assume(i1 %252)
  br label %254

253:                                              ; preds = %244
  call void @_ZdlPv(ptr noundef %246) #35
  br label %254

254:                                              ; preds = %253, %249
  call void @llvm.lifetime.end.p0(i64 32, ptr nonnull %5) #34
  br label %255

255:                                              ; preds = %254, %243, %232, %90, %86
  %256 = phi { ptr, i32 } [ %91, %90 ], [ %245, %254 ], [ %234, %243 ], [ %223, %232 ], [ %77, %86 ]
  resume { ptr, i32 } %256
}

; Function Attrs: sspstrong uwtable
define dso_local void @_ZN9EnvirBase17readPerRunOptionsEv(ptr noundef nonnull align 8 dereferenceable(600) %0) unnamed_addr #0 align 2 personality ptr @__gxx_personality_v0 {
  %2 = alloca %"class.std::__cxx11::basic_string", align 8
  %3 = alloca %"class.std::__cxx11::basic_string", align 8
  %4 = alloca %"class.std::__cxx11::basic_string", align 8
  %5 = load ptr, ptr %0, align 8, !tbaa !20
  %6 = getelementptr inbounds ptr, ptr %5, i64 31
  %7 = load ptr, ptr %6, align 8
  %8 = tail call noundef ptr %7(ptr noundef nonnull align 8 dereferenceable(600) %0)
  call void @llvm.lifetime.start.p0(i64 32, ptr nonnull %2) #34
  %9 = load ptr, ptr @CFGID_NETWORK, align 8, !tbaa !32
  %10 = load ptr, ptr %8, align 8, !tbaa !20
  %11 = getelementptr inbounds ptr, ptr %10, i64 28
  %12 = load ptr, ptr %11, align 8
  call void %12(ptr nonnull sret(%"class.std::__cxx11::basic_string") align 8 %2, ptr noundef nonnull align 8 dereferenceable(8) %8, ptr noundef %9, ptr noundef nonnull @.str.47)
  %13 = getelementptr inbounds %class.EnvirBase, ptr %0, i64 0, i32 10
  %14 = load ptr, ptr %2, align 8, !tbaa !26
  %15 = load ptr, ptr %13, align 8, !tbaa !85
  %16 = icmp eq ptr %15, null
  br i1 %16, label %18, label %17

17:                                               ; preds = %1
  call void @_ZdaPv(ptr noundef nonnull %15) #35
  br label %18

18:                                               ; preds = %17, %1
  %19 = icmp eq ptr %14, null
  br i1 %19, label %29, label %20

20:                                               ; preds = %18
  %21 = load i8, ptr %14, align 1, !tbaa !30
  %22 = icmp eq i8 %21, 0
  br i1 %22, label %29, label %23

23:                                               ; preds = %20
  %24 = call i64 @strlen(ptr noundef nonnull dereferenceable(1) %14) #36
  %25 = add i64 %24, 1
  %26 = invoke noalias noundef nonnull ptr @_Znam(i64 noundef %25) #38
          to label %27 unwind label %191

27:                                               ; preds = %23
  %28 = call ptr @strcpy(ptr noundef nonnull dereferenceable(1) %26, ptr noundef nonnull dereferenceable(1) %14) #34
  br label %29

29:                                               ; preds = %27, %20, %18
  %30 = phi ptr [ %26, %27 ], [ null, %20 ], [ null, %18 ]
  store ptr %30, ptr %13, align 8, !tbaa !85
  %31 = load ptr, ptr %2, align 8, !tbaa !26
  %32 = getelementptr inbounds %"class.std::__cxx11::basic_string", ptr %2, i64 0, i32 2
  %33 = icmp eq ptr %31, %32
  br i1 %33, label %34, label %38

34:                                               ; preds = %29
  %35 = getelementptr inbounds %"class.std::__cxx11::basic_string", ptr %2, i64 0, i32 1
  %36 = load i64, ptr %35, align 8, !tbaa !29
  %37 = icmp ult i64 %36, 16
  call void @llvm.assume(i1 %37)
  br label %39

38:                                               ; preds = %29
  call void @_ZdlPv(ptr noundef %31) #35
  br label %39

39:                                               ; preds = %34, %38
  call void @llvm.lifetime.end.p0(i64 32, ptr nonnull %2) #34
  %40 = load ptr, ptr @CFGID_NETWORK, align 8, !tbaa !32
  %41 = load ptr, ptr %40, align 8, !tbaa !20
  %42 = getelementptr inbounds ptr, ptr %41, i64 6
  %43 = load ptr, ptr %42, align 8
  %44 = call noundef ptr %43(ptr noundef nonnull align 8 dereferenceable(20) %40)
  %45 = load ptr, ptr %8, align 8, !tbaa !20
  %46 = getelementptr inbounds ptr, ptr %45, i64 21
  %47 = load ptr, ptr %46, align 8
  %48 = call noundef nonnull align 8 dereferenceable(8) ptr %47(ptr noundef nonnull align 8 dereferenceable(8) %8, ptr noundef %44)
  %49 = load ptr, ptr %48, align 8, !tbaa !20
  %50 = getelementptr inbounds ptr, ptr %49, i64 4
  %51 = load ptr, ptr %50, align 8
  %52 = call noundef ptr %51(ptr noundef nonnull align 8 dereferenceable(8) %48)
  %53 = getelementptr inbounds %class.EnvirBase, ptr %0, i64 0, i32 11
  %54 = load ptr, ptr %53, align 8, !tbaa !85
  %55 = icmp eq ptr %54, null
  br i1 %55, label %57, label %56

56:                                               ; preds = %39
  call void @_ZdaPv(ptr noundef nonnull %54) #35
  br label %57

57:                                               ; preds = %56, %39
  %58 = icmp eq ptr %52, null
  br i1 %58, label %67, label %59

59:                                               ; preds = %57
  %60 = load i8, ptr %52, align 1, !tbaa !30
  %61 = icmp eq i8 %60, 0
  br i1 %61, label %67, label %62

62:                                               ; preds = %59
  %63 = call i64 @strlen(ptr noundef nonnull dereferenceable(1) %52) #36
  %64 = add i64 %63, 1
  %65 = call noalias noundef nonnull ptr @_Znam(i64 noundef %64) #38
  %66 = call ptr @strcpy(ptr noundef nonnull dereferenceable(1) %65, ptr noundef nonnull dereferenceable(1) %52) #34
  br label %67

67:                                               ; preds = %57, %59, %62
  %68 = phi ptr [ %65, %62 ], [ null, %59 ], [ null, %57 ]
  store ptr %68, ptr %53, align 8, !tbaa !85
  %69 = load ptr, ptr @CFGID_WARNINGS, align 8, !tbaa !32
  %70 = load ptr, ptr %8, align 8, !tbaa !20
  %71 = getelementptr inbounds ptr, ptr %70, i64 25
  %72 = load ptr, ptr %71, align 8
  %73 = call noundef zeroext i1 %72(ptr noundef nonnull align 8 dereferenceable(8) %8, ptr noundef %69, i1 noundef zeroext false)
  %74 = getelementptr inbounds %class.EnvirBase, ptr %0, i64 0, i32 20
  %75 = zext i1 %73 to i8
  store i8 %75, ptr %74, align 2, !tbaa !96
  %76 = load ptr, ptr @CFGID_SIM_TIME_LIMIT, align 8, !tbaa !32
  %77 = load ptr, ptr %8, align 8, !tbaa !20
  %78 = getelementptr inbounds ptr, ptr %77, i64 27
  %79 = load ptr, ptr %78, align 8
  %80 = call noundef double %79(ptr noundef nonnull align 8 dereferenceable(8) %8, ptr noundef %76, double noundef 0.000000e+00)
  %81 = getelementptr inbounds %class.EnvirBase, ptr %0, i64 0, i32 22
  %82 = load i32, ptr @_ZN7SimTime8scaleexpE, align 4, !tbaa !42
  %83 = icmp eq i32 %82, 65535
  br i1 %83, label %84, label %85

84:                                               ; preds = %67
  call void @_ZN7SimTime9initErrorEd(ptr noundef nonnull align 8 dereferenceable(8) %81, double noundef %80)
  br label %85

85:                                               ; preds = %84, %67
  %86 = load double, ptr @_ZN7SimTime6fscaleE, align 8, !tbaa !97
  %87 = fmul double %80, %86
  %88 = call double @llvm.fabs.f64(double %87)
  %89 = fcmp ogt double %88, 0x43DFFFFFFFFFEDC8
  br i1 %89, label %90, label %91

90:                                               ; preds = %85
  call void @_ZN7SimTime10rangeErrorEd(ptr noundef nonnull align 8 dereferenceable(8) %81, double noundef %87)
  br label %91

91:                                               ; preds = %85, %90
  %92 = fptosi double %87 to i64
  store i64 %92, ptr %81, align 8, !tbaa !22
  %93 = load ptr, ptr @CFGID_CPU_TIME_LIMIT, align 8, !tbaa !32
  %94 = load ptr, ptr %8, align 8, !tbaa !20
  %95 = getelementptr inbounds ptr, ptr %94, i64 27
  %96 = load ptr, ptr %95, align 8
  %97 = call noundef double %96(ptr noundef nonnull align 8 dereferenceable(8) %8, ptr noundef %93, double noundef 0.000000e+00)
  %98 = fptosi double %97 to i64
  %99 = getelementptr inbounds %class.EnvirBase, ptr %0, i64 0, i32 23
  store i64 %98, ptr %99, align 8, !tbaa !99
  call void @llvm.lifetime.start.p0(i64 32, ptr nonnull %3) #34
  %100 = load ptr, ptr @CFGID_FINGERPRINT, align 8, !tbaa !32
  %101 = load ptr, ptr %8, align 8, !tbaa !20
  %102 = getelementptr inbounds ptr, ptr %101, i64 28
  %103 = load ptr, ptr %102, align 8
  call void %103(ptr nonnull sret(%"class.std::__cxx11::basic_string") align 8 %3, ptr noundef nonnull align 8 dereferenceable(8) %8, ptr noundef %100, ptr noundef nonnull @.str.47)
  %104 = getelementptr inbounds %class.EnvirBase, ptr %0, i64 0, i32 24
  %105 = load ptr, ptr %3, align 8, !tbaa !26
  %106 = load ptr, ptr %104, align 8, !tbaa !85
  %107 = icmp eq ptr %106, null
  br i1 %107, label %109, label %108

108:                                              ; preds = %91
  call void @_ZdaPv(ptr noundef nonnull %106) #35
  br label %109

109:                                              ; preds = %108, %91
  %110 = icmp eq ptr %105, null
  br i1 %110, label %120, label %111

111:                                              ; preds = %109
  %112 = load i8, ptr %105, align 1, !tbaa !30
  %113 = icmp eq i8 %112, 0
  br i1 %113, label %120, label %114

114:                                              ; preds = %111
  %115 = call i64 @strlen(ptr noundef nonnull dereferenceable(1) %105) #36
  %116 = add i64 %115, 1
  %117 = invoke noalias noundef nonnull ptr @_Znam(i64 noundef %116) #38
          to label %118 unwind label %202

118:                                              ; preds = %114
  %119 = call ptr @strcpy(ptr noundef nonnull dereferenceable(1) %117, ptr noundef nonnull dereferenceable(1) %105) #34
  br label %120

120:                                              ; preds = %118, %111, %109
  %121 = phi ptr [ %117, %118 ], [ null, %111 ], [ null, %109 ]
  store ptr %121, ptr %104, align 8, !tbaa !85
  %122 = load ptr, ptr %3, align 8, !tbaa !26
  %123 = getelementptr inbounds %"class.std::__cxx11::basic_string", ptr %3, i64 0, i32 2
  %124 = icmp eq ptr %122, %123
  br i1 %124, label %125, label %129

125:                                              ; preds = %120
  %126 = getelementptr inbounds %"class.std::__cxx11::basic_string", ptr %3, i64 0, i32 1
  %127 = load i64, ptr %126, align 8, !tbaa !29
  %128 = icmp ult i64 %127, 16
  call void @llvm.assume(i1 %128)
  br label %130

129:                                              ; preds = %120
  call void @_ZdlPv(ptr noundef %122) #35
  br label %130

130:                                              ; preds = %125, %129
  call void @llvm.lifetime.end.p0(i64 32, ptr nonnull %3) #34
  %131 = load ptr, ptr @CFGID_NUM_RNGS, align 8, !tbaa !32
  %132 = load ptr, ptr %8, align 8, !tbaa !20
  %133 = getelementptr inbounds ptr, ptr %132, i64 26
  %134 = load ptr, ptr %133, align 8
  %135 = call noundef i64 %134(ptr noundef nonnull align 8 dereferenceable(8) %8, ptr noundef %131, i64 noundef 0)
  %136 = trunc i64 %135 to i32
  %137 = getelementptr inbounds %class.EnvirBase, ptr %0, i64 0, i32 12
  store i32 %136, ptr %137, align 8, !tbaa !100
  call void @llvm.lifetime.start.p0(i64 32, ptr nonnull %4) #34
  %138 = load ptr, ptr @CFGID_RNG_CLASS, align 8, !tbaa !32
  %139 = load ptr, ptr %8, align 8, !tbaa !20
  %140 = getelementptr inbounds ptr, ptr %139, i64 28
  %141 = load ptr, ptr %140, align 8
  call void %141(ptr nonnull sret(%"class.std::__cxx11::basic_string") align 8 %4, ptr noundef nonnull align 8 dereferenceable(8) %8, ptr noundef %138, ptr noundef nonnull @.str.47)
  %142 = getelementptr inbounds %class.EnvirBase, ptr %0, i64 0, i32 13
  %143 = load ptr, ptr %4, align 8, !tbaa !26
  %144 = load ptr, ptr %142, align 8, !tbaa !85
  %145 = icmp eq ptr %144, null
  br i1 %145, label %147, label %146

146:                                              ; preds = %130
  call void @_ZdaPv(ptr noundef nonnull %144) #35
  br label %147

147:                                              ; preds = %146, %130
  %148 = icmp eq ptr %143, null
  br i1 %148, label %158, label %149

149:                                              ; preds = %147
  %150 = load i8, ptr %143, align 1, !tbaa !30
  %151 = icmp eq i8 %150, 0
  br i1 %151, label %158, label %152

152:                                              ; preds = %149
  %153 = call i64 @strlen(ptr noundef nonnull dereferenceable(1) %143) #36
  %154 = add i64 %153, 1
  %155 = invoke noalias noundef nonnull ptr @_Znam(i64 noundef %154) #38
          to label %156 unwind label %213

156:                                              ; preds = %152
  %157 = call ptr @strcpy(ptr noundef nonnull dereferenceable(1) %155, ptr noundef nonnull dereferenceable(1) %143) #34
  br label %158

158:                                              ; preds = %156, %149, %147
  %159 = phi ptr [ %155, %156 ], [ null, %149 ], [ null, %147 ]
  store ptr %159, ptr %142, align 8, !tbaa !85
  %160 = load ptr, ptr %4, align 8, !tbaa !26
  %161 = getelementptr inbounds %"class.std::__cxx11::basic_string", ptr %4, i64 0, i32 2
  %162 = icmp eq ptr %160, %161
  br i1 %162, label %163, label %167

163:                                              ; preds = %158
  %164 = getelementptr inbounds %"class.std::__cxx11::basic_string", ptr %4, i64 0, i32 1
  %165 = load i64, ptr %164, align 8, !tbaa !29
  %166 = icmp ult i64 %165, 16
  call void @llvm.assume(i1 %166)
  br label %168

167:                                              ; preds = %158
  call void @_ZdlPv(ptr noundef %160) #35
  br label %168

168:                                              ; preds = %163, %167
  call void @llvm.lifetime.end.p0(i64 32, ptr nonnull %4) #34
  %169 = load ptr, ptr @CFGID_SEED_SET, align 8, !tbaa !32
  %170 = load ptr, ptr %8, align 8, !tbaa !20
  %171 = getelementptr inbounds ptr, ptr %170, i64 26
  %172 = load ptr, ptr %171, align 8
  %173 = call noundef i64 %172(ptr noundef nonnull align 8 dereferenceable(8) %8, ptr noundef %169, i64 noundef 0)
  %174 = trunc i64 %173 to i32
  %175 = getelementptr inbounds %class.EnvirBase, ptr %0, i64 0, i32 14
  store i32 %174, ptr %175, align 8, !tbaa !101
  %176 = load ptr, ptr @CFGID_RECORD_EVENTLOG, align 8, !tbaa !32
  %177 = load ptr, ptr %8, align 8, !tbaa !20
  %178 = getelementptr inbounds ptr, ptr %177, i64 25
  %179 = load ptr, ptr %178, align 8
  %180 = call noundef zeroext i1 %179(ptr noundef nonnull align 8 dereferenceable(8) %8, ptr noundef %176, i1 noundef zeroext false)
  %181 = getelementptr inbounds %class.EnvirBase, ptr %0, i64 0, i32 18
  %182 = zext i1 %180 to i8
  store i8 %182, ptr %181, align 8, !tbaa !102
  %183 = load ptr, ptr %104, align 8, !tbaa !85
  %184 = icmp eq ptr %183, null
  br i1 %184, label %224, label %185

185:                                              ; preds = %168
  %186 = load i8, ptr %183, align 1, !tbaa !30
  %187 = icmp eq i8 %186, 0
  br i1 %187, label %224, label %188

188:                                              ; preds = %185
  %189 = load ptr, ptr @_ZN11cSimulation6simPtrE, align 8, !tbaa !32
  %190 = call noalias noundef nonnull dereferenceable(4) ptr @_Znwm(i64 noundef 4) #38
  store i32 0, ptr %190, align 4, !tbaa !103
  call void @_ZN11cSimulation9setHasherEP7cHasher(ptr noundef nonnull align 8 dereferenceable(224) %189, ptr noundef nonnull %190)
  br label %226

191:                                              ; preds = %23
  %192 = landingpad { ptr, i32 }
          cleanup
  %193 = load ptr, ptr %2, align 8, !tbaa !26
  %194 = getelementptr inbounds %"class.std::__cxx11::basic_string", ptr %2, i64 0, i32 2
  %195 = icmp eq ptr %193, %194
  br i1 %195, label %196, label %200

196:                                              ; preds = %191
  %197 = getelementptr inbounds %"class.std::__cxx11::basic_string", ptr %2, i64 0, i32 1
  %198 = load i64, ptr %197, align 8, !tbaa !29
  %199 = icmp ult i64 %198, 16
  call void @llvm.assume(i1 %199)
  br label %201

200:                                              ; preds = %191
  call void @_ZdlPv(ptr noundef %193) #35
  br label %201

201:                                              ; preds = %200, %196
  call void @llvm.lifetime.end.p0(i64 32, ptr nonnull %2) #34
  br label %339

202:                                              ; preds = %114
  %203 = landingpad { ptr, i32 }
          cleanup
  %204 = load ptr, ptr %3, align 8, !tbaa !26
  %205 = getelementptr inbounds %"class.std::__cxx11::basic_string", ptr %3, i64 0, i32 2
  %206 = icmp eq ptr %204, %205
  br i1 %206, label %207, label %211

207:                                              ; preds = %202
  %208 = getelementptr inbounds %"class.std::__cxx11::basic_string", ptr %3, i64 0, i32 1
  %209 = load i64, ptr %208, align 8, !tbaa !29
  %210 = icmp ult i64 %209, 16
  call void @llvm.assume(i1 %210)
  br label %212

211:                                              ; preds = %202
  call void @_ZdlPv(ptr noundef %204) #35
  br label %212

212:                                              ; preds = %211, %207
  call void @llvm.lifetime.end.p0(i64 32, ptr nonnull %3) #34
  br label %339

213:                                              ; preds = %152
  %214 = landingpad { ptr, i32 }
          cleanup
  %215 = load ptr, ptr %4, align 8, !tbaa !26
  %216 = getelementptr inbounds %"class.std::__cxx11::basic_string", ptr %4, i64 0, i32 2
  %217 = icmp eq ptr %215, %216
  br i1 %217, label %218, label %222

218:                                              ; preds = %213
  %219 = getelementptr inbounds %"class.std::__cxx11::basic_string", ptr %4, i64 0, i32 1
  %220 = load i64, ptr %219, align 8, !tbaa !29
  %221 = icmp ult i64 %220, 16
  call void @llvm.assume(i1 %221)
  br label %223

222:                                              ; preds = %213
  call void @_ZdlPv(ptr noundef %215) #35
  br label %223

223:                                              ; preds = %222, %218
  call void @llvm.lifetime.end.p0(i64 32, ptr nonnull %4) #34
  br label %339

224:                                              ; preds = %168, %185
  %225 = load ptr, ptr @_ZN11cSimulation6simPtrE, align 8, !tbaa !32
  call void @_ZN11cSimulation9setHasherEP7cHasher(ptr noundef nonnull align 8 dereferenceable(224) %225, ptr noundef null)
  br label %226

226:                                              ; preds = %224, %188
  %227 = load ptr, ptr %142, align 8, !tbaa !85
  %228 = icmp eq ptr %227, null
  %229 = select i1 %228, ptr @.str.47, ptr %227
  %230 = call noundef ptr @_ZN13cClassFactory9createOneEPKc(ptr noundef nonnull %229)
  %231 = icmp eq ptr %230, null
  br i1 %231, label %232, label %240

232:                                              ; preds = %226
  %233 = call ptr @__cxa_allocate_exception(i64 128) #34
  %234 = load ptr, ptr %142, align 8, !tbaa !85
  %235 = icmp eq ptr %234, null
  %236 = select i1 %235, ptr @.str.47, ptr %234
  invoke void (ptr, ptr, ...) @_ZN13cRuntimeErrorC1EPKcz(ptr noundef nonnull align 8 dereferenceable(124) %233, ptr noundef nonnull @.str.242, ptr noundef nonnull %236)
          to label %237 unwind label %238

237:                                              ; preds = %232
  call void @__cxa_throw(ptr nonnull %233, ptr nonnull @_ZTI13cRuntimeError, ptr nonnull @_ZN10cExceptionD2Ev) #37
  unreachable

238:                                              ; preds = %232
  %239 = landingpad { ptr, i32 }
          cleanup
  call void @__cxa_free_exception(ptr %233) #34
  br label %339

240:                                              ; preds = %226
  %241 = load ptr, ptr %230, align 8, !tbaa !20
  %242 = getelementptr inbounds ptr, ptr %241, i64 20
  %243 = load ptr, ptr %242, align 8
  call void %243(ptr noundef nonnull align 8 dereferenceable(16) %230)
  %244 = load ptr, ptr %230, align 8, !tbaa !20
  %245 = getelementptr inbounds ptr, ptr %244, i64 4
  %246 = load ptr, ptr %245, align 8
  call void %246(ptr noundef nonnull align 8 dereferenceable(16) %230)
  %247 = getelementptr inbounds %class.EnvirBase, ptr %0, i64 0, i32 27
  %248 = load i32, ptr %247, align 8, !tbaa !37
  %249 = icmp sgt i32 %248, 0
  br i1 %249, label %250, label %269

250:                                              ; preds = %240
  %251 = getelementptr inbounds %class.EnvirBase, ptr %0, i64 0, i32 28
  br label %252

252:                                              ; preds = %250, %264
  %253 = phi i32 [ %248, %250 ], [ %265, %264 ]
  %254 = phi i64 [ 0, %250 ], [ %266, %264 ]
  %255 = load ptr, ptr %251, align 8, !tbaa !38
  %256 = getelementptr inbounds ptr, ptr %255, i64 %254
  %257 = load ptr, ptr %256, align 8, !tbaa !32
  %258 = icmp eq ptr %257, null
  br i1 %258, label %264, label %259

259:                                              ; preds = %252
  %260 = load ptr, ptr %257, align 8, !tbaa !20
  %261 = getelementptr inbounds ptr, ptr %260, i64 4
  %262 = load ptr, ptr %261, align 8
  call void %262(ptr noundef nonnull align 8 dereferenceable(16) %257)
  %263 = load i32, ptr %247, align 8, !tbaa !37
  br label %264

264:                                              ; preds = %252, %259
  %265 = phi i32 [ %253, %252 ], [ %263, %259 ]
  %266 = add nuw nsw i64 %254, 1
  %267 = sext i32 %265 to i64
  %268 = icmp slt i64 %266, %267
  br i1 %268, label %252, label %269

269:                                              ; preds = %264, %240
  %270 = getelementptr inbounds %class.EnvirBase, ptr %0, i64 0, i32 28
  %271 = load ptr, ptr %270, align 8, !tbaa !38
  %272 = icmp eq ptr %271, null
  br i1 %272, label %274, label %273

273:                                              ; preds = %269
  call void @_ZdaPv(ptr noundef nonnull %271) #35
  br label %274

274:                                              ; preds = %273, %269
  %275 = load i32, ptr %137, align 8, !tbaa !100
  store i32 %275, ptr %247, align 8, !tbaa !37
  %276 = sext i32 %275 to i64
  %277 = icmp slt i32 %275, 0
  %278 = shl nsw i64 %276, 3
  %279 = select i1 %277, i64 -1, i64 %278
  %280 = call noalias noundef nonnull ptr @_Znam(i64 noundef %279) #38
  store ptr %280, ptr %270, align 8, !tbaa !38
  %281 = icmp sgt i32 %275, 0
  br i1 %281, label %282, label %325

282:                                              ; preds = %274, %297
  %283 = phi i64 [ %321, %297 ], [ 0, %274 ]
  %284 = load ptr, ptr %142, align 8, !tbaa !85
  %285 = icmp eq ptr %284, null
  %286 = select i1 %285, ptr @.str.47, ptr %284
  %287 = call noundef ptr @_ZN13cClassFactory9createOneEPKc(ptr noundef nonnull %286)
  %288 = icmp eq ptr %287, null
  br i1 %288, label %289, label %297

289:                                              ; preds = %282
  %290 = call ptr @__cxa_allocate_exception(i64 128) #34
  %291 = load ptr, ptr %142, align 8, !tbaa !85
  %292 = icmp eq ptr %291, null
  %293 = select i1 %292, ptr @.str.47, ptr %291
  invoke void (ptr, ptr, ...) @_ZN13cRuntimeErrorC1EPKcz(ptr noundef nonnull align 8 dereferenceable(124) %290, ptr noundef nonnull @.str.242, ptr noundef nonnull %293)
          to label %294 unwind label %295

294:                                              ; preds = %289
  call void @__cxa_throw(ptr nonnull %290, ptr nonnull @_ZTI13cRuntimeError, ptr nonnull @_ZN10cExceptionD2Ev) #37
  unreachable

295:                                              ; preds = %289
  %296 = landingpad { ptr, i32 }
          cleanup
  call void @__cxa_free_exception(ptr %290) #34
  br label %339

297:                                              ; preds = %282
  %298 = load ptr, ptr %270, align 8, !tbaa !38
  %299 = getelementptr inbounds ptr, ptr %298, i64 %283
  store ptr %287, ptr %299, align 8, !tbaa !32
  %300 = load ptr, ptr %270, align 8, !tbaa !38
  %301 = getelementptr inbounds ptr, ptr %300, i64 %283
  %302 = load ptr, ptr %301, align 8, !tbaa !32
  %303 = load i32, ptr %175, align 8, !tbaa !101
  %304 = load i32, ptr %247, align 8, !tbaa !37
  %305 = load ptr, ptr %0, align 8, !tbaa !20
  %306 = getelementptr inbounds ptr, ptr %305, i64 53
  %307 = load ptr, ptr %306, align 8
  %308 = call noundef i32 %307(ptr noundef nonnull align 8 dereferenceable(600) %0)
  %309 = load ptr, ptr %0, align 8, !tbaa !20
  %310 = getelementptr inbounds ptr, ptr %309, i64 54
  %311 = load ptr, ptr %310, align 8
  %312 = call noundef i32 %311(ptr noundef nonnull align 8 dereferenceable(600) %0)
  %313 = load ptr, ptr %0, align 8, !tbaa !20
  %314 = getelementptr inbounds ptr, ptr %313, i64 31
  %315 = load ptr, ptr %314, align 8
  %316 = call noundef ptr %315(ptr noundef nonnull align 8 dereferenceable(600) %0)
  %317 = load ptr, ptr %302, align 8, !tbaa !20
  %318 = getelementptr inbounds ptr, ptr %317, i64 19
  %319 = load ptr, ptr %318, align 8
  %320 = trunc i64 %283 to i32
  call void %319(ptr noundef nonnull align 8 dereferenceable(16) %302, i32 noundef %303, i32 noundef %320, i32 noundef %304, i32 noundef %308, i32 noundef %312, ptr noundef %316)
  %321 = add nuw nsw i64 %283, 1
  %322 = load i32, ptr %247, align 8, !tbaa !37
  %323 = sext i32 %322 to i64
  %324 = icmp slt i64 %321, %323
  br i1 %324, label %282, label %325

325:                                              ; preds = %297, %274
  %326 = getelementptr inbounds %class.EnvirBase, ptr %0, i64 0, i32 33
  store i64 0, ptr %326, align 8, !tbaa !80
  %327 = load i8, ptr %181, align 8, !tbaa !102, !range !24, !noundef !25
  %328 = icmp eq i8 %327, 0
  br i1 %328, label %338, label %329

329:                                              ; preds = %325
  %330 = call noalias noundef nonnull dereferenceable(48) ptr @_Znwm(i64 noundef 48) #38
  invoke void @_ZN19EventlogFileManagerC1Ev(ptr noundef nonnull align 8 dereferenceable(43) %330)
          to label %331 unwind label %336

331:                                              ; preds = %329
  %332 = getelementptr inbounds %class.EnvirBase, ptr %0, i64 0, i32 29
  store ptr %330, ptr %332, align 8, !tbaa !6
  %333 = load ptr, ptr %330, align 8, !tbaa !20
  %334 = getelementptr inbounds ptr, ptr %333, i64 2
  %335 = load ptr, ptr %334, align 8
  call void %335(ptr noundef nonnull align 8 dereferenceable(43) %330)
  br label %338

336:                                              ; preds = %329
  %337 = landingpad { ptr, i32 }
          cleanup
  call void @_ZdlPv(ptr noundef nonnull %330) #35
  br label %339

338:                                              ; preds = %331, %325
  ret void

339:                                              ; preds = %238, %336, %295, %223, %212, %201
  %340 = phi { ptr, i32 } [ %214, %223 ], [ %203, %212 ], [ %192, %201 ], [ %239, %238 ], [ %296, %295 ], [ %337, %336 ]
  resume { ptr, i32 } %340
}

; Function Attrs: sspstrong uwtable
define dso_local void @_ZN9EnvirBase15processFileNameER10opp_string(ptr nocapture noundef nonnull readonly align 8 dereferenceable(600) %0, ptr nocapture noundef nonnull align 8 dereferenceable(8) %1) unnamed_addr #0 align 2 personality ptr @__gxx_personality_v0 {
  %3 = alloca i64, align 8
  %4 = alloca %"class.std::__cxx11::basic_string", align 8
  %5 = alloca %"class.std::__cxx11::basic_string", align 8
  call void @llvm.lifetime.start.p0(i64 32, ptr nonnull %4) #34
  %6 = load ptr, ptr %1, align 8, !tbaa !85
  %7 = icmp eq ptr %6, null
  %8 = select i1 %7, ptr @.str.47, ptr %6
  %9 = getelementptr inbounds %"class.std::__cxx11::basic_string", ptr %4, i64 0, i32 2
  store ptr %9, ptr %4, align 8, !tbaa !92
  %10 = call i64 @strlen(ptr noundef nonnull dereferenceable(1) %8) #34
  call void @llvm.lifetime.start.p0(i64 8, ptr nonnull %3) #34
  store i64 %10, ptr %3, align 8, !tbaa !93
  %11 = icmp ugt i64 %10, 15
  br i1 %11, label %12, label %15

12:                                               ; preds = %2
  %13 = call noundef ptr @_ZNSt7__cxx1112basic_stringIcSt11char_traitsIcESaIcEE9_M_createERmm(ptr noundef nonnull align 8 dereferenceable(32) %4, ptr noundef nonnull align 8 dereferenceable(8) %3, i64 noundef 0)
  store ptr %13, ptr %4, align 8, !tbaa !26
  %14 = load i64, ptr %3, align 8, !tbaa !93
  store i64 %14, ptr %9, align 8, !tbaa !30
  br label %15

15:                                               ; preds = %12, %2
  %16 = phi ptr [ %13, %12 ], [ %9, %2 ]
  switch i64 %10, label %19 [
    i64 1, label %17
    i64 0, label %20
  ]

17:                                               ; preds = %15
  %18 = load i8, ptr %8, align 1, !tbaa !30
  store i8 %18, ptr %16, align 1, !tbaa !30
  br label %20

19:                                               ; preds = %15
  call void @llvm.memcpy.p0.p0.i64(ptr align 1 %16, ptr nonnull align 1 %8, i64 %10, i1 false)
  br label %20

20:                                               ; preds = %19, %17, %15
  %21 = load i64, ptr %3, align 8, !tbaa !93
  %22 = getelementptr inbounds %"class.std::__cxx11::basic_string", ptr %4, i64 0, i32 1
  store i64 %21, ptr %22, align 8, !tbaa !29
  %23 = load ptr, ptr %4, align 8, !tbaa !26
  %24 = getelementptr inbounds i8, ptr %23, i64 %21
  store i8 0, ptr %24, align 1, !tbaa !30
  call void @llvm.lifetime.end.p0(i64 8, ptr nonnull %3) #34
  %25 = getelementptr inbounds %class.EnvirBase, ptr %0, i64 0, i32 19
  %26 = load i8, ptr %25, align 1, !tbaa !94, !range !24, !noundef !25
  %27 = icmp eq i8 %26, 0
  br i1 %27, label %83, label %28

28:                                               ; preds = %20
  %29 = call ptr @getenv(ptr noundef nonnull @.str.237) #34
  %30 = icmp eq ptr %29, null
  br i1 %30, label %31, label %47

31:                                               ; preds = %28
  %32 = call ptr @getenv(ptr noundef nonnull @.str.238) #34
  %33 = icmp eq ptr %32, null
  br i1 %33, label %34, label %47

34:                                               ; preds = %31
  %35 = call ptr @getenv(ptr noundef nonnull @.str.239) #34
  %36 = icmp eq ptr %35, null
  br i1 %36, label %37, label %47

37:                                               ; preds = %34
  %38 = call ptr @__cxa_allocate_exception(i64 128) #34
  %39 = load ptr, ptr %1, align 8, !tbaa !85
  %40 = icmp eq ptr %39, null
  %41 = select i1 %40, ptr @.str.47, ptr %39
  invoke void (ptr, ptr, ...) @_ZN13cRuntimeErrorC1EPKcz(ptr noundef nonnull align 8 dereferenceable(124) %38, ptr noundef nonnull @.str.240, ptr noundef nonnull %41)
          to label %42 unwind label %43

42:                                               ; preds = %37
  invoke void @__cxa_throw(ptr nonnull %38, ptr nonnull @_ZTI13cRuntimeError, ptr nonnull @_ZN10cExceptionD2Ev) #37
          to label %119 unwind label %45

43:                                               ; preds = %37
  %44 = landingpad { ptr, i32 }
          cleanup
  call void @__cxa_free_exception(ptr %38) #34
  br label %110

45:                                               ; preds = %42
  %46 = landingpad { ptr, i32 }
          cleanup
  br label %110

47:                                               ; preds = %28, %31, %34
  %48 = phi ptr [ %35, %34 ], [ %32, %31 ], [ %29, %28 ]
  %49 = call i32 @getpid() #34
  call void @llvm.lifetime.start.p0(i64 32, ptr nonnull %5) #34
  invoke void (ptr, ptr, ...) @_Z11opp_stringfB5cxx11PKcz(ptr nonnull sret(%"class.std::__cxx11::basic_string") align 8 %5, ptr noundef nonnull @.str.241, ptr noundef nonnull %48, i32 noundef %49)
          to label %50 unwind label %70

50:                                               ; preds = %47
  %51 = getelementptr inbounds %"class.std::__cxx11::basic_string", ptr %5, i64 0, i32 1
  %52 = load i64, ptr %51, align 8, !tbaa !29
  %53 = load i64, ptr %22, align 8, !tbaa !29
  %54 = sub i64 4611686018427387903, %53
  %55 = icmp ult i64 %54, %52
  br i1 %55, label %56, label %58

56:                                               ; preds = %50
  invoke void @_ZSt20__throw_length_errorPKc(ptr noundef nonnull @.str.93) #37
          to label %57 unwind label %72

57:                                               ; preds = %56
  unreachable

58:                                               ; preds = %50
  %59 = load ptr, ptr %5, align 8, !tbaa !26
  %60 = invoke noundef nonnull align 8 dereferenceable(32) ptr @_ZNSt7__cxx1112basic_stringIcSt11char_traitsIcESaIcEE9_M_appendEPKcm(ptr noundef nonnull align 8 dereferenceable(32) %4, ptr noundef %59, i64 noundef %52)
          to label %61 unwind label %72

61:                                               ; preds = %58
  %62 = load ptr, ptr %5, align 8, !tbaa !26
  %63 = getelementptr inbounds %"class.std::__cxx11::basic_string", ptr %5, i64 0, i32 2
  %64 = icmp eq ptr %62, %63
  br i1 %64, label %65, label %68

65:                                               ; preds = %61
  %66 = load i64, ptr %51, align 8, !tbaa !29
  %67 = icmp ult i64 %66, 16
  call void @llvm.assume(i1 %67)
  br label %69

68:                                               ; preds = %61
  call void @_ZdlPv(ptr noundef %62) #35
  br label %69

69:                                               ; preds = %68, %65
  call void @llvm.lifetime.end.p0(i64 32, ptr nonnull %5) #34
  br label %83

70:                                               ; preds = %47
  %71 = landingpad { ptr, i32 }
          cleanup
  br label %81

72:                                               ; preds = %58, %56
  %73 = landingpad { ptr, i32 }
          cleanup
  %74 = load ptr, ptr %5, align 8, !tbaa !26
  %75 = getelementptr inbounds %"class.std::__cxx11::basic_string", ptr %5, i64 0, i32 2
  %76 = icmp eq ptr %74, %75
  br i1 %76, label %77, label %80

77:                                               ; preds = %72
  %78 = load i64, ptr %51, align 8, !tbaa !29
  %79 = icmp ult i64 %78, 16
  call void @llvm.assume(i1 %79)
  br label %81

80:                                               ; preds = %72
  call void @_ZdlPv(ptr noundef %74) #35
  br label %81

81:                                               ; preds = %80, %77, %70
  %82 = phi { ptr, i32 } [ %71, %70 ], [ %73, %77 ], [ %73, %80 ]
  call void @llvm.lifetime.end.p0(i64 32, ptr nonnull %5) #34
  br label %110

83:                                               ; preds = %69, %20
  %84 = load ptr, ptr %4, align 8, !tbaa !26
  %85 = load ptr, ptr %1, align 8, !tbaa !85
  %86 = icmp eq ptr %85, null
  br i1 %86, label %88, label %87

87:                                               ; preds = %83
  call void @_ZdaPv(ptr noundef nonnull %85) #35
  br label %88

88:                                               ; preds = %87, %83
  %89 = icmp eq ptr %84, null
  br i1 %89, label %99, label %90

90:                                               ; preds = %88
  %91 = load i8, ptr %84, align 1, !tbaa !30
  %92 = icmp eq i8 %91, 0
  br i1 %92, label %99, label %93

93:                                               ; preds = %90
  %94 = call i64 @strlen(ptr noundef nonnull dereferenceable(1) %84) #36
  %95 = add i64 %94, 1
  %96 = invoke noalias noundef nonnull ptr @_Znam(i64 noundef %95) #38
          to label %97 unwind label %108

97:                                               ; preds = %93
  %98 = call ptr @strcpy(ptr noundef nonnull dereferenceable(1) %96, ptr noundef nonnull dereferenceable(1) %84) #34
  br label %99

99:                                               ; preds = %97, %90, %88
  %100 = phi ptr [ %96, %97 ], [ null, %90 ], [ null, %88 ]
  store ptr %100, ptr %1, align 8, !tbaa !85
  %101 = load ptr, ptr %4, align 8, !tbaa !26
  %102 = icmp eq ptr %101, %9
  br i1 %102, label %103, label %106

103:                                              ; preds = %99
  %104 = load i64, ptr %22, align 8, !tbaa !29
  %105 = icmp ult i64 %104, 16
  call void @llvm.assume(i1 %105)
  br label %107

106:                                              ; preds = %99
  call void @_ZdlPv(ptr noundef %101) #35
  br label %107

107:                                              ; preds = %103, %106
  call void @llvm.lifetime.end.p0(i64 32, ptr nonnull %4) #34
  ret void

108:                                              ; preds = %93
  %109 = landingpad { ptr, i32 }
          cleanup
  br label %110

110:                                              ; preds = %43, %45, %81, %108
  %111 = phi { ptr, i32 } [ %109, %108 ], [ %82, %81 ], [ %46, %45 ], [ %44, %43 ]
  %112 = load ptr, ptr %4, align 8, !tbaa !26
  %113 = icmp eq ptr %112, %9
  br i1 %113, label %114, label %117

114:                                              ; preds = %110
  %115 = load i64, ptr %22, align 8, !tbaa !29
  %116 = icmp ult i64 %115, 16
  call void @llvm.assume(i1 %116)
  br label %118

117:                                              ; preds = %110
  call void @_ZdlPv(ptr noundef %112) #35
  br label %118

118:                                              ; preds = %117, %114
  call void @llvm.lifetime.end.p0(i64 32, ptr nonnull %4) #34
  resume { ptr, i32 } %111

119:                                              ; preds = %42
  unreachable
}

; Function Attrs: sspstrong uwtable
define dso_local void @_ZN9EnvirBase12displayErrorERSt9exception(ptr nocapture nonnull readnone align 8 %0, ptr noundef nonnull align 8 dereferenceable(8) %1) unnamed_addr #0 align 2 {
  %3 = tail call ptr @__dynamic_cast(ptr nonnull %1, ptr nonnull @_ZTISt9exception, ptr nonnull @_ZTI10cException, i64 0) #34
  %4 = icmp eq ptr %3, null
  br i1 %4, label %10, label %5

5:                                                ; preds = %2
  %6 = load ptr, ptr %3, align 8, !tbaa !20
  %7 = getelementptr inbounds ptr, ptr %6, i64 7
  %8 = load ptr, ptr %7, align 8
  %9 = tail call noundef zeroext i1 %8(ptr noundef nonnull align 8 dereferenceable(124) %3)
  br i1 %9, label %19, label %10

10:                                               ; preds = %5, %2
  %11 = load ptr, ptr @_ZN11cSimulation5evPtrE, align 8, !tbaa !32
  %12 = load ptr, ptr %1, align 8, !tbaa !20
  %13 = getelementptr inbounds ptr, ptr %12, i64 2
  %14 = load ptr, ptr %13, align 8
  %15 = tail call noundef ptr %14(ptr noundef nonnull align 8 dereferenceable(8) %1) #34
  %16 = load ptr, ptr %11, align 8, !tbaa !20
  %17 = getelementptr inbounds ptr, ptr %16, i64 35
  %18 = load ptr, ptr %17, align 8
  tail call void (ptr, ptr, ...) %18(ptr noundef nonnull align 8 dereferenceable(288) %11, ptr noundef nonnull @.str.248, ptr noundef %15)
  br label %53

19:                                               ; preds = %5
  %20 = load ptr, ptr %3, align 8, !tbaa !20
  %21 = getelementptr inbounds ptr, ptr %20, i64 10
  %22 = load ptr, ptr %21, align 8
  %23 = tail call noundef i32 %22(ptr noundef nonnull align 8 dereferenceable(124) %3)
  %24 = icmp eq i32 %23, -1
  %25 = load ptr, ptr @_ZN11cSimulation5evPtrE, align 8, !tbaa !32
  %26 = load ptr, ptr %3, align 8, !tbaa !20
  %27 = getelementptr inbounds ptr, ptr %26, i64 8
  %28 = load ptr, ptr %27, align 8
  %29 = tail call noundef ptr %28(ptr noundef nonnull align 8 dereferenceable(124) %3)
  %30 = load ptr, ptr %3, align 8, !tbaa !20
  %31 = getelementptr inbounds ptr, ptr %30, i64 9
  %32 = load ptr, ptr %31, align 8
  %33 = tail call noundef ptr %32(ptr noundef nonnull align 8 dereferenceable(124) %3)
  %34 = load ptr, ptr %3, align 8, !tbaa !20
  br i1 %24, label %35, label %42

35:                                               ; preds = %19
  %36 = getelementptr inbounds ptr, ptr %34, i64 2
  %37 = load ptr, ptr %36, align 8
  %38 = tail call noundef ptr %37(ptr noundef nonnull align 8 dereferenceable(124) %3) #34
  %39 = load ptr, ptr %25, align 8, !tbaa !20
  %40 = getelementptr inbounds ptr, ptr %39, i64 35
  %41 = load ptr, ptr %40, align 8
  tail call void (ptr, ptr, ...) %41(ptr noundef nonnull align 8 dereferenceable(288) %25, ptr noundef nonnull @.str.249, ptr noundef %29, ptr noundef %33, ptr noundef %38)
  br label %53

42:                                               ; preds = %19
  %43 = getelementptr inbounds ptr, ptr %34, i64 10
  %44 = load ptr, ptr %43, align 8
  %45 = tail call noundef i32 %44(ptr noundef nonnull align 8 dereferenceable(124) %3)
  %46 = load ptr, ptr %3, align 8, !tbaa !20
  %47 = getelementptr inbounds ptr, ptr %46, i64 2
  %48 = load ptr, ptr %47, align 8
  %49 = tail call noundef ptr %48(ptr noundef nonnull align 8 dereferenceable(124) %3) #34
  %50 = load ptr, ptr %25, align 8, !tbaa !20
  %51 = getelementptr inbounds ptr, ptr %50, i64 35
  %52 = load ptr, ptr %51, align 8
  tail call void (ptr, ptr, ...) %52(ptr noundef nonnull align 8 dereferenceable(288) %25, ptr noundef nonnull @.str.250, ptr noundef %29, ptr noundef %33, i32 noundef %45, ptr noundef %49)
  br label %53

53:                                               ; preds = %35, %42, %10
  ret void
}

; Function Attrs: sspstrong uwtable
define dso_local void @_ZN9EnvirBase14displayMessageERSt9exception(ptr nocapture nonnull readnone align 8 %0, ptr noundef nonnull align 8 dereferenceable(8) %1) unnamed_addr #0 align 2 {
  %3 = tail call ptr @__dynamic_cast(ptr nonnull %1, ptr nonnull @_ZTISt9exception, ptr nonnull @_ZTI10cException, i64 0) #34
  %4 = icmp eq ptr %3, null
  br i1 %4, label %10, label %5

5:                                                ; preds = %2
  %6 = load ptr, ptr %3, align 8, !tbaa !20
  %7 = getelementptr inbounds ptr, ptr %6, i64 7
  %8 = load ptr, ptr %7, align 8
  %9 = tail call noundef zeroext i1 %8(ptr noundef nonnull align 8 dereferenceable(124) %3)
  br i1 %9, label %19, label %10

10:                                               ; preds = %5, %2
  %11 = load ptr, ptr @_ZN11cSimulation5evPtrE, align 8, !tbaa !32
  %12 = load ptr, ptr %1, align 8, !tbaa !20
  %13 = getelementptr inbounds ptr, ptr %12, i64 2
  %14 = load ptr, ptr %13, align 8
  %15 = tail call noundef ptr %14(ptr noundef nonnull align 8 dereferenceable(8) %1) #34
  %16 = load ptr, ptr %11, align 8, !tbaa !20
  %17 = getelementptr inbounds ptr, ptr %16, i64 35
  %18 = load ptr, ptr %17, align 8
  tail call void (ptr, ptr, ...) %18(ptr noundef nonnull align 8 dereferenceable(288) %11, ptr noundef nonnull @.str.251, ptr noundef %15)
  br label %53

19:                                               ; preds = %5
  %20 = load ptr, ptr %3, align 8, !tbaa !20
  %21 = getelementptr inbounds ptr, ptr %20, i64 10
  %22 = load ptr, ptr %21, align 8
  %23 = tail call noundef i32 %22(ptr noundef nonnull align 8 dereferenceable(124) %3)
  %24 = icmp eq i32 %23, -1
  %25 = load ptr, ptr @_ZN11cSimulation5evPtrE, align 8, !tbaa !32
  %26 = load ptr, ptr %3, align 8, !tbaa !20
  %27 = getelementptr inbounds ptr, ptr %26, i64 8
  %28 = load ptr, ptr %27, align 8
  %29 = tail call noundef ptr %28(ptr noundef nonnull align 8 dereferenceable(124) %3)
  %30 = load ptr, ptr %3, align 8, !tbaa !20
  %31 = getelementptr inbounds ptr, ptr %30, i64 9
  %32 = load ptr, ptr %31, align 8
  %33 = tail call noundef ptr %32(ptr noundef nonnull align 8 dereferenceable(124) %3)
  %34 = load ptr, ptr %3, align 8, !tbaa !20
  br i1 %24, label %35, label %42

35:                                               ; preds = %19
  %36 = getelementptr inbounds ptr, ptr %34, i64 2
  %37 = load ptr, ptr %36, align 8
  %38 = tail call noundef ptr %37(ptr noundef nonnull align 8 dereferenceable(124) %3) #34
  %39 = load ptr, ptr %25, align 8, !tbaa !20
  %40 = getelementptr inbounds ptr, ptr %39, i64 35
  %41 = load ptr, ptr %40, align 8
  tail call void (ptr, ptr, ...) %41(ptr noundef nonnull align 8 dereferenceable(288) %25, ptr noundef nonnull @.str.252, ptr noundef %29, ptr noundef %33, ptr noundef %38)
  br label %53

42:                                               ; preds = %19
  %43 = getelementptr inbounds ptr, ptr %34, i64 10
  %44 = load ptr, ptr %43, align 8
  %45 = tail call noundef i32 %44(ptr noundef nonnull align 8 dereferenceable(124) %3)
  %46 = load ptr, ptr %3, align 8, !tbaa !20
  %47 = getelementptr inbounds ptr, ptr %46, i64 2
  %48 = load ptr, ptr %47, align 8
  %49 = tail call noundef ptr %48(ptr noundef nonnull align 8 dereferenceable(124) %3) #34
  %50 = load ptr, ptr %25, align 8, !tbaa !20
  %51 = getelementptr inbounds ptr, ptr %50, i64 35
  %52 = load ptr, ptr %51, align 8
  tail call void (ptr, ptr, ...) %52(ptr noundef nonnull align 8 dereferenceable(288) %25, ptr noundef nonnull @.str.253, ptr noundef %29, ptr noundef %33, i32 noundef %45, ptr noundef %49)
  br label %53

53:                                               ; preds = %35, %42, %10
  ret void
}

; Function Attrs: sspstrong uwtable
define internal void @_ZN12_GLOBAL__N_119__onstartup_func_91Ev() #0 personality ptr @__gxx_personality_v0 {
  %1 = tail call noundef ptr @_ZN23cGlobalRegistrationList11getInstanceEv(ptr noundef nonnull align 8 dereferenceable(16) @configOptions)
  %2 = tail call noalias noundef nonnull dereferenceable(144) ptr @_Znwm(i64 noundef 144) #38
  invoke void @_ZN13cConfigOptionC1EPKcbbNS_4TypeES1_S1_S1_(ptr noundef nonnull align 8 dereferenceable(144) %2, ptr noundef nonnull @.str, i1 noundef zeroext false, i1 noundef zeroext true, i32 noundef 2, ptr noundef nonnull @.str.1, ptr noundef null, ptr noundef nonnull @.str.2)
          to label %3 unwind label %7

3:                                                ; preds = %0
  store ptr %2, ptr @CFGID_TOTAL_STACK, align 8, !tbaa !32
  %4 = load ptr, ptr %1, align 8, !tbaa !20
  %5 = getelementptr inbounds ptr, ptr %4, i64 22
  %6 = load ptr, ptr %5, align 8
  tail call void %6(ptr noundef nonnull align 8 dereferenceable(144) %1, ptr noundef nonnull %2)
  ret void

7:                                                ; preds = %0
  %8 = landingpad { ptr, i32 }
          cleanup
  tail call void @_ZdlPv(ptr noundef nonnull %2) #35
  resume { ptr, i32 } %8
}

declare void @_ZN16ExecuteOnStartupC1EPFvvE(ptr noundef nonnull align 8 dereferenceable(16), ptr noundef) unnamed_addr #4

declare void @_ZN16ExecuteOnStartupD1Ev(ptr noundef nonnull align 8 dereferenceable(16)) unnamed_addr #4

; Function Attrs: nofree nounwind
declare i32 @__cxa_atexit(ptr, ptr, ptr) local_unnamed_addr #7

declare noundef ptr @_ZN23cGlobalRegistrationList11getInstanceEv(ptr noundef nonnull align 8 dereferenceable(16)) local_unnamed_addr #4

; Function Attrs: nobuiltin allocsize(0)
declare noundef nonnull ptr @_Znwm(i64 noundef) local_unnamed_addr #8

declare void @_ZN13cConfigOptionC1EPKcbbNS_4TypeES1_S1_S1_(ptr noundef nonnull align 8 dereferenceable(144), ptr noundef, i1 noundef zeroext, i1 noundef zeroext, i32 noundef, ptr noundef, ptr noundef, ptr noundef) unnamed_addr #4

declare i32 @__gxx_personality_v0(...)

; Function Attrs: nobuiltin nounwind
declare void @_ZdlPv(ptr noundef) local_unnamed_addr #9

; Function Attrs: sspstrong uwtable
define internal void @_ZN12_GLOBAL__N_119__onstartup_func_92Ev() #0 personality ptr @__gxx_personality_v0 {
  %1 = tail call noundef ptr @_ZN23cGlobalRegistrationList11getInstanceEv(ptr noundef nonnull align 8 dereferenceable(16) @configOptions)
  %2 = tail call noalias noundef nonnull dereferenceable(144) ptr @_Znwm(i64 noundef 144) #38
  invoke void @_ZN13cConfigOptionC1EPKcbbNS_4TypeES1_S1_S1_(ptr noundef nonnull align 8 dereferenceable(144) %2, ptr noundef nonnull @.str.4, i1 noundef zeroext false, i1 noundef zeroext true, i32 noundef 0, ptr noundef null, ptr noundef nonnull @.str.5, ptr noundef nonnull @.str.6)
          to label %3 unwind label %7

3:                                                ; preds = %0
  store ptr %2, ptr @CFGID_PARALLEL_SIMULATION, align 8, !tbaa !32
  %4 = load ptr, ptr %1, align 8, !tbaa !20
  %5 = getelementptr inbounds ptr, ptr %4, i64 22
  %6 = load ptr, ptr %5, align 8
  tail call void %6(ptr noundef nonnull align 8 dereferenceable(144) %1, ptr noundef nonnull %2)
  ret void

7:                                                ; preds = %0
  %8 = landingpad { ptr, i32 }
          cleanup
  tail call void @_ZdlPv(ptr noundef nonnull %2) #35
  resume { ptr, i32 } %8
}

; Function Attrs: sspstrong uwtable
define internal void @_ZN12_GLOBAL__N_119__onstartup_func_93Ev() #0 personality ptr @__gxx_personality_v0 {
  %1 = tail call noundef ptr @_ZN23cGlobalRegistrationList11getInstanceEv(ptr noundef nonnull align 8 dereferenceable(16) @configOptions)
  %2 = tail call noalias noundef nonnull dereferenceable(144) ptr @_Znwm(i64 noundef 144) #38
  invoke void @_ZN13cConfigOptionC1EPKcbbNS_4TypeES1_S1_S1_(ptr noundef nonnull align 8 dereferenceable(144) %2, ptr noundef nonnull @.str.8, i1 noundef zeroext false, i1 noundef zeroext true, i32 noundef 3, ptr noundef null, ptr noundef nonnull @.str.9, ptr noundef nonnull @.str.10)
          to label %3 unwind label %7

3:                                                ; preds = %0
  store ptr %2, ptr @CFGID_SCHEDULER_CLASS, align 8, !tbaa !32
  %4 = load ptr, ptr %1, align 8, !tbaa !20
  %5 = getelementptr inbounds ptr, ptr %4, i64 22
  %6 = load ptr, ptr %5, align 8
  tail call void %6(ptr noundef nonnull align 8 dereferenceable(144) %1, ptr noundef nonnull %2)
  ret void

7:                                                ; preds = %0
  %8 = landingpad { ptr, i32 }
          cleanup
  tail call void @_ZdlPv(ptr noundef nonnull %2) #35
  resume { ptr, i32 } %8
}

; Function Attrs: sspstrong uwtable
define internal void @_ZN12_GLOBAL__N_119__onstartup_func_94Ev() #0 personality ptr @__gxx_personality_v0 {
  %1 = tail call noundef ptr @_ZN23cGlobalRegistrationList11getInstanceEv(ptr noundef nonnull align 8 dereferenceable(16) @configOptions)
  %2 = tail call noalias noundef nonnull dereferenceable(144) ptr @_Znwm(i64 noundef 144) #38
  invoke void @_ZN13cConfigOptionC1EPKcbbNS_4TypeES1_S1_S1_(ptr noundef nonnull align 8 dereferenceable(144) %2, ptr noundef nonnull @.str.12, i1 noundef zeroext false, i1 noundef zeroext true, i32 noundef 3, ptr noundef null, ptr noundef nonnull @.str.13, ptr noundef nonnull @.str.14)
          to label %3 unwind label %7

3:                                                ; preds = %0
  store ptr %2, ptr @CFGID_PARSIM_COMMUNICATIONS_CLASS, align 8, !tbaa !32
  %4 = load ptr, ptr %1, align 8, !tbaa !20
  %5 = getelementptr inbounds ptr, ptr %4, i64 22
  %6 = load ptr, ptr %5, align 8
  tail call void %6(ptr noundef nonnull align 8 dereferenceable(144) %1, ptr noundef nonnull %2)
  ret void

7:                                                ; preds = %0
  %8 = landingpad { ptr, i32 }
          cleanup
  tail call void @_ZdlPv(ptr noundef nonnull %2) #35
  resume { ptr, i32 } %8
}

; Function Attrs: sspstrong uwtable
define internal void @_ZN12_GLOBAL__N_119__onstartup_func_95Ev() #0 personality ptr @__gxx_personality_v0 {
  %1 = tail call noundef ptr @_ZN23cGlobalRegistrationList11getInstanceEv(ptr noundef nonnull align 8 dereferenceable(16) @configOptions)
  %2 = tail call noalias noundef nonnull dereferenceable(144) ptr @_Znwm(i64 noundef 144) #38
  invoke void @_ZN13cConfigOptionC1EPKcbbNS_4TypeES1_S1_S1_(ptr noundef nonnull align 8 dereferenceable(144) %2, ptr noundef nonnull @.str.16, i1 noundef zeroext false, i1 noundef zeroext true, i32 noundef 3, ptr noundef null, ptr noundef nonnull @.str.17, ptr noundef nonnull @.str.18)
          to label %3 unwind label %7

3:                                                ; preds = %0
  store ptr %2, ptr @CFGID_PARSIM_SYNCHRONIZATION_CLASS, align 8, !tbaa !32
  %4 = load ptr, ptr %1, align 8, !tbaa !20
  %5 = getelementptr inbounds ptr, ptr %4, i64 22
  %6 = load ptr, ptr %5, align 8
  tail call void %6(ptr noundef nonnull align 8 dereferenceable(144) %1, ptr noundef nonnull %2)
  ret void

7:                                                ; preds = %0
  %8 = landingpad { ptr, i32 }
          cleanup
  tail call void @_ZdlPv(ptr noundef nonnull %2) #35
  resume { ptr, i32 } %8
}

; Function Attrs: sspstrong uwtable
define internal void @_ZN12_GLOBAL__N_119__onstartup_func_96Ev() #0 personality ptr @__gxx_personality_v0 {
  %1 = tail call noundef ptr @_ZN23cGlobalRegistrationList11getInstanceEv(ptr noundef nonnull align 8 dereferenceable(16) @configOptions)
  %2 = tail call noalias noundef nonnull dereferenceable(144) ptr @_Znwm(i64 noundef 144) #38
  invoke void @_ZN13cConfigOptionC1EPKcbbNS_4TypeES1_S1_S1_(ptr noundef nonnull align 8 dereferenceable(144) %2, ptr noundef nonnull @.str.20, i1 noundef zeroext false, i1 noundef zeroext true, i32 noundef 3, ptr noundef null, ptr noundef nonnull @.str.21, ptr noundef nonnull @.str.22)
          to label %3 unwind label %7

3:                                                ; preds = %0
  store ptr %2, ptr @CFGID_OUTPUTVECTORMANAGER_CLASS, align 8, !tbaa !32
  %4 = load ptr, ptr %1, align 8, !tbaa !20
  %5 = getelementptr inbounds ptr, ptr %4, i64 22
  %6 = load ptr, ptr %5, align 8
  tail call void %6(ptr noundef nonnull align 8 dereferenceable(144) %1, ptr noundef nonnull %2)
  ret void

7:                                                ; preds = %0
  %8 = landingpad { ptr, i32 }
          cleanup
  tail call void @_ZdlPv(ptr noundef nonnull %2) #35
  resume { ptr, i32 } %8
}

; Function Attrs: sspstrong uwtable
define internal void @_ZN12_GLOBAL__N_119__onstartup_func_97Ev() #0 personality ptr @__gxx_personality_v0 {
  %1 = tail call noundef ptr @_ZN23cGlobalRegistrationList11getInstanceEv(ptr noundef nonnull align 8 dereferenceable(16) @configOptions)
  %2 = tail call noalias noundef nonnull dereferenceable(144) ptr @_Znwm(i64 noundef 144) #38
  invoke void @_ZN13cConfigOptionC1EPKcbbNS_4TypeES1_S1_S1_(ptr noundef nonnull align 8 dereferenceable(144) %2, ptr noundef nonnull @.str.24, i1 noundef zeroext false, i1 noundef zeroext true, i32 noundef 3, ptr noundef null, ptr noundef nonnull @.str.25, ptr noundef nonnull @.str.26)
          to label %3 unwind label %7

3:                                                ; preds = %0
  store ptr %2, ptr @CFGID_OUTPUTSCALARMANAGER_CLASS, align 8, !tbaa !32
  %4 = load ptr, ptr %1, align 8, !tbaa !20
  %5 = getelementptr inbounds ptr, ptr %4, i64 22
  %6 = load ptr, ptr %5, align 8
  tail call void %6(ptr noundef nonnull align 8 dereferenceable(144) %1, ptr noundef nonnull %2)
  ret void

7:                                                ; preds = %0
  %8 = landingpad { ptr, i32 }
          cleanup
  tail call void @_ZdlPv(ptr noundef nonnull %2) #35
  resume { ptr, i32 } %8
}

; Function Attrs: sspstrong uwtable
define internal void @_ZN12_GLOBAL__N_119__onstartup_func_98Ev() #0 personality ptr @__gxx_personality_v0 {
  %1 = tail call noundef ptr @_ZN23cGlobalRegistrationList11getInstanceEv(ptr noundef nonnull align 8 dereferenceable(16) @configOptions)
  %2 = tail call noalias noundef nonnull dereferenceable(144) ptr @_Znwm(i64 noundef 144) #38
  invoke void @_ZN13cConfigOptionC1EPKcbbNS_4TypeES1_S1_S1_(ptr noundef nonnull align 8 dereferenceable(144) %2, ptr noundef nonnull @.str.28, i1 noundef zeroext false, i1 noundef zeroext true, i32 noundef 3, ptr noundef null, ptr noundef nonnull @.str.29, ptr noundef nonnull @.str.30)
          to label %3 unwind label %7

3:                                                ; preds = %0
  store ptr %2, ptr @CFGID_SNAPSHOTMANAGER_CLASS, align 8, !tbaa !32
  %4 = load ptr, ptr %1, align 8, !tbaa !20
  %5 = getelementptr inbounds ptr, ptr %4, i64 22
  %6 = load ptr, ptr %5, align 8
  tail call void %6(ptr noundef nonnull align 8 dereferenceable(144) %1, ptr noundef nonnull %2)
  ret void

7:                                                ; preds = %0
  %8 = landingpad { ptr, i32 }
          cleanup
  tail call void @_ZdlPv(ptr noundef nonnull %2) #35
  resume { ptr, i32 } %8
}

