; ModuleID = 'source/base/auto_derivative_function.cc'
source_filename = "source/base/auto_derivative_function.cc"
target datalayout = "e-m:e-p270:32:32-p271:32:32-p272:64:64-i64:64-f80:128-n8:16:32:64-S128"
target triple = "x86_64-pc-linux-gnu"

%"class.dealii::AutoDerivativeFunction" = type <{ %"class.dealii::Function.base", [4 x i8], double, %"class.std::vector", i32, [4 x i8] }>
%"class.dealii::Function.base" = type <{ %"class.dealii::FunctionTime", %"class.dealii::Subscriptor", i32 }>
%"class.dealii::FunctionTime" = type { ptr, double }
%"class.dealii::Subscriptor" = type { ptr, i32, %"class.std::map", ptr }
%"class.std::map" = type { %"class.std::_Rb_tree" }
%"class.std::_Rb_tree" = type { %"struct.std::_Rb_tree<const char *, std::pair<const char *const, unsigned int>, std::_Select1st<std::pair<const char *const, unsigned int> >, std::less<const char *> >::_Rb_tree_impl" }
%"struct.std::_Rb_tree<const char *, std::pair<const char *const, unsigned int>, std::_Select1st<std::pair<const char *const, unsigned int> >, std::less<const char *> >::_Rb_tree_impl" = type { %"struct.std::_Rb_tree_key_compare", %"struct.std::_Rb_tree_header" }
%"struct.std::_Rb_tree_key_compare" = type { %"struct.std::less" }
%"struct.std::less" = type { i8 }
%"struct.std::_Rb_tree_header" = type { %"struct.std::_Rb_tree_node_base", i64 }
%"struct.std::_Rb_tree_node_base" = type { i32, ptr, ptr, ptr }
%"class.std::vector" = type { %"struct.std::_Vector_base" }
%"struct.std::_Vector_base" = type { %"struct.std::_Vector_base<dealii::Tensor<1, 1>, std::allocator<dealii::Tensor<1, 1> > >::_Vector_impl" }
%"struct.std::_Vector_base<dealii::Tensor<1, 1>, std::allocator<dealii::Tensor<1, 1> > >::_Vector_impl" = type { %"struct.std::_Vector_base<dealii::Tensor<1, 1>, std::allocator<dealii::Tensor<1, 1> > >::_Vector_impl_data" }
%"struct.std::_Vector_base<dealii::Tensor<1, 1>, std::allocator<dealii::Tensor<1, 1> > >::_Vector_impl_data" = type { ptr, ptr, ptr }
%"class.dealii::Tensor" = type { [1 x double] }
%"class.dealii::Point" = type { %"class.dealii::Tensor" }
%"class.dealii::Vector" = type { %"class.dealii::Subscriptor", i32, i32, ptr }
%"class.dealii::Function" = type <{ %"class.dealii::FunctionTime", %"class.dealii::Subscriptor", i32, [4 x i8] }>
%"struct.std::_Vector_base<dealii::Point<1>, std::allocator<dealii::Point<1> > >::_Vector_impl_data" = type { ptr, ptr, ptr }
%"class.dealii::AutoDerivativeFunction.13" = type <{ %"class.dealii::Function.base.15", [4 x i8], double, %"class.std::vector.16", i32, [4 x i8] }>
%"class.dealii::Function.base.15" = type <{ %"class.dealii::FunctionTime", %"class.dealii::Subscriptor", i32 }>
%"class.std::vector.16" = type { %"struct.std::_Vector_base.17" }
%"struct.std::_Vector_base.17" = type { %"struct.std::_Vector_base<dealii::Tensor<1, 2>, std::allocator<dealii::Tensor<1, 2> > >::_Vector_impl" }
%"struct.std::_Vector_base<dealii::Tensor<1, 2>, std::allocator<dealii::Tensor<1, 2> > >::_Vector_impl" = type { %"struct.std::_Vector_base<dealii::Tensor<1, 2>, std::allocator<dealii::Tensor<1, 2> > >::_Vector_impl_data" }
%"struct.std::_Vector_base<dealii::Tensor<1, 2>, std::allocator<dealii::Tensor<1, 2> > >::_Vector_impl_data" = type { ptr, ptr, ptr }
%"class.dealii::Tensor.22" = type { [2 x double] }
%"class.dealii::Point.23" = type { %"class.dealii::Tensor.22" }
%"class.dealii::Function.14" = type <{ %"class.dealii::FunctionTime", %"class.dealii::Subscriptor", i32, [4 x i8] }>
%"struct.std::_Vector_base<dealii::Point<2>, std::allocator<dealii::Point<2> > >::_Vector_impl_data" = type { ptr, ptr, ptr }
%"class.dealii::AutoDerivativeFunction.34" = type <{ %"class.dealii::Function.base.36", [4 x i8], double, %"class.std::vector.37", i32, [4 x i8] }>
%"class.dealii::Function.base.36" = type <{ %"class.dealii::FunctionTime", %"class.dealii::Subscriptor", i32 }>
%"class.std::vector.37" = type { %"struct.std::_Vector_base.38" }
%"struct.std::_Vector_base.38" = type { %"struct.std::_Vector_base<dealii::Tensor<1, 3>, std::allocator<dealii::Tensor<1, 3> > >::_Vector_impl" }
%"struct.std::_Vector_base<dealii::Tensor<1, 3>, std::allocator<dealii::Tensor<1, 3> > >::_Vector_impl" = type { %"struct.std::_Vector_base<dealii::Tensor<1, 3>, std::allocator<dealii::Tensor<1, 3> > >::_Vector_impl_data" }
%"struct.std::_Vector_base<dealii::Tensor<1, 3>, std::allocator<dealii::Tensor<1, 3> > >::_Vector_impl_data" = type { ptr, ptr, ptr }
%"class.dealii::Tensor.43" = type { [3 x double] }
%"class.dealii::Point.44" = type { %"class.dealii::Tensor.43" }
%"class.dealii::Function.35" = type <{ %"class.dealii::FunctionTime", %"class.dealii::Subscriptor", i32, [4 x i8] }>
%"struct.std::_Vector_base<dealii::Point<3>, std::allocator<dealii::Point<3> > >::_Vector_impl_data" = type { ptr, ptr, ptr }

$_ZN6dealii22AutoDerivativeFunctionILi1EEC5Edjd = comdat any

$_ZN6dealii22AutoDerivativeFunctionILi1EE5set_hEd = comdat any

$_ZN6dealii22AutoDerivativeFunctionILi1EE11set_formulaENS1_17DifferenceFormulaE = comdat any

$__clang_call_terminate = comdat any

$_ZN6dealii22AutoDerivativeFunctionILi1EED5Ev = comdat any

$_ZThn16_N6dealii22AutoDerivativeFunctionILi1EED1Ev = comdat any

$_ZThn16_N6dealii22AutoDerivativeFunctionILi1EED0Ev = comdat any

$_ZNK6dealii22AutoDerivativeFunctionILi1EE8gradientERKNS_5PointILi1EEEj = comdat any

$_ZNK6dealii22AutoDerivativeFunctionILi1EE15vector_gradientERKNS_5PointILi1EEERSt6vectorINS_6TensorILi1ELi1EEESaIS8_EE = comdat any

$_ZN6dealii6VectorIdED2Ev = comdat any

$_ZNK6dealii22AutoDerivativeFunctionILi1EE13gradient_listERKSt6vectorINS_5PointILi1EEESaIS4_EERS2_INS_6TensorILi1ELi1EEESaISA_EEj = comdat any

$_ZNK6dealii22AutoDerivativeFunctionILi1EE20vector_gradient_listERKSt6vectorINS_5PointILi1EEESaIS4_EERS2_IS2_INS_6TensorILi1ELi1EEESaISA_EESaISC_EE = comdat any

$_ZN6dealii22AutoDerivativeFunctionILi1EE20get_formula_of_orderEj = comdat any

$_ZN6dealii22AutoDerivativeFunctionILi2EEC5Edjd = comdat any

$_ZN6dealii22AutoDerivativeFunctionILi2EE5set_hEd = comdat any

$_ZN6dealii22AutoDerivativeFunctionILi2EE11set_formulaENS1_17DifferenceFormulaE = comdat any

$_ZN6dealii22AutoDerivativeFunctionILi2EED5Ev = comdat any

$_ZThn16_N6dealii22AutoDerivativeFunctionILi2EED1Ev = comdat any

$_ZThn16_N6dealii22AutoDerivativeFunctionILi2EED0Ev = comdat any

$_ZNK6dealii22AutoDerivativeFunctionILi2EE8gradientERKNS_5PointILi2EEEj = comdat any

$_ZNK6dealii22AutoDerivativeFunctionILi2EE15vector_gradientERKNS_5PointILi2EEERSt6vectorINS_6TensorILi1ELi2EEESaIS8_EE = comdat any

$_ZNK6dealii22AutoDerivativeFunctionILi2EE13gradient_listERKSt6vectorINS_5PointILi2EEESaIS4_EERS2_INS_6TensorILi1ELi2EEESaISA_EEj = comdat any

$_ZNK6dealii22AutoDerivativeFunctionILi2EE20vector_gradient_listERKSt6vectorINS_5PointILi2EEESaIS4_EERS2_IS2_INS_6TensorILi1ELi2EEESaISA_EESaISC_EE = comdat any

$_ZN6dealii22AutoDerivativeFunctionILi2EE20get_formula_of_orderEj = comdat any

$_ZN6dealii22AutoDerivativeFunctionILi3EEC5Edjd = comdat any

$_ZN6dealii22AutoDerivativeFunctionILi3EE5set_hEd = comdat any

$_ZN6dealii22AutoDerivativeFunctionILi3EE11set_formulaENS1_17DifferenceFormulaE = comdat any

$_ZN6dealii22AutoDerivativeFunctionILi3EED5Ev = comdat any

$_ZThn16_N6dealii22AutoDerivativeFunctionILi3EED1Ev = comdat any

$_ZThn16_N6dealii22AutoDerivativeFunctionILi3EED0Ev = comdat any

$_ZNK6dealii22AutoDerivativeFunctionILi3EE8gradientERKNS_5PointILi3EEEj = comdat any

$_ZNK6dealii22AutoDerivativeFunctionILi3EE15vector_gradientERKNS_5PointILi3EEERSt6vectorINS_6TensorILi1ELi3EEESaIS8_EE = comdat any

$_ZNK6dealii22AutoDerivativeFunctionILi3EE13gradient_listERKSt6vectorINS_5PointILi3EEESaIS4_EERS2_INS_6TensorILi1ELi3EEESaISA_EEj = comdat any

$_ZNK6dealii22AutoDerivativeFunctionILi3EE20vector_gradient_listERKSt6vectorINS_5PointILi3EEESaIS4_EERS2_IS2_INS_6TensorILi1ELi3EEESaISA_EESaISC_EE = comdat any

$_ZN6dealii22AutoDerivativeFunctionILi3EE20get_formula_of_orderEj = comdat any

$_ZN6dealii22AutoDerivativeFunctionILi1EE17ExcInvalidFormulaD0Ev = comdat any

$_ZN6dealii22AutoDerivativeFunctionILi2EE17ExcInvalidFormulaD0Ev = comdat any

$_ZN6dealii22AutoDerivativeFunctionILi3EE17ExcInvalidFormulaD0Ev = comdat any

$_ZN6dealii6VectorIdED0Ev = comdat any

$_ZN6dealii6VectorIdE6reinitEjb = comdat any

$_ZN6dealii6VectorIdE4swapERS1_ = comdat any

$_ZTVN6dealii22AutoDerivativeFunctionILi1EEE = comdat any

$_ZTVN6dealii22AutoDerivativeFunctionILi2EEE = comdat any

$_ZTVN6dealii22AutoDerivativeFunctionILi3EEE = comdat any

$_ZTSN6dealii22AutoDerivativeFunctionILi1EEE = comdat any

$_ZTSN6dealii8FunctionILi1EEE = comdat any

$_ZTIN6dealii8FunctionILi1EEE = comdat any

$_ZTIN6dealii22AutoDerivativeFunctionILi1EEE = comdat any

$_ZTVN6dealii22AutoDerivativeFunctionILi1EE17ExcInvalidFormulaE = comdat any

$_ZTSN6dealii22AutoDerivativeFunctionILi1EE17ExcInvalidFormulaE = comdat any

$_ZTIN6dealii22AutoDerivativeFunctionILi1EE17ExcInvalidFormulaE = comdat any

$_ZTSN6dealii22AutoDerivativeFunctionILi2EEE = comdat any

$_ZTSN6dealii8FunctionILi2EEE = comdat any

$_ZTIN6dealii8FunctionILi2EEE = comdat any

$_ZTIN6dealii22AutoDerivativeFunctionILi2EEE = comdat any

$_ZTVN6dealii22AutoDerivativeFunctionILi2EE17ExcInvalidFormulaE = comdat any

$_ZTSN6dealii22AutoDerivativeFunctionILi2EE17ExcInvalidFormulaE = comdat any

$_ZTIN6dealii22AutoDerivativeFunctionILi2EE17ExcInvalidFormulaE = comdat any

$_ZTSN6dealii22AutoDerivativeFunctionILi3EEE = comdat any

$_ZTSN6dealii8FunctionILi3EEE = comdat any

$_ZTIN6dealii8FunctionILi3EEE = comdat any

$_ZTIN6dealii22AutoDerivativeFunctionILi3EEE = comdat any

$_ZTVN6dealii22AutoDerivativeFunctionILi3EE17ExcInvalidFormulaE = comdat any

$_ZTSN6dealii22AutoDerivativeFunctionILi3EE17ExcInvalidFormulaE = comdat any

$_ZTIN6dealii22AutoDerivativeFunctionILi3EE17ExcInvalidFormulaE = comdat any

$_ZTVN6dealii6VectorIdEE = comdat any

$_ZTSN6dealii6VectorIdEE = comdat any

$_ZTIN6dealii6VectorIdEE = comdat any

@_ZTVN6dealii22AutoDerivativeFunctionILi1EEE = weak_odr dso_local unnamed_addr constant { [18 x ptr], [4 x ptr] } { [18 x ptr] [ptr null, ptr @_ZTIN6dealii22AutoDerivativeFunctionILi1EEE, ptr @_ZN6dealii22AutoDerivativeFunctionILi1EED2Ev, ptr @_ZN6dealii22AutoDerivativeFunctionILi1EED0Ev, ptr @_ZN6dealii12FunctionTime8set_timeEd, ptr @_ZN6dealii12FunctionTime12advance_timeEd, ptr @_ZNK6dealii8FunctionILi1EE5valueERKNS_5PointILi1EEEj, ptr @_ZNK6dealii8FunctionILi1EE12vector_valueERKNS_5PointILi1EEERNS_6VectorIdEE, ptr @_ZNK6dealii8FunctionILi1EE10value_listERKSt6vectorINS_5PointILi1EEESaIS4_EERS2_IdSaIdEEj, ptr @_ZNK6dealii8FunctionILi1EE17vector_value_listERKSt6vectorINS_5PointILi1EEESaIS4_EERS2_INS_6VectorIdEESaISA_EE, ptr @_ZNK6dealii22AutoDerivativeFunctionILi1EE8gradientERKNS_5PointILi1EEEj, ptr @_ZNK6dealii22AutoDerivativeFunctionILi1EE15vector_gradientERKNS_5PointILi1EEERSt6vectorINS_6TensorILi1ELi1EEESaIS8_EE, ptr @_ZNK6dealii22AutoDerivativeFunctionILi1EE13gradient_listERKSt6vectorINS_5PointILi1EEESaIS4_EERS2_INS_6TensorILi1ELi1EEESaISA_EEj, ptr @_ZNK6dealii22AutoDerivativeFunctionILi1EE20vector_gradient_listERKSt6vectorINS_5PointILi1EEESaIS4_EERS2_IS2_INS_6TensorILi1ELi1EEESaISA_EESaISC_EE, ptr @_ZNK6dealii8FunctionILi1EE9laplacianERKNS_5PointILi1EEEj, ptr @_ZNK6dealii8FunctionILi1EE16vector_laplacianERKNS_5PointILi1EEERNS_6VectorIdEE, ptr @_ZNK6dealii8FunctionILi1EE14laplacian_listERKSt6vectorINS_5PointILi1EEESaIS4_EERS2_IdSaIdEEj, ptr @_ZNK6dealii8FunctionILi1EE21vector_laplacian_listERKSt6vectorINS_5PointILi1EEESaIS4_EERS2_INS_6VectorIdEESaISA_EE], [4 x ptr] [ptr inttoptr (i64 -16 to ptr), ptr @_ZTIN6dealii22AutoDerivativeFunctionILi1EEE, ptr @_ZThn16_N6dealii22AutoDerivativeFunctionILi1EED1Ev, ptr @_ZThn16_N6dealii22AutoDerivativeFunctionILi1EED0Ev] }, comdat, align 8
@_ZTVN6dealii22AutoDerivativeFunctionILi2EEE = weak_odr dso_local unnamed_addr constant { [18 x ptr], [4 x ptr] } { [18 x ptr] [ptr null, ptr @_ZTIN6dealii22AutoDerivativeFunctionILi2EEE, ptr @_ZN6dealii22AutoDerivativeFunctionILi2EED2Ev, ptr @_ZN6dealii22AutoDerivativeFunctionILi2EED0Ev, ptr @_ZN6dealii12FunctionTime8set_timeEd, ptr @_ZN6dealii12FunctionTime12advance_timeEd, ptr @_ZNK6dealii8FunctionILi2EE5valueERKNS_5PointILi2EEEj, ptr @_ZNK6dealii8FunctionILi2EE12vector_valueERKNS_5PointILi2EEERNS_6VectorIdEE, ptr @_ZNK6dealii8FunctionILi2EE10value_listERKSt6vectorINS_5PointILi2EEESaIS4_EERS2_IdSaIdEEj, ptr @_ZNK6dealii8FunctionILi2EE17vector_value_listERKSt6vectorINS_5PointILi2EEESaIS4_EERS2_INS_6VectorIdEESaISA_EE, ptr @_ZNK6dealii22AutoDerivativeFunctionILi2EE8gradientERKNS_5PointILi2EEEj, ptr @_ZNK6dealii22AutoDerivativeFunctionILi2EE15vector_gradientERKNS_5PointILi2EEERSt6vectorINS_6TensorILi1ELi2EEESaIS8_EE, ptr @_ZNK6dealii22AutoDerivativeFunctionILi2EE13gradient_listERKSt6vectorINS_5PointILi2EEESaIS4_EERS2_INS_6TensorILi1ELi2EEESaISA_EEj, ptr @_ZNK6dealii22AutoDerivativeFunctionILi2EE20vector_gradient_listERKSt6vectorINS_5PointILi2EEESaIS4_EERS2_IS2_INS_6TensorILi1ELi2EEESaISA_EESaISC_EE, ptr @_ZNK6dealii8FunctionILi2EE9laplacianERKNS_5PointILi2EEEj, ptr @_ZNK6dealii8FunctionILi2EE16vector_laplacianERKNS_5PointILi2EEERNS_6VectorIdEE, ptr @_ZNK6dealii8FunctionILi2EE14laplacian_listERKSt6vectorINS_5PointILi2EEESaIS4_EERS2_IdSaIdEEj, ptr @_ZNK6dealii8FunctionILi2EE21vector_laplacian_listERKSt6vectorINS_5PointILi2EEESaIS4_EERS2_INS_6VectorIdEESaISA_EE], [4 x ptr] [ptr inttoptr (i64 -16 to ptr), ptr @_ZTIN6dealii22AutoDerivativeFunctionILi2EEE, ptr @_ZThn16_N6dealii22AutoDerivativeFunctionILi2EED1Ev, ptr @_ZThn16_N6dealii22AutoDerivativeFunctionILi2EED0Ev] }, comdat, align 8
@_ZTVN6dealii22AutoDerivativeFunctionILi3EEE = weak_odr dso_local unnamed_addr constant { [18 x ptr], [4 x ptr] } { [18 x ptr] [ptr null, ptr @_ZTIN6dealii22AutoDerivativeFunctionILi3EEE, ptr @_ZN6dealii22AutoDerivativeFunctionILi3EED2Ev, ptr @_ZN6dealii22AutoDerivativeFunctionILi3EED0Ev, ptr @_ZN6dealii12FunctionTime8set_timeEd, ptr @_ZN6dealii12FunctionTime12advance_timeEd, ptr @_ZNK6dealii8FunctionILi3EE5valueERKNS_5PointILi3EEEj, ptr @_ZNK6dealii8FunctionILi3EE12vector_valueERKNS_5PointILi3EEERNS_6VectorIdEE, ptr @_ZNK6dealii8FunctionILi3EE10value_listERKSt6vectorINS_5PointILi3EEESaIS4_EERS2_IdSaIdEEj, ptr @_ZNK6dealii8FunctionILi3EE17vector_value_listERKSt6vectorINS_5PointILi3EEESaIS4_EERS2_INS_6VectorIdEESaISA_EE, ptr @_ZNK6dealii22AutoDerivativeFunctionILi3EE8gradientERKNS_5PointILi3EEEj, ptr @_ZNK6dealii22AutoDerivativeFunctionILi3EE15vector_gradientERKNS_5PointILi3EEERSt6vectorINS_6TensorILi1ELi3EEESaIS8_EE, ptr @_ZNK6dealii22AutoDerivativeFunctionILi3EE13gradient_listERKSt6vectorINS_5PointILi3EEESaIS4_EERS2_INS_6TensorILi1ELi3EEESaISA_EEj, ptr @_ZNK6dealii22AutoDerivativeFunctionILi3EE20vector_gradient_listERKSt6vectorINS_5PointILi3EEESaIS4_EERS2_IS2_INS_6TensorILi1ELi3EEESaISA_EESaISC_EE, ptr @_ZNK6dealii8FunctionILi3EE9laplacianERKNS_5PointILi3EEEj, ptr @_ZNK6dealii8FunctionILi3EE16vector_laplacianERKNS_5PointILi3EEERNS_6VectorIdEE, ptr @_ZNK6dealii8FunctionILi3EE14laplacian_listERKSt6vectorINS_5PointILi3EEESaIS4_EERS2_IdSaIdEEj, ptr @_ZNK6dealii8FunctionILi3EE21vector_laplacian_listERKSt6vectorINS_5PointILi3EEESaIS4_EERS2_INS_6VectorIdEESaISA_EE], [4 x ptr] [ptr inttoptr (i64 -16 to ptr), ptr @_ZTIN6dealii22AutoDerivativeFunctionILi3EEE, ptr @_ZThn16_N6dealii22AutoDerivativeFunctionILi3EED1Ev, ptr @_ZThn16_N6dealii22AutoDerivativeFunctionILi3EED0Ev] }, comdat, align 8
@_ZTVN10__cxxabiv120__si_class_type_infoE = external global ptr
@_ZTSN6dealii22AutoDerivativeFunctionILi1EEE = weak_odr dso_local constant [40 x i8] c"N6dealii22AutoDerivativeFunctionILi1EEE\00", comdat, align 1
@_ZTVN10__cxxabiv121__vmi_class_type_infoE = external global ptr
@_ZTSN6dealii8FunctionILi1EEE = linkonce_odr dso_local constant [25 x i8] c"N6dealii8FunctionILi1EEE\00", comdat, align 1
@_ZTIN6dealii12FunctionTimeE = external constant ptr
@_ZTIN6dealii11SubscriptorE = external constant ptr
@_ZTIN6dealii8FunctionILi1EEE = linkonce_odr dso_local constant { ptr, ptr, i32, i32, ptr, i64, ptr, i64 } { ptr getelementptr inbounds (ptr, ptr @_ZTVN10__cxxabiv121__vmi_class_type_infoE, i64 2), ptr @_ZTSN6dealii8FunctionILi1EEE, i32 0, i32 2, ptr @_ZTIN6dealii12FunctionTimeE, i64 2, ptr @_ZTIN6dealii11SubscriptorE, i64 4098 }, comdat, align 8
@_ZTIN6dealii22AutoDerivativeFunctionILi1EEE = weak_odr dso_local constant { ptr, ptr, ptr } { ptr getelementptr inbounds (ptr, ptr @_ZTVN10__cxxabiv120__si_class_type_infoE, i64 2), ptr @_ZTSN6dealii22AutoDerivativeFunctionILi1EEE, ptr @_ZTIN6dealii8FunctionILi1EEE }, comdat, align 8
@_ZTVN6dealii22AutoDerivativeFunctionILi1EE17ExcInvalidFormulaE = weak_odr dso_local unnamed_addr constant { [6 x ptr] } { [6 x ptr] [ptr null, ptr @_ZTIN6dealii22AutoDerivativeFunctionILi1EE17ExcInvalidFormulaE, ptr @_ZN6dealii13ExceptionBaseD2Ev, ptr @_ZN6dealii22AutoDerivativeFunctionILi1EE17ExcInvalidFormulaD0Ev, ptr @_ZNK6dealii13ExceptionBase4whatEv, ptr @_ZNK6dealii13ExceptionBase10print_infoERSo] }, comdat, align 8
@_ZTSN6dealii22AutoDerivativeFunctionILi1EE17ExcInvalidFormulaE = weak_odr dso_local constant [59 x i8] c"N6dealii22AutoDerivativeFunctionILi1EE17ExcInvalidFormulaE\00", comdat, align 1
@_ZTIN6dealii13ExceptionBaseE = external constant ptr
@_ZTIN6dealii22AutoDerivativeFunctionILi1EE17ExcInvalidFormulaE = weak_odr dso_local constant { ptr, ptr, ptr } { ptr getelementptr inbounds (ptr, ptr @_ZTVN10__cxxabiv120__si_class_type_infoE, i64 2), ptr @_ZTSN6dealii22AutoDerivativeFunctionILi1EE17ExcInvalidFormulaE, ptr @_ZTIN6dealii13ExceptionBaseE }, comdat, align 8
@_ZTSN6dealii22AutoDerivativeFunctionILi2EEE = weak_odr dso_local constant [40 x i8] c"N6dealii22AutoDerivativeFunctionILi2EEE\00", comdat, align 1
@_ZTSN6dealii8FunctionILi2EEE = linkonce_odr dso_local constant [25 x i8] c"N6dealii8FunctionILi2EEE\00", comdat, align 1
@_ZTIN6dealii8FunctionILi2EEE = linkonce_odr dso_local constant { ptr, ptr, i32, i32, ptr, i64, ptr, i64 } { ptr getelementptr inbounds (ptr, ptr @_ZTVN10__cxxabiv121__vmi_class_type_infoE, i64 2), ptr @_ZTSN6dealii8FunctionILi2EEE, i32 0, i32 2, ptr @_ZTIN6dealii12FunctionTimeE, i64 2, ptr @_ZTIN6dealii11SubscriptorE, i64 4098 }, comdat, align 8
@_ZTIN6dealii22AutoDerivativeFunctionILi2EEE = weak_odr dso_local constant { ptr, ptr, ptr } { ptr getelementptr inbounds (ptr, ptr @_ZTVN10__cxxabiv120__si_class_type_infoE, i64 2), ptr @_ZTSN6dealii22AutoDerivativeFunctionILi2EEE, ptr @_ZTIN6dealii8FunctionILi2EEE }, comdat, align 8
@_ZTVN6dealii22AutoDerivativeFunctionILi2EE17ExcInvalidFormulaE = weak_odr dso_local unnamed_addr constant { [6 x ptr] } { [6 x ptr] [ptr null, ptr @_ZTIN6dealii22AutoDerivativeFunctionILi2EE17ExcInvalidFormulaE, ptr @_ZN6dealii13ExceptionBaseD2Ev, ptr @_ZN6dealii22AutoDerivativeFunctionILi2EE17ExcInvalidFormulaD0Ev, ptr @_ZNK6dealii13ExceptionBase4whatEv, ptr @_ZNK6dealii13ExceptionBase10print_infoERSo] }, comdat, align 8
@_ZTSN6dealii22AutoDerivativeFunctionILi2EE17ExcInvalidFormulaE = weak_odr dso_local constant [59 x i8] c"N6dealii22AutoDerivativeFunctionILi2EE17ExcInvalidFormulaE\00", comdat, align 1
@_ZTIN6dealii22AutoDerivativeFunctionILi2EE17ExcInvalidFormulaE = weak_odr dso_local constant { ptr, ptr, ptr } { ptr getelementptr inbounds (ptr, ptr @_ZTVN10__cxxabiv120__si_class_type_infoE, i64 2), ptr @_ZTSN6dealii22AutoDerivativeFunctionILi2EE17ExcInvalidFormulaE, ptr @_ZTIN6dealii13ExceptionBaseE }, comdat, align 8
@_ZTSN6dealii22AutoDerivativeFunctionILi3EEE = weak_odr dso_local constant [40 x i8] c"N6dealii22AutoDerivativeFunctionILi3EEE\00", comdat, align 1
@_ZTSN6dealii8FunctionILi3EEE = linkonce_odr dso_local constant [25 x i8] c"N6dealii8FunctionILi3EEE\00", comdat, align 1
@_ZTIN6dealii8FunctionILi3EEE = linkonce_odr dso_local constant { ptr, ptr, i32, i32, ptr, i64, ptr, i64 } { ptr getelementptr inbounds (ptr, ptr @_ZTVN10__cxxabiv121__vmi_class_type_infoE, i64 2), ptr @_ZTSN6dealii8FunctionILi3EEE, i32 0, i32 2, ptr @_ZTIN6dealii12FunctionTimeE, i64 2, ptr @_ZTIN6dealii11SubscriptorE, i64 4098 }, comdat, align 8
@_ZTIN6dealii22AutoDerivativeFunctionILi3EEE = weak_odr dso_local constant { ptr, ptr, ptr } { ptr getelementptr inbounds (ptr, ptr @_ZTVN10__cxxabiv120__si_class_type_infoE, i64 2), ptr @_ZTSN6dealii22AutoDerivativeFunctionILi3EEE, ptr @_ZTIN6dealii8FunctionILi3EEE }, comdat, align 8
@_ZTVN6dealii22AutoDerivativeFunctionILi3EE17ExcInvalidFormulaE = weak_odr dso_local unnamed_addr constant { [6 x ptr] } { [6 x ptr] [ptr null, ptr @_ZTIN6dealii22AutoDerivativeFunctionILi3EE17ExcInvalidFormulaE, ptr @_ZN6dealii13ExceptionBaseD2Ev, ptr @_ZN6dealii22AutoDerivativeFunctionILi3EE17ExcInvalidFormulaD0Ev, ptr @_ZNK6dealii13ExceptionBase4whatEv, ptr @_ZNK6dealii13ExceptionBase10print_infoERSo] }, comdat, align 8
@_ZTSN6dealii22AutoDerivativeFunctionILi3EE17ExcInvalidFormulaE = weak_odr dso_local constant [59 x i8] c"N6dealii22AutoDerivativeFunctionILi3EE17ExcInvalidFormulaE\00", comdat, align 1
@_ZTIN6dealii22AutoDerivativeFunctionILi3EE17ExcInvalidFormulaE = weak_odr dso_local constant { ptr, ptr, ptr } { ptr getelementptr inbounds (ptr, ptr @_ZTVN10__cxxabiv120__si_class_type_infoE, i64 2), ptr @_ZTSN6dealii22AutoDerivativeFunctionILi3EE17ExcInvalidFormulaE, ptr @_ZTIN6dealii13ExceptionBaseE }, comdat, align 8
@_ZTVN6dealii6VectorIdEE = linkonce_odr dso_local unnamed_addr constant { [6 x ptr] } { [6 x ptr] [ptr null, ptr @_ZTIN6dealii6VectorIdEE, ptr @_ZN6dealii6VectorIdED2Ev, ptr @_ZN6dealii6VectorIdED0Ev, ptr @_ZN6dealii6VectorIdE6reinitEjb, ptr @_ZN6dealii6VectorIdE4swapERS1_] }, comdat, align 8
@_ZTSN6dealii6VectorIdEE = linkonce_odr dso_local constant [20 x i8] c"N6dealii6VectorIdEE\00", comdat, align 1
@_ZTIN6dealii6VectorIdEE = linkonce_odr dso_local constant { ptr, ptr, ptr } { ptr getelementptr inbounds (ptr, ptr @_ZTVN10__cxxabiv120__si_class_type_infoE, i64 2), ptr @_ZTSN6dealii6VectorIdEE, ptr @_ZTIN6dealii11SubscriptorE }, comdat, align 8
@switch.table._ZN6dealii22AutoDerivativeFunctionILi3EE20get_formula_of_orderEj = private unnamed_addr constant [5 x i32] [i32 1, i32 1, i32 0, i32 2, i32 2], align 4

@_ZN6dealii22AutoDerivativeFunctionILi1EEC1Edjd = weak_odr dso_local unnamed_addr alias void (ptr, double, i32, double), ptr @_ZN6dealii22AutoDerivativeFunctionILi1EEC2Edjd
@_ZN6dealii22AutoDerivativeFunctionILi1EED1Ev = weak_odr dso_local unnamed_addr alias void (ptr), ptr @_ZN6dealii22AutoDerivativeFunctionILi1EED2Ev
@_ZN6dealii22AutoDerivativeFunctionILi2EEC1Edjd = weak_odr dso_local unnamed_addr alias void (ptr, double, i32, double), ptr @_ZN6dealii22AutoDerivativeFunctionILi2EEC2Edjd
@_ZN6dealii22AutoDerivativeFunctionILi2EED1Ev = weak_odr dso_local unnamed_addr alias void (ptr), ptr @_ZN6dealii22AutoDerivativeFunctionILi2EED2Ev
@_ZN6dealii22AutoDerivativeFunctionILi3EEC1Edjd = weak_odr dso_local unnamed_addr alias void (ptr, double, i32, double), ptr @_ZN6dealii22AutoDerivativeFunctionILi3EEC2Edjd
@_ZN6dealii22AutoDerivativeFunctionILi3EED1Ev = weak_odr dso_local unnamed_addr alias void (ptr), ptr @_ZN6dealii22AutoDerivativeFunctionILi3EED2Ev

; Function Attrs: sspstrong uwtable
define weak_odr dso_local void @_ZN6dealii22AutoDerivativeFunctionILi1EEC2Edjd(ptr noundef nonnull align 8 dereferenceable(132) %0, double noundef %1, i32 noundef %2, double noundef %3) unnamed_addr #0 comdat($_ZN6dealii22AutoDerivativeFunctionILi1EEC5Edjd) align 2 personality ptr @__gxx_personality_v0 {
  tail call void @_ZN6dealii8FunctionILi1EEC2Ejd(ptr noundef nonnull align 8 dereferenceable(92) %0, i32 noundef %2, double noundef %3)
  store ptr getelementptr inbounds ({ [18 x ptr], [4 x ptr] }, ptr @_ZTVN6dealii22AutoDerivativeFunctionILi1EEE, i64 0, inrange i32 0, i64 2), ptr %0, align 8, !tbaa !5
  %5 = getelementptr inbounds i8, ptr %0, i64 16
  store ptr getelementptr inbounds ({ [18 x ptr], [4 x ptr] }, ptr @_ZTVN6dealii22AutoDerivativeFunctionILi1EEE, i64 0, inrange i32 1, i64 2), ptr %5, align 8, !tbaa !5
  %6 = getelementptr inbounds %"class.dealii::AutoDerivativeFunction", ptr %0, i64 0, i32 2
  store double 1.000000e+00, ptr %6, align 8, !tbaa !8
  %7 = getelementptr inbounds %"class.dealii::AutoDerivativeFunction", ptr %0, i64 0, i32 3
  tail call void @llvm.memset.p0.i64(ptr noundef nonnull align 8 dereferenceable(24) %7, i8 0, i64 24, i1 false)
  %8 = invoke noalias noundef nonnull dereferenceable(8) ptr @_Znwm(i64 noundef 8) #13
          to label %9 unwind label %14

9:                                                ; preds = %4
  store ptr %8, ptr %7, align 8, !tbaa !31
  %10 = getelementptr inbounds %"class.dealii::Tensor", ptr %8, i64 1
  %11 = getelementptr inbounds %"class.dealii::AutoDerivativeFunction", ptr %0, i64 0, i32 3, i32 0, i32 0, i32 0, i32 2
  store ptr %10, ptr %11, align 8, !tbaa !32
  %12 = getelementptr inbounds %"class.dealii::AutoDerivativeFunction", ptr %0, i64 0, i32 3, i32 0, i32 0, i32 0, i32 1
  store ptr %10, ptr %12, align 8, !tbaa !33
  %13 = getelementptr inbounds %"class.dealii::AutoDerivativeFunction", ptr %0, i64 0, i32 4
  store double %1, ptr %6, align 8, !tbaa !8
  store double %1, ptr %8, align 8, !tbaa !34
  store i32 0, ptr %13, align 8, !tbaa !35
  ret void

14:                                               ; preds = %4
  %15 = landingpad { ptr, i32 }
          cleanup
  invoke void @_ZN6dealii8FunctionILi1EED2Ev(ptr noundef nonnull align 8 dereferenceable(92) %0)
          to label %16 unwind label %17

16:                                               ; preds = %14
  resume { ptr, i32 } %15

17:                                               ; preds = %14
  %18 = landingpad { ptr, i32 }
          catch ptr null
  %19 = extractvalue { ptr, i32 } %18, 0
  tail call void @__clang_call_terminate(ptr %19) #14
  unreachable
}

declare void @_ZN6dealii8FunctionILi1EEC2Ejd(ptr noundef nonnull align 8 dereferenceable(92), i32 noundef, double noundef) unnamed_addr #1

; Function Attrs: mustprogress nocallback nofree nosync nounwind willreturn memory(argmem: readwrite)
declare void @llvm.lifetime.start.p0(i64 immarg, ptr nocapture) #2

declare i32 @__gxx_personality_v0(...)

; Function Attrs: mustprogress nocallback nofree nosync nounwind willreturn memory(argmem: readwrite)
declare void @llvm.lifetime.end.p0(i64 immarg, ptr nocapture) #2

; Function Attrs: sspstrong uwtable
define weak_odr dso_local void @_ZN6dealii22AutoDerivativeFunctionILi1EE5set_hEd(ptr noundef nonnull align 8 dereferenceable(132) %0, double noundef %1) local_unnamed_addr #0 comdat align 2 {
  %3 = getelementptr inbounds %"class.dealii::AutoDerivativeFunction", ptr %0, i64 0, i32 2
  store double %1, ptr %3, align 8, !tbaa !8
  %4 = getelementptr inbounds %"class.dealii::AutoDerivativeFunction", ptr %0, i64 0, i32 3
  %5 = load ptr, ptr %4, align 8, !tbaa !31
  store double %1, ptr %5, align 8, !tbaa !34
  ret void
}

; Function Attrs: nounwind sspstrong uwtable
define weak_odr dso_local void @_ZN6dealii22AutoDerivativeFunctionILi1EE11set_formulaENS1_17DifferenceFormulaE(ptr noundef nonnull align 8 dereferenceable(132) %0, i32 noundef %1) local_unnamed_addr #3 comdat align 2 {
  %3 = getelementptr inbounds %"class.dealii::AutoDerivativeFunction", ptr %0, i64 0, i32 4
  store i32 %1, ptr %3, align 8, !tbaa !35
  ret void
}

; Function Attrs: noinline noreturn nounwind sspstrong uwtable
define linkonce_odr hidden void @__clang_call_terminate(ptr noundef %0) local_unnamed_addr #4 comdat {
  %2 = tail call ptr @__cxa_begin_catch(ptr %0) #15
  tail call void @_ZSt9terminatev() #14
  unreachable
}

declare ptr @__cxa_begin_catch(ptr) local_unnamed_addr

declare void @_ZSt9terminatev() local_unnamed_addr

declare void @_ZN6dealii8FunctionILi1EED2Ev(ptr noundef nonnull align 8 dereferenceable(92)) unnamed_addr #1

; Function Attrs: sspstrong uwtable
define weak_odr dso_local void @_ZN6dealii22AutoDerivativeFunctionILi1EED2Ev(ptr noundef nonnull align 8 dereferenceable(132) %0) unnamed_addr #0 comdat($_ZN6dealii22AutoDerivativeFunctionILi1EED5Ev) align 2 personality ptr @__gxx_personality_v0 {
  store ptr getelementptr inbounds ({ [18 x ptr], [4 x ptr] }, ptr @_ZTVN6dealii22AutoDerivativeFunctionILi1EEE, i64 0, inrange i32 0, i64 2), ptr %0, align 8, !tbaa !5
  %2 = getelementptr inbounds i8, ptr %0, i64 16
  store ptr getelementptr inbounds ({ [18 x ptr], [4 x ptr] }, ptr @_ZTVN6dealii22AutoDerivativeFunctionILi1EEE, i64 0, inrange i32 1, i64 2), ptr %2, align 8, !tbaa !5
  %3 = getelementptr inbounds %"class.dealii::AutoDerivativeFunction", ptr %0, i64 0, i32 3
  %4 = load ptr, ptr %3, align 8, !tbaa !31
  %5 = icmp eq ptr %4, null
  br i1 %5, label %7, label %6

6:                                                ; preds = %1
  tail call void @_ZdlPv(ptr noundef nonnull %4) #16
  br label %7

7:                                                ; preds = %6, %1
  tail call void @_ZN6dealii8FunctionILi1EED2Ev(ptr noundef nonnull align 8 dereferenceable(92) %0)
  ret void
}

; Function Attrs: sspstrong uwtable
define weak_odr dso_local void @_ZThn16_N6dealii22AutoDerivativeFunctionILi1EED1Ev(ptr noundef %0) unnamed_addr #0 comdat align 2 personality ptr @__gxx_personality_v0 {
  %2 = getelementptr inbounds i8, ptr %0, i64 -16
  store ptr getelementptr inbounds ({ [18 x ptr], [4 x ptr] }, ptr @_ZTVN6dealii22AutoDerivativeFunctionILi1EEE, i64 0, inrange i32 0, i64 2), ptr %2, align 8, !tbaa !5
  store ptr getelementptr inbounds ({ [18 x ptr], [4 x ptr] }, ptr @_ZTVN6dealii22AutoDerivativeFunctionILi1EEE, i64 0, inrange i32 1, i64 2), ptr %0, align 8, !tbaa !5
  %3 = getelementptr inbounds i8, ptr %0, i64 88
  %4 = load ptr, ptr %3, align 8, !tbaa !31
  %5 = icmp eq ptr %4, null
  br i1 %5, label %7, label %6

6:                                                ; preds = %1
  tail call void @_ZdlPv(ptr noundef nonnull %4) #16
  br label %7

7:                                                ; preds = %1, %6
  tail call void @_ZN6dealii8FunctionILi1EED2Ev(ptr noundef nonnull align 8 dereferenceable(92) %2)
  ret void
}

; Function Attrs: sspstrong uwtable
define weak_odr dso_local void @_ZN6dealii22AutoDerivativeFunctionILi1EED0Ev(ptr noundef nonnull align 8 dereferenceable(132) %0) unnamed_addr #0 comdat($_ZN6dealii22AutoDerivativeFunctionILi1EED5Ev) align 2 personality ptr @__gxx_personality_v0 {
  store ptr getelementptr inbounds ({ [18 x ptr], [4 x ptr] }, ptr @_ZTVN6dealii22AutoDerivativeFunctionILi1EEE, i64 0, inrange i32 0, i64 2), ptr %0, align 8, !tbaa !5
  %2 = getelementptr inbounds i8, ptr %0, i64 16
  store ptr getelementptr inbounds ({ [18 x ptr], [4 x ptr] }, ptr @_ZTVN6dealii22AutoDerivativeFunctionILi1EEE, i64 0, inrange i32 1, i64 2), ptr %2, align 8, !tbaa !5
  %3 = getelementptr inbounds %"class.dealii::AutoDerivativeFunction", ptr %0, i64 0, i32 3
  %4 = load ptr, ptr %3, align 8, !tbaa !31
  %5 = icmp eq ptr %4, null
  br i1 %5, label %7, label %6

6:                                                ; preds = %1
  tail call void @_ZdlPv(ptr noundef nonnull %4) #16
  br label %7

7:                                                ; preds = %6, %1
  invoke void @_ZN6dealii8FunctionILi1EED2Ev(ptr noundef nonnull align 8 dereferenceable(92) %0)
          to label %8 unwind label %9

8:                                                ; preds = %7
  tail call void @_ZdlPv(ptr noundef nonnull %0) #16
  ret void

9:                                                ; preds = %7
  %10 = landingpad { ptr, i32 }
          cleanup
  tail call void @_ZdlPv(ptr noundef nonnull %0) #16
  resume { ptr, i32 } %10
}

; Function Attrs: nobuiltin nounwind
declare void @_ZdlPv(ptr noundef) local_unnamed_addr #5

; Function Attrs: sspstrong uwtable
define weak_odr dso_local void @_ZThn16_N6dealii22AutoDerivativeFunctionILi1EED0Ev(ptr noundef %0) unnamed_addr #0 comdat align 2 personality ptr @__gxx_personality_v0 {
  %2 = getelementptr inbounds i8, ptr %0, i64 -16
  store ptr getelementptr inbounds ({ [18 x ptr], [4 x ptr] }, ptr @_ZTVN6dealii22AutoDerivativeFunctionILi1EEE, i64 0, inrange i32 0, i64 2), ptr %2, align 8, !tbaa !5
  store ptr getelementptr inbounds ({ [18 x ptr], [4 x ptr] }, ptr @_ZTVN6dealii22AutoDerivativeFunctionILi1EEE, i64 0, inrange i32 1, i64 2), ptr %0, align 8, !tbaa !5
  %3 = getelementptr inbounds i8, ptr %0, i64 88
  %4 = load ptr, ptr %3, align 8, !tbaa !31
  %5 = icmp eq ptr %4, null
  br i1 %5, label %7, label %6

6:                                                ; preds = %1
  tail call void @_ZdlPv(ptr noundef nonnull %4) #16
  br label %7

7:                                                ; preds = %6, %1
  invoke void @_ZN6dealii8FunctionILi1EED2Ev(ptr noundef nonnull align 8 dereferenceable(92) %2)
          to label %10 unwind label %8

8:                                                ; preds = %7
  %9 = landingpad { ptr, i32 }
          cleanup
  tail call void @_ZdlPv(ptr noundef nonnull %2) #16
  resume { ptr, i32 } %9

10:                                               ; preds = %7
  tail call void @_ZdlPv(ptr noundef nonnull %2) #16
  ret void
}

; Function Attrs: sspstrong uwtable
define weak_odr dso_local void @_ZNK6dealii22AutoDerivativeFunctionILi1EE8gradientERKNS_5PointILi1EEEj(ptr noalias sret(%"class.dealii::Tensor") align 8 %0, ptr noundef nonnull align 8 dereferenceable(132) %1, ptr noundef nonnull align 8 dereferenceable(8) %2, i32 noundef %3) unnamed_addr #0 comdat align 2 {
  %5 = alloca %"class.dealii::Point", align 8
  %6 = alloca %"class.dealii::Point", align 8
  %7 = alloca %"class.dealii::Point", align 8
  %8 = alloca %"class.dealii::Point", align 8
  %9 = alloca %"class.dealii::Point", align 8
  %10 = alloca %"class.dealii::Point", align 8
  %11 = alloca %"class.dealii::Point", align 8
  store double 0.000000e+00, ptr %0, align 8, !tbaa !34
  %12 = getelementptr inbounds %"class.dealii::AutoDerivativeFunction", ptr %1, i64 0, i32 4
  %13 = load i32, ptr %12, align 8, !tbaa !35
  switch i32 %13, label %89 [
    i32 1, label %14
    i32 0, label %32
    i32 2, label %53
  ]

14:                                               ; preds = %4
  call void @llvm.lifetime.start.p0(i64 8, ptr nonnull %5) #15
  %15 = getelementptr inbounds %"class.dealii::AutoDerivativeFunction", ptr %1, i64 0, i32 3
  %16 = load ptr, ptr %15, align 8, !tbaa !31
  %17 = load double, ptr %2, align 8, !tbaa !34, !noalias !36
  %18 = load double, ptr %16, align 8, !tbaa !34, !noalias !36
  %19 = fsub double %17, %18
  store double %19, ptr %5, align 8, !tbaa !34
  %20 = load ptr, ptr %1, align 8, !tbaa !5
  %21 = getelementptr inbounds ptr, ptr %20, i64 4
  %22 = load ptr, ptr %21, align 8
  %23 = tail call noundef double %22(ptr noundef nonnull align 8 dereferenceable(92) %1, ptr noundef nonnull align 8 dereferenceable(8) %2, i32 noundef %3)
  %24 = load ptr, ptr %1, align 8, !tbaa !5
  %25 = getelementptr inbounds ptr, ptr %24, i64 4
  %26 = load ptr, ptr %25, align 8
  %27 = call noundef double %26(ptr noundef nonnull align 8 dereferenceable(92) %1, ptr noundef nonnull align 8 dereferenceable(8) %5, i32 noundef %3)
  %28 = fsub double %23, %27
  %29 = getelementptr inbounds %"class.dealii::AutoDerivativeFunction", ptr %1, i64 0, i32 2
  %30 = load double, ptr %29, align 8, !tbaa !8
  %31 = fdiv double %28, %30
  store double %31, ptr %0, align 8, !tbaa !34
  call void @llvm.lifetime.end.p0(i64 8, ptr nonnull %5) #15
  br label %89

32:                                               ; preds = %4
  call void @llvm.lifetime.start.p0(i64 8, ptr nonnull %6) #15
  call void @llvm.lifetime.start.p0(i64 8, ptr nonnull %7) #15
  %33 = getelementptr inbounds %"class.dealii::AutoDerivativeFunction", ptr %1, i64 0, i32 3
  %34 = load ptr, ptr %33, align 8, !tbaa !31
  %35 = load double, ptr %2, align 8, !tbaa !34, !noalias !39
  %36 = load double, ptr %34, align 8, !tbaa !34, !noalias !40
  %37 = fadd double %35, %36
  store double %37, ptr %6, align 8, !tbaa !34
  %38 = load double, ptr %34, align 8, !tbaa !34, !noalias !43
  %39 = fsub double %35, %38
  store double %39, ptr %7, align 8, !tbaa !34
  %40 = load ptr, ptr %1, align 8, !tbaa !5
  %41 = getelementptr inbounds ptr, ptr %40, i64 4
  %42 = load ptr, ptr %41, align 8
  %43 = call noundef double %42(ptr noundef nonnull align 8 dereferenceable(92) %1, ptr noundef nonnull align 8 dereferenceable(8) %6, i32 noundef %3)
  %44 = load ptr, ptr %1, align 8, !tbaa !5
  %45 = getelementptr inbounds ptr, ptr %44, i64 4
  %46 = load ptr, ptr %45, align 8
  %47 = call noundef double %46(ptr noundef nonnull align 8 dereferenceable(92) %1, ptr noundef nonnull align 8 dereferenceable(8) %7, i32 noundef %3)
  %48 = fsub double %43, %47
  %49 = getelementptr inbounds %"class.dealii::AutoDerivativeFunction", ptr %1, i64 0, i32 2
  %50 = load double, ptr %49, align 8, !tbaa !8
  %51 = fmul double %50, 2.000000e+00
  %52 = fdiv double %48, %51
  store double %52, ptr %0, align 8, !tbaa !34
  call void @llvm.lifetime.end.p0(i64 8, ptr nonnull %7) #15
  call void @llvm.lifetime.end.p0(i64 8, ptr nonnull %6) #15
  br label %89

53:                                               ; preds = %4
  call void @llvm.lifetime.start.p0(i64 8, ptr nonnull %8) #15
  call void @llvm.lifetime.start.p0(i64 8, ptr nonnull %9) #15
  call void @llvm.lifetime.start.p0(i64 8, ptr nonnull %10) #15
  call void @llvm.lifetime.start.p0(i64 8, ptr nonnull %11) #15
  %54 = getelementptr inbounds %"class.dealii::AutoDerivativeFunction", ptr %1, i64 0, i32 3
  %55 = load ptr, ptr %54, align 8, !tbaa !31
  %56 = load double, ptr %2, align 8, !tbaa !34, !noalias !39
  %57 = load double, ptr %55, align 8, !tbaa !34, !noalias !46
  %58 = fadd double %56, %57
  store double %58, ptr %9, align 8, !tbaa !34
  %59 = load double, ptr %55, align 8, !tbaa !34, !noalias !49
  %60 = fadd double %58, %59
  store double %60, ptr %8, align 8, !tbaa !34
  %61 = load double, ptr %55, align 8, !tbaa !34, !noalias !52
  %62 = fsub double %56, %61
  store double %62, ptr %10, align 8, !tbaa !34
  %63 = load double, ptr %55, align 8, !tbaa !34, !noalias !55
  %64 = fsub double %62, %63
  store double %64, ptr %11, align 8, !tbaa !34
  %65 = load ptr, ptr %1, align 8, !tbaa !5
  %66 = getelementptr inbounds ptr, ptr %65, i64 4
  %67 = load ptr, ptr %66, align 8
  %68 = call noundef double %67(ptr noundef nonnull align 8 dereferenceable(92) %1, ptr noundef nonnull align 8 dereferenceable(8) %8, i32 noundef %3)
  %69 = fneg double %68
  %70 = load ptr, ptr %1, align 8, !tbaa !5
  %71 = getelementptr inbounds ptr, ptr %70, i64 4
  %72 = load ptr, ptr %71, align 8
  %73 = call noundef double %72(ptr noundef nonnull align 8 dereferenceable(92) %1, ptr noundef nonnull align 8 dereferenceable(8) %9, i32 noundef %3)
  %74 = call double @llvm.fmuladd.f64(double %73, double 8.000000e+00, double %69)
  %75 = load ptr, ptr %1, align 8, !tbaa !5
  %76 = getelementptr inbounds ptr, ptr %75, i64 4
  %77 = load ptr, ptr %76, align 8
  %78 = call noundef double %77(ptr noundef nonnull align 8 dereferenceable(92) %1, ptr noundef nonnull align 8 dereferenceable(8) %10, i32 noundef %3)
  %79 = call double @llvm.fmuladd.f64(double %78, double -8.000000e+00, double %74)
  %80 = load ptr, ptr %1, align 8, !tbaa !5
  %81 = getelementptr inbounds ptr, ptr %80, i64 4
  %82 = load ptr, ptr %81, align 8
  %83 = call noundef double %82(ptr noundef nonnull align 8 dereferenceable(92) %1, ptr noundef nonnull align 8 dereferenceable(8) %11, i32 noundef %3)
  %84 = fadd double %79, %83
  %85 = getelementptr inbounds %"class.dealii::AutoDerivativeFunction", ptr %1, i64 0, i32 2
  %86 = load double, ptr %85, align 8, !tbaa !8
  %87 = fmul double %86, 1.200000e+01
  %88 = fdiv double %84, %87
  store double %88, ptr %0, align 8, !tbaa !34
  call void @llvm.lifetime.end.p0(i64 8, ptr nonnull %11) #15
  call void @llvm.lifetime.end.p0(i64 8, ptr nonnull %10) #15
  call void @llvm.lifetime.end.p0(i64 8, ptr nonnull %9) #15
  call void @llvm.lifetime.end.p0(i64 8, ptr nonnull %8) #15
  br label %89

89:                                               ; preds = %4, %53, %32, %14
  ret void
}

; Function Attrs: mustprogress nocallback nofree nosync nounwind speculatable willreturn memory(none)
declare double @llvm.fmuladd.f64(double, double, double) #6

; Function Attrs: sspstrong uwtable
define weak_odr dso_local void @_ZNK6dealii22AutoDerivativeFunctionILi1EE15vector_gradientERKNS_5PointILi1EEERSt6vectorINS_6TensorILi1ELi1EEESaIS8_EE(ptr noundef nonnull align 8 dereferenceable(132) %0, ptr noundef nonnull align 8 dereferenceable(8) %1, ptr noundef nonnull align 8 dereferenceable(24) %2) unnamed_addr #0 comdat align 2 personality ptr @__gxx_personality_v0 {
  %4 = alloca %"class.dealii::Point", align 8
  %5 = alloca %"class.dealii::Vector", align 8
  %6 = alloca %"class.dealii::Vector", align 8
  %7 = alloca %"class.dealii::Point", align 8
  %8 = alloca %"class.dealii::Point", align 8
  %9 = alloca %"class.dealii::Vector", align 8
  %10 = alloca %"class.dealii::Vector", align 8
  %11 = alloca %"class.dealii::Point", align 8
  %12 = alloca %"class.dealii::Point", align 8
  %13 = alloca %"class.dealii::Point", align 8
  %14 = alloca %"class.dealii::Point", align 8
  %15 = alloca %"class.dealii::Vector", align 8
  %16 = alloca %"class.dealii::Vector", align 8
  %17 = alloca %"class.dealii::Vector", align 8
  %18 = alloca %"class.dealii::Vector", align 8
  %19 = getelementptr inbounds %"class.dealii::AutoDerivativeFunction", ptr %0, i64 0, i32 4
  %20 = load i32, ptr %19, align 8, !tbaa !35
  switch i32 %20, label %589 [
    i32 1, label %21
    i32 0, label %196
    i32 2, label %372
  ]

21:                                               ; preds = %3
  call void @llvm.lifetime.start.p0(i64 8, ptr nonnull %4) #15
  store double 0.000000e+00, ptr %4, align 8, !tbaa !34
  call void @llvm.lifetime.start.p0(i64 88, ptr nonnull %5) #15
  %22 = getelementptr inbounds %"class.dealii::Function", ptr %0, i64 0, i32 2
  %23 = load i32, ptr %22, align 8, !tbaa !58
  call void @_ZN6dealii11SubscriptorC2Ev(ptr noundef nonnull align 8 dereferenceable(72) %5)
  store ptr getelementptr inbounds ({ [6 x ptr] }, ptr @_ZTVN6dealii6VectorIdEE, i64 0, inrange i32 0, i64 2), ptr %5, align 8, !tbaa !5
  %24 = getelementptr inbounds %"class.dealii::Vector", ptr %5, i64 0, i32 1
  call void @llvm.memset.p0.i64(ptr noundef nonnull align 8 dereferenceable(16) %24, i8 0, i64 16, i1 false)
  %25 = icmp eq i32 %23, 0
  br i1 %25, label %40, label %26

26:                                               ; preds = %21
  %27 = zext i32 %23 to i64
  %28 = shl nuw nsw i64 %27, 3
  %29 = invoke noalias noundef nonnull ptr @_Znam(i64 noundef %28) #13
          to label %30 unwind label %33

30:                                               ; preds = %26
  %31 = getelementptr inbounds %"class.dealii::Vector", ptr %5, i64 0, i32 3
  %32 = getelementptr inbounds %"class.dealii::Vector", ptr %5, i64 0, i32 2
  store ptr %29, ptr %31, align 8, !tbaa !59
  store i32 %23, ptr %32, align 4, !tbaa !61
  store i32 %23, ptr %24, align 8, !tbaa !62
  call void @llvm.memset.p0.i64(ptr nonnull align 8 %29, i8 0, i64 %28, i1 false), !tbaa !34
  br label %40

33:                                               ; preds = %26
  %34 = landingpad { ptr, i32 }
          cleanup
  invoke void @_ZN6dealii11SubscriptorD2Ev(ptr noundef nonnull align 8 dereferenceable(72) %5)
          to label %35 unwind label %37

35:                                               ; preds = %195, %371, %588, %384, %208, %33
  %36 = phi { ptr, i32 } [ %34, %33 ], [ %209, %208 ], [ %385, %384 ], [ %587, %588 ], [ %370, %371 ], [ %194, %195 ]
  resume { ptr, i32 } %36

37:                                               ; preds = %33
  %38 = landingpad { ptr, i32 }
          catch ptr null
  %39 = extractvalue { ptr, i32 } %38, 0
  call void @__clang_call_terminate(ptr %39) #14
  unreachable

40:                                               ; preds = %21, %30
  call void @llvm.lifetime.start.p0(i64 88, ptr nonnull %6) #15
  %41 = load i32, ptr %22, align 8, !tbaa !58
  invoke void @_ZN6dealii11SubscriptorC2Ev(ptr noundef nonnull align 8 dereferenceable(72) %6)
          to label %42 unwind label %57

42:                                               ; preds = %40
  store ptr getelementptr inbounds ({ [6 x ptr] }, ptr @_ZTVN6dealii6VectorIdEE, i64 0, inrange i32 0, i64 2), ptr %6, align 8, !tbaa !5
  %43 = getelementptr inbounds %"class.dealii::Vector", ptr %6, i64 0, i32 1
  call void @llvm.memset.p0.i64(ptr noundef nonnull align 8 dereferenceable(16) %43, i8 0, i64 16, i1 false)
  %44 = icmp eq i32 %41, 0
  br i1 %44, label %59, label %45

45:                                               ; preds = %42
  %46 = zext i32 %41 to i64
  %47 = shl nuw nsw i64 %46, 3
  %48 = invoke noalias noundef nonnull ptr @_Znam(i64 noundef %47) #13
          to label %49 unwind label %52

49:                                               ; preds = %45
  %50 = getelementptr inbounds %"class.dealii::Vector", ptr %6, i64 0, i32 3
  %51 = getelementptr inbounds %"class.dealii::Vector", ptr %6, i64 0, i32 2
  store ptr %48, ptr %50, align 8, !tbaa !59
  store i32 %41, ptr %51, align 4, !tbaa !61
  store i32 %41, ptr %43, align 8, !tbaa !62
  call void @llvm.memset.p0.i64(ptr nonnull align 8 %48, i8 0, i64 %47, i1 false), !tbaa !34
  br label %59

52:                                               ; preds = %45
  %53 = landingpad { ptr, i32 }
          cleanup
  invoke void @_ZN6dealii11SubscriptorD2Ev(ptr noundef nonnull align 8 dereferenceable(72) %6)
          to label %193 unwind label %54

54:                                               ; preds = %52
  %55 = landingpad { ptr, i32 }
          catch ptr null
  %56 = extractvalue { ptr, i32 } %55, 0
  call void @__clang_call_terminate(ptr %56) #14
  unreachable

57:                                               ; preds = %164, %40
  %58 = landingpad { ptr, i32 }
          cleanup
  br label %193

59:                                               ; preds = %49, %42
  %60 = getelementptr inbounds %"class.dealii::AutoDerivativeFunction", ptr %0, i64 0, i32 2
  %61 = load double, ptr %60, align 8, !tbaa !8
  %62 = fdiv double 1.000000e+00, %61
  %63 = getelementptr inbounds %"class.dealii::AutoDerivativeFunction", ptr %0, i64 0, i32 3
  %64 = load ptr, ptr %63, align 8, !tbaa !31
  %65 = load double, ptr %1, align 8, !tbaa !34, !noalias !63
  %66 = load double, ptr %64, align 8, !tbaa !34, !noalias !63
  %67 = fsub double %65, %66
  store double %67, ptr %4, align 8, !tbaa !34
  %68 = load ptr, ptr %0, align 8, !tbaa !5
  %69 = getelementptr inbounds ptr, ptr %68, i64 5
  %70 = load ptr, ptr %69, align 8
  invoke void %70(ptr noundef nonnull align 8 dereferenceable(92) %0, ptr noundef nonnull align 8 dereferenceable(8) %1, ptr noundef nonnull align 8 dereferenceable(88) %5)
          to label %71 unwind label %165

71:                                               ; preds = %59
  %72 = load ptr, ptr %0, align 8, !tbaa !5
  %73 = getelementptr inbounds ptr, ptr %72, i64 5
  %74 = load ptr, ptr %73, align 8
  invoke void %74(ptr noundef nonnull align 8 dereferenceable(92) %0, ptr noundef nonnull align 8 dereferenceable(8) %4, ptr noundef nonnull align 8 dereferenceable(88) %6)
          to label %75 unwind label %165

75:                                               ; preds = %71
  %76 = load i32, ptr %22, align 8, !tbaa !58
  %77 = icmp eq i32 %76, 0
  br i1 %77, label %157, label %78

78:                                               ; preds = %75
  %79 = getelementptr inbounds %"class.dealii::Vector", ptr %5, i64 0, i32 3
  %80 = load ptr, ptr %79, align 8, !tbaa !59
  %81 = getelementptr inbounds %"class.dealii::Vector", ptr %6, i64 0, i32 3
  %82 = load ptr, ptr %81, align 8, !tbaa !59
  %83 = load ptr, ptr %2, align 8, !tbaa !31
  %84 = zext i32 %76 to i64
  %85 = icmp ult i32 %76, 16
  br i1 %85, label %139, label %86

86:                                               ; preds = %78
  %87 = ptrtoint ptr %83 to i64
  %88 = ptrtoint ptr %82 to i64
  %89 = ptrtoint ptr %80 to i64
  %90 = sub i64 %87, %89
  %91 = icmp ult i64 %90, 128
  %92 = sub i64 %87, %88
  %93 = icmp ult i64 %92, 128
  %94 = or i1 %91, %93
  br i1 %94, label %139, label %95

95:                                               ; preds = %86
  %96 = and i64 %84, 4294967280
  %97 = insertelement <4 x double> poison, double %62, i64 0
  %98 = shufflevector <4 x double> %97, <4 x double> poison, <4 x i32> zeroinitializer
  %99 = insertelement <4 x double> poison, double %62, i64 0
  %100 = shufflevector <4 x double> %99, <4 x double> poison, <4 x i32> zeroinitializer
  %101 = insertelement <4 x double> poison, double %62, i64 0
  %102 = shufflevector <4 x double> %101, <4 x double> poison, <4 x i32> zeroinitializer
  %103 = insertelement <4 x double> poison, double %62, i64 0
  %104 = shufflevector <4 x double> %103, <4 x double> poison, <4 x i32> zeroinitializer
  br label %105

105:                                              ; preds = %105, %95
  %106 = phi i64 [ 0, %95 ], [ %135, %105 ]
  %107 = getelementptr inbounds double, ptr %80, i64 %106
  %108 = load <4 x double>, ptr %107, align 8, !tbaa !34
  %109 = getelementptr inbounds double, ptr %107, i64 4
  %110 = load <4 x double>, ptr %109, align 8, !tbaa !34
  %111 = getelementptr inbounds double, ptr %107, i64 8
  %112 = load <4 x double>, ptr %111, align 8, !tbaa !34
  %113 = getelementptr inbounds double, ptr %107, i64 12
  %114 = load <4 x double>, ptr %113, align 8, !tbaa !34
  %115 = getelementptr inbounds double, ptr %82, i64 %106
  %116 = load <4 x double>, ptr %115, align 8, !tbaa !34
  %117 = getelementptr inbounds double, ptr %115, i64 4
  %118 = load <4 x double>, ptr %117, align 8, !tbaa !34
  %119 = getelementptr inbounds double, ptr %115, i64 8
  %120 = load <4 x double>, ptr %119, align 8, !tbaa !34
  %121 = getelementptr inbounds double, ptr %115, i64 12
  %122 = load <4 x double>, ptr %121, align 8, !tbaa !34
  %123 = fsub <4 x double> %108, %116
  %124 = fsub <4 x double> %110, %118
  %125 = fsub <4 x double> %112, %120
  %126 = fsub <4 x double> %114, %122
  %127 = fmul <4 x double> %98, %123
  %128 = fmul <4 x double> %100, %124
  %129 = fmul <4 x double> %102, %125
  %130 = fmul <4 x double> %104, %126
  %131 = getelementptr inbounds %"class.dealii::Tensor", ptr %83, i64 %106
  store <4 x double> %127, ptr %131, align 8, !tbaa !34
  %132 = getelementptr inbounds double, ptr %131, i64 4
  store <4 x double> %128, ptr %132, align 8, !tbaa !34
  %133 = getelementptr inbounds double, ptr %131, i64 8
  store <4 x double> %129, ptr %133, align 8, !tbaa !34
  %134 = getelementptr inbounds double, ptr %131, i64 12
  store <4 x double> %130, ptr %134, align 8, !tbaa !34
  %135 = add nuw i64 %106, 16
  %136 = icmp eq i64 %135, %96
  br i1 %136, label %137, label %105, !llvm.loop !66

137:                                              ; preds = %105
  %138 = icmp eq i64 %96, %84
  br i1 %138, label %186, label %139

139:                                              ; preds = %86, %78, %137
  %140 = phi i64 [ 0, %86 ], [ 0, %78 ], [ %96, %137 ]
  %141 = xor i64 %140, -1
  %142 = and i64 %84, 1
  %143 = icmp eq i64 %142, 0
  br i1 %143, label %153, label %144

144:                                              ; preds = %139
  %145 = getelementptr inbounds double, ptr %80, i64 %140
  %146 = load double, ptr %145, align 8, !tbaa !34
  %147 = getelementptr inbounds double, ptr %82, i64 %140
  %148 = load double, ptr %147, align 8, !tbaa !34
  %149 = fsub double %146, %148
  %150 = fmul double %62, %149
  %151 = getelementptr inbounds %"class.dealii::Tensor", ptr %83, i64 %140
  store double %150, ptr %151, align 8, !tbaa !34
  %152 = or i64 %140, 1
  br label %153

153:                                              ; preds = %144, %139
  %154 = phi i64 [ %140, %139 ], [ %152, %144 ]
  %155 = sub nsw i64 0, %84
  %156 = icmp eq i64 %141, %155
  br i1 %156, label %186, label %167

157:                                              ; preds = %75
  %158 = getelementptr inbounds %"class.dealii::Vector", ptr %6, i64 0, i32 3
  %159 = load ptr, ptr %158, align 8, !tbaa !59
  store ptr getelementptr inbounds ({ [6 x ptr] }, ptr @_ZTVN6dealii6VectorIdEE, i64 0, inrange i32 0, i64 2), ptr %6, align 8, !tbaa !5
  %160 = icmp eq ptr %159, null
  br i1 %160, label %164, label %161

161:                                              ; preds = %186, %157
  %162 = phi ptr [ %82, %186 ], [ %159, %157 ]
  %163 = getelementptr inbounds %"class.dealii::Vector", ptr %6, i64 0, i32 3
  call void @_ZdaPv(ptr noundef nonnull %162) #16
  store ptr null, ptr %163, align 8, !tbaa !59
  br label %164

164:                                              ; preds = %161, %157
  invoke void @_ZN6dealii11SubscriptorD2Ev(ptr noundef nonnull align 8 dereferenceable(72) %6)
          to label %187 unwind label %57

165:                                              ; preds = %71, %59
  %166 = landingpad { ptr, i32 }
          cleanup
  invoke void @_ZN6dealii6VectorIdED2Ev(ptr noundef nonnull align 8 dereferenceable(88) %6)
          to label %193 unwind label %590

167:                                              ; preds = %153, %167
  %168 = phi i64 [ %184, %167 ], [ %154, %153 ]
  %169 = getelementptr inbounds double, ptr %80, i64 %168
  %170 = load double, ptr %169, align 8, !tbaa !34
  %171 = getelementptr inbounds double, ptr %82, i64 %168
  %172 = load double, ptr %171, align 8, !tbaa !34
  %173 = fsub double %170, %172
  %174 = fmul double %62, %173
  %175 = getelementptr inbounds %"class.dealii::Tensor", ptr %83, i64 %168
  store double %174, ptr %175, align 8, !tbaa !34
  %176 = add nuw nsw i64 %168, 1
  %177 = getelementptr inbounds double, ptr %80, i64 %176
  %178 = load double, ptr %177, align 8, !tbaa !34
  %179 = getelementptr inbounds double, ptr %82, i64 %176
  %180 = load double, ptr %179, align 8, !tbaa !34
  %181 = fsub double %178, %180
  %182 = fmul double %62, %181
  %183 = getelementptr inbounds %"class.dealii::Tensor", ptr %83, i64 %176
  store double %182, ptr %183, align 8, !tbaa !34
  %184 = add nuw nsw i64 %168, 2
  %185 = icmp eq i64 %184, %84
  br i1 %185, label %186, label %167, !llvm.loop !69

186:                                              ; preds = %153, %167, %137
  store ptr getelementptr inbounds ({ [6 x ptr] }, ptr @_ZTVN6dealii6VectorIdEE, i64 0, inrange i32 0, i64 2), ptr %6, align 8, !tbaa !5
  br label %161

187:                                              ; preds = %164
  call void @llvm.lifetime.end.p0(i64 88, ptr nonnull %6) #15
  store ptr getelementptr inbounds ({ [6 x ptr] }, ptr @_ZTVN6dealii6VectorIdEE, i64 0, inrange i32 0, i64 2), ptr %5, align 8, !tbaa !5
  %188 = getelementptr inbounds %"class.dealii::Vector", ptr %5, i64 0, i32 3
  %189 = load ptr, ptr %188, align 8, !tbaa !59
  %190 = icmp eq ptr %189, null
  br i1 %190, label %192, label %191

191:                                              ; preds = %187
  call void @_ZdaPv(ptr noundef nonnull %189) #16
  store ptr null, ptr %188, align 8, !tbaa !59
  br label %192

192:                                              ; preds = %187, %191
  call void @_ZN6dealii11SubscriptorD2Ev(ptr noundef nonnull align 8 dereferenceable(72) %5)
  call void @llvm.lifetime.end.p0(i64 88, ptr nonnull %5) #15
  call void @llvm.lifetime.end.p0(i64 8, ptr nonnull %4) #15
  br label %589

193:                                              ; preds = %57, %52, %165
  %194 = phi { ptr, i32 } [ %166, %165 ], [ %58, %57 ], [ %53, %52 ]
  call void @llvm.lifetime.end.p0(i64 88, ptr nonnull %6) #15
  invoke void @_ZN6dealii6VectorIdED2Ev(ptr noundef nonnull align 8 dereferenceable(88) %5)
          to label %195 unwind label %590

195:                                              ; preds = %193
  call void @llvm.lifetime.end.p0(i64 88, ptr nonnull %5) #15
  call void @llvm.lifetime.end.p0(i64 8, ptr nonnull %4) #15
  br label %35

196:                                              ; preds = %3
  call void @llvm.lifetime.start.p0(i64 8, ptr nonnull %7) #15
  store double 0.000000e+00, ptr %7, align 8, !tbaa !34
  call void @llvm.lifetime.start.p0(i64 8, ptr nonnull %8) #15
  store double 0.000000e+00, ptr %8, align 8, !tbaa !34
  call void @llvm.lifetime.start.p0(i64 88, ptr nonnull %9) #15
  %197 = getelementptr inbounds %"class.dealii::Function", ptr %0, i64 0, i32 2
  %198 = load i32, ptr %197, align 8, !tbaa !58
  call void @_ZN6dealii11SubscriptorC2Ev(ptr noundef nonnull align 8 dereferenceable(72) %9)
  store ptr getelementptr inbounds ({ [6 x ptr] }, ptr @_ZTVN6dealii6VectorIdEE, i64 0, inrange i32 0, i64 2), ptr %9, align 8, !tbaa !5
  %199 = getelementptr inbounds %"class.dealii::Vector", ptr %9, i64 0, i32 1
  call void @llvm.memset.p0.i64(ptr noundef nonnull align 8 dereferenceable(16) %199, i8 0, i64 16, i1 false)
  %200 = icmp eq i32 %198, 0
  br i1 %200, label %213, label %201

201:                                              ; preds = %196
  %202 = zext i32 %198 to i64
  %203 = shl nuw nsw i64 %202, 3
  %204 = invoke noalias noundef nonnull ptr @_Znam(i64 noundef %203) #13
          to label %205 unwind label %208

205:                                              ; preds = %201
  %206 = getelementptr inbounds %"class.dealii::Vector", ptr %9, i64 0, i32 3
  %207 = getelementptr inbounds %"class.dealii::Vector", ptr %9, i64 0, i32 2
  store ptr %204, ptr %206, align 8, !tbaa !59
  store i32 %198, ptr %207, align 4, !tbaa !61
  store i32 %198, ptr %199, align 8, !tbaa !62
  call void @llvm.memset.p0.i64(ptr nonnull align 8 %204, i8 0, i64 %203, i1 false), !tbaa !34
  br label %213

208:                                              ; preds = %201
  %209 = landingpad { ptr, i32 }
          cleanup
  invoke void @_ZN6dealii11SubscriptorD2Ev(ptr noundef nonnull align 8 dereferenceable(72) %9)
          to label %35 unwind label %210

210:                                              ; preds = %208
  %211 = landingpad { ptr, i32 }
          catch ptr null
  %212 = extractvalue { ptr, i32 } %211, 0
  call void @__clang_call_terminate(ptr %212) #14
  unreachable

213:                                              ; preds = %196, %205
  call void @llvm.lifetime.start.p0(i64 88, ptr nonnull %10) #15
  %214 = load i32, ptr %197, align 8, !tbaa !58
  invoke void @_ZN6dealii11SubscriptorC2Ev(ptr noundef nonnull align 8 dereferenceable(72) %10)
          to label %215 unwind label %230

215:                                              ; preds = %213
  store ptr getelementptr inbounds ({ [6 x ptr] }, ptr @_ZTVN6dealii6VectorIdEE, i64 0, inrange i32 0, i64 2), ptr %10, align 8, !tbaa !5
  %216 = getelementptr inbounds %"class.dealii::Vector", ptr %10, i64 0, i32 1
  call void @llvm.memset.p0.i64(ptr noundef nonnull align 8 dereferenceable(16) %216, i8 0, i64 16, i1 false)
  %217 = icmp eq i32 %214, 0
  br i1 %217, label %232, label %218

218:                                              ; preds = %215
  %219 = zext i32 %214 to i64
  %220 = shl nuw nsw i64 %219, 3
  %221 = invoke noalias noundef nonnull ptr @_Znam(i64 noundef %220) #13
          to label %222 unwind label %225

222:                                              ; preds = %218
  %223 = getelementptr inbounds %"class.dealii::Vector", ptr %10, i64 0, i32 3
  %224 = getelementptr inbounds %"class.dealii::Vector", ptr %10, i64 0, i32 2
  store ptr %221, ptr %223, align 8, !tbaa !59
  store i32 %214, ptr %224, align 4, !tbaa !61
  store i32 %214, ptr %216, align 8, !tbaa !62
  call void @llvm.memset.p0.i64(ptr nonnull align 8 %221, i8 0, i64 %220, i1 false), !tbaa !34
  br label %232

225:                                              ; preds = %218
  %226 = landingpad { ptr, i32 }
          cleanup
  invoke void @_ZN6dealii11SubscriptorD2Ev(ptr noundef nonnull align 8 dereferenceable(72) %10)
          to label %369 unwind label %227

227:                                              ; preds = %225
  %228 = landingpad { ptr, i32 }
          catch ptr null
  %229 = extractvalue { ptr, i32 } %228, 0
  call void @__clang_call_terminate(ptr %229) #14
  unreachable

230:                                              ; preds = %340, %213
  %231 = landingpad { ptr, i32 }
          cleanup
  br label %369

232:                                              ; preds = %222, %215
  %233 = getelementptr inbounds %"class.dealii::AutoDerivativeFunction", ptr %0, i64 0, i32 2
  %234 = load double, ptr %233, align 8, !tbaa !8
  %235 = fmul double %234, 2.000000e+00
  %236 = fdiv double 1.000000e+00, %235
  %237 = getelementptr inbounds %"class.dealii::AutoDerivativeFunction", ptr %0, i64 0, i32 3
  %238 = load ptr, ptr %237, align 8, !tbaa !31
  %239 = load double, ptr %1, align 8, !tbaa !34, !noalias !39
  %240 = load double, ptr %238, align 8, !tbaa !34, !noalias !70
  %241 = fadd double %239, %240
  store double %241, ptr %7, align 8, !tbaa !34
  %242 = load double, ptr %238, align 8, !tbaa !34, !noalias !73
  %243 = fsub double %239, %242
  store double %243, ptr %8, align 8, !tbaa !34
  %244 = load ptr, ptr %0, align 8, !tbaa !5
  %245 = getelementptr inbounds ptr, ptr %244, i64 5
  %246 = load ptr, ptr %245, align 8
  invoke void %246(ptr noundef nonnull align 8 dereferenceable(92) %0, ptr noundef nonnull align 8 dereferenceable(8) %7, ptr noundef nonnull align 8 dereferenceable(88) %9)
          to label %247 unwind label %341

247:                                              ; preds = %232
  %248 = load ptr, ptr %0, align 8, !tbaa !5
  %249 = getelementptr inbounds ptr, ptr %248, i64 5
  %250 = load ptr, ptr %249, align 8
  invoke void %250(ptr noundef nonnull align 8 dereferenceable(92) %0, ptr noundef nonnull align 8 dereferenceable(8) %8, ptr noundef nonnull align 8 dereferenceable(88) %10)
          to label %251 unwind label %341

251:                                              ; preds = %247
  %252 = load i32, ptr %197, align 8, !tbaa !58
  %253 = icmp eq i32 %252, 0
  br i1 %253, label %333, label %254

254:                                              ; preds = %251
  %255 = getelementptr inbounds %"class.dealii::Vector", ptr %9, i64 0, i32 3
  %256 = load ptr, ptr %255, align 8, !tbaa !59
  %257 = getelementptr inbounds %"class.dealii::Vector", ptr %10, i64 0, i32 3
  %258 = load ptr, ptr %257, align 8, !tbaa !59
  %259 = load ptr, ptr %2, align 8, !tbaa !31
  %260 = zext i32 %252 to i64
  %261 = icmp ult i32 %252, 16
  br i1 %261, label %315, label %262

262:                                              ; preds = %254
  %263 = ptrtoint ptr %259 to i64
  %264 = ptrtoint ptr %258 to i64
  %265 = ptrtoint ptr %256 to i64
  %266 = sub i64 %263, %265
  %267 = icmp ult i64 %266, 128
  %268 = sub i64 %263, %264
  %269 = icmp ult i64 %268, 128
  %270 = or i1 %267, %269
  br i1 %270, label %315, label %271

271:                                              ; preds = %262
  %272 = and i64 %260, 4294967280
  %273 = insertelement <4 x double> poison, double %236, i64 0
  %274 = shufflevector <4 x double> %273, <4 x double> poison, <4 x i32> zeroinitializer
  %275 = insertelement <4 x double> poison, double %236, i64 0
  %276 = shufflevector <4 x double> %275, <4 x double> poison, <4 x i32> zeroinitializer
  %277 = insertelement <4 x double> poison, double %236, i64 0
  %278 = shufflevector <4 x double> %277, <4 x double> poison, <4 x i32> zeroinitializer
  %279 = insertelement <4 x double> poison, double %236, i64 0
  %280 = shufflevector <4 x double> %279, <4 x double> poison, <4 x i32> zeroinitializer
  br label %281

281:                                              ; preds = %281, %271
  %282 = phi i64 [ 0, %271 ], [ %311, %281 ]
  %283 = getelementptr inbounds double, ptr %256, i64 %282
  %284 = load <4 x double>, ptr %283, align 8, !tbaa !34
  %285 = getelementptr inbounds double, ptr %283, i64 4
  %286 = load <4 x double>, ptr %285, align 8, !tbaa !34
  %287 = getelementptr inbounds double, ptr %283, i64 8
  %288 = load <4 x double>, ptr %287, align 8, !tbaa !34
  %289 = getelementptr inbounds double, ptr %283, i64 12
  %290 = load <4 x double>, ptr %289, align 8, !tbaa !34
  %291 = getelementptr inbounds double, ptr %258, i64 %282
  %292 = load <4 x double>, ptr %291, align 8, !tbaa !34
  %293 = getelementptr inbounds double, ptr %291, i64 4
  %294 = load <4 x double>, ptr %293, align 8, !tbaa !34
  %295 = getelementptr inbounds double, ptr %291, i64 8
  %296 = load <4 x double>, ptr %295, align 8, !tbaa !34
  %297 = getelementptr inbounds double, ptr %291, i64 12
  %298 = load <4 x double>, ptr %297, align 8, !tbaa !34
  %299 = fsub <4 x double> %284, %292
  %300 = fsub <4 x double> %286, %294
  %301 = fsub <4 x double> %288, %296
  %302 = fsub <4 x double> %290, %298
  %303 = fmul <4 x double> %274, %299
  %304 = fmul <4 x double> %276, %300
  %305 = fmul <4 x double> %278, %301
  %306 = fmul <4 x double> %280, %302
  %307 = getelementptr inbounds %"class.dealii::Tensor", ptr %259, i64 %282
  store <4 x double> %303, ptr %307, align 8, !tbaa !34
  %308 = getelementptr inbounds double, ptr %307, i64 4
  store <4 x double> %304, ptr %308, align 8, !tbaa !34
  %309 = getelementptr inbounds double, ptr %307, i64 8
  store <4 x double> %305, ptr %309, align 8, !tbaa !34
  %310 = getelementptr inbounds double, ptr %307, i64 12
  store <4 x double> %306, ptr %310, align 8, !tbaa !34
  %311 = add nuw i64 %282, 16
  %312 = icmp eq i64 %311, %272
  br i1 %312, label %313, label %281, !llvm.loop !76

313:                                              ; preds = %281
  %314 = icmp eq i64 %272, %260
  br i1 %314, label %362, label %315

315:                                              ; preds = %262, %254, %313
  %316 = phi i64 [ 0, %262 ], [ 0, %254 ], [ %272, %313 ]
  %317 = xor i64 %316, -1
  %318 = and i64 %260, 1
  %319 = icmp eq i64 %318, 0
  br i1 %319, label %329, label %320

320:                                              ; preds = %315
  %321 = getelementptr inbounds double, ptr %256, i64 %316
  %322 = load double, ptr %321, align 8, !tbaa !34
  %323 = getelementptr inbounds double, ptr %258, i64 %316
  %324 = load double, ptr %323, align 8, !tbaa !34
  %325 = fsub double %322, %324
  %326 = fmul double %236, %325
  %327 = getelementptr inbounds %"class.dealii::Tensor", ptr %259, i64 %316
  store double %326, ptr %327, align 8, !tbaa !34
  %328 = or i64 %316, 1
  br label %329

329:                                              ; preds = %320, %315
  %330 = phi i64 [ %316, %315 ], [ %328, %320 ]
  %331 = sub nsw i64 0, %260
  %332 = icmp eq i64 %317, %331
  br i1 %332, label %362, label %343

333:                                              ; preds = %251
  %334 = getelementptr inbounds %"class.dealii::Vector", ptr %10, i64 0, i32 3
  %335 = load ptr, ptr %334, align 8, !tbaa !59
  store ptr getelementptr inbounds ({ [6 x ptr] }, ptr @_ZTVN6dealii6VectorIdEE, i64 0, inrange i32 0, i64 2), ptr %10, align 8, !tbaa !5
  %336 = icmp eq ptr %335, null
  br i1 %336, label %340, label %337

337:                                              ; preds = %362, %333
  %338 = phi ptr [ %258, %362 ], [ %335, %333 ]
  %339 = getelementptr inbounds %"class.dealii::Vector", ptr %10, i64 0, i32 3
  call void @_ZdaPv(ptr noundef nonnull %338) #16
  store ptr null, ptr %339, align 8, !tbaa !59
  br label %340

340:                                              ; preds = %337, %333
  invoke void @_ZN6dealii11SubscriptorD2Ev(ptr noundef nonnull align 8 dereferenceable(72) %10)
          to label %363 unwind label %230

341:                                              ; preds = %247, %232
  %342 = landingpad { ptr, i32 }
          cleanup
  invoke void @_ZN6dealii6VectorIdED2Ev(ptr noundef nonnull align 8 dereferenceable(88) %10)
          to label %369 unwind label %590

343:                                              ; preds = %329, %343
  %344 = phi i64 [ %360, %343 ], [ %330, %329 ]
  %345 = getelementptr inbounds double, ptr %256, i64 %344
  %346 = load double, ptr %345, align 8, !tbaa !34
  %347 = getelementptr inbounds double, ptr %258, i64 %344
  %348 = load double, ptr %347, align 8, !tbaa !34
  %349 = fsub double %346, %348
  %350 = fmul double %236, %349
  %351 = getelementptr inbounds %"class.dealii::Tensor", ptr %259, i64 %344
  store double %350, ptr %351, align 8, !tbaa !34
  %352 = add nuw nsw i64 %344, 1
  %353 = getelementptr inbounds double, ptr %256, i64 %352
  %354 = load double, ptr %353, align 8, !tbaa !34
  %355 = getelementptr inbounds double, ptr %258, i64 %352
  %356 = load double, ptr %355, align 8, !tbaa !34
  %357 = fsub double %354, %356
  %358 = fmul double %236, %357
  %359 = getelementptr inbounds %"class.dealii::Tensor", ptr %259, i64 %352
  store double %358, ptr %359, align 8, !tbaa !34
  %360 = add nuw nsw i64 %344, 2
  %361 = icmp eq i64 %360, %260
  br i1 %361, label %362, label %343, !llvm.loop !77

362:                                              ; preds = %329, %343, %313
  store ptr getelementptr inbounds ({ [6 x ptr] }, ptr @_ZTVN6dealii6VectorIdEE, i64 0, inrange i32 0, i64 2), ptr %10, align 8, !tbaa !5
  br label %337

363:                                              ; preds = %340
  call void @llvm.lifetime.end.p0(i64 88, ptr nonnull %10) #15
  store ptr getelementptr inbounds ({ [6 x ptr] }, ptr @_ZTVN6dealii6VectorIdEE, i64 0, inrange i32 0, i64 2), ptr %9, align 8, !tbaa !5
  %364 = getelementptr inbounds %"class.dealii::Vector", ptr %9, i64 0, i32 3
  %365 = load ptr, ptr %364, align 8, !tbaa !59
  %366 = icmp eq ptr %365, null
  br i1 %366, label %368, label %367

367:                                              ; preds = %363
  call void @_ZdaPv(ptr noundef nonnull %365) #16
  store ptr null, ptr %364, align 8, !tbaa !59
  br label %368

368:                                              ; preds = %363, %367
  call void @_ZN6dealii11SubscriptorD2Ev(ptr noundef nonnull align 8 dereferenceable(72) %9)
  call void @llvm.lifetime.end.p0(i64 88, ptr nonnull %9) #15
  call void @llvm.lifetime.end.p0(i64 8, ptr nonnull %8) #15
  call void @llvm.lifetime.end.p0(i64 8, ptr nonnull %7) #15
  br label %589

369:                                              ; preds = %230, %225, %341
  %370 = phi { ptr, i32 } [ %342, %341 ], [ %231, %230 ], [ %226, %225 ]
  call void @llvm.lifetime.end.p0(i64 88, ptr nonnull %10) #15
  invoke void @_ZN6dealii6VectorIdED2Ev(ptr noundef nonnull align 8 dereferenceable(88) %9)
          to label %371 unwind label %590

371:                                              ; preds = %369
  call void @llvm.lifetime.end.p0(i64 88, ptr nonnull %9) #15
  call void @llvm.lifetime.end.p0(i64 8, ptr nonnull %8) #15
  call void @llvm.lifetime.end.p0(i64 8, ptr nonnull %7) #15
  br label %35

372:                                              ; preds = %3
  call void @llvm.lifetime.start.p0(i64 8, ptr nonnull %11) #15
  store double 0.000000e+00, ptr %11, align 8, !tbaa !34
  call void @llvm.lifetime.start.p0(i64 8, ptr nonnull %12) #15
  store double 0.000000e+00, ptr %12, align 8, !tbaa !34
  call void @llvm.lifetime.start.p0(i64 8, ptr nonnull %13) #15
  store double 0.000000e+00, ptr %13, align 8, !tbaa !34
  call void @llvm.lifetime.start.p0(i64 8, ptr nonnull %14) #15
  store double 0.000000e+00, ptr %14, align 8, !tbaa !34
  call void @llvm.lifetime.start.p0(i64 88, ptr nonnull %15) #15
  %373 = getelementptr inbounds %"class.dealii::Function", ptr %0, i64 0, i32 2
  %374 = load i32, ptr %373, align 8, !tbaa !58
  call void @_ZN6dealii11SubscriptorC2Ev(ptr noundef nonnull align 8 dereferenceable(72) %15)
  store ptr getelementptr inbounds ({ [6 x ptr] }, ptr @_ZTVN6dealii6VectorIdEE, i64 0, inrange i32 0, i64 2), ptr %15, align 8, !tbaa !5
  %375 = getelementptr inbounds %"class.dealii::Vector", ptr %15, i64 0, i32 1
  call void @llvm.memset.p0.i64(ptr noundef nonnull align 8 dereferenceable(16) %375, i8 0, i64 16, i1 false)
  %376 = icmp eq i32 %374, 0
  br i1 %376, label %389, label %377

377:                                              ; preds = %372
  %378 = zext i32 %374 to i64
  %379 = shl nuw nsw i64 %378, 3
  %380 = invoke noalias noundef nonnull ptr @_Znam(i64 noundef %379) #13
          to label %381 unwind label %384

381:                                              ; preds = %377
  %382 = getelementptr inbounds %"class.dealii::Vector", ptr %15, i64 0, i32 3
  %383 = getelementptr inbounds %"class.dealii::Vector", ptr %15, i64 0, i32 2
  store ptr %380, ptr %382, align 8, !tbaa !59
  store i32 %374, ptr %383, align 4, !tbaa !61
  store i32 %374, ptr %375, align 8, !tbaa !62
  call void @llvm.memset.p0.i64(ptr nonnull align 8 %380, i8 0, i64 %379, i1 false), !tbaa !34
  br label %389

384:                                              ; preds = %377
  %385 = landingpad { ptr, i32 }
          cleanup
  invoke void @_ZN6dealii11SubscriptorD2Ev(ptr noundef nonnull align 8 dereferenceable(72) %15)
          to label %35 unwind label %386

386:                                              ; preds = %384
  %387 = landingpad { ptr, i32 }
          catch ptr null
  %388 = extractvalue { ptr, i32 } %387, 0
  call void @__clang_call_terminate(ptr %388) #14
  unreachable

389:                                              ; preds = %372, %381
  call void @llvm.lifetime.start.p0(i64 88, ptr nonnull %16) #15
  %390 = load i32, ptr %373, align 8, !tbaa !58
  invoke void @_ZN6dealii11SubscriptorC2Ev(ptr noundef nonnull align 8 dereferenceable(72) %16)
          to label %391 unwind label %440

391:                                              ; preds = %389
  store ptr getelementptr inbounds ({ [6 x ptr] }, ptr @_ZTVN6dealii6VectorIdEE, i64 0, inrange i32 0, i64 2), ptr %16, align 8, !tbaa !5
  %392 = getelementptr inbounds %"class.dealii::Vector", ptr %16, i64 0, i32 1
  call void @llvm.memset.p0.i64(ptr noundef nonnull align 8 dereferenceable(16) %392, i8 0, i64 16, i1 false)
  %393 = icmp eq i32 %390, 0
  br i1 %393, label %406, label %394

394:                                              ; preds = %391
  %395 = zext i32 %390 to i64
  %396 = shl nuw nsw i64 %395, 3
  %397 = invoke noalias noundef nonnull ptr @_Znam(i64 noundef %396) #13
          to label %398 unwind label %401

398:                                              ; preds = %394
  %399 = getelementptr inbounds %"class.dealii::Vector", ptr %16, i64 0, i32 3
  %400 = getelementptr inbounds %"class.dealii::Vector", ptr %16, i64 0, i32 2
  store ptr %397, ptr %399, align 8, !tbaa !59
  store i32 %390, ptr %400, align 4, !tbaa !61
  store i32 %390, ptr %392, align 8, !tbaa !62
  call void @llvm.memset.p0.i64(ptr nonnull align 8 %397, i8 0, i64 %396, i1 false), !tbaa !34
  br label %406

401:                                              ; preds = %394
  %402 = landingpad { ptr, i32 }
          cleanup
  invoke void @_ZN6dealii11SubscriptorD2Ev(ptr noundef nonnull align 8 dereferenceable(72) %16)
          to label %586 unwind label %403

403:                                              ; preds = %401
  %404 = landingpad { ptr, i32 }
          catch ptr null
  %405 = extractvalue { ptr, i32 } %404, 0
  call void @__clang_call_terminate(ptr %405) #14
  unreachable

406:                                              ; preds = %398, %391
  call void @llvm.lifetime.start.p0(i64 88, ptr nonnull %17) #15
  %407 = load i32, ptr %373, align 8, !tbaa !58
  invoke void @_ZN6dealii11SubscriptorC2Ev(ptr noundef nonnull align 8 dereferenceable(72) %17)
          to label %408 unwind label %442

408:                                              ; preds = %406
  store ptr getelementptr inbounds ({ [6 x ptr] }, ptr @_ZTVN6dealii6VectorIdEE, i64 0, inrange i32 0, i64 2), ptr %17, align 8, !tbaa !5
  %409 = getelementptr inbounds %"class.dealii::Vector", ptr %17, i64 0, i32 1
  call void @llvm.memset.p0.i64(ptr noundef nonnull align 8 dereferenceable(16) %409, i8 0, i64 16, i1 false)
  %410 = icmp eq i32 %407, 0
  br i1 %410, label %423, label %411

411:                                              ; preds = %408
  %412 = zext i32 %407 to i64
  %413 = shl nuw nsw i64 %412, 3
  %414 = invoke noalias noundef nonnull ptr @_Znam(i64 noundef %413) #13
          to label %415 unwind label %418

415:                                              ; preds = %411
  %416 = getelementptr inbounds %"class.dealii::Vector", ptr %17, i64 0, i32 3
  %417 = getelementptr inbounds %"class.dealii::Vector", ptr %17, i64 0, i32 2
  store ptr %414, ptr %416, align 8, !tbaa !59
  store i32 %407, ptr %417, align 4, !tbaa !61
  store i32 %407, ptr %409, align 8, !tbaa !62
  call void @llvm.memset.p0.i64(ptr nonnull align 8 %414, i8 0, i64 %413, i1 false), !tbaa !34
  br label %423

418:                                              ; preds = %411
  %419 = landingpad { ptr, i32 }
          cleanup
  invoke void @_ZN6dealii11SubscriptorD2Ev(ptr noundef nonnull align 8 dereferenceable(72) %17)
          to label %578 unwind label %420

420:                                              ; preds = %418
  %421 = landingpad { ptr, i32 }
          catch ptr null
  %422 = extractvalue { ptr, i32 } %421, 0
  call void @__clang_call_terminate(ptr %422) #14
  unreachable

423:                                              ; preds = %415, %408
  call void @llvm.lifetime.start.p0(i64 88, ptr nonnull %18) #15
  %424 = load i32, ptr %373, align 8, !tbaa !58
  invoke void @_ZN6dealii11SubscriptorC2Ev(ptr noundef nonnull align 8 dereferenceable(72) %18)
          to label %425 unwind label %444

425:                                              ; preds = %423
  store ptr getelementptr inbounds ({ [6 x ptr] }, ptr @_ZTVN6dealii6VectorIdEE, i64 0, inrange i32 0, i64 2), ptr %18, align 8, !tbaa !5
  %426 = getelementptr inbounds %"class.dealii::Vector", ptr %18, i64 0, i32 1
  call void @llvm.memset.p0.i64(ptr noundef nonnull align 8 dereferenceable(16) %426, i8 0, i64 16, i1 false)
  %427 = icmp eq i32 %424, 0
  br i1 %427, label %446, label %428

428:                                              ; preds = %425
  %429 = zext i32 %424 to i64
  %430 = shl nuw nsw i64 %429, 3
  %431 = invoke noalias noundef nonnull ptr @_Znam(i64 noundef %430) #13
          to label %432 unwind label %435

432:                                              ; preds = %428
  %433 = getelementptr inbounds %"class.dealii::Vector", ptr %18, i64 0, i32 3
  %434 = getelementptr inbounds %"class.dealii::Vector", ptr %18, i64 0, i32 2
  store ptr %431, ptr %433, align 8, !tbaa !59
  store i32 %424, ptr %434, align 4, !tbaa !61
  store i32 %424, ptr %426, align 8, !tbaa !62
  call void @llvm.memset.p0.i64(ptr nonnull align 8 %431, i8 0, i64 %430, i1 false), !tbaa !34
  br label %446

435:                                              ; preds = %428
  %436 = landingpad { ptr, i32 }
          cleanup
  invoke void @_ZN6dealii11SubscriptorD2Ev(ptr noundef nonnull align 8 dereferenceable(72) %18)
          to label %570 unwind label %437

437:                                              ; preds = %435
  %438 = landingpad { ptr, i32 }
          catch ptr null
  %439 = extractvalue { ptr, i32 } %438, 0
  call void @__clang_call_terminate(ptr %439) #14
  unreachable

440:                                              ; preds = %577, %389
  %441 = landingpad { ptr, i32 }
          cleanup
  br label %586

442:                                              ; preds = %569, %406
  %443 = landingpad { ptr, i32 }
          cleanup
  br label %578

444:                                              ; preds = %542, %423
  %445 = landingpad { ptr, i32 }
          cleanup
  br label %570

446:                                              ; preds = %432, %425
  %447 = getelementptr inbounds %"class.dealii::AutoDerivativeFunction", ptr %0, i64 0, i32 2
  %448 = load double, ptr %447, align 8, !tbaa !8
  %449 = fmul double %448, 1.200000e+01
  %450 = fdiv double 1.000000e+00, %449
  %451 = getelementptr inbounds %"class.dealii::AutoDerivativeFunction", ptr %0, i64 0, i32 3
  %452 = load ptr, ptr %451, align 8, !tbaa !31
  %453 = load double, ptr %1, align 8, !tbaa !34, !noalias !39
  %454 = load double, ptr %452, align 8, !tbaa !34, !noalias !78
  %455 = fadd double %453, %454
  store double %455, ptr %12, align 8, !tbaa !34
  %456 = load double, ptr %452, align 8, !tbaa !34, !noalias !81
  %457 = fadd double %455, %456
  store double %457, ptr %11, align 8, !tbaa !34
  %458 = load double, ptr %452, align 8, !tbaa !34, !noalias !84
  %459 = fsub double %453, %458
  store double %459, ptr %13, align 8, !tbaa !34
  %460 = load double, ptr %452, align 8, !tbaa !34, !noalias !87
  %461 = fsub double %459, %460
  store double %461, ptr %14, align 8, !tbaa !34
  %462 = load ptr, ptr %0, align 8, !tbaa !5
  %463 = getelementptr inbounds ptr, ptr %462, i64 5
  %464 = load ptr, ptr %463, align 8
  invoke void %464(ptr noundef nonnull align 8 dereferenceable(92) %0, ptr noundef nonnull align 8 dereferenceable(8) %11, ptr noundef nonnull align 8 dereferenceable(88) %15)
          to label %465 unwind label %543

465:                                              ; preds = %446
  %466 = load ptr, ptr %0, align 8, !tbaa !5
  %467 = getelementptr inbounds ptr, ptr %466, i64 5
  %468 = load ptr, ptr %467, align 8
  invoke void %468(ptr noundef nonnull align 8 dereferenceable(92) %0, ptr noundef nonnull align 8 dereferenceable(8) %12, ptr noundef nonnull align 8 dereferenceable(88) %16)
          to label %469 unwind label %543

469:                                              ; preds = %465
  %470 = load ptr, ptr %0, align 8, !tbaa !5
  %471 = getelementptr inbounds ptr, ptr %470, i64 5
  %472 = load ptr, ptr %471, align 8
  invoke void %472(ptr noundef nonnull align 8 dereferenceable(92) %0, ptr noundef nonnull align 8 dereferenceable(8) %13, ptr noundef nonnull align 8 dereferenceable(88) %17)
          to label %473 unwind label %543

473:                                              ; preds = %469
  %474 = load ptr, ptr %0, align 8, !tbaa !5
  %475 = getelementptr inbounds ptr, ptr %474, i64 5
  %476 = load ptr, ptr %475, align 8
  invoke void %476(ptr noundef nonnull align 8 dereferenceable(92) %0, ptr noundef nonnull align 8 dereferenceable(8) %14, ptr noundef nonnull align 8 dereferenceable(88) %18)
          to label %477 unwind label %543

477:                                              ; preds = %473
  %478 = load i32, ptr %373, align 8, !tbaa !58
  %479 = icmp eq i32 %478, 0
  br i1 %479, label %535, label %480

480:                                              ; preds = %477
  %481 = getelementptr inbounds %"class.dealii::Vector", ptr %15, i64 0, i32 3
  %482 = load ptr, ptr %481, align 8, !tbaa !59
  %483 = getelementptr inbounds %"class.dealii::Vector", ptr %16, i64 0, i32 3
  %484 = load ptr, ptr %483, align 8, !tbaa !59
  %485 = getelementptr inbounds %"class.dealii::Vector", ptr %17, i64 0, i32 3
  %486 = load ptr, ptr %485, align 8, !tbaa !59
  %487 = getelementptr inbounds %"class.dealii::Vector", ptr %18, i64 0, i32 3
  %488 = load ptr, ptr %487, align 8, !tbaa !59
  %489 = load ptr, ptr %2, align 8, !tbaa !31
  %490 = zext i32 %478 to i64
  %491 = icmp ult i32 %478, 8
  br i1 %491, label %533, label %492

492:                                              ; preds = %480
  %493 = ptrtoint ptr %489 to i64
  %494 = ptrtoint ptr %488 to i64
  %495 = ptrtoint ptr %486 to i64
  %496 = ptrtoint ptr %484 to i64
  %497 = ptrtoint ptr %482 to i64
  %498 = sub i64 %493, %497
  %499 = icmp ult i64 %498, 32
  %500 = sub i64 %493, %496
  %501 = icmp ult i64 %500, 32
  %502 = or i1 %499, %501
  %503 = sub i64 %493, %495
  %504 = icmp ult i64 %503, 32
  %505 = or i1 %502, %504
  %506 = sub i64 %493, %494
  %507 = icmp ult i64 %506, 32
  %508 = or i1 %505, %507
  br i1 %508, label %533, label %509

509:                                              ; preds = %492
  %510 = and i64 %490, 4294967292
  %511 = insertelement <4 x double> poison, double %450, i64 0
  %512 = shufflevector <4 x double> %511, <4 x double> poison, <4 x i32> zeroinitializer
  br label %513

513:                                              ; preds = %513, %509
  %514 = phi i64 [ 0, %509 ], [ %529, %513 ]
  %515 = getelementptr inbounds double, ptr %482, i64 %514
  %516 = load <4 x double>, ptr %515, align 8, !tbaa !34
  %517 = fneg <4 x double> %516
  %518 = getelementptr inbounds double, ptr %484, i64 %514
  %519 = load <4 x double>, ptr %518, align 8, !tbaa !34
  %520 = call <4 x double> @llvm.fmuladd.v4f64(<4 x double> %519, <4 x double> <double 8.000000e+00, double 8.000000e+00, double 8.000000e+00, double 8.000000e+00>, <4 x double> %517)
  %521 = getelementptr inbounds double, ptr %486, i64 %514
  %522 = load <4 x double>, ptr %521, align 8, !tbaa !34
  %523 = call <4 x double> @llvm.fmuladd.v4f64(<4 x double> %522, <4 x double> <double -8.000000e+00, double -8.000000e+00, double -8.000000e+00, double -8.000000e+00>, <4 x double> %520)
  %524 = getelementptr inbounds double, ptr %488, i64 %514
  %525 = load <4 x double>, ptr %524, align 8, !tbaa !34
  %526 = fadd <4 x double> %523, %525
  %527 = fmul <4 x double> %512, %526
  %528 = getelementptr inbounds %"class.dealii::Tensor", ptr %489, i64 %514
  store <4 x double> %527, ptr %528, align 8, !tbaa !34
  %529 = add nuw i64 %514, 4
  %530 = icmp eq i64 %529, %510
  br i1 %530, label %531, label %513, !llvm.loop !90

531:                                              ; preds = %513
  %532 = icmp eq i64 %510, %490
  br i1 %532, label %563, label %533

533:                                              ; preds = %492, %480, %531
  %534 = phi i64 [ 0, %492 ], [ 0, %480 ], [ %510, %531 ]
  br label %545

535:                                              ; preds = %477
  %536 = getelementptr inbounds %"class.dealii::Vector", ptr %18, i64 0, i32 3
  %537 = load ptr, ptr %536, align 8, !tbaa !59
  store ptr getelementptr inbounds ({ [6 x ptr] }, ptr @_ZTVN6dealii6VectorIdEE, i64 0, inrange i32 0, i64 2), ptr %18, align 8, !tbaa !5
  %538 = icmp eq ptr %537, null
  br i1 %538, label %542, label %539

539:                                              ; preds = %563, %535
  %540 = phi ptr [ %488, %563 ], [ %537, %535 ]
  %541 = getelementptr inbounds %"class.dealii::Vector", ptr %18, i64 0, i32 3
  call void @_ZdaPv(ptr noundef nonnull %540) #16
  store ptr null, ptr %541, align 8, !tbaa !59
  br label %542

542:                                              ; preds = %539, %535
  invoke void @_ZN6dealii11SubscriptorD2Ev(ptr noundef nonnull align 8 dereferenceable(72) %18)
          to label %564 unwind label %444

543:                                              ; preds = %473, %469, %465, %446
  %544 = landingpad { ptr, i32 }
          cleanup
  invoke void @_ZN6dealii6VectorIdED2Ev(ptr noundef nonnull align 8 dereferenceable(88) %18)
          to label %570 unwind label %590

545:                                              ; preds = %533, %545
  %546 = phi i64 [ %561, %545 ], [ %534, %533 ]
  %547 = getelementptr inbounds double, ptr %482, i64 %546
  %548 = load double, ptr %547, align 8, !tbaa !34
  %549 = fneg double %548
  %550 = getelementptr inbounds double, ptr %484, i64 %546
  %551 = load double, ptr %550, align 8, !tbaa !34
  %552 = call double @llvm.fmuladd.f64(double %551, double 8.000000e+00, double %549)
  %553 = getelementptr inbounds double, ptr %486, i64 %546
  %554 = load double, ptr %553, align 8, !tbaa !34
  %555 = call double @llvm.fmuladd.f64(double %554, double -8.000000e+00, double %552)
  %556 = getelementptr inbounds double, ptr %488, i64 %546
  %557 = load double, ptr %556, align 8, !tbaa !34
  %558 = fadd double %555, %557
  %559 = fmul double %450, %558
  %560 = getelementptr inbounds %"class.dealii::Tensor", ptr %489, i64 %546
  store double %559, ptr %560, align 8, !tbaa !34
  %561 = add nuw nsw i64 %546, 1
  %562 = icmp eq i64 %561, %490
  br i1 %562, label %563, label %545, !llvm.loop !91

563:                                              ; preds = %545, %531
  store ptr getelementptr inbounds ({ [6 x ptr] }, ptr @_ZTVN6dealii6VectorIdEE, i64 0, inrange i32 0, i64 2), ptr %18, align 8, !tbaa !5
  br label %539

564:                                              ; preds = %542
  call void @llvm.lifetime.end.p0(i64 88, ptr nonnull %18) #15
  store ptr getelementptr inbounds ({ [6 x ptr] }, ptr @_ZTVN6dealii6VectorIdEE, i64 0, inrange i32 0, i64 2), ptr %17, align 8, !tbaa !5
  %565 = getelementptr inbounds %"class.dealii::Vector", ptr %17, i64 0, i32 3
  %566 = load ptr, ptr %565, align 8, !tbaa !59
  %567 = icmp eq ptr %566, null
  br i1 %567, label %569, label %568

568:                                              ; preds = %564
  call void @_ZdaPv(ptr noundef nonnull %566) #16
  store ptr null, ptr %565, align 8, !tbaa !59
  br label %569

569:                                              ; preds = %568, %564
  invoke void @_ZN6dealii11SubscriptorD2Ev(ptr noundef nonnull align 8 dereferenceable(72) %17)
          to label %572 unwind label %442

570:                                              ; preds = %444, %435, %543
  %571 = phi { ptr, i32 } [ %544, %543 ], [ %445, %444 ], [ %436, %435 ]
  call void @llvm.lifetime.end.p0(i64 88, ptr nonnull %18) #15
  invoke void @_ZN6dealii6VectorIdED2Ev(ptr noundef nonnull align 8 dereferenceable(88) %17)
          to label %578 unwind label %590

572:                                              ; preds = %569
  call void @llvm.lifetime.end.p0(i64 88, ptr nonnull %17) #15
  store ptr getelementptr inbounds ({ [6 x ptr] }, ptr @_ZTVN6dealii6VectorIdEE, i64 0, inrange i32 0, i64 2), ptr %16, align 8, !tbaa !5
  %573 = getelementptr inbounds %"class.dealii::Vector", ptr %16, i64 0, i32 3
  %574 = load ptr, ptr %573, align 8, !tbaa !59
  %575 = icmp eq ptr %574, null
  br i1 %575, label %577, label %576

576:                                              ; preds = %572
  call void @_ZdaPv(ptr noundef nonnull %574) #16
  store ptr null, ptr %573, align 8, !tbaa !59
  br label %577

577:                                              ; preds = %576, %572
  invoke void @_ZN6dealii11SubscriptorD2Ev(ptr noundef nonnull align 8 dereferenceable(72) %16)
          to label %580 unwind label %440

578:                                              ; preds = %442, %418, %570
  %579 = phi { ptr, i32 } [ %571, %570 ], [ %443, %442 ], [ %419, %418 ]
  call void @llvm.lifetime.end.p0(i64 88, ptr nonnull %17) #15
  invoke void @_ZN6dealii6VectorIdED2Ev(ptr noundef nonnull align 8 dereferenceable(88) %16)
          to label %586 unwind label %590

580:                                              ; preds = %577
  call void @llvm.lifetime.end.p0(i64 88, ptr nonnull %16) #15
  store ptr getelementptr inbounds ({ [6 x ptr] }, ptr @_ZTVN6dealii6VectorIdEE, i64 0, inrange i32 0, i64 2), ptr %15, align 8, !tbaa !5
  %581 = getelementptr inbounds %"class.dealii::Vector", ptr %15, i64 0, i32 3
  %582 = load ptr, ptr %581, align 8, !tbaa !59
  %583 = icmp eq ptr %582, null
  br i1 %583, label %585, label %584

584:                                              ; preds = %580
  call void @_ZdaPv(ptr noundef nonnull %582) #16
  store ptr null, ptr %581, align 8, !tbaa !59
  br label %585

585:                                              ; preds = %580, %584
  call void @_ZN6dealii11SubscriptorD2Ev(ptr noundef nonnull align 8 dereferenceable(72) %15)
  call void @llvm.lifetime.end.p0(i64 88, ptr nonnull %15) #15
  call void @llvm.lifetime.end.p0(i64 8, ptr nonnull %14) #15
  call void @llvm.lifetime.end.p0(i64 8, ptr nonnull %13) #15
  call void @llvm.lifetime.end.p0(i64 8, ptr nonnull %12) #15
  call void @llvm.lifetime.end.p0(i64 8, ptr nonnull %11) #15
  br label %589

586:                                              ; preds = %440, %401, %578
  %587 = phi { ptr, i32 } [ %579, %578 ], [ %441, %440 ], [ %402, %401 ]
  call void @llvm.lifetime.end.p0(i64 88, ptr nonnull %16) #15
  invoke void @_ZN6dealii6VectorIdED2Ev(ptr noundef nonnull align 8 dereferenceable(88) %15)
          to label %588 unwind label %590

588:                                              ; preds = %586
  call void @llvm.lifetime.end.p0(i64 88, ptr nonnull %15) #15
  call void @llvm.lifetime.end.p0(i64 8, ptr nonnull %14) #15
  call void @llvm.lifetime.end.p0(i64 8, ptr nonnull %13) #15
  call void @llvm.lifetime.end.p0(i64 8, ptr nonnull %12) #15
  call void @llvm.lifetime.end.p0(i64 8, ptr nonnull %11) #15
  br label %35

589:                                              ; preds = %3, %585, %368, %192
  ret void

590:                                              ; preds = %586, %578, %570, %543, %369, %341, %193, %165
  %591 = landingpad { ptr, i32 }
          catch ptr null
  %592 = extractvalue { ptr, i32 } %591, 0
  call void @__clang_call_terminate(ptr %592) #14
  unreachable
}

; Function Attrs: inlinehint sspstrong uwtable
define linkonce_odr dso_local void @_ZN6dealii6VectorIdED2Ev(ptr noundef nonnull align 8 dereferenceable(88) %0) unnamed_addr #7 comdat align 2 {
  store ptr getelementptr inbounds ({ [6 x ptr] }, ptr @_ZTVN6dealii6VectorIdEE, i64 0, inrange i32 0, i64 2), ptr %0, align 8, !tbaa !5
  %2 = getelementptr inbounds %"class.dealii::Vector", ptr %0, i64 0, i32 3
  %3 = load ptr, ptr %2, align 8, !tbaa !59
  %4 = icmp eq ptr %3, null
  br i1 %4, label %6, label %5

5:                                                ; preds = %1
  tail call void @_ZdaPv(ptr noundef nonnull %3) #16
  store ptr null, ptr %2, align 8, !tbaa !59
  br label %6

6:                                                ; preds = %5, %1
  tail call void @_ZN6dealii11SubscriptorD2Ev(ptr noundef nonnull align 8 dereferenceable(72) %0)
  ret void
}

; Function Attrs: sspstrong uwtable
define weak_odr dso_local void @_ZNK6dealii22AutoDerivativeFunctionILi1EE13gradient_listERKSt6vectorINS_5PointILi1EEESaIS4_EERS2_INS_6TensorILi1ELi1EEESaISA_EEj(ptr noundef nonnull align 8 dereferenceable(132) %0, ptr noundef nonnull align 8 dereferenceable(24) %1, ptr noundef nonnull align 8 dereferenceable(24) %2, i32 noundef %3) unnamed_addr #0 comdat align 2 {
  %5 = alloca %"class.dealii::Point", align 8
  %6 = alloca %"class.dealii::Point", align 8
  %7 = alloca %"class.dealii::Point", align 8
  %8 = alloca %"class.dealii::Point", align 8
  %9 = alloca %"class.dealii::Point", align 8
  %10 = alloca %"class.dealii::Point", align 8
  %11 = alloca %"class.dealii::Point", align 8
  %12 = getelementptr inbounds %"class.dealii::AutoDerivativeFunction", ptr %0, i64 0, i32 4
  %13 = load i32, ptr %12, align 8, !tbaa !35
  switch i32 %13, label %157 [
    i32 1, label %14
    i32 0, label %54
    i32 2, label %98
  ]

14:                                               ; preds = %4
  call void @llvm.lifetime.start.p0(i64 8, ptr nonnull %5) #15
  store double 0.000000e+00, ptr %5, align 8, !tbaa !34
  %15 = getelementptr inbounds %"struct.std::_Vector_base<dealii::Point<1>, std::allocator<dealii::Point<1> > >::_Vector_impl_data", ptr %1, i64 0, i32 1
  %16 = load ptr, ptr %15, align 8, !tbaa !92
  %17 = load ptr, ptr %1, align 8, !tbaa !94
  %18 = icmp eq ptr %16, %17
  br i1 %18, label %22, label %19

19:                                               ; preds = %14
  %20 = getelementptr inbounds %"class.dealii::AutoDerivativeFunction", ptr %0, i64 0, i32 3
  %21 = getelementptr inbounds %"class.dealii::AutoDerivativeFunction", ptr %0, i64 0, i32 2
  br label %23

22:                                               ; preds = %23, %14
  call void @llvm.lifetime.end.p0(i64 8, ptr nonnull %5) #15
  br label %157

23:                                               ; preds = %19, %23
  %24 = phi ptr [ %17, %19 ], [ %48, %23 ]
  %25 = phi i64 [ 0, %19 ], [ %46, %23 ]
  %26 = phi i32 [ 0, %19 ], [ %45, %23 ]
  %27 = getelementptr inbounds %"class.dealii::Point", ptr %24, i64 %25
  %28 = load ptr, ptr %20, align 8, !tbaa !31
  %29 = load double, ptr %27, align 8, !tbaa !34, !noalias !95
  %30 = load double, ptr %28, align 8, !tbaa !34, !noalias !95
  %31 = fsub double %29, %30
  store double %31, ptr %5, align 8, !tbaa !34
  %32 = load ptr, ptr %0, align 8, !tbaa !5
  %33 = getelementptr inbounds ptr, ptr %32, i64 4
  %34 = load ptr, ptr %33, align 8
  %35 = call noundef double %34(ptr noundef nonnull align 8 dereferenceable(92) %0, ptr noundef nonnull align 8 dereferenceable(8) %27, i32 noundef %3)
  %36 = load ptr, ptr %0, align 8, !tbaa !5
  %37 = getelementptr inbounds ptr, ptr %36, i64 4
  %38 = load ptr, ptr %37, align 8
  %39 = call noundef double %38(ptr noundef nonnull align 8 dereferenceable(92) %0, ptr noundef nonnull align 8 dereferenceable(8) %5, i32 noundef %3)
  %40 = fsub double %35, %39
  %41 = load double, ptr %21, align 8, !tbaa !8
  %42 = fdiv double %40, %41
  %43 = load ptr, ptr %2, align 8, !tbaa !31
  %44 = getelementptr inbounds %"class.dealii::Tensor", ptr %43, i64 %25
  store double %42, ptr %44, align 8, !tbaa !34
  %45 = add i32 %26, 1
  %46 = zext i32 %45 to i64
  %47 = load ptr, ptr %15, align 8, !tbaa !92
  %48 = load ptr, ptr %1, align 8, !tbaa !94
  %49 = ptrtoint ptr %47 to i64
  %50 = ptrtoint ptr %48 to i64
  %51 = sub i64 %49, %50
  %52 = ashr exact i64 %51, 3
  %53 = icmp ugt i64 %52, %46
  br i1 %53, label %23, label %22

54:                                               ; preds = %4
  call void @llvm.lifetime.start.p0(i64 8, ptr nonnull %6) #15
  store double 0.000000e+00, ptr %6, align 8, !tbaa !34
  call void @llvm.lifetime.start.p0(i64 8, ptr nonnull %7) #15
  store double 0.000000e+00, ptr %7, align 8, !tbaa !34
  %55 = getelementptr inbounds %"struct.std::_Vector_base<dealii::Point<1>, std::allocator<dealii::Point<1> > >::_Vector_impl_data", ptr %1, i64 0, i32 1
  %56 = load ptr, ptr %55, align 8, !tbaa !92
  %57 = load ptr, ptr %1, align 8, !tbaa !94
  %58 = icmp eq ptr %56, %57
  br i1 %58, label %62, label %59

59:                                               ; preds = %54
  %60 = getelementptr inbounds %"class.dealii::AutoDerivativeFunction", ptr %0, i64 0, i32 3
  %61 = getelementptr inbounds %"class.dealii::AutoDerivativeFunction", ptr %0, i64 0, i32 2
  br label %63

62:                                               ; preds = %63, %54
  call void @llvm.lifetime.end.p0(i64 8, ptr nonnull %7) #15
  call void @llvm.lifetime.end.p0(i64 8, ptr nonnull %6) #15
  br label %157

63:                                               ; preds = %59, %63
  %64 = phi ptr [ %57, %59 ], [ %92, %63 ]
  %65 = phi i64 [ 0, %59 ], [ %90, %63 ]
  %66 = phi i32 [ 0, %59 ], [ %89, %63 ]
  %67 = getelementptr inbounds %"class.dealii::Point", ptr %64, i64 %65
  %68 = load ptr, ptr %60, align 8, !tbaa !31
  %69 = load double, ptr %67, align 8, !tbaa !34, !noalias !98
  %70 = load double, ptr %68, align 8, !tbaa !34, !noalias !98
  %71 = fadd double %69, %70
  store double %71, ptr %6, align 8, !tbaa !34
  %72 = load double, ptr %67, align 8, !tbaa !34, !noalias !101
  %73 = load double, ptr %68, align 8, !tbaa !34, !noalias !101
  %74 = fsub double %72, %73
  store double %74, ptr %7, align 8, !tbaa !34
  %75 = load ptr, ptr %0, align 8, !tbaa !5
  %76 = getelementptr inbounds ptr, ptr %75, i64 4
  %77 = load ptr, ptr %76, align 8
  %78 = call noundef double %77(ptr noundef nonnull align 8 dereferenceable(92) %0, ptr noundef nonnull align 8 dereferenceable(8) %6, i32 noundef %3)
  %79 = load ptr, ptr %0, align 8, !tbaa !5
  %80 = getelementptr inbounds ptr, ptr %79, i64 4
  %81 = load ptr, ptr %80, align 8
  %82 = call noundef double %81(ptr noundef nonnull align 8 dereferenceable(92) %0, ptr noundef nonnull align 8 dereferenceable(8) %7, i32 noundef %3)
  %83 = fsub double %78, %82
  %84 = load double, ptr %61, align 8, !tbaa !8
  %85 = fmul double %84, 2.000000e+00
  %86 = fdiv double %83, %85
  %87 = load ptr, ptr %2, align 8, !tbaa !31
  %88 = getelementptr inbounds %"class.dealii::Tensor", ptr %87, i64 %65
  store double %86, ptr %88, align 8, !tbaa !34
  %89 = add i32 %66, 1
  %90 = zext i32 %89 to i64
  %91 = load ptr, ptr %55, align 8, !tbaa !92
  %92 = load ptr, ptr %1, align 8, !tbaa !94
  %93 = ptrtoint ptr %91 to i64
  %94 = ptrtoint ptr %92 to i64
  %95 = sub i64 %93, %94
  %96 = ashr exact i64 %95, 3
  %97 = icmp ugt i64 %96, %90
  br i1 %97, label %63, label %62

98:                                               ; preds = %4
  call void @llvm.lifetime.start.p0(i64 8, ptr nonnull %8) #15
  store double 0.000000e+00, ptr %8, align 8, !tbaa !34
  call void @llvm.lifetime.start.p0(i64 8, ptr nonnull %9) #15
  store double 0.000000e+00, ptr %9, align 8, !tbaa !34
  call void @llvm.lifetime.start.p0(i64 8, ptr nonnull %10) #15
  store double 0.000000e+00, ptr %10, align 8, !tbaa !34
  call void @llvm.lifetime.start.p0(i64 8, ptr nonnull %11) #15
  store double 0.000000e+00, ptr %11, align 8, !tbaa !34
  %99 = getelementptr inbounds %"struct.std::_Vector_base<dealii::Point<1>, std::allocator<dealii::Point<1> > >::_Vector_impl_data", ptr %1, i64 0, i32 1
  %100 = load ptr, ptr %99, align 8, !tbaa !92
  %101 = load ptr, ptr %1, align 8, !tbaa !94
  %102 = icmp eq ptr %100, %101
  br i1 %102, label %106, label %103

103:                                              ; preds = %98
  %104 = getelementptr inbounds %"class.dealii::AutoDerivativeFunction", ptr %0, i64 0, i32 3
  %105 = getelementptr inbounds %"class.dealii::AutoDerivativeFunction", ptr %0, i64 0, i32 2
  br label %107

106:                                              ; preds = %107, %98
  call void @llvm.lifetime.end.p0(i64 8, ptr nonnull %11) #15
  call void @llvm.lifetime.end.p0(i64 8, ptr nonnull %10) #15
  call void @llvm.lifetime.end.p0(i64 8, ptr nonnull %9) #15
  call void @llvm.lifetime.end.p0(i64 8, ptr nonnull %8) #15
  br label %157

107:                                              ; preds = %103, %107
  %108 = phi ptr [ %101, %103 ], [ %151, %107 ]
  %109 = phi i64 [ 0, %103 ], [ %149, %107 ]
  %110 = phi i32 [ 0, %103 ], [ %148, %107 ]
  %111 = getelementptr inbounds %"class.dealii::Point", ptr %108, i64 %109
  %112 = load ptr, ptr %104, align 8, !tbaa !31
  %113 = load double, ptr %111, align 8, !tbaa !34, !noalias !104
  %114 = load double, ptr %112, align 8, !tbaa !34, !noalias !104
  %115 = fadd double %113, %114
  store double %115, ptr %9, align 8, !tbaa !34
  %116 = load double, ptr %112, align 8, !tbaa !34, !noalias !107
  %117 = fadd double %115, %116
  store double %117, ptr %8, align 8, !tbaa !34
  %118 = load double, ptr %111, align 8, !tbaa !34, !noalias !110
  %119 = load double, ptr %112, align 8, !tbaa !34, !noalias !110
  %120 = fsub double %118, %119
  store double %120, ptr %10, align 8, !tbaa !34
  %121 = load double, ptr %112, align 8, !tbaa !34, !noalias !113
  %122 = fsub double %120, %121
  store double %122, ptr %11, align 8, !tbaa !34
  %123 = load ptr, ptr %0, align 8, !tbaa !5
  %124 = getelementptr inbounds ptr, ptr %123, i64 4
  %125 = load ptr, ptr %124, align 8
  %126 = call noundef double %125(ptr noundef nonnull align 8 dereferenceable(92) %0, ptr noundef nonnull align 8 dereferenceable(8) %8, i32 noundef %3)
  %127 = fneg double %126
  %128 = load ptr, ptr %0, align 8, !tbaa !5
  %129 = getelementptr inbounds ptr, ptr %128, i64 4
  %130 = load ptr, ptr %129, align 8
  %131 = call noundef double %130(ptr noundef nonnull align 8 dereferenceable(92) %0, ptr noundef nonnull align 8 dereferenceable(8) %9, i32 noundef %3)
  %132 = call double @llvm.fmuladd.f64(double %131, double 8.000000e+00, double %127)
  %133 = load ptr, ptr %0, align 8, !tbaa !5
  %134 = getelementptr inbounds ptr, ptr %133, i64 4
  %135 = load ptr, ptr %134, align 8
  %136 = call noundef double %135(ptr noundef nonnull align 8 dereferenceable(92) %0, ptr noundef nonnull align 8 dereferenceable(8) %10, i32 noundef %3)
  %137 = call double @llvm.fmuladd.f64(double %136, double -8.000000e+00, double %132)
  %138 = load ptr, ptr %0, align 8, !tbaa !5
  %139 = getelementptr inbounds ptr, ptr %138, i64 4
  %140 = load ptr, ptr %139, align 8
  %141 = call noundef double %140(ptr noundef nonnull align 8 dereferenceable(92) %0, ptr noundef nonnull align 8 dereferenceable(8) %11, i32 noundef %3)
  %142 = fadd double %137, %141
  %143 = load double, ptr %105, align 8, !tbaa !8
  %144 = fmul double %143, 1.200000e+01
  %145 = fdiv double %142, %144
  %146 = load ptr, ptr %2, align 8, !tbaa !31
  %147 = getelementptr inbounds %"class.dealii::Tensor", ptr %146, i64 %109
  store double %145, ptr %147, align 8, !tbaa !34
  %148 = add i32 %110, 1
  %149 = zext i32 %148 to i64
  %150 = load ptr, ptr %99, align 8, !tbaa !92
  %151 = load ptr, ptr %1, align 8, !tbaa !94
  %152 = ptrtoint ptr %150 to i64
  %153 = ptrtoint ptr %151 to i64
  %154 = sub i64 %152, %153
  %155 = ashr exact i64 %154, 3
  %156 = icmp ugt i64 %155, %149
  br i1 %156, label %107, label %106

157:                                              ; preds = %4, %106, %62, %22
  ret void
}

; Function Attrs: sspstrong uwtable
define weak_odr dso_local void @_ZNK6dealii22AutoDerivativeFunctionILi1EE20vector_gradient_listERKSt6vectorINS_5PointILi1EEESaIS4_EERS2_IS2_INS_6TensorILi1ELi1EEESaISA_EESaISC_EE(ptr noundef nonnull align 8 dereferenceable(132) %0, ptr noundef nonnull align 8 dereferenceable(24) %1, ptr noundef nonnull align 8 dereferenceable(24) %2) unnamed_addr #0 comdat align 2 {
  %4 = alloca %"class.dealii::Point", align 8
  %5 = alloca %"class.dealii::Point", align 8
  %6 = alloca %"class.dealii::Point", align 8
  %7 = alloca %"class.dealii::Point", align 8
  %8 = alloca %"class.dealii::Point", align 8
  %9 = alloca %"class.dealii::Point", align 8
  %10 = alloca %"class.dealii::Point", align 8
  %11 = getelementptr inbounds %"struct.std::_Vector_base<dealii::Point<1>, std::allocator<dealii::Point<1> > >::_Vector_impl_data", ptr %1, i64 0, i32 1
  %12 = load ptr, ptr %11, align 8, !tbaa !92
  %13 = load ptr, ptr %1, align 8, !tbaa !94
  %14 = ptrtoint ptr %12 to i64
  %15 = ptrtoint ptr %13 to i64
  %16 = sub i64 %14, %15
  %17 = ashr exact i64 %16, 3
  br label %18

18:                                               ; preds = %18, %3
  %19 = phi i32 [ 0, %3 ], [ %22, %18 ]
  %20 = zext i32 %19 to i64
  %21 = icmp ugt i64 %17, %20
  %22 = add i32 %19, 1
  br i1 %21, label %18, label %23

23:                                               ; preds = %18
  %24 = getelementptr inbounds %"class.dealii::AutoDerivativeFunction", ptr %0, i64 0, i32 4
  %25 = load i32, ptr %24, align 8, !tbaa !35
  switch i32 %25, label %235 [
    i32 1, label %26
    i32 0, label %92
    i32 2, label %160
  ]

26:                                               ; preds = %23
  call void @llvm.lifetime.start.p0(i64 8, ptr nonnull %4) #15
  store double 0.000000e+00, ptr %4, align 8, !tbaa !34
  %27 = icmp eq ptr %12, %13
  br i1 %27, label %41, label %28

28:                                               ; preds = %26
  %29 = getelementptr inbounds %"class.dealii::AutoDerivativeFunction", ptr %0, i64 0, i32 3
  %30 = getelementptr inbounds %"class.dealii::Function", ptr %0, i64 0, i32 2
  %31 = getelementptr inbounds %"class.dealii::AutoDerivativeFunction", ptr %0, i64 0, i32 2
  %32 = load i32, ptr %30, align 8, !tbaa !58
  %33 = icmp eq i32 %32, 0
  br i1 %33, label %34, label %42

34:                                               ; preds = %28
  %35 = icmp ugt i64 %16, 8
  br i1 %35, label %36, label %41

36:                                               ; preds = %34, %36
  %37 = phi i32 [ %38, %36 ], [ 1, %34 ]
  %38 = add i32 %37, 1
  %39 = zext i32 %38 to i64
  %40 = icmp ugt i64 %17, %39
  br i1 %40, label %36, label %41, !llvm.loop !116

41:                                               ; preds = %57, %36, %34, %26
  call void @llvm.lifetime.end.p0(i64 8, ptr nonnull %4) #15
  br label %235

42:                                               ; preds = %28, %57
  %43 = phi ptr [ %58, %57 ], [ %13, %28 ]
  %44 = phi ptr [ %59, %57 ], [ %12, %28 ]
  %45 = phi i32 [ %60, %57 ], [ 1, %28 ]
  %46 = phi i64 [ %62, %57 ], [ 0, %28 ]
  %47 = phi i32 [ %61, %57 ], [ 0, %28 ]
  %48 = getelementptr inbounds %"class.dealii::Point", ptr %43, i64 %46
  %49 = load ptr, ptr %29, align 8, !tbaa !31
  %50 = load double, ptr %48, align 8, !tbaa !34, !noalias !118
  %51 = load double, ptr %49, align 8, !tbaa !34, !noalias !118
  %52 = fsub double %50, %51
  store double %52, ptr %4, align 8, !tbaa !34
  %53 = icmp eq i32 %45, 0
  br i1 %53, label %57, label %68

54:                                               ; preds = %68
  %55 = load ptr, ptr %11, align 8, !tbaa !92
  %56 = load ptr, ptr %1, align 8, !tbaa !94
  br label %57

57:                                               ; preds = %54, %42
  %58 = phi ptr [ %56, %54 ], [ %43, %42 ]
  %59 = phi ptr [ %55, %54 ], [ %44, %42 ]
  %60 = phi i32 [ %89, %54 ], [ 0, %42 ]
  %61 = add i32 %47, 1
  %62 = zext i32 %61 to i64
  %63 = ptrtoint ptr %59 to i64
  %64 = ptrtoint ptr %58 to i64
  %65 = sub i64 %63, %64
  %66 = ashr exact i64 %65, 3
  %67 = icmp ugt i64 %66, %62
  br i1 %67, label %42, label %41, !llvm.loop !121

68:                                               ; preds = %42, %68
  %69 = phi i64 [ %88, %68 ], [ 0, %42 ]
  %70 = load ptr, ptr %1, align 8, !tbaa !94
  %71 = getelementptr inbounds %"class.dealii::Point", ptr %70, i64 %46
  %72 = load ptr, ptr %0, align 8, !tbaa !5
  %73 = getelementptr inbounds ptr, ptr %72, i64 4
  %74 = load ptr, ptr %73, align 8
  %75 = trunc i64 %69 to i32
  %76 = call noundef double %74(ptr noundef nonnull align 8 dereferenceable(92) %0, ptr noundef nonnull align 8 dereferenceable(8) %71, i32 noundef %75)
  %77 = load ptr, ptr %0, align 8, !tbaa !5
  %78 = getelementptr inbounds ptr, ptr %77, i64 4
  %79 = load ptr, ptr %78, align 8
  %80 = call noundef double %79(ptr noundef nonnull align 8 dereferenceable(92) %0, ptr noundef nonnull align 8 dereferenceable(8) %4, i32 noundef %75)
  %81 = fsub double %76, %80
  %82 = load double, ptr %31, align 8, !tbaa !8
  %83 = fdiv double %81, %82
  %84 = load ptr, ptr %2, align 8, !tbaa !123
  %85 = getelementptr inbounds %"class.std::vector", ptr %84, i64 %46
  %86 = load ptr, ptr %85, align 8, !tbaa !31
  %87 = getelementptr inbounds %"class.dealii::Tensor", ptr %86, i64 %69
  store double %83, ptr %87, align 8, !tbaa !34
  %88 = add nuw nsw i64 %69, 1
  %89 = load i32, ptr %30, align 8, !tbaa !58
  %90 = zext i32 %89 to i64
  %91 = icmp ult i64 %88, %90
  br i1 %91, label %68, label %54

92:                                               ; preds = %23
  call void @llvm.lifetime.start.p0(i64 8, ptr nonnull %5) #15
  store double 0.000000e+00, ptr %5, align 8, !tbaa !34
  call void @llvm.lifetime.start.p0(i64 8, ptr nonnull %6) #15
  store double 0.000000e+00, ptr %6, align 8, !tbaa !34
  %93 = icmp eq ptr %12, %13
  br i1 %93, label %107, label %94

94:                                               ; preds = %92
  %95 = getelementptr inbounds %"class.dealii::AutoDerivativeFunction", ptr %0, i64 0, i32 3
  %96 = getelementptr inbounds %"class.dealii::Function", ptr %0, i64 0, i32 2
  %97 = getelementptr inbounds %"class.dealii::AutoDerivativeFunction", ptr %0, i64 0, i32 2
  %98 = load i32, ptr %96, align 8, !tbaa !58
  %99 = icmp eq i32 %98, 0
  br i1 %99, label %100, label %108

100:                                              ; preds = %94
  %101 = icmp ugt i64 %16, 8
  br i1 %101, label %102, label %107

102:                                              ; preds = %100, %102
  %103 = phi i32 [ %104, %102 ], [ 1, %100 ]
  %104 = add i32 %103, 1
  %105 = zext i32 %104 to i64
  %106 = icmp ugt i64 %17, %105
  br i1 %106, label %102, label %107, !llvm.loop !125

107:                                              ; preds = %126, %102, %100, %92
  call void @llvm.lifetime.end.p0(i64 8, ptr nonnull %6) #15
  call void @llvm.lifetime.end.p0(i64 8, ptr nonnull %5) #15
  br label %235

108:                                              ; preds = %94, %126
  %109 = phi ptr [ %127, %126 ], [ %13, %94 ]
  %110 = phi ptr [ %128, %126 ], [ %12, %94 ]
  %111 = phi i32 [ %129, %126 ], [ 1, %94 ]
  %112 = phi i64 [ %131, %126 ], [ 0, %94 ]
  %113 = phi i32 [ %130, %126 ], [ 0, %94 ]
  %114 = getelementptr inbounds %"class.dealii::Point", ptr %109, i64 %112
  %115 = load ptr, ptr %95, align 8, !tbaa !31
  %116 = load double, ptr %114, align 8, !tbaa !34, !noalias !126
  %117 = load double, ptr %115, align 8, !tbaa !34, !noalias !126
  %118 = fadd double %116, %117
  store double %118, ptr %5, align 8, !tbaa !34
  %119 = load double, ptr %114, align 8, !tbaa !34, !noalias !129
  %120 = load double, ptr %115, align 8, !tbaa !34, !noalias !129
  %121 = fsub double %119, %120
  store double %121, ptr %6, align 8, !tbaa !34
  %122 = icmp eq i32 %111, 0
  br i1 %122, label %126, label %137

123:                                              ; preds = %137
  %124 = load ptr, ptr %11, align 8, !tbaa !92
  %125 = load ptr, ptr %1, align 8, !tbaa !94
  br label %126

126:                                              ; preds = %123, %108
  %127 = phi ptr [ %125, %123 ], [ %109, %108 ]
  %128 = phi ptr [ %124, %123 ], [ %110, %108 ]
  %129 = phi i32 [ %157, %123 ], [ 0, %108 ]
  %130 = add i32 %113, 1
  %131 = zext i32 %130 to i64
  %132 = ptrtoint ptr %128 to i64
  %133 = ptrtoint ptr %127 to i64
  %134 = sub i64 %132, %133
  %135 = ashr exact i64 %134, 3
  %136 = icmp ugt i64 %135, %131
  br i1 %136, label %108, label %107, !llvm.loop !132

137:                                              ; preds = %108, %137
  %138 = phi i64 [ %156, %137 ], [ 0, %108 ]
  %139 = load ptr, ptr %0, align 8, !tbaa !5
  %140 = getelementptr inbounds ptr, ptr %139, i64 4
  %141 = load ptr, ptr %140, align 8
  %142 = trunc i64 %138 to i32
  %143 = call noundef double %141(ptr noundef nonnull align 8 dereferenceable(92) %0, ptr noundef nonnull align 8 dereferenceable(8) %5, i32 noundef %142)
  %144 = load ptr, ptr %0, align 8, !tbaa !5
  %145 = getelementptr inbounds ptr, ptr %144, i64 4
  %146 = load ptr, ptr %145, align 8
  %147 = call noundef double %146(ptr noundef nonnull align 8 dereferenceable(92) %0, ptr noundef nonnull align 8 dereferenceable(8) %6, i32 noundef %142)
  %148 = fsub double %143, %147
  %149 = load double, ptr %97, align 8, !tbaa !8
  %150 = fmul double %149, 2.000000e+00
  %151 = fdiv double %148, %150
  %152 = load ptr, ptr %2, align 8, !tbaa !123
  %153 = getelementptr inbounds %"class.std::vector", ptr %152, i64 %112
  %154 = load ptr, ptr %153, align 8, !tbaa !31
  %155 = getelementptr inbounds %"class.dealii::Tensor", ptr %154, i64 %138
  store double %151, ptr %155, align 8, !tbaa !34
  %156 = add nuw nsw i64 %138, 1
  %157 = load i32, ptr %96, align 8, !tbaa !58
  %158 = zext i32 %157 to i64
  %159 = icmp ult i64 %156, %158
  br i1 %159, label %137, label %123

160:                                              ; preds = %23
  call void @llvm.lifetime.start.p0(i64 8, ptr nonnull %7) #15
  store double 0.000000e+00, ptr %7, align 8, !tbaa !34
  call void @llvm.lifetime.start.p0(i64 8, ptr nonnull %8) #15
  store double 0.000000e+00, ptr %8, align 8, !tbaa !34
  call void @llvm.lifetime.start.p0(i64 8, ptr nonnull %9) #15
  store double 0.000000e+00, ptr %9, align 8, !tbaa !34
  call void @llvm.lifetime.start.p0(i64 8, ptr nonnull %10) #15
  store double 0.000000e+00, ptr %10, align 8, !tbaa !34
  %161 = icmp eq ptr %12, %13
  br i1 %161, label %167, label %162

162:                                              ; preds = %160
  %163 = getelementptr inbounds %"class.dealii::AutoDerivativeFunction", ptr %0, i64 0, i32 3
  %164 = getelementptr inbounds %"class.dealii::Function", ptr %0, i64 0, i32 2
  %165 = getelementptr inbounds %"class.dealii::AutoDerivativeFunction", ptr %0, i64 0, i32 2
  %166 = load i32, ptr %164, align 8, !tbaa !58
  br label %168

167:                                              ; preds = %190, %160
  call void @llvm.lifetime.end.p0(i64 8, ptr nonnull %10) #15
  call void @llvm.lifetime.end.p0(i64 8, ptr nonnull %9) #15
  call void @llvm.lifetime.end.p0(i64 8, ptr nonnull %8) #15
  call void @llvm.lifetime.end.p0(i64 8, ptr nonnull %7) #15
  br label %235

168:                                              ; preds = %162, %190
  %169 = phi ptr [ %13, %162 ], [ %191, %190 ]
  %170 = phi ptr [ %12, %162 ], [ %192, %190 ]
  %171 = phi i32 [ %166, %162 ], [ %193, %190 ]
  %172 = phi i64 [ 0, %162 ], [ %195, %190 ]
  %173 = phi i32 [ 0, %162 ], [ %194, %190 ]
  %174 = getelementptr inbounds %"class.dealii::Point", ptr %169, i64 %172
  %175 = load ptr, ptr %163, align 8, !tbaa !31
  %176 = load double, ptr %174, align 8, !tbaa !34, !noalias !133
  %177 = load double, ptr %175, align 8, !tbaa !34, !noalias !133
  %178 = fadd double %176, %177
  store double %178, ptr %8, align 8, !tbaa !34
  %179 = load double, ptr %175, align 8, !tbaa !34, !noalias !136
  %180 = fadd double %178, %179
  store double %180, ptr %7, align 8, !tbaa !34
  %181 = load double, ptr %174, align 8, !tbaa !34, !noalias !139
  %182 = load double, ptr %175, align 8, !tbaa !34, !noalias !139
  %183 = fsub double %181, %182
  store double %183, ptr %9, align 8, !tbaa !34
  %184 = load double, ptr %175, align 8, !tbaa !34, !noalias !142
  %185 = fsub double %183, %184
  store double %185, ptr %10, align 8, !tbaa !34
  %186 = icmp eq i32 %171, 0
  br i1 %186, label %190, label %201

187:                                              ; preds = %201
  %188 = load ptr, ptr %11, align 8, !tbaa !92
  %189 = load ptr, ptr %1, align 8, !tbaa !94
  br label %190

190:                                              ; preds = %187, %168
  %191 = phi ptr [ %189, %187 ], [ %169, %168 ]
  %192 = phi ptr [ %188, %187 ], [ %170, %168 ]
  %193 = phi i32 [ %232, %187 ], [ 0, %168 ]
  %194 = add i32 %173, 1
  %195 = zext i32 %194 to i64
  %196 = ptrtoint ptr %192 to i64
  %197 = ptrtoint ptr %191 to i64
  %198 = sub i64 %196, %197
  %199 = ashr exact i64 %198, 3
  %200 = icmp ugt i64 %199, %195
  br i1 %200, label %168, label %167

201:                                              ; preds = %168, %201
  %202 = phi i64 [ %231, %201 ], [ 0, %168 ]
  %203 = load ptr, ptr %0, align 8, !tbaa !5
  %204 = getelementptr inbounds ptr, ptr %203, i64 4
  %205 = load ptr, ptr %204, align 8
  %206 = trunc i64 %202 to i32
  %207 = call noundef double %205(ptr noundef nonnull align 8 dereferenceable(92) %0, ptr noundef nonnull align 8 dereferenceable(8) %7, i32 noundef %206)
  %208 = fneg double %207
  %209 = load ptr, ptr %0, align 8, !tbaa !5
  %210 = getelementptr inbounds ptr, ptr %209, i64 4
  %211 = load ptr, ptr %210, align 8
  %212 = call noundef double %211(ptr noundef nonnull align 8 dereferenceable(92) %0, ptr noundef nonnull align 8 dereferenceable(8) %8, i32 noundef %206)
  %213 = call double @llvm.fmuladd.f64(double %212, double 8.000000e+00, double %208)
  %214 = load ptr, ptr %0, align 8, !tbaa !5
  %215 = getelementptr inbounds ptr, ptr %214, i64 4
  %216 = load ptr, ptr %215, align 8
  %217 = call noundef double %216(ptr noundef nonnull align 8 dereferenceable(92) %0, ptr noundef nonnull align 8 dereferenceable(8) %9, i32 noundef %206)
  %218 = call double @llvm.fmuladd.f64(double %217, double -8.000000e+00, double %213)
  %219 = load ptr, ptr %0, align 8, !tbaa !5
  %220 = getelementptr inbounds ptr, ptr %219, i64 4
  %221 = load ptr, ptr %220, align 8
  %222 = call noundef double %221(ptr noundef nonnull align 8 dereferenceable(92) %0, ptr noundef nonnull align 8 dereferenceable(8) %10, i32 noundef %206)
  %223 = fadd double %218, %222
  %224 = load double, ptr %165, align 8, !tbaa !8
  %225 = fmul double %224, 1.200000e+01
  %226 = fdiv double %223, %225
  %227 = load ptr, ptr %2, align 8, !tbaa !123
  %228 = getelementptr inbounds %"class.std::vector", ptr %227, i64 %172
  %229 = load ptr, ptr %228, align 8, !tbaa !31
  %230 = getelementptr inbounds %"class.dealii::Tensor", ptr %229, i64 %202
  store double %226, ptr %230, align 8, !tbaa !34
  %231 = add nuw nsw i64 %202, 1
  %232 = load i32, ptr %164, align 8, !tbaa !58
  %233 = zext i32 %232 to i64
  %234 = icmp ult i64 %231, %233
  br i1 %234, label %201, label %187

235:                                              ; preds = %23, %167, %107, %41
  ret void
}

; Function Attrs: nounwind sspstrong uwtable
define weak_odr dso_local noundef i32 @_ZN6dealii22AutoDerivativeFunctionILi1EE20get_formula_of_orderEj(i32 noundef %0) local_unnamed_addr #3 comdat align 2 {
  %2 = icmp ult i32 %0, 5
  br i1 %2, label %3, label %7

3:                                                ; preds = %1
  %4 = sext i32 %0 to i64
  %5 = getelementptr inbounds [5 x i32], ptr @switch.table._ZN6dealii22AutoDerivativeFunctionILi3EE20get_formula_of_orderEj, i64 0, i64 %4
  %6 = load i32, ptr %5, align 4
  br label %7

7:                                                ; preds = %1, %3
  %8 = phi i32 [ %6, %3 ], [ 0, %1 ]
  ret i32 %8
}

; Function Attrs: sspstrong uwtable
define weak_odr dso_local void @_ZN6dealii22AutoDerivativeFunctionILi2EEC2Edjd(ptr noundef nonnull align 8 dereferenceable(132) %0, double noundef %1, i32 noundef %2, double noundef %3) unnamed_addr #0 comdat($_ZN6dealii22AutoDerivativeFunctionILi2EEC5Edjd) align 2 personality ptr @__gxx_personality_v0 {
  tail call void @_ZN6dealii8FunctionILi2EEC2Ejd(ptr noundef nonnull align 8 dereferenceable(92) %0, i32 noundef %2, double noundef %3)
  store ptr getelementptr inbounds ({ [18 x ptr], [4 x ptr] }, ptr @_ZTVN6dealii22AutoDerivativeFunctionILi2EEE, i64 0, inrange i32 0, i64 2), ptr %0, align 8, !tbaa !5
  %5 = getelementptr inbounds i8, ptr %0, i64 16
  store ptr getelementptr inbounds ({ [18 x ptr], [4 x ptr] }, ptr @_ZTVN6dealii22AutoDerivativeFunctionILi2EEE, i64 0, inrange i32 1, i64 2), ptr %5, align 8, !tbaa !5
  %6 = getelementptr inbounds %"class.dealii::AutoDerivativeFunction.13", ptr %0, i64 0, i32 2
  store double 1.000000e+00, ptr %6, align 8, !tbaa !145
  %7 = getelementptr inbounds %"class.dealii::AutoDerivativeFunction.13", ptr %0, i64 0, i32 3
  tail call void @llvm.memset.p0.i64(ptr noundef nonnull align 8 dereferenceable(24) %7, i8 0, i64 24, i1 false)
  %8 = invoke noalias noundef nonnull dereferenceable(32) ptr @_Znwm(i64 noundef 32) #13
          to label %9 unwind label %16

9:                                                ; preds = %4
  store ptr %8, ptr %7, align 8, !tbaa !153
  %10 = getelementptr inbounds %"class.dealii::Tensor.22", ptr %8, i64 2
  %11 = getelementptr inbounds %"class.dealii::AutoDerivativeFunction.13", ptr %0, i64 0, i32 3, i32 0, i32 0, i32 0, i32 2
  store ptr %10, ptr %11, align 8, !tbaa !154
  %12 = getelementptr inbounds i8, ptr %8, i64 8
  tail call void @llvm.memset.p0.i64(ptr noundef nonnull align 8 dereferenceable(32) %12, i8 0, i64 16, i1 false), !tbaa !34
  %13 = getelementptr inbounds %"class.dealii::AutoDerivativeFunction.13", ptr %0, i64 0, i32 3, i32 0, i32 0, i32 0, i32 1
  store ptr %10, ptr %13, align 8, !tbaa !155
  %14 = getelementptr inbounds %"class.dealii::AutoDerivativeFunction.13", ptr %0, i64 0, i32 4
  store double %1, ptr %6, align 8, !tbaa !145
  store double %1, ptr %8, align 8, !tbaa !34
  %15 = getelementptr inbounds %"class.dealii::Tensor.22", ptr %8, i64 1, i32 0, i64 1
  store double %1, ptr %15, align 8, !tbaa !34
  store i32 0, ptr %14, align 8, !tbaa !156
  ret void

16:                                               ; preds = %4
  %17 = landingpad { ptr, i32 }
          cleanup
  invoke void @_ZN6dealii8FunctionILi2EED2Ev(ptr noundef nonnull align 8 dereferenceable(92) %0)
          to label %18 unwind label %19

18:                                               ; preds = %16
  resume { ptr, i32 } %17

19:                                               ; preds = %16
  %20 = landingpad { ptr, i32 }
          catch ptr null
  %21 = extractvalue { ptr, i32 } %20, 0
  tail call void @__clang_call_terminate(ptr %21) #14
  unreachable
}

declare void @_ZN6dealii8FunctionILi2EEC2Ejd(ptr noundef nonnull align 8 dereferenceable(92), i32 noundef, double noundef) unnamed_addr #1

; Function Attrs: sspstrong uwtable
define weak_odr dso_local void @_ZN6dealii22AutoDerivativeFunctionILi2EE5set_hEd(ptr noundef nonnull align 8 dereferenceable(132) %0, double noundef %1) local_unnamed_addr #0 comdat align 2 {
  %3 = getelementptr inbounds %"class.dealii::AutoDerivativeFunction.13", ptr %0, i64 0, i32 2
  store double %1, ptr %3, align 8, !tbaa !145
  %4 = getelementptr inbounds %"class.dealii::AutoDerivativeFunction.13", ptr %0, i64 0, i32 3
  %5 = load ptr, ptr %4, align 8, !tbaa !153
  store double %1, ptr %5, align 8, !tbaa !34
  %6 = load double, ptr %3, align 8, !tbaa !145
  %7 = getelementptr inbounds %"class.dealii::Tensor.22", ptr %5, i64 1, i32 0, i64 1
  store double %6, ptr %7, align 8, !tbaa !34
  ret void
}

; Function Attrs: nounwind sspstrong uwtable
define weak_odr dso_local void @_ZN6dealii22AutoDerivativeFunctionILi2EE11set_formulaENS1_17DifferenceFormulaE(ptr noundef nonnull align 8 dereferenceable(132) %0, i32 noundef %1) local_unnamed_addr #3 comdat align 2 {
  %3 = getelementptr inbounds %"class.dealii::AutoDerivativeFunction.13", ptr %0, i64 0, i32 4
  store i32 %1, ptr %3, align 8, !tbaa !156
  ret void
}

declare void @_ZN6dealii8FunctionILi2EED2Ev(ptr noundef nonnull align 8 dereferenceable(92)) unnamed_addr #1

; Function Attrs: sspstrong uwtable
define weak_odr dso_local void @_ZN6dealii22AutoDerivativeFunctionILi2EED2Ev(ptr noundef nonnull align 8 dereferenceable(132) %0) unnamed_addr #0 comdat($_ZN6dealii22AutoDerivativeFunctionILi2EED5Ev) align 2 personality ptr @__gxx_personality_v0 {
  store ptr getelementptr inbounds ({ [18 x ptr], [4 x ptr] }, ptr @_ZTVN6dealii22AutoDerivativeFunctionILi2EEE, i64 0, inrange i32 0, i64 2), ptr %0, align 8, !tbaa !5
  %2 = getelementptr inbounds i8, ptr %0, i64 16
  store ptr getelementptr inbounds ({ [18 x ptr], [4 x ptr] }, ptr @_ZTVN6dealii22AutoDerivativeFunctionILi2EEE, i64 0, inrange i32 1, i64 2), ptr %2, align 8, !tbaa !5
  %3 = getelementptr inbounds %"class.dealii::AutoDerivativeFunction.13", ptr %0, i64 0, i32 3
  %4 = load ptr, ptr %3, align 8, !tbaa !153
  %5 = icmp eq ptr %4, null
  br i1 %5, label %7, label %6

6:                                                ; preds = %1
  tail call void @_ZdlPv(ptr noundef nonnull %4) #16
  br label %7

7:                                                ; preds = %6, %1
  tail call void @_ZN6dealii8FunctionILi2EED2Ev(ptr noundef nonnull align 8 dereferenceable(92) %0)
  ret void
}

; Function Attrs: sspstrong uwtable
define weak_odr dso_local void @_ZThn16_N6dealii22AutoDerivativeFunctionILi2EED1Ev(ptr noundef %0) unnamed_addr #0 comdat align 2 personality ptr @__gxx_personality_v0 {
  %2 = getelementptr inbounds i8, ptr %0, i64 -16
  store ptr getelementptr inbounds ({ [18 x ptr], [4 x ptr] }, ptr @_ZTVN6dealii22AutoDerivativeFunctionILi2EEE, i64 0, inrange i32 0, i64 2), ptr %2, align 8, !tbaa !5
  store ptr getelementptr inbounds ({ [18 x ptr], [4 x ptr] }, ptr @_ZTVN6dealii22AutoDerivativeFunctionILi2EEE, i64 0, inrange i32 1, i64 2), ptr %0, align 8, !tbaa !5
  %3 = getelementptr inbounds i8, ptr %0, i64 88
  %4 = load ptr, ptr %3, align 8, !tbaa !153
  %5 = icmp eq ptr %4, null
  br i1 %5, label %7, label %6

6:                                                ; preds = %1
  tail call void @_ZdlPv(ptr noundef nonnull %4) #16
  br label %7

7:                                                ; preds = %1, %6
  tail call void @_ZN6dealii8FunctionILi2EED2Ev(ptr noundef nonnull align 8 dereferenceable(92) %2)
  ret void
}

; Function Attrs: sspstrong uwtable
define weak_odr dso_local void @_ZN6dealii22AutoDerivativeFunctionILi2EED0Ev(ptr noundef nonnull align 8 dereferenceable(132) %0) unnamed_addr #0 comdat($_ZN6dealii22AutoDerivativeFunctionILi2EED5Ev) align 2 personality ptr @__gxx_personality_v0 {
  store ptr getelementptr inbounds ({ [18 x ptr], [4 x ptr] }, ptr @_ZTVN6dealii22AutoDerivativeFunctionILi2EEE, i64 0, inrange i32 0, i64 2), ptr %0, align 8, !tbaa !5
  %2 = getelementptr inbounds i8, ptr %0, i64 16
  store ptr getelementptr inbounds ({ [18 x ptr], [4 x ptr] }, ptr @_ZTVN6dealii22AutoDerivativeFunctionILi2EEE, i64 0, inrange i32 1, i64 2), ptr %2, align 8, !tbaa !5
  %3 = getelementptr inbounds %"class.dealii::AutoDerivativeFunction.13", ptr %0, i64 0, i32 3
  %4 = load ptr, ptr %3, align 8, !tbaa !153
  %5 = icmp eq ptr %4, null
  br i1 %5, label %7, label %6

6:                                                ; preds = %1
  tail call void @_ZdlPv(ptr noundef nonnull %4) #16
  br label %7

7:                                                ; preds = %6, %1
  invoke void @_ZN6dealii8FunctionILi2EED2Ev(ptr noundef nonnull align 8 dereferenceable(92) %0)
          to label %8 unwind label %9

8:                                                ; preds = %7
  tail call void @_ZdlPv(ptr noundef nonnull %0) #16
  ret void

9:                                                ; preds = %7
  %10 = landingpad { ptr, i32 }
          cleanup
  tail call void @_ZdlPv(ptr noundef nonnull %0) #16
  resume { ptr, i32 } %10
}

; Function Attrs: sspstrong uwtable
define weak_odr dso_local void @_ZThn16_N6dealii22AutoDerivativeFunctionILi2EED0Ev(ptr noundef %0) unnamed_addr #0 comdat align 2 personality ptr @__gxx_personality_v0 {
  %2 = getelementptr inbounds i8, ptr %0, i64 -16
  store ptr getelementptr inbounds ({ [18 x ptr], [4 x ptr] }, ptr @_ZTVN6dealii22AutoDerivativeFunctionILi2EEE, i64 0, inrange i32 0, i64 2), ptr %2, align 8, !tbaa !5
  store ptr getelementptr inbounds ({ [18 x ptr], [4 x ptr] }, ptr @_ZTVN6dealii22AutoDerivativeFunctionILi2EEE, i64 0, inrange i32 1, i64 2), ptr %0, align 8, !tbaa !5
  %3 = getelementptr inbounds i8, ptr %0, i64 88
  %4 = load ptr, ptr %3, align 8, !tbaa !153
  %5 = icmp eq ptr %4, null
  br i1 %5, label %7, label %6

6:                                                ; preds = %1
  tail call void @_ZdlPv(ptr noundef nonnull %4) #16
  br label %7

7:                                                ; preds = %6, %1
  invoke void @_ZN6dealii8FunctionILi2EED2Ev(ptr noundef nonnull align 8 dereferenceable(92) %2)
          to label %10 unwind label %8

8:                                                ; preds = %7
  %9 = landingpad { ptr, i32 }
          cleanup
  tail call void @_ZdlPv(ptr noundef nonnull %2) #16
  resume { ptr, i32 } %9

10:                                               ; preds = %7
  tail call void @_ZdlPv(ptr noundef nonnull %2) #16
  ret void
}

; Function Attrs: sspstrong uwtable
define weak_odr dso_local void @_ZNK6dealii22AutoDerivativeFunctionILi2EE8gradientERKNS_5PointILi2EEEj(ptr noalias sret(%"class.dealii::Tensor.22") align 8 %0, ptr noundef nonnull align 8 dereferenceable(132) %1, ptr noundef nonnull align 8 dereferenceable(16) %2, i32 noundef %3) unnamed_addr #0 comdat align 2 {
  %5 = alloca %"class.dealii::Point.23", align 16
  %6 = alloca %"class.dealii::Point.23", align 16
  %7 = alloca %"class.dealii::Point.23", align 16
  %8 = alloca %"class.dealii::Point.23", align 16
  %9 = alloca %"class.dealii::Point.23", align 16
  %10 = alloca %"class.dealii::Point.23", align 16
  %11 = alloca %"class.dealii::Point.23", align 16
  tail call void @llvm.memset.p0.i64(ptr noundef nonnull align 8 dereferenceable(16) %0, i8 0, i64 16, i1 false), !tbaa !34
  %12 = getelementptr inbounds %"class.dealii::AutoDerivativeFunction.13", ptr %1, i64 0, i32 4
  %13 = load i32, ptr %12, align 8, !tbaa !156
  switch i32 %13, label %162 [
    i32 1, label %14
    i32 0, label %51
    i32 2, label %92
  ]

14:                                               ; preds = %4
  call void @llvm.lifetime.start.p0(i64 16, ptr nonnull %5) #15
  %15 = getelementptr inbounds %"class.dealii::AutoDerivativeFunction.13", ptr %1, i64 0, i32 3
  %16 = getelementptr inbounds %"class.dealii::AutoDerivativeFunction.13", ptr %1, i64 0, i32 2
  %17 = load ptr, ptr %15, align 8, !tbaa !153
  %18 = load <2 x double>, ptr %2, align 8, !tbaa !34, !noalias !157
  %19 = load <2 x double>, ptr %17, align 8, !tbaa !34, !noalias !157
  %20 = fsub <2 x double> %18, %19
  store <2 x double> %20, ptr %5, align 16, !tbaa !34
  %21 = load ptr, ptr %1, align 8, !tbaa !5
  %22 = getelementptr inbounds ptr, ptr %21, i64 4
  %23 = load ptr, ptr %22, align 8
  %24 = tail call noundef double %23(ptr noundef nonnull align 8 dereferenceable(92) %1, ptr noundef nonnull align 8 dereferenceable(16) %2, i32 noundef %3)
  %25 = load ptr, ptr %1, align 8, !tbaa !5
  %26 = getelementptr inbounds ptr, ptr %25, i64 4
  %27 = load ptr, ptr %26, align 8
  %28 = call noundef double %27(ptr noundef nonnull align 8 dereferenceable(92) %1, ptr noundef nonnull align 8 dereferenceable(16) %5, i32 noundef %3)
  %29 = load <2 x double>, ptr %16, align 8
  %30 = load ptr, ptr %15, align 8, !tbaa !153
  %31 = getelementptr inbounds %"class.dealii::Tensor.22", ptr %30, i64 1
  %32 = load <2 x double>, ptr %2, align 8, !tbaa !34, !noalias !157
  %33 = load <2 x double>, ptr %31, align 8, !tbaa !34, !noalias !157
  %34 = fsub <2 x double> %32, %33
  store <2 x double> %34, ptr %5, align 16, !tbaa !34
  %35 = load ptr, ptr %1, align 8, !tbaa !5
  %36 = getelementptr inbounds ptr, ptr %35, i64 4
  %37 = load ptr, ptr %36, align 8
  %38 = call noundef double %37(ptr noundef nonnull align 8 dereferenceable(92) %1, ptr noundef nonnull align 8 dereferenceable(16) %2, i32 noundef %3)
  %39 = load ptr, ptr %1, align 8, !tbaa !5
  %40 = getelementptr inbounds ptr, ptr %39, i64 4
  %41 = load ptr, ptr %40, align 8
  %42 = call noundef double %41(ptr noundef nonnull align 8 dereferenceable(92) %1, ptr noundef nonnull align 8 dereferenceable(16) %5, i32 noundef %3)
  %43 = load double, ptr %16, align 8, !tbaa !145
  %44 = insertelement <2 x double> poison, double %24, i64 0
  %45 = insertelement <2 x double> %44, double %38, i64 1
  %46 = insertelement <2 x double> poison, double %28, i64 0
  %47 = insertelement <2 x double> %46, double %42, i64 1
  %48 = fsub <2 x double> %45, %47
  %49 = insertelement <2 x double> %29, double %43, i64 1
  %50 = fdiv <2 x double> %48, %49
  store <2 x double> %50, ptr %0, align 8, !tbaa !34
  call void @llvm.lifetime.end.p0(i64 16, ptr nonnull %5) #15
  br label %162

51:                                               ; preds = %4
  call void @llvm.lifetime.start.p0(i64 16, ptr nonnull %6) #15
  call void @llvm.lifetime.start.p0(i64 16, ptr nonnull %7) #15
  %52 = getelementptr inbounds %"class.dealii::AutoDerivativeFunction.13", ptr %1, i64 0, i32 3
  %53 = getelementptr inbounds %"class.dealii::AutoDerivativeFunction.13", ptr %1, i64 0, i32 2
  %54 = load ptr, ptr %52, align 8, !tbaa !153
  %55 = load <2 x double>, ptr %2, align 8, !tbaa !34, !noalias !39
  %56 = load <2 x double>, ptr %54, align 8, !tbaa !34, !noalias !160
  %57 = fadd <2 x double> %55, %56
  store <2 x double> %57, ptr %6, align 16, !tbaa !34
  %58 = load <2 x double>, ptr %54, align 8, !tbaa !34, !noalias !163
  %59 = fsub <2 x double> %55, %58
  store <2 x double> %59, ptr %7, align 16, !tbaa !34
  %60 = load ptr, ptr %1, align 8, !tbaa !5
  %61 = getelementptr inbounds ptr, ptr %60, i64 4
  %62 = load ptr, ptr %61, align 8
  %63 = call noundef double %62(ptr noundef nonnull align 8 dereferenceable(92) %1, ptr noundef nonnull align 8 dereferenceable(16) %6, i32 noundef %3)
  %64 = load ptr, ptr %1, align 8, !tbaa !5
  %65 = getelementptr inbounds ptr, ptr %64, i64 4
  %66 = load ptr, ptr %65, align 8
  %67 = call noundef double %66(ptr noundef nonnull align 8 dereferenceable(92) %1, ptr noundef nonnull align 8 dereferenceable(16) %7, i32 noundef %3)
  %68 = load <2 x double>, ptr %53, align 8
  %69 = load ptr, ptr %52, align 8, !tbaa !153
  %70 = getelementptr inbounds %"class.dealii::Tensor.22", ptr %69, i64 1
  %71 = load <2 x double>, ptr %2, align 8, !tbaa !34, !noalias !39
  %72 = load <2 x double>, ptr %70, align 8, !tbaa !34, !noalias !39
  %73 = fadd <2 x double> %71, %72
  store <2 x double> %73, ptr %6, align 16, !tbaa !34
  %74 = fsub <2 x double> %71, %72
  store <2 x double> %74, ptr %7, align 16, !tbaa !34
  %75 = load ptr, ptr %1, align 8, !tbaa !5
  %76 = getelementptr inbounds ptr, ptr %75, i64 4
  %77 = load ptr, ptr %76, align 8
  %78 = call noundef double %77(ptr noundef nonnull align 8 dereferenceable(92) %1, ptr noundef nonnull align 8 dereferenceable(16) %6, i32 noundef %3)
  %79 = load ptr, ptr %1, align 8, !tbaa !5
  %80 = getelementptr inbounds ptr, ptr %79, i64 4
  %81 = load ptr, ptr %80, align 8
  %82 = call noundef double %81(ptr noundef nonnull align 8 dereferenceable(92) %1, ptr noundef nonnull align 8 dereferenceable(16) %7, i32 noundef %3)
  %83 = load double, ptr %53, align 8, !tbaa !145
  %84 = insertelement <2 x double> poison, double %63, i64 0
  %85 = insertelement <2 x double> %84, double %78, i64 1
  %86 = insertelement <2 x double> poison, double %67, i64 0
  %87 = insertelement <2 x double> %86, double %82, i64 1
  %88 = fsub <2 x double> %85, %87
  %89 = insertelement <2 x double> %68, double %83, i64 1
  %90 = fmul <2 x double> %89, <double 2.000000e+00, double 2.000000e+00>
  %91 = fdiv <2 x double> %88, %90
  store <2 x double> %91, ptr %0, align 8, !tbaa !34
  call void @llvm.lifetime.end.p0(i64 16, ptr nonnull %7) #15
  call void @llvm.lifetime.end.p0(i64 16, ptr nonnull %6) #15
  br label %162

92:                                               ; preds = %4
  call void @llvm.lifetime.start.p0(i64 16, ptr nonnull %8) #15
  call void @llvm.lifetime.start.p0(i64 16, ptr nonnull %9) #15
  call void @llvm.lifetime.start.p0(i64 16, ptr nonnull %10) #15
  call void @llvm.lifetime.start.p0(i64 16, ptr nonnull %11) #15
  %93 = getelementptr inbounds %"class.dealii::AutoDerivativeFunction.13", ptr %1, i64 0, i32 3
  %94 = getelementptr inbounds %"class.dealii::AutoDerivativeFunction.13", ptr %1, i64 0, i32 2
  %95 = load ptr, ptr %93, align 8, !tbaa !153
  %96 = load <2 x double>, ptr %2, align 8, !tbaa !34, !noalias !39
  %97 = load <2 x double>, ptr %95, align 8, !tbaa !34, !noalias !166
  %98 = fadd <2 x double> %96, %97
  store <2 x double> %98, ptr %9, align 16, !tbaa !34
  %99 = load <2 x double>, ptr %95, align 8, !tbaa !34, !noalias !169
  %100 = fadd <2 x double> %98, %99
  store <2 x double> %100, ptr %8, align 16, !tbaa !34
  %101 = load <2 x double>, ptr %95, align 8, !tbaa !34, !noalias !172
  %102 = fsub <2 x double> %96, %101
  store <2 x double> %102, ptr %10, align 16, !tbaa !34
  %103 = load <2 x double>, ptr %95, align 8, !tbaa !34, !noalias !175
  %104 = fsub <2 x double> %102, %103
  store <2 x double> %104, ptr %11, align 16, !tbaa !34
  %105 = load ptr, ptr %1, align 8, !tbaa !5
  %106 = getelementptr inbounds ptr, ptr %105, i64 4
  %107 = load ptr, ptr %106, align 8
  %108 = call noundef double %107(ptr noundef nonnull align 8 dereferenceable(92) %1, ptr noundef nonnull align 8 dereferenceable(16) %8, i32 noundef %3)
  %109 = load ptr, ptr %1, align 8, !tbaa !5
  %110 = getelementptr inbounds ptr, ptr %109, i64 4
  %111 = load ptr, ptr %110, align 8
  %112 = call noundef double %111(ptr noundef nonnull align 8 dereferenceable(92) %1, ptr noundef nonnull align 8 dereferenceable(16) %9, i32 noundef %3)
  %113 = load ptr, ptr %1, align 8, !tbaa !5
  %114 = getelementptr inbounds ptr, ptr %113, i64 4
  %115 = load ptr, ptr %114, align 8
  %116 = call noundef double %115(ptr noundef nonnull align 8 dereferenceable(92) %1, ptr noundef nonnull align 8 dereferenceable(16) %10, i32 noundef %3)
  %117 = load ptr, ptr %1, align 8, !tbaa !5
  %118 = getelementptr inbounds ptr, ptr %117, i64 4
  %119 = load ptr, ptr %118, align 8
  %120 = call noundef double %119(ptr noundef nonnull align 8 dereferenceable(92) %1, ptr noundef nonnull align 8 dereferenceable(16) %11, i32 noundef %3)
  %121 = load <2 x double>, ptr %94, align 8
  %122 = load ptr, ptr %93, align 8, !tbaa !153
  %123 = getelementptr inbounds %"class.dealii::Tensor.22", ptr %122, i64 1
  %124 = load <2 x double>, ptr %2, align 8, !tbaa !34, !noalias !39
  %125 = load <2 x double>, ptr %123, align 8, !tbaa !34, !noalias !39
  %126 = fadd <2 x double> %124, %125
  store <2 x double> %126, ptr %9, align 16, !tbaa !34
  %127 = fadd <2 x double> %126, %125
  store <2 x double> %127, ptr %8, align 16, !tbaa !34
  %128 = fsub <2 x double> %124, %125
  store <2 x double> %128, ptr %10, align 16, !tbaa !34
  %129 = fsub <2 x double> %128, %125
  store <2 x double> %129, ptr %11, align 16, !tbaa !34
  %130 = load ptr, ptr %1, align 8, !tbaa !5
  %131 = getelementptr inbounds ptr, ptr %130, i64 4
  %132 = load ptr, ptr %131, align 8
  %133 = call noundef double %132(ptr noundef nonnull align 8 dereferenceable(92) %1, ptr noundef nonnull align 8 dereferenceable(16) %8, i32 noundef %3)
  %134 = load ptr, ptr %1, align 8, !tbaa !5
  %135 = getelementptr inbounds ptr, ptr %134, i64 4
  %136 = load ptr, ptr %135, align 8
  %137 = call noundef double %136(ptr noundef nonnull align 8 dereferenceable(92) %1, ptr noundef nonnull align 8 dereferenceable(16) %9, i32 noundef %3)
  %138 = load ptr, ptr %1, align 8, !tbaa !5
  %139 = getelementptr inbounds ptr, ptr %138, i64 4
  %140 = load ptr, ptr %139, align 8
  %141 = call noundef double %140(ptr noundef nonnull align 8 dereferenceable(92) %1, ptr noundef nonnull align 8 dereferenceable(16) %10, i32 noundef %3)
  %142 = load ptr, ptr %1, align 8, !tbaa !5
  %143 = getelementptr inbounds ptr, ptr %142, i64 4
  %144 = load ptr, ptr %143, align 8
  %145 = call noundef double %144(ptr noundef nonnull align 8 dereferenceable(92) %1, ptr noundef nonnull align 8 dereferenceable(16) %11, i32 noundef %3)
  %146 = load double, ptr %94, align 8, !tbaa !145
  %147 = insertelement <2 x double> poison, double %108, i64 0
  %148 = insertelement <2 x double> %147, double %133, i64 1
  %149 = fneg <2 x double> %148
  %150 = insertelement <2 x double> poison, double %112, i64 0
  %151 = insertelement <2 x double> %150, double %137, i64 1
  %152 = call <2 x double> @llvm.fmuladd.v2f64(<2 x double> %151, <2 x double> <double 8.000000e+00, double 8.000000e+00>, <2 x double> %149)
  %153 = insertelement <2 x double> poison, double %116, i64 0
  %154 = insertelement <2 x double> %153, double %141, i64 1
  %155 = call <2 x double> @llvm.fmuladd.v2f64(<2 x double> %154, <2 x double> <double -8.000000e+00, double -8.000000e+00>, <2 x double> %152)
  %156 = insertelement <2 x double> poison, double %120, i64 0
  %157 = insertelement <2 x double> %156, double %145, i64 1
  %158 = fadd <2 x double> %155, %157
  %159 = insertelement <2 x double> %121, double %146, i64 1
  %160 = fmul <2 x double> %159, <double 1.200000e+01, double 1.200000e+01>
  %161 = fdiv <2 x double> %158, %160
  store <2 x double> %161, ptr %0, align 8, !tbaa !34
  call void @llvm.lifetime.end.p0(i64 16, ptr nonnull %11) #15
  call void @llvm.lifetime.end.p0(i64 16, ptr nonnull %10) #15
  call void @llvm.lifetime.end.p0(i64 16, ptr nonnull %9) #15
  call void @llvm.lifetime.end.p0(i64 16, ptr nonnull %8) #15
  br label %162

162:                                              ; preds = %4, %92, %51, %14
  ret void
}

; Function Attrs: sspstrong uwtable
define weak_odr dso_local void @_ZNK6dealii22AutoDerivativeFunctionILi2EE15vector_gradientERKNS_5PointILi2EEERSt6vectorINS_6TensorILi1ELi2EEESaIS8_EE(ptr noundef nonnull align 8 dereferenceable(132) %0, ptr noundef nonnull align 8 dereferenceable(16) %1, ptr noundef nonnull align 8 dereferenceable(24) %2) unnamed_addr #0 comdat align 2 personality ptr @__gxx_personality_v0 {
  %4 = alloca %"class.dealii::Point.23", align 16
  %5 = alloca %"class.dealii::Vector", align 8
  %6 = alloca %"class.dealii::Vector", align 8
  %7 = alloca %"class.dealii::Point.23", align 16
  %8 = alloca %"class.dealii::Point.23", align 16
  %9 = alloca %"class.dealii::Vector", align 8
  %10 = alloca %"class.dealii::Vector", align 8
  %11 = alloca %"class.dealii::Point.23", align 16
  %12 = alloca %"class.dealii::Point.23", align 16
  %13 = alloca %"class.dealii::Point.23", align 16
  %14 = alloca %"class.dealii::Point.23", align 16
  %15 = alloca %"class.dealii::Vector", align 8
  %16 = alloca %"class.dealii::Vector", align 8
  %17 = alloca %"class.dealii::Vector", align 8
  %18 = alloca %"class.dealii::Vector", align 8
  %19 = getelementptr inbounds %"class.dealii::AutoDerivativeFunction.13", ptr %0, i64 0, i32 4
  %20 = load i32, ptr %19, align 8, !tbaa !156
  switch i32 %20, label %879 [
    i32 1, label %21
    i32 0, label %279
    i32 2, label %539
  ]

21:                                               ; preds = %3
  call void @llvm.lifetime.start.p0(i64 16, ptr nonnull %4) #15
  call void @llvm.memset.p0.i64(ptr noundef nonnull align 16 dereferenceable(16) %4, i8 0, i64 16, i1 false), !tbaa !34
  call void @llvm.lifetime.start.p0(i64 88, ptr nonnull %5) #15
  %22 = getelementptr inbounds %"class.dealii::Function.14", ptr %0, i64 0, i32 2
  %23 = load i32, ptr %22, align 8, !tbaa !178
  call void @_ZN6dealii11SubscriptorC2Ev(ptr noundef nonnull align 8 dereferenceable(72) %5)
  store ptr getelementptr inbounds ({ [6 x ptr] }, ptr @_ZTVN6dealii6VectorIdEE, i64 0, inrange i32 0, i64 2), ptr %5, align 8, !tbaa !5
  %24 = getelementptr inbounds %"class.dealii::Vector", ptr %5, i64 0, i32 1
  call void @llvm.memset.p0.i64(ptr noundef nonnull align 8 dereferenceable(16) %24, i8 0, i64 16, i1 false)
  %25 = icmp eq i32 %23, 0
  br i1 %25, label %40, label %26

26:                                               ; preds = %21
  %27 = zext i32 %23 to i64
  %28 = shl nuw nsw i64 %27, 3
  %29 = invoke noalias noundef nonnull ptr @_Znam(i64 noundef %28) #13
          to label %30 unwind label %33

30:                                               ; preds = %26
  %31 = getelementptr inbounds %"class.dealii::Vector", ptr %5, i64 0, i32 3
  %32 = getelementptr inbounds %"class.dealii::Vector", ptr %5, i64 0, i32 2
  store ptr %29, ptr %31, align 8, !tbaa !59
  store i32 %23, ptr %32, align 4, !tbaa !61
  store i32 %23, ptr %24, align 8, !tbaa !62
  call void @llvm.memset.p0.i64(ptr nonnull align 8 %29, i8 0, i64 %28, i1 false), !tbaa !34
  br label %40

33:                                               ; preds = %26
  %34 = landingpad { ptr, i32 }
          cleanup
  invoke void @_ZN6dealii11SubscriptorD2Ev(ptr noundef nonnull align 8 dereferenceable(72) %5)
          to label %35 unwind label %37

35:                                               ; preds = %278, %538, %878, %551, %291, %33
  %36 = phi { ptr, i32 } [ %34, %33 ], [ %292, %291 ], [ %552, %551 ], [ %877, %878 ], [ %537, %538 ], [ %277, %278 ]
  resume { ptr, i32 } %36

37:                                               ; preds = %33
  %38 = landingpad { ptr, i32 }
          catch ptr null
  %39 = extractvalue { ptr, i32 } %38, 0
  call void @__clang_call_terminate(ptr %39) #14
  unreachable

40:                                               ; preds = %21, %30
  call void @llvm.lifetime.start.p0(i64 88, ptr nonnull %6) #15
  %41 = load i32, ptr %22, align 8, !tbaa !178
  invoke void @_ZN6dealii11SubscriptorC2Ev(ptr noundef nonnull align 8 dereferenceable(72) %6)
          to label %42 unwind label %73

42:                                               ; preds = %40
  store ptr getelementptr inbounds ({ [6 x ptr] }, ptr @_ZTVN6dealii6VectorIdEE, i64 0, inrange i32 0, i64 2), ptr %6, align 8, !tbaa !5
  %43 = getelementptr inbounds %"class.dealii::Vector", ptr %6, i64 0, i32 1
  call void @llvm.memset.p0.i64(ptr noundef nonnull align 8 dereferenceable(16) %43, i8 0, i64 16, i1 false)
  %44 = icmp eq i32 %41, 0
  br i1 %44, label %57, label %45

45:                                               ; preds = %42
  %46 = zext i32 %41 to i64
  %47 = shl nuw nsw i64 %46, 3
  %48 = invoke noalias noundef nonnull ptr @_Znam(i64 noundef %47) #13
          to label %49 unwind label %52

49:                                               ; preds = %45
  %50 = getelementptr inbounds %"class.dealii::Vector", ptr %6, i64 0, i32 3
  %51 = getelementptr inbounds %"class.dealii::Vector", ptr %6, i64 0, i32 2
  store ptr %48, ptr %50, align 8, !tbaa !59
  store i32 %41, ptr %51, align 4, !tbaa !61
  store i32 %41, ptr %43, align 8, !tbaa !62
  call void @llvm.memset.p0.i64(ptr nonnull align 8 %48, i8 0, i64 %47, i1 false), !tbaa !34
  br label %57

52:                                               ; preds = %45
  %53 = landingpad { ptr, i32 }
          cleanup
  invoke void @_ZN6dealii11SubscriptorD2Ev(ptr noundef nonnull align 8 dereferenceable(72) %6)
          to label %276 unwind label %54

54:                                               ; preds = %52
  %55 = landingpad { ptr, i32 }
          catch ptr null
  %56 = extractvalue { ptr, i32 } %55, 0
  call void @__clang_call_terminate(ptr %56) #14
  unreachable

57:                                               ; preds = %49, %42
  %58 = getelementptr inbounds %"class.dealii::AutoDerivativeFunction.13", ptr %0, i64 0, i32 2
  %59 = load double, ptr %58, align 8, !tbaa !145
  %60 = fdiv double 1.000000e+00, %59
  %61 = getelementptr inbounds %"class.dealii::AutoDerivativeFunction.13", ptr %0, i64 0, i32 3
  %62 = getelementptr inbounds %"class.dealii::Vector", ptr %5, i64 0, i32 3
  %63 = getelementptr inbounds %"class.dealii::Vector", ptr %6, i64 0, i32 3
  %64 = load ptr, ptr %61, align 8, !tbaa !153
  %65 = load <2 x double>, ptr %1, align 8, !tbaa !34, !noalias !179
  %66 = load <2 x double>, ptr %64, align 8, !tbaa !34, !noalias !179
  %67 = fsub <2 x double> %65, %66
  store <2 x double> %67, ptr %4, align 16, !tbaa !34
  %68 = load ptr, ptr %0, align 8, !tbaa !5
  %69 = getelementptr inbounds ptr, ptr %68, i64 5
  %70 = load ptr, ptr %69, align 8
  invoke void %70(ptr noundef nonnull align 8 dereferenceable(92) %0, ptr noundef nonnull align 8 dereferenceable(16) %1, ptr noundef nonnull align 8 dereferenceable(88) %5)
          to label %75 unwind label %250

71:                                               ; preds = %247, %248
  call void @_ZdaPv(ptr noundef nonnull %163) #16
  store ptr null, ptr %63, align 8, !tbaa !59
  br label %72

72:                                               ; preds = %71, %248
  invoke void @_ZN6dealii11SubscriptorD2Ev(ptr noundef nonnull align 8 dereferenceable(72) %6)
          to label %271 unwind label %73

73:                                               ; preds = %72, %40
  %74 = landingpad { ptr, i32 }
          cleanup
  br label %276

75:                                               ; preds = %57
  %76 = load ptr, ptr %0, align 8, !tbaa !5
  %77 = getelementptr inbounds ptr, ptr %76, i64 5
  %78 = load ptr, ptr %77, align 8
  invoke void %78(ptr noundef nonnull align 8 dereferenceable(92) %0, ptr noundef nonnull align 8 dereferenceable(16) %4, ptr noundef nonnull align 8 dereferenceable(88) %6)
          to label %79 unwind label %250

79:                                               ; preds = %75
  %80 = load i32, ptr %22, align 8, !tbaa !178
  %81 = icmp eq i32 %80, 0
  br i1 %81, label %147, label %82

82:                                               ; preds = %79
  %83 = load ptr, ptr %62, align 8, !tbaa !59
  %84 = load ptr, ptr %63, align 8, !tbaa !59
  %85 = load ptr, ptr %2, align 8, !tbaa !153
  %86 = zext i32 %80 to i64
  %87 = icmp ult i32 %80, 16
  br i1 %87, label %129, label %88

88:                                               ; preds = %82
  %89 = shl nuw nsw i64 %86, 4
  %90 = add nsw i64 %89, -8
  %91 = getelementptr i8, ptr %85, i64 %90
  %92 = shl nuw nsw i64 %86, 3
  %93 = getelementptr i8, ptr %83, i64 %92
  %94 = getelementptr i8, ptr %84, i64 %92
  %95 = icmp ult ptr %85, %93
  %96 = icmp ult ptr %83, %91
  %97 = and i1 %95, %96
  %98 = icmp ult ptr %85, %94
  %99 = icmp ult ptr %84, %91
  %100 = and i1 %98, %99
  %101 = or i1 %97, %100
  br i1 %101, label %129, label %102

102:                                              ; preds = %88
  %103 = and i64 %86, 4294967292
  %104 = insertelement <4 x double> poison, double %60, i64 0
  %105 = shufflevector <4 x double> %104, <4 x double> poison, <4 x i32> zeroinitializer
  br label %106

106:                                              ; preds = %106, %102
  %107 = phi i64 [ 0, %102 ], [ %125, %106 ]
  %108 = or i64 %107, 1
  %109 = or i64 %107, 2
  %110 = or i64 %107, 3
  %111 = getelementptr inbounds double, ptr %83, i64 %107
  %112 = load <4 x double>, ptr %111, align 8, !tbaa !34, !alias.scope !182
  %113 = getelementptr inbounds double, ptr %84, i64 %107
  %114 = load <4 x double>, ptr %113, align 8, !tbaa !34, !alias.scope !185
  %115 = fsub <4 x double> %112, %114
  %116 = fmul <4 x double> %105, %115
  %117 = getelementptr inbounds %"class.dealii::Tensor.22", ptr %85, i64 %107
  %118 = getelementptr inbounds %"class.dealii::Tensor.22", ptr %85, i64 %108
  %119 = getelementptr inbounds %"class.dealii::Tensor.22", ptr %85, i64 %109
  %120 = getelementptr inbounds %"class.dealii::Tensor.22", ptr %85, i64 %110
  %121 = extractelement <4 x double> %116, i64 0
  store double %121, ptr %117, align 8, !tbaa !34, !alias.scope !187, !noalias !189
  %122 = extractelement <4 x double> %116, i64 1
  store double %122, ptr %118, align 8, !tbaa !34, !alias.scope !187, !noalias !189
  %123 = extractelement <4 x double> %116, i64 2
  store double %123, ptr %119, align 8, !tbaa !34, !alias.scope !187, !noalias !189
  %124 = extractelement <4 x double> %116, i64 3
  store double %124, ptr %120, align 8, !tbaa !34, !alias.scope !187, !noalias !189
  %125 = add nuw i64 %107, 4
  %126 = icmp eq i64 %125, %103
  br i1 %126, label %127, label %106, !llvm.loop !190

127:                                              ; preds = %106
  %128 = icmp eq i64 %103, %86
  br i1 %128, label %147, label %129

129:                                              ; preds = %88, %82, %127
  %130 = phi i64 [ 0, %88 ], [ 0, %82 ], [ %103, %127 ]
  %131 = xor i64 %130, -1
  %132 = and i64 %86, 1
  %133 = icmp eq i64 %132, 0
  br i1 %133, label %143, label %134

134:                                              ; preds = %129
  %135 = getelementptr inbounds double, ptr %83, i64 %130
  %136 = load double, ptr %135, align 8, !tbaa !34
  %137 = getelementptr inbounds double, ptr %84, i64 %130
  %138 = load double, ptr %137, align 8, !tbaa !34
  %139 = fsub double %136, %138
  %140 = fmul double %60, %139
  %141 = getelementptr inbounds %"class.dealii::Tensor.22", ptr %85, i64 %130
  store double %140, ptr %141, align 8, !tbaa !34
  %142 = or i64 %130, 1
  br label %143

143:                                              ; preds = %134, %129
  %144 = phi i64 [ %130, %129 ], [ %142, %134 ]
  %145 = sub nsw i64 0, %86
  %146 = icmp eq i64 %131, %145
  br i1 %146, label %147, label %252

147:                                              ; preds = %143, %252, %127, %79
  %148 = load ptr, ptr %61, align 8, !tbaa !153
  %149 = getelementptr inbounds %"class.dealii::Tensor.22", ptr %148, i64 1
  %150 = load <2 x double>, ptr %1, align 8, !tbaa !34, !noalias !179
  %151 = load <2 x double>, ptr %149, align 8, !tbaa !34, !noalias !179
  %152 = fsub <2 x double> %150, %151
  store <2 x double> %152, ptr %4, align 16, !tbaa !34
  %153 = load ptr, ptr %0, align 8, !tbaa !5
  %154 = getelementptr inbounds ptr, ptr %153, i64 5
  %155 = load ptr, ptr %154, align 8
  invoke void %155(ptr noundef nonnull align 8 dereferenceable(92) %0, ptr noundef nonnull align 8 dereferenceable(16) %1, ptr noundef nonnull align 8 dereferenceable(88) %5)
          to label %156 unwind label %250

156:                                              ; preds = %147
  %157 = load ptr, ptr %0, align 8, !tbaa !5
  %158 = getelementptr inbounds ptr, ptr %157, i64 5
  %159 = load ptr, ptr %158, align 8
  invoke void %159(ptr noundef nonnull align 8 dereferenceable(92) %0, ptr noundef nonnull align 8 dereferenceable(16) %4, ptr noundef nonnull align 8 dereferenceable(88) %6)
          to label %160 unwind label %250

160:                                              ; preds = %156
  %161 = load i32, ptr %22, align 8, !tbaa !178
  %162 = icmp eq i32 %161, 0
  %163 = load ptr, ptr %63, align 8, !tbaa !59
  br i1 %162, label %248, label %164

164:                                              ; preds = %160
  %165 = load ptr, ptr %62, align 8, !tbaa !59
  %166 = load ptr, ptr %2, align 8, !tbaa !153
  %167 = getelementptr inbounds [2 x double], ptr %166, i64 0, i64 1
  %168 = zext i32 %161 to i64
  %169 = icmp ult i32 %161, 12
  br i1 %169, label %210, label %170

170:                                              ; preds = %164
  %171 = shl nuw nsw i64 %168, 4
  %172 = getelementptr i8, ptr %166, i64 %171
  %173 = shl nuw nsw i64 %168, 3
  %174 = getelementptr i8, ptr %165, i64 %173
  %175 = getelementptr i8, ptr %163, i64 %173
  %176 = icmp ult ptr %167, %174
  %177 = icmp ult ptr %165, %172
  %178 = and i1 %176, %177
  %179 = icmp ult ptr %167, %175
  %180 = icmp ult ptr %163, %172
  %181 = and i1 %179, %180
  %182 = or i1 %178, %181
  br i1 %182, label %210, label %183

183:                                              ; preds = %170
  %184 = and i64 %168, 4294967292
  %185 = insertelement <4 x double> poison, double %60, i64 0
  %186 = shufflevector <4 x double> %185, <4 x double> poison, <4 x i32> zeroinitializer
  br label %187

187:                                              ; preds = %187, %183
  %188 = phi i64 [ 0, %183 ], [ %206, %187 ]
  %189 = or i64 %188, 1
  %190 = or i64 %188, 2
  %191 = or i64 %188, 3
  %192 = getelementptr inbounds double, ptr %165, i64 %188
  %193 = load <4 x double>, ptr %192, align 8, !tbaa !34, !alias.scope !191
  %194 = getelementptr inbounds double, ptr %163, i64 %188
  %195 = load <4 x double>, ptr %194, align 8, !tbaa !34, !alias.scope !194
  %196 = fsub <4 x double> %193, %195
  %197 = fmul <4 x double> %186, %196
  %198 = getelementptr inbounds %"class.dealii::Tensor.22", ptr %167, i64 %188
  %199 = getelementptr inbounds %"class.dealii::Tensor.22", ptr %167, i64 %189
  %200 = getelementptr inbounds %"class.dealii::Tensor.22", ptr %167, i64 %190
  %201 = getelementptr inbounds %"class.dealii::Tensor.22", ptr %167, i64 %191
  %202 = extractelement <4 x double> %197, i64 0
  store double %202, ptr %198, align 8, !tbaa !34, !alias.scope !196, !noalias !198
  %203 = extractelement <4 x double> %197, i64 1
  store double %203, ptr %199, align 8, !tbaa !34, !alias.scope !196, !noalias !198
  %204 = extractelement <4 x double> %197, i64 2
  store double %204, ptr %200, align 8, !tbaa !34, !alias.scope !196, !noalias !198
  %205 = extractelement <4 x double> %197, i64 3
  store double %205, ptr %201, align 8, !tbaa !34, !alias.scope !196, !noalias !198
  %206 = add nuw i64 %188, 4
  %207 = icmp eq i64 %206, %184
  br i1 %207, label %208, label %187, !llvm.loop !199

208:                                              ; preds = %187
  %209 = icmp eq i64 %184, %168
  br i1 %209, label %247, label %210

210:                                              ; preds = %170, %164, %208
  %211 = phi i64 [ 0, %170 ], [ 0, %164 ], [ %184, %208 ]
  %212 = xor i64 %211, -1
  %213 = and i64 %168, 1
  %214 = icmp eq i64 %213, 0
  br i1 %214, label %224, label %215

215:                                              ; preds = %210
  %216 = getelementptr inbounds double, ptr %165, i64 %211
  %217 = load double, ptr %216, align 8, !tbaa !34
  %218 = getelementptr inbounds double, ptr %163, i64 %211
  %219 = load double, ptr %218, align 8, !tbaa !34
  %220 = fsub double %217, %219
  %221 = fmul double %60, %220
  %222 = getelementptr inbounds %"class.dealii::Tensor.22", ptr %167, i64 %211
  store double %221, ptr %222, align 8, !tbaa !34
  %223 = or i64 %211, 1
  br label %224

224:                                              ; preds = %215, %210
  %225 = phi i64 [ %211, %210 ], [ %223, %215 ]
  %226 = sub nsw i64 0, %168
  %227 = icmp eq i64 %212, %226
  br i1 %227, label %247, label %228

228:                                              ; preds = %224, %228
  %229 = phi i64 [ %245, %228 ], [ %225, %224 ]
  %230 = getelementptr inbounds double, ptr %165, i64 %229
  %231 = load double, ptr %230, align 8, !tbaa !34
  %232 = getelementptr inbounds double, ptr %163, i64 %229
  %233 = load double, ptr %232, align 8, !tbaa !34
  %234 = fsub double %231, %233
  %235 = fmul double %60, %234
  %236 = getelementptr inbounds %"class.dealii::Tensor.22", ptr %167, i64 %229
  store double %235, ptr %236, align 8, !tbaa !34
  %237 = add nuw nsw i64 %229, 1
  %238 = getelementptr inbounds double, ptr %165, i64 %237
  %239 = load double, ptr %238, align 8, !tbaa !34
  %240 = getelementptr inbounds double, ptr %163, i64 %237
  %241 = load double, ptr %240, align 8, !tbaa !34
  %242 = fsub double %239, %241
  %243 = fmul double %60, %242
  %244 = getelementptr inbounds %"class.dealii::Tensor.22", ptr %167, i64 %237
  store double %243, ptr %244, align 8, !tbaa !34
  %245 = add nuw nsw i64 %229, 2
  %246 = icmp eq i64 %245, %168
  br i1 %246, label %247, label %228, !llvm.loop !200

247:                                              ; preds = %224, %228, %208
  store ptr getelementptr inbounds ({ [6 x ptr] }, ptr @_ZTVN6dealii6VectorIdEE, i64 0, inrange i32 0, i64 2), ptr %6, align 8, !tbaa !5
  br label %71

248:                                              ; preds = %160
  store ptr getelementptr inbounds ({ [6 x ptr] }, ptr @_ZTVN6dealii6VectorIdEE, i64 0, inrange i32 0, i64 2), ptr %6, align 8, !tbaa !5
  %249 = icmp eq ptr %163, null
  br i1 %249, label %72, label %71

250:                                              ; preds = %156, %147, %75, %57
  %251 = landingpad { ptr, i32 }
          cleanup
  invoke void @_ZN6dealii6VectorIdED2Ev(ptr noundef nonnull align 8 dereferenceable(88) %6)
          to label %276 unwind label %880

252:                                              ; preds = %143, %252
  %253 = phi i64 [ %269, %252 ], [ %144, %143 ]
  %254 = getelementptr inbounds double, ptr %83, i64 %253
  %255 = load double, ptr %254, align 8, !tbaa !34
  %256 = getelementptr inbounds double, ptr %84, i64 %253
  %257 = load double, ptr %256, align 8, !tbaa !34
  %258 = fsub double %255, %257
  %259 = fmul double %60, %258
  %260 = getelementptr inbounds %"class.dealii::Tensor.22", ptr %85, i64 %253
  store double %259, ptr %260, align 8, !tbaa !34
  %261 = add nuw nsw i64 %253, 1
  %262 = getelementptr inbounds double, ptr %83, i64 %261
  %263 = load double, ptr %262, align 8, !tbaa !34
  %264 = getelementptr inbounds double, ptr %84, i64 %261
  %265 = load double, ptr %264, align 8, !tbaa !34
  %266 = fsub double %263, %265
  %267 = fmul double %60, %266
  %268 = getelementptr inbounds %"class.dealii::Tensor.22", ptr %85, i64 %261
  store double %267, ptr %268, align 8, !tbaa !34
  %269 = add nuw nsw i64 %253, 2
  %270 = icmp eq i64 %269, %86
  br i1 %270, label %147, label %252, !llvm.loop !201

271:                                              ; preds = %72
  call void @llvm.lifetime.end.p0(i64 88, ptr nonnull %6) #15
  store ptr getelementptr inbounds ({ [6 x ptr] }, ptr @_ZTVN6dealii6VectorIdEE, i64 0, inrange i32 0, i64 2), ptr %5, align 8, !tbaa !5
  %272 = load ptr, ptr %62, align 8, !tbaa !59
  %273 = icmp eq ptr %272, null
  br i1 %273, label %275, label %274

274:                                              ; preds = %271
  call void @_ZdaPv(ptr noundef nonnull %272) #16
  store ptr null, ptr %62, align 8, !tbaa !59
  br label %275

275:                                              ; preds = %271, %274
  call void @_ZN6dealii11SubscriptorD2Ev(ptr noundef nonnull align 8 dereferenceable(72) %5)
  call void @llvm.lifetime.end.p0(i64 88, ptr nonnull %5) #15
  call void @llvm.lifetime.end.p0(i64 16, ptr nonnull %4) #15
  br label %879

276:                                              ; preds = %73, %52, %250
  %277 = phi { ptr, i32 } [ %251, %250 ], [ %74, %73 ], [ %53, %52 ]
  call void @llvm.lifetime.end.p0(i64 88, ptr nonnull %6) #15
  invoke void @_ZN6dealii6VectorIdED2Ev(ptr noundef nonnull align 8 dereferenceable(88) %5)
          to label %278 unwind label %880

278:                                              ; preds = %276
  call void @llvm.lifetime.end.p0(i64 88, ptr nonnull %5) #15
  call void @llvm.lifetime.end.p0(i64 16, ptr nonnull %4) #15
  br label %35

279:                                              ; preds = %3
  call void @llvm.lifetime.start.p0(i64 16, ptr nonnull %7) #15
  call void @llvm.memset.p0.i64(ptr noundef nonnull align 16 dereferenceable(16) %7, i8 0, i64 16, i1 false), !tbaa !34
  call void @llvm.lifetime.start.p0(i64 16, ptr nonnull %8) #15
  call void @llvm.memset.p0.i64(ptr noundef nonnull align 16 dereferenceable(16) %8, i8 0, i64 16, i1 false), !tbaa !34
  call void @llvm.lifetime.start.p0(i64 88, ptr nonnull %9) #15
  %280 = getelementptr inbounds %"class.dealii::Function.14", ptr %0, i64 0, i32 2
  %281 = load i32, ptr %280, align 8, !tbaa !178
  call void @_ZN6dealii11SubscriptorC2Ev(ptr noundef nonnull align 8 dereferenceable(72) %9)
  store ptr getelementptr inbounds ({ [6 x ptr] }, ptr @_ZTVN6dealii6VectorIdEE, i64 0, inrange i32 0, i64 2), ptr %9, align 8, !tbaa !5
  %282 = getelementptr inbounds %"class.dealii::Vector", ptr %9, i64 0, i32 1
  call void @llvm.memset.p0.i64(ptr noundef nonnull align 8 dereferenceable(16) %282, i8 0, i64 16, i1 false)
  %283 = icmp eq i32 %281, 0
  br i1 %283, label %296, label %284

284:                                              ; preds = %279
  %285 = zext i32 %281 to i64
  %286 = shl nuw nsw i64 %285, 3
  %287 = invoke noalias noundef nonnull ptr @_Znam(i64 noundef %286) #13
          to label %288 unwind label %291

288:                                              ; preds = %284
  %289 = getelementptr inbounds %"class.dealii::Vector", ptr %9, i64 0, i32 3
  %290 = getelementptr inbounds %"class.dealii::Vector", ptr %9, i64 0, i32 2
  store ptr %287, ptr %289, align 8, !tbaa !59
  store i32 %281, ptr %290, align 4, !tbaa !61
  store i32 %281, ptr %282, align 8, !tbaa !62
  call void @llvm.memset.p0.i64(ptr nonnull align 8 %287, i8 0, i64 %286, i1 false), !tbaa !34
  br label %296

291:                                              ; preds = %284
  %292 = landingpad { ptr, i32 }
          cleanup
  invoke void @_ZN6dealii11SubscriptorD2Ev(ptr noundef nonnull align 8 dereferenceable(72) %9)
          to label %35 unwind label %293

293:                                              ; preds = %291
  %294 = landingpad { ptr, i32 }
          catch ptr null
  %295 = extractvalue { ptr, i32 } %294, 0
  call void @__clang_call_terminate(ptr %295) #14
  unreachable

296:                                              ; preds = %279, %288
  call void @llvm.lifetime.start.p0(i64 88, ptr nonnull %10) #15
  %297 = load i32, ptr %280, align 8, !tbaa !178
  invoke void @_ZN6dealii11SubscriptorC2Ev(ptr noundef nonnull align 8 dereferenceable(72) %10)
          to label %298 unwind label %332

298:                                              ; preds = %296
  store ptr getelementptr inbounds ({ [6 x ptr] }, ptr @_ZTVN6dealii6VectorIdEE, i64 0, inrange i32 0, i64 2), ptr %10, align 8, !tbaa !5
  %299 = getelementptr inbounds %"class.dealii::Vector", ptr %10, i64 0, i32 1
  call void @llvm.memset.p0.i64(ptr noundef nonnull align 8 dereferenceable(16) %299, i8 0, i64 16, i1 false)
  %300 = icmp eq i32 %297, 0
  br i1 %300, label %313, label %301

301:                                              ; preds = %298
  %302 = zext i32 %297 to i64
  %303 = shl nuw nsw i64 %302, 3
  %304 = invoke noalias noundef nonnull ptr @_Znam(i64 noundef %303) #13
          to label %305 unwind label %308

305:                                              ; preds = %301
  %306 = getelementptr inbounds %"class.dealii::Vector", ptr %10, i64 0, i32 3
  %307 = getelementptr inbounds %"class.dealii::Vector", ptr %10, i64 0, i32 2
  store ptr %304, ptr %306, align 8, !tbaa !59
  store i32 %297, ptr %307, align 4, !tbaa !61
  store i32 %297, ptr %299, align 8, !tbaa !62
  call void @llvm.memset.p0.i64(ptr nonnull align 8 %304, i8 0, i64 %303, i1 false), !tbaa !34
  br label %313

308:                                              ; preds = %301
  %309 = landingpad { ptr, i32 }
          cleanup
  invoke void @_ZN6dealii11SubscriptorD2Ev(ptr noundef nonnull align 8 dereferenceable(72) %10)
          to label %536 unwind label %310

310:                                              ; preds = %308
  %311 = landingpad { ptr, i32 }
          catch ptr null
  %312 = extractvalue { ptr, i32 } %311, 0
  call void @__clang_call_terminate(ptr %312) #14
  unreachable

313:                                              ; preds = %305, %298
  %314 = getelementptr inbounds %"class.dealii::AutoDerivativeFunction.13", ptr %0, i64 0, i32 2
  %315 = load double, ptr %314, align 8, !tbaa !145
  %316 = fmul double %315, 2.000000e+00
  %317 = fdiv double 1.000000e+00, %316
  %318 = getelementptr inbounds %"class.dealii::AutoDerivativeFunction.13", ptr %0, i64 0, i32 3
  %319 = getelementptr inbounds %"class.dealii::Vector", ptr %9, i64 0, i32 3
  %320 = getelementptr inbounds %"class.dealii::Vector", ptr %10, i64 0, i32 3
  %321 = load ptr, ptr %318, align 8, !tbaa !153
  %322 = load <2 x double>, ptr %1, align 8, !tbaa !34, !noalias !39
  %323 = load <2 x double>, ptr %321, align 8, !tbaa !34, !noalias !202
  %324 = fadd <2 x double> %322, %323
  store <2 x double> %324, ptr %7, align 16, !tbaa !34
  %325 = load <2 x double>, ptr %321, align 8, !tbaa !34, !noalias !205
  %326 = fsub <2 x double> %322, %325
  store <2 x double> %326, ptr %8, align 16, !tbaa !34
  %327 = load ptr, ptr %0, align 8, !tbaa !5
  %328 = getelementptr inbounds ptr, ptr %327, i64 5
  %329 = load ptr, ptr %328, align 8
  invoke void %329(ptr noundef nonnull align 8 dereferenceable(92) %0, ptr noundef nonnull align 8 dereferenceable(16) %7, ptr noundef nonnull align 8 dereferenceable(88) %9)
          to label %334 unwind label %510

330:                                              ; preds = %507, %508
  call void @_ZdaPv(ptr noundef nonnull %423) #16
  store ptr null, ptr %320, align 8, !tbaa !59
  br label %331

331:                                              ; preds = %330, %508
  invoke void @_ZN6dealii11SubscriptorD2Ev(ptr noundef nonnull align 8 dereferenceable(72) %10)
          to label %531 unwind label %332

332:                                              ; preds = %331, %296
  %333 = landingpad { ptr, i32 }
          cleanup
  br label %536

334:                                              ; preds = %313
  %335 = load ptr, ptr %0, align 8, !tbaa !5
  %336 = getelementptr inbounds ptr, ptr %335, i64 5
  %337 = load ptr, ptr %336, align 8
  invoke void %337(ptr noundef nonnull align 8 dereferenceable(92) %0, ptr noundef nonnull align 8 dereferenceable(16) %8, ptr noundef nonnull align 8 dereferenceable(88) %10)
          to label %338 unwind label %510

338:                                              ; preds = %334
  %339 = load i32, ptr %280, align 8, !tbaa !178
  %340 = icmp eq i32 %339, 0
  br i1 %340, label %406, label %341

341:                                              ; preds = %338
  %342 = load ptr, ptr %319, align 8, !tbaa !59
  %343 = load ptr, ptr %320, align 8, !tbaa !59
  %344 = load ptr, ptr %2, align 8, !tbaa !153
  %345 = zext i32 %339 to i64
  %346 = icmp ult i32 %339, 16
  br i1 %346, label %388, label %347

347:                                              ; preds = %341
  %348 = shl nuw nsw i64 %345, 4
  %349 = add nsw i64 %348, -8
  %350 = getelementptr i8, ptr %344, i64 %349
  %351 = shl nuw nsw i64 %345, 3
  %352 = getelementptr i8, ptr %342, i64 %351
  %353 = getelementptr i8, ptr %343, i64 %351
  %354 = icmp ult ptr %344, %352
  %355 = icmp ult ptr %342, %350
  %356 = and i1 %354, %355
  %357 = icmp ult ptr %344, %353
  %358 = icmp ult ptr %343, %350
  %359 = and i1 %357, %358
  %360 = or i1 %356, %359
  br i1 %360, label %388, label %361

361:                                              ; preds = %347
  %362 = and i64 %345, 4294967292
  %363 = insertelement <4 x double> poison, double %317, i64 0
  %364 = shufflevector <4 x double> %363, <4 x double> poison, <4 x i32> zeroinitializer
  br label %365

365:                                              ; preds = %365, %361
  %366 = phi i64 [ 0, %361 ], [ %384, %365 ]
  %367 = or i64 %366, 1
  %368 = or i64 %366, 2
  %369 = or i64 %366, 3
  %370 = getelementptr inbounds double, ptr %342, i64 %366
  %371 = load <4 x double>, ptr %370, align 8, !tbaa !34, !alias.scope !208
  %372 = getelementptr inbounds double, ptr %343, i64 %366
  %373 = load <4 x double>, ptr %372, align 8, !tbaa !34, !alias.scope !211
  %374 = fsub <4 x double> %371, %373
  %375 = fmul <4 x double> %364, %374
  %376 = getelementptr inbounds %"class.dealii::Tensor.22", ptr %344, i64 %366
  %377 = getelementptr inbounds %"class.dealii::Tensor.22", ptr %344, i64 %367
  %378 = getelementptr inbounds %"class.dealii::Tensor.22", ptr %344, i64 %368
  %379 = getelementptr inbounds %"class.dealii::Tensor.22", ptr %344, i64 %369
  %380 = extractelement <4 x double> %375, i64 0
  store double %380, ptr %376, align 8, !tbaa !34, !alias.scope !213, !noalias !215
  %381 = extractelement <4 x double> %375, i64 1
  store double %381, ptr %377, align 8, !tbaa !34, !alias.scope !213, !noalias !215
  %382 = extractelement <4 x double> %375, i64 2
  store double %382, ptr %378, align 8, !tbaa !34, !alias.scope !213, !noalias !215
  %383 = extractelement <4 x double> %375, i64 3
  store double %383, ptr %379, align 8, !tbaa !34, !alias.scope !213, !noalias !215
  %384 = add nuw i64 %366, 4
  %385 = icmp eq i64 %384, %362
  br i1 %385, label %386, label %365, !llvm.loop !216

386:                                              ; preds = %365
  %387 = icmp eq i64 %362, %345
  br i1 %387, label %406, label %388

388:                                              ; preds = %347, %341, %386
  %389 = phi i64 [ 0, %347 ], [ 0, %341 ], [ %362, %386 ]
  %390 = xor i64 %389, -1
  %391 = and i64 %345, 1
  %392 = icmp eq i64 %391, 0
  br i1 %392, label %402, label %393

393:                                              ; preds = %388
  %394 = getelementptr inbounds double, ptr %342, i64 %389
  %395 = load double, ptr %394, align 8, !tbaa !34
  %396 = getelementptr inbounds double, ptr %343, i64 %389
  %397 = load double, ptr %396, align 8, !tbaa !34
  %398 = fsub double %395, %397
  %399 = fmul double %317, %398
  %400 = getelementptr inbounds %"class.dealii::Tensor.22", ptr %344, i64 %389
  store double %399, ptr %400, align 8, !tbaa !34
  %401 = or i64 %389, 1
  br label %402

402:                                              ; preds = %393, %388
  %403 = phi i64 [ %389, %388 ], [ %401, %393 ]
  %404 = sub nsw i64 0, %345
  %405 = icmp eq i64 %390, %404
  br i1 %405, label %406, label %512

406:                                              ; preds = %402, %512, %386, %338
  %407 = load ptr, ptr %318, align 8, !tbaa !153
  %408 = getelementptr inbounds %"class.dealii::Tensor.22", ptr %407, i64 1
  %409 = load <2 x double>, ptr %1, align 8, !tbaa !34, !noalias !39
  %410 = load <2 x double>, ptr %408, align 8, !tbaa !34, !noalias !39
  %411 = fadd <2 x double> %409, %410
  store <2 x double> %411, ptr %7, align 16, !tbaa !34
  %412 = fsub <2 x double> %409, %410
  store <2 x double> %412, ptr %8, align 16, !tbaa !34
  %413 = load ptr, ptr %0, align 8, !tbaa !5
  %414 = getelementptr inbounds ptr, ptr %413, i64 5
  %415 = load ptr, ptr %414, align 8
  invoke void %415(ptr noundef nonnull align 8 dereferenceable(92) %0, ptr noundef nonnull align 8 dereferenceable(16) %7, ptr noundef nonnull align 8 dereferenceable(88) %9)
          to label %416 unwind label %510

416:                                              ; preds = %406
  %417 = load ptr, ptr %0, align 8, !tbaa !5
  %418 = getelementptr inbounds ptr, ptr %417, i64 5
  %419 = load ptr, ptr %418, align 8
  invoke void %419(ptr noundef nonnull align 8 dereferenceable(92) %0, ptr noundef nonnull align 8 dereferenceable(16) %8, ptr noundef nonnull align 8 dereferenceable(88) %10)
          to label %420 unwind label %510

420:                                              ; preds = %416
  %421 = load i32, ptr %280, align 8, !tbaa !178
  %422 = icmp eq i32 %421, 0
  %423 = load ptr, ptr %320, align 8, !tbaa !59
  br i1 %422, label %508, label %424

424:                                              ; preds = %420
  %425 = load ptr, ptr %319, align 8, !tbaa !59
  %426 = load ptr, ptr %2, align 8, !tbaa !153
  %427 = getelementptr inbounds [2 x double], ptr %426, i64 0, i64 1
  %428 = zext i32 %421 to i64
  %429 = icmp ult i32 %421, 12
  br i1 %429, label %470, label %430

430:                                              ; preds = %424
  %431 = shl nuw nsw i64 %428, 4
  %432 = getelementptr i8, ptr %426, i64 %431
  %433 = shl nuw nsw i64 %428, 3
  %434 = getelementptr i8, ptr %425, i64 %433
  %435 = getelementptr i8, ptr %423, i64 %433
  %436 = icmp ult ptr %427, %434
  %437 = icmp ult ptr %425, %432
  %438 = and i1 %436, %437
  %439 = icmp ult ptr %427, %435
  %440 = icmp ult ptr %423, %432
  %441 = and i1 %439, %440
  %442 = or i1 %438, %441
  br i1 %442, label %470, label %443

443:                                              ; preds = %430
  %444 = and i64 %428, 4294967292
  %445 = insertelement <4 x double> poison, double %317, i64 0
  %446 = shufflevector <4 x double> %445, <4 x double> poison, <4 x i32> zeroinitializer
  br label %447

447:                                              ; preds = %447, %443
  %448 = phi i64 [ 0, %443 ], [ %466, %447 ]
  %449 = or i64 %448, 1
  %450 = or i64 %448, 2
  %451 = or i64 %448, 3
  %452 = getelementptr inbounds double, ptr %425, i64 %448
  %453 = load <4 x double>, ptr %452, align 8, !tbaa !34, !alias.scope !217
  %454 = getelementptr inbounds double, ptr %423, i64 %448
  %455 = load <4 x double>, ptr %454, align 8, !tbaa !34, !alias.scope !220
  %456 = fsub <4 x double> %453, %455
  %457 = fmul <4 x double> %446, %456
  %458 = getelementptr inbounds %"class.dealii::Tensor.22", ptr %427, i64 %448
  %459 = getelementptr inbounds %"class.dealii::Tensor.22", ptr %427, i64 %449
  %460 = getelementptr inbounds %"class.dealii::Tensor.22", ptr %427, i64 %450
  %461 = getelementptr inbounds %"class.dealii::Tensor.22", ptr %427, i64 %451
  %462 = extractelement <4 x double> %457, i64 0
  store double %462, ptr %458, align 8, !tbaa !34, !alias.scope !222, !noalias !224
  %463 = extractelement <4 x double> %457, i64 1
  store double %463, ptr %459, align 8, !tbaa !34, !alias.scope !222, !noalias !224
  %464 = extractelement <4 x double> %457, i64 2
  store double %464, ptr %460, align 8, !tbaa !34, !alias.scope !222, !noalias !224
  %465 = extractelement <4 x double> %457, i64 3
  store double %465, ptr %461, align 8, !tbaa !34, !alias.scope !222, !noalias !224
  %466 = add nuw i64 %448, 4
  %467 = icmp eq i64 %466, %444
  br i1 %467, label %468, label %447, !llvm.loop !225

468:                                              ; preds = %447
  %469 = icmp eq i64 %444, %428
  br i1 %469, label %507, label %470

470:                                              ; preds = %430, %424, %468
  %471 = phi i64 [ 0, %430 ], [ 0, %424 ], [ %444, %468 ]
  %472 = xor i64 %471, -1
  %473 = and i64 %428, 1
  %474 = icmp eq i64 %473, 0
  br i1 %474, label %484, label %475

475:                                              ; preds = %470
  %476 = getelementptr inbounds double, ptr %425, i64 %471
  %477 = load double, ptr %476, align 8, !tbaa !34
  %478 = getelementptr inbounds double, ptr %423, i64 %471
  %479 = load double, ptr %478, align 8, !tbaa !34
  %480 = fsub double %477, %479
  %481 = fmul double %317, %480
  %482 = getelementptr inbounds %"class.dealii::Tensor.22", ptr %427, i64 %471
  store double %481, ptr %482, align 8, !tbaa !34
  %483 = or i64 %471, 1
  br label %484

484:                                              ; preds = %475, %470
  %485 = phi i64 [ %471, %470 ], [ %483, %475 ]
  %486 = sub nsw i64 0, %428
  %487 = icmp eq i64 %472, %486
  br i1 %487, label %507, label %488

488:                                              ; preds = %484, %488
  %489 = phi i64 [ %505, %488 ], [ %485, %484 ]
  %490 = getelementptr inbounds double, ptr %425, i64 %489
  %491 = load double, ptr %490, align 8, !tbaa !34
  %492 = getelementptr inbounds double, ptr %423, i64 %489
  %493 = load double, ptr %492, align 8, !tbaa !34
  %494 = fsub double %491, %493
  %495 = fmul double %317, %494
  %496 = getelementptr inbounds %"class.dealii::Tensor.22", ptr %427, i64 %489
  store double %495, ptr %496, align 8, !tbaa !34
  %497 = add nuw nsw i64 %489, 1
  %498 = getelementptr inbounds double, ptr %425, i64 %497
  %499 = load double, ptr %498, align 8, !tbaa !34
  %500 = getelementptr inbounds double, ptr %423, i64 %497
  %501 = load double, ptr %500, align 8, !tbaa !34
  %502 = fsub double %499, %501
  %503 = fmul double %317, %502
  %504 = getelementptr inbounds %"class.dealii::Tensor.22", ptr %427, i64 %497
  store double %503, ptr %504, align 8, !tbaa !34
  %505 = add nuw nsw i64 %489, 2
  %506 = icmp eq i64 %505, %428
  br i1 %506, label %507, label %488, !llvm.loop !226

507:                                              ; preds = %484, %488, %468
  store ptr getelementptr inbounds ({ [6 x ptr] }, ptr @_ZTVN6dealii6VectorIdEE, i64 0, inrange i32 0, i64 2), ptr %10, align 8, !tbaa !5
  br label %330

508:                                              ; preds = %420
  store ptr getelementptr inbounds ({ [6 x ptr] }, ptr @_ZTVN6dealii6VectorIdEE, i64 0, inrange i32 0, i64 2), ptr %10, align 8, !tbaa !5
  %509 = icmp eq ptr %423, null
  br i1 %509, label %331, label %330

510:                                              ; preds = %416, %406, %334, %313
  %511 = landingpad { ptr, i32 }
          cleanup
  invoke void @_ZN6dealii6VectorIdED2Ev(ptr noundef nonnull align 8 dereferenceable(88) %10)
          to label %536 unwind label %880

512:                                              ; preds = %402, %512
  %513 = phi i64 [ %529, %512 ], [ %403, %402 ]
  %514 = getelementptr inbounds double, ptr %342, i64 %513
  %515 = load double, ptr %514, align 8, !tbaa !34
  %516 = getelementptr inbounds double, ptr %343, i64 %513
  %517 = load double, ptr %516, align 8, !tbaa !34
  %518 = fsub double %515, %517
  %519 = fmul double %317, %518
  %520 = getelementptr inbounds %"class.dealii::Tensor.22", ptr %344, i64 %513
  store double %519, ptr %520, align 8, !tbaa !34
  %521 = add nuw nsw i64 %513, 1
  %522 = getelementptr inbounds double, ptr %342, i64 %521
  %523 = load double, ptr %522, align 8, !tbaa !34
  %524 = getelementptr inbounds double, ptr %343, i64 %521
  %525 = load double, ptr %524, align 8, !tbaa !34
  %526 = fsub double %523, %525
  %527 = fmul double %317, %526
  %528 = getelementptr inbounds %"class.dealii::Tensor.22", ptr %344, i64 %521
  store double %527, ptr %528, align 8, !tbaa !34
  %529 = add nuw nsw i64 %513, 2
  %530 = icmp eq i64 %529, %345
  br i1 %530, label %406, label %512, !llvm.loop !227

531:                                              ; preds = %331
  call void @llvm.lifetime.end.p0(i64 88, ptr nonnull %10) #15
  store ptr getelementptr inbounds ({ [6 x ptr] }, ptr @_ZTVN6dealii6VectorIdEE, i64 0, inrange i32 0, i64 2), ptr %9, align 8, !tbaa !5
  %532 = load ptr, ptr %319, align 8, !tbaa !59
  %533 = icmp eq ptr %532, null
  br i1 %533, label %535, label %534

534:                                              ; preds = %531
  call void @_ZdaPv(ptr noundef nonnull %532) #16
  store ptr null, ptr %319, align 8, !tbaa !59
  br label %535

535:                                              ; preds = %531, %534
  call void @_ZN6dealii11SubscriptorD2Ev(ptr noundef nonnull align 8 dereferenceable(72) %9)
  call void @llvm.lifetime.end.p0(i64 88, ptr nonnull %9) #15
  call void @llvm.lifetime.end.p0(i64 16, ptr nonnull %8) #15
  call void @llvm.lifetime.end.p0(i64 16, ptr nonnull %7) #15
  br label %879

536:                                              ; preds = %332, %308, %510
  %537 = phi { ptr, i32 } [ %511, %510 ], [ %333, %332 ], [ %309, %308 ]
  call void @llvm.lifetime.end.p0(i64 88, ptr nonnull %10) #15
  invoke void @_ZN6dealii6VectorIdED2Ev(ptr noundef nonnull align 8 dereferenceable(88) %9)
          to label %538 unwind label %880

538:                                              ; preds = %536
  call void @llvm.lifetime.end.p0(i64 88, ptr nonnull %9) #15
  call void @llvm.lifetime.end.p0(i64 16, ptr nonnull %8) #15
  call void @llvm.lifetime.end.p0(i64 16, ptr nonnull %7) #15
  br label %35

539:                                              ; preds = %3
  call void @llvm.lifetime.start.p0(i64 16, ptr nonnull %11) #15
  call void @llvm.memset.p0.i64(ptr noundef nonnull align 16 dereferenceable(16) %11, i8 0, i64 16, i1 false), !tbaa !34
  call void @llvm.lifetime.start.p0(i64 16, ptr nonnull %12) #15
  call void @llvm.memset.p0.i64(ptr noundef nonnull align 16 dereferenceable(16) %12, i8 0, i64 16, i1 false), !tbaa !34
  call void @llvm.lifetime.start.p0(i64 16, ptr nonnull %13) #15
  call void @llvm.memset.p0.i64(ptr noundef nonnull align 16 dereferenceable(16) %13, i8 0, i64 16, i1 false), !tbaa !34
  call void @llvm.lifetime.start.p0(i64 16, ptr nonnull %14) #15
  call void @llvm.memset.p0.i64(ptr noundef nonnull align 16 dereferenceable(16) %14, i8 0, i64 16, i1 false), !tbaa !34
  call void @llvm.lifetime.start.p0(i64 88, ptr nonnull %15) #15
  %540 = getelementptr inbounds %"class.dealii::Function.14", ptr %0, i64 0, i32 2
  %541 = load i32, ptr %540, align 8, !tbaa !178
  call void @_ZN6dealii11SubscriptorC2Ev(ptr noundef nonnull align 8 dereferenceable(72) %15)
  store ptr getelementptr inbounds ({ [6 x ptr] }, ptr @_ZTVN6dealii6VectorIdEE, i64 0, inrange i32 0, i64 2), ptr %15, align 8, !tbaa !5
  %542 = getelementptr inbounds %"class.dealii::Vector", ptr %15, i64 0, i32 1
  call void @llvm.memset.p0.i64(ptr noundef nonnull align 8 dereferenceable(16) %542, i8 0, i64 16, i1 false)
  %543 = icmp eq i32 %541, 0
  br i1 %543, label %556, label %544

544:                                              ; preds = %539
  %545 = zext i32 %541 to i64
  %546 = shl nuw nsw i64 %545, 3
  %547 = invoke noalias noundef nonnull ptr @_Znam(i64 noundef %546) #13
          to label %548 unwind label %551

548:                                              ; preds = %544
  %549 = getelementptr inbounds %"class.dealii::Vector", ptr %15, i64 0, i32 3
  %550 = getelementptr inbounds %"class.dealii::Vector", ptr %15, i64 0, i32 2
  store ptr %547, ptr %549, align 8, !tbaa !59
  store i32 %541, ptr %550, align 4, !tbaa !61
  store i32 %541, ptr %542, align 8, !tbaa !62
  call void @llvm.memset.p0.i64(ptr nonnull align 8 %547, i8 0, i64 %546, i1 false), !tbaa !34
  br label %556

551:                                              ; preds = %544
  %552 = landingpad { ptr, i32 }
          cleanup
  invoke void @_ZN6dealii11SubscriptorD2Ev(ptr noundef nonnull align 8 dereferenceable(72) %15)
          to label %35 unwind label %553

553:                                              ; preds = %551
  %554 = landingpad { ptr, i32 }
          catch ptr null
  %555 = extractvalue { ptr, i32 } %554, 0
  call void @__clang_call_terminate(ptr %555) #14
  unreachable

556:                                              ; preds = %539, %548
  call void @llvm.lifetime.start.p0(i64 88, ptr nonnull %16) #15
  %557 = load i32, ptr %540, align 8, !tbaa !178
  invoke void @_ZN6dealii11SubscriptorC2Ev(ptr noundef nonnull align 8 dereferenceable(72) %16)
          to label %558 unwind label %632

558:                                              ; preds = %556
  store ptr getelementptr inbounds ({ [6 x ptr] }, ptr @_ZTVN6dealii6VectorIdEE, i64 0, inrange i32 0, i64 2), ptr %16, align 8, !tbaa !5
  %559 = getelementptr inbounds %"class.dealii::Vector", ptr %16, i64 0, i32 1
  call void @llvm.memset.p0.i64(ptr noundef nonnull align 8 dereferenceable(16) %559, i8 0, i64 16, i1 false)
  %560 = icmp eq i32 %557, 0
  br i1 %560, label %573, label %561

561:                                              ; preds = %558
  %562 = zext i32 %557 to i64
  %563 = shl nuw nsw i64 %562, 3
  %564 = invoke noalias noundef nonnull ptr @_Znam(i64 noundef %563) #13
          to label %565 unwind label %568

565:                                              ; preds = %561
  %566 = getelementptr inbounds %"class.dealii::Vector", ptr %16, i64 0, i32 3
  %567 = getelementptr inbounds %"class.dealii::Vector", ptr %16, i64 0, i32 2
  store ptr %564, ptr %566, align 8, !tbaa !59
  store i32 %557, ptr %567, align 4, !tbaa !61
  store i32 %557, ptr %559, align 8, !tbaa !62
  call void @llvm.memset.p0.i64(ptr nonnull align 8 %564, i8 0, i64 %563, i1 false), !tbaa !34
  br label %573

568:                                              ; preds = %561
  %569 = landingpad { ptr, i32 }
          cleanup
  invoke void @_ZN6dealii11SubscriptorD2Ev(ptr noundef nonnull align 8 dereferenceable(72) %16)
          to label %876 unwind label %570

570:                                              ; preds = %568
  %571 = landingpad { ptr, i32 }
          catch ptr null
  %572 = extractvalue { ptr, i32 } %571, 0
  call void @__clang_call_terminate(ptr %572) #14
  unreachable

573:                                              ; preds = %565, %558
  call void @llvm.lifetime.start.p0(i64 88, ptr nonnull %17) #15
  %574 = load i32, ptr %540, align 8, !tbaa !178
  invoke void @_ZN6dealii11SubscriptorC2Ev(ptr noundef nonnull align 8 dereferenceable(72) %17)
          to label %575 unwind label %634

575:                                              ; preds = %573
  store ptr getelementptr inbounds ({ [6 x ptr] }, ptr @_ZTVN6dealii6VectorIdEE, i64 0, inrange i32 0, i64 2), ptr %17, align 8, !tbaa !5
  %576 = getelementptr inbounds %"class.dealii::Vector", ptr %17, i64 0, i32 1
  call void @llvm.memset.p0.i64(ptr noundef nonnull align 8 dereferenceable(16) %576, i8 0, i64 16, i1 false)
  %577 = icmp eq i32 %574, 0
  br i1 %577, label %590, label %578

578:                                              ; preds = %575
  %579 = zext i32 %574 to i64
  %580 = shl nuw nsw i64 %579, 3
  %581 = invoke noalias noundef nonnull ptr @_Znam(i64 noundef %580) #13
          to label %582 unwind label %585

582:                                              ; preds = %578
  %583 = getelementptr inbounds %"class.dealii::Vector", ptr %17, i64 0, i32 3
  %584 = getelementptr inbounds %"class.dealii::Vector", ptr %17, i64 0, i32 2
  store ptr %581, ptr %583, align 8, !tbaa !59
  store i32 %574, ptr %584, align 4, !tbaa !61
  store i32 %574, ptr %576, align 8, !tbaa !62
  call void @llvm.memset.p0.i64(ptr nonnull align 8 %581, i8 0, i64 %580, i1 false), !tbaa !34
  br label %590

585:                                              ; preds = %578
  %586 = landingpad { ptr, i32 }
          cleanup
  invoke void @_ZN6dealii11SubscriptorD2Ev(ptr noundef nonnull align 8 dereferenceable(72) %17)
          to label %869 unwind label %587

587:                                              ; preds = %585
  %588 = landingpad { ptr, i32 }
          catch ptr null
  %589 = extractvalue { ptr, i32 } %588, 0
  call void @__clang_call_terminate(ptr %589) #14
  unreachable

590:                                              ; preds = %582, %575
  call void @llvm.lifetime.start.p0(i64 88, ptr nonnull %18) #15
  %591 = load i32, ptr %540, align 8, !tbaa !178
  invoke void @_ZN6dealii11SubscriptorC2Ev(ptr noundef nonnull align 8 dereferenceable(72) %18)
          to label %592 unwind label %636

592:                                              ; preds = %590
  store ptr getelementptr inbounds ({ [6 x ptr] }, ptr @_ZTVN6dealii6VectorIdEE, i64 0, inrange i32 0, i64 2), ptr %18, align 8, !tbaa !5
  %593 = getelementptr inbounds %"class.dealii::Vector", ptr %18, i64 0, i32 1
  call void @llvm.memset.p0.i64(ptr noundef nonnull align 8 dereferenceable(16) %593, i8 0, i64 16, i1 false)
  %594 = icmp eq i32 %591, 0
  br i1 %594, label %607, label %595

595:                                              ; preds = %592
  %596 = zext i32 %591 to i64
  %597 = shl nuw nsw i64 %596, 3
  %598 = invoke noalias noundef nonnull ptr @_Znam(i64 noundef %597) #13
          to label %599 unwind label %602

599:                                              ; preds = %595
  %600 = getelementptr inbounds %"class.dealii::Vector", ptr %18, i64 0, i32 3
  %601 = getelementptr inbounds %"class.dealii::Vector", ptr %18, i64 0, i32 2
  store ptr %598, ptr %600, align 8, !tbaa !59
  store i32 %591, ptr %601, align 4, !tbaa !61
  store i32 %591, ptr %593, align 8, !tbaa !62
  call void @llvm.memset.p0.i64(ptr nonnull align 8 %598, i8 0, i64 %597, i1 false), !tbaa !34
  br label %607

602:                                              ; preds = %595
  %603 = landingpad { ptr, i32 }
          cleanup
  invoke void @_ZN6dealii11SubscriptorD2Ev(ptr noundef nonnull align 8 dereferenceable(72) %18)
          to label %862 unwind label %604

604:                                              ; preds = %602
  %605 = landingpad { ptr, i32 }
          catch ptr null
  %606 = extractvalue { ptr, i32 } %605, 0
  call void @__clang_call_terminate(ptr %606) #14
  unreachable

607:                                              ; preds = %599, %592
  %608 = getelementptr inbounds %"class.dealii::AutoDerivativeFunction.13", ptr %0, i64 0, i32 2
  %609 = load double, ptr %608, align 8, !tbaa !145
  %610 = fmul double %609, 1.200000e+01
  %611 = fdiv double 1.000000e+00, %610
  %612 = getelementptr inbounds %"class.dealii::AutoDerivativeFunction.13", ptr %0, i64 0, i32 3
  %613 = getelementptr inbounds %"class.dealii::Vector", ptr %15, i64 0, i32 3
  %614 = getelementptr inbounds %"class.dealii::Vector", ptr %16, i64 0, i32 3
  %615 = getelementptr inbounds %"class.dealii::Vector", ptr %17, i64 0, i32 3
  %616 = getelementptr inbounds %"class.dealii::Vector", ptr %18, i64 0, i32 3
  %617 = load ptr, ptr %612, align 8, !tbaa !153
  %618 = load <2 x double>, ptr %1, align 8, !tbaa !34, !noalias !39
  %619 = load <2 x double>, ptr %617, align 8, !tbaa !34, !noalias !228
  %620 = fadd <2 x double> %618, %619
  store <2 x double> %620, ptr %12, align 16, !tbaa !34
  %621 = load <2 x double>, ptr %617, align 8, !tbaa !34, !noalias !231
  %622 = fadd <2 x double> %620, %621
  store <2 x double> %622, ptr %11, align 16, !tbaa !34
  %623 = load <2 x double>, ptr %617, align 8, !tbaa !34, !noalias !234
  %624 = fsub <2 x double> %618, %623
  store <2 x double> %624, ptr %13, align 16, !tbaa !34
  %625 = load <2 x double>, ptr %617, align 8, !tbaa !34, !noalias !237
  %626 = fsub <2 x double> %624, %625
  store <2 x double> %626, ptr %14, align 16, !tbaa !34
  %627 = load ptr, ptr %0, align 8, !tbaa !5
  %628 = getelementptr inbounds ptr, ptr %627, i64 5
  %629 = load ptr, ptr %628, align 8
  invoke void %629(ptr noundef nonnull align 8 dereferenceable(92) %0, ptr noundef nonnull align 8 dereferenceable(16) %11, ptr noundef nonnull align 8 dereferenceable(88) %15)
          to label %638 unwind label %837

630:                                              ; preds = %834, %835
  call void @_ZdaPv(ptr noundef nonnull %748) #16
  store ptr null, ptr %616, align 8, !tbaa !59
  br label %631

631:                                              ; preds = %630, %835
  invoke void @_ZN6dealii11SubscriptorD2Ev(ptr noundef nonnull align 8 dereferenceable(72) %18)
          to label %857 unwind label %636

632:                                              ; preds = %868, %556
  %633 = landingpad { ptr, i32 }
          cleanup
  br label %876

634:                                              ; preds = %861, %573
  %635 = landingpad { ptr, i32 }
          cleanup
  br label %869

636:                                              ; preds = %631, %590
  %637 = landingpad { ptr, i32 }
          cleanup
  br label %862

638:                                              ; preds = %607
  %639 = load ptr, ptr %0, align 8, !tbaa !5
  %640 = getelementptr inbounds ptr, ptr %639, i64 5
  %641 = load ptr, ptr %640, align 8
  invoke void %641(ptr noundef nonnull align 8 dereferenceable(92) %0, ptr noundef nonnull align 8 dereferenceable(16) %12, ptr noundef nonnull align 8 dereferenceable(88) %16)
          to label %642 unwind label %837

642:                                              ; preds = %638
  %643 = load ptr, ptr %0, align 8, !tbaa !5
  %644 = getelementptr inbounds ptr, ptr %643, i64 5
  %645 = load ptr, ptr %644, align 8
  invoke void %645(ptr noundef nonnull align 8 dereferenceable(92) %0, ptr noundef nonnull align 8 dereferenceable(16) %13, ptr noundef nonnull align 8 dereferenceable(88) %17)
          to label %646 unwind label %837

646:                                              ; preds = %642
  %647 = load ptr, ptr %0, align 8, !tbaa !5
  %648 = getelementptr inbounds ptr, ptr %647, i64 5
  %649 = load ptr, ptr %648, align 8
  invoke void %649(ptr noundef nonnull align 8 dereferenceable(92) %0, ptr noundef nonnull align 8 dereferenceable(16) %14, ptr noundef nonnull align 8 dereferenceable(88) %18)
          to label %650 unwind label %837

650:                                              ; preds = %646
  %651 = load i32, ptr %540, align 8, !tbaa !178
  %652 = icmp eq i32 %651, 0
  br i1 %652, label %721, label %653

653:                                              ; preds = %650
  %654 = load ptr, ptr %613, align 8, !tbaa !59
  %655 = load ptr, ptr %614, align 8, !tbaa !59
  %656 = load ptr, ptr %615, align 8, !tbaa !59
  %657 = load ptr, ptr %616, align 8, !tbaa !59
  %658 = load ptr, ptr %2, align 8, !tbaa !153
  %659 = zext i32 %651 to i64
  %660 = icmp ult i32 %651, 12
  br i1 %660, label %719, label %661

661:                                              ; preds = %653
  %662 = shl nuw nsw i64 %659, 4
  %663 = add nsw i64 %662, -8
  %664 = getelementptr i8, ptr %658, i64 %663
  %665 = shl nuw nsw i64 %659, 3
  %666 = getelementptr i8, ptr %654, i64 %665
  %667 = getelementptr i8, ptr %655, i64 %665
  %668 = getelementptr i8, ptr %656, i64 %665
  %669 = getelementptr i8, ptr %657, i64 %665
  %670 = icmp ult ptr %658, %666
  %671 = icmp ult ptr %654, %664
  %672 = and i1 %670, %671
  %673 = icmp ult ptr %658, %667
  %674 = icmp ult ptr %655, %664
  %675 = and i1 %673, %674
  %676 = or i1 %672, %675
  %677 = icmp ult ptr %658, %668
  %678 = icmp ult ptr %656, %664
  %679 = and i1 %677, %678
  %680 = or i1 %676, %679
  %681 = icmp ult ptr %658, %669
  %682 = icmp ult ptr %657, %664
  %683 = and i1 %681, %682
  %684 = or i1 %680, %683
  br i1 %684, label %719, label %685

685:                                              ; preds = %661
  %686 = and i64 %659, 4294967292
  %687 = insertelement <4 x double> poison, double %611, i64 0
  %688 = shufflevector <4 x double> %687, <4 x double> poison, <4 x i32> zeroinitializer
  br label %689

689:                                              ; preds = %689, %685
  %690 = phi i64 [ 0, %685 ], [ %715, %689 ]
  %691 = or i64 %690, 1
  %692 = or i64 %690, 2
  %693 = or i64 %690, 3
  %694 = getelementptr inbounds double, ptr %654, i64 %690
  %695 = load <4 x double>, ptr %694, align 8, !tbaa !34, !alias.scope !240
  %696 = fneg <4 x double> %695
  %697 = getelementptr inbounds double, ptr %655, i64 %690
  %698 = load <4 x double>, ptr %697, align 8, !tbaa !34, !alias.scope !243
  %699 = call <4 x double> @llvm.fmuladd.v4f64(<4 x double> %698, <4 x double> <double 8.000000e+00, double 8.000000e+00, double 8.000000e+00, double 8.000000e+00>, <4 x double> %696)
  %700 = getelementptr inbounds double, ptr %656, i64 %690
  %701 = load <4 x double>, ptr %700, align 8, !tbaa !34, !alias.scope !245
  %702 = call <4 x double> @llvm.fmuladd.v4f64(<4 x double> %701, <4 x double> <double -8.000000e+00, double -8.000000e+00, double -8.000000e+00, double -8.000000e+00>, <4 x double> %699)
  %703 = getelementptr inbounds double, ptr %657, i64 %690
  %704 = load <4 x double>, ptr %703, align 8, !tbaa !34, !alias.scope !247
  %705 = fadd <4 x double> %702, %704
  %706 = fmul <4 x double> %688, %705
  %707 = getelementptr inbounds %"class.dealii::Tensor.22", ptr %658, i64 %690
  %708 = getelementptr inbounds %"class.dealii::Tensor.22", ptr %658, i64 %691
  %709 = getelementptr inbounds %"class.dealii::Tensor.22", ptr %658, i64 %692
  %710 = getelementptr inbounds %"class.dealii::Tensor.22", ptr %658, i64 %693
  %711 = extractelement <4 x double> %706, i64 0
  store double %711, ptr %707, align 8, !tbaa !34, !alias.scope !249, !noalias !251
  %712 = extractelement <4 x double> %706, i64 1
  store double %712, ptr %708, align 8, !tbaa !34, !alias.scope !249, !noalias !251
  %713 = extractelement <4 x double> %706, i64 2
  store double %713, ptr %709, align 8, !tbaa !34, !alias.scope !249, !noalias !251
  %714 = extractelement <4 x double> %706, i64 3
  store double %714, ptr %710, align 8, !tbaa !34, !alias.scope !249, !noalias !251
  %715 = add nuw i64 %690, 4
  %716 = icmp eq i64 %715, %686
  br i1 %716, label %717, label %689, !llvm.loop !252

717:                                              ; preds = %689
  %718 = icmp eq i64 %686, %659
  br i1 %718, label %721, label %719

719:                                              ; preds = %661, %653, %717
  %720 = phi i64 [ 0, %661 ], [ 0, %653 ], [ %686, %717 ]
  br label %839

721:                                              ; preds = %839, %717, %650
  %722 = load ptr, ptr %612, align 8, !tbaa !153
  %723 = getelementptr inbounds %"class.dealii::Tensor.22", ptr %722, i64 1
  %724 = load <2 x double>, ptr %1, align 8, !tbaa !34, !noalias !39
  %725 = load <2 x double>, ptr %723, align 8, !tbaa !34, !noalias !39
  %726 = fadd <2 x double> %724, %725
  store <2 x double> %726, ptr %12, align 16, !tbaa !34
  %727 = fadd <2 x double> %726, %725
  store <2 x double> %727, ptr %11, align 16, !tbaa !34
  %728 = fsub <2 x double> %724, %725
  store <2 x double> %728, ptr %13, align 16, !tbaa !34
  %729 = fsub <2 x double> %728, %725
  store <2 x double> %729, ptr %14, align 16, !tbaa !34
  %730 = load ptr, ptr %0, align 8, !tbaa !5
  %731 = getelementptr inbounds ptr, ptr %730, i64 5
  %732 = load ptr, ptr %731, align 8
  invoke void %732(ptr noundef nonnull align 8 dereferenceable(92) %0, ptr noundef nonnull align 8 dereferenceable(16) %11, ptr noundef nonnull align 8 dereferenceable(88) %15)
          to label %733 unwind label %837

733:                                              ; preds = %721
  %734 = load ptr, ptr %0, align 8, !tbaa !5
  %735 = getelementptr inbounds ptr, ptr %734, i64 5
  %736 = load ptr, ptr %735, align 8
  invoke void %736(ptr noundef nonnull align 8 dereferenceable(92) %0, ptr noundef nonnull align 8 dereferenceable(16) %12, ptr noundef nonnull align 8 dereferenceable(88) %16)
          to label %737 unwind label %837

737:                                              ; preds = %733
  %738 = load ptr, ptr %0, align 8, !tbaa !5
  %739 = getelementptr inbounds ptr, ptr %738, i64 5
  %740 = load ptr, ptr %739, align 8
  invoke void %740(ptr noundef nonnull align 8 dereferenceable(92) %0, ptr noundef nonnull align 8 dereferenceable(16) %13, ptr noundef nonnull align 8 dereferenceable(88) %17)
          to label %741 unwind label %837

741:                                              ; preds = %737
  %742 = load ptr, ptr %0, align 8, !tbaa !5
  %743 = getelementptr inbounds ptr, ptr %742, i64 5
  %744 = load ptr, ptr %743, align 8
  invoke void %744(ptr noundef nonnull align 8 dereferenceable(92) %0, ptr noundef nonnull align 8 dereferenceable(16) %14, ptr noundef nonnull align 8 dereferenceable(88) %18)
          to label %745 unwind label %837

745:                                              ; preds = %741
  %746 = load i32, ptr %540, align 8, !tbaa !178
  %747 = icmp eq i32 %746, 0
  %748 = load ptr, ptr %616, align 8, !tbaa !59
  br i1 %747, label %835, label %749

749:                                              ; preds = %745
  %750 = load ptr, ptr %613, align 8, !tbaa !59
  %751 = load ptr, ptr %614, align 8, !tbaa !59
  %752 = load ptr, ptr %615, align 8, !tbaa !59
  %753 = load ptr, ptr %2, align 8, !tbaa !153
  %754 = getelementptr inbounds [2 x double], ptr %753, i64 0, i64 1
  %755 = zext i32 %746 to i64
  %756 = icmp ult i32 %746, 12
  br i1 %756, label %814, label %757

757:                                              ; preds = %749
  %758 = shl nuw nsw i64 %755, 4
  %759 = getelementptr i8, ptr %753, i64 %758
  %760 = shl nuw nsw i64 %755, 3
  %761 = getelementptr i8, ptr %750, i64 %760
  %762 = getelementptr i8, ptr %751, i64 %760
  %763 = getelementptr i8, ptr %752, i64 %760
  %764 = getelementptr i8, ptr %748, i64 %760
  %765 = icmp ult ptr %754, %761
  %766 = icmp ult ptr %750, %759
  %767 = and i1 %765, %766
  %768 = icmp ult ptr %754, %762
  %769 = icmp ult ptr %751, %759
  %770 = and i1 %768, %769
  %771 = or i1 %767, %770
  %772 = icmp ult ptr %754, %763
  %773 = icmp ult ptr %752, %759
  %774 = and i1 %772, %773
  %775 = or i1 %771, %774
  %776 = icmp ult ptr %754, %764
  %777 = icmp ult ptr %748, %759
  %778 = and i1 %776, %777
  %779 = or i1 %775, %778
  br i1 %779, label %814, label %780

780:                                              ; preds = %757
  %781 = and i64 %755, 4294967292
  %782 = insertelement <4 x double> poison, double %611, i64 0
  %783 = shufflevector <4 x double> %782, <4 x double> poison, <4 x i32> zeroinitializer
  br label %784

784:                                              ; preds = %784, %780
  %785 = phi i64 [ 0, %780 ], [ %810, %784 ]
  %786 = or i64 %785, 1
  %787 = or i64 %785, 2
  %788 = or i64 %785, 3
  %789 = getelementptr inbounds double, ptr %750, i64 %785
  %790 = load <4 x double>, ptr %789, align 8, !tbaa !34, !alias.scope !253
  %791 = fneg <4 x double> %790
  %792 = getelementptr inbounds double, ptr %751, i64 %785
  %793 = load <4 x double>, ptr %792, align 8, !tbaa !34, !alias.scope !256
  %794 = call <4 x double> @llvm.fmuladd.v4f64(<4 x double> %793, <4 x double> <double 8.000000e+00, double 8.000000e+00, double 8.000000e+00, double 8.000000e+00>, <4 x double> %791)
  %795 = getelementptr inbounds double, ptr %752, i64 %785
  %796 = load <4 x double>, ptr %795, align 8, !tbaa !34, !alias.scope !258
  %797 = call <4 x double> @llvm.fmuladd.v4f64(<4 x double> %796, <4 x double> <double -8.000000e+00, double -8.000000e+00, double -8.000000e+00, double -8.000000e+00>, <4 x double> %794)
  %798 = getelementptr inbounds double, ptr %748, i64 %785
  %799 = load <4 x double>, ptr %798, align 8, !tbaa !34, !alias.scope !260
  %800 = fadd <4 x double> %797, %799
  %801 = fmul <4 x double> %783, %800
  %802 = getelementptr inbounds %"class.dealii::Tensor.22", ptr %754, i64 %785
  %803 = getelementptr inbounds %"class.dealii::Tensor.22", ptr %754, i64 %786
  %804 = getelementptr inbounds %"class.dealii::Tensor.22", ptr %754, i64 %787
  %805 = getelementptr inbounds %"class.dealii::Tensor.22", ptr %754, i64 %788
  %806 = extractelement <4 x double> %801, i64 0
  store double %806, ptr %802, align 8, !tbaa !34, !alias.scope !262, !noalias !264
  %807 = extractelement <4 x double> %801, i64 1
  store double %807, ptr %803, align 8, !tbaa !34, !alias.scope !262, !noalias !264
  %808 = extractelement <4 x double> %801, i64 2
  store double %808, ptr %804, align 8, !tbaa !34, !alias.scope !262, !noalias !264
  %809 = extractelement <4 x double> %801, i64 3
  store double %809, ptr %805, align 8, !tbaa !34, !alias.scope !262, !noalias !264
  %810 = add nuw i64 %785, 4
  %811 = icmp eq i64 %810, %781
  br i1 %811, label %812, label %784, !llvm.loop !265

812:                                              ; preds = %784
  %813 = icmp eq i64 %781, %755
  br i1 %813, label %834, label %814

814:                                              ; preds = %757, %749, %812
  %815 = phi i64 [ 0, %757 ], [ 0, %749 ], [ %781, %812 ]
  br label %816

816:                                              ; preds = %814, %816
  %817 = phi i64 [ %832, %816 ], [ %815, %814 ]
  %818 = getelementptr inbounds double, ptr %750, i64 %817
  %819 = load double, ptr %818, align 8, !tbaa !34
  %820 = fneg double %819
  %821 = getelementptr inbounds double, ptr %751, i64 %817
  %822 = load double, ptr %821, align 8, !tbaa !34
  %823 = call double @llvm.fmuladd.f64(double %822, double 8.000000e+00, double %820)
  %824 = getelementptr inbounds double, ptr %752, i64 %817
  %825 = load double, ptr %824, align 8, !tbaa !34
  %826 = call double @llvm.fmuladd.f64(double %825, double -8.000000e+00, double %823)
  %827 = getelementptr inbounds double, ptr %748, i64 %817
  %828 = load double, ptr %827, align 8, !tbaa !34
  %829 = fadd double %826, %828
  %830 = fmul double %611, %829
  %831 = getelementptr inbounds %"class.dealii::Tensor.22", ptr %754, i64 %817
  store double %830, ptr %831, align 8, !tbaa !34
  %832 = add nuw nsw i64 %817, 1
  %833 = icmp eq i64 %832, %755
  br i1 %833, label %834, label %816, !llvm.loop !266

834:                                              ; preds = %816, %812
  store ptr getelementptr inbounds ({ [6 x ptr] }, ptr @_ZTVN6dealii6VectorIdEE, i64 0, inrange i32 0, i64 2), ptr %18, align 8, !tbaa !5
  br label %630

835:                                              ; preds = %745
  store ptr getelementptr inbounds ({ [6 x ptr] }, ptr @_ZTVN6dealii6VectorIdEE, i64 0, inrange i32 0, i64 2), ptr %18, align 8, !tbaa !5
  %836 = icmp eq ptr %748, null
  br i1 %836, label %631, label %630

837:                                              ; preds = %741, %737, %733, %721, %646, %642, %638, %607
  %838 = landingpad { ptr, i32 }
          cleanup
  invoke void @_ZN6dealii6VectorIdED2Ev(ptr noundef nonnull align 8 dereferenceable(88) %18)
          to label %862 unwind label %880

839:                                              ; preds = %719, %839
  %840 = phi i64 [ %855, %839 ], [ %720, %719 ]
  %841 = getelementptr inbounds double, ptr %654, i64 %840
  %842 = load double, ptr %841, align 8, !tbaa !34
  %843 = fneg double %842
  %844 = getelementptr inbounds double, ptr %655, i64 %840
  %845 = load double, ptr %844, align 8, !tbaa !34
  %846 = call double @llvm.fmuladd.f64(double %845, double 8.000000e+00, double %843)
  %847 = getelementptr inbounds double, ptr %656, i64 %840
  %848 = load double, ptr %847, align 8, !tbaa !34
  %849 = call double @llvm.fmuladd.f64(double %848, double -8.000000e+00, double %846)
  %850 = getelementptr inbounds double, ptr %657, i64 %840
  %851 = load double, ptr %850, align 8, !tbaa !34
  %852 = fadd double %849, %851
  %853 = fmul double %611, %852
  %854 = getelementptr inbounds %"class.dealii::Tensor.22", ptr %658, i64 %840
  store double %853, ptr %854, align 8, !tbaa !34
  %855 = add nuw nsw i64 %840, 1
  %856 = icmp eq i64 %855, %659
  br i1 %856, label %721, label %839, !llvm.loop !267

857:                                              ; preds = %631
  call void @llvm.lifetime.end.p0(i64 88, ptr nonnull %18) #15
  store ptr getelementptr inbounds ({ [6 x ptr] }, ptr @_ZTVN6dealii6VectorIdEE, i64 0, inrange i32 0, i64 2), ptr %17, align 8, !tbaa !5
  %858 = load ptr, ptr %615, align 8, !tbaa !59
  %859 = icmp eq ptr %858, null
  br i1 %859, label %861, label %860

860:                                              ; preds = %857
  call void @_ZdaPv(ptr noundef nonnull %858) #16
  store ptr null, ptr %615, align 8, !tbaa !59
  br label %861

861:                                              ; preds = %860, %857
  invoke void @_ZN6dealii11SubscriptorD2Ev(ptr noundef nonnull align 8 dereferenceable(72) %17)
          to label %864 unwind label %634

862:                                              ; preds = %636, %602, %837
  %863 = phi { ptr, i32 } [ %838, %837 ], [ %637, %636 ], [ %603, %602 ]
  call void @llvm.lifetime.end.p0(i64 88, ptr nonnull %18) #15
  invoke void @_ZN6dealii6VectorIdED2Ev(ptr noundef nonnull align 8 dereferenceable(88) %17)
          to label %869 unwind label %880

864:                                              ; preds = %861
  call void @llvm.lifetime.end.p0(i64 88, ptr nonnull %17) #15
  store ptr getelementptr inbounds ({ [6 x ptr] }, ptr @_ZTVN6dealii6VectorIdEE, i64 0, inrange i32 0, i64 2), ptr %16, align 8, !tbaa !5
  %865 = load ptr, ptr %614, align 8, !tbaa !59
  %866 = icmp eq ptr %865, null
  br i1 %866, label %868, label %867

867:                                              ; preds = %864
  call void @_ZdaPv(ptr noundef nonnull %865) #16
  store ptr null, ptr %614, align 8, !tbaa !59
  br label %868

868:                                              ; preds = %867, %864
  invoke void @_ZN6dealii11SubscriptorD2Ev(ptr noundef nonnull align 8 dereferenceable(72) %16)
          to label %871 unwind label %632

869:                                              ; preds = %634, %585, %862
  %870 = phi { ptr, i32 } [ %863, %862 ], [ %635, %634 ], [ %586, %585 ]
  call void @llvm.lifetime.end.p0(i64 88, ptr nonnull %17) #15
  invoke void @_ZN6dealii6VectorIdED2Ev(ptr noundef nonnull align 8 dereferenceable(88) %16)
          to label %876 unwind label %880

871:                                              ; preds = %868
  call void @llvm.lifetime.end.p0(i64 88, ptr nonnull %16) #15
  store ptr getelementptr inbounds ({ [6 x ptr] }, ptr @_ZTVN6dealii6VectorIdEE, i64 0, inrange i32 0, i64 2), ptr %15, align 8, !tbaa !5
  %872 = load ptr, ptr %613, align 8, !tbaa !59
  %873 = icmp eq ptr %872, null
  br i1 %873, label %875, label %874

874:                                              ; preds = %871
  call void @_ZdaPv(ptr noundef nonnull %872) #16
  store ptr null, ptr %613, align 8, !tbaa !59
  br label %875

875:                                              ; preds = %871, %874
  call void @_ZN6dealii11SubscriptorD2Ev(ptr noundef nonnull align 8 dereferenceable(72) %15)
  call void @llvm.lifetime.end.p0(i64 88, ptr nonnull %15) #15
  call void @llvm.lifetime.end.p0(i64 16, ptr nonnull %14) #15
  call void @llvm.lifetime.end.p0(i64 16, ptr nonnull %13) #15
  call void @llvm.lifetime.end.p0(i64 16, ptr nonnull %12) #15
  call void @llvm.lifetime.end.p0(i64 16, ptr nonnull %11) #15
  br label %879

876:                                              ; preds = %632, %568, %869
  %877 = phi { ptr, i32 } [ %870, %869 ], [ %633, %632 ], [ %569, %568 ]
  call void @llvm.lifetime.end.p0(i64 88, ptr nonnull %16) #15
  invoke void @_ZN6dealii6VectorIdED2Ev(ptr noundef nonnull align 8 dereferenceable(88) %15)
          to label %878 unwind label %880

878:                                              ; preds = %876
  call void @llvm.lifetime.end.p0(i64 88, ptr nonnull %15) #15
  call void @llvm.lifetime.end.p0(i64 16, ptr nonnull %14) #15
  call void @llvm.lifetime.end.p0(i64 16, ptr nonnull %13) #15
  call void @llvm.lifetime.end.p0(i64 16, ptr nonnull %12) #15
  call void @llvm.lifetime.end.p0(i64 16, ptr nonnull %11) #15
  br label %35

879:                                              ; preds = %3, %875, %535, %275
  ret void

880:                                              ; preds = %876, %869, %862, %837, %536, %510, %276, %250
  %881 = landingpad { ptr, i32 }
          catch ptr null
  %882 = extractvalue { ptr, i32 } %881, 0
  call void @__clang_call_terminate(ptr %882) #14
  unreachable
}

; Function Attrs: sspstrong uwtable
define weak_odr dso_local void @_ZNK6dealii22AutoDerivativeFunctionILi2EE13gradient_listERKSt6vectorINS_5PointILi2EEESaIS4_EERS2_INS_6TensorILi1ELi2EEESaISA_EEj(ptr noundef nonnull align 8 dereferenceable(132) %0, ptr noundef nonnull align 8 dereferenceable(24) %1, ptr noundef nonnull align 8 dereferenceable(24) %2, i32 noundef %3) unnamed_addr #0 comdat align 2 {
  %5 = alloca %"class.dealii::Point.23", align 16
  %6 = alloca %"class.dealii::Point.23", align 16
  %7 = alloca %"class.dealii::Point.23", align 16
  %8 = alloca %"class.dealii::Point.23", align 16
  %9 = alloca %"class.dealii::Point.23", align 16
  %10 = alloca %"class.dealii::Point.23", align 16
  %11 = alloca %"class.dealii::Point.23", align 16
  %12 = getelementptr inbounds %"class.dealii::AutoDerivativeFunction.13", ptr %0, i64 0, i32 4
  %13 = load i32, ptr %12, align 8, !tbaa !156
  switch i32 %13, label %236 [
    i32 1, label %14
    i32 0, label %74
    i32 2, label %141
  ]

14:                                               ; preds = %4
  call void @llvm.lifetime.start.p0(i64 16, ptr nonnull %5) #15
  call void @llvm.memset.p0.i64(ptr noundef nonnull align 16 dereferenceable(16) %5, i8 0, i64 16, i1 false), !tbaa !34
  %15 = getelementptr inbounds %"struct.std::_Vector_base<dealii::Point<2>, std::allocator<dealii::Point<2> > >::_Vector_impl_data", ptr %1, i64 0, i32 1
  %16 = load ptr, ptr %15, align 8, !tbaa !268
  %17 = load ptr, ptr %1, align 8, !tbaa !270
  %18 = icmp eq ptr %16, %17
  br i1 %18, label %73, label %19

19:                                               ; preds = %14
  %20 = getelementptr inbounds %"class.dealii::AutoDerivativeFunction.13", ptr %0, i64 0, i32 3
  %21 = getelementptr inbounds %"class.dealii::AutoDerivativeFunction.13", ptr %0, i64 0, i32 2
  br label %22

22:                                               ; preds = %19, %22
  %23 = phi ptr [ %17, %19 ], [ %67, %22 ]
  %24 = phi i64 [ 0, %19 ], [ %65, %22 ]
  %25 = phi i32 [ 0, %19 ], [ %64, %22 ]
  %26 = getelementptr inbounds %"class.dealii::Point.23", ptr %23, i64 %24
  %27 = load ptr, ptr %20, align 8, !tbaa !153
  %28 = load <2 x double>, ptr %26, align 8, !tbaa !34, !noalias !271
  %29 = load <2 x double>, ptr %27, align 8, !tbaa !34, !noalias !271
  %30 = fsub <2 x double> %28, %29
  store <2 x double> %30, ptr %5, align 16, !tbaa !34
  %31 = load ptr, ptr %0, align 8, !tbaa !5
  %32 = getelementptr inbounds ptr, ptr %31, i64 4
  %33 = load ptr, ptr %32, align 8
  %34 = call noundef double %33(ptr noundef nonnull align 8 dereferenceable(92) %0, ptr noundef nonnull align 8 dereferenceable(16) %26, i32 noundef %3)
  %35 = load ptr, ptr %0, align 8, !tbaa !5
  %36 = getelementptr inbounds ptr, ptr %35, i64 4
  %37 = load ptr, ptr %36, align 8
  %38 = call noundef double %37(ptr noundef nonnull align 8 dereferenceable(92) %0, ptr noundef nonnull align 8 dereferenceable(16) %5, i32 noundef %3)
  %39 = fsub double %34, %38
  %40 = load double, ptr %21, align 8, !tbaa !145
  %41 = fdiv double %39, %40
  %42 = load ptr, ptr %2, align 8, !tbaa !153
  %43 = getelementptr inbounds %"class.dealii::Tensor.22", ptr %42, i64 %24
  store double %41, ptr %43, align 8, !tbaa !34
  %44 = load ptr, ptr %1, align 8, !tbaa !270
  %45 = getelementptr inbounds %"class.dealii::Point.23", ptr %44, i64 %24
  %46 = load ptr, ptr %20, align 8, !tbaa !153
  %47 = getelementptr inbounds %"class.dealii::Tensor.22", ptr %46, i64 1
  %48 = load <2 x double>, ptr %45, align 8, !tbaa !34, !noalias !271
  %49 = load <2 x double>, ptr %47, align 8, !tbaa !34, !noalias !271
  %50 = fsub <2 x double> %48, %49
  store <2 x double> %50, ptr %5, align 16, !tbaa !34
  %51 = load ptr, ptr %0, align 8, !tbaa !5
  %52 = getelementptr inbounds ptr, ptr %51, i64 4
  %53 = load ptr, ptr %52, align 8
  %54 = call noundef double %53(ptr noundef nonnull align 8 dereferenceable(92) %0, ptr noundef nonnull align 8 dereferenceable(16) %45, i32 noundef %3)
  %55 = load ptr, ptr %0, align 8, !tbaa !5
  %56 = getelementptr inbounds ptr, ptr %55, i64 4
  %57 = load ptr, ptr %56, align 8
  %58 = call noundef double %57(ptr noundef nonnull align 8 dereferenceable(92) %0, ptr noundef nonnull align 8 dereferenceable(16) %5, i32 noundef %3)
  %59 = fsub double %54, %58
  %60 = load double, ptr %21, align 8, !tbaa !145
  %61 = fdiv double %59, %60
  %62 = load ptr, ptr %2, align 8, !tbaa !153
  %63 = getelementptr inbounds %"class.dealii::Tensor.22", ptr %62, i64 %24, i32 0, i64 1
  store double %61, ptr %63, align 8, !tbaa !34
  %64 = add i32 %25, 1
  %65 = zext i32 %64 to i64
  %66 = load ptr, ptr %15, align 8, !tbaa !268
  %67 = load ptr, ptr %1, align 8, !tbaa !270
  %68 = ptrtoint ptr %66 to i64
  %69 = ptrtoint ptr %67 to i64
  %70 = sub i64 %68, %69
  %71 = ashr exact i64 %70, 4
  %72 = icmp ugt i64 %71, %65
  br i1 %72, label %22, label %73

73:                                               ; preds = %22, %14
  call void @llvm.lifetime.end.p0(i64 16, ptr nonnull %5) #15
  br label %236

74:                                               ; preds = %4
  call void @llvm.lifetime.start.p0(i64 16, ptr nonnull %6) #15
  call void @llvm.memset.p0.i64(ptr noundef nonnull align 16 dereferenceable(16) %6, i8 0, i64 16, i1 false), !tbaa !34
  call void @llvm.lifetime.start.p0(i64 16, ptr nonnull %7) #15
  call void @llvm.memset.p0.i64(ptr noundef nonnull align 16 dereferenceable(16) %7, i8 0, i64 16, i1 false), !tbaa !34
  %75 = getelementptr inbounds %"struct.std::_Vector_base<dealii::Point<2>, std::allocator<dealii::Point<2> > >::_Vector_impl_data", ptr %1, i64 0, i32 1
  %76 = load ptr, ptr %75, align 8, !tbaa !268
  %77 = load ptr, ptr %1, align 8, !tbaa !270
  %78 = icmp eq ptr %76, %77
  br i1 %78, label %140, label %79

79:                                               ; preds = %74
  %80 = getelementptr inbounds %"class.dealii::AutoDerivativeFunction.13", ptr %0, i64 0, i32 3
  %81 = getelementptr inbounds %"class.dealii::AutoDerivativeFunction.13", ptr %0, i64 0, i32 2
  br label %82

82:                                               ; preds = %79, %82
  %83 = phi ptr [ %77, %79 ], [ %134, %82 ]
  %84 = phi i64 [ 0, %79 ], [ %132, %82 ]
  %85 = phi i32 [ 0, %79 ], [ %131, %82 ]
  %86 = getelementptr inbounds %"class.dealii::Point.23", ptr %83, i64 %84
  %87 = load ptr, ptr %80, align 8, !tbaa !153
  %88 = load <2 x double>, ptr %86, align 8, !tbaa !34, !noalias !274
  %89 = load <2 x double>, ptr %87, align 8, !tbaa !34, !noalias !274
  %90 = fadd <2 x double> %88, %89
  store <2 x double> %90, ptr %6, align 16, !tbaa !34
  %91 = load <2 x double>, ptr %86, align 8, !tbaa !34, !noalias !277
  %92 = load <2 x double>, ptr %87, align 8, !tbaa !34, !noalias !277
  %93 = fsub <2 x double> %91, %92
  store <2 x double> %93, ptr %7, align 16, !tbaa !34
  %94 = load ptr, ptr %0, align 8, !tbaa !5
  %95 = getelementptr inbounds ptr, ptr %94, i64 4
  %96 = load ptr, ptr %95, align 8
  %97 = call noundef double %96(ptr noundef nonnull align 8 dereferenceable(92) %0, ptr noundef nonnull align 8 dereferenceable(16) %6, i32 noundef %3)
  %98 = load ptr, ptr %0, align 8, !tbaa !5
  %99 = getelementptr inbounds ptr, ptr %98, i64 4
  %100 = load ptr, ptr %99, align 8
  %101 = call noundef double %100(ptr noundef nonnull align 8 dereferenceable(92) %0, ptr noundef nonnull align 8 dereferenceable(16) %7, i32 noundef %3)
  %102 = fsub double %97, %101
  %103 = load double, ptr %81, align 8, !tbaa !145
  %104 = fmul double %103, 2.000000e+00
  %105 = fdiv double %102, %104
  %106 = load ptr, ptr %2, align 8, !tbaa !153
  %107 = getelementptr inbounds %"class.dealii::Tensor.22", ptr %106, i64 %84
  store double %105, ptr %107, align 8, !tbaa !34
  %108 = load ptr, ptr %1, align 8, !tbaa !270
  %109 = getelementptr inbounds %"class.dealii::Point.23", ptr %108, i64 %84
  %110 = load ptr, ptr %80, align 8, !tbaa !153
  %111 = getelementptr inbounds %"class.dealii::Tensor.22", ptr %110, i64 1
  %112 = load <2 x double>, ptr %109, align 8, !tbaa !34, !noalias !274
  %113 = load <2 x double>, ptr %111, align 8, !tbaa !34, !noalias !39
  %114 = fadd <2 x double> %112, %113
  store <2 x double> %114, ptr %6, align 16, !tbaa !34
  %115 = load <2 x double>, ptr %109, align 8, !tbaa !34, !noalias !277
  %116 = fsub <2 x double> %115, %113
  store <2 x double> %116, ptr %7, align 16, !tbaa !34
  %117 = load ptr, ptr %0, align 8, !tbaa !5
  %118 = getelementptr inbounds ptr, ptr %117, i64 4
  %119 = load ptr, ptr %118, align 8
  %120 = call noundef double %119(ptr noundef nonnull align 8 dereferenceable(92) %0, ptr noundef nonnull align 8 dereferenceable(16) %6, i32 noundef %3)
  %121 = load ptr, ptr %0, align 8, !tbaa !5
  %122 = getelementptr inbounds ptr, ptr %121, i64 4
  %123 = load ptr, ptr %122, align 8
  %124 = call noundef double %123(ptr noundef nonnull align 8 dereferenceable(92) %0, ptr noundef nonnull align 8 dereferenceable(16) %7, i32 noundef %3)
  %125 = fsub double %120, %124
  %126 = load double, ptr %81, align 8, !tbaa !145
  %127 = fmul double %126, 2.000000e+00
  %128 = fdiv double %125, %127
  %129 = load ptr, ptr %2, align 8, !tbaa !153
  %130 = getelementptr inbounds %"class.dealii::Tensor.22", ptr %129, i64 %84, i32 0, i64 1
  store double %128, ptr %130, align 8, !tbaa !34
  %131 = add i32 %85, 1
  %132 = zext i32 %131 to i64
  %133 = load ptr, ptr %75, align 8, !tbaa !268
  %134 = load ptr, ptr %1, align 8, !tbaa !270
  %135 = ptrtoint ptr %133 to i64
  %136 = ptrtoint ptr %134 to i64
  %137 = sub i64 %135, %136
  %138 = ashr exact i64 %137, 4
  %139 = icmp ugt i64 %138, %132
  br i1 %139, label %82, label %140

140:                                              ; preds = %82, %74
  call void @llvm.lifetime.end.p0(i64 16, ptr nonnull %7) #15
  call void @llvm.lifetime.end.p0(i64 16, ptr nonnull %6) #15
  br label %236

141:                                              ; preds = %4
  call void @llvm.lifetime.start.p0(i64 16, ptr nonnull %8) #15
  call void @llvm.memset.p0.i64(ptr noundef nonnull align 16 dereferenceable(16) %8, i8 0, i64 16, i1 false), !tbaa !34
  call void @llvm.lifetime.start.p0(i64 16, ptr nonnull %9) #15
  call void @llvm.memset.p0.i64(ptr noundef nonnull align 16 dereferenceable(16) %9, i8 0, i64 16, i1 false), !tbaa !34
  call void @llvm.lifetime.start.p0(i64 16, ptr nonnull %10) #15
  call void @llvm.memset.p0.i64(ptr noundef nonnull align 16 dereferenceable(16) %10, i8 0, i64 16, i1 false), !tbaa !34
  call void @llvm.lifetime.start.p0(i64 16, ptr nonnull %11) #15
  call void @llvm.memset.p0.i64(ptr noundef nonnull align 16 dereferenceable(16) %11, i8 0, i64 16, i1 false), !tbaa !34
  %142 = getelementptr inbounds %"struct.std::_Vector_base<dealii::Point<2>, std::allocator<dealii::Point<2> > >::_Vector_impl_data", ptr %1, i64 0, i32 1
  %143 = load ptr, ptr %142, align 8, !tbaa !268
  %144 = load ptr, ptr %1, align 8, !tbaa !270
  %145 = icmp eq ptr %143, %144
  br i1 %145, label %235, label %146

146:                                              ; preds = %141
  %147 = getelementptr inbounds %"class.dealii::AutoDerivativeFunction.13", ptr %0, i64 0, i32 3
  %148 = getelementptr inbounds %"class.dealii::AutoDerivativeFunction.13", ptr %0, i64 0, i32 2
  br label %149

149:                                              ; preds = %146, %149
  %150 = phi ptr [ %144, %146 ], [ %229, %149 ]
  %151 = phi i64 [ 0, %146 ], [ %227, %149 ]
  %152 = phi i32 [ 0, %146 ], [ %226, %149 ]
  %153 = getelementptr inbounds %"class.dealii::Point.23", ptr %150, i64 %151
  %154 = load ptr, ptr %147, align 8, !tbaa !153
  %155 = load <2 x double>, ptr %153, align 8, !tbaa !34, !noalias !280
  %156 = load <2 x double>, ptr %154, align 8, !tbaa !34, !noalias !280
  %157 = fadd <2 x double> %155, %156
  store <2 x double> %157, ptr %9, align 16, !tbaa !34
  %158 = load <2 x double>, ptr %154, align 8, !tbaa !34, !noalias !283
  %159 = fadd <2 x double> %157, %158
  store <2 x double> %159, ptr %8, align 16, !tbaa !34
  %160 = load <2 x double>, ptr %153, align 8, !tbaa !34, !noalias !286
  %161 = load <2 x double>, ptr %154, align 8, !tbaa !34, !noalias !286
  %162 = fsub <2 x double> %160, %161
  store <2 x double> %162, ptr %10, align 16, !tbaa !34
  %163 = load <2 x double>, ptr %154, align 8, !tbaa !34, !noalias !289
  %164 = fsub <2 x double> %162, %163
  store <2 x double> %164, ptr %11, align 16, !tbaa !34
  %165 = load ptr, ptr %0, align 8, !tbaa !5
  %166 = getelementptr inbounds ptr, ptr %165, i64 4
  %167 = load ptr, ptr %166, align 8
  %168 = call noundef double %167(ptr noundef nonnull align 8 dereferenceable(92) %0, ptr noundef nonnull align 8 dereferenceable(16) %8, i32 noundef %3)
  %169 = fneg double %168
  %170 = load ptr, ptr %0, align 8, !tbaa !5
  %171 = getelementptr inbounds ptr, ptr %170, i64 4
  %172 = load ptr, ptr %171, align 8
  %173 = call noundef double %172(ptr noundef nonnull align 8 dereferenceable(92) %0, ptr noundef nonnull align 8 dereferenceable(16) %9, i32 noundef %3)
  %174 = call double @llvm.fmuladd.f64(double %173, double 8.000000e+00, double %169)
  %175 = load ptr, ptr %0, align 8, !tbaa !5
  %176 = getelementptr inbounds ptr, ptr %175, i64 4
  %177 = load ptr, ptr %176, align 8
  %178 = call noundef double %177(ptr noundef nonnull align 8 dereferenceable(92) %0, ptr noundef nonnull align 8 dereferenceable(16) %10, i32 noundef %3)
  %179 = call double @llvm.fmuladd.f64(double %178, double -8.000000e+00, double %174)
  %180 = load ptr, ptr %0, align 8, !tbaa !5
  %181 = getelementptr inbounds ptr, ptr %180, i64 4
  %182 = load ptr, ptr %181, align 8
  %183 = call noundef double %182(ptr noundef nonnull align 8 dereferenceable(92) %0, ptr noundef nonnull align 8 dereferenceable(16) %11, i32 noundef %3)
  %184 = fadd double %179, %183
  %185 = load double, ptr %148, align 8, !tbaa !145
  %186 = fmul double %185, 1.200000e+01
  %187 = fdiv double %184, %186
  %188 = load ptr, ptr %2, align 8, !tbaa !153
  %189 = getelementptr inbounds %"class.dealii::Tensor.22", ptr %188, i64 %151
  store double %187, ptr %189, align 8, !tbaa !34
  %190 = load ptr, ptr %1, align 8, !tbaa !270
  %191 = getelementptr inbounds %"class.dealii::Point.23", ptr %190, i64 %151
  %192 = load ptr, ptr %147, align 8, !tbaa !153
  %193 = getelementptr inbounds %"class.dealii::Tensor.22", ptr %192, i64 1
  %194 = load <2 x double>, ptr %191, align 8, !tbaa !34, !noalias !280
  %195 = load <2 x double>, ptr %193, align 8, !tbaa !34, !noalias !39
  %196 = fadd <2 x double> %194, %195
  store <2 x double> %196, ptr %9, align 16, !tbaa !34
  %197 = fadd <2 x double> %196, %195
  store <2 x double> %197, ptr %8, align 16, !tbaa !34
  %198 = load <2 x double>, ptr %191, align 8, !tbaa !34, !noalias !286
  %199 = fsub <2 x double> %198, %195
  store <2 x double> %199, ptr %10, align 16, !tbaa !34
  %200 = fsub <2 x double> %199, %195
  store <2 x double> %200, ptr %11, align 16, !tbaa !34
  %201 = load ptr, ptr %0, align 8, !tbaa !5
  %202 = getelementptr inbounds ptr, ptr %201, i64 4
  %203 = load ptr, ptr %202, align 8
  %204 = call noundef double %203(ptr noundef nonnull align 8 dereferenceable(92) %0, ptr noundef nonnull align 8 dereferenceable(16) %8, i32 noundef %3)
  %205 = fneg double %204
  %206 = load ptr, ptr %0, align 8, !tbaa !5
  %207 = getelementptr inbounds ptr, ptr %206, i64 4
  %208 = load ptr, ptr %207, align 8
  %209 = call noundef double %208(ptr noundef nonnull align 8 dereferenceable(92) %0, ptr noundef nonnull align 8 dereferenceable(16) %9, i32 noundef %3)
  %210 = call double @llvm.fmuladd.f64(double %209, double 8.000000e+00, double %205)
  %211 = load ptr, ptr %0, align 8, !tbaa !5
  %212 = getelementptr inbounds ptr, ptr %211, i64 4
  %213 = load ptr, ptr %212, align 8
  %214 = call noundef double %213(ptr noundef nonnull align 8 dereferenceable(92) %0, ptr noundef nonnull align 8 dereferenceable(16) %10, i32 noundef %3)
  %215 = call double @llvm.fmuladd.f64(double %214, double -8.000000e+00, double %210)
  %216 = load ptr, ptr %0, align 8, !tbaa !5
  %217 = getelementptr inbounds ptr, ptr %216, i64 4
  %218 = load ptr, ptr %217, align 8
  %219 = call noundef double %218(ptr noundef nonnull align 8 dereferenceable(92) %0, ptr noundef nonnull align 8 dereferenceable(16) %11, i32 noundef %3)
  %220 = fadd double %215, %219
  %221 = load double, ptr %148, align 8, !tbaa !145
  %222 = fmul double %221, 1.200000e+01
  %223 = fdiv double %220, %222
  %224 = load ptr, ptr %2, align 8, !tbaa !153
  %225 = getelementptr inbounds %"class.dealii::Tensor.22", ptr %224, i64 %151, i32 0, i64 1
  store double %223, ptr %225, align 8, !tbaa !34
  %226 = add i32 %152, 1
  %227 = zext i32 %226 to i64
  %228 = load ptr, ptr %142, align 8, !tbaa !268
  %229 = load ptr, ptr %1, align 8, !tbaa !270
  %230 = ptrtoint ptr %228 to i64
  %231 = ptrtoint ptr %229 to i64
  %232 = sub i64 %230, %231
  %233 = ashr exact i64 %232, 4
  %234 = icmp ugt i64 %233, %227
  br i1 %234, label %149, label %235

235:                                              ; preds = %149, %141
  call void @llvm.lifetime.end.p0(i64 16, ptr nonnull %11) #15
  call void @llvm.lifetime.end.p0(i64 16, ptr nonnull %10) #15
  call void @llvm.lifetime.end.p0(i64 16, ptr nonnull %9) #15
  call void @llvm.lifetime.end.p0(i64 16, ptr nonnull %8) #15
  br label %236

236:                                              ; preds = %4, %235, %140, %73
  ret void
}

; Function Attrs: sspstrong uwtable
define weak_odr dso_local void @_ZNK6dealii22AutoDerivativeFunctionILi2EE20vector_gradient_listERKSt6vectorINS_5PointILi2EEESaIS4_EERS2_IS2_INS_6TensorILi1ELi2EEESaISA_EESaISC_EE(ptr noundef nonnull align 8 dereferenceable(132) %0, ptr noundef nonnull align 8 dereferenceable(24) %1, ptr noundef nonnull align 8 dereferenceable(24) %2) unnamed_addr #0 comdat align 2 {
  %4 = alloca %"class.dealii::Point.23", align 16
  %5 = alloca %"class.dealii::Point.23", align 16
  %6 = alloca %"class.dealii::Point.23", align 16
  %7 = alloca %"class.dealii::Point.23", align 16
  %8 = alloca %"class.dealii::Point.23", align 16
  %9 = alloca %"class.dealii::Point.23", align 16
  %10 = alloca %"class.dealii::Point.23", align 16
  %11 = getelementptr inbounds %"struct.std::_Vector_base<dealii::Point<2>, std::allocator<dealii::Point<2> > >::_Vector_impl_data", ptr %1, i64 0, i32 1
  %12 = load ptr, ptr %11, align 8, !tbaa !268
  %13 = load ptr, ptr %1, align 8, !tbaa !270
  %14 = ptrtoint ptr %12 to i64
  %15 = ptrtoint ptr %13 to i64
  %16 = sub i64 %14, %15
  %17 = ashr exact i64 %16, 4
  br label %18

18:                                               ; preds = %18, %3
  %19 = phi i32 [ 0, %3 ], [ %22, %18 ]
  %20 = zext i32 %19 to i64
  %21 = icmp ugt i64 %17, %20
  %22 = add i32 %19, 1
  br i1 %21, label %18, label %23

23:                                               ; preds = %18
  %24 = getelementptr inbounds %"class.dealii::AutoDerivativeFunction.13", ptr %0, i64 0, i32 4
  %25 = load i32, ptr %24, align 8, !tbaa !156
  switch i32 %25, label %418 [
    i32 1, label %26
    i32 0, label %140
    i32 2, label %262
  ]

26:                                               ; preds = %23
  call void @llvm.lifetime.start.p0(i64 16, ptr nonnull %4) #15
  call void @llvm.memset.p0.i64(ptr noundef nonnull align 16 dereferenceable(16) %4, i8 0, i64 16, i1 false), !tbaa !34
  %27 = icmp eq ptr %12, %13
  br i1 %27, label %57, label %28

28:                                               ; preds = %26
  %29 = getelementptr inbounds %"class.dealii::AutoDerivativeFunction.13", ptr %0, i64 0, i32 3
  %30 = getelementptr inbounds %"class.dealii::Function.14", ptr %0, i64 0, i32 2
  %31 = getelementptr inbounds %"class.dealii::AutoDerivativeFunction.13", ptr %0, i64 0, i32 2
  %32 = load i32, ptr %30, align 8, !tbaa !178
  br label %33

33:                                               ; preds = %28, %58
  %34 = phi ptr [ %13, %28 ], [ %59, %58 ]
  %35 = phi ptr [ %13, %28 ], [ %60, %58 ]
  %36 = phi ptr [ %12, %28 ], [ %61, %58 ]
  %37 = phi i32 [ %32, %28 ], [ %62, %58 ]
  %38 = phi i32 [ %32, %28 ], [ %63, %58 ]
  %39 = phi i32 [ %32, %28 ], [ %64, %58 ]
  %40 = phi i64 [ 0, %28 ], [ %66, %58 ]
  %41 = phi i32 [ 0, %28 ], [ %65, %58 ]
  %42 = icmp eq i32 %39, 0
  %43 = getelementptr inbounds %"class.dealii::Point.23", ptr %35, i64 %40
  %44 = load ptr, ptr %29, align 8, !tbaa !153
  %45 = load <2 x double>, ptr %44, align 8, !tbaa !34, !noalias !292
  br i1 %42, label %50, label %46

46:                                               ; preds = %33
  %47 = load <2 x double>, ptr %43, align 8, !tbaa !34, !noalias !292
  %48 = fsub <2 x double> %47, %45
  store <2 x double> %48, ptr %4, align 16, !tbaa !34
  %49 = icmp eq i32 %38, 0
  br i1 %49, label %75, label %116

50:                                               ; preds = %33
  %51 = load <2 x double>, ptr %43, align 8, !tbaa !34, !noalias !292
  %52 = fsub <2 x double> %51, %45
  store <2 x double> %52, ptr %4, align 16, !tbaa !34
  %53 = getelementptr inbounds %"class.dealii::Tensor.22", ptr %44, i64 1
  %54 = load <2 x double>, ptr %43, align 8, !tbaa !34, !noalias !292
  %55 = load <2 x double>, ptr %53, align 8, !tbaa !34, !noalias !292
  %56 = fsub <2 x double> %54, %55
  store <2 x double> %56, ptr %4, align 16, !tbaa !34
  br label %58

57:                                               ; preds = %58, %26
  call void @llvm.lifetime.end.p0(i64 16, ptr nonnull %4) #15
  br label %418

58:                                               ; preds = %112, %50
  %59 = phi ptr [ %113, %112 ], [ %34, %50 ]
  %60 = phi ptr [ %113, %112 ], [ %35, %50 ]
  %61 = phi ptr [ %115, %112 ], [ %36, %50 ]
  %62 = phi i32 [ %114, %112 ], [ %37, %50 ]
  %63 = phi i32 [ %114, %112 ], [ %38, %50 ]
  %64 = phi i32 [ %114, %112 ], [ 0, %50 ]
  %65 = add i32 %41, 1
  %66 = zext i32 %65 to i64
  %67 = ptrtoint ptr %61 to i64
  %68 = ptrtoint ptr %60 to i64
  %69 = sub i64 %67, %68
  %70 = ashr exact i64 %69, 4
  %71 = icmp ugt i64 %70, %66
  br i1 %71, label %33, label %57

72:                                               ; preds = %116
  %73 = load ptr, ptr %1, align 8, !tbaa !270
  %74 = load ptr, ptr %29, align 8, !tbaa !153
  br label %75

75:                                               ; preds = %72, %46
  %76 = phi ptr [ %73, %72 ], [ %34, %46 ]
  %77 = phi i32 [ %137, %72 ], [ %37, %46 ]
  %78 = phi ptr [ %74, %72 ], [ %44, %46 ]
  %79 = phi ptr [ %73, %72 ], [ %35, %46 ]
  %80 = getelementptr inbounds %"class.dealii::Point.23", ptr %79, i64 %40
  %81 = getelementptr inbounds %"class.dealii::Tensor.22", ptr %78, i64 1
  %82 = load <2 x double>, ptr %80, align 8, !tbaa !34, !noalias !292
  %83 = load <2 x double>, ptr %81, align 8, !tbaa !34, !noalias !292
  %84 = fsub <2 x double> %82, %83
  store <2 x double> %84, ptr %4, align 16, !tbaa !34
  %85 = icmp eq i32 %77, 0
  br i1 %85, label %112, label %86

86:                                               ; preds = %75, %86
  %87 = phi i64 [ %106, %86 ], [ 0, %75 ]
  %88 = load ptr, ptr %1, align 8, !tbaa !270
  %89 = getelementptr inbounds %"class.dealii::Point.23", ptr %88, i64 %40
  %90 = load ptr, ptr %0, align 8, !tbaa !5
  %91 = getelementptr inbounds ptr, ptr %90, i64 4
  %92 = load ptr, ptr %91, align 8
  %93 = trunc i64 %87 to i32
  %94 = call noundef double %92(ptr noundef nonnull align 8 dereferenceable(92) %0, ptr noundef nonnull align 8 dereferenceable(16) %89, i32 noundef %93)
  %95 = load ptr, ptr %0, align 8, !tbaa !5
  %96 = getelementptr inbounds ptr, ptr %95, i64 4
  %97 = load ptr, ptr %96, align 8
  %98 = call noundef double %97(ptr noundef nonnull align 8 dereferenceable(92) %0, ptr noundef nonnull align 8 dereferenceable(16) %4, i32 noundef %93)
  %99 = fsub double %94, %98
  %100 = load double, ptr %31, align 8, !tbaa !145
  %101 = fdiv double %99, %100
  %102 = load ptr, ptr %2, align 8, !tbaa !295
  %103 = getelementptr inbounds %"class.std::vector.16", ptr %102, i64 %40
  %104 = load ptr, ptr %103, align 8, !tbaa !153
  %105 = getelementptr inbounds %"class.dealii::Tensor.22", ptr %104, i64 %87, i32 0, i64 1
  store double %101, ptr %105, align 8, !tbaa !34
  %106 = add nuw nsw i64 %87, 1
  %107 = load i32, ptr %30, align 8, !tbaa !178
  %108 = zext i32 %107 to i64
  %109 = icmp ult i64 %106, %108
  br i1 %109, label %86, label %110

110:                                              ; preds = %86
  %111 = load ptr, ptr %1, align 8, !tbaa !270
  br label %112

112:                                              ; preds = %110, %75
  %113 = phi ptr [ %111, %110 ], [ %76, %75 ]
  %114 = phi i32 [ %107, %110 ], [ 0, %75 ]
  %115 = load ptr, ptr %11, align 8, !tbaa !268
  br label %58

116:                                              ; preds = %46, %116
  %117 = phi i64 [ %136, %116 ], [ 0, %46 ]
  %118 = load ptr, ptr %1, align 8, !tbaa !270
  %119 = getelementptr inbounds %"class.dealii::Point.23", ptr %118, i64 %40
  %120 = load ptr, ptr %0, align 8, !tbaa !5
  %121 = getelementptr inbounds ptr, ptr %120, i64 4
  %122 = load ptr, ptr %121, align 8
  %123 = trunc i64 %117 to i32
  %124 = call noundef double %122(ptr noundef nonnull align 8 dereferenceable(92) %0, ptr noundef nonnull align 8 dereferenceable(16) %119, i32 noundef %123)
  %125 = load ptr, ptr %0, align 8, !tbaa !5
  %126 = getelementptr inbounds ptr, ptr %125, i64 4
  %127 = load ptr, ptr %126, align 8
  %128 = call noundef double %127(ptr noundef nonnull align 8 dereferenceable(92) %0, ptr noundef nonnull align 8 dereferenceable(16) %4, i32 noundef %123)
  %129 = fsub double %124, %128
  %130 = load double, ptr %31, align 8, !tbaa !145
  %131 = fdiv double %129, %130
  %132 = load ptr, ptr %2, align 8, !tbaa !295
  %133 = getelementptr inbounds %"class.std::vector.16", ptr %132, i64 %40
  %134 = load ptr, ptr %133, align 8, !tbaa !153
  %135 = getelementptr inbounds %"class.dealii::Tensor.22", ptr %134, i64 %117
  store double %131, ptr %135, align 8, !tbaa !34
  %136 = add nuw nsw i64 %117, 1
  %137 = load i32, ptr %30, align 8, !tbaa !178
  %138 = zext i32 %137 to i64
  %139 = icmp ult i64 %136, %138
  br i1 %139, label %116, label %72

140:                                              ; preds = %23
  call void @llvm.lifetime.start.p0(i64 16, ptr nonnull %5) #15
  call void @llvm.memset.p0.i64(ptr noundef nonnull align 16 dereferenceable(16) %5, i8 0, i64 16, i1 false), !tbaa !34
  call void @llvm.lifetime.start.p0(i64 16, ptr nonnull %6) #15
  call void @llvm.memset.p0.i64(ptr noundef nonnull align 16 dereferenceable(16) %6, i8 0, i64 16, i1 false), !tbaa !34
  %141 = icmp eq ptr %12, %13
  br i1 %141, label %179, label %142

142:                                              ; preds = %140
  %143 = getelementptr inbounds %"class.dealii::AutoDerivativeFunction.13", ptr %0, i64 0, i32 3
  %144 = getelementptr inbounds %"class.dealii::Function.14", ptr %0, i64 0, i32 2
  %145 = getelementptr inbounds %"class.dealii::AutoDerivativeFunction.13", ptr %0, i64 0, i32 2
  %146 = load i32, ptr %144, align 8, !tbaa !178
  br label %147

147:                                              ; preds = %142, %180
  %148 = phi ptr [ %13, %142 ], [ %181, %180 ]
  %149 = phi ptr [ %13, %142 ], [ %182, %180 ]
  %150 = phi ptr [ %12, %142 ], [ %183, %180 ]
  %151 = phi i32 [ %146, %142 ], [ %184, %180 ]
  %152 = phi i32 [ %146, %142 ], [ %185, %180 ]
  %153 = phi i32 [ %146, %142 ], [ %186, %180 ]
  %154 = phi i64 [ 0, %142 ], [ %188, %180 ]
  %155 = phi i32 [ 0, %142 ], [ %187, %180 ]
  %156 = icmp eq i32 %153, 0
  %157 = getelementptr inbounds %"class.dealii::Point.23", ptr %149, i64 %154
  %158 = load ptr, ptr %143, align 8, !tbaa !153
  %159 = load <2 x double>, ptr %158, align 8, !tbaa !34, !noalias !297
  br i1 %156, label %167, label %160

160:                                              ; preds = %147
  %161 = load <2 x double>, ptr %157, align 8, !tbaa !34, !noalias !297
  %162 = fadd <2 x double> %161, %159
  store <2 x double> %162, ptr %5, align 16, !tbaa !34
  %163 = load <2 x double>, ptr %157, align 8, !tbaa !34, !noalias !300
  %164 = load <2 x double>, ptr %158, align 8, !tbaa !34, !noalias !300
  %165 = fsub <2 x double> %163, %164
  store <2 x double> %165, ptr %6, align 16, !tbaa !34
  %166 = icmp eq i32 %152, 0
  br i1 %166, label %197, label %239

167:                                              ; preds = %147
  %168 = load <2 x double>, ptr %157, align 8, !tbaa !34, !noalias !297
  %169 = fadd <2 x double> %168, %159
  store <2 x double> %169, ptr %5, align 16, !tbaa !34
  %170 = load <2 x double>, ptr %157, align 8, !tbaa !34, !noalias !300
  %171 = load <2 x double>, ptr %158, align 8, !tbaa !34, !noalias !300
  %172 = fsub <2 x double> %170, %171
  store <2 x double> %172, ptr %6, align 16, !tbaa !34
  %173 = getelementptr inbounds %"class.dealii::Tensor.22", ptr %158, i64 1
  %174 = load <2 x double>, ptr %157, align 8, !tbaa !34, !noalias !297
  %175 = load <2 x double>, ptr %173, align 8, !tbaa !34, !noalias !39
  %176 = fadd <2 x double> %174, %175
  store <2 x double> %176, ptr %5, align 16, !tbaa !34
  %177 = load <2 x double>, ptr %157, align 8, !tbaa !34, !noalias !300
  %178 = fsub <2 x double> %177, %175
  store <2 x double> %178, ptr %6, align 16, !tbaa !34
  br label %180

179:                                              ; preds = %180, %140
  call void @llvm.lifetime.end.p0(i64 16, ptr nonnull %6) #15
  call void @llvm.lifetime.end.p0(i64 16, ptr nonnull %5) #15
  br label %418

180:                                              ; preds = %235, %167
  %181 = phi ptr [ %236, %235 ], [ %148, %167 ]
  %182 = phi ptr [ %236, %235 ], [ %149, %167 ]
  %183 = phi ptr [ %238, %235 ], [ %150, %167 ]
  %184 = phi i32 [ %237, %235 ], [ %151, %167 ]
  %185 = phi i32 [ %237, %235 ], [ %152, %167 ]
  %186 = phi i32 [ %237, %235 ], [ 0, %167 ]
  %187 = add i32 %155, 1
  %188 = zext i32 %187 to i64
  %189 = ptrtoint ptr %183 to i64
  %190 = ptrtoint ptr %182 to i64
  %191 = sub i64 %189, %190
  %192 = ashr exact i64 %191, 4
  %193 = icmp ugt i64 %192, %188
  br i1 %193, label %147, label %179

194:                                              ; preds = %239
  %195 = load ptr, ptr %1, align 8, !tbaa !270
  %196 = load ptr, ptr %143, align 8, !tbaa !153
  br label %197

197:                                              ; preds = %194, %160
  %198 = phi ptr [ %195, %194 ], [ %148, %160 ]
  %199 = phi i32 [ %259, %194 ], [ %151, %160 ]
  %200 = phi ptr [ %196, %194 ], [ %158, %160 ]
  %201 = phi ptr [ %195, %194 ], [ %149, %160 ]
  %202 = getelementptr inbounds %"class.dealii::Point.23", ptr %201, i64 %154
  %203 = getelementptr inbounds %"class.dealii::Tensor.22", ptr %200, i64 1
  %204 = load <2 x double>, ptr %202, align 8, !tbaa !34, !noalias !297
  %205 = load <2 x double>, ptr %203, align 8, !tbaa !34, !noalias !39
  %206 = fadd <2 x double> %204, %205
  store <2 x double> %206, ptr %5, align 16, !tbaa !34
  %207 = load <2 x double>, ptr %202, align 8, !tbaa !34, !noalias !300
  %208 = fsub <2 x double> %207, %205
  store <2 x double> %208, ptr %6, align 16, !tbaa !34
  %209 = icmp eq i32 %199, 0
  br i1 %209, label %235, label %210

210:                                              ; preds = %197, %210
  %211 = phi i64 [ %229, %210 ], [ 0, %197 ]
  %212 = load ptr, ptr %0, align 8, !tbaa !5
  %213 = getelementptr inbounds ptr, ptr %212, i64 4
  %214 = load ptr, ptr %213, align 8
  %215 = trunc i64 %211 to i32
  %216 = call noundef double %214(ptr noundef nonnull align 8 dereferenceable(92) %0, ptr noundef nonnull align 8 dereferenceable(16) %5, i32 noundef %215)
  %217 = load ptr, ptr %0, align 8, !tbaa !5
  %218 = getelementptr inbounds ptr, ptr %217, i64 4
  %219 = load ptr, ptr %218, align 8
  %220 = call noundef double %219(ptr noundef nonnull align 8 dereferenceable(92) %0, ptr noundef nonnull align 8 dereferenceable(16) %6, i32 noundef %215)
  %221 = fsub double %216, %220
  %222 = load double, ptr %145, align 8, !tbaa !145
  %223 = fmul double %222, 2.000000e+00
  %224 = fdiv double %221, %223
  %225 = load ptr, ptr %2, align 8, !tbaa !295
  %226 = getelementptr inbounds %"class.std::vector.16", ptr %225, i64 %154
  %227 = load ptr, ptr %226, align 8, !tbaa !153
  %228 = getelementptr inbounds %"class.dealii::Tensor.22", ptr %227, i64 %211, i32 0, i64 1
  store double %224, ptr %228, align 8, !tbaa !34
  %229 = add nuw nsw i64 %211, 1
  %230 = load i32, ptr %144, align 8, !tbaa !178
  %231 = zext i32 %230 to i64
  %232 = icmp ult i64 %229, %231
  br i1 %232, label %210, label %233

233:                                              ; preds = %210
  %234 = load ptr, ptr %1, align 8, !tbaa !270
  br label %235

235:                                              ; preds = %233, %197
  %236 = phi ptr [ %234, %233 ], [ %198, %197 ]
  %237 = phi i32 [ %230, %233 ], [ 0, %197 ]
  %238 = load ptr, ptr %11, align 8, !tbaa !268
  br label %180

239:                                              ; preds = %160, %239
  %240 = phi i64 [ %258, %239 ], [ 0, %160 ]
  %241 = load ptr, ptr %0, align 8, !tbaa !5
  %242 = getelementptr inbounds ptr, ptr %241, i64 4
  %243 = load ptr, ptr %242, align 8
  %244 = trunc i64 %240 to i32
  %245 = call noundef double %243(ptr noundef nonnull align 8 dereferenceable(92) %0, ptr noundef nonnull align 8 dereferenceable(16) %5, i32 noundef %244)
  %246 = load ptr, ptr %0, align 8, !tbaa !5
  %247 = getelementptr inbounds ptr, ptr %246, i64 4
  %248 = load ptr, ptr %247, align 8
  %249 = call noundef double %248(ptr noundef nonnull align 8 dereferenceable(92) %0, ptr noundef nonnull align 8 dereferenceable(16) %6, i32 noundef %244)
  %250 = fsub double %245, %249
  %251 = load double, ptr %145, align 8, !tbaa !145
  %252 = fmul double %251, 2.000000e+00
  %253 = fdiv double %250, %252
  %254 = load ptr, ptr %2, align 8, !tbaa !295
  %255 = getelementptr inbounds %"class.std::vector.16", ptr %254, i64 %154
  %256 = load ptr, ptr %255, align 8, !tbaa !153
  %257 = getelementptr inbounds %"class.dealii::Tensor.22", ptr %256, i64 %240
  store double %253, ptr %257, align 8, !tbaa !34
  %258 = add nuw nsw i64 %240, 1
  %259 = load i32, ptr %144, align 8, !tbaa !178
  %260 = zext i32 %259 to i64
  %261 = icmp ult i64 %258, %260
  br i1 %261, label %239, label %194

262:                                              ; preds = %23
  call void @llvm.lifetime.start.p0(i64 16, ptr nonnull %7) #15
  call void @llvm.memset.p0.i64(ptr noundef nonnull align 16 dereferenceable(16) %7, i8 0, i64 16, i1 false), !tbaa !34
  call void @llvm.lifetime.start.p0(i64 16, ptr nonnull %8) #15
  call void @llvm.memset.p0.i64(ptr noundef nonnull align 16 dereferenceable(16) %8, i8 0, i64 16, i1 false), !tbaa !34
  call void @llvm.lifetime.start.p0(i64 16, ptr nonnull %9) #15
  call void @llvm.memset.p0.i64(ptr noundef nonnull align 16 dereferenceable(16) %9, i8 0, i64 16, i1 false), !tbaa !34
  call void @llvm.lifetime.start.p0(i64 16, ptr nonnull %10) #15
  call void @llvm.memset.p0.i64(ptr noundef nonnull align 16 dereferenceable(16) %10, i8 0, i64 16, i1 false), !tbaa !34
  %263 = icmp eq ptr %12, %13
  br i1 %263, label %311, label %264

264:                                              ; preds = %262
  %265 = getelementptr inbounds %"class.dealii::AutoDerivativeFunction.13", ptr %0, i64 0, i32 3
