; ModuleID = 'source/base/parameter_handler.cc'
source_filename = "source/base/parameter_handler.cc"
target datalayout = "e-m:e-p270:32:32-p271:32:32-p272:64:64-i64:64-f80:128-n8:16:32:64-S128"
target triple = "x86_64-pc-linux-gnu"

module asm ".globl _ZSt21ios_base_library_initv"

%"class.std::basic_ostream" = type { ptr, %"class.std::basic_ios" }
%"class.std::basic_ios" = type { %"class.std::ios_base", ptr, i8, i8, ptr, ptr, ptr, ptr }
%"class.std::ios_base" = type { ptr, i64, i64, i32, i32, i32, ptr, %"struct.std::ios_base::_Words", [8 x %"struct.std::ios_base::_Words"], i32, ptr, %"class.std::locale" }
%"struct.std::ios_base::_Words" = type { ptr, i64 }
%"class.std::locale" = type { ptr }
%"class.std::__cxx11::basic_string" = type { %"struct.std::__cxx11::basic_string<char>::_Alloc_hider", i64, %union.anon }
%"struct.std::__cxx11::basic_string<char>::_Alloc_hider" = type { ptr }
%union.anon = type { i64, [8 x i8] }
%"class.dealii::Patterns::Integer" = type { %"class.dealii::Patterns::PatternBase", i32, i32 }
%"class.dealii::Patterns::PatternBase" = type { ptr }
%"class.std::__cxx11::basic_istringstream" = type { %"class.std::basic_istream.base", %"class.std::__cxx11::basic_stringbuf", %"class.std::basic_ios" }
%"class.std::basic_istream.base" = type { ptr, i64 }
%"class.std::__cxx11::basic_stringbuf" = type { %"class.std::basic_streambuf", i32, %"class.std::__cxx11::basic_string" }
%"class.std::basic_streambuf" = type { ptr, ptr, ptr, ptr, ptr, ptr, ptr, %"class.std::locale" }
%"class.std::basic_istream" = type { ptr, i64, %"class.std::basic_ios" }
%"class.std::__cxx11::basic_ostringstream" = type { %"class.std::basic_ostream.base", %"class.std::__cxx11::basic_stringbuf", %"class.std::basic_ios" }
%"class.std::basic_ostream.base" = type { ptr }
%"class.dealii::Patterns::Double" = type { %"class.dealii::Patterns::PatternBase", double, double }
%"class.dealii::Patterns::Selection" = type { %"class.dealii::Patterns::PatternBase", %"class.std::__cxx11::basic_string" }
%"class.std::vector" = type { %"struct.std::_Vector_base" }
%"struct.std::_Vector_base" = type { %"struct.std::_Vector_base<std::__cxx11::basic_string<char>, std::allocator<std::__cxx11::basic_string<char> > >::_Vector_impl" }
%"struct.std::_Vector_base<std::__cxx11::basic_string<char>, std::allocator<std::__cxx11::basic_string<char> > >::_Vector_impl" = type { %"struct.std::_Vector_base<std::__cxx11::basic_string<char>, std::allocator<std::__cxx11::basic_string<char> > >::_Vector_impl_data" }
%"struct.std::_Vector_base<std::__cxx11::basic_string<char>, std::allocator<std::__cxx11::basic_string<char> > >::_Vector_impl_data" = type { ptr, ptr, ptr }
%"class.dealii::Patterns::List" = type { %"class.dealii::Patterns::PatternBase", ptr, i32, i32 }
%"class.dealii::Patterns::MultipleSelection" = type { %"class.dealii::Patterns::PatternBase", %"class.std::__cxx11::basic_string" }
%"class.std::__cxx11::list" = type { %"class.std::__cxx11::_List_base" }
%"class.std::__cxx11::_List_base" = type { %"struct.std::__cxx11::_List_base<std::__cxx11::basic_string<char>, std::allocator<std::__cxx11::basic_string<char> > >::_List_impl" }
%"struct.std::__cxx11::_List_base<std::__cxx11::basic_string<char>, std::allocator<std::__cxx11::basic_string<char> > >::_List_impl" = type { %"struct.std::__detail::_List_node_header" }
%"struct.std::__detail::_List_node_header" = type { %"struct.std::__detail::_List_node_base", i64 }
%"struct.std::__detail::_List_node_base" = type { ptr, ptr }
%"struct.std::_List_node" = type { %"struct.std::__detail::_List_node_base", %"class.std::__cxx11::basic_string" }
%"class.dealii::ParameterHandler" = type { %"class.dealii::Subscriptor", %"class.std::vector", %"struct.dealii::ParameterHandler::Section", %"struct.dealii::ParameterHandler::Section" }
%"class.dealii::Subscriptor" = type { ptr, i32, %"class.std::map", ptr }
%"class.std::map" = type { %"class.std::_Rb_tree" }
%"class.std::_Rb_tree" = type { %"struct.std::_Rb_tree<const char *, std::pair<const char *const, unsigned int>, std::_Select1st<std::pair<const char *const, unsigned int> >, std::less<const char *> >::_Rb_tree_impl" }
%"struct.std::_Rb_tree<const char *, std::pair<const char *const, unsigned int>, std::_Select1st<std::pair<const char *const, unsigned int> >, std::less<const char *> >::_Rb_tree_impl" = type { %"struct.std::_Rb_tree_key_compare", %"struct.std::_Rb_tree_header" }
%"struct.std::_Rb_tree_key_compare" = type { %"struct.std::less" }
%"struct.std::less" = type { i8 }
%"struct.std::_Rb_tree_header" = type { %"struct.std::_Rb_tree_node_base", i64 }
%"struct.std::_Rb_tree_node_base" = type { i32, ptr, ptr, ptr }
%"struct.dealii::ParameterHandler::Section" = type { %"class.std::map.11", %"class.std::map.19" }
%"class.std::map.11" = type { %"class.std::_Rb_tree.12" }
%"class.std::_Rb_tree.12" = type { %"struct.std::_Rb_tree<std::__cxx11::basic_string<char>, std::pair<const std::__cxx11::basic_string<char>, dealii::ParameterHandler::Section::EntryContent>, std::_Select1st<std::pair<const std::__cxx11::basic_string<char>, dealii::ParameterHandler::Section::EntryContent> >, std::less<std::__cxx11::basic_string<char> > >::_Rb_tree_impl" }
%"struct.std::_Rb_tree<std::__cxx11::basic_string<char>, std::pair<const std::__cxx11::basic_string<char>, dealii::ParameterHandler::Section::EntryContent>, std::_Select1st<std::pair<const std::__cxx11::basic_string<char>, dealii::ParameterHandler::Section::EntryContent> >, std::less<std::__cxx11::basic_string<char> > >::_Rb_tree_impl" = type { %"struct.std::_Rb_tree_key_compare.16", %"struct.std::_Rb_tree_header" }
%"struct.std::_Rb_tree_key_compare.16" = type { %"struct.std::less.17" }
%"struct.std::less.17" = type { i8 }
%"class.std::map.19" = type { %"class.std::_Rb_tree.20" }
%"class.std::_Rb_tree.20" = type { %"struct.std::_Rb_tree<std::__cxx11::basic_string<char>, std::pair<const std::__cxx11::basic_string<char>, dealii::ParameterHandler::Section *>, std::_Select1st<std::pair<const std::__cxx11::basic_string<char>, dealii::ParameterHandler::Section *> >, std::less<std::__cxx11::basic_string<char> > >::_Rb_tree_impl" }
%"struct.std::_Rb_tree<std::__cxx11::basic_string<char>, std::pair<const std::__cxx11::basic_string<char>, dealii::ParameterHandler::Section *>, std::_Select1st<std::pair<const std::__cxx11::basic_string<char>, dealii::ParameterHandler::Section *> >, std::less<std::__cxx11::basic_string<char> > >::_Rb_tree_impl" = type { %"struct.std::_Rb_tree_key_compare.16", %"struct.std::_Rb_tree_header" }
%"class.dealii::StandardExceptions::ExcIO" = type { %"class.dealii::ExceptionBase.base", [4 x i8] }
%"class.dealii::ExceptionBase.base" = type <{ %"class.std::exception", ptr, i32, [4 x i8], ptr, ptr, ptr, ptr, i32 }>
%"class.std::exception" = type { ptr }
%"class.std::ctype" = type <{ %"class.std::locale::facet.base", [4 x i8], ptr, i8, [7 x i8], ptr, ptr, ptr, i8, [256 x i8], [256 x i8], i8, [6 x i8] }>
%"class.std::locale::facet.base" = type <{ ptr, i32 }>
%"struct.std::_Rb_tree_node" = type { %"struct.std::_Rb_tree_node_base", %"struct.std::pair" }
%"struct.std::pair" = type { %"class.std::__cxx11::basic_string", ptr }
%"struct.std::_Rb_tree_node.46" = type { %"struct.std::_Rb_tree_node_base", %"struct.std::pair.26" }
%"struct.std::pair.26" = type { %"class.std::__cxx11::basic_string", %"struct.dealii::ParameterHandler::Section::EntryContent" }
%"struct.dealii::ParameterHandler::Section::EntryContent" = type { %"class.std::__cxx11::basic_string", %"class.std::__cxx11::basic_string", ptr }
%"class.dealii::PathSearch" = type <{ %"class.std::__cxx11::basic_string", ptr, ptr, i32, [4 x i8] }>
%"class.std::basic_ifstream" = type { %"class.std::basic_istream.base", %"class.std::basic_filebuf", %"class.std::basic_ios" }
%"class.std::basic_filebuf" = type { %"class.std::basic_streambuf", %union.pthread_mutex_t, %"class.std::__basic_file", i32, %struct.__mbstate_t, %struct.__mbstate_t, %struct.__mbstate_t, ptr, i64, i8, i8, i8, i8, ptr, ptr, i8, ptr, ptr, i64, ptr, ptr }
%union.pthread_mutex_t = type { %struct.__pthread_mutex_s }
%struct.__pthread_mutex_s = type { i32, i32, i32, i32, i32, i16, i16, %struct.__pthread_internal_list }
%struct.__pthread_internal_list = type { ptr, ptr }
%"class.std::__basic_file" = type <{ ptr, i8, [7 x i8] }>
%struct.__mbstate_t = type { i32, %union.anon.24 }
%union.anon.24 = type { i32 }
%"struct.std::_Rb_tree<std::__cxx11::basic_string<char>, std::pair<const std::__cxx11::basic_string<char>, dealii::ParameterHandler::Section::EntryContent>, std::_Select1st<std::pair<const std::__cxx11::basic_string<char>, dealii::ParameterHandler::Section::EntryContent> >, std::less<std::__cxx11::basic_string<char> > >::_Alloc_node" = type { ptr }
%"struct.std::_Rb_tree<std::__cxx11::basic_string<char>, std::pair<const std::__cxx11::basic_string<char>, dealii::ParameterHandler::Section *>, std::_Select1st<std::pair<const std::__cxx11::basic_string<char>, dealii::ParameterHandler::Section *> >, std::less<std::__cxx11::basic_string<char> > >::_Alloc_node" = type { ptr }
%"class.dealii::ParameterHandler::ExcConversionError" = type { %"class.dealii::ExceptionBase.base", %"class.std::__cxx11::basic_string" }
%"class.dealii::MultipleParameterLoop" = type <{ %"class.dealii::ParameterHandler", %"class.std::vector.37", i32, [4 x i8] }>
%"class.std::vector.37" = type { %"struct.std::_Vector_base.38" }
%"struct.std::_Vector_base.38" = type { %"struct.std::_Vector_base<dealii::MultipleParameterLoop::Entry, std::allocator<dealii::MultipleParameterLoop::Entry> >::_Vector_impl" }
%"struct.std::_Vector_base<dealii::MultipleParameterLoop::Entry, std::allocator<dealii::MultipleParameterLoop::Entry> >::_Vector_impl" = type { %"struct.std::_Vector_base<dealii::MultipleParameterLoop::Entry, std::allocator<dealii::MultipleParameterLoop::Entry> >::_Vector_impl_data" }
%"struct.std::_Vector_base<dealii::MultipleParameterLoop::Entry, std::allocator<dealii::MultipleParameterLoop::Entry> >::_Vector_impl_data" = type { ptr, ptr, ptr }
%"class.dealii::MultipleParameterLoop::Entry" = type <{ %"class.std::vector", %"class.std::__cxx11::basic_string", %"class.std::__cxx11::basic_string", %"class.std::vector", i32, [4 x i8] }>

$__clang_call_terminate = comdat any

$_ZNSt6vectorINSt7__cxx1112basic_stringIcSt11char_traitsIcESaIcEEESaIS5_EED2Ev = comdat any

$_ZNSt6vectorINSt7__cxx1112basic_stringIcSt11char_traitsIcESaIcEEESaIS5_EE7reserveEm = comdat any

$_ZNSt7__cxx1110_List_baseINS_12basic_stringIcSt11char_traitsIcESaIcEEESaIS5_EED2Ev = comdat any

$_ZNSt3mapINSt7__cxx1112basic_stringIcSt11char_traitsIcESaIcEEEN6dealii16ParameterHandler7Section12EntryContentESt4lessIS5_ESaISt4pairIKS5_S9_EEEixERSD_ = comdat any

$_ZNSt3mapINSt7__cxx1112basic_stringIcSt11char_traitsIcESaIcEEEPN6dealii16ParameterHandler7SectionESt4lessIS5_ESaISt4pairIKS5_S9_EEEixERSD_ = comdat any

$_ZN6dealii16ParameterHandler18ExcConversionErrorD2Ev = comdat any

$_ZN6dealii21MultipleParameterLoop5EntryD2Ev = comdat any

$_ZN6dealii8Patterns7IntegerD0Ev = comdat any

$_ZN6dealii8Patterns6DoubleD0Ev = comdat any

$_ZN6dealii8Patterns9SelectionD0Ev = comdat any

$_ZN6dealii8Patterns17MultipleSelectionD2Ev = comdat any

$_ZN6dealii8Patterns17MultipleSelectionD0Ev = comdat any

$_ZN6dealii8Patterns9SelectionD2Ev = comdat any

$_ZN6dealii8Patterns4BoolD0Ev = comdat any

$_ZN6dealii8Patterns8AnythingD0Ev = comdat any

$_ZN6dealii18StandardExceptions5ExcIOD0Ev = comdat any

$_ZN6dealii16ParameterHandler18ExcConversionErrorD0Ev = comdat any

$_ZNK6dealii16ParameterHandler18ExcConversionError10print_infoERSo = comdat any

$_ZNSt8_Rb_treeINSt7__cxx1112basic_stringIcSt11char_traitsIcESaIcEEESt4pairIKS5_PN6dealii16ParameterHandler7SectionEESt10_Select1stISC_ESt4lessIS5_ESaISC_EE8_M_eraseEPSt13_Rb_tree_nodeISC_E = comdat any

$_ZNSt8_Rb_treeINSt7__cxx1112basic_stringIcSt11char_traitsIcESaIcEEESt4pairIKS5_N6dealii16ParameterHandler7Section12EntryContentEESt10_Select1stISC_ESt4lessIS5_ESaISC_EE8_M_eraseEPSt13_Rb_tree_nodeISC_E = comdat any

$_ZNSt4pairIKNSt7__cxx1112basic_stringIcSt11char_traitsIcESaIcEEEN6dealii16ParameterHandler7Section12EntryContentEED2Ev = comdat any

$_ZN6dealii16ParameterHandler7Section12EntryContentD2Ev = comdat any

$_ZNSt6vectorINSt7__cxx1112basic_stringIcSt11char_traitsIcESaIcEEESaIS5_EE20_M_allocate_and_copyIPS5_EES9_mT_SA_ = comdat any

$_ZSt16__do_uninit_copyIPNSt7__cxx1112basic_stringIcSt11char_traitsIcESaIcEEES6_ET0_T_S8_S7_ = comdat any

$_ZNSt6vectorINSt7__cxx1112basic_stringIcSt11char_traitsIcESaIcEEESaIS5_EE17_M_realloc_insertEN9__gnu_cxx17__normal_iteratorIPS5_S7_EERKS5_ = comdat any

$_ZNSt7__cxx114listINS_12basic_stringIcSt11char_traitsIcESaIcEEESaIS5_EE14_M_create_nodeERKS5_ = comdat any

$_ZNSt8_Rb_treeINSt7__cxx1112basic_stringIcSt11char_traitsIcESaIcEEESt4pairIKS5_N6dealii16ParameterHandler7Section12EntryContentEESt10_Select1stISC_ESt4lessIS5_ESaISC_EE17_M_insert_unique_INSI_11_Alloc_nodeEEESt17_Rb_tree_iteratorISC_ESt23_Rb_tree_const_iteratorISC_ERKSC_RT_ = comdat any

$_ZNSt8_Rb_treeINSt7__cxx1112basic_stringIcSt11char_traitsIcESaIcEEESt4pairIKS5_N6dealii16ParameterHandler7Section12EntryContentEESt10_Select1stISC_ESt4lessIS5_ESaISC_EE29_M_get_insert_hint_unique_posESt23_Rb_tree_const_iteratorISC_ERS7_ = comdat any

$_ZNSt8_Rb_treeINSt7__cxx1112basic_stringIcSt11char_traitsIcESaIcEEESt4pairIKS5_N6dealii16ParameterHandler7Section12EntryContentEESt10_Select1stISC_ESt4lessIS5_ESaISC_EE24_M_get_insert_unique_posERS7_ = comdat any

$_ZNSt8_Rb_treeINSt7__cxx1112basic_stringIcSt11char_traitsIcESaIcEEESt4pairIKS5_N6dealii16ParameterHandler7Section12EntryContentEESt10_Select1stISC_ESt4lessIS5_ESaISC_EE17_M_construct_nodeEPSt13_Rb_tree_nodeISC_ERKSC_ = comdat any

$_ZN6dealii16ParameterHandler7Section12EntryContentC2ERKS2_ = comdat any

$_ZNSt8_Rb_treeINSt7__cxx1112basic_stringIcSt11char_traitsIcESaIcEEESt4pairIKS5_PN6dealii16ParameterHandler7SectionEESt10_Select1stISC_ESt4lessIS5_ESaISC_EE17_M_insert_unique_INSI_11_Alloc_nodeEEESt17_Rb_tree_iteratorISC_ESt23_Rb_tree_const_iteratorISC_ERKSC_RT_ = comdat any

$_ZNSt8_Rb_treeINSt7__cxx1112basic_stringIcSt11char_traitsIcESaIcEEESt4pairIKS5_PN6dealii16ParameterHandler7SectionEESt10_Select1stISC_ESt4lessIS5_ESaISC_EE29_M_get_insert_hint_unique_posESt23_Rb_tree_const_iteratorISC_ERS7_ = comdat any

$_ZNSt8_Rb_treeINSt7__cxx1112basic_stringIcSt11char_traitsIcESaIcEEESt4pairIKS5_PN6dealii16ParameterHandler7SectionEESt10_Select1stISC_ESt4lessIS5_ESaISC_EE24_M_get_insert_unique_posERS7_ = comdat any

$_ZNSt8_Rb_treeINSt7__cxx1112basic_stringIcSt11char_traitsIcESaIcEEESt4pairIKS5_PN6dealii16ParameterHandler7SectionEESt10_Select1stISC_ESt4lessIS5_ESaISC_EE17_M_construct_nodeEPSt13_Rb_tree_nodeISC_ERKSC_ = comdat any

$_ZN6dealii16ParameterHandler18ExcConversionErrorC2ERKS1_ = comdat any

$_ZSt16__do_uninit_copyIN9__gnu_cxx17__normal_iteratorIPKNSt7__cxx1112basic_stringIcSt11char_traitsIcESaIcEEESt6vectorIS7_SaIS7_EEEEPS7_ET0_T_SG_SF_ = comdat any

$_ZNSt6vectorINSt7__cxx1112basic_stringIcSt11char_traitsIcESaIcEEESaIS5_EEaSERKS7_ = comdat any

$_ZNSt6vectorINSt7__cxx1112basic_stringIcSt11char_traitsIcESaIcEEESaIS5_EE20_M_allocate_and_copyIN9__gnu_cxx17__normal_iteratorIPKS5_S7_EEEEPS5_mT_SF_ = comdat any

$_ZNSt6vectorIN6dealii21MultipleParameterLoop5EntryESaIS2_EE17_M_realloc_insertEN9__gnu_cxx17__normal_iteratorIPS2_S4_EERKS2_ = comdat any

$_ZN6dealii21MultipleParameterLoop5EntryC2ERKS1_ = comdat any

$_ZTVN6dealii18StandardExceptions5ExcIOE = comdat any

$_ZTSN6dealii18StandardExceptions5ExcIOE = comdat any

$_ZTIN6dealii18StandardExceptions5ExcIOE = comdat any

$_ZTVN6dealii16ParameterHandler18ExcConversionErrorE = comdat any

$_ZTSN6dealii16ParameterHandler18ExcConversionErrorE = comdat any

$_ZTIN6dealii16ParameterHandler18ExcConversionErrorE = comdat any

@_ZTVN10__cxxabiv117__class_type_infoE = external global ptr
@_ZTSN6dealii8Patterns11PatternBaseE = dso_local constant [32 x i8] c"N6dealii8Patterns11PatternBaseE\00", align 1
@_ZTIN6dealii8Patterns11PatternBaseE = dso_local constant { ptr, ptr } { ptr getelementptr inbounds (ptr, ptr @_ZTVN10__cxxabiv117__class_type_infoE, i64 2), ptr @_ZTSN6dealii8Patterns11PatternBaseE }, align 8
@_ZTVN10__cxxabiv120__si_class_type_infoE = external global ptr
@_ZTSN6dealii8Patterns7IntegerE = dso_local constant [27 x i8] c"N6dealii8Patterns7IntegerE\00", align 1
@_ZTIN6dealii8Patterns7IntegerE = dso_local constant { ptr, ptr, ptr } { ptr getelementptr inbounds (ptr, ptr @_ZTVN10__cxxabiv120__si_class_type_infoE, i64 2), ptr @_ZTSN6dealii8Patterns7IntegerE, ptr @_ZTIN6dealii8Patterns11PatternBaseE }, align 8
@_ZTSN6dealii8Patterns6DoubleE = dso_local constant [26 x i8] c"N6dealii8Patterns6DoubleE\00", align 1
@_ZTIN6dealii8Patterns6DoubleE = dso_local constant { ptr, ptr, ptr } { ptr getelementptr inbounds (ptr, ptr @_ZTVN10__cxxabiv120__si_class_type_infoE, i64 2), ptr @_ZTSN6dealii8Patterns6DoubleE, ptr @_ZTIN6dealii8Patterns11PatternBaseE }, align 8
@_ZTSN6dealii8Patterns4BoolE = dso_local constant [24 x i8] c"N6dealii8Patterns4BoolE\00", align 1
@_ZTSN6dealii8Patterns9SelectionE = dso_local constant [29 x i8] c"N6dealii8Patterns9SelectionE\00", align 1
@_ZTIN6dealii8Patterns9SelectionE = dso_local constant { ptr, ptr, ptr } { ptr getelementptr inbounds (ptr, ptr @_ZTVN10__cxxabiv120__si_class_type_infoE, i64 2), ptr @_ZTSN6dealii8Patterns9SelectionE, ptr @_ZTIN6dealii8Patterns11PatternBaseE }, align 8
@_ZTIN6dealii8Patterns4BoolE = dso_local constant { ptr, ptr, ptr } { ptr getelementptr inbounds (ptr, ptr @_ZTVN10__cxxabiv120__si_class_type_infoE, i64 2), ptr @_ZTSN6dealii8Patterns4BoolE, ptr @_ZTIN6dealii8Patterns9SelectionE }, align 8
@_ZTSN6dealii8Patterns8AnythingE = dso_local constant [28 x i8] c"N6dealii8Patterns8AnythingE\00", align 1
@_ZTIN6dealii8Patterns8AnythingE = dso_local constant { ptr, ptr, ptr } { ptr getelementptr inbounds (ptr, ptr @_ZTVN10__cxxabiv120__si_class_type_infoE, i64 2), ptr @_ZTSN6dealii8Patterns8AnythingE, ptr @_ZTIN6dealii8Patterns11PatternBaseE }, align 8
@_ZN6dealii8Patterns7Integer13min_int_valueE = dso_local local_unnamed_addr constant i32 -2147483648, align 4
@_ZN6dealii8Patterns7Integer13max_int_valueE = dso_local local_unnamed_addr constant i32 2147483647, align 4
@_ZTVN6dealii8Patterns7IntegerE = dso_local unnamed_addr constant { [8 x ptr] } { [8 x ptr] [ptr null, ptr @_ZTIN6dealii8Patterns7IntegerE, ptr @_ZN6dealii8Patterns11PatternBaseD2Ev, ptr @_ZN6dealii8Patterns7IntegerD0Ev, ptr @_ZNK6dealii8Patterns7Integer5matchERKNSt7__cxx1112basic_stringIcSt11char_traitsIcESaIcEEE, ptr @_ZNK6dealii8Patterns7Integer11descriptionB5cxx11Ev, ptr @_ZNK6dealii8Patterns7Integer5cloneEv, ptr @_ZNK6dealii8Patterns11PatternBase18memory_consumptionEv] }, align 8
@.str = private unnamed_addr constant [16 x i8] c"[Integer range \00", align 1
@.str.2 = private unnamed_addr constant [4 x i8] c"...\00", align 1
@.str.3 = private unnamed_addr constant [14 x i8] c" (inclusive)]\00", align 1
@.str.4 = private unnamed_addr constant [10 x i8] c"[Integer]\00", align 1
@_ZN6dealii8Patterns6Double16min_double_valueE = dso_local local_unnamed_addr constant double 0xFFEFFFFFFFFFFFFF, align 8
@_ZN6dealii8Patterns6Double16max_double_valueE = dso_local local_unnamed_addr constant double 0x7FEFFFFFFFFFFFFF, align 8
@_ZTVN6dealii8Patterns6DoubleE = dso_local unnamed_addr constant { [8 x ptr] } { [8 x ptr] [ptr null, ptr @_ZTIN6dealii8Patterns6DoubleE, ptr @_ZN6dealii8Patterns11PatternBaseD2Ev, ptr @_ZN6dealii8Patterns6DoubleD0Ev, ptr @_ZNK6dealii8Patterns6Double5matchERKNSt7__cxx1112basic_stringIcSt11char_traitsIcESaIcEEE, ptr @_ZNK6dealii8Patterns6Double11descriptionB5cxx11Ev, ptr @_ZNK6dealii8Patterns6Double5cloneEv, ptr @_ZNK6dealii8Patterns11PatternBase18memory_consumptionEv] }, align 8
@.str.7 = private unnamed_addr constant [23 x i8] c"[Floating point range \00", align 1
@_ZTVN6dealii8Patterns9SelectionE = dso_local unnamed_addr constant { [8 x ptr] } { [8 x ptr] [ptr null, ptr @_ZTIN6dealii8Patterns9SelectionE, ptr @_ZN6dealii8Patterns9SelectionD2Ev, ptr @_ZN6dealii8Patterns9SelectionD0Ev, ptr @_ZNK6dealii8Patterns9Selection5matchERKNSt7__cxx1112basic_stringIcSt11char_traitsIcESaIcEEE, ptr @_ZNK6dealii8Patterns9Selection11descriptionB5cxx11Ev, ptr @_ZNK6dealii8Patterns9Selection5cloneEv, ptr @_ZNK6dealii8Patterns9Selection18memory_consumptionEv] }, align 8
@.str.9 = private unnamed_addr constant [3 x i8] c" |\00", align 1
@.str.10 = private unnamed_addr constant [2 x i8] c"|\00", align 1
@.str.11 = private unnamed_addr constant [3 x i8] c"| \00", align 1
@_ZN6dealii8Patterns4List13max_int_valueE = dso_local local_unnamed_addr constant i32 -1, align 4
@_ZTVN6dealii8Patterns4ListE = dso_local unnamed_addr constant { [8 x ptr] } { [8 x ptr] [ptr null, ptr @_ZTIN6dealii8Patterns4ListE, ptr @_ZN6dealii8Patterns4ListD2Ev, ptr @_ZN6dealii8Patterns4ListD0Ev, ptr @_ZNK6dealii8Patterns4List5matchERKNSt7__cxx1112basic_stringIcSt11char_traitsIcESaIcEEE, ptr @_ZNK6dealii8Patterns4List11descriptionB5cxx11Ev, ptr @_ZNK6dealii8Patterns4List5cloneEv, ptr @_ZNK6dealii8Patterns4List18memory_consumptionEv] }, align 8
@.str.13 = private unnamed_addr constant [2 x i8] c",\00", align 1
@.str.14 = private unnamed_addr constant [1 x i8] zeroinitializer, align 1
@.str.15 = private unnamed_addr constant [10 x i8] c"list of <\00", align 1
@.str.16 = private unnamed_addr constant [2 x i8] c">\00", align 1
@.str.17 = private unnamed_addr constant [12 x i8] c" of length \00", align 1
@.str.18 = private unnamed_addr constant [13 x i8] c" (inclusive)\00", align 1
@_ZTVN6dealii8Patterns17MultipleSelectionE = dso_local unnamed_addr constant { [8 x ptr] } { [8 x ptr] [ptr null, ptr @_ZTIN6dealii8Patterns17MultipleSelectionE, ptr @_ZN6dealii8Patterns17MultipleSelectionD2Ev, ptr @_ZN6dealii8Patterns17MultipleSelectionD0Ev, ptr @_ZNK6dealii8Patterns17MultipleSelection5matchERKNSt7__cxx1112basic_stringIcSt11char_traitsIcESaIcEEE, ptr @_ZNK6dealii8Patterns17MultipleSelection11descriptionB5cxx11Ev, ptr @_ZNK6dealii8Patterns17MultipleSelection5cloneEv, ptr @_ZNK6dealii8Patterns17MultipleSelection18memory_consumptionEv] }, align 8
@.str.19 = private unnamed_addr constant [11 x i8] c"true|false\00", align 1
@_ZTVN6dealii8Patterns4BoolE = dso_local unnamed_addr constant { [8 x ptr] } { [8 x ptr] [ptr null, ptr @_ZTIN6dealii8Patterns4BoolE, ptr @_ZN6dealii8Patterns9SelectionD2Ev, ptr @_ZN6dealii8Patterns4BoolD0Ev, ptr @_ZNK6dealii8Patterns9Selection5matchERKNSt7__cxx1112basic_stringIcSt11char_traitsIcESaIcEEE, ptr @_ZNK6dealii8Patterns9Selection11descriptionB5cxx11Ev, ptr @_ZNK6dealii8Patterns4Bool5cloneEv, ptr @_ZNK6dealii8Patterns9Selection18memory_consumptionEv] }, align 8
@_ZTVN6dealii8Patterns8AnythingE = dso_local unnamed_addr constant { [8 x ptr] } { [8 x ptr] [ptr null, ptr @_ZTIN6dealii8Patterns8AnythingE, ptr @_ZN6dealii8Patterns11PatternBaseD2Ev, ptr @_ZN6dealii8Patterns8AnythingD0Ev, ptr @_ZNK6dealii8Patterns8Anything5matchERKNSt7__cxx1112basic_stringIcSt11char_traitsIcESaIcEEE, ptr @_ZNK6dealii8Patterns8Anything11descriptionB5cxx11Ev, ptr @_ZNK6dealii8Patterns8Anything5cloneEv, ptr @_ZNK6dealii8Patterns11PatternBase18memory_consumptionEv] }, align 8
@.str.20 = private unnamed_addr constant [11 x i8] c"[Anything]\00", align 1
@_ZTVN6dealii16ParameterHandlerE = dso_local unnamed_addr constant { [7 x ptr] } { [7 x ptr] [ptr null, ptr @_ZTIN6dealii16ParameterHandlerE, ptr @_ZN6dealii16ParameterHandlerD2Ev, ptr @_ZN6dealii16ParameterHandlerD0Ev, ptr @_ZN6dealii16ParameterHandler10read_inputERSi, ptr @_ZN6dealii16ParameterHandler10read_inputERKNSt7__cxx1112basic_stringIcSt11char_traitsIcESaIcEEEbb, ptr @_ZN6dealii16ParameterHandler22read_input_from_stringEPKc] }, align 8
@.str.21 = private unnamed_addr constant [33 x i8] c"source/base/parameter_handler.cc\00", align 1
@.str.22 = private unnamed_addr constant [6 x i8] c"input\00", align 1
@.str.23 = private unnamed_addr constant [8 x i8] c"ExcIO()\00", align 1
@.str.24 = private unnamed_addr constant [11 x i8] c"PARAMETERS\00", align 1
@.str.25 = private unnamed_addr constant [2 x i8] c"r\00", align 1
@_ZSt4cerr = external global %"class.std::basic_ostream", align 8
@.str.26 = private unnamed_addr constant [52 x i8] c"ParameterHandler::read_input: could not open file <\00", align 1
@.str.27 = private unnamed_addr constant [15 x i8] c"> for reading.\00", align 1
@_ZZNK6dealii16ParameterHandler3getERKNSt7__cxx1112basic_stringIcSt11char_traitsIcESaIcEEEE12empty_stringB5cxx11 = internal global %"class.std::__cxx11::basic_string" zeroinitializer, align 8
@_ZGVZNK6dealii16ParameterHandler3getERKNSt7__cxx1112basic_stringIcSt11char_traitsIcESaIcEEEE12empty_stringB5cxx11 = internal global i64 0, align 8
@__dso_handle = external hidden global i8
@.str.28 = private unnamed_addr constant [16 x i8] c"*endptr == '\\0'\00", align 1
@.str.29 = private unnamed_addr constant [22 x i8] c"ExcConversionError(s)\00", align 1
@.str.30 = private unnamed_addr constant [39 x i8] c"(s.c_str()!='\\0') || (*endptr == '\\0')\00", align 1
@.str.31 = private unnamed_addr constant [5 x i8] c"true\00", align 1
@.str.32 = private unnamed_addr constant [6 x i8] c"false\00", align 1
@.str.33 = private unnamed_addr constant [4 x i8] c"yes\00", align 1
@.str.34 = private unnamed_addr constant [3 x i8] c"no\00", align 1
@.str.35 = private unnamed_addr constant [55 x i8] c"(s==\22true\22) || (s==\22false\22) || (s==\22yes\22) || (s==\22no\22)\00", align 1
@.str.36 = private unnamed_addr constant [4 x i8] c"out\00", align 1
@.str.37 = private unnamed_addr constant [24 x i8] c"# Listing of Parameters\00", align 1
@.str.38 = private unnamed_addr constant [24 x i8] c"# ---------------------\00", align 1
@.str.39 = private unnamed_addr constant [39 x i8] c"\\subsubsection*{Listing of parameters}\00", align 1
@.str.40 = private unnamed_addr constant [16 x i8] c"\\begin{itemize}\00", align 1
@.str.41 = private unnamed_addr constant [23 x i8] c"Listing of Parameters:\00", align 1
@.str.42 = private unnamed_addr constant [14 x i8] c"\\end{itemize}\00", align 1
@.str.43 = private unnamed_addr constant [3 x i8] c"# \00", align 1
@.str.44 = private unnamed_addr constant [5 x i8] c"set \00", align 1
@.str.45 = private unnamed_addr constant [2 x i8] c" \00", align 1
@.str.46 = private unnamed_addr constant [3 x i8] c"= \00", align 1
@.str.47 = private unnamed_addr constant [10 x i8] c"default: \00", align 1
@.str.48 = private unnamed_addr constant [12 x i8] c"\\item {\\bf \00", align 1
@.str.49 = private unnamed_addr constant [4 x i8] c":} \00", align 1
@.str.50 = private unnamed_addr constant [3 x i8] c" (\00", align 1
@.str.51 = private unnamed_addr constant [3 x i8] c", \00", align 1
@.str.52 = private unnamed_addr constant [16 x i8] c"{\\it default:} \00", align 1
@.str.53 = private unnamed_addr constant [2 x i8] c")\00", align 1
@.str.54 = private unnamed_addr constant [4 x i8] c" = \00", align 1
@.str.55 = private unnamed_addr constant [3 x i8] c"  \00", align 1
@.str.56 = private unnamed_addr constant [2 x i8] c"(\00", align 1
@.str.57 = private unnamed_addr constant [12 x i8] c"subsection \00", align 1
@.str.58 = private unnamed_addr constant [12 x i8] c"Subsection \00", align 1
@.str.59 = private unnamed_addr constant [2 x i8] c"}\00", align 1
@.str.60 = private unnamed_addr constant [4 x i8] c"end\00", align 1
@.str.61 = private unnamed_addr constant [11 x i8] c"parameters\00", align 1
@.str.62 = private unnamed_addr constant [3 x i8] c": \00", align 1
@.str.63 = private unnamed_addr constant [2 x i8] c"#\00", align 1
@.str.64 = private unnamed_addr constant [12 x i8] c"SUBSECTION \00", align 1
@.str.65 = private unnamed_addr constant [11 x i8] c"subsection\00", align 1
@.str.66 = private unnamed_addr constant [6 x i8] c"Line \00", align 1
@.str.67 = private unnamed_addr constant [45 x i8] c": There is no such subsection to be entered:\00", align 1
@.str.68 = private unnamed_addr constant [4 x i8] c"END\00", align 1
@.str.69 = private unnamed_addr constant [40 x i8] c": There is no subsection to leave here!\00", align 1
@.str.70 = private unnamed_addr constant [5 x i8] c"SET \00", align 1
@.str.71 = private unnamed_addr constant [3 x i8] c" =\00", align 1
@.str.72 = private unnamed_addr constant [2 x i8] c"=\00", align 1
@.str.73 = private unnamed_addr constant [30 x i8] c": No such entry was declared:\00", align 1
@.str.74 = private unnamed_addr constant [5 x i8] c"    \00", align 1
@.str.75 = private unnamed_addr constant [25 x i8] c"    <Present subsection:\00", align 1
@.str.76 = private unnamed_addr constant [6 x i8] c"    >\00", align 1
@.str.77 = private unnamed_addr constant [2 x i8] c":\00", align 1
@.str.78 = private unnamed_addr constant [20 x i8] c"    The entry value\00", align 1
@.str.79 = private unnamed_addr constant [9 x i8] c"        \00", align 1
@.str.80 = private unnamed_addr constant [24 x i8] c"    for the entry named\00", align 1
@.str.81 = private unnamed_addr constant [37 x i8] c"    does not match the given pattern\00", align 1
@.str.82 = private unnamed_addr constant [69 x i8] c": This line matched nothing known ('set' or 'subsection' missing!?):\00", align 1
@_ZTVN6dealii21MultipleParameterLoopE = dso_local unnamed_addr constant { [7 x ptr] } { [7 x ptr] [ptr null, ptr @_ZTIN6dealii21MultipleParameterLoopE, ptr @_ZN6dealii21MultipleParameterLoopD2Ev, ptr @_ZN6dealii21MultipleParameterLoopD0Ev, ptr @_ZN6dealii21MultipleParameterLoop10read_inputERSi, ptr @_ZN6dealii21MultipleParameterLoop10read_inputERKNSt7__cxx1112basic_stringIcSt11char_traitsIcESaIcEEEbb, ptr @_ZN6dealii21MultipleParameterLoop22read_input_from_stringEPKc] }, align 8
@.str.83 = private unnamed_addr constant [55 x i8] c"    does not have the right number of entries for the \00", align 1
@.str.84 = private unnamed_addr constant [38 x i8] c" variant runs that will be performed.\00", align 1
@.str.85 = private unnamed_addr constant [28 x i8] c"The given array for entry <\00", align 1
@.str.86 = private unnamed_addr constant [65 x i8] c"> does not contain enough elements! Taking empty string instead.\00", align 1
@.str.87 = private unnamed_addr constant [13 x i8] c"In run no.  \00", align 1
@.str.88 = private unnamed_addr constant [25 x i8] c"    Taking default value\00", align 1
@.str.89 = private unnamed_addr constant [3 x i8] c"{{\00", align 1
@.str.90 = private unnamed_addr constant [3 x i8] c"}}\00", align 1
@_ZTVN6dealii8Patterns11PatternBaseE = dso_local unnamed_addr constant { [8 x ptr] } { [8 x ptr] [ptr null, ptr @_ZTIN6dealii8Patterns11PatternBaseE, ptr @_ZN6dealii8Patterns11PatternBaseD2Ev, ptr @_ZN6dealii8Patterns11PatternBaseD0Ev, ptr @__cxa_pure_virtual, ptr @__cxa_pure_virtual, ptr @__cxa_pure_virtual, ptr @_ZNK6dealii8Patterns11PatternBase18memory_consumptionEv] }, align 8
@_ZTSN6dealii8Patterns4ListE = dso_local constant [24 x i8] c"N6dealii8Patterns4ListE\00", align 1
@_ZTIN6dealii8Patterns4ListE = dso_local constant { ptr, ptr, ptr } { ptr getelementptr inbounds (ptr, ptr @_ZTVN10__cxxabiv120__si_class_type_infoE, i64 2), ptr @_ZTSN6dealii8Patterns4ListE, ptr @_ZTIN6dealii8Patterns11PatternBaseE }, align 8
@_ZTSN6dealii8Patterns17MultipleSelectionE = dso_local constant [38 x i8] c"N6dealii8Patterns17MultipleSelectionE\00", align 1
@_ZTIN6dealii8Patterns17MultipleSelectionE = dso_local constant { ptr, ptr, ptr } { ptr getelementptr inbounds (ptr, ptr @_ZTVN10__cxxabiv120__si_class_type_infoE, i64 2), ptr @_ZTSN6dealii8Patterns17MultipleSelectionE, ptr @_ZTIN6dealii8Patterns11PatternBaseE }, align 8
@_ZTSN6dealii16ParameterHandlerE = dso_local constant [28 x i8] c"N6dealii16ParameterHandlerE\00", align 1
@_ZTIN6dealii11SubscriptorE = external constant ptr
@_ZTIN6dealii16ParameterHandlerE = dso_local constant { ptr, ptr, ptr } { ptr getelementptr inbounds (ptr, ptr @_ZTVN10__cxxabiv120__si_class_type_infoE, i64 2), ptr @_ZTSN6dealii16ParameterHandlerE, ptr @_ZTIN6dealii11SubscriptorE }, align 8
@_ZTVN6dealii21MultipleParameterLoop9UserClassE = dso_local unnamed_addr constant { [7 x ptr] } { [7 x ptr] [ptr null, ptr @_ZTIN6dealii21MultipleParameterLoop9UserClassE, ptr @_ZN6dealii21MultipleParameterLoop9UserClassD2Ev, ptr @_ZN6dealii21MultipleParameterLoop9UserClassD0Ev, ptr @__cxa_pure_virtual, ptr @__cxa_pure_virtual, ptr @__cxa_pure_virtual] }, align 8
@_ZTSN6dealii21MultipleParameterLoop9UserClassE = dso_local constant [43 x i8] c"N6dealii21MultipleParameterLoop9UserClassE\00", align 1
@_ZTIN6dealii21MultipleParameterLoop9UserClassE = dso_local constant { ptr, ptr } { ptr getelementptr inbounds (ptr, ptr @_ZTVN10__cxxabiv117__class_type_infoE, i64 2), ptr @_ZTSN6dealii21MultipleParameterLoop9UserClassE }, align 8
@_ZTSN6dealii21MultipleParameterLoopE = dso_local constant [33 x i8] c"N6dealii21MultipleParameterLoopE\00", align 1
@_ZTIN6dealii21MultipleParameterLoopE = dso_local constant { ptr, ptr, ptr } { ptr getelementptr inbounds (ptr, ptr @_ZTVN10__cxxabiv120__si_class_type_infoE, i64 2), ptr @_ZTSN6dealii21MultipleParameterLoopE, ptr @_ZTIN6dealii16ParameterHandlerE }, align 8
@_ZTVN6dealii18StandardExceptions5ExcIOE = linkonce_odr dso_local unnamed_addr constant { [6 x ptr] } { [6 x ptr] [ptr null, ptr @_ZTIN6dealii18StandardExceptions5ExcIOE, ptr @_ZN6dealii13ExceptionBaseD2Ev, ptr @_ZN6dealii18StandardExceptions5ExcIOD0Ev, ptr @_ZNK6dealii13ExceptionBase4whatEv, ptr @_ZNK6dealii13ExceptionBase10print_infoERSo] }, comdat, align 8
@_ZTSN6dealii18StandardExceptions5ExcIOE = linkonce_odr dso_local constant [36 x i8] c"N6dealii18StandardExceptions5ExcIOE\00", comdat, align 1
@_ZTIN6dealii13ExceptionBaseE = external constant ptr
@_ZTIN6dealii18StandardExceptions5ExcIOE = linkonce_odr dso_local constant { ptr, ptr, ptr } { ptr getelementptr inbounds (ptr, ptr @_ZTVN10__cxxabiv120__si_class_type_infoE, i64 2), ptr @_ZTSN6dealii18StandardExceptions5ExcIOE, ptr @_ZTIN6dealii13ExceptionBaseE }, comdat, align 8
@_ZTVN6dealii16ParameterHandler18ExcConversionErrorE = linkonce_odr dso_local unnamed_addr constant { [6 x ptr] } { [6 x ptr] [ptr null, ptr @_ZTIN6dealii16ParameterHandler18ExcConversionErrorE, ptr @_ZN6dealii16ParameterHandler18ExcConversionErrorD2Ev, ptr @_ZN6dealii16ParameterHandler18ExcConversionErrorD0Ev, ptr @_ZNK6dealii13ExceptionBase4whatEv, ptr @_ZNK6dealii16ParameterHandler18ExcConversionError10print_infoERSo] }, comdat, align 8
@_ZTSN6dealii16ParameterHandler18ExcConversionErrorE = linkonce_odr dso_local constant [48 x i8] c"N6dealii16ParameterHandler18ExcConversionErrorE\00", comdat, align 1
@_ZTIN6dealii16ParameterHandler18ExcConversionErrorE = linkonce_odr dso_local constant { ptr, ptr, ptr } { ptr getelementptr inbounds (ptr, ptr @_ZTVN10__cxxabiv120__si_class_type_infoE, i64 2), ptr @_ZTSN6dealii16ParameterHandler18ExcConversionErrorE, ptr @_ZTIN6dealii13ExceptionBaseE }, comdat, align 8
@.str.91 = private unnamed_addr constant [52 x i8] c"Error when trying to convert the following string: \00", align 1
@_ZTTNSt7__cxx1119basic_istringstreamIcSt11char_traitsIcESaIcEEE = external unnamed_addr constant [4 x ptr], align 8
@_ZTVNSt7__cxx1115basic_stringbufIcSt11char_traitsIcESaIcEEE = external unnamed_addr constant { [16 x ptr] }, align 8
@_ZTVSt15basic_streambufIcSt11char_traitsIcEE = external unnamed_addr constant { [16 x ptr] }, align 8
@.str.92 = private unnamed_addr constant [50 x i8] c"basic_string: construction from null is not valid\00", align 1
@_ZTTNSt7__cxx1119basic_ostringstreamIcSt11char_traitsIcESaIcEEE = external unnamed_addr constant [4 x ptr], align 8
@.str.93 = private unnamed_addr constant [22 x i8] c"basic_string::replace\00", align 1
@.str.94 = private unnamed_addr constant [55 x i8] c"%s: __pos (which is %zu) > this->size() (which is %zu)\00", align 1
@.str.95 = private unnamed_addr constant [27 x i8] c"basic_string::basic_string\00", align 1
@.str.96 = private unnamed_addr constant [20 x i8] c"basic_string::erase\00", align 1
@.str.97 = private unnamed_addr constant [16 x i8] c"vector::reserve\00", align 1
@.str.98 = private unnamed_addr constant [26 x i8] c"vector::_M_realloc_insert\00", align 1
@_ZTTSt14basic_ifstreamIcSt11char_traitsIcEE = external unnamed_addr constant [4 x ptr], align 8
@.str.100 = private unnamed_addr constant [21 x i8] c"basic_string::append\00", align 1
@llvm.global_ctors = appending global [0 x { i32, ptr, ptr }] zeroinitializer

@_ZN6dealii8Patterns11PatternBaseD1Ev = dso_local unnamed_addr alias void (ptr), ptr @_ZN6dealii8Patterns11PatternBaseD2Ev
@_ZN6dealii8Patterns7IntegerC1Eii = dso_local unnamed_addr alias void (ptr, i32, i32), ptr @_ZN6dealii8Patterns7IntegerC2Eii
@_ZN6dealii8Patterns6DoubleC1Edd = dso_local unnamed_addr alias void (ptr, double, double), ptr @_ZN6dealii8Patterns6DoubleC2Edd
@_ZN6dealii8Patterns9SelectionC1ERKNSt7__cxx1112basic_stringIcSt11char_traitsIcESaIcEEE = dso_local unnamed_addr alias void (ptr, ptr), ptr @_ZN6dealii8Patterns9SelectionC2ERKNSt7__cxx1112basic_stringIcSt11char_traitsIcESaIcEEE
@_ZN6dealii8Patterns4ListC1ERKNS0_11PatternBaseEjj = dso_local unnamed_addr alias void (ptr, ptr, i32, i32), ptr @_ZN6dealii8Patterns4ListC2ERKNS0_11PatternBaseEjj
@_ZN6dealii8Patterns4ListD1Ev = dso_local unnamed_addr alias void (ptr), ptr @_ZN6dealii8Patterns4ListD2Ev
@_ZN6dealii8Patterns17MultipleSelectionC1ERKNSt7__cxx1112basic_stringIcSt11char_traitsIcESaIcEEE = dso_local unnamed_addr alias void (ptr, ptr), ptr @_ZN6dealii8Patterns17MultipleSelectionC2ERKNSt7__cxx1112basic_stringIcSt11char_traitsIcESaIcEEE
@_ZN6dealii8Patterns4BoolC1Ev = dso_local unnamed_addr alias void (ptr), ptr @_ZN6dealii8Patterns4BoolC2Ev
@_ZN6dealii8Patterns8AnythingC1Ev = dso_local unnamed_addr alias void (ptr), ptr @_ZN6dealii8Patterns8AnythingC2Ev
@_ZN6dealii16ParameterHandlerC1Ev = dso_local unnamed_addr alias void (ptr), ptr @_ZN6dealii16ParameterHandlerC2Ev
@_ZN6dealii16ParameterHandlerD1Ev = dso_local unnamed_addr alias void (ptr), ptr @_ZN6dealii16ParameterHandlerD2Ev
@_ZN6dealii16ParameterHandler7SectionD1Ev = dso_local unnamed_addr alias void (ptr), ptr @_ZN6dealii16ParameterHandler7SectionD2Ev
@_ZN6dealii21MultipleParameterLoop9UserClassD1Ev = dso_local unnamed_addr alias void (ptr), ptr @_ZN6dealii21MultipleParameterLoop9UserClassD2Ev
@_ZN6dealii21MultipleParameterLoopC1Ev = dso_local unnamed_addr alias void (ptr), ptr @_ZN6dealii21MultipleParameterLoopC2Ev
@_ZN6dealii21MultipleParameterLoopD1Ev = dso_local unnamed_addr alias void (ptr), ptr @_ZN6dealii21MultipleParameterLoopD2Ev
@_ZN6dealii21MultipleParameterLoop5EntryC1ERKSt6vectorINSt7__cxx1112basic_stringIcSt11char_traitsIcESaIcEEESaIS8_EERKS8_SE_ = dso_local unnamed_addr alias void (ptr, ptr, ptr, ptr), ptr @_ZN6dealii21MultipleParameterLoop5EntryC2ERKSt6vectorINSt7__cxx1112basic_stringIcSt11char_traitsIcESaIcEEESaIS8_EERKS8_SE_

; Function Attrs: noreturn nounwind sspstrong uwtable
define dso_local void @_ZN6dealii8Patterns11PatternBaseD0Ev(ptr nocapture nonnull readnone align 8 %0) unnamed_addr #0 align 2 {
  tail call void @llvm.trap() #28
  unreachable
}

; Function Attrs: cold noreturn nounwind
declare void @llvm.trap() #1

; Function Attrs: nofree nounwind sspstrong memory(read) uwtable
define dso_local noundef i32 @_ZNK6dealii8Patterns11PatternBase18memory_consumptionEv(ptr noundef nonnull readonly align 8 dereferenceable(8) %0) unnamed_addr #2 align 2 {
  %2 = tail call ptr @__dynamic_cast(ptr nonnull %0, ptr nonnull @_ZTIN6dealii8Patterns11PatternBaseE, ptr nonnull @_ZTIN6dealii8Patterns7IntegerE, i64 0) #29
  %3 = icmp eq ptr %2, null
  br i1 %3, label %4, label %14

4:                                                ; preds = %1
  %5 = tail call ptr @__dynamic_cast(ptr nonnull %0, ptr nonnull @_ZTIN6dealii8Patterns11PatternBaseE, ptr nonnull @_ZTIN6dealii8Patterns6DoubleE, i64 0) #29
  %6 = icmp eq ptr %5, null
  br i1 %6, label %7, label %14

7:                                                ; preds = %4
  %8 = tail call ptr @__dynamic_cast(ptr nonnull %0, ptr nonnull @_ZTIN6dealii8Patterns11PatternBaseE, ptr nonnull @_ZTIN6dealii8Patterns4BoolE, i64 0) #29
  %9 = icmp eq ptr %8, null
  br i1 %9, label %10, label %14

10:                                               ; preds = %7
  %11 = tail call ptr @__dynamic_cast(ptr nonnull %0, ptr nonnull @_ZTIN6dealii8Patterns11PatternBaseE, ptr nonnull @_ZTIN6dealii8Patterns8AnythingE, i64 0) #29
  %12 = icmp eq ptr %11, null
  %13 = select i1 %12, i32 40, i32 8
  br label %14

14:                                               ; preds = %10, %7, %4, %1
  %15 = phi i32 [ 16, %1 ], [ 24, %4 ], [ 40, %7 ], [ %13, %10 ]
  ret i32 %15
}

; Function Attrs: nofree nounwind memory(read)
declare ptr @__dynamic_cast(ptr, ptr, ptr, i64) local_unnamed_addr #3

; Function Attrs: mustprogress nofree norecurse nosync nounwind sspstrong willreturn memory(argmem: write) uwtable
define dso_local void @_ZN6dealii8Patterns7IntegerC2Eii(ptr nocapture noundef nonnull writeonly align 8 dereferenceable(16) %0, i32 noundef %1, i32 noundef %2) unnamed_addr #4 align 2 {
  store ptr getelementptr inbounds ({ [8 x ptr] }, ptr @_ZTVN6dealii8Patterns7IntegerE, i64 0, inrange i32 0, i64 2), ptr %0, align 8, !tbaa !5
  %4 = getelementptr inbounds %"class.dealii::Patterns::Integer", ptr %0, i64 0, i32 1
  store i32 %1, ptr %4, align 8, !tbaa !8
  %5 = getelementptr inbounds %"class.dealii::Patterns::Integer", ptr %0, i64 0, i32 2
  store i32 %2, ptr %5, align 4, !tbaa !13
  ret void
}

; Function Attrs: sspstrong uwtable
define dso_local noundef zeroext i1 @_ZNK6dealii8Patterns7Integer5matchERKNSt7__cxx1112basic_stringIcSt11char_traitsIcESaIcEEE(ptr nocapture noundef nonnull readonly align 8 dereferenceable(16) %0, ptr noundef nonnull align 8 dereferenceable(32) %1) unnamed_addr #5 align 2 personality ptr @__gxx_personality_v0 {
  %3 = alloca %"class.std::__cxx11::basic_istringstream", align 8
  %4 = alloca i32, align 4
  call void @llvm.lifetime.start.p0(i64 384, ptr nonnull %3) #29
  call void @_ZNSt7__cxx1119basic_istringstreamIcSt11char_traitsIcESaIcEEC1ERKNS_12basic_stringIcS2_S3_EESt13_Ios_Openmode(ptr noundef nonnull align 8 dereferenceable(120) %3, ptr noundef nonnull align 8 dereferenceable(32) %1, i32 noundef 8)
  call void @llvm.lifetime.start.p0(i64 4, ptr nonnull %4) #29
  %5 = invoke noundef nonnull align 8 dereferenceable(16) ptr @_ZNSirsERi(ptr noundef nonnull align 8 dereferenceable(16) %3, ptr noundef nonnull align 4 dereferenceable(4) %4)
          to label %6 unwind label %26

6:                                                ; preds = %2
  %7 = load ptr, ptr %5, align 8, !tbaa !5
  %8 = getelementptr i8, ptr %7, i64 -24
  %9 = load i64, ptr %8, align 8
  %10 = getelementptr inbounds i8, ptr %5, i64 %9
  %11 = getelementptr inbounds %"class.std::ios_base", ptr %10, i64 0, i32 5
  %12 = load i32, ptr %11, align 8, !tbaa !14
  %13 = and i32 %12, 5
  %14 = icmp eq i32 %13, 0
  br i1 %14, label %15, label %28

15:                                               ; preds = %6
  %16 = getelementptr inbounds %"class.dealii::Patterns::Integer", ptr %0, i64 0, i32 1
  %17 = load i32, ptr %16, align 8, !tbaa !8
  %18 = getelementptr inbounds %"class.dealii::Patterns::Integer", ptr %0, i64 0, i32 2
  %19 = load i32, ptr %18, align 4, !tbaa !13
  %20 = icmp sgt i32 %17, %19
  br i1 %20, label %28, label %21

21:                                               ; preds = %15
  %22 = load i32, ptr %4, align 4, !tbaa !22
  %23 = icmp sle i32 %17, %22
  %24 = icmp sge i32 %19, %22
  %25 = and i1 %23, %24
  br label %28

26:                                               ; preds = %2
  %27 = landingpad { ptr, i32 }
          cleanup
  call void @llvm.lifetime.end.p0(i64 4, ptr nonnull %4) #29
  invoke void @_ZNSt7__cxx1119basic_istringstreamIcSt11char_traitsIcESaIcEED1Ev(ptr noundef nonnull align 8 dereferenceable(120) %3)
          to label %54 unwind label %55

28:                                               ; preds = %6, %15, %21
  %29 = phi i1 [ %25, %21 ], [ true, %15 ], [ false, %6 ]
  call void @llvm.lifetime.end.p0(i64 4, ptr nonnull %4) #29
  %30 = load ptr, ptr @_ZTTNSt7__cxx1119basic_istringstreamIcSt11char_traitsIcESaIcEEE, align 8
  store ptr %30, ptr %3, align 8, !tbaa !5
  %31 = load ptr, ptr getelementptr inbounds ([4 x ptr], ptr @_ZTTNSt7__cxx1119basic_istringstreamIcSt11char_traitsIcESaIcEEE, i64 0, i64 3), align 8
  %32 = getelementptr i8, ptr %30, i64 -24
  %33 = load i64, ptr %32, align 8
  %34 = getelementptr inbounds i8, ptr %3, i64 %33
  store ptr %31, ptr %34, align 8, !tbaa !5
  %35 = getelementptr inbounds %"class.std::__cxx11::basic_istringstream", ptr %3, i64 0, i32 1
  store ptr getelementptr inbounds ({ [16 x ptr] }, ptr @_ZTVNSt7__cxx1115basic_stringbufIcSt11char_traitsIcESaIcEEE, i64 0, inrange i32 0, i64 2), ptr %35, align 8, !tbaa !5
  %36 = getelementptr inbounds %"class.std::__cxx11::basic_istringstream", ptr %3, i64 0, i32 1, i32 2
  %37 = load ptr, ptr %36, align 8, !tbaa !23
  %38 = getelementptr inbounds %"class.std::__cxx11::basic_istringstream", ptr %3, i64 0, i32 1, i32 2, i32 2
  %39 = icmp eq ptr %37, %38
  br i1 %39, label %40, label %44

40:                                               ; preds = %28
  %41 = getelementptr inbounds %"class.std::__cxx11::basic_istringstream", ptr %3, i64 0, i32 1, i32 2, i32 1
  %42 = load i64, ptr %41, align 8, !tbaa !26
  %43 = icmp ult i64 %42, 16
  call void @llvm.assume(i1 %43)
  br label %45

44:                                               ; preds = %28
  call void @_ZdlPv(ptr noundef %37) #30
  br label %45

45:                                               ; preds = %40, %44
  store ptr getelementptr inbounds ({ [16 x ptr] }, ptr @_ZTVSt15basic_streambufIcSt11char_traitsIcEE, i64 0, inrange i32 0, i64 2), ptr %35, align 8, !tbaa !5
  %46 = getelementptr inbounds %"class.std::__cxx11::basic_istringstream", ptr %3, i64 0, i32 1, i32 0, i32 7
  call void @_ZNSt6localeD1Ev(ptr noundef nonnull align 8 dereferenceable(8) %46) #29
  %47 = load ptr, ptr getelementptr inbounds ([4 x ptr], ptr @_ZTTNSt7__cxx1119basic_istringstreamIcSt11char_traitsIcESaIcEEE, i64 0, i64 1), align 8
  store ptr %47, ptr %3, align 8, !tbaa !5
  %48 = load ptr, ptr getelementptr inbounds ([4 x ptr], ptr @_ZTTNSt7__cxx1119basic_istringstreamIcSt11char_traitsIcESaIcEEE, i64 0, i64 2), align 8
  %49 = getelementptr i8, ptr %47, i64 -24
  %50 = load i64, ptr %49, align 8
  %51 = getelementptr inbounds i8, ptr %3, i64 %50
  store ptr %48, ptr %51, align 8, !tbaa !5
  %52 = getelementptr inbounds %"class.std::basic_istream", ptr %3, i64 0, i32 1
  store i64 0, ptr %52, align 8, !tbaa !27
  %53 = getelementptr inbounds i8, ptr %3, i64 120
  call void @_ZNSt8ios_baseD2Ev(ptr noundef nonnull align 8 dereferenceable(264) %53)
  call void @llvm.lifetime.end.p0(i64 384, ptr nonnull %3) #29
  ret i1 %29

54:                                               ; preds = %26
  call void @llvm.lifetime.end.p0(i64 384, ptr nonnull %3) #29
  resume { ptr, i32 } %27

55:                                               ; preds = %26
  %56 = landingpad { ptr, i32 }
          catch ptr null
  %57 = extractvalue { ptr, i32 } %56, 0
  call void @__clang_call_terminate(ptr %57) #28
  unreachable
}

; Function Attrs: mustprogress nocallback nofree nosync nounwind willreturn memory(argmem: readwrite)
declare void @llvm.lifetime.start.p0(i64 immarg, ptr nocapture) #6

; Function Attrs: sspstrong uwtable
declare void @_ZNSt7__cxx1119basic_istringstreamIcSt11char_traitsIcESaIcEEC1ERKNS_12basic_stringIcS2_S3_EESt13_Ios_Openmode(ptr noundef nonnull align 8 dereferenceable(120), ptr noundef nonnull align 8 dereferenceable(32), i32 noundef) unnamed_addr #5 align 2

declare noundef nonnull align 8 dereferenceable(16) ptr @_ZNSirsERi(ptr noundef nonnull align 8 dereferenceable(16), ptr noundef nonnull align 4 dereferenceable(4)) local_unnamed_addr #7

declare i32 @__gxx_personality_v0(...)

; Function Attrs: mustprogress nocallback nofree nosync nounwind willreturn memory(argmem: readwrite)
declare void @llvm.lifetime.end.p0(i64 immarg, ptr nocapture) #6

; Function Attrs: sspstrong uwtable
declare void @_ZNSt7__cxx1119basic_istringstreamIcSt11char_traitsIcESaIcEED1Ev(ptr noundef nonnull align 8 dereferenceable(120)) unnamed_addr #5 align 2

; Function Attrs: noinline noreturn nounwind sspstrong uwtable
define linkonce_odr hidden void @__clang_call_terminate(ptr noundef %0) local_unnamed_addr #8 comdat {
  %2 = tail call ptr @__cxa_begin_catch(ptr %0) #29
  tail call void @_ZSt9terminatev() #28
  unreachable
}

declare ptr @__cxa_begin_catch(ptr) local_unnamed_addr

declare void @_ZSt9terminatev() local_unnamed_addr

; Function Attrs: sspstrong uwtable
define dso_local void @_ZNK6dealii8Patterns7Integer11descriptionB5cxx11Ev(ptr noalias sret(%"class.std::__cxx11::basic_string") align 8 %0, ptr nocapture noundef nonnull readonly align 8 dereferenceable(16) %1) unnamed_addr #5 align 2 personality ptr @__gxx_personality_v0 {
  %3 = alloca %"class.std::__cxx11::basic_ostringstream", align 8
  %4 = getelementptr inbounds %"class.dealii::Patterns::Integer", ptr %1, i64 0, i32 1
  %5 = load i32, ptr %4, align 8, !tbaa !8
  %6 = getelementptr inbounds %"class.dealii::Patterns::Integer", ptr %1, i64 0, i32 2
  %7 = load i32, ptr %6, align 4, !tbaa !13
  %8 = icmp sgt i32 %5, %7
  br i1 %8, label %74, label %9

9:                                                ; preds = %2
  call void @llvm.lifetime.start.p0(i64 376, ptr nonnull %3) #29
  call void @_ZNSt7__cxx1119basic_ostringstreamIcSt11char_traitsIcESaIcEEC1Ev(ptr noundef nonnull align 8 dereferenceable(112) %3)
  %10 = invoke noundef nonnull align 8 dereferenceable(8) ptr @_ZSt16__ostream_insertIcSt11char_traitsIcEERSt13basic_ostreamIT_T0_ES6_PKS3_l(ptr noundef nonnull align 8 dereferenceable(8) %3, ptr noundef nonnull @.str, i64 noundef 15)
          to label %11 unwind label %69

11:                                               ; preds = %9
  %12 = load i32, ptr %4, align 8, !tbaa !8
  %13 = invoke noundef nonnull align 8 dereferenceable(8) ptr @_ZNSolsEi(ptr noundef nonnull align 8 dereferenceable(8) %3, i32 noundef %12)
          to label %14 unwind label %69

14:                                               ; preds = %11
  %15 = invoke noundef nonnull align 8 dereferenceable(8) ptr @_ZSt16__ostream_insertIcSt11char_traitsIcEERSt13basic_ostreamIT_T0_ES6_PKS3_l(ptr noundef nonnull align 8 dereferenceable(8) %13, ptr noundef nonnull @.str.2, i64 noundef 3)
          to label %16 unwind label %69

16:                                               ; preds = %14
  %17 = load i32, ptr %6, align 4, !tbaa !13
  %18 = invoke noundef nonnull align 8 dereferenceable(8) ptr @_ZNSolsEi(ptr noundef nonnull align 8 dereferenceable(8) %13, i32 noundef %17)
          to label %19 unwind label %69

19:                                               ; preds = %16
  %20 = invoke noundef nonnull align 8 dereferenceable(8) ptr @_ZSt16__ostream_insertIcSt11char_traitsIcEERSt13basic_ostreamIT_T0_ES6_PKS3_l(ptr noundef nonnull align 8 dereferenceable(8) %18, ptr noundef nonnull @.str.3, i64 noundef 13)
          to label %21 unwind label %69

21:                                               ; preds = %19
  call void @llvm.experimental.noalias.scope.decl(metadata !29)
  call void @llvm.experimental.noalias.scope.decl(metadata !32)
  %22 = getelementptr inbounds %"class.std::__cxx11::basic_string", ptr %0, i64 0, i32 2
  store ptr %22, ptr %0, align 8, !tbaa !35, !alias.scope !36
  %23 = getelementptr inbounds %"class.std::__cxx11::basic_string", ptr %0, i64 0, i32 1
  store i64 0, ptr %23, align 8, !tbaa !26, !alias.scope !36
  store i8 0, ptr %22, align 8, !tbaa !37, !alias.scope !36
  %24 = getelementptr inbounds %"class.std::__cxx11::basic_ostringstream", ptr %3, i64 0, i32 1, i32 0, i32 5
  %25 = load ptr, ptr %24, align 8, !tbaa !38, !noalias !36
  %26 = icmp eq ptr %25, null
  %27 = getelementptr inbounds %"class.std::__cxx11::basic_ostringstream", ptr %3, i64 0, i32 1, i32 0, i32 3
  %28 = load ptr, ptr %27, align 8, !noalias !36
  %29 = icmp ugt ptr %25, %28
  %30 = select i1 %29, ptr %25, ptr %28
  %31 = icmp eq ptr %30, null
  %32 = select i1 %26, i1 true, i1 %31
  br i1 %32, label %48, label %33

33:                                               ; preds = %21
  %34 = getelementptr inbounds %"class.std::__cxx11::basic_ostringstream", ptr %3, i64 0, i32 1, i32 0, i32 4
  %35 = load ptr, ptr %34, align 8, !tbaa !40, !noalias !36
  %36 = ptrtoint ptr %30 to i64
  %37 = ptrtoint ptr %35 to i64
  %38 = sub i64 %36, %37
  %39 = invoke noundef nonnull align 8 dereferenceable(32) ptr @_ZNSt7__cxx1112basic_stringIcSt11char_traitsIcESaIcEE10_M_replaceEmmPKcm(ptr noundef nonnull align 8 dereferenceable(32) %0, i64 noundef 0, i64 noundef 0, ptr noundef %35, i64 noundef %38)
          to label %50 unwind label %40

40:                                               ; preds = %48, %33
  %41 = landingpad { ptr, i32 }
          cleanup
  %42 = load ptr, ptr %0, align 8, !tbaa !23, !alias.scope !36
  %43 = icmp eq ptr %42, %22
  br i1 %43, label %44, label %47

44:                                               ; preds = %40
  %45 = load i64, ptr %23, align 8, !tbaa !26, !alias.scope !36
  %46 = icmp ult i64 %45, 16
  call void @llvm.assume(i1 %46)
  br label %71

47:                                               ; preds = %40
  call void @_ZdlPv(ptr noundef %42) #30
  br label %71

48:                                               ; preds = %21
  %49 = getelementptr inbounds %"class.std::__cxx11::basic_ostringstream", ptr %3, i64 0, i32 1, i32 2
  invoke void @_ZNSt7__cxx1112basic_stringIcSt11char_traitsIcESaIcEE9_M_assignERKS4_(ptr noundef nonnull align 8 dereferenceable(32) %0, ptr noundef nonnull align 8 dereferenceable(32) %49)
          to label %50 unwind label %40

50:                                               ; preds = %48, %33
  %51 = load ptr, ptr @_ZTTNSt7__cxx1119basic_ostringstreamIcSt11char_traitsIcESaIcEEE, align 8
  store ptr %51, ptr %3, align 8, !tbaa !5
  %52 = load ptr, ptr getelementptr inbounds ([4 x ptr], ptr @_ZTTNSt7__cxx1119basic_ostringstreamIcSt11char_traitsIcESaIcEEE, i64 0, i64 3), align 8
  %53 = getelementptr i8, ptr %51, i64 -24
  %54 = load i64, ptr %53, align 8
  %55 = getelementptr inbounds i8, ptr %3, i64 %54
  store ptr %52, ptr %55, align 8, !tbaa !5
  %56 = getelementptr inbounds %"class.std::__cxx11::basic_ostringstream", ptr %3, i64 0, i32 1
  store ptr getelementptr inbounds ({ [16 x ptr] }, ptr @_ZTVNSt7__cxx1115basic_stringbufIcSt11char_traitsIcESaIcEEE, i64 0, inrange i32 0, i64 2), ptr %56, align 8, !tbaa !5
  %57 = getelementptr inbounds %"class.std::__cxx11::basic_ostringstream", ptr %3, i64 0, i32 1, i32 2
  %58 = load ptr, ptr %57, align 8, !tbaa !23
  %59 = getelementptr inbounds %"class.std::__cxx11::basic_ostringstream", ptr %3, i64 0, i32 1, i32 2, i32 2
  %60 = icmp eq ptr %58, %59
  br i1 %60, label %61, label %65

61:                                               ; preds = %50
  %62 = getelementptr inbounds %"class.std::__cxx11::basic_ostringstream", ptr %3, i64 0, i32 1, i32 2, i32 1
  %63 = load i64, ptr %62, align 8, !tbaa !26
  %64 = icmp ult i64 %63, 16
  call void @llvm.assume(i1 %64)
  br label %66

65:                                               ; preds = %50
  call void @_ZdlPv(ptr noundef %58) #30
  br label %66

66:                                               ; preds = %61, %65
  store ptr getelementptr inbounds ({ [16 x ptr] }, ptr @_ZTVSt15basic_streambufIcSt11char_traitsIcEE, i64 0, inrange i32 0, i64 2), ptr %56, align 8, !tbaa !5
  %67 = getelementptr inbounds %"class.std::__cxx11::basic_ostringstream", ptr %3, i64 0, i32 1, i32 0, i32 7
  call void @_ZNSt6localeD1Ev(ptr noundef nonnull align 8 dereferenceable(8) %67) #29
  %68 = getelementptr inbounds i8, ptr %3, i64 112
  call void @_ZNSt8ios_baseD2Ev(ptr noundef nonnull align 8 dereferenceable(264) %68)
  call void @llvm.lifetime.end.p0(i64 376, ptr nonnull %3) #29
  br label %78

69:                                               ; preds = %19, %14, %9, %16, %11
  %70 = landingpad { ptr, i32 }
          cleanup
  br label %71

71:                                               ; preds = %44, %47, %69
  %72 = phi { ptr, i32 } [ %70, %69 ], [ %41, %47 ], [ %41, %44 ]
  invoke void @_ZNSt7__cxx1119basic_ostringstreamIcSt11char_traitsIcESaIcEED1Ev(ptr noundef nonnull align 8 dereferenceable(112) %3)
          to label %73 unwind label %79

73:                                               ; preds = %71
  call void @llvm.lifetime.end.p0(i64 376, ptr nonnull %3) #29
  resume { ptr, i32 } %72

74:                                               ; preds = %2
  %75 = getelementptr inbounds %"class.std::__cxx11::basic_string", ptr %0, i64 0, i32 2
  store ptr %75, ptr %0, align 8, !tbaa !35
  tail call void @llvm.memcpy.p0.p0.i64(ptr noundef nonnull align 8 dereferenceable(9) %75, ptr noundef nonnull align 1 dereferenceable(9) @.str.4, i64 9, i1 false)
  %76 = getelementptr inbounds %"class.std::__cxx11::basic_string", ptr %0, i64 0, i32 1
  store i64 9, ptr %76, align 8, !tbaa !26
  %77 = getelementptr inbounds %"class.std::__cxx11::basic_string", ptr %0, i64 0, i32 2, i32 1, i64 1
  store i8 0, ptr %77, align 1, !tbaa !37
  br label %78

78:                                               ; preds = %74, %66
  ret void

79:                                               ; preds = %71
  %80 = landingpad { ptr, i32 }
          catch ptr null
  %81 = extractvalue { ptr, i32 } %80, 0
  call void @__clang_call_terminate(ptr %81) #28
  unreachable
}

; Function Attrs: sspstrong uwtable
declare void @_ZNSt7__cxx1119basic_ostringstreamIcSt11char_traitsIcESaIcEEC1Ev(ptr noundef nonnull align 8 dereferenceable(112)) unnamed_addr #5 align 2

declare noundef nonnull align 8 dereferenceable(8) ptr @_ZNSolsEi(ptr noundef nonnull align 8 dereferenceable(8), i32 noundef) local_unnamed_addr #7

; Function Attrs: sspstrong uwtable
declare void @_ZNSt7__cxx1119basic_ostringstreamIcSt11char_traitsIcESaIcEED1Ev(ptr noundef nonnull align 8 dereferenceable(112)) unnamed_addr #5 align 2

; Function Attrs: sspstrong uwtable
define dso_local noalias noundef nonnull ptr @_ZNK6dealii8Patterns7Integer5cloneEv(ptr nocapture noundef nonnull readonly align 8 dereferenceable(16) %0) unnamed_addr #5 align 2 personality ptr @__gxx_personality_v0 {
  %2 = tail call noalias noundef nonnull dereferenceable(16) ptr @_Znwm(i64 noundef 16) #31
  %3 = getelementptr inbounds %"class.dealii::Patterns::Integer", ptr %0, i64 0, i32 1
  store ptr getelementptr inbounds ({ [8 x ptr] }, ptr @_ZTVN6dealii8Patterns7IntegerE, i64 0, inrange i32 0, i64 2), ptr %2, align 8, !tbaa !5
  %4 = getelementptr inbounds %"class.dealii::Patterns::Integer", ptr %2, i64 0, i32 1
  %5 = load <2 x i32>, ptr %3, align 8, !tbaa !22
  store <2 x i32> %5, ptr %4, align 8, !tbaa !22
  ret ptr %2
}

; Function Attrs: nobuiltin allocsize(0)
declare noundef nonnull ptr @_Znwm(i64 noundef) local_unnamed_addr #9

; Function Attrs: nobuiltin nounwind
declare void @_ZdlPv(ptr noundef) local_unnamed_addr #10

; Function Attrs: mustprogress nofree norecurse nosync nounwind sspstrong willreturn memory(argmem: write) uwtable
define dso_local void @_ZN6dealii8Patterns6DoubleC2Edd(ptr nocapture noundef nonnull writeonly align 8 dereferenceable(24) %0, double noundef %1, double noundef %2) unnamed_addr #4 align 2 {
  store ptr getelementptr inbounds ({ [8 x ptr] }, ptr @_ZTVN6dealii8Patterns6DoubleE, i64 0, inrange i32 0, i64 2), ptr %0, align 8, !tbaa !5
  %4 = getelementptr inbounds %"class.dealii::Patterns::Double", ptr %0, i64 0, i32 1
  store double %1, ptr %4, align 8, !tbaa !41
  %5 = getelementptr inbounds %"class.dealii::Patterns::Double", ptr %0, i64 0, i32 2
  store double %2, ptr %5, align 8, !tbaa !44
  ret void
}

; Function Attrs: sspstrong uwtable
define dso_local noundef zeroext i1 @_ZNK6dealii8Patterns6Double5matchERKNSt7__cxx1112basic_stringIcSt11char_traitsIcESaIcEEE(ptr nocapture noundef nonnull readonly align 8 dereferenceable(24) %0, ptr noundef nonnull align 8 dereferenceable(32) %1) unnamed_addr #5 align 2 personality ptr @__gxx_personality_v0 {
  %3 = alloca %"class.std::__cxx11::basic_istringstream", align 8
  %4 = alloca double, align 8
  call void @llvm.lifetime.start.p0(i64 384, ptr nonnull %3) #29
  call void @_ZNSt7__cxx1119basic_istringstreamIcSt11char_traitsIcESaIcEEC1ERKNS_12basic_stringIcS2_S3_EESt13_Ios_Openmode(ptr noundef nonnull align 8 dereferenceable(120) %3, ptr noundef nonnull align 8 dereferenceable(32) %1, i32 noundef 8)
  call void @llvm.lifetime.start.p0(i64 8, ptr nonnull %4) #29
  %5 = invoke noundef nonnull align 8 dereferenceable(16) ptr @_ZNSi10_M_extractIdEERSiRT_(ptr noundef nonnull align 8 dereferenceable(16) %3, ptr noundef nonnull align 8 dereferenceable(8) %4)
          to label %6 unwind label %26

6:                                                ; preds = %2
  %7 = load ptr, ptr %5, align 8, !tbaa !5
  %8 = getelementptr i8, ptr %7, i64 -24
  %9 = load i64, ptr %8, align 8
  %10 = getelementptr inbounds i8, ptr %5, i64 %9
  %11 = getelementptr inbounds %"class.std::ios_base", ptr %10, i64 0, i32 5
  %12 = load i32, ptr %11, align 8, !tbaa !14
  %13 = and i32 %12, 5
  %14 = icmp eq i32 %13, 0
  br i1 %14, label %15, label %28

15:                                               ; preds = %6
  %16 = getelementptr inbounds %"class.dealii::Patterns::Double", ptr %0, i64 0, i32 1
  %17 = load double, ptr %16, align 8, !tbaa !41
  %18 = getelementptr inbounds %"class.dealii::Patterns::Double", ptr %0, i64 0, i32 2
  %19 = load double, ptr %18, align 8, !tbaa !44
  %20 = fcmp ugt double %17, %19
  br i1 %20, label %28, label %21

21:                                               ; preds = %15
  %22 = load double, ptr %4, align 8, !tbaa !45
  %23 = fcmp ole double %17, %22
  %24 = fcmp oge double %19, %22
  %25 = and i1 %23, %24
  br label %28

26:                                               ; preds = %2
  %27 = landingpad { ptr, i32 }
          cleanup
  call void @llvm.lifetime.end.p0(i64 8, ptr nonnull %4) #29
  invoke void @_ZNSt7__cxx1119basic_istringstreamIcSt11char_traitsIcESaIcEED1Ev(ptr noundef nonnull align 8 dereferenceable(120) %3)
          to label %54 unwind label %55

28:                                               ; preds = %6, %15, %21
  %29 = phi i1 [ %25, %21 ], [ true, %15 ], [ false, %6 ]
  call void @llvm.lifetime.end.p0(i64 8, ptr nonnull %4) #29
  %30 = load ptr, ptr @_ZTTNSt7__cxx1119basic_istringstreamIcSt11char_traitsIcESaIcEEE, align 8
  store ptr %30, ptr %3, align 8, !tbaa !5
  %31 = load ptr, ptr getelementptr inbounds ([4 x ptr], ptr @_ZTTNSt7__cxx1119basic_istringstreamIcSt11char_traitsIcESaIcEEE, i64 0, i64 3), align 8
  %32 = getelementptr i8, ptr %30, i64 -24
  %33 = load i64, ptr %32, align 8
  %34 = getelementptr inbounds i8, ptr %3, i64 %33
  store ptr %31, ptr %34, align 8, !tbaa !5
  %35 = getelementptr inbounds %"class.std::__cxx11::basic_istringstream", ptr %3, i64 0, i32 1
  store ptr getelementptr inbounds ({ [16 x ptr] }, ptr @_ZTVNSt7__cxx1115basic_stringbufIcSt11char_traitsIcESaIcEEE, i64 0, inrange i32 0, i64 2), ptr %35, align 8, !tbaa !5
  %36 = getelementptr inbounds %"class.std::__cxx11::basic_istringstream", ptr %3, i64 0, i32 1, i32 2
  %37 = load ptr, ptr %36, align 8, !tbaa !23
  %38 = getelementptr inbounds %"class.std::__cxx11::basic_istringstream", ptr %3, i64 0, i32 1, i32 2, i32 2
  %39 = icmp eq ptr %37, %38
  br i1 %39, label %40, label %44

40:                                               ; preds = %28
  %41 = getelementptr inbounds %"class.std::__cxx11::basic_istringstream", ptr %3, i64 0, i32 1, i32 2, i32 1
  %42 = load i64, ptr %41, align 8, !tbaa !26
  %43 = icmp ult i64 %42, 16
  call void @llvm.assume(i1 %43)
  br label %45

44:                                               ; preds = %28
  call void @_ZdlPv(ptr noundef %37) #30
  br label %45

45:                                               ; preds = %40, %44
  store ptr getelementptr inbounds ({ [16 x ptr] }, ptr @_ZTVSt15basic_streambufIcSt11char_traitsIcEE, i64 0, inrange i32 0, i64 2), ptr %35, align 8, !tbaa !5
  %46 = getelementptr inbounds %"class.std::__cxx11::basic_istringstream", ptr %3, i64 0, i32 1, i32 0, i32 7
  call void @_ZNSt6localeD1Ev(ptr noundef nonnull align 8 dereferenceable(8) %46) #29
  %47 = load ptr, ptr getelementptr inbounds ([4 x ptr], ptr @_ZTTNSt7__cxx1119basic_istringstreamIcSt11char_traitsIcESaIcEEE, i64 0, i64 1), align 8
  store ptr %47, ptr %3, align 8, !tbaa !5
  %48 = load ptr, ptr getelementptr inbounds ([4 x ptr], ptr @_ZTTNSt7__cxx1119basic_istringstreamIcSt11char_traitsIcESaIcEEE, i64 0, i64 2), align 8
  %49 = getelementptr i8, ptr %47, i64 -24
  %50 = load i64, ptr %49, align 8
  %51 = getelementptr inbounds i8, ptr %3, i64 %50
  store ptr %48, ptr %51, align 8, !tbaa !5
  %52 = getelementptr inbounds %"class.std::basic_istream", ptr %3, i64 0, i32 1
  store i64 0, ptr %52, align 8, !tbaa !27
  %53 = getelementptr inbounds i8, ptr %3, i64 120
  call void @_ZNSt8ios_baseD2Ev(ptr noundef nonnull align 8 dereferenceable(264) %53)
  call void @llvm.lifetime.end.p0(i64 384, ptr nonnull %3) #29
  ret i1 %29

54:                                               ; preds = %26
  call void @llvm.lifetime.end.p0(i64 384, ptr nonnull %3) #29
  resume { ptr, i32 } %27

55:                                               ; preds = %26
  %56 = landingpad { ptr, i32 }
          catch ptr null
  %57 = extractvalue { ptr, i32 } %56, 0
  call void @__clang_call_terminate(ptr %57) #28
  unreachable
}

; Function Attrs: sspstrong uwtable
define dso_local void @_ZNK6dealii8Patterns6Double11descriptionB5cxx11Ev(ptr noalias sret(%"class.std::__cxx11::basic_string") align 8 %0, ptr nocapture noundef nonnull readonly align 8 dereferenceable(24) %1) unnamed_addr #5 align 2 personality ptr @__gxx_personality_v0 {
  %3 = alloca %"class.std::__cxx11::basic_ostringstream", align 8
  %4 = getelementptr inbounds %"class.dealii::Patterns::Double", ptr %1, i64 0, i32 1
  %5 = load double, ptr %4, align 8, !tbaa !41
  %6 = getelementptr inbounds %"class.dealii::Patterns::Double", ptr %1, i64 0, i32 2
  %7 = load double, ptr %6, align 8, !tbaa !44
  %8 = fcmp ugt double %5, %7
  br i1 %8, label %74, label %9

9:                                                ; preds = %2
  call void @llvm.lifetime.start.p0(i64 376, ptr nonnull %3) #29
  call void @_ZNSt7__cxx1119basic_ostringstreamIcSt11char_traitsIcESaIcEEC1Ev(ptr noundef nonnull align 8 dereferenceable(112) %3)
  %10 = invoke noundef nonnull align 8 dereferenceable(8) ptr @_ZSt16__ostream_insertIcSt11char_traitsIcEERSt13basic_ostreamIT_T0_ES6_PKS3_l(ptr noundef nonnull align 8 dereferenceable(8) %3, ptr noundef nonnull @.str.7, i64 noundef 22)
          to label %11 unwind label %69

11:                                               ; preds = %9
  %12 = load double, ptr %4, align 8, !tbaa !41
  %13 = invoke noundef nonnull align 8 dereferenceable(8) ptr @_ZNSo9_M_insertIdEERSoT_(ptr noundef nonnull align 8 dereferenceable(8) %3, double noundef %12)
          to label %14 unwind label %69

14:                                               ; preds = %11
  %15 = invoke noundef nonnull align 8 dereferenceable(8) ptr @_ZSt16__ostream_insertIcSt11char_traitsIcEERSt13basic_ostreamIT_T0_ES6_PKS3_l(ptr noundef nonnull align 8 dereferenceable(8) %13, ptr noundef nonnull @.str.2, i64 noundef 3)
          to label %16 unwind label %69

16:                                               ; preds = %14
  %17 = load double, ptr %6, align 8, !tbaa !44
  %18 = invoke noundef nonnull align 8 dereferenceable(8) ptr @_ZNSo9_M_insertIdEERSoT_(ptr noundef nonnull align 8 dereferenceable(8) %13, double noundef %17)
          to label %19 unwind label %69

19:                                               ; preds = %16
  %20 = invoke noundef nonnull align 8 dereferenceable(8) ptr @_ZSt16__ostream_insertIcSt11char_traitsIcEERSt13basic_ostreamIT_T0_ES6_PKS3_l(ptr noundef nonnull align 8 dereferenceable(8) %18, ptr noundef nonnull @.str.3, i64 noundef 13)
          to label %21 unwind label %69

21:                                               ; preds = %19
  call void @llvm.experimental.noalias.scope.decl(metadata !46)
  call void @llvm.experimental.noalias.scope.decl(metadata !49)
  %22 = getelementptr inbounds %"class.std::__cxx11::basic_string", ptr %0, i64 0, i32 2
  store ptr %22, ptr %0, align 8, !tbaa !35, !alias.scope !52
  %23 = getelementptr inbounds %"class.std::__cxx11::basic_string", ptr %0, i64 0, i32 1
  store i64 0, ptr %23, align 8, !tbaa !26, !alias.scope !52
  store i8 0, ptr %22, align 8, !tbaa !37, !alias.scope !52
  %24 = getelementptr inbounds %"class.std::__cxx11::basic_ostringstream", ptr %3, i64 0, i32 1, i32 0, i32 5
  %25 = load ptr, ptr %24, align 8, !tbaa !38, !noalias !52
  %26 = icmp eq ptr %25, null
  %27 = getelementptr inbounds %"class.std::__cxx11::basic_ostringstream", ptr %3, i64 0, i32 1, i32 0, i32 3
  %28 = load ptr, ptr %27, align 8, !noalias !52
  %29 = icmp ugt ptr %25, %28
  %30 = select i1 %29, ptr %25, ptr %28
  %31 = icmp eq ptr %30, null
  %32 = select i1 %26, i1 true, i1 %31
  br i1 %32, label %48, label %33

33:                                               ; preds = %21
  %34 = getelementptr inbounds %"class.std::__cxx11::basic_ostringstream", ptr %3, i64 0, i32 1, i32 0, i32 4
  %35 = load ptr, ptr %34, align 8, !tbaa !40, !noalias !52
  %36 = ptrtoint ptr %30 to i64
  %37 = ptrtoint ptr %35 to i64
  %38 = sub i64 %36, %37
  %39 = invoke noundef nonnull align 8 dereferenceable(32) ptr @_ZNSt7__cxx1112basic_stringIcSt11char_traitsIcESaIcEE10_M_replaceEmmPKcm(ptr noundef nonnull align 8 dereferenceable(32) %0, i64 noundef 0, i64 noundef 0, ptr noundef %35, i64 noundef %38)
          to label %50 unwind label %40

40:                                               ; preds = %48, %33
  %41 = landingpad { ptr, i32 }
          cleanup
  %42 = load ptr, ptr %0, align 8, !tbaa !23, !alias.scope !52
  %43 = icmp eq ptr %42, %22
  br i1 %43, label %44, label %47

44:                                               ; preds = %40
  %45 = load i64, ptr %23, align 8, !tbaa !26, !alias.scope !52
  %46 = icmp ult i64 %45, 16
  call void @llvm.assume(i1 %46)
  br label %71

47:                                               ; preds = %40
  call void @_ZdlPv(ptr noundef %42) #30
  br label %71

48:                                               ; preds = %21
  %49 = getelementptr inbounds %"class.std::__cxx11::basic_ostringstream", ptr %3, i64 0, i32 1, i32 2
  invoke void @_ZNSt7__cxx1112basic_stringIcSt11char_traitsIcESaIcEE9_M_assignERKS4_(ptr noundef nonnull align 8 dereferenceable(32) %0, ptr noundef nonnull align 8 dereferenceable(32) %49)
          to label %50 unwind label %40

50:                                               ; preds = %48, %33
  %51 = load ptr, ptr @_ZTTNSt7__cxx1119basic_ostringstreamIcSt11char_traitsIcESaIcEEE, align 8
  store ptr %51, ptr %3, align 8, !tbaa !5
  %52 = load ptr, ptr getelementptr inbounds ([4 x ptr], ptr @_ZTTNSt7__cxx1119basic_ostringstreamIcSt11char_traitsIcESaIcEEE, i64 0, i64 3), align 8
  %53 = getelementptr i8, ptr %51, i64 -24
  %54 = load i64, ptr %53, align 8
  %55 = getelementptr inbounds i8, ptr %3, i64 %54
  store ptr %52, ptr %55, align 8, !tbaa !5
  %56 = getelementptr inbounds %"class.std::__cxx11::basic_ostringstream", ptr %3, i64 0, i32 1
  store ptr getelementptr inbounds ({ [16 x ptr] }, ptr @_ZTVNSt7__cxx1115basic_stringbufIcSt11char_traitsIcESaIcEEE, i64 0, inrange i32 0, i64 2), ptr %56, align 8, !tbaa !5
  %57 = getelementptr inbounds %"class.std::__cxx11::basic_ostringstream", ptr %3, i64 0, i32 1, i32 2
  %58 = load ptr, ptr %57, align 8, !tbaa !23
  %59 = getelementptr inbounds %"class.std::__cxx11::basic_ostringstream", ptr %3, i64 0, i32 1, i32 2, i32 2
  %60 = icmp eq ptr %58, %59
  br i1 %60, label %61, label %65

61:                                               ; preds = %50
  %62 = getelementptr inbounds %"class.std::__cxx11::basic_ostringstream", ptr %3, i64 0, i32 1, i32 2, i32 1
  %63 = load i64, ptr %62, align 8, !tbaa !26
  %64 = icmp ult i64 %63, 16
  call void @llvm.assume(i1 %64)
  br label %66

65:                                               ; preds = %50
  call void @_ZdlPv(ptr noundef %58) #30
  br label %66

66:                                               ; preds = %61, %65
  store ptr getelementptr inbounds ({ [16 x ptr] }, ptr @_ZTVSt15basic_streambufIcSt11char_traitsIcEE, i64 0, inrange i32 0, i64 2), ptr %56, align 8, !tbaa !5
  %67 = getelementptr inbounds %"class.std::__cxx11::basic_ostringstream", ptr %3, i64 0, i32 1, i32 0, i32 7
  call void @_ZNSt6localeD1Ev(ptr noundef nonnull align 8 dereferenceable(8) %67) #29
  %68 = getelementptr inbounds i8, ptr %3, i64 112
  call void @_ZNSt8ios_baseD2Ev(ptr noundef nonnull align 8 dereferenceable(264) %68)
  call void @llvm.lifetime.end.p0(i64 376, ptr nonnull %3) #29
  br label %78

69:                                               ; preds = %19, %16, %14, %11, %9
  %70 = landingpad { ptr, i32 }
          cleanup
  br label %71

71:                                               ; preds = %44, %47, %69
  %72 = phi { ptr, i32 } [ %70, %69 ], [ %41, %47 ], [ %41, %44 ]
  invoke void @_ZNSt7__cxx1119basic_ostringstreamIcSt11char_traitsIcESaIcEED1Ev(ptr noundef nonnull align 8 dereferenceable(112) %3)
          to label %73 unwind label %79

73:                                               ; preds = %71
  call void @llvm.lifetime.end.p0(i64 376, ptr nonnull %3) #29
  resume { ptr, i32 } %72

74:                                               ; preds = %2
  %75 = getelementptr inbounds %"class.std::__cxx11::basic_string", ptr %0, i64 0, i32 2
  store ptr %75, ptr %0, align 8, !tbaa !35
  store i64 6729904388307895387, ptr %75, align 8
  %76 = getelementptr inbounds %"class.std::__cxx11::basic_string", ptr %0, i64 0, i32 1
  store i64 8, ptr %76, align 8, !tbaa !26
  %77 = getelementptr inbounds %"class.std::__cxx11::basic_string", ptr %0, i64 0, i32 2, i32 1
  store i8 0, ptr %77, align 8, !tbaa !37
  br label %78

78:                                               ; preds = %74, %66
  ret void

79:                                               ; preds = %71
  %80 = landingpad { ptr, i32 }
          catch ptr null
  %81 = extractvalue { ptr, i32 } %80, 0
  call void @__clang_call_terminate(ptr %81) #28
  unreachable
}

; Function Attrs: sspstrong uwtable
define dso_local noalias noundef nonnull ptr @_ZNK6dealii8Patterns6Double5cloneEv(ptr nocapture noundef nonnull readonly align 8 dereferenceable(24) %0) unnamed_addr #5 align 2 personality ptr @__gxx_personality_v0 {
  %2 = tail call noalias noundef nonnull dereferenceable(24) ptr @_Znwm(i64 noundef 24) #31
  %3 = getelementptr inbounds %"class.dealii::Patterns::Double", ptr %0, i64 0, i32 1
  store ptr getelementptr inbounds ({ [8 x ptr] }, ptr @_ZTVN6dealii8Patterns6DoubleE, i64 0, inrange i32 0, i64 2), ptr %2, align 8, !tbaa !5
  %4 = getelementptr inbounds %"class.dealii::Patterns::Double", ptr %2, i64 0, i32 1
  %5 = load <2 x double>, ptr %3, align 8, !tbaa !45
  store <2 x double> %5, ptr %4, align 8, !tbaa !45
  ret ptr %2
}

; Function Attrs: sspstrong uwtable
define dso_local void @_ZN6dealii8Patterns9SelectionC2ERKNSt7__cxx1112basic_stringIcSt11char_traitsIcESaIcEEE(ptr noundef nonnull align 8 dereferenceable(40) %0, ptr noundef nonnull align 8 dereferenceable(32) %1) unnamed_addr #5 align 2 personality ptr @__gxx_personality_v0 {
  store ptr getelementptr inbounds ({ [8 x ptr] }, ptr @_ZTVN6dealii8Patterns9SelectionE, i64 0, inrange i32 0, i64 2), ptr %0, align 8, !tbaa !5
  %3 = getelementptr inbounds %"class.dealii::Patterns::Selection", ptr %0, i64 0, i32 1
  %4 = getelementptr inbounds %"class.dealii::Patterns::Selection", ptr %0, i64 0, i32 1, i32 2
  store ptr %4, ptr %3, align 8, !tbaa !35
  %5 = getelementptr inbounds %"class.dealii::Patterns::Selection", ptr %0, i64 0, i32 1, i32 1
  store i64 0, ptr %5, align 8, !tbaa !26
  store i8 0, ptr %4, align 8, !tbaa !37
  invoke void @_ZNSt7__cxx1112basic_stringIcSt11char_traitsIcESaIcEE9_M_assignERKS4_(ptr noundef nonnull align 8 dereferenceable(32) %3, ptr noundef nonnull align 8 dereferenceable(32) %1)
          to label %6 unwind label %23

6:                                                ; preds = %2, %15
  %7 = invoke noundef i64 @_ZNKSt7__cxx1112basic_stringIcSt11char_traitsIcESaIcEE4findEPKcmm(ptr noundef nonnull align 8 dereferenceable(32) %3, ptr noundef nonnull @.str.9, i64 noundef 0, i64 noundef 2)
          to label %8 unwind label %21

8:                                                ; preds = %6
  %9 = icmp eq i64 %7, -1
  br i1 %9, label %33, label %10

10:                                               ; preds = %8
  %11 = invoke noundef i64 @_ZNKSt7__cxx1112basic_stringIcSt11char_traitsIcESaIcEE4findEPKcmm(ptr noundef nonnull align 8 dereferenceable(32) %3, ptr noundef nonnull @.str.9, i64 noundef 0, i64 noundef 2)
          to label %12 unwind label %21

12:                                               ; preds = %10
  %13 = load i64, ptr %5, align 8, !tbaa !26
  %14 = icmp ult i64 %13, %11
  br i1 %14, label %42, label %15

15:                                               ; preds = %12
  %16 = sub i64 %13, %11
  %17 = tail call i64 @llvm.umin.i64(i64 %16, i64 2)
  %18 = invoke noundef nonnull align 8 dereferenceable(32) ptr @_ZNSt7__cxx1112basic_stringIcSt11char_traitsIcESaIcEE10_M_replaceEmmPKcm(ptr noundef nonnull align 8 dereferenceable(32) %3, i64 noundef %11, i64 noundef %17, ptr noundef nonnull @.str.10, i64 noundef 1)
          to label %6 unwind label %21

19:                                               ; preds = %33, %37, %46
  %20 = landingpad { ptr, i32 }
          cleanup
  br label %25

21:                                               ; preds = %15, %10, %6
  %22 = landingpad { ptr, i32 }
          cleanup
  br label %25

23:                                               ; preds = %42, %2
  %24 = landingpad { ptr, i32 }
          cleanup
  br label %25

25:                                               ; preds = %21, %23, %19
  %26 = phi { ptr, i32 } [ %20, %19 ], [ %22, %21 ], [ %24, %23 ]
  %27 = load ptr, ptr %3, align 8, !tbaa !23
  %28 = icmp eq ptr %27, %4
  br i1 %28, label %29, label %32

29:                                               ; preds = %25
  %30 = load i64, ptr %5, align 8, !tbaa !26
  %31 = icmp ult i64 %30, 16
  tail call void @llvm.assume(i1 %31)
  br label %51

32:                                               ; preds = %25
  tail call void @_ZdlPv(ptr noundef %27) #30
  br label %51

33:                                               ; preds = %8, %46
  %34 = invoke noundef i64 @_ZNKSt7__cxx1112basic_stringIcSt11char_traitsIcESaIcEE4findEPKcmm(ptr noundef nonnull align 8 dereferenceable(32) %3, ptr noundef nonnull @.str.11, i64 noundef 0, i64 noundef 2)
          to label %35 unwind label %19

35:                                               ; preds = %33
  %36 = icmp eq i64 %34, -1
  br i1 %36, label %50, label %37

37:                                               ; preds = %35
  %38 = invoke noundef i64 @_ZNKSt7__cxx1112basic_stringIcSt11char_traitsIcESaIcEE4findEPKcmm(ptr noundef nonnull align 8 dereferenceable(32) %3, ptr noundef nonnull @.str.11, i64 noundef 0, i64 noundef 2)
          to label %39 unwind label %19

39:                                               ; preds = %37
  %40 = load i64, ptr %5, align 8, !tbaa !26
  %41 = icmp ult i64 %40, %38
  br i1 %41, label %42, label %46

42:                                               ; preds = %12, %39
  %43 = phi i64 [ %38, %39 ], [ %11, %12 ]
  %44 = phi i64 [ %40, %39 ], [ %13, %12 ]
  invoke void (ptr, ...) @_ZSt24__throw_out_of_range_fmtPKcz(ptr noundef nonnull @.str.94, ptr noundef nonnull @.str.93, i64 noundef %43, i64 noundef %44) #32
          to label %45 unwind label %23

45:                                               ; preds = %42
  unreachable

46:                                               ; preds = %39
  %47 = sub i64 %40, %38
  %48 = tail call i64 @llvm.umin.i64(i64 %47, i64 2)
  %49 = invoke noundef nonnull align 8 dereferenceable(32) ptr @_ZNSt7__cxx1112basic_stringIcSt11char_traitsIcESaIcEE10_M_replaceEmmPKcm(ptr noundef nonnull align 8 dereferenceable(32) %3, i64 noundef %38, i64 noundef %48, ptr noundef nonnull @.str.10, i64 noundef 1)
          to label %33 unwind label %19

50:                                               ; preds = %35
  ret void

51:                                               ; preds = %32, %29
  resume { ptr, i32 } %26
}

; Function Attrs: sspstrong uwtable
declare void @_ZNSt7__cxx1112basic_stringIcSt11char_traitsIcESaIcEED2Ev(ptr noundef nonnull align 8 dereferenceable(32)) unnamed_addr #5 align 2

; Function Attrs: sspstrong uwtable
define dso_local noundef zeroext i1 @_ZNK6dealii8Patterns9Selection5matchERKNSt7__cxx1112basic_stringIcSt11char_traitsIcESaIcEEE(ptr nocapture noundef nonnull readonly align 8 dereferenceable(40) %0, ptr nocapture noundef nonnull readonly align 8 dereferenceable(32) %1) unnamed_addr #5 align 2 personality ptr @__gxx_personality_v0 {
  %3 = alloca i64, align 8
  %4 = alloca i64, align 8
  %5 = alloca %"class.std::vector", align 8
  %6 = alloca %"class.std::__cxx11::basic_string", align 8
  %7 = alloca %"class.std::__cxx11::basic_string", align 8
  call void @llvm.lifetime.start.p0(i64 24, ptr nonnull %5) #29
  call void @llvm.memset.p0.i64(ptr noundef nonnull align 8 dereferenceable(24) %5, i8 0, i64 24, i1 false)
  call void @llvm.lifetime.start.p0(i64 32, ptr nonnull %6) #29
  %8 = getelementptr inbounds %"class.dealii::Patterns::Selection", ptr %0, i64 0, i32 1
  %9 = getelementptr inbounds %"class.std::__cxx11::basic_string", ptr %6, i64 0, i32 2
  store ptr %9, ptr %6, align 8, !tbaa !35
  %10 = load ptr, ptr %8, align 8, !tbaa !23
  %11 = getelementptr inbounds %"class.dealii::Patterns::Selection", ptr %0, i64 0, i32 1, i32 1
  %12 = load i64, ptr %11, align 8, !tbaa !26
  call void @llvm.lifetime.start.p0(i64 8, ptr nonnull %4) #29
  store i64 %12, ptr %4, align 8, !tbaa !53
  %13 = icmp ugt i64 %12, 15
  br i1 %13, label %14, label %18

14:                                               ; preds = %2
  %15 = invoke noundef ptr @_ZNSt7__cxx1112basic_stringIcSt11char_traitsIcESaIcEE9_M_createERmm(ptr noundef nonnull align 8 dereferenceable(32) %6, ptr noundef nonnull align 8 dereferenceable(8) %4, i64 noundef 0)
          to label %16 unwind label %75

16:                                               ; preds = %14
  store ptr %15, ptr %6, align 8, !tbaa !23
  %17 = load i64, ptr %4, align 8, !tbaa !53
  store i64 %17, ptr %9, align 8, !tbaa !37
  br label %18

18:                                               ; preds = %16, %2
  %19 = phi ptr [ %15, %16 ], [ %9, %2 ]
  switch i64 %12, label %22 [
    i64 1, label %20
    i64 0, label %23
  ]

20:                                               ; preds = %18
  %21 = load i8, ptr %10, align 1, !tbaa !37
  store i8 %21, ptr %19, align 1, !tbaa !37
  br label %23

22:                                               ; preds = %18
  call void @llvm.memcpy.p0.p0.i64(ptr align 1 %19, ptr align 1 %10, i64 %12, i1 false)
  br label %23

23:                                               ; preds = %18, %20, %22
  %24 = load i64, ptr %4, align 8, !tbaa !53
  %25 = getelementptr inbounds %"class.std::__cxx11::basic_string", ptr %6, i64 0, i32 1
  store i64 %24, ptr %25, align 8, !tbaa !26
  %26 = load ptr, ptr %6, align 8, !tbaa !23
  %27 = getelementptr inbounds i8, ptr %26, i64 %24
  store i8 0, ptr %27, align 1, !tbaa !37
  call void @llvm.lifetime.end.p0(i64 8, ptr nonnull %4) #29
  %28 = getelementptr inbounds %"class.std::__cxx11::basic_string", ptr %7, i64 0, i32 2
  %29 = getelementptr inbounds %"class.std::__cxx11::basic_string", ptr %7, i64 0, i32 1
  %30 = getelementptr inbounds %"class.std::__cxx11::basic_string", ptr %1, i64 0, i32 1
  br label %31

31:                                               ; preds = %90, %23
  %32 = invoke noundef i64 @_ZNKSt7__cxx1112basic_stringIcSt11char_traitsIcESaIcEE4findEcm(ptr noundef nonnull align 8 dereferenceable(32) %6, i8 noundef signext 124, i64 noundef 0)
          to label %33 unwind label %77

33:                                               ; preds = %31
  %34 = icmp eq i64 %32, -1
  br i1 %34, label %91, label %35

35:                                               ; preds = %33
  call void @llvm.lifetime.start.p0(i64 32, ptr nonnull %7) #29
  %36 = invoke noundef i64 @_ZNKSt7__cxx1112basic_stringIcSt11char_traitsIcESaIcEE4findEcm(ptr noundef nonnull align 8 dereferenceable(32) %6, i8 noundef signext 124, i64 noundef 0)
          to label %37 unwind label %79

37:                                               ; preds = %35
  store ptr %28, ptr %7, align 8, !tbaa !35
  %38 = load i64, ptr %25, align 8, !tbaa !26
  %39 = load ptr, ptr %6, align 8, !tbaa !23
  %40 = call i64 @llvm.umin.i64(i64 %38, i64 %36)
  call void @llvm.lifetime.start.p0(i64 8, ptr nonnull %3) #29
  store i64 %40, ptr %3, align 8, !tbaa !53
  %41 = icmp ugt i64 %40, 15
  br i1 %41, label %42, label %46

42:                                               ; preds = %37
  %43 = invoke noundef ptr @_ZNSt7__cxx1112basic_stringIcSt11char_traitsIcESaIcEE9_M_createERmm(ptr noundef nonnull align 8 dereferenceable(32) %7, ptr noundef nonnull align 8 dereferenceable(8) %3, i64 noundef 0)
          to label %44 unwind label %79

44:                                               ; preds = %42
  store ptr %43, ptr %7, align 8, !tbaa !23
  %45 = load i64, ptr %3, align 8, !tbaa !53
  store i64 %45, ptr %28, align 8, !tbaa !37
  br label %46

46:                                               ; preds = %44, %37
  %47 = phi ptr [ %43, %44 ], [ %28, %37 ]
  switch i64 %40, label %50 [
    i64 1, label %48
    i64 0, label %51
  ]

48:                                               ; preds = %46
  %49 = load i8, ptr %39, align 1, !tbaa !37
  store i8 %49, ptr %47, align 1, !tbaa !37
  br label %51

50:                                               ; preds = %46
  call void @llvm.memcpy.p0.p0.i64(ptr align 1 %47, ptr align 1 %39, i64 %40, i1 false)
  br label %51

51:                                               ; preds = %50, %48, %46
  %52 = load i64, ptr %3, align 8, !tbaa !53
  store i64 %52, ptr %29, align 8, !tbaa !26
  %53 = load ptr, ptr %7, align 8, !tbaa !23
  %54 = getelementptr inbounds i8, ptr %53, i64 %52
  store i8 0, ptr %54, align 1, !tbaa !37
  call void @llvm.lifetime.end.p0(i64 8, ptr nonnull %3) #29
  %55 = load i64, ptr %30, align 8, !tbaa !26
  %56 = load i64, ptr %29, align 8, !tbaa !26
  %57 = icmp eq i64 %55, %56
  br i1 %57, label %60, label %58

58:                                               ; preds = %51
  %59 = load ptr, ptr %7, align 8, !tbaa !23
  br label %67

60:                                               ; preds = %51
  %61 = icmp eq i64 %55, 0
  %62 = load ptr, ptr %7, align 8, !tbaa !23
  br i1 %61, label %67, label %63

63:                                               ; preds = %60
  %64 = load ptr, ptr %1, align 8, !tbaa !23
  %65 = call i32 @bcmp(ptr %64, ptr %62, i64 %55)
  %66 = icmp eq i32 %65, 0
  br label %67

67:                                               ; preds = %58, %63, %60
  %68 = phi ptr [ %59, %58 ], [ %62, %63 ], [ %62, %60 ]
  %69 = phi i1 [ false, %58 ], [ %66, %63 ], [ true, %60 ]
  %70 = icmp eq ptr %68, %28
  br i1 %70, label %71, label %73

71:                                               ; preds = %67
  %72 = icmp ult i64 %56, 16
  call void @llvm.assume(i1 %72)
  br label %74

73:                                               ; preds = %67
  call void @_ZdlPv(ptr noundef %68) #30
  br label %74

74:                                               ; preds = %73, %71
  call void @llvm.lifetime.end.p0(i64 32, ptr nonnull %7) #29
  br i1 %69, label %102, label %81

75:                                               ; preds = %14
  %76 = landingpad { ptr, i32 }
          cleanup
  br label %140

77:                                               ; preds = %86, %81, %31
  %78 = landingpad { ptr, i32 }
          cleanup
  br label %132

79:                                               ; preds = %42, %35
  %80 = landingpad { ptr, i32 }
          cleanup
  call void @llvm.lifetime.end.p0(i64 32, ptr nonnull %7) #29
  br label %132

81:                                               ; preds = %74
  %82 = invoke noundef i64 @_ZNKSt7__cxx1112basic_stringIcSt11char_traitsIcESaIcEE4findEcm(ptr noundef nonnull align 8 dereferenceable(32) %6, i8 noundef signext 124, i64 noundef 0)
          to label %83 unwind label %77

83:                                               ; preds = %81
  switch i64 %82, label %86 [
    i64 -2, label %84
    i64 -1, label %90
  ]

84:                                               ; preds = %83
  store i64 0, ptr %25, align 8, !tbaa !26
  %85 = load ptr, ptr %6, align 8, !tbaa !23
  store i8 0, ptr %85, align 1, !tbaa !37
  br label %90

86:                                               ; preds = %83
  %87 = add nuw i64 %82, 1
  %88 = load i64, ptr %25, align 8, !tbaa !26
  %89 = call i64 @llvm.umin.i64(i64 %88, i64 %87)
  invoke void @_ZNSt7__cxx1112basic_stringIcSt11char_traitsIcESaIcEE8_M_eraseEmm(ptr noundef nonnull align 8 dereferenceable(32) %6, i64 noundef 0, i64 noundef %89)
          to label %90 unwind label %77

90:                                               ; preds = %86, %83, %84
  br label %31

91:                                               ; preds = %33
  %92 = load i64, ptr %30, align 8, !tbaa !26
  %93 = load i64, ptr %25, align 8, !tbaa !26
  %94 = icmp eq i64 %92, %93
  br i1 %94, label %95, label %102

95:                                               ; preds = %91
  %96 = icmp eq i64 %92, 0
  br i1 %96, label %102, label %97

97:                                               ; preds = %95
  %98 = load ptr, ptr %6, align 8, !tbaa !23
  %99 = load ptr, ptr %1, align 8, !tbaa !23
  %100 = call i32 @bcmp(ptr %99, ptr %98, i64 %92)
  %101 = icmp eq i32 %100, 0
  br label %102

102:                                              ; preds = %74, %91, %95, %97
  %103 = phi i1 [ false, %91 ], [ %101, %97 ], [ true, %95 ], [ true, %74 ]
  %104 = load ptr, ptr %6, align 8, !tbaa !23
  %105 = icmp eq ptr %104, %9
  br i1 %105, label %106, label %109

106:                                              ; preds = %102
  %107 = load i64, ptr %25, align 8, !tbaa !26
  %108 = icmp ult i64 %107, 16
  call void @llvm.assume(i1 %108)
  br label %110

109:                                              ; preds = %102
  call void @_ZdlPv(ptr noundef %104) #30
  br label %110

110:                                              ; preds = %109, %106
  call void @llvm.lifetime.end.p0(i64 32, ptr nonnull %6) #29
  %111 = load ptr, ptr %5, align 8, !tbaa !54
  %112 = getelementptr inbounds %"struct.std::_Vector_base<std::__cxx11::basic_string<char>, std::allocator<std::__cxx11::basic_string<char> > >::_Vector_impl_data", ptr %5, i64 0, i32 1
  %113 = load ptr, ptr %112, align 8, !tbaa !56
  %114 = icmp eq ptr %111, %113
  br i1 %114, label %128, label %115

115:                                              ; preds = %110, %125
  %116 = phi ptr [ %126, %125 ], [ %111, %110 ]
  %117 = load ptr, ptr %116, align 8, !tbaa !23
  %118 = getelementptr inbounds %"class.std::__cxx11::basic_string", ptr %116, i64 0, i32 2
  %119 = icmp eq ptr %117, %118
  br i1 %119, label %120, label %124

120:                                              ; preds = %115
  %121 = getelementptr inbounds %"class.std::__cxx11::basic_string", ptr %116, i64 0, i32 1
  %122 = load i64, ptr %121, align 8, !tbaa !26
  %123 = icmp ult i64 %122, 16
  call void @llvm.assume(i1 %123)
  br label %125

124:                                              ; preds = %115
  call void @_ZdlPv(ptr noundef %117) #30
  br label %125

125:                                              ; preds = %124, %120
  %126 = getelementptr inbounds %"class.std::__cxx11::basic_string", ptr %116, i64 1
  %127 = icmp eq ptr %126, %113
  br i1 %127, label %128, label %115

128:                                              ; preds = %125, %110
  %129 = icmp eq ptr %111, null
  br i1 %129, label %131, label %130

130:                                              ; preds = %128
  call void @_ZdlPv(ptr noundef nonnull %111) #30
  br label %131

131:                                              ; preds = %128, %130
  call void @llvm.lifetime.end.p0(i64 24, ptr nonnull %5) #29
  ret i1 %103

132:                                              ; preds = %79, %77
  %133 = phi { ptr, i32 } [ %78, %77 ], [ %80, %79 ]
  %134 = load ptr, ptr %6, align 8, !tbaa !23
  %135 = icmp eq ptr %134, %9
  br i1 %135, label %136, label %139

136:                                              ; preds = %132
  %137 = load i64, ptr %25, align 8, !tbaa !26
  %138 = icmp ult i64 %137, 16
  call void @llvm.assume(i1 %138)
  br label %140

139:                                              ; preds = %132
  call void @_ZdlPv(ptr noundef %134) #30
  br label %140

140:                                              ; preds = %139, %136, %75
  %141 = phi { ptr, i32 } [ %76, %75 ], [ %133, %136 ], [ %133, %139 ]
  call void @llvm.lifetime.end.p0(i64 32, ptr nonnull %6) #29
  invoke void @_ZNSt6vectorINSt7__cxx1112basic_stringIcSt11char_traitsIcESaIcEEESaIS5_EED2Ev(ptr noundef nonnull align 8 dereferenceable(24) %5)
          to label %142 unwind label %143

142:                                              ; preds = %140
  call void @llvm.lifetime.end.p0(i64 24, ptr nonnull %5) #29
  resume { ptr, i32 } %141

143:                                              ; preds = %140
  %144 = landingpad { ptr, i32 }
          catch ptr null
  %145 = extractvalue { ptr, i32 } %144, 0
  call void @__clang_call_terminate(ptr %145) #28
  unreachable
}

declare noundef i64 @_ZNKSt7__cxx1112basic_stringIcSt11char_traitsIcESaIcEE4findEcm(ptr noundef nonnull align 8 dereferenceable(32), i8 noundef signext, i64 noundef) local_unnamed_addr #7

; Function Attrs: sspstrong uwtable
define linkonce_odr dso_local void @_ZNSt6vectorINSt7__cxx1112basic_stringIcSt11char_traitsIcESaIcEEESaIS5_EED2Ev(ptr noundef nonnull align 8 dereferenceable(24) %0) unnamed_addr #5 comdat align 2 personality ptr @__gxx_personality_v0 {
  %2 = load ptr, ptr %0, align 8, !tbaa !54
  %3 = getelementptr inbounds %"struct.std::_Vector_base<std::__cxx11::basic_string<char>, std::allocator<std::__cxx11::basic_string<char> > >::_Vector_impl_data", ptr %0, i64 0, i32 1
  %4 = load ptr, ptr %3, align 8, !tbaa !56
  %5 = icmp eq ptr %2, %4
  br i1 %5, label %21, label %6

6:                                                ; preds = %1, %16
  %7 = phi ptr [ %17, %16 ], [ %2, %1 ]
  %8 = load ptr, ptr %7, align 8, !tbaa !23
  %9 = getelementptr inbounds %"class.std::__cxx11::basic_string", ptr %7, i64 0, i32 2
  %10 = icmp eq ptr %8, %9
  br i1 %10, label %11, label %15

11:                                               ; preds = %6
  %12 = getelementptr inbounds %"class.std::__cxx11::basic_string", ptr %7, i64 0, i32 1
  %13 = load i64, ptr %12, align 8, !tbaa !26
  %14 = icmp ult i64 %13, 16
  tail call void @llvm.assume(i1 %14)
  br label %16

15:                                               ; preds = %6
  tail call void @_ZdlPv(ptr noundef %8) #30
  br label %16

16:                                               ; preds = %15, %11
  %17 = getelementptr inbounds %"class.std::__cxx11::basic_string", ptr %7, i64 1
  %18 = icmp eq ptr %17, %4
  br i1 %18, label %19, label %6

19:                                               ; preds = %16
  %20 = load ptr, ptr %0, align 8, !tbaa !54
  br label %21

21:                                               ; preds = %19, %1
  %22 = phi ptr [ %20, %19 ], [ %2, %1 ]
  %23 = icmp eq ptr %22, null
  br i1 %23, label %25, label %24

24:                                               ; preds = %21
  tail call void @_ZdlPv(ptr noundef nonnull %22) #30
  br label %25

25:                                               ; preds = %21, %24
  ret void
}

; Function Attrs: sspstrong uwtable
define dso_local void @_ZNK6dealii8Patterns9Selection11descriptionB5cxx11Ev(ptr noalias sret(%"class.std::__cxx11::basic_string") align 8 %0, ptr nocapture noundef nonnull readonly align 8 dereferenceable(40) %1) unnamed_addr #5 align 2 personality ptr @__gxx_personality_v0 {
  %3 = alloca i64, align 8
  %4 = getelementptr inbounds %"class.dealii::Patterns::Selection", ptr %1, i64 0, i32 1
  %5 = getelementptr inbounds %"class.std::__cxx11::basic_string", ptr %0, i64 0, i32 2
  store ptr %5, ptr %0, align 8, !tbaa !35
  %6 = load ptr, ptr %4, align 8, !tbaa !23
  %7 = getelementptr inbounds %"class.dealii::Patterns::Selection", ptr %1, i64 0, i32 1, i32 1
  %8 = load i64, ptr %7, align 8, !tbaa !26
  call void @llvm.lifetime.start.p0(i64 8, ptr nonnull %3) #29
  store i64 %8, ptr %3, align 8, !tbaa !53
  %9 = icmp ugt i64 %8, 15
  br i1 %9, label %10, label %13

10:                                               ; preds = %2
  %11 = call noundef ptr @_ZNSt7__cxx1112basic_stringIcSt11char_traitsIcESaIcEE9_M_createERmm(ptr noundef nonnull align 8 dereferenceable(32) %0, ptr noundef nonnull align 8 dereferenceable(8) %3, i64 noundef 0)
  store ptr %11, ptr %0, align 8, !tbaa !23
  %12 = load i64, ptr %3, align 8, !tbaa !53
  store i64 %12, ptr %5, align 8, !tbaa !37
  br label %13

13:                                               ; preds = %10, %2
  %14 = phi ptr [ %11, %10 ], [ %5, %2 ]
  switch i64 %8, label %17 [
    i64 1, label %15
    i64 0, label %18
  ]

15:                                               ; preds = %13
  %16 = load i8, ptr %6, align 1, !tbaa !37
  store i8 %16, ptr %14, align 1, !tbaa !37
  br label %18

17:                                               ; preds = %13
  call void @llvm.memcpy.p0.p0.i64(ptr align 1 %14, ptr align 1 %6, i64 %8, i1 false)
  br label %18

18:                                               ; preds = %13, %15, %17
  %19 = load i64, ptr %3, align 8, !tbaa !53
  %20 = getelementptr inbounds %"class.std::__cxx11::basic_string", ptr %0, i64 0, i32 1
  store i64 %19, ptr %20, align 8, !tbaa !26
  %21 = load ptr, ptr %0, align 8, !tbaa !23
  %22 = getelementptr inbounds i8, ptr %21, i64 %19
  store i8 0, ptr %22, align 1, !tbaa !37
  call void @llvm.lifetime.end.p0(i64 8, ptr nonnull %3) #29
  ret void
}

; Function Attrs: sspstrong uwtable
define dso_local noundef nonnull ptr @_ZNK6dealii8Patterns9Selection5cloneEv(ptr noundef nonnull align 8 dereferenceable(40) %0) unnamed_addr #5 align 2 personality ptr @__gxx_personality_v0 {
  %2 = tail call noalias noundef nonnull dereferenceable(40) ptr @_Znwm(i64 noundef 40) #31
  %3 = getelementptr inbounds %"class.dealii::Patterns::Selection", ptr %0, i64 0, i32 1
  invoke void @_ZN6dealii8Patterns9SelectionC2ERKNSt7__cxx1112basic_stringIcSt11char_traitsIcESaIcEEE(ptr noundef nonnull align 8 dereferenceable(40) %2, ptr noundef nonnull align 8 dereferenceable(32) %3)
          to label %4 unwind label %5

4:                                                ; preds = %1
  ret ptr %2

5:                                                ; preds = %1
  %6 = landingpad { ptr, i32 }
          cleanup
  tail call void @_ZdlPv(ptr noundef nonnull %2) #30
  resume { ptr, i32 } %6
}

; Function Attrs: mustprogress nofree norecurse nosync nounwind sspstrong willreturn memory(argmem: read) uwtable
define dso_local noundef i32 @_ZNK6dealii8Patterns9Selection18memory_consumptionEv(ptr nocapture noundef nonnull readonly align 8 dereferenceable(40) %0) unnamed_addr #11 align 2 {
  %2 = getelementptr inbounds %"class.dealii::Patterns::Selection", ptr %0, i64 0, i32 1, i32 1
  %3 = load i64, ptr %2, align 8, !tbaa !26
  %4 = trunc i64 %3 to i32
  %5 = add i32 %4, 40
  ret i32 %5
}

; Function Attrs: sspstrong uwtable
define dso_local void @_ZN6dealii8Patterns4ListC2ERKNS0_11PatternBaseEjj(ptr nocapture noundef nonnull writeonly align 8 dereferenceable(24) %0, ptr noundef nonnull align 8 dereferenceable(8) %1, i32 noundef %2, i32 noundef %3) unnamed_addr #5 align 2 personality ptr @__gxx_personality_v0 {
  store ptr getelementptr inbounds ({ [8 x ptr] }, ptr @_ZTVN6dealii8Patterns4ListE, i64 0, inrange i32 0, i64 2), ptr %0, align 8, !tbaa !5
  %5 = load ptr, ptr %1, align 8, !tbaa !5
  %6 = getelementptr inbounds ptr, ptr %5, i64 4
  %7 = load ptr, ptr %6, align 8
  %8 = tail call noundef ptr %7(ptr noundef nonnull align 8 dereferenceable(8) %1)
  %9 = getelementptr inbounds %"class.dealii::Patterns::List", ptr %0, i64 0, i32 1
  store ptr %8, ptr %9, align 8, !tbaa !57
  %10 = getelementptr inbounds %"class.dealii::Patterns::List", ptr %0, i64 0, i32 2
  store i32 %2, ptr %10, align 8, !tbaa !59
  %11 = getelementptr inbounds %"class.dealii::Patterns::List", ptr %0, i64 0, i32 3
  store i32 %3, ptr %11, align 4, !tbaa !60
  ret void
}

; Function Attrs: sspstrong uwtable
define dso_local void @_ZN6dealii8Patterns4ListD2Ev(ptr nocapture noundef nonnull align 8 dereferenceable(24) %0) unnamed_addr #5 align 2 personality ptr @__gxx_personality_v0 {
  store ptr getelementptr inbounds ({ [8 x ptr] }, ptr @_ZTVN6dealii8Patterns4ListE, i64 0, inrange i32 0, i64 2), ptr %0, align 8, !tbaa !5
  %2 = getelementptr inbounds %"class.dealii::Patterns::List", ptr %0, i64 0, i32 1
  %3 = load ptr, ptr %2, align 8, !tbaa !57
  %4 = icmp eq ptr %3, null
  br i1 %4, label %9, label %5

5:                                                ; preds = %1
  %6 = load ptr, ptr %3, align 8, !tbaa !5
  %7 = getelementptr inbounds ptr, ptr %6, i64 1
  %8 = load ptr, ptr %7, align 8
  tail call void %8(ptr noundef nonnull align 8 dereferenceable(8) %3)
  br label %9

9:                                                ; preds = %5, %1
  store ptr null, ptr %2, align 8, !tbaa !57
  ret void
}

; Function Attrs: sspstrong uwtable
define dso_local void @_ZN6dealii8Patterns4ListD0Ev(ptr noundef nonnull align 8 dereferenceable(24) %0) unnamed_addr #5 align 2 personality ptr @__gxx_personality_v0 {
  store ptr getelementptr inbounds ({ [8 x ptr] }, ptr @_ZTVN6dealii8Patterns4ListE, i64 0, inrange i32 0, i64 2), ptr %0, align 8, !tbaa !5
  %2 = getelementptr inbounds %"class.dealii::Patterns::List", ptr %0, i64 0, i32 1
  %3 = load ptr, ptr %2, align 8, !tbaa !57
  %4 = icmp eq ptr %3, null
  br i1 %4, label %9, label %5

5:                                                ; preds = %1
  %6 = load ptr, ptr %3, align 8, !tbaa !5
  %7 = getelementptr inbounds ptr, ptr %6, i64 1
  %8 = load ptr, ptr %7, align 8
  invoke void %8(ptr noundef nonnull align 8 dereferenceable(8) %3)
          to label %9 unwind label %10

9:                                                ; preds = %1, %5
  tail call void @_ZdlPv(ptr noundef nonnull %0) #30
  ret void

10:                                               ; preds = %5
  %11 = landingpad { ptr, i32 }
          cleanup
  tail call void @_ZdlPv(ptr noundef nonnull %0) #30
  resume { ptr, i32 } %11
}

; Function Attrs: sspstrong uwtable
define dso_local noundef zeroext i1 @_ZNK6dealii8Patterns4List5matchERKNSt7__cxx1112basic_stringIcSt11char_traitsIcESaIcEEE(ptr nocapture noundef nonnull readonly align 8 dereferenceable(24) %0, ptr nocapture noundef nonnull readonly align 8 dereferenceable(32) %1) unnamed_addr #5 align 2 personality ptr @__gxx_personality_v0 {
  %3 = alloca i64, align 8
  %4 = alloca i64, align 8
  %5 = alloca %"class.std::__cxx11::basic_string", align 8
  %6 = alloca %"class.std::vector", align 8
  %7 = alloca %"class.std::__cxx11::basic_string", align 8
  call void @llvm.lifetime.start.p0(i64 32, ptr nonnull %5) #29
  %8 = getelementptr inbounds %"class.std::__cxx11::basic_string", ptr %5, i64 0, i32 2
  store ptr %8, ptr %5, align 8, !tbaa !35
  %9 = load ptr, ptr %1, align 8, !tbaa !23
  %10 = getelementptr inbounds %"class.std::__cxx11::basic_string", ptr %1, i64 0, i32 1
  %11 = load i64, ptr %10, align 8, !tbaa !26
  call void @llvm.lifetime.start.p0(i64 8, ptr nonnull %4) #29
  store i64 %11, ptr %4, align 8, !tbaa !53
  %12 = icmp ugt i64 %11, 15
  br i1 %12, label %13, label %16

13:                                               ; preds = %2
  %14 = call noundef ptr @_ZNSt7__cxx1112basic_stringIcSt11char_traitsIcESaIcEE9_M_createERmm(ptr noundef nonnull align 8 dereferenceable(32) %5, ptr noundef nonnull align 8 dereferenceable(8) %4, i64 noundef 0)
  store ptr %14, ptr %5, align 8, !tbaa !23
  %15 = load i64, ptr %4, align 8, !tbaa !53
  store i64 %15, ptr %8, align 8, !tbaa !37
  br label %16

16:                                               ; preds = %13, %2
  %17 = phi ptr [ %14, %13 ], [ %8, %2 ]
  switch i64 %11, label %20 [
    i64 1, label %18
    i64 0, label %21
  ]

18:                                               ; preds = %16
  %19 = load i8, ptr %9, align 1, !tbaa !37
  store i8 %19, ptr %17, align 1, !tbaa !37
  br label %21

20:                                               ; preds = %16
  call void @llvm.memcpy.p0.p0.i64(ptr align 1 %17, ptr align 1 %9, i64 %11, i1 false)
  br label %21

21:                                               ; preds = %20, %18, %16
  %22 = load i64, ptr %4, align 8, !tbaa !53
  %23 = getelementptr inbounds %"class.std::__cxx11::basic_string", ptr %5, i64 0, i32 1
  store i64 %22, ptr %23, align 8, !tbaa !26
  %24 = load ptr, ptr %5, align 8, !tbaa !23
  %25 = getelementptr inbounds i8, ptr %24, i64 %22
  store i8 0, ptr %25, align 1, !tbaa !37
  call void @llvm.lifetime.end.p0(i64 8, ptr nonnull %4) #29
  call void @llvm.lifetime.start.p0(i64 24, ptr nonnull %6) #29
  call void @llvm.memset.p0.i64(ptr noundef nonnull align 8 dereferenceable(24) %6, i8 0, i64 24, i1 false)
  %26 = load ptr, ptr %5, align 8, !tbaa !23
  %27 = load i64, ptr %23, align 8, !tbaa !26
  %28 = getelementptr inbounds i8, ptr %26, i64 %27
  %29 = icmp eq i64 %27, 0
  br i1 %29, label %81, label %30

30:                                               ; preds = %21
  %31 = icmp ult i64 %27, 16
  br i1 %31, label %69, label %32

32:                                               ; preds = %30
  %33 = and i64 %27, -16
  %34 = getelementptr i8, ptr %26, i64 %33
  br label %35

35:                                               ; preds = %35, %32
  %36 = phi i64 [ 0, %32 ], [ %61, %35 ]
  %37 = phi <4 x i64> [ zeroinitializer, %32 ], [ %57, %35 ]
  %38 = phi <4 x i64> [ zeroinitializer, %32 ], [ %58, %35 ]
  %39 = phi <4 x i64> [ zeroinitializer, %32 ], [ %59, %35 ]
  %40 = phi <4 x i64> [ zeroinitializer, %32 ], [ %60, %35 ]
  %41 = getelementptr i8, ptr %26, i64 %36
  %42 = load <4 x i8>, ptr %41, align 1, !tbaa !37
  %43 = getelementptr i8, ptr %41, i64 4
  %44 = load <4 x i8>, ptr %43, align 1, !tbaa !37
  %45 = getelementptr i8, ptr %41, i64 8
  %46 = load <4 x i8>, ptr %45, align 1, !tbaa !37
  %47 = getelementptr i8, ptr %41, i64 12
  %48 = load <4 x i8>, ptr %47, align 1, !tbaa !37
  %49 = icmp eq <4 x i8> %42, <i8 44, i8 44, i8 44, i8 44>
  %50 = icmp eq <4 x i8> %44, <i8 44, i8 44, i8 44, i8 44>
  %51 = icmp eq <4 x i8> %46, <i8 44, i8 44, i8 44, i8 44>
  %52 = icmp eq <4 x i8> %48, <i8 44, i8 44, i8 44, i8 44>
  %53 = zext <4 x i1> %49 to <4 x i64>
  %54 = zext <4 x i1> %50 to <4 x i64>
  %55 = zext <4 x i1> %51 to <4 x i64>
  %56 = zext <4 x i1> %52 to <4 x i64>
  %57 = add <4 x i64> %37, %53
  %58 = add <4 x i64> %38, %54
  %59 = add <4 x i64> %39, %55
  %60 = add <4 x i64> %40, %56
  %61 = add nuw i64 %36, 16
  %62 = icmp eq i64 %61, %33
  br i1 %62, label %63, label %35, !llvm.loop !61

63:                                               ; preds = %35
  %64 = add <4 x i64> %58, %57
  %65 = add <4 x i64> %59, %64
  %66 = add <4 x i64> %60, %65
  %67 = call i64 @llvm.vector.reduce.add.v4i64(<4 x i64> %66)
  %68 = icmp eq i64 %27, %33
  br i1 %68, label %81, label %69

69:                                               ; preds = %30, %63
  %70 = phi i64 [ 0, %30 ], [ %67, %63 ]
  %71 = phi ptr [ %26, %30 ], [ %34, %63 ]
  br label %72

72:                                               ; preds = %69, %72
  %73 = phi i64 [ %78, %72 ], [ %70, %69 ]
  %74 = phi ptr [ %79, %72 ], [ %71, %69 ]
  %75 = load i8, ptr %74, align 1, !tbaa !37
  %76 = icmp eq i8 %75, 44
  %77 = zext i1 %76 to i64
  %78 = add nuw nsw i64 %73, %77
  %79 = getelementptr inbounds i8, ptr %74, i64 1
  %80 = icmp eq ptr %79, %28
  br i1 %80, label %81, label %72, !llvm.loop !64

81:                                               ; preds = %72, %63, %21
  %82 = phi i64 [ 0, %21 ], [ %67, %63 ], [ %78, %72 ]
  %83 = add nsw i64 %82, 1
  invoke void @_ZNSt6vectorINSt7__cxx1112basic_stringIcSt11char_traitsIcESaIcEEESaIS5_EE7reserveEm(ptr noundef nonnull align 8 dereferenceable(24) %6, i64 noundef %83)
          to label %84 unwind label %117

84:                                               ; preds = %81
  %85 = load i64, ptr %23, align 8, !tbaa !26
  %86 = icmp eq i64 %85, 0
  br i1 %86, label %198, label %87

87:                                               ; preds = %84
  %88 = getelementptr inbounds %"class.std::__cxx11::basic_string", ptr %7, i64 0, i32 2
  %89 = getelementptr inbounds %"class.std::__cxx11::basic_string", ptr %7, i64 0, i32 1
  %90 = getelementptr inbounds %"struct.std::_Vector_base<std::__cxx11::basic_string<char>, std::allocator<std::__cxx11::basic_string<char> > >::_Vector_impl_data", ptr %6, i64 0, i32 1
  %91 = getelementptr inbounds %"struct.std::_Vector_base<std::__cxx11::basic_string<char>, std::allocator<std::__cxx11::basic_string<char> > >::_Vector_impl_data", ptr %6, i64 0, i32 2
  br label %92

92:                                               ; preds = %87, %194
  call void @llvm.lifetime.start.p0(i64 32, ptr nonnull %7) #29
  store ptr %88, ptr %7, align 8, !tbaa !35
  store i64 0, ptr %89, align 8, !tbaa !26
  store i8 0, ptr %88, align 8, !tbaa !37
  invoke void @_ZNSt7__cxx1112basic_stringIcSt11char_traitsIcESaIcEE9_M_assignERKS4_(ptr noundef nonnull align 8 dereferenceable(32) %7, ptr noundef nonnull align 8 dereferenceable(32) %5)
          to label %93 unwind label %123

93:                                               ; preds = %92
  %94 = invoke noundef i64 @_ZNKSt7__cxx1112basic_stringIcSt11char_traitsIcESaIcEE4findEPKcmm(ptr noundef nonnull align 8 dereferenceable(32) %7, ptr noundef nonnull @.str.13, i64 noundef 0, i64 noundef 1)
          to label %95 unwind label %123

95:                                               ; preds = %93
  %96 = icmp eq i64 %94, -1
  br i1 %96, label %135, label %97

97:                                               ; preds = %95
  %98 = invoke noundef i64 @_ZNKSt7__cxx1112basic_stringIcSt11char_traitsIcESaIcEE4findEPKcmm(ptr noundef nonnull align 8 dereferenceable(32) %7, ptr noundef nonnull @.str.13, i64 noundef 0, i64 noundef 1)
          to label %99 unwind label %123

99:                                               ; preds = %97
  %100 = load i64, ptr %89, align 8, !tbaa !26
  %101 = icmp ult i64 %100, %98
  br i1 %101, label %102, label %106

102:                                              ; preds = %99, %159
  %103 = phi i64 [ %152, %159 ], [ %98, %99 ]
  %104 = phi i64 [ 0, %159 ], [ %100, %99 ]
  invoke void (ptr, ...) @_ZSt24__throw_out_of_range_fmtPKcz(ptr noundef nonnull @.str.94, ptr noundef nonnull @.str.96, i64 noundef %103, i64 noundef %104) #32
          to label %105 unwind label %125

105:                                              ; preds = %102
  unreachable

106:                                              ; preds = %99
  store i64 %98, ptr %89, align 8, !tbaa !26
  %107 = load ptr, ptr %7, align 8, !tbaa !23
  %108 = getelementptr inbounds i8, ptr %107, i64 %98
  store i8 0, ptr %108, align 1, !tbaa !37
  %109 = invoke noundef i64 @_ZNKSt7__cxx1112basic_stringIcSt11char_traitsIcESaIcEE4findEPKcmm(ptr noundef nonnull align 8 dereferenceable(32) %5, ptr noundef nonnull @.str.13, i64 noundef 0, i64 noundef 1)
          to label %110 unwind label %123

110:                                              ; preds = %106
  switch i64 %109, label %113 [
    i64 -2, label %111
    i64 -1, label %138
  ]

111:                                              ; preds = %110
  store i64 0, ptr %23, align 8, !tbaa !26
  %112 = load ptr, ptr %5, align 8, !tbaa !23
  store i8 0, ptr %112, align 1, !tbaa !37
  br label %138

113:                                              ; preds = %110
  %114 = add nuw i64 %109, 1
  %115 = load i64, ptr %23, align 8, !tbaa !26
  %116 = call i64 @llvm.umin.i64(i64 %115, i64 %114)
  invoke void @_ZNSt7__cxx1112basic_stringIcSt11char_traitsIcESaIcEE8_M_eraseEmm(ptr noundef nonnull align 8 dereferenceable(32) %5, i64 noundef 0, i64 noundef %116)
          to label %138 unwind label %123

117:                                              ; preds = %81
  %118 = landingpad { ptr, i32 }
          cleanup
  br label %268

119:                                              ; preds = %161
  %120 = landingpad { ptr, i32 }
          cleanup
  br label %127

121:                                              ; preds = %149
  %122 = landingpad { ptr, i32 }
          cleanup
  br label %127

123:                                              ; preds = %92, %93, %97, %106, %113, %135, %170, %186
  %124 = landingpad { ptr, i32 }
          cleanup
  br label %127

125:                                              ; preds = %102
  %126 = landingpad { ptr, i32 }
          cleanup
  br label %127

127:                                              ; preds = %121, %125, %123, %119
  %128 = phi { ptr, i32 } [ %120, %119 ], [ %122, %121 ], [ %124, %123 ], [ %126, %125 ]
  %129 = load ptr, ptr %7, align 8, !tbaa !23
  %130 = icmp eq ptr %129, %88
  br i1 %130, label %131, label %134

131:                                              ; preds = %127
  %132 = load i64, ptr %89, align 8, !tbaa !26
  %133 = icmp ult i64 %132, 16
  call void @llvm.assume(i1 %133)
  br label %197

134:                                              ; preds = %127
  call void @_ZdlPv(ptr noundef %129) #30
  br label %197

135:                                              ; preds = %95
  %136 = load i64, ptr %23, align 8, !tbaa !26
  %137 = invoke noundef nonnull align 8 dereferenceable(32) ptr @_ZNSt7__cxx1112basic_stringIcSt11char_traitsIcESaIcEE10_M_replaceEmmPKcm(ptr noundef nonnull align 8 dereferenceable(32) %5, i64 noundef 0, i64 noundef %136, ptr noundef nonnull @.str.14, i64 noundef 0)
          to label %138 unwind label %123

138:                                              ; preds = %135, %111, %110, %113
  br label %139

139:                                              ; preds = %138, %149
  %140 = load i64, ptr %89, align 8, !tbaa !26
  %141 = icmp eq i64 %140, 0
  br i1 %141, label %148, label %142

142:                                              ; preds = %139
  %143 = load ptr, ptr %7, align 8, !tbaa !23
  %144 = load i8, ptr %143, align 1, !tbaa !37
  %145 = sext i8 %144 to i32
  %146 = call i32 @isspace(i32 noundef %145) #33
  %147 = icmp eq i32 %146, 0
  br i1 %147, label %148, label %149

148:                                              ; preds = %139, %142
  br label %150

149:                                              ; preds = %142
  invoke void @_ZNSt7__cxx1112basic_stringIcSt11char_traitsIcESaIcEE8_M_eraseEmm(ptr noundef nonnull align 8 dereferenceable(32) %7, i64 noundef 0, i64 noundef 1)
          to label %139 unwind label %121

150:                                              ; preds = %148, %161
  %151 = load i64, ptr %89, align 8, !tbaa !26
  %152 = add i64 %151, -1
  %153 = load ptr, ptr %7, align 8, !tbaa !23
  %154 = getelementptr inbounds i8, ptr %153, i64 %152
  %155 = load i8, ptr %154, align 1, !tbaa !37
  %156 = sext i8 %155 to i32
  %157 = call i32 @isspace(i32 noundef %156) #33
  %158 = icmp eq i32 %157, 0
  br i1 %158, label %162, label %159

159:                                              ; preds = %150
  %160 = icmp eq i64 %151, 0
  br i1 %160, label %102, label %161

161:                                              ; preds = %159
  invoke void @_ZNSt7__cxx1112basic_stringIcSt11char_traitsIcESaIcEE8_M_eraseEmm(ptr noundef nonnull align 8 dereferenceable(32) %7, i64 noundef %152, i64 noundef 1)
          to label %150 unwind label %119

162:                                              ; preds = %150
  %163 = load ptr, ptr %90, align 8, !tbaa !65
  %164 = load ptr, ptr %91, align 8, !tbaa !66
  %165 = icmp eq ptr %163, %164
  br i1 %165, label %186, label %166

166:                                              ; preds = %162
  %167 = getelementptr inbounds %"class.std::__cxx11::basic_string", ptr %163, i64 0, i32 2
  store ptr %167, ptr %163, align 8, !tbaa !35
  %168 = load ptr, ptr %7, align 8, !tbaa !23
  call void @llvm.lifetime.start.p0(i64 8, ptr nonnull %3) #29
  store i64 %151, ptr %3, align 8, !tbaa !53
  %169 = icmp ugt i64 %151, 15
  br i1 %169, label %170, label %174

170:                                              ; preds = %166
  %171 = invoke noundef ptr @_ZNSt7__cxx1112basic_stringIcSt11char_traitsIcESaIcEE9_M_createERmm(ptr noundef nonnull align 8 dereferenceable(32) %163, ptr noundef nonnull align 8 dereferenceable(8) %3, i64 noundef 0)
          to label %172 unwind label %123

172:                                              ; preds = %170
  store ptr %171, ptr %163, align 8, !tbaa !23
  %173 = load i64, ptr %3, align 8, !tbaa !53
  store i64 %173, ptr %167, align 8, !tbaa !37
  br label %174

174:                                              ; preds = %172, %166
  %175 = phi ptr [ %171, %172 ], [ %167, %166 ]
  switch i64 %151, label %178 [
    i64 1, label %176
    i64 0, label %179
  ]

176:                                              ; preds = %174
  %177 = load i8, ptr %168, align 1, !tbaa !37
  store i8 %177, ptr %175, align 1, !tbaa !37
  br label %179

178:                                              ; preds = %174
  call void @llvm.memcpy.p0.p0.i64(ptr align 1 %175, ptr align 1 %168, i64 %151, i1 false)
  br label %179

179:                                              ; preds = %178, %176, %174
  %180 = load i64, ptr %3, align 8, !tbaa !53
  %181 = getelementptr inbounds %"class.std::__cxx11::basic_string", ptr %163, i64 0, i32 1
  store i64 %180, ptr %181, align 8, !tbaa !26
  %182 = load ptr, ptr %163, align 8, !tbaa !23
  %183 = getelementptr inbounds i8, ptr %182, i64 %180
  store i8 0, ptr %183, align 1, !tbaa !37
  call void @llvm.lifetime.end.p0(i64 8, ptr nonnull %3) #29
  %184 = load ptr, ptr %90, align 8, !tbaa !56
  %185 = getelementptr inbounds %"class.std::__cxx11::basic_string", ptr %184, i64 1
  store ptr %185, ptr %90, align 8, !tbaa !56
  br label %187

186:                                              ; preds = %162
  invoke void @_ZNSt6vectorINSt7__cxx1112basic_stringIcSt11char_traitsIcESaIcEEESaIS5_EE17_M_realloc_insertEN9__gnu_cxx17__normal_iteratorIPS5_S7_EERKS5_(ptr noundef nonnull align 8 dereferenceable(24) %6, ptr %163, ptr noundef nonnull align 8 dereferenceable(32) %7)
          to label %187 unwind label %123

187:                                              ; preds = %179, %186
  %188 = load ptr, ptr %7, align 8, !tbaa !23
  %189 = icmp eq ptr %188, %88
  br i1 %189, label %190, label %193

190:                                              ; preds = %187
  %191 = load i64, ptr %89, align 8, !tbaa !26
  %192 = icmp ult i64 %191, 16
  call void @llvm.assume(i1 %192)
  br label %194

193:                                              ; preds = %187
  call void @_ZdlPv(ptr noundef %188) #30
  br label %194

194:                                              ; preds = %193, %190
  call void @llvm.lifetime.end.p0(i64 32, ptr nonnull %7) #29
  %195 = load i64, ptr %23, align 8, !tbaa !26
  %196 = icmp eq i64 %195, 0
  br i1 %196, label %198, label %92

197:                                              ; preds = %134, %131
  call void @llvm.lifetime.end.p0(i64 32, ptr nonnull %7) #29
  br label %268

198:                                              ; preds = %194, %84
  %199 = getelementptr inbounds %"struct.std::_Vector_base<std::__cxx11::basic_string<char>, std::allocator<std::__cxx11::basic_string<char> > >::_Vector_impl_data", ptr %6, i64 0, i32 1
  %200 = load ptr, ptr %199, align 8, !tbaa !65
  %201 = load ptr, ptr %6, align 8, !tbaa !65
  %202 = ptrtoint ptr %200 to i64
  %203 = ptrtoint ptr %201 to i64
  %204 = sub i64 %202, %203
  %205 = ashr exact i64 %204, 5
  %206 = getelementptr inbounds %"class.dealii::Patterns::List", ptr %0, i64 0, i32 2
  %207 = load i32, ptr %206, align 8, !tbaa !59
  %208 = zext i32 %207 to i64
  %209 = icmp ult i64 %205, %208
  %210 = getelementptr inbounds %"class.dealii::Patterns::List", ptr %0, i64 0, i32 3
  %211 = load i32, ptr %210, align 4
  %212 = zext i32 %211 to i64
  %213 = icmp ugt i64 %205, %212
  %214 = select i1 %209, i1 true, i1 %213
  br i1 %214, label %235, label %215

215:                                              ; preds = %198
  %216 = icmp eq ptr %201, %200
  br i1 %216, label %255, label %217

217:                                              ; preds = %215
  %218 = getelementptr inbounds %"class.dealii::Patterns::List", ptr %0, i64 0, i32 1
  br label %219

219:                                              ; preds = %226, %217
  %220 = phi ptr [ %201, %217 ], [ %228, %226 ]
  %221 = load ptr, ptr %218, align 8, !tbaa !57
  %222 = load ptr, ptr %221, align 8, !tbaa !5
  %223 = getelementptr inbounds ptr, ptr %222, i64 2
  %224 = load ptr, ptr %223, align 8
  %225 = invoke noundef zeroext i1 %224(ptr noundef nonnull align 8 dereferenceable(8) %221, ptr noundef nonnull align 8 dereferenceable(32) %220)
          to label %226 unwind label %231

226:                                              ; preds = %219
  %227 = load ptr, ptr %199, align 8, !tbaa !65
  %228 = getelementptr inbounds %"class.std::__cxx11::basic_string", ptr %220, i64 1
  %229 = icmp ne ptr %228, %227
  %230 = select i1 %225, i1 %229, i1 false
  br i1 %230, label %219, label %233

231:                                              ; preds = %219
  %232 = landingpad { ptr, i32 }
          cleanup
  br label %268

233:                                              ; preds = %226
  %234 = load ptr, ptr %6, align 8, !tbaa !54
  br label %235

235:                                              ; preds = %233, %198
  %236 = phi ptr [ %200, %198 ], [ %227, %233 ]
  %237 = phi ptr [ %201, %198 ], [ %234, %233 ]
  %238 = phi i1 [ false, %198 ], [ %225, %233 ]
  %239 = icmp eq ptr %237, %236
  br i1 %239, label %255, label %240

240:                                              ; preds = %235, %250
  %241 = phi ptr [ %251, %250 ], [ %237, %235 ]
  %242 = load ptr, ptr %241, align 8, !tbaa !23
  %243 = getelementptr inbounds %"class.std::__cxx11::basic_string", ptr %241, i64 0, i32 2
  %244 = icmp eq ptr %242, %243
  br i1 %244, label %245, label %249

245:                                              ; preds = %240
  %246 = getelementptr inbounds %"class.std::__cxx11::basic_string", ptr %241, i64 0, i32 1
  %247 = load i64, ptr %246, align 8, !tbaa !26
  %248 = icmp ult i64 %247, 16
  call void @llvm.assume(i1 %248)
  br label %250

249:                                              ; preds = %240
  call void @_ZdlPv(ptr noundef %242) #30
  br label %250

250:                                              ; preds = %249, %245
  %251 = getelementptr inbounds %"class.std::__cxx11::basic_string", ptr %241, i64 1
  %252 = icmp eq ptr %251, %236
  br i1 %252, label %253, label %240

253:                                              ; preds = %250
  %254 = load ptr, ptr %6, align 8, !tbaa !54
  br label %255

255:                                              ; preds = %215, %253, %235
  %256 = phi i1 [ %238, %253 ], [ %238, %235 ], [ true, %215 ]
  %257 = phi ptr [ %254, %253 ], [ %236, %235 ], [ %200, %215 ]
  %258 = icmp eq ptr %257, null
  br i1 %258, label %260, label %259

259:                                              ; preds = %255
  call void @_ZdlPv(ptr noundef nonnull %257) #30
  br label %260

260:                                              ; preds = %259, %255
  call void @llvm.lifetime.end.p0(i64 24, ptr nonnull %6) #29
  %261 = load ptr, ptr %5, align 8, !tbaa !23
  %262 = icmp eq ptr %261, %8
  br i1 %262, label %263, label %266

263:                                              ; preds = %260
  %264 = load i64, ptr %23, align 8, !tbaa !26
  %265 = icmp ult i64 %264, 16
  call void @llvm.assume(i1 %265)
  br label %267

266:                                              ; preds = %260
  call void @_ZdlPv(ptr noundef %261) #30
  br label %267

267:                                              ; preds = %263, %266
  call void @llvm.lifetime.end.p0(i64 32, ptr nonnull %5) #29
  ret i1 %256

268:                                              ; preds = %231, %197, %117
  %269 = phi { ptr, i32 } [ %128, %197 ], [ %118, %117 ], [ %232, %231 ]
  invoke void @_ZNSt6vectorINSt7__cxx1112basic_stringIcSt11char_traitsIcESaIcEEESaIS5_EED2Ev(ptr noundef nonnull align 8 dereferenceable(24) %6)
          to label %270 unwind label %278

270:                                              ; preds = %268
  call void @llvm.lifetime.end.p0(i64 24, ptr nonnull %6) #29
  %271 = load ptr, ptr %5, align 8, !tbaa !23
  %272 = icmp eq ptr %271, %8
  br i1 %272, label %273, label %276

273:                                              ; preds = %270
  %274 = load i64, ptr %23, align 8, !tbaa !26
  %275 = icmp ult i64 %274, 16
  call void @llvm.assume(i1 %275)
  br label %277

276:                                              ; preds = %270
  call void @_ZdlPv(ptr noundef %271) #30
  br label %277

277:                                              ; preds = %276, %273
  call void @llvm.lifetime.end.p0(i64 32, ptr nonnull %5) #29
  resume { ptr, i32 } %269

278:                                              ; preds = %268
  %279 = landingpad { ptr, i32 }
          catch ptr null
  %280 = extractvalue { ptr, i32 } %279, 0
  call void @__clang_call_terminate(ptr %280) #28
  unreachable
}

; Function Attrs: sspstrong uwtable
define linkonce_odr dso_local void @_ZNSt6vectorINSt7__cxx1112basic_stringIcSt11char_traitsIcESaIcEEESaIS5_EE7reserveEm(ptr noundef nonnull align 8 dereferenceable(24) %0, i64 noundef %1) local_unnamed_addr #5 comdat align 2 personality ptr @__gxx_personality_v0 {
  %3 = icmp ugt i64 %1, 288230376151711743
  br i1 %3, label %4, label %5

4:                                                ; preds = %2
  tail call void @_ZSt20__throw_length_errorPKc(ptr noundef nonnull @.str.97) #32
  unreachable

5:                                                ; preds = %2
  %6 = getelementptr inbounds %"struct.std::_Vector_base<std::__cxx11::basic_string<char>, std::allocator<std::__cxx11::basic_string<char> > >::_Vector_impl_data", ptr %0, i64 0, i32 2
  %7 = load ptr, ptr %6, align 8, !tbaa !66
  %8 = load ptr, ptr %0, align 8, !tbaa !54
  %9 = ptrtoint ptr %7 to i64
  %10 = ptrtoint ptr %8 to i64
  %11 = sub i64 %9, %10
  %12 = ashr exact i64 %11, 5
  %13 = icmp ult i64 %12, %1
  br i1 %13, label %14, label %46

14:                                               ; preds = %5
  %15 = getelementptr inbounds %"struct.std::_Vector_base<std::__cxx11::basic_string<char>, std::allocator<std::__cxx11::basic_string<char> > >::_Vector_impl_data", ptr %0, i64 0, i32 1
  %16 = load ptr, ptr %15, align 8, !tbaa !56
  %17 = ptrtoint ptr %16 to i64
  %18 = sub i64 %17, %10
  %19 = ashr exact i64 %18, 5
  %20 = tail call noundef ptr @_ZNSt6vectorINSt7__cxx1112basic_stringIcSt11char_traitsIcESaIcEEESaIS5_EE20_M_allocate_and_copyIPS5_EES9_mT_SA_(ptr noundef nonnull align 8 dereferenceable(24) %0, i64 noundef %1, ptr noundef %8, ptr noundef %16)
  %21 = load ptr, ptr %0, align 8, !tbaa !54
  %22 = load ptr, ptr %15, align 8, !tbaa !56
  %23 = icmp eq ptr %21, %22
  br i1 %23, label %39, label %24

24:                                               ; preds = %14, %34
  %25 = phi ptr [ %35, %34 ], [ %21, %14 ]
  %26 = load ptr, ptr %25, align 8, !tbaa !23
  %27 = getelementptr inbounds %"class.std::__cxx11::basic_string", ptr %25, i64 0, i32 2
  %28 = icmp eq ptr %26, %27
  br i1 %28, label %29, label %33

29:                                               ; preds = %24
  %30 = getelementptr inbounds %"class.std::__cxx11::basic_string", ptr %25, i64 0, i32 1
  %31 = load i64, ptr %30, align 8, !tbaa !26
  %32 = icmp ult i64 %31, 16
  tail call void @llvm.assume(i1 %32)
  br label %34

33:                                               ; preds = %24
  tail call void @_ZdlPv(ptr noundef %26) #30
  br label %34

34:                                               ; preds = %33, %29
  %35 = getelementptr inbounds %"class.std::__cxx11::basic_string", ptr %25, i64 1
  %36 = icmp eq ptr %35, %22
  br i1 %36, label %37, label %24

37:                                               ; preds = %34
  %38 = load ptr, ptr %0, align 8, !tbaa !54
  br label %39

39:                                               ; preds = %37, %14
  %40 = phi ptr [ %38, %37 ], [ %21, %14 ]
  %41 = icmp eq ptr %40, null
  br i1 %41, label %43, label %42

42:                                               ; preds = %39
  tail call void @_ZdlPv(ptr noundef nonnull %40) #30
  br label %43

43:                                               ; preds = %39, %42
  store ptr %20, ptr %0, align 8, !tbaa !54
  %44 = getelementptr inbounds %"class.std::__cxx11::basic_string", ptr %20, i64 %19
  store ptr %44, ptr %15, align 8, !tbaa !56
  %45 = getelementptr inbounds %"class.std::__cxx11::basic_string", ptr %20, i64 %1
  store ptr %45, ptr %6, align 8, !tbaa !66
  br label %46

46:                                               ; preds = %43, %5
  ret void
}

; Function Attrs: mustprogress nofree nounwind willreturn memory(read)
declare i32 @isspace(i32 noundef) local_unnamed_addr #12

; Function Attrs: sspstrong uwtable
define dso_local void @_ZNK6dealii8Patterns4List11descriptionB5cxx11Ev(ptr noalias sret(%"class.std::__cxx11::basic_string") align 8 %0, ptr nocapture noundef nonnull readonly align 8 dereferenceable(24) %1) unnamed_addr #5 align 2 personality ptr @__gxx_personality_v0 {
  %3 = alloca %"class.std::__cxx11::basic_ostringstream", align 8
  %4 = alloca %"class.std::__cxx11::basic_string", align 8
  call void @llvm.lifetime.start.p0(i64 376, ptr nonnull %3) #29
  call void @_ZNSt7__cxx1119basic_ostringstreamIcSt11char_traitsIcESaIcEEC1Ev(ptr noundef nonnull align 8 dereferenceable(112) %3)
  %5 = invoke noundef nonnull align 8 dereferenceable(8) ptr @_ZSt16__ostream_insertIcSt11char_traitsIcEERSt13basic_ostreamIT_T0_ES6_PKS3_l(ptr noundef nonnull align 8 dereferenceable(8) %3, ptr noundef nonnull @.str.15, i64 noundef 9)
          to label %6 unwind label %91

6:                                                ; preds = %2
  call void @llvm.lifetime.start.p0(i64 32, ptr nonnull %4) #29
  %7 = getelementptr inbounds %"class.dealii::Patterns::List", ptr %1, i64 0, i32 1
  %8 = load ptr, ptr %7, align 8, !tbaa !57
  %9 = load ptr, ptr %8, align 8, !tbaa !5
  %10 = getelementptr inbounds ptr, ptr %9, i64 3
  %11 = load ptr, ptr %10, align 8
  invoke void %11(ptr nonnull sret(%"class.std::__cxx11::basic_string") align 8 %4, ptr noundef nonnull align 8 dereferenceable(8) %8)
          to label %12 unwind label %93

12:                                               ; preds = %6
  %13 = load ptr, ptr %4, align 8, !tbaa !23
  %14 = getelementptr inbounds %"class.std::__cxx11::basic_string", ptr %4, i64 0, i32 1
  %15 = load i64, ptr %14, align 8, !tbaa !26
  %16 = invoke noundef nonnull align 8 dereferenceable(8) ptr @_ZSt16__ostream_insertIcSt11char_traitsIcEERSt13basic_ostreamIT_T0_ES6_PKS3_l(ptr noundef nonnull align 8 dereferenceable(8) %3, ptr noundef %13, i64 noundef %15)
          to label %17 unwind label %95

17:                                               ; preds = %12
  %18 = invoke noundef nonnull align 8 dereferenceable(8) ptr @_ZSt16__ostream_insertIcSt11char_traitsIcEERSt13basic_ostreamIT_T0_ES6_PKS3_l(ptr noundef nonnull align 8 dereferenceable(8) %16, ptr noundef nonnull @.str.16, i64 noundef 1)
          to label %19 unwind label %95

19:                                               ; preds = %17
  %20 = invoke noundef nonnull align 8 dereferenceable(8) ptr @_ZSt16__ostream_insertIcSt11char_traitsIcEERSt13basic_ostreamIT_T0_ES6_PKS3_l(ptr noundef nonnull align 8 dereferenceable(8) %16, ptr noundef nonnull @.str.17, i64 noundef 11)
          to label %21 unwind label %95

21:                                               ; preds = %19
  %22 = getelementptr inbounds %"class.dealii::Patterns::List", ptr %1, i64 0, i32 2
  %23 = load i32, ptr %22, align 8, !tbaa !59
  %24 = zext i32 %23 to i64
  %25 = invoke noundef nonnull align 8 dereferenceable(8) ptr @_ZNSo9_M_insertImEERSoT_(ptr noundef nonnull align 8 dereferenceable(8) %16, i64 noundef %24)
          to label %26 unwind label %95

26:                                               ; preds = %21
  %27 = invoke noundef nonnull align 8 dereferenceable(8) ptr @_ZSt16__ostream_insertIcSt11char_traitsIcEERSt13basic_ostreamIT_T0_ES6_PKS3_l(ptr noundef nonnull align 8 dereferenceable(8) %25, ptr noundef nonnull @.str.2, i64 noundef 3)
          to label %28 unwind label %95

28:                                               ; preds = %26
  %29 = getelementptr inbounds %"class.dealii::Patterns::List", ptr %1, i64 0, i32 3
  %30 = load i32, ptr %29, align 4, !tbaa !60
  %31 = zext i32 %30 to i64
  %32 = invoke noundef nonnull align 8 dereferenceable(8) ptr @_ZNSo9_M_insertImEERSoT_(ptr noundef nonnull align 8 dereferenceable(8) %25, i64 noundef %31)
          to label %33 unwind label %95

33:                                               ; preds = %28
  %34 = invoke noundef nonnull align 8 dereferenceable(8) ptr @_ZSt16__ostream_insertIcSt11char_traitsIcEERSt13basic_ostreamIT_T0_ES6_PKS3_l(ptr noundef nonnull align 8 dereferenceable(8) %32, ptr noundef nonnull @.str.18, i64 noundef 12)
          to label %35 unwind label %95

35:                                               ; preds = %33
  %36 = load ptr, ptr %4, align 8, !tbaa !23
  %37 = getelementptr inbounds %"class.std::__cxx11::basic_string", ptr %4, i64 0, i32 2
  %38 = icmp eq ptr %36, %37
  br i1 %38, label %39, label %42

39:                                               ; preds = %35
  %40 = load i64, ptr %14, align 8, !tbaa !26
  %41 = icmp ult i64 %40, 16
  call void @llvm.assume(i1 %41)
  br label %43

42:                                               ; preds = %35
  call void @_ZdlPv(ptr noundef %36) #30
  br label %43

43:                                               ; preds = %42, %39
  call void @llvm.lifetime.end.p0(i64 32, ptr nonnull %4) #29
  call void @llvm.experimental.noalias.scope.decl(metadata !67)
  call void @llvm.experimental.noalias.scope.decl(metadata !70)
  %44 = getelementptr inbounds %"class.std::__cxx11::basic_string", ptr %0, i64 0, i32 2
  store ptr %44, ptr %0, align 8, !tbaa !35, !alias.scope !73
  %45 = getelementptr inbounds %"class.std::__cxx11::basic_string", ptr %0, i64 0, i32 1
  store i64 0, ptr %45, align 8, !tbaa !26, !alias.scope !73
  store i8 0, ptr %44, align 8, !tbaa !37, !alias.scope !73
  %46 = getelementptr inbounds %"class.std::__cxx11::basic_ostringstream", ptr %3, i64 0, i32 1, i32 0, i32 5
  %47 = load ptr, ptr %46, align 8, !tbaa !38, !noalias !73
  %48 = icmp eq ptr %47, null
  %49 = getelementptr inbounds %"class.std::__cxx11::basic_ostringstream", ptr %3, i64 0, i32 1, i32 0, i32 3
  %50 = load ptr, ptr %49, align 8, !noalias !73
  %51 = icmp ugt ptr %47, %50
  %52 = select i1 %51, ptr %47, ptr %50
  %53 = icmp eq ptr %52, null
  %54 = select i1 %48, i1 true, i1 %53
  br i1 %54, label %70, label %55

55:                                               ; preds = %43
  %56 = getelementptr inbounds %"class.std::__cxx11::basic_ostringstream", ptr %3, i64 0, i32 1, i32 0, i32 4
  %57 = load ptr, ptr %56, align 8, !tbaa !40, !noalias !73
  %58 = ptrtoint ptr %52 to i64
  %59 = ptrtoint ptr %57 to i64
  %60 = sub i64 %58, %59
  %61 = invoke noundef nonnull align 8 dereferenceable(32) ptr @_ZNSt7__cxx1112basic_stringIcSt11char_traitsIcESaIcEE10_M_replaceEmmPKcm(ptr noundef nonnull align 8 dereferenceable(32) %0, i64 noundef 0, i64 noundef 0, ptr noundef %57, i64 noundef %60)
          to label %72 unwind label %62

62:                                               ; preds = %70, %55
  %63 = landingpad { ptr, i32 }
          cleanup
  %64 = load ptr, ptr %0, align 8, !tbaa !23, !alias.scope !73
  %65 = icmp eq ptr %64, %44
  br i1 %65, label %66, label %69

66:                                               ; preds = %62
  %67 = load i64, ptr %45, align 8, !tbaa !26, !alias.scope !73
  %68 = icmp ult i64 %67, 16
  call void @llvm.assume(i1 %68)
  br label %106

69:                                               ; preds = %62
  call void @_ZdlPv(ptr noundef %64) #30
  br label %106

70:                                               ; preds = %43
  %71 = getelementptr inbounds %"class.std::__cxx11::basic_ostringstream", ptr %3, i64 0, i32 1, i32 2
  invoke void @_ZNSt7__cxx1112basic_stringIcSt11char_traitsIcESaIcEE9_M_assignERKS4_(ptr noundef nonnull align 8 dereferenceable(32) %0, ptr noundef nonnull align 8 dereferenceable(32) %71)
          to label %72 unwind label %62

72:                                               ; preds = %70, %55
  %73 = load ptr, ptr @_ZTTNSt7__cxx1119basic_ostringstreamIcSt11char_traitsIcESaIcEEE, align 8
  store ptr %73, ptr %3, align 8, !tbaa !5
  %74 = load ptr, ptr getelementptr inbounds ([4 x ptr], ptr @_ZTTNSt7__cxx1119basic_ostringstreamIcSt11char_traitsIcESaIcEEE, i64 0, i64 3), align 8
  %75 = getelementptr i8, ptr %73, i64 -24
  %76 = load i64, ptr %75, align 8
  %77 = getelementptr inbounds i8, ptr %3, i64 %76
  store ptr %74, ptr %77, align 8, !tbaa !5
  %78 = getelementptr inbounds %"class.std::__cxx11::basic_ostringstream", ptr %3, i64 0, i32 1
  store ptr getelementptr inbounds ({ [16 x ptr] }, ptr @_ZTVNSt7__cxx1115basic_stringbufIcSt11char_traitsIcESaIcEEE, i64 0, inrange i32 0, i64 2), ptr %78, align 8, !tbaa !5
  %79 = getelementptr inbounds %"class.std::__cxx11::basic_ostringstream", ptr %3, i64 0, i32 1, i32 2
  %80 = load ptr, ptr %79, align 8, !tbaa !23
  %81 = getelementptr inbounds %"class.std::__cxx11::basic_ostringstream", ptr %3, i64 0, i32 1, i32 2, i32 2
  %82 = icmp eq ptr %80, %81
  br i1 %82, label %83, label %87

83:                                               ; preds = %72
  %84 = getelementptr inbounds %"class.std::__cxx11::basic_ostringstream", ptr %3, i64 0, i32 1, i32 2, i32 1
  %85 = load i64, ptr %84, align 8, !tbaa !26
  %86 = icmp ult i64 %85, 16
  call void @llvm.assume(i1 %86)
  br label %88

87:                                               ; preds = %72
  call void @_ZdlPv(ptr noundef %80) #30
  br label %88

88:                                               ; preds = %83, %87
  store ptr getelementptr inbounds ({ [16 x ptr] }, ptr @_ZTVSt15basic_streambufIcSt11char_traitsIcEE, i64 0, inrange i32 0, i64 2), ptr %78, align 8, !tbaa !5
  %89 = getelementptr inbounds %"class.std::__cxx11::basic_ostringstream", ptr %3, i64 0, i32 1, i32 0, i32 7
  call void @_ZNSt6localeD1Ev(ptr noundef nonnull align 8 dereferenceable(8) %89) #29
  %90 = getelementptr inbounds i8, ptr %3, i64 112
  call void @_ZNSt8ios_baseD2Ev(ptr noundef nonnull align 8 dereferenceable(264) %90)
  call void @llvm.lifetime.end.p0(i64 376, ptr nonnull %3) #29
  ret void

91:                                               ; preds = %2
  %92 = landingpad { ptr, i32 }
          cleanup
  br label %106

93:                                               ; preds = %6
  %94 = landingpad { ptr, i32 }
          cleanup
  br label %104

95:                                               ; preds = %33, %28, %26, %21, %19, %17, %12
  %96 = landingpad { ptr, i32 }
          cleanup
  %97 = load ptr, ptr %4, align 8, !tbaa !23
  %98 = getelementptr inbounds %"class.std::__cxx11::basic_string", ptr %4, i64 0, i32 2
  %99 = icmp eq ptr %97, %98
  br i1 %99, label %100, label %103

100:                                              ; preds = %95
  %101 = load i64, ptr %14, align 8, !tbaa !26
  %102 = icmp ult i64 %101, 16
  call void @llvm.assume(i1 %102)
  br label %104

103:                                              ; preds = %95
  call void @_ZdlPv(ptr noundef %97) #30
  br label %104

104:                                              ; preds = %103, %100, %93
  %105 = phi { ptr, i32 } [ %94, %93 ], [ %96, %100 ], [ %96, %103 ]
  call void @llvm.lifetime.end.p0(i64 32, ptr nonnull %4) #29
  br label %106

106:                                              ; preds = %91, %69, %66, %104
  %107 = phi { ptr, i32 } [ %105, %104 ], [ %92, %91 ], [ %63, %69 ], [ %63, %66 ]
  invoke void @_ZNSt7__cxx1119basic_ostringstreamIcSt11char_traitsIcESaIcEED1Ev(ptr noundef nonnull align 8 dereferenceable(112) %3)
          to label %108 unwind label %109

108:                                              ; preds = %106
  call void @llvm.lifetime.end.p0(i64 376, ptr nonnull %3) #29
  resume { ptr, i32 } %107

109:                                              ; preds = %106
  %110 = landingpad { ptr, i32 }
          catch ptr null
  %111 = extractvalue { ptr, i32 } %110, 0
  call void @__clang_call_terminate(ptr %111) #28
  unreachable
}

; Function Attrs: sspstrong uwtable
define dso_local noundef ptr @_ZNK6dealii8Patterns4List5cloneEv(ptr nocapture noundef nonnull readonly align 8 dereferenceable(24) %0) unnamed_addr #5 align 2 personality ptr @__gxx_personality_v0 {
  %2 = tail call noalias noundef nonnull dereferenceable(24) ptr @_Znwm(i64 noundef 24) #31
  %3 = getelementptr inbounds %"class.dealii::Patterns::List", ptr %0, i64 0, i32 1
  %4 = load ptr, ptr %3, align 8, !tbaa !57
  %5 = getelementptr inbounds %"class.dealii::Patterns::List", ptr %0, i64 0, i32 2
  %6 = load <2 x i32>, ptr %5, align 8, !tbaa !22
  store ptr getelementptr inbounds ({ [8 x ptr] }, ptr @_ZTVN6dealii8Patterns4ListE, i64 0, inrange i32 0, i64 2), ptr %2, align 8, !tbaa !5
  %7 = load ptr, ptr %4, align 8, !tbaa !5
  %8 = getelementptr inbounds ptr, ptr %7, i64 4
  %9 = load ptr, ptr %8, align 8
  %10 = invoke noundef ptr %9(ptr noundef nonnull align 8 dereferenceable(8) %4)
          to label %11 unwind label %14

11:                                               ; preds = %1
  %12 = getelementptr inbounds %"class.dealii::Patterns::List", ptr %2, i64 0, i32 1
  store ptr %10, ptr %12, align 8, !tbaa !57
  %13 = getelementptr inbounds %"class.dealii::Patterns::List", ptr %2, i64 0, i32 2
  store <2 x i32> %6, ptr %13, align 8, !tbaa !22
  ret ptr %2

14:                                               ; preds = %1
  %15 = landingpad { ptr, i32 }
          cleanup
  tail call void @_ZdlPv(ptr noundef nonnull %2) #30
  resume { ptr, i32 } %15
}

; Function Attrs: sspstrong uwtable
define dso_local noundef i32 @_ZNK6dealii8Patterns4List18memory_consumptionEv(ptr nocapture noundef nonnull readonly align 8 dereferenceable(24) %0) unnamed_addr #5 align 2 {
  %2 = getelementptr inbounds %"class.dealii::Patterns::List", ptr %0, i64 0, i32 1
  %3 = load ptr, ptr %2, align 8, !tbaa !57
  %4 = load ptr, ptr %3, align 8, !tbaa !5
  %5 = getelementptr inbounds ptr, ptr %4, i64 5
  %6 = load ptr, ptr %5, align 8
  %7 = tail call noundef i32 %6(ptr noundef nonnull align 8 dereferenceable(8) %3)
  %8 = add i32 %7, 8
  ret i32 %8
}

; Function Attrs: sspstrong uwtable
define dso_local void @_ZN6dealii8Patterns17MultipleSelectionC2ERKNSt7__cxx1112basic_stringIcSt11char_traitsIcESaIcEEE(ptr noundef nonnull align 8 dereferenceable(40) %0, ptr noundef nonnull align 8 dereferenceable(32) %1) unnamed_addr #5 align 2 personality ptr @__gxx_personality_v0 {
  store ptr getelementptr inbounds ({ [8 x ptr] }, ptr @_ZTVN6dealii8Patterns17MultipleSelectionE, i64 0, inrange i32 0, i64 2), ptr %0, align 8, !tbaa !5
  %3 = getelementptr inbounds %"class.dealii::Patterns::MultipleSelection", ptr %0, i64 0, i32 1
  %4 = getelementptr inbounds %"class.dealii::Patterns::MultipleSelection", ptr %0, i64 0, i32 1, i32 2
  store ptr %4, ptr %3, align 8, !tbaa !35
  %5 = getelementptr inbounds %"class.dealii::Patterns::MultipleSelection", ptr %0, i64 0, i32 1, i32 1
  store i64 0, ptr %5, align 8, !tbaa !26
  store i8 0, ptr %4, align 8, !tbaa !37
  invoke void @_ZNSt7__cxx1112basic_stringIcSt11char_traitsIcESaIcEE9_M_assignERKS4_(ptr noundef nonnull align 8 dereferenceable(32) %3, ptr noundef nonnull align 8 dereferenceable(32) %1)
          to label %6 unwind label %23

6:                                                ; preds = %2, %15
  %7 = invoke noundef i64 @_ZNKSt7__cxx1112basic_stringIcSt11char_traitsIcESaIcEE4findEPKcmm(ptr noundef nonnull align 8 dereferenceable(32) %3, ptr noundef nonnull @.str.9, i64 noundef 0, i64 noundef 2)
          to label %8 unwind label %21

8:                                                ; preds = %6
  %9 = icmp eq i64 %7, -1
  br i1 %9, label %33, label %10

10:                                               ; preds = %8
  %11 = invoke noundef i64 @_ZNKSt7__cxx1112basic_stringIcSt11char_traitsIcESaIcEE4findEPKcmm(ptr noundef nonnull align 8 dereferenceable(32) %3, ptr noundef nonnull @.str.9, i64 noundef 0, i64 noundef 2)
          to label %12 unwind label %21

12:                                               ; preds = %10
  %13 = load i64, ptr %5, align 8, !tbaa !26
  %14 = icmp ult i64 %13, %11
  br i1 %14, label %42, label %15

15:                                               ; preds = %12
  %16 = sub i64 %13, %11
  %17 = tail call i64 @llvm.umin.i64(i64 %16, i64 2)
  %18 = invoke noundef nonnull align 8 dereferenceable(32) ptr @_ZNSt7__cxx1112basic_stringIcSt11char_traitsIcESaIcEE10_M_replaceEmmPKcm(ptr noundef nonnull align 8 dereferenceable(32) %3, i64 noundef %11, i64 noundef %17, ptr noundef nonnull @.str.10, i64 noundef 1)
          to label %6 unwind label %21

19:                                               ; preds = %33, %37, %46
  %20 = landingpad { ptr, i32 }
          cleanup
  br label %25

21:                                               ; preds = %15, %10, %6
  %22 = landingpad { ptr, i32 }
          cleanup
  br label %25

23:                                               ; preds = %42, %2
  %24 = landingpad { ptr, i32 }
          cleanup
  br label %25

25:                                               ; preds = %21, %23, %19
  %26 = phi { ptr, i32 } [ %20, %19 ], [ %22, %21 ], [ %24, %23 ]
  %27 = load ptr, ptr %3, align 8, !tbaa !23
  %28 = icmp eq ptr %27, %4
  br i1 %28, label %29, label %32

29:                                               ; preds = %25
  %30 = load i64, ptr %5, align 8, !tbaa !26
  %31 = icmp ult i64 %30, 16
  tail call void @llvm.assume(i1 %31)
  br label %51

32:                                               ; preds = %25
  tail call void @_ZdlPv(ptr noundef %27) #30
  br label %51

33:                                               ; preds = %8, %46
  %34 = invoke noundef i64 @_ZNKSt7__cxx1112basic_stringIcSt11char_traitsIcESaIcEE4findEPKcmm(ptr noundef nonnull align 8 dereferenceable(32) %3, ptr noundef nonnull @.str.11, i64 noundef 0, i64 noundef 2)
          to label %35 unwind label %19

35:                                               ; preds = %33
  %36 = icmp eq i64 %34, -1
  br i1 %36, label %50, label %37

37:                                               ; preds = %35
  %38 = invoke noundef i64 @_ZNKSt7__cxx1112basic_stringIcSt11char_traitsIcESaIcEE4findEPKcmm(ptr noundef nonnull align 8 dereferenceable(32) %3, ptr noundef nonnull @.str.11, i64 noundef 0, i64 noundef 2)
          to label %39 unwind label %19

39:                                               ; preds = %37
  %40 = load i64, ptr %5, align 8, !tbaa !26
  %41 = icmp ult i64 %40, %38
  br i1 %41, label %42, label %46

42:                                               ; preds = %12, %39
  %43 = phi i64 [ %38, %39 ], [ %11, %12 ]
  %44 = phi i64 [ %40, %39 ], [ %13, %12 ]
  invoke void (ptr, ...) @_ZSt24__throw_out_of_range_fmtPKcz(ptr noundef nonnull @.str.94, ptr noundef nonnull @.str.93, i64 noundef %43, i64 noundef %44) #32
          to label %45 unwind label %23

45:                                               ; preds = %42
  unreachable

46:                                               ; preds = %39
  %47 = sub i64 %40, %38
  %48 = tail call i64 @llvm.umin.i64(i64 %47, i64 2)
  %49 = invoke noundef nonnull align 8 dereferenceable(32) ptr @_ZNSt7__cxx1112basic_stringIcSt11char_traitsIcESaIcEE10_M_replaceEmmPKcm(ptr noundef nonnull align 8 dereferenceable(32) %3, i64 noundef %38, i64 noundef %48, ptr noundef nonnull @.str.10, i64 noundef 1)
          to label %33 unwind label %19

50:                                               ; preds = %35
  ret void

51:                                               ; preds = %32, %29
  resume { ptr, i32 } %26
}

; Function Attrs: sspstrong uwtable
define dso_local noundef zeroext i1 @_ZNK6dealii8Patterns17MultipleSelection5matchERKNSt7__cxx1112basic_stringIcSt11char_traitsIcESaIcEEE(ptr noundef nonnull align 8 dereferenceable(40) %0, ptr nocapture noundef nonnull readonly align 8 dereferenceable(32) %1) unnamed_addr #5 align 2 personality ptr @__gxx_personality_v0 {
  %3 = alloca i64, align 8
  %4 = alloca i64, align 8
  %5 = alloca %"class.std::__cxx11::basic_string", align 8
  %6 = alloca %"class.std::__cxx11::list", align 8
  %7 = alloca %"class.std::__cxx11::basic_string", align 8
  %8 = alloca %"class.std::__cxx11::basic_string", align 8
  call void @llvm.lifetime.start.p0(i64 32, ptr nonnull %5) #29
  %9 = getelementptr inbounds %"class.std::__cxx11::basic_string", ptr %5, i64 0, i32 2
  store ptr %9, ptr %5, align 8, !tbaa !35
  %10 = load ptr, ptr %1, align 8, !tbaa !23
  %11 = getelementptr inbounds %"class.std::__cxx11::basic_string", ptr %1, i64 0, i32 1
  %12 = load i64, ptr %11, align 8, !tbaa !26
  call void @llvm.lifetime.start.p0(i64 8, ptr nonnull %4) #29
  store i64 %12, ptr %4, align 8, !tbaa !53
  %13 = icmp ugt i64 %12, 15
  br i1 %13, label %14, label %17

14:                                               ; preds = %2
  %15 = call noundef ptr @_ZNSt7__cxx1112basic_stringIcSt11char_traitsIcESaIcEE9_M_createERmm(ptr noundef nonnull align 8 dereferenceable(32) %5, ptr noundef nonnull align 8 dereferenceable(8) %4, i64 noundef 0)
  store ptr %15, ptr %5, align 8, !tbaa !23
  %16 = load i64, ptr %4, align 8, !tbaa !53
  store i64 %16, ptr %9, align 8, !tbaa !37
  br label %17

17:                                               ; preds = %14, %2
  %18 = phi ptr [ %15, %14 ], [ %9, %2 ]
  switch i64 %12, label %21 [
    i64 1, label %19
    i64 0, label %22
  ]

19:                                               ; preds = %17
  %20 = load i8, ptr %10, align 1, !tbaa !37
  store i8 %20, ptr %18, align 1, !tbaa !37
  br label %22

21:                                               ; preds = %17
  call void @llvm.memcpy.p0.p0.i64(ptr align 1 %18, ptr align 1 %10, i64 %12, i1 false)
  br label %22

22:                                               ; preds = %17, %19, %21
  %23 = load i64, ptr %4, align 8, !tbaa !53
  %24 = getelementptr inbounds %"class.std::__cxx11::basic_string", ptr %5, i64 0, i32 1
  store i64 %23, ptr %24, align 8, !tbaa !26
  %25 = load ptr, ptr %5, align 8, !tbaa !23
  %26 = getelementptr inbounds i8, ptr %25, i64 %23
  store i8 0, ptr %26, align 1, !tbaa !37
  call void @llvm.lifetime.end.p0(i64 8, ptr nonnull %4) #29
  call void @llvm.lifetime.start.p0(i64 24, ptr nonnull %6) #29
  %27 = getelementptr inbounds %"struct.std::__detail::_List_node_base", ptr %6, i64 0, i32 1
  store ptr %6, ptr %27, align 8, !tbaa !74
  store ptr %6, ptr %6, align 8, !tbaa !76
  %28 = getelementptr inbounds %"struct.std::__detail::_List_node_header", ptr %6, i64 0, i32 1
  store i64 0, ptr %28, align 8, !tbaa !77
  %29 = load i64, ptr %24, align 8, !tbaa !26
  %30 = icmp eq i64 %29, 0
  br i1 %30, label %222, label %31

31:                                               ; preds = %22
  %32 = getelementptr inbounds %"class.std::__cxx11::basic_string", ptr %7, i64 0, i32 2
  %33 = getelementptr inbounds %"class.std::__cxx11::basic_string", ptr %7, i64 0, i32 1
  br label %41

34:                                               ; preds = %120
  %35 = load ptr, ptr %6, align 8, !tbaa !76
  %36 = icmp eq ptr %35, %6
  br i1 %36, label %222, label %37

37:                                               ; preds = %34
  %38 = getelementptr inbounds %"class.dealii::Patterns::MultipleSelection", ptr %0, i64 0, i32 1
  %39 = getelementptr inbounds %"class.std::__cxx11::basic_string", ptr %8, i64 0, i32 2
  %40 = getelementptr inbounds %"class.std::__cxx11::basic_string", ptr %8, i64 0, i32 1
  br label %124

41:                                               ; preds = %31, %120
  call void @llvm.lifetime.start.p0(i64 32, ptr nonnull %7) #29
  store ptr %32, ptr %7, align 8, !tbaa !35
  store i64 0, ptr %33, align 8, !tbaa !26
  store i8 0, ptr %32, align 8, !tbaa !37
  invoke void @_ZNSt7__cxx1112basic_stringIcSt11char_traitsIcESaIcEE9_M_assignERKS4_(ptr noundef nonnull align 8 dereferenceable(32) %7, ptr noundef nonnull align 8 dereferenceable(32) %5)
          to label %42 unwind label %70

42:                                               ; preds = %41
  %43 = invoke noundef i64 @_ZNKSt7__cxx1112basic_stringIcSt11char_traitsIcESaIcEE4findEPKcmm(ptr noundef nonnull align 8 dereferenceable(32) %7, ptr noundef nonnull @.str.13, i64 noundef 0, i64 noundef 1)
          to label %44 unwind label %70

44:                                               ; preds = %42
  %45 = icmp eq i64 %43, -1
  br i1 %45, label %82, label %46

46:                                               ; preds = %44
  %47 = invoke noundef i64 @_ZNKSt7__cxx1112basic_stringIcSt11char_traitsIcESaIcEE4findEPKcmm(ptr noundef nonnull align 8 dereferenceable(32) %7, ptr noundef nonnull @.str.13, i64 noundef 0, i64 noundef 1)
          to label %48 unwind label %70

48:                                               ; preds = %46
  %49 = load i64, ptr %33, align 8, !tbaa !26
  %50 = icmp ult i64 %49, %47
  br i1 %50, label %51, label %55

51:                                               ; preds = %48, %106
  %52 = phi i64 [ %99, %106 ], [ %47, %48 ]
  %53 = phi i64 [ 0, %106 ], [ %49, %48 ]
  invoke void (ptr, ...) @_ZSt24__throw_out_of_range_fmtPKcz(ptr noundef nonnull @.str.94, ptr noundef nonnull @.str.96, i64 noundef %52, i64 noundef %53) #32
          to label %54 unwind label %72

54:                                               ; preds = %51
  unreachable

55:                                               ; preds = %48
  store i64 %47, ptr %33, align 8, !tbaa !26
  %56 = load ptr, ptr %7, align 8, !tbaa !23
  %57 = getelementptr inbounds i8, ptr %56, i64 %47
  store i8 0, ptr %57, align 1, !tbaa !37
  %58 = invoke noundef i64 @_ZNKSt7__cxx1112basic_stringIcSt11char_traitsIcESaIcEE4findEPKcmm(ptr noundef nonnull align 8 dereferenceable(32) %5, ptr noundef nonnull @.str.13, i64 noundef 0, i64 noundef 1)
          to label %59 unwind label %70

59:                                               ; preds = %55
  switch i64 %58, label %62 [
    i64 -2, label %60
    i64 -1, label %85
  ]

60:                                               ; preds = %59
  store i64 0, ptr %24, align 8, !tbaa !26
  %61 = load ptr, ptr %5, align 8, !tbaa !23
  store i8 0, ptr %61, align 1, !tbaa !37
  br label %85

62:                                               ; preds = %59
  %63 = add nuw i64 %58, 1
  %64 = load i64, ptr %24, align 8, !tbaa !26
  %65 = call i64 @llvm.umin.i64(i64 %64, i64 %63)
  invoke void @_ZNSt7__cxx1112basic_stringIcSt11char_traitsIcESaIcEE8_M_eraseEmm(ptr noundef nonnull align 8 dereferenceable(32) %5, i64 noundef 0, i64 noundef %65)
          to label %85 unwind label %70

66:                                               ; preds = %108
  %67 = landingpad { ptr, i32 }
          cleanup
  br label %74

68:                                               ; preds = %96
  %69 = landingpad { ptr, i32 }
          cleanup
  br label %74

70:                                               ; preds = %41, %42, %46, %55, %62, %82, %109
  %71 = landingpad { ptr, i32 }
          cleanup
  br label %74

72:                                               ; preds = %51
  %73 = landingpad { ptr, i32 }
          cleanup
  br label %74

74:                                               ; preds = %68, %72, %70, %66
  %75 = phi { ptr, i32 } [ %67, %66 ], [ %69, %68 ], [ %71, %70 ], [ %73, %72 ]
  %76 = load ptr, ptr %7, align 8, !tbaa !23
  %77 = icmp eq ptr %76, %32
  br i1 %77, label %78, label %81

78:                                               ; preds = %74
  %79 = load i64, ptr %33, align 8, !tbaa !26
  %80 = icmp ult i64 %79, 16
  call void @llvm.assume(i1 %80)
  br label %123

81:                                               ; preds = %74
  call void @_ZdlPv(ptr noundef %76) #30
  br label %123

82:                                               ; preds = %44
  %83 = load i64, ptr %24, align 8, !tbaa !26
  %84 = invoke noundef nonnull align 8 dereferenceable(32) ptr @_ZNSt7__cxx1112basic_stringIcSt11char_traitsIcESaIcEE10_M_replaceEmmPKcm(ptr noundef nonnull align 8 dereferenceable(32) %5, i64 noundef 0, i64 noundef %83, ptr noundef nonnull @.str.14, i64 noundef 0)
          to label %85 unwind label %70

85:                                               ; preds = %82, %60, %59, %62
  br label %86

86:                                               ; preds = %85, %96
  %87 = load i64, ptr %33, align 8, !tbaa !26
  %88 = icmp eq i64 %87, 0
  br i1 %88, label %95, label %89

89:                                               ; preds = %86
  %90 = load ptr, ptr %7, align 8, !tbaa !23
  %91 = load i8, ptr %90, align 1, !tbaa !37
  %92 = sext i8 %91 to i32
  %93 = call i32 @isspace(i32 noundef %92) #33
  %94 = icmp eq i32 %93, 0
  br i1 %94, label %95, label %96

95:                                               ; preds = %86, %89
  br label %97

96:                                               ; preds = %89
  invoke void @_ZNSt7__cxx1112basic_stringIcSt11char_traitsIcESaIcEE8_M_eraseEmm(ptr noundef nonnull align 8 dereferenceable(32) %7, i64 noundef 0, i64 noundef 1)
          to label %86 unwind label %68

97:                                               ; preds = %95, %108
  %98 = load i64, ptr %33, align 8, !tbaa !26
  %99 = add i64 %98, -1
  %100 = load ptr, ptr %7, align 8, !tbaa !23
  %101 = getelementptr inbounds i8, ptr %100, i64 %99
  %102 = load i8, ptr %101, align 1, !tbaa !37
  %103 = sext i8 %102 to i32
  %104 = call i32 @isspace(i32 noundef %103) #33
  %105 = icmp eq i32 %104, 0
  br i1 %105, label %109, label %106

106:                                              ; preds = %97
  %107 = icmp eq i64 %98, 0
  br i1 %107, label %51, label %108

108:                                              ; preds = %106
  invoke void @_ZNSt7__cxx1112basic_stringIcSt11char_traitsIcESaIcEE8_M_eraseEmm(ptr noundef nonnull align 8 dereferenceable(32) %7, i64 noundef %99, i64 noundef 1)
          to label %97 unwind label %66

109:                                              ; preds = %97
  %110 = invoke noundef ptr @_ZNSt7__cxx114listINS_12basic_stringIcSt11char_traitsIcESaIcEEESaIS5_EE14_M_create_nodeERKS5_(ptr noundef nonnull align 8 dereferenceable(24) %6, ptr noundef nonnull align 8 dereferenceable(32) %7)
          to label %111 unwind label %70

111:                                              ; preds = %109
  call void @_ZNSt8__detail15_List_node_base7_M_hookEPS0_(ptr noundef nonnull align 8 dereferenceable(16) %110, ptr noundef nonnull %6) #29
  %112 = load i64, ptr %28, align 8, !tbaa !79
  %113 = add i64 %112, 1
  store i64 %113, ptr %28, align 8, !tbaa !79
  %114 = load ptr, ptr %7, align 8, !tbaa !23
  %115 = icmp eq ptr %114, %32
  br i1 %115, label %116, label %119

116:                                              ; preds = %111
  %117 = load i64, ptr %33, align 8, !tbaa !26
  %118 = icmp ult i64 %117, 16
  call void @llvm.assume(i1 %118)
  br label %120

119:                                              ; preds = %111
  call void @_ZdlPv(ptr noundef %114) #30
  br label %120

120:                                              ; preds = %119, %116
  call void @llvm.lifetime.end.p0(i64 32, ptr nonnull %7) #29
  %121 = load i64, ptr %24, align 8, !tbaa !26
  %122 = icmp eq i64 %121, 0
  br i1 %122, label %34, label %41

123:                                              ; preds = %81, %78
  call void @llvm.lifetime.end.p0(i64 32, ptr nonnull %7) #29
  br label %231

124:                                              ; preds = %37, %201
  %125 = phi ptr [ %35, %37 ], [ %202, %201 ]
  invoke void @_ZNSt7__cxx1112basic_stringIcSt11char_traitsIcESaIcEE9_M_assignERKS4_(ptr noundef nonnull align 8 dereferenceable(32) %5, ptr noundef nonnull align 8 dereferenceable(32) %38)
          to label %126 unwind label %175

126:                                              ; preds = %124
  %127 = getelementptr inbounds %"struct.std::_List_node", ptr %125, i64 0, i32 1
  %128 = getelementptr inbounds %"struct.std::_List_node", ptr %125, i64 0, i32 1, i32 1
  br label %129

129:                                              ; preds = %188, %126
  %130 = invoke noundef i64 @_ZNKSt7__cxx1112basic_stringIcSt11char_traitsIcESaIcEE4findEcm(ptr noundef nonnull align 8 dereferenceable(32) %5, i8 noundef signext 124, i64 noundef 0)
          to label %131 unwind label %173

131:                                              ; preds = %129
  %132 = icmp eq i64 %130, -1
  br i1 %132, label %189, label %133

133:                                              ; preds = %131
  call void @llvm.lifetime.start.p0(i64 32, ptr nonnull %8) #29
  %134 = invoke noundef i64 @_ZNKSt7__cxx1112basic_stringIcSt11char_traitsIcESaIcEE4findEcm(ptr noundef nonnull align 8 dereferenceable(32) %5, i8 noundef signext 124, i64 noundef 0)
          to label %135 unwind label %177

135:                                              ; preds = %133
  store ptr %39, ptr %8, align 8, !tbaa !35
  %136 = load i64, ptr %24, align 8, !tbaa !26
  %137 = load ptr, ptr %5, align 8, !tbaa !23
  %138 = call i64 @llvm.umin.i64(i64 %136, i64 %134)
  call void @llvm.lifetime.start.p0(i64 8, ptr nonnull %3) #29
  store i64 %138, ptr %3, align 8, !tbaa !53
  %139 = icmp ugt i64 %138, 15
  br i1 %139, label %140, label %144

140:                                              ; preds = %135
  %141 = invoke noundef ptr @_ZNSt7__cxx1112basic_stringIcSt11char_traitsIcESaIcEE9_M_createERmm(ptr noundef nonnull align 8 dereferenceable(32) %8, ptr noundef nonnull align 8 dereferenceable(8) %3, i64 noundef 0)
          to label %142 unwind label %177

142:                                              ; preds = %140
  store ptr %141, ptr %8, align 8, !tbaa !23
  %143 = load i64, ptr %3, align 8, !tbaa !53
  store i64 %143, ptr %39, align 8, !tbaa !37
  br label %144

144:                                              ; preds = %142, %135
  %145 = phi ptr [ %141, %142 ], [ %39, %135 ]
  switch i64 %138, label %148 [
    i64 1, label %146
    i64 0, label %149
  ]

146:                                              ; preds = %144
  %147 = load i8, ptr %137, align 1, !tbaa !37
  store i8 %147, ptr %145, align 1, !tbaa !37
  br label %149

148:                                              ; preds = %144
  call void @llvm.memcpy.p0.p0.i64(ptr align 1 %145, ptr align 1 %137, i64 %138, i1 false)
  br label %149

149:                                              ; preds = %148, %146, %144
  %150 = load i64, ptr %3, align 8, !tbaa !53
  store i64 %150, ptr %40, align 8, !tbaa !26
  %151 = load ptr, ptr %8, align 8, !tbaa !23
  %152 = getelementptr inbounds i8, ptr %151, i64 %150
  store i8 0, ptr %152, align 1, !tbaa !37
  call void @llvm.lifetime.end.p0(i64 8, ptr nonnull %3) #29
  %153 = load i64, ptr %128, align 8, !tbaa !26
  %154 = load i64, ptr %40, align 8, !tbaa !26
  %155 = icmp eq i64 %153, %154
  br i1 %155, label %158, label %156

156:                                              ; preds = %149
  %157 = load ptr, ptr %8, align 8, !tbaa !23
  br label %165

158:                                              ; preds = %149
  %159 = icmp eq i64 %153, 0
  %160 = load ptr, ptr %8, align 8, !tbaa !23
  br i1 %159, label %165, label %161

161:                                              ; preds = %158
  %162 = load ptr, ptr %127, align 8, !tbaa !23
  %163 = call i32 @bcmp(ptr %162, ptr %160, i64 %153)
  %164 = icmp eq i32 %163, 0
  br label %165

165:                                              ; preds = %156, %161, %158
  %166 = phi ptr [ %157, %156 ], [ %160, %161 ], [ %160, %158 ]
  %167 = phi i1 [ false, %156 ], [ %164, %161 ], [ true, %158 ]
  %168 = icmp eq ptr %166, %39
  br i1 %168, label %169, label %171

169:                                              ; preds = %165
  %170 = icmp ult i64 %154, 16
  call void @llvm.assume(i1 %170)
  br label %172

171:                                              ; preds = %165
  call void @_ZdlPv(ptr noundef %166) #30
  br label %172

172:                                              ; preds = %171, %169
  call void @llvm.lifetime.end.p0(i64 32, ptr nonnull %8) #29
  br i1 %167, label %201, label %179

173:                                              ; preds = %129, %179, %184
  %174 = landingpad { ptr, i32 }
          cleanup
  br label %231

175:                                              ; preds = %124
  %176 = landingpad { ptr, i32 }
          cleanup
  br label %231

177:                                              ; preds = %140, %133
  %178 = landingpad { ptr, i32 }
          cleanup
  call void @llvm.lifetime.end.p0(i64 32, ptr nonnull %8) #29
  br label %231

179:                                              ; preds = %172
  %180 = invoke noundef i64 @_ZNKSt7__cxx1112basic_stringIcSt11char_traitsIcESaIcEE4findEcm(ptr noundef nonnull align 8 dereferenceable(32) %5, i8 noundef signext 124, i64 noundef 0)
          to label %181 unwind label %173

181:                                              ; preds = %179
  switch i64 %180, label %184 [
    i64 -2, label %182
    i64 -1, label %188
  ]

182:                                              ; preds = %181
  store i64 0, ptr %24, align 8, !tbaa !26
  %183 = load ptr, ptr %5, align 8, !tbaa !23
  store i8 0, ptr %183, align 1, !tbaa !37
  br label %188

184:                                              ; preds = %181
  %185 = add nuw i64 %180, 1
  %186 = load i64, ptr %24, align 8, !tbaa !26
  %187 = call i64 @llvm.umin.i64(i64 %186, i64 %185)
  invoke void @_ZNSt7__cxx1112basic_stringIcSt11char_traitsIcESaIcEE8_M_eraseEmm(ptr noundef nonnull align 8 dereferenceable(32) %5, i64 noundef 0, i64 noundef %187)
          to label %188 unwind label %173

188:                                              ; preds = %184, %181, %182
  br label %129

189:                                              ; preds = %131
  %190 = load i64, ptr %128, align 8, !tbaa !26
  %191 = load i64, ptr %24, align 8, !tbaa !26
  %192 = icmp eq i64 %190, %191
  br i1 %192, label %193, label %204

193:                                              ; preds = %189
  %194 = icmp eq i64 %190, 0
  br i1 %194, label %201, label %195

195:                                              ; preds = %193
  %196 = load ptr, ptr %5, align 8, !tbaa !23
  %197 = load ptr, ptr %127, align 8, !tbaa !23
  %198 = call i32 @bcmp(ptr %197, ptr %196, i64 %190)
  %199 = freeze i32 %198
  %200 = icmp eq i32 %199, 0
  br i1 %200, label %201, label %204

201:                                              ; preds = %172, %195, %193
  %202 = load ptr, ptr %125, align 8, !tbaa !76
  %203 = icmp eq ptr %202, %6
  br i1 %203, label %204, label %124

204:                                              ; preds = %195, %201, %189
  %205 = phi i1 [ false, %195 ], [ true, %201 ], [ false, %189 ]
  %206 = load ptr, ptr %6, align 8, !tbaa !76
  %207 = icmp eq ptr %206, %6
  br i1 %207, label %222, label %208

208:                                              ; preds = %204, %220
  %209 = phi ptr [ %210, %220 ], [ %206, %204 ]
  %210 = load ptr, ptr %209, align 8, !tbaa !76
  %211 = getelementptr inbounds %"struct.std::_List_node", ptr %209, i64 0, i32 1
  %212 = load ptr, ptr %211, align 8, !tbaa !23
  %213 = getelementptr inbounds %"struct.std::_List_node", ptr %209, i64 0, i32 1, i32 2
  %214 = icmp eq ptr %212, %213
  br i1 %214, label %215, label %219

215:                                              ; preds = %208
  %216 = getelementptr inbounds %"struct.std::_List_node", ptr %209, i64 0, i32 1, i32 1
  %217 = load i64, ptr %216, align 8, !tbaa !26
  %218 = icmp ult i64 %217, 16
  call void @llvm.assume(i1 %218)
  br label %220

219:                                              ; preds = %208
  call void @_ZdlPv(ptr noundef %212) #30
  br label %220

220:                                              ; preds = %219, %215
  call void @_ZdlPv(ptr noundef nonnull %209) #30
  %221 = icmp eq ptr %210, %6
  br i1 %221, label %222, label %208

222:                                              ; preds = %220, %22, %34, %204
  %223 = phi i1 [ %205, %204 ], [ true, %34 ], [ true, %22 ], [ %205, %220 ]
  call void @llvm.lifetime.end.p0(i64 24, ptr nonnull %6) #29
  %224 = load ptr, ptr %5, align 8, !tbaa !23
  %225 = icmp eq ptr %224, %9
  br i1 %225, label %226, label %229

226:                                              ; preds = %222
  %227 = load i64, ptr %24, align 8, !tbaa !26
  %228 = icmp ult i64 %227, 16
  call void @llvm.assume(i1 %228)
  br label %230

229:                                              ; preds = %222
  call void @_ZdlPv(ptr noundef %224) #30
  br label %230

230:                                              ; preds = %226, %229
  call void @llvm.lifetime.end.p0(i64 32, ptr nonnull %5) #29
  ret i1 %223

231:                                              ; preds = %173, %175, %177, %123
  %232 = phi { ptr, i32 } [ %75, %123 ], [ %178, %177 ], [ %174, %173 ], [ %176, %175 ]
  invoke void @_ZNSt7__cxx1110_List_baseINS_12basic_stringIcSt11char_traitsIcESaIcEEESaIS5_EED2Ev(ptr noundef nonnull align 8 dereferenceable(24) %6)
          to label %233 unwind label %241

233:                                              ; preds = %231
  call void @llvm.lifetime.end.p0(i64 24, ptr nonnull %6) #29
  %234 = load ptr, ptr %5, align 8, !tbaa !23
  %235 = icmp eq ptr %234, %9
  br i1 %235, label %236, label %239

236:                                              ; preds = %233
  %237 = load i64, ptr %24, align 8, !tbaa !26
  %238 = icmp ult i64 %237, 16
  call void @llvm.assume(i1 %238)
  br label %240

239:                                              ; preds = %233
  call void @_ZdlPv(ptr noundef %234) #30
  br label %240

240:                                              ; preds = %239, %236
  call void @llvm.lifetime.end.p0(i64 32, ptr nonnull %5) #29
  resume { ptr, i32 } %232

241:                                              ; preds = %231
  %242 = landingpad { ptr, i32 }
          catch ptr null
  %243 = extractvalue { ptr, i32 } %242, 0
  call void @__clang_call_terminate(ptr %243) #28
  unreachable
}

; Function Attrs: sspstrong uwtable
define linkonce_odr dso_local void @_ZNSt7__cxx1110_List_baseINS_12basic_stringIcSt11char_traitsIcESaIcEEESaIS5_EED2Ev(ptr noundef nonnull align 8 dereferenceable(24) %0) unnamed_addr #5 comdat align 2 personality ptr @__gxx_personality_v0 {
  %2 = load ptr, ptr %0, align 8, !tbaa !76
  %3 = icmp eq ptr %2, %0
  br i1 %3, label %18, label %4

4:                                                ; preds = %1, %16
  %5 = phi ptr [ %6, %16 ], [ %2, %1 ]
  %6 = load ptr, ptr %5, align 8, !tbaa !76
  %7 = getelementptr inbounds %"struct.std::_List_node", ptr %5, i64 0, i32 1
  %8 = load ptr, ptr %7, align 8, !tbaa !23
  %9 = getelementptr inbounds %"struct.std::_List_node", ptr %5, i64 0, i32 1, i32 2
  %10 = icmp eq ptr %8, %9
  br i1 %10, label %11, label %15

11:                                               ; preds = %4
  %12 = getelementptr inbounds %"struct.std::_List_node", ptr %5, i64 0, i32 1, i32 1
  %13 = load i64, ptr %12, align 8, !tbaa !26
  %14 = icmp ult i64 %13, 16
  tail call void @llvm.assume(i1 %14)
  br label %16

15:                                               ; preds = %4
  tail call void @_ZdlPv(ptr noundef %8) #30
  br label %16

16:                                               ; preds = %15, %11
  tail call void @_ZdlPv(ptr noundef nonnull %5) #30
  %17 = icmp eq ptr %6, %0
  br i1 %17, label %18, label %4

18:                                               ; preds = %16, %1
  ret void
}

; Function Attrs: sspstrong uwtable
define dso_local void @_ZNK6dealii8Patterns17MultipleSelection11descriptionB5cxx11Ev(ptr noalias sret(%"class.std::__cxx11::basic_string") align 8 %0, ptr nocapture noundef nonnull readonly align 8 dereferenceable(40) %1) unnamed_addr #5 align 2 personality ptr @__gxx_personality_v0 {
  %3 = alloca i64, align 8
  %4 = getelementptr inbounds %"class.dealii::Patterns::MultipleSelection", ptr %1, i64 0, i32 1
  %5 = getelementptr inbounds %"class.std::__cxx11::basic_string", ptr %0, i64 0, i32 2
  store ptr %5, ptr %0, align 8, !tbaa !35
  %6 = load ptr, ptr %4, align 8, !tbaa !23
  %7 = getelementptr inbounds %"class.dealii::Patterns::MultipleSelection", ptr %1, i64 0, i32 1, i32 1
  %8 = load i64, ptr %7, align 8, !tbaa !26
  call void @llvm.lifetime.start.p0(i64 8, ptr nonnull %3) #29
  store i64 %8, ptr %3, align 8, !tbaa !53
  %9 = icmp ugt i64 %8, 15
  br i1 %9, label %10, label %13

10:                                               ; preds = %2
  %11 = call noundef ptr @_ZNSt7__cxx1112basic_stringIcSt11char_traitsIcESaIcEE9_M_createERmm(ptr noundef nonnull align 8 dereferenceable(32) %0, ptr noundef nonnull align 8 dereferenceable(8) %3, i64 noundef 0)
  store ptr %11, ptr %0, align 8, !tbaa !23
  %12 = load i64, ptr %3, align 8, !tbaa !53
  store i64 %12, ptr %5, align 8, !tbaa !37
  br label %13

13:                                               ; preds = %10, %2
  %14 = phi ptr [ %11, %10 ], [ %5, %2 ]
  switch i64 %8, label %17 [
    i64 1, label %15
    i64 0, label %18
  ]

15:                                               ; preds = %13
  %16 = load i8, ptr %6, align 1, !tbaa !37
  store i8 %16, ptr %14, align 1, !tbaa !37
  br label %18

17:                                               ; preds = %13
  call void @llvm.memcpy.p0.p0.i64(ptr align 1 %14, ptr align 1 %6, i64 %8, i1 false)
  br label %18

18:                                               ; preds = %13, %15, %17
  %19 = load i64, ptr %3, align 8, !tbaa !53
  %20 = getelementptr inbounds %"class.std::__cxx11::basic_string", ptr %0, i64 0, i32 1
  store i64 %19, ptr %20, align 8, !tbaa !26
  %21 = load ptr, ptr %0, align 8, !tbaa !23
  %22 = getelementptr inbounds i8, ptr %21, i64 %19
  store i8 0, ptr %22, align 1, !tbaa !37
  call void @llvm.lifetime.end.p0(i64 8, ptr nonnull %3) #29
  ret void
}

; Function Attrs: sspstrong uwtable
define dso_local noundef nonnull ptr @_ZNK6dealii8Patterns17MultipleSelection5cloneEv(ptr noundef nonnull align 8 dereferenceable(40) %0) unnamed_addr #5 align 2 personality ptr @__gxx_personality_v0 {
  %2 = tail call noalias noundef nonnull dereferenceable(40) ptr @_Znwm(i64 noundef 40) #31
  %3 = getelementptr inbounds %"class.dealii::Patterns::MultipleSelection", ptr %0, i64 0, i32 1
  invoke void @_ZN6dealii8Patterns17MultipleSelectionC2ERKNSt7__cxx1112basic_stringIcSt11char_traitsIcESaIcEEE(ptr noundef nonnull align 8 dereferenceable(40) %2, ptr noundef nonnull align 8 dereferenceable(32) %3)
          to label %4 unwind label %5

4:                                                ; preds = %1
  ret ptr %2

5:                                                ; preds = %1
  %6 = landingpad { ptr, i32 }
          cleanup
  tail call void @_ZdlPv(ptr noundef nonnull %2) #30
  resume { ptr, i32 } %6
}

; Function Attrs: mustprogress nofree norecurse nosync nounwind sspstrong willreturn memory(argmem: read) uwtable
define dso_local noundef i32 @_ZNK6dealii8Patterns17MultipleSelection18memory_consumptionEv(ptr nocapture noundef nonnull readonly align 8 dereferenceable(40) %0) unnamed_addr #11 align 2 {
  %2 = getelementptr inbounds %"class.dealii::Patterns::MultipleSelection", ptr %0, i64 0, i32 1, i32 1
  %3 = load i64, ptr %2, align 8, !tbaa !26
  %4 = trunc i64 %3 to i32
  %5 = add i32 %4, 40
  ret i32 %5
}

; Function Attrs: sspstrong uwtable
define dso_local void @_ZN6dealii8Patterns4BoolC2Ev(ptr noundef nonnull align 8 dereferenceable(40) %0) unnamed_addr #5 align 2 personality ptr @__gxx_personality_v0 {
  %2 = alloca %"class.std::__cxx11::basic_string", align 8
  call void @llvm.lifetime.start.p0(i64 32, ptr nonnull %2) #29
  %3 = getelementptr inbounds %"class.std::__cxx11::basic_string", ptr %2, i64 0, i32 2
  store ptr %3, ptr %2, align 8, !tbaa !35
  call void @llvm.memcpy.p0.p0.i64(ptr noundef nonnull align 8 dereferenceable(10) %3, ptr noundef nonnull align 1 dereferenceable(10) @.str.19, i64 10, i1 false)
  %4 = getelementptr inbounds %"class.std::__cxx11::basic_string", ptr %2, i64 0, i32 1
  store i64 10, ptr %4, align 8, !tbaa !26
  %5 = getelementptr inbounds %"class.std::__cxx11::basic_string", ptr %2, i64 0, i32 2, i32 1, i64 2
  store i8 0, ptr %5, align 2, !tbaa !37
  invoke void @_ZN6dealii8Patterns9SelectionC2ERKNSt7__cxx1112basic_stringIcSt11char_traitsIcESaIcEEE(ptr noundef nonnull align 8 dereferenceable(40) %0, ptr noundef nonnull align 8 dereferenceable(32) %2)
          to label %6 unwind label %14

6:                                                ; preds = %1
  %7 = load ptr, ptr %2, align 8, !tbaa !23
  %8 = icmp eq ptr %7, %3
  br i1 %8, label %9, label %12

9:                                                ; preds = %6
  %10 = load i64, ptr %4, align 8, !tbaa !26
  %11 = icmp ult i64 %10, 16
  call void @llvm.assume(i1 %11)
  br label %13

12:                                               ; preds = %6
  call void @_ZdlPv(ptr noundef %7) #30
  br label %13

13:                                               ; preds = %12, %9
  call void @llvm.lifetime.end.p0(i64 32, ptr nonnull %2) #29
  store ptr getelementptr inbounds ({ [8 x ptr] }, ptr @_ZTVN6dealii8Patterns4BoolE, i64 0, inrange i32 0, i64 2), ptr %0, align 8, !tbaa !5
  ret void

14:                                               ; preds = %1
  %15 = landingpad { ptr, i32 }
          cleanup
  %16 = load ptr, ptr %2, align 8, !tbaa !23
  %17 = icmp eq ptr %16, %3
  br i1 %17, label %18, label %21

18:                                               ; preds = %14
  %19 = load i64, ptr %4, align 8, !tbaa !26
  %20 = icmp ult i64 %19, 16
  call void @llvm.assume(i1 %20)
  br label %22

21:                                               ; preds = %14
  call void @_ZdlPv(ptr noundef %16) #30
  br label %22

22:                                               ; preds = %21, %18
  call void @llvm.lifetime.end.p0(i64 32, ptr nonnull %2) #29
  resume { ptr, i32 } %15
}

; Function Attrs: sspstrong uwtable
define dso_local noundef nonnull ptr @_ZNK6dealii8Patterns4Bool5cloneEv(ptr nocapture nonnull readnone align 8 %0) unnamed_addr #5 align 2 personality ptr @__gxx_personality_v0 {
  %2 = alloca %"class.std::__cxx11::basic_string", align 8
  %3 = tail call noalias noundef nonnull dereferenceable(40) ptr @_Znwm(i64 noundef 40) #31
  call void @llvm.lifetime.start.p0(i64 32, ptr nonnull %2) #29
  %4 = getelementptr inbounds %"class.std::__cxx11::basic_string", ptr %2, i64 0, i32 2
  store ptr %4, ptr %2, align 8, !tbaa !35
  call void @llvm.memcpy.p0.p0.i64(ptr noundef nonnull align 8 dereferenceable(10) %4, ptr noundef nonnull align 1 dereferenceable(10) @.str.19, i64 10, i1 false)
  %5 = getelementptr inbounds %"class.std::__cxx11::basic_string", ptr %2, i64 0, i32 1
  store i64 10, ptr %5, align 8, !tbaa !26
  %6 = getelementptr inbounds %"class.std::__cxx11::basic_string", ptr %2, i64 0, i32 2, i32 1, i64 2
  store i8 0, ptr %6, align 2, !tbaa !37
  invoke void @_ZN6dealii8Patterns9SelectionC2ERKNSt7__cxx1112basic_stringIcSt11char_traitsIcESaIcEEE(ptr noundef nonnull align 8 dereferenceable(40) %3, ptr noundef nonnull align 8 dereferenceable(32) %2)
          to label %7 unwind label %14

7:                                                ; preds = %1
  %8 = load ptr, ptr %2, align 8, !tbaa !23
  %9 = icmp eq ptr %8, %4
  br i1 %9, label %10, label %13

10:                                               ; preds = %7
  %11 = load i64, ptr %5, align 8, !tbaa !26
  %12 = icmp ult i64 %11, 16
  call void @llvm.assume(i1 %12)
  br label %23

13:                                               ; preds = %7
  call void @_ZdlPv(ptr noundef %8) #30
  br label %23

14:                                               ; preds = %1
  %15 = landingpad { ptr, i32 }
          cleanup
  %16 = load ptr, ptr %2, align 8, !tbaa !23
  %17 = icmp eq ptr %16, %4
  br i1 %17, label %18, label %21

18:                                               ; preds = %14
  %19 = load i64, ptr %5, align 8, !tbaa !26
  %20 = icmp ult i64 %19, 16
  call void @llvm.assume(i1 %20)
  br label %22

21:                                               ; preds = %14
  call void @_ZdlPv(ptr noundef %16) #30
  br label %22

22:                                               ; preds = %21, %18
  call void @llvm.lifetime.end.p0(i64 32, ptr nonnull %2) #29
  call void @_ZdlPv(ptr noundef nonnull %3) #30
  resume { ptr, i32 } %15

23:                                               ; preds = %13, %10
  call void @llvm.lifetime.end.p0(i64 32, ptr nonnull %2) #29
  store ptr getelementptr inbounds ({ [8 x ptr] }, ptr @_ZTVN6dealii8Patterns4BoolE, i64 0, inrange i32 0, i64 2), ptr %3, align 8, !tbaa !5
  ret ptr %3
}

; Function Attrs: mustprogress nofree norecurse nosync nounwind sspstrong willreturn memory(argmem: write) uwtable
define dso_local void @_ZN6dealii8Patterns8AnythingC2Ev(ptr nocapture noundef nonnull writeonly align 8 dereferenceable(8) %0) unnamed_addr #4 align 2 {
  store ptr getelementptr inbounds ({ [8 x ptr] }, ptr @_ZTVN6dealii8Patterns8AnythingE, i64 0, inrange i32 0, i64 2), ptr %0, align 8, !tbaa !5
  ret void
}

; Function Attrs: mustprogress nofree norecurse nosync nounwind sspstrong willreturn memory(none) uwtable
define dso_local noundef zeroext i1 @_ZNK6dealii8Patterns8Anything5matchERKNSt7__cxx1112basic_stringIcSt11char_traitsIcESaIcEEE(ptr nocapture nonnull readnone align 8 %0, ptr nocapture nonnull readnone align 8 %1) unnamed_addr #13 align 2 {
  ret i1 true
}

; Function Attrs: mustprogress nofree nosync nounwind sspstrong willreturn memory(argmem: readwrite) uwtable
define dso_local void @_ZNK6dealii8Patterns8Anything11descriptionB5cxx11Ev(ptr noalias sret(%"class.std::__cxx11::basic_string") align 8 %0, ptr nocapture nonnull readnone align 8 %1) unnamed_addr #14 align 2 personality ptr @__gxx_personality_v0 {
  %3 = getelementptr inbounds %"class.std::__cxx11::basic_string", ptr %0, i64 0, i32 2
  store ptr %3, ptr %0, align 8, !tbaa !35
  tail call void @llvm.memcpy.p0.p0.i64(ptr noundef nonnull align 8 dereferenceable(10) %3, ptr noundef nonnull align 1 dereferenceable(10) @.str.20, i64 10, i1 false)
  %4 = getelementptr inbounds %"class.std::__cxx11::basic_string", ptr %0, i64 0, i32 1
  store i64 10, ptr %4, align 8, !tbaa !26
  %5 = getelementptr inbounds %"class.std::__cxx11::basic_string", ptr %0, i64 0, i32 2, i32 1, i64 2
  store i8 0, ptr %5, align 2, !tbaa !37
  ret void
}

; Function Attrs: sspstrong uwtable
define dso_local noalias noundef nonnull ptr @_ZNK6dealii8Patterns8Anything5cloneEv(ptr nocapture nonnull readnone align 8 %0) unnamed_addr #5 align 2 personality ptr @__gxx_personality_v0 {
  %2 = tail call noalias noundef nonnull dereferenceable(8) ptr @_Znwm(i64 noundef 8) #31
  store ptr getelementptr inbounds ({ [8 x ptr] }, ptr @_ZTVN6dealii8Patterns8AnythingE, i64 0, inrange i32 0, i64 2), ptr %2, align 8, !tbaa !5
  ret ptr %2
}

; Function Attrs: sspstrong uwtable
define dso_local void @_ZN6dealii16ParameterHandlerC2Ev(ptr noundef nonnull align 8 dereferenceable(288) %0) unnamed_addr #5 align 2 personality ptr @__gxx_personality_v0 {
  tail call void @_ZN6dealii11SubscriptorC2Ev(ptr noundef nonnull align 8 dereferenceable(72) %0)
  store ptr getelementptr inbounds ({ [7 x ptr] }, ptr @_ZTVN6dealii16ParameterHandlerE, i64 0, inrange i32 0, i64 2), ptr %0, align 8, !tbaa !5
  %2 = getelementptr inbounds %"class.dealii::ParameterHandler", ptr %0, i64 0, i32 1
  tail call void @llvm.memset.p0.i64(ptr noundef nonnull align 8 dereferenceable(24) %2, i8 0, i64 24, i1 false)
  %3 = getelementptr inbounds %"class.dealii::ParameterHandler", ptr %0, i64 0, i32 2, i32 0, i32 0, i32 0, i32 1
  store i32 0, ptr %3, align 8, !tbaa !82
  %4 = getelementptr inbounds %"class.dealii::ParameterHandler", ptr %0, i64 0, i32 2, i32 0, i32 0, i32 0, i32 1, i32 0, i32 1
  store ptr null, ptr %4, align 8, !tbaa !86
  %5 = getelementptr inbounds %"class.dealii::ParameterHandler", ptr %0, i64 0, i32 2, i32 0, i32 0, i32 0, i32 1, i32 0, i32 2
  store ptr %3, ptr %5, align 8, !tbaa !87
  %6 = getelementptr inbounds %"class.dealii::ParameterHandler", ptr %0, i64 0, i32 2, i32 0, i32 0, i32 0, i32 1, i32 0, i32 3
  store ptr %3, ptr %6, align 8, !tbaa !88
  %7 = getelementptr inbounds %"class.dealii::ParameterHandler", ptr %0, i64 0, i32 2, i32 0, i32 0, i32 0, i32 1, i32 1
  store i64 0, ptr %7, align 8, !tbaa !89
  %8 = getelementptr inbounds %"class.dealii::ParameterHandler", ptr %0, i64 0, i32 2, i32 1, i32 0, i32 0, i32 1
  store i32 0, ptr %8, align 8, !tbaa !82
  %9 = getelementptr inbounds %"class.dealii::ParameterHandler", ptr %0, i64 0, i32 2, i32 1, i32 0, i32 0, i32 1, i32 0, i32 1
  store ptr null, ptr %9, align 8, !tbaa !86
  %10 = getelementptr inbounds %"class.dealii::ParameterHandler", ptr %0, i64 0, i32 2, i32 1, i32 0, i32 0, i32 1, i32 0, i32 2
  store ptr %8, ptr %10, align 8, !tbaa !87
  %11 = getelementptr inbounds %"class.dealii::ParameterHandler", ptr %0, i64 0, i32 2, i32 1, i32 0, i32 0, i32 1, i32 0, i32 3
  store ptr %8, ptr %11, align 8, !tbaa !88
  %12 = getelementptr inbounds %"class.dealii::ParameterHandler", ptr %0, i64 0, i32 2, i32 1, i32 0, i32 0, i32 1, i32 1
  store i64 0, ptr %12, align 8, !tbaa !89
  %13 = getelementptr inbounds %"class.dealii::ParameterHandler", ptr %0, i64 0, i32 3, i32 0, i32 0, i32 0, i32 1
  store i32 0, ptr %13, align 8, !tbaa !82
  %14 = getelementptr inbounds %"class.dealii::ParameterHandler", ptr %0, i64 0, i32 3, i32 0, i32 0, i32 0, i32 1, i32 0, i32 1
  store ptr null, ptr %14, align 8, !tbaa !86
  %15 = getelementptr inbounds %"class.dealii::ParameterHandler", ptr %0, i64 0, i32 3, i32 0, i32 0, i32 0, i32 1, i32 0, i32 2
  store ptr %13, ptr %15, align 8, !tbaa !87
  %16 = getelementptr inbounds %"class.dealii::ParameterHandler", ptr %0, i64 0, i32 3, i32 0, i32 0, i32 0, i32 1, i32 0, i32 3
  store ptr %13, ptr %16, align 8, !tbaa !88
  %17 = getelementptr inbounds %"class.dealii::ParameterHandler", ptr %0, i64 0, i32 3, i32 0, i32 0, i32 0, i32 1, i32 1
  store i64 0, ptr %17, align 8, !tbaa !89
  %18 = getelementptr inbounds %"class.dealii::ParameterHandler", ptr %0, i64 0, i32 3, i32 1, i32 0, i32 0, i32 1
  store i32 0, ptr %18, align 8, !tbaa !82
  %19 = getelementptr inbounds %"class.dealii::ParameterHandler", ptr %0, i64 0, i32 3, i32 1, i32 0, i32 0, i32 1, i32 0, i32 1
  store ptr null, ptr %19, align 8, !tbaa !86
  %20 = getelementptr inbounds %"class.dealii::ParameterHandler", ptr %0, i64 0, i32 3, i32 1, i32 0, i32 0, i32 1, i32 0, i32 2
  store ptr %18, ptr %20, align 8, !tbaa !87
  %21 = getelementptr inbounds %"class.dealii::ParameterHandler", ptr %0, i64 0, i32 3, i32 1, i32 0, i32 0, i32 1, i32 0, i32 3
  store ptr %18, ptr %21, align 8, !tbaa !88
  %22 = getelementptr inbounds %"class.dealii::ParameterHandler", ptr %0, i64 0, i32 3, i32 1, i32 0, i32 0, i32 1, i32 1
  store i64 0, ptr %22, align 8, !tbaa !89
  ret void
}

declare void @_ZN6dealii11SubscriptorC2Ev(ptr noundef nonnull align 8 dereferenceable(72)) unnamed_addr #7

declare void @_ZN6dealii11SubscriptorD2Ev(ptr noundef nonnull align 8 dereferenceable(72)) unnamed_addr #7

; Function Attrs: sspstrong uwtable
define dso_local void @_ZN6dealii16ParameterHandlerD2Ev(ptr noundef nonnull align 8 dereferenceable(288) %0) unnamed_addr #5 align 2 personality ptr @__gxx_personality_v0 {
  store ptr getelementptr inbounds ({ [7 x ptr] }, ptr @_ZTVN6dealii16ParameterHandlerE, i64 0, inrange i32 0, i64 2), ptr %0, align 8, !tbaa !5
  %2 = getelementptr inbounds %"class.dealii::ParameterHandler", ptr %0, i64 0, i32 3
  invoke void @_ZN6dealii16ParameterHandler7SectionD2Ev(ptr noundef nonnull align 8 dereferenceable(96) %2)
          to label %3 unwind label %31

3:                                                ; preds = %1
  %4 = getelementptr inbounds %"class.dealii::ParameterHandler", ptr %0, i64 0, i32 2
  invoke void @_ZN6dealii16ParameterHandler7SectionD2Ev(ptr noundef nonnull align 8 dereferenceable(96) %4)
          to label %5 unwind label %34

5:                                                ; preds = %3
  %6 = getelementptr inbounds %"class.dealii::ParameterHandler", ptr %0, i64 0, i32 1
  %7 = load ptr, ptr %6, align 8, !tbaa !54
  %8 = getelementptr inbounds %"class.dealii::ParameterHandler", ptr %0, i64 0, i32 1, i32 0, i32 0, i32 0, i32 1
  %9 = load ptr, ptr %8, align 8, !tbaa !56
  %10 = icmp eq ptr %7, %9
  br i1 %10, label %26, label %11

11:                                               ; preds = %5, %21
  %12 = phi ptr [ %22, %21 ], [ %7, %5 ]
  %13 = load ptr, ptr %12, align 8, !tbaa !23
  %14 = getelementptr inbounds %"class.std::__cxx11::basic_string", ptr %12, i64 0, i32 2
  %15 = icmp eq ptr %13, %14
  br i1 %15, label %16, label %20

16:                                               ; preds = %11
  %17 = getelementptr inbounds %"class.std::__cxx11::basic_string", ptr %12, i64 0, i32 1
  %18 = load i64, ptr %17, align 8, !tbaa !26
  %19 = icmp ult i64 %18, 16
  tail call void @llvm.assume(i1 %19)
  br label %21

20:                                               ; preds = %11
  tail call void @_ZdlPv(ptr noundef %13) #30
  br label %21

21:                                               ; preds = %20, %16
  %22 = getelementptr inbounds %"class.std::__cxx11::basic_string", ptr %12, i64 1
  %23 = icmp eq ptr %22, %9
  br i1 %23, label %24, label %11

24:                                               ; preds = %21
  %25 = load ptr, ptr %6, align 8, !tbaa !54
  br label %26

26:                                               ; preds = %24, %5
  %27 = phi ptr [ %25, %24 ], [ %7, %5 ]
  %28 = icmp eq ptr %27, null
  br i1 %28, label %30, label %29

29:                                               ; preds = %26
  tail call void @_ZdlPv(ptr noundef nonnull %27) #30
  br label %30

30:                                               ; preds = %29, %26
  tail call void @_ZN6dealii11SubscriptorD2Ev(ptr noundef nonnull align 8 dereferenceable(72) %0)
  ret void

31:                                               ; preds = %1
  %32 = landingpad { ptr, i32 }
          cleanup
  %33 = getelementptr inbounds %"class.dealii::ParameterHandler", ptr %0, i64 0, i32 2
  invoke void @_ZN6dealii16ParameterHandler7SectionD2Ev(ptr noundef nonnull align 8 dereferenceable(96) %33)
          to label %36 unwind label %41

34:                                               ; preds = %3
  %35 = landingpad { ptr, i32 }
          cleanup
  br label %36

36:                                               ; preds = %31, %34
  %37 = phi { ptr, i32 } [ %35, %34 ], [ %32, %31 ]
  %38 = getelementptr inbounds %"class.dealii::ParameterHandler", ptr %0, i64 0, i32 1
  invoke void @_ZNSt6vectorINSt7__cxx1112basic_stringIcSt11char_traitsIcESaIcEEESaIS5_EED2Ev(ptr noundef nonnull align 8 dereferenceable(24) %38)
          to label %39 unwind label %41

39:                                               ; preds = %36
  invoke void @_ZN6dealii11SubscriptorD2Ev(ptr noundef nonnull align 8 dereferenceable(72) %0)
          to label %40 unwind label %41

40:                                               ; preds = %39
  resume { ptr, i32 } %37

41:                                               ; preds = %39, %36, %31
  %42 = landingpad { ptr, i32 }
          catch ptr null
  %43 = extractvalue { ptr, i32 } %42, 0
  tail call void @__clang_call_terminate(ptr %43) #28
  unreachable
}

; Function Attrs: sspstrong uwtable
define dso_local void @_ZN6dealii16ParameterHandlerD0Ev(ptr noundef nonnull align 8 dereferenceable(288) %0) unnamed_addr #5 align 2 personality ptr @__gxx_personality_v0 {
  invoke void @_ZN6dealii16ParameterHandlerD2Ev(ptr noundef nonnull align 8 dereferenceable(288) %0)
          to label %2 unwind label %3

2:                                                ; preds = %1
  tail call void @_ZdlPv(ptr noundef nonnull %0) #30
  ret void

3:                                                ; preds = %1
  %4 = landingpad { ptr, i32 }
          cleanup
  tail call void @_ZdlPv(ptr noundef nonnull %0) #30
  resume { ptr, i32 } %4
}

; Function Attrs: sspstrong uwtable
define dso_local noundef zeroext i1 @_ZN6dealii16ParameterHandler10read_inputERSi(ptr noundef nonnull align 8 dereferenceable(288) %0, ptr noundef nonnull align 8 dereferenceable(16) %1) unnamed_addr #5 align 2 personality ptr @__gxx_personality_v0 {
  %3 = alloca i64, align 8
  %4 = alloca %"class.dealii::StandardExceptions::ExcIO", align 8
  %5 = alloca %"class.std::__cxx11::basic_string", align 8
  %6 = alloca %"class.std::__cxx11::basic_string", align 8
  %7 = load ptr, ptr %1, align 8, !tbaa !5
  %8 = getelementptr i8, ptr %7, i64 -24
  %9 = load i64, ptr %8, align 8
  %10 = getelementptr inbounds i8, ptr %1, i64 %9
  %11 = getelementptr inbounds %"class.std::ios_base", ptr %10, i64 0, i32 5
  %12 = load i32, ptr %11, align 8, !tbaa !14
  %13 = and i32 %12, 5
  %14 = icmp eq i32 %13, 0
  br i1 %14, label %26, label %15

15:                                               ; preds = %2
  call void @llvm.memset.p0.i64(ptr noundef nonnull align 8 dereferenceable(64) %4, i8 0, i64 64, i1 false)
  call void @_ZN6dealii13ExceptionBaseC2Ev(ptr noundef nonnull align 8 dereferenceable(60) %4)
  store ptr getelementptr inbounds ({ [6 x ptr] }, ptr @_ZTVN6dealii18StandardExceptions5ExcIOE, i64 0, inrange i32 0, i64 2), ptr %4, align 8, !tbaa !5
  invoke void @_ZN6dealii13ExceptionBase10set_fieldsEPKciS2_S2_S2_(ptr noundef nonnull align 8 dereferenceable(60) %4, ptr noundef nonnull @.str.21, i32 noundef 530, ptr noundef nonnull @.str.14, ptr noundef nonnull @.str.22, ptr noundef nonnull @.str.23)
          to label %16 unwind label %22

16:                                               ; preds = %15
  %17 = call ptr @__cxa_allocate_exception(i64 64) #29
  invoke void @_ZN6dealii13ExceptionBaseC2ERKS0_(ptr noundef nonnull align 8 dereferenceable(60) %17, ptr noundef nonnull align 8 dereferenceable(60) %4)
          to label %18 unwind label %20

18:                                               ; preds = %16
  store ptr getelementptr inbounds ({ [6 x ptr] }, ptr @_ZTVN6dealii18StandardExceptions5ExcIOE, i64 0, inrange i32 0, i64 2), ptr %17, align 8, !tbaa !5
  invoke void @__cxa_throw(ptr nonnull %17, ptr nonnull @_ZTIN6dealii18StandardExceptions5ExcIOE, ptr nonnull @_ZN6dealii13ExceptionBaseD2Ev) #32
          to label %19 unwind label %22

19:                                               ; preds = %18
  unreachable

20:                                               ; preds = %16
  %21 = landingpad { ptr, i32 }
          cleanup
  call void @__cxa_free_exception(ptr %17) #29
  br label %24

22:                                               ; preds = %18, %15
  %23 = landingpad { ptr, i32 }
          cleanup
  br label %24

24:                                               ; preds = %20, %22
  %25 = phi { ptr, i32 } [ %23, %22 ], [ %21, %20 ]
  call void @_ZN6dealii13ExceptionBaseD2Ev(ptr noundef nonnull align 8 dereferenceable(60) %4) #29
  br label %133

26:                                               ; preds = %2
  call void @llvm.lifetime.start.p0(i64 32, ptr nonnull %5) #29
  %27 = getelementptr inbounds %"class.std::__cxx11::basic_string", ptr %5, i64 0, i32 2
  store ptr %27, ptr %5, align 8, !tbaa !35
  %28 = getelementptr inbounds %"class.std::__cxx11::basic_string", ptr %5, i64 0, i32 1
  store i64 0, ptr %28, align 8, !tbaa !26
  store i8 0, ptr %27, align 8, !tbaa !37
  %29 = load i64, ptr %8, align 8
  %30 = getelementptr inbounds i8, ptr %1, i64 %29
  %31 = getelementptr inbounds %"class.std::ios_base", ptr %30, i64 0, i32 5
  %32 = load i32, ptr %31, align 8, !tbaa !14
  %33 = and i32 %32, 5
  %34 = icmp eq i32 %33, 0
  br i1 %34, label %35, label %116

35:                                               ; preds = %26
  %36 = getelementptr inbounds %"class.std::__cxx11::basic_string", ptr %6, i64 0, i32 2
  %37 = getelementptr inbounds %"class.std::__cxx11::basic_string", ptr %6, i64 0, i32 1
  %38 = getelementptr %"class.std::basic_ios", ptr %1, i64 0, i32 5
  %39 = getelementptr %"class.std::ios_base", ptr %1, i64 0, i32 5
  br label %40

40:                                               ; preds = %35, %91
  %41 = phi i64 [ %29, %35 ], [ %95, %91 ]
  %42 = phi i8 [ 1, %35 ], [ %92, %91 ]
  %43 = phi i32 [ 0, %35 ], [ %44, %91 ]
  %44 = add nuw nsw i32 %43, 1
  %45 = getelementptr i8, ptr %38, i64 %41
  %46 = load ptr, ptr %45, align 8, !tbaa !90
  %47 = icmp eq ptr %46, null
  br i1 %47, label %48, label %50

48:                                               ; preds = %40
  invoke void @_ZSt16__throw_bad_castv() #32
          to label %49 unwind label %102

49:                                               ; preds = %48
  unreachable

50:                                               ; preds = %40
  %51 = getelementptr inbounds %"class.std::ctype", ptr %46, i64 0, i32 8
  %52 = load i8, ptr %51, align 8, !tbaa !93
  %53 = icmp eq i8 %52, 0
  br i1 %53, label %57, label %54

54:                                               ; preds = %50
  %55 = getelementptr inbounds %"class.std::ctype", ptr %46, i64 0, i32 9, i64 10
  %56 = load i8, ptr %55, align 1, !tbaa !37
  br label %63

57:                                               ; preds = %50
  invoke void @_ZNKSt5ctypeIcE13_M_widen_initEv(ptr noundef nonnull align 8 dereferenceable(570) %46)
          to label %58 unwind label %100

58:                                               ; preds = %57
  %59 = load ptr, ptr %46, align 8, !tbaa !5
  %60 = getelementptr inbounds ptr, ptr %59, i64 6
  %61 = load ptr, ptr %60, align 8
  %62 = invoke noundef signext i8 %61(ptr noundef nonnull align 8 dereferenceable(570) %46, i8 noundef signext 10)
          to label %63 unwind label %100

63:                                               ; preds = %58, %54
  %64 = phi i8 [ %56, %54 ], [ %62, %58 ]
  %65 = invoke noundef nonnull align 8 dereferenceable(16) ptr @_ZSt7getlineIcSt11char_traitsIcESaIcEERSt13basic_istreamIT_T0_ES7_RNSt7__cxx1112basic_stringIS4_S5_T1_EES4_(ptr noundef nonnull align 8 dereferenceable(16) %1, ptr noundef nonnull align 8 dereferenceable(32) %5, i8 noundef signext %64)
          to label %66 unwind label %100

66:                                               ; preds = %63
  store ptr %36, ptr %6, align 8, !tbaa !35
  %67 = load ptr, ptr %5, align 8, !tbaa !23
  %68 = load i64, ptr %28, align 8, !tbaa !26
  call void @llvm.lifetime.start.p0(i64 8, ptr nonnull %3) #29
  store i64 %68, ptr %3, align 8, !tbaa !53
  %69 = icmp ugt i64 %68, 15
  br i1 %69, label %70, label %74

70:                                               ; preds = %66
  %71 = invoke noundef ptr @_ZNSt7__cxx1112basic_stringIcSt11char_traitsIcESaIcEE9_M_createERmm(ptr noundef nonnull align 8 dereferenceable(32) %6, ptr noundef nonnull align 8 dereferenceable(8) %3, i64 noundef 0)
          to label %72 unwind label %100

72:                                               ; preds = %70
  store ptr %71, ptr %6, align 8, !tbaa !23
  %73 = load i64, ptr %3, align 8, !tbaa !53
  store i64 %73, ptr %36, align 8, !tbaa !37
  br label %74

74:                                               ; preds = %72, %66
  %75 = phi ptr [ %71, %72 ], [ %36, %66 ]
  switch i64 %68, label %78 [
    i64 1, label %76
    i64 0, label %79
  ]

76:                                               ; preds = %74
  %77 = load i8, ptr %67, align 1, !tbaa !37
  store i8 %77, ptr %75, align 1, !tbaa !37
  br label %79

78:                                               ; preds = %74
  call void @llvm.memcpy.p0.p0.i64(ptr align 1 %75, ptr align 1 %67, i64 %68, i1 false)
  br label %79

79:                                               ; preds = %78, %76, %74
  %80 = load i64, ptr %3, align 8, !tbaa !53
  store i64 %80, ptr %37, align 8, !tbaa !26
  %81 = load ptr, ptr %6, align 8, !tbaa !23
  %82 = getelementptr inbounds i8, ptr %81, i64 %80
  store i8 0, ptr %82, align 1, !tbaa !37
  call void @llvm.lifetime.end.p0(i64 8, ptr nonnull %3) #29
  %83 = invoke noundef zeroext i1 @_ZN6dealii16ParameterHandler9scan_lineENSt7__cxx1112basic_stringIcSt11char_traitsIcESaIcEEEj(ptr noundef nonnull align 8 dereferenceable(288) %0, ptr noundef nonnull %6, i32 noundef %44)
          to label %84 unwind label %104

84:                                               ; preds = %79
  %85 = load ptr, ptr %6, align 8, !tbaa !23
  %86 = icmp eq ptr %85, %36
  br i1 %86, label %87, label %90

87:                                               ; preds = %84
  %88 = load i64, ptr %37, align 8, !tbaa !26
  %89 = icmp ult i64 %88, 16
  call void @llvm.assume(i1 %89)
  br label %91

90:                                               ; preds = %84
  call void @_ZdlPv(ptr noundef %85) #30
  br label %91

91:                                               ; preds = %90, %87
  %92 = select i1 %83, i8 %42, i8 0
  %93 = load ptr, ptr %1, align 8, !tbaa !5
  %94 = getelementptr i8, ptr %93, i64 -24
  %95 = load i64, ptr %94, align 8
  %96 = getelementptr i8, ptr %39, i64 %95
  %97 = load i32, ptr %96, align 8, !tbaa !14
  %98 = and i32 %97, 5
  %99 = icmp eq i32 %98, 0
  br i1 %99, label %40, label %112

100:                                              ; preds = %57, %58, %63, %70
  %101 = landingpad { ptr, i32 }
          cleanup
  br label %124

102:                                              ; preds = %48
  %103 = landingpad { ptr, i32 }
          cleanup
  br label %124

104:                                              ; preds = %79
  %105 = landingpad { ptr, i32 }
          cleanup
  %106 = load ptr, ptr %6, align 8, !tbaa !23
  %107 = icmp eq ptr %106, %36
  br i1 %107, label %108, label %111

108:                                              ; preds = %104
  %109 = load i64, ptr %37, align 8, !tbaa !26
  %110 = icmp ult i64 %109, 16
  call void @llvm.assume(i1 %110)
  br label %124

111:                                              ; preds = %104
  call void @_ZdlPv(ptr noundef %106) #30
  br label %124

112:                                              ; preds = %91
  %113 = load ptr, ptr %5, align 8, !tbaa !23
  %114 = and i8 %92, 1
  %115 = icmp eq ptr %113, %27
  br i1 %115, label %116, label %120

116:                                              ; preds = %26, %112
  %117 = phi i8 [ %114, %112 ], [ 1, %26 ]
  %118 = load i64, ptr %28, align 8, !tbaa !26
  %119 = icmp ult i64 %118, 16
  call void @llvm.assume(i1 %119)
  br label %121

120:                                              ; preds = %112
  call void @_ZdlPv(ptr noundef %113) #30
  br label %121

121:                                              ; preds = %116, %120
  %122 = phi i8 [ %117, %116 ], [ %114, %120 ]
  %123 = icmp ne i8 %122, 0
  call void @llvm.lifetime.end.p0(i64 32, ptr nonnull %5) #29
  ret i1 %123

124:                                              ; preds = %100, %102, %111, %108
  %125 = phi { ptr, i32 } [ %105, %108 ], [ %105, %111 ], [ %101, %100 ], [ %103, %102 ]
  %126 = load ptr, ptr %5, align 8, !tbaa !23
  %127 = icmp eq ptr %126, %27
  br i1 %127, label %128, label %131

128:                                              ; preds = %124
  %129 = load i64, ptr %28, align 8, !tbaa !26
  %130 = icmp ult i64 %129, 16
  call void @llvm.assume(i1 %130)
  br label %132

131:                                              ; preds = %124
  call void @_ZdlPv(ptr noundef %126) #30
  br label %132

132:                                              ; preds = %131, %128
  call void @llvm.lifetime.end.p0(i64 32, ptr nonnull %5) #29
  br label %133

133:                                              ; preds = %132, %24
  %134 = phi { ptr, i32 } [ %125, %132 ], [ %25, %24 ]
  resume { ptr, i32 } %134
}

; Function Attrs: mustprogress nocallback nofree nounwind willreturn memory(argmem: write)
declare void @llvm.memset.p0.i64(ptr nocapture writeonly, i8, i64, i1 immarg) #15

; Function Attrs: nounwind
declare void @_ZN6dealii13ExceptionBaseD2Ev(ptr noundef nonnull align 8 dereferenceable(60)) unnamed_addr #16

; Function Attrs: sspstrong uwtable
define dso_local noundef zeroext i1 @_ZN6dealii16ParameterHandler9scan_lineENSt7__cxx1112basic_stringIcSt11char_traitsIcESaIcEEEj(ptr noundef nonnull align 8 dereferenceable(288) %0, ptr noundef nonnull %1, i32 noundef %2) local_unnamed_addr #5 align 2 personality ptr @__gxx_personality_v0 {
  %4 = alloca i64, align 8
  %5 = alloca i64, align 8
  %6 = alloca i64, align 8
  %7 = alloca i64, align 8
  %8 = alloca %"class.std::__cxx11::basic_string", align 8
  %9 = alloca %"class.std::__cxx11::basic_string", align 8
  %10 = alloca %"class.std::__cxx11::basic_string", align 8
  %11 = alloca %"class.std::__cxx11::basic_string", align 8
  %12 = alloca %"class.std::__cxx11::basic_string", align 8
  %13 = tail call noundef i64 @_ZNKSt7__cxx1112basic_stringIcSt11char_traitsIcESaIcEE4findEcm(ptr noundef nonnull align 8 dereferenceable(32) %1, i8 noundef signext 35, i64 noundef 0)
  %14 = icmp eq i64 %13, -1
  br i1 %14, label %24, label %15

15:                                               ; preds = %3
  %16 = tail call noundef i64 @_ZNKSt7__cxx1112basic_stringIcSt11char_traitsIcESaIcEE4findEPKcmm(ptr noundef nonnull align 8 dereferenceable(32) %1, ptr noundef nonnull @.str.63, i64 noundef 0, i64 noundef 1)
  %17 = getelementptr inbounds %"class.std::__cxx11::basic_string", ptr %1, i64 0, i32 1
  %18 = load i64, ptr %17, align 8, !tbaa !26
  %19 = icmp ult i64 %18, %16
  br i1 %19, label %20, label %21

20:                                               ; preds = %15
  tail call void (ptr, ...) @_ZSt24__throw_out_of_range_fmtPKcz(ptr noundef nonnull @.str.94, ptr noundef nonnull @.str.96, i64 noundef %16, i64 noundef %18) #32
  unreachable

21:                                               ; preds = %15
  store i64 %16, ptr %17, align 8, !tbaa !26
  %22 = load ptr, ptr %1, align 8, !tbaa !23
  %23 = getelementptr inbounds i8, ptr %22, i64 %16
  store i8 0, ptr %23, align 1, !tbaa !37
  br label %24

24:                                               ; preds = %21, %3
  %25 = tail call noundef i64 @_ZNKSt7__cxx1112basic_stringIcSt11char_traitsIcESaIcEE4findEcm(ptr noundef nonnull align 8 dereferenceable(32) %1, i8 noundef signext 9, i64 noundef 0)
  %26 = icmp eq i64 %25, -1
  br i1 %26, label %29, label %27

27:                                               ; preds = %24
  %28 = getelementptr inbounds %"class.std::__cxx11::basic_string", ptr %1, i64 0, i32 1
  br label %34

29:                                               ; preds = %39, %24
  %30 = tail call noundef i64 @_ZNKSt7__cxx1112basic_stringIcSt11char_traitsIcESaIcEE4findEPKcmm(ptr noundef nonnull align 8 dereferenceable(32) %1, ptr noundef nonnull @.str.55, i64 noundef 0, i64 noundef 2)
  %31 = icmp eq i64 %30, -1
  br i1 %31, label %55, label %32

32:                                               ; preds = %29
  %33 = getelementptr inbounds %"class.std::__cxx11::basic_string", ptr %1, i64 0, i32 1
  br label %45

34:                                               ; preds = %27, %39
  %35 = tail call noundef i64 @_ZNKSt7__cxx1112basic_stringIcSt11char_traitsIcESaIcEE4findEcm(ptr noundef nonnull align 8 dereferenceable(32) %1, i8 noundef signext 9, i64 noundef 0)
  %36 = load i64, ptr %28, align 8, !tbaa !26
  %37 = icmp ult i64 %36, %35
  br i1 %37, label %38, label %39

38:                                               ; preds = %34
  tail call void (ptr, ...) @_ZSt24__throw_out_of_range_fmtPKcz(ptr noundef nonnull @.str.94, ptr noundef nonnull @.str.93, i64 noundef %35, i64 noundef %36) #32
  unreachable

39:                                               ; preds = %34
  %40 = icmp ne i64 %36, %35
  %41 = zext i1 %40 to i64
  %42 = tail call noundef nonnull align 8 dereferenceable(32) ptr @_ZNSt7__cxx1112basic_stringIcSt11char_traitsIcESaIcEE10_M_replaceEmmPKcm(ptr noundef nonnull align 8 dereferenceable(32) %1, i64 noundef %35, i64 noundef %41, ptr noundef nonnull @.str.45, i64 noundef 1)
  %43 = tail call noundef i64 @_ZNKSt7__cxx1112basic_stringIcSt11char_traitsIcESaIcEE4findEcm(ptr noundef nonnull align 8 dereferenceable(32) %1, i8 noundef signext 9, i64 noundef 0)
  %44 = icmp eq i64 %43, -1
  br i1 %44, label %29, label %34

45:                                               ; preds = %32, %50
  %46 = tail call noundef i64 @_ZNKSt7__cxx1112basic_stringIcSt11char_traitsIcESaIcEE4findEPKcmm(ptr noundef nonnull align 8 dereferenceable(32) %1, ptr noundef nonnull @.str.55, i64 noundef 0, i64 noundef 2)
  %47 = load i64, ptr %33, align 8, !tbaa !26
  %48 = icmp ult i64 %47, %46
  br i1 %48, label %49, label %50

49:                                               ; preds = %45
  tail call void (ptr, ...) @_ZSt24__throw_out_of_range_fmtPKcz(ptr noundef nonnull @.str.94, ptr noundef nonnull @.str.96, i64 noundef %46, i64 noundef %47) #32
  unreachable

50:                                               ; preds = %45
  %51 = icmp ne i64 %47, %46
  %52 = zext i1 %51 to i64
  tail call void @_ZNSt7__cxx1112basic_stringIcSt11char_traitsIcESaIcEE8_M_eraseEmm(ptr noundef nonnull align 8 dereferenceable(32) %1, i64 noundef %46, i64 noundef %52)
  %53 = tail call noundef i64 @_ZNKSt7__cxx1112basic_stringIcSt11char_traitsIcESaIcEE4findEPKcmm(ptr noundef nonnull align 8 dereferenceable(32) %1, ptr noundef nonnull @.str.55, i64 noundef 0, i64 noundef 2)
  %54 = icmp eq i64 %53, -1
  br i1 %54, label %55, label %45

55:                                               ; preds = %50, %29
  %56 = getelementptr inbounds %"class.std::__cxx11::basic_string", ptr %1, i64 0, i32 1
  %57 = load i64, ptr %56, align 8, !tbaa !26
  %58 = icmp eq i64 %57, 0
  br i1 %58, label %995, label %59

59:                                               ; preds = %55
  %60 = load ptr, ptr %1, align 8, !tbaa !23
  %61 = load i8, ptr %60, align 1, !tbaa !37
  %62 = sext i8 %61 to i32
  %63 = tail call i32 @isspace(i32 noundef %62) #33
  %64 = icmp eq i32 %63, 0
  br i1 %64, label %68, label %65

65:                                               ; preds = %59
  tail call void @_ZNSt7__cxx1112basic_stringIcSt11char_traitsIcESaIcEE8_M_eraseEmm(ptr noundef nonnull align 8 dereferenceable(32) %1, i64 noundef 0, i64 noundef 1)
  %66 = load i64, ptr %56, align 8, !tbaa !26
  %67 = icmp eq i64 %66, 0
  br i1 %67, label %995, label %68

68:                                               ; preds = %59, %65
  %69 = phi i64 [ %66, %65 ], [ %57, %59 ]
  %70 = add i64 %69, -1
  %71 = load ptr, ptr %1, align 8, !tbaa !23
  %72 = getelementptr inbounds i8, ptr %71, i64 %70
  %73 = load i8, ptr %72, align 1, !tbaa !37
  %74 = sext i8 %73 to i32
  %75 = tail call i32 @isspace(i32 noundef %74) #33
  %76 = icmp eq i32 %75, 0
  br i1 %76, label %78, label %77

77:                                               ; preds = %68
  tail call void @_ZNSt7__cxx1112basic_stringIcSt11char_traitsIcESaIcEE8_M_eraseEmm(ptr noundef nonnull align 8 dereferenceable(32) %1, i64 noundef %70, i64 noundef 1)
  br label %78

78:                                               ; preds = %77, %68
  %79 = tail call noundef i64 @_ZNKSt7__cxx1112basic_stringIcSt11char_traitsIcESaIcEE4findEPKcmm(ptr noundef nonnull align 8 dereferenceable(32) %1, ptr noundef nonnull @.str.64, i64 noundef 0, i64 noundef 11)
  %80 = icmp eq i64 %79, 0
  br i1 %80, label %84, label %81

81:                                               ; preds = %78
  %82 = tail call noundef i64 @_ZNKSt7__cxx1112basic_stringIcSt11char_traitsIcESaIcEE4findEPKcmm(ptr noundef nonnull align 8 dereferenceable(32) %1, ptr noundef nonnull @.str.57, i64 noundef 0, i64 noundef 11)
  %83 = icmp eq i64 %82, 0
  br i1 %83, label %84, label %392

84:                                               ; preds = %78, %81
  call void @llvm.lifetime.start.p0(i64 32, ptr nonnull %8) #29
  %85 = getelementptr inbounds %"class.std::__cxx11::basic_string", ptr %8, i64 0, i32 2
  store ptr %85, ptr %8, align 8, !tbaa !35
  call void @llvm.memcpy.p0.p0.i64(ptr noundef nonnull align 8 dereferenceable(10) %85, ptr noundef nonnull align 1 dereferenceable(10) @.str.65, i64 10, i1 false)
  %86 = getelementptr inbounds %"class.std::__cxx11::basic_string", ptr %8, i64 0, i32 1
  store i64 10, ptr %86, align 8, !tbaa !26
  %87 = getelementptr inbounds %"class.std::__cxx11::basic_string", ptr %8, i64 0, i32 2, i32 1, i64 2
  store i8 0, ptr %87, align 2, !tbaa !37
  %88 = load i64, ptr %56, align 8, !tbaa !26
  %89 = call i64 @llvm.umin.i64(i64 %88, i64 11)
  invoke void @_ZNSt7__cxx1112basic_stringIcSt11char_traitsIcESaIcEE8_M_eraseEmm(ptr noundef nonnull align 8 dereferenceable(32) %1, i64 noundef 0, i64 noundef %89)
          to label %90 unwind label %230

90:                                               ; preds = %84
  %91 = load ptr, ptr %8, align 8, !tbaa !23
  %92 = icmp eq ptr %91, %85
  br i1 %92, label %93, label %96

93:                                               ; preds = %90
  %94 = load i64, ptr %86, align 8, !tbaa !26
  %95 = icmp ult i64 %94, 16
  call void @llvm.assume(i1 %95)
  br label %97

96:                                               ; preds = %90
  call void @_ZdlPv(ptr noundef %91) #30
  br label %97

97:                                               ; preds = %96, %93
  call void @llvm.lifetime.end.p0(i64 32, ptr nonnull %8) #29
  call void @llvm.lifetime.start.p0(i64 32, ptr nonnull %9) #29
  %98 = getelementptr inbounds %"class.std::__cxx11::basic_string", ptr %9, i64 0, i32 2
  store ptr %98, ptr %9, align 8, !tbaa !35
  %99 = load ptr, ptr %1, align 8, !tbaa !23
  %100 = load i64, ptr %56, align 8, !tbaa !26
  call void @llvm.lifetime.start.p0(i64 8, ptr nonnull %7) #29
  store i64 %100, ptr %7, align 8, !tbaa !53
  %101 = icmp ugt i64 %100, 15
  br i1 %101, label %102, label %105

102:                                              ; preds = %97
  %103 = call noundef ptr @_ZNSt7__cxx1112basic_stringIcSt11char_traitsIcESaIcEE9_M_createERmm(ptr noundef nonnull align 8 dereferenceable(32) %9, ptr noundef nonnull align 8 dereferenceable(8) %7, i64 noundef 0)
  store ptr %103, ptr %9, align 8, !tbaa !23
  %104 = load i64, ptr %7, align 8, !tbaa !53
  store i64 %104, ptr %98, align 8, !tbaa !37
  br label %105

105:                                              ; preds = %102, %97
  %106 = phi ptr [ %103, %102 ], [ %98, %97 ]
  switch i64 %100, label %109 [
    i64 1, label %107
    i64 0, label %110
  ]

107:                                              ; preds = %105
  %108 = load i8, ptr %99, align 1, !tbaa !37
  store i8 %108, ptr %106, align 1, !tbaa !37
  br label %110

109:                                              ; preds = %105
  call void @llvm.memcpy.p0.p0.i64(ptr align 1 %106, ptr align 1 %99, i64 %100, i1 false)
  br label %110

110:                                              ; preds = %105, %107, %109
  %111 = load i64, ptr %7, align 8, !tbaa !53
  %112 = getelementptr inbounds %"class.std::__cxx11::basic_string", ptr %9, i64 0, i32 1
  store i64 %111, ptr %112, align 8, !tbaa !26
  %113 = load ptr, ptr %9, align 8, !tbaa !23
  %114 = getelementptr inbounds i8, ptr %113, i64 %111
  store i8 0, ptr %114, align 1, !tbaa !37
  call void @llvm.lifetime.end.p0(i64 8, ptr nonnull %7) #29
  %115 = getelementptr inbounds %"class.dealii::ParameterHandler", ptr %0, i64 0, i32 3
  %116 = getelementptr inbounds %"class.dealii::ParameterHandler", ptr %0, i64 0, i32 1
  %117 = load ptr, ptr %116, align 8, !tbaa !65
  %118 = getelementptr inbounds %"class.dealii::ParameterHandler", ptr %0, i64 0, i32 1, i32 0, i32 0, i32 0, i32 1
  %119 = load ptr, ptr %118, align 8, !tbaa !65
  %120 = icmp eq ptr %117, %119
  br i1 %120, label %131, label %121

121:                                              ; preds = %110, %126
  %122 = phi ptr [ %127, %126 ], [ %115, %110 ]
  %123 = phi ptr [ %128, %126 ], [ %117, %110 ]
  %124 = getelementptr inbounds %"struct.dealii::ParameterHandler::Section", ptr %122, i64 0, i32 1
  %125 = invoke noundef nonnull align 8 dereferenceable(8) ptr @_ZNSt3mapINSt7__cxx1112basic_stringIcSt11char_traitsIcESaIcEEEPN6dealii16ParameterHandler7SectionESt4lessIS5_ESaISt4pairIKS5_S9_EEEixERSD_(ptr noundef nonnull align 8 dereferenceable(48) %124, ptr noundef nonnull align 8 dereferenceable(32) %123)
          to label %126 unwind label %239

126:                                              ; preds = %121
  %127 = load ptr, ptr %125, align 8, !tbaa !65
  %128 = getelementptr inbounds %"class.std::__cxx11::basic_string", ptr %123, i64 1
  %129 = load ptr, ptr %118, align 8, !tbaa !65
  %130 = icmp eq ptr %128, %129
  br i1 %130, label %131, label %121

131:                                              ; preds = %126, %110
  %132 = phi ptr [ %117, %110 ], [ %128, %126 ]
  %133 = phi ptr [ %115, %110 ], [ %127, %126 ]
  %134 = getelementptr inbounds %"struct.dealii::ParameterHandler::Section", ptr %133, i64 0, i32 1, i32 0, i32 0, i32 1, i32 0, i32 1
  %135 = load ptr, ptr %134, align 8, !tbaa !86
  %136 = getelementptr inbounds %"struct.dealii::ParameterHandler::Section", ptr %133, i64 0, i32 1, i32 0, i32 0, i32 1
  %137 = icmp eq ptr %135, null
  br i1 %137, label %187, label %138

138:                                              ; preds = %131
  %139 = load i64, ptr %112, align 8, !tbaa !26
  %140 = load ptr, ptr %9, align 8
  br label %141

141:                                              ; preds = %158, %138
  %142 = phi ptr [ %135, %138 ], [ %165, %158 ]
  %143 = phi ptr [ %136, %138 ], [ %163, %158 ]
  %144 = getelementptr inbounds %"struct.std::_Rb_tree_node", ptr %142, i64 0, i32 1, i32 0, i32 1
  %145 = load i64, ptr %144, align 8, !tbaa !26
  %146 = call i64 @llvm.umin.i64(i64 %139, i64 %145)
  %147 = icmp eq i64 %146, 0
  br i1 %147, label %153, label %148

148:                                              ; preds = %141
  %149 = getelementptr inbounds %"struct.std::_Rb_tree_node", ptr %142, i64 0, i32 1
  %150 = load ptr, ptr %149, align 8, !tbaa !23
  %151 = call i32 @memcmp(ptr noundef %150, ptr noundef %140, i64 noundef %146) #29
  %152 = icmp eq i32 %151, 0
  br i1 %152, label %153, label %158

153:                                              ; preds = %148, %141
  %154 = sub i64 %145, %139
  %155 = call i64 @llvm.smax.i64(i64 %154, i64 -2147483648)
  %156 = call i64 @llvm.smin.i64(i64 %155, i64 2147483647)
  %157 = trunc i64 %156 to i32
  br label %158

158:                                              ; preds = %153, %148
  %159 = phi i32 [ %151, %148 ], [ %157, %153 ]
  %160 = icmp slt i32 %159, 0
  %161 = getelementptr inbounds %"struct.std::_Rb_tree_node_base", ptr %142, i64 0, i32 3
  %162 = getelementptr inbounds %"struct.std::_Rb_tree_node_base", ptr %142, i64 0, i32 2
  %163 = select i1 %160, ptr %143, ptr %142
  %164 = select i1 %160, ptr %161, ptr %162
  %165 = load ptr, ptr %164, align 8, !tbaa !65
  %166 = icmp eq ptr %165, null
  br i1 %166, label %167, label %141

167:                                              ; preds = %158
  %168 = icmp eq ptr %163, %136
  br i1 %168, label %187, label %169

169:                                              ; preds = %167
  %170 = getelementptr inbounds %"struct.std::_Rb_tree_node", ptr %163, i64 0, i32 1, i32 0, i32 1
  %171 = load i64, ptr %170, align 8, !tbaa !26
  %172 = call i64 @llvm.umin.i64(i64 %171, i64 %139)
  %173 = icmp eq i64 %172, 0
  br i1 %173, label %179, label %174

174:                                              ; preds = %169
  %175 = getelementptr inbounds %"struct.std::_Rb_tree_node", ptr %163, i64 0, i32 1
  %176 = load ptr, ptr %175, align 8, !tbaa !23
  %177 = call i32 @memcmp(ptr noundef %140, ptr noundef %176, i64 noundef %172) #29
  %178 = icmp eq i32 %177, 0
  br i1 %178, label %179, label %184

179:                                              ; preds = %174, %169
  %180 = sub i64 %139, %171
  %181 = call i64 @llvm.smax.i64(i64 %180, i64 -2147483648)
  %182 = call i64 @llvm.smin.i64(i64 %181, i64 2147483647)
  %183 = trunc i64 %182 to i32
  br label %184

184:                                              ; preds = %174, %179
  %185 = phi i32 [ %177, %174 ], [ %183, %179 ]
  %186 = icmp slt i32 %185, 0
  br i1 %186, label %187, label %349

187:                                              ; preds = %131, %167, %184
  %188 = invoke noundef nonnull align 8 dereferenceable(8) ptr @_ZSt16__ostream_insertIcSt11char_traitsIcEERSt13basic_ostreamIT_T0_ES6_PKS3_l(ptr noundef nonnull align 8 dereferenceable(8) @_ZSt4cerr, ptr noundef nonnull @.str.66, i64 noundef 5)
          to label %189 unwind label %241

189:                                              ; preds = %187
  %190 = zext i32 %2 to i64
  %191 = invoke noundef nonnull align 8 dereferenceable(8) ptr @_ZNSo9_M_insertImEERSoT_(ptr noundef nonnull align 8 dereferenceable(8) @_ZSt4cerr, i64 noundef %190)
          to label %192 unwind label %241

192:                                              ; preds = %189
  %193 = invoke noundef nonnull align 8 dereferenceable(8) ptr @_ZSt16__ostream_insertIcSt11char_traitsIcEERSt13basic_ostreamIT_T0_ES6_PKS3_l(ptr noundef nonnull align 8 dereferenceable(8) %191, ptr noundef nonnull @.str.67, i64 noundef 44)
          to label %194 unwind label %241

194:                                              ; preds = %192
  %195 = load ptr, ptr %191, align 8, !tbaa !5
  %196 = getelementptr i8, ptr %195, i64 -24
  %197 = load i64, ptr %196, align 8
  %198 = getelementptr inbounds i8, ptr %191, i64 %197
  %199 = getelementptr inbounds %"class.std::basic_ios", ptr %198, i64 0, i32 5
  %200 = load ptr, ptr %199, align 8, !tbaa !90
  %201 = icmp eq ptr %200, null
  br i1 %201, label %202, label %204

202:                                              ; preds = %194, %323
  invoke void @_ZSt16__throw_bad_castv() #32
          to label %203 unwind label %241

203:                                              ; preds = %202
  unreachable

204:                                              ; preds = %194
  %205 = getelementptr inbounds %"class.std::ctype", ptr %200, i64 0, i32 8
  %206 = load i8, ptr %205, align 8, !tbaa !93
  %207 = icmp eq i8 %206, 0
  br i1 %207, label %211, label %208

208:                                              ; preds = %204
  %209 = getelementptr inbounds %"class.std::ctype", ptr %200, i64 0, i32 9, i64 10
  %210 = load i8, ptr %209, align 1, !tbaa !37
  br label %217

211:                                              ; preds = %204
  invoke void @_ZNKSt5ctypeIcE13_M_widen_initEv(ptr noundef nonnull align 8 dereferenceable(570) %200)
          to label %212 unwind label %241

212:                                              ; preds = %211
  %213 = load ptr, ptr %200, align 8, !tbaa !5
  %214 = getelementptr inbounds ptr, ptr %213, i64 6
  %215 = load ptr, ptr %214, align 8
  %216 = invoke noundef signext i8 %215(ptr noundef nonnull align 8 dereferenceable(570) %200, i8 noundef signext 10)
          to label %217 unwind label %241

217:                                              ; preds = %212, %208
  %218 = phi i8 [ %210, %208 ], [ %216, %212 ]
  %219 = invoke noundef nonnull align 8 dereferenceable(8) ptr @_ZNSo3putEc(ptr noundef nonnull align 8 dereferenceable(8) %191, i8 noundef signext %218)
          to label %220 unwind label %241

220:                                              ; preds = %217
  %221 = invoke noundef nonnull align 8 dereferenceable(8) ptr @_ZNSo5flushEv(ptr noundef nonnull align 8 dereferenceable(8) %219)
          to label %222 unwind label %241

222:                                              ; preds = %220
  %223 = load ptr, ptr %118, align 8, !tbaa !56
  %224 = load ptr, ptr %116, align 8, !tbaa !54
  %225 = ptrtoint ptr %223 to i64
  %226 = ptrtoint ptr %224 to i64
  %227 = sub i64 %225, %226
  %228 = ashr exact i64 %227, 5
  %229 = icmp eq ptr %223, %224
  br i1 %229, label %305, label %247

230:                                              ; preds = %84
  %231 = landingpad { ptr, i32 }
          cleanup
  %232 = load ptr, ptr %8, align 8, !tbaa !23
  %233 = icmp eq ptr %232, %85
  br i1 %233, label %234, label %237

234:                                              ; preds = %230
  %235 = load i64, ptr %86, align 8, !tbaa !26
  %236 = icmp ult i64 %235, 16
  call void @llvm.assume(i1 %236)
  br label %238

237:                                              ; preds = %230
  call void @_ZdlPv(ptr noundef %232) #30
  br label %238

238:                                              ; preds = %237, %234
  call void @llvm.lifetime.end.p0(i64 32, ptr nonnull %8) #29
  br label %997

239:                                              ; preds = %121
  %240 = landingpad { ptr, i32 }
          cleanup
  br label %383

241:                                              ; preds = %202, %187, %189, %192, %305, %317, %319, %357, %373, %211, %212, %217, %220, %338, %339, %344, %347
  %242 = landingpad { ptr, i32 }
          cleanup
  br label %383

243:                                              ; preds = %247, %258, %260, %284, %285, %290, %293
  %244 = landingpad { ptr, i32 }
          cleanup
  br label %383

245:                                              ; preds = %275
  %246 = landingpad { ptr, i32 }
          cleanup
  br label %383

247:                                              ; preds = %222, %295
  %248 = phi i64 [ %297, %295 ], [ 0, %222 ]
  %249 = phi i32 [ %296, %295 ], [ 0, %222 ]
  %250 = shl i32 %249, 1
  %251 = add i32 %250, 4
  %252 = load ptr, ptr @_ZSt4cerr, align 8, !tbaa !5
  %253 = getelementptr i8, ptr %252, i64 -24
  %254 = load i64, ptr %253, align 8
  %255 = sext i32 %251 to i64
  %256 = getelementptr i8, ptr getelementptr inbounds (%"class.std::basic_ostream", ptr @_ZSt4cerr, i64 0, i32 1, i32 0, i32 1), i64 %254
  store i64 %255, ptr %256, align 8, !tbaa !96
  %257 = invoke noundef nonnull align 8 dereferenceable(8) ptr @_ZSt16__ostream_insertIcSt11char_traitsIcEERSt13basic_ostreamIT_T0_ES6_PKS3_l(ptr noundef nonnull align 8 dereferenceable(8) @_ZSt4cerr, ptr noundef nonnull @.str.45, i64 noundef 1)
          to label %258 unwind label %243

258:                                              ; preds = %247
  %259 = invoke noundef nonnull align 8 dereferenceable(8) ptr @_ZSt16__ostream_insertIcSt11char_traitsIcEERSt13basic_ostreamIT_T0_ES6_PKS3_l(ptr noundef nonnull align 8 dereferenceable(8) @_ZSt4cerr, ptr noundef nonnull @.str.57, i64 noundef 11)
          to label %260 unwind label %243

260:                                              ; preds = %258
  %261 = load ptr, ptr %116, align 8, !tbaa !54
  %262 = getelementptr inbounds %"class.std::__cxx11::basic_string", ptr %261, i64 %248
  %263 = load ptr, ptr %262, align 8, !tbaa !23
  %264 = getelementptr inbounds %"class.std::__cxx11::basic_string", ptr %261, i64 %248, i32 1
  %265 = load i64, ptr %264, align 8, !tbaa !26
  %266 = invoke noundef nonnull align 8 dereferenceable(8) ptr @_ZSt16__ostream_insertIcSt11char_traitsIcEERSt13basic_ostreamIT_T0_ES6_PKS3_l(ptr noundef nonnull align 8 dereferenceable(8) @_ZSt4cerr, ptr noundef %263, i64 noundef %265)
          to label %267 unwind label %243

267:                                              ; preds = %260
  %268 = load ptr, ptr %266, align 8, !tbaa !5
  %269 = getelementptr i8, ptr %268, i64 -24
  %270 = load i64, ptr %269, align 8
  %271 = getelementptr inbounds i8, ptr %266, i64 %270
  %272 = getelementptr inbounds %"class.std::basic_ios", ptr %271, i64 0, i32 5
  %273 = load ptr, ptr %272, align 8, !tbaa !90
  %274 = icmp eq ptr %273, null
  br i1 %274, label %275, label %277

275:                                              ; preds = %267
  invoke void @_ZSt16__throw_bad_castv() #32
          to label %276 unwind label %245

276:                                              ; preds = %275
  unreachable

277:                                              ; preds = %267
  %278 = getelementptr inbounds %"class.std::ctype", ptr %273, i64 0, i32 8
  %279 = load i8, ptr %278, align 8, !tbaa !93
  %280 = icmp eq i8 %279, 0
  br i1 %280, label %284, label %281

281:                                              ; preds = %277
  %282 = getelementptr inbounds %"class.std::ctype", ptr %273, i64 0, i32 9, i64 10
  %283 = load i8, ptr %282, align 1, !tbaa !37
  br label %290

284:                                              ; preds = %277
  invoke void @_ZNKSt5ctypeIcE13_M_widen_initEv(ptr noundef nonnull align 8 dereferenceable(570) %273)
          to label %285 unwind label %243

285:                                              ; preds = %284
  %286 = load ptr, ptr %273, align 8, !tbaa !5
  %287 = getelementptr inbounds ptr, ptr %286, i64 6
  %288 = load ptr, ptr %287, align 8
  %289 = invoke noundef signext i8 %288(ptr noundef nonnull align 8 dereferenceable(570) %273, i8 noundef signext 10)
          to label %290 unwind label %243

290:                                              ; preds = %285, %281
  %291 = phi i8 [ %283, %281 ], [ %289, %285 ]
  %292 = invoke noundef nonnull align 8 dereferenceable(8) ptr @_ZNSo3putEc(ptr noundef nonnull align 8 dereferenceable(8) %266, i8 noundef signext %291)
          to label %293 unwind label %243

293:                                              ; preds = %290
  %294 = invoke noundef nonnull align 8 dereferenceable(8) ptr @_ZNSo5flushEv(ptr noundef nonnull align 8 dereferenceable(8) %292)
          to label %295 unwind label %243

295:                                              ; preds = %293
  %296 = add i32 %249, 1
  %297 = zext i32 %296 to i64
  %298 = load ptr, ptr %118, align 8, !tbaa !56
  %299 = load ptr, ptr %116, align 8, !tbaa !54
  %300 = ptrtoint ptr %298 to i64
  %301 = ptrtoint ptr %299 to i64
  %302 = sub i64 %300, %301
  %303 = ashr exact i64 %302, 5
  %304 = icmp ugt i64 %303, %297
  br i1 %304, label %247, label %305

305:                                              ; preds = %295, %222
  %306 = phi i64 [ %228, %222 ], [ %303, %295 ]
  %307 = trunc i64 %306 to i32
  %308 = shl i32 %307, 1
  %309 = add i32 %308, 4
  %310 = load ptr, ptr @_ZSt4cerr, align 8, !tbaa !5
  %311 = getelementptr i8, ptr %310, i64 -24
  %312 = load i64, ptr %311, align 8
  %313 = getelementptr inbounds i8, ptr @_ZSt4cerr, i64 %312
  %314 = sext i32 %309 to i64
  %315 = getelementptr inbounds %"class.std::ios_base", ptr %313, i64 0, i32 2
  store i64 %314, ptr %315, align 8, !tbaa !96
  %316 = invoke noundef nonnull align 8 dereferenceable(8) ptr @_ZSt16__ostream_insertIcSt11char_traitsIcEERSt13basic_ostreamIT_T0_ES6_PKS3_l(ptr noundef nonnull align 8 dereferenceable(8) @_ZSt4cerr, ptr noundef nonnull @.str.45, i64 noundef 1)
          to label %317 unwind label %241

317:                                              ; preds = %305
  %318 = invoke noundef nonnull align 8 dereferenceable(8) ptr @_ZSt16__ostream_insertIcSt11char_traitsIcEERSt13basic_ostreamIT_T0_ES6_PKS3_l(ptr noundef nonnull align 8 dereferenceable(8) @_ZSt4cerr, ptr noundef nonnull @.str.57, i64 noundef 11)
          to label %319 unwind label %241

319:                                              ; preds = %317
  %320 = load ptr, ptr %9, align 8, !tbaa !23
  %321 = load i64, ptr %112, align 8, !tbaa !26
  %322 = invoke noundef nonnull align 8 dereferenceable(8) ptr @_ZSt16__ostream_insertIcSt11char_traitsIcEERSt13basic_ostreamIT_T0_ES6_PKS3_l(ptr noundef nonnull align 8 dereferenceable(8) @_ZSt4cerr, ptr noundef %320, i64 noundef %321)
          to label %323 unwind label %241

323:                                              ; preds = %319
  %324 = load ptr, ptr %322, align 8, !tbaa !5
  %325 = getelementptr i8, ptr %324, i64 -24
  %326 = load i64, ptr %325, align 8
  %327 = getelementptr inbounds i8, ptr %322, i64 %326
  %328 = getelementptr inbounds %"class.std::basic_ios", ptr %327, i64 0, i32 5
  %329 = load ptr, ptr %328, align 8, !tbaa !90
  %330 = icmp eq ptr %329, null
  br i1 %330, label %202, label %331

331:                                              ; preds = %323
  %332 = getelementptr inbounds %"class.std::ctype", ptr %329, i64 0, i32 8
  %333 = load i8, ptr %332, align 8, !tbaa !93
  %334 = icmp eq i8 %333, 0
  br i1 %334, label %338, label %335

335:                                              ; preds = %331
  %336 = getelementptr inbounds %"class.std::ctype", ptr %329, i64 0, i32 9, i64 10
  %337 = load i8, ptr %336, align 1, !tbaa !37
  br label %344

338:                                              ; preds = %331
  invoke void @_ZNKSt5ctypeIcE13_M_widen_initEv(ptr noundef nonnull align 8 dereferenceable(570) %329)
          to label %339 unwind label %241

339:                                              ; preds = %338
  %340 = load ptr, ptr %329, align 8, !tbaa !5
  %341 = getelementptr inbounds ptr, ptr %340, i64 6
  %342 = load ptr, ptr %341, align 8
  %343 = invoke noundef signext i8 %342(ptr noundef nonnull align 8 dereferenceable(570) %329, i8 noundef signext 10)
          to label %344 unwind label %241

344:                                              ; preds = %339, %335
  %345 = phi i8 [ %337, %335 ], [ %343, %339 ]
  %346 = invoke noundef nonnull align 8 dereferenceable(8) ptr @_ZNSo3putEc(ptr noundef nonnull align 8 dereferenceable(8) %322, i8 noundef signext %345)
          to label %347 unwind label %241

347:                                              ; preds = %344
  %348 = invoke noundef nonnull align 8 dereferenceable(8) ptr @_ZNSo5flushEv(ptr noundef nonnull align 8 dereferenceable(8) %346)
          to label %374 unwind label %241

349:                                              ; preds = %184
  %350 = getelementptr inbounds %"class.dealii::ParameterHandler", ptr %0, i64 0, i32 1, i32 0, i32 0, i32 0, i32 2
  %351 = load ptr, ptr %350, align 8, !tbaa !66
  %352 = icmp eq ptr %132, %351
  br i1 %352, label %373, label %353

353:                                              ; preds = %349
  %354 = getelementptr inbounds %"class.std::__cxx11::basic_string", ptr %132, i64 0, i32 2
  store ptr %354, ptr %132, align 8, !tbaa !35
  %355 = load ptr, ptr %9, align 8, !tbaa !23
  call void @llvm.lifetime.start.p0(i64 8, ptr nonnull %6) #29
  store i64 %139, ptr %6, align 8, !tbaa !53
  %356 = icmp ugt i64 %139, 15
  br i1 %356, label %357, label %361

357:                                              ; preds = %353
  %358 = invoke noundef ptr @_ZNSt7__cxx1112basic_stringIcSt11char_traitsIcESaIcEE9_M_createERmm(ptr noundef nonnull align 8 dereferenceable(32) %132, ptr noundef nonnull align 8 dereferenceable(8) %6, i64 noundef 0)
          to label %359 unwind label %241

359:                                              ; preds = %357
  store ptr %358, ptr %132, align 8, !tbaa !23
  %360 = load i64, ptr %6, align 8, !tbaa !53
  store i64 %360, ptr %354, align 8, !tbaa !37
  br label %361

361:                                              ; preds = %359, %353
  %362 = phi ptr [ %358, %359 ], [ %354, %353 ]
  switch i64 %139, label %365 [
    i64 1, label %363
    i64 0, label %366
  ]

363:                                              ; preds = %361
  %364 = load i8, ptr %355, align 1, !tbaa !37
  store i8 %364, ptr %362, align 1, !tbaa !37
  br label %366

365:                                              ; preds = %361
  call void @llvm.memcpy.p0.p0.i64(ptr align 1 %362, ptr align 1 %355, i64 %139, i1 false)
  br label %366

366:                                              ; preds = %365, %363, %361
  %367 = load i64, ptr %6, align 8, !tbaa !53
  %368 = getelementptr inbounds %"class.std::__cxx11::basic_string", ptr %132, i64 0, i32 1
  store i64 %367, ptr %368, align 8, !tbaa !26
  %369 = load ptr, ptr %132, align 8, !tbaa !23
  %370 = getelementptr inbounds i8, ptr %369, i64 %367
  store i8 0, ptr %370, align 1, !tbaa !37
  call void @llvm.lifetime.end.p0(i64 8, ptr nonnull %6) #29
  %371 = load ptr, ptr %118, align 8, !tbaa !56
  %372 = getelementptr inbounds %"class.std::__cxx11::basic_string", ptr %371, i64 1
  store ptr %372, ptr %118, align 8, !tbaa !56
  br label %374

373:                                              ; preds = %349
  invoke void @_ZNSt6vectorINSt7__cxx1112basic_stringIcSt11char_traitsIcESaIcEEESaIS5_EE17_M_realloc_insertEN9__gnu_cxx17__normal_iteratorIPS5_S7_EERKS5_(ptr noundef nonnull align 8 dereferenceable(24) %116, ptr %132, ptr noundef nonnull align 8 dereferenceable(32) %9)
          to label %374 unwind label %241

374:                                              ; preds = %366, %373, %347
  %375 = phi i1 [ false, %347 ], [ true, %373 ], [ true, %366 ]
  %376 = load ptr, ptr %9, align 8, !tbaa !23
  %377 = icmp eq ptr %376, %98
  br i1 %377, label %378, label %381

378:                                              ; preds = %374
  %379 = load i64, ptr %112, align 8, !tbaa !26
  %380 = icmp ult i64 %379, 16
  call void @llvm.assume(i1 %380)
  br label %382

381:                                              ; preds = %374
  call void @_ZdlPv(ptr noundef %376) #30
  br label %382

382:                                              ; preds = %378, %381
  call void @llvm.lifetime.end.p0(i64 32, ptr nonnull %9) #29
  br label %995

383:                                              ; preds = %243, %245, %239, %241
  %384 = phi { ptr, i32 } [ %240, %239 ], [ %242, %241 ], [ %244, %243 ], [ %246, %245 ]
  %385 = load ptr, ptr %9, align 8, !tbaa !23
  %386 = icmp eq ptr %385, %98
  br i1 %386, label %387, label %390

387:                                              ; preds = %383
  %388 = load i64, ptr %112, align 8, !tbaa !26
  %389 = icmp ult i64 %388, 16
  call void @llvm.assume(i1 %389)
  br label %391

390:                                              ; preds = %383
  call void @_ZdlPv(ptr noundef %385) #30
  br label %391

391:                                              ; preds = %390, %387
  call void @llvm.lifetime.end.p0(i64 32, ptr nonnull %9) #29
  br label %997

392:                                              ; preds = %81
  %393 = tail call noundef i64 @_ZNKSt7__cxx1112basic_stringIcSt11char_traitsIcESaIcEE4findEPKcmm(ptr noundef nonnull align 8 dereferenceable(32) %1, ptr noundef nonnull @.str.68, i64 noundef 0, i64 noundef 3)
  %394 = icmp eq i64 %393, 0
  br i1 %394, label %398, label %395

395:                                              ; preds = %392
  %396 = tail call noundef i64 @_ZNKSt7__cxx1112basic_stringIcSt11char_traitsIcESaIcEE4findEPKcmm(ptr noundef nonnull align 8 dereferenceable(32) %1, ptr noundef nonnull @.str.60, i64 noundef 0, i64 noundef 3)
  %397 = icmp eq i64 %396, 0
  br i1 %397, label %398, label %443

398:                                              ; preds = %395, %392
  %399 = getelementptr inbounds %"class.dealii::ParameterHandler", ptr %0, i64 0, i32 1
  %400 = getelementptr inbounds %"class.dealii::ParameterHandler", ptr %0, i64 0, i32 1, i32 0, i32 0, i32 0, i32 1
  %401 = load ptr, ptr %400, align 8, !tbaa !56
  %402 = load ptr, ptr %399, align 8, !tbaa !54
  %403 = icmp eq ptr %401, %402
  br i1 %403, label %404, label %433

404:                                              ; preds = %398
  %405 = tail call noundef nonnull align 8 dereferenceable(8) ptr @_ZSt16__ostream_insertIcSt11char_traitsIcEERSt13basic_ostreamIT_T0_ES6_PKS3_l(ptr noundef nonnull align 8 dereferenceable(8) @_ZSt4cerr, ptr noundef nonnull @.str.66, i64 noundef 5)
  %406 = zext i32 %2 to i64
  %407 = tail call noundef nonnull align 8 dereferenceable(8) ptr @_ZNSo9_M_insertImEERSoT_(ptr noundef nonnull align 8 dereferenceable(8) @_ZSt4cerr, i64 noundef %406)
  %408 = tail call noundef nonnull align 8 dereferenceable(8) ptr @_ZSt16__ostream_insertIcSt11char_traitsIcEERSt13basic_ostreamIT_T0_ES6_PKS3_l(ptr noundef nonnull align 8 dereferenceable(8) %407, ptr noundef nonnull @.str.69, i64 noundef 39)
  %409 = load ptr, ptr %407, align 8, !tbaa !5
  %410 = getelementptr i8, ptr %409, i64 -24
  %411 = load i64, ptr %410, align 8
  %412 = getelementptr inbounds i8, ptr %407, i64 %411
  %413 = getelementptr inbounds %"class.std::basic_ios", ptr %412, i64 0, i32 5
  %414 = load ptr, ptr %413, align 8, !tbaa !90
  %415 = icmp eq ptr %414, null
  br i1 %415, label %416, label %417

416:                                              ; preds = %404
  tail call void @_ZSt16__throw_bad_castv() #32
  unreachable

417:                                              ; preds = %404
  %418 = getelementptr inbounds %"class.std::ctype", ptr %414, i64 0, i32 8
  %419 = load i8, ptr %418, align 8, !tbaa !93
  %420 = icmp eq i8 %419, 0
  br i1 %420, label %424, label %421

421:                                              ; preds = %417
  %422 = getelementptr inbounds %"class.std::ctype", ptr %414, i64 0, i32 9, i64 10
  %423 = load i8, ptr %422, align 1, !tbaa !37
  br label %429

424:                                              ; preds = %417
  tail call void @_ZNKSt5ctypeIcE13_M_widen_initEv(ptr noundef nonnull align 8 dereferenceable(570) %414)
  %425 = load ptr, ptr %414, align 8, !tbaa !5
  %426 = getelementptr inbounds ptr, ptr %425, i64 6
  %427 = load ptr, ptr %426, align 8
  %428 = tail call noundef signext i8 %427(ptr noundef nonnull align 8 dereferenceable(570) %414, i8 noundef signext 10)
  br label %429

429:                                              ; preds = %421, %424
  %430 = phi i8 [ %423, %421 ], [ %428, %424 ]
  %431 = tail call noundef nonnull align 8 dereferenceable(8) ptr @_ZNSo3putEc(ptr noundef nonnull align 8 dereferenceable(8) %407, i8 noundef signext %430)
  %432 = tail call noundef nonnull align 8 dereferenceable(8) ptr @_ZNSo5flushEv(ptr noundef nonnull align 8 dereferenceable(8) %431)
  br label %995

433:                                              ; preds = %398
  %434 = getelementptr inbounds %"class.std::__cxx11::basic_string", ptr %401, i64 -1
  store ptr %434, ptr %400, align 8, !tbaa !56
  %435 = load ptr, ptr %434, align 8, !tbaa !23
  %436 = getelementptr %"class.std::__cxx11::basic_string", ptr %401, i64 -1, i32 2
  %437 = icmp eq ptr %435, %436
  br i1 %437, label %438, label %442

438:                                              ; preds = %433
  %439 = getelementptr %"class.std::__cxx11::basic_string", ptr %401, i64 -1, i32 1
  %440 = load i64, ptr %439, align 8, !tbaa !26
  %441 = icmp ult i64 %440, 16
  tail call void @llvm.assume(i1 %441)
  br label %995

442:                                              ; preds = %433
  tail call void @_ZdlPv(ptr noundef %435) #30
  br label %995

443:                                              ; preds = %395
  %444 = tail call noundef i64 @_ZNKSt7__cxx1112basic_stringIcSt11char_traitsIcESaIcEE4findEPKcmm(ptr noundef nonnull align 8 dereferenceable(32) %1, ptr noundef nonnull @.str.70, i64 noundef 0, i64 noundef 4)
  %445 = icmp eq i64 %444, 0
  br i1 %445, label %449, label %446

446:                                              ; preds = %443
  %447 = tail call noundef i64 @_ZNKSt7__cxx1112basic_stringIcSt11char_traitsIcESaIcEE4findEPKcmm(ptr noundef nonnull align 8 dereferenceable(32) %1, ptr noundef nonnull @.str.44, i64 noundef 0, i64 noundef 4)
  %448 = icmp eq i64 %447, 0
  br i1 %448, label %449, label %938

449:                                              ; preds = %446, %443
  %450 = load i64, ptr %56, align 8, !tbaa !26
  %451 = tail call i64 @llvm.umin.i64(i64 %450, i64 4)
  tail call void @_ZNSt7__cxx1112basic_stringIcSt11char_traitsIcESaIcEE8_M_eraseEmm(ptr noundef nonnull align 8 dereferenceable(32) %1, i64 noundef 0, i64 noundef %451)
  %452 = tail call noundef i64 @_ZNKSt7__cxx1112basic_stringIcSt11char_traitsIcESaIcEE4findEPKcmm(ptr noundef nonnull align 8 dereferenceable(32) %1, ptr noundef nonnull @.str.71, i64 noundef 0, i64 noundef 2)
  %453 = icmp eq i64 %452, -1
  br i1 %453, label %463, label %454

454:                                              ; preds = %449
  %455 = tail call noundef i64 @_ZNKSt7__cxx1112basic_stringIcSt11char_traitsIcESaIcEE4findEPKcmm(ptr noundef nonnull align 8 dereferenceable(32) %1, ptr noundef nonnull @.str.71, i64 noundef 0, i64 noundef 2)
  %456 = load i64, ptr %56, align 8, !tbaa !26
  %457 = icmp ult i64 %456, %455
  br i1 %457, label %458, label %459

458:                                              ; preds = %454
  tail call void (ptr, ...) @_ZSt24__throw_out_of_range_fmtPKcz(ptr noundef nonnull @.str.94, ptr noundef nonnull @.str.93, i64 noundef %455, i64 noundef %456) #32
  unreachable

459:                                              ; preds = %454
  %460 = sub i64 %456, %455
  %461 = tail call i64 @llvm.umin.i64(i64 %460, i64 2)
  %462 = tail call noundef nonnull align 8 dereferenceable(32) ptr @_ZNSt7__cxx1112basic_stringIcSt11char_traitsIcESaIcEE10_M_replaceEmmPKcm(ptr noundef nonnull align 8 dereferenceable(32) %1, i64 noundef %455, i64 noundef %461, ptr noundef nonnull @.str.72, i64 noundef 1)
  br label %463

463:                                              ; preds = %459, %449
  %464 = tail call noundef i64 @_ZNKSt7__cxx1112basic_stringIcSt11char_traitsIcESaIcEE4findEPKcmm(ptr noundef nonnull align 8 dereferenceable(32) %1, ptr noundef nonnull @.str.46, i64 noundef 0, i64 noundef 2)
  %465 = icmp eq i64 %464, -1
  br i1 %465, label %475, label %466

466:                                              ; preds = %463
  %467 = tail call noundef i64 @_ZNKSt7__cxx1112basic_stringIcSt11char_traitsIcESaIcEE4findEPKcmm(ptr noundef nonnull align 8 dereferenceable(32) %1, ptr noundef nonnull @.str.46, i64 noundef 0, i64 noundef 2)
  %468 = load i64, ptr %56, align 8, !tbaa !26
  %469 = icmp ult i64 %468, %467
  br i1 %469, label %470, label %471

470:                                              ; preds = %466
  tail call void (ptr, ...) @_ZSt24__throw_out_of_range_fmtPKcz(ptr noundef nonnull @.str.94, ptr noundef nonnull @.str.93, i64 noundef %467, i64 noundef %468) #32
  unreachable

471:                                              ; preds = %466
  %472 = sub i64 %468, %467
  %473 = tail call i64 @llvm.umin.i64(i64 %472, i64 2)
  %474 = tail call noundef nonnull align 8 dereferenceable(32) ptr @_ZNSt7__cxx1112basic_stringIcSt11char_traitsIcESaIcEE10_M_replaceEmmPKcm(ptr noundef nonnull align 8 dereferenceable(32) %1, i64 noundef %467, i64 noundef %473, ptr noundef nonnull @.str.72, i64 noundef 1)
  br label %475

475:                                              ; preds = %471, %463
  call void @llvm.lifetime.start.p0(i64 32, ptr nonnull %10) #29
  %476 = tail call noundef i64 @_ZNKSt7__cxx1112basic_stringIcSt11char_traitsIcESaIcEE4findEcm(ptr noundef nonnull align 8 dereferenceable(32) %1, i8 noundef signext 61, i64 noundef 0)
  %477 = getelementptr inbounds %"class.std::__cxx11::basic_string", ptr %10, i64 0, i32 2
  store ptr %477, ptr %10, align 8, !tbaa !35
  %478 = load i64, ptr %56, align 8, !tbaa !26
  %479 = load ptr, ptr %1, align 8, !tbaa !23
  %480 = call i64 @llvm.umin.i64(i64 %478, i64 %476)
  call void @llvm.lifetime.start.p0(i64 8, ptr nonnull %5) #29
  store i64 %480, ptr %5, align 8, !tbaa !53
  %481 = icmp ugt i64 %480, 15
  br i1 %481, label %482, label %485

482:                                              ; preds = %475
  %483 = call noundef ptr @_ZNSt7__cxx1112basic_stringIcSt11char_traitsIcESaIcEE9_M_createERmm(ptr noundef nonnull align 8 dereferenceable(32) %10, ptr noundef nonnull align 8 dereferenceable(8) %5, i64 noundef 0)
  store ptr %483, ptr %10, align 8, !tbaa !23
  %484 = load i64, ptr %5, align 8, !tbaa !53
  store i64 %484, ptr %477, align 8, !tbaa !37
  br label %485

485:                                              ; preds = %482, %475
  %486 = phi ptr [ %483, %482 ], [ %477, %475 ]
  switch i64 %480, label %489 [
    i64 1, label %487
    i64 0, label %490
  ]

487:                                              ; preds = %485
  %488 = load i8, ptr %479, align 1, !tbaa !37
  store i8 %488, ptr %486, align 1, !tbaa !37
  br label %490

489:                                              ; preds = %485
  call void @llvm.memcpy.p0.p0.i64(ptr align 1 %486, ptr align 1 %479, i64 %480, i1 false)
  br label %490

490:                                              ; preds = %485, %487, %489
  %491 = load i64, ptr %5, align 8, !tbaa !53
  %492 = getelementptr inbounds %"class.std::__cxx11::basic_string", ptr %10, i64 0, i32 1
  store i64 %491, ptr %492, align 8, !tbaa !26
  %493 = load ptr, ptr %10, align 8, !tbaa !23
  %494 = getelementptr inbounds i8, ptr %493, i64 %491
  store i8 0, ptr %494, align 1, !tbaa !37
  call void @llvm.lifetime.end.p0(i64 8, ptr nonnull %5) #29
  call void @llvm.lifetime.start.p0(i64 32, ptr nonnull %11) #29
  %495 = invoke noundef i64 @_ZNKSt7__cxx1112basic_stringIcSt11char_traitsIcESaIcEE4findEcm(ptr noundef nonnull align 8 dereferenceable(32) %1, i8 noundef signext 61, i64 noundef 0)
          to label %496 unwind label %694

496:                                              ; preds = %490
  %497 = add i64 %495, 1
  %498 = getelementptr inbounds %"class.std::__cxx11::basic_string", ptr %11, i64 0, i32 2
  store ptr %498, ptr %11, align 8, !tbaa !35
  %499 = load i64, ptr %56, align 8, !tbaa !26
