; ModuleID = 'source/base/polynomial.cc'
source_filename = "source/base/polynomial.cc"
target datalayout = "e-m:e-p270:32:32-p271:32:32-p272:64:64-i64:64-f80:128-n8:16:32:64-S128"
target triple = "x86_64-pc-linux-gnu"

%"class.std::vector.42" = type { %"struct.std::_Vector_base.43" }
%"struct.std::_Vector_base.43" = type { %"struct.std::_Vector_base<const std::vector<double> *, std::allocator<const std::vector<double> *> >::_Vector_impl" }
%"struct.std::_Vector_base<const std::vector<double> *, std::allocator<const std::vector<double> *> >::_Vector_impl" = type { %"struct.std::_Vector_base<const std::vector<double> *, std::allocator<const std::vector<double> *> >::_Vector_impl_data" }
%"struct.std::_Vector_base<const std::vector<double> *, std::allocator<const std::vector<double> *> >::_Vector_impl_data" = type { ptr, ptr, ptr }
%"class.dealii::Polynomials::Polynomial" = type { %"class.dealii::Subscriptor", %"class.std::vector" }
%"class.dealii::Subscriptor" = type { ptr, i32, %"class.std::map", ptr }
%"class.std::map" = type { %"class.std::_Rb_tree" }
%"class.std::_Rb_tree" = type { %"struct.std::_Rb_tree<const char *, std::pair<const char *const, unsigned int>, std::_Select1st<std::pair<const char *const, unsigned int> >, std::less<const char *> >::_Rb_tree_impl" }
%"struct.std::_Rb_tree<const char *, std::pair<const char *const, unsigned int>, std::_Select1st<std::pair<const char *const, unsigned int> >, std::less<const char *> >::_Rb_tree_impl" = type { %"struct.std::_Rb_tree_key_compare", %"struct.std::_Rb_tree_header" }
%"struct.std::_Rb_tree_key_compare" = type { %"struct.std::less" }
%"struct.std::less" = type { i8 }
%"struct.std::_Rb_tree_header" = type { %"struct.std::_Rb_tree_node_base", i64 }
%"struct.std::_Rb_tree_node_base" = type { i32, ptr, ptr, ptr }
%"class.std::vector" = type { %"struct.std::_Vector_base" }
%"struct.std::_Vector_base" = type { %"struct.std::_Vector_base<float, std::allocator<float> >::_Vector_impl" }
%"struct.std::_Vector_base<float, std::allocator<float> >::_Vector_impl" = type { %"struct.std::_Vector_base<float, std::allocator<float> >::_Vector_impl_data" }
%"struct.std::_Vector_base<float, std::allocator<float> >::_Vector_impl_data" = type { ptr, ptr, ptr }
%"class.dealii::Polynomials::Monomial" = type { %"class.dealii::Polynomials::Polynomial" }
%"class.std::basic_ios" = type { %"class.std::ios_base", ptr, i8, i8, ptr, ptr, ptr, ptr }
%"class.std::ios_base" = type { ptr, i64, i64, i32, i32, i32, ptr, %"struct.std::ios_base::_Words", [8 x %"struct.std::ios_base::_Words"], i32, ptr, %"class.std::locale" }
%"struct.std::ios_base::_Words" = type { ptr, i64 }
%"class.std::locale" = type { ptr }
%"class.std::ctype" = type <{ %"class.std::locale::facet.base", [4 x i8], ptr, i8, [7 x i8], ptr, ptr, ptr, i8, [256 x i8], [256 x i8], i8, [6 x i8] }>
%"class.std::locale::facet.base" = type <{ ptr, i32 }>
%"class.dealii::Polynomials::Polynomial.19" = type { %"class.dealii::Subscriptor", %"class.std::vector.20" }
%"class.std::vector.20" = type { %"struct.std::_Vector_base.21" }
%"struct.std::_Vector_base.21" = type { %"struct.std::_Vector_base<double, std::allocator<double> >::_Vector_impl" }
%"struct.std::_Vector_base<double, std::allocator<double> >::_Vector_impl" = type { %"struct.std::_Vector_base<double, std::allocator<double> >::_Vector_impl_data" }
%"struct.std::_Vector_base<double, std::allocator<double> >::_Vector_impl_data" = type { ptr, ptr, ptr }
%"class.dealii::Polynomials::Monomial.25" = type { %"class.dealii::Polynomials::Polynomial.19" }
%"class.std::vector.27" = type { %"struct.std::_Vector_base.28" }
%"struct.std::_Vector_base.28" = type { %"struct.std::_Vector_base<dealii::Polynomials::Polynomial<float>, std::allocator<dealii::Polynomials::Polynomial<float> > >::_Vector_impl" }
%"struct.std::_Vector_base<dealii::Polynomials::Polynomial<float>, std::allocator<dealii::Polynomials::Polynomial<float> > >::_Vector_impl" = type { %"struct.std::_Vector_base<dealii::Polynomials::Polynomial<float>, std::allocator<dealii::Polynomials::Polynomial<float> > >::_Vector_impl_data" }
%"struct.std::_Vector_base<dealii::Polynomials::Polynomial<float>, std::allocator<dealii::Polynomials::Polynomial<float> > >::_Vector_impl_data" = type { ptr, ptr, ptr }
%"class.std::vector.32" = type { %"struct.std::_Vector_base.33" }
%"struct.std::_Vector_base.33" = type { %"struct.std::_Vector_base<dealii::Polynomials::Polynomial<double>, std::allocator<dealii::Polynomials::Polynomial<double> > >::_Vector_impl" }
%"struct.std::_Vector_base<dealii::Polynomials::Polynomial<double>, std::allocator<dealii::Polynomials::Polynomial<double> > >::_Vector_impl" = type { %"struct.std::_Vector_base<dealii::Polynomials::Polynomial<double>, std::allocator<dealii::Polynomials::Polynomial<double> > >::_Vector_impl_data" }
%"struct.std::_Vector_base<dealii::Polynomials::Polynomial<double>, std::allocator<dealii::Polynomials::Polynomial<double> > >::_Vector_impl_data" = type { ptr, ptr, ptr }
%"class.dealii::Polynomials::LagrangeEquidistant" = type { %"class.dealii::Polynomials::Polynomial.19" }
%"struct.std::_Vector_base<dealii::Point<1>, std::allocator<dealii::Point<1> > >::_Vector_impl_data" = type { ptr, ptr, ptr }
%"class.dealii::Point" = type { %"class.dealii::Tensor" }
%"class.dealii::Tensor" = type { [1 x double] }
%"class.dealii::Polynomials::Legendre" = type { %"class.dealii::Polynomials::Polynomial.19" }
%"class.dealii::Polynomials::Hierarchical" = type { %"class.dealii::Polynomials::Polynomial.19" }

$_ZN6dealii11Polynomials10PolynomialIfEC5ERKSt6vectorIfSaIfEE = comdat any

$__clang_call_terminate = comdat any

$_ZN6dealii11Polynomials10PolynomialIfEC5Ev = comdat any

$_ZNK6dealii11Polynomials10PolynomialIfE5valueEf = comdat any

$_ZNK6dealii11Polynomials10PolynomialIfE5valueEfRSt6vectorIfSaIfEE = comdat any

$_ZNK6dealii11Polynomials10PolynomialIfE6degreeEv = comdat any

$_ZN6dealii11Polynomials10PolynomialIfE5scaleEf = comdat any

$_ZN6dealii11Polynomials10PolynomialIfE5scaleERSt6vectorIfSaIfEEf = comdat any

$_ZNK6dealii11Polynomials10PolynomialIfE10derivativeEv = comdat any

$_ZNK6dealii11Polynomials10PolynomialIfE9primitiveEv = comdat any

$_ZN6dealii11Polynomials10PolynomialIfEmLEd = comdat any

$_ZN6dealii11Polynomials10PolynomialIfEmLERKS2_ = comdat any

$_ZNSt6vectorIfSaIfEEaSERKS1_ = comdat any

$_ZN6dealii11Polynomials10PolynomialIfEpLERKS2_ = comdat any

$_ZN6dealii11Polynomials10PolynomialIfEmIERKS2_ = comdat any

$_ZNK6dealii11Polynomials10PolynomialIfE5printERSo = comdat any

$_ZN6dealii11Polynomials10PolynomialIfE8multiplyERSt6vectorIfSaIfEEf = comdat any

$_ZN6dealii11Polynomials10PolynomialIdEC5ERKSt6vectorIdSaIdEE = comdat any

$_ZN6dealii11Polynomials10PolynomialIdEC5Ev = comdat any

$_ZNK6dealii11Polynomials10PolynomialIdE5valueEd = comdat any

$_ZNK6dealii11Polynomials10PolynomialIdE5valueEdRSt6vectorIdSaIdEE = comdat any

$_ZNK6dealii11Polynomials10PolynomialIdE6degreeEv = comdat any

$_ZN6dealii11Polynomials10PolynomialIdE5scaleEd = comdat any

$_ZN6dealii11Polynomials10PolynomialIdE5scaleERSt6vectorIdSaIdEEd = comdat any

$_ZNK6dealii11Polynomials10PolynomialIdE10derivativeEv = comdat any

$_ZNK6dealii11Polynomials10PolynomialIdE9primitiveEv = comdat any

$_ZN6dealii11Polynomials10PolynomialIdEmLEd = comdat any

$_ZN6dealii11Polynomials10PolynomialIdEmLERKS2_ = comdat any

$_ZNSt6vectorIdSaIdEEaSERKS1_ = comdat any

$_ZN6dealii11Polynomials10PolynomialIdEpLERKS2_ = comdat any

$_ZN6dealii11Polynomials10PolynomialIdEmIERKS2_ = comdat any

$_ZNK6dealii11Polynomials10PolynomialIdE5printERSo = comdat any

$_ZN6dealii11Polynomials10PolynomialIdE8multiplyERSt6vectorIdSaIdEEd = comdat any

$_ZN6dealii11Polynomials10PolynomialIfE5shiftIfEEvT_ = comdat any

$_ZN6dealii11Polynomials10PolynomialIfE5shiftIfEEvRSt6vectorIfSaIfEET_ = comdat any

$_ZN6dealii11Polynomials10PolynomialIfE5shiftIdEEvT_ = comdat any

$_ZN6dealii11Polynomials10PolynomialIfE5shiftIdEEvRSt6vectorIfSaIfEET_ = comdat any

$_ZN6dealii11Polynomials10PolynomialIdE5shiftIfEEvT_ = comdat any

$_ZN6dealii11Polynomials10PolynomialIdE5shiftIfEEvRSt6vectorIdSaIdEET_ = comdat any

$_ZN6dealii11Polynomials10PolynomialIdE5shiftIdEEvT_ = comdat any

$_ZN6dealii11Polynomials10PolynomialIdE5shiftIdEEvRSt6vectorIdSaIdEET_ = comdat any

$_ZN6dealii11Polynomials8MonomialIfEC5Ejd = comdat any

$_ZN6dealii11Polynomials8MonomialIfE11make_vectorEjd = comdat any

$_ZN6dealii11Polynomials8MonomialIfE23generate_complete_basisEj = comdat any

$_ZNSt6vectorIN6dealii11Polynomials10PolynomialIfEESaIS3_EE9push_backERKS3_ = comdat any

$_ZNSt6vectorIN6dealii11Polynomials10PolynomialIfEESaIS3_EED2Ev = comdat any

$_ZN6dealii11Polynomials8MonomialIdEC5Ejd = comdat any

$_ZN6dealii11Polynomials8MonomialIdE11make_vectorEjd = comdat any

$_ZN6dealii11Polynomials8MonomialIdE23generate_complete_basisEj = comdat any

$_ZNSt6vectorIN6dealii11Polynomials10PolynomialIdEESaIS3_EE9push_backERKS3_ = comdat any

$_ZNSt6vectorIN6dealii11Polynomials10PolynomialIdEESaIS3_EED2Ev = comdat any

$_ZNSt6vectorIPKS_IdSaIdEESaIS3_EED2Ev = comdat any

$_ZN6dealii11Polynomials10PolynomialIdED2Ev = comdat any

$_ZN6dealii11Polynomials10PolynomialIdED0Ev = comdat any

$_ZN6dealii11Polynomials10PolynomialIfED2Ev = comdat any

$_ZN6dealii11Polynomials10PolynomialIfED0Ev = comdat any

$_ZN6dealii11Polynomials8MonomialIfED0Ev = comdat any

$_ZN6dealii11Polynomials8MonomialIdED0Ev = comdat any

$_ZN6dealii11Polynomials19LagrangeEquidistantD0Ev = comdat any

$_ZN6dealii11Polynomials8LegendreD0Ev = comdat any

$_ZN6dealii11Polynomials12HierarchicalD0Ev = comdat any

$_ZSt18__do_uninit_fill_nIPN6dealii11Polynomials10PolynomialIdEEmS3_ET_S5_T0_RKT1_ = comdat any

$_ZNSt6vectorIN6dealii11Polynomials10PolynomialIdEESaIS3_EE17_M_realloc_insertEN9__gnu_cxx17__normal_iteratorIPS3_S5_EERKS3_ = comdat any

$_ZSt16__do_uninit_copyIPN6dealii11Polynomials10PolynomialIdEES4_ET0_T_S6_S5_ = comdat any

$_ZNSt6vectorIPKS_IdSaIdEESaIS3_EE14_M_fill_insertEN9__gnu_cxx17__normal_iteratorIPS3_S5_EEmRKS3_ = comdat any

$_ZNSt6vectorIdSaIdEE13_M_assign_auxIN9__gnu_cxx17__normal_iteratorIPdS1_EEEEvT_S7_St20forward_iterator_tag = comdat any

$_ZNSt6vectorIN6dealii11Polynomials10PolynomialIdEESaIS3_EE20_M_allocate_and_copyIPS3_EES7_mT_S8_ = comdat any

$_ZNSt6vectorIfSaIfEE14_M_fill_insertEN9__gnu_cxx17__normal_iteratorIPfS1_EEmRKf = comdat any

$_ZNSt6vectorIdSaIdEE14_M_fill_insertEN9__gnu_cxx17__normal_iteratorIPdS1_EEmRKd = comdat any

$_ZNSt6vectorIfSaIfEE13_M_assign_auxIN9__gnu_cxx17__normal_iteratorIPfS1_EEEEvT_S7_St20forward_iterator_tag = comdat any

$_ZNSt6vectorIfSaIfEE13_M_assign_auxIN9__gnu_cxx17__normal_iteratorIPdS_IdSaIdEEEEEEvT_S9_St20forward_iterator_tag = comdat any

$_ZNSt6vectorIdSaIdEE13_M_assign_auxIN9__gnu_cxx17__normal_iteratorIPfS_IfSaIfEEEEEEvT_S9_St20forward_iterator_tag = comdat any

$_ZNSt6vectorIN6dealii11Polynomials10PolynomialIfEESaIS3_EE20_M_allocate_and_copyIPS3_EES7_mT_S8_ = comdat any

$_ZSt16__do_uninit_copyIPN6dealii11Polynomials10PolynomialIfEES4_ET0_T_S6_S5_ = comdat any

$_ZNSt6vectorIN6dealii11Polynomials10PolynomialIfEESaIS3_EE17_M_realloc_insertEN9__gnu_cxx17__normal_iteratorIPS3_S5_EERKS3_ = comdat any

$_ZTVN6dealii11Polynomials10PolynomialIfEE = comdat any

$_ZTVN6dealii11Polynomials10PolynomialIdEE = comdat any

$_ZTVN6dealii11Polynomials8MonomialIfEE = comdat any

$_ZTVN6dealii11Polynomials8MonomialIdEE = comdat any

$_ZTVN6dealii11Polynomials19LagrangeEquidistantE = comdat any

$_ZTVN6dealii11Polynomials8LegendreE = comdat any

$_ZTVN6dealii11Polynomials12HierarchicalE = comdat any

$_ZTSN6dealii11Polynomials10PolynomialIdEE = comdat any

$_ZTIN6dealii11Polynomials10PolynomialIdEE = comdat any

$_ZTSN6dealii11Polynomials10PolynomialIfEE = comdat any

$_ZTIN6dealii11Polynomials10PolynomialIfEE = comdat any

$_ZTSN6dealii11Polynomials8MonomialIfEE = comdat any

$_ZTIN6dealii11Polynomials8MonomialIfEE = comdat any

$_ZTSN6dealii11Polynomials8MonomialIdEE = comdat any

$_ZTIN6dealii11Polynomials8MonomialIdEE = comdat any

$_ZTSN6dealii11Polynomials19LagrangeEquidistantE = comdat any

$_ZTIN6dealii11Polynomials19LagrangeEquidistantE = comdat any

$_ZTSN6dealii11Polynomials8LegendreE = comdat any

$_ZTIN6dealii11Polynomials8LegendreE = comdat any

$_ZTSN6dealii11Polynomials12HierarchicalE = comdat any

$_ZTIN6dealii11Polynomials12HierarchicalE = comdat any

@_ZTVN6dealii11Polynomials10PolynomialIfEE = weak_odr dso_local unnamed_addr constant { [4 x ptr] } { [4 x ptr] [ptr null, ptr @_ZTIN6dealii11Polynomials10PolynomialIfEE, ptr @_ZN6dealii11Polynomials10PolynomialIfED2Ev, ptr @_ZN6dealii11Polynomials10PolynomialIfED0Ev] }, comdat, align 8
@.str = private unnamed_addr constant [4 x i8] c" x^\00", align 1
@_ZTVN6dealii11Polynomials10PolynomialIdEE = weak_odr dso_local unnamed_addr constant { [4 x ptr] } { [4 x ptr] [ptr null, ptr @_ZTIN6dealii11Polynomials10PolynomialIdEE, ptr @_ZN6dealii11Polynomials10PolynomialIdED2Ev, ptr @_ZN6dealii11Polynomials10PolynomialIdED0Ev] }, comdat, align 8
@_ZTVN6dealii11Polynomials8MonomialIfEE = weak_odr dso_local unnamed_addr constant { [4 x ptr] } { [4 x ptr] [ptr null, ptr @_ZTIN6dealii11Polynomials8MonomialIfEE, ptr @_ZN6dealii11Polynomials10PolynomialIfED2Ev, ptr @_ZN6dealii11Polynomials8MonomialIfED0Ev] }, comdat, align 8
@_ZTVN6dealii11Polynomials8MonomialIdEE = weak_odr dso_local unnamed_addr constant { [4 x ptr] } { [4 x ptr] [ptr null, ptr @_ZTIN6dealii11Polynomials8MonomialIdEE, ptr @_ZN6dealii11Polynomials10PolynomialIdED2Ev, ptr @_ZN6dealii11Polynomials8MonomialIdED0Ev] }, comdat, align 8
@_ZTVN6dealii11Polynomials19LagrangeEquidistantE = linkonce_odr dso_local unnamed_addr constant { [4 x ptr] } { [4 x ptr] [ptr null, ptr @_ZTIN6dealii11Polynomials19LagrangeEquidistantE, ptr @_ZN6dealii11Polynomials10PolynomialIdED2Ev, ptr @_ZN6dealii11Polynomials19LagrangeEquidistantD0Ev] }, comdat, align 8
@_ZZN6dealii11Polynomials19LagrangeEquidistant20compute_coefficientsEjjE2x1 = internal unnamed_addr constant [4 x double] [double 1.000000e+00, double -1.000000e+00, double 0.000000e+00, double 1.000000e+00], align 16
@_ZZN6dealii11Polynomials19LagrangeEquidistant20compute_coefficientsEjjE2x2 = internal unnamed_addr constant [9 x double] [double 1.000000e+00, double -3.000000e+00, double 2.000000e+00, double 0.000000e+00, double 4.000000e+00, double -4.000000e+00, double 0.000000e+00, double -1.000000e+00, double 2.000000e+00], align 16
@_ZZN6dealii11Polynomials19LagrangeEquidistant20compute_coefficientsEjjE2x3 = internal unnamed_addr constant [16 x double] [double 1.000000e+00, double -5.500000e+00, double 9.000000e+00, double -4.500000e+00, double 0.000000e+00, double 9.000000e+00, double -2.250000e+01, double 1.350000e+01, double 0.000000e+00, double -4.500000e+00, double 1.800000e+01, double -1.350000e+01, double 0.000000e+00, double 1.000000e+00, double -4.500000e+00, double 4.500000e+00], align 16
@_ZZN6dealii11Polynomials19LagrangeEquidistant20compute_coefficientsEjjE2x4 = internal unnamed_addr constant [25 x double] [double 1.000000e+00, double 0xC020AAAAAAAAAAAB, double 0x4037555555555555, double 0xC03AAAAAAAAAAAAB, double 0x4025555555555555, double 0.000000e+00, double 1.600000e+01, double 0xC051555555555555, double 9.600000e+01, double 0xC045555555555555, double 0.000000e+00, double -1.200000e+01, double 7.600000e+01, double -1.280000e+02, double 6.400000e+01, double 0.000000e+00, double 0x4015555555555555, double 0xC042AAAAAAAAAAAB, double 0x4052AAAAAAAAAAAB, double 0xC045555555555555, double 0.000000e+00, double -1.000000e+00, double 0x401D555555555555, double -1.600000e+01, double 0x4025555555555555], align 16
@_ZZN6dealii11Polynomials19LagrangeEquidistant20compute_coefficientsEjjE2x5 = internal unnamed_addr constant [36 x double] [double 1.000000e+00, double 0xC026D55555555555, double 4.687500e+01, double 0xC05622AAAAAAAAAB, double 7.812500e+01, double 0xC03A0AAAAAAAAAAB, double 0.000000e+00, double 2.500000e+01, double 0xC0640D5555555555, double 0x40771CAAAAAAAAAB, double 0xC076C95555555555, double 0x406046AAAAAAAAAB, double 0.000000e+00, double -2.500000e+01, double 0x406BDD5555555555, double 0xC08334AAAAAAAAAB, double 0x408528AAAAAAAAAB, double 0xC07046AAAAAAAAAB, double 0.000000e+00, double 0x4030AAAAAAAAAAAB, double -1.625000e+02, double 0x407FE6AAAAAAAAAB, double -6.250000e+02, double 0x407046AAAAAAAAAB, double 0.000000e+00, double -6.250000e+00, double 0x404FC55555555555, double 0xC06AB15555555555, double 0x4071E75555555555, double 0xC06046AAAAAAAAAB, double 0.000000e+00, double 1.000000e+00, double 0xC024D55555555555, double 0x40423AAAAAAAAAAB, double 0xC04A0AAAAAAAAAAB, double 0x403A0AAAAAAAAAAB], align 16
@_ZZN6dealii11Polynomials19LagrangeEquidistant20compute_coefficientsEjjE2x6 = internal unnamed_addr constant [49 x double] [double 1.000000e+00, double -1.470000e+01, double 8.120000e+01, double -2.205000e+02, double 3.150000e+02, double -2.268000e+02, double 6.480000e+01, double 0.000000e+00, double 3.600000e+01, double -3.132000e+02, double 1.044000e+03, double -1.674000e+03, double 1.296000e+03, double -3.888000e+02, double 0.000000e+00, double -4.500000e+01, double 5.265000e+02, double -2.074500e+03, double 3.699000e+03, double -3.078000e+03, double 9.720000e+02, double 0.000000e+00, double 4.000000e+01, double -5.080000e+02, double 2.232000e+03, double -4.356000e+03, double 3.888000e+03, double -1.296000e+03, double 0.000000e+00, double -2.250000e+01, double 2.970000e+02, double -1.381500e+03, double 2.889000e+03, double -2.754000e+03, double 9.720000e+02, double 0.000000e+00, double 7.200000e+00, double -9.720000e+01, double 4.680000e+02, double -1.026000e+03, double 1.036800e+03, double -3.888000e+02, double 0.000000e+00, double -1.000000e+00, double 1.370000e+01, double -6.750000e+01, double 1.530000e+02, double -1.620000e+02, double 6.480000e+01], align 16
@_ZZN6dealii11Polynomials19LagrangeEquidistant20compute_coefficientsEjjE2x7 = internal unnamed_addr constant [64 x double] [double 1.000000e+00, double -1.815000e+01, double 0x405FEB05B05B05B0, double 0xC07CCAB05B05B05B, double 0x408D2DC71C71C71C, double 0xC090C71F49F49F4A, double 0x40846CD82D82D82E, double 0xC0646CD82D82D82E, double 0.000000e+00, double 4.900000e+01, double -5.463500e+02, double 0x40A2FEFA4FA4FA50, double 0xC0B5B05000000000, double 0x40BAE6338E38E38E, double 0xC0B13BD666666666, double 0x4091DF3D27D27D28, double 0.000000e+00, double -7.350000e+01, double 0x4090D3199999999A, double 0xC0B5EF3222222222, double 0x40CBBEF555555555, double 0xC0D276F800000000, double 0x40C8E4A777777777, double 0xC0AACEDBBBBBBBBC, double 0.000000e+00, double 0x40546AAAAAAAAAAB, double 0xC0942EC71C71C71C, double 0x40BCF49C71C71C72, double 0xC0D3D94871C71C72, double 0x40DC272B1C71C71C, double 0xC0D3F24B1C71C71C, double 0x40B6570C71C71C72, double 0.000000e+00, double -6.125000e+01, double 1.004500e+03, double 0xC0B7AE0C71C71C72, double 0x40D131D555555555, double 0xC0D9C269C71C71C7, double 0x40D3260AAAAAAAAB, double 0xC0B6570C71C71C72, double 0.000000e+00, double 2.940000e+01, double -4.924500e+02, double 0x40A7F04444444444, double 0xC0C212ED55555555, double 0x40CC5004CCCCCCCD, double 0xC0C6055911111111, double 0x40AACEDBBBBBBBBC, double 0.000000e+00, double 0xC020555555555555, double 0x4061564FA4FA4FA5, double 0xC08B86BE93E93E94, double 0x40A55CF1C71C71C7, double 0xC0B1532E38E38E39, double 0x40AC15A93E93E93F, double 0xC091DF3D27D27D28, double 0.000000e+00, double 1.000000e+00, double -1.715000e+01, double 0x405BA16C16C16C17, double 0xC075E25555555555, double 0x40823C9C71C71C72, double 0xC07EA34444444444, double 0x40646CD82D82D82E], align 16
@_ZZN6dealii11Polynomials19LagrangeEquidistant20compute_coefficientsEjjE2x8 = internal unnamed_addr constant [81 x double] [double 1.000000e+00, double 0xC035BE2BE2BE2BE3, double 0x40676FF2FF2FF2FF, double 0xC08AB33333333333, double 0x40A1D11111111111, double -3.686400e+03, double 0x40ABBBBBBBBBBBBC, double 0xC09D41D41D41D41D, double 0x407A01A01A01A01A, double 0.000000e+00, double 6.400000e+01, double 0xC08B7C57C57C57C5, double 0x40B3638E38E38E39, double 0xC0CD3E93E93E93E9, double 0x40D98E38E38E38E4, double 0xC0D9F49F49F49F4A, double 0x40CC71C71C71C71C, double 0xC0AA01A01A01A01A, double 0.000000e+00, double -1.120000e+02, double 1.987200e+03, double 0xC0C97D82D82D82D8, double 0x40E53C16C16C16C1, double 0xC0F3E38E38E38E39, double 0x40F53E93E93E93E9, double 0xC0E82D82D82D82D8, double 0x40C6C16C16C16C17, double 0.000000e+00, double 0x4062AAAAAAAAAAAB, double 0xC0A6416C16C16C17, double 2.040320e+04, double 0xC0F1DDDDDDDDDDDE, double 1.454080e+05, double 0xC103DDDDDDDDDDDE, double 0x40F7777777777777, double 0xC0D6C16C16C16C17, double 0.000000e+00, double -1.400000e+02, double 2.764000e+03, double 0xC0D43C71C71C71C7, double 0x40F315C71C71C71C, double 0xC103E38E38E38E39, double 0x410738E38E38E38E, double 0xC0FC71C71C71C71C, double 0x40DC71C71C71C71C, double 0.000000e+00, double 8.960000e+01, double -1.804800e+03, double 0x40CB2C16C16C16C1, double 0xC0EA82D82D82D82E, double 0x40FCAD82D82D82D8, double 0xC10160B60B60B60B, double 0x40F60B60B60B60B6, double 0xC0D6C16C16C16C17, double 0.000000e+00, double 0xC042AAAAAAAAAAAB, double 0x4087CFA4FA4FA4FA, double -5.984000e+03, double 0x40D75BBBBBBBBBBC, double -5.324800e+04, double 0x40F0444444444444, double 0xC0E5555555555555, double 0x40C6C16C16C16C17, double 0.000000e+00, double 0x4022492492492492, double 0xC0678AF8AF8AF8B0, double 0x40976C16C16C16C1, double 0xC0B7D27D27D27D28, double 0x40CB1C71C71C71C7, double 0xC0D16C16C16C16C1, double 0x40C7917917917918, double 0xC0AA01A01A01A01A, double 0.000000e+00, double -1.000000e+00, double 0x4034BE2BE2BE2BE3, double 0xC064D82D82D82D83, double 0x40857D27D27D27D2, double 0xC098E38E38E38E39, double 0x40A05B05B05B05B0, double 0xC096C16C16C16C17, double 0x407A01A01A01A01A], align 16
@_ZZN6dealii11Polynomials19LagrangeEquidistant20compute_coefficientsEjjE2x9 = internal unnamed_addr constant [100 x double] [double 1.000000e+00, double 0xC03975F15F15F15F, double 0x40705C36DB6DB6DB, double 0xC096B74924924925, double 0x40B3057E00000000, double 0xC0C41BFE33333333, double 0x40CB07CE00000000, double 0xC0C6658D6DB6DB6E, double 0x40B4DA2292492492, double 0xC090AE820EA0EA0F, double 0.000000e+00, double 8.100000e+01, double 0xC094D5457C57C57C, double 0x40C1F97CAF8AF8B0, double 0xC0E10E989999999A, double 0x40F38A1F2CCCCCCD, double 0xC0FBC05533333333, double 0x40F7EC06F3333333, double 0xC0E6EFF2D41D41D4, double 0x40C2C45250750750, double 0.000000e+00, double -1.620000e+02, double 0x40AA87457C57C57C, double 0xC0DA7D53C57C57C5, double 0x40FBB2F2E6666666, double 0xC110FC95ACCCCCCD, double 0x41195D155999999A, double 0xC116B4A2CCCCCCCD, double 0x41066A7EC3A83A84, double 0xC0E2C45250750750, double 0.000000e+00, double 2.520000e+02, double -5.660100e+03, double 0x40E7EB0266666666, double 0xC10AC89633333333, double 0x41215C5F6999999A, double 0xC12B191AACCCCCCD, double 0x4129236B1999999A, double 0xC1198B3726666666, double 0x40F5E50AB3333333, double 0.000000e+00, double -2.835000e+02, double 0x40B9B43CCCCCCCCD, double 0xC0ED018C66666666, double 0x4110FF8A03333333, double 0xC12701AECE666666, double 0x4132A81B5B333333, double 0xC131E40BB4CCCCCD, double 0x4122B3A3CE666666, double 0xC1006BC806666666, double 0.000000e+00, double 2.268000e+02, double -5.366250e+03, double 0x40E8459600000000, double 0xC10D53D880000000, double 0x41248199D4CCCCCD, double 0xC1312CF590000000, double 0x4130FA8098000000, double 0xC1223EDE40000000, double 0x41006BC806666666, double 0.000000e+00, double -1.260000e+02, double 3.019050e+03, double 0xC0DBC96733333333, double 0x410126A8A6666666, double 0xC11895D193333333, double 0x412526BF46666666, double 0xC1257D3EA6666666, double 0x4117B820ECCCCCCD, double 0xC0F5E50AB3333333, double 0.000000e+00, double 0x4047249249249249, double 0xC0917BD41D41D41D, double 0x40C4DA9F8AF8AF8B, double 0xC0EA2768CCCCCCCD, double 0x41031B46D999999A, double 0xC110CDCFD999999A, double 0x41117E1A283A83A8, double 0xC103CF3A715F15F1, double 0x40E2C45250750750, double 0.000000e+00, double -1.012500e+01, double 0x406ECCC57C57C57C, double 0xC0A28A4F8AF8AF8B, double 0x40C7891233333333, double 0xC0E174665999999A, double 0x40EF43E84CCCCCCD, double 0xC0F09FAE0CCCCCCD, double 0x40E349C660EA0EA1, double 0xC0C2C45250750750, double 0.000000e+00, double 1.000000e+00, double 0xC03875F15F15F15F, double 0x406DA9AF8AF8AF8B, double 0xC093021333333333, double 0x40AC89F266666666, double 0xC0B9F30333333333, double 0x40BC1C98CCCCCCCD, double 0xC0B0AE820EA0EA0F, double 0x4090AE820EA0EA0F], align 16
@_ZZN6dealii11Polynomials19LagrangeEquidistant20compute_coefficientsEjjE3x10 = internal unnamed_addr constant [121 x double] [double 1.000000e+00, double 0xC03D4A28A28A28A3, double 0x4075F74514514514, double 0xC0A21ADD92BCBA05, double 0x40C26412505DE96D, double 0xC0D8468DED097B42, double 0x40E53AC04BDA12F7, double 0xC0E86C1119BC466F, double 0x40E1C2F529FD4A7F, double 0xC0CD9A4345FB7C2A, double 0x40A58776BE885A4D, double 0.000000e+00, double 1.000000e+02, double 0xC09E23DF7DF7DF7E, double 0x40CEF7E082082082, double 0xC0F1DE1BC8039CAC, double 0x41099AE78E38E38E, double 0xC117B271425ED098, double 0x411C65F71C71C71C, double 0xC1154B2EA53FA950, double 0x41022A4C30C30C31, double 0xC0DAE9546E2A70E0, double 0.000000e+00, double -2.250000e+02, double 0x40B5592DB6DB6DB7, double 0xC0E944EADB6DB6DB, double 0x41100826B2CB2CB3, double 0xC128936FA38E38E4, double 0x4137E773DC71C71C, double 0xC13DBFD4C71C71C7, double 0x4136F8B059659659, double 0xC1240EB420820821, double 0x40FE467EFBEFBEFC, double 0.000000e+00, double 4.000000e+02, double 0xC0C4474514514514, double 0x40F9DF547C9D1F27, double 0xC1218241AC056B01, double 0x413C4A4BC71C71C7, double 0xC14CB5FD38E38E39, double 0x41527D9D8E38E38E, double 0xC14D5DFB2CB2CB2D, double 0x413A3D18B8362E0E, double 0xC1142EFF529FD4A8, double 0.000000e+00, double -5.250000e+02, double 0x40CB784AAAAAAAAB, double 0xC1023B40AAAAAAAB, double 0x4129BC0FFB425ED1, double 0xC145A1AF91C71C72, double 0x4156BE9598E38E39, double 0xC15E3682B8E38E39, double 0x4158A2F755555555, double 0xC146846E71C71C72, double 0x4121A91F684BDA13, double 0.000000e+00, double 5.040000e+02, double -1.375400e+04, double 1.496250e+05, double 0xC12A830038E38E39, double 0x4146F383F1C71C72, double 0xC158D76378E38E39, double 0x4160F4471C71C71C, double 0xC15C5866E38E38E4, double 0x414A7DAF1C71C71C, double 0xC1253158E38E38E4, double 0.000000e+00, double -3.500000e+02, double 0x40C2E2071C71C71C, double 0xC0FA18F9A12F684C, double 0x412350DC425ED098, double 0xC1411875438E38E4, double 0x4152F169A71C71C7, double 0xC15A7A4B0E38E38E, double 5.937500e+06, double 0xC145A26012F684BE, double 0x4121A91F684BDA13, double 0.000000e+00, double 0x40656DB6DB6DB6DB, double 0xC0B2A830C30C30C3, double 0x40EA164618618618, double 0xC11396DC3B990EE6, double 0x4131A26E71C71C72, double 0xC143EA7855555555, double 0x414C69D72CB2CB2D, double 0xC148D36820820821, double 0x4138386596596596, double 0xC1142EFF529FD4A8, double 0.000000e+00, double -5.625000e+01, double 0x4098A4EDB6DB6DB7, double 0xC0D1617124924925, double 0x40FA64C620820821, double 0xC118146A471C71C7, double 0x412B9F430E38E38E, double 0xC1340DBC1C71C71C, double 0x4131DCCAEBAEBAEC, double 0xC121C96A9A69A69A, double 0x40FE467EFBEFBEFC, double 0.000000e+00, double 0x402638E38E38E38E, double 0xC073918618618618, double 0x40ABCA546E2A70E0, double 0xC0D549363C8039CB, double 0x40F3A1517B425ED1, double 0xC106CF7B684BDA13, double 0x4110D01BDA12F685, double 0xC10E7A2A7F529FD5, double 0x40FEF2BAB1E401CE, double 0xC0DAE9546E2A70E0, double 0.000000e+00, double -1.000000e+00, double 0x403C4A28A28A28A3, double 0xC07432A28A28A28A, double 0x409F291282EF4B66, double 0xC0BCFDE000000000, double 0x40D10715ED097B42, double 0xC0D96E6AAAAAAAAB, double 0x40D769B788CDE233, double 0xC0C8386596596596, double 0x40A58776BE885A4D], align 16
@_ZN6dealii11Polynomials8Legendre22recursive_coefficientsE = dso_local global %"class.std::vector.42" zeroinitializer, align 8
@__dso_handle = external hidden global i8
@_ZN6dealii11Polynomials8Legendre20shifted_coefficientsE = dso_local global %"class.std::vector.42" zeroinitializer, align 8
@_ZTVN6dealii11Polynomials8LegendreE = linkonce_odr dso_local unnamed_addr constant { [4 x ptr] } { [4 x ptr] [ptr null, ptr @_ZTIN6dealii11Polynomials8LegendreE, ptr @_ZN6dealii11Polynomials10PolynomialIdED2Ev, ptr @_ZN6dealii11Polynomials8LegendreD0Ev] }, comdat, align 8
@_ZN6dealii11Polynomials12Hierarchical22recursive_coefficientsE = dso_local global %"class.std::vector.42" zeroinitializer, align 8
@_ZTVN6dealii11Polynomials12HierarchicalE = linkonce_odr dso_local unnamed_addr constant { [4 x ptr] } { [4 x ptr] [ptr null, ptr @_ZTIN6dealii11Polynomials12HierarchicalE, ptr @_ZN6dealii11Polynomials10PolynomialIdED2Ev, ptr @_ZN6dealii11Polynomials12HierarchicalD0Ev] }, comdat, align 8
@_ZTVN10__cxxabiv120__si_class_type_infoE = external global ptr
@_ZTSN6dealii11Polynomials10PolynomialIdEE = weak_odr dso_local constant [38 x i8] c"N6dealii11Polynomials10PolynomialIdEE\00", comdat, align 1
@_ZTIN6dealii11SubscriptorE = external constant ptr
@_ZTIN6dealii11Polynomials10PolynomialIdEE = weak_odr dso_local constant { ptr, ptr, ptr } { ptr getelementptr inbounds (ptr, ptr @_ZTVN10__cxxabiv120__si_class_type_infoE, i64 2), ptr @_ZTSN6dealii11Polynomials10PolynomialIdEE, ptr @_ZTIN6dealii11SubscriptorE }, comdat, align 8
@_ZTSN6dealii11Polynomials10PolynomialIfEE = weak_odr dso_local constant [38 x i8] c"N6dealii11Polynomials10PolynomialIfEE\00", comdat, align 1
@_ZTIN6dealii11Polynomials10PolynomialIfEE = weak_odr dso_local constant { ptr, ptr, ptr } { ptr getelementptr inbounds (ptr, ptr @_ZTVN10__cxxabiv120__si_class_type_infoE, i64 2), ptr @_ZTSN6dealii11Polynomials10PolynomialIfEE, ptr @_ZTIN6dealii11SubscriptorE }, comdat, align 8
@_ZTSN6dealii11Polynomials8MonomialIfEE = weak_odr dso_local constant [35 x i8] c"N6dealii11Polynomials8MonomialIfEE\00", comdat, align 1
@_ZTIN6dealii11Polynomials8MonomialIfEE = weak_odr dso_local constant { ptr, ptr, ptr } { ptr getelementptr inbounds (ptr, ptr @_ZTVN10__cxxabiv120__si_class_type_infoE, i64 2), ptr @_ZTSN6dealii11Polynomials8MonomialIfEE, ptr @_ZTIN6dealii11Polynomials10PolynomialIfEE }, comdat, align 8
@_ZTSN6dealii11Polynomials8MonomialIdEE = weak_odr dso_local constant [35 x i8] c"N6dealii11Polynomials8MonomialIdEE\00", comdat, align 1
@_ZTIN6dealii11Polynomials8MonomialIdEE = weak_odr dso_local constant { ptr, ptr, ptr } { ptr getelementptr inbounds (ptr, ptr @_ZTVN10__cxxabiv120__si_class_type_infoE, i64 2), ptr @_ZTSN6dealii11Polynomials8MonomialIdEE, ptr @_ZTIN6dealii11Polynomials10PolynomialIdEE }, comdat, align 8
@_ZTSN6dealii11Polynomials19LagrangeEquidistantE = linkonce_odr dso_local constant [44 x i8] c"N6dealii11Polynomials19LagrangeEquidistantE\00", comdat, align 1
@_ZTIN6dealii11Polynomials19LagrangeEquidistantE = linkonce_odr dso_local constant { ptr, ptr, ptr } { ptr getelementptr inbounds (ptr, ptr @_ZTVN10__cxxabiv120__si_class_type_infoE, i64 2), ptr @_ZTSN6dealii11Polynomials19LagrangeEquidistantE, ptr @_ZTIN6dealii11Polynomials10PolynomialIdEE }, comdat, align 8
@_ZTSN6dealii11Polynomials8LegendreE = linkonce_odr dso_local constant [32 x i8] c"N6dealii11Polynomials8LegendreE\00", comdat, align 1
@_ZTIN6dealii11Polynomials8LegendreE = linkonce_odr dso_local constant { ptr, ptr, ptr } { ptr getelementptr inbounds (ptr, ptr @_ZTVN10__cxxabiv120__si_class_type_infoE, i64 2), ptr @_ZTSN6dealii11Polynomials8LegendreE, ptr @_ZTIN6dealii11Polynomials10PolynomialIdEE }, comdat, align 8
@_ZTSN6dealii11Polynomials12HierarchicalE = linkonce_odr dso_local constant [37 x i8] c"N6dealii11Polynomials12HierarchicalE\00", comdat, align 1
@_ZTIN6dealii11Polynomials12HierarchicalE = linkonce_odr dso_local constant { ptr, ptr, ptr } { ptr getelementptr inbounds (ptr, ptr @_ZTVN10__cxxabiv120__si_class_type_infoE, i64 2), ptr @_ZTSN6dealii11Polynomials12HierarchicalE, ptr @_ZTIN6dealii11Polynomials10PolynomialIdEE }, comdat, align 8
@.str.12 = private unnamed_addr constant [49 x i8] c"cannot create std::vector larger than max_size()\00", align 1
@.str.13 = private unnamed_addr constant [26 x i8] c"vector::_M_realloc_insert\00", align 1
@.str.14 = private unnamed_addr constant [23 x i8] c"vector::_M_fill_insert\00", align 1
@llvm.global_ctors = appending global [1 x { i32, ptr, ptr }] [{ i32, ptr, ptr } { i32 65535, ptr @_GLOBAL__sub_I_polynomial.cc, ptr null }]
@switch.table._ZN6dealii11Polynomials19LagrangeEquidistant20compute_coefficientsEjj = private unnamed_addr constant [10 x ptr] [ptr @_ZZN6dealii11Polynomials19LagrangeEquidistant20compute_coefficientsEjjE2x1, ptr @_ZZN6dealii11Polynomials19LagrangeEquidistant20compute_coefficientsEjjE2x2, ptr @_ZZN6dealii11Polynomials19LagrangeEquidistant20compute_coefficientsEjjE2x3, ptr @_ZZN6dealii11Polynomials19LagrangeEquidistant20compute_coefficientsEjjE2x4, ptr @_ZZN6dealii11Polynomials19LagrangeEquidistant20compute_coefficientsEjjE2x5, ptr @_ZZN6dealii11Polynomials19LagrangeEquidistant20compute_coefficientsEjjE2x6, ptr @_ZZN6dealii11Polynomials19LagrangeEquidistant20compute_coefficientsEjjE2x7, ptr @_ZZN6dealii11Polynomials19LagrangeEquidistant20compute_coefficientsEjjE2x8, ptr @_ZZN6dealii11Polynomials19LagrangeEquidistant20compute_coefficientsEjjE2x9, ptr @_ZZN6dealii11Polynomials19LagrangeEquidistant20compute_coefficientsEjjE3x10], align 8

@_ZN6dealii11Polynomials10PolynomialIfEC1ERKSt6vectorIfSaIfEE = weak_odr dso_local unnamed_addr alias void (ptr, ptr), ptr @_ZN6dealii11Polynomials10PolynomialIfEC2ERKSt6vectorIfSaIfEE
@_ZN6dealii11Polynomials10PolynomialIfEC1Ev = weak_odr dso_local unnamed_addr alias void (ptr), ptr @_ZN6dealii11Polynomials10PolynomialIfEC2Ev
@_ZN6dealii11Polynomials10PolynomialIdEC1ERKSt6vectorIdSaIdEE = weak_odr dso_local unnamed_addr alias void (ptr, ptr), ptr @_ZN6dealii11Polynomials10PolynomialIdEC2ERKSt6vectorIdSaIdEE
@_ZN6dealii11Polynomials10PolynomialIdEC1Ev = weak_odr dso_local unnamed_addr alias void (ptr), ptr @_ZN6dealii11Polynomials10PolynomialIdEC2Ev
@_ZN6dealii11Polynomials8MonomialIfEC1Ejd = weak_odr dso_local unnamed_addr alias void (ptr, i32, double), ptr @_ZN6dealii11Polynomials8MonomialIfEC2Ejd
@_ZN6dealii11Polynomials8MonomialIdEC1Ejd = weak_odr dso_local unnamed_addr alias void (ptr, i32, double), ptr @_ZN6dealii11Polynomials8MonomialIdEC2Ejd
@_ZN6dealii11Polynomials19LagrangeEquidistantC1Ejj = dso_local unnamed_addr alias void (ptr, i32, i32), ptr @_ZN6dealii11Polynomials19LagrangeEquidistantC2Ejj
@_ZN6dealii11Polynomials8LegendreC1Ej = dso_local unnamed_addr alias void (ptr, i32), ptr @_ZN6dealii11Polynomials8LegendreC2Ej
@_ZN6dealii11Polynomials12HierarchicalC1Ej = dso_local unnamed_addr alias void (ptr, i32), ptr @_ZN6dealii11Polynomials12HierarchicalC2Ej

; Function Attrs: sspstrong uwtable
define weak_odr dso_local void @_ZN6dealii11Polynomials10PolynomialIfEC2ERKSt6vectorIfSaIfEE(ptr noundef nonnull align 8 dereferenceable(96) %0, ptr noundef nonnull align 8 dereferenceable(24) %1) unnamed_addr #0 comdat($_ZN6dealii11Polynomials10PolynomialIfEC5ERKSt6vectorIfSaIfEE) align 2 personality ptr @__gxx_personality_v0 {
  tail call void @_ZN6dealii11SubscriptorC2Ev(ptr noundef nonnull align 8 dereferenceable(72) %0)
  store ptr getelementptr inbounds ({ [4 x ptr] }, ptr @_ZTVN6dealii11Polynomials10PolynomialIfEE, i64 0, inrange i32 0, i64 2), ptr %0, align 8, !tbaa !5
  %3 = getelementptr inbounds %"class.dealii::Polynomials::Polynomial", ptr %0, i64 0, i32 1
  %4 = getelementptr inbounds %"struct.std::_Vector_base<float, std::allocator<float> >::_Vector_impl_data", ptr %1, i64 0, i32 1
  %5 = load ptr, ptr %4, align 8, !tbaa !8
  %6 = load ptr, ptr %1, align 8, !tbaa !12
  %7 = ptrtoint ptr %5 to i64
  %8 = ptrtoint ptr %6 to i64
  %9 = sub i64 %7, %8
  %10 = ashr exact i64 %9, 2
  tail call void @llvm.memset.p0.i64(ptr noundef nonnull align 8 dereferenceable(24) %3, i8 0, i64 24, i1 false)
  %11 = icmp eq ptr %5, %6
  br i1 %11, label %18, label %12

12:                                               ; preds = %2
  %13 = icmp ugt i64 %9, 9223372036854775804
  br i1 %13, label %14, label %16, !prof !13

14:                                               ; preds = %12
  invoke void @_ZSt28__throw_bad_array_new_lengthv() #16
          to label %15 unwind label %37

15:                                               ; preds = %14
  unreachable

16:                                               ; preds = %12
  %17 = invoke noalias noundef nonnull ptr @_Znwm(i64 noundef %9) #17
          to label %18 unwind label %37

18:                                               ; preds = %16, %2
  %19 = phi ptr [ null, %2 ], [ %17, %16 ]
  store ptr %19, ptr %3, align 8, !tbaa !12
  %20 = getelementptr inbounds %"class.dealii::Polynomials::Polynomial", ptr %0, i64 0, i32 1, i32 0, i32 0, i32 0, i32 1
  store ptr %19, ptr %20, align 8, !tbaa !8
  %21 = getelementptr inbounds float, ptr %19, i64 %10
  %22 = getelementptr inbounds %"class.dealii::Polynomials::Polynomial", ptr %0, i64 0, i32 1, i32 0, i32 0, i32 0, i32 2
  store ptr %21, ptr %22, align 8, !tbaa !14
  %23 = load ptr, ptr %1, align 8, !tbaa !15
  %24 = load ptr, ptr %4, align 8, !tbaa !15
  %25 = ptrtoint ptr %24 to i64
  %26 = ptrtoint ptr %23 to i64
  %27 = sub i64 %25, %26
  %28 = icmp sgt i64 %27, 4
  br i1 %28, label %29, label %30, !prof !16

29:                                               ; preds = %18
  tail call void @llvm.memmove.p0.p0.i64(ptr align 4 %19, ptr align 4 %23, i64 %27, i1 false)
  br label %34

30:                                               ; preds = %18
  %31 = icmp eq i64 %27, 4
  br i1 %31, label %32, label %34

32:                                               ; preds = %30
  %33 = load float, ptr %23, align 4, !tbaa !17
  store float %33, ptr %19, align 4, !tbaa !17
  br label %34

34:                                               ; preds = %32, %30, %29
  %35 = ashr exact i64 %27, 2
  %36 = getelementptr inbounds float, ptr %19, i64 %35
  store ptr %36, ptr %20, align 8, !tbaa !8
  ret void

37:                                               ; preds = %16, %14
  %38 = landingpad { ptr, i32 }
          cleanup
  invoke void @_ZN6dealii11SubscriptorD2Ev(ptr noundef nonnull align 8 dereferenceable(72) %0)
          to label %39 unwind label %40

39:                                               ; preds = %37
  resume { ptr, i32 } %38

40:                                               ; preds = %37
  %41 = landingpad { ptr, i32 }
          catch ptr null
  %42 = extractvalue { ptr, i32 } %41, 0
  tail call void @__clang_call_terminate(ptr %42) #18
  unreachable
}

declare void @_ZN6dealii11SubscriptorC2Ev(ptr noundef nonnull align 8 dereferenceable(72)) unnamed_addr #1

declare i32 @__gxx_personality_v0(...)

declare void @_ZN6dealii11SubscriptorD2Ev(ptr noundef nonnull align 8 dereferenceable(72)) unnamed_addr #1

; Function Attrs: noinline noreturn nounwind sspstrong uwtable
define linkonce_odr hidden void @__clang_call_terminate(ptr noundef %0) local_unnamed_addr #2 comdat {
  %2 = tail call ptr @__cxa_begin_catch(ptr %0) #19
  tail call void @_ZSt9terminatev() #18
  unreachable
}

declare ptr @__cxa_begin_catch(ptr) local_unnamed_addr

declare void @_ZSt9terminatev() local_unnamed_addr

; Function Attrs: inlinehint sspstrong uwtable
define weak_odr dso_local void @_ZN6dealii11Polynomials10PolynomialIfEC2Ev(ptr noundef nonnull align 8 dereferenceable(96) %0) unnamed_addr #3 comdat($_ZN6dealii11Polynomials10PolynomialIfEC5Ev) align 2 personality ptr @__gxx_personality_v0 {
  tail call void @_ZN6dealii11SubscriptorC2Ev(ptr noundef nonnull align 8 dereferenceable(72) %0)
  store ptr getelementptr inbounds ({ [4 x ptr] }, ptr @_ZTVN6dealii11Polynomials10PolynomialIfEE, i64 0, inrange i32 0, i64 2), ptr %0, align 8, !tbaa !5
  %2 = getelementptr inbounds %"class.dealii::Polynomials::Polynomial", ptr %0, i64 0, i32 1
  tail call void @llvm.memset.p0.i64(ptr noundef nonnull align 8 dereferenceable(24) %2, i8 0, i64 24, i1 false)
  ret void
}

; Function Attrs: sspstrong uwtable
define weak_odr dso_local noundef float @_ZNK6dealii11Polynomials10PolynomialIfE5valueEf(ptr noundef nonnull align 8 dereferenceable(96) %0, float noundef %1) local_unnamed_addr #0 comdat align 2 {
  %3 = getelementptr inbounds %"class.dealii::Polynomials::Polynomial", ptr %0, i64 0, i32 1
  %4 = getelementptr inbounds %"class.dealii::Polynomials::Polynomial", ptr %0, i64 0, i32 1, i32 0, i32 0, i32 0, i32 1
  %5 = load ptr, ptr %4, align 8, !tbaa !15
  %6 = load ptr, ptr %3, align 8, !tbaa !12
  %7 = ptrtoint ptr %5 to i64
  %8 = ptrtoint ptr %6 to i64
  %9 = sub i64 %7, %8
  %10 = lshr exact i64 %9, 2
  %11 = trunc i64 %10 to i32
  %12 = getelementptr inbounds float, ptr %5, i64 -1
  %13 = load float, ptr %12, align 4, !tbaa !17
  %14 = add i32 %11, -2
  %15 = icmp sgt i32 %14, -1
  br i1 %15, label %16, label %36

16:                                               ; preds = %2
  %17 = zext i32 %14 to i64
  %18 = add nuw nsw i64 %17, 1
  %19 = and i64 %18, 3
  %20 = icmp eq i64 %19, 0
  br i1 %20, label %31, label %21

21:                                               ; preds = %16, %21
  %22 = phi i64 [ %28, %21 ], [ %17, %16 ]
  %23 = phi float [ %27, %21 ], [ %13, %16 ]
  %24 = phi i64 [ %29, %21 ], [ 0, %16 ]
  %25 = getelementptr inbounds float, ptr %6, i64 %22
  %26 = load float, ptr %25, align 4, !tbaa !17
  %27 = tail call float @llvm.fmuladd.f32(float %23, float %1, float %26)
  %28 = add nsw i64 %22, -1
  %29 = add i64 %24, 1
  %30 = icmp eq i64 %29, %19
  br i1 %30, label %31, label %21, !llvm.loop !19

31:                                               ; preds = %21, %16
  %32 = phi float [ undef, %16 ], [ %27, %21 ]
  %33 = phi i64 [ %17, %16 ], [ %28, %21 ]
  %34 = phi float [ %13, %16 ], [ %27, %21 ]
  %35 = icmp ult i32 %14, 3
  br i1 %35, label %36, label %38

36:                                               ; preds = %31, %38, %2
  %37 = phi float [ %13, %2 ], [ %32, %31 ], [ %55, %38 ]
  ret float %37

38:                                               ; preds = %31, %38
  %39 = phi i64 [ %56, %38 ], [ %33, %31 ]
  %40 = phi float [ %55, %38 ], [ %34, %31 ]
  %41 = getelementptr inbounds float, ptr %6, i64 %39
  %42 = load float, ptr %41, align 4, !tbaa !17
  %43 = tail call float @llvm.fmuladd.f32(float %40, float %1, float %42)
  %44 = add nsw i64 %39, -1
  %45 = getelementptr inbounds float, ptr %6, i64 %44
  %46 = load float, ptr %45, align 4, !tbaa !17
  %47 = tail call float @llvm.fmuladd.f32(float %43, float %1, float %46)
  %48 = add nsw i64 %39, -2
  %49 = getelementptr inbounds float, ptr %6, i64 %48
  %50 = load float, ptr %49, align 4, !tbaa !17
  %51 = tail call float @llvm.fmuladd.f32(float %47, float %1, float %50)
  %52 = add nsw i64 %39, -3
  %53 = getelementptr inbounds float, ptr %6, i64 %52
  %54 = load float, ptr %53, align 4, !tbaa !17
  %55 = tail call float @llvm.fmuladd.f32(float %51, float %1, float %54)
  %56 = add nsw i64 %39, -4
  %57 = icmp eq i64 %52, 0
  br i1 %57, label %36, label %38
}

; Function Attrs: mustprogress nocallback nofree nosync nounwind willreturn memory(argmem: readwrite)
declare void @llvm.lifetime.start.p0(i64 immarg, ptr nocapture) #4

; Function Attrs: mustprogress nocallback nofree nosync nounwind speculatable willreturn memory(none)
declare float @llvm.fmuladd.f32(float, float, float) #5

; Function Attrs: mustprogress nocallback nofree nosync nounwind willreturn memory(argmem: readwrite)
declare void @llvm.lifetime.end.p0(i64 immarg, ptr nocapture) #4

; Function Attrs: sspstrong uwtable
define weak_odr dso_local void @_ZNK6dealii11Polynomials10PolynomialIfE5valueEfRSt6vectorIfSaIfEE(ptr noundef nonnull align 8 dereferenceable(96) %0, float noundef %1, ptr noundef nonnull align 8 dereferenceable(24) %2) local_unnamed_addr #0 comdat align 2 personality ptr @__gxx_personality_v0 {
  %4 = getelementptr inbounds %"struct.std::_Vector_base<float, std::allocator<float> >::_Vector_impl_data", ptr %2, i64 0, i32 1
  %5 = load ptr, ptr %4, align 8, !tbaa !8
  %6 = load ptr, ptr %2, align 8, !tbaa !12
  %7 = ptrtoint ptr %5 to i64
  %8 = ptrtoint ptr %6 to i64
  %9 = sub i64 %7, %8
  %10 = lshr exact i64 %9, 2
  %11 = trunc i64 %10 to i32
  %12 = icmp eq i32 %11, 1
  %13 = getelementptr inbounds %"class.dealii::Polynomials::Polynomial", ptr %0, i64 0, i32 1
  %14 = getelementptr inbounds %"class.dealii::Polynomials::Polynomial", ptr %0, i64 0, i32 1, i32 0, i32 0, i32 0, i32 1
  %15 = load ptr, ptr %14, align 8, !tbaa !15
  %16 = load ptr, ptr %13, align 8, !tbaa !15
  %17 = ptrtoint ptr %15 to i64
  %18 = ptrtoint ptr %16 to i64
  %19 = sub i64 %17, %18
  %20 = lshr exact i64 %19, 2
  %21 = trunc i64 %20 to i32
  br i1 %12, label %22, label %69

22:                                               ; preds = %3
  %23 = getelementptr inbounds float, ptr %15, i64 -1
  %24 = load float, ptr %23, align 4, !tbaa !17
  %25 = add i32 %21, -2
  %26 = icmp sgt i32 %25, -1
  br i1 %26, label %27, label %67

27:                                               ; preds = %22
  %28 = zext i32 %25 to i64
  %29 = add nuw nsw i64 %28, 1
  %30 = and i64 %29, 3
  %31 = icmp eq i64 %30, 0
  br i1 %31, label %42, label %32

32:                                               ; preds = %27, %32
  %33 = phi i64 [ %39, %32 ], [ %28, %27 ]
  %34 = phi float [ %38, %32 ], [ %24, %27 ]
  %35 = phi i64 [ %40, %32 ], [ 0, %27 ]
  %36 = getelementptr inbounds float, ptr %16, i64 %33
  %37 = load float, ptr %36, align 4, !tbaa !17
  %38 = tail call float @llvm.fmuladd.f32(float %34, float %1, float %37)
  %39 = add nsw i64 %33, -1
  %40 = add i64 %35, 1
  %41 = icmp eq i64 %40, %30
  br i1 %41, label %42, label %32, !llvm.loop !21

42:                                               ; preds = %32, %27
  %43 = phi float [ undef, %27 ], [ %38, %32 ]
  %44 = phi i64 [ %28, %27 ], [ %39, %32 ]
  %45 = phi float [ %24, %27 ], [ %38, %32 ]
  %46 = icmp ult i32 %25, 3
  br i1 %46, label %67, label %47

47:                                               ; preds = %42, %47
  %48 = phi i64 [ %65, %47 ], [ %44, %42 ]
  %49 = phi float [ %64, %47 ], [ %45, %42 ]
  %50 = getelementptr inbounds float, ptr %16, i64 %48
  %51 = load float, ptr %50, align 4, !tbaa !17
  %52 = tail call float @llvm.fmuladd.f32(float %49, float %1, float %51)
  %53 = add nsw i64 %48, -1
  %54 = getelementptr inbounds float, ptr %16, i64 %53
  %55 = load float, ptr %54, align 4, !tbaa !17
  %56 = tail call float @llvm.fmuladd.f32(float %52, float %1, float %55)
  %57 = add nsw i64 %48, -2
  %58 = getelementptr inbounds float, ptr %16, i64 %57
  %59 = load float, ptr %58, align 4, !tbaa !17
  %60 = tail call float @llvm.fmuladd.f32(float %56, float %1, float %59)
  %61 = add nsw i64 %48, -3
  %62 = getelementptr inbounds float, ptr %16, i64 %61
  %63 = load float, ptr %62, align 4, !tbaa !17
  %64 = tail call float @llvm.fmuladd.f32(float %60, float %1, float %63)
  %65 = add nsw i64 %48, -4
  %66 = icmp eq i64 %61, 0
  br i1 %66, label %67, label %47

67:                                               ; preds = %42, %47, %22
  %68 = phi float [ %24, %22 ], [ %43, %42 ], [ %64, %47 ]
  store float %68, ptr %6, align 4, !tbaa !17
  br label %163

69:                                               ; preds = %3
  %70 = icmp eq ptr %15, %16
  br i1 %70, label %76, label %71

71:                                               ; preds = %69
  %72 = icmp ugt i64 %19, 9223372036854775804
  br i1 %72, label %73, label %74, !prof !13

73:                                               ; preds = %71
  tail call void @_ZSt28__throw_bad_array_new_lengthv() #16
  unreachable

74:                                               ; preds = %71
  %75 = tail call noalias noundef nonnull ptr @_Znwm(i64 noundef %19) #17
  br label %76

76:                                               ; preds = %74, %69
  %77 = phi ptr [ null, %69 ], [ %75, %74 ]
  %78 = icmp sgt i64 %19, 4
  br i1 %78, label %79, label %80, !prof !16

79:                                               ; preds = %76
  tail call void @llvm.memmove.p0.p0.i64(ptr align 4 %77, ptr align 4 %16, i64 %19, i1 false)
  br label %84

80:                                               ; preds = %76
  %81 = icmp eq i64 %19, 4
  br i1 %81, label %82, label %84

82:                                               ; preds = %80
  %83 = load float, ptr %16, align 4, !tbaa !17
  store float %83, ptr %77, align 4, !tbaa !17
  br label %84

84:                                               ; preds = %79, %80, %82
  %85 = tail call i32 @llvm.umin.i32(i32 %21, i32 %11)
  %86 = icmp eq i32 %85, 0
  br i1 %86, label %94, label %87

87:                                               ; preds = %84
  %88 = add i32 %21, -2
  %89 = sext i32 %88 to i64
  %90 = shl nsw i64 %89, 2
  %91 = add nsw i64 %90, 4
  %92 = getelementptr i8, ptr %77, i64 %91
  %93 = add nsw i64 %89, 1
  br label %104

94:                                               ; preds = %130, %84
  %95 = icmp ugt i32 %11, %21
  br i1 %95, label %96, label %160

96:                                               ; preds = %94
  %97 = and i64 %19, 17179869180
  %98 = getelementptr i8, ptr %6, i64 %97
  %99 = xor i32 %85, -1
  %100 = add i32 %99, %11
  %101 = zext i32 %100 to i64
  %102 = shl nuw nsw i64 %101, 2
  %103 = add nuw nsw i64 %102, 4
  tail call void @llvm.memset.p0.i64(ptr noundef nonnull align 4 dereferenceable(1) %98, i8 0, i64 %103, i1 false), !tbaa !17
  br label %160

104:                                              ; preds = %87, %130
  %105 = phi i32 [ 0, %87 ], [ %137, %130 ]
  %106 = phi i32 [ 1, %87 ], [ %138, %130 ]
  %107 = sext i32 %105 to i64
  %108 = sub nsw i64 %89, %107
  %109 = icmp slt i32 %88, %105
  br i1 %109, label %130, label %110

110:                                              ; preds = %104
  %111 = sub nsw i64 %93, %107
  %112 = sext i32 %105 to i64
  %113 = load float, ptr %92, align 4
  %114 = and i64 %111, 3
  %115 = icmp eq i64 %114, 0
  br i1 %115, label %126, label %116

116:                                              ; preds = %110, %116
  %117 = phi float [ %122, %116 ], [ %113, %110 ]
  %118 = phi i64 [ %123, %116 ], [ %89, %110 ]
  %119 = phi i64 [ %124, %116 ], [ 0, %110 ]
  %120 = getelementptr inbounds float, ptr %77, i64 %118
  %121 = load float, ptr %120, align 4, !tbaa !17
  %122 = tail call float @llvm.fmuladd.f32(float %1, float %117, float %121)
  store float %122, ptr %120, align 4, !tbaa !17
  %123 = add nsw i64 %118, -1
  %124 = add i64 %119, 1
  %125 = icmp eq i64 %124, %114
  br i1 %125, label %126, label %116, !llvm.loop !22

126:                                              ; preds = %116, %110
  %127 = phi float [ %113, %110 ], [ %122, %116 ]
  %128 = phi i64 [ %89, %110 ], [ %123, %116 ]
  %129 = icmp ult i64 %108, 3
  br i1 %129, label %130, label %140

130:                                              ; preds = %126, %140, %104
  %131 = uitofp i32 %106 to float
  %132 = zext i32 %105 to i64
  %133 = getelementptr inbounds float, ptr %77, i64 %132
  %134 = load float, ptr %133, align 4, !tbaa !17
  %135 = fmul float %134, %131
  %136 = getelementptr inbounds float, ptr %6, i64 %132
  store float %135, ptr %136, align 4, !tbaa !17
  %137 = add nuw i32 %105, 1
  %138 = mul i32 %137, %106
  %139 = icmp eq i32 %137, %85
  br i1 %139, label %94, label %104

140:                                              ; preds = %126, %140
  %141 = phi float [ %157, %140 ], [ %127, %126 ]
  %142 = phi i64 [ %158, %140 ], [ %128, %126 ]
  %143 = getelementptr inbounds float, ptr %77, i64 %142
  %144 = load float, ptr %143, align 4, !tbaa !17
  %145 = tail call float @llvm.fmuladd.f32(float %1, float %141, float %144)
  store float %145, ptr %143, align 4, !tbaa !17
  %146 = add nsw i64 %142, -1
  %147 = getelementptr inbounds float, ptr %77, i64 %146
  %148 = load float, ptr %147, align 4, !tbaa !17
  %149 = tail call float @llvm.fmuladd.f32(float %1, float %145, float %148)
  store float %149, ptr %147, align 4, !tbaa !17
  %150 = add nsw i64 %142, -2
  %151 = getelementptr inbounds float, ptr %77, i64 %150
  %152 = load float, ptr %151, align 4, !tbaa !17
  %153 = tail call float @llvm.fmuladd.f32(float %1, float %149, float %152)
  store float %153, ptr %151, align 4, !tbaa !17
  %154 = add nsw i64 %142, -3
  %155 = getelementptr inbounds float, ptr %77, i64 %154
  %156 = load float, ptr %155, align 4, !tbaa !17
  %157 = tail call float @llvm.fmuladd.f32(float %1, float %153, float %156)
  store float %157, ptr %155, align 4, !tbaa !17
  %158 = add nsw i64 %142, -4
  %159 = icmp sgt i64 %154, %112
  br i1 %159, label %140, label %130

160:                                              ; preds = %96, %94
  %161 = icmp eq ptr %77, null
  br i1 %161, label %163, label %162

162:                                              ; preds = %160
  tail call void @_ZdlPv(ptr noundef nonnull %77) #20
  br label %163

163:                                              ; preds = %162, %160, %67
  ret void
}

; Function Attrs: inlinehint sspstrong uwtable
define weak_odr dso_local noundef i32 @_ZNK6dealii11Polynomials10PolynomialIfE6degreeEv(ptr noundef nonnull align 8 dereferenceable(96) %0) local_unnamed_addr #3 comdat align 2 {
  %2 = getelementptr inbounds %"class.dealii::Polynomials::Polynomial", ptr %0, i64 0, i32 1
  %3 = getelementptr inbounds %"class.dealii::Polynomials::Polynomial", ptr %0, i64 0, i32 1, i32 0, i32 0, i32 0, i32 1
  %4 = load ptr, ptr %3, align 8, !tbaa !8
  %5 = load ptr, ptr %2, align 8, !tbaa !12
  %6 = ptrtoint ptr %4 to i64
  %7 = ptrtoint ptr %5 to i64
  %8 = sub i64 %6, %7
  %9 = lshr exact i64 %8, 2
  %10 = trunc i64 %9 to i32
  %11 = add i32 %10, -1
  ret i32 %11
}

; Function Attrs: sspstrong uwtable
define weak_odr dso_local void @_ZN6dealii11Polynomials10PolynomialIfE5scaleEf(ptr noundef nonnull align 8 dereferenceable(96) %0, float noundef %1) local_unnamed_addr #0 comdat align 2 {
  %3 = getelementptr inbounds %"class.dealii::Polynomials::Polynomial", ptr %0, i64 0, i32 1
  %4 = load ptr, ptr %3, align 8, !tbaa !15
  %5 = getelementptr inbounds %"class.dealii::Polynomials::Polynomial", ptr %0, i64 0, i32 1, i32 0, i32 0, i32 0, i32 1
  %6 = load ptr, ptr %5, align 8, !tbaa !15
  %7 = icmp eq ptr %4, %6
  br i1 %7, label %20, label %8

8:                                                ; preds = %2
  %9 = fpext float %1 to double
  br label %10

10:                                               ; preds = %10, %8
  %11 = phi double [ 1.000000e+00, %8 ], [ %17, %10 ]
  %12 = phi ptr [ %4, %8 ], [ %18, %10 ]
  %13 = load float, ptr %12, align 4, !tbaa !17
  %14 = fpext float %13 to double
  %15 = fmul double %11, %14
  %16 = fptrunc double %15 to float
  store float %16, ptr %12, align 4, !tbaa !17
  %17 = fmul double %11, %9
  %18 = getelementptr inbounds float, ptr %12, i64 1
  %19 = icmp eq ptr %18, %6
  br i1 %19, label %20, label %10

20:                                               ; preds = %10, %2
  ret void
}

; Function Attrs: sspstrong uwtable
define weak_odr dso_local void @_ZN6dealii11Polynomials10PolynomialIfE5scaleERSt6vectorIfSaIfEEf(ptr noundef nonnull align 8 dereferenceable(24) %0, float noundef %1) local_unnamed_addr #0 comdat align 2 {
  %3 = load ptr, ptr %0, align 8, !tbaa !15
  %4 = getelementptr inbounds %"struct.std::_Vector_base<float, std::allocator<float> >::_Vector_impl_data", ptr %0, i64 0, i32 1
  %5 = load ptr, ptr %4, align 8, !tbaa !15
  %6 = icmp eq ptr %3, %5
  br i1 %6, label %9, label %7

7:                                                ; preds = %2
  %8 = fpext float %1 to double
  br label %10

9:                                                ; preds = %10, %2
  ret void

10:                                               ; preds = %7, %10
  %11 = phi double [ 1.000000e+00, %7 ], [ %17, %10 ]
  %12 = phi ptr [ %3, %7 ], [ %18, %10 ]
  %13 = load float, ptr %12, align 4, !tbaa !17
  %14 = fpext float %13 to double
  %15 = fmul double %11, %14
  %16 = fptrunc double %15 to float
  store float %16, ptr %12, align 4, !tbaa !17
  %17 = fmul double %11, %8
  %18 = getelementptr inbounds float, ptr %12, i64 1
  %19 = icmp eq ptr %18, %5
  br i1 %19, label %9, label %10
}

; Function Attrs: sspstrong uwtable
define weak_odr dso_local void @_ZNK6dealii11Polynomials10PolynomialIfE10derivativeEv(ptr noalias sret(%"class.dealii::Polynomials::Polynomial") align 8 %0, ptr noundef nonnull align 8 dereferenceable(96) %1) local_unnamed_addr #0 comdat align 2 personality ptr @__gxx_personality_v0 {
  %3 = alloca %"class.std::vector", align 8
  %4 = alloca %"class.dealii::Polynomials::Monomial", align 8
  %5 = alloca %"class.std::vector", align 8
  %6 = getelementptr inbounds %"class.dealii::Polynomials::Polynomial", ptr %1, i64 0, i32 1
  %7 = getelementptr inbounds %"class.dealii::Polynomials::Polynomial", ptr %1, i64 0, i32 1, i32 0, i32 0, i32 0, i32 1
  %8 = load ptr, ptr %7, align 8, !tbaa !8
  %9 = load ptr, ptr %6, align 8, !tbaa !12
  %10 = ptrtoint ptr %8 to i64
  %11 = ptrtoint ptr %9 to i64
  %12 = sub i64 %10, %11
  %13 = and i64 %12, 17179869180
  %14 = icmp eq i64 %13, 4
  br i1 %14, label %15, label %75

15:                                               ; preds = %2
  call void @llvm.lifetime.start.p0(i64 96, ptr nonnull %4) #19
  call void @llvm.lifetime.start.p0(i64 24, ptr nonnull %3) #19
  tail call void @llvm.experimental.noalias.scope.decl(metadata !23)
  %16 = tail call noalias noundef nonnull dereferenceable(4) ptr @_Znwm(i64 noundef 4) #17, !noalias !23
  store ptr %16, ptr %3, align 8, !tbaa !12, !alias.scope !23
  %17 = getelementptr inbounds float, ptr %16, i64 1
  %18 = getelementptr inbounds %"struct.std::_Vector_base<float, std::allocator<float> >::_Vector_impl_data", ptr %3, i64 0, i32 2
  store ptr %17, ptr %18, align 8, !tbaa !14, !alias.scope !23
  %19 = getelementptr inbounds %"struct.std::_Vector_base<float, std::allocator<float> >::_Vector_impl_data", ptr %3, i64 0, i32 1
  store ptr %17, ptr %19, align 8, !tbaa !8, !alias.scope !23
  store float 0.000000e+00, ptr %16, align 4, !tbaa !17, !noalias !23
  invoke void @_ZN6dealii11Polynomials10PolynomialIfEC2ERKSt6vectorIfSaIfEE(ptr noundef nonnull align 8 dereferenceable(96) %4, ptr noundef nonnull align 8 dereferenceable(24) %3)
          to label %20 unwind label %24

20:                                               ; preds = %15
  %21 = load ptr, ptr %3, align 8, !tbaa !12
  %22 = icmp eq ptr %21, null
  br i1 %22, label %32, label %23

23:                                               ; preds = %20
  call void @_ZdlPv(ptr noundef nonnull %21) #20
  br label %32

24:                                               ; preds = %15
  %25 = landingpad { ptr, i32 }
          cleanup
  %26 = load ptr, ptr %3, align 8, !tbaa !12
  %27 = icmp eq ptr %26, null
  br i1 %27, label %31, label %28

28:                                               ; preds = %24
  call void @_ZdlPv(ptr noundef nonnull %26) #20
  br label %31

29:                                               ; preds = %74, %180, %31
  %30 = phi { ptr, i32 } [ %25, %31 ], [ %73, %74 ], [ %181, %180 ]
  resume { ptr, i32 } %30

31:                                               ; preds = %28, %24
  call void @llvm.lifetime.end.p0(i64 24, ptr nonnull %3) #19
  br label %29

32:                                               ; preds = %20, %23
  call void @llvm.lifetime.end.p0(i64 24, ptr nonnull %3) #19
  store ptr getelementptr inbounds ({ [4 x ptr] }, ptr @_ZTVN6dealii11Polynomials8MonomialIfEE, i64 0, inrange i32 0, i64 2), ptr %4, align 8, !tbaa !5
  invoke void @_ZN6dealii11SubscriptorC2ERKS0_(ptr noundef nonnull align 8 dereferenceable(72) %0, ptr noundef nonnull align 8 dereferenceable(72) %4)
          to label %33 unwind label %70

33:                                               ; preds = %32
  store ptr getelementptr inbounds ({ [4 x ptr] }, ptr @_ZTVN6dealii11Polynomials10PolynomialIfEE, i64 0, inrange i32 0, i64 2), ptr %0, align 8, !tbaa !5
  %34 = getelementptr inbounds %"class.dealii::Polynomials::Polynomial", ptr %0, i64 0, i32 1
  %35 = getelementptr inbounds %"class.dealii::Polynomials::Polynomial", ptr %4, i64 0, i32 1
  %36 = getelementptr inbounds %"class.dealii::Polynomials::Polynomial", ptr %4, i64 0, i32 1, i32 0, i32 0, i32 0, i32 1
  %37 = load ptr, ptr %36, align 8, !tbaa !15
  %38 = load ptr, ptr %35, align 8, !tbaa !15
  %39 = ptrtoint ptr %37 to i64
  %40 = ptrtoint ptr %38 to i64
  %41 = sub i64 %39, %40
  %42 = ashr exact i64 %41, 2
  call void @llvm.memset.p0.i64(ptr noundef nonnull align 8 dereferenceable(24) %34, i8 0, i64 24, i1 false)
  %43 = icmp eq ptr %37, %38
  br i1 %43, label %50, label %44

44:                                               ; preds = %33
  %45 = icmp ugt i64 %41, 9223372036854775804
  br i1 %45, label %46, label %48, !prof !13

46:                                               ; preds = %44
  invoke void @_ZSt28__throw_bad_array_new_lengthv() #16
          to label %47 unwind label %61

47:                                               ; preds = %46
  unreachable

48:                                               ; preds = %44
  %49 = invoke noalias noundef nonnull ptr @_Znwm(i64 noundef %41) #17
          to label %50 unwind label %61

50:                                               ; preds = %48, %33
  %51 = phi ptr [ null, %33 ], [ %49, %48 ]
  store ptr %51, ptr %34, align 8, !tbaa !12
  %52 = getelementptr inbounds %"class.dealii::Polynomials::Polynomial", ptr %0, i64 0, i32 1, i32 0, i32 0, i32 0, i32 1
  store ptr %51, ptr %52, align 8, !tbaa !8
  %53 = getelementptr inbounds float, ptr %51, i64 %42
  %54 = getelementptr inbounds %"class.dealii::Polynomials::Polynomial", ptr %0, i64 0, i32 1, i32 0, i32 0, i32 0, i32 2
  store ptr %53, ptr %54, align 8, !tbaa !14
  %55 = icmp sgt i64 %41, 4
  br i1 %55, label %56, label %57, !prof !16

56:                                               ; preds = %50
  call void @llvm.memmove.p0.p0.i64(ptr align 4 %51, ptr align 4 %38, i64 %41, i1 false)
  br label %66

57:                                               ; preds = %50
  %58 = icmp eq i64 %41, 4
  br i1 %58, label %59, label %66

59:                                               ; preds = %57
  %60 = load float, ptr %38, align 4, !tbaa !17
  store float %60, ptr %51, align 4, !tbaa !17
  store ptr %53, ptr %52, align 8, !tbaa !8
  store ptr getelementptr inbounds ({ [4 x ptr] }, ptr @_ZTVN6dealii11Polynomials10PolynomialIfEE, i64 0, inrange i32 0, i64 2), ptr %4, align 8, !tbaa !5
  br label %68

61:                                               ; preds = %48, %46
  %62 = landingpad { ptr, i32 }
          cleanup
  invoke void @_ZN6dealii11SubscriptorD2Ev(ptr noundef nonnull align 8 dereferenceable(72) %0)
          to label %72 unwind label %63

63:                                               ; preds = %61
  %64 = landingpad { ptr, i32 }
          catch ptr null
  %65 = extractvalue { ptr, i32 } %64, 0
  call void @__clang_call_terminate(ptr %65) #18
  unreachable

66:                                               ; preds = %57, %56
  store ptr %53, ptr %52, align 8, !tbaa !8
  store ptr getelementptr inbounds ({ [4 x ptr] }, ptr @_ZTVN6dealii11Polynomials10PolynomialIfEE, i64 0, inrange i32 0, i64 2), ptr %4, align 8, !tbaa !5
  %67 = icmp eq ptr %38, null
  br i1 %67, label %69, label %68

68:                                               ; preds = %59, %66
  call void @_ZdlPv(ptr noundef nonnull %38) #20
  br label %69

69:                                               ; preds = %66, %68
  call void @_ZN6dealii11SubscriptorD2Ev(ptr noundef nonnull align 8 dereferenceable(72) %4)
  call void @llvm.lifetime.end.p0(i64 96, ptr nonnull %4) #19
  br label %182

70:                                               ; preds = %32
  %71 = landingpad { ptr, i32 }
          cleanup
  br label %72

72:                                               ; preds = %61, %70
  %73 = phi { ptr, i32 } [ %71, %70 ], [ %62, %61 ]
  invoke void @_ZN6dealii11Polynomials10PolynomialIfED2Ev(ptr noundef nonnull align 8 dereferenceable(96) %4)
          to label %74 unwind label %183

74:                                               ; preds = %72
  call void @llvm.lifetime.end.p0(i64 96, ptr nonnull %4) #19
  br label %29

75:                                               ; preds = %2
  call void @llvm.lifetime.start.p0(i64 24, ptr nonnull %5) #19
  %76 = ashr exact i64 %12, 2
  %77 = add nsw i64 %76, -1
  %78 = icmp ugt i64 %77, 2305843009213693951
  br i1 %78, label %79, label %81

79:                                               ; preds = %75
  invoke void @_ZSt20__throw_length_errorPKc(ptr noundef nonnull @.str.12) #16
          to label %80 unwind label %155

80:                                               ; preds = %79
  unreachable

81:                                               ; preds = %75
  %82 = icmp eq i64 %77, 0
  br i1 %82, label %83, label %84

83:                                               ; preds = %81
  call void @llvm.memset.p0.i64(ptr noundef nonnull align 8 dereferenceable(24) %5, i8 0, i64 24, i1 false)
  br label %92

84:                                               ; preds = %81
  %85 = shl nuw nsw i64 %77, 2
  %86 = invoke noalias noundef nonnull ptr @_Znwm(i64 noundef %85) #17
          to label %87 unwind label %155

87:                                               ; preds = %84
  store ptr %86, ptr %5, align 8, !tbaa !12
  %88 = getelementptr inbounds float, ptr %86, i64 %77
  %89 = getelementptr inbounds %"struct.std::_Vector_base<float, std::allocator<float> >::_Vector_impl_data", ptr %5, i64 0, i32 2
  store ptr %88, ptr %89, align 8, !tbaa !14
  %90 = and i64 %12, -4
  %91 = add i64 %90, -4
  tail call void @llvm.memset.p0.i64(ptr nonnull align 4 %86, i8 0, i64 %91, i1 false), !tbaa !17
  br label %92

92:                                               ; preds = %87, %83
  %93 = phi ptr [ null, %83 ], [ %86, %87 ]
  %94 = phi ptr [ null, %83 ], [ %88, %87 ]
  %95 = ptrtoint ptr %93 to i64
  %96 = getelementptr inbounds %"struct.std::_Vector_base<float, std::allocator<float> >::_Vector_impl_data", ptr %5, i64 0, i32 1
  store ptr %94, ptr %96, align 8, !tbaa !8
  %97 = icmp ugt i64 %12, 4
  br i1 %97, label %98, label %154

98:                                               ; preds = %92
  %99 = tail call i64 @llvm.umax.i64(i64 %76, i64 2)
  %100 = add i64 %99, -1
  %101 = icmp ult i64 %99, 33
  br i1 %101, label %151, label %102

102:                                              ; preds = %98
  %103 = tail call i64 @llvm.umax.i64(i64 %76, i64 2)
  %104 = add i64 %103, -2
  %105 = and i64 %104, 4294967294
  %106 = icmp eq i64 %105, 4294967294
  %107 = icmp ugt i64 %104, 4294967295
  %108 = or i1 %106, %107
  br i1 %108, label %151, label %109

109:                                              ; preds = %102
  %110 = add i64 %11, 4
  %111 = sub i64 %95, %110
  %112 = icmp ult i64 %111, 128
  br i1 %112, label %151, label %113

113:                                              ; preds = %109
  %114 = and i64 %100, -32
  %115 = or i64 %114, 1
  %116 = trunc i64 %114 to i32
  %117 = or i32 %116, 1
  br label %118

118:                                              ; preds = %118, %113
  %119 = phi i64 [ 0, %113 ], [ %146, %118 ]
  %120 = phi <8 x i32> [ <i32 1, i32 2, i32 3, i32 4, i32 5, i32 6, i32 7, i32 8>, %113 ], [ %147, %118 ]
  %121 = add <8 x i32> %120, <i32 8, i32 8, i32 8, i32 8, i32 8, i32 8, i32 8, i32 8>
  %122 = add <8 x i32> %120, <i32 16, i32 16, i32 16, i32 16, i32 16, i32 16, i32 16, i32 16>
  %123 = add <8 x i32> %120, <i32 24, i32 24, i32 24, i32 24, i32 24, i32 24, i32 24, i32 24>
  %124 = or i64 %119, 1
  %125 = uitofp <8 x i32> %120 to <8 x float>
  %126 = uitofp <8 x i32> %121 to <8 x float>
  %127 = uitofp <8 x i32> %122 to <8 x float>
  %128 = uitofp <8 x i32> %123 to <8 x float>
  %129 = getelementptr inbounds float, ptr %9, i64 %124
  %130 = load <8 x float>, ptr %129, align 4, !tbaa !17
  %131 = getelementptr inbounds float, ptr %129, i64 8
  %132 = load <8 x float>, ptr %131, align 4, !tbaa !17
  %133 = getelementptr inbounds float, ptr %129, i64 16
  %134 = load <8 x float>, ptr %133, align 4, !tbaa !17
  %135 = getelementptr inbounds float, ptr %129, i64 24
  %136 = load <8 x float>, ptr %135, align 4, !tbaa !17
  %137 = fmul <8 x float> %130, %125
  %138 = fmul <8 x float> %132, %126
  %139 = fmul <8 x float> %134, %127
  %140 = fmul <8 x float> %136, %128
  %141 = and i64 %119, 4294967264
  %142 = getelementptr inbounds float, ptr %93, i64 %141
  store <8 x float> %137, ptr %142, align 4, !tbaa !17
  %143 = getelementptr inbounds float, ptr %142, i64 8
  store <8 x float> %138, ptr %143, align 4, !tbaa !17
  %144 = getelementptr inbounds float, ptr %142, i64 16
  store <8 x float> %139, ptr %144, align 4, !tbaa !17
  %145 = getelementptr inbounds float, ptr %142, i64 24
  store <8 x float> %140, ptr %145, align 4, !tbaa !17
  %146 = add nuw i64 %119, 32
  %147 = add <8 x i32> %120, <i32 32, i32 32, i32 32, i32 32, i32 32, i32 32, i32 32, i32 32>
  %148 = icmp eq i64 %146, %114
  br i1 %148, label %149, label %118, !llvm.loop !26

149:                                              ; preds = %118
  %150 = icmp eq i64 %100, %114
  br i1 %150, label %154, label %151

151:                                              ; preds = %109, %102, %98, %149
  %152 = phi i64 [ 1, %109 ], [ 1, %102 ], [ 1, %98 ], [ %115, %149 ]
  %153 = phi i32 [ 1, %109 ], [ 1, %102 ], [ 1, %98 ], [ %117, %149 ]
  br label %157

154:                                              ; preds = %157, %149, %92
  invoke void @_ZN6dealii11Polynomials10PolynomialIfEC2ERKSt6vectorIfSaIfEE(ptr noundef nonnull align 8 dereferenceable(96) %0, ptr noundef nonnull align 8 dereferenceable(24) %5)
          to label %170 unwind label %175

155:                                              ; preds = %84, %79
  %156 = landingpad { ptr, i32 }
          cleanup
  br label %180

157:                                              ; preds = %151, %157
  %158 = phi i64 [ %168, %157 ], [ %152, %151 ]
  %159 = phi i32 [ %167, %157 ], [ %153, %151 ]
  %160 = uitofp i32 %159 to float
  %161 = getelementptr inbounds float, ptr %9, i64 %158
  %162 = load float, ptr %161, align 4, !tbaa !17
  %163 = fmul float %162, %160
  %164 = add i32 %159, -1
  %165 = zext i32 %164 to i64
  %166 = getelementptr inbounds float, ptr %93, i64 %165
  store float %163, ptr %166, align 4, !tbaa !17
  %167 = add i32 %159, 1
  %168 = zext i32 %167 to i64
  %169 = icmp ugt i64 %76, %168
  br i1 %169, label %157, label %154, !llvm.loop !29

170:                                              ; preds = %154
  %171 = load ptr, ptr %5, align 8, !tbaa !12
  %172 = icmp eq ptr %171, null
  br i1 %172, label %174, label %173

173:                                              ; preds = %170
  call void @_ZdlPv(ptr noundef nonnull %171) #20
  br label %174

174:                                              ; preds = %170, %173
  call void @llvm.lifetime.end.p0(i64 24, ptr nonnull %5) #19
  br label %182

175:                                              ; preds = %154
  %176 = landingpad { ptr, i32 }
          cleanup
  %177 = load ptr, ptr %5, align 8, !tbaa !12
  %178 = icmp eq ptr %177, null
  br i1 %178, label %180, label %179

179:                                              ; preds = %175
  call void @_ZdlPv(ptr noundef nonnull %177) #20
  br label %180

180:                                              ; preds = %179, %175, %155
  %181 = phi { ptr, i32 } [ %156, %155 ], [ %176, %175 ], [ %176, %179 ]
  call void @llvm.lifetime.end.p0(i64 24, ptr nonnull %5) #19
  br label %29

182:                                              ; preds = %174, %69
  ret void

183:                                              ; preds = %72
  %184 = landingpad { ptr, i32 }
          catch ptr null
  %185 = extractvalue { ptr, i32 } %184, 0
  call void @__clang_call_terminate(ptr %185) #18
  unreachable
}

; Function Attrs: sspstrong uwtable
define weak_odr dso_local void @_ZNK6dealii11Polynomials10PolynomialIfE9primitiveEv(ptr noalias sret(%"class.dealii::Polynomials::Polynomial") align 8 %0, ptr noundef nonnull align 8 dereferenceable(96) %1) local_unnamed_addr #0 comdat align 2 personality ptr @__gxx_personality_v0 {
  %3 = alloca %"class.std::vector", align 8
  call void @llvm.lifetime.start.p0(i64 24, ptr nonnull %3) #19
  %4 = getelementptr inbounds %"class.dealii::Polynomials::Polynomial", ptr %1, i64 0, i32 1
  %5 = getelementptr inbounds %"class.dealii::Polynomials::Polynomial", ptr %1, i64 0, i32 1, i32 0, i32 0, i32 0, i32 1
  %6 = load ptr, ptr %5, align 8, !tbaa !8
  %7 = load ptr, ptr %4, align 8, !tbaa !12
  %8 = ptrtoint ptr %6 to i64
  %9 = ptrtoint ptr %7 to i64
  %10 = sub i64 %8, %9
  %11 = ashr exact i64 %10, 2
  %12 = add nsw i64 %11, 1
  %13 = icmp ugt i64 %12, 2305843009213693951
  br i1 %13, label %14, label %15

14:                                               ; preds = %2
  tail call void @_ZSt20__throw_length_errorPKc(ptr noundef nonnull @.str.12) #16
  unreachable

15:                                               ; preds = %2
  %16 = icmp ne i64 %12, 0
  tail call void @llvm.assume(i1 %16)
  %17 = shl nuw nsw i64 %12, 2
  %18 = tail call noalias noundef nonnull ptr @_Znwm(i64 noundef %17) #17
  %19 = ptrtoint ptr %18 to i64
  store ptr %18, ptr %3, align 8, !tbaa !12
  %20 = getelementptr inbounds float, ptr %18, i64 %12
  %21 = getelementptr inbounds %"struct.std::_Vector_base<float, std::allocator<float> >::_Vector_impl_data", ptr %3, i64 0, i32 2
  store ptr %20, ptr %21, align 8, !tbaa !14
  %22 = and i64 %10, -4
  %23 = add i64 %22, 4
  tail call void @llvm.memset.p0.i64(ptr nonnull align 4 %18, i8 0, i64 %23, i1 false), !tbaa !17
  %24 = getelementptr inbounds %"struct.std::_Vector_base<float, std::allocator<float> >::_Vector_impl_data", ptr %3, i64 0, i32 1
  store ptr %20, ptr %24, align 8, !tbaa !8
  store float 0.000000e+00, ptr %18, align 4, !tbaa !17
  %25 = icmp eq ptr %6, %7
  br i1 %25, label %64, label %26

26:                                               ; preds = %15
  %27 = tail call i64 @llvm.umax.i64(i64 %11, i64 1)
  %28 = icmp ult i64 %27, 8
  br i1 %28, label %61, label %29

29:                                               ; preds = %26
  %30 = tail call i64 @llvm.umax.i64(i64 %11, i64 1)
  %31 = add i64 %30, -1
  %32 = and i64 %31, 4294967295
  %33 = icmp eq i64 %32, 4294967295
  %34 = icmp ugt i64 %31, 4294967295
  %35 = or i1 %33, %34
  br i1 %35, label %61, label %36

36:                                               ; preds = %29
  %37 = add i64 %19, 4
  %38 = sub i64 %37, %9
  %39 = icmp ult i64 %38, 32
  br i1 %39, label %61, label %40

40:                                               ; preds = %36
  %41 = and i64 %27, -8
  %42 = trunc i64 %41 to i32
  br label %43

43:                                               ; preds = %43, %40
  %44 = phi i64 [ 0, %40 ], [ %56, %43 ]
  %45 = phi <8 x i32> [ <i32 0, i32 1, i32 2, i32 3, i32 4, i32 5, i32 6, i32 7>, %40 ], [ %57, %43 ]
  %46 = getelementptr inbounds float, ptr %7, i64 %44
  %47 = load <8 x float>, ptr %46, align 4, !tbaa !17
  %48 = fpext <8 x float> %47 to <8 x double>
  %49 = uitofp <8 x i32> %45 to <8 x double>
  %50 = fadd <8 x double> %49, <double 1.000000e+00, double 1.000000e+00, double 1.000000e+00, double 1.000000e+00, double 1.000000e+00, double 1.000000e+00, double 1.000000e+00, double 1.000000e+00>
  %51 = fdiv <8 x double> %48, %50
  %52 = fptrunc <8 x double> %51 to <8 x float>
  %53 = and i64 %44, 4294967288
  %54 = or i64 %53, 1
  %55 = getelementptr inbounds float, ptr %18, i64 %54
  store <8 x float> %52, ptr %55, align 4, !tbaa !17
  %56 = add nuw i64 %44, 8
  %57 = add <8 x i32> %45, <i32 8, i32 8, i32 8, i32 8, i32 8, i32 8, i32 8, i32 8>
  %58 = icmp eq i64 %56, %41
  br i1 %58, label %59, label %43, !llvm.loop !30

59:                                               ; preds = %43
  %60 = icmp eq i64 %27, %41
  br i1 %60, label %64, label %61

61:                                               ; preds = %36, %29, %26, %59
  %62 = phi i64 [ 0, %36 ], [ 0, %29 ], [ 0, %26 ], [ %41, %59 ]
  %63 = phi i32 [ 0, %36 ], [ 0, %29 ], [ 0, %26 ], [ %42, %59 ]
  br label %70

64:                                               ; preds = %70, %59, %15
  invoke void @_ZN6dealii11Polynomials10PolynomialIfEC2ERKSt6vectorIfSaIfEE(ptr noundef nonnull align 8 dereferenceable(96) %0, ptr noundef nonnull align 8 dereferenceable(24) %3)
          to label %84 unwind label %65

65:                                               ; preds = %64
  %66 = landingpad { ptr, i32 }
          cleanup
  %67 = load ptr, ptr %3, align 8, !tbaa !12
  %68 = icmp eq ptr %67, null
  br i1 %68, label %89, label %69

69:                                               ; preds = %65
  call void @_ZdlPv(ptr noundef nonnull %67) #20
  br label %89

70:                                               ; preds = %61, %70
  %71 = phi i64 [ %81, %70 ], [ %62, %61 ]
  %72 = phi i32 [ %80, %70 ], [ %63, %61 ]
  %73 = getelementptr inbounds float, ptr %7, i64 %71
  %74 = load float, ptr %73, align 4, !tbaa !17
  %75 = fpext float %74 to double
  %76 = uitofp i32 %72 to double
  %77 = fadd double %76, 1.000000e+00
  %78 = fdiv double %75, %77
  %79 = fptrunc double %78 to float
  %80 = add i32 %72, 1
  %81 = zext i32 %80 to i64
  %82 = getelementptr inbounds float, ptr %18, i64 %81
  store float %79, ptr %82, align 4, !tbaa !17
  %83 = icmp ugt i64 %11, %81
  br i1 %83, label %70, label %64, !llvm.loop !31

84:                                               ; preds = %64
  %85 = load ptr, ptr %3, align 8, !tbaa !12
  %86 = icmp eq ptr %85, null
  br i1 %86, label %88, label %87

87:                                               ; preds = %84
  call void @_ZdlPv(ptr noundef nonnull %85) #20
  br label %88

88:                                               ; preds = %84, %87
  call void @llvm.lifetime.end.p0(i64 24, ptr nonnull %3) #19
  ret void

89:                                               ; preds = %69, %65
  call void @llvm.lifetime.end.p0(i64 24, ptr nonnull %3) #19
  resume { ptr, i32 } %66
}

; Function Attrs: sspstrong uwtable
define weak_odr dso_local noundef nonnull align 8 dereferenceable(96) ptr @_ZN6dealii11Polynomials10PolynomialIfEmLEd(ptr noundef nonnull align 8 dereferenceable(96) %0, double noundef %1) local_unnamed_addr #0 comdat align 2 {
  %3 = getelementptr inbounds %"class.dealii::Polynomials::Polynomial", ptr %0, i64 0, i32 1
  %4 = load ptr, ptr %3, align 8, !tbaa !15
  %5 = getelementptr inbounds %"class.dealii::Polynomials::Polynomial", ptr %0, i64 0, i32 1, i32 0, i32 0, i32 0, i32 1
  %6 = load ptr, ptr %5, align 8, !tbaa !15
  %7 = icmp eq ptr %4, %6
  br i1 %7, label %57, label %8

8:                                                ; preds = %2
  %9 = ptrtoint ptr %6 to i64
  %10 = ptrtoint ptr %4 to i64
  %11 = add i64 %9, -4
  %12 = sub i64 %11, %10
  %13 = lshr i64 %12, 2
  %14 = add nuw nsw i64 %13, 1
  %15 = icmp ult i64 %12, 124
  br i1 %15, label %55, label %16

16:                                               ; preds = %8
  %17 = and i64 %14, 9223372036854775776
  %18 = shl i64 %17, 2
  %19 = getelementptr i8, ptr %4, i64 %18
  %20 = insertelement <8 x double> poison, double %1, i64 0
  %21 = shufflevector <8 x double> %20, <8 x double> poison, <8 x i32> zeroinitializer
  %22 = insertelement <8 x double> poison, double %1, i64 0
  %23 = shufflevector <8 x double> %22, <8 x double> poison, <8 x i32> zeroinitializer
  %24 = insertelement <8 x double> poison, double %1, i64 0
  %25 = shufflevector <8 x double> %24, <8 x double> poison, <8 x i32> zeroinitializer
  %26 = insertelement <8 x double> poison, double %1, i64 0
  %27 = shufflevector <8 x double> %26, <8 x double> poison, <8 x i32> zeroinitializer
  br label %28

28:                                               ; preds = %28, %16
  %29 = phi i64 [ 0, %16 ], [ %51, %28 ]
  %30 = shl i64 %29, 2
  %31 = getelementptr i8, ptr %4, i64 %30
  %32 = load <8 x float>, ptr %31, align 4, !tbaa !17
  %33 = getelementptr float, ptr %31, i64 8
  %34 = load <8 x float>, ptr %33, align 4, !tbaa !17
  %35 = getelementptr float, ptr %31, i64 16
  %36 = load <8 x float>, ptr %35, align 4, !tbaa !17
  %37 = getelementptr float, ptr %31, i64 24
  %38 = load <8 x float>, ptr %37, align 4, !tbaa !17
  %39 = fpext <8 x float> %32 to <8 x double>
  %40 = fpext <8 x float> %34 to <8 x double>
  %41 = fpext <8 x float> %36 to <8 x double>
  %42 = fpext <8 x float> %38 to <8 x double>
  %43 = fmul <8 x double> %21, %39
  %44 = fmul <8 x double> %23, %40
  %45 = fmul <8 x double> %25, %41
  %46 = fmul <8 x double> %27, %42
  %47 = fptrunc <8 x double> %43 to <8 x float>
  %48 = fptrunc <8 x double> %44 to <8 x float>
  %49 = fptrunc <8 x double> %45 to <8 x float>
  %50 = fptrunc <8 x double> %46 to <8 x float>
  store <8 x float> %47, ptr %31, align 4, !tbaa !17
  store <8 x float> %48, ptr %33, align 4, !tbaa !17
  store <8 x float> %49, ptr %35, align 4, !tbaa !17
  store <8 x float> %50, ptr %37, align 4, !tbaa !17
  %51 = add nuw i64 %29, 32
  %52 = icmp eq i64 %51, %17
  br i1 %52, label %53, label %28, !llvm.loop !32

53:                                               ; preds = %28
  %54 = icmp eq i64 %14, %17
  br i1 %54, label %57, label %55

55:                                               ; preds = %8, %53
  %56 = phi ptr [ %4, %8 ], [ %19, %53 ]
  br label %58

57:                                               ; preds = %58, %53, %2
  ret ptr %0

58:                                               ; preds = %55, %58
  %59 = phi ptr [ %64, %58 ], [ %56, %55 ]
  %60 = load float, ptr %59, align 4, !tbaa !17
  %61 = fpext float %60 to double
  %62 = fmul double %61, %1
  %63 = fptrunc double %62 to float
  store float %63, ptr %59, align 4, !tbaa !17
  %64 = getelementptr inbounds float, ptr %59, i64 1
  %65 = icmp eq ptr %64, %6
  br i1 %65, label %57, label %58, !llvm.loop !33
}

; Function Attrs: sspstrong uwtable
define weak_odr dso_local noundef nonnull align 8 dereferenceable(96) ptr @_ZN6dealii11Polynomials10PolynomialIfEmLERKS2_(ptr noundef nonnull align 8 dereferenceable(96) %0, ptr noundef nonnull align 8 dereferenceable(96) %1) local_unnamed_addr #0 comdat align 2 personality ptr @__gxx_personality_v0 {
  %3 = alloca %"class.std::vector", align 8
  %4 = getelementptr inbounds %"class.dealii::Polynomials::Polynomial", ptr %0, i64 0, i32 1
  %5 = getelementptr inbounds %"class.dealii::Polynomials::Polynomial", ptr %0, i64 0, i32 1, i32 0, i32 0, i32 0, i32 1
  %6 = load ptr, ptr %5, align 8, !tbaa !8
  %7 = load ptr, ptr %4, align 8, !tbaa !12
  %8 = ptrtoint ptr %6 to i64
  %9 = ptrtoint ptr %7 to i64
  %10 = sub i64 %8, %9
  %11 = lshr exact i64 %10, 2
  %12 = getelementptr inbounds %"class.dealii::Polynomials::Polynomial", ptr %1, i64 0, i32 1
  %13 = getelementptr inbounds %"class.dealii::Polynomials::Polynomial", ptr %1, i64 0, i32 1, i32 0, i32 0, i32 0, i32 1
  %14 = load ptr, ptr %13, align 8, !tbaa !8
  %15 = load ptr, ptr %12, align 8, !tbaa !12
  %16 = ptrtoint ptr %14 to i64
  %17 = ptrtoint ptr %15 to i64
  %18 = sub i64 %16, %17
  %19 = lshr exact i64 %18, 2
  call void @llvm.lifetime.start.p0(i64 24, ptr nonnull %3) #19
  %20 = add nuw nsw i64 %11, 4294967295
  %21 = add nuw i64 %20, %19
  %22 = and i64 %21, 4294967295
  %23 = icmp eq i64 %22, 0
  br i1 %23, label %24, label %25

24:                                               ; preds = %2
  call void @llvm.memset.p0.i64(ptr noundef nonnull align 8 dereferenceable(24) %3, i8 0, i64 24, i1 false)
  br label %30

25:                                               ; preds = %2
  %26 = shl nuw nsw i64 %22, 2
  %27 = tail call noalias noundef nonnull ptr @_Znwm(i64 noundef %26) #17
  store ptr %27, ptr %3, align 8, !tbaa !12
  %28 = getelementptr inbounds float, ptr %27, i64 %22
  %29 = getelementptr inbounds %"struct.std::_Vector_base<float, std::allocator<float> >::_Vector_impl_data", ptr %3, i64 0, i32 2
  store ptr %28, ptr %29, align 8, !tbaa !14
  tail call void @llvm.memset.p0.i64(ptr nonnull align 4 %27, i8 0, i64 %26, i1 false), !tbaa !17
  br label %30

30:                                               ; preds = %25, %24
  %31 = phi ptr [ null, %24 ], [ %27, %25 ]
  %32 = phi ptr [ null, %24 ], [ %28, %25 ]
  %33 = getelementptr inbounds %"struct.std::_Vector_base<float, std::allocator<float> >::_Vector_impl_data", ptr %3, i64 0, i32 1
  store ptr %32, ptr %33, align 8, !tbaa !8
  %34 = ashr exact i64 %18, 2
  %35 = icmp eq ptr %14, %15
  br i1 %35, label %134, label %36

36:                                               ; preds = %30
  %37 = ashr i64 %10, 2
  %38 = icmp eq ptr %6, %7
  br i1 %38, label %129, label %39

39:                                               ; preds = %36
  %40 = tail call i64 @llvm.umax.i64(i64 %37, i64 1)
  %41 = add i64 %40, -1
  %42 = getelementptr i8, ptr %15, i64 4
  %43 = tail call i64 @llvm.umax.i64(i64 %37, i64 1)
  %44 = shl i64 %43, 2
  %45 = getelementptr i8, ptr %31, i64 %44
  %46 = getelementptr i8, ptr %7, i64 %44
  %47 = tail call i64 @llvm.umax.i64(i64 %37, i64 1)
  %48 = icmp ult i64 %47, 32
  %49 = and i64 %41, 4294967295
  %50 = icmp eq i64 %49, 4294967295
  %51 = trunc i64 %41 to i32
  %52 = icmp ugt i64 %41, 4294967295
  %53 = icmp ult ptr %15, %45
  %54 = icmp ult ptr %31, %42
  %55 = and i1 %53, %54
  %56 = and i64 %47, -32
  %57 = trunc i64 %56 to i32
  %58 = icmp eq i64 %47, %56
  br label %59

59:                                               ; preds = %39, %125
  %60 = phi i64 [ %127, %125 ], [ 0, %39 ]
  %61 = phi i32 [ %126, %125 ], [ 0, %39 ]
  %62 = shl nuw nsw i64 %60, 2
  %63 = getelementptr i8, ptr %31, i64 %62
  %64 = getelementptr i8, ptr %45, i64 %62
  %65 = getelementptr inbounds float, ptr %15, i64 %60
  br i1 %48, label %108, label %66

66:                                               ; preds = %59
  %67 = xor i32 %61, -1
  %68 = icmp ult i32 %67, %51
  %69 = or i1 %68, %52
  %70 = or i1 %50, %69
  br i1 %70, label %108, label %71

71:                                               ; preds = %66
  %72 = icmp ult ptr %63, %46
  %73 = icmp ult ptr %7, %64
  %74 = and i1 %72, %73
  %75 = or i1 %55, %74
  br i1 %75, label %108, label %76

76:                                               ; preds = %71
  %77 = load float, ptr %65, align 4, !tbaa !17, !alias.scope !34, !noalias !37
  %78 = insertelement <8 x float> poison, float %77, i64 0
  %79 = shufflevector <8 x float> %78, <8 x float> poison, <8 x i32> zeroinitializer
  br label %80

80:                                               ; preds = %80, %76
  %81 = phi i64 [ 0, %76 ], [ %105, %80 ]
  %82 = trunc i64 %81 to i32
  %83 = getelementptr inbounds float, ptr %7, i64 %81
  %84 = load <8 x float>, ptr %83, align 4, !tbaa !17, !alias.scope !39
  %85 = getelementptr inbounds float, ptr %83, i64 8
  %86 = load <8 x float>, ptr %85, align 4, !tbaa !17, !alias.scope !39
  %87 = getelementptr inbounds float, ptr %83, i64 16
  %88 = load <8 x float>, ptr %87, align 4, !tbaa !17, !alias.scope !39
  %89 = getelementptr inbounds float, ptr %83, i64 24
  %90 = load <8 x float>, ptr %89, align 4, !tbaa !17, !alias.scope !39
  %91 = add i32 %61, %82
  %92 = zext i32 %91 to i64
  %93 = getelementptr inbounds float, ptr %31, i64 %92
  %94 = load <8 x float>, ptr %93, align 4, !tbaa !17, !alias.scope !37, !noalias !39
  %95 = getelementptr inbounds float, ptr %93, i64 8
  %96 = load <8 x float>, ptr %95, align 4, !tbaa !17, !alias.scope !37, !noalias !39
  %97 = getelementptr inbounds float, ptr %93, i64 16
  %98 = load <8 x float>, ptr %97, align 4, !tbaa !17, !alias.scope !37, !noalias !39
  %99 = getelementptr inbounds float, ptr %93, i64 24
  %100 = load <8 x float>, ptr %99, align 4, !tbaa !17, !alias.scope !37, !noalias !39
  %101 = tail call <8 x float> @llvm.fmuladd.v8f32(<8 x float> %84, <8 x float> %79, <8 x float> %94)
  %102 = tail call <8 x float> @llvm.fmuladd.v8f32(<8 x float> %86, <8 x float> %79, <8 x float> %96)
  %103 = tail call <8 x float> @llvm.fmuladd.v8f32(<8 x float> %88, <8 x float> %79, <8 x float> %98)
  %104 = tail call <8 x float> @llvm.fmuladd.v8f32(<8 x float> %90, <8 x float> %79, <8 x float> %100)
  store <8 x float> %101, ptr %93, align 4, !tbaa !17, !alias.scope !37, !noalias !39
  store <8 x float> %102, ptr %95, align 4, !tbaa !17, !alias.scope !37, !noalias !39
  store <8 x float> %103, ptr %97, align 4, !tbaa !17, !alias.scope !37, !noalias !39
  store <8 x float> %104, ptr %99, align 4, !tbaa !17, !alias.scope !37, !noalias !39
  %105 = add nuw i64 %81, 32
  %106 = icmp eq i64 %105, %56
  br i1 %106, label %107, label %80, !llvm.loop !41

107:                                              ; preds = %80
  br i1 %58, label %125, label %108

108:                                              ; preds = %71, %66, %59, %107
  %109 = phi i64 [ 0, %71 ], [ 0, %66 ], [ 0, %59 ], [ %56, %107 ]
  %110 = phi i32 [ 0, %71 ], [ 0, %66 ], [ 0, %59 ], [ %57, %107 ]
  br label %111

111:                                              ; preds = %108, %111
  %112 = phi i64 [ %123, %111 ], [ %109, %108 ]
  %113 = phi i32 [ %122, %111 ], [ %110, %108 ]
  %114 = getelementptr inbounds float, ptr %7, i64 %112
  %115 = load float, ptr %114, align 4, !tbaa !17
  %116 = load float, ptr %65, align 4, !tbaa !17
  %117 = add i32 %113, %61
  %118 = zext i32 %117 to i64
  %119 = getelementptr inbounds float, ptr %31, i64 %118
  %120 = load float, ptr %119, align 4, !tbaa !17
  %121 = tail call float @llvm.fmuladd.f32(float %115, float %116, float %120)
  store float %121, ptr %119, align 4, !tbaa !17
  %122 = add i32 %113, 1
  %123 = zext i32 %122 to i64
  %124 = icmp ugt i64 %37, %123
  br i1 %124, label %111, label %125, !llvm.loop !42

125:                                              ; preds = %111, %107
  %126 = add i32 %61, 1
  %127 = zext i32 %126 to i64
  %128 = icmp ugt i64 %34, %127
  br i1 %128, label %59, label %134

129:                                              ; preds = %36, %129
  %130 = phi i32 [ %131, %129 ], [ 0, %36 ]
  %131 = add i32 %130, 1
  %132 = zext i32 %131 to i64
  %133 = icmp ugt i64 %34, %132
  br i1 %133, label %129, label %134

134:                                              ; preds = %125, %129, %30
  %135 = invoke noundef nonnull align 8 dereferenceable(24) ptr @_ZNSt6vectorIfSaIfEEaSERKS1_(ptr noundef nonnull align 8 dereferenceable(24) %4, ptr noundef nonnull align 8 dereferenceable(24) %3)
          to label %136 unwind label %141

136:                                              ; preds = %134
  %137 = load ptr, ptr %3, align 8, !tbaa !12
  %138 = icmp eq ptr %137, null
  br i1 %138, label %140, label %139

139:                                              ; preds = %136
  call void @_ZdlPv(ptr noundef nonnull %137) #20
  br label %140

140:                                              ; preds = %136, %139
  call void @llvm.lifetime.end.p0(i64 24, ptr nonnull %3) #19
  ret ptr %0

141:                                              ; preds = %134
  %142 = landingpad { ptr, i32 }
          cleanup
  %143 = load ptr, ptr %3, align 8, !tbaa !12
  %144 = icmp eq ptr %143, null
  br i1 %144, label %146, label %145

145:                                              ; preds = %141
  call void @_ZdlPv(ptr noundef nonnull %143) #20
  br label %146

146:                                              ; preds = %145, %141
  call void @llvm.lifetime.end.p0(i64 24, ptr nonnull %3) #19
  resume { ptr, i32 } %142
}

; Function Attrs: sspstrong uwtable
define linkonce_odr dso_local noundef nonnull align 8 dereferenceable(24) ptr @_ZNSt6vectorIfSaIfEEaSERKS1_(ptr noundef nonnull align 8 dereferenceable(24) %0, ptr noundef nonnull align 8 dereferenceable(24) %1) local_unnamed_addr #0 comdat align 2 personality ptr @__gxx_personality_v0 {
  %3 = icmp eq ptr %1, %0
  br i1 %3, label %82, label %4

4:                                                ; preds = %2
  %5 = getelementptr inbounds %"struct.std::_Vector_base<float, std::allocator<float> >::_Vector_impl_data", ptr %1, i64 0, i32 1
  %6 = load ptr, ptr %5, align 8, !tbaa !15
  %7 = load ptr, ptr %1, align 8, !tbaa !15
  %8 = ptrtoint ptr %6 to i64
  %9 = ptrtoint ptr %7 to i64
  %10 = sub i64 %8, %9
  %11 = ashr exact i64 %10, 2
  %12 = getelementptr inbounds %"struct.std::_Vector_base<float, std::allocator<float> >::_Vector_impl_data", ptr %0, i64 0, i32 2
  %13 = load ptr, ptr %12, align 8, !tbaa !14
  %14 = load ptr, ptr %0, align 8, !tbaa !15
  %15 = ptrtoint ptr %13 to i64
  %16 = ptrtoint ptr %14 to i64
  %17 = sub i64 %15, %16
  %18 = ashr exact i64 %17, 2
  %19 = icmp ugt i64 %11, %18
  br i1 %19, label %20, label %36

20:                                               ; preds = %4
  %21 = icmp ugt i64 %10, 9223372036854775804
  br i1 %21, label %22, label %23, !prof !13

22:                                               ; preds = %20
  tail call void @_ZSt28__throw_bad_array_new_lengthv() #16
  unreachable

23:                                               ; preds = %20
  %24 = tail call noalias noundef nonnull ptr @_Znwm(i64 noundef %10) #17
  %25 = icmp ugt i64 %10, 4
  br i1 %25, label %26, label %27, !prof !16

26:                                               ; preds = %23
  tail call void @llvm.memcpy.p0.p0.i64(ptr nonnull align 4 %24, ptr align 4 %7, i64 %10, i1 false)
  br label %31

27:                                               ; preds = %23
  %28 = icmp eq i64 %10, 4
  br i1 %28, label %29, label %31

29:                                               ; preds = %27
  %30 = load float, ptr %7, align 4, !tbaa !17
  store float %30, ptr %24, align 4, !tbaa !17
  br label %31

31:                                               ; preds = %26, %27, %29
  %32 = icmp eq ptr %14, null
  br i1 %32, label %34, label %33

33:                                               ; preds = %31
  tail call void @_ZdlPv(ptr noundef nonnull %14) #20
  br label %34

34:                                               ; preds = %31, %33
  store ptr %24, ptr %0, align 8, !tbaa !12
  %35 = getelementptr inbounds float, ptr %24, i64 %11
  store ptr %35, ptr %12, align 8, !tbaa !14
  br label %78

36:                                               ; preds = %4
  %37 = getelementptr inbounds %"struct.std::_Vector_base<float, std::allocator<float> >::_Vector_impl_data", ptr %0, i64 0, i32 1
  %38 = load ptr, ptr %37, align 8, !tbaa !8
  %39 = ptrtoint ptr %38 to i64
  %40 = sub i64 %39, %16
  %41 = ashr exact i64 %40, 2
  %42 = icmp ult i64 %41, %11
  br i1 %42, label %50, label %43

43:                                               ; preds = %36
  %44 = icmp sgt i64 %10, 4
  br i1 %44, label %45, label %46, !prof !16

45:                                               ; preds = %43
  tail call void @llvm.memmove.p0.p0.i64(ptr align 4 %14, ptr align 4 %7, i64 %10, i1 false)
  br label %78

46:                                               ; preds = %43
  %47 = icmp eq i64 %10, 4
  br i1 %47, label %48, label %78

48:                                               ; preds = %46
  %49 = load float, ptr %7, align 4, !tbaa !17
  store float %49, ptr %14, align 4, !tbaa !17
  br label %78

50:                                               ; preds = %36
  %51 = icmp sgt i64 %40, 4
  br i1 %51, label %52, label %55, !prof !16

52:                                               ; preds = %50
  tail call void @llvm.memmove.p0.p0.i64(ptr align 4 %14, ptr align 4 %7, i64 %40, i1 false)
  %53 = load ptr, ptr %37, align 8, !tbaa !8
  %54 = ptrtoint ptr %53 to i64
  br label %59

55:                                               ; preds = %50
  %56 = icmp eq i64 %40, 4
  br i1 %56, label %57, label %59

57:                                               ; preds = %55
  %58 = load float, ptr %7, align 4, !tbaa !17
  store float %58, ptr %14, align 4, !tbaa !17
  br label %59

59:                                               ; preds = %52, %55, %57
  %60 = phi i64 [ %54, %52 ], [ %39, %55 ], [ %39, %57 ]
  %61 = phi ptr [ %53, %52 ], [ %38, %55 ], [ %38, %57 ]
  %62 = load ptr, ptr %1, align 8, !tbaa !12
  %63 = load ptr, ptr %0, align 8, !tbaa !12
  %64 = ptrtoint ptr %63 to i64
  %65 = sub i64 %60, %64
  %66 = ashr exact i64 %65, 2
  %67 = getelementptr inbounds float, ptr %62, i64 %66
  %68 = load ptr, ptr %5, align 8, !tbaa !8
  %69 = ptrtoint ptr %68 to i64
  %70 = ptrtoint ptr %67 to i64
  %71 = sub i64 %69, %70
  %72 = icmp sgt i64 %71, 4
  br i1 %72, label %73, label %74, !prof !16

73:                                               ; preds = %59
  tail call void @llvm.memmove.p0.p0.i64(ptr align 4 %61, ptr align 4 %67, i64 %71, i1 false)
  br label %78

74:                                               ; preds = %59
  %75 = icmp eq i64 %71, 4
  br i1 %75, label %76, label %78

76:                                               ; preds = %74
  %77 = load float, ptr %67, align 4, !tbaa !17
  store float %77, ptr %61, align 4, !tbaa !17
  br label %78

78:                                               ; preds = %76, %74, %73, %48, %46, %45, %34
  %79 = load ptr, ptr %0, align 8, !tbaa !12
  %80 = getelementptr inbounds float, ptr %79, i64 %11
  %81 = getelementptr inbounds %"struct.std::_Vector_base<float, std::allocator<float> >::_Vector_impl_data", ptr %0, i64 0, i32 1
  store ptr %80, ptr %81, align 8, !tbaa !8
  br label %82

82:                                               ; preds = %78, %2
  ret ptr %0
}

; Function Attrs: sspstrong uwtable
define weak_odr dso_local noundef nonnull align 8 dereferenceable(96) ptr @_ZN6dealii11Polynomials10PolynomialIfEpLERKS2_(ptr noundef nonnull align 8 dereferenceable(96) %0, ptr noundef nonnull align 8 dereferenceable(96) %1) local_unnamed_addr #0 comdat align 2 {
  %3 = alloca float, align 4
  %4 = getelementptr inbounds %"class.dealii::Polynomials::Polynomial", ptr %1, i64 0, i32 1
  %5 = getelementptr inbounds %"class.dealii::Polynomials::Polynomial", ptr %1, i64 0, i32 1, i32 0, i32 0, i32 0, i32 1
  %6 = load ptr, ptr %5, align 8, !tbaa !8
  %7 = load ptr, ptr %4, align 8, !tbaa !12
  %8 = ptrtoint ptr %6 to i64
  %9 = ptrtoint ptr %7 to i64
  %10 = sub i64 %8, %9
  %11 = ashr exact i64 %10, 2
  %12 = getelementptr inbounds %"class.dealii::Polynomials::Polynomial", ptr %0, i64 0, i32 1
  %13 = getelementptr inbounds %"class.dealii::Polynomials::Polynomial", ptr %0, i64 0, i32 1, i32 0, i32 0, i32 0, i32 1
  %14 = load ptr, ptr %13, align 8, !tbaa !15
  %15 = load ptr, ptr %12, align 8, !tbaa !12
  %16 = ptrtoint ptr %14 to i64
  %17 = ptrtoint ptr %15 to i64
  %18 = sub i64 %16, %17
  %19 = ashr exact i64 %18, 2
  %20 = icmp ugt i64 %11, %19
  br i1 %20, label %21, label %29

21:                                               ; preds = %2
  call void @llvm.lifetime.start.p0(i64 4, ptr nonnull %3)
  store float 0.000000e+00, ptr %3, align 4, !tbaa !17
  %22 = sub nsw i64 %11, %19
  call void @_ZNSt6vectorIfSaIfEE14_M_fill_insertEN9__gnu_cxx17__normal_iteratorIPfS1_EEmRKf(ptr noundef nonnull align 8 dereferenceable(24) %12, ptr %14, i64 noundef %22, ptr noundef nonnull align 4 dereferenceable(4) %3)
  call void @llvm.lifetime.end.p0(i64 4, ptr nonnull %3)
  %23 = load ptr, ptr %5, align 8, !tbaa !8
  %24 = load ptr, ptr %4, align 8, !tbaa !12
  %25 = ptrtoint ptr %23 to i64
  %26 = ptrtoint ptr %24 to i64
  %27 = sub i64 %25, %26
  %28 = ashr exact i64 %27, 2
  br label %29

29:                                               ; preds = %21, %2
  %30 = phi i64 [ %28, %21 ], [ %11, %2 ]
  %31 = phi ptr [ %24, %21 ], [ %7, %2 ]
  %32 = phi ptr [ %23, %21 ], [ %6, %2 ]
  %33 = icmp eq ptr %32, %31
  br i1 %33, label %85, label %34

34:                                               ; preds = %29
  %35 = load ptr, ptr %12, align 8, !tbaa !12
  %36 = call i64 @llvm.umax.i64(i64 %30, i64 1)
  %37 = icmp ult i64 %36, 32
  br i1 %37, label %82, label %38

38:                                               ; preds = %34
  %39 = call i64 @llvm.umax.i64(i64 %30, i64 1)
  %40 = add i64 %39, -1
  %41 = and i64 %40, 4294967295
  %42 = icmp eq i64 %41, 4294967295
  %43 = icmp ugt i64 %40, 4294967295
  %44 = or i1 %42, %43
  br i1 %44, label %82, label %45

45:                                               ; preds = %38
  %46 = call i64 @llvm.umax.i64(i64 %30, i64 1)
  %47 = shl i64 %46, 2
  %48 = getelementptr i8, ptr %35, i64 %47
  %49 = getelementptr i8, ptr %31, i64 %47
  %50 = icmp ult ptr %35, %49
  %51 = icmp ult ptr %31, %48
  %52 = and i1 %50, %51
  br i1 %52, label %82, label %53

53:                                               ; preds = %45
  %54 = and i64 %36, -32
  %55 = trunc i64 %54 to i32
  br label %56

56:                                               ; preds = %56, %53
  %57 = phi i64 [ 0, %53 ], [ %78, %56 ]
  %58 = getelementptr inbounds float, ptr %31, i64 %57
  %59 = load <8 x float>, ptr %58, align 4, !tbaa !17, !alias.scope !43
  %60 = getelementptr inbounds float, ptr %58, i64 8
  %61 = load <8 x float>, ptr %60, align 4, !tbaa !17, !alias.scope !43
  %62 = getelementptr inbounds float, ptr %58, i64 16
  %63 = load <8 x float>, ptr %62, align 4, !tbaa !17, !alias.scope !43
  %64 = getelementptr inbounds float, ptr %58, i64 24
  %65 = load <8 x float>, ptr %64, align 4, !tbaa !17, !alias.scope !43
  %66 = getelementptr inbounds float, ptr %35, i64 %57
  %67 = load <8 x float>, ptr %66, align 4, !tbaa !17, !alias.scope !46, !noalias !43
  %68 = getelementptr inbounds float, ptr %66, i64 8
  %69 = load <8 x float>, ptr %68, align 4, !tbaa !17, !alias.scope !46, !noalias !43
  %70 = getelementptr inbounds float, ptr %66, i64 16
  %71 = load <8 x float>, ptr %70, align 4, !tbaa !17, !alias.scope !46, !noalias !43
  %72 = getelementptr inbounds float, ptr %66, i64 24
  %73 = load <8 x float>, ptr %72, align 4, !tbaa !17, !alias.scope !46, !noalias !43
  %74 = fadd <8 x float> %59, %67
  %75 = fadd <8 x float> %61, %69
  %76 = fadd <8 x float> %63, %71
  %77 = fadd <8 x float> %65, %73
  store <8 x float> %74, ptr %66, align 4, !tbaa !17, !alias.scope !46, !noalias !43
  store <8 x float> %75, ptr %68, align 4, !tbaa !17, !alias.scope !46, !noalias !43
  store <8 x float> %76, ptr %70, align 4, !tbaa !17, !alias.scope !46, !noalias !43
  store <8 x float> %77, ptr %72, align 4, !tbaa !17, !alias.scope !46, !noalias !43
  %78 = add nuw i64 %57, 32
  %79 = icmp eq i64 %78, %54
  br i1 %79, label %80, label %56, !llvm.loop !48

80:                                               ; preds = %56
  %81 = icmp eq i64 %36, %54
  br i1 %81, label %85, label %82

82:                                               ; preds = %45, %38, %34, %80
  %83 = phi i64 [ 0, %45 ], [ 0, %38 ], [ 0, %34 ], [ %54, %80 ]
  %84 = phi i32 [ 0, %45 ], [ 0, %38 ], [ 0, %34 ], [ %55, %80 ]
  br label %86

85:                                               ; preds = %86, %80, %29
  ret ptr %0

86:                                               ; preds = %82, %86
  %87 = phi i64 [ %95, %86 ], [ %83, %82 ]
  %88 = phi i32 [ %94, %86 ], [ %84, %82 ]
  %89 = getelementptr inbounds float, ptr %31, i64 %87
  %90 = load float, ptr %89, align 4, !tbaa !17
  %91 = getelementptr inbounds float, ptr %35, i64 %87
  %92 = load float, ptr %91, align 4, !tbaa !17
  %93 = fadd float %90, %92
  store float %93, ptr %91, align 4, !tbaa !17
  %94 = add i32 %88, 1
  %95 = zext i32 %94 to i64
  %96 = icmp ugt i64 %30, %95
  br i1 %96, label %86, label %85, !llvm.loop !49
}

; Function Attrs: sspstrong uwtable
define weak_odr dso_local noundef nonnull align 8 dereferenceable(96) ptr @_ZN6dealii11Polynomials10PolynomialIfEmIERKS2_(ptr noundef nonnull align 8 dereferenceable(96) %0, ptr noundef nonnull align 8 dereferenceable(96) %1) local_unnamed_addr #0 comdat align 2 {
  %3 = alloca float, align 4
  %4 = getelementptr inbounds %"class.dealii::Polynomials::Polynomial", ptr %1, i64 0, i32 1
  %5 = getelementptr inbounds %"class.dealii::Polynomials::Polynomial", ptr %1, i64 0, i32 1, i32 0, i32 0, i32 0, i32 1
  %6 = load ptr, ptr %5, align 8, !tbaa !8
  %7 = load ptr, ptr %4, align 8, !tbaa !12
  %8 = ptrtoint ptr %6 to i64
  %9 = ptrtoint ptr %7 to i64
  %10 = sub i64 %8, %9
  %11 = ashr exact i64 %10, 2
  %12 = getelementptr inbounds %"class.dealii::Polynomials::Polynomial", ptr %0, i64 0, i32 1
  %13 = getelementptr inbounds %"class.dealii::Polynomials::Polynomial", ptr %0, i64 0, i32 1, i32 0, i32 0, i32 0, i32 1
  %14 = load ptr, ptr %13, align 8, !tbaa !15
  %15 = load ptr, ptr %12, align 8, !tbaa !12
  %16 = ptrtoint ptr %14 to i64
  %17 = ptrtoint ptr %15 to i64
  %18 = sub i64 %16, %17
  %19 = ashr exact i64 %18, 2
  %20 = icmp ugt i64 %11, %19
  br i1 %20, label %21, label %29

21:                                               ; preds = %2
  call void @llvm.lifetime.start.p0(i64 4, ptr nonnull %3)
  store float 0.000000e+00, ptr %3, align 4, !tbaa !17
  %22 = sub nsw i64 %11, %19
  call void @_ZNSt6vectorIfSaIfEE14_M_fill_insertEN9__gnu_cxx17__normal_iteratorIPfS1_EEmRKf(ptr noundef nonnull align 8 dereferenceable(24) %12, ptr %14, i64 noundef %22, ptr noundef nonnull align 4 dereferenceable(4) %3)
  call void @llvm.lifetime.end.p0(i64 4, ptr nonnull %3)
  %23 = load ptr, ptr %5, align 8, !tbaa !8
  %24 = load ptr, ptr %4, align 8, !tbaa !12
  %25 = ptrtoint ptr %23 to i64
  %26 = ptrtoint ptr %24 to i64
  %27 = sub i64 %25, %26
  %28 = ashr exact i64 %27, 2
  br label %29

29:                                               ; preds = %21, %2
  %30 = phi i64 [ %28, %21 ], [ %11, %2 ]
  %31 = phi ptr [ %24, %21 ], [ %7, %2 ]
  %32 = phi ptr [ %23, %21 ], [ %6, %2 ]
  %33 = icmp eq ptr %32, %31
  br i1 %33, label %85, label %34

34:                                               ; preds = %29
  %35 = load ptr, ptr %12, align 8, !tbaa !12
  %36 = call i64 @llvm.umax.i64(i64 %30, i64 1)
  %37 = icmp ult i64 %36, 32
  br i1 %37, label %82, label %38

38:                                               ; preds = %34
  %39 = call i64 @llvm.umax.i64(i64 %30, i64 1)
  %40 = add i64 %39, -1
  %41 = and i64 %40, 4294967295
  %42 = icmp eq i64 %41, 4294967295
  %43 = icmp ugt i64 %40, 4294967295
  %44 = or i1 %42, %43
  br i1 %44, label %82, label %45

45:                                               ; preds = %38
  %46 = call i64 @llvm.umax.i64(i64 %30, i64 1)
  %47 = shl i64 %46, 2
  %48 = getelementptr i8, ptr %35, i64 %47
  %49 = getelementptr i8, ptr %31, i64 %47
  %50 = icmp ult ptr %35, %49
  %51 = icmp ult ptr %31, %48
  %52 = and i1 %50, %51
  br i1 %52, label %82, label %53

53:                                               ; preds = %45
  %54 = and i64 %36, -32
  %55 = trunc i64 %54 to i32
  br label %56

56:                                               ; preds = %56, %53
  %57 = phi i64 [ 0, %53 ], [ %78, %56 ]
  %58 = getelementptr inbounds float, ptr %31, i64 %57
  %59 = load <8 x float>, ptr %58, align 4, !tbaa !17, !alias.scope !50
  %60 = getelementptr inbounds float, ptr %58, i64 8
  %61 = load <8 x float>, ptr %60, align 4, !tbaa !17, !alias.scope !50
  %62 = getelementptr inbounds float, ptr %58, i64 16
  %63 = load <8 x float>, ptr %62, align 4, !tbaa !17, !alias.scope !50
  %64 = getelementptr inbounds float, ptr %58, i64 24
  %65 = load <8 x float>, ptr %64, align 4, !tbaa !17, !alias.scope !50
  %66 = getelementptr inbounds float, ptr %35, i64 %57
  %67 = load <8 x float>, ptr %66, align 4, !tbaa !17, !alias.scope !53, !noalias !50
  %68 = getelementptr inbounds float, ptr %66, i64 8
  %69 = load <8 x float>, ptr %68, align 4, !tbaa !17, !alias.scope !53, !noalias !50
  %70 = getelementptr inbounds float, ptr %66, i64 16
  %71 = load <8 x float>, ptr %70, align 4, !tbaa !17, !alias.scope !53, !noalias !50
  %72 = getelementptr inbounds float, ptr %66, i64 24
  %73 = load <8 x float>, ptr %72, align 4, !tbaa !17, !alias.scope !53, !noalias !50
  %74 = fsub <8 x float> %67, %59
  %75 = fsub <8 x float> %69, %61
  %76 = fsub <8 x float> %71, %63
  %77 = fsub <8 x float> %73, %65
  store <8 x float> %74, ptr %66, align 4, !tbaa !17, !alias.scope !53, !noalias !50
  store <8 x float> %75, ptr %68, align 4, !tbaa !17, !alias.scope !53, !noalias !50
  store <8 x float> %76, ptr %70, align 4, !tbaa !17, !alias.scope !53, !noalias !50
  store <8 x float> %77, ptr %72, align 4, !tbaa !17, !alias.scope !53, !noalias !50
  %78 = add nuw i64 %57, 32
  %79 = icmp eq i64 %78, %54
  br i1 %79, label %80, label %56, !llvm.loop !55

80:                                               ; preds = %56
  %81 = icmp eq i64 %36, %54
  br i1 %81, label %85, label %82

82:                                               ; preds = %45, %38, %34, %80
  %83 = phi i64 [ 0, %45 ], [ 0, %38 ], [ 0, %34 ], [ %54, %80 ]
  %84 = phi i32 [ 0, %45 ], [ 0, %38 ], [ 0, %34 ], [ %55, %80 ]
  br label %86

85:                                               ; preds = %86, %80, %29
  ret ptr %0

86:                                               ; preds = %82, %86
  %87 = phi i64 [ %95, %86 ], [ %83, %82 ]
  %88 = phi i32 [ %94, %86 ], [ %84, %82 ]
  %89 = getelementptr inbounds float, ptr %31, i64 %87
  %90 = load float, ptr %89, align 4, !tbaa !17
  %91 = getelementptr inbounds float, ptr %35, i64 %87
  %92 = load float, ptr %91, align 4, !tbaa !17
  %93 = fsub float %92, %90
  store float %93, ptr %91, align 4, !tbaa !17
  %94 = add i32 %88, 1
  %95 = zext i32 %94 to i64
  %96 = icmp ugt i64 %30, %95
  br i1 %96, label %86, label %85, !llvm.loop !56
}

; Function Attrs: sspstrong uwtable
define weak_odr dso_local void @_ZNK6dealii11Polynomials10PolynomialIfE5printERSo(ptr noundef nonnull align 8 dereferenceable(96) %0, ptr noundef nonnull align 8 dereferenceable(8) %1) local_unnamed_addr #0 comdat align 2 {
  %3 = getelementptr inbounds %"class.dealii::Polynomials::Polynomial", ptr %0, i64 0, i32 1
  %4 = getelementptr inbounds %"class.dealii::Polynomials::Polynomial", ptr %0, i64 0, i32 1, i32 0, i32 0, i32 0, i32 1
  %5 = load ptr, ptr %4, align 8, !tbaa !8
  %6 = load ptr, ptr %3, align 8, !tbaa !12
  %7 = ptrtoint ptr %5 to i64
  %8 = ptrtoint ptr %6 to i64
  %9 = sub i64 %7, %8
  %10 = lshr exact i64 %9, 2
  %11 = trunc i64 %10 to i32
  %12 = add i32 %11, -1
  %13 = icmp sgt i32 %12, -1
  br i1 %13, label %15, label %14

14:                                               ; preds = %45, %2
  ret void

15:                                               ; preds = %2, %45
  %16 = phi i32 [ %49, %45 ], [ %12, %2 ]
  %17 = zext i32 %16 to i64
  %18 = load ptr, ptr %3, align 8, !tbaa !12
  %19 = getelementptr inbounds float, ptr %18, i64 %17
  %20 = load float, ptr %19, align 4, !tbaa !17
  %21 = fpext float %20 to double
  %22 = tail call noundef nonnull align 8 dereferenceable(8) ptr @_ZNSo9_M_insertIdEERSoT_(ptr noundef nonnull align 8 dereferenceable(8) %1, double noundef %21)
  %23 = tail call noundef nonnull align 8 dereferenceable(8) ptr @_ZSt16__ostream_insertIcSt11char_traitsIcEERSt13basic_ostreamIT_T0_ES6_PKS3_l(ptr noundef nonnull align 8 dereferenceable(8) %22, ptr noundef nonnull @.str, i64 noundef 3)
  %24 = tail call noundef nonnull align 8 dereferenceable(8) ptr @_ZNSolsEi(ptr noundef nonnull align 8 dereferenceable(8) %22, i32 noundef %16)
  %25 = load ptr, ptr %24, align 8, !tbaa !5
  %26 = getelementptr i8, ptr %25, i64 -24
  %27 = load i64, ptr %26, align 8
  %28 = getelementptr inbounds i8, ptr %24, i64 %27
  %29 = getelementptr inbounds %"class.std::basic_ios", ptr %28, i64 0, i32 5
  %30 = load ptr, ptr %29, align 8, !tbaa !57
  %31 = icmp eq ptr %30, null
  br i1 %31, label %32, label %33

32:                                               ; preds = %15
  tail call void @_ZSt16__throw_bad_castv() #16
  unreachable

33:                                               ; preds = %15
  %34 = getelementptr inbounds %"class.std::ctype", ptr %30, i64 0, i32 8
  %35 = load i8, ptr %34, align 8, !tbaa !67
  %36 = icmp eq i8 %35, 0
  br i1 %36, label %40, label %37

37:                                               ; preds = %33
  %38 = getelementptr inbounds %"class.std::ctype", ptr %30, i64 0, i32 9, i64 10
  %39 = load i8, ptr %38, align 1, !tbaa !70
  br label %45

40:                                               ; preds = %33
  tail call void @_ZNKSt5ctypeIcE13_M_widen_initEv(ptr noundef nonnull align 8 dereferenceable(570) %30)
  %41 = load ptr, ptr %30, align 8, !tbaa !5
  %42 = getelementptr inbounds ptr, ptr %41, i64 6
  %43 = load ptr, ptr %42, align 8
  %44 = tail call noundef signext i8 %43(ptr noundef nonnull align 8 dereferenceable(570) %30, i8 noundef signext 10)
  br label %45

45:                                               ; preds = %37, %40
  %46 = phi i8 [ %39, %37 ], [ %44, %40 ]
  %47 = tail call noundef nonnull align 8 dereferenceable(8) ptr @_ZNSo3putEc(ptr noundef nonnull align 8 dereferenceable(8) %24, i8 noundef signext %46)
  %48 = tail call noundef nonnull align 8 dereferenceable(8) ptr @_ZNSo5flushEv(ptr noundef nonnull align 8 dereferenceable(8) %47)
  %49 = add nsw i32 %16, -1
  %50 = icmp sgt i32 %16, 0
  br i1 %50, label %15, label %14
}

declare noundef nonnull align 8 dereferenceable(8) ptr @_ZNSolsEi(ptr noundef nonnull align 8 dereferenceable(8), i32 noundef) local_unnamed_addr #1

; Function Attrs: sspstrong uwtable
define weak_odr dso_local void @_ZN6dealii11Polynomials10PolynomialIfE8multiplyERSt6vectorIfSaIfEEf(ptr noundef nonnull align 8 dereferenceable(24) %0, float noundef %1) local_unnamed_addr #0 comdat align 2 {
  %3 = load ptr, ptr %0, align 8, !tbaa !15
  %4 = getelementptr inbounds %"struct.std::_Vector_base<float, std::allocator<float> >::_Vector_impl_data", ptr %0, i64 0, i32 1
  %5 = load ptr, ptr %4, align 8, !tbaa !15
  %6 = icmp eq ptr %3, %5
  br i1 %6, label %48, label %7

7:                                                ; preds = %2
  %8 = ptrtoint ptr %5 to i64
  %9 = ptrtoint ptr %3 to i64
  %10 = add i64 %8, -4
  %11 = sub i64 %10, %9
  %12 = lshr i64 %11, 2
  %13 = add nuw nsw i64 %12, 1
  %14 = icmp ult i64 %11, 124
  br i1 %14, label %46, label %15

15:                                               ; preds = %7
  %16 = and i64 %13, 9223372036854775776
  %17 = shl i64 %16, 2
  %18 = getelementptr i8, ptr %3, i64 %17
  %19 = insertelement <8 x float> poison, float %1, i64 0
  %20 = shufflevector <8 x float> %19, <8 x float> poison, <8 x i32> zeroinitializer
  %21 = insertelement <8 x float> poison, float %1, i64 0
  %22 = shufflevector <8 x float> %21, <8 x float> poison, <8 x i32> zeroinitializer
  %23 = insertelement <8 x float> poison, float %1, i64 0
  %24 = shufflevector <8 x float> %23, <8 x float> poison, <8 x i32> zeroinitializer
  %25 = insertelement <8 x float> poison, float %1, i64 0
  %26 = shufflevector <8 x float> %25, <8 x float> poison, <8 x i32> zeroinitializer
  br label %27

27:                                               ; preds = %27, %15
  %28 = phi i64 [ 0, %15 ], [ %42, %27 ]
  %29 = shl i64 %28, 2
  %30 = getelementptr i8, ptr %3, i64 %29
  %31 = load <8 x float>, ptr %30, align 4, !tbaa !17
  %32 = getelementptr float, ptr %30, i64 8
  %33 = load <8 x float>, ptr %32, align 4, !tbaa !17
  %34 = getelementptr float, ptr %30, i64 16
  %35 = load <8 x float>, ptr %34, align 4, !tbaa !17
  %36 = getelementptr float, ptr %30, i64 24
  %37 = load <8 x float>, ptr %36, align 4, !tbaa !17
  %38 = fmul <8 x float> %31, %20
  %39 = fmul <8 x float> %33, %22
  %40 = fmul <8 x float> %35, %24
  %41 = fmul <8 x float> %37, %26
  store <8 x float> %38, ptr %30, align 4, !tbaa !17
  store <8 x float> %39, ptr %32, align 4, !tbaa !17
  store <8 x float> %40, ptr %34, align 4, !tbaa !17
  store <8 x float> %41, ptr %36, align 4, !tbaa !17
  %42 = add nuw i64 %28, 32
  %43 = icmp eq i64 %42, %16
  br i1 %43, label %44, label %27, !llvm.loop !71

44:                                               ; preds = %27
  %45 = icmp eq i64 %13, %16
  br i1 %45, label %48, label %46

46:                                               ; preds = %7, %44
  %47 = phi ptr [ %3, %7 ], [ %18, %44 ]
  br label %49

48:                                               ; preds = %49, %44, %2
  ret void

49:                                               ; preds = %46, %49
  %50 = phi ptr [ %53, %49 ], [ %47, %46 ]
  %51 = load float, ptr %50, align 4, !tbaa !17
  %52 = fmul float %51, %1
  store float %52, ptr %50, align 4, !tbaa !17
  %53 = getelementptr inbounds float, ptr %50, i64 1
  %54 = icmp eq ptr %53, %5
  br i1 %54, label %48, label %49, !llvm.loop !72
}

; Function Attrs: sspstrong uwtable
define weak_odr dso_local void @_ZN6dealii11Polynomials10PolynomialIdEC2ERKSt6vectorIdSaIdEE(ptr noundef nonnull align 8 dereferenceable(96) %0, ptr noundef nonnull align 8 dereferenceable(24) %1) unnamed_addr #0 comdat($_ZN6dealii11Polynomials10PolynomialIdEC5ERKSt6vectorIdSaIdEE) align 2 personality ptr @__gxx_personality_v0 {
  tail call void @_ZN6dealii11SubscriptorC2Ev(ptr noundef nonnull align 8 dereferenceable(72) %0)
  store ptr getelementptr inbounds ({ [4 x ptr] }, ptr @_ZTVN6dealii11Polynomials10PolynomialIdEE, i64 0, inrange i32 0, i64 2), ptr %0, align 8, !tbaa !5
  %3 = getelementptr inbounds %"class.dealii::Polynomials::Polynomial.19", ptr %0, i64 0, i32 1
  %4 = getelementptr inbounds %"struct.std::_Vector_base<double, std::allocator<double> >::_Vector_impl_data", ptr %1, i64 0, i32 1
  %5 = load ptr, ptr %4, align 8, !tbaa !73
  %6 = load ptr, ptr %1, align 8, !tbaa !75
  %7 = ptrtoint ptr %5 to i64
  %8 = ptrtoint ptr %6 to i64
  %9 = sub i64 %7, %8
  %10 = ashr exact i64 %9, 3
  tail call void @llvm.memset.p0.i64(ptr noundef nonnull align 8 dereferenceable(24) %3, i8 0, i64 24, i1 false)
  %11 = icmp eq ptr %5, %6
  br i1 %11, label %18, label %12

12:                                               ; preds = %2
  %13 = icmp ugt i64 %9, 9223372036854775800
  br i1 %13, label %14, label %16, !prof !13

14:                                               ; preds = %12
  invoke void @_ZSt28__throw_bad_array_new_lengthv() #16
          to label %15 unwind label %37

15:                                               ; preds = %14
  unreachable

16:                                               ; preds = %12
  %17 = invoke noalias noundef nonnull ptr @_Znwm(i64 noundef %9) #17
          to label %18 unwind label %37

18:                                               ; preds = %16, %2
  %19 = phi ptr [ null, %2 ], [ %17, %16 ]
  store ptr %19, ptr %3, align 8, !tbaa !75
  %20 = getelementptr inbounds %"class.dealii::Polynomials::Polynomial.19", ptr %0, i64 0, i32 1, i32 0, i32 0, i32 0, i32 1
  store ptr %19, ptr %20, align 8, !tbaa !73
  %21 = getelementptr inbounds double, ptr %19, i64 %10
  %22 = getelementptr inbounds %"class.dealii::Polynomials::Polynomial.19", ptr %0, i64 0, i32 1, i32 0, i32 0, i32 0, i32 2
  store ptr %21, ptr %22, align 8, !tbaa !76
  %23 = load ptr, ptr %1, align 8, !tbaa !15
  %24 = load ptr, ptr %4, align 8, !tbaa !15
  %25 = ptrtoint ptr %24 to i64
  %26 = ptrtoint ptr %23 to i64
  %27 = sub i64 %25, %26
  %28 = icmp sgt i64 %27, 8
  br i1 %28, label %29, label %30, !prof !16

29:                                               ; preds = %18
  tail call void @llvm.memmove.p0.p0.i64(ptr align 8 %19, ptr align 8 %23, i64 %27, i1 false)
  br label %34

30:                                               ; preds = %18
  %31 = icmp eq i64 %27, 8
  br i1 %31, label %32, label %34

32:                                               ; preds = %30
  %33 = load double, ptr %23, align 8, !tbaa !77
  store double %33, ptr %19, align 8, !tbaa !77
  br label %34

34:                                               ; preds = %32, %30, %29
  %35 = ashr exact i64 %27, 3
  %36 = getelementptr inbounds double, ptr %19, i64 %35
  store ptr %36, ptr %20, align 8, !tbaa !73
  ret void

37:                                               ; preds = %16, %14
  %38 = landingpad { ptr, i32 }
          cleanup
  invoke void @_ZN6dealii11SubscriptorD2Ev(ptr noundef nonnull align 8 dereferenceable(72) %0)
          to label %39 unwind label %40

39:                                               ; preds = %37
  resume { ptr, i32 } %38

40:                                               ; preds = %37
  %41 = landingpad { ptr, i32 }
          catch ptr null
  %42 = extractvalue { ptr, i32 } %41, 0
  tail call void @__clang_call_terminate(ptr %42) #18
  unreachable
}

; Function Attrs: inlinehint sspstrong uwtable
define weak_odr dso_local void @_ZN6dealii11Polynomials10PolynomialIdEC2Ev(ptr noundef nonnull align 8 dereferenceable(96) %0) unnamed_addr #3 comdat($_ZN6dealii11Polynomials10PolynomialIdEC5Ev) align 2 personality ptr @__gxx_personality_v0 {
  tail call void @_ZN6dealii11SubscriptorC2Ev(ptr noundef nonnull align 8 dereferenceable(72) %0)
  store ptr getelementptr inbounds ({ [4 x ptr] }, ptr @_ZTVN6dealii11Polynomials10PolynomialIdEE, i64 0, inrange i32 0, i64 2), ptr %0, align 8, !tbaa !5
  %2 = getelementptr inbounds %"class.dealii::Polynomials::Polynomial.19", ptr %0, i64 0, i32 1
  tail call void @llvm.memset.p0.i64(ptr noundef nonnull align 8 dereferenceable(24) %2, i8 0, i64 24, i1 false)
  ret void
}

; Function Attrs: sspstrong uwtable
define weak_odr dso_local noundef double @_ZNK6dealii11Polynomials10PolynomialIdE5valueEd(ptr noundef nonnull align 8 dereferenceable(96) %0, double noundef %1) local_unnamed_addr #0 comdat align 2 {
  %3 = getelementptr inbounds %"class.dealii::Polynomials::Polynomial.19", ptr %0, i64 0, i32 1
  %4 = getelementptr inbounds %"class.dealii::Polynomials::Polynomial.19", ptr %0, i64 0, i32 1, i32 0, i32 0, i32 0, i32 1
  %5 = load ptr, ptr %4, align 8, !tbaa !15
  %6 = load ptr, ptr %3, align 8, !tbaa !75
  %7 = ptrtoint ptr %5 to i64
  %8 = ptrtoint ptr %6 to i64
  %9 = sub i64 %7, %8
  %10 = lshr exact i64 %9, 3
  %11 = trunc i64 %10 to i32
  %12 = getelementptr inbounds double, ptr %5, i64 -1
  %13 = load double, ptr %12, align 8, !tbaa !77
  %14 = add i32 %11, -2
  %15 = icmp sgt i32 %14, -1
  br i1 %15, label %16, label %36

16:                                               ; preds = %2
  %17 = zext i32 %14 to i64
  %18 = add nuw nsw i64 %17, 1
  %19 = and i64 %18, 3
  %20 = icmp eq i64 %19, 0
  br i1 %20, label %31, label %21

21:                                               ; preds = %16, %21
  %22 = phi i64 [ %28, %21 ], [ %17, %16 ]
  %23 = phi double [ %27, %21 ], [ %13, %16 ]
  %24 = phi i64 [ %29, %21 ], [ 0, %16 ]
  %25 = getelementptr inbounds double, ptr %6, i64 %22
  %26 = load double, ptr %25, align 8, !tbaa !77
  %27 = tail call double @llvm.fmuladd.f64(double %23, double %1, double %26)
  %28 = add nsw i64 %22, -1
  %29 = add i64 %24, 1
  %30 = icmp eq i64 %29, %19
  br i1 %30, label %31, label %21, !llvm.loop !79

31:                                               ; preds = %21, %16
  %32 = phi double [ undef, %16 ], [ %27, %21 ]
  %33 = phi i64 [ %17, %16 ], [ %28, %21 ]
  %34 = phi double [ %13, %16 ], [ %27, %21 ]
  %35 = icmp ult i32 %14, 3
  br i1 %35, label %36, label %38

36:                                               ; preds = %31, %38, %2
  %37 = phi double [ %13, %2 ], [ %32, %31 ], [ %55, %38 ]
  ret double %37

38:                                               ; preds = %31, %38
  %39 = phi i64 [ %56, %38 ], [ %33, %31 ]
  %40 = phi double [ %55, %38 ], [ %34, %31 ]
  %41 = getelementptr inbounds double, ptr %6, i64 %39
  %42 = load double, ptr %41, align 8, !tbaa !77
  %43 = tail call double @llvm.fmuladd.f64(double %40, double %1, double %42)
  %44 = add nsw i64 %39, -1
  %45 = getelementptr inbounds double, ptr %6, i64 %44
  %46 = load double, ptr %45, align 8, !tbaa !77
  %47 = tail call double @llvm.fmuladd.f64(double %43, double %1, double %46)
  %48 = add nsw i64 %39, -2
  %49 = getelementptr inbounds double, ptr %6, i64 %48
  %50 = load double, ptr %49, align 8, !tbaa !77
  %51 = tail call double @llvm.fmuladd.f64(double %47, double %1, double %50)
  %52 = add nsw i64 %39, -3
  %53 = getelementptr inbounds double, ptr %6, i64 %52
  %54 = load double, ptr %53, align 8, !tbaa !77
  %55 = tail call double @llvm.fmuladd.f64(double %51, double %1, double %54)
  %56 = add nsw i64 %39, -4
  %57 = icmp eq i64 %52, 0
  br i1 %57, label %36, label %38
}

; Function Attrs: mustprogress nocallback nofree nosync nounwind speculatable willreturn memory(none)
declare double @llvm.fmuladd.f64(double, double, double) #5

; Function Attrs: sspstrong uwtable
define weak_odr dso_local void @_ZNK6dealii11Polynomials10PolynomialIdE5valueEdRSt6vectorIdSaIdEE(ptr noundef nonnull align 8 dereferenceable(96) %0, double noundef %1, ptr noundef nonnull align 8 dereferenceable(24) %2) local_unnamed_addr #0 comdat align 2 personality ptr @__gxx_personality_v0 {
  %4 = getelementptr inbounds %"struct.std::_Vector_base<double, std::allocator<double> >::_Vector_impl_data", ptr %2, i64 0, i32 1
  %5 = load ptr, ptr %4, align 8, !tbaa !73
  %6 = load ptr, ptr %2, align 8, !tbaa !75
  %7 = ptrtoint ptr %5 to i64
  %8 = ptrtoint ptr %6 to i64
  %9 = sub i64 %7, %8
  %10 = lshr exact i64 %9, 3
  %11 = trunc i64 %10 to i32
  %12 = icmp eq i32 %11, 1
  %13 = getelementptr inbounds %"class.dealii::Polynomials::Polynomial.19", ptr %0, i64 0, i32 1
  %14 = getelementptr inbounds %"class.dealii::Polynomials::Polynomial.19", ptr %0, i64 0, i32 1, i32 0, i32 0, i32 0, i32 1
  %15 = load ptr, ptr %14, align 8, !tbaa !15
  %16 = load ptr, ptr %13, align 8, !tbaa !15
  %17 = ptrtoint ptr %15 to i64
  %18 = ptrtoint ptr %16 to i64
  %19 = sub i64 %17, %18
  %20 = lshr exact i64 %19, 3
  %21 = trunc i64 %20 to i32
  br i1 %12, label %22, label %69

22:                                               ; preds = %3
  %23 = getelementptr inbounds double, ptr %15, i64 -1
  %24 = load double, ptr %23, align 8, !tbaa !77
  %25 = add i32 %21, -2
  %26 = icmp sgt i32 %25, -1
  br i1 %26, label %27, label %67

27:                                               ; preds = %22
  %28 = zext i32 %25 to i64
  %29 = add nuw nsw i64 %28, 1
  %30 = and i64 %29, 3
  %31 = icmp eq i64 %30, 0
  br i1 %31, label %42, label %32

32:                                               ; preds = %27, %32
  %33 = phi i64 [ %39, %32 ], [ %28, %27 ]
  %34 = phi double [ %38, %32 ], [ %24, %27 ]
  %35 = phi i64 [ %40, %32 ], [ 0, %27 ]
  %36 = getelementptr inbounds double, ptr %16, i64 %33
  %37 = load double, ptr %36, align 8, !tbaa !77
  %38 = tail call double @llvm.fmuladd.f64(double %34, double %1, double %37)
  %39 = add nsw i64 %33, -1
  %40 = add i64 %35, 1
  %41 = icmp eq i64 %40, %30
  br i1 %41, label %42, label %32, !llvm.loop !80

42:                                               ; preds = %32, %27
  %43 = phi double [ undef, %27 ], [ %38, %32 ]
  %44 = phi i64 [ %28, %27 ], [ %39, %32 ]
  %45 = phi double [ %24, %27 ], [ %38, %32 ]
  %46 = icmp ult i32 %25, 3
  br i1 %46, label %67, label %47

47:                                               ; preds = %42, %47
  %48 = phi i64 [ %65, %47 ], [ %44, %42 ]
  %49 = phi double [ %64, %47 ], [ %45, %42 ]
  %50 = getelementptr inbounds double, ptr %16, i64 %48
  %51 = load double, ptr %50, align 8, !tbaa !77
  %52 = tail call double @llvm.fmuladd.f64(double %49, double %1, double %51)
  %53 = add nsw i64 %48, -1
  %54 = getelementptr inbounds double, ptr %16, i64 %53
  %55 = load double, ptr %54, align 8, !tbaa !77
  %56 = tail call double @llvm.fmuladd.f64(double %52, double %1, double %55)
  %57 = add nsw i64 %48, -2
  %58 = getelementptr inbounds double, ptr %16, i64 %57
  %59 = load double, ptr %58, align 8, !tbaa !77
  %60 = tail call double @llvm.fmuladd.f64(double %56, double %1, double %59)
  %61 = add nsw i64 %48, -3
  %62 = getelementptr inbounds double, ptr %16, i64 %61
  %63 = load double, ptr %62, align 8, !tbaa !77
  %64 = tail call double @llvm.fmuladd.f64(double %60, double %1, double %63)
  %65 = add nsw i64 %48, -4
  %66 = icmp eq i64 %61, 0
  br i1 %66, label %67, label %47

67:                                               ; preds = %42, %47, %22
  %68 = phi double [ %24, %22 ], [ %43, %42 ], [ %64, %47 ]
  store double %68, ptr %6, align 8, !tbaa !77
  br label %163

69:                                               ; preds = %3
  %70 = icmp eq ptr %15, %16
  br i1 %70, label %76, label %71

71:                                               ; preds = %69
  %72 = icmp ugt i64 %19, 9223372036854775800
  br i1 %72, label %73, label %74, !prof !13

73:                                               ; preds = %71
  tail call void @_ZSt28__throw_bad_array_new_lengthv() #16
  unreachable

74:                                               ; preds = %71
  %75 = tail call noalias noundef nonnull ptr @_Znwm(i64 noundef %19) #17
  br label %76

76:                                               ; preds = %74, %69
  %77 = phi ptr [ null, %69 ], [ %75, %74 ]
  %78 = icmp sgt i64 %19, 8
  br i1 %78, label %79, label %80, !prof !16

79:                                               ; preds = %76
  tail call void @llvm.memmove.p0.p0.i64(ptr align 8 %77, ptr align 8 %16, i64 %19, i1 false)
  br label %84

80:                                               ; preds = %76
  %81 = icmp eq i64 %19, 8
  br i1 %81, label %82, label %84

82:                                               ; preds = %80
  %83 = load double, ptr %16, align 8, !tbaa !77
  store double %83, ptr %77, align 8, !tbaa !77
  br label %84

84:                                               ; preds = %79, %80, %82
  %85 = tail call i32 @llvm.umin.i32(i32 %21, i32 %11)
  %86 = icmp eq i32 %85, 0
  br i1 %86, label %94, label %87

87:                                               ; preds = %84
  %88 = add i32 %21, -2
  %89 = sext i32 %88 to i64
  %90 = shl nsw i64 %89, 3
  %91 = add nsw i64 %90, 8
  %92 = getelementptr i8, ptr %77, i64 %91
  %93 = add nsw i64 %89, 1
  br label %104

94:                                               ; preds = %130, %84
  %95 = icmp ugt i32 %11, %21
  br i1 %95, label %96, label %160

96:                                               ; preds = %94
  %97 = and i64 %19, 34359738360
  %98 = getelementptr i8, ptr %6, i64 %97
  %99 = xor i32 %85, -1
  %100 = add i32 %99, %11
  %101 = zext i32 %100 to i64
  %102 = shl nuw nsw i64 %101, 3
  %103 = add nuw nsw i64 %102, 8
  tail call void @llvm.memset.p0.i64(ptr noundef nonnull align 8 dereferenceable(1) %98, i8 0, i64 %103, i1 false), !tbaa !77
  br label %160

104:                                              ; preds = %87, %130
  %105 = phi i32 [ 0, %87 ], [ %137, %130 ]
  %106 = phi i32 [ 1, %87 ], [ %138, %130 ]
  %107 = sext i32 %105 to i64
  %108 = sub nsw i64 %89, %107
  %109 = icmp slt i32 %88, %105
  br i1 %109, label %130, label %110

110:                                              ; preds = %104
  %111 = sub nsw i64 %93, %107
  %112 = sext i32 %105 to i64
  %113 = load double, ptr %92, align 8
  %114 = and i64 %111, 3
  %115 = icmp eq i64 %114, 0
  br i1 %115, label %126, label %116

116:                                              ; preds = %110, %116
  %117 = phi double [ %122, %116 ], [ %113, %110 ]
  %118 = phi i64 [ %123, %116 ], [ %89, %110 ]
  %119 = phi i64 [ %124, %116 ], [ 0, %110 ]
  %120 = getelementptr inbounds double, ptr %77, i64 %118
  %121 = load double, ptr %120, align 8, !tbaa !77
  %122 = tail call double @llvm.fmuladd.f64(double %1, double %117, double %121)
  store double %122, ptr %120, align 8, !tbaa !77
  %123 = add nsw i64 %118, -1
  %124 = add i64 %119, 1
  %125 = icmp eq i64 %124, %114
  br i1 %125, label %126, label %116, !llvm.loop !81

126:                                              ; preds = %116, %110
  %127 = phi double [ %113, %110 ], [ %122, %116 ]
  %128 = phi i64 [ %89, %110 ], [ %123, %116 ]
  %129 = icmp ult i64 %108, 3
  br i1 %129, label %130, label %140

130:                                              ; preds = %126, %140, %104
  %131 = uitofp i32 %106 to double
  %132 = zext i32 %105 to i64
  %133 = getelementptr inbounds double, ptr %77, i64 %132
  %134 = load double, ptr %133, align 8, !tbaa !77
  %135 = fmul double %134, %131
  %136 = getelementptr inbounds double, ptr %6, i64 %132
  store double %135, ptr %136, align 8, !tbaa !77
  %137 = add nuw i32 %105, 1
  %138 = mul i32 %137, %106
  %139 = icmp eq i32 %137, %85
  br i1 %139, label %94, label %104

140:                                              ; preds = %126, %140
  %141 = phi double [ %157, %140 ], [ %127, %126 ]
  %142 = phi i64 [ %158, %140 ], [ %128, %126 ]
  %143 = getelementptr inbounds double, ptr %77, i64 %142
  %144 = load double, ptr %143, align 8, !tbaa !77
  %145 = tail call double @llvm.fmuladd.f64(double %1, double %141, double %144)
  store double %145, ptr %143, align 8, !tbaa !77
  %146 = add nsw i64 %142, -1
  %147 = getelementptr inbounds double, ptr %77, i64 %146
  %148 = load double, ptr %147, align 8, !tbaa !77
  %149 = tail call double @llvm.fmuladd.f64(double %1, double %145, double %148)
  store double %149, ptr %147, align 8, !tbaa !77
  %150 = add nsw i64 %142, -2
  %151 = getelementptr inbounds double, ptr %77, i64 %150
  %152 = load double, ptr %151, align 8, !tbaa !77
  %153 = tail call double @llvm.fmuladd.f64(double %1, double %149, double %152)
  store double %153, ptr %151, align 8, !tbaa !77
  %154 = add nsw i64 %142, -3
  %155 = getelementptr inbounds double, ptr %77, i64 %154
  %156 = load double, ptr %155, align 8, !tbaa !77
  %157 = tail call double @llvm.fmuladd.f64(double %1, double %153, double %156)
  store double %157, ptr %155, align 8, !tbaa !77
  %158 = add nsw i64 %142, -4
  %159 = icmp sgt i64 %154, %112
  br i1 %159, label %140, label %130

160:                                              ; preds = %96, %94
  %161 = icmp eq ptr %77, null
  br i1 %161, label %163, label %162

162:                                              ; preds = %160
  tail call void @_ZdlPv(ptr noundef nonnull %77) #20
  br label %163

163:                                              ; preds = %162, %160, %67
  ret void
}

; Function Attrs: inlinehint sspstrong uwtable
define weak_odr dso_local noundef i32 @_ZNK6dealii11Polynomials10PolynomialIdE6degreeEv(ptr noundef nonnull align 8 dereferenceable(96) %0) local_unnamed_addr #3 comdat align 2 {
  %2 = getelementptr inbounds %"class.dealii::Polynomials::Polynomial.19", ptr %0, i64 0, i32 1
  %3 = getelementptr inbounds %"class.dealii::Polynomials::Polynomial.19", ptr %0, i64 0, i32 1, i32 0, i32 0, i32 0, i32 1
  %4 = load ptr, ptr %3, align 8, !tbaa !73
  %5 = load ptr, ptr %2, align 8, !tbaa !75
  %6 = ptrtoint ptr %4 to i64
  %7 = ptrtoint ptr %5 to i64
  %8 = sub i64 %6, %7
  %9 = lshr exact i64 %8, 3
  %10 = trunc i64 %9 to i32
  %11 = add i32 %10, -1
  ret i32 %11
}

; Function Attrs: sspstrong uwtable
define weak_odr dso_local void @_ZN6dealii11Polynomials10PolynomialIdE5scaleEd(ptr noundef nonnull align 8 dereferenceable(96) %0, double noundef %1) local_unnamed_addr #0 comdat align 2 {
  %3 = getelementptr inbounds %"class.dealii::Polynomials::Polynomial.19", ptr %0, i64 0, i32 1
  %4 = load ptr, ptr %3, align 8, !tbaa !15
  %5 = getelementptr inbounds %"class.dealii::Polynomials::Polynomial.19", ptr %0, i64 0, i32 1, i32 0, i32 0, i32 0, i32 1
  %6 = load ptr, ptr %5, align 8, !tbaa !15
  %7 = icmp eq ptr %4, %6
  br i1 %7, label %16, label %8

8:                                                ; preds = %2, %8
  %9 = phi double [ %13, %8 ], [ 1.000000e+00, %2 ]
  %10 = phi ptr [ %14, %8 ], [ %4, %2 ]
  %11 = load double, ptr %10, align 8, !tbaa !77
  %12 = fmul double %9, %11
  store double %12, ptr %10, align 8, !tbaa !77
  %13 = fmul double %9, %1
  %14 = getelementptr inbounds double, ptr %10, i64 1
  %15 = icmp eq ptr %14, %6
  br i1 %15, label %16, label %8

16:                                               ; preds = %8, %2
  ret void
}

; Function Attrs: sspstrong uwtable
define weak_odr dso_local void @_ZN6dealii11Polynomials10PolynomialIdE5scaleERSt6vectorIdSaIdEEd(ptr noundef nonnull align 8 dereferenceable(24) %0, double noundef %1) local_unnamed_addr #0 comdat align 2 {
  %3 = load ptr, ptr %0, align 8, !tbaa !15
  %4 = getelementptr inbounds %"struct.std::_Vector_base<double, std::allocator<double> >::_Vector_impl_data", ptr %0, i64 0, i32 1
  %5 = load ptr, ptr %4, align 8, !tbaa !15
  %6 = icmp eq ptr %3, %5
  br i1 %6, label %7, label %8

7:                                                ; preds = %8, %2
  ret void

8:                                                ; preds = %2, %8
  %9 = phi double [ %13, %8 ], [ 1.000000e+00, %2 ]
  %10 = phi ptr [ %14, %8 ], [ %3, %2 ]
  %11 = load double, ptr %10, align 8, !tbaa !77
  %12 = fmul double %9, %11
  store double %12, ptr %10, align 8, !tbaa !77
  %13 = fmul double %9, %1
  %14 = getelementptr inbounds double, ptr %10, i64 1
  %15 = icmp eq ptr %14, %5
  br i1 %15, label %7, label %8
}

; Function Attrs: sspstrong uwtable
define weak_odr dso_local void @_ZNK6dealii11Polynomials10PolynomialIdE10derivativeEv(ptr noalias sret(%"class.dealii::Polynomials::Polynomial.19") align 8 %0, ptr noundef nonnull align 8 dereferenceable(96) %1) local_unnamed_addr #0 comdat align 2 personality ptr @__gxx_personality_v0 {
  %3 = alloca %"class.std::vector.20", align 8
  %4 = alloca %"class.dealii::Polynomials::Monomial.25", align 8
  %5 = alloca %"class.std::vector.20", align 8
  %6 = getelementptr inbounds %"class.dealii::Polynomials::Polynomial.19", ptr %1, i64 0, i32 1
  %7 = getelementptr inbounds %"class.dealii::Polynomials::Polynomial.19", ptr %1, i64 0, i32 1, i32 0, i32 0, i32 0, i32 1
  %8 = load ptr, ptr %7, align 8, !tbaa !73
  %9 = load ptr, ptr %6, align 8, !tbaa !75
  %10 = ptrtoint ptr %8 to i64
  %11 = ptrtoint ptr %9 to i64
  %12 = sub i64 %10, %11
  %13 = and i64 %12, 34359738360
  %14 = icmp eq i64 %13, 8
  br i1 %14, label %15, label %75

15:                                               ; preds = %2
  call void @llvm.lifetime.start.p0(i64 96, ptr nonnull %4) #19
  call void @llvm.lifetime.start.p0(i64 24, ptr nonnull %3) #19
  tail call void @llvm.experimental.noalias.scope.decl(metadata !82)
  %16 = tail call noalias noundef nonnull dereferenceable(8) ptr @_Znwm(i64 noundef 8) #17, !noalias !82
  store ptr %16, ptr %3, align 8, !tbaa !75, !alias.scope !82
  %17 = getelementptr inbounds double, ptr %16, i64 1
  %18 = getelementptr inbounds %"struct.std::_Vector_base<double, std::allocator<double> >::_Vector_impl_data", ptr %3, i64 0, i32 2
  store ptr %17, ptr %18, align 8, !tbaa !76, !alias.scope !82
  %19 = getelementptr inbounds %"struct.std::_Vector_base<double, std::allocator<double> >::_Vector_impl_data", ptr %3, i64 0, i32 1
  store ptr %17, ptr %19, align 8, !tbaa !73, !alias.scope !82
  store double 0.000000e+00, ptr %16, align 8, !tbaa !77, !noalias !82
  invoke void @_ZN6dealii11Polynomials10PolynomialIdEC2ERKSt6vectorIdSaIdEE(ptr noundef nonnull align 8 dereferenceable(96) %4, ptr noundef nonnull align 8 dereferenceable(24) %3)
          to label %20 unwind label %24

20:                                               ; preds = %15
  %21 = load ptr, ptr %3, align 8, !tbaa !75
  %22 = icmp eq ptr %21, null
  br i1 %22, label %32, label %23

23:                                               ; preds = %20
  call void @_ZdlPv(ptr noundef nonnull %21) #20
  br label %32

24:                                               ; preds = %15
  %25 = landingpad { ptr, i32 }
          cleanup
  %26 = load ptr, ptr %3, align 8, !tbaa !75
  %27 = icmp eq ptr %26, null
  br i1 %27, label %31, label %28

28:                                               ; preds = %24
  call void @_ZdlPv(ptr noundef nonnull %26) #20
  br label %31

29:                                               ; preds = %74, %180, %31
  %30 = phi { ptr, i32 } [ %25, %31 ], [ %73, %74 ], [ %181, %180 ]
  resume { ptr, i32 } %30

31:                                               ; preds = %28, %24
  call void @llvm.lifetime.end.p0(i64 24, ptr nonnull %3) #19
  br label %29

32:                                               ; preds = %20, %23
  call void @llvm.lifetime.end.p0(i64 24, ptr nonnull %3) #19
  store ptr getelementptr inbounds ({ [4 x ptr] }, ptr @_ZTVN6dealii11Polynomials8MonomialIdEE, i64 0, inrange i32 0, i64 2), ptr %4, align 8, !tbaa !5
  invoke void @_ZN6dealii11SubscriptorC2ERKS0_(ptr noundef nonnull align 8 dereferenceable(72) %0, ptr noundef nonnull align 8 dereferenceable(72) %4)
          to label %33 unwind label %70

33:                                               ; preds = %32
  store ptr getelementptr inbounds ({ [4 x ptr] }, ptr @_ZTVN6dealii11Polynomials10PolynomialIdEE, i64 0, inrange i32 0, i64 2), ptr %0, align 8, !tbaa !5
  %34 = getelementptr inbounds %"class.dealii::Polynomials::Polynomial.19", ptr %0, i64 0, i32 1
  %35 = getelementptr inbounds %"class.dealii::Polynomials::Polynomial.19", ptr %4, i64 0, i32 1
  %36 = getelementptr inbounds %"class.dealii::Polynomials::Polynomial.19", ptr %4, i64 0, i32 1, i32 0, i32 0, i32 0, i32 1
  %37 = load ptr, ptr %36, align 8, !tbaa !15
  %38 = load ptr, ptr %35, align 8, !tbaa !15
  %39 = ptrtoint ptr %37 to i64
  %40 = ptrtoint ptr %38 to i64
  %41 = sub i64 %39, %40
  %42 = ashr exact i64 %41, 3
  call void @llvm.memset.p0.i64(ptr noundef nonnull align 8 dereferenceable(24) %34, i8 0, i64 24, i1 false)
  %43 = icmp eq ptr %37, %38
  br i1 %43, label %50, label %44

44:                                               ; preds = %33
  %45 = icmp ugt i64 %41, 9223372036854775800
  br i1 %45, label %46, label %48, !prof !13

46:                                               ; preds = %44
  invoke void @_ZSt28__throw_bad_array_new_lengthv() #16
          to label %47 unwind label %61

47:                                               ; preds = %46
  unreachable

48:                                               ; preds = %44
  %49 = invoke noalias noundef nonnull ptr @_Znwm(i64 noundef %41) #17
          to label %50 unwind label %61

50:                                               ; preds = %48, %33
  %51 = phi ptr [ null, %33 ], [ %49, %48 ]
  store ptr %51, ptr %34, align 8, !tbaa !75
  %52 = getelementptr inbounds %"class.dealii::Polynomials::Polynomial.19", ptr %0, i64 0, i32 1, i32 0, i32 0, i32 0, i32 1
  store ptr %51, ptr %52, align 8, !tbaa !73
  %53 = getelementptr inbounds double, ptr %51, i64 %42
  %54 = getelementptr inbounds %"class.dealii::Polynomials::Polynomial.19", ptr %0, i64 0, i32 1, i32 0, i32 0, i32 0, i32 2
  store ptr %53, ptr %54, align 8, !tbaa !76
  %55 = icmp sgt i64 %41, 8
  br i1 %55, label %56, label %57, !prof !16

56:                                               ; preds = %50
  call void @llvm.memmove.p0.p0.i64(ptr align 8 %51, ptr align 8 %38, i64 %41, i1 false)
  br label %66

57:                                               ; preds = %50
  %58 = icmp eq i64 %41, 8
  br i1 %58, label %59, label %66

59:                                               ; preds = %57
  %60 = load double, ptr %38, align 8, !tbaa !77
  store double %60, ptr %51, align 8, !tbaa !77
  store ptr %53, ptr %52, align 8, !tbaa !73
  store ptr getelementptr inbounds ({ [4 x ptr] }, ptr @_ZTVN6dealii11Polynomials10PolynomialIdEE, i64 0, inrange i32 0, i64 2), ptr %4, align 8, !tbaa !5
  br label %68

61:                                               ; preds = %48, %46
  %62 = landingpad { ptr, i32 }
          cleanup
  invoke void @_ZN6dealii11SubscriptorD2Ev(ptr noundef nonnull align 8 dereferenceable(72) %0)
          to label %72 unwind label %63

63:                                               ; preds = %61
  %64 = landingpad { ptr, i32 }
          catch ptr null
  %65 = extractvalue { ptr, i32 } %64, 0
  call void @__clang_call_terminate(ptr %65) #18
  unreachable

66:                                               ; preds = %57, %56
  store ptr %53, ptr %52, align 8, !tbaa !73
  store ptr getelementptr inbounds ({ [4 x ptr] }, ptr @_ZTVN6dealii11Polynomials10PolynomialIdEE, i64 0, inrange i32 0, i64 2), ptr %4, align 8, !tbaa !5
  %67 = icmp eq ptr %38, null
  br i1 %67, label %69, label %68

68:                                               ; preds = %59, %66
  call void @_ZdlPv(ptr noundef nonnull %38) #20
  br label %69

69:                                               ; preds = %66, %68
  call void @_ZN6dealii11SubscriptorD2Ev(ptr noundef nonnull align 8 dereferenceable(72) %4)
  call void @llvm.lifetime.end.p0(i64 96, ptr nonnull %4) #19
  br label %182

70:                                               ; preds = %32
  %71 = landingpad { ptr, i32 }
          cleanup
  br label %72

72:                                               ; preds = %61, %70
  %73 = phi { ptr, i32 } [ %71, %70 ], [ %62, %61 ]
  invoke void @_ZN6dealii11Polynomials10PolynomialIdED2Ev(ptr noundef nonnull align 8 dereferenceable(96) %4)
          to label %74 unwind label %183

74:                                               ; preds = %72
  call void @llvm.lifetime.end.p0(i64 96, ptr nonnull %4) #19
  br label %29

75:                                               ; preds = %2
  call void @llvm.lifetime.start.p0(i64 24, ptr nonnull %5) #19
  %76 = ashr exact i64 %12, 3
  %77 = add nsw i64 %76, -1
  %78 = icmp ugt i64 %77, 1152921504606846975
  br i1 %78, label %79, label %81

79:                                               ; preds = %75
  invoke void @_ZSt20__throw_length_errorPKc(ptr noundef nonnull @.str.12) #16
          to label %80 unwind label %155

80:                                               ; preds = %79
  unreachable

81:                                               ; preds = %75
  %82 = icmp eq i64 %77, 0
  br i1 %82, label %83, label %84

83:                                               ; preds = %81
  call void @llvm.memset.p0.i64(ptr noundef nonnull align 8 dereferenceable(24) %5, i8 0, i64 24, i1 false)
  br label %92

84:                                               ; preds = %81
  %85 = shl nuw nsw i64 %77, 3
  %86 = invoke noalias noundef nonnull ptr @_Znwm(i64 noundef %85) #17
          to label %87 unwind label %155

87:                                               ; preds = %84
  store ptr %86, ptr %5, align 8, !tbaa !75
  %88 = getelementptr inbounds double, ptr %86, i64 %77
  %89 = getelementptr inbounds %"struct.std::_Vector_base<double, std::allocator<double> >::_Vector_impl_data", ptr %5, i64 0, i32 2
  store ptr %88, ptr %89, align 8, !tbaa !76
  %90 = and i64 %12, -8
  %91 = add i64 %90, -8
  tail call void @llvm.memset.p0.i64(ptr nonnull align 8 %86, i8 0, i64 %91, i1 false), !tbaa !77
  br label %92

92:                                               ; preds = %87, %83
  %93 = phi ptr [ null, %83 ], [ %86, %87 ]
  %94 = phi ptr [ null, %83 ], [ %88, %87 ]
  %95 = ptrtoint ptr %93 to i64
  %96 = getelementptr inbounds %"struct.std::_Vector_base<double, std::allocator<double> >::_Vector_impl_data", ptr %5, i64 0, i32 1
  store ptr %94, ptr %96, align 8, !tbaa !73
  %97 = icmp ugt i64 %12, 8
  br i1 %97, label %98, label %154

98:                                               ; preds = %92
  %99 = tail call i64 @llvm.umax.i64(i64 %76, i64 2)
  %100 = add i64 %99, -1
  %101 = icmp ult i64 %99, 29
  br i1 %101, label %151, label %102

102:                                              ; preds = %98
  %103 = tail call i64 @llvm.umax.i64(i64 %76, i64 2)
  %104 = add i64 %103, -2
  %105 = and i64 %104, 4294967294
  %106 = icmp eq i64 %105, 4294967294
  %107 = icmp ugt i64 %104, 4294967295
  %108 = or i1 %106, %107
  br i1 %108, label %151, label %109

109:                                              ; preds = %102
  %110 = add i64 %11, 8
  %111 = sub i64 %95, %110
  %112 = icmp ult i64 %111, 128
  br i1 %112, label %151, label %113

113:                                              ; preds = %109
  %114 = and i64 %100, -16
  %115 = or i64 %114, 1
  %116 = trunc i64 %114 to i32
  %117 = or i32 %116, 1
  br label %118

118:                                              ; preds = %118, %113
  %119 = phi i64 [ 0, %113 ], [ %146, %118 ]
  %120 = phi <4 x i32> [ <i32 1, i32 2, i32 3, i32 4>, %113 ], [ %147, %118 ]
  %121 = add <4 x i32> %120, <i32 4, i32 4, i32 4, i32 4>
  %122 = add <4 x i32> %120, <i32 8, i32 8, i32 8, i32 8>
  %123 = add <4 x i32> %120, <i32 12, i32 12, i32 12, i32 12>
  %124 = or i64 %119, 1
  %125 = uitofp <4 x i32> %120 to <4 x double>
  %126 = uitofp <4 x i32> %121 to <4 x double>
  %127 = uitofp <4 x i32> %122 to <4 x double>
  %128 = uitofp <4 x i32> %123 to <4 x double>
  %129 = getelementptr inbounds double, ptr %9, i64 %124
  %130 = load <4 x double>, ptr %129, align 8, !tbaa !77
  %131 = getelementptr inbounds double, ptr %129, i64 4
  %132 = load <4 x double>, ptr %131, align 8, !tbaa !77
  %133 = getelementptr inbounds double, ptr %129, i64 8
  %134 = load <4 x double>, ptr %133, align 8, !tbaa !77
  %135 = getelementptr inbounds double, ptr %129, i64 12
  %136 = load <4 x double>, ptr %135, align 8, !tbaa !77
  %137 = fmul <4 x double> %130, %125
  %138 = fmul <4 x double> %132, %126
  %139 = fmul <4 x double> %134, %127
  %140 = fmul <4 x double> %136, %128
  %141 = and i64 %119, 4294967280
  %142 = getelementptr inbounds double, ptr %93, i64 %141
  store <4 x double> %137, ptr %142, align 8, !tbaa !77
  %143 = getelementptr inbounds double, ptr %142, i64 4
  store <4 x double> %138, ptr %143, align 8, !tbaa !77
  %144 = getelementptr inbounds double, ptr %142, i64 8
  store <4 x double> %139, ptr %144, align 8, !tbaa !77
  %145 = getelementptr inbounds double, ptr %142, i64 12
  store <4 x double> %140, ptr %145, align 8, !tbaa !77
  %146 = add nuw i64 %119, 16
  %147 = add <4 x i32> %120, <i32 16, i32 16, i32 16, i32 16>
  %148 = icmp eq i64 %146, %114
  br i1 %148, label %149, label %118, !llvm.loop !85

149:                                              ; preds = %118
  %150 = icmp eq i64 %100, %114
  br i1 %150, label %154, label %151

151:                                              ; preds = %109, %102, %98, %149
  %152 = phi i64 [ 1, %109 ], [ 1, %102 ], [ 1, %98 ], [ %115, %149 ]
  %153 = phi i32 [ 1, %109 ], [ 1, %102 ], [ 1, %98 ], [ %117, %149 ]
  br label %157

154:                                              ; preds = %157, %149, %92
  invoke void @_ZN6dealii11Polynomials10PolynomialIdEC2ERKSt6vectorIdSaIdEE(ptr noundef nonnull align 8 dereferenceable(96) %0, ptr noundef nonnull align 8 dereferenceable(24) %5)
          to label %170 unwind label %175

155:                                              ; preds = %84, %79
  %156 = landingpad { ptr, i32 }
          cleanup
  br label %180

157:                                              ; preds = %151, %157
  %158 = phi i64 [ %168, %157 ], [ %152, %151 ]
  %159 = phi i32 [ %167, %157 ], [ %153, %151 ]
  %160 = uitofp i32 %159 to double
  %161 = getelementptr inbounds double, ptr %9, i64 %158
  %162 = load double, ptr %161, align 8, !tbaa !77
  %163 = fmul double %162, %160
  %164 = add i32 %159, -1
  %165 = zext i32 %164 to i64
  %166 = getelementptr inbounds double, ptr %93, i64 %165
  store double %163, ptr %166, align 8, !tbaa !77
  %167 = add i32 %159, 1
  %168 = zext i32 %167 to i64
  %169 = icmp ugt i64 %76, %168
  br i1 %169, label %157, label %154, !llvm.loop !86

170:                                              ; preds = %154
  %171 = load ptr, ptr %5, align 8, !tbaa !75
  %172 = icmp eq ptr %171, null
  br i1 %172, label %174, label %173

173:                                              ; preds = %170
  call void @_ZdlPv(ptr noundef nonnull %171) #20
  br label %174

174:                                              ; preds = %170, %173
  call void @llvm.lifetime.end.p0(i64 24, ptr nonnull %5) #19
  br label %182

175:                                              ; preds = %154
  %176 = landingpad { ptr, i32 }
          cleanup
  %177 = load ptr, ptr %5, align 8, !tbaa !75
  %178 = icmp eq ptr %177, null
  br i1 %178, label %180, label %179

179:                                              ; preds = %175
  call void @_ZdlPv(ptr noundef nonnull %177) #20
  br label %180

180:                                              ; preds = %179, %175, %155
  %181 = phi { ptr, i32 } [ %156, %155 ], [ %176, %175 ], [ %176, %179 ]
  call void @llvm.lifetime.end.p0(i64 24, ptr nonnull %5) #19
  br label %29

182:                                              ; preds = %174, %69
  ret void

183:                                              ; preds = %72
  %184 = landingpad { ptr, i32 }
          catch ptr null
  %185 = extractvalue { ptr, i32 } %184, 0
  call void @__clang_call_terminate(ptr %185) #18
  unreachable
}

; Function Attrs: sspstrong uwtable
define weak_odr dso_local void @_ZNK6dealii11Polynomials10PolynomialIdE9primitiveEv(ptr noalias sret(%"class.dealii::Polynomials::Polynomial.19") align 8 %0, ptr noundef nonnull align 8 dereferenceable(96) %1) local_unnamed_addr #0 comdat align 2 personality ptr @__gxx_personality_v0 {
  %3 = alloca %"class.std::vector.20", align 8
  call void @llvm.lifetime.start.p0(i64 24, ptr nonnull %3) #19
  %4 = getelementptr inbounds %"class.dealii::Polynomials::Polynomial.19", ptr %1, i64 0, i32 1
  %5 = getelementptr inbounds %"class.dealii::Polynomials::Polynomial.19", ptr %1, i64 0, i32 1, i32 0, i32 0, i32 0, i32 1
  %6 = load ptr, ptr %5, align 8, !tbaa !73
  %7 = load ptr, ptr %4, align 8, !tbaa !75
  %8 = ptrtoint ptr %6 to i64
  %9 = ptrtoint ptr %7 to i64
  %10 = sub i64 %8, %9
  %11 = ashr exact i64 %10, 3
  %12 = add nsw i64 %11, 1
  %13 = icmp ugt i64 %12, 1152921504606846975
  br i1 %13, label %14, label %15

14:                                               ; preds = %2
  tail call void @_ZSt20__throw_length_errorPKc(ptr noundef nonnull @.str.12) #16
  unreachable

15:                                               ; preds = %2
  %16 = icmp ne i64 %12, 0
  tail call void @llvm.assume(i1 %16)
  %17 = shl nuw nsw i64 %12, 3
  %18 = tail call noalias noundef nonnull ptr @_Znwm(i64 noundef %17) #17
  %19 = ptrtoint ptr %18 to i64
  store ptr %18, ptr %3, align 8, !tbaa !75
  %20 = getelementptr inbounds double, ptr %18, i64 %12
  %21 = getelementptr inbounds %"struct.std::_Vector_base<double, std::allocator<double> >::_Vector_impl_data", ptr %3, i64 0, i32 2
  store ptr %20, ptr %21, align 8, !tbaa !76
  %22 = and i64 %10, -8
  %23 = add i64 %22, 8
  tail call void @llvm.memset.p0.i64(ptr nonnull align 8 %18, i8 0, i64 %23, i1 false), !tbaa !77
  %24 = getelementptr inbounds %"struct.std::_Vector_base<double, std::allocator<double> >::_Vector_impl_data", ptr %3, i64 0, i32 1
  store ptr %20, ptr %24, align 8, !tbaa !73
  store double 0.000000e+00, ptr %18, align 8, !tbaa !77
  %25 = icmp eq ptr %6, %7
  br i1 %25, label %62, label %26

26:                                               ; preds = %15
  %27 = tail call i64 @llvm.umax.i64(i64 %11, i64 1)
  %28 = icmp ult i64 %27, 4
  br i1 %28, label %59, label %29

29:                                               ; preds = %26
  %30 = tail call i64 @llvm.umax.i64(i64 %11, i64 1)
  %31 = add i64 %30, -1
  %32 = and i64 %31, 4294967295
  %33 = icmp eq i64 %32, 4294967295
  %34 = icmp ugt i64 %31, 4294967295
  %35 = or i1 %33, %34
  br i1 %35, label %59, label %36

36:                                               ; preds = %29
  %37 = add i64 %19, 8
  %38 = sub i64 %37, %9
  %39 = icmp ult i64 %38, 32
  br i1 %39, label %59, label %40

40:                                               ; preds = %36
  %41 = and i64 %27, -4
  %42 = trunc i64 %41 to i32
  br label %43

43:                                               ; preds = %43, %40
  %44 = phi i64 [ 0, %40 ], [ %54, %43 ]
  %45 = phi <4 x i32> [ <i32 0, i32 1, i32 2, i32 3>, %40 ], [ %55, %43 ]
  %46 = getelementptr inbounds double, ptr %7, i64 %44
  %47 = load <4 x double>, ptr %46, align 8, !tbaa !77
  %48 = uitofp <4 x i32> %45 to <4 x double>
  %49 = fadd <4 x double> %48, <double 1.000000e+00, double 1.000000e+00, double 1.000000e+00, double 1.000000e+00>
  %50 = fdiv <4 x double> %47, %49
  %51 = and i64 %44, 4294967292
  %52 = or i64 %51, 1
  %53 = getelementptr inbounds double, ptr %18, i64 %52
  store <4 x double> %50, ptr %53, align 8, !tbaa !77
  %54 = add nuw i64 %44, 4
  %55 = add <4 x i32> %45, <i32 4, i32 4, i32 4, i32 4>
  %56 = icmp eq i64 %54, %41
  br i1 %56, label %57, label %43, !llvm.loop !87

57:                                               ; preds = %43
  %58 = icmp eq i64 %27, %41
  br i1 %58, label %62, label %59

59:                                               ; preds = %36, %29, %26, %57
  %60 = phi i64 [ 0, %36 ], [ 0, %29 ], [ 0, %26 ], [ %41, %57 ]
  %61 = phi i32 [ 0, %36 ], [ 0, %29 ], [ 0, %26 ], [ %42, %57 ]
  br label %68

62:                                               ; preds = %68, %57, %15
  invoke void @_ZN6dealii11Polynomials10PolynomialIdEC2ERKSt6vectorIdSaIdEE(ptr noundef nonnull align 8 dereferenceable(96) %0, ptr noundef nonnull align 8 dereferenceable(24) %3)
          to label %80 unwind label %63

63:                                               ; preds = %62
  %64 = landingpad { ptr, i32 }
          cleanup
  %65 = load ptr, ptr %3, align 8, !tbaa !75
  %66 = icmp eq ptr %65, null
  br i1 %66, label %85, label %67

67:                                               ; preds = %63
  call void @_ZdlPv(ptr noundef nonnull %65) #20
  br label %85

68:                                               ; preds = %59, %68
  %69 = phi i64 [ %77, %68 ], [ %60, %59 ]
  %70 = phi i32 [ %76, %68 ], [ %61, %59 ]
  %71 = getelementptr inbounds double, ptr %7, i64 %69
  %72 = load double, ptr %71, align 8, !tbaa !77
  %73 = uitofp i32 %70 to double
  %74 = fadd double %73, 1.000000e+00
  %75 = fdiv double %72, %74
  %76 = add i32 %70, 1
  %77 = zext i32 %76 to i64
  %78 = getelementptr inbounds double, ptr %18, i64 %77
  store double %75, ptr %78, align 8, !tbaa !77
  %79 = icmp ugt i64 %11, %77
  br i1 %79, label %68, label %62, !llvm.loop !88

80:                                               ; preds = %62
  %81 = load ptr, ptr %3, align 8, !tbaa !75
  %82 = icmp eq ptr %81, null
  br i1 %82, label %84, label %83

83:                                               ; preds = %80
  call void @_ZdlPv(ptr noundef nonnull %81) #20
  br label %84

84:                                               ; preds = %80, %83
  call void @llvm.lifetime.end.p0(i64 24, ptr nonnull %3) #19
  ret void

85:                                               ; preds = %67, %63
  call void @llvm.lifetime.end.p0(i64 24, ptr nonnull %3) #19
  resume { ptr, i32 } %64
}

; Function Attrs: sspstrong uwtable
define weak_odr dso_local noundef nonnull align 8 dereferenceable(96) ptr @_ZN6dealii11Polynomials10PolynomialIdEmLEd(ptr noundef nonnull align 8 dereferenceable(96) %0, double noundef %1) local_unnamed_addr #0 comdat align 2 {
  %3 = getelementptr inbounds %"class.dealii::Polynomials::Polynomial.19", ptr %0, i64 0, i32 1
  %4 = load ptr, ptr %3, align 8, !tbaa !15
  %5 = getelementptr inbounds %"class.dealii::Polynomials::Polynomial.19", ptr %0, i64 0, i32 1, i32 0, i32 0, i32 0, i32 1
  %6 = load ptr, ptr %5, align 8, !tbaa !15
  %7 = icmp eq ptr %4, %6
  br i1 %7, label %49, label %8

8:                                                ; preds = %2
  %9 = ptrtoint ptr %6 to i64
  %10 = ptrtoint ptr %4 to i64
  %11 = add i64 %9, -8
  %12 = sub i64 %11, %10
  %13 = lshr i64 %12, 3
  %14 = add nuw nsw i64 %13, 1
  %15 = icmp ult i64 %12, 120
  br i1 %15, label %47, label %16

16:                                               ; preds = %8
  %17 = and i64 %14, 4611686018427387888
  %18 = shl i64 %17, 3
  %19 = getelementptr i8, ptr %4, i64 %18
  %20 = insertelement <4 x double> poison, double %1, i64 0
  %21 = shufflevector <4 x double> %20, <4 x double> poison, <4 x i32> zeroinitializer
  %22 = insertelement <4 x double> poison, double %1, i64 0
  %23 = shufflevector <4 x double> %22, <4 x double> poison, <4 x i32> zeroinitializer
  %24 = insertelement <4 x double> poison, double %1, i64 0
  %25 = shufflevector <4 x double> %24, <4 x double> poison, <4 x i32> zeroinitializer
  %26 = insertelement <4 x double> poison, double %1, i64 0
  %27 = shufflevector <4 x double> %26, <4 x double> poison, <4 x i32> zeroinitializer
  br label %28

28:                                               ; preds = %28, %16
  %29 = phi i64 [ 0, %16 ], [ %43, %28 ]
  %30 = shl i64 %29, 3
  %31 = getelementptr i8, ptr %4, i64 %30
  %32 = load <4 x double>, ptr %31, align 8, !tbaa !77
  %33 = getelementptr double, ptr %31, i64 4
  %34 = load <4 x double>, ptr %33, align 8, !tbaa !77
  %35 = getelementptr double, ptr %31, i64 8
  %36 = load <4 x double>, ptr %35, align 8, !tbaa !77
  %37 = getelementptr double, ptr %31, i64 12
  %38 = load <4 x double>, ptr %37, align 8, !tbaa !77
  %39 = fmul <4 x double> %32, %21
  %40 = fmul <4 x double> %34, %23
  %41 = fmul <4 x double> %36, %25
  %42 = fmul <4 x double> %38, %27
  store <4 x double> %39, ptr %31, align 8, !tbaa !77
  store <4 x double> %40, ptr %33, align 8, !tbaa !77
  store <4 x double> %41, ptr %35, align 8, !tbaa !77
  store <4 x double> %42, ptr %37, align 8, !tbaa !77
  %43 = add nuw i64 %29, 16
  %44 = icmp eq i64 %43, %17
  br i1 %44, label %45, label %28, !llvm.loop !89

45:                                               ; preds = %28
  %46 = icmp eq i64 %14, %17
  br i1 %46, label %49, label %47

47:                                               ; preds = %8, %45
  %48 = phi ptr [ %4, %8 ], [ %19, %45 ]
  br label %50

49:                                               ; preds = %50, %45, %2
  ret ptr %0

50:                                               ; preds = %47, %50
  %51 = phi ptr [ %54, %50 ], [ %48, %47 ]
  %52 = load double, ptr %51, align 8, !tbaa !77
  %53 = fmul double %52, %1
  store double %53, ptr %51, align 8, !tbaa !77
  %54 = getelementptr inbounds double, ptr %51, i64 1
  %55 = icmp eq ptr %54, %6
  br i1 %55, label %49, label %50, !llvm.loop !90
}

; Function Attrs: sspstrong uwtable
define weak_odr dso_local noundef nonnull align 8 dereferenceable(96) ptr @_ZN6dealii11Polynomials10PolynomialIdEmLERKS2_(ptr noundef nonnull align 8 dereferenceable(96) %0, ptr noundef nonnull align 8 dereferenceable(96) %1) local_unnamed_addr #0 comdat align 2 personality ptr @__gxx_personality_v0 {
  %3 = alloca %"class.std::vector.20", align 8
  %4 = getelementptr inbounds %"class.dealii::Polynomials::Polynomial.19", ptr %0, i64 0, i32 1
  %5 = getelementptr inbounds %"class.dealii::Polynomials::Polynomial.19", ptr %0, i64 0, i32 1, i32 0, i32 0, i32 0, i32 1
  %6 = load ptr, ptr %5, align 8, !tbaa !73
  %7 = load ptr, ptr %4, align 8, !tbaa !75
  %8 = ptrtoint ptr %6 to i64
  %9 = ptrtoint ptr %7 to i64
  %10 = sub i64 %8, %9
  %11 = lshr exact i64 %10, 3
  %12 = getelementptr inbounds %"class.dealii::Polynomials::Polynomial.19", ptr %1, i64 0, i32 1
  %13 = getelementptr inbounds %"class.dealii::Polynomials::Polynomial.19", ptr %1, i64 0, i32 1, i32 0, i32 0, i32 0, i32 1
  %14 = load ptr, ptr %13, align 8, !tbaa !73
  %15 = load ptr, ptr %12, align 8, !tbaa !75
  %16 = ptrtoint ptr %14 to i64
  %17 = ptrtoint ptr %15 to i64
  %18 = sub i64 %16, %17
  %19 = lshr exact i64 %18, 3
  call void @llvm.lifetime.start.p0(i64 24, ptr nonnull %3) #19
  %20 = add nuw nsw i64 %11, 4294967295
  %21 = add nuw nsw i64 %20, %19
  %22 = and i64 %21, 4294967295
  %23 = icmp eq i64 %22, 0
  br i1 %23, label %24, label %25

24:                                               ; preds = %2
  call void @llvm.memset.p0.i64(ptr noundef nonnull align 8 dereferenceable(24) %3, i8 0, i64 24, i1 false)
  br label %30

25:                                               ; preds = %2
  %26 = shl nuw nsw i64 %22, 3
  %27 = tail call noalias noundef nonnull ptr @_Znwm(i64 noundef %26) #17
  store ptr %27, ptr %3, align 8, !tbaa !75
  %28 = getelementptr inbounds double, ptr %27, i64 %22
  %29 = getelementptr inbounds %"struct.std::_Vector_base<double, std::allocator<double> >::_Vector_impl_data", ptr %3, i64 0, i32 2
  store ptr %28, ptr %29, align 8, !tbaa !76
  tail call void @llvm.memset.p0.i64(ptr nonnull align 8 %27, i8 0, i64 %26, i1 false), !tbaa !77
  br label %30

30:                                               ; preds = %25, %24
  %31 = phi ptr [ null, %24 ], [ %27, %25 ]
  %32 = phi ptr [ null, %24 ], [ %28, %25 ]
  %33 = getelementptr inbounds %"struct.std::_Vector_base<double, std::allocator<double> >::_Vector_impl_data", ptr %3, i64 0, i32 1
  store ptr %32, ptr %33, align 8, !tbaa !73
  %34 = ashr exact i64 %18, 3
  %35 = icmp eq ptr %14, %15
  br i1 %35, label %134, label %36

36:                                               ; preds = %30
  %37 = ashr i64 %10, 3
  %38 = icmp eq ptr %6, %7
  br i1 %38, label %129, label %39

39:                                               ; preds = %36
  %40 = tail call i64 @llvm.umax.i64(i64 %37, i64 1)
  %41 = add i64 %40, -1
  %42 = getelementptr i8, ptr %15, i64 8
  %43 = tail call i64 @llvm.umax.i64(i64 %37, i64 1)
  %44 = shl i64 %43, 3
  %45 = getelementptr i8, ptr %31, i64 %44
  %46 = getelementptr i8, ptr %7, i64 %44
  %47 = tail call i64 @llvm.umax.i64(i64 %37, i64 1)
  %48 = icmp ult i64 %47, 20
  %49 = and i64 %41, 4294967295
  %50 = icmp eq i64 %49, 4294967295
  %51 = trunc i64 %41 to i32
  %52 = icmp ugt i64 %41, 4294967295
  %53 = icmp ult ptr %15, %45
  %54 = icmp ult ptr %31, %42
  %55 = and i1 %53, %54
  %56 = and i64 %47, -16
  %57 = trunc i64 %56 to i32
  %58 = icmp eq i64 %47, %56
  br label %59

59:                                               ; preds = %39, %125
  %60 = phi i64 [ %127, %125 ], [ 0, %39 ]
  %61 = phi i32 [ %126, %125 ], [ 0, %39 ]
  %62 = shl nuw nsw i64 %60, 3
  %63 = getelementptr i8, ptr %31, i64 %62
  %64 = getelementptr i8, ptr %45, i64 %62
  %65 = getelementptr inbounds double, ptr %15, i64 %60
  br i1 %48, label %108, label %66

66:                                               ; preds = %59
  %67 = xor i32 %61, -1
  %68 = icmp ult i32 %67, %51
  %69 = or i1 %68, %52
  %70 = or i1 %50, %69
  br i1 %70, label %108, label %71

71:                                               ; preds = %66
  %72 = icmp ult ptr %63, %46
  %73 = icmp ult ptr %7, %64
  %74 = and i1 %72, %73
  %75 = or i1 %55, %74
  br i1 %75, label %108, label %76

76:                                               ; preds = %71
  %77 = load double, ptr %65, align 8, !tbaa !77, !alias.scope !91, !noalias !94
  %78 = insertelement <4 x double> poison, double %77, i64 0
  %79 = shufflevector <4 x double> %78, <4 x double> poison, <4 x i32> zeroinitializer
  br label %80

80:                                               ; preds = %80, %76
  %81 = phi i64 [ 0, %76 ], [ %105, %80 ]
  %82 = trunc i64 %81 to i32
  %83 = getelementptr inbounds double, ptr %7, i64 %81
  %84 = load <4 x double>, ptr %83, align 8, !tbaa !77, !alias.scope !96
  %85 = getelementptr inbounds double, ptr %83, i64 4
  %86 = load <4 x double>, ptr %85, align 8, !tbaa !77, !alias.scope !96
  %87 = getelementptr inbounds double, ptr %83, i64 8
  %88 = load <4 x double>, ptr %87, align 8, !tbaa !77, !alias.scope !96
  %89 = getelementptr inbounds double, ptr %83, i64 12
  %90 = load <4 x double>, ptr %89, align 8, !tbaa !77, !alias.scope !96
  %91 = add i32 %61, %82
  %92 = zext i32 %91 to i64
  %93 = getelementptr inbounds double, ptr %31, i64 %92
  %94 = load <4 x double>, ptr %93, align 8, !tbaa !77, !alias.scope !94, !noalias !96
  %95 = getelementptr inbounds double, ptr %93, i64 4
  %96 = load <4 x double>, ptr %95, align 8, !tbaa !77, !alias.scope !94, !noalias !96
  %97 = getelementptr inbounds double, ptr %93, i64 8
  %98 = load <4 x double>, ptr %97, align 8, !tbaa !77, !alias.scope !94, !noalias !96
  %99 = getelementptr inbounds double, ptr %93, i64 12
  %100 = load <4 x double>, ptr %99, align 8, !tbaa !77, !alias.scope !94, !noalias !96
  %101 = tail call <4 x double> @llvm.fmuladd.v4f64(<4 x double> %84, <4 x double> %79, <4 x double> %94)
  %102 = tail call <4 x double> @llvm.fmuladd.v4f64(<4 x double> %86, <4 x double> %79, <4 x double> %96)
  %103 = tail call <4 x double> @llvm.fmuladd.v4f64(<4 x double> %88, <4 x double> %79, <4 x double> %98)
  %104 = tail call <4 x double> @llvm.fmuladd.v4f64(<4 x double> %90, <4 x double> %79, <4 x double> %100)
  store <4 x double> %101, ptr %93, align 8, !tbaa !77, !alias.scope !94, !noalias !96
  store <4 x double> %102, ptr %95, align 8, !tbaa !77, !alias.scope !94, !noalias !96
  store <4 x double> %103, ptr %97, align 8, !tbaa !77, !alias.scope !94, !noalias !96
  store <4 x double> %104, ptr %99, align 8, !tbaa !77, !alias.scope !94, !noalias !96
  %105 = add nuw i64 %81, 16
  %106 = icmp eq i64 %105, %56
  br i1 %106, label %107, label %80, !llvm.loop !98

107:                                              ; preds = %80
  br i1 %58, label %125, label %108

108:                                              ; preds = %71, %66, %59, %107
  %109 = phi i64 [ 0, %71 ], [ 0, %66 ], [ 0, %59 ], [ %56, %107 ]
  %110 = phi i32 [ 0, %71 ], [ 0, %66 ], [ 0, %59 ], [ %57, %107 ]
  br label %111

111:                                              ; preds = %108, %111
  %112 = phi i64 [ %123, %111 ], [ %109, %108 ]
  %113 = phi i32 [ %122, %111 ], [ %110, %108 ]
  %114 = getelementptr inbounds double, ptr %7, i64 %112
  %115 = load double, ptr %114, align 8, !tbaa !77
  %116 = load double, ptr %65, align 8, !tbaa !77
  %117 = add i32 %113, %61
  %118 = zext i32 %117 to i64
  %119 = getelementptr inbounds double, ptr %31, i64 %118
  %120 = load double, ptr %119, align 8, !tbaa !77
  %121 = tail call double @llvm.fmuladd.f64(double %115, double %116, double %120)
  store double %121, ptr %119, align 8, !tbaa !77
  %122 = add i32 %113, 1
  %123 = zext i32 %122 to i64
  %124 = icmp ugt i64 %37, %123
  br i1 %124, label %111, label %125, !llvm.loop !99

125:                                              ; preds = %111, %107
  %126 = add i32 %61, 1
  %127 = zext i32 %126 to i64
  %128 = icmp ugt i64 %34, %127
  br i1 %128, label %59, label %134

129:                                              ; preds = %36, %129
  %130 = phi i32 [ %131, %129 ], [ 0, %36 ]
  %131 = add i32 %130, 1
  %132 = zext i32 %131 to i64
  %133 = icmp ugt i64 %34, %132
  br i1 %133, label %129, label %134

134:                                              ; preds = %125, %129, %30
  %135 = invoke noundef nonnull align 8 dereferenceable(24) ptr @_ZNSt6vectorIdSaIdEEaSERKS1_(ptr noundef nonnull align 8 dereferenceable(24) %4, ptr noundef nonnull align 8 dereferenceable(24) %3)
          to label %136 unwind label %141

136:                                              ; preds = %134
  %137 = load ptr, ptr %3, align 8, !tbaa !75
  %138 = icmp eq ptr %137, null
  br i1 %138, label %140, label %139

139:                                              ; preds = %136
  call void @_ZdlPv(ptr noundef nonnull %137) #20
  br label %140

140:                                              ; preds = %136, %139
  call void @llvm.lifetime.end.p0(i64 24, ptr nonnull %3) #19
  ret ptr %0

141:                                              ; preds = %134
  %142 = landingpad { ptr, i32 }
          cleanup
  %143 = load ptr, ptr %3, align 8, !tbaa !75
  %144 = icmp eq ptr %143, null
  br i1 %144, label %146, label %145

145:                                              ; preds = %141
  call void @_ZdlPv(ptr noundef nonnull %143) #20
  br label %146

146:                                              ; preds = %145, %141
  call void @llvm.lifetime.end.p0(i64 24, ptr nonnull %3) #19
  resume { ptr, i32 } %142
}

; Function Attrs: sspstrong uwtable
define linkonce_odr dso_local noundef nonnull align 8 dereferenceable(24) ptr @_ZNSt6vectorIdSaIdEEaSERKS1_(ptr noundef nonnull align 8 dereferenceable(24) %0, ptr noundef nonnull align 8 dereferenceable(24) %1) local_unnamed_addr #0 comdat align 2 personality ptr @__gxx_personality_v0 {
  %3 = icmp eq ptr %1, %0
  br i1 %3, label %82, label %4

4:                                                ; preds = %2
  %5 = getelementptr inbounds %"struct.std::_Vector_base<double, std::allocator<double> >::_Vector_impl_data", ptr %1, i64 0, i32 1
  %6 = load ptr, ptr %5, align 8, !tbaa !15
  %7 = load ptr, ptr %1, align 8, !tbaa !15
  %8 = ptrtoint ptr %6 to i64
  %9 = ptrtoint ptr %7 to i64
  %10 = sub i64 %8, %9
  %11 = ashr exact i64 %10, 3
  %12 = getelementptr inbounds %"struct.std::_Vector_base<double, std::allocator<double> >::_Vector_impl_data", ptr %0, i64 0, i32 2
  %13 = load ptr, ptr %12, align 8, !tbaa !76
  %14 = load ptr, ptr %0, align 8, !tbaa !15
  %15 = ptrtoint ptr %13 to i64
  %16 = ptrtoint ptr %14 to i64
  %17 = sub i64 %15, %16
  %18 = ashr exact i64 %17, 3
  %19 = icmp ugt i64 %11, %18
  br i1 %19, label %20, label %36

20:                                               ; preds = %4
  %21 = icmp ugt i64 %10, 9223372036854775800
  br i1 %21, label %22, label %23, !prof !13

22:                                               ; preds = %20
  tail call void @_ZSt28__throw_bad_array_new_lengthv() #16
  unreachable

23:                                               ; preds = %20
  %24 = tail call noalias noundef nonnull ptr @_Znwm(i64 noundef %10) #17
  %25 = icmp ugt i64 %10, 8
  br i1 %25, label %26, label %27, !prof !16

26:                                               ; preds = %23
  tail call void @llvm.memcpy.p0.p0.i64(ptr nonnull align 8 %24, ptr align 8 %7, i64 %10, i1 false)
  br label %31

27:                                               ; preds = %23
  %28 = icmp eq i64 %10, 8
  br i1 %28, label %29, label %31

29:                                               ; preds = %27
  %30 = load double, ptr %7, align 8, !tbaa !77
  store double %30, ptr %24, align 8, !tbaa !77
  br label %31

31:                                               ; preds = %26, %27, %29
  %32 = icmp eq ptr %14, null
  br i1 %32, label %34, label %33

33:                                               ; preds = %31
  tail call void @_ZdlPv(ptr noundef nonnull %14) #20
  br label %34

34:                                               ; preds = %31, %33
  store ptr %24, ptr %0, align 8, !tbaa !75
  %35 = getelementptr inbounds double, ptr %24, i64 %11
  store ptr %35, ptr %12, align 8, !tbaa !76
  br label %78

36:                                               ; preds = %4
  %37 = getelementptr inbounds %"struct.std::_Vector_base<double, std::allocator<double> >::_Vector_impl_data", ptr %0, i64 0, i32 1
  %38 = load ptr, ptr %37, align 8, !tbaa !73
  %39 = ptrtoint ptr %38 to i64
  %40 = sub i64 %39, %16
  %41 = ashr exact i64 %40, 3
  %42 = icmp ult i64 %41, %11
  br i1 %42, label %50, label %43

43:                                               ; preds = %36
  %44 = icmp sgt i64 %10, 8
  br i1 %44, label %45, label %46, !prof !16

45:                                               ; preds = %43
  tail call void @llvm.memmove.p0.p0.i64(ptr align 8 %14, ptr align 8 %7, i64 %10, i1 false)
  br label %78

46:                                               ; preds = %43
  %47 = icmp eq i64 %10, 8
  br i1 %47, label %48, label %78

48:                                               ; preds = %46
  %49 = load double, ptr %7, align 8, !tbaa !77
  store double %49, ptr %14, align 8, !tbaa !77
  br label %78

50:                                               ; preds = %36
  %51 = icmp sgt i64 %40, 8
  br i1 %51, label %52, label %55, !prof !16

52:                                               ; preds = %50
  tail call void @llvm.memmove.p0.p0.i64(ptr align 8 %14, ptr align 8 %7, i64 %40, i1 false)
  %53 = load ptr, ptr %37, align 8, !tbaa !73
  %54 = ptrtoint ptr %53 to i64
  br label %59

55:                                               ; preds = %50
  %56 = icmp eq i64 %40, 8
  br i1 %56, label %57, label %59

57:                                               ; preds = %55
  %58 = load double, ptr %7, align 8, !tbaa !77
  store double %58, ptr %14, align 8, !tbaa !77
  br label %59

59:                                               ; preds = %52, %55, %57
  %60 = phi i64 [ %54, %52 ], [ %39, %55 ], [ %39, %57 ]
  %61 = phi ptr [ %53, %52 ], [ %38, %55 ], [ %38, %57 ]
  %62 = load ptr, ptr %1, align 8, !tbaa !75
  %63 = load ptr, ptr %0, align 8, !tbaa !75
  %64 = ptrtoint ptr %63 to i64
  %65 = sub i64 %60, %64
  %66 = ashr exact i64 %65, 3
  %67 = getelementptr inbounds double, ptr %62, i64 %66
  %68 = load ptr, ptr %5, align 8, !tbaa !73
  %69 = ptrtoint ptr %68 to i64
  %70 = ptrtoint ptr %67 to i64
  %71 = sub i64 %69, %70
  %72 = icmp sgt i64 %71, 8
  br i1 %72, label %73, label %74, !prof !16

73:                                               ; preds = %59
  tail call void @llvm.memmove.p0.p0.i64(ptr align 8 %61, ptr align 8 %67, i64 %71, i1 false)
  br label %78

74:                                               ; preds = %59
  %75 = icmp eq i64 %71, 8
  br i1 %75, label %76, label %78

76:                                               ; preds = %74
  %77 = load double, ptr %67, align 8, !tbaa !77
  store double %77, ptr %61, align 8, !tbaa !77
  br label %78

78:                                               ; preds = %76, %74, %73, %48, %46, %45, %34
  %79 = load ptr, ptr %0, align 8, !tbaa !75
  %80 = getelementptr inbounds double, ptr %79, i64 %11
  %81 = getelementptr inbounds %"struct.std::_Vector_base<double, std::allocator<double> >::_Vector_impl_data", ptr %0, i64 0, i32 1
  store ptr %80, ptr %81, align 8, !tbaa !73
  br label %82

82:                                               ; preds = %78, %2
  ret ptr %0
}

; Function Attrs: sspstrong uwtable
define weak_odr dso_local noundef nonnull align 8 dereferenceable(96) ptr @_ZN6dealii11Polynomials10PolynomialIdEpLERKS2_(ptr noundef nonnull align 8 dereferenceable(96) %0, ptr noundef nonnull align 8 dereferenceable(96) %1) local_unnamed_addr #0 comdat align 2 {
  %3 = alloca double, align 8
  %4 = getelementptr inbounds %"class.dealii::Polynomials::Polynomial.19", ptr %1, i64 0, i32 1
  %5 = getelementptr inbounds %"class.dealii::Polynomials::Polynomial.19", ptr %1, i64 0, i32 1, i32 0, i32 0, i32 0, i32 1
  %6 = load ptr, ptr %5, align 8, !tbaa !73
  %7 = load ptr, ptr %4, align 8, !tbaa !75
  %8 = ptrtoint ptr %6 to i64
  %9 = ptrtoint ptr %7 to i64
  %10 = sub i64 %8, %9
  %11 = ashr exact i64 %10, 3
  %12 = getelementptr inbounds %"class.dealii::Polynomials::Polynomial.19", ptr %0, i64 0, i32 1
  %13 = getelementptr inbounds %"class.dealii::Polynomials::Polynomial.19", ptr %0, i64 0, i32 1, i32 0, i32 0, i32 0, i32 1
  %14 = load ptr, ptr %13, align 8, !tbaa !15
  %15 = load ptr, ptr %12, align 8, !tbaa !75
  %16 = ptrtoint ptr %14 to i64
  %17 = ptrtoint ptr %15 to i64
  %18 = sub i64 %16, %17
  %19 = ashr exact i64 %18, 3
  %20 = icmp ugt i64 %11, %19
  br i1 %20, label %21, label %29

21:                                               ; preds = %2
  call void @llvm.lifetime.start.p0(i64 8, ptr nonnull %3)
  store double 0.000000e+00, ptr %3, align 8, !tbaa !77
  %22 = sub nsw i64 %11, %19
  call void @_ZNSt6vectorIdSaIdEE14_M_fill_insertEN9__gnu_cxx17__normal_iteratorIPdS1_EEmRKd(ptr noundef nonnull align 8 dereferenceable(24) %12, ptr %14, i64 noundef %22, ptr noundef nonnull align 8 dereferenceable(8) %3)
  call void @llvm.lifetime.end.p0(i64 8, ptr nonnull %3)
  %23 = load ptr, ptr %5, align 8, !tbaa !73
  %24 = load ptr, ptr %4, align 8, !tbaa !75
  %25 = ptrtoint ptr %23 to i64
  %26 = ptrtoint ptr %24 to i64
  %27 = sub i64 %25, %26
  %28 = ashr exact i64 %27, 3
  br label %29

29:                                               ; preds = %21, %2
  %30 = phi i64 [ %28, %21 ], [ %11, %2 ]
  %31 = phi ptr [ %24, %21 ], [ %7, %2 ]
  %32 = phi ptr [ %23, %21 ], [ %6, %2 ]
  %33 = icmp eq ptr %32, %31
  br i1 %33, label %85, label %34

34:                                               ; preds = %29
  %35 = load ptr, ptr %12, align 8, !tbaa !75
  %36 = call i64 @llvm.umax.i64(i64 %30, i64 1)
  %37 = icmp ult i64 %36, 24
  br i1 %37, label %82, label %38

38:                                               ; preds = %34
  %39 = call i64 @llvm.umax.i64(i64 %30, i64 1)
  %40 = add i64 %39, -1
  %41 = and i64 %40, 4294967295
  %42 = icmp eq i64 %41, 4294967295
  %43 = icmp ugt i64 %40, 4294967295
  %44 = or i1 %42, %43
  br i1 %44, label %82, label %45

45:                                               ; preds = %38
  %46 = call i64 @llvm.umax.i64(i64 %30, i64 1)
  %47 = shl i64 %46, 3
  %48 = getelementptr i8, ptr %35, i64 %47
  %49 = getelementptr i8, ptr %31, i64 %47
  %50 = icmp ult ptr %35, %49
  %51 = icmp ult ptr %31, %48
  %52 = and i1 %50, %51
  br i1 %52, label %82, label %53

53:                                               ; preds = %45
  %54 = and i64 %36, -16
  %55 = trunc i64 %54 to i32
  br label %56

56:                                               ; preds = %56, %53
  %57 = phi i64 [ 0, %53 ], [ %78, %56 ]
  %58 = getelementptr inbounds double, ptr %31, i64 %57
  %59 = load <4 x double>, ptr %58, align 8, !tbaa !77, !alias.scope !100
  %60 = getelementptr inbounds double, ptr %58, i64 4
  %61 = load <4 x double>, ptr %60, align 8, !tbaa !77, !alias.scope !100
  %62 = getelementptr inbounds double, ptr %58, i64 8
  %63 = load <4 x double>, ptr %62, align 8, !tbaa !77, !alias.scope !100
  %64 = getelementptr inbounds double, ptr %58, i64 12
  %65 = load <4 x double>, ptr %64, align 8, !tbaa !77, !alias.scope !100
  %66 = getelementptr inbounds double, ptr %35, i64 %57
  %67 = load <4 x double>, ptr %66, align 8, !tbaa !77, !alias.scope !103, !noalias !100
  %68 = getelementptr inbounds double, ptr %66, i64 4
  %69 = load <4 x double>, ptr %68, align 8, !tbaa !77, !alias.scope !103, !noalias !100
  %70 = getelementptr inbounds double, ptr %66, i64 8
  %71 = load <4 x double>, ptr %70, align 8, !tbaa !77, !alias.scope !103, !noalias !100
  %72 = getelementptr inbounds double, ptr %66, i64 12
  %73 = load <4 x double>, ptr %72, align 8, !tbaa !77, !alias.scope !103, !noalias !100
  %74 = fadd <4 x double> %59, %67
  %75 = fadd <4 x double> %61, %69
  %76 = fadd <4 x double> %63, %71
  %77 = fadd <4 x double> %65, %73
  store <4 x double> %74, ptr %66, align 8, !tbaa !77, !alias.scope !103, !noalias !100
  store <4 x double> %75, ptr %68, align 8, !tbaa !77, !alias.scope !103, !noalias !100
  store <4 x double> %76, ptr %70, align 8, !tbaa !77, !alias.scope !103, !noalias !100
  store <4 x double> %77, ptr %72, align 8, !tbaa !77, !alias.scope !103, !noalias !100
  %78 = add nuw i64 %57, 16
  %79 = icmp eq i64 %78, %54
  br i1 %79, label %80, label %56, !llvm.loop !105

80:                                               ; preds = %56
  %81 = icmp eq i64 %36, %54
  br i1 %81, label %85, label %82

82:                                               ; preds = %45, %38, %34, %80
  %83 = phi i64 [ 0, %45 ], [ 0, %38 ], [ 0, %34 ], [ %54, %80 ]
  %84 = phi i32 [ 0, %45 ], [ 0, %38 ], [ 0, %34 ], [ %55, %80 ]
  br label %86

85:                                               ; preds = %86, %80, %29
  ret ptr %0

86:                                               ; preds = %82, %86
  %87 = phi i64 [ %95, %86 ], [ %83, %82 ]
  %88 = phi i32 [ %94, %86 ], [ %84, %82 ]
  %89 = getelementptr inbounds double, ptr %31, i64 %87
  %90 = load double, ptr %89, align 8, !tbaa !77
  %91 = getelementptr inbounds double, ptr %35, i64 %87
  %92 = load double, ptr %91, align 8, !tbaa !77
  %93 = fadd double %90, %92
  store double %93, ptr %91, align 8, !tbaa !77
  %94 = add i32 %88, 1
  %95 = zext i32 %94 to i64
  %96 = icmp ugt i64 %30, %95
  br i1 %96, label %86, label %85, !llvm.loop !106
}

; Function Attrs: sspstrong uwtable
define weak_odr dso_local noundef nonnull align 8 dereferenceable(96) ptr @_ZN6dealii11Polynomials10PolynomialIdEmIERKS2_(ptr noundef nonnull align 8 dereferenceable(96) %0, ptr noundef nonnull align 8 dereferenceable(96) %1) local_unnamed_addr #0 comdat align 2 {
  %3 = alloca double, align 8
  %4 = getelementptr inbounds %"class.dealii::Polynomials::Polynomial.19", ptr %1, i64 0, i32 1
  %5 = getelementptr inbounds %"class.dealii::Polynomials::Polynomial.19", ptr %1, i64 0, i32 1, i32 0, i32 0, i32 0, i32 1
  %6 = load ptr, ptr %5, align 8, !tbaa !73
  %7 = load ptr, ptr %4, align 8, !tbaa !75
  %8 = ptrtoint ptr %6 to i64
  %9 = ptrtoint ptr %7 to i64
  %10 = sub i64 %8, %9
  %11 = ashr exact i64 %10, 3
  %12 = getelementptr inbounds %"class.dealii::Polynomials::Polynomial.19", ptr %0, i64 0, i32 1
  %13 = getelementptr inbounds %"class.dealii::Polynomials::Polynomial.19", ptr %0, i64 0, i32 1, i32 0, i32 0, i32 0, i32 1
  %14 = load ptr, ptr %13, align 8, !tbaa !15
  %15 = load ptr, ptr %12, align 8, !tbaa !75
  %16 = ptrtoint ptr %14 to i64
  %17 = ptrtoint ptr %15 to i64
  %18 = sub i64 %16, %17
  %19 = ashr exact i64 %18, 3
  %20 = icmp ugt i64 %11, %19
  br i1 %20, label %21, label %29

21:                                               ; preds = %2
  call void @llvm.lifetime.start.p0(i64 8, ptr nonnull %3)
  store double 0.000000e+00, ptr %3, align 8, !tbaa !77
  %22 = sub nsw i64 %11, %19
  call void @_ZNSt6vectorIdSaIdEE14_M_fill_insertEN9__gnu_cxx17__normal_iteratorIPdS1_EEmRKd(ptr noundef nonnull align 8 dereferenceable(24) %12, ptr %14, i64 noundef %22, ptr noundef nonnull align 8 dereferenceable(8) %3)
  call void @llvm.lifetime.end.p0(i64 8, ptr nonnull %3)
  %23 = load ptr, ptr %5, align 8, !tbaa !73
  %24 = load ptr, ptr %4, align 8, !tbaa !75
  %25 = ptrtoint ptr %23 to i64
  %26 = ptrtoint ptr %24 to i64
  %27 = sub i64 %25, %26
  %28 = ashr exact i64 %27, 3
  br label %29

29:                                               ; preds = %21, %2
  %30 = phi i64 [ %28, %21 ], [ %11, %2 ]
  %31 = phi ptr [ %24, %21 ], [ %7, %2 ]
  %32 = phi ptr [ %23, %21 ], [ %6, %2 ]
  %33 = icmp eq ptr %32, %31
  br i1 %33, label %85, label %34

34:                                               ; preds = %29
  %35 = load ptr, ptr %12, align 8, !tbaa !75
  %36 = call i64 @llvm.umax.i64(i64 %30, i64 1)
  %37 = icmp ult i64 %36, 24
  br i1 %37, label %82, label %38

38:                                               ; preds = %34
  %39 = call i64 @llvm.umax.i64(i64 %30, i64 1)
  %40 = add i64 %39, -1
  %41 = and i64 %40, 4294967295
  %42 = icmp eq i64 %41, 4294967295
  %43 = icmp ugt i64 %40, 4294967295
  %44 = or i1 %42, %43
  br i1 %44, label %82, label %45

45:                                               ; preds = %38
  %46 = call i64 @llvm.umax.i64(i64 %30, i64 1)
  %47 = shl i64 %46, 3
  %48 = getelementptr i8, ptr %35, i64 %47
  %49 = getelementptr i8, ptr %31, i64 %47
  %50 = icmp ult ptr %35, %49
  %51 = icmp ult ptr %31, %48
  %52 = and i1 %50, %51
  br i1 %52, label %82, label %53

53:                                               ; preds = %45
  %54 = and i64 %36, -16
  %55 = trunc i64 %54 to i32
  br label %56

56:                                               ; preds = %56, %53
  %57 = phi i64 [ 0, %53 ], [ %78, %56 ]
  %58 = getelementptr inbounds double, ptr %31, i64 %57
  %59 = load <4 x double>, ptr %58, align 8, !tbaa !77, !alias.scope !107
  %60 = getelementptr inbounds double, ptr %58, i64 4
  %61 = load <4 x double>, ptr %60, align 8, !tbaa !77, !alias.scope !107
  %62 = getelementptr inbounds double, ptr %58, i64 8
  %63 = load <4 x double>, ptr %62, align 8, !tbaa !77, !alias.scope !107
  %64 = getelementptr inbounds double, ptr %58, i64 12
  %65 = load <4 x double>, ptr %64, align 8, !tbaa !77, !alias.scope !107
  %66 = getelementptr inbounds double, ptr %35, i64 %57
  %67 = load <4 x double>, ptr %66, align 8, !tbaa !77, !alias.scope !110, !noalias !107
  %68 = getelementptr inbounds double, ptr %66, i64 4
  %69 = load <4 x double>, ptr %68, align 8, !tbaa !77, !alias.scope !110, !noalias !107
  %70 = getelementptr inbounds double, ptr %66, i64 8
  %71 = load <4 x double>, ptr %70, align 8, !tbaa !77, !alias.scope !110, !noalias !107
  %72 = getelementptr inbounds double, ptr %66, i64 12
  %73 = load <4 x double>, ptr %72, align 8, !tbaa !77, !alias.scope !110, !noalias !107
  %74 = fsub <4 x double> %67, %59
  %75 = fsub <4 x double> %69, %61
  %76 = fsub <4 x double> %71, %63
  %77 = fsub <4 x double> %73, %65
  store <4 x double> %74, ptr %66, align 8, !tbaa !77, !alias.scope !110, !noalias !107
  store <4 x double> %75, ptr %68, align 8, !tbaa !77, !alias.scope !110, !noalias !107
  store <4 x double> %76, ptr %70, align 8, !tbaa !77, !alias.scope !110, !noalias !107
  store <4 x double> %77, ptr %72, align 8, !tbaa !77, !alias.scope !110, !noalias !107
  %78 = add nuw i64 %57, 16
  %79 = icmp eq i64 %78, %54
  br i1 %79, label %80, label %56, !llvm.loop !112

80:                                               ; preds = %56
  %81 = icmp eq i64 %36, %54
  br i1 %81, label %85, label %82

82:                                               ; preds = %45, %38, %34, %80
  %83 = phi i64 [ 0, %45 ], [ 0, %38 ], [ 0, %34 ], [ %54, %80 ]
  %84 = phi i32 [ 0, %45 ], [ 0, %38 ], [ 0, %34 ], [ %55, %80 ]
  br label %86

85:                                               ; preds = %86, %80, %29
  ret ptr %0

86:                                               ; preds = %82, %86
  %87 = phi i64 [ %95, %86 ], [ %83, %82 ]
  %88 = phi i32 [ %94, %86 ], [ %84, %82 ]
  %89 = getelementptr inbounds double, ptr %31, i64 %87
  %90 = load double, ptr %89, align 8, !tbaa !77
  %91 = getelementptr inbounds double, ptr %35, i64 %87
  %92 = load double, ptr %91, align 8, !tbaa !77
  %93 = fsub double %92, %90
  store double %93, ptr %91, align 8, !tbaa !77
  %94 = add i32 %88, 1
  %95 = zext i32 %94 to i64
  %96 = icmp ugt i64 %30, %95
  br i1 %96, label %86, label %85, !llvm.loop !113
}

; Function Attrs: sspstrong uwtable
define weak_odr dso_local void @_ZNK6dealii11Polynomials10PolynomialIdE5printERSo(ptr noundef nonnull align 8 dereferenceable(96) %0, ptr noundef nonnull align 8 dereferenceable(8) %1) local_unnamed_addr #0 comdat align 2 {
  %3 = getelementptr inbounds %"class.dealii::Polynomials::Polynomial.19", ptr %0, i64 0, i32 1
  %4 = getelementptr inbounds %"class.dealii::Polynomials::Polynomial.19", ptr %0, i64 0, i32 1, i32 0, i32 0, i32 0, i32 1
  %5 = load ptr, ptr %4, align 8, !tbaa !73
  %6 = load ptr, ptr %3, align 8, !tbaa !75
  %7 = ptrtoint ptr %5 to i64
  %8 = ptrtoint ptr %6 to i64
  %9 = sub i64 %7, %8
  %10 = lshr exact i64 %9, 3
  %11 = trunc i64 %10 to i32
  %12 = add i32 %11, -1
  %13 = icmp sgt i32 %12, -1
  br i1 %13, label %15, label %14

14:                                               ; preds = %44, %2
  ret void

15:                                               ; preds = %2, %44
  %16 = phi i32 [ %48, %44 ], [ %12, %2 ]
  %17 = zext i32 %16 to i64
  %18 = load ptr, ptr %3, align 8, !tbaa !75
  %19 = getelementptr inbounds double, ptr %18, i64 %17
  %20 = load double, ptr %19, align 8, !tbaa !77
  %21 = tail call noundef nonnull align 8 dereferenceable(8) ptr @_ZNSo9_M_insertIdEERSoT_(ptr noundef nonnull align 8 dereferenceable(8) %1, double noundef %20)
  %22 = tail call noundef nonnull align 8 dereferenceable(8) ptr @_ZSt16__ostream_insertIcSt11char_traitsIcEERSt13basic_ostreamIT_T0_ES6_PKS3_l(ptr noundef nonnull align 8 dereferenceable(8) %21, ptr noundef nonnull @.str, i64 noundef 3)
  %23 = tail call noundef nonnull align 8 dereferenceable(8) ptr @_ZNSolsEi(ptr noundef nonnull align 8 dereferenceable(8) %21, i32 noundef %16)
  %24 = load ptr, ptr %23, align 8, !tbaa !5
  %25 = getelementptr i8, ptr %24, i64 -24
  %26 = load i64, ptr %25, align 8
  %27 = getelementptr inbounds i8, ptr %23, i64 %26
  %28 = getelementptr inbounds %"class.std::basic_ios", ptr %27, i64 0, i32 5
  %29 = load ptr, ptr %28, align 8, !tbaa !57
  %30 = icmp eq ptr %29, null
  br i1 %30, label %31, label %32

31:                                               ; preds = %15
  tail call void @_ZSt16__throw_bad_castv() #16
  unreachable

32:                                               ; preds = %15
  %33 = getelementptr inbounds %"class.std::ctype", ptr %29, i64 0, i32 8
  %34 = load i8, ptr %33, align 8, !tbaa !67
  %35 = icmp eq i8 %34, 0
  br i1 %35, label %39, label %36

36:                                               ; preds = %32
  %37 = getelementptr inbounds %"class.std::ctype", ptr %29, i64 0, i32 9, i64 10
  %38 = load i8, ptr %37, align 1, !tbaa !70
  br label %44

39:                                               ; preds = %32
  tail call void @_ZNKSt5ctypeIcE13_M_widen_initEv(ptr noundef nonnull align 8 dereferenceable(570) %29)
  %40 = load ptr, ptr %29, align 8, !tbaa !5
  %41 = getelementptr inbounds ptr, ptr %40, i64 6
  %42 = load ptr, ptr %41, align 8
  %43 = tail call noundef signext i8 %42(ptr noundef nonnull align 8 dereferenceable(570) %29, i8 noundef signext 10)
  br label %44

44:                                               ; preds = %36, %39
  %45 = phi i8 [ %38, %36 ], [ %43, %39 ]
  %46 = tail call noundef nonnull align 8 dereferenceable(8) ptr @_ZNSo3putEc(ptr noundef nonnull align 8 dereferenceable(8) %23, i8 noundef signext %45)
  %47 = tail call noundef nonnull align 8 dereferenceable(8) ptr @_ZNSo5flushEv(ptr noundef nonnull align 8 dereferenceable(8) %46)
  %48 = add nsw i32 %16, -1
  %49 = icmp sgt i32 %16, 0
  br i1 %49, label %15, label %14
}

; Function Attrs: sspstrong uwtable
define weak_odr dso_local void @_ZN6dealii11Polynomials10PolynomialIdE8multiplyERSt6vectorIdSaIdEEd(ptr noundef nonnull align 8 dereferenceable(24) %0, double noundef %1) local_unnamed_addr #0 comdat align 2 {
  %3 = load ptr, ptr %0, align 8, !tbaa !15
  %4 = getelementptr inbounds %"struct.std::_Vector_base<double, std::allocator<double> >::_Vector_impl_data", ptr %0, i64 0, i32 1
  %5 = load ptr, ptr %4, align 8, !tbaa !15
  %6 = icmp eq ptr %3, %5
  br i1 %6, label %48, label %7

7:                                                ; preds = %2
  %8 = ptrtoint ptr %5 to i64
  %9 = ptrtoint ptr %3 to i64
  %10 = add i64 %8, -8
  %11 = sub i64 %10, %9
  %12 = lshr i64 %11, 3
  %13 = add nuw nsw i64 %12, 1
  %14 = icmp ult i64 %11, 120
  br i1 %14, label %46, label %15

15:                                               ; preds = %7
  %16 = and i64 %13, 4611686018427387888
  %17 = shl i64 %16, 3
  %18 = getelementptr i8, ptr %3, i64 %17
  %19 = insertelement <4 x double> poison, double %1, i64 0
  %20 = shufflevector <4 x double> %19, <4 x double> poison, <4 x i32> zeroinitializer
  %21 = insertelement <4 x double> poison, double %1, i64 0
  %22 = shufflevector <4 x double> %21, <4 x double> poison, <4 x i32> zeroinitializer
  %23 = insertelement <4 x double> poison, double %1, i64 0
  %24 = shufflevector <4 x double> %23, <4 x double> poison, <4 x i32> zeroinitializer
  %25 = insertelement <4 x double> poison, double %1, i64 0
  %26 = shufflevector <4 x double> %25, <4 x double> poison, <4 x i32> zeroinitializer
  br label %27

27:                                               ; preds = %27, %15
  %28 = phi i64 [ 0, %15 ], [ %42, %27 ]
  %29 = shl i64 %28, 3
  %30 = getelementptr i8, ptr %3, i64 %29
  %31 = load <4 x double>, ptr %30, align 8, !tbaa !77
  %32 = getelementptr double, ptr %30, i64 4
  %33 = load <4 x double>, ptr %32, align 8, !tbaa !77
  %34 = getelementptr double, ptr %30, i64 8
  %35 = load <4 x double>, ptr %34, align 8, !tbaa !77
  %36 = getelementptr double, ptr %30, i64 12
  %37 = load <4 x double>, ptr %36, align 8, !tbaa !77
  %38 = fmul <4 x double> %31, %20
  %39 = fmul <4 x double> %33, %22
  %40 = fmul <4 x double> %35, %24
  %41 = fmul <4 x double> %37, %26
  store <4 x double> %38, ptr %30, align 8, !tbaa !77
  store <4 x double> %39, ptr %32, align 8, !tbaa !77
  store <4 x double> %40, ptr %34, align 8, !tbaa !77
  store <4 x double> %41, ptr %36, align 8, !tbaa !77
  %42 = add nuw i64 %28, 16
  %43 = icmp eq i64 %42, %16
  br i1 %43, label %44, label %27, !llvm.loop !114

44:                                               ; preds = %27
  %45 = icmp eq i64 %13, %16
  br i1 %45, label %48, label %46

46:                                               ; preds = %7, %44
  %47 = phi ptr [ %3, %7 ], [ %18, %44 ]
  br label %49

48:                                               ; preds = %49, %44, %2
  ret void

49:                                               ; preds = %46, %49
  %50 = phi ptr [ %53, %49 ], [ %47, %46 ]
  %51 = load double, ptr %50, align 8, !tbaa !77
  %52 = fmul double %51, %1
  store double %52, ptr %50, align 8, !tbaa !77
  %53 = getelementptr inbounds double, ptr %50, i64 1
  %54 = icmp eq ptr %53, %5
  br i1 %54, label %48, label %49, !llvm.loop !115
}

; Function Attrs: sspstrong uwtable
define weak_odr dso_local void @_ZN6dealii11Polynomials10PolynomialIfE5shiftIfEEvT_(ptr noundef nonnull align 8 dereferenceable(96) %0, float noundef %1) local_unnamed_addr #0 comdat align 2 {
  %3 = getelementptr inbounds %"class.dealii::Polynomials::Polynomial", ptr %0, i64 0, i32 1
  tail call void @_ZN6dealii11Polynomials10PolynomialIfE5shiftIfEEvRSt6vectorIfSaIfEET_(ptr noundef nonnull align 8 dereferenceable(24) %3, float noundef %1)
  ret void
}

; Function Attrs: sspstrong uwtable
define linkonce_odr dso_local void @_ZN6dealii11Polynomials10PolynomialIfE5shiftIfEEvRSt6vectorIfSaIfEET_(ptr noundef nonnull align 8 dereferenceable(24) %0, float noundef %1) local_unnamed_addr #0 comdat align 2 personality ptr @__gxx_personality_v0 {
  %3 = load ptr, ptr %0, align 8, !tbaa !15
  %4 = getelementptr inbounds %"struct.std::_Vector_base<float, std::allocator<float> >::_Vector_impl_data", ptr %0, i64 0, i32 1
  %5 = load ptr, ptr %4, align 8, !tbaa !15
  %6 = ptrtoint ptr %5 to i64
  %7 = ptrtoint ptr %3 to i64
  %8 = sub i64 %6, %7
  %9 = ashr exact i64 %8, 2
  %10 = icmp ugt i64 %8, 9223372036854775804
  br i1 %10, label %11, label %12

11:                                               ; preds = %2
  tail call void @_ZSt20__throw_length_errorPKc(ptr noundef nonnull @.str.12) #16
  unreachable

12:                                               ; preds = %2
  %13 = icmp eq ptr %5, %3
  br i1 %13, label %16, label %14

14:                                               ; preds = %12
  %15 = tail call noalias noundef nonnull ptr @_Znwm(i64 noundef %8) #17
  br label %16

16:                                               ; preds = %14, %12
  %17 = phi ptr [ null, %12 ], [ %15, %14 ]
  %18 = getelementptr inbounds float, ptr %17, i64 %9
  %19 = icmp ugt i64 %8, 4
  br i1 %19, label %24, label %20, !prof !16

20:                                               ; preds = %16
  %21 = icmp eq i64 %8, 4
  br i1 %21, label %22, label %56

22:                                               ; preds = %20
  %23 = load float, ptr %3, align 4, !tbaa !17
  store float %23, ptr %17, align 4, !tbaa !17
  br label %56

24:                                               ; preds = %16
  tail call void @llvm.memcpy.p0.p0.i64(ptr align 4 %17, ptr align 4 %3, i64 %8, i1 false)
  br label %25

25:                                               ; preds = %24, %32
  %26 = phi i64 [ %34, %32 ], [ 1, %24 ]
  %27 = phi i32 [ %33, %32 ], [ 1, %24 ]
  %28 = icmp eq i32 %27, 0
  br i1 %28, label %32, label %29

29:                                               ; preds = %25
  %30 = getelementptr inbounds float, ptr %17, i64 %26
  %31 = zext i32 %27 to i64
  br label %36

32:                                               ; preds = %36, %25
  %33 = add i32 %27, 1
  %34 = zext i32 %33 to i64
  %35 = icmp ugt i64 %9, %34
  br i1 %35, label %25, label %56

36:                                               ; preds = %29, %36
  %37 = phi i64 [ 0, %29 ], [ %43, %36 ]
  %38 = phi float [ %1, %29 ], [ %54, %36 ]
  %39 = phi i32 [ 1, %29 ], [ %45, %36 ]
  %40 = trunc i64 %37 to i32
  %41 = sub i32 %27, %40
  %42 = mul i32 %41, %39
  %43 = add nuw nsw i64 %37, 1
  %44 = trunc i64 %43 to i32
  %45 = udiv i32 %42, %44
  %46 = load float, ptr %30, align 4, !tbaa !17
  %47 = uitofp i32 %45 to float
  %48 = fmul float %46, %47
  %49 = add i32 %41, -1
  %50 = zext i32 %49 to i64
  %51 = getelementptr inbounds float, ptr %17, i64 %50
  %52 = load float, ptr %51, align 4, !tbaa !17
  %53 = tail call float @llvm.fmuladd.f32(float %48, float %38, float %52)
  store float %53, ptr %51, align 4, !tbaa !17
  %54 = fmul float %38, %1
  %55 = icmp eq i64 %43, %31
  br i1 %55, label %32, label %36

56:                                               ; preds = %32, %20, %22
  invoke void @_ZNSt6vectorIfSaIfEE13_M_assign_auxIN9__gnu_cxx17__normal_iteratorIPfS1_EEEEvT_S7_St20forward_iterator_tag(ptr noundef nonnull align 8 dereferenceable(24) %0, ptr %17, ptr %18)
          to label %57 unwind label %61

57:                                               ; preds = %56
  %58 = icmp eq ptr %17, null
  br i1 %58, label %60, label %59

59:                                               ; preds = %57
  tail call void @_ZdlPv(ptr noundef nonnull %17) #20
  br label %60

60:                                               ; preds = %57, %59
  ret void

61:                                               ; preds = %56
  %62 = landingpad { ptr, i32 }
          cleanup
  %63 = icmp eq ptr %17, null
  br i1 %63, label %65, label %64

64:                                               ; preds = %61
  tail call void @_ZdlPv(ptr noundef nonnull %17) #20
  br label %65

65:                                               ; preds = %64, %61
  resume { ptr, i32 } %62
}

; Function Attrs: sspstrong uwtable
define weak_odr dso_local void @_ZN6dealii11Polynomials10PolynomialIfE5shiftIdEEvT_(ptr noundef nonnull align 8 dereferenceable(96) %0, double noundef %1) local_unnamed_addr #0 comdat align 2 {
  %3 = getelementptr inbounds %"class.dealii::Polynomials::Polynomial", ptr %0, i64 0, i32 1
  tail call void @_ZN6dealii11Polynomials10PolynomialIfE5shiftIdEEvRSt6vectorIfSaIfEET_(ptr noundef nonnull align 8 dereferenceable(24) %3, double noundef %1)
  ret void
}

; Function Attrs: sspstrong uwtable
define linkonce_odr dso_local void @_ZN6dealii11Polynomials10PolynomialIfE5shiftIdEEvRSt6vectorIfSaIfEET_(ptr noundef nonnull align 8 dereferenceable(24) %0, double noundef %1) local_unnamed_addr #0 comdat align 2 personality ptr @__gxx_personality_v0 {
  %3 = load ptr, ptr %0, align 8, !tbaa !15
  %4 = getelementptr inbounds %"struct.std::_Vector_base<float, std::allocator<float> >::_Vector_impl_data", ptr %0, i64 0, i32 1
  %5 = load ptr, ptr %4, align 8, !tbaa !15
  %6 = ptrtoint ptr %5 to i64
  %7 = ptrtoint ptr %3 to i64
  %8 = sub i64 %6, %7
  %9 = icmp ugt i64 %8, 4611686018427387900
  br i1 %9, label %10, label %11

10:                                               ; preds = %2
  tail call void @_ZSt20__throw_length_errorPKc(ptr noundef nonnull @.str.12) #16
  unreachable

11:                                               ; preds = %2
  %12 = icmp eq ptr %5, %3
  br i1 %12, label %67, label %13

13:                                               ; preds = %11
  %14 = shl nuw nsw i64 %8, 1
  %15 = tail call noalias noundef nonnull ptr @_Znwm(i64 noundef %14) #17
  %16 = lshr i64 %8, 2
  %17 = add nuw nsw i64 %16, 1
  %18 = icmp ugt i64 %8, 3
  %19 = sext i1 %18 to i64
  %20 = add i64 %17, %19
  %21 = icmp ult i64 %20, 16
  br i1 %21, label %53, label %22

22:                                               ; preds = %13
  %23 = and i64 %20, -16
  %24 = sub i64 %16, %23
  %25 = shl i64 %23, 3
  %26 = getelementptr i8, ptr %15, i64 %25
  %27 = shl i64 %23, 2
  %28 = getelementptr i8, ptr %3, i64 %27
  br label %29

29:                                               ; preds = %29, %22
  %30 = phi i64 [ 0, %22 ], [ %49, %29 ]
  %31 = shl i64 %30, 3
  %32 = getelementptr i8, ptr %15, i64 %31
  %33 = shl i64 %30, 2
  %34 = getelementptr i8, ptr %3, i64 %33
  %35 = load <4 x float>, ptr %34, align 4, !tbaa !17
  %36 = getelementptr float, ptr %34, i64 4
  %37 = load <4 x float>, ptr %36, align 4, !tbaa !17
  %38 = getelementptr float, ptr %34, i64 8
  %39 = load <4 x float>, ptr %38, align 4, !tbaa !17
  %40 = getelementptr float, ptr %34, i64 12
  %41 = load <4 x float>, ptr %40, align 4, !tbaa !17
  %42 = fpext <4 x float> %35 to <4 x double>
  %43 = fpext <4 x float> %37 to <4 x double>
  %44 = fpext <4 x float> %39 to <4 x double>
  %45 = fpext <4 x float> %41 to <4 x double>
  store <4 x double> %42, ptr %32, align 8, !tbaa !77
  %46 = getelementptr double, ptr %32, i64 4
  store <4 x double> %43, ptr %46, align 8, !tbaa !77
  %47 = getelementptr double, ptr %32, i64 8
  store <4 x double> %44, ptr %47, align 8, !tbaa !77
  %48 = getelementptr double, ptr %32, i64 12
  store <4 x double> %45, ptr %48, align 8, !tbaa !77
  %49 = add nuw i64 %30, 16
  %50 = icmp eq i64 %49, %23
  br i1 %50, label %51, label %29, !llvm.loop !116

51:                                               ; preds = %29
  %52 = icmp eq i64 %20, %23
  br i1 %52, label %67, label %53

53:                                               ; preds = %13, %51
  %54 = phi i64 [ %16, %13 ], [ %24, %51 ]
  %55 = phi ptr [ %15, %13 ], [ %26, %51 ]
  %56 = phi ptr [ %3, %13 ], [ %28, %51 ]
  br label %57

57:                                               ; preds = %53, %57
  %58 = phi i64 [ %65, %57 ], [ %54, %53 ]
  %59 = phi ptr [ %64, %57 ], [ %55, %53 ]
  %60 = phi ptr [ %63, %57 ], [ %56, %53 ]
  %61 = load float, ptr %60, align 4, !tbaa !17
  %62 = fpext float %61 to double
  store double %62, ptr %59, align 8, !tbaa !77
  %63 = getelementptr inbounds float, ptr %60, i64 1
  %64 = getelementptr inbounds double, ptr %59, i64 1
  %65 = add nsw i64 %58, -1
  %66 = icmp ugt i64 %58, 1
  br i1 %66, label %57, label %67, !llvm.loop !117

67:                                               ; preds = %57, %51, %11
  %68 = phi ptr [ null, %11 ], [ %15, %51 ], [ %15, %57 ]
  %69 = phi ptr [ null, %11 ], [ %26, %51 ], [ %64, %57 ]
  %70 = ptrtoint ptr %69 to i64
  %71 = ptrtoint ptr %68 to i64
  %72 = sub i64 %70, %71
  %73 = ashr exact i64 %72, 3
  %74 = icmp ugt i64 %72, 8
  br i1 %74, label %75, label %106

75:                                               ; preds = %67, %82
  %76 = phi i64 [ %84, %82 ], [ 1, %67 ]
  %77 = phi i32 [ %83, %82 ], [ 1, %67 ]
  %78 = icmp eq i32 %77, 0
  br i1 %78, label %82, label %79

79:                                               ; preds = %75
  %80 = getelementptr inbounds double, ptr %68, i64 %76
  %81 = zext i32 %77 to i64
  br label %86

82:                                               ; preds = %86, %75
  %83 = add i32 %77, 1
  %84 = zext i32 %83 to i64
  %85 = icmp ugt i64 %73, %84
  br i1 %85, label %75, label %106

86:                                               ; preds = %79, %86
  %87 = phi i64 [ 0, %79 ], [ %93, %86 ]
  %88 = phi double [ %1, %79 ], [ %104, %86 ]
  %89 = phi i32 [ 1, %79 ], [ %95, %86 ]
  %90 = trunc i64 %87 to i32
  %91 = sub i32 %77, %90
  %92 = mul i32 %91, %89
  %93 = add nuw nsw i64 %87, 1
  %94 = trunc i64 %93 to i32
  %95 = udiv i32 %92, %94
  %96 = load double, ptr %80, align 8, !tbaa !77
  %97 = uitofp i32 %95 to double
  %98 = fmul double %96, %97
  %99 = add i32 %91, -1
  %100 = zext i32 %99 to i64
  %101 = getelementptr inbounds double, ptr %68, i64 %100
  %102 = load double, ptr %101, align 8, !tbaa !77
  %103 = tail call double @llvm.fmuladd.f64(double %98, double %88, double %102)
  store double %103, ptr %101, align 8, !tbaa !77
  %104 = fmul double %88, %1
  %105 = icmp eq i64 %93, %81
  br i1 %105, label %82, label %86

106:                                              ; preds = %82, %67
  invoke void @_ZNSt6vectorIfSaIfEE13_M_assign_auxIN9__gnu_cxx17__normal_iteratorIPdS_IdSaIdEEEEEEvT_S9_St20forward_iterator_tag(ptr noundef nonnull align 8 dereferenceable(24) %0, ptr %68, ptr %69)
          to label %107 unwind label %111

107:                                              ; preds = %106
  %108 = icmp eq ptr %68, null
  br i1 %108, label %110, label %109

109:                                              ; preds = %107
  tail call void @_ZdlPv(ptr noundef nonnull %68) #20
  br label %110

110:                                              ; preds = %107, %109
  ret void

111:                                              ; preds = %106
  %112 = landingpad { ptr, i32 }
          cleanup
  %113 = icmp eq ptr %68, null
  br i1 %113, label %115, label %114

114:                                              ; preds = %111
  tail call void @_ZdlPv(ptr noundef nonnull %68) #20
  br label %115

115:                                              ; preds = %114, %111
  resume { ptr, i32 } %112
}

; Function Attrs: sspstrong uwtable
define weak_odr dso_local void @_ZN6dealii11Polynomials10PolynomialIdE5shiftIfEEvT_(ptr noundef nonnull align 8 dereferenceable(96) %0, float noundef %1) local_unnamed_addr #0 comdat align 2 {
  %3 = getelementptr inbounds %"class.dealii::Polynomials::Polynomial.19", ptr %0, i64 0, i32 1
  tail call void @_ZN6dealii11Polynomials10PolynomialIdE5shiftIfEEvRSt6vectorIdSaIdEET_(ptr noundef nonnull align 8 dereferenceable(24) %3, float noundef %1)
  ret void
}

; Function Attrs: sspstrong uwtable
define linkonce_odr dso_local void @_ZN6dealii11Polynomials10PolynomialIdE5shiftIfEEvRSt6vectorIdSaIdEET_(ptr noundef nonnull align 8 dereferenceable(24) %0, float noundef %1) local_unnamed_addr #0 comdat align 2 personality ptr @__gxx_personality_v0 {
  %3 = load ptr, ptr %0, align 8, !tbaa !15
  %4 = getelementptr inbounds %"struct.std::_Vector_base<double, std::allocator<double> >::_Vector_impl_data", ptr %0, i64 0, i32 1
  %5 = load ptr, ptr %4, align 8, !tbaa !15
  %6 = ptrtoint ptr %5 to i64
  %7 = ptrtoint ptr %3 to i64
  %8 = sub i64 %6, %7
  %9 = icmp slt i64 %8, 0
  br i1 %9, label %10, label %11

10:                                               ; preds = %2
  tail call void @_ZSt20__throw_length_errorPKc(ptr noundef nonnull @.str.12) #16
  unreachable

11:                                               ; preds = %2
  %12 = icmp eq ptr %5, %3
  br i1 %12, label %67, label %13

13:                                               ; preds = %11
  %14 = lshr exact i64 %8, 1
  %15 = tail call noalias noundef nonnull ptr @_Znwm(i64 noundef %14) #17
  %16 = lshr i64 %8, 3
  %17 = add nuw nsw i64 %16, 1
  %18 = icmp ugt i64 %8, 7
  %19 = sext i1 %18 to i64
  %20 = add nsw i64 %17, %19
  %21 = icmp ult i64 %20, 16
  br i1 %21, label %53, label %22

22:                                               ; preds = %13
  %23 = and i64 %20, -16
  %24 = sub i64 %16, %23
  %25 = shl i64 %23, 2
  %26 = getelementptr i8, ptr %15, i64 %25
  %27 = shl i64 %23, 3
  %28 = getelementptr i8, ptr %3, i64 %27
  br label %29

29:                                               ; preds = %29, %22
  %30 = phi i64 [ 0, %22 ], [ %49, %29 ]
  %31 = shl i64 %30, 2
  %32 = getelementptr i8, ptr %15, i64 %31
  %33 = shl i64 %30, 3
  %34 = getelementptr i8, ptr %3, i64 %33
  %35 = load <4 x double>, ptr %34, align 8, !tbaa !77
  %36 = getelementptr double, ptr %34, i64 4
  %37 = load <4 x double>, ptr %36, align 8, !tbaa !77
  %38 = getelementptr double, ptr %34, i64 8
  %39 = load <4 x double>, ptr %38, align 8, !tbaa !77
  %40 = getelementptr double, ptr %34, i64 12
  %41 = load <4 x double>, ptr %40, align 8, !tbaa !77
  %42 = fptrunc <4 x double> %35 to <4 x float>
  %43 = fptrunc <4 x double> %37 to <4 x float>
  %44 = fptrunc <4 x double> %39 to <4 x float>
  %45 = fptrunc <4 x double> %41 to <4 x float>
  store <4 x float> %42, ptr %32, align 4, !tbaa !17
  %46 = getelementptr float, ptr %32, i64 4
  store <4 x float> %43, ptr %46, align 4, !tbaa !17
  %47 = getelementptr float, ptr %32, i64 8
  store <4 x float> %44, ptr %47, align 4, !tbaa !17
  %48 = getelementptr float, ptr %32, i64 12
  store <4 x float> %45, ptr %48, align 4, !tbaa !17
  %49 = add nuw i64 %30, 16
  %50 = icmp eq i64 %49, %23
  br i1 %50, label %51, label %29, !llvm.loop !118

51:                                               ; preds = %29
  %52 = icmp eq i64 %20, %23
  br i1 %52, label %67, label %53

53:                                               ; preds = %13, %51
  %54 = phi i64 [ %16, %13 ], [ %24, %51 ]
  %55 = phi ptr [ %15, %13 ], [ %26, %51 ]
  %56 = phi ptr [ %3, %13 ], [ %28, %51 ]
  br label %57

57:                                               ; preds = %53, %57
  %58 = phi i64 [ %65, %57 ], [ %54, %53 ]
  %59 = phi ptr [ %64, %57 ], [ %55, %53 ]
  %60 = phi ptr [ %63, %57 ], [ %56, %53 ]
  %61 = load double, ptr %60, align 8, !tbaa !77
  %62 = fptrunc double %61 to float
  store float %62, ptr %59, align 4, !tbaa !17
  %63 = getelementptr inbounds double, ptr %60, i64 1
  %64 = getelementptr inbounds float, ptr %59, i64 1
  %65 = add nsw i64 %58, -1
  %66 = icmp ugt i64 %58, 1
  br i1 %66, label %57, label %67, !llvm.loop !119

67:                                               ; preds = %57, %51, %11
  %68 = phi ptr [ null, %11 ], [ %15, %51 ], [ %15, %57 ]
  %69 = phi ptr [ null, %11 ], [ %26, %51 ], [ %64, %57 ]
  %70 = ptrtoint ptr %69 to i64
  %71 = ptrtoint ptr %68 to i64
  %72 = sub i64 %70, %71
  %73 = ashr exact i64 %72, 2
  %74 = icmp ugt i64 %72, 4
  br i1 %74, label %75, label %106

75:                                               ; preds = %67, %82
  %76 = phi i64 [ %84, %82 ], [ 1, %67 ]
  %77 = phi i32 [ %83, %82 ], [ 1, %67 ]
  %78 = icmp eq i32 %77, 0
  br i1 %78, label %82, label %79

79:                                               ; preds = %75
  %80 = getelementptr inbounds float, ptr %68, i64 %76
  %81 = zext i32 %77 to i64
  br label %86

82:                                               ; preds = %86, %75
  %83 = add i32 %77, 1
  %84 = zext i32 %83 to i64
  %85 = icmp ugt i64 %73, %84
  br i1 %85, label %75, label %106

86:                                               ; preds = %79, %86
  %87 = phi i64 [ 0, %79 ], [ %93, %86 ]
  %88 = phi float [ %1, %79 ], [ %104, %86 ]
  %89 = phi i32 [ 1, %79 ], [ %95, %86 ]
  %90 = trunc i64 %87 to i32
  %91 = sub i32 %77, %90
  %92 = mul i32 %91, %89
  %93 = add nuw nsw i64 %87, 1
  %94 = trunc i64 %93 to i32
  %95 = udiv i32 %92, %94
  %96 = load float, ptr %80, align 4, !tbaa !17
  %97 = uitofp i32 %95 to float
  %98 = fmul float %96, %97
  %99 = add i32 %91, -1
  %100 = zext i32 %99 to i64
  %101 = getelementptr inbounds float, ptr %68, i64 %100
  %102 = load float, ptr %101, align 4, !tbaa !17
  %103 = tail call float @llvm.fmuladd.f32(float %98, float %88, float %102)
  store float %103, ptr %101, align 4, !tbaa !17
  %104 = fmul float %88, %1
  %105 = icmp eq i64 %93, %81
  br i1 %105, label %82, label %86

106:                                              ; preds = %82, %67
  invoke void @_ZNSt6vectorIdSaIdEE13_M_assign_auxIN9__gnu_cxx17__normal_iteratorIPfS_IfSaIfEEEEEEvT_S9_St20forward_iterator_tag(ptr noundef nonnull align 8 dereferenceable(24) %0, ptr %68, ptr %69)
          to label %107 unwind label %111

107:                                              ; preds = %106
  %108 = icmp eq ptr %68, null
  br i1 %108, label %110, label %109

109:                                              ; preds = %107
  tail call void @_ZdlPv(ptr noundef nonnull %68) #20
  br label %110

110:                                              ; preds = %107, %109
  ret void

111:                                              ; preds = %106
  %112 = landingpad { ptr, i32 }
          cleanup
  %113 = icmp eq ptr %68, null
  br i1 %113, label %115, label %114

114:                                              ; preds = %111
  tail call void @_ZdlPv(ptr noundef nonnull %68) #20
  br label %115

115:                                              ; preds = %114, %111
  resume { ptr, i32 } %112
}

; Function Attrs: sspstrong uwtable
define weak_odr dso_local void @_ZN6dealii11Polynomials10PolynomialIdE5shiftIdEEvT_(ptr noundef nonnull align 8 dereferenceable(96) %0, double noundef %1) local_unnamed_addr #0 comdat align 2 {
  %3 = getelementptr inbounds %"class.dealii::Polynomials::Polynomial.19", ptr %0, i64 0, i32 1
  tail call void @_ZN6dealii11Polynomials10PolynomialIdE5shiftIdEEvRSt6vectorIdSaIdEET_(ptr noundef nonnull align 8 dereferenceable(24) %3, double noundef %1)
  ret void
}

; Function Attrs: sspstrong uwtable
define linkonce_odr dso_local void @_ZN6dealii11Polynomials10PolynomialIdE5shiftIdEEvRSt6vectorIdSaIdEET_(ptr noundef nonnull align 8 dereferenceable(24) %0, double noundef %1) local_unnamed_addr #0 comdat align 2 personality ptr @__gxx_personality_v0 {
  %3 = load ptr, ptr %0, align 8, !tbaa !15
  %4 = getelementptr inbounds %"struct.std::_Vector_base<double, std::allocator<double> >::_Vector_impl_data", ptr %0, i64 0, i32 1
  %5 = load ptr, ptr %4, align 8, !tbaa !15
  %6 = ptrtoint ptr %5 to i64
  %7 = ptrtoint ptr %3 to i64
  %8 = sub i64 %6, %7
  %9 = ashr exact i64 %8, 3
  %10 = icmp ugt i64 %8, 9223372036854775800
  br i1 %10, label %11, label %12

11:                                               ; preds = %2
  tail call void @_ZSt20__throw_length_errorPKc(ptr noundef nonnull @.str.12) #16
  unreachable

12:                                               ; preds = %2
  %13 = icmp eq ptr %5, %3
  br i1 %13, label %16, label %14

14:                                               ; preds = %12
  %15 = tail call noalias noundef nonnull ptr @_Znwm(i64 noundef %8) #17
  br label %16

16:                                               ; preds = %14, %12
  %17 = phi ptr [ null, %12 ], [ %15, %14 ]
  %18 = getelementptr inbounds double, ptr %17, i64 %9
  %19 = icmp ugt i64 %8, 8
  br i1 %19, label %24, label %20, !prof !16

20:                                               ; preds = %16
  %21 = icmp eq i64 %8, 8
  br i1 %21, label %22, label %56

22:                                               ; preds = %20
  %23 = load double, ptr %3, align 8, !tbaa !77
  store double %23, ptr %17, align 8, !tbaa !77
  br label %56

24:                                               ; preds = %16
  tail call void @llvm.memcpy.p0.p0.i64(ptr align 8 %17, ptr align 8 %3, i64 %8, i1 false)
  br label %25

25:                                               ; preds = %24, %32
  %26 = phi i64 [ %34, %32 ], [ 1, %24 ]
  %27 = phi i32 [ %33, %32 ], [ 1, %24 ]
  %28 = icmp eq i32 %27, 0
  br i1 %28, label %32, label %29

29:                                               ; preds = %25
  %30 = getelementptr inbounds double, ptr %17, i64 %26
  %31 = zext i32 %27 to i64
  br label %36

32:                                               ; preds = %36, %25
  %33 = add i32 %27, 1
  %34 = zext i32 %33 to i64
  %35 = icmp ugt i64 %9, %34
  br i1 %35, label %25, label %56

36:                                               ; preds = %29, %36
  %37 = phi i64 [ 0, %29 ], [ %43, %36 ]
  %38 = phi double [ %1, %29 ], [ %54, %36 ]
  %39 = phi i32 [ 1, %29 ], [ %45, %36 ]
  %40 = trunc i64 %37 to i32
  %41 = sub i32 %27, %40
  %42 = mul i32 %41, %39
  %43 = add nuw nsw i64 %37, 1
  %44 = trunc i64 %43 to i32
  %45 = udiv i32 %42, %44
  %46 = load double, ptr %30, align 8, !tbaa !77
  %47 = uitofp i32 %45 to double
  %48 = fmul double %46, %47
  %49 = add i32 %41, -1
  %50 = zext i32 %49 to i64
  %51 = getelementptr inbounds double, ptr %17, i64 %50
  %52 = load double, ptr %51, align 8, !tbaa !77
  %53 = tail call double @llvm.fmuladd.f64(double %48, double %38, double %52)
  store double %53, ptr %51, align 8, !tbaa !77
  %54 = fmul double %38, %1
  %55 = icmp eq i64 %43, %31
  br i1 %55, label %32, label %36

56:                                               ; preds = %32, %20, %22
  invoke void @_ZNSt6vectorIdSaIdEE13_M_assign_auxIN9__gnu_cxx17__normal_iteratorIPdS1_EEEEvT_S7_St20forward_iterator_tag(ptr noundef nonnull align 8 dereferenceable(24) %0, ptr %17, ptr %18)
          to label %57 unwind label %61

57:                                               ; preds = %56
  %58 = icmp eq ptr %17, null
  br i1 %58, label %60, label %59

59:                                               ; preds = %57
  tail call void @_ZdlPv(ptr noundef nonnull %17) #20
  br label %60

60:                                               ; preds = %57, %59
  ret void

61:                                               ; preds = %56
  %62 = landingpad { ptr, i32 }
          cleanup
  %63 = icmp eq ptr %17, null
  br i1 %63, label %65, label %64

64:                                               ; preds = %61
  tail call void @_ZdlPv(ptr noundef nonnull %17) #20
  br label %65

65:                                               ; preds = %64, %61
  resume { ptr, i32 } %62
}

; Function Attrs: sspstrong uwtable
define weak_odr dso_local void @_ZN6dealii11Polynomials8MonomialIfEC2Ejd(ptr noundef nonnull align 8 dereferenceable(96) %0, i32 noundef %1, double noundef %2) unnamed_addr #0 comdat($_ZN6dealii11Polynomials8MonomialIfEC5Ejd) align 2 personality ptr @__gxx_personality_v0 {
  %4 = alloca %"class.std::vector", align 8
  call void @llvm.lifetime.start.p0(i64 24, ptr nonnull %4) #19
  tail call void @llvm.experimental.noalias.scope.decl(metadata !120)
  %5 = add i32 %1, 1
  %6 = icmp ne i32 %5, 0
  tail call void @llvm.assume(i1 %6)
  %7 = zext i32 %5 to i64
  %8 = shl nuw nsw i64 %7, 2
  %9 = tail call noalias noundef nonnull ptr @_Znwm(i64 noundef %8) #17, !noalias !120
  store ptr %9, ptr %4, align 8, !tbaa !12, !alias.scope !120
  %10 = getelementptr inbounds float, ptr %9, i64 %7
  %11 = getelementptr inbounds %"struct.std::_Vector_base<float, std::allocator<float> >::_Vector_impl_data", ptr %4, i64 0, i32 2
  store ptr %10, ptr %11, align 8, !tbaa !14, !alias.scope !120
  tail call void @llvm.memset.p0.i64(ptr nonnull align 4 %9, i8 0, i64 %8, i1 false), !tbaa !17, !noalias !120
  %12 = getelementptr inbounds %"struct.std::_Vector_base<float, std::allocator<float> >::_Vector_impl_data", ptr %4, i64 0, i32 1
  store ptr %10, ptr %12, align 8, !tbaa !8, !alias.scope !120
  %13 = fptrunc double %2 to float
  %14 = zext i32 %1 to i64
  %15 = getelementptr inbounds float, ptr %9, i64 %14
  store float %13, ptr %15, align 4, !tbaa !17, !noalias !120
  invoke void @_ZN6dealii11Polynomials10PolynomialIfEC2ERKSt6vectorIfSaIfEE(ptr noundef nonnull align 8 dereferenceable(96) %0, ptr noundef nonnull align 8 dereferenceable(24) %4)
          to label %16 unwind label %21

16:                                               ; preds = %3
  %17 = load ptr, ptr %4, align 8, !tbaa !12
  %18 = icmp eq ptr %17, null
  br i1 %18, label %20, label %19

19:                                               ; preds = %16
  call void @_ZdlPv(ptr noundef nonnull %17) #20
  br label %20

20:                                               ; preds = %16, %19
  call void @llvm.lifetime.end.p0(i64 24, ptr nonnull %4) #19
  store ptr getelementptr inbounds ({ [4 x ptr] }, ptr @_ZTVN6dealii11Polynomials8MonomialIfEE, i64 0, inrange i32 0, i64 2), ptr %0, align 8, !tbaa !5
  ret void

21:                                               ; preds = %3
  %22 = landingpad { ptr, i32 }
          cleanup
  %23 = load ptr, ptr %4, align 8, !tbaa !12
  %24 = icmp eq ptr %23, null
  br i1 %24, label %26, label %25

25:                                               ; preds = %21
  call void @_ZdlPv(ptr noundef nonnull %23) #20
  br label %26

26:                                               ; preds = %25, %21
  call void @llvm.lifetime.end.p0(i64 24, ptr nonnull %4) #19
  resume { ptr, i32 } %22
}

; Function Attrs: sspstrong uwtable
define weak_odr dso_local void @_ZN6dealii11Polynomials8MonomialIfE11make_vectorEjd(ptr noalias sret(%"class.std::vector") align 8 %0, i32 noundef %1, double noundef %2) local_unnamed_addr #0 comdat align 2 personality ptr @__gxx_personality_v0 {
  %4 = add i32 %1, 1
  tail call void @llvm.memset.p0.i64(ptr noundef nonnull align 8 dereferenceable(24) %0, i8 0, i64 24, i1 false)
  %5 = icmp ne i32 %4, 0
  tail call void @llvm.assume(i1 %5)
  %6 = zext i32 %4 to i64
  %7 = shl nuw nsw i64 %6, 2
  %8 = tail call noalias noundef nonnull ptr @_Znwm(i64 noundef %7) #17
  store ptr %8, ptr %0, align 8, !tbaa !12
  %9 = getelementptr inbounds float, ptr %8, i64 %6
  %10 = getelementptr inbounds %"struct.std::_Vector_base<float, std::allocator<float> >::_Vector_impl_data", ptr %0, i64 0, i32 2
  store ptr %9, ptr %10, align 8, !tbaa !14
  tail call void @llvm.memset.p0.i64(ptr nonnull align 4 %8, i8 0, i64 %7, i1 false), !tbaa !17
  %11 = getelementptr inbounds %"struct.std::_Vector_base<float, std::allocator<float> >::_Vector_impl_data", ptr %0, i64 0, i32 1
  store ptr %9, ptr %11, align 8, !tbaa !8
  %12 = fptrunc double %2 to float
  %13 = zext i32 %1 to i64
  %14 = getelementptr inbounds float, ptr %8, i64 %13
  store float %12, ptr %14, align 4, !tbaa !17
  ret void
}

; Function Attrs: sspstrong uwtable
define weak_odr dso_local void @_ZN6dealii11Polynomials8MonomialIfE23generate_complete_basisEj(ptr noalias sret(%"class.std::vector.27") align 8 %0, i32 noundef %1) local_unnamed_addr #0 comdat align 2 personality ptr @__gxx_personality_v0 {
  %3 = alloca %"class.std::vector", align 8
  %4 = alloca %"class.dealii::Polynomials::Monomial", align 8
  tail call void @llvm.memset.p0.i64(ptr noundef nonnull align 8 dereferenceable(24) %0, i8 0, i64 24, i1 false)
  %5 = add i32 %1, 1
  %6 = zext i32 %5 to i64
  %7 = getelementptr inbounds %"struct.std::_Vector_base<dealii::Polynomials::Polynomial<float>, std::allocator<dealii::Polynomials::Polynomial<float> > >::_Vector_impl_data", ptr %0, i64 0, i32 2
  %8 = icmp eq i32 %5, 0
  br i1 %8, label %31, label %9

9:                                                ; preds = %2
  %10 = getelementptr inbounds %"struct.std::_Vector_base<dealii::Polynomials::Polynomial<float>, std::allocator<dealii::Polynomials::Polynomial<float> > >::_Vector_impl_data", ptr %0, i64 0, i32 1
  %11 = invoke noundef ptr @_ZNSt6vectorIN6dealii11Polynomials10PolynomialIfEESaIS3_EE20_M_allocate_and_copyIPS3_EES7_mT_S8_(ptr noundef nonnull align 8 dereferenceable(24) %0, i64 noundef %6, ptr noundef null, ptr noundef null)
          to label %12 unwind label %37

12:                                               ; preds = %9
  %13 = load ptr, ptr %0, align 8, !tbaa !123
  %14 = load ptr, ptr %10, align 8, !tbaa !125
  %15 = icmp eq ptr %13, %14
  br i1 %15, label %25, label %16

16:                                               ; preds = %12, %20
  %17 = phi ptr [ %21, %20 ], [ %13, %12 ]
  %18 = load ptr, ptr %17, align 8, !tbaa !5
  %19 = load ptr, ptr %18, align 8
  invoke void %19(ptr noundef nonnull align 8 dereferenceable(96) %17)
          to label %20 unwind label %35

20:                                               ; preds = %16
  %21 = getelementptr inbounds %"class.dealii::Polynomials::Polynomial", ptr %17, i64 1
  %22 = icmp eq ptr %21, %14
  br i1 %22, label %23, label %16

23:                                               ; preds = %20
  %24 = load ptr, ptr %0, align 8, !tbaa !123
  br label %25

25:                                               ; preds = %23, %12
  %26 = phi ptr [ %24, %23 ], [ %13, %12 ]
  %27 = icmp eq ptr %26, null
  br i1 %27, label %29, label %28

28:                                               ; preds = %25
  tail call void @_ZdlPv(ptr noundef nonnull %26) #20
  br label %29

29:                                               ; preds = %28, %25
  store ptr %11, ptr %0, align 8, !tbaa !123
  store ptr %11, ptr %10, align 8, !tbaa !125
  %30 = getelementptr inbounds %"class.dealii::Polynomials::Polynomial", ptr %11, i64 %6
  store ptr %30, ptr %7, align 8, !tbaa !126
  br label %31

31:                                               ; preds = %2, %29
  %32 = getelementptr inbounds %"struct.std::_Vector_base<float, std::allocator<float> >::_Vector_impl_data", ptr %3, i64 0, i32 2
  %33 = getelementptr inbounds %"struct.std::_Vector_base<float, std::allocator<float> >::_Vector_impl_data", ptr %3, i64 0, i32 1
  %34 = getelementptr inbounds %"class.dealii::Polynomials::Polynomial", ptr %4, i64 0, i32 1
  br label %39

35:                                               ; preds = %16
  %36 = landingpad { ptr, i32 }
          cleanup
  br label %75

37:                                               ; preds = %9
  %38 = landingpad { ptr, i32 }
          cleanup
  br label %75

39:                                               ; preds = %31, %66
  %40 = phi i64 [ 0, %31 ], [ %41, %66 ]
  call void @llvm.lifetime.start.p0(i64 96, ptr nonnull %4) #19
  call void @llvm.lifetime.start.p0(i64 24, ptr nonnull %3) #19
  call void @llvm.experimental.noalias.scope.decl(metadata !127)
  %41 = add i64 %40, 1
  %42 = trunc i64 %41 to i32
  %43 = icmp ne i32 %42, 0
  call void @llvm.assume(i1 %43)
  %44 = and i64 %41, 4294967295
  %45 = shl nuw nsw i64 %44, 2
  %46 = invoke noalias noundef nonnull ptr @_Znwm(i64 noundef %45) #17
          to label %47 unwind label %68

47:                                               ; preds = %39
  store ptr %46, ptr %3, align 8, !tbaa !12, !alias.scope !127
  %48 = getelementptr inbounds float, ptr %46, i64 %44
  store ptr %48, ptr %32, align 8, !tbaa !14, !alias.scope !127
  call void @llvm.memset.p0.i64(ptr nonnull align 4 %46, i8 0, i64 %45, i1 false), !tbaa !17, !noalias !127
  store ptr %48, ptr %33, align 8, !tbaa !8, !alias.scope !127
  %49 = getelementptr inbounds float, ptr %46, i64 %40
  store float 1.000000e+00, ptr %49, align 4, !tbaa !17, !noalias !127
  invoke void @_ZN6dealii11Polynomials10PolynomialIfEC2ERKSt6vectorIfSaIfEE(ptr noundef nonnull align 8 dereferenceable(96) %4, ptr noundef nonnull align 8 dereferenceable(24) %3)
          to label %50 unwind label %54

50:                                               ; preds = %47
  %51 = load ptr, ptr %3, align 8, !tbaa !12
  %52 = icmp eq ptr %51, null
  br i1 %52, label %60, label %53

53:                                               ; preds = %50
  call void @_ZdlPv(ptr noundef nonnull %51) #20
  br label %60

54:                                               ; preds = %47
  %55 = landingpad { ptr, i32 }
          cleanup
  %56 = load ptr, ptr %3, align 8, !tbaa !12
  %57 = icmp eq ptr %56, null
  br i1 %57, label %59, label %58

58:                                               ; preds = %54
  call void @_ZdlPv(ptr noundef nonnull %56) #20
  br label %59

59:                                               ; preds = %58, %54
  call void @llvm.lifetime.end.p0(i64 24, ptr nonnull %3) #19
  br label %72

60:                                               ; preds = %53, %50
  call void @llvm.lifetime.end.p0(i64 24, ptr nonnull %3) #19
  store ptr getelementptr inbounds ({ [4 x ptr] }, ptr @_ZTVN6dealii11Polynomials8MonomialIfEE, i64 0, inrange i32 0, i64 2), ptr %4, align 8, !tbaa !5
  invoke void @_ZNSt6vectorIN6dealii11Polynomials10PolynomialIfEESaIS3_EE9push_backERKS3_(ptr noundef nonnull align 8 dereferenceable(24) %0, ptr noundef nonnull align 8 dereferenceable(96) %4)
          to label %61 unwind label %70

61:                                               ; preds = %60
  store ptr getelementptr inbounds ({ [4 x ptr] }, ptr @_ZTVN6dealii11Polynomials10PolynomialIfEE, i64 0, inrange i32 0, i64 2), ptr %4, align 8, !tbaa !5
  %62 = load ptr, ptr %34, align 8, !tbaa !12
  %63 = icmp eq ptr %62, null
  br i1 %63, label %65, label %64

64:                                               ; preds = %61
  call void @_ZdlPv(ptr noundef nonnull %62) #20
  br label %65

65:                                               ; preds = %64, %61
  invoke void @_ZN6dealii11SubscriptorD2Ev(ptr noundef nonnull align 8 dereferenceable(72) %4)
          to label %66 unwind label %68

66:                                               ; preds = %65
  call void @llvm.lifetime.end.p0(i64 96, ptr nonnull %4) #19
  %67 = icmp ugt i32 %42, %1
  br i1 %67, label %74, label %39

68:                                               ; preds = %65, %39
  %69 = landingpad { ptr, i32 }
          cleanup
  br label %72

70:                                               ; preds = %60
  %71 = landingpad { ptr, i32 }
          cleanup
  invoke void @_ZN6dealii11Polynomials10PolynomialIfED2Ev(ptr noundef nonnull align 8 dereferenceable(96) %4)
          to label %72 unwind label %78

72:                                               ; preds = %68, %59, %70
  %73 = phi { ptr, i32 } [ %71, %70 ], [ %69, %68 ], [ %55, %59 ]
  call void @llvm.lifetime.end.p0(i64 96, ptr nonnull %4) #19
  br label %75

74:                                               ; preds = %66
  ret void

75:                                               ; preds = %35, %37, %72
  %76 = phi { ptr, i32 } [ %73, %72 ], [ %36, %35 ], [ %38, %37 ]
  invoke void @_ZNSt6vectorIN6dealii11Polynomials10PolynomialIfEESaIS3_EED2Ev(ptr noundef nonnull align 8 dereferenceable(24) %0)
          to label %77 unwind label %78

77:                                               ; preds = %75
  resume { ptr, i32 } %76

78:                                               ; preds = %75, %70
  %79 = landingpad { ptr, i32 }
          catch ptr null
  %80 = extractvalue { ptr, i32 } %79, 0
  call void @__clang_call_terminate(ptr %80) #18
  unreachable
}

; Function Attrs: sspstrong uwtable
define linkonce_odr dso_local void @_ZNSt6vectorIN6dealii11Polynomials10PolynomialIfEESaIS3_EE9push_backERKS3_(ptr noundef nonnull align 8 dereferenceable(24) %0, ptr noundef nonnull align 8 dereferenceable(96) %1) local_unnamed_addr #0 comdat align 2 personality ptr @__gxx_personality_v0 {
  %3 = getelementptr inbounds %"struct.std::_Vector_base<dealii::Polynomials::Polynomial<float>, std::allocator<dealii::Polynomials::Polynomial<float> > >::_Vector_impl_data", ptr %0, i64 0, i32 1
  %4 = load ptr, ptr %3, align 8, !tbaa !15
  %5 = getelementptr inbounds %"struct.std::_Vector_base<dealii::Polynomials::Polynomial<float>, std::allocator<dealii::Polynomials::Polynomial<float> > >::_Vector_impl_data", ptr %0, i64 0, i32 2
  %6 = load ptr, ptr %5, align 8, !tbaa !126
  %7 = icmp eq ptr %4, %6
  br i1 %7, label %52, label %8

8:                                                ; preds = %2
  tail call void @_ZN6dealii11SubscriptorC2ERKS0_(ptr noundef nonnull align 8 dereferenceable(72) %4, ptr noundef nonnull align 8 dereferenceable(72) %1)
  store ptr getelementptr inbounds ({ [4 x ptr] }, ptr @_ZTVN6dealii11Polynomials10PolynomialIfEE, i64 0, inrange i32 0, i64 2), ptr %4, align 8, !tbaa !5
  %9 = getelementptr inbounds %"class.dealii::Polynomials::Polynomial", ptr %4, i64 0, i32 1
  %10 = getelementptr inbounds %"class.dealii::Polynomials::Polynomial", ptr %1, i64 0, i32 1
  %11 = getelementptr inbounds %"class.dealii::Polynomials::Polynomial", ptr %1, i64 0, i32 1, i32 0, i32 0, i32 0, i32 1
  %12 = load ptr, ptr %11, align 8, !tbaa !8
  %13 = load ptr, ptr %10, align 8, !tbaa !12
  %14 = ptrtoint ptr %12 to i64
  %15 = ptrtoint ptr %13 to i64
  %16 = sub i64 %14, %15
  %17 = ashr exact i64 %16, 2
  tail call void @llvm.memset.p0.i64(ptr noundef nonnull align 8 dereferenceable(24) %9, i8 0, i64 24, i1 false)
  %18 = icmp eq ptr %12, %13
  br i1 %18, label %25, label %19

19:                                               ; preds = %8
  %20 = icmp ugt i64 %16, 9223372036854775804
  br i1 %20, label %21, label %23, !prof !13

21:                                               ; preds = %19
  invoke void @_ZSt28__throw_bad_array_new_lengthv() #16
          to label %22 unwind label %41

22:                                               ; preds = %21
  unreachable

23:                                               ; preds = %19
  %24 = invoke noalias noundef nonnull ptr @_Znwm(i64 noundef %16) #17
          to label %25 unwind label %41

25:                                               ; preds = %23, %8
  %26 = phi ptr [ null, %8 ], [ %24, %23 ]
  store ptr %26, ptr %9, align 8, !tbaa !12
  %27 = getelementptr inbounds %"class.dealii::Polynomials::Polynomial", ptr %4, i64 0, i32 1, i32 0, i32 0, i32 0, i32 1
  store ptr %26, ptr %27, align 8, !tbaa !8
  %28 = getelementptr inbounds float, ptr %26, i64 %17
  %29 = getelementptr inbounds %"class.dealii::Polynomials::Polynomial", ptr %4, i64 0, i32 1, i32 0, i32 0, i32 0, i32 2
  store ptr %28, ptr %29, align 8, !tbaa !14
  %30 = load ptr, ptr %10, align 8, !tbaa !15
  %31 = load ptr, ptr %11, align 8, !tbaa !15
  %32 = ptrtoint ptr %31 to i64
  %33 = ptrtoint ptr %30 to i64
  %34 = sub i64 %32, %33
  %35 = icmp sgt i64 %34, 4
  br i1 %35, label %36, label %37, !prof !16

36:                                               ; preds = %25
  tail call void @llvm.memmove.p0.p0.i64(ptr align 4 %26, ptr align 4 %30, i64 %34, i1 false)
  br label %47

37:                                               ; preds = %25
  %38 = icmp eq i64 %34, 4
  br i1 %38, label %39, label %47

39:                                               ; preds = %37
  %40 = load float, ptr %30, align 4, !tbaa !17
  store float %40, ptr %26, align 4, !tbaa !17
  br label %47

41:                                               ; preds = %23, %21
  %42 = landingpad { ptr, i32 }
          cleanup
  invoke void @_ZN6dealii11SubscriptorD2Ev(ptr noundef nonnull align 8 dereferenceable(72) %4)
          to label %43 unwind label %44

43:                                               ; preds = %41
  resume { ptr, i32 } %42

44:                                               ; preds = %41
  %45 = landingpad { ptr, i32 }
          catch ptr null
  %46 = extractvalue { ptr, i32 } %45, 0
  tail call void @__clang_call_terminate(ptr %46) #18
  unreachable

47:                                               ; preds = %36, %37, %39
  %48 = ashr exact i64 %34, 2
  %49 = getelementptr inbounds float, ptr %26, i64 %48
  store ptr %49, ptr %27, align 8, !tbaa !8
  %50 = load ptr, ptr %3, align 8, !tbaa !125
  %51 = getelementptr inbounds %"class.dealii::Polynomials::Polynomial", ptr %50, i64 1
  store ptr %51, ptr %3, align 8, !tbaa !125
  br label %53

52:                                               ; preds = %2
  tail call void @_ZNSt6vectorIN6dealii11Polynomials10PolynomialIfEESaIS3_EE17_M_realloc_insertEN9__gnu_cxx17__normal_iteratorIPS3_S5_EERKS3_(ptr noundef nonnull align 8 dereferenceable(24) %0, ptr %4, ptr noundef nonnull align 8 dereferenceable(96) %1)
  br label %53

53:                                               ; preds = %52, %47
  ret void
}

; Function Attrs: sspstrong uwtable
define linkonce_odr dso_local void @_ZNSt6vectorIN6dealii11Polynomials10PolynomialIfEESaIS3_EED2Ev(ptr noundef nonnull align 8 dereferenceable(24) %0) unnamed_addr #0 comdat align 2 personality ptr @__gxx_personality_v0 {
  %2 = load ptr, ptr %0, align 8, !tbaa !123
  %3 = getelementptr inbounds %"struct.std::_Vector_base<dealii::Polynomials::Polynomial<float>, std::allocator<dealii::Polynomials::Polynomial<float> > >::_Vector_impl_data", ptr %0, i64 0, i32 1
  %4 = load ptr, ptr %3, align 8, !tbaa !125
  %5 = icmp eq ptr %2, %4
  br i1 %5, label %15, label %6

6:                                                ; preds = %1, %10
  %7 = phi ptr [ %11, %10 ], [ %2, %1 ]
  %8 = load ptr, ptr %7, align 8, !tbaa !5
  %9 = load ptr, ptr %8, align 8
  invoke void %9(ptr noundef nonnull align 8 dereferenceable(96) %7)
          to label %10 unwind label %20

10:                                               ; preds = %6
  %11 = getelementptr inbounds %"class.dealii::Polynomials::Polynomial", ptr %7, i64 1
  %12 = icmp eq ptr %11, %4
  br i1 %12, label %13, label %6

13:                                               ; preds = %10
  %14 = load ptr, ptr %0, align 8, !tbaa !123
  br label %15

15:                                               ; preds = %13, %1
  %16 = phi ptr [ %14, %13 ], [ %2, %1 ]
  %17 = icmp eq ptr %16, null
  br i1 %17, label %19, label %18

18:                                               ; preds = %15
  tail call void @_ZdlPv(ptr noundef nonnull %16) #20
  br label %19

19:                                               ; preds = %15, %18
  ret void

20:                                               ; preds = %6
  %21 = landingpad { ptr, i32 }
          cleanup
  %22 = load ptr, ptr %0, align 8, !tbaa !123
  %23 = icmp eq ptr %22, null
  br i1 %23, label %25, label %24

24:                                               ; preds = %20
  tail call void @_ZdlPv(ptr noundef nonnull %22) #20
  br label %25

25:                                               ; preds = %24, %20
  resume { ptr, i32 } %21
}

; Function Attrs: sspstrong uwtable
define weak_odr dso_local void @_ZN6dealii11Polynomials8MonomialIdEC2Ejd(ptr noundef nonnull align 8 dereferenceable(96) %0, i32 noundef %1, double noundef %2) unnamed_addr #0 comdat($_ZN6dealii11Polynomials8MonomialIdEC5Ejd) align 2 personality ptr @__gxx_personality_v0 {
  %4 = alloca %"class.std::vector.20", align 8
  call void @llvm.lifetime.start.p0(i64 24, ptr nonnull %4) #19
  tail call void @llvm.experimental.noalias.scope.decl(metadata !130)
  %5 = add i32 %1, 1
  %6 = icmp ne i32 %5, 0
  tail call void @llvm.assume(i1 %6)
  %7 = zext i32 %5 to i64
  %8 = shl nuw nsw i64 %7, 3
  %9 = tail call noalias noundef nonnull ptr @_Znwm(i64 noundef %8) #17, !noalias !130
  store ptr %9, ptr %4, align 8, !tbaa !75, !alias.scope !130
  %10 = getelementptr inbounds double, ptr %9, i64 %7
  %11 = getelementptr inbounds %"struct.std::_Vector_base<double, std::allocator<double> >::_Vector_impl_data", ptr %4, i64 0, i32 2
  store ptr %10, ptr %11, align 8, !tbaa !76, !alias.scope !130
  tail call void @llvm.memset.p0.i64(ptr nonnull align 8 %9, i8 0, i64 %8, i1 false), !tbaa !77, !noalias !130
  %12 = getelementptr inbounds %"struct.std::_Vector_base<double, std::allocator<double> >::_Vector_impl_data", ptr %4, i64 0, i32 1
  store ptr %10, ptr %12, align 8, !tbaa !73, !alias.scope !130
  %13 = zext i32 %1 to i64
  %14 = getelementptr inbounds double, ptr %9, i64 %13
  store double %2, ptr %14, align 8, !tbaa !77, !noalias !130
  invoke void @_ZN6dealii11Polynomials10PolynomialIdEC2ERKSt6vectorIdSaIdEE(ptr noundef nonnull align 8 dereferenceable(96) %0, ptr noundef nonnull align 8 dereferenceable(24) %4)
          to label %15 unwind label %20

15:                                               ; preds = %3
  %16 = load ptr, ptr %4, align 8, !tbaa !75
  %17 = icmp eq ptr %16, null
  br i1 %17, label %19, label %18

18:                                               ; preds = %15
  call void @_ZdlPv(ptr noundef nonnull %16) #20
  br label %19

19:                                               ; preds = %15, %18
  call void @llvm.lifetime.end.p0(i64 24, ptr nonnull %4) #19
  store ptr getelementptr inbounds ({ [4 x ptr] }, ptr @_ZTVN6dealii11Polynomials8MonomialIdEE, i64 0, inrange i32 0, i64 2), ptr %0, align 8, !tbaa !5
  ret void

20:                                               ; preds = %3
  %21 = landingpad { ptr, i32 }
          cleanup
  %22 = load ptr, ptr %4, align 8, !tbaa !75
  %23 = icmp eq ptr %22, null
  br i1 %23, label %25, label %24

24:                                               ; preds = %20
  call void @_ZdlPv(ptr noundef nonnull %22) #20
  br label %25

25:                                               ; preds = %24, %20
  call void @llvm.lifetime.end.p0(i64 24, ptr nonnull %4) #19
  resume { ptr, i32 } %21
}

; Function Attrs: sspstrong uwtable
define weak_odr dso_local void @_ZN6dealii11Polynomials8MonomialIdE11make_vectorEjd(ptr noalias sret(%"class.std::vector.20") align 8 %0, i32 noundef %1, double noundef %2) local_unnamed_addr #0 comdat align 2 personality ptr @__gxx_personality_v0 {
  %4 = add i32 %1, 1
  tail call void @llvm.memset.p0.i64(ptr noundef nonnull align 8 dereferenceable(24) %0, i8 0, i64 24, i1 false)
  %5 = icmp ne i32 %4, 0
  tail call void @llvm.assume(i1 %5)
  %6 = zext i32 %4 to i64
  %7 = shl nuw nsw i64 %6, 3
  %8 = tail call noalias noundef nonnull ptr @_Znwm(i64 noundef %7) #17
  store ptr %8, ptr %0, align 8, !tbaa !75
  %9 = getelementptr inbounds double, ptr %8, i64 %6
  %10 = getelementptr inbounds %"struct.std::_Vector_base<double, std::allocator<double> >::_Vector_impl_data", ptr %0, i64 0, i32 2
  store ptr %9, ptr %10, align 8, !tbaa !76
  tail call void @llvm.memset.p0.i64(ptr nonnull align 8 %8, i8 0, i64 %7, i1 false), !tbaa !77
  %11 = getelementptr inbounds %"struct.std::_Vector_base<double, std::allocator<double> >::_Vector_impl_data", ptr %0, i64 0, i32 1
  store ptr %9, ptr %11, align 8, !tbaa !73
  %12 = zext i32 %1 to i64
  %13 = getelementptr inbounds double, ptr %8, i64 %12
  store double %2, ptr %13, align 8, !tbaa !77
  ret void
}

; Function Attrs: sspstrong uwtable
define weak_odr dso_local void @_ZN6dealii11Polynomials8MonomialIdE23generate_complete_basisEj(ptr noalias sret(%"class.std::vector.32") align 8 %0, i32 noundef %1) local_unnamed_addr #0 comdat align 2 personality ptr @__gxx_personality_v0 {
  %3 = alloca %"class.std::vector.20", align 8
  %4 = alloca %"class.dealii::Polynomials::Monomial.25", align 8
  tail call void @llvm.memset.p0.i64(ptr noundef nonnull align 8 dereferenceable(24) %0, i8 0, i64 24, i1 false)
  %5 = add i32 %1, 1
  %6 = zext i32 %5 to i64
  %7 = getelementptr inbounds %"struct.std::_Vector_base<dealii::Polynomials::Polynomial<double>, std::allocator<dealii::Polynomials::Polynomial<double> > >::_Vector_impl_data", ptr %0, i64 0, i32 2
  %8 = icmp eq i32 %5, 0
  br i1 %8, label %31, label %9

9:                                                ; preds = %2
  %10 = getelementptr inbounds %"struct.std::_Vector_base<dealii::Polynomials::Polynomial<double>, std::allocator<dealii::Polynomials::Polynomial<double> > >::_Vector_impl_data", ptr %0, i64 0, i32 1
  %11 = invoke noundef ptr @_ZNSt6vectorIN6dealii11Polynomials10PolynomialIdEESaIS3_EE20_M_allocate_and_copyIPS3_EES7_mT_S8_(ptr noundef nonnull align 8 dereferenceable(24) %0, i64 noundef %6, ptr noundef null, ptr noundef null)
          to label %12 unwind label %37

12:                                               ; preds = %9
  %13 = load ptr, ptr %0, align 8, !tbaa !133
  %14 = load ptr, ptr %10, align 8, !tbaa !135
  %15 = icmp eq ptr %13, %14
  br i1 %15, label %25, label %16

16:                                               ; preds = %12, %20
  %17 = phi ptr [ %21, %20 ], [ %13, %12 ]
  %18 = load ptr, ptr %17, align 8, !tbaa !5
  %19 = load ptr, ptr %18, align 8
  invoke void %19(ptr noundef nonnull align 8 dereferenceable(96) %17)
          to label %20 unwind label %35

20:                                               ; preds = %16
  %21 = getelementptr inbounds %"class.dealii::Polynomials::Polynomial.19", ptr %17, i64 1
  %22 = icmp eq ptr %21, %14
  br i1 %22, label %23, label %16

23:                                               ; preds = %20
  %24 = load ptr, ptr %0, align 8, !tbaa !133
  br label %25

25:                                               ; preds = %23, %12
  %26 = phi ptr [ %24, %23 ], [ %13, %12 ]
  %27 = icmp eq ptr %26, null
  br i1 %27, label %29, label %28

28:                                               ; preds = %25
  tail call void @_ZdlPv(ptr noundef nonnull %26) #20
  br label %29

29:                                               ; preds = %28, %25
  store ptr %11, ptr %0, align 8, !tbaa !133
  store ptr %11, ptr %10, align 8, !tbaa !135
  %30 = getelementptr inbounds %"class.dealii::Polynomials::Polynomial.19", ptr %11, i64 %6
  store ptr %30, ptr %7, align 8, !tbaa !136
  br label %31

31:                                               ; preds = %2, %29
  %32 = getelementptr inbounds %"struct.std::_Vector_base<double, std::allocator<double> >::_Vector_impl_data", ptr %3, i64 0, i32 2
  %33 = getelementptr inbounds %"struct.std::_Vector_base<double, std::allocator<double> >::_Vector_impl_data", ptr %3, i64 0, i32 1
  %34 = getelementptr inbounds %"class.dealii::Polynomials::Polynomial.19", ptr %4, i64 0, i32 1
  br label %39

35:                                               ; preds = %16
  %36 = landingpad { ptr, i32 }
          cleanup
  br label %75

37:                                               ; preds = %9
  %38 = landingpad { ptr, i32 }
          cleanup
  br label %75

39:                                               ; preds = %31, %66
  %40 = phi i64 [ 0, %31 ], [ %41, %66 ]
  call void @llvm.lifetime.start.p0(i64 96, ptr nonnull %4) #19
  call void @llvm.lifetime.start.p0(i64 24, ptr nonnull %3) #19
  call void @llvm.experimental.noalias.scope.decl(metadata !137)
  %41 = add i64 %40, 1
  %42 = trunc i64 %41 to i32
  %43 = icmp ne i32 %42, 0
  call void @llvm.assume(i1 %43)
  %44 = and i64 %41, 4294967295
  %45 = shl nuw nsw i64 %44, 3
  %46 = invoke noalias noundef nonnull ptr @_Znwm(i64 noundef %45) #17
          to label %47 unwind label %68

47:                                               ; preds = %39
  store ptr %46, ptr %3, align 8, !tbaa !75, !alias.scope !137
  %48 = getelementptr inbounds double, ptr %46, i64 %44
  store ptr %48, ptr %32, align 8, !tbaa !76, !alias.scope !137
  call void @llvm.memset.p0.i64(ptr nonnull align 8 %46, i8 0, i64 %45, i1 false), !tbaa !77, !noalias !137
  store ptr %48, ptr %33, align 8, !tbaa !73, !alias.scope !137
  %49 = getelementptr inbounds double, ptr %46, i64 %40
  store double 1.000000e+00, ptr %49, align 8, !tbaa !77, !noalias !137
  invoke void @_ZN6dealii11Polynomials10PolynomialIdEC2ERKSt6vectorIdSaIdEE(ptr noundef nonnull align 8 dereferenceable(96) %4, ptr noundef nonnull align 8 dereferenceable(24) %3)
          to label %50 unwind label %54

50:                                               ; preds = %47
  %51 = load ptr, ptr %3, align 8, !tbaa !75
  %52 = icmp eq ptr %51, null
  br i1 %52, label %60, label %53

53:                                               ; preds = %50
  call void @_ZdlPv(ptr noundef nonnull %51) #20
  br label %60

54:                                               ; preds = %47
  %55 = landingpad { ptr, i32 }
          cleanup
  %56 = load ptr, ptr %3, align 8, !tbaa !75
  %57 = icmp eq ptr %56, null
  br i1 %57, label %59, label %58

58:                                               ; preds = %54
  call void @_ZdlPv(ptr noundef nonnull %56) #20
  br label %59

59:                                               ; preds = %58, %54
  call void @llvm.lifetime.end.p0(i64 24, ptr nonnull %3) #19
  br label %72

60:                                               ; preds = %53, %50
  call void @llvm.lifetime.end.p0(i64 24, ptr nonnull %3) #19
  store ptr getelementptr inbounds ({ [4 x ptr] }, ptr @_ZTVN6dealii11Polynomials8MonomialIdEE, i64 0, inrange i32 0, i64 2), ptr %4, align 8, !tbaa !5
  invoke void @_ZNSt6vectorIN6dealii11Polynomials10PolynomialIdEESaIS3_EE9push_backERKS3_(ptr noundef nonnull align 8 dereferenceable(24) %0, ptr noundef nonnull align 8 dereferenceable(96) %4)
          to label %61 unwind label %70

