; ModuleID = 'source/base/quadrature.cc'
source_filename = "source/base/quadrature.cc"
target datalayout = "e-m:e-p270:32:32-p271:32:32-p272:64:64-i64:64-f80:128-n8:16:32:64-S128"
target triple = "x86_64-pc-linux-gnu"

%"class.dealii::RefinementCase.35" = type { i8 }
%"class.dealii::Quadrature" = type { %"class.dealii::Subscriptor", i32, %"class.std::vector", %"class.std::vector.3" }
%"class.dealii::Subscriptor" = type { ptr, i32, %"class.std::map", ptr }
%"class.std::map" = type { %"class.std::_Rb_tree" }
%"class.std::_Rb_tree" = type { %"struct.std::_Rb_tree<const char *, std::pair<const char *const, unsigned int>, std::_Select1st<std::pair<const char *const, unsigned int> >, std::less<const char *> >::_Rb_tree_impl" }
%"struct.std::_Rb_tree<const char *, std::pair<const char *const, unsigned int>, std::_Select1st<std::pair<const char *const, unsigned int> >, std::less<const char *> >::_Rb_tree_impl" = type { %"struct.std::_Rb_tree_key_compare", %"struct.std::_Rb_tree_header" }
%"struct.std::_Rb_tree_key_compare" = type { %"struct.std::less" }
%"struct.std::less" = type { i8 }
%"struct.std::_Rb_tree_header" = type { %"struct.std::_Rb_tree_node_base", i64 }
%"struct.std::_Rb_tree_node_base" = type { i32, ptr, ptr, ptr }
%"class.std::vector" = type { %"struct.std::_Vector_base" }
%"struct.std::_Vector_base" = type { %"struct.std::_Vector_base<dealii::Point<1>, std::allocator<dealii::Point<1> > >::_Vector_impl" }
%"struct.std::_Vector_base<dealii::Point<1>, std::allocator<dealii::Point<1> > >::_Vector_impl" = type { %"struct.std::_Vector_base<dealii::Point<1>, std::allocator<dealii::Point<1> > >::_Vector_impl_data" }
%"struct.std::_Vector_base<dealii::Point<1>, std::allocator<dealii::Point<1> > >::_Vector_impl_data" = type { ptr, ptr, ptr }
%"class.std::vector.3" = type { %"struct.std::_Vector_base.4" }
%"struct.std::_Vector_base.4" = type { %"struct.std::_Vector_base<double, std::allocator<double> >::_Vector_impl" }
%"struct.std::_Vector_base<double, std::allocator<double> >::_Vector_impl" = type { %"struct.std::_Vector_base<double, std::allocator<double> >::_Vector_impl_data" }
%"struct.std::_Vector_base<double, std::allocator<double> >::_Vector_impl_data" = type { ptr, ptr, ptr }
%"class.dealii::Point" = type { %"class.dealii::Tensor" }
%"class.dealii::Tensor" = type { [1 x double] }
%"class.dealii::Quadrature.8" = type { %"class.dealii::Subscriptor", i32, %"class.std::vector.9", %"class.std::vector.3" }
%"class.std::vector.9" = type { %"struct.std::_Vector_base.10" }
%"struct.std::_Vector_base.10" = type { %"struct.std::_Vector_base<dealii::Point<2>, std::allocator<dealii::Point<2> > >::_Vector_impl" }
%"struct.std::_Vector_base<dealii::Point<2>, std::allocator<dealii::Point<2> > >::_Vector_impl" = type { %"struct.std::_Vector_base<dealii::Point<2>, std::allocator<dealii::Point<2> > >::_Vector_impl_data" }
%"struct.std::_Vector_base<dealii::Point<2>, std::allocator<dealii::Point<2> > >::_Vector_impl_data" = type { ptr, ptr, ptr }
%"class.dealii::Point.14" = type { %"class.dealii::Tensor.15" }
%"class.dealii::Tensor.15" = type { [2 x double] }
%"class.dealii::Quadrature.16" = type { %"class.dealii::Subscriptor", i32, %"class.std::vector.17", %"class.std::vector.3" }
%"class.std::vector.17" = type { %"struct.std::_Vector_base.18" }
%"struct.std::_Vector_base.18" = type { %"struct.std::_Vector_base<dealii::Point<3>, std::allocator<dealii::Point<3> > >::_Vector_impl" }
%"struct.std::_Vector_base<dealii::Point<3>, std::allocator<dealii::Point<3> > >::_Vector_impl" = type { %"struct.std::_Vector_base<dealii::Point<3>, std::allocator<dealii::Point<3> > >::_Vector_impl_data" }
%"struct.std::_Vector_base<dealii::Point<3>, std::allocator<dealii::Point<3> > >::_Vector_impl_data" = type { ptr, ptr, ptr }
%"class.dealii::Point.22" = type { %"class.dealii::Tensor.23" }
%"class.dealii::Tensor.23" = type { [3 x double] }
%"class.dealii::QIterated.26" = type { %"class.dealii::Quadrature" }
%"class.dealii::QIterated" = type { %"class.dealii::Quadrature.8" }
%"class.dealii::Quadrature.28" = type { %"class.dealii::Subscriptor", i32, %"class.std::vector.29", %"class.std::vector.3" }
%"class.std::vector.29" = type { %"struct.std::_Vector_base.30" }
%"struct.std::_Vector_base.30" = type { %"struct.std::_Vector_base<dealii::Point<0>, std::allocator<dealii::Point<0> > >::_Vector_impl" }
%"struct.std::_Vector_base<dealii::Point<0>, std::allocator<dealii::Point<0> > >::_Vector_impl" = type { %"struct.std::_Vector_base<dealii::Point<0>, std::allocator<dealii::Point<0> > >::_Vector_impl_data" }
%"struct.std::_Vector_base<dealii::Point<0>, std::allocator<dealii::Point<0> > >::_Vector_impl_data" = type { ptr, ptr, ptr }
%"class.dealii::RefinementCase.37" = type { i8 }

$_ZN6dealii10QuadratureILi1EEC5Ej = comdat any

$__clang_call_terminate = comdat any

$_ZN6dealii10QuadratureILi1EEC5ERKS1_ = comdat any

$_ZNK6dealii10QuadratureILi1EE4sizeEv = comdat any

$_ZN6dealii10QuadratureILi1EEC5ERKSt6vectorINS_5PointILi1EEESaIS4_EERKS2_IdSaIdEE = comdat any

$_ZN6dealii10QuadratureILi1EEC5ERKSt6vectorINS_5PointILi1EEESaIS4_EE = comdat any

$_ZN6dealii10QuadratureILi1EEC5ERKNS_5PointILi1EEE = comdat any

$_ZN6dealii10QuadratureILi1EEaSERKS1_ = comdat any

$_ZNSt6vectorIdSaIdEEaSERKS1_ = comdat any

$_ZNSt6vectorIN6dealii5PointILi1EEESaIS2_EEaSERKS4_ = comdat any

$_ZN6dealii10QuadratureILi1EED5Ev = comdat any

$_ZNK6dealii10QuadratureILi1EE5pointEj = comdat any

$_ZNK6dealii10QuadratureILi1EE10get_pointsEv = comdat any

$_ZNK6dealii10QuadratureILi1EE6weightEj = comdat any

$_ZNK6dealii10QuadratureILi1EE11get_weightsEv = comdat any

$_ZNK6dealii10QuadratureILi1EE18memory_consumptionEv = comdat any

$_ZN6dealii10QuadratureILi2EEC5Ej = comdat any

$_ZN6dealii10QuadratureILi2EEC5ERKNS0_ILi1EEES4_ = comdat any

$_ZN6dealii10QuadratureILi2EEC5ERKNS0_ILi1EEE = comdat any

$_ZN6dealii10QuadratureILi2EEC5ERKS1_ = comdat any

$_ZNK6dealii10QuadratureILi2EE4sizeEv = comdat any

$_ZN6dealii10QuadratureILi2EEC5ERKSt6vectorINS_5PointILi2EEESaIS4_EERKS2_IdSaIdEE = comdat any

$_ZN6dealii10QuadratureILi2EEC5ERKSt6vectorINS_5PointILi2EEESaIS4_EE = comdat any

$_ZN6dealii10QuadratureILi2EEC5ERKNS_5PointILi2EEE = comdat any

$_ZN6dealii10QuadratureILi2EEaSERKS1_ = comdat any

$_ZNSt6vectorIN6dealii5PointILi2EEESaIS2_EEaSERKS4_ = comdat any

$_ZN6dealii10QuadratureILi2EED5Ev = comdat any

$_ZNK6dealii10QuadratureILi2EE5pointEj = comdat any

$_ZNK6dealii10QuadratureILi2EE10get_pointsEv = comdat any

$_ZNK6dealii10QuadratureILi2EE6weightEj = comdat any

$_ZNK6dealii10QuadratureILi2EE11get_weightsEv = comdat any

$_ZNK6dealii10QuadratureILi2EE18memory_consumptionEv = comdat any

$_ZN6dealii10QuadratureILi3EEC5Ej = comdat any

$_ZN6dealii10QuadratureILi3EEC5ERKNS0_ILi2EEERKNS0_ILi1EEE = comdat any

$_ZN6dealii10QuadratureILi3EEC5ERKNS0_ILi1EEE = comdat any

$_ZN6dealii10QuadratureILi3EEC5ERKS1_ = comdat any

$_ZNK6dealii10QuadratureILi3EE4sizeEv = comdat any

$_ZN6dealii10QuadratureILi3EEC5ERKSt6vectorINS_5PointILi3EEESaIS4_EERKS2_IdSaIdEE = comdat any

$_ZN6dealii10QuadratureILi3EEC5ERKSt6vectorINS_5PointILi3EEESaIS4_EE = comdat any

$_ZN6dealii10QuadratureILi3EEC5ERKNS_5PointILi3EEE = comdat any

$_ZN6dealii10QuadratureILi3EEaSERKS1_ = comdat any

$_ZNSt6vectorIN6dealii5PointILi3EEESaIS2_EEaSERKS4_ = comdat any

$_ZN6dealii10QuadratureILi3EED5Ev = comdat any

$_ZNK6dealii10QuadratureILi3EE5pointEj = comdat any

$_ZNK6dealii10QuadratureILi3EE10get_pointsEv = comdat any

$_ZNK6dealii10QuadratureILi3EE6weightEj = comdat any

$_ZNK6dealii10QuadratureILi3EE11get_weightsEv = comdat any

$_ZNK6dealii10QuadratureILi3EE18memory_consumptionEv = comdat any

$_ZN6dealii12QAnisotropicILi1EEC5ERKNS_10QuadratureILi1EEE = comdat any

$_ZN6dealii12QAnisotropicILi1EEC5ERKNS_10QuadratureILi1EEES5_ = comdat any

$_ZN6dealii12QAnisotropicILi1EEC5ERKNS_10QuadratureILi1EEES5_S5_ = comdat any

$_ZN6dealii12QAnisotropicILi2EEC5ERKNS_10QuadratureILi1EEE = comdat any

$_ZN6dealii12QAnisotropicILi2EEC5ERKNS_10QuadratureILi1EEES5_ = comdat any

$_ZN6dealii12QAnisotropicILi2EEC5ERKNS_10QuadratureILi1EEES5_S5_ = comdat any

$_ZN6dealii12QAnisotropicILi3EEC5ERKNS_10QuadratureILi1EEE = comdat any

$_ZN6dealii12QAnisotropicILi3EEC5ERKNS_10QuadratureILi1EEES5_ = comdat any

$_ZN6dealii12QAnisotropicILi3EEC5ERKNS_10QuadratureILi1EEES5_S5_ = comdat any

$_ZN6dealii9QIteratedILi2EEC5ERKNS_10QuadratureILi1EEEj = comdat any

$_ZN6dealii9QIteratedILi3EEC5ERKNS_10QuadratureILi1EEEj = comdat any

$_ZN6dealii10QProjectorILi1EE15project_to_faceERKNS_10QuadratureILi0EEEj = comdat any

$_ZN6dealii10QProjectorILi1EE18project_to_subfaceERKNS_10QuadratureILi0EEEjjRKNS_14RefinementCaseILi0EEE = comdat any

$_ZN6dealii10QProjectorILi1EE16project_to_childERKNS_10QuadratureILi1EEEj = comdat any

$_ZN6dealii10QProjectorILi1EE15project_to_lineERKNS_10QuadratureILi1EEERKNS_5PointILi1EEES9_ = comdat any

$_ZN6dealii10QProjectorILi1EE17DataSetDescriptorC5Ev = comdat any

$_ZN6dealii10QProjectorILi1EE17DataSetDescriptor4cellEv = comdat any

$_ZN6dealii10QProjectorILi1EE17DataSetDescriptor4faceEjbbbj = comdat any

$_ZNK6dealii10QProjectorILi1EE17DataSetDescriptorcvjEv = comdat any

$_ZN6dealii10QProjectorILi1EE17DataSetDescriptorC5Ej = comdat any

$_ZN6dealii10QProjectorILi1EE7reflectERKNS_10QuadratureILi2EEE = comdat any

$_ZN6dealii10QProjectorILi1EE6rotateERKNS_10QuadratureILi2EEEj = comdat any

$_ZN6dealii10QProjectorILi2EE15project_to_faceERKNS_10QuadratureILi1EEEj = comdat any

$_ZN6dealii10QProjectorILi2EE18project_to_subfaceERKNS_10QuadratureILi1EEEjjRKNS_14RefinementCaseILi1EEE = comdat any

$_ZN6dealii10QProjectorILi2EE16project_to_childERKNS_10QuadratureILi2EEEj = comdat any

$_ZN6dealii10QProjectorILi2EE15project_to_lineERKNS_10QuadratureILi1EEERKNS_5PointILi2EEES9_ = comdat any

$_ZN6dealii10QProjectorILi2EE17DataSetDescriptorC5Ev = comdat any

$_ZN6dealii10QProjectorILi2EE17DataSetDescriptor4cellEv = comdat any

$_ZN6dealii10QProjectorILi2EE17DataSetDescriptor4faceEjbbbj = comdat any

$_ZNK6dealii10QProjectorILi2EE17DataSetDescriptorcvjEv = comdat any

$_ZN6dealii10QProjectorILi2EE17DataSetDescriptorC5Ej = comdat any

$_ZN6dealii10QProjectorILi2EE7reflectERKNS_10QuadratureILi2EEE = comdat any

$_ZN6dealii10QProjectorILi2EE6rotateERKNS_10QuadratureILi2EEEj = comdat any

$_ZN6dealii10QProjectorILi3EE15project_to_faceERKNS_10QuadratureILi2EEEj = comdat any

$_ZN6dealii10QProjectorILi3EE18project_to_subfaceERKNS_10QuadratureILi2EEEjjRKNS_14RefinementCaseILi2EEE = comdat any

$_ZN6dealii10QProjectorILi3EE16project_to_childERKNS_10QuadratureILi3EEEj = comdat any

$_ZN6dealii10QProjectorILi3EE15project_to_lineERKNS_10QuadratureILi1EEERKNS_5PointILi3EEES9_ = comdat any

$_ZN6dealii10QProjectorILi3EE17DataSetDescriptorC5Ev = comdat any

$_ZN6dealii10QProjectorILi3EE17DataSetDescriptor4cellEv = comdat any

$_ZN6dealii10QProjectorILi3EE17DataSetDescriptor4faceEjbbbj = comdat any

$_ZNK6dealii10QProjectorILi3EE17DataSetDescriptorcvjEv = comdat any

$_ZN6dealii10QProjectorILi3EE17DataSetDescriptorC5Ej = comdat any

$_ZN6dealii10QProjectorILi3EE7reflectERKNS_10QuadratureILi2EEE = comdat any

$_ZN6dealii10QProjectorILi3EE6rotateERKNS_10QuadratureILi2EEEj = comdat any

$_ZN6dealii9QIteratedILi1EED0Ev = comdat any

$_ZN6dealii12QAnisotropicILi1EED0Ev = comdat any

$_ZN6dealii12QAnisotropicILi2EED0Ev = comdat any

$_ZN6dealii12QAnisotropicILi3EED0Ev = comdat any

$_ZN6dealii9QIteratedILi1EE27ExcInvalidQuadratureFormulaD0Ev = comdat any

$_ZN6dealii9QIteratedILi2EED0Ev = comdat any

$_ZN6dealii9QIteratedILi2EE27ExcInvalidQuadratureFormulaD0Ev = comdat any

$_ZN6dealii9QIteratedILi3EED0Ev = comdat any

$_ZN6dealii9QIteratedILi3EE27ExcInvalidQuadratureFormulaD0Ev = comdat any

$_ZTVN6dealii10QuadratureILi1EEE = comdat any

$_ZTVN6dealii10QuadratureILi2EEE = comdat any

$_ZTVN6dealii10QuadratureILi3EEE = comdat any

$_ZTVN6dealii12QAnisotropicILi1EEE = comdat any

$_ZTVN6dealii12QAnisotropicILi2EEE = comdat any

$_ZTVN6dealii12QAnisotropicILi3EEE = comdat any

$_ZTVN6dealii9QIteratedILi2EEE = comdat any

$_ZTVN6dealii9QIteratedILi3EEE = comdat any

$_ZZN6dealii10QProjectorILi3EE17DataSetDescriptor4faceEjbbbjE6offset = comdat any

$_ZTVN6dealii10QuadratureILi0EEE = comdat any

$_ZTVN6dealii9QIteratedILi1EEE = comdat any

$_ZTSN6dealii10QuadratureILi1EEE = comdat any

$_ZTIN6dealii10QuadratureILi1EEE = comdat any

$_ZTSN6dealii9QIteratedILi1EEE = comdat any

$_ZTIN6dealii9QIteratedILi1EEE = comdat any

$_ZTSN6dealii10QuadratureILi2EEE = comdat any

$_ZTIN6dealii10QuadratureILi2EEE = comdat any

$_ZTSN6dealii10QuadratureILi3EEE = comdat any

$_ZTIN6dealii10QuadratureILi3EEE = comdat any

$_ZTSN6dealii12QAnisotropicILi1EEE = comdat any

$_ZTIN6dealii12QAnisotropicILi1EEE = comdat any

$_ZTSN6dealii12QAnisotropicILi2EEE = comdat any

$_ZTIN6dealii12QAnisotropicILi2EEE = comdat any

$_ZTSN6dealii12QAnisotropicILi3EEE = comdat any

$_ZTIN6dealii12QAnisotropicILi3EEE = comdat any

$_ZTVN6dealii9QIteratedILi1EE27ExcInvalidQuadratureFormulaE = comdat any

$_ZTSN6dealii9QIteratedILi1EE27ExcInvalidQuadratureFormulaE = comdat any

$_ZTIN6dealii9QIteratedILi1EE27ExcInvalidQuadratureFormulaE = comdat any

$_ZTSN6dealii9QIteratedILi2EEE = comdat any

$_ZTIN6dealii9QIteratedILi2EEE = comdat any

$_ZTVN6dealii9QIteratedILi2EE27ExcInvalidQuadratureFormulaE = comdat any

$_ZTSN6dealii9QIteratedILi2EE27ExcInvalidQuadratureFormulaE = comdat any

$_ZTIN6dealii9QIteratedILi2EE27ExcInvalidQuadratureFormulaE = comdat any

$_ZTSN6dealii9QIteratedILi3EEE = comdat any

$_ZTIN6dealii9QIteratedILi3EEE = comdat any

$_ZTVN6dealii9QIteratedILi3EE27ExcInvalidQuadratureFormulaE = comdat any

$_ZTSN6dealii9QIteratedILi3EE27ExcInvalidQuadratureFormulaE = comdat any

$_ZTIN6dealii9QIteratedILi3EE27ExcInvalidQuadratureFormulaE = comdat any

$_ZTSN6dealii10QuadratureILi0EEE = comdat any

$_ZTIN6dealii10QuadratureILi0EEE = comdat any

@_ZTVN6dealii10QuadratureILi1EEE = weak_odr dso_local unnamed_addr constant { [4 x ptr] } { [4 x ptr] [ptr null, ptr @_ZTIN6dealii10QuadratureILi1EEE, ptr @_ZN6dealii10QuadratureILi1EED2Ev, ptr @_ZN6dealii10QuadratureILi1EED0Ev] }, comdat, align 8
@.str = private unnamed_addr constant [4 x i8] c"Inf\00", align 1
@_ZTVN6dealii10QuadratureILi2EEE = weak_odr dso_local unnamed_addr constant { [4 x ptr] } { [4 x ptr] [ptr null, ptr @_ZTIN6dealii10QuadratureILi2EEE, ptr @_ZN6dealii10QuadratureILi2EED2Ev, ptr @_ZN6dealii10QuadratureILi2EED0Ev] }, comdat, align 8
@_ZTVN6dealii10QuadratureILi3EEE = weak_odr dso_local unnamed_addr constant { [4 x ptr] } { [4 x ptr] [ptr null, ptr @_ZTIN6dealii10QuadratureILi3EEE, ptr @_ZN6dealii10QuadratureILi3EED2Ev, ptr @_ZN6dealii10QuadratureILi3EED0Ev] }, comdat, align 8
@_ZTVN6dealii12QAnisotropicILi1EEE = weak_odr dso_local unnamed_addr constant { [4 x ptr] } { [4 x ptr] [ptr null, ptr @_ZTIN6dealii12QAnisotropicILi1EEE, ptr @_ZN6dealii10QuadratureILi1EED2Ev, ptr @_ZN6dealii12QAnisotropicILi1EED0Ev] }, comdat, align 8
@_ZTVN6dealii12QAnisotropicILi2EEE = weak_odr dso_local unnamed_addr constant { [4 x ptr] } { [4 x ptr] [ptr null, ptr @_ZTIN6dealii12QAnisotropicILi2EEE, ptr @_ZN6dealii10QuadratureILi2EED2Ev, ptr @_ZN6dealii12QAnisotropicILi2EED0Ev] }, comdat, align 8
@_ZTVN6dealii12QAnisotropicILi3EEE = weak_odr dso_local unnamed_addr constant { [4 x ptr] } { [4 x ptr] [ptr null, ptr @_ZTIN6dealii12QAnisotropicILi3EEE, ptr @_ZN6dealii10QuadratureILi3EED2Ev, ptr @_ZN6dealii12QAnisotropicILi3EED0Ev] }, comdat, align 8
@_ZTVN6dealii9QIteratedILi2EEE = weak_odr dso_local unnamed_addr constant { [4 x ptr] } { [4 x ptr] [ptr null, ptr @_ZTIN6dealii9QIteratedILi2EEE, ptr @_ZN6dealii10QuadratureILi2EED2Ev, ptr @_ZN6dealii9QIteratedILi2EED0Ev] }, comdat, align 8
@_ZTVN6dealii9QIteratedILi3EEE = weak_odr dso_local unnamed_addr constant { [4 x ptr] } { [4 x ptr] [ptr null, ptr @_ZTIN6dealii9QIteratedILi3EEE, ptr @_ZN6dealii10QuadratureILi3EED2Ev, ptr @_ZN6dealii9QIteratedILi3EED0Ev] }, comdat, align 8
@_ZZN6dealii10QProjectorILi3EE17DataSetDescriptor4faceEjbbbjE6offset = linkonce_odr dso_local local_unnamed_addr constant [2 x [2 x [2 x i32]]] [[2 x [2 x i32]] [[2 x i32] [i32 24, i32 30], [2 x i32] [i32 36, i32 42]], [2 x [2 x i32]] [[2 x i32] [i32 0, i32 6], [2 x i32] [i32 12, i32 18]]], comdat, align 16
@_ZTVN6dealii10QuadratureILi0EEE = linkonce_odr dso_local unnamed_addr constant { [4 x ptr] } { [4 x ptr] [ptr null, ptr @_ZTIN6dealii10QuadratureILi0EEE, ptr @_ZN6dealii10QuadratureILi0EED2Ev, ptr @_ZN6dealii10QuadratureILi0EED0Ev] }, comdat, align 8
@_ZZN6dealii10QProjectorILi3EE17DataSetDescriptor7subfaceEjjbbbjNS_8internal11SubfaceCaseILi3EEEE18orientation_offset = internal unnamed_addr constant [2 x [2 x [2 x i32]]] [[2 x [2 x i32]] [[2 x i32] [i32 192, i32 240], [2 x i32] [i32 288, i32 336]], [2 x [2 x i32]] [[2 x i32] [i32 0, i32 48], [2 x i32] [i32 96, i32 144]]], align 16
@_ZZN6dealii10QProjectorILi3EE17DataSetDescriptor7subfaceEjjbbbjNS_8internal11SubfaceCaseILi3EEEE15ref_case_offset = internal unnamed_addr constant [3 x i32] [i32 6, i32 4, i32 0], align 4
@_ZZN6dealii10QProjectorILi3EE17DataSetDescriptor7subfaceEjjbbbjNS_8internal11SubfaceCaseILi3EEEE22equivalent_refine_case = internal global [10 x [4 x %"class.dealii::RefinementCase.35"]] zeroinitializer, align 32
@_ZGVZN6dealii10QProjectorILi3EE17DataSetDescriptor7subfaceEjjbbbjNS_8internal11SubfaceCaseILi3EEEE22equivalent_refine_case = internal global i64 0, align 8
@_ZZN6dealii10QProjectorILi3EE17DataSetDescriptor7subfaceEjjbbbjNS_8internal11SubfaceCaseILi3EEEE25equivalent_subface_number = internal unnamed_addr constant [10 x [4 x i32]] [[4 x i32] [i32 0, i32 1, i32 2, i32 3], [4 x i32] [i32 0, i32 1, i32 -1, i32 -1], [4 x i32] [i32 0, i32 2, i32 1, i32 -1], [4 x i32] [i32 0, i32 1, i32 3, i32 -1], [4 x i32] [i32 0, i32 2, i32 1, i32 3], [4 x i32] [i32 0, i32 1, i32 -1, i32 -1], [4 x i32] [i32 0, i32 1, i32 1, i32 -1], [4 x i32] [i32 0, i32 2, i32 3, i32 -1], [4 x i32] [i32 0, i32 1, i32 2, i32 3], [4 x i32] [i32 0, i32 1, i32 2, i32 3]], align 16
@_ZZN6dealii10QProjectorILi3EE17DataSetDescriptor7subfaceEjjbbbjNS_8internal11SubfaceCaseILi3EEEE20ref_case_permutation = internal global [4 x %"class.dealii::RefinementCase.35"] zeroinitializer, align 1
@_ZGVZN6dealii10QProjectorILi3EE17DataSetDescriptor7subfaceEjjbbbjNS_8internal11SubfaceCaseILi3EEEE20ref_case_permutation = internal global i64 0, align 8
@_ZTVN6dealii9QIteratedILi1EEE = weak_odr dso_local unnamed_addr constant { [4 x ptr] } { [4 x ptr] [ptr null, ptr @_ZTIN6dealii9QIteratedILi1EEE, ptr @_ZN6dealii10QuadratureILi1EED2Ev, ptr @_ZN6dealii9QIteratedILi1EED0Ev] }, comdat, align 8
@_ZTVN10__cxxabiv120__si_class_type_infoE = external global ptr
@_ZTSN6dealii10QuadratureILi1EEE = weak_odr dso_local constant [28 x i8] c"N6dealii10QuadratureILi1EEE\00", comdat, align 1
@_ZTIN6dealii11SubscriptorE = external constant ptr
@_ZTIN6dealii10QuadratureILi1EEE = weak_odr dso_local constant { ptr, ptr, ptr } { ptr getelementptr inbounds (ptr, ptr @_ZTVN10__cxxabiv120__si_class_type_infoE, i64 2), ptr @_ZTSN6dealii10QuadratureILi1EEE, ptr @_ZTIN6dealii11SubscriptorE }, comdat, align 8
@_ZTSN6dealii9QIteratedILi1EEE = weak_odr dso_local constant [26 x i8] c"N6dealii9QIteratedILi1EEE\00", comdat, align 1
@_ZTIN6dealii9QIteratedILi1EEE = weak_odr dso_local constant { ptr, ptr, ptr } { ptr getelementptr inbounds (ptr, ptr @_ZTVN10__cxxabiv120__si_class_type_infoE, i64 2), ptr @_ZTSN6dealii9QIteratedILi1EEE, ptr @_ZTIN6dealii10QuadratureILi1EEE }, comdat, align 8
@_ZTSN6dealii10QuadratureILi2EEE = weak_odr dso_local constant [28 x i8] c"N6dealii10QuadratureILi2EEE\00", comdat, align 1
@_ZTIN6dealii10QuadratureILi2EEE = weak_odr dso_local constant { ptr, ptr, ptr } { ptr getelementptr inbounds (ptr, ptr @_ZTVN10__cxxabiv120__si_class_type_infoE, i64 2), ptr @_ZTSN6dealii10QuadratureILi2EEE, ptr @_ZTIN6dealii11SubscriptorE }, comdat, align 8
@_ZTSN6dealii10QuadratureILi3EEE = weak_odr dso_local constant [28 x i8] c"N6dealii10QuadratureILi3EEE\00", comdat, align 1
@_ZTIN6dealii10QuadratureILi3EEE = weak_odr dso_local constant { ptr, ptr, ptr } { ptr getelementptr inbounds (ptr, ptr @_ZTVN10__cxxabiv120__si_class_type_infoE, i64 2), ptr @_ZTSN6dealii10QuadratureILi3EEE, ptr @_ZTIN6dealii11SubscriptorE }, comdat, align 8
@_ZTSN6dealii12QAnisotropicILi1EEE = weak_odr dso_local constant [30 x i8] c"N6dealii12QAnisotropicILi1EEE\00", comdat, align 1
@_ZTIN6dealii12QAnisotropicILi1EEE = weak_odr dso_local constant { ptr, ptr, ptr } { ptr getelementptr inbounds (ptr, ptr @_ZTVN10__cxxabiv120__si_class_type_infoE, i64 2), ptr @_ZTSN6dealii12QAnisotropicILi1EEE, ptr @_ZTIN6dealii10QuadratureILi1EEE }, comdat, align 8
@_ZTSN6dealii12QAnisotropicILi2EEE = weak_odr dso_local constant [30 x i8] c"N6dealii12QAnisotropicILi2EEE\00", comdat, align 1
@_ZTIN6dealii12QAnisotropicILi2EEE = weak_odr dso_local constant { ptr, ptr, ptr } { ptr getelementptr inbounds (ptr, ptr @_ZTVN10__cxxabiv120__si_class_type_infoE, i64 2), ptr @_ZTSN6dealii12QAnisotropicILi2EEE, ptr @_ZTIN6dealii10QuadratureILi2EEE }, comdat, align 8
@_ZTSN6dealii12QAnisotropicILi3EEE = weak_odr dso_local constant [30 x i8] c"N6dealii12QAnisotropicILi3EEE\00", comdat, align 1
@_ZTIN6dealii12QAnisotropicILi3EEE = weak_odr dso_local constant { ptr, ptr, ptr } { ptr getelementptr inbounds (ptr, ptr @_ZTVN10__cxxabiv120__si_class_type_infoE, i64 2), ptr @_ZTSN6dealii12QAnisotropicILi3EEE, ptr @_ZTIN6dealii10QuadratureILi3EEE }, comdat, align 8
@_ZTVN6dealii9QIteratedILi1EE27ExcInvalidQuadratureFormulaE = weak_odr dso_local unnamed_addr constant { [6 x ptr] } { [6 x ptr] [ptr null, ptr @_ZTIN6dealii9QIteratedILi1EE27ExcInvalidQuadratureFormulaE, ptr @_ZN6dealii13ExceptionBaseD2Ev, ptr @_ZN6dealii9QIteratedILi1EE27ExcInvalidQuadratureFormulaD0Ev, ptr @_ZNK6dealii13ExceptionBase4whatEv, ptr @_ZNK6dealii13ExceptionBase10print_infoERSo] }, comdat, align 8
@_ZTSN6dealii9QIteratedILi1EE27ExcInvalidQuadratureFormulaE = weak_odr dso_local constant [55 x i8] c"N6dealii9QIteratedILi1EE27ExcInvalidQuadratureFormulaE\00", comdat, align 1
@_ZTIN6dealii13ExceptionBaseE = external constant ptr
@_ZTIN6dealii9QIteratedILi1EE27ExcInvalidQuadratureFormulaE = weak_odr dso_local constant { ptr, ptr, ptr } { ptr getelementptr inbounds (ptr, ptr @_ZTVN10__cxxabiv120__si_class_type_infoE, i64 2), ptr @_ZTSN6dealii9QIteratedILi1EE27ExcInvalidQuadratureFormulaE, ptr @_ZTIN6dealii13ExceptionBaseE }, comdat, align 8
@_ZTSN6dealii9QIteratedILi2EEE = weak_odr dso_local constant [26 x i8] c"N6dealii9QIteratedILi2EEE\00", comdat, align 1
@_ZTIN6dealii9QIteratedILi2EEE = weak_odr dso_local constant { ptr, ptr, ptr } { ptr getelementptr inbounds (ptr, ptr @_ZTVN10__cxxabiv120__si_class_type_infoE, i64 2), ptr @_ZTSN6dealii9QIteratedILi2EEE, ptr @_ZTIN6dealii10QuadratureILi2EEE }, comdat, align 8
@_ZTVN6dealii9QIteratedILi2EE27ExcInvalidQuadratureFormulaE = weak_odr dso_local unnamed_addr constant { [6 x ptr] } { [6 x ptr] [ptr null, ptr @_ZTIN6dealii9QIteratedILi2EE27ExcInvalidQuadratureFormulaE, ptr @_ZN6dealii13ExceptionBaseD2Ev, ptr @_ZN6dealii9QIteratedILi2EE27ExcInvalidQuadratureFormulaD0Ev, ptr @_ZNK6dealii13ExceptionBase4whatEv, ptr @_ZNK6dealii13ExceptionBase10print_infoERSo] }, comdat, align 8
@_ZTSN6dealii9QIteratedILi2EE27ExcInvalidQuadratureFormulaE = weak_odr dso_local constant [55 x i8] c"N6dealii9QIteratedILi2EE27ExcInvalidQuadratureFormulaE\00", comdat, align 1
@_ZTIN6dealii9QIteratedILi2EE27ExcInvalidQuadratureFormulaE = weak_odr dso_local constant { ptr, ptr, ptr } { ptr getelementptr inbounds (ptr, ptr @_ZTVN10__cxxabiv120__si_class_type_infoE, i64 2), ptr @_ZTSN6dealii9QIteratedILi2EE27ExcInvalidQuadratureFormulaE, ptr @_ZTIN6dealii13ExceptionBaseE }, comdat, align 8
@_ZTSN6dealii9QIteratedILi3EEE = weak_odr dso_local constant [26 x i8] c"N6dealii9QIteratedILi3EEE\00", comdat, align 1
@_ZTIN6dealii9QIteratedILi3EEE = weak_odr dso_local constant { ptr, ptr, ptr } { ptr getelementptr inbounds (ptr, ptr @_ZTVN10__cxxabiv120__si_class_type_infoE, i64 2), ptr @_ZTSN6dealii9QIteratedILi3EEE, ptr @_ZTIN6dealii10QuadratureILi3EEE }, comdat, align 8
@_ZTVN6dealii9QIteratedILi3EE27ExcInvalidQuadratureFormulaE = weak_odr dso_local unnamed_addr constant { [6 x ptr] } { [6 x ptr] [ptr null, ptr @_ZTIN6dealii9QIteratedILi3EE27ExcInvalidQuadratureFormulaE, ptr @_ZN6dealii13ExceptionBaseD2Ev, ptr @_ZN6dealii9QIteratedILi3EE27ExcInvalidQuadratureFormulaD0Ev, ptr @_ZNK6dealii13ExceptionBase4whatEv, ptr @_ZNK6dealii13ExceptionBase10print_infoERSo] }, comdat, align 8
@_ZTSN6dealii9QIteratedILi3EE27ExcInvalidQuadratureFormulaE = weak_odr dso_local constant [55 x i8] c"N6dealii9QIteratedILi3EE27ExcInvalidQuadratureFormulaE\00", comdat, align 1
@_ZTIN6dealii9QIteratedILi3EE27ExcInvalidQuadratureFormulaE = weak_odr dso_local constant { ptr, ptr, ptr } { ptr getelementptr inbounds (ptr, ptr @_ZTVN10__cxxabiv120__si_class_type_infoE, i64 2), ptr @_ZTSN6dealii9QIteratedILi3EE27ExcInvalidQuadratureFormulaE, ptr @_ZTIN6dealii13ExceptionBaseE }, comdat, align 8
@_ZTSN6dealii10QuadratureILi0EEE = linkonce_odr dso_local constant [28 x i8] c"N6dealii10QuadratureILi0EEE\00", comdat, align 1
@_ZTIN6dealii10QuadratureILi0EEE = linkonce_odr dso_local constant { ptr, ptr, ptr } { ptr getelementptr inbounds (ptr, ptr @_ZTVN10__cxxabiv120__si_class_type_infoE, i64 2), ptr @_ZTSN6dealii10QuadratureILi0EEE, ptr @_ZTIN6dealii11SubscriptorE }, comdat, align 8
@.str.2 = private unnamed_addr constant [49 x i8] c"cannot create std::vector larger than max_size()\00", align 1
@.str.3 = private unnamed_addr constant [26 x i8] c"vector::_M_realloc_insert\00", align 1
@switch.table._ZN6dealii10QProjectorILi3EE23project_to_all_subfacesERKNS_10QuadratureILi2EEE = private unnamed_addr constant [3 x i64] [i64 2, i64 0, i64 1], align 8
@switch.table._ZN6dealii10QProjectorILi3EE23project_to_all_subfacesERKNS_10QuadratureILi2EEE.6 = private unnamed_addr constant [3 x i64] [i64 1, i64 2, i64 0], align 8

@_ZN6dealii10QuadratureILi1EEC1Ej = weak_odr dso_local unnamed_addr alias void (ptr, i32), ptr @_ZN6dealii10QuadratureILi1EEC2Ej
@_ZN6dealii10QuadratureILi1EEC1ERKS1_ = weak_odr dso_local unnamed_addr alias void (ptr, ptr), ptr @_ZN6dealii10QuadratureILi1EEC2ERKS1_
@_ZN6dealii10QuadratureILi1EEC1ERKSt6vectorINS_5PointILi1EEESaIS4_EERKS2_IdSaIdEE = weak_odr dso_local unnamed_addr alias void (ptr, ptr, ptr), ptr @_ZN6dealii10QuadratureILi1EEC2ERKSt6vectorINS_5PointILi1EEESaIS4_EERKS2_IdSaIdEE
@_ZN6dealii10QuadratureILi1EEC1ERKSt6vectorINS_5PointILi1EEESaIS4_EE = weak_odr dso_local unnamed_addr alias void (ptr, ptr), ptr @_ZN6dealii10QuadratureILi1EEC2ERKSt6vectorINS_5PointILi1EEESaIS4_EE
@_ZN6dealii10QuadratureILi1EEC1ERKNS_5PointILi1EEE = weak_odr dso_local unnamed_addr alias void (ptr, ptr), ptr @_ZN6dealii10QuadratureILi1EEC2ERKNS_5PointILi1EEE
@_ZN6dealii10QuadratureILi1EED1Ev = weak_odr dso_local unnamed_addr alias void (ptr), ptr @_ZN6dealii10QuadratureILi1EED2Ev
@_ZN6dealii10QuadratureILi2EEC1Ej = weak_odr dso_local unnamed_addr alias void (ptr, i32), ptr @_ZN6dealii10QuadratureILi2EEC2Ej
@_ZN6dealii10QuadratureILi2EEC1ERKNS0_ILi1EEES4_ = weak_odr dso_local unnamed_addr alias void (ptr, ptr, ptr), ptr @_ZN6dealii10QuadratureILi2EEC2ERKNS0_ILi1EEES4_
@_ZN6dealii10QuadratureILi2EEC1ERKNS0_ILi1EEE = weak_odr dso_local unnamed_addr alias void (ptr, ptr), ptr @_ZN6dealii10QuadratureILi2EEC2ERKNS0_ILi1EEE
@_ZN6dealii10QuadratureILi2EEC1ERKS1_ = weak_odr dso_local unnamed_addr alias void (ptr, ptr), ptr @_ZN6dealii10QuadratureILi2EEC2ERKS1_
@_ZN6dealii10QuadratureILi2EEC1ERKSt6vectorINS_5PointILi2EEESaIS4_EERKS2_IdSaIdEE = weak_odr dso_local unnamed_addr alias void (ptr, ptr, ptr), ptr @_ZN6dealii10QuadratureILi2EEC2ERKSt6vectorINS_5PointILi2EEESaIS4_EERKS2_IdSaIdEE
@_ZN6dealii10QuadratureILi2EEC1ERKSt6vectorINS_5PointILi2EEESaIS4_EE = weak_odr dso_local unnamed_addr alias void (ptr, ptr), ptr @_ZN6dealii10QuadratureILi2EEC2ERKSt6vectorINS_5PointILi2EEESaIS4_EE
@_ZN6dealii10QuadratureILi2EEC1ERKNS_5PointILi2EEE = weak_odr dso_local unnamed_addr alias void (ptr, ptr), ptr @_ZN6dealii10QuadratureILi2EEC2ERKNS_5PointILi2EEE
@_ZN6dealii10QuadratureILi2EED1Ev = weak_odr dso_local unnamed_addr alias void (ptr), ptr @_ZN6dealii10QuadratureILi2EED2Ev
@_ZN6dealii10QuadratureILi3EEC1Ej = weak_odr dso_local unnamed_addr alias void (ptr, i32), ptr @_ZN6dealii10QuadratureILi3EEC2Ej
@_ZN6dealii10QuadratureILi3EEC1ERKNS0_ILi2EEERKNS0_ILi1EEE = weak_odr dso_local unnamed_addr alias void (ptr, ptr, ptr), ptr @_ZN6dealii10QuadratureILi3EEC2ERKNS0_ILi2EEERKNS0_ILi1EEE
@_ZN6dealii10QuadratureILi3EEC1ERKNS0_ILi1EEE = weak_odr dso_local unnamed_addr alias void (ptr, ptr), ptr @_ZN6dealii10QuadratureILi3EEC2ERKNS0_ILi1EEE
@_ZN6dealii10QuadratureILi3EEC1ERKS1_ = weak_odr dso_local unnamed_addr alias void (ptr, ptr), ptr @_ZN6dealii10QuadratureILi3EEC2ERKS1_
@_ZN6dealii10QuadratureILi3EEC1ERKSt6vectorINS_5PointILi3EEESaIS4_EERKS2_IdSaIdEE = weak_odr dso_local unnamed_addr alias void (ptr, ptr, ptr), ptr @_ZN6dealii10QuadratureILi3EEC2ERKSt6vectorINS_5PointILi3EEESaIS4_EERKS2_IdSaIdEE
@_ZN6dealii10QuadratureILi3EEC1ERKSt6vectorINS_5PointILi3EEESaIS4_EE = weak_odr dso_local unnamed_addr alias void (ptr, ptr), ptr @_ZN6dealii10QuadratureILi3EEC2ERKSt6vectorINS_5PointILi3EEESaIS4_EE
@_ZN6dealii10QuadratureILi3EEC1ERKNS_5PointILi3EEE = weak_odr dso_local unnamed_addr alias void (ptr, ptr), ptr @_ZN6dealii10QuadratureILi3EEC2ERKNS_5PointILi3EEE
@_ZN6dealii10QuadratureILi3EED1Ev = weak_odr dso_local unnamed_addr alias void (ptr), ptr @_ZN6dealii10QuadratureILi3EED2Ev
@_ZN6dealii12QAnisotropicILi1EEC1ERKNS_10QuadratureILi1EEE = weak_odr dso_local unnamed_addr alias void (ptr, ptr), ptr @_ZN6dealii12QAnisotropicILi1EEC2ERKNS_10QuadratureILi1EEE
@_ZN6dealii12QAnisotropicILi1EEC1ERKNS_10QuadratureILi1EEES5_ = weak_odr dso_local unnamed_addr alias void (ptr, ptr, ptr), ptr @_ZN6dealii12QAnisotropicILi1EEC2ERKNS_10QuadratureILi1EEES5_
@_ZN6dealii12QAnisotropicILi1EEC1ERKNS_10QuadratureILi1EEES5_S5_ = weak_odr dso_local unnamed_addr alias void (ptr, ptr, ptr, ptr), ptr @_ZN6dealii12QAnisotropicILi1EEC2ERKNS_10QuadratureILi1EEES5_S5_
@_ZN6dealii12QAnisotropicILi2EEC1ERKNS_10QuadratureILi1EEE = weak_odr dso_local unnamed_addr alias void (ptr, ptr), ptr @_ZN6dealii12QAnisotropicILi2EEC2ERKNS_10QuadratureILi1EEE
@_ZN6dealii12QAnisotropicILi2EEC1ERKNS_10QuadratureILi1EEES5_ = weak_odr dso_local unnamed_addr alias void (ptr, ptr, ptr), ptr @_ZN6dealii12QAnisotropicILi2EEC2ERKNS_10QuadratureILi1EEES5_
@_ZN6dealii12QAnisotropicILi2EEC1ERKNS_10QuadratureILi1EEES5_S5_ = weak_odr dso_local unnamed_addr alias void (ptr, ptr, ptr, ptr), ptr @_ZN6dealii12QAnisotropicILi2EEC2ERKNS_10QuadratureILi1EEES5_S5_
@_ZN6dealii12QAnisotropicILi3EEC1ERKNS_10QuadratureILi1EEE = weak_odr dso_local unnamed_addr alias void (ptr, ptr), ptr @_ZN6dealii12QAnisotropicILi3EEC2ERKNS_10QuadratureILi1EEE
@_ZN6dealii12QAnisotropicILi3EEC1ERKNS_10QuadratureILi1EEES5_ = weak_odr dso_local unnamed_addr alias void (ptr, ptr, ptr), ptr @_ZN6dealii12QAnisotropicILi3EEC2ERKNS_10QuadratureILi1EEES5_
@_ZN6dealii12QAnisotropicILi3EEC1ERKNS_10QuadratureILi1EEES5_S5_ = weak_odr dso_local unnamed_addr alias void (ptr, ptr, ptr, ptr), ptr @_ZN6dealii12QAnisotropicILi3EEC2ERKNS_10QuadratureILi1EEES5_S5_
@_ZN6dealii9QIteratedILi2EEC1ERKNS_10QuadratureILi1EEEj = weak_odr dso_local unnamed_addr alias void (ptr, ptr, i32), ptr @_ZN6dealii9QIteratedILi2EEC2ERKNS_10QuadratureILi1EEEj
@_ZN6dealii9QIteratedILi3EEC1ERKNS_10QuadratureILi1EEEj = weak_odr dso_local unnamed_addr alias void (ptr, ptr, i32), ptr @_ZN6dealii9QIteratedILi3EEC2ERKNS_10QuadratureILi1EEEj
@_ZN6dealii10QProjectorILi1EE17DataSetDescriptorC1Ev = weak_odr dso_local unnamed_addr alias void (ptr), ptr @_ZN6dealii10QProjectorILi1EE17DataSetDescriptorC2Ev
@_ZN6dealii10QProjectorILi1EE17DataSetDescriptorC1Ej = weak_odr dso_local unnamed_addr alias void (ptr, i32), ptr @_ZN6dealii10QProjectorILi1EE17DataSetDescriptorC2Ej
@_ZN6dealii10QProjectorILi2EE17DataSetDescriptorC1Ev = weak_odr dso_local unnamed_addr alias void (ptr), ptr @_ZN6dealii10QProjectorILi2EE17DataSetDescriptorC2Ev
@_ZN6dealii10QProjectorILi2EE17DataSetDescriptorC1Ej = weak_odr dso_local unnamed_addr alias void (ptr, i32), ptr @_ZN6dealii10QProjectorILi2EE17DataSetDescriptorC2Ej
@_ZN6dealii10QProjectorILi3EE17DataSetDescriptorC1Ev = weak_odr dso_local unnamed_addr alias void (ptr), ptr @_ZN6dealii10QProjectorILi3EE17DataSetDescriptorC2Ev
@_ZN6dealii10QProjectorILi3EE17DataSetDescriptorC1Ej = weak_odr dso_local unnamed_addr alias void (ptr, i32), ptr @_ZN6dealii10QProjectorILi3EE17DataSetDescriptorC2Ej
@_ZN6dealii10QuadratureILi0EEC1Ej = dso_local unnamed_addr alias void (ptr, i32), ptr @_ZN6dealii10QuadratureILi0EEC2Ej
@_ZN6dealii10QuadratureILi0EEC1ERKS1_ = dso_local unnamed_addr alias void (ptr, ptr), ptr @_ZN6dealii10QuadratureILi0EEC2ERKS1_
@_ZN6dealii10QuadratureILi0EED1Ev = dso_local unnamed_addr alias void (ptr), ptr @_ZN6dealii10QuadratureILi0EED2Ev
@_ZN6dealii10QuadratureILi0EEC1ERKNS0_ILin1EEERKNS0_ILi1EEE = dso_local unnamed_addr alias void (ptr, ptr, ptr), ptr @_ZN6dealii10QuadratureILi0EEC2ERKNS0_ILin1EEERKNS0_ILi1EEE
@_ZN6dealii10QuadratureILi1EEC1ERKNS0_ILi0EEERKS1_ = dso_local unnamed_addr alias void (ptr, ptr, ptr), ptr @_ZN6dealii10QuadratureILi1EEC2ERKNS0_ILi0EEERKS1_
@_ZN6dealii10QuadratureILi1EEC1ERKNS0_ILi0EEE = dso_local unnamed_addr alias void (ptr, ptr), ptr @_ZN6dealii10QuadratureILi1EEC2ERKNS0_ILi0EEE
@_ZN6dealii9QIteratedILi1EEC1ERKNS_10QuadratureILi1EEEj = dso_local unnamed_addr alias void (ptr, ptr, i32), ptr @_ZN6dealii9QIteratedILi1EEC2ERKNS_10QuadratureILi1EEEj

; Function Attrs: sspstrong uwtable
define weak_odr dso_local void @_ZN6dealii10QuadratureILi1EEC2Ej(ptr noundef nonnull align 8 dereferenceable(128) %0, i32 noundef %1) unnamed_addr #0 comdat($_ZN6dealii10QuadratureILi1EEC5Ej) align 2 personality ptr @__gxx_personality_v0 {
  tail call void @_ZN6dealii11SubscriptorC2Ev(ptr noundef nonnull align 8 dereferenceable(72) %0)
  store ptr getelementptr inbounds ({ [4 x ptr] }, ptr @_ZTVN6dealii10QuadratureILi1EEE, i64 0, inrange i32 0, i64 2), ptr %0, align 8, !tbaa !5
  %3 = getelementptr inbounds %"class.dealii::Quadrature", ptr %0, i64 0, i32 1
  store i32 %1, ptr %3, align 8, !tbaa !8
  %4 = getelementptr inbounds %"class.dealii::Quadrature", ptr %0, i64 0, i32 2
  %5 = zext i32 %1 to i64
  tail call void @llvm.memset.p0.i64(ptr noundef nonnull align 8 dereferenceable(24) %4, i8 0, i64 24, i1 false)
  %6 = icmp eq i32 %1, 0
  br i1 %6, label %7, label %8

7:                                                ; preds = %2
  tail call void @llvm.memset.p0.i64(ptr noundef nonnull align 8 dereferenceable(48) %4, i8 0, i64 48, i1 false)
  br label %21

8:                                                ; preds = %2
  %9 = shl nuw nsw i64 %5, 3
  %10 = invoke noalias noundef nonnull ptr @_Znwm(i64 noundef %9) #22
          to label %11 unwind label %24

11:                                               ; preds = %8
  store ptr %10, ptr %4, align 8, !tbaa !31
  %12 = getelementptr inbounds %"class.dealii::Point", ptr %10, i64 %5
  %13 = getelementptr inbounds %"class.dealii::Quadrature", ptr %0, i64 0, i32 2, i32 0, i32 0, i32 0, i32 2
  store ptr %12, ptr %13, align 8, !tbaa !32
  tail call void @llvm.memset.p0.i64(ptr nonnull align 8 %10, i8 0, i64 %9, i1 false), !tbaa !33
  %14 = getelementptr i8, ptr %10, i64 %9
  %15 = getelementptr inbounds %"class.dealii::Quadrature", ptr %0, i64 0, i32 2, i32 0, i32 0, i32 0, i32 1
  store ptr %14, ptr %15, align 8, !tbaa !35
  %16 = getelementptr inbounds %"class.dealii::Quadrature", ptr %0, i64 0, i32 3
  tail call void @llvm.memset.p0.i64(ptr noundef nonnull align 8 dereferenceable(24) %16, i8 0, i64 24, i1 false)
  %17 = invoke noalias noundef nonnull ptr @_Znwm(i64 noundef %9) #22
          to label %18 unwind label %26

18:                                               ; preds = %11
  store ptr %17, ptr %16, align 8, !tbaa !36
  %19 = getelementptr inbounds double, ptr %17, i64 %5
  %20 = getelementptr inbounds %"class.dealii::Quadrature", ptr %0, i64 0, i32 3, i32 0, i32 0, i32 0, i32 2
  store ptr %19, ptr %20, align 8, !tbaa !37
  tail call void @llvm.memset.p0.i64(ptr nonnull align 8 %17, i8 0, i64 %9, i1 false), !tbaa !33
  br label %21

21:                                               ; preds = %18, %7
  %22 = phi ptr [ null, %7 ], [ %19, %18 ]
  %23 = getelementptr inbounds %"class.dealii::Quadrature", ptr %0, i64 0, i32 3, i32 0, i32 0, i32 0, i32 1
  store ptr %22, ptr %23, align 8, !tbaa !38
  ret void

24:                                               ; preds = %8
  %25 = landingpad { ptr, i32 }
          cleanup
  br label %28

26:                                               ; preds = %11
  %27 = landingpad { ptr, i32 }
          cleanup
  tail call void @_ZdlPv(ptr noundef nonnull %10) #23
  br label %28

28:                                               ; preds = %26, %24
  %29 = phi { ptr, i32 } [ %25, %24 ], [ %27, %26 ]
  invoke void @_ZN6dealii11SubscriptorD2Ev(ptr noundef nonnull align 8 dereferenceable(72) %0)
          to label %30 unwind label %31

30:                                               ; preds = %28
  resume { ptr, i32 } %29

31:                                               ; preds = %28
  %32 = landingpad { ptr, i32 }
          catch ptr null
  %33 = extractvalue { ptr, i32 } %32, 0
  tail call void @__clang_call_terminate(ptr %33) #24
  unreachable
}

declare void @_ZN6dealii11SubscriptorC2Ev(ptr noundef nonnull align 8 dereferenceable(72)) unnamed_addr #1

; Function Attrs: mustprogress nocallback nofree nosync nounwind willreturn memory(argmem: readwrite)
declare void @llvm.lifetime.start.p0(i64 immarg, ptr nocapture) #2

declare i32 @__gxx_personality_v0(...)

; Function Attrs: mustprogress nocallback nofree nosync nounwind willreturn memory(argmem: readwrite)
declare void @llvm.lifetime.end.p0(i64 immarg, ptr nocapture) #2

; Function Attrs: noinline noreturn nounwind sspstrong uwtable
define linkonce_odr hidden void @__clang_call_terminate(ptr noundef %0) local_unnamed_addr #3 comdat {
  %2 = tail call ptr @__cxa_begin_catch(ptr %0) #25
  tail call void @_ZSt9terminatev() #24
  unreachable
}

declare ptr @__cxa_begin_catch(ptr) local_unnamed_addr

declare void @_ZSt9terminatev() local_unnamed_addr

declare void @_ZN6dealii11SubscriptorD2Ev(ptr noundef nonnull align 8 dereferenceable(72)) unnamed_addr #1

; Function Attrs: sspstrong uwtable
define weak_odr dso_local void @_ZN6dealii10QuadratureILi1EEC2ERKS1_(ptr noundef nonnull align 8 dereferenceable(128) %0, ptr noundef nonnull align 8 dereferenceable(128) %1) unnamed_addr #0 comdat($_ZN6dealii10QuadratureILi1EEC5ERKS1_) align 2 personality ptr @__gxx_personality_v0 {
  tail call void @_ZN6dealii11SubscriptorC2Ev(ptr noundef nonnull align 8 dereferenceable(72) %0)
  store ptr getelementptr inbounds ({ [4 x ptr] }, ptr @_ZTVN6dealii10QuadratureILi1EEE, i64 0, inrange i32 0, i64 2), ptr %0, align 8, !tbaa !5
  %3 = getelementptr inbounds %"class.dealii::Quadrature", ptr %1, i64 0, i32 3
  %4 = getelementptr inbounds %"class.dealii::Quadrature", ptr %1, i64 0, i32 3, i32 0, i32 0, i32 0, i32 1
  %5 = load ptr, ptr %4, align 8, !tbaa !38
  %6 = load ptr, ptr %3, align 8, !tbaa !36
  %7 = ptrtoint ptr %5 to i64
  %8 = ptrtoint ptr %6 to i64
  %9 = sub i64 %7, %8
  %10 = lshr exact i64 %9, 3
  %11 = trunc i64 %10 to i32
  %12 = getelementptr inbounds %"class.dealii::Quadrature", ptr %0, i64 0, i32 1
  store i32 %11, ptr %12, align 8, !tbaa !8
  %13 = getelementptr inbounds %"class.dealii::Quadrature", ptr %0, i64 0, i32 2
  %14 = getelementptr inbounds %"class.dealii::Quadrature", ptr %1, i64 0, i32 2
  %15 = getelementptr inbounds %"class.dealii::Quadrature", ptr %1, i64 0, i32 2, i32 0, i32 0, i32 0, i32 1
  %16 = load ptr, ptr %15, align 8, !tbaa !35
  %17 = load ptr, ptr %14, align 8, !tbaa !31
  %18 = ptrtoint ptr %16 to i64
  %19 = ptrtoint ptr %17 to i64
  %20 = sub i64 %18, %19
  %21 = ashr exact i64 %20, 3
  tail call void @llvm.memset.p0.i64(ptr noundef nonnull align 8 dereferenceable(24) %13, i8 0, i64 24, i1 false)
  %22 = icmp eq ptr %16, %17
  br i1 %22, label %29, label %23

23:                                               ; preds = %2
  %24 = icmp ugt i64 %20, 9223372036854775800
  br i1 %24, label %25, label %27, !prof !39

25:                                               ; preds = %23
  invoke void @_ZSt28__throw_bad_array_new_lengthv() #26
          to label %26 unwind label %120

26:                                               ; preds = %25
  unreachable

27:                                               ; preds = %23
  %28 = invoke noalias noundef nonnull ptr @_Znwm(i64 noundef %20) #22
          to label %29 unwind label %120

29:                                               ; preds = %27, %2
  %30 = phi ptr [ null, %2 ], [ %28, %27 ]
  store ptr %30, ptr %13, align 8, !tbaa !31
  %31 = getelementptr inbounds %"class.dealii::Quadrature", ptr %0, i64 0, i32 2, i32 0, i32 0, i32 0, i32 1
  store ptr %30, ptr %31, align 8, !tbaa !35
  %32 = getelementptr inbounds %"class.dealii::Point", ptr %30, i64 %21
  %33 = getelementptr inbounds %"class.dealii::Quadrature", ptr %0, i64 0, i32 2, i32 0, i32 0, i32 0, i32 2
  store ptr %32, ptr %33, align 8, !tbaa !32
  %34 = load ptr, ptr %14, align 8, !tbaa !40
  %35 = load ptr, ptr %15, align 8, !tbaa !40
  %36 = icmp eq ptr %34, %35
  br i1 %36, label %85, label %37

37:                                               ; preds = %29
  %38 = ptrtoint ptr %34 to i64
  %39 = ptrtoint ptr %30 to i64
  %40 = ptrtoint ptr %35 to i64
  %41 = add i64 %40, -8
  %42 = sub i64 %41, %38
  %43 = lshr i64 %42, 3
  %44 = add nuw nsw i64 %43, 1
  %45 = icmp ult i64 %42, 120
  %46 = sub i64 %39, %38
  %47 = icmp ult i64 %46, 128
  %48 = or i1 %45, %47
  br i1 %48, label %75, label %49

49:                                               ; preds = %37
  %50 = and i64 %44, 4611686018427387888
  %51 = shl i64 %50, 3
  %52 = getelementptr i8, ptr %30, i64 %51
  %53 = shl i64 %50, 3
  %54 = getelementptr i8, ptr %34, i64 %53
  br label %55

55:                                               ; preds = %55, %49
  %56 = phi i64 [ 0, %49 ], [ %71, %55 ]
  %57 = shl i64 %56, 3
  %58 = getelementptr i8, ptr %30, i64 %57
  %59 = shl i64 %56, 3
  %60 = getelementptr i8, ptr %34, i64 %59
  %61 = load <4 x double>, ptr %60, align 8, !tbaa !33
  %62 = getelementptr double, ptr %60, i64 4
  %63 = load <4 x double>, ptr %62, align 8, !tbaa !33
  %64 = getelementptr double, ptr %60, i64 8
  %65 = load <4 x double>, ptr %64, align 8, !tbaa !33
  %66 = getelementptr double, ptr %60, i64 12
  %67 = load <4 x double>, ptr %66, align 8, !tbaa !33
  store <4 x double> %61, ptr %58, align 8, !tbaa !33
  %68 = getelementptr double, ptr %58, i64 4
  store <4 x double> %63, ptr %68, align 8, !tbaa !33
  %69 = getelementptr double, ptr %58, i64 8
  store <4 x double> %65, ptr %69, align 8, !tbaa !33
  %70 = getelementptr double, ptr %58, i64 12
  store <4 x double> %67, ptr %70, align 8, !tbaa !33
  %71 = add nuw i64 %56, 16
  %72 = icmp eq i64 %71, %50
  br i1 %72, label %73, label %55, !llvm.loop !41

73:                                               ; preds = %55
  %74 = icmp eq i64 %44, %50
  br i1 %74, label %85, label %75

75:                                               ; preds = %37, %73
  %76 = phi ptr [ %30, %37 ], [ %52, %73 ]
  %77 = phi ptr [ %34, %37 ], [ %54, %73 ]
  br label %78

78:                                               ; preds = %75, %78
  %79 = phi ptr [ %83, %78 ], [ %76, %75 ]
  %80 = phi ptr [ %82, %78 ], [ %77, %75 ]
  %81 = load double, ptr %80, align 8, !tbaa !33
  store double %81, ptr %79, align 8, !tbaa !33
  %82 = getelementptr inbounds %"class.dealii::Point", ptr %80, i64 1
  %83 = getelementptr inbounds %"class.dealii::Point", ptr %79, i64 1
  %84 = icmp eq ptr %82, %35
  br i1 %84, label %85, label %78, !llvm.loop !44

85:                                               ; preds = %78, %73, %29
  %86 = phi ptr [ %30, %29 ], [ %52, %73 ], [ %83, %78 ]
  store ptr %86, ptr %31, align 8, !tbaa !35
  %87 = getelementptr inbounds %"class.dealii::Quadrature", ptr %0, i64 0, i32 3
  %88 = load ptr, ptr %4, align 8, !tbaa !38
  %89 = load ptr, ptr %3, align 8, !tbaa !36
  %90 = ptrtoint ptr %88 to i64
  %91 = ptrtoint ptr %89 to i64
  %92 = sub i64 %90, %91
  %93 = ashr exact i64 %92, 3
  tail call void @llvm.memset.p0.i64(ptr noundef nonnull align 8 dereferenceable(24) %87, i8 0, i64 24, i1 false)
  %94 = icmp eq ptr %88, %89
  br i1 %94, label %101, label %95

95:                                               ; preds = %85
  %96 = icmp ugt i64 %92, 9223372036854775800
  br i1 %96, label %97, label %99, !prof !39

97:                                               ; preds = %95
  invoke void @_ZSt28__throw_bad_array_new_lengthv() #26
          to label %98 unwind label %122

98:                                               ; preds = %97
  unreachable

99:                                               ; preds = %95
  %100 = invoke noalias noundef nonnull ptr @_Znwm(i64 noundef %92) #22
          to label %101 unwind label %122

101:                                              ; preds = %99, %85
  %102 = phi ptr [ null, %85 ], [ %100, %99 ]
  store ptr %102, ptr %87, align 8, !tbaa !36
  %103 = getelementptr inbounds %"class.dealii::Quadrature", ptr %0, i64 0, i32 3, i32 0, i32 0, i32 0, i32 1
  store ptr %102, ptr %103, align 8, !tbaa !38
  %104 = getelementptr inbounds double, ptr %102, i64 %93
  %105 = getelementptr inbounds %"class.dealii::Quadrature", ptr %0, i64 0, i32 3, i32 0, i32 0, i32 0, i32 2
  store ptr %104, ptr %105, align 8, !tbaa !37
  %106 = load ptr, ptr %3, align 8, !tbaa !40
  %107 = load ptr, ptr %4, align 8, !tbaa !40
  %108 = ptrtoint ptr %107 to i64
  %109 = ptrtoint ptr %106 to i64
  %110 = sub i64 %108, %109
  %111 = icmp sgt i64 %110, 8
  br i1 %111, label %112, label %113, !prof !45

112:                                              ; preds = %101
  tail call void @llvm.memmove.p0.p0.i64(ptr align 8 %102, ptr align 8 %106, i64 %110, i1 false)
  br label %117

113:                                              ; preds = %101
  %114 = icmp eq i64 %110, 8
  br i1 %114, label %115, label %117

115:                                              ; preds = %113
  %116 = load double, ptr %106, align 8, !tbaa !33
  store double %116, ptr %102, align 8, !tbaa !33
  br label %117

117:                                              ; preds = %115, %113, %112
  %118 = ashr exact i64 %110, 3
  %119 = getelementptr inbounds double, ptr %102, i64 %118
  store ptr %119, ptr %103, align 8, !tbaa !38
  ret void

120:                                              ; preds = %27, %25
  %121 = landingpad { ptr, i32 }
          cleanup
  br label %127

122:                                              ; preds = %99, %97
  %123 = landingpad { ptr, i32 }
          cleanup
  %124 = load ptr, ptr %13, align 8, !tbaa !31
  %125 = icmp eq ptr %124, null
  br i1 %125, label %127, label %126

126:                                              ; preds = %122
  tail call void @_ZdlPv(ptr noundef nonnull %124) #23
  br label %127

127:                                              ; preds = %126, %122, %120
  %128 = phi { ptr, i32 } [ %121, %120 ], [ %123, %122 ], [ %123, %126 ]
  invoke void @_ZN6dealii11SubscriptorD2Ev(ptr noundef nonnull align 8 dereferenceable(72) %0)
          to label %129 unwind label %130

129:                                              ; preds = %127
  resume { ptr, i32 } %128

130:                                              ; preds = %127
  %131 = landingpad { ptr, i32 }
          catch ptr null
  %132 = extractvalue { ptr, i32 } %131, 0
  tail call void @__clang_call_terminate(ptr %132) #24
  unreachable
}

; Function Attrs: inlinehint sspstrong uwtable
define weak_odr dso_local noundef i32 @_ZNK6dealii10QuadratureILi1EE4sizeEv(ptr noundef nonnull align 8 dereferenceable(128) %0) local_unnamed_addr #4 comdat align 2 {
  %2 = getelementptr inbounds %"class.dealii::Quadrature", ptr %0, i64 0, i32 3
  %3 = getelementptr inbounds %"class.dealii::Quadrature", ptr %0, i64 0, i32 3, i32 0, i32 0, i32 0, i32 1
  %4 = load ptr, ptr %3, align 8, !tbaa !38
  %5 = load ptr, ptr %2, align 8, !tbaa !36
  %6 = ptrtoint ptr %4 to i64
  %7 = ptrtoint ptr %5 to i64
  %8 = sub i64 %6, %7
  %9 = lshr exact i64 %8, 3
  %10 = trunc i64 %9 to i32
  ret i32 %10
}

; Function Attrs: sspstrong uwtable
define weak_odr dso_local void @_ZN6dealii10QuadratureILi1EEC2ERKSt6vectorINS_5PointILi1EEESaIS4_EERKS2_IdSaIdEE(ptr noundef nonnull align 8 dereferenceable(128) %0, ptr noundef nonnull align 8 dereferenceable(24) %1, ptr noundef nonnull align 8 dereferenceable(24) %2) unnamed_addr #0 comdat($_ZN6dealii10QuadratureILi1EEC5ERKSt6vectorINS_5PointILi1EEESaIS4_EERKS2_IdSaIdEE) align 2 personality ptr @__gxx_personality_v0 {
  tail call void @_ZN6dealii11SubscriptorC2Ev(ptr noundef nonnull align 8 dereferenceable(72) %0)
  store ptr getelementptr inbounds ({ [4 x ptr] }, ptr @_ZTVN6dealii10QuadratureILi1EEE, i64 0, inrange i32 0, i64 2), ptr %0, align 8, !tbaa !5
  %4 = getelementptr inbounds %"class.dealii::Quadrature", ptr %0, i64 0, i32 1
  %5 = getelementptr inbounds %"struct.std::_Vector_base<dealii::Point<1>, std::allocator<dealii::Point<1> > >::_Vector_impl_data", ptr %1, i64 0, i32 1
  %6 = load ptr, ptr %5, align 8, !tbaa !35
  %7 = load ptr, ptr %1, align 8, !tbaa !31
  %8 = ptrtoint ptr %6 to i64
  %9 = ptrtoint ptr %7 to i64
  %10 = sub i64 %8, %9
  %11 = ashr exact i64 %10, 3
  %12 = trunc i64 %11 to i32
  store i32 %12, ptr %4, align 8, !tbaa !8
  %13 = getelementptr inbounds %"class.dealii::Quadrature", ptr %0, i64 0, i32 2
  tail call void @llvm.memset.p0.i64(ptr noundef nonnull align 8 dereferenceable(24) %13, i8 0, i64 24, i1 false)
  %14 = icmp eq ptr %6, %7
  br i1 %14, label %21, label %15

15:                                               ; preds = %3
  %16 = icmp ugt i64 %10, 9223372036854775800
  br i1 %16, label %17, label %19, !prof !39

17:                                               ; preds = %15
  invoke void @_ZSt28__throw_bad_array_new_lengthv() #26
          to label %18 unwind label %113

18:                                               ; preds = %17
  unreachable

19:                                               ; preds = %15
  %20 = invoke noalias noundef nonnull ptr @_Znwm(i64 noundef %10) #22
          to label %21 unwind label %113

21:                                               ; preds = %19, %3
  %22 = phi ptr [ null, %3 ], [ %20, %19 ]
  store ptr %22, ptr %13, align 8, !tbaa !31
  %23 = getelementptr inbounds %"class.dealii::Quadrature", ptr %0, i64 0, i32 2, i32 0, i32 0, i32 0, i32 1
  store ptr %22, ptr %23, align 8, !tbaa !35
  %24 = getelementptr inbounds %"class.dealii::Point", ptr %22, i64 %11
  %25 = getelementptr inbounds %"class.dealii::Quadrature", ptr %0, i64 0, i32 2, i32 0, i32 0, i32 0, i32 2
  store ptr %24, ptr %25, align 8, !tbaa !32
  %26 = load ptr, ptr %1, align 8, !tbaa !40
  %27 = load ptr, ptr %5, align 8, !tbaa !40
  %28 = icmp eq ptr %26, %27
  br i1 %28, label %77, label %29

29:                                               ; preds = %21
  %30 = ptrtoint ptr %26 to i64
  %31 = ptrtoint ptr %22 to i64
  %32 = ptrtoint ptr %27 to i64
  %33 = add i64 %32, -8
  %34 = sub i64 %33, %30
  %35 = lshr i64 %34, 3
  %36 = add nuw nsw i64 %35, 1
  %37 = icmp ult i64 %34, 120
  %38 = sub i64 %31, %30
  %39 = icmp ult i64 %38, 128
  %40 = or i1 %37, %39
  br i1 %40, label %67, label %41

41:                                               ; preds = %29
  %42 = and i64 %36, 4611686018427387888
  %43 = shl i64 %42, 3
  %44 = getelementptr i8, ptr %22, i64 %43
  %45 = shl i64 %42, 3
  %46 = getelementptr i8, ptr %26, i64 %45
  br label %47

47:                                               ; preds = %47, %41
  %48 = phi i64 [ 0, %41 ], [ %63, %47 ]
  %49 = shl i64 %48, 3
  %50 = getelementptr i8, ptr %22, i64 %49
  %51 = shl i64 %48, 3
  %52 = getelementptr i8, ptr %26, i64 %51
  %53 = load <4 x double>, ptr %52, align 8, !tbaa !33
  %54 = getelementptr double, ptr %52, i64 4
  %55 = load <4 x double>, ptr %54, align 8, !tbaa !33
  %56 = getelementptr double, ptr %52, i64 8
  %57 = load <4 x double>, ptr %56, align 8, !tbaa !33
  %58 = getelementptr double, ptr %52, i64 12
  %59 = load <4 x double>, ptr %58, align 8, !tbaa !33
  store <4 x double> %53, ptr %50, align 8, !tbaa !33
  %60 = getelementptr double, ptr %50, i64 4
  store <4 x double> %55, ptr %60, align 8, !tbaa !33
  %61 = getelementptr double, ptr %50, i64 8
  store <4 x double> %57, ptr %61, align 8, !tbaa !33
  %62 = getelementptr double, ptr %50, i64 12
  store <4 x double> %59, ptr %62, align 8, !tbaa !33
  %63 = add nuw i64 %48, 16
  %64 = icmp eq i64 %63, %42
  br i1 %64, label %65, label %47, !llvm.loop !46

65:                                               ; preds = %47
  %66 = icmp eq i64 %36, %42
  br i1 %66, label %77, label %67

67:                                               ; preds = %29, %65
  %68 = phi ptr [ %22, %29 ], [ %44, %65 ]
  %69 = phi ptr [ %26, %29 ], [ %46, %65 ]
  br label %70

70:                                               ; preds = %67, %70
  %71 = phi ptr [ %75, %70 ], [ %68, %67 ]
  %72 = phi ptr [ %74, %70 ], [ %69, %67 ]
  %73 = load double, ptr %72, align 8, !tbaa !33
  store double %73, ptr %71, align 8, !tbaa !33
  %74 = getelementptr inbounds %"class.dealii::Point", ptr %72, i64 1
  %75 = getelementptr inbounds %"class.dealii::Point", ptr %71, i64 1
  %76 = icmp eq ptr %74, %27
  br i1 %76, label %77, label %70, !llvm.loop !47

77:                                               ; preds = %70, %65, %21
  %78 = phi ptr [ %22, %21 ], [ %44, %65 ], [ %75, %70 ]
  store ptr %78, ptr %23, align 8, !tbaa !35
  %79 = getelementptr inbounds %"class.dealii::Quadrature", ptr %0, i64 0, i32 3
  %80 = getelementptr inbounds %"struct.std::_Vector_base<double, std::allocator<double> >::_Vector_impl_data", ptr %2, i64 0, i32 1
  %81 = load ptr, ptr %80, align 8, !tbaa !38
  %82 = load ptr, ptr %2, align 8, !tbaa !36
  %83 = ptrtoint ptr %81 to i64
  %84 = ptrtoint ptr %82 to i64
  %85 = sub i64 %83, %84
  %86 = ashr exact i64 %85, 3
  tail call void @llvm.memset.p0.i64(ptr noundef nonnull align 8 dereferenceable(24) %79, i8 0, i64 24, i1 false)
  %87 = icmp eq ptr %81, %82
  br i1 %87, label %94, label %88

88:                                               ; preds = %77
  %89 = icmp ugt i64 %85, 9223372036854775800
  br i1 %89, label %90, label %92, !prof !39

90:                                               ; preds = %88
  invoke void @_ZSt28__throw_bad_array_new_lengthv() #26
          to label %91 unwind label %115

91:                                               ; preds = %90
  unreachable

92:                                               ; preds = %88
  %93 = invoke noalias noundef nonnull ptr @_Znwm(i64 noundef %85) #22
          to label %94 unwind label %115

94:                                               ; preds = %92, %77
  %95 = phi ptr [ null, %77 ], [ %93, %92 ]
  store ptr %95, ptr %79, align 8, !tbaa !36
  %96 = getelementptr inbounds %"class.dealii::Quadrature", ptr %0, i64 0, i32 3, i32 0, i32 0, i32 0, i32 1
  store ptr %95, ptr %96, align 8, !tbaa !38
  %97 = getelementptr inbounds double, ptr %95, i64 %86
  %98 = getelementptr inbounds %"class.dealii::Quadrature", ptr %0, i64 0, i32 3, i32 0, i32 0, i32 0, i32 2
  store ptr %97, ptr %98, align 8, !tbaa !37
  %99 = load ptr, ptr %2, align 8, !tbaa !40
  %100 = load ptr, ptr %80, align 8, !tbaa !40
  %101 = ptrtoint ptr %100 to i64
  %102 = ptrtoint ptr %99 to i64
  %103 = sub i64 %101, %102
  %104 = icmp sgt i64 %103, 8
  br i1 %104, label %105, label %106, !prof !45

105:                                              ; preds = %94
  tail call void @llvm.memmove.p0.p0.i64(ptr align 8 %95, ptr align 8 %99, i64 %103, i1 false)
  br label %110

106:                                              ; preds = %94
  %107 = icmp eq i64 %103, 8
  br i1 %107, label %108, label %110

108:                                              ; preds = %106
  %109 = load double, ptr %99, align 8, !tbaa !33
  store double %109, ptr %95, align 8, !tbaa !33
  br label %110

110:                                              ; preds = %108, %106, %105
  %111 = ashr exact i64 %103, 3
  %112 = getelementptr inbounds double, ptr %95, i64 %111
  store ptr %112, ptr %96, align 8, !tbaa !38
  ret void

113:                                              ; preds = %19, %17
  %114 = landingpad { ptr, i32 }
          cleanup
  br label %120

115:                                              ; preds = %92, %90
  %116 = landingpad { ptr, i32 }
          cleanup
  %117 = load ptr, ptr %13, align 8, !tbaa !31
  %118 = icmp eq ptr %117, null
  br i1 %118, label %120, label %119

119:                                              ; preds = %115
  tail call void @_ZdlPv(ptr noundef nonnull %117) #23
  br label %120

120:                                              ; preds = %119, %115, %113
  %121 = phi { ptr, i32 } [ %114, %113 ], [ %116, %115 ], [ %116, %119 ]
  invoke void @_ZN6dealii11SubscriptorD2Ev(ptr noundef nonnull align 8 dereferenceable(72) %0)
          to label %122 unwind label %123

122:                                              ; preds = %120
  resume { ptr, i32 } %121

123:                                              ; preds = %120
  %124 = landingpad { ptr, i32 }
          catch ptr null
  %125 = extractvalue { ptr, i32 } %124, 0
  tail call void @__clang_call_terminate(ptr %125) #24
  unreachable
}

; Function Attrs: sspstrong uwtable
define weak_odr dso_local void @_ZN6dealii10QuadratureILi1EEC2ERKSt6vectorINS_5PointILi1EEESaIS4_EE(ptr noundef nonnull align 8 dereferenceable(128) %0, ptr noundef nonnull align 8 dereferenceable(24) %1) unnamed_addr #0 comdat($_ZN6dealii10QuadratureILi1EEC5ERKSt6vectorINS_5PointILi1EEESaIS4_EE) align 2 personality ptr @__gxx_personality_v0 {
  tail call void @_ZN6dealii11SubscriptorC2Ev(ptr noundef nonnull align 8 dereferenceable(72) %0)
  store ptr getelementptr inbounds ({ [4 x ptr] }, ptr @_ZTVN6dealii10QuadratureILi1EEE, i64 0, inrange i32 0, i64 2), ptr %0, align 8, !tbaa !5
  %3 = getelementptr inbounds %"class.dealii::Quadrature", ptr %0, i64 0, i32 1
  %4 = getelementptr inbounds %"struct.std::_Vector_base<dealii::Point<1>, std::allocator<dealii::Point<1> > >::_Vector_impl_data", ptr %1, i64 0, i32 1
  %5 = load ptr, ptr %4, align 8, !tbaa !35
  %6 = load ptr, ptr %1, align 8, !tbaa !31
  %7 = ptrtoint ptr %5 to i64
  %8 = ptrtoint ptr %6 to i64
  %9 = sub i64 %7, %8
  %10 = ashr exact i64 %9, 3
  %11 = trunc i64 %10 to i32
  store i32 %11, ptr %3, align 8, !tbaa !8
  %12 = getelementptr inbounds %"class.dealii::Quadrature", ptr %0, i64 0, i32 2
  tail call void @llvm.memset.p0.i64(ptr noundef nonnull align 8 dereferenceable(24) %12, i8 0, i64 24, i1 false)
  %13 = icmp eq ptr %5, %6
  br i1 %13, label %20, label %14

14:                                               ; preds = %2
  %15 = icmp ugt i64 %9, 9223372036854775800
  br i1 %15, label %16, label %18, !prof !39

16:                                               ; preds = %14
  invoke void @_ZSt28__throw_bad_array_new_lengthv() #26
          to label %17 unwind label %131

17:                                               ; preds = %16
  unreachable

18:                                               ; preds = %14
  %19 = invoke noalias noundef nonnull ptr @_Znwm(i64 noundef %9) #22
          to label %20 unwind label %131

20:                                               ; preds = %18, %2
  %21 = phi ptr [ null, %2 ], [ %19, %18 ]
  store ptr %21, ptr %12, align 8, !tbaa !31
  %22 = getelementptr inbounds %"class.dealii::Quadrature", ptr %0, i64 0, i32 2, i32 0, i32 0, i32 0, i32 1
  store ptr %21, ptr %22, align 8, !tbaa !35
  %23 = getelementptr inbounds %"class.dealii::Point", ptr %21, i64 %10
  %24 = getelementptr inbounds %"class.dealii::Quadrature", ptr %0, i64 0, i32 2, i32 0, i32 0, i32 0, i32 2
  store ptr %23, ptr %24, align 8, !tbaa !32
  %25 = load ptr, ptr %1, align 8, !tbaa !40
  %26 = load ptr, ptr %4, align 8, !tbaa !40
  %27 = icmp eq ptr %25, %26
  br i1 %27, label %76, label %28

28:                                               ; preds = %20
  %29 = ptrtoint ptr %25 to i64
  %30 = ptrtoint ptr %21 to i64
  %31 = ptrtoint ptr %26 to i64
  %32 = add i64 %31, -8
  %33 = sub i64 %32, %29
  %34 = lshr i64 %33, 3
  %35 = add nuw nsw i64 %34, 1
  %36 = icmp ult i64 %33, 120
  %37 = sub i64 %30, %29
  %38 = icmp ult i64 %37, 128
  %39 = or i1 %36, %38
  br i1 %39, label %66, label %40

40:                                               ; preds = %28
  %41 = and i64 %35, 4611686018427387888
  %42 = shl i64 %41, 3
  %43 = getelementptr i8, ptr %21, i64 %42
  %44 = shl i64 %41, 3
  %45 = getelementptr i8, ptr %25, i64 %44
  br label %46

46:                                               ; preds = %46, %40
  %47 = phi i64 [ 0, %40 ], [ %62, %46 ]
  %48 = shl i64 %47, 3
  %49 = getelementptr i8, ptr %21, i64 %48
  %50 = shl i64 %47, 3
  %51 = getelementptr i8, ptr %25, i64 %50
  %52 = load <4 x double>, ptr %51, align 8, !tbaa !33
  %53 = getelementptr double, ptr %51, i64 4
  %54 = load <4 x double>, ptr %53, align 8, !tbaa !33
  %55 = getelementptr double, ptr %51, i64 8
  %56 = load <4 x double>, ptr %55, align 8, !tbaa !33
  %57 = getelementptr double, ptr %51, i64 12
  %58 = load <4 x double>, ptr %57, align 8, !tbaa !33
  store <4 x double> %52, ptr %49, align 8, !tbaa !33
  %59 = getelementptr double, ptr %49, i64 4
  store <4 x double> %54, ptr %59, align 8, !tbaa !33
  %60 = getelementptr double, ptr %49, i64 8
  store <4 x double> %56, ptr %60, align 8, !tbaa !33
  %61 = getelementptr double, ptr %49, i64 12
  store <4 x double> %58, ptr %61, align 8, !tbaa !33
  %62 = add nuw i64 %47, 16
  %63 = icmp eq i64 %62, %41
  br i1 %63, label %64, label %46, !llvm.loop !48

64:                                               ; preds = %46
  %65 = icmp eq i64 %35, %41
  br i1 %65, label %76, label %66

66:                                               ; preds = %28, %64
  %67 = phi ptr [ %21, %28 ], [ %43, %64 ]
  %68 = phi ptr [ %25, %28 ], [ %45, %64 ]
  br label %69

69:                                               ; preds = %66, %69
  %70 = phi ptr [ %74, %69 ], [ %67, %66 ]
  %71 = phi ptr [ %73, %69 ], [ %68, %66 ]
  %72 = load double, ptr %71, align 8, !tbaa !33
  store double %72, ptr %70, align 8, !tbaa !33
  %73 = getelementptr inbounds %"class.dealii::Point", ptr %71, i64 1
  %74 = getelementptr inbounds %"class.dealii::Point", ptr %70, i64 1
  %75 = icmp eq ptr %73, %26
  br i1 %75, label %76, label %69, !llvm.loop !49

76:                                               ; preds = %69, %64, %20
  %77 = phi ptr [ %21, %20 ], [ %43, %64 ], [ %74, %69 ]
  store ptr %77, ptr %22, align 8, !tbaa !35
  %78 = getelementptr inbounds %"class.dealii::Quadrature", ptr %0, i64 0, i32 3
  %79 = load ptr, ptr %4, align 8, !tbaa !35
  %80 = ptrtoint ptr %79 to i64
  %81 = ptrtoint ptr %25 to i64
  %82 = sub i64 %80, %81
  %83 = ashr i64 %82, 3
  %84 = tail call double @strtod(ptr nocapture noundef nonnull @.str, ptr noundef null) #25
  %85 = icmp ugt i64 %82, 9223372036854775800
  br i1 %85, label %86, label %88

86:                                               ; preds = %76
  invoke void @_ZSt20__throw_length_errorPKc(ptr noundef nonnull @.str.2) #26
          to label %87 unwind label %133

87:                                               ; preds = %86
  unreachable

88:                                               ; preds = %76
  tail call void @llvm.memset.p0.i64(ptr noundef nonnull align 8 dereferenceable(24) %78, i8 0, i64 24, i1 false)
  %89 = icmp eq ptr %79, %25
  br i1 %89, label %128, label %90

90:                                               ; preds = %88
  %91 = invoke noalias noundef nonnull ptr @_Znwm(i64 noundef %82) #22
          to label %92 unwind label %133

92:                                               ; preds = %90
  store ptr %91, ptr %78, align 8, !tbaa !36
  %93 = getelementptr inbounds double, ptr %91, i64 %83
  %94 = getelementptr inbounds %"class.dealii::Quadrature", ptr %0, i64 0, i32 3, i32 0, i32 0, i32 0, i32 2
  store ptr %93, ptr %94, align 8, !tbaa !37
  %95 = add i64 %82, -8
  %96 = lshr i64 %95, 3
  %97 = add nuw nsw i64 %96, 1
  %98 = icmp ult i64 %95, 120
  br i1 %98, label %122, label %99

99:                                               ; preds = %92
  %100 = and i64 %97, 4611686018427387888
  %101 = shl i64 %100, 3
  %102 = getelementptr i8, ptr %91, i64 %101
  %103 = insertelement <4 x double> poison, double %84, i64 0
  %104 = shufflevector <4 x double> %103, <4 x double> poison, <4 x i32> zeroinitializer
  %105 = insertelement <4 x double> poison, double %84, i64 0
  %106 = shufflevector <4 x double> %105, <4 x double> poison, <4 x i32> zeroinitializer
  %107 = insertelement <4 x double> poison, double %84, i64 0
  %108 = shufflevector <4 x double> %107, <4 x double> poison, <4 x i32> zeroinitializer
  %109 = insertelement <4 x double> poison, double %84, i64 0
  %110 = shufflevector <4 x double> %109, <4 x double> poison, <4 x i32> zeroinitializer
  br label %111

111:                                              ; preds = %111, %99
  %112 = phi i64 [ 0, %99 ], [ %118, %111 ]
  %113 = shl i64 %112, 3
  %114 = getelementptr i8, ptr %91, i64 %113
  store <4 x double> %104, ptr %114, align 8, !tbaa !33
  %115 = getelementptr double, ptr %114, i64 4
  store <4 x double> %106, ptr %115, align 8, !tbaa !33
  %116 = getelementptr double, ptr %114, i64 8
  store <4 x double> %108, ptr %116, align 8, !tbaa !33
  %117 = getelementptr double, ptr %114, i64 12
  store <4 x double> %110, ptr %117, align 8, !tbaa !33
  %118 = add nuw i64 %112, 16
  %119 = icmp eq i64 %118, %100
  br i1 %119, label %120, label %111, !llvm.loop !50

120:                                              ; preds = %111
  %121 = icmp eq i64 %97, %100
  br i1 %121, label %128, label %122

122:                                              ; preds = %92, %120
  %123 = phi ptr [ %91, %92 ], [ %102, %120 ]
  br label %124

124:                                              ; preds = %122, %124
  %125 = phi ptr [ %126, %124 ], [ %123, %122 ]
  store double %84, ptr %125, align 8, !tbaa !33
  %126 = getelementptr inbounds double, ptr %125, i64 1
  %127 = icmp eq ptr %126, %93
  br i1 %127, label %128, label %124, !llvm.loop !51

128:                                              ; preds = %124, %120, %88
  %129 = phi ptr [ null, %88 ], [ %93, %120 ], [ %93, %124 ]
  %130 = getelementptr inbounds %"class.dealii::Quadrature", ptr %0, i64 0, i32 3, i32 0, i32 0, i32 0, i32 1
  store ptr %129, ptr %130, align 8, !tbaa !38
  ret void

131:                                              ; preds = %18, %16
  %132 = landingpad { ptr, i32 }
          cleanup
  br label %138

133:                                              ; preds = %90, %86
  %134 = landingpad { ptr, i32 }
          cleanup
  %135 = load ptr, ptr %12, align 8, !tbaa !31
  %136 = icmp eq ptr %135, null
  br i1 %136, label %138, label %137

137:                                              ; preds = %133
  tail call void @_ZdlPv(ptr noundef nonnull %135) #23
  br label %138

138:                                              ; preds = %137, %133, %131
  %139 = phi { ptr, i32 } [ %132, %131 ], [ %134, %133 ], [ %134, %137 ]
  invoke void @_ZN6dealii11SubscriptorD2Ev(ptr noundef nonnull align 8 dereferenceable(72) %0)
          to label %140 unwind label %141

140:                                              ; preds = %138
  resume { ptr, i32 } %139

141:                                              ; preds = %138
  %142 = landingpad { ptr, i32 }
          catch ptr null
  %143 = extractvalue { ptr, i32 } %142, 0
  tail call void @__clang_call_terminate(ptr %143) #24
  unreachable
}

; Function Attrs: sspstrong uwtable
define weak_odr dso_local void @_ZN6dealii10QuadratureILi1EEC2ERKNS_5PointILi1EEE(ptr noundef nonnull align 8 dereferenceable(128) %0, ptr noundef nonnull align 8 dereferenceable(8) %1) unnamed_addr #0 comdat($_ZN6dealii10QuadratureILi1EEC5ERKNS_5PointILi1EEE) align 2 personality ptr @__gxx_personality_v0 {
  tail call void @_ZN6dealii11SubscriptorC2Ev(ptr noundef nonnull align 8 dereferenceable(72) %0)
  store ptr getelementptr inbounds ({ [4 x ptr] }, ptr @_ZTVN6dealii10QuadratureILi1EEE, i64 0, inrange i32 0, i64 2), ptr %0, align 8, !tbaa !5
  %3 = getelementptr inbounds %"class.dealii::Quadrature", ptr %0, i64 0, i32 1
  store i32 1, ptr %3, align 8, !tbaa !8
  %4 = getelementptr inbounds %"class.dealii::Quadrature", ptr %0, i64 0, i32 2
  tail call void @llvm.memset.p0.i64(ptr noundef nonnull align 8 dereferenceable(24) %4, i8 0, i64 24, i1 false)
  %5 = invoke noalias noundef nonnull dereferenceable(8) ptr @_Znwm(i64 noundef 8) #22
          to label %6 unwind label %17

6:                                                ; preds = %2
  store ptr %5, ptr %4, align 8, !tbaa !31
  %7 = getelementptr inbounds %"class.dealii::Point", ptr %5, i64 1
  %8 = getelementptr inbounds %"class.dealii::Quadrature", ptr %0, i64 0, i32 2, i32 0, i32 0, i32 0, i32 2
  store ptr %7, ptr %8, align 8, !tbaa !32
  %9 = load double, ptr %1, align 8, !tbaa !33
  store double %9, ptr %5, align 8, !tbaa !33
  %10 = getelementptr inbounds %"class.dealii::Quadrature", ptr %0, i64 0, i32 2, i32 0, i32 0, i32 0, i32 1
  store ptr %7, ptr %10, align 8, !tbaa !35
  %11 = getelementptr inbounds %"class.dealii::Quadrature", ptr %0, i64 0, i32 3
  tail call void @llvm.memset.p0.i64(ptr noundef nonnull align 8 dereferenceable(24) %11, i8 0, i64 24, i1 false)
  %12 = invoke noalias noundef nonnull dereferenceable(8) ptr @_Znwm(i64 noundef 8) #22
          to label %13 unwind label %19

13:                                               ; preds = %6
  store ptr %12, ptr %11, align 8, !tbaa !36
  %14 = getelementptr inbounds double, ptr %12, i64 1
  %15 = getelementptr inbounds %"class.dealii::Quadrature", ptr %0, i64 0, i32 3, i32 0, i32 0, i32 0, i32 2
  store ptr %14, ptr %15, align 8, !tbaa !37
  store double 1.000000e+00, ptr %12, align 8, !tbaa !33
  %16 = getelementptr inbounds %"class.dealii::Quadrature", ptr %0, i64 0, i32 3, i32 0, i32 0, i32 0, i32 1
  store ptr %14, ptr %16, align 8, !tbaa !38
  ret void

17:                                               ; preds = %2
  %18 = landingpad { ptr, i32 }
          cleanup
  br label %21

19:                                               ; preds = %6
  %20 = landingpad { ptr, i32 }
          cleanup
  tail call void @_ZdlPv(ptr noundef nonnull %5) #23
  br label %21

21:                                               ; preds = %19, %17
  %22 = phi { ptr, i32 } [ %20, %19 ], [ %18, %17 ]
  invoke void @_ZN6dealii11SubscriptorD2Ev(ptr noundef nonnull align 8 dereferenceable(72) %0)
          to label %23 unwind label %24

23:                                               ; preds = %21
  resume { ptr, i32 } %22

24:                                               ; preds = %21
  %25 = landingpad { ptr, i32 }
          catch ptr null
  %26 = extractvalue { ptr, i32 } %25, 0
  tail call void @__clang_call_terminate(ptr %26) #24
  unreachable
}

; Function Attrs: sspstrong uwtable
define weak_odr dso_local noundef nonnull align 8 dereferenceable(128) ptr @_ZN6dealii10QuadratureILi1EEaSERKS1_(ptr noundef nonnull align 8 dereferenceable(128) %0, ptr noundef nonnull align 8 dereferenceable(128) %1) local_unnamed_addr #0 comdat align 2 {
  %3 = getelementptr inbounds %"class.dealii::Quadrature", ptr %1, i64 0, i32 3
  %4 = getelementptr inbounds %"class.dealii::Quadrature", ptr %0, i64 0, i32 3
  %5 = tail call noundef nonnull align 8 dereferenceable(24) ptr @_ZNSt6vectorIdSaIdEEaSERKS1_(ptr noundef nonnull align 8 dereferenceable(24) %4, ptr noundef nonnull align 8 dereferenceable(24) %3)
  %6 = getelementptr inbounds %"class.dealii::Quadrature", ptr %1, i64 0, i32 2
  %7 = getelementptr inbounds %"class.dealii::Quadrature", ptr %0, i64 0, i32 2
  %8 = tail call noundef nonnull align 8 dereferenceable(24) ptr @_ZNSt6vectorIN6dealii5PointILi1EEESaIS2_EEaSERKS4_(ptr noundef nonnull align 8 dereferenceable(24) %7, ptr noundef nonnull align 8 dereferenceable(24) %6)
  %9 = getelementptr inbounds %"class.dealii::Quadrature", ptr %1, i64 0, i32 3, i32 0, i32 0, i32 0, i32 1
  %10 = load ptr, ptr %9, align 8, !tbaa !38
  %11 = load ptr, ptr %3, align 8, !tbaa !36
  %12 = ptrtoint ptr %10 to i64
  %13 = ptrtoint ptr %11 to i64
  %14 = sub i64 %12, %13
  %15 = lshr exact i64 %14, 3
  %16 = trunc i64 %15 to i32
  %17 = getelementptr inbounds %"class.dealii::Quadrature", ptr %0, i64 0, i32 1
  store i32 %16, ptr %17, align 8, !tbaa !8
  ret ptr %0
}

; Function Attrs: sspstrong uwtable
define linkonce_odr dso_local noundef nonnull align 8 dereferenceable(24) ptr @_ZNSt6vectorIdSaIdEEaSERKS1_(ptr noundef nonnull align 8 dereferenceable(24) %0, ptr noundef nonnull align 8 dereferenceable(24) %1) local_unnamed_addr #0 comdat align 2 personality ptr @__gxx_personality_v0 {
  %3 = icmp eq ptr %1, %0
  br i1 %3, label %82, label %4

4:                                                ; preds = %2
  %5 = getelementptr inbounds %"struct.std::_Vector_base<double, std::allocator<double> >::_Vector_impl_data", ptr %1, i64 0, i32 1
  %6 = load ptr, ptr %5, align 8, !tbaa !40
  %7 = load ptr, ptr %1, align 8, !tbaa !40
  %8 = ptrtoint ptr %6 to i64
  %9 = ptrtoint ptr %7 to i64
  %10 = sub i64 %8, %9
  %11 = ashr exact i64 %10, 3
  %12 = getelementptr inbounds %"struct.std::_Vector_base<double, std::allocator<double> >::_Vector_impl_data", ptr %0, i64 0, i32 2
  %13 = load ptr, ptr %12, align 8, !tbaa !37
  %14 = load ptr, ptr %0, align 8, !tbaa !40
  %15 = ptrtoint ptr %13 to i64
  %16 = ptrtoint ptr %14 to i64
  %17 = sub i64 %15, %16
  %18 = ashr exact i64 %17, 3
  %19 = icmp ugt i64 %11, %18
  br i1 %19, label %20, label %36

20:                                               ; preds = %4
  %21 = icmp ugt i64 %10, 9223372036854775800
  br i1 %21, label %22, label %23, !prof !39

22:                                               ; preds = %20
  tail call void @_ZSt28__throw_bad_array_new_lengthv() #26
  unreachable

23:                                               ; preds = %20
  %24 = tail call noalias noundef nonnull ptr @_Znwm(i64 noundef %10) #22
  %25 = icmp ugt i64 %10, 8
  br i1 %25, label %26, label %27, !prof !45

26:                                               ; preds = %23
  tail call void @llvm.memcpy.p0.p0.i64(ptr nonnull align 8 %24, ptr align 8 %7, i64 %10, i1 false)
  br label %31

27:                                               ; preds = %23
  %28 = icmp eq i64 %10, 8
  br i1 %28, label %29, label %31

29:                                               ; preds = %27
  %30 = load double, ptr %7, align 8, !tbaa !33
  store double %30, ptr %24, align 8, !tbaa !33
  br label %31

31:                                               ; preds = %26, %27, %29
  %32 = icmp eq ptr %14, null
  br i1 %32, label %34, label %33

33:                                               ; preds = %31
  tail call void @_ZdlPv(ptr noundef nonnull %14) #23
  br label %34

34:                                               ; preds = %31, %33
  store ptr %24, ptr %0, align 8, !tbaa !36
  %35 = getelementptr inbounds double, ptr %24, i64 %11
  store ptr %35, ptr %12, align 8, !tbaa !37
  br label %78

36:                                               ; preds = %4
  %37 = getelementptr inbounds %"struct.std::_Vector_base<double, std::allocator<double> >::_Vector_impl_data", ptr %0, i64 0, i32 1
  %38 = load ptr, ptr %37, align 8, !tbaa !38
  %39 = ptrtoint ptr %38 to i64
  %40 = sub i64 %39, %16
  %41 = ashr exact i64 %40, 3
  %42 = icmp ult i64 %41, %11
  br i1 %42, label %50, label %43

43:                                               ; preds = %36
  %44 = icmp sgt i64 %10, 8
  br i1 %44, label %45, label %46, !prof !45

45:                                               ; preds = %43
  tail call void @llvm.memmove.p0.p0.i64(ptr align 8 %14, ptr align 8 %7, i64 %10, i1 false)
  br label %78

46:                                               ; preds = %43
  %47 = icmp eq i64 %10, 8
  br i1 %47, label %48, label %78

48:                                               ; preds = %46
  %49 = load double, ptr %7, align 8, !tbaa !33
  store double %49, ptr %14, align 8, !tbaa !33
  br label %78

50:                                               ; preds = %36
  %51 = icmp sgt i64 %40, 8
  br i1 %51, label %52, label %55, !prof !45

52:                                               ; preds = %50
  tail call void @llvm.memmove.p0.p0.i64(ptr align 8 %14, ptr align 8 %7, i64 %40, i1 false)
  %53 = load ptr, ptr %37, align 8, !tbaa !38
  %54 = ptrtoint ptr %53 to i64
  br label %59

55:                                               ; preds = %50
  %56 = icmp eq i64 %40, 8
  br i1 %56, label %57, label %59

57:                                               ; preds = %55
  %58 = load double, ptr %7, align 8, !tbaa !33
  store double %58, ptr %14, align 8, !tbaa !33
  br label %59

59:                                               ; preds = %52, %55, %57
  %60 = phi i64 [ %54, %52 ], [ %39, %55 ], [ %39, %57 ]
  %61 = phi ptr [ %53, %52 ], [ %38, %55 ], [ %38, %57 ]
  %62 = load ptr, ptr %1, align 8, !tbaa !36
  %63 = load ptr, ptr %0, align 8, !tbaa !36
  %64 = ptrtoint ptr %63 to i64
  %65 = sub i64 %60, %64
  %66 = ashr exact i64 %65, 3
  %67 = getelementptr inbounds double, ptr %62, i64 %66
  %68 = load ptr, ptr %5, align 8, !tbaa !38
  %69 = ptrtoint ptr %68 to i64
  %70 = ptrtoint ptr %67 to i64
  %71 = sub i64 %69, %70
  %72 = icmp sgt i64 %71, 8
  br i1 %72, label %73, label %74, !prof !45

73:                                               ; preds = %59
  tail call void @llvm.memmove.p0.p0.i64(ptr align 8 %61, ptr align 8 %67, i64 %71, i1 false)
  br label %78

74:                                               ; preds = %59
  %75 = icmp eq i64 %71, 8
  br i1 %75, label %76, label %78

76:                                               ; preds = %74
  %77 = load double, ptr %67, align 8, !tbaa !33
  store double %77, ptr %61, align 8, !tbaa !33
  br label %78

78:                                               ; preds = %76, %74, %73, %48, %46, %45, %34
  %79 = load ptr, ptr %0, align 8, !tbaa !36
  %80 = getelementptr inbounds double, ptr %79, i64 %11
  %81 = getelementptr inbounds %"struct.std::_Vector_base<double, std::allocator<double> >::_Vector_impl_data", ptr %0, i64 0, i32 1
  store ptr %80, ptr %81, align 8, !tbaa !38
  br label %82

82:                                               ; preds = %78, %2
  ret ptr %0
}

; Function Attrs: sspstrong uwtable
define linkonce_odr dso_local noundef nonnull align 8 dereferenceable(24) ptr @_ZNSt6vectorIN6dealii5PointILi1EEESaIS2_EEaSERKS4_(ptr noundef nonnull align 8 dereferenceable(24) %0, ptr noundef nonnull align 8 dereferenceable(24) %1) local_unnamed_addr #0 comdat align 2 personality ptr @__gxx_personality_v0 {
  %3 = icmp eq ptr %1, %0
  br i1 %3, label %201, label %4

4:                                                ; preds = %2
  %5 = getelementptr inbounds %"struct.std::_Vector_base<dealii::Point<1>, std::allocator<dealii::Point<1> > >::_Vector_impl_data", ptr %1, i64 0, i32 1
  %6 = load ptr, ptr %5, align 8, !tbaa !40
  %7 = load ptr, ptr %1, align 8, !tbaa !40
  %8 = ptrtoint ptr %6 to i64
  %9 = ptrtoint ptr %7 to i64
  %10 = sub i64 %8, %9
  %11 = ashr exact i64 %10, 3
  %12 = getelementptr inbounds %"struct.std::_Vector_base<dealii::Point<1>, std::allocator<dealii::Point<1> > >::_Vector_impl_data", ptr %0, i64 0, i32 2
  %13 = load ptr, ptr %12, align 8, !tbaa !32
  %14 = load ptr, ptr %0, align 8, !tbaa !40
  %15 = ptrtoint ptr %13 to i64
  %16 = ptrtoint ptr %14 to i64
  %17 = sub i64 %15, %16
  %18 = ashr exact i64 %17, 3
  %19 = icmp ugt i64 %11, %18
  br i1 %19, label %20, label %36

20:                                               ; preds = %4
  %21 = icmp ugt i64 %10, 9223372036854775800
  br i1 %21, label %22, label %23, !prof !39

22:                                               ; preds = %20
  tail call void @_ZSt28__throw_bad_array_new_lengthv() #26
  unreachable

23:                                               ; preds = %20
  %24 = tail call noalias noundef nonnull ptr @_Znwm(i64 noundef %10) #22
  %25 = icmp eq ptr %7, %6
  br i1 %25, label %31, label %26

26:                                               ; preds = %23
  %27 = add i64 %8, -8
  %28 = sub i64 %27, %9
  %29 = and i64 %28, -8
  %30 = add i64 %29, 8
  tail call void @llvm.memcpy.p0.p0.i64(ptr nonnull align 8 %24, ptr align 8 %7, i64 %30, i1 false), !tbaa !33
  br label %31

31:                                               ; preds = %23, %26
  %32 = icmp eq ptr %14, null
  br i1 %32, label %34, label %33

33:                                               ; preds = %31
  tail call void @_ZdlPv(ptr noundef nonnull %14) #23
  br label %34

34:                                               ; preds = %31, %33
  store ptr %24, ptr %0, align 8, !tbaa !31
  %35 = getelementptr inbounds %"class.dealii::Point", ptr %24, i64 %11
  store ptr %35, ptr %12, align 8, !tbaa !32
  br label %197

36:                                               ; preds = %4
  %37 = getelementptr inbounds %"struct.std::_Vector_base<dealii::Point<1>, std::allocator<dealii::Point<1> > >::_Vector_impl_data", ptr %0, i64 0, i32 1
  %38 = load ptr, ptr %37, align 8, !tbaa !35
  %39 = ptrtoint ptr %38 to i64
  %40 = sub i64 %39, %16
  %41 = ashr exact i64 %40, 3
  %42 = icmp ult i64 %41, %11
  br i1 %42, label %95, label %43

43:                                               ; preds = %36
  %44 = icmp sgt i64 %10, 0
  br i1 %44, label %45, label %197

45:                                               ; preds = %43
  %46 = lshr i64 %10, 3
  %47 = add nuw nsw i64 %46, 1
  %48 = icmp ugt i64 %10, 7
  %49 = sext i1 %48 to i64
  %50 = add nsw i64 %47, %49
  %51 = icmp ult i64 %50, 16
  %52 = sub i64 %16, %9
  %53 = icmp ult i64 %52, 128
  %54 = or i1 %51, %53
  br i1 %54, label %82, label %55

55:                                               ; preds = %45
  %56 = and i64 %50, -16
  %57 = sub i64 %46, %56
  %58 = shl i64 %56, 3
  %59 = getelementptr i8, ptr %14, i64 %58
  %60 = shl i64 %56, 3
  %61 = getelementptr i8, ptr %7, i64 %60
  br label %62

62:                                               ; preds = %62, %55
  %63 = phi i64 [ 0, %55 ], [ %78, %62 ]
  %64 = shl i64 %63, 3
  %65 = getelementptr i8, ptr %14, i64 %64
  %66 = shl i64 %63, 3
  %67 = getelementptr i8, ptr %7, i64 %66
  %68 = load <4 x double>, ptr %67, align 8, !tbaa !33
  %69 = getelementptr double, ptr %67, i64 4
  %70 = load <4 x double>, ptr %69, align 8, !tbaa !33
  %71 = getelementptr double, ptr %67, i64 8
  %72 = load <4 x double>, ptr %71, align 8, !tbaa !33
  %73 = getelementptr double, ptr %67, i64 12
  %74 = load <4 x double>, ptr %73, align 8, !tbaa !33
  store <4 x double> %68, ptr %65, align 8, !tbaa !33
  %75 = getelementptr double, ptr %65, i64 4
  store <4 x double> %70, ptr %75, align 8, !tbaa !33
  %76 = getelementptr double, ptr %65, i64 8
  store <4 x double> %72, ptr %76, align 8, !tbaa !33
  %77 = getelementptr double, ptr %65, i64 12
  store <4 x double> %74, ptr %77, align 8, !tbaa !33
  %78 = add nuw i64 %63, 16
  %79 = icmp eq i64 %78, %56
  br i1 %79, label %80, label %62, !llvm.loop !52

80:                                               ; preds = %62
  %81 = icmp eq i64 %50, %56
  br i1 %81, label %197, label %82

82:                                               ; preds = %45, %80
  %83 = phi i64 [ %46, %45 ], [ %57, %80 ]
  %84 = phi ptr [ %14, %45 ], [ %59, %80 ]
  %85 = phi ptr [ %7, %45 ], [ %61, %80 ]
  br label %86

86:                                               ; preds = %82, %86
  %87 = phi i64 [ %93, %86 ], [ %83, %82 ]
  %88 = phi ptr [ %92, %86 ], [ %84, %82 ]
  %89 = phi ptr [ %91, %86 ], [ %85, %82 ]
  %90 = load double, ptr %89, align 8, !tbaa !33
  store double %90, ptr %88, align 8, !tbaa !33
  %91 = getelementptr inbounds %"class.dealii::Point", ptr %89, i64 1
  %92 = getelementptr inbounds %"class.dealii::Point", ptr %88, i64 1
  %93 = add nsw i64 %87, -1
  %94 = icmp ugt i64 %87, 1
  br i1 %94, label %86, label %197, !llvm.loop !53

95:                                               ; preds = %36
  %96 = getelementptr %"class.dealii::Point", ptr %7, i64 %41
  %97 = icmp sgt i64 %40, 0
  br i1 %97, label %98, label %148

98:                                               ; preds = %95
  %99 = lshr i64 %40, 3
  %100 = add nuw nsw i64 %99, 1
  %101 = icmp ugt i64 %40, 7
  %102 = sext i1 %101 to i64
  %103 = add nsw i64 %100, %102
  %104 = icmp ult i64 %103, 16
  %105 = sub i64 %16, %9
  %106 = icmp ult i64 %105, 128
  %107 = or i1 %104, %106
  br i1 %107, label %135, label %108

108:                                              ; preds = %98
  %109 = and i64 %103, -16
  %110 = sub i64 %99, %109
  %111 = shl i64 %109, 3
  %112 = getelementptr i8, ptr %14, i64 %111
  %113 = shl i64 %109, 3
  %114 = getelementptr i8, ptr %7, i64 %113
  br label %115

115:                                              ; preds = %115, %108
  %116 = phi i64 [ 0, %108 ], [ %131, %115 ]
  %117 = shl i64 %116, 3
  %118 = getelementptr i8, ptr %14, i64 %117
  %119 = shl i64 %116, 3
  %120 = getelementptr i8, ptr %7, i64 %119
  %121 = load <4 x double>, ptr %120, align 8, !tbaa !33
  %122 = getelementptr double, ptr %120, i64 4
  %123 = load <4 x double>, ptr %122, align 8, !tbaa !33
  %124 = getelementptr double, ptr %120, i64 8
  %125 = load <4 x double>, ptr %124, align 8, !tbaa !33
  %126 = getelementptr double, ptr %120, i64 12
  %127 = load <4 x double>, ptr %126, align 8, !tbaa !33
  store <4 x double> %121, ptr %118, align 8, !tbaa !33
  %128 = getelementptr double, ptr %118, i64 4
  store <4 x double> %123, ptr %128, align 8, !tbaa !33
  %129 = getelementptr double, ptr %118, i64 8
  store <4 x double> %125, ptr %129, align 8, !tbaa !33
  %130 = getelementptr double, ptr %118, i64 12
  store <4 x double> %127, ptr %130, align 8, !tbaa !33
  %131 = add nuw i64 %116, 16
  %132 = icmp eq i64 %131, %109
  br i1 %132, label %133, label %115, !llvm.loop !54

133:                                              ; preds = %115
  %134 = icmp eq i64 %103, %109
  br i1 %134, label %148, label %135

135:                                              ; preds = %98, %133
  %136 = phi i64 [ %99, %98 ], [ %110, %133 ]
  %137 = phi ptr [ %14, %98 ], [ %112, %133 ]
  %138 = phi ptr [ %7, %98 ], [ %114, %133 ]
  br label %139

139:                                              ; preds = %135, %139
  %140 = phi i64 [ %146, %139 ], [ %136, %135 ]
  %141 = phi ptr [ %145, %139 ], [ %137, %135 ]
  %142 = phi ptr [ %144, %139 ], [ %138, %135 ]
  %143 = load double, ptr %142, align 8, !tbaa !33
  store double %143, ptr %141, align 8, !tbaa !33
  %144 = getelementptr inbounds %"class.dealii::Point", ptr %142, i64 1
  %145 = getelementptr inbounds %"class.dealii::Point", ptr %141, i64 1
  %146 = add nsw i64 %140, -1
  %147 = icmp ugt i64 %140, 1
  br i1 %147, label %139, label %148, !llvm.loop !55

148:                                              ; preds = %139, %133, %95
  %149 = icmp eq ptr %96, %6
  br i1 %149, label %197, label %150

150:                                              ; preds = %148
  %151 = add i64 %8, -8
  %152 = add i64 %40, %9
  %153 = sub i64 %151, %152
  %154 = lshr i64 %153, 3
  %155 = add nuw nsw i64 %154, 1
  %156 = icmp ult i64 %153, 120
  br i1 %156, label %187, label %157

157:                                              ; preds = %150
  %158 = add i64 %40, %9
  %159 = sub i64 %39, %158
  %160 = icmp ult i64 %159, 128
  br i1 %160, label %187, label %161

161:                                              ; preds = %157
  %162 = and i64 %155, 4611686018427387888
  %163 = shl i64 %162, 3
  %164 = getelementptr i8, ptr %38, i64 %163
  %165 = shl i64 %162, 3
  %166 = getelementptr i8, ptr %96, i64 %165
  br label %167

167:                                              ; preds = %167, %161
  %168 = phi i64 [ 0, %161 ], [ %183, %167 ]
  %169 = shl i64 %168, 3
  %170 = getelementptr i8, ptr %38, i64 %169
  %171 = shl i64 %168, 3
  %172 = getelementptr i8, ptr %96, i64 %171
  %173 = load <4 x double>, ptr %172, align 8, !tbaa !33
  %174 = getelementptr double, ptr %172, i64 4
  %175 = load <4 x double>, ptr %174, align 8, !tbaa !33
  %176 = getelementptr double, ptr %172, i64 8
  %177 = load <4 x double>, ptr %176, align 8, !tbaa !33
  %178 = getelementptr double, ptr %172, i64 12
  %179 = load <4 x double>, ptr %178, align 8, !tbaa !33
  store <4 x double> %173, ptr %170, align 8, !tbaa !33
  %180 = getelementptr double, ptr %170, i64 4
  store <4 x double> %175, ptr %180, align 8, !tbaa !33
  %181 = getelementptr double, ptr %170, i64 8
  store <4 x double> %177, ptr %181, align 8, !tbaa !33
  %182 = getelementptr double, ptr %170, i64 12
  store <4 x double> %179, ptr %182, align 8, !tbaa !33
  %183 = add nuw i64 %168, 16
  %184 = icmp eq i64 %183, %162
  br i1 %184, label %185, label %167, !llvm.loop !56

185:                                              ; preds = %167
  %186 = icmp eq i64 %155, %162
  br i1 %186, label %197, label %187

187:                                              ; preds = %157, %150, %185
  %188 = phi ptr [ %38, %157 ], [ %38, %150 ], [ %164, %185 ]
  %189 = phi ptr [ %96, %157 ], [ %96, %150 ], [ %166, %185 ]
  br label %190

190:                                              ; preds = %187, %190
  %191 = phi ptr [ %195, %190 ], [ %188, %187 ]
  %192 = phi ptr [ %194, %190 ], [ %189, %187 ]
  %193 = load double, ptr %192, align 8, !tbaa !33
  store double %193, ptr %191, align 8, !tbaa !33
  %194 = getelementptr inbounds %"class.dealii::Point", ptr %192, i64 1
  %195 = getelementptr inbounds %"class.dealii::Point", ptr %191, i64 1
  %196 = icmp eq ptr %194, %6
  br i1 %196, label %197, label %190, !llvm.loop !57

197:                                              ; preds = %86, %190, %80, %185, %43, %148, %34
  %198 = load ptr, ptr %0, align 8, !tbaa !31
  %199 = getelementptr inbounds %"class.dealii::Point", ptr %198, i64 %11
  %200 = getelementptr inbounds %"struct.std::_Vector_base<dealii::Point<1>, std::allocator<dealii::Point<1> > >::_Vector_impl_data", ptr %0, i64 0, i32 1
  store ptr %199, ptr %200, align 8, !tbaa !35
  br label %201

201:                                              ; preds = %197, %2
  ret ptr %0
}

; Function Attrs: sspstrong uwtable
define weak_odr dso_local void @_ZN6dealii10QuadratureILi1EED0Ev(ptr noundef nonnull align 8 dereferenceable(128) %0) unnamed_addr #0 comdat($_ZN6dealii10QuadratureILi1EED5Ev) align 2 personality ptr @__gxx_personality_v0 {
  store ptr getelementptr inbounds ({ [4 x ptr] }, ptr @_ZTVN6dealii10QuadratureILi1EEE, i64 0, inrange i32 0, i64 2), ptr %0, align 8, !tbaa !5
  %2 = getelementptr inbounds %"class.dealii::Quadrature", ptr %0, i64 0, i32 3
  %3 = load ptr, ptr %2, align 8, !tbaa !36
  %4 = icmp eq ptr %3, null
  br i1 %4, label %6, label %5

5:                                                ; preds = %1
  tail call void @_ZdlPv(ptr noundef nonnull %3) #23
  br label %6

6:                                                ; preds = %5, %1
  %7 = getelementptr inbounds %"class.dealii::Quadrature", ptr %0, i64 0, i32 2
  %8 = load ptr, ptr %7, align 8, !tbaa !31
  %9 = icmp eq ptr %8, null
  br i1 %9, label %11, label %10

10:                                               ; preds = %6
  tail call void @_ZdlPv(ptr noundef nonnull %8) #23
  br label %11

11:                                               ; preds = %10, %6
  invoke void @_ZN6dealii11SubscriptorD2Ev(ptr noundef nonnull align 8 dereferenceable(72) %0)
          to label %12 unwind label %13

12:                                               ; preds = %11
  tail call void @_ZdlPv(ptr noundef nonnull %0) #23
  ret void

13:                                               ; preds = %11
  %14 = landingpad { ptr, i32 }
          cleanup
  tail call void @_ZdlPv(ptr noundef nonnull %0) #23
  resume { ptr, i32 } %14
}

; Function Attrs: nobuiltin nounwind
declare void @_ZdlPv(ptr noundef) local_unnamed_addr #5

; Function Attrs: inlinehint sspstrong uwtable
define weak_odr dso_local noundef nonnull align 8 dereferenceable(8) ptr @_ZNK6dealii10QuadratureILi1EE5pointEj(ptr noundef nonnull align 8 dereferenceable(128) %0, i32 noundef %1) local_unnamed_addr #4 comdat align 2 {
  %3 = getelementptr inbounds %"class.dealii::Quadrature", ptr %0, i64 0, i32 2
  %4 = zext i32 %1 to i64
  %5 = load ptr, ptr %3, align 8, !tbaa !31
  %6 = getelementptr inbounds %"class.dealii::Point", ptr %5, i64 %4
  ret ptr %6
}

; Function Attrs: nounwind sspstrong uwtable
define weak_odr dso_local noundef nonnull align 8 dereferenceable(24) ptr @_ZNK6dealii10QuadratureILi1EE10get_pointsEv(ptr noundef nonnull align 8 dereferenceable(128) %0) local_unnamed_addr #6 comdat align 2 {
  %2 = getelementptr inbounds %"class.dealii::Quadrature", ptr %0, i64 0, i32 2
  ret ptr %2
}

; Function Attrs: sspstrong uwtable
define weak_odr dso_local noundef double @_ZNK6dealii10QuadratureILi1EE6weightEj(ptr noundef nonnull align 8 dereferenceable(128) %0, i32 noundef %1) local_unnamed_addr #0 comdat align 2 {
  %3 = getelementptr inbounds %"class.dealii::Quadrature", ptr %0, i64 0, i32 3
  %4 = zext i32 %1 to i64
  %5 = load ptr, ptr %3, align 8, !tbaa !36
  %6 = getelementptr inbounds double, ptr %5, i64 %4
  %7 = load double, ptr %6, align 8, !tbaa !33
  ret double %7
}

; Function Attrs: nounwind sspstrong uwtable
define weak_odr dso_local noundef nonnull align 8 dereferenceable(24) ptr @_ZNK6dealii10QuadratureILi1EE11get_weightsEv(ptr noundef nonnull align 8 dereferenceable(128) %0) local_unnamed_addr #6 comdat align 2 {
  %2 = getelementptr inbounds %"class.dealii::Quadrature", ptr %0, i64 0, i32 3
  ret ptr %2
}

; Function Attrs: sspstrong uwtable
define weak_odr dso_local noundef i32 @_ZNK6dealii10QuadratureILi1EE18memory_consumptionEv(ptr noundef nonnull align 8 dereferenceable(128) %0) local_unnamed_addr #0 comdat align 2 {
  %2 = getelementptr inbounds %"class.dealii::Quadrature", ptr %0, i64 0, i32 2
  %3 = getelementptr inbounds %"class.dealii::Quadrature", ptr %0, i64 0, i32 2, i32 0, i32 0, i32 0, i32 1
  %4 = load ptr, ptr %3, align 8, !tbaa !35
  %5 = load ptr, ptr %2, align 8, !tbaa !31
  %6 = ptrtoint ptr %4 to i64
  %7 = ptrtoint ptr %5 to i64
  %8 = sub i64 %6, %7
  %9 = ashr exact i64 %8, 3
  %10 = trunc i64 %9 to i32
  %11 = getelementptr inbounds %"class.dealii::Quadrature", ptr %0, i64 0, i32 2, i32 0, i32 0, i32 0, i32 2
  %12 = load ptr, ptr %11, align 8, !tbaa !32
  %13 = ptrtoint ptr %12 to i64
  %14 = sub i64 %13, %7
  %15 = lshr exact i64 %14, 3
  %16 = sub nsw i64 %15, %9
  %17 = trunc i64 %16 to i32
  %18 = add i32 %17, %10
  %19 = shl i32 %18, 3
  %20 = getelementptr inbounds %"class.dealii::Quadrature", ptr %0, i64 0, i32 3
  %21 = getelementptr inbounds %"class.dealii::Quadrature", ptr %0, i64 0, i32 3, i32 0, i32 0, i32 0, i32 2
  %22 = load ptr, ptr %21, align 8, !tbaa !37
  %23 = load ptr, ptr %20, align 8, !tbaa !36
  %24 = ptrtoint ptr %22 to i64
  %25 = ptrtoint ptr %23 to i64
  %26 = sub i64 %24, %25
  %27 = trunc i64 %26 to i32
  %28 = and i32 %27, -8
  %29 = add i32 %28, 48
  %30 = add i32 %29, %19
  ret i32 %30
}

; Function Attrs: sspstrong uwtable
define weak_odr dso_local void @_ZN6dealii10QuadratureILi2EEC2Ej(ptr noundef nonnull align 8 dereferenceable(128) %0, i32 noundef %1) unnamed_addr #0 comdat($_ZN6dealii10QuadratureILi2EEC5Ej) align 2 personality ptr @__gxx_personality_v0 {
  tail call void @_ZN6dealii11SubscriptorC2Ev(ptr noundef nonnull align 8 dereferenceable(72) %0)
  store ptr getelementptr inbounds ({ [4 x ptr] }, ptr @_ZTVN6dealii10QuadratureILi2EEE, i64 0, inrange i32 0, i64 2), ptr %0, align 8, !tbaa !5
  %3 = getelementptr inbounds %"class.dealii::Quadrature.8", ptr %0, i64 0, i32 1
  store i32 %1, ptr %3, align 8, !tbaa !58
  %4 = getelementptr inbounds %"class.dealii::Quadrature.8", ptr %0, i64 0, i32 2
  %5 = zext i32 %1 to i64
  tail call void @llvm.memset.p0.i64(ptr noundef nonnull align 8 dereferenceable(24) %4, i8 0, i64 24, i1 false)
  %6 = icmp eq i32 %1, 0
  br i1 %6, label %7, label %8

7:                                                ; preds = %2
  tail call void @llvm.memset.p0.i64(ptr noundef nonnull align 8 dereferenceable(48) %4, i8 0, i64 48, i1 false)
  br label %22

8:                                                ; preds = %2
  %9 = shl nuw nsw i64 %5, 4
  %10 = invoke noalias noundef nonnull ptr @_Znwm(i64 noundef %9) #22
          to label %11 unwind label %25

11:                                               ; preds = %8
  store ptr %10, ptr %4, align 8, !tbaa !64
  %12 = getelementptr inbounds %"class.dealii::Point.14", ptr %10, i64 %5
  %13 = getelementptr inbounds %"class.dealii::Quadrature.8", ptr %0, i64 0, i32 2, i32 0, i32 0, i32 0, i32 2
  store ptr %12, ptr %13, align 8, !tbaa !65
  tail call void @llvm.memset.p0.i64(ptr nonnull align 8 %10, i8 0, i64 %9, i1 false), !tbaa !33
  %14 = getelementptr i8, ptr %10, i64 %9
  %15 = getelementptr inbounds %"class.dealii::Quadrature.8", ptr %0, i64 0, i32 2, i32 0, i32 0, i32 0, i32 1
  store ptr %14, ptr %15, align 8, !tbaa !66
  %16 = getelementptr inbounds %"class.dealii::Quadrature.8", ptr %0, i64 0, i32 3
  tail call void @llvm.memset.p0.i64(ptr noundef nonnull align 8 dereferenceable(24) %16, i8 0, i64 24, i1 false)
  %17 = shl nuw nsw i64 %5, 3
  %18 = invoke noalias noundef nonnull ptr @_Znwm(i64 noundef %17) #22
          to label %19 unwind label %27

19:                                               ; preds = %11
  store ptr %18, ptr %16, align 8, !tbaa !36
  %20 = getelementptr inbounds double, ptr %18, i64 %5
  %21 = getelementptr inbounds %"class.dealii::Quadrature.8", ptr %0, i64 0, i32 3, i32 0, i32 0, i32 0, i32 2
  store ptr %20, ptr %21, align 8, !tbaa !37
  tail call void @llvm.memset.p0.i64(ptr nonnull align 8 %18, i8 0, i64 %17, i1 false), !tbaa !33
  br label %22

22:                                               ; preds = %19, %7
  %23 = phi ptr [ null, %7 ], [ %20, %19 ]
  %24 = getelementptr inbounds %"class.dealii::Quadrature.8", ptr %0, i64 0, i32 3, i32 0, i32 0, i32 0, i32 1
  store ptr %23, ptr %24, align 8, !tbaa !38
  ret void

25:                                               ; preds = %8
  %26 = landingpad { ptr, i32 }
          cleanup
  br label %29

27:                                               ; preds = %11
  %28 = landingpad { ptr, i32 }
          cleanup
  tail call void @_ZdlPv(ptr noundef nonnull %10) #23
  br label %29

29:                                               ; preds = %27, %25
  %30 = phi { ptr, i32 } [ %26, %25 ], [ %28, %27 ]
  invoke void @_ZN6dealii11SubscriptorD2Ev(ptr noundef nonnull align 8 dereferenceable(72) %0)
          to label %31 unwind label %32

31:                                               ; preds = %29
  resume { ptr, i32 } %30

32:                                               ; preds = %29
  %33 = landingpad { ptr, i32 }
          catch ptr null
  %34 = extractvalue { ptr, i32 } %33, 0
  tail call void @__clang_call_terminate(ptr %34) #24
  unreachable
}

; Function Attrs: sspstrong uwtable
define weak_odr dso_local void @_ZN6dealii10QuadratureILi2EEC2ERKNS0_ILi1EEES4_(ptr noundef nonnull align 8 dereferenceable(128) %0, ptr noundef nonnull align 8 dereferenceable(128) %1, ptr noundef nonnull align 8 dereferenceable(128) %2) unnamed_addr #0 comdat($_ZN6dealii10QuadratureILi2EEC5ERKNS0_ILi1EEES4_) align 2 personality ptr @__gxx_personality_v0 {
  tail call void @_ZN6dealii11SubscriptorC2Ev(ptr noundef nonnull align 8 dereferenceable(72) %0)
  store ptr getelementptr inbounds ({ [4 x ptr] }, ptr @_ZTVN6dealii10QuadratureILi2EEE, i64 0, inrange i32 0, i64 2), ptr %0, align 8, !tbaa !5
  %4 = getelementptr inbounds %"class.dealii::Quadrature.8", ptr %0, i64 0, i32 1
  %5 = getelementptr inbounds %"class.dealii::Quadrature", ptr %1, i64 0, i32 3
  %6 = getelementptr inbounds %"class.dealii::Quadrature", ptr %1, i64 0, i32 3, i32 0, i32 0, i32 0, i32 1
  %7 = load ptr, ptr %6, align 8, !tbaa !38
  %8 = load ptr, ptr %5, align 8, !tbaa !36
  %9 = ptrtoint ptr %7 to i64
  %10 = ptrtoint ptr %8 to i64
  %11 = sub i64 %9, %10
  %12 = lshr exact i64 %11, 3
  %13 = trunc i64 %12 to i32
  %14 = getelementptr inbounds %"class.dealii::Quadrature", ptr %2, i64 0, i32 3
  %15 = getelementptr inbounds %"class.dealii::Quadrature", ptr %2, i64 0, i32 3, i32 0, i32 0, i32 0, i32 1
  %16 = load ptr, ptr %15, align 8, !tbaa !38
  %17 = load ptr, ptr %14, align 8, !tbaa !36
  %18 = ptrtoint ptr %16 to i64
  %19 = ptrtoint ptr %17 to i64
  %20 = sub i64 %18, %19
  %21 = lshr exact i64 %20, 3
  %22 = trunc i64 %21 to i32
  %23 = mul i32 %22, %13
  store i32 %23, ptr %4, align 8, !tbaa !58
  %24 = getelementptr inbounds %"class.dealii::Quadrature.8", ptr %0, i64 0, i32 2
  %25 = zext i32 %23 to i64
  tail call void @llvm.memset.p0.i64(ptr noundef nonnull align 8 dereferenceable(24) %24, i8 0, i64 24, i1 false)
  %26 = icmp eq i32 %23, 0
  br i1 %26, label %27, label %28

27:                                               ; preds = %3
  tail call void @llvm.memset.p0.i64(ptr noundef nonnull align 8 dereferenceable(48) %24, i8 0, i64 48, i1 false)
  br label %42

28:                                               ; preds = %3
  %29 = shl nuw nsw i64 %25, 4
  %30 = invoke noalias noundef nonnull ptr @_Znwm(i64 noundef %29) #22
          to label %31 unwind label %240

31:                                               ; preds = %28
  store ptr %30, ptr %24, align 8, !tbaa !64
  %32 = getelementptr inbounds %"class.dealii::Point.14", ptr %30, i64 %25
  %33 = getelementptr inbounds %"class.dealii::Quadrature.8", ptr %0, i64 0, i32 2, i32 0, i32 0, i32 0, i32 2
  store ptr %32, ptr %33, align 8, !tbaa !65
  tail call void @llvm.memset.p0.i64(ptr nonnull align 8 %30, i8 0, i64 %29, i1 false), !tbaa !33
  %34 = getelementptr i8, ptr %30, i64 %29
  %35 = getelementptr inbounds %"class.dealii::Quadrature.8", ptr %0, i64 0, i32 2, i32 0, i32 0, i32 0, i32 1
  store ptr %34, ptr %35, align 8, !tbaa !66
  %36 = getelementptr inbounds %"class.dealii::Quadrature.8", ptr %0, i64 0, i32 3
  tail call void @llvm.memset.p0.i64(ptr noundef nonnull align 8 dereferenceable(24) %36, i8 0, i64 24, i1 false)
  %37 = shl nuw nsw i64 %25, 3
  %38 = invoke noalias noundef nonnull ptr @_Znwm(i64 noundef %37) #22
          to label %39 unwind label %242

39:                                               ; preds = %31
  store ptr %38, ptr %36, align 8, !tbaa !36
  %40 = getelementptr inbounds double, ptr %38, i64 %25
  %41 = getelementptr inbounds %"class.dealii::Quadrature.8", ptr %0, i64 0, i32 3, i32 0, i32 0, i32 0, i32 2
  store ptr %40, ptr %41, align 8, !tbaa !37
  tail call void @llvm.memset.p0.i64(ptr nonnull align 8 %38, i8 0, i64 %37, i1 false), !tbaa !33
  br label %42

42:                                               ; preds = %39, %27
  %43 = phi ptr [ null, %27 ], [ %38, %39 ]
  %44 = phi ptr [ null, %27 ], [ %30, %39 ]
  %45 = phi ptr [ null, %27 ], [ %40, %39 ]
  %46 = getelementptr inbounds %"class.dealii::Quadrature.8", ptr %0, i64 0, i32 3, i32 0, i32 0, i32 0, i32 1
  store ptr %45, ptr %46, align 8, !tbaa !38
  %47 = load ptr, ptr %15, align 8, !tbaa !38
  %48 = load ptr, ptr %14, align 8, !tbaa !36
  %49 = ptrtoint ptr %47 to i64
  %50 = ptrtoint ptr %48 to i64
  %51 = sub i64 %49, %50
  %52 = lshr exact i64 %51, 3
  %53 = and i64 %51, 34359738360
  %54 = icmp eq i64 %53, 0
  br i1 %54, label %239, label %55

55:                                               ; preds = %42
  %56 = load ptr, ptr %6, align 8, !tbaa !38
  %57 = load ptr, ptr %5, align 8, !tbaa !36
  %58 = ptrtoint ptr %56 to i64
  %59 = ptrtoint ptr %57 to i64
  %60 = sub i64 %58, %59
  %61 = and i64 %60, 34359738360
  %62 = icmp eq i64 %61, 0
  %63 = getelementptr inbounds %"class.dealii::Quadrature", ptr %1, i64 0, i32 2
  %64 = load ptr, ptr %63, align 8
  %65 = getelementptr inbounds %"class.dealii::Quadrature", ptr %2, i64 0, i32 2
  %66 = load ptr, ptr %65, align 8
  br i1 %62, label %239, label %67

67:                                               ; preds = %55
  %68 = lshr exact i64 %60, 3
  %69 = and i64 %52, 4294967295
  %70 = and i64 %68, 4294967295
  %71 = add nsw i64 %70, -1
  %72 = getelementptr i8, ptr %44, i64 8
  %73 = getelementptr i8, ptr %64, i64 %61
  %74 = shl nuw nsw i64 %70, 4
  %75 = getelementptr i8, ptr %44, i64 %74
  %76 = getelementptr i8, ptr %43, i64 %61
  %77 = getelementptr i8, ptr %57, i64 %61
  %78 = icmp ult i64 %70, 48
  %79 = trunc i64 %71 to i32
  %80 = icmp ugt i64 %71, 4294967295
  %81 = shl nsw i64 %71, 4
  %82 = shl nsw i64 %71, 4
  %83 = and i64 %68, 3
  %84 = sub nsw i64 %70, %83
  %85 = trunc i64 %84 to i32
  %86 = icmp eq i64 %83, 0
  br label %87

87:                                               ; preds = %235, %67
  %88 = phi i64 [ %237, %235 ], [ 0, %67 ]
  %89 = phi i32 [ %236, %235 ], [ 0, %67 ]
  %90 = shl i64 %88, 3
  %91 = getelementptr i8, ptr %66, i64 %90
  %92 = add i64 %90, 8
  %93 = getelementptr i8, ptr %66, i64 %92
  %94 = getelementptr i8, ptr %48, i64 %90
  %95 = getelementptr i8, ptr %48, i64 %92
  %96 = getelementptr inbounds %"class.dealii::Point", ptr %66, i64 %88
  %97 = getelementptr inbounds double, ptr %48, i64 %88
  br i1 %78, label %179, label %98

98:                                               ; preds = %87
  %99 = xor i32 %89, -1
  %100 = icmp ult i32 %99, %79
  %101 = or i1 %100, %80
  %102 = zext i32 %89 to i64
  %103 = shl nuw nsw i64 %102, 4
  %104 = getelementptr i8, ptr %44, i64 %103
  %105 = getelementptr i8, ptr %104, i64 %81
  %106 = icmp ult ptr %105, %104
  %107 = getelementptr i8, ptr %72, i64 %103
  %108 = getelementptr i8, ptr %107, i64 %82
  %109 = icmp ult ptr %108, %107
  %110 = or i1 %106, %101
  %111 = or i1 %109, %110
  br i1 %111, label %179, label %112

112:                                              ; preds = %98
  %113 = zext i32 %89 to i64
  %114 = shl nuw nsw i64 %113, 4
  %115 = getelementptr i8, ptr %44, i64 %114
  %116 = getelementptr i8, ptr %75, i64 %114
  %117 = shl nuw nsw i64 %113, 3
  %118 = getelementptr i8, ptr %43, i64 %117
  %119 = getelementptr i8, ptr %76, i64 %117
  %120 = icmp ult ptr %64, %116
  %121 = icmp ult ptr %115, %73
  %122 = and i1 %120, %121
  %123 = icmp ult ptr %64, %119
  %124 = icmp ult ptr %118, %73
  %125 = and i1 %123, %124
  %126 = or i1 %122, %125
  %127 = icmp ult ptr %91, %116
  %128 = icmp ult ptr %115, %93
  %129 = and i1 %127, %128
  %130 = or i1 %126, %129
  %131 = icmp ult ptr %91, %119
  %132 = icmp ult ptr %118, %93
  %133 = and i1 %131, %132
  %134 = or i1 %130, %133
  %135 = icmp ult ptr %57, %116
  %136 = icmp ult ptr %115, %77
  %137 = and i1 %135, %136
  %138 = or i1 %134, %137
  %139 = icmp ult ptr %57, %119
  %140 = icmp ult ptr %118, %77
  %141 = and i1 %139, %140
  %142 = or i1 %138, %141
  %143 = icmp ult ptr %94, %116
  %144 = icmp ult ptr %115, %95
  %145 = and i1 %143, %144
  %146 = or i1 %142, %145
  %147 = icmp ult ptr %94, %119
  %148 = icmp ult ptr %118, %95
  %149 = and i1 %147, %148
  %150 = or i1 %146, %149
  %151 = icmp ult ptr %115, %119
  %152 = icmp ult ptr %118, %116
  %153 = and i1 %151, %152
  %154 = or i1 %150, %153
  br i1 %154, label %179, label %155

155:                                              ; preds = %112
  %156 = add i32 %89, %85
  br label %157

157:                                              ; preds = %157, %155
  %158 = phi i64 [ 0, %155 ], [ %176, %157 ]
  %159 = trunc i64 %158 to i32
  %160 = add i32 %89, %159
  %161 = getelementptr inbounds %"class.dealii::Point", ptr %64, i64 %158
  %162 = load <4 x double>, ptr %161, align 8, !tbaa !33, !alias.scope !67, !noalias !70
  %163 = zext i32 %160 to i64
  %164 = load double, ptr %96, align 8, !tbaa !33, !alias.scope !73, !noalias !70
  %165 = insertelement <4 x double> poison, double %164, i64 0
  %166 = shufflevector <4 x double> %165, <4 x double> poison, <4 x i32> zeroinitializer
  %167 = getelementptr inbounds %"class.dealii::Point.14", ptr %44, i64 %163
  %168 = shufflevector <4 x double> %162, <4 x double> %166, <8 x i32> <i32 0, i32 4, i32 1, i32 5, i32 2, i32 6, i32 3, i32 7>
  store <8 x double> %168, ptr %167, align 8, !tbaa !33
  %169 = getelementptr inbounds double, ptr %57, i64 %158
  %170 = load <4 x double>, ptr %169, align 8, !tbaa !33, !alias.scope !75, !noalias !70
  %171 = load double, ptr %97, align 8, !tbaa !33, !alias.scope !77, !noalias !70
  %172 = insertelement <4 x double> poison, double %171, i64 0
  %173 = shufflevector <4 x double> %172, <4 x double> poison, <4 x i32> zeroinitializer
  %174 = fmul <4 x double> %170, %173
  %175 = getelementptr inbounds double, ptr %43, i64 %163
  store <4 x double> %174, ptr %175, align 8, !tbaa !33, !alias.scope !79
  %176 = add nuw i64 %158, 4
  %177 = icmp eq i64 %176, %84
  br i1 %177, label %178, label %157, !llvm.loop !80

178:                                              ; preds = %157
  br i1 %86, label %235, label %179

179:                                              ; preds = %112, %98, %87, %178
  %180 = phi i64 [ 0, %112 ], [ 0, %98 ], [ 0, %87 ], [ %84, %178 ]
  %181 = phi i32 [ %89, %112 ], [ %89, %98 ], [ %89, %87 ], [ %156, %178 ]
  %182 = sub nsw i64 %68, %180
  %183 = add nsw i64 %180, 1
  %184 = and i64 %182, 1
  %185 = icmp eq i64 %184, 0
  br i1 %185, label %200, label %186

186:                                              ; preds = %179
  %187 = getelementptr inbounds %"class.dealii::Point", ptr %64, i64 %180
  %188 = load double, ptr %187, align 8, !tbaa !33
  %189 = zext i32 %181 to i64
  %190 = getelementptr inbounds %"class.dealii::Point.14", ptr %44, i64 %189
  store double %188, ptr %190, align 8, !tbaa !33
  %191 = load double, ptr %96, align 8, !tbaa !33
  %192 = getelementptr inbounds [2 x double], ptr %190, i64 0, i64 1
  store double %191, ptr %192, align 8, !tbaa !33
  %193 = getelementptr inbounds double, ptr %57, i64 %180
  %194 = load double, ptr %193, align 8, !tbaa !33
  %195 = load double, ptr %97, align 8, !tbaa !33
  %196 = fmul double %194, %195
  %197 = getelementptr inbounds double, ptr %43, i64 %189
  store double %196, ptr %197, align 8, !tbaa !33
  %198 = add i32 %181, 1
  %199 = add nuw nsw i64 %180, 1
  br label %200

200:                                              ; preds = %186, %179
  %201 = phi i32 [ undef, %179 ], [ %198, %186 ]
  %202 = phi i64 [ %180, %179 ], [ %199, %186 ]
  %203 = phi i32 [ %181, %179 ], [ %198, %186 ]
  %204 = icmp eq i64 %70, %183
  br i1 %204, label %235, label %205

205:                                              ; preds = %200, %205
  %206 = phi i64 [ %233, %205 ], [ %202, %200 ]
  %207 = phi i32 [ %232, %205 ], [ %203, %200 ]
  %208 = getelementptr inbounds %"class.dealii::Point", ptr %64, i64 %206
  %209 = load double, ptr %208, align 8, !tbaa !33
  %210 = zext i32 %207 to i64
  %211 = getelementptr inbounds %"class.dealii::Point.14", ptr %44, i64 %210
  store double %209, ptr %211, align 8, !tbaa !33
  %212 = load double, ptr %96, align 8, !tbaa !33
  %213 = getelementptr inbounds [2 x double], ptr %211, i64 0, i64 1
  store double %212, ptr %213, align 8, !tbaa !33
  %214 = getelementptr inbounds double, ptr %57, i64 %206
  %215 = load double, ptr %214, align 8, !tbaa !33
  %216 = load double, ptr %97, align 8, !tbaa !33
  %217 = fmul double %215, %216
  %218 = getelementptr inbounds double, ptr %43, i64 %210
  store double %217, ptr %218, align 8, !tbaa !33
  %219 = add i32 %207, 1
  %220 = add nuw nsw i64 %206, 1
  %221 = getelementptr inbounds %"class.dealii::Point", ptr %64, i64 %220
  %222 = load double, ptr %221, align 8, !tbaa !33
  %223 = zext i32 %219 to i64
  %224 = getelementptr inbounds %"class.dealii::Point.14", ptr %44, i64 %223
  store double %222, ptr %224, align 8, !tbaa !33
  %225 = load double, ptr %96, align 8, !tbaa !33
  %226 = getelementptr inbounds [2 x double], ptr %224, i64 0, i64 1
  store double %225, ptr %226, align 8, !tbaa !33
  %227 = getelementptr inbounds double, ptr %57, i64 %220
  %228 = load double, ptr %227, align 8, !tbaa !33
  %229 = load double, ptr %97, align 8, !tbaa !33
  %230 = fmul double %228, %229
  %231 = getelementptr inbounds double, ptr %43, i64 %223
  store double %230, ptr %231, align 8, !tbaa !33
  %232 = add i32 %207, 2
  %233 = add nuw nsw i64 %206, 2
  %234 = icmp eq i64 %233, %70
  br i1 %234, label %235, label %205, !llvm.loop !81

235:                                              ; preds = %200, %205, %178
  %236 = phi i32 [ %156, %178 ], [ %201, %200 ], [ %232, %205 ]
  %237 = add nuw nsw i64 %88, 1
  %238 = icmp eq i64 %237, %69
  br i1 %238, label %239, label %87

239:                                              ; preds = %235, %55, %42
  ret void

240:                                              ; preds = %28
  %241 = landingpad { ptr, i32 }
          cleanup
  br label %244

242:                                              ; preds = %31
  %243 = landingpad { ptr, i32 }
          cleanup
  tail call void @_ZdlPv(ptr noundef nonnull %30) #23
  br label %244

244:                                              ; preds = %242, %240
  %245 = phi { ptr, i32 } [ %241, %240 ], [ %243, %242 ]
  invoke void @_ZN6dealii11SubscriptorD2Ev(ptr noundef nonnull align 8 dereferenceable(72) %0)
          to label %246 unwind label %247

246:                                              ; preds = %244
  resume { ptr, i32 } %245

247:                                              ; preds = %244
  %248 = landingpad { ptr, i32 }
          catch ptr null
  %249 = extractvalue { ptr, i32 } %248, 0
  tail call void @__clang_call_terminate(ptr %249) #24
  unreachable
}

; Function Attrs: sspstrong uwtable
define weak_odr dso_local void @_ZN6dealii10QuadratureILi2EEC2ERKNS0_ILi1EEE(ptr noundef nonnull align 8 dereferenceable(128) %0, ptr noundef nonnull align 8 dereferenceable(128) %1) unnamed_addr #0 comdat($_ZN6dealii10QuadratureILi2EEC5ERKNS0_ILi1EEE) align 2 personality ptr @__gxx_personality_v0 {
  tail call void @_ZN6dealii11SubscriptorC2Ev(ptr noundef nonnull align 8 dereferenceable(72) %0)
  store ptr getelementptr inbounds ({ [4 x ptr] }, ptr @_ZTVN6dealii10QuadratureILi2EEE, i64 0, inrange i32 0, i64 2), ptr %0, align 8, !tbaa !5
  %3 = getelementptr inbounds %"class.dealii::Quadrature.8", ptr %0, i64 0, i32 1
  %4 = getelementptr inbounds %"class.dealii::Quadrature", ptr %1, i64 0, i32 3
  %5 = getelementptr inbounds %"class.dealii::Quadrature", ptr %1, i64 0, i32 3, i32 0, i32 0, i32 0, i32 1
  %6 = load ptr, ptr %5, align 8, !tbaa !38
  %7 = load ptr, ptr %4, align 8, !tbaa !36
  %8 = ptrtoint ptr %6 to i64
  %9 = ptrtoint ptr %7 to i64
  %10 = sub i64 %8, %9
  %11 = lshr exact i64 %10, 3
  %12 = trunc i64 %11 to i32
  %13 = mul i32 %12, %12
  store i32 %13, ptr %3, align 8, !tbaa !58
  %14 = getelementptr inbounds %"class.dealii::Quadrature.8", ptr %0, i64 0, i32 2
  %15 = zext i32 %13 to i64
  tail call void @llvm.memset.p0.i64(ptr noundef nonnull align 8 dereferenceable(24) %14, i8 0, i64 24, i1 false)
  %16 = icmp eq i32 %13, 0
  br i1 %16, label %17, label %18

17:                                               ; preds = %2
  tail call void @llvm.memset.p0.i64(ptr noundef nonnull align 8 dereferenceable(48) %14, i8 0, i64 48, i1 false)
  br label %32

18:                                               ; preds = %2
  %19 = shl nuw nsw i64 %15, 4
  %20 = invoke noalias noundef nonnull ptr @_Znwm(i64 noundef %19) #22
          to label %21 unwind label %182

21:                                               ; preds = %18
  store ptr %20, ptr %14, align 8, !tbaa !64
  %22 = getelementptr inbounds %"class.dealii::Point.14", ptr %20, i64 %15
  %23 = getelementptr inbounds %"class.dealii::Quadrature.8", ptr %0, i64 0, i32 2, i32 0, i32 0, i32 0, i32 2
  store ptr %22, ptr %23, align 8, !tbaa !65
  tail call void @llvm.memset.p0.i64(ptr nonnull align 8 %20, i8 0, i64 %19, i1 false), !tbaa !33
  %24 = getelementptr i8, ptr %20, i64 %19
  %25 = getelementptr inbounds %"class.dealii::Quadrature.8", ptr %0, i64 0, i32 2, i32 0, i32 0, i32 0, i32 1
  store ptr %24, ptr %25, align 8, !tbaa !66
  %26 = getelementptr inbounds %"class.dealii::Quadrature.8", ptr %0, i64 0, i32 3
  tail call void @llvm.memset.p0.i64(ptr noundef nonnull align 8 dereferenceable(24) %26, i8 0, i64 24, i1 false)
  %27 = shl nuw nsw i64 %15, 3
  %28 = invoke noalias noundef nonnull ptr @_Znwm(i64 noundef %27) #22
          to label %29 unwind label %184

29:                                               ; preds = %21
  store ptr %28, ptr %26, align 8, !tbaa !36
  %30 = getelementptr inbounds double, ptr %28, i64 %15
  %31 = getelementptr inbounds %"class.dealii::Quadrature.8", ptr %0, i64 0, i32 3, i32 0, i32 0, i32 0, i32 2
  store ptr %30, ptr %31, align 8, !tbaa !37
  tail call void @llvm.memset.p0.i64(ptr nonnull align 8 %28, i8 0, i64 %27, i1 false), !tbaa !33
  br label %32

32:                                               ; preds = %29, %17
  %33 = phi ptr [ null, %17 ], [ %28, %29 ]
  %34 = phi ptr [ null, %17 ], [ %20, %29 ]
  %35 = phi ptr [ null, %17 ], [ %30, %29 ]
  %36 = getelementptr inbounds %"class.dealii::Quadrature.8", ptr %0, i64 0, i32 3, i32 0, i32 0, i32 0, i32 1
  store ptr %35, ptr %36, align 8, !tbaa !38
  %37 = load ptr, ptr %5, align 8, !tbaa !38
  %38 = load ptr, ptr %4, align 8, !tbaa !36
  %39 = ptrtoint ptr %37 to i64
  %40 = ptrtoint ptr %38 to i64
  %41 = sub i64 %39, %40
  %42 = and i64 %41, 34359738360
  %43 = icmp eq i64 %42, 0
  %44 = getelementptr inbounds %"class.dealii::Quadrature", ptr %1, i64 0, i32 2
  %45 = load ptr, ptr %44, align 8
  br i1 %43, label %181, label %46

46:                                               ; preds = %32
  %47 = lshr exact i64 %41, 3
  %48 = and i64 %47, 4294967295
  %49 = add nsw i64 %48, -1
  %50 = getelementptr i8, ptr %34, i64 8
  %51 = shl nuw nsw i64 %48, 4
  %52 = getelementptr i8, ptr %34, i64 %51
  %53 = getelementptr i8, ptr %33, i64 %42
  %54 = getelementptr i8, ptr %45, i64 %42
  %55 = getelementptr i8, ptr %38, i64 %42
  %56 = icmp ult i64 %48, 44
  %57 = trunc i64 %49 to i32
  %58 = icmp ugt i64 %49, 4294967295
  %59 = shl nsw i64 %49, 4
  %60 = shl nsw i64 %49, 4
  %61 = and i64 %47, 3
  %62 = sub nsw i64 %48, %61
  %63 = trunc i64 %62 to i32
  %64 = icmp eq i64 %61, 0
  br label %86

65:                                               ; preds = %69, %177
  %66 = phi i32 [ %155, %177 ], [ %83, %69 ]
  %67 = add nuw nsw i64 %87, 1
  %68 = icmp eq i64 %67, %48
  br i1 %68, label %181, label %86

69:                                               ; preds = %178, %69
  %70 = phi i64 [ %84, %69 ], [ %179, %178 ]
  %71 = phi i32 [ %83, %69 ], [ %180, %178 ]
  %72 = getelementptr inbounds %"class.dealii::Point", ptr %45, i64 %70
  %73 = load double, ptr %72, align 8, !tbaa !33
  %74 = zext i32 %71 to i64
  %75 = getelementptr inbounds %"class.dealii::Point.14", ptr %34, i64 %74
  store double %73, ptr %75, align 8, !tbaa !33
  %76 = load double, ptr %95, align 8, !tbaa !33
  %77 = getelementptr inbounds [2 x double], ptr %75, i64 0, i64 1
  store double %76, ptr %77, align 8, !tbaa !33
  %78 = getelementptr inbounds double, ptr %38, i64 %70
  %79 = load double, ptr %78, align 8, !tbaa !33
  %80 = getelementptr inbounds double, ptr %33, i64 %74
  store double %79, ptr %80, align 8, !tbaa !33
  %81 = load double, ptr %96, align 8, !tbaa !33
  %82 = fmul double %79, %81
  store double %82, ptr %80, align 8, !tbaa !33
  %83 = add i32 %71, 1
  %84 = add nuw nsw i64 %70, 1
  %85 = icmp eq i64 %84, %48
  br i1 %85, label %65, label %69, !llvm.loop !82

86:                                               ; preds = %46, %65
  %87 = phi i64 [ 0, %46 ], [ %67, %65 ]
  %88 = phi i32 [ 0, %46 ], [ %66, %65 ]
  %89 = shl i64 %87, 3
  %90 = getelementptr i8, ptr %45, i64 %89
  %91 = add i64 %89, 8
  %92 = getelementptr i8, ptr %45, i64 %91
  %93 = getelementptr i8, ptr %38, i64 %89
  %94 = getelementptr i8, ptr %38, i64 %91
  %95 = getelementptr inbounds %"class.dealii::Point", ptr %45, i64 %87
  %96 = getelementptr inbounds double, ptr %38, i64 %87
  br i1 %56, label %178, label %97

97:                                               ; preds = %86
  %98 = xor i32 %88, -1
  %99 = icmp ult i32 %98, %57
  %100 = or i1 %99, %58
  %101 = zext i32 %88 to i64
  %102 = shl nuw nsw i64 %101, 4
  %103 = getelementptr i8, ptr %34, i64 %102
  %104 = getelementptr i8, ptr %103, i64 %59
  %105 = icmp ult ptr %104, %103
  %106 = getelementptr i8, ptr %50, i64 %102
  %107 = getelementptr i8, ptr %106, i64 %60
  %108 = icmp ult ptr %107, %106
  %109 = or i1 %105, %100
  %110 = or i1 %108, %109
  br i1 %110, label %178, label %111

111:                                              ; preds = %97
  %112 = zext i32 %88 to i64
  %113 = shl nuw nsw i64 %112, 4
  %114 = getelementptr i8, ptr %34, i64 %113
  %115 = getelementptr i8, ptr %52, i64 %113
  %116 = shl nuw nsw i64 %112, 3
  %117 = getelementptr i8, ptr %33, i64 %116
  %118 = getelementptr i8, ptr %53, i64 %116
  %119 = icmp ult ptr %90, %115
  %120 = icmp ult ptr %114, %92
  %121 = and i1 %119, %120
  %122 = icmp ult ptr %90, %118
  %123 = icmp ult ptr %117, %92
  %124 = and i1 %122, %123
  %125 = or i1 %121, %124
  %126 = icmp ult ptr %45, %115
  %127 = icmp ult ptr %114, %54
  %128 = and i1 %126, %127
  %129 = or i1 %125, %128
  %130 = icmp ult ptr %45, %118
  %131 = icmp ult ptr %117, %54
  %132 = and i1 %130, %131
  %133 = or i1 %129, %132
  %134 = icmp ult ptr %93, %115
  %135 = icmp ult ptr %114, %94
  %136 = and i1 %134, %135
  %137 = or i1 %133, %136
  %138 = icmp ult ptr %93, %118
  %139 = icmp ult ptr %117, %94
  %140 = and i1 %138, %139
  %141 = or i1 %137, %140
  %142 = icmp ult ptr %38, %115
  %143 = icmp ult ptr %114, %55
  %144 = and i1 %142, %143
  %145 = or i1 %141, %144
  %146 = icmp ult ptr %38, %118
  %147 = icmp ult ptr %117, %55
  %148 = and i1 %146, %147
  %149 = or i1 %145, %148
  %150 = icmp ult ptr %114, %118
  %151 = icmp ult ptr %117, %115
  %152 = and i1 %150, %151
  %153 = or i1 %149, %152
  br i1 %153, label %178, label %154

154:                                              ; preds = %111
  %155 = add i32 %88, %63
  br label %156

156:                                              ; preds = %156, %154
  %157 = phi i64 [ 0, %154 ], [ %175, %156 ]
  %158 = trunc i64 %157 to i32
  %159 = add i32 %88, %158
  %160 = getelementptr inbounds %"class.dealii::Point", ptr %45, i64 %157
  %161 = load <4 x double>, ptr %160, align 8, !tbaa !33, !alias.scope !83, !noalias !86
  %162 = zext i32 %159 to i64
  %163 = load double, ptr %95, align 8, !tbaa !33, !alias.scope !89, !noalias !86
  %164 = insertelement <4 x double> poison, double %163, i64 0
  %165 = shufflevector <4 x double> %164, <4 x double> poison, <4 x i32> zeroinitializer
  %166 = getelementptr inbounds %"class.dealii::Point.14", ptr %34, i64 %162
  %167 = shufflevector <4 x double> %161, <4 x double> %165, <8 x i32> <i32 0, i32 4, i32 1, i32 5, i32 2, i32 6, i32 3, i32 7>
  store <8 x double> %167, ptr %166, align 8, !tbaa !33
  %168 = getelementptr inbounds double, ptr %38, i64 %157
  %169 = load <4 x double>, ptr %168, align 8, !tbaa !33, !alias.scope !91, !noalias !86
  %170 = getelementptr inbounds double, ptr %33, i64 %162
  store <4 x double> %169, ptr %170, align 8, !tbaa !33, !alias.scope !93
  %171 = load double, ptr %96, align 8, !tbaa !33, !alias.scope !94, !noalias !86
  %172 = insertelement <4 x double> poison, double %171, i64 0
  %173 = shufflevector <4 x double> %172, <4 x double> poison, <4 x i32> zeroinitializer
  %174 = fmul <4 x double> %169, %173
  store <4 x double> %174, ptr %170, align 8, !tbaa !33, !alias.scope !93
  %175 = add nuw i64 %157, 4
  %176 = icmp eq i64 %175, %62
  br i1 %176, label %177, label %156, !llvm.loop !96

177:                                              ; preds = %156
  br i1 %64, label %65, label %178

178:                                              ; preds = %111, %97, %86, %177
  %179 = phi i64 [ 0, %111 ], [ 0, %97 ], [ 0, %86 ], [ %62, %177 ]
  %180 = phi i32 [ %88, %111 ], [ %88, %97 ], [ %88, %86 ], [ %155, %177 ]
  br label %69

181:                                              ; preds = %65, %32
  ret void

182:                                              ; preds = %18
  %183 = landingpad { ptr, i32 }
          cleanup
  br label %186

184:                                              ; preds = %21
  %185 = landingpad { ptr, i32 }
          cleanup
  tail call void @_ZdlPv(ptr noundef nonnull %20) #23
  br label %186

186:                                              ; preds = %184, %182
  %187 = phi { ptr, i32 } [ %183, %182 ], [ %185, %184 ]
  invoke void @_ZN6dealii11SubscriptorD2Ev(ptr noundef nonnull align 8 dereferenceable(72) %0)
          to label %188 unwind label %189

188:                                              ; preds = %186
  resume { ptr, i32 } %187

189:                                              ; preds = %186
  %190 = landingpad { ptr, i32 }
          catch ptr null
  %191 = extractvalue { ptr, i32 } %190, 0
  tail call void @__clang_call_terminate(ptr %191) #24
  unreachable
}

; Function Attrs: sspstrong uwtable
define weak_odr dso_local void @_ZN6dealii10QuadratureILi2EEC2ERKS1_(ptr noundef nonnull align 8 dereferenceable(128) %0, ptr noundef nonnull align 8 dereferenceable(128) %1) unnamed_addr #0 comdat($_ZN6dealii10QuadratureILi2EEC5ERKS1_) align 2 personality ptr @__gxx_personality_v0 {
  tail call void @_ZN6dealii11SubscriptorC2Ev(ptr noundef nonnull align 8 dereferenceable(72) %0)
  store ptr getelementptr inbounds ({ [4 x ptr] }, ptr @_ZTVN6dealii10QuadratureILi2EEE, i64 0, inrange i32 0, i64 2), ptr %0, align 8, !tbaa !5
  %3 = getelementptr inbounds %"class.dealii::Quadrature.8", ptr %1, i64 0, i32 3
  %4 = getelementptr inbounds %"class.dealii::Quadrature.8", ptr %1, i64 0, i32 3, i32 0, i32 0, i32 0, i32 1
  %5 = load ptr, ptr %4, align 8, !tbaa !38
  %6 = load ptr, ptr %3, align 8, !tbaa !36
  %7 = ptrtoint ptr %5 to i64
  %8 = ptrtoint ptr %6 to i64
  %9 = sub i64 %7, %8
  %10 = lshr exact i64 %9, 3
  %11 = trunc i64 %10 to i32
  %12 = getelementptr inbounds %"class.dealii::Quadrature.8", ptr %0, i64 0, i32 1
  store i32 %11, ptr %12, align 8, !tbaa !58
  %13 = getelementptr inbounds %"class.dealii::Quadrature.8", ptr %0, i64 0, i32 2
  %14 = getelementptr inbounds %"class.dealii::Quadrature.8", ptr %1, i64 0, i32 2
  %15 = getelementptr inbounds %"class.dealii::Quadrature.8", ptr %1, i64 0, i32 2, i32 0, i32 0, i32 0, i32 1
  %16 = load ptr, ptr %15, align 8, !tbaa !66
  %17 = load ptr, ptr %14, align 8, !tbaa !64
  %18 = ptrtoint ptr %16 to i64
  %19 = ptrtoint ptr %17 to i64
  %20 = sub i64 %18, %19
  %21 = ashr exact i64 %20, 4
  tail call void @llvm.memset.p0.i64(ptr noundef nonnull align 8 dereferenceable(24) %13, i8 0, i64 24, i1 false)
  %22 = icmp eq ptr %16, %17
  br i1 %22, label %29, label %23

23:                                               ; preds = %2
  %24 = icmp ugt i64 %20, 9223372036854775792
  br i1 %24, label %25, label %27, !prof !39

25:                                               ; preds = %23
  invoke void @_ZSt28__throw_bad_array_new_lengthv() #26
          to label %26 unwind label %82

26:                                               ; preds = %25
  unreachable

27:                                               ; preds = %23
  %28 = invoke noalias noundef nonnull ptr @_Znwm(i64 noundef %20) #22
          to label %29 unwind label %82

29:                                               ; preds = %27, %2
  %30 = phi ptr [ null, %2 ], [ %28, %27 ]
  store ptr %30, ptr %13, align 8, !tbaa !64
  %31 = getelementptr inbounds %"class.dealii::Quadrature.8", ptr %0, i64 0, i32 2, i32 0, i32 0, i32 0, i32 1
  store ptr %30, ptr %31, align 8, !tbaa !66
  %32 = getelementptr inbounds %"class.dealii::Point.14", ptr %30, i64 %21
  %33 = getelementptr inbounds %"class.dealii::Quadrature.8", ptr %0, i64 0, i32 2, i32 0, i32 0, i32 0, i32 2
  store ptr %32, ptr %33, align 8, !tbaa !65
  %34 = load ptr, ptr %14, align 8, !tbaa !40
  %35 = load ptr, ptr %15, align 8, !tbaa !40
  %36 = icmp eq ptr %34, %35
  br i1 %36, label %47, label %37

37:                                               ; preds = %29, %37
  %38 = phi ptr [ %45, %37 ], [ %30, %29 ]
  %39 = phi ptr [ %44, %37 ], [ %34, %29 ]
  %40 = load double, ptr %39, align 8, !tbaa !33
  store double %40, ptr %38, align 8, !tbaa !33
  %41 = getelementptr inbounds [2 x double], ptr %39, i64 0, i64 1
  %42 = load double, ptr %41, align 8, !tbaa !33
  %43 = getelementptr inbounds [2 x double], ptr %38, i64 0, i64 1
  store double %42, ptr %43, align 8, !tbaa !33
  %44 = getelementptr inbounds %"class.dealii::Point.14", ptr %39, i64 1
  %45 = getelementptr inbounds %"class.dealii::Point.14", ptr %38, i64 1
  %46 = icmp eq ptr %44, %35
  br i1 %46, label %47, label %37

47:                                               ; preds = %37, %29
  %48 = phi ptr [ %30, %29 ], [ %45, %37 ]
  store ptr %48, ptr %31, align 8, !tbaa !66
  %49 = getelementptr inbounds %"class.dealii::Quadrature.8", ptr %0, i64 0, i32 3
  %50 = load ptr, ptr %4, align 8, !tbaa !38
  %51 = load ptr, ptr %3, align 8, !tbaa !36
  %52 = ptrtoint ptr %50 to i64
  %53 = ptrtoint ptr %51 to i64
  %54 = sub i64 %52, %53
  %55 = ashr exact i64 %54, 3
  tail call void @llvm.memset.p0.i64(ptr noundef nonnull align 8 dereferenceable(24) %49, i8 0, i64 24, i1 false)
  %56 = icmp eq ptr %50, %51
  br i1 %56, label %63, label %57

57:                                               ; preds = %47
  %58 = icmp ugt i64 %54, 9223372036854775800
  br i1 %58, label %59, label %61, !prof !39

59:                                               ; preds = %57
  invoke void @_ZSt28__throw_bad_array_new_lengthv() #26
          to label %60 unwind label %84

60:                                               ; preds = %59
  unreachable

61:                                               ; preds = %57
  %62 = invoke noalias noundef nonnull ptr @_Znwm(i64 noundef %54) #22
          to label %63 unwind label %84

63:                                               ; preds = %61, %47
  %64 = phi ptr [ null, %47 ], [ %62, %61 ]
  store ptr %64, ptr %49, align 8, !tbaa !36
  %65 = getelementptr inbounds %"class.dealii::Quadrature.8", ptr %0, i64 0, i32 3, i32 0, i32 0, i32 0, i32 1
  store ptr %64, ptr %65, align 8, !tbaa !38
  %66 = getelementptr inbounds double, ptr %64, i64 %55
  %67 = getelementptr inbounds %"class.dealii::Quadrature.8", ptr %0, i64 0, i32 3, i32 0, i32 0, i32 0, i32 2
  store ptr %66, ptr %67, align 8, !tbaa !37
  %68 = load ptr, ptr %3, align 8, !tbaa !40
  %69 = load ptr, ptr %4, align 8, !tbaa !40
  %70 = ptrtoint ptr %69 to i64
  %71 = ptrtoint ptr %68 to i64
  %72 = sub i64 %70, %71
  %73 = icmp sgt i64 %72, 8
  br i1 %73, label %74, label %75, !prof !45

74:                                               ; preds = %63
  tail call void @llvm.memmove.p0.p0.i64(ptr align 8 %64, ptr align 8 %68, i64 %72, i1 false)
  br label %79

75:                                               ; preds = %63
  %76 = icmp eq i64 %72, 8
  br i1 %76, label %77, label %79

77:                                               ; preds = %75
  %78 = load double, ptr %68, align 8, !tbaa !33
  store double %78, ptr %64, align 8, !tbaa !33
  br label %79

79:                                               ; preds = %77, %75, %74
  %80 = ashr exact i64 %72, 3
  %81 = getelementptr inbounds double, ptr %64, i64 %80
  store ptr %81, ptr %65, align 8, !tbaa !38
  ret void

82:                                               ; preds = %27, %25
  %83 = landingpad { ptr, i32 }
          cleanup
  br label %89

84:                                               ; preds = %61, %59
  %85 = landingpad { ptr, i32 }
          cleanup
  %86 = load ptr, ptr %13, align 8, !tbaa !64
  %87 = icmp eq ptr %86, null
  br i1 %87, label %89, label %88

88:                                               ; preds = %84
  tail call void @_ZdlPv(ptr noundef nonnull %86) #23
  br label %89

89:                                               ; preds = %88, %84, %82
  %90 = phi { ptr, i32 } [ %83, %82 ], [ %85, %84 ], [ %85, %88 ]
  invoke void @_ZN6dealii11SubscriptorD2Ev(ptr noundef nonnull align 8 dereferenceable(72) %0)
          to label %91 unwind label %92

91:                                               ; preds = %89
  resume { ptr, i32 } %90

92:                                               ; preds = %89
  %93 = landingpad { ptr, i32 }
          catch ptr null
  %94 = extractvalue { ptr, i32 } %93, 0
  tail call void @__clang_call_terminate(ptr %94) #24
  unreachable
}

; Function Attrs: inlinehint sspstrong uwtable
define weak_odr dso_local noundef i32 @_ZNK6dealii10QuadratureILi2EE4sizeEv(ptr noundef nonnull align 8 dereferenceable(128) %0) local_unnamed_addr #4 comdat align 2 {
  %2 = getelementptr inbounds %"class.dealii::Quadrature.8", ptr %0, i64 0, i32 3
  %3 = getelementptr inbounds %"class.dealii::Quadrature.8", ptr %0, i64 0, i32 3, i32 0, i32 0, i32 0, i32 1
  %4 = load ptr, ptr %3, align 8, !tbaa !38
  %5 = load ptr, ptr %2, align 8, !tbaa !36
  %6 = ptrtoint ptr %4 to i64
  %7 = ptrtoint ptr %5 to i64
  %8 = sub i64 %6, %7
  %9 = lshr exact i64 %8, 3
  %10 = trunc i64 %9 to i32
  ret i32 %10
}

; Function Attrs: sspstrong uwtable
define weak_odr dso_local void @_ZN6dealii10QuadratureILi2EEC2ERKSt6vectorINS_5PointILi2EEESaIS4_EERKS2_IdSaIdEE(ptr noundef nonnull align 8 dereferenceable(128) %0, ptr noundef nonnull align 8 dereferenceable(24) %1, ptr noundef nonnull align 8 dereferenceable(24) %2) unnamed_addr #0 comdat($_ZN6dealii10QuadratureILi2EEC5ERKSt6vectorINS_5PointILi2EEESaIS4_EERKS2_IdSaIdEE) align 2 personality ptr @__gxx_personality_v0 {
  tail call void @_ZN6dealii11SubscriptorC2Ev(ptr noundef nonnull align 8 dereferenceable(72) %0)
  store ptr getelementptr inbounds ({ [4 x ptr] }, ptr @_ZTVN6dealii10QuadratureILi2EEE, i64 0, inrange i32 0, i64 2), ptr %0, align 8, !tbaa !5
  %4 = getelementptr inbounds %"class.dealii::Quadrature.8", ptr %0, i64 0, i32 1
  %5 = getelementptr inbounds %"struct.std::_Vector_base<dealii::Point<2>, std::allocator<dealii::Point<2> > >::_Vector_impl_data", ptr %1, i64 0, i32 1
  %6 = load ptr, ptr %5, align 8, !tbaa !66
  %7 = load ptr, ptr %1, align 8, !tbaa !64
  %8 = ptrtoint ptr %6 to i64
  %9 = ptrtoint ptr %7 to i64
  %10 = sub i64 %8, %9
  %11 = ashr exact i64 %10, 4
  %12 = trunc i64 %11 to i32
  store i32 %12, ptr %4, align 8, !tbaa !58
  %13 = getelementptr inbounds %"class.dealii::Quadrature.8", ptr %0, i64 0, i32 2
  tail call void @llvm.memset.p0.i64(ptr noundef nonnull align 8 dereferenceable(24) %13, i8 0, i64 24, i1 false)
  %14 = icmp eq ptr %6, %7
  br i1 %14, label %21, label %15

15:                                               ; preds = %3
  %16 = icmp ugt i64 %10, 9223372036854775792
  br i1 %16, label %17, label %19, !prof !39

17:                                               ; preds = %15
  invoke void @_ZSt28__throw_bad_array_new_lengthv() #26
          to label %18 unwind label %75

18:                                               ; preds = %17
  unreachable

19:                                               ; preds = %15
  %20 = invoke noalias noundef nonnull ptr @_Znwm(i64 noundef %10) #22
          to label %21 unwind label %75

21:                                               ; preds = %19, %3
  %22 = phi ptr [ null, %3 ], [ %20, %19 ]
  store ptr %22, ptr %13, align 8, !tbaa !64
  %23 = getelementptr inbounds %"class.dealii::Quadrature.8", ptr %0, i64 0, i32 2, i32 0, i32 0, i32 0, i32 1
  store ptr %22, ptr %23, align 8, !tbaa !66
  %24 = getelementptr inbounds %"class.dealii::Point.14", ptr %22, i64 %11
  %25 = getelementptr inbounds %"class.dealii::Quadrature.8", ptr %0, i64 0, i32 2, i32 0, i32 0, i32 0, i32 2
  store ptr %24, ptr %25, align 8, !tbaa !65
  %26 = load ptr, ptr %1, align 8, !tbaa !40
  %27 = load ptr, ptr %5, align 8, !tbaa !40
  %28 = icmp eq ptr %26, %27
  br i1 %28, label %39, label %29

29:                                               ; preds = %21, %29
  %30 = phi ptr [ %37, %29 ], [ %22, %21 ]
  %31 = phi ptr [ %36, %29 ], [ %26, %21 ]
  %32 = load double, ptr %31, align 8, !tbaa !33
  store double %32, ptr %30, align 8, !tbaa !33
  %33 = getelementptr inbounds [2 x double], ptr %31, i64 0, i64 1
  %34 = load double, ptr %33, align 8, !tbaa !33
  %35 = getelementptr inbounds [2 x double], ptr %30, i64 0, i64 1
  store double %34, ptr %35, align 8, !tbaa !33
  %36 = getelementptr inbounds %"class.dealii::Point.14", ptr %31, i64 1
  %37 = getelementptr inbounds %"class.dealii::Point.14", ptr %30, i64 1
  %38 = icmp eq ptr %36, %27
  br i1 %38, label %39, label %29

39:                                               ; preds = %29, %21
  %40 = phi ptr [ %22, %21 ], [ %37, %29 ]
  store ptr %40, ptr %23, align 8, !tbaa !66
  %41 = getelementptr inbounds %"class.dealii::Quadrature.8", ptr %0, i64 0, i32 3
  %42 = getelementptr inbounds %"struct.std::_Vector_base<double, std::allocator<double> >::_Vector_impl_data", ptr %2, i64 0, i32 1
  %43 = load ptr, ptr %42, align 8, !tbaa !38
  %44 = load ptr, ptr %2, align 8, !tbaa !36
  %45 = ptrtoint ptr %43 to i64
  %46 = ptrtoint ptr %44 to i64
  %47 = sub i64 %45, %46
  %48 = ashr exact i64 %47, 3
  tail call void @llvm.memset.p0.i64(ptr noundef nonnull align 8 dereferenceable(24) %41, i8 0, i64 24, i1 false)
  %49 = icmp eq ptr %43, %44
  br i1 %49, label %56, label %50

50:                                               ; preds = %39
  %51 = icmp ugt i64 %47, 9223372036854775800
  br i1 %51, label %52, label %54, !prof !39

52:                                               ; preds = %50
  invoke void @_ZSt28__throw_bad_array_new_lengthv() #26
          to label %53 unwind label %77

53:                                               ; preds = %52
  unreachable

54:                                               ; preds = %50
  %55 = invoke noalias noundef nonnull ptr @_Znwm(i64 noundef %47) #22
          to label %56 unwind label %77

56:                                               ; preds = %54, %39
  %57 = phi ptr [ null, %39 ], [ %55, %54 ]
  store ptr %57, ptr %41, align 8, !tbaa !36
  %58 = getelementptr inbounds %"class.dealii::Quadrature.8", ptr %0, i64 0, i32 3, i32 0, i32 0, i32 0, i32 1
  store ptr %57, ptr %58, align 8, !tbaa !38
  %59 = getelementptr inbounds double, ptr %57, i64 %48
  %60 = getelementptr inbounds %"class.dealii::Quadrature.8", ptr %0, i64 0, i32 3, i32 0, i32 0, i32 0, i32 2
  store ptr %59, ptr %60, align 8, !tbaa !37
  %61 = load ptr, ptr %2, align 8, !tbaa !40
  %62 = load ptr, ptr %42, align 8, !tbaa !40
  %63 = ptrtoint ptr %62 to i64
  %64 = ptrtoint ptr %61 to i64
  %65 = sub i64 %63, %64
  %66 = icmp sgt i64 %65, 8
  br i1 %66, label %67, label %68, !prof !45

67:                                               ; preds = %56
  tail call void @llvm.memmove.p0.p0.i64(ptr align 8 %57, ptr align 8 %61, i64 %65, i1 false)
  br label %72

68:                                               ; preds = %56
  %69 = icmp eq i64 %65, 8
  br i1 %69, label %70, label %72

70:                                               ; preds = %68
  %71 = load double, ptr %61, align 8, !tbaa !33
  store double %71, ptr %57, align 8, !tbaa !33
  br label %72

72:                                               ; preds = %70, %68, %67
  %73 = ashr exact i64 %65, 3
  %74 = getelementptr inbounds double, ptr %57, i64 %73
  store ptr %74, ptr %58, align 8, !tbaa !38
  ret void

75:                                               ; preds = %19, %17
  %76 = landingpad { ptr, i32 }
          cleanup
  br label %82

77:                                               ; preds = %54, %52
  %78 = landingpad { ptr, i32 }
          cleanup
  %79 = load ptr, ptr %13, align 8, !tbaa !64
  %80 = icmp eq ptr %79, null
  br i1 %80, label %82, label %81

81:                                               ; preds = %77
  tail call void @_ZdlPv(ptr noundef nonnull %79) #23
  br label %82

82:                                               ; preds = %81, %77, %75
  %83 = phi { ptr, i32 } [ %76, %75 ], [ %78, %77 ], [ %78, %81 ]
  invoke void @_ZN6dealii11SubscriptorD2Ev(ptr noundef nonnull align 8 dereferenceable(72) %0)
          to label %84 unwind label %85

84:                                               ; preds = %82
  resume { ptr, i32 } %83

85:                                               ; preds = %82
  %86 = landingpad { ptr, i32 }
          catch ptr null
  %87 = extractvalue { ptr, i32 } %86, 0
  tail call void @__clang_call_terminate(ptr %87) #24
  unreachable
}

; Function Attrs: sspstrong uwtable
define weak_odr dso_local void @_ZN6dealii10QuadratureILi2EEC2ERKSt6vectorINS_5PointILi2EEESaIS4_EE(ptr noundef nonnull align 8 dereferenceable(128) %0, ptr noundef nonnull align 8 dereferenceable(24) %1) unnamed_addr #0 comdat($_ZN6dealii10QuadratureILi2EEC5ERKSt6vectorINS_5PointILi2EEESaIS4_EE) align 2 personality ptr @__gxx_personality_v0 {
  tail call void @_ZN6dealii11SubscriptorC2Ev(ptr noundef nonnull align 8 dereferenceable(72) %0)
  store ptr getelementptr inbounds ({ [4 x ptr] }, ptr @_ZTVN6dealii10QuadratureILi2EEE, i64 0, inrange i32 0, i64 2), ptr %0, align 8, !tbaa !5
  %3 = getelementptr inbounds %"class.dealii::Quadrature.8", ptr %0, i64 0, i32 1
  %4 = getelementptr inbounds %"struct.std::_Vector_base<dealii::Point<2>, std::allocator<dealii::Point<2> > >::_Vector_impl_data", ptr %1, i64 0, i32 1
  %5 = load ptr, ptr %4, align 8, !tbaa !66
  %6 = load ptr, ptr %1, align 8, !tbaa !64
  %7 = ptrtoint ptr %5 to i64
  %8 = ptrtoint ptr %6 to i64
  %9 = sub i64 %7, %8
  %10 = ashr exact i64 %9, 4
  %11 = trunc i64 %10 to i32
  store i32 %11, ptr %3, align 8, !tbaa !58
  %12 = getelementptr inbounds %"class.dealii::Quadrature.8", ptr %0, i64 0, i32 2
  tail call void @llvm.memset.p0.i64(ptr noundef nonnull align 8 dereferenceable(24) %12, i8 0, i64 24, i1 false)
  %13 = icmp eq ptr %5, %6
  br i1 %13, label %20, label %14

14:                                               ; preds = %2
  %15 = icmp ugt i64 %9, 9223372036854775792
  br i1 %15, label %16, label %18, !prof !39

16:                                               ; preds = %14
  invoke void @_ZSt28__throw_bad_array_new_lengthv() #26
          to label %17 unwind label %94

17:                                               ; preds = %16
  unreachable

18:                                               ; preds = %14
  %19 = invoke noalias noundef nonnull ptr @_Znwm(i64 noundef %9) #22
          to label %20 unwind label %94

20:                                               ; preds = %18, %2
  %21 = phi ptr [ null, %2 ], [ %19, %18 ]
  store ptr %21, ptr %12, align 8, !tbaa !64
  %22 = getelementptr inbounds %"class.dealii::Quadrature.8", ptr %0, i64 0, i32 2, i32 0, i32 0, i32 0, i32 1
  store ptr %21, ptr %22, align 8, !tbaa !66
  %23 = getelementptr inbounds %"class.dealii::Point.14", ptr %21, i64 %10
  %24 = getelementptr inbounds %"class.dealii::Quadrature.8", ptr %0, i64 0, i32 2, i32 0, i32 0, i32 0, i32 2
  store ptr %23, ptr %24, align 8, !tbaa !65
  %25 = load ptr, ptr %1, align 8, !tbaa !40
  %26 = load ptr, ptr %4, align 8, !tbaa !40
  %27 = icmp eq ptr %25, %26
  br i1 %27, label %38, label %28

28:                                               ; preds = %20, %28
  %29 = phi ptr [ %36, %28 ], [ %21, %20 ]
  %30 = phi ptr [ %35, %28 ], [ %25, %20 ]
  %31 = load double, ptr %30, align 8, !tbaa !33
  store double %31, ptr %29, align 8, !tbaa !33
  %32 = getelementptr inbounds [2 x double], ptr %30, i64 0, i64 1
  %33 = load double, ptr %32, align 8, !tbaa !33
  %34 = getelementptr inbounds [2 x double], ptr %29, i64 0, i64 1
  store double %33, ptr %34, align 8, !tbaa !33
  %35 = getelementptr inbounds %"class.dealii::Point.14", ptr %30, i64 1
  %36 = getelementptr inbounds %"class.dealii::Point.14", ptr %29, i64 1
  %37 = icmp eq ptr %35, %26
  br i1 %37, label %38, label %28

38:                                               ; preds = %28, %20
  %39 = phi ptr [ %21, %20 ], [ %36, %28 ]
  store ptr %39, ptr %22, align 8, !tbaa !66
  %40 = getelementptr inbounds %"class.dealii::Quadrature.8", ptr %0, i64 0, i32 3
  %41 = load ptr, ptr %4, align 8, !tbaa !66
  %42 = ptrtoint ptr %41 to i64
  %43 = ptrtoint ptr %25 to i64
  %44 = sub i64 %42, %43
  %45 = ashr i64 %44, 4
  %46 = tail call double @strtod(ptr nocapture noundef nonnull @.str, ptr noundef null) #25
  %47 = icmp slt i64 %44, 0
  br i1 %47, label %48, label %50

48:                                               ; preds = %38
  invoke void @_ZSt20__throw_length_errorPKc(ptr noundef nonnull @.str.2) #26
          to label %49 unwind label %96

49:                                               ; preds = %48
  unreachable

50:                                               ; preds = %38
  tail call void @llvm.memset.p0.i64(ptr noundef nonnull align 8 dereferenceable(24) %40, i8 0, i64 24, i1 false)
  %51 = icmp eq ptr %41, %25
  br i1 %51, label %91, label %52

52:                                               ; preds = %50
  %53 = lshr exact i64 %44, 1
  %54 = invoke noalias noundef nonnull ptr @_Znwm(i64 noundef %53) #22
          to label %55 unwind label %96

55:                                               ; preds = %52
  store ptr %54, ptr %40, align 8, !tbaa !36
  %56 = getelementptr inbounds double, ptr %54, i64 %45
  %57 = getelementptr inbounds %"class.dealii::Quadrature.8", ptr %0, i64 0, i32 3, i32 0, i32 0, i32 0, i32 2
  store ptr %56, ptr %57, align 8, !tbaa !37
  %58 = add nsw i64 %45, 2305843009213693951
  %59 = and i64 %58, 2305843009213693951
  %60 = add nuw nsw i64 %59, 1
  %61 = icmp ult i64 %59, 15
  br i1 %61, label %85, label %62

62:                                               ; preds = %55
  %63 = and i64 %60, 4611686018427387888
  %64 = shl i64 %63, 3
  %65 = getelementptr i8, ptr %54, i64 %64
  %66 = insertelement <4 x double> poison, double %46, i64 0
  %67 = shufflevector <4 x double> %66, <4 x double> poison, <4 x i32> zeroinitializer
  %68 = insertelement <4 x double> poison, double %46, i64 0
  %69 = shufflevector <4 x double> %68, <4 x double> poison, <4 x i32> zeroinitializer
  %70 = insertelement <4 x double> poison, double %46, i64 0
  %71 = shufflevector <4 x double> %70, <4 x double> poison, <4 x i32> zeroinitializer
  %72 = insertelement <4 x double> poison, double %46, i64 0
  %73 = shufflevector <4 x double> %72, <4 x double> poison, <4 x i32> zeroinitializer
  br label %74

74:                                               ; preds = %74, %62
  %75 = phi i64 [ 0, %62 ], [ %81, %74 ]
  %76 = shl i64 %75, 3
  %77 = getelementptr i8, ptr %54, i64 %76
  store <4 x double> %67, ptr %77, align 8, !tbaa !33
  %78 = getelementptr double, ptr %77, i64 4
  store <4 x double> %69, ptr %78, align 8, !tbaa !33
  %79 = getelementptr double, ptr %77, i64 8
  store <4 x double> %71, ptr %79, align 8, !tbaa !33
  %80 = getelementptr double, ptr %77, i64 12
  store <4 x double> %73, ptr %80, align 8, !tbaa !33
  %81 = add nuw i64 %75, 16
  %82 = icmp eq i64 %81, %63
  br i1 %82, label %83, label %74, !llvm.loop !97

83:                                               ; preds = %74
  %84 = icmp eq i64 %60, %63
  br i1 %84, label %91, label %85

85:                                               ; preds = %55, %83
  %86 = phi ptr [ %54, %55 ], [ %65, %83 ]
  br label %87

87:                                               ; preds = %85, %87
  %88 = phi ptr [ %89, %87 ], [ %86, %85 ]
  store double %46, ptr %88, align 8, !tbaa !33
  %89 = getelementptr inbounds double, ptr %88, i64 1
  %90 = icmp eq ptr %89, %56
  br i1 %90, label %91, label %87, !llvm.loop !98

91:                                               ; preds = %87, %83, %50
  %92 = phi ptr [ null, %50 ], [ %56, %83 ], [ %56, %87 ]
  %93 = getelementptr inbounds %"class.dealii::Quadrature.8", ptr %0, i64 0, i32 3, i32 0, i32 0, i32 0, i32 1
  store ptr %92, ptr %93, align 8, !tbaa !38
  ret void

94:                                               ; preds = %18, %16
  %95 = landingpad { ptr, i32 }
          cleanup
  br label %101

96:                                               ; preds = %52, %48
  %97 = landingpad { ptr, i32 }
          cleanup
  %98 = load ptr, ptr %12, align 8, !tbaa !64
  %99 = icmp eq ptr %98, null
  br i1 %99, label %101, label %100

100:                                              ; preds = %96
  tail call void @_ZdlPv(ptr noundef nonnull %98) #23
  br label %101

101:                                              ; preds = %100, %96, %94
  %102 = phi { ptr, i32 } [ %95, %94 ], [ %97, %96 ], [ %97, %100 ]
  invoke void @_ZN6dealii11SubscriptorD2Ev(ptr noundef nonnull align 8 dereferenceable(72) %0)
          to label %103 unwind label %104

103:                                              ; preds = %101
  resume { ptr, i32 } %102

104:                                              ; preds = %101
  %105 = landingpad { ptr, i32 }
          catch ptr null
  %106 = extractvalue { ptr, i32 } %105, 0
  tail call void @__clang_call_terminate(ptr %106) #24
  unreachable
}

; Function Attrs: sspstrong uwtable
define weak_odr dso_local void @_ZN6dealii10QuadratureILi2EEC2ERKNS_5PointILi2EEE(ptr noundef nonnull align 8 dereferenceable(128) %0, ptr noundef nonnull align 8 dereferenceable(16) %1) unnamed_addr #0 comdat($_ZN6dealii10QuadratureILi2EEC5ERKNS_5PointILi2EEE) align 2 personality ptr @__gxx_personality_v0 {
  tail call void @_ZN6dealii11SubscriptorC2Ev(ptr noundef nonnull align 8 dereferenceable(72) %0)
  store ptr getelementptr inbounds ({ [4 x ptr] }, ptr @_ZTVN6dealii10QuadratureILi2EEE, i64 0, inrange i32 0, i64 2), ptr %0, align 8, !tbaa !5
  %3 = getelementptr inbounds %"class.dealii::Quadrature.8", ptr %0, i64 0, i32 1
  store i32 1, ptr %3, align 8, !tbaa !58
  %4 = getelementptr inbounds %"class.dealii::Quadrature.8", ptr %0, i64 0, i32 2
  tail call void @llvm.memset.p0.i64(ptr noundef nonnull align 8 dereferenceable(24) %4, i8 0, i64 24, i1 false)
  %5 = invoke noalias noundef nonnull dereferenceable(16) ptr @_Znwm(i64 noundef 16) #22
          to label %6 unwind label %17

6:                                                ; preds = %2
  store ptr %5, ptr %4, align 8, !tbaa !64
  %7 = getelementptr inbounds %"class.dealii::Point.14", ptr %5, i64 1
  %8 = getelementptr inbounds %"class.dealii::Quadrature.8", ptr %0, i64 0, i32 2, i32 0, i32 0, i32 0, i32 2
  store ptr %7, ptr %8, align 8, !tbaa !65
  %9 = load <2 x double>, ptr %1, align 8, !tbaa !33
  store <2 x double> %9, ptr %5, align 8, !tbaa !33
  %10 = getelementptr inbounds %"class.dealii::Quadrature.8", ptr %0, i64 0, i32 2, i32 0, i32 0, i32 0, i32 1
  store ptr %7, ptr %10, align 8, !tbaa !66
  %11 = getelementptr inbounds %"class.dealii::Quadrature.8", ptr %0, i64 0, i32 3
  tail call void @llvm.memset.p0.i64(ptr noundef nonnull align 8 dereferenceable(24) %11, i8 0, i64 24, i1 false)
  %12 = invoke noalias noundef nonnull dereferenceable(8) ptr @_Znwm(i64 noundef 8) #22
          to label %13 unwind label %19

13:                                               ; preds = %6
  store ptr %12, ptr %11, align 8, !tbaa !36
  %14 = getelementptr inbounds double, ptr %12, i64 1
  %15 = getelementptr inbounds %"class.dealii::Quadrature.8", ptr %0, i64 0, i32 3, i32 0, i32 0, i32 0, i32 2
  store ptr %14, ptr %15, align 8, !tbaa !37
  store double 1.000000e+00, ptr %12, align 8, !tbaa !33
  %16 = getelementptr inbounds %"class.dealii::Quadrature.8", ptr %0, i64 0, i32 3, i32 0, i32 0, i32 0, i32 1
  store ptr %14, ptr %16, align 8, !tbaa !38
  ret void

17:                                               ; preds = %2
  %18 = landingpad { ptr, i32 }
          cleanup
  br label %21

19:                                               ; preds = %6
  %20 = landingpad { ptr, i32 }
          cleanup
  tail call void @_ZdlPv(ptr noundef nonnull %5) #23
  br label %21

21:                                               ; preds = %19, %17
  %22 = phi { ptr, i32 } [ %20, %19 ], [ %18, %17 ]
  invoke void @_ZN6dealii11SubscriptorD2Ev(ptr noundef nonnull align 8 dereferenceable(72) %0)
          to label %23 unwind label %24

23:                                               ; preds = %21
  resume { ptr, i32 } %22

24:                                               ; preds = %21
  %25 = landingpad { ptr, i32 }
          catch ptr null
  %26 = extractvalue { ptr, i32 } %25, 0
  tail call void @__clang_call_terminate(ptr %26) #24
  unreachable
}

; Function Attrs: sspstrong uwtable
define weak_odr dso_local noundef nonnull align 8 dereferenceable(128) ptr @_ZN6dealii10QuadratureILi2EEaSERKS1_(ptr noundef nonnull align 8 dereferenceable(128) %0, ptr noundef nonnull align 8 dereferenceable(128) %1) local_unnamed_addr #0 comdat align 2 {
  %3 = getelementptr inbounds %"class.dealii::Quadrature.8", ptr %1, i64 0, i32 3
  %4 = getelementptr inbounds %"class.dealii::Quadrature.8", ptr %0, i64 0, i32 3
  %5 = tail call noundef nonnull align 8 dereferenceable(24) ptr @_ZNSt6vectorIdSaIdEEaSERKS1_(ptr noundef nonnull align 8 dereferenceable(24) %4, ptr noundef nonnull align 8 dereferenceable(24) %3)
  %6 = getelementptr inbounds %"class.dealii::Quadrature.8", ptr %1, i64 0, i32 2
  %7 = getelementptr inbounds %"class.dealii::Quadrature.8", ptr %0, i64 0, i32 2
  %8 = tail call noundef nonnull align 8 dereferenceable(24) ptr @_ZNSt6vectorIN6dealii5PointILi2EEESaIS2_EEaSERKS4_(ptr noundef nonnull align 8 dereferenceable(24) %7, ptr noundef nonnull align 8 dereferenceable(24) %6)
  %9 = getelementptr inbounds %"class.dealii::Quadrature.8", ptr %1, i64 0, i32 3, i32 0, i32 0, i32 0, i32 1
  %10 = load ptr, ptr %9, align 8, !tbaa !38
  %11 = load ptr, ptr %3, align 8, !tbaa !36
  %12 = ptrtoint ptr %10 to i64
  %13 = ptrtoint ptr %11 to i64
  %14 = sub i64 %12, %13
  %15 = lshr exact i64 %14, 3
  %16 = trunc i64 %15 to i32
  %17 = getelementptr inbounds %"class.dealii::Quadrature.8", ptr %0, i64 0, i32 1
  store i32 %16, ptr %17, align 8, !tbaa !58
  ret ptr %0
}

; Function Attrs: sspstrong uwtable
define linkonce_odr dso_local noundef nonnull align 8 dereferenceable(24) ptr @_ZNSt6vectorIN6dealii5PointILi2EEESaIS2_EEaSERKS4_(ptr noundef nonnull align 8 dereferenceable(24) %0, ptr noundef nonnull align 8 dereferenceable(24) %1) local_unnamed_addr #0 comdat align 2 personality ptr @__gxx_personality_v0 {
  %3 = icmp eq ptr %1, %0
  br i1 %3, label %185, label %4

4:                                                ; preds = %2
  %5 = getelementptr inbounds %"struct.std::_Vector_base<dealii::Point<2>, std::allocator<dealii::Point<2> > >::_Vector_impl_data", ptr %1, i64 0, i32 1
  %6 = load ptr, ptr %5, align 8, !tbaa !40
  %7 = load ptr, ptr %1, align 8, !tbaa !40
  %8 = ptrtoint ptr %6 to i64
  %9 = ptrtoint ptr %7 to i64
  %10 = sub i64 %8, %9
  %11 = ashr exact i64 %10, 4
  %12 = getelementptr inbounds %"struct.std::_Vector_base<dealii::Point<2>, std::allocator<dealii::Point<2> > >::_Vector_impl_data", ptr %0, i64 0, i32 2
  %13 = load ptr, ptr %12, align 8, !tbaa !65
  %14 = load ptr, ptr %0, align 8, !tbaa !40
  %15 = ptrtoint ptr %13 to i64
  %16 = ptrtoint ptr %14 to i64
  %17 = sub i64 %15, %16
  %18 = ashr exact i64 %17, 4
  %19 = icmp ugt i64 %11, %18
  br i1 %19, label %20, label %41

20:                                               ; preds = %4
  %21 = icmp ugt i64 %10, 9223372036854775792
  br i1 %21, label %22, label %23, !prof !39

22:                                               ; preds = %20
  tail call void @_ZSt28__throw_bad_array_new_lengthv() #26
  unreachable

23:                                               ; preds = %20
  %24 = tail call noalias noundef nonnull ptr @_Znwm(i64 noundef %10) #22
  %25 = icmp eq ptr %7, %6
  br i1 %25, label %36, label %26

26:                                               ; preds = %23, %26
  %27 = phi ptr [ %34, %26 ], [ %24, %23 ]
  %28 = phi ptr [ %33, %26 ], [ %7, %23 ]
  %29 = load double, ptr %28, align 8, !tbaa !33
  store double %29, ptr %27, align 8, !tbaa !33
  %30 = getelementptr inbounds [2 x double], ptr %28, i64 0, i64 1
  %31 = load double, ptr %30, align 8, !tbaa !33
  %32 = getelementptr inbounds [2 x double], ptr %27, i64 0, i64 1
  store double %31, ptr %32, align 8, !tbaa !33
  %33 = getelementptr inbounds %"class.dealii::Point.14", ptr %28, i64 1
  %34 = getelementptr inbounds %"class.dealii::Point.14", ptr %27, i64 1
  %35 = icmp eq ptr %33, %6
  br i1 %35, label %36, label %26

36:                                               ; preds = %26, %23
  %37 = icmp eq ptr %14, null
  br i1 %37, label %39, label %38

38:                                               ; preds = %36
  tail call void @_ZdlPv(ptr noundef nonnull %14) #23
  br label %39

39:                                               ; preds = %36, %38
  store ptr %24, ptr %0, align 8, !tbaa !64
  %40 = getelementptr inbounds %"class.dealii::Point.14", ptr %24, i64 %11
  store ptr %40, ptr %12, align 8, !tbaa !65
  br label %181

41:                                               ; preds = %4
  %42 = getelementptr inbounds %"struct.std::_Vector_base<dealii::Point<2>, std::allocator<dealii::Point<2> > >::_Vector_impl_data", ptr %0, i64 0, i32 1
  %43 = load ptr, ptr %42, align 8, !tbaa !66
  %44 = ptrtoint ptr %43 to i64
  %45 = sub i64 %44, %16
  %46 = ashr exact i64 %45, 4
  %47 = icmp ult i64 %46, %11
  br i1 %47, label %108, label %48

48:                                               ; preds = %41
  %49 = icmp sgt i64 %10, 0
  br i1 %49, label %50, label %181

50:                                               ; preds = %48
  %51 = lshr i64 %10, 4
  %52 = add nuw nsw i64 %51, 1
  %53 = icmp ugt i64 %10, 15
  %54 = sext i1 %53 to i64
  %55 = add nsw i64 %52, %54
  %56 = icmp ult i64 %55, 16
  br i1 %56, label %92, label %57

57:                                               ; preds = %50
  %58 = and i64 %10, -16
  %59 = add i64 %58, 16
  %60 = icmp ult i64 %10, 16
  %61 = select i1 %60, i64 %59, i64 %58
  %62 = getelementptr i8, ptr %14, i64 %61
  %63 = getelementptr i8, ptr %7, i64 %61
  %64 = icmp ult ptr %14, %63
  %65 = icmp ult ptr %7, %62
  %66 = and i1 %64, %65
  br i1 %66, label %92, label %67

67:                                               ; preds = %57
  %68 = and i64 %55, -4
  %69 = sub nsw i64 %51, %68
  %70 = shl i64 %68, 4
  %71 = getelementptr i8, ptr %14, i64 %70
  %72 = shl i64 %68, 4
  %73 = getelementptr i8, ptr %7, i64 %72
  br label %74

74:                                               ; preds = %74, %67
  %75 = phi i64 [ 0, %67 ], [ %88, %74 ]
  %76 = shl i64 %75, 4
  %77 = getelementptr i8, ptr %14, i64 %76
  %78 = shl i64 %75, 4
  %79 = or i64 %78, 32
  %80 = getelementptr i8, ptr %14, i64 %79
  %81 = shl i64 %75, 4
  %82 = getelementptr i8, ptr %7, i64 %81
  %83 = shl i64 %75, 4
  %84 = or i64 %83, 32
  %85 = getelementptr i8, ptr %7, i64 %84
  %86 = load <4 x double>, ptr %82, align 8, !tbaa !33
  %87 = load <4 x double>, ptr %85, align 8, !tbaa !33
  store <4 x double> %86, ptr %77, align 8, !tbaa !33
  store <4 x double> %87, ptr %80, align 8, !tbaa !33
  %88 = add nuw i64 %75, 4
  %89 = icmp eq i64 %88, %68
  br i1 %89, label %90, label %74, !llvm.loop !99

90:                                               ; preds = %74
  %91 = icmp eq i64 %55, %68
  br i1 %91, label %181, label %92

92:                                               ; preds = %57, %50, %90
  %93 = phi i64 [ %51, %57 ], [ %51, %50 ], [ %69, %90 ]
  %94 = phi ptr [ %14, %57 ], [ %14, %50 ], [ %71, %90 ]
  %95 = phi ptr [ %7, %57 ], [ %7, %50 ], [ %73, %90 ]
  br label %96

96:                                               ; preds = %92, %96
  %97 = phi i64 [ %106, %96 ], [ %93, %92 ]
  %98 = phi ptr [ %105, %96 ], [ %94, %92 ]
  %99 = phi ptr [ %104, %96 ], [ %95, %92 ]
  %100 = load double, ptr %99, align 8, !tbaa !33
  store double %100, ptr %98, align 8, !tbaa !33
  %101 = getelementptr inbounds [2 x double], ptr %99, i64 0, i64 1
  %102 = load double, ptr %101, align 8, !tbaa !33
  %103 = getelementptr inbounds [2 x double], ptr %98, i64 0, i64 1
  store double %102, ptr %103, align 8, !tbaa !33
  %104 = getelementptr inbounds %"class.dealii::Point.14", ptr %99, i64 1
  %105 = getelementptr inbounds %"class.dealii::Point.14", ptr %98, i64 1
  %106 = add nsw i64 %97, -1
  %107 = icmp ugt i64 %97, 1
  br i1 %107, label %96, label %181, !llvm.loop !100

108:                                              ; preds = %41
  %109 = getelementptr inbounds %"class.dealii::Point.14", ptr %7, i64 %46
  %110 = icmp sgt i64 %45, 0
  br i1 %110, label %111, label %169

111:                                              ; preds = %108
  %112 = lshr i64 %45, 4
  %113 = add nuw nsw i64 %112, 1
  %114 = icmp ugt i64 %45, 15
  %115 = sext i1 %114 to i64
  %116 = add nsw i64 %113, %115
  %117 = icmp ult i64 %116, 16
  br i1 %117, label %153, label %118

118:                                              ; preds = %111
  %119 = and i64 %45, -16
  %120 = add i64 %119, 16
  %121 = icmp ult i64 %45, 16
  %122 = select i1 %121, i64 %120, i64 %119
  %123 = getelementptr i8, ptr %14, i64 %122
  %124 = getelementptr i8, ptr %7, i64 %122
  %125 = icmp ult ptr %14, %124
  %126 = icmp ult ptr %7, %123
  %127 = and i1 %125, %126
  br i1 %127, label %153, label %128

128:                                              ; preds = %118
  %129 = and i64 %116, -4
  %130 = sub nsw i64 %112, %129
  %131 = shl i64 %129, 4
  %132 = getelementptr i8, ptr %14, i64 %131
  %133 = shl i64 %129, 4
  %134 = getelementptr i8, ptr %7, i64 %133
  br label %135

135:                                              ; preds = %135, %128
  %136 = phi i64 [ 0, %128 ], [ %149, %135 ]
  %137 = shl i64 %136, 4
  %138 = getelementptr i8, ptr %14, i64 %137
  %139 = shl i64 %136, 4
  %140 = or i64 %139, 32
  %141 = getelementptr i8, ptr %14, i64 %140
  %142 = shl i64 %136, 4
  %143 = getelementptr i8, ptr %7, i64 %142
  %144 = shl i64 %136, 4
  %145 = or i64 %144, 32
  %146 = getelementptr i8, ptr %7, i64 %145
  %147 = load <4 x double>, ptr %143, align 8, !tbaa !33
  %148 = load <4 x double>, ptr %146, align 8, !tbaa !33
  store <4 x double> %147, ptr %138, align 8, !tbaa !33
  store <4 x double> %148, ptr %141, align 8, !tbaa !33
  %149 = add nuw i64 %136, 4
  %150 = icmp eq i64 %149, %129
  br i1 %150, label %151, label %135, !llvm.loop !101

151:                                              ; preds = %135
  %152 = icmp eq i64 %116, %129
  br i1 %152, label %169, label %153

153:                                              ; preds = %118, %111, %151
  %154 = phi i64 [ %112, %118 ], [ %112, %111 ], [ %130, %151 ]
  %155 = phi ptr [ %14, %118 ], [ %14, %111 ], [ %132, %151 ]
  %156 = phi ptr [ %7, %118 ], [ %7, %111 ], [ %134, %151 ]
  br label %157

157:                                              ; preds = %153, %157
  %158 = phi i64 [ %167, %157 ], [ %154, %153 ]
  %159 = phi ptr [ %166, %157 ], [ %155, %153 ]
  %160 = phi ptr [ %165, %157 ], [ %156, %153 ]
  %161 = load double, ptr %160, align 8, !tbaa !33
  store double %161, ptr %159, align 8, !tbaa !33
  %162 = getelementptr inbounds [2 x double], ptr %160, i64 0, i64 1
  %163 = load double, ptr %162, align 8, !tbaa !33
  %164 = getelementptr inbounds [2 x double], ptr %159, i64 0, i64 1
  store double %163, ptr %164, align 8, !tbaa !33
  %165 = getelementptr inbounds %"class.dealii::Point.14", ptr %160, i64 1
  %166 = getelementptr inbounds %"class.dealii::Point.14", ptr %159, i64 1
  %167 = add nsw i64 %158, -1
  %168 = icmp ugt i64 %158, 1
  br i1 %168, label %157, label %169, !llvm.loop !102

169:                                              ; preds = %157, %151, %108
  %170 = icmp eq ptr %109, %6
  br i1 %170, label %181, label %171

171:                                              ; preds = %169, %171
  %172 = phi ptr [ %179, %171 ], [ %43, %169 ]
  %173 = phi ptr [ %178, %171 ], [ %109, %169 ]
  %174 = load double, ptr %173, align 8, !tbaa !33
  store double %174, ptr %172, align 8, !tbaa !33
  %175 = getelementptr inbounds [2 x double], ptr %173, i64 0, i64 1
  %176 = load double, ptr %175, align 8, !tbaa !33
  %177 = getelementptr inbounds [2 x double], ptr %172, i64 0, i64 1
  store double %176, ptr %177, align 8, !tbaa !33
  %178 = getelementptr inbounds %"class.dealii::Point.14", ptr %173, i64 1
  %179 = getelementptr inbounds %"class.dealii::Point.14", ptr %172, i64 1
  %180 = icmp eq ptr %178, %6
  br i1 %180, label %181, label %171

181:                                              ; preds = %96, %171, %90, %48, %169, %39
  %182 = load ptr, ptr %0, align 8, !tbaa !64
  %183 = getelementptr inbounds %"class.dealii::Point.14", ptr %182, i64 %11
  %184 = getelementptr inbounds %"struct.std::_Vector_base<dealii::Point<2>, std::allocator<dealii::Point<2> > >::_Vector_impl_data", ptr %0, i64 0, i32 1
  store ptr %183, ptr %184, align 8, !tbaa !66
  br label %185

185:                                              ; preds = %181, %2
  ret ptr %0
}

; Function Attrs: sspstrong uwtable
define weak_odr dso_local void @_ZN6dealii10QuadratureILi2EED0Ev(ptr noundef nonnull align 8 dereferenceable(128) %0) unnamed_addr #0 comdat($_ZN6dealii10QuadratureILi2EED5Ev) align 2 personality ptr @__gxx_personality_v0 {
  store ptr getelementptr inbounds ({ [4 x ptr] }, ptr @_ZTVN6dealii10QuadratureILi2EEE, i64 0, inrange i32 0, i64 2), ptr %0, align 8, !tbaa !5
  %2 = getelementptr inbounds %"class.dealii::Quadrature.8", ptr %0, i64 0, i32 3
  %3 = load ptr, ptr %2, align 8, !tbaa !36
  %4 = icmp eq ptr %3, null
  br i1 %4, label %6, label %5

5:                                                ; preds = %1
  tail call void @_ZdlPv(ptr noundef nonnull %3) #23
  br label %6

6:                                                ; preds = %5, %1
  %7 = getelementptr inbounds %"class.dealii::Quadrature.8", ptr %0, i64 0, i32 2
  %8 = load ptr, ptr %7, align 8, !tbaa !64
  %9 = icmp eq ptr %8, null
  br i1 %9, label %11, label %10

10:                                               ; preds = %6
  tail call void @_ZdlPv(ptr noundef nonnull %8) #23
  br label %11

11:                                               ; preds = %10, %6
  invoke void @_ZN6dealii11SubscriptorD2Ev(ptr noundef nonnull align 8 dereferenceable(72) %0)
          to label %12 unwind label %13

12:                                               ; preds = %11
  tail call void @_ZdlPv(ptr noundef nonnull %0) #23
  ret void

13:                                               ; preds = %11
  %14 = landingpad { ptr, i32 }
          cleanup
  tail call void @_ZdlPv(ptr noundef nonnull %0) #23
  resume { ptr, i32 } %14
}

; Function Attrs: inlinehint sspstrong uwtable
define weak_odr dso_local noundef nonnull align 8 dereferenceable(16) ptr @_ZNK6dealii10QuadratureILi2EE5pointEj(ptr noundef nonnull align 8 dereferenceable(128) %0, i32 noundef %1) local_unnamed_addr #4 comdat align 2 {
  %3 = getelementptr inbounds %"class.dealii::Quadrature.8", ptr %0, i64 0, i32 2
  %4 = zext i32 %1 to i64
  %5 = load ptr, ptr %3, align 8, !tbaa !64
  %6 = getelementptr inbounds %"class.dealii::Point.14", ptr %5, i64 %4
  ret ptr %6
}

; Function Attrs: nounwind sspstrong uwtable
define weak_odr dso_local noundef nonnull align 8 dereferenceable(24) ptr @_ZNK6dealii10QuadratureILi2EE10get_pointsEv(ptr noundef nonnull align 8 dereferenceable(128) %0) local_unnamed_addr #6 comdat align 2 {
  %2 = getelementptr inbounds %"class.dealii::Quadrature.8", ptr %0, i64 0, i32 2
  ret ptr %2
}

; Function Attrs: sspstrong uwtable
define weak_odr dso_local noundef double @_ZNK6dealii10QuadratureILi2EE6weightEj(ptr noundef nonnull align 8 dereferenceable(128) %0, i32 noundef %1) local_unnamed_addr #0 comdat align 2 {
  %3 = getelementptr inbounds %"class.dealii::Quadrature.8", ptr %0, i64 0, i32 3
  %4 = zext i32 %1 to i64
  %5 = load ptr, ptr %3, align 8, !tbaa !36
  %6 = getelementptr inbounds double, ptr %5, i64 %4
  %7 = load double, ptr %6, align 8, !tbaa !33
  ret double %7
}

; Function Attrs: nounwind sspstrong uwtable
define weak_odr dso_local noundef nonnull align 8 dereferenceable(24) ptr @_ZNK6dealii10QuadratureILi2EE11get_weightsEv(ptr noundef nonnull align 8 dereferenceable(128) %0) local_unnamed_addr #6 comdat align 2 {
  %2 = getelementptr inbounds %"class.dealii::Quadrature.8", ptr %0, i64 0, i32 3
  ret ptr %2
}

; Function Attrs: sspstrong uwtable
define weak_odr dso_local noundef i32 @_ZNK6dealii10QuadratureILi2EE18memory_consumptionEv(ptr noundef nonnull align 8 dereferenceable(128) %0) local_unnamed_addr #0 comdat align 2 {
  %2 = getelementptr inbounds %"class.dealii::Quadrature.8", ptr %0, i64 0, i32 2
  %3 = getelementptr inbounds %"class.dealii::Quadrature.8", ptr %0, i64 0, i32 2, i32 0, i32 0, i32 0, i32 1
  %4 = load ptr, ptr %3, align 8, !tbaa !66
  %5 = load ptr, ptr %2, align 8, !tbaa !64
  %6 = ptrtoint ptr %4 to i64
  %7 = ptrtoint ptr %5 to i64
  %8 = sub i64 %6, %7
  %9 = ashr exact i64 %8, 4
  %10 = trunc i64 %9 to i32
  %11 = getelementptr inbounds %"class.dealii::Quadrature.8", ptr %0, i64 0, i32 2, i32 0, i32 0, i32 0, i32 2
  %12 = load ptr, ptr %11, align 8, !tbaa !65
  %13 = ptrtoint ptr %12 to i64
  %14 = sub i64 %13, %7
  %15 = lshr exact i64 %14, 4
  %16 = sub nsw i64 %15, %9
  %17 = trunc i64 %16 to i32
  %18 = add i32 %17, %10
  %19 = shl i32 %18, 4
  %20 = getelementptr inbounds %"class.dealii::Quadrature.8", ptr %0, i64 0, i32 3
  %21 = getelementptr inbounds %"class.dealii::Quadrature.8", ptr %0, i64 0, i32 3, i32 0, i32 0, i32 0, i32 2
  %22 = load ptr, ptr %21, align 8, !tbaa !37
  %23 = load ptr, ptr %20, align 8, !tbaa !36
  %24 = ptrtoint ptr %22 to i64
  %25 = ptrtoint ptr %23 to i64
  %26 = sub i64 %24, %25
  %27 = trunc i64 %26 to i32
  %28 = and i32 %27, -8
  %29 = add i32 %28, 48
  %30 = add i32 %29, %19
  ret i32 %30
}

; Function Attrs: sspstrong uwtable
define weak_odr dso_local void @_ZN6dealii10QuadratureILi3EEC2Ej(ptr noundef nonnull align 8 dereferenceable(128) %0, i32 noundef %1) unnamed_addr #0 comdat($_ZN6dealii10QuadratureILi3EEC5Ej) align 2 personality ptr @__gxx_personality_v0 {
  tail call void @_ZN6dealii11SubscriptorC2Ev(ptr noundef nonnull align 8 dereferenceable(72) %0)
  store ptr getelementptr inbounds ({ [4 x ptr] }, ptr @_ZTVN6dealii10QuadratureILi3EEE, i64 0, inrange i32 0, i64 2), ptr %0, align 8, !tbaa !5
  %3 = getelementptr inbounds %"class.dealii::Quadrature.16", ptr %0, i64 0, i32 1
  store i32 %1, ptr %3, align 8, !tbaa !103
  %4 = getelementptr inbounds %"class.dealii::Quadrature.16", ptr %0, i64 0, i32 2
  %5 = zext i32 %1 to i64
  tail call void @llvm.memset.p0.i64(ptr noundef nonnull align 8 dereferenceable(24) %4, i8 0, i64 24, i1 false)
  %6 = icmp eq i32 %1, 0
  br i1 %6, label %7, label %8

7:                                                ; preds = %2
  tail call void @llvm.memset.p0.i64(ptr noundef nonnull align 8 dereferenceable(48) %4, i8 0, i64 48, i1 false)
  br label %22

8:                                                ; preds = %2
  %9 = mul nuw nsw i64 %5, 24
  %10 = invoke noalias noundef nonnull ptr @_Znwm(i64 noundef %9) #22
          to label %11 unwind label %25

11:                                               ; preds = %8
  store ptr %10, ptr %4, align 8, !tbaa !109
  %12 = getelementptr inbounds %"class.dealii::Point.22", ptr %10, i64 %5
  %13 = getelementptr inbounds %"class.dealii::Quadrature.16", ptr %0, i64 0, i32 2, i32 0, i32 0, i32 0, i32 2
  store ptr %12, ptr %13, align 8, !tbaa !110
  tail call void @llvm.memset.p0.i64(ptr nonnull align 8 %10, i8 0, i64 %9, i1 false), !tbaa !33
  %14 = getelementptr i8, ptr %10, i64 %9
  %15 = getelementptr inbounds %"class.dealii::Quadrature.16", ptr %0, i64 0, i32 2, i32 0, i32 0, i32 0, i32 1
  store ptr %14, ptr %15, align 8, !tbaa !111
  %16 = getelementptr inbounds %"class.dealii::Quadrature.16", ptr %0, i64 0, i32 3
  tail call void @llvm.memset.p0.i64(ptr noundef nonnull align 8 dereferenceable(24) %16, i8 0, i64 24, i1 false)
  %17 = shl nuw nsw i64 %5, 3
  %18 = invoke noalias noundef nonnull ptr @_Znwm(i64 noundef %17) #22
          to label %19 unwind label %27

19:                                               ; preds = %11
  store ptr %18, ptr %16, align 8, !tbaa !36
  %20 = getelementptr inbounds double, ptr %18, i64 %5
  %21 = getelementptr inbounds %"class.dealii::Quadrature.16", ptr %0, i64 0, i32 3, i32 0, i32 0, i32 0, i32 2
  store ptr %20, ptr %21, align 8, !tbaa !37
  tail call void @llvm.memset.p0.i64(ptr nonnull align 8 %18, i8 0, i64 %17, i1 false), !tbaa !33
  br label %22

22:                                               ; preds = %19, %7
  %23 = phi ptr [ null, %7 ], [ %20, %19 ]
  %24 = getelementptr inbounds %"class.dealii::Quadrature.16", ptr %0, i64 0, i32 3, i32 0, i32 0, i32 0, i32 1
  store ptr %23, ptr %24, align 8, !tbaa !38
  ret void

25:                                               ; preds = %8
  %26 = landingpad { ptr, i32 }
          cleanup
  br label %29

27:                                               ; preds = %11
  %28 = landingpad { ptr, i32 }
          cleanup
  tail call void @_ZdlPv(ptr noundef nonnull %10) #23
  br label %29

29:                                               ; preds = %27, %25
  %30 = phi { ptr, i32 } [ %26, %25 ], [ %28, %27 ]
  invoke void @_ZN6dealii11SubscriptorD2Ev(ptr noundef nonnull align 8 dereferenceable(72) %0)
          to label %31 unwind label %32

31:                                               ; preds = %29
  resume { ptr, i32 } %30

32:                                               ; preds = %29
  %33 = landingpad { ptr, i32 }
          catch ptr null
  %34 = extractvalue { ptr, i32 } %33, 0
  tail call void @__clang_call_terminate(ptr %34) #24
  unreachable
}

; Function Attrs: sspstrong uwtable
define weak_odr dso_local void @_ZN6dealii10QuadratureILi3EEC2ERKNS0_ILi2EEERKNS0_ILi1EEE(ptr noundef nonnull align 8 dereferenceable(128) %0, ptr noundef nonnull align 8 dereferenceable(128) %1, ptr noundef nonnull align 8 dereferenceable(128) %2) unnamed_addr #0 comdat($_ZN6dealii10QuadratureILi3EEC5ERKNS0_ILi2EEERKNS0_ILi1EEE) align 2 personality ptr @__gxx_personality_v0 {
  tail call void @_ZN6dealii11SubscriptorC2Ev(ptr noundef nonnull align 8 dereferenceable(72) %0)
  store ptr getelementptr inbounds ({ [4 x ptr] }, ptr @_ZTVN6dealii10QuadratureILi3EEE, i64 0, inrange i32 0, i64 2), ptr %0, align 8, !tbaa !5
  %4 = getelementptr inbounds %"class.dealii::Quadrature.16", ptr %0, i64 0, i32 1
  %5 = getelementptr inbounds %"class.dealii::Quadrature.8", ptr %1, i64 0, i32 3
  %6 = getelementptr inbounds %"class.dealii::Quadrature.8", ptr %1, i64 0, i32 3, i32 0, i32 0, i32 0, i32 1
  %7 = load ptr, ptr %6, align 8, !tbaa !38
  %8 = load ptr, ptr %5, align 8, !tbaa !36
  %9 = ptrtoint ptr %7 to i64
  %10 = ptrtoint ptr %8 to i64
  %11 = sub i64 %9, %10
  %12 = lshr exact i64 %11, 3
  %13 = trunc i64 %12 to i32
  %14 = getelementptr inbounds %"class.dealii::Quadrature", ptr %2, i64 0, i32 3
  %15 = getelementptr inbounds %"class.dealii::Quadrature", ptr %2, i64 0, i32 3, i32 0, i32 0, i32 0, i32 1
  %16 = load ptr, ptr %15, align 8, !tbaa !38
  %17 = load ptr, ptr %14, align 8, !tbaa !36
  %18 = ptrtoint ptr %16 to i64
  %19 = ptrtoint ptr %17 to i64
  %20 = sub i64 %18, %19
  %21 = lshr exact i64 %20, 3
  %22 = trunc i64 %21 to i32
  %23 = mul i32 %22, %13
  store i32 %23, ptr %4, align 8, !tbaa !103
  %24 = getelementptr inbounds %"class.dealii::Quadrature.16", ptr %0, i64 0, i32 2
  %25 = zext i32 %23 to i64
  tail call void @llvm.memset.p0.i64(ptr noundef nonnull align 8 dereferenceable(24) %24, i8 0, i64 24, i1 false)
  %26 = icmp eq i32 %23, 0
  br i1 %26, label %27, label %28

27:                                               ; preds = %3
  tail call void @llvm.memset.p0.i64(ptr noundef nonnull align 8 dereferenceable(48) %24, i8 0, i64 48, i1 false)
  br label %42

28:                                               ; preds = %3
  %29 = mul nuw nsw i64 %25, 24
  %30 = invoke noalias noundef nonnull ptr @_Znwm(i64 noundef %29) #22
          to label %31 unwind label %226

31:                                               ; preds = %28
  store ptr %30, ptr %24, align 8, !tbaa !109
  %32 = getelementptr inbounds %"class.dealii::Point.22", ptr %30, i64 %25
  %33 = getelementptr inbounds %"class.dealii::Quadrature.16", ptr %0, i64 0, i32 2, i32 0, i32 0, i32 0, i32 2
  store ptr %32, ptr %33, align 8, !tbaa !110
  tail call void @llvm.memset.p0.i64(ptr nonnull align 8 %30, i8 0, i64 %29, i1 false), !tbaa !33
  %34 = getelementptr i8, ptr %30, i64 %29
  %35 = getelementptr inbounds %"class.dealii::Quadrature.16", ptr %0, i64 0, i32 2, i32 0, i32 0, i32 0, i32 1
  store ptr %34, ptr %35, align 8, !tbaa !111
  %36 = getelementptr inbounds %"class.dealii::Quadrature.16", ptr %0, i64 0, i32 3
  tail call void @llvm.memset.p0.i64(ptr noundef nonnull align 8 dereferenceable(24) %36, i8 0, i64 24, i1 false)
  %37 = shl nuw nsw i64 %25, 3
  %38 = invoke noalias noundef nonnull ptr @_Znwm(i64 noundef %37) #22
          to label %39 unwind label %228

39:                                               ; preds = %31
  store ptr %38, ptr %36, align 8, !tbaa !36
  %40 = getelementptr inbounds double, ptr %38, i64 %25
  %41 = getelementptr inbounds %"class.dealii::Quadrature.16", ptr %0, i64 0, i32 3, i32 0, i32 0, i32 0, i32 2
  store ptr %40, ptr %41, align 8, !tbaa !37
  tail call void @llvm.memset.p0.i64(ptr nonnull align 8 %38, i8 0, i64 %37, i1 false), !tbaa !33
  br label %42

42:                                               ; preds = %39, %27
  %43 = phi ptr [ null, %27 ], [ %38, %39 ]
  %44 = phi ptr [ null, %27 ], [ %30, %39 ]
  %45 = phi ptr [ null, %27 ], [ %40, %39 ]
  %46 = getelementptr inbounds %"class.dealii::Quadrature.16", ptr %0, i64 0, i32 3, i32 0, i32 0, i32 0, i32 1
  store ptr %45, ptr %46, align 8, !tbaa !38
  %47 = load ptr, ptr %15, align 8, !tbaa !38
  %48 = load ptr, ptr %14, align 8, !tbaa !36
  %49 = ptrtoint ptr %47 to i64
  %50 = ptrtoint ptr %48 to i64
  %51 = sub i64 %49, %50
  %52 = lshr exact i64 %51, 3
  %53 = and i64 %51, 34359738360
  %54 = icmp eq i64 %53, 0
  br i1 %54, label %225, label %55

55:                                               ; preds = %42
  %56 = load ptr, ptr %6, align 8, !tbaa !38
  %57 = load ptr, ptr %5, align 8, !tbaa !36
  %58 = ptrtoint ptr %56 to i64
  %59 = ptrtoint ptr %57 to i64
  %60 = sub i64 %58, %59
  %61 = and i64 %60, 34359738360
  %62 = icmp eq i64 %61, 0
  %63 = getelementptr inbounds %"class.dealii::Quadrature.8", ptr %1, i64 0, i32 2
  %64 = load ptr, ptr %63, align 8
  %65 = getelementptr inbounds %"class.dealii::Quadrature", ptr %2, i64 0, i32 2
  %66 = load ptr, ptr %65, align 8
  br i1 %62, label %225, label %67

67:                                               ; preds = %55
  %68 = lshr exact i64 %60, 3
  %69 = and i64 %52, 4294967295
  %70 = and i64 %68, 4294967295
  %71 = add nsw i64 %70, -1
  %72 = getelementptr i8, ptr %44, i64 8
  %73 = getelementptr i8, ptr %44, i64 16
  %74 = shl nuw nsw i64 %70, 4
  %75 = getelementptr i8, ptr %64, i64 %74
  %76 = mul nuw nsw i64 %70, 24
  %77 = getelementptr i8, ptr %44, i64 %76
  %78 = getelementptr i8, ptr %43, i64 %61
  %79 = getelementptr i8, ptr %57, i64 %61
  %80 = icmp ult i64 %70, 46
  %81 = trunc i64 %71 to i32
  %82 = icmp ugt i64 %71, 4294967295
  %83 = tail call { i64, i1 } @llvm.umul.with.overflow.i64(i64 %71, i64 24)
  %84 = extractvalue { i64, i1 } %83, 0
  %85 = extractvalue { i64, i1 } %83, 1
  %86 = tail call { i64, i1 } @llvm.umul.with.overflow.i64(i64 %71, i64 24)
  %87 = extractvalue { i64, i1 } %86, 0
  %88 = extractvalue { i64, i1 } %86, 1
  %89 = tail call { i64, i1 } @llvm.umul.with.overflow.i64(i64 %71, i64 24)
  %90 = extractvalue { i64, i1 } %89, 0
  %91 = extractvalue { i64, i1 } %89, 1
  %92 = and i64 %68, 1
  %93 = sub nsw i64 %70, %92
  %94 = trunc i64 %93 to i32
  %95 = icmp eq i64 %92, 0
  br label %96

96:                                               ; preds = %221, %67
  %97 = phi i64 [ %223, %221 ], [ 0, %67 ]
  %98 = phi i32 [ %222, %221 ], [ 0, %67 ]
  %99 = shl i64 %97, 3
  %100 = getelementptr i8, ptr %66, i64 %99
  %101 = add i64 %99, 8
  %102 = getelementptr i8, ptr %66, i64 %101
  %103 = getelementptr i8, ptr %48, i64 %99
  %104 = getelementptr i8, ptr %48, i64 %101
  %105 = getelementptr inbounds %"class.dealii::Point", ptr %66, i64 %97
  %106 = getelementptr inbounds double, ptr %48, i64 %97
  br i1 %80, label %198, label %107

107:                                              ; preds = %96
  %108 = xor i32 %98, -1
  %109 = icmp ult i32 %108, %81
  %110 = or i1 %109, %82
  %111 = zext i32 %98 to i64
  %112 = mul nuw nsw i64 %111, 24
  %113 = getelementptr i8, ptr %72, i64 %112
  %114 = getelementptr i8, ptr %113, i64 %84
  %115 = icmp ult ptr %114, %113
  %116 = or i1 %115, %85
  %117 = getelementptr i8, ptr %73, i64 %112
  %118 = getelementptr i8, ptr %117, i64 %87
  %119 = icmp ult ptr %118, %117
  %120 = or i1 %119, %88
  %121 = getelementptr i8, ptr %44, i64 %112
  %122 = getelementptr i8, ptr %121, i64 %90
  %123 = icmp ult ptr %122, %121
  %124 = or i1 %123, %91
  %125 = or i1 %110, %116
  %126 = or i1 %125, %120
  %127 = or i1 %126, %124
  br i1 %127, label %198, label %128

128:                                              ; preds = %107
  %129 = zext i32 %98 to i64
  %130 = mul nuw nsw i64 %129, 24
  %131 = getelementptr i8, ptr %44, i64 %130
  %132 = getelementptr i8, ptr %77, i64 %130
  %133 = shl nuw nsw i64 %129, 3
  %134 = getelementptr i8, ptr %43, i64 %133
  %135 = getelementptr i8, ptr %78, i64 %133
  %136 = icmp ult ptr %64, %132
  %137 = icmp ult ptr %131, %75
  %138 = and i1 %136, %137
  %139 = icmp ult ptr %64, %135
  %140 = icmp ult ptr %134, %75
  %141 = and i1 %139, %140
  %142 = or i1 %138, %141
  %143 = icmp ult ptr %100, %132
  %144 = icmp ult ptr %131, %102
  %145 = and i1 %143, %144
  %146 = or i1 %142, %145
  %147 = icmp ult ptr %100, %135
  %148 = icmp ult ptr %134, %102
  %149 = and i1 %147, %148
  %150 = or i1 %146, %149
  %151 = icmp ult ptr %57, %132
  %152 = icmp ult ptr %131, %79
  %153 = and i1 %151, %152
  %154 = or i1 %150, %153
  %155 = icmp ult ptr %57, %135
  %156 = icmp ult ptr %134, %79
  %157 = and i1 %155, %156
  %158 = or i1 %154, %157
  %159 = icmp ult ptr %103, %132
  %160 = icmp ult ptr %131, %104
  %161 = and i1 %159, %160
  %162 = or i1 %158, %161
  %163 = icmp ult ptr %103, %135
  %164 = icmp ult ptr %134, %104
  %165 = and i1 %163, %164
  %166 = or i1 %162, %165
  %167 = icmp ult ptr %131, %135
  %168 = icmp ult ptr %134, %132
  %169 = and i1 %167, %168
  %170 = or i1 %166, %169
  br i1 %170, label %198, label %171

171:                                              ; preds = %128
  %172 = add i32 %98, %94
  br label %173

173:                                              ; preds = %173, %171
  %174 = phi i64 [ 0, %171 ], [ %195, %173 ]
  %175 = trunc i64 %174 to i32
  %176 = add i32 %98, %175
  %177 = getelementptr inbounds %"class.dealii::Point.14", ptr %64, i64 %174
  %178 = zext i32 %176 to i64
  %179 = load <4 x double>, ptr %177, align 8, !tbaa !33
  %180 = shufflevector <4 x double> %179, <4 x double> poison, <2 x i32> <i32 0, i32 2>
  %181 = shufflevector <4 x double> %179, <4 x double> poison, <2 x i32> <i32 1, i32 3>
  %182 = load double, ptr %105, align 8, !tbaa !33, !alias.scope !112, !noalias !115
  %183 = insertelement <2 x double> poison, double %182, i64 0
  %184 = getelementptr inbounds %"class.dealii::Point.22", ptr %44, i64 %178
  %185 = shufflevector <2 x double> %180, <2 x double> %181, <4 x i32> <i32 0, i32 1, i32 2, i32 3>
  %186 = shufflevector <2 x double> %183, <2 x double> poison, <4 x i32> <i32 0, i32 0, i32 poison, i32 poison>
  %187 = shufflevector <4 x double> %185, <4 x double> %186, <6 x i32> <i32 0, i32 2, i32 4, i32 1, i32 3, i32 5>
  store <6 x double> %187, ptr %184, align 8, !tbaa !33
  %188 = getelementptr inbounds double, ptr %57, i64 %174
  %189 = load <2 x double>, ptr %188, align 8, !tbaa !33, !alias.scope !118, !noalias !115
  %190 = load double, ptr %106, align 8, !tbaa !33, !alias.scope !120, !noalias !115
  %191 = insertelement <2 x double> poison, double %190, i64 0
  %192 = shufflevector <2 x double> %191, <2 x double> poison, <2 x i32> zeroinitializer
  %193 = fmul <2 x double> %189, %192
  %194 = getelementptr inbounds double, ptr %43, i64 %178
  store <2 x double> %193, ptr %194, align 8, !tbaa !33, !alias.scope !122
  %195 = add nuw i64 %174, 2
  %196 = icmp eq i64 %195, %93
  br i1 %196, label %197, label %173, !llvm.loop !123

197:                                              ; preds = %173
  br i1 %95, label %221, label %198

198:                                              ; preds = %128, %107, %96, %197
  %199 = phi i64 [ 0, %128 ], [ 0, %107 ], [ 0, %96 ], [ %93, %197 ]
  %200 = phi i32 [ %98, %128 ], [ %98, %107 ], [ %98, %96 ], [ %172, %197 ]
  br label %201

201:                                              ; preds = %198, %201
  %202 = phi i64 [ %219, %201 ], [ %199, %198 ]
  %203 = phi i32 [ %218, %201 ], [ %200, %198 ]
  %204 = getelementptr inbounds %"class.dealii::Point.14", ptr %64, i64 %202
  %205 = zext i32 %203 to i64
  %206 = getelementptr inbounds %"class.dealii::Point.22", ptr %44, i64 %205
  %207 = load double, ptr %204, align 8, !tbaa !33
  store double %207, ptr %206, align 8, !tbaa !33
  %208 = getelementptr inbounds [2 x double], ptr %204, i64 0, i64 1
  %209 = load double, ptr %208, align 8, !tbaa !33
  %210 = getelementptr inbounds [3 x double], ptr %206, i64 0, i64 1
  store double %209, ptr %210, align 8, !tbaa !33
  %211 = load double, ptr %105, align 8, !tbaa !33
  %212 = getelementptr inbounds %"class.dealii::Point.22", ptr %44, i64 %205, i32 0, i32 0, i64 2
  store double %211, ptr %212, align 8, !tbaa !33
  %213 = getelementptr inbounds double, ptr %57, i64 %202
  %214 = load double, ptr %213, align 8, !tbaa !33
  %215 = load double, ptr %106, align 8, !tbaa !33
  %216 = fmul double %214, %215
  %217 = getelementptr inbounds double, ptr %43, i64 %205
  store double %216, ptr %217, align 8, !tbaa !33
  %218 = add i32 %203, 1
  %219 = add nuw nsw i64 %202, 1
  %220 = icmp eq i64 %219, %70
  br i1 %220, label %221, label %201, !llvm.loop !124

221:                                              ; preds = %201, %197
  %222 = phi i32 [ %172, %197 ], [ %218, %201 ]
  %223 = add nuw nsw i64 %97, 1
  %224 = icmp eq i64 %223, %69
  br i1 %224, label %225, label %96

225:                                              ; preds = %221, %55, %42
  ret void

226:                                              ; preds = %28
  %227 = landingpad { ptr, i32 }
          cleanup
  br label %230

228:                                              ; preds = %31
  %229 = landingpad { ptr, i32 }
          cleanup
  tail call void @_ZdlPv(ptr noundef nonnull %30) #23
  br label %230

230:                                              ; preds = %228, %226
  %231 = phi { ptr, i32 } [ %227, %226 ], [ %229, %228 ]
  invoke void @_ZN6dealii11SubscriptorD2Ev(ptr noundef nonnull align 8 dereferenceable(72) %0)
          to label %232 unwind label %233

232:                                              ; preds = %230
  resume { ptr, i32 } %231

233:                                              ; preds = %230
  %234 = landingpad { ptr, i32 }
          catch ptr null
  %235 = extractvalue { ptr, i32 } %234, 0
  tail call void @__clang_call_terminate(ptr %235) #24
  unreachable
}

; Function Attrs: sspstrong uwtable
define weak_odr dso_local void @_ZN6dealii10QuadratureILi3EEC2ERKNS0_ILi1EEE(ptr noundef nonnull align 8 dereferenceable(128) %0, ptr noundef nonnull align 8 dereferenceable(128) %1) unnamed_addr #0 comdat($_ZN6dealii10QuadratureILi3EEC5ERKNS0_ILi1EEE) align 2 personality ptr @__gxx_personality_v0 {
  tail call void @_ZN6dealii11SubscriptorC2Ev(ptr noundef nonnull align 8 dereferenceable(72) %0)
  store ptr getelementptr inbounds ({ [4 x ptr] }, ptr @_ZTVN6dealii10QuadratureILi3EEE, i64 0, inrange i32 0, i64 2), ptr %0, align 8, !tbaa !5
  %3 = getelementptr inbounds %"class.dealii::Quadrature.16", ptr %0, i64 0, i32 1
  %4 = getelementptr inbounds %"class.dealii::Quadrature", ptr %1, i64 0, i32 3
  %5 = getelementptr inbounds %"class.dealii::Quadrature", ptr %1, i64 0, i32 3, i32 0, i32 0, i32 0, i32 1
  %6 = load ptr, ptr %5, align 8, !tbaa !38
  %7 = load ptr, ptr %4, align 8, !tbaa !36
  %8 = ptrtoint ptr %6 to i64
  %9 = ptrtoint ptr %7 to i64
  %10 = sub i64 %8, %9
  %11 = lshr exact i64 %10, 3
  %12 = trunc i64 %11 to i32
  %13 = mul i32 %12, %12
  %14 = mul i32 %13, %12
  store i32 %14, ptr %3, align 8, !tbaa !103
  %15 = getelementptr inbounds %"class.dealii::Quadrature.16", ptr %0, i64 0, i32 2
  %16 = zext i32 %14 to i64
  tail call void @llvm.memset.p0.i64(ptr noundef nonnull align 8 dereferenceable(24) %15, i8 0, i64 24, i1 false)
  %17 = icmp eq i32 %14, 0
  br i1 %17, label %18, label %19

18:                                               ; preds = %2
  tail call void @llvm.memset.p0.i64(ptr noundef nonnull align 8 dereferenceable(48) %15, i8 0, i64 48, i1 false)
  br label %33

19:                                               ; preds = %2
  %20 = mul nuw nsw i64 %16, 24
  %21 = invoke noalias noundef nonnull ptr @_Znwm(i64 noundef %20) #22
          to label %22 unwind label %86

22:                                               ; preds = %19
  store ptr %21, ptr %15, align 8, !tbaa !109
  %23 = getelementptr inbounds %"class.dealii::Point.22", ptr %21, i64 %16
  %24 = getelementptr inbounds %"class.dealii::Quadrature.16", ptr %0, i64 0, i32 2, i32 0, i32 0, i32 0, i32 2
  store ptr %23, ptr %24, align 8, !tbaa !110
  tail call void @llvm.memset.p0.i64(ptr nonnull align 8 %21, i8 0, i64 %20, i1 false), !tbaa !33
  %25 = getelementptr i8, ptr %21, i64 %20
  %26 = getelementptr inbounds %"class.dealii::Quadrature.16", ptr %0, i64 0, i32 2, i32 0, i32 0, i32 0, i32 1
  store ptr %25, ptr %26, align 8, !tbaa !111
  %27 = getelementptr inbounds %"class.dealii::Quadrature.16", ptr %0, i64 0, i32 3
  tail call void @llvm.memset.p0.i64(ptr noundef nonnull align 8 dereferenceable(24) %27, i8 0, i64 24, i1 false)
  %28 = shl nuw nsw i64 %16, 3
  %29 = invoke noalias noundef nonnull ptr @_Znwm(i64 noundef %28) #22
          to label %30 unwind label %242

30:                                               ; preds = %22
  store ptr %29, ptr %27, align 8, !tbaa !36
  %31 = getelementptr inbounds double, ptr %29, i64 %16
  %32 = getelementptr inbounds %"class.dealii::Quadrature.16", ptr %0, i64 0, i32 3, i32 0, i32 0, i32 0, i32 2
  store ptr %31, ptr %32, align 8, !tbaa !37
  tail call void @llvm.memset.p0.i64(ptr nonnull align 8 %29, i8 0, i64 %28, i1 false), !tbaa !33
  br label %33

33:                                               ; preds = %30, %18
  %34 = phi ptr [ null, %18 ], [ %29, %30 ]
  %35 = phi ptr [ null, %18 ], [ %21, %30 ]
  %36 = phi ptr [ null, %18 ], [ %31, %30 ]
  %37 = getelementptr inbounds %"class.dealii::Quadrature.16", ptr %0, i64 0, i32 3, i32 0, i32 0, i32 0, i32 1
  store ptr %36, ptr %37, align 8, !tbaa !38
  %38 = load ptr, ptr %5, align 8, !tbaa !38
  %39 = load ptr, ptr %4, align 8, !tbaa !36
  %40 = ptrtoint ptr %38 to i64
  %41 = ptrtoint ptr %39 to i64
  %42 = sub i64 %40, %41
  %43 = and i64 %42, 34359738360
  %44 = icmp eq i64 %43, 0
  br i1 %44, label %85, label %45

45:                                               ; preds = %33
  %46 = lshr exact i64 %42, 3
  %47 = getelementptr inbounds %"class.dealii::Quadrature", ptr %1, i64 0, i32 2
  %48 = load ptr, ptr %47, align 8, !tbaa !31
  %49 = and i64 %46, 4294967295
  %50 = add nsw i64 %49, -1
  %51 = getelementptr i8, ptr %35, i64 8
  %52 = getelementptr i8, ptr %35, i64 16
  %53 = mul nuw nsw i64 %49, 24
  %54 = getelementptr i8, ptr %35, i64 %53
  %55 = getelementptr i8, ptr %34, i64 %43
  %56 = getelementptr i8, ptr %48, i64 %43
  %57 = getelementptr i8, ptr %39, i64 %43
  %58 = icmp ult i64 %49, 44
  %59 = trunc i64 %50 to i32
  %60 = icmp ugt i64 %50, 4294967295
  %61 = tail call { i64, i1 } @llvm.umul.with.overflow.i64(i64 %50, i64 24)
  %62 = extractvalue { i64, i1 } %61, 0
  %63 = extractvalue { i64, i1 } %61, 1
  %64 = tail call { i64, i1 } @llvm.umul.with.overflow.i64(i64 %50, i64 24)
  %65 = extractvalue { i64, i1 } %64, 0
  %66 = extractvalue { i64, i1 } %64, 1
  %67 = tail call { i64, i1 } @llvm.umul.with.overflow.i64(i64 %50, i64 24)
  %68 = extractvalue { i64, i1 } %67, 0
  %69 = extractvalue { i64, i1 } %67, 1
  %70 = and i64 %46, 3
  %71 = sub nsw i64 %49, %70
  %72 = trunc i64 %71 to i32
  %73 = icmp eq i64 %70, 0
  br label %74

74:                                               ; preds = %45, %214
  %75 = phi i64 [ 0, %45 ], [ %215, %214 ]
  %76 = phi i32 [ 0, %45 ], [ %218, %214 ]
  %77 = shl i64 %75, 3
  %78 = getelementptr i8, ptr %48, i64 %77
  %79 = add i64 %77, 8
  %80 = getelementptr i8, ptr %48, i64 %79
  %81 = getelementptr i8, ptr %39, i64 %77
  %82 = getelementptr i8, ptr %39, i64 %79
  %83 = getelementptr inbounds %"class.dealii::Point", ptr %48, i64 %75
  %84 = getelementptr inbounds double, ptr %39, i64 %75
  br label %88

85:                                               ; preds = %214, %33
  ret void

86:                                               ; preds = %19
  %87 = landingpad { ptr, i32 }
          cleanup
  br label %244

88:                                               ; preds = %74, %217
  %89 = phi i64 [ 0, %74 ], [ %219, %217 ]
  %90 = phi i32 [ %76, %74 ], [ %218, %217 ]
  %91 = shl i64 %89, 3
  %92 = getelementptr i8, ptr %48, i64 %91
  %93 = add i64 %91, 8
  %94 = getelementptr i8, ptr %48, i64 %93
  %95 = getelementptr i8, ptr %39, i64 %91
  %96 = getelementptr i8, ptr %39, i64 %93
  %97 = getelementptr inbounds %"class.dealii::Point", ptr %48, i64 %89
  %98 = getelementptr inbounds double, ptr %39, i64 %89
  br i1 %58, label %211, label %99

99:                                               ; preds = %88
  %100 = xor i32 %90, -1
  %101 = icmp ult i32 %100, %59
  %102 = or i1 %101, %60
  %103 = zext i32 %90 to i64
  %104 = mul nuw nsw i64 %103, 24
  %105 = getelementptr i8, ptr %51, i64 %104
  %106 = getelementptr i8, ptr %105, i64 %62
  %107 = icmp ult ptr %106, %105
  %108 = or i1 %107, %63
  %109 = getelementptr i8, ptr %52, i64 %104
  %110 = getelementptr i8, ptr %109, i64 %65
  %111 = icmp ult ptr %110, %109
  %112 = or i1 %111, %66
  %113 = getelementptr i8, ptr %35, i64 %104
  %114 = getelementptr i8, ptr %113, i64 %68
  %115 = icmp ult ptr %114, %113
  %116 = or i1 %115, %69
  %117 = or i1 %102, %108
  %118 = or i1 %117, %112
  %119 = or i1 %118, %116
  br i1 %119, label %211, label %120

120:                                              ; preds = %99
  %121 = zext i32 %90 to i64
  %122 = mul nuw nsw i64 %121, 24
  %123 = getelementptr i8, ptr %35, i64 %122
  %124 = getelementptr i8, ptr %54, i64 %122
  %125 = shl nuw nsw i64 %121, 3
  %126 = getelementptr i8, ptr %34, i64 %125
  %127 = getelementptr i8, ptr %55, i64 %125
  %128 = icmp ult ptr %78, %124
  %129 = icmp ult ptr %123, %80
  %130 = and i1 %128, %129
  %131 = icmp ult ptr %78, %127
  %132 = icmp ult ptr %126, %80
  %133 = and i1 %131, %132
  %134 = or i1 %130, %133
  %135 = icmp ult ptr %92, %124
  %136 = icmp ult ptr %123, %94
  %137 = and i1 %135, %136
  %138 = or i1 %134, %137
  %139 = icmp ult ptr %92, %127
  %140 = icmp ult ptr %126, %94
  %141 = and i1 %139, %140
  %142 = or i1 %138, %141
  %143 = icmp ult ptr %48, %124
  %144 = icmp ult ptr %123, %56
  %145 = and i1 %143, %144
  %146 = or i1 %142, %145
  %147 = icmp ult ptr %48, %127
  %148 = icmp ult ptr %126, %56
  %149 = and i1 %147, %148
  %150 = or i1 %146, %149
  %151 = icmp ult ptr %81, %124
  %152 = icmp ult ptr %123, %82
  %153 = and i1 %151, %152
  %154 = or i1 %150, %153
  %155 = icmp ult ptr %81, %127
  %156 = icmp ult ptr %126, %82
  %157 = and i1 %155, %156
  %158 = or i1 %154, %157
  %159 = icmp ult ptr %95, %124
  %160 = icmp ult ptr %123, %96
  %161 = and i1 %159, %160
  %162 = or i1 %158, %161
  %163 = icmp ult ptr %95, %127
  %164 = icmp ult ptr %126, %96
  %165 = and i1 %163, %164
  %166 = or i1 %162, %165
  %167 = icmp ult ptr %39, %124
  %168 = icmp ult ptr %123, %57
  %169 = and i1 %167, %168
  %170 = or i1 %166, %169
  %171 = icmp ult ptr %39, %127
  %172 = icmp ult ptr %126, %57
  %173 = and i1 %171, %172
  %174 = or i1 %170, %173
  %175 = icmp ult ptr %123, %127
  %176 = icmp ult ptr %126, %124
  %177 = and i1 %175, %176
  %178 = or i1 %174, %177
  br i1 %178, label %211, label %179

179:                                              ; preds = %120
  %180 = add i32 %90, %72
  br label %181

181:                                              ; preds = %181, %179
  %182 = phi i64 [ 0, %179 ], [ %208, %181 ]
  %183 = trunc i64 %182 to i32
  %184 = add i32 %90, %183
  %185 = getelementptr inbounds %"class.dealii::Point", ptr %48, i64 %182
  %186 = load <4 x double>, ptr %185, align 8, !tbaa !33, !alias.scope !125, !noalias !128
  %187 = zext i32 %184 to i64
  %188 = load double, ptr %97, align 8, !tbaa !33, !alias.scope !131, !noalias !128
  %189 = insertelement <4 x double> poison, double %188, i64 0
  %190 = shufflevector <4 x double> %189, <4 x double> poison, <4 x i32> zeroinitializer
  %191 = load double, ptr %83, align 8, !tbaa !33, !alias.scope !133, !noalias !128
  %192 = insertelement <4 x double> poison, double %191, i64 0
  %193 = getelementptr inbounds %"class.dealii::Point.22", ptr %35, i64 %187
  %194 = shufflevector <4 x double> %186, <4 x double> %190, <8 x i32> <i32 0, i32 1, i32 2, i32 3, i32 4, i32 5, i32 6, i32 7>
  %195 = shufflevector <4 x double> %192, <4 x double> poison, <8 x i32> <i32 0, i32 0, i32 0, i32 0, i32 poison, i32 poison, i32 poison, i32 poison>
  %196 = shufflevector <8 x double> %194, <8 x double> %195, <12 x i32> <i32 0, i32 4, i32 8, i32 1, i32 5, i32 9, i32 2, i32 6, i32 10, i32 3, i32 7, i32 11>
  store <12 x double> %196, ptr %193, align 8, !tbaa !33
  %197 = getelementptr inbounds double, ptr %39, i64 %182
  %198 = load <4 x double>, ptr %197, align 8, !tbaa !33, !alias.scope !135, !noalias !128
  %199 = getelementptr inbounds double, ptr %34, i64 %187
  store <4 x double> %198, ptr %199, align 8, !tbaa !33, !alias.scope !137
  %200 = load double, ptr %98, align 8, !tbaa !33, !alias.scope !138, !noalias !128
  %201 = insertelement <4 x double> poison, double %200, i64 0
  %202 = shufflevector <4 x double> %201, <4 x double> poison, <4 x i32> zeroinitializer
  %203 = fmul <4 x double> %198, %202
  store <4 x double> %203, ptr %199, align 8, !tbaa !33, !alias.scope !137
  %204 = load double, ptr %84, align 8, !tbaa !33, !alias.scope !140, !noalias !128
  %205 = insertelement <4 x double> poison, double %204, i64 0
  %206 = shufflevector <4 x double> %205, <4 x double> poison, <4 x i32> zeroinitializer
  %207 = fmul <4 x double> %203, %206
  store <4 x double> %207, ptr %199, align 8, !tbaa !33, !alias.scope !137
  %208 = add nuw i64 %182, 4
  %209 = icmp eq i64 %208, %71
  br i1 %209, label %210, label %181, !llvm.loop !142

210:                                              ; preds = %181
  br i1 %73, label %217, label %211

211:                                              ; preds = %120, %99, %88, %210
  %212 = phi i64 [ 0, %120 ], [ 0, %99 ], [ 0, %88 ], [ %71, %210 ]
  %213 = phi i32 [ %90, %120 ], [ %90, %99 ], [ %90, %88 ], [ %180, %210 ]
  br label %221

214:                                              ; preds = %217
  %215 = add nuw nsw i64 %75, 1
  %216 = icmp eq i64 %215, %49
  br i1 %216, label %85, label %74

217:                                              ; preds = %221, %210
  %218 = phi i32 [ %180, %210 ], [ %239, %221 ]
  %219 = add nuw nsw i64 %89, 1
  %220 = icmp eq i64 %219, %49
  br i1 %220, label %214, label %88

221:                                              ; preds = %211, %221
  %222 = phi i64 [ %240, %221 ], [ %212, %211 ]
  %223 = phi i32 [ %239, %221 ], [ %213, %211 ]
  %224 = getelementptr inbounds %"class.dealii::Point", ptr %48, i64 %222
  %225 = load double, ptr %224, align 8, !tbaa !33
  %226 = zext i32 %223 to i64
  %227 = getelementptr inbounds %"class.dealii::Point.22", ptr %35, i64 %226
  store double %225, ptr %227, align 8, !tbaa !33
  %228 = load double, ptr %97, align 8, !tbaa !33
  %229 = getelementptr inbounds [3 x double], ptr %227, i64 0, i64 1
  store double %228, ptr %229, align 8, !tbaa !33
  %230 = load double, ptr %83, align 8, !tbaa !33
  %231 = getelementptr inbounds [3 x double], ptr %227, i64 0, i64 2
  store double %230, ptr %231, align 8, !tbaa !33
  %232 = getelementptr inbounds double, ptr %39, i64 %222
  %233 = load double, ptr %232, align 8, !tbaa !33
  %234 = getelementptr inbounds double, ptr %34, i64 %226
  store double %233, ptr %234, align 8, !tbaa !33
  %235 = load double, ptr %98, align 8, !tbaa !33
  %236 = fmul double %233, %235
  store double %236, ptr %234, align 8, !tbaa !33
  %237 = load double, ptr %84, align 8, !tbaa !33
  %238 = fmul double %236, %237
  store double %238, ptr %234, align 8, !tbaa !33
  %239 = add i32 %223, 1
  %240 = add nuw nsw i64 %222, 1
  %241 = icmp eq i64 %240, %49
  br i1 %241, label %217, label %221, !llvm.loop !143

242:                                              ; preds = %22
  %243 = landingpad { ptr, i32 }
          cleanup
  tail call void @_ZdlPv(ptr noundef nonnull %21) #23
  br label %244

244:                                              ; preds = %242, %86
  %245 = phi { ptr, i32 } [ %87, %86 ], [ %243, %242 ]
  invoke void @_ZN6dealii11SubscriptorD2Ev(ptr noundef nonnull align 8 dereferenceable(72) %0)
          to label %246 unwind label %247

246:                                              ; preds = %244
  resume { ptr, i32 } %245

247:                                              ; preds = %244
  %248 = landingpad { ptr, i32 }
          catch ptr null
  %249 = extractvalue { ptr, i32 } %248, 0
  tail call void @__clang_call_terminate(ptr %249) #24
  unreachable
}

; Function Attrs: sspstrong uwtable
define weak_odr dso_local void @_ZN6dealii10QuadratureILi3EEC2ERKS1_(ptr noundef nonnull align 8 dereferenceable(128) %0, ptr noundef nonnull align 8 dereferenceable(128) %1) unnamed_addr #0 comdat($_ZN6dealii10QuadratureILi3EEC5ERKS1_) align 2 personality ptr @__gxx_personality_v0 {
  tail call void @_ZN6dealii11SubscriptorC2Ev(ptr noundef nonnull align 8 dereferenceable(72) %0)
  store ptr getelementptr inbounds ({ [4 x ptr] }, ptr @_ZTVN6dealii10QuadratureILi3EEE, i64 0, inrange i32 0, i64 2), ptr %0, align 8, !tbaa !5
  %3 = getelementptr inbounds %"class.dealii::Quadrature.16", ptr %1, i64 0, i32 3
  %4 = getelementptr inbounds %"class.dealii::Quadrature.16", ptr %1, i64 0, i32 3, i32 0, i32 0, i32 0, i32 1
  %5 = load ptr, ptr %4, align 8, !tbaa !38
  %6 = load ptr, ptr %3, align 8, !tbaa !36
  %7 = ptrtoint ptr %5 to i64
  %8 = ptrtoint ptr %6 to i64
  %9 = sub i64 %7, %8
  %10 = lshr exact i64 %9, 3
  %11 = trunc i64 %10 to i32
  %12 = getelementptr inbounds %"class.dealii::Quadrature.16", ptr %0, i64 0, i32 1
  store i32 %11, ptr %12, align 8, !tbaa !103
  %13 = getelementptr inbounds %"class.dealii::Quadrature.16", ptr %0, i64 0, i32 2
  %14 = getelementptr inbounds %"class.dealii::Quadrature.16", ptr %1, i64 0, i32 2
  %15 = getelementptr inbounds %"class.dealii::Quadrature.16", ptr %1, i64 0, i32 2, i32 0, i32 0, i32 0, i32 1
  %16 = load ptr, ptr %15, align 8, !tbaa !111
  %17 = load ptr, ptr %14, align 8, !tbaa !109
  %18 = ptrtoint ptr %16 to i64
  %19 = ptrtoint ptr %17 to i64
  %20 = sub i64 %18, %19
  %21 = sdiv exact i64 %20, 24
  tail call void @llvm.memset.p0.i64(ptr noundef nonnull align 8 dereferenceable(24) %13, i8 0, i64 24, i1 false)
  %22 = icmp eq ptr %16, %17
  br i1 %22, label %29, label %23

23:                                               ; preds = %2
  %24 = icmp ugt i64 %21, 384307168202282325
  br i1 %24, label %25, label %27, !prof !39

25:                                               ; preds = %23
  invoke void @_ZSt28__throw_bad_array_new_lengthv() #26
          to label %26 unwind label %85

26:                                               ; preds = %25
  unreachable

27:                                               ; preds = %23
  %28 = invoke noalias noundef nonnull ptr @_Znwm(i64 noundef %20) #22
          to label %29 unwind label %85

29:                                               ; preds = %27, %2
  %30 = phi ptr [ null, %2 ], [ %28, %27 ]
  store ptr %30, ptr %13, align 8, !tbaa !109
  %31 = getelementptr inbounds %"class.dealii::Quadrature.16", ptr %0, i64 0, i32 2, i32 0, i32 0, i32 0, i32 1
  store ptr %30, ptr %31, align 8, !tbaa !111
  %32 = getelementptr inbounds %"class.dealii::Point.22", ptr %30, i64 %21
  %33 = getelementptr inbounds %"class.dealii::Quadrature.16", ptr %0, i64 0, i32 2, i32 0, i32 0, i32 0, i32 2
  store ptr %32, ptr %33, align 8, !tbaa !110
  %34 = load ptr, ptr %14, align 8, !tbaa !40
  %35 = load ptr, ptr %15, align 8, !tbaa !40
  %36 = icmp eq ptr %34, %35
  br i1 %36, label %50, label %37

37:                                               ; preds = %29, %37
  %38 = phi ptr [ %48, %37 ], [ %30, %29 ]
  %39 = phi ptr [ %47, %37 ], [ %34, %29 ]
  %40 = load double, ptr %39, align 8, !tbaa !33
  store double %40, ptr %38, align 8, !tbaa !33
  %41 = getelementptr inbounds [3 x double], ptr %39, i64 0, i64 1
  %42 = load double, ptr %41, align 8, !tbaa !33
  %43 = getelementptr inbounds [3 x double], ptr %38, i64 0, i64 1
  store double %42, ptr %43, align 8, !tbaa !33
  %44 = getelementptr inbounds [3 x double], ptr %39, i64 0, i64 2
  %45 = load double, ptr %44, align 8, !tbaa !33
  %46 = getelementptr inbounds [3 x double], ptr %38, i64 0, i64 2
  store double %45, ptr %46, align 8, !tbaa !33
  %47 = getelementptr inbounds %"class.dealii::Point.22", ptr %39, i64 1
  %48 = getelementptr inbounds %"class.dealii::Point.22", ptr %38, i64 1
  %49 = icmp eq ptr %47, %35
  br i1 %49, label %50, label %37

50:                                               ; preds = %37, %29
  %51 = phi ptr [ %30, %29 ], [ %48, %37 ]
  store ptr %51, ptr %31, align 8, !tbaa !111
  %52 = getelementptr inbounds %"class.dealii::Quadrature.16", ptr %0, i64 0, i32 3
  %53 = load ptr, ptr %4, align 8, !tbaa !38
  %54 = load ptr, ptr %3, align 8, !tbaa !36
  %55 = ptrtoint ptr %53 to i64
  %56 = ptrtoint ptr %54 to i64
  %57 = sub i64 %55, %56
  %58 = ashr exact i64 %57, 3
  tail call void @llvm.memset.p0.i64(ptr noundef nonnull align 8 dereferenceable(24) %52, i8 0, i64 24, i1 false)
  %59 = icmp eq ptr %53, %54
  br i1 %59, label %66, label %60

60:                                               ; preds = %50
  %61 = icmp ugt i64 %57, 9223372036854775800
  br i1 %61, label %62, label %64, !prof !39

62:                                               ; preds = %60
  invoke void @_ZSt28__throw_bad_array_new_lengthv() #26
          to label %63 unwind label %87

63:                                               ; preds = %62
  unreachable

64:                                               ; preds = %60
  %65 = invoke noalias noundef nonnull ptr @_Znwm(i64 noundef %57) #22
          to label %66 unwind label %87

66:                                               ; preds = %64, %50
  %67 = phi ptr [ null, %50 ], [ %65, %64 ]
  store ptr %67, ptr %52, align 8, !tbaa !36
  %68 = getelementptr inbounds %"class.dealii::Quadrature.16", ptr %0, i64 0, i32 3, i32 0, i32 0, i32 0, i32 1
  store ptr %67, ptr %68, align 8, !tbaa !38
  %69 = getelementptr inbounds double, ptr %67, i64 %58
  %70 = getelementptr inbounds %"class.dealii::Quadrature.16", ptr %0, i64 0, i32 3, i32 0, i32 0, i32 0, i32 2
  store ptr %69, ptr %70, align 8, !tbaa !37
  %71 = load ptr, ptr %3, align 8, !tbaa !40
  %72 = load ptr, ptr %4, align 8, !tbaa !40
  %73 = ptrtoint ptr %72 to i64
  %74 = ptrtoint ptr %71 to i64
  %75 = sub i64 %73, %74
  %76 = icmp sgt i64 %75, 8
  br i1 %76, label %77, label %78, !prof !45

77:                                               ; preds = %66
  tail call void @llvm.memmove.p0.p0.i64(ptr align 8 %67, ptr align 8 %71, i64 %75, i1 false)
  br label %82

78:                                               ; preds = %66
  %79 = icmp eq i64 %75, 8
  br i1 %79, label %80, label %82

80:                                               ; preds = %78
  %81 = load double, ptr %71, align 8, !tbaa !33
  store double %81, ptr %67, align 8, !tbaa !33
  br label %82

82:                                               ; preds = %80, %78, %77
  %83 = ashr exact i64 %75, 3
  %84 = getelementptr inbounds double, ptr %67, i64 %83
  store ptr %84, ptr %68, align 8, !tbaa !38
  ret void

85:                                               ; preds = %27, %25
  %86 = landingpad { ptr, i32 }
          cleanup
  br label %92

87:                                               ; preds = %64, %62
  %88 = landingpad { ptr, i32 }
          cleanup
  %89 = load ptr, ptr %13, align 8, !tbaa !109
  %90 = icmp eq ptr %89, null
  br i1 %90, label %92, label %91

91:                                               ; preds = %87
  tail call void @_ZdlPv(ptr noundef nonnull %89) #23
  br label %92

92:                                               ; preds = %91, %87, %85
  %93 = phi { ptr, i32 } [ %86, %85 ], [ %88, %87 ], [ %88, %91 ]
  invoke void @_ZN6dealii11SubscriptorD2Ev(ptr noundef nonnull align 8 dereferenceable(72) %0)
          to label %94 unwind label %95

94:                                               ; preds = %92
  resume { ptr, i32 } %93

95:                                               ; preds = %92
  %96 = landingpad { ptr, i32 }
          catch ptr null
  %97 = extractvalue { ptr, i32 } %96, 0
  tail call void @__clang_call_terminate(ptr %97) #24
  unreachable
}

; Function Attrs: inlinehint sspstrong uwtable
define weak_odr dso_local noundef i32 @_ZNK6dealii10QuadratureILi3EE4sizeEv(ptr noundef nonnull align 8 dereferenceable(128) %0) local_unnamed_addr #4 comdat align 2 {
  %2 = getelementptr inbounds %"class.dealii::Quadrature.16", ptr %0, i64 0, i32 3
  %3 = getelementptr inbounds %"class.dealii::Quadrature.16", ptr %0, i64 0, i32 3, i32 0, i32 0, i32 0, i32 1
  %4 = load ptr, ptr %3, align 8, !tbaa !38
  %5 = load ptr, ptr %2, align 8, !tbaa !36
  %6 = ptrtoint ptr %4 to i64
  %7 = ptrtoint ptr %5 to i64
  %8 = sub i64 %6, %7
  %9 = lshr exact i64 %8, 3
  %10 = trunc i64 %9 to i32
  ret i32 %10
}

; Function Attrs: sspstrong uwtable
define weak_odr dso_local void @_ZN6dealii10QuadratureILi3EEC2ERKSt6vectorINS_5PointILi3EEESaIS4_EERKS2_IdSaIdEE(ptr noundef nonnull align 8 dereferenceable(128) %0, ptr noundef nonnull align 8 dereferenceable(24) %1, ptr noundef nonnull align 8 dereferenceable(24) %2) unnamed_addr #0 comdat($_ZN6dealii10QuadratureILi3EEC5ERKSt6vectorINS_5PointILi3EEESaIS4_EERKS2_IdSaIdEE) align 2 personality ptr @__gxx_personality_v0 {
  tail call void @_ZN6dealii11SubscriptorC2Ev(ptr noundef nonnull align 8 dereferenceable(72) %0)
  store ptr getelementptr inbounds ({ [4 x ptr] }, ptr @_ZTVN6dealii10QuadratureILi3EEE, i64 0, inrange i32 0, i64 2), ptr %0, align 8, !tbaa !5
  %4 = getelementptr inbounds %"class.dealii::Quadrature.16", ptr %0, i64 0, i32 1
  %5 = getelementptr inbounds %"struct.std::_Vector_base<dealii::Point<3>, std::allocator<dealii::Point<3> > >::_Vector_impl_data", ptr %1, i64 0, i32 1
  %6 = load ptr, ptr %5, align 8, !tbaa !111
  %7 = load ptr, ptr %1, align 8, !tbaa !109
  %8 = ptrtoint ptr %6 to i64
  %9 = ptrtoint ptr %7 to i64
  %10 = sub i64 %8, %9
  %11 = sdiv exact i64 %10, 24
  %12 = trunc i64 %11 to i32
  store i32 %12, ptr %4, align 8, !tbaa !103
  %13 = getelementptr inbounds %"class.dealii::Quadrature.16", ptr %0, i64 0, i32 2
  tail call void @llvm.memset.p0.i64(ptr noundef nonnull align 8 dereferenceable(24) %13, i8 0, i64 24, i1 false)
  %14 = icmp eq ptr %6, %7
  br i1 %14, label %21, label %15

15:                                               ; preds = %3
  %16 = icmp ugt i64 %11, 384307168202282325
  br i1 %16, label %17, label %19, !prof !39

17:                                               ; preds = %15
  invoke void @_ZSt28__throw_bad_array_new_lengthv() #26
          to label %18 unwind label %78

18:                                               ; preds = %17
  unreachable

19:                                               ; preds = %15
  %20 = invoke noalias noundef nonnull ptr @_Znwm(i64 noundef %10) #22
          to label %21 unwind label %78

21:                                               ; preds = %19, %3
  %22 = phi ptr [ null, %3 ], [ %20, %19 ]
  store ptr %22, ptr %13, align 8, !tbaa !109
  %23 = getelementptr inbounds %"class.dealii::Quadrature.16", ptr %0, i64 0, i32 2, i32 0, i32 0, i32 0, i32 1
  store ptr %22, ptr %23, align 8, !tbaa !111
  %24 = getelementptr inbounds %"class.dealii::Point.22", ptr %22, i64 %11
  %25 = getelementptr inbounds %"class.dealii::Quadrature.16", ptr %0, i64 0, i32 2, i32 0, i32 0, i32 0, i32 2
  store ptr %24, ptr %25, align 8, !tbaa !110
  %26 = load ptr, ptr %1, align 8, !tbaa !40
  %27 = load ptr, ptr %5, align 8, !tbaa !40
  %28 = icmp eq ptr %26, %27
  br i1 %28, label %42, label %29

29:                                               ; preds = %21, %29
  %30 = phi ptr [ %40, %29 ], [ %22, %21 ]
  %31 = phi ptr [ %39, %29 ], [ %26, %21 ]
  %32 = load double, ptr %31, align 8, !tbaa !33
  store double %32, ptr %30, align 8, !tbaa !33
  %33 = getelementptr inbounds [3 x double], ptr %31, i64 0, i64 1
  %34 = load double, ptr %33, align 8, !tbaa !33
  %35 = getelementptr inbounds [3 x double], ptr %30, i64 0, i64 1
  store double %34, ptr %35, align 8, !tbaa !33
  %36 = getelementptr inbounds [3 x double], ptr %31, i64 0, i64 2
  %37 = load double, ptr %36, align 8, !tbaa !33
  %38 = getelementptr inbounds [3 x double], ptr %30, i64 0, i64 2
  store double %37, ptr %38, align 8, !tbaa !33
  %39 = getelementptr inbounds %"class.dealii::Point.22", ptr %31, i64 1
  %40 = getelementptr inbounds %"class.dealii::Point.22", ptr %30, i64 1
  %41 = icmp eq ptr %39, %27
  br i1 %41, label %42, label %29

42:                                               ; preds = %29, %21
  %43 = phi ptr [ %22, %21 ], [ %40, %29 ]
  store ptr %43, ptr %23, align 8, !tbaa !111
  %44 = getelementptr inbounds %"class.dealii::Quadrature.16", ptr %0, i64 0, i32 3
  %45 = getelementptr inbounds %"struct.std::_Vector_base<double, std::allocator<double> >::_Vector_impl_data", ptr %2, i64 0, i32 1
  %46 = load ptr, ptr %45, align 8, !tbaa !38
  %47 = load ptr, ptr %2, align 8, !tbaa !36
  %48 = ptrtoint ptr %46 to i64
  %49 = ptrtoint ptr %47 to i64
  %50 = sub i64 %48, %49
  %51 = ashr exact i64 %50, 3
  tail call void @llvm.memset.p0.i64(ptr noundef nonnull align 8 dereferenceable(24) %44, i8 0, i64 24, i1 false)
  %52 = icmp eq ptr %46, %47
  br i1 %52, label %59, label %53

53:                                               ; preds = %42
  %54 = icmp ugt i64 %50, 9223372036854775800
  br i1 %54, label %55, label %57, !prof !39

55:                                               ; preds = %53
  invoke void @_ZSt28__throw_bad_array_new_lengthv() #26
          to label %56 unwind label %80

56:                                               ; preds = %55
  unreachable

57:                                               ; preds = %53
  %58 = invoke noalias noundef nonnull ptr @_Znwm(i64 noundef %50) #22
          to label %59 unwind label %80

59:                                               ; preds = %57, %42
  %60 = phi ptr [ null, %42 ], [ %58, %57 ]
  store ptr %60, ptr %44, align 8, !tbaa !36
  %61 = getelementptr inbounds %"class.dealii::Quadrature.16", ptr %0, i64 0, i32 3, i32 0, i32 0, i32 0, i32 1
  store ptr %60, ptr %61, align 8, !tbaa !38
  %62 = getelementptr inbounds double, ptr %60, i64 %51
  %63 = getelementptr inbounds %"class.dealii::Quadrature.16", ptr %0, i64 0, i32 3, i32 0, i32 0, i32 0, i32 2
  store ptr %62, ptr %63, align 8, !tbaa !37
  %64 = load ptr, ptr %2, align 8, !tbaa !40
  %65 = load ptr, ptr %45, align 8, !tbaa !40
  %66 = ptrtoint ptr %65 to i64
  %67 = ptrtoint ptr %64 to i64
  %68 = sub i64 %66, %67
  %69 = icmp sgt i64 %68, 8
  br i1 %69, label %70, label %71, !prof !45

70:                                               ; preds = %59
  tail call void @llvm.memmove.p0.p0.i64(ptr align 8 %60, ptr align 8 %64, i64 %68, i1 false)
  br label %75

71:                                               ; preds = %59
  %72 = icmp eq i64 %68, 8
  br i1 %72, label %73, label %75

73:                                               ; preds = %71
  %74 = load double, ptr %64, align 8, !tbaa !33
  store double %74, ptr %60, align 8, !tbaa !33
  br label %75

75:                                               ; preds = %73, %71, %70
  %76 = ashr exact i64 %68, 3
  %77 = getelementptr inbounds double, ptr %60, i64 %76
  store ptr %77, ptr %61, align 8, !tbaa !38
  ret void

78:                                               ; preds = %19, %17
  %79 = landingpad { ptr, i32 }
          cleanup
  br label %85

80:                                               ; preds = %57, %55
  %81 = landingpad { ptr, i32 }
          cleanup
  %82 = load ptr, ptr %13, align 8, !tbaa !109
  %83 = icmp eq ptr %82, null
  br i1 %83, label %85, label %84

84:                                               ; preds = %80
  tail call void @_ZdlPv(ptr noundef nonnull %82) #23
  br label %85

85:                                               ; preds = %84, %80, %78
  %86 = phi { ptr, i32 } [ %79, %78 ], [ %81, %80 ], [ %81, %84 ]
  invoke void @_ZN6dealii11SubscriptorD2Ev(ptr noundef nonnull align 8 dereferenceable(72) %0)
          to label %87 unwind label %88

87:                                               ; preds = %85
  resume { ptr, i32 } %86

88:                                               ; preds = %85
  %89 = landingpad { ptr, i32 }
          catch ptr null
  %90 = extractvalue { ptr, i32 } %89, 0
  tail call void @__clang_call_terminate(ptr %90) #24
  unreachable
}

; Function Attrs: sspstrong uwtable
define weak_odr dso_local void @_ZN6dealii10QuadratureILi3EEC2ERKSt6vectorINS_5PointILi3EEESaIS4_EE(ptr noundef nonnull align 8 dereferenceable(128) %0, ptr noundef nonnull align 8 dereferenceable(24) %1) unnamed_addr #0 comdat($_ZN6dealii10QuadratureILi3EEC5ERKSt6vectorINS_5PointILi3EEESaIS4_EE) align 2 personality ptr @__gxx_personality_v0 {
  tail call void @_ZN6dealii11SubscriptorC2Ev(ptr noundef nonnull align 8 dereferenceable(72) %0)
  store ptr getelementptr inbounds ({ [4 x ptr] }, ptr @_ZTVN6dealii10QuadratureILi3EEE, i64 0, inrange i32 0, i64 2), ptr %0, align 8, !tbaa !5
  %3 = getelementptr inbounds %"class.dealii::Quadrature.16", ptr %0, i64 0, i32 1
  %4 = getelementptr inbounds %"struct.std::_Vector_base<dealii::Point<3>, std::allocator<dealii::Point<3> > >::_Vector_impl_data", ptr %1, i64 0, i32 1
  %5 = load ptr, ptr %4, align 8, !tbaa !111
  %6 = load ptr, ptr %1, align 8, !tbaa !109
  %7 = ptrtoint ptr %5 to i64
  %8 = ptrtoint ptr %6 to i64
  %9 = sub i64 %7, %8
  %10 = sdiv exact i64 %9, 24
  %11 = trunc i64 %10 to i32
  store i32 %11, ptr %3, align 8, !tbaa !103
  %12 = getelementptr inbounds %"class.dealii::Quadrature.16", ptr %0, i64 0, i32 2
  tail call void @llvm.memset.p0.i64(ptr noundef nonnull align 8 dereferenceable(24) %12, i8 0, i64 24, i1 false)
  %13 = icmp eq ptr %5, %6
  br i1 %13, label %20, label %14

14:                                               ; preds = %2
  %15 = icmp ugt i64 %10, 384307168202282325
  br i1 %15, label %16, label %18, !prof !39

16:                                               ; preds = %14
  invoke void @_ZSt28__throw_bad_array_new_lengthv() #26
          to label %17 unwind label %97

17:                                               ; preds = %16
  unreachable

18:                                               ; preds = %14
  %19 = invoke noalias noundef nonnull ptr @_Znwm(i64 noundef %9) #22
          to label %20 unwind label %97

20:                                               ; preds = %18, %2
  %21 = phi ptr [ null, %2 ], [ %19, %18 ]
  store ptr %21, ptr %12, align 8, !tbaa !109
  %22 = getelementptr inbounds %"class.dealii::Quadrature.16", ptr %0, i64 0, i32 2, i32 0, i32 0, i32 0, i32 1
  store ptr %21, ptr %22, align 8, !tbaa !111
  %23 = getelementptr inbounds %"class.dealii::Point.22", ptr %21, i64 %10
  %24 = getelementptr inbounds %"class.dealii::Quadrature.16", ptr %0, i64 0, i32 2, i32 0, i32 0, i32 0, i32 2
  store ptr %23, ptr %24, align 8, !tbaa !110
  %25 = load ptr, ptr %1, align 8, !tbaa !40
  %26 = load ptr, ptr %4, align 8, !tbaa !40
  %27 = icmp eq ptr %25, %26
  br i1 %27, label %41, label %28

28:                                               ; preds = %20, %28
  %29 = phi ptr [ %39, %28 ], [ %21, %20 ]
  %30 = phi ptr [ %38, %28 ], [ %25, %20 ]
  %31 = load double, ptr %30, align 8, !tbaa !33
  store double %31, ptr %29, align 8, !tbaa !33
  %32 = getelementptr inbounds [3 x double], ptr %30, i64 0, i64 1
  %33 = load double, ptr %32, align 8, !tbaa !33
  %34 = getelementptr inbounds [3 x double], ptr %29, i64 0, i64 1
  store double %33, ptr %34, align 8, !tbaa !33
  %35 = getelementptr inbounds [3 x double], ptr %30, i64 0, i64 2
  %36 = load double, ptr %35, align 8, !tbaa !33
  %37 = getelementptr inbounds [3 x double], ptr %29, i64 0, i64 2
  store double %36, ptr %37, align 8, !tbaa !33
  %38 = getelementptr inbounds %"class.dealii::Point.22", ptr %30, i64 1
  %39 = getelementptr inbounds %"class.dealii::Point.22", ptr %29, i64 1
  %40 = icmp eq ptr %38, %26
  br i1 %40, label %41, label %28

41:                                               ; preds = %28, %20
  %42 = phi ptr [ %21, %20 ], [ %39, %28 ]
  store ptr %42, ptr %22, align 8, !tbaa !111
  %43 = getelementptr inbounds %"class.dealii::Quadrature.16", ptr %0, i64 0, i32 3
  %44 = load ptr, ptr %4, align 8, !tbaa !111
  %45 = ptrtoint ptr %44 to i64
  %46 = ptrtoint ptr %25 to i64
  %47 = sub i64 %45, %46
  %48 = sdiv exact i64 %47, 24
  %49 = tail call double @strtod(ptr nocapture noundef nonnull @.str, ptr noundef null) #25
  %50 = icmp ugt i64 %48, 1152921504606846975
  br i1 %50, label %51, label %53

51:                                               ; preds = %41
  invoke void @_ZSt20__throw_length_errorPKc(ptr noundef nonnull @.str.2) #26
          to label %52 unwind label %99

52:                                               ; preds = %51
  unreachable

53:                                               ; preds = %41
  tail call void @llvm.memset.p0.i64(ptr noundef nonnull align 8 dereferenceable(24) %43, i8 0, i64 24, i1 false)
  %54 = icmp eq ptr %44, %25
  br i1 %54, label %94, label %55

55:                                               ; preds = %53
  %56 = shl nuw nsw i64 %48, 3
  %57 = invoke noalias noundef nonnull ptr @_Znwm(i64 noundef %56) #22
          to label %58 unwind label %99

58:                                               ; preds = %55
  store ptr %57, ptr %43, align 8, !tbaa !36
  %59 = getelementptr inbounds double, ptr %57, i64 %48
  %60 = getelementptr inbounds %"class.dealii::Quadrature.16", ptr %0, i64 0, i32 3, i32 0, i32 0, i32 0, i32 2
  store ptr %59, ptr %60, align 8, !tbaa !37
  %61 = add nsw i64 %48, 2305843009213693951
  %62 = and i64 %61, 2305843009213693951
  %63 = add nuw nsw i64 %62, 1
  %64 = icmp ult i64 %62, 15
  br i1 %64, label %88, label %65

65:                                               ; preds = %58
  %66 = and i64 %63, 4611686018427387888
  %67 = shl i64 %66, 3
  %68 = getelementptr i8, ptr %57, i64 %67
  %69 = insertelement <4 x double> poison, double %49, i64 0
  %70 = shufflevector <4 x double> %69, <4 x double> poison, <4 x i32> zeroinitializer
  %71 = insertelement <4 x double> poison, double %49, i64 0
  %72 = shufflevector <4 x double> %71, <4 x double> poison, <4 x i32> zeroinitializer
  %73 = insertelement <4 x double> poison, double %49, i64 0
  %74 = shufflevector <4 x double> %73, <4 x double> poison, <4 x i32> zeroinitializer
  %75 = insertelement <4 x double> poison, double %49, i64 0
  %76 = shufflevector <4 x double> %75, <4 x double> poison, <4 x i32> zeroinitializer
  br label %77

77:                                               ; preds = %77, %65
  %78 = phi i64 [ 0, %65 ], [ %84, %77 ]
  %79 = shl i64 %78, 3
  %80 = getelementptr i8, ptr %57, i64 %79
  store <4 x double> %70, ptr %80, align 8, !tbaa !33
  %81 = getelementptr double, ptr %80, i64 4
  store <4 x double> %72, ptr %81, align 8, !tbaa !33
  %82 = getelementptr double, ptr %80, i64 8
  store <4 x double> %74, ptr %82, align 8, !tbaa !33
  %83 = getelementptr double, ptr %80, i64 12
  store <4 x double> %76, ptr %83, align 8, !tbaa !33
  %84 = add nuw i64 %78, 16
  %85 = icmp eq i64 %84, %66
  br i1 %85, label %86, label %77, !llvm.loop !144

86:                                               ; preds = %77
  %87 = icmp eq i64 %63, %66
  br i1 %87, label %94, label %88

88:                                               ; preds = %58, %86
  %89 = phi ptr [ %57, %58 ], [ %68, %86 ]
  br label %90

90:                                               ; preds = %88, %90
  %91 = phi ptr [ %92, %90 ], [ %89, %88 ]
  store double %49, ptr %91, align 8, !tbaa !33
  %92 = getelementptr inbounds double, ptr %91, i64 1
  %93 = icmp eq ptr %92, %59
  br i1 %93, label %94, label %90, !llvm.loop !145

94:                                               ; preds = %90, %86, %53
  %95 = phi ptr [ null, %53 ], [ %59, %86 ], [ %59, %90 ]
  %96 = getelementptr inbounds %"class.dealii::Quadrature.16", ptr %0, i64 0, i32 3, i32 0, i32 0, i32 0, i32 1
  store ptr %95, ptr %96, align 8, !tbaa !38
  ret void

97:                                               ; preds = %18, %16
  %98 = landingpad { ptr, i32 }
          cleanup
  br label %104

99:                                               ; preds = %55, %51
  %100 = landingpad { ptr, i32 }
          cleanup
  %101 = load ptr, ptr %12, align 8, !tbaa !109
  %102 = icmp eq ptr %101, null
  br i1 %102, label %104, label %103

103:                                              ; preds = %99
  tail call void @_ZdlPv(ptr noundef nonnull %101) #23
  br label %104

104:                                              ; preds = %103, %99, %97
  %105 = phi { ptr, i32 } [ %98, %97 ], [ %100, %99 ], [ %100, %103 ]
  invoke void @_ZN6dealii11SubscriptorD2Ev(ptr noundef nonnull align 8 dereferenceable(72) %0)
          to label %106 unwind label %107

106:                                              ; preds = %104
  resume { ptr, i32 } %105

107:                                              ; preds = %104
  %108 = landingpad { ptr, i32 }
          catch ptr null
  %109 = extractvalue { ptr, i32 } %108, 0
  tail call void @__clang_call_terminate(ptr %109) #24
  unreachable
}

; Function Attrs: sspstrong uwtable
define weak_odr dso_local void @_ZN6dealii10QuadratureILi3EEC2ERKNS_5PointILi3EEE(ptr noundef nonnull align 8 dereferenceable(128) %0, ptr noundef nonnull align 8 dereferenceable(24) %1) unnamed_addr #0 comdat($_ZN6dealii10QuadratureILi3EEC5ERKNS_5PointILi3EEE) align 2 personality ptr @__gxx_personality_v0 {
  tail call void @_ZN6dealii11SubscriptorC2Ev(ptr noundef nonnull align 8 dereferenceable(72) %0)
  store ptr getelementptr inbounds ({ [4 x ptr] }, ptr @_ZTVN6dealii10QuadratureILi3EEE, i64 0, inrange i32 0, i64 2), ptr %0, align 8, !tbaa !5
  %3 = getelementptr inbounds %"class.dealii::Quadrature.16", ptr %0, i64 0, i32 1
  store i32 1, ptr %3, align 8, !tbaa !103
  %4 = getelementptr inbounds %"class.dealii::Quadrature.16", ptr %0, i64 0, i32 2
  tail call void @llvm.memset.p0.i64(ptr noundef nonnull align 8 dereferenceable(24) %4, i8 0, i64 24, i1 false)
  %5 = invoke noalias noundef nonnull dereferenceable(24) ptr @_Znwm(i64 noundef 24) #22
          to label %6 unwind label %20

6:                                                ; preds = %2
  store ptr %5, ptr %4, align 8, !tbaa !109
  %7 = getelementptr inbounds %"class.dealii::Point.22", ptr %5, i64 1
  %8 = getelementptr inbounds %"class.dealii::Quadrature.16", ptr %0, i64 0, i32 2, i32 0, i32 0, i32 0, i32 2
  store ptr %7, ptr %8, align 8, !tbaa !110
  %9 = getelementptr inbounds [3 x double], ptr %1, i64 0, i64 2
  %10 = load double, ptr %9, align 8, !tbaa !33
  %11 = load <2 x double>, ptr %1, align 8, !tbaa !33
  store <2 x double> %11, ptr %5, align 8, !tbaa !33
  %12 = getelementptr inbounds [3 x double], ptr %5, i64 0, i64 2
  store double %10, ptr %12, align 8, !tbaa !33
  %13 = getelementptr inbounds %"class.dealii::Quadrature.16", ptr %0, i64 0, i32 2, i32 0, i32 0, i32 0, i32 1
  store ptr %7, ptr %13, align 8, !tbaa !111
  %14 = getelementptr inbounds %"class.dealii::Quadrature.16", ptr %0, i64 0, i32 3
  tail call void @llvm.memset.p0.i64(ptr noundef nonnull align 8 dereferenceable(24) %14, i8 0, i64 24, i1 false)
  %15 = invoke noalias noundef nonnull dereferenceable(8) ptr @_Znwm(i64 noundef 8) #22
          to label %16 unwind label %22

16:                                               ; preds = %6
  store ptr %15, ptr %14, align 8, !tbaa !36
  %17 = getelementptr inbounds double, ptr %15, i64 1
  %18 = getelementptr inbounds %"class.dealii::Quadrature.16", ptr %0, i64 0, i32 3, i32 0, i32 0, i32 0, i32 2
  store ptr %17, ptr %18, align 8, !tbaa !37
  store double 1.000000e+00, ptr %15, align 8, !tbaa !33
  %19 = getelementptr inbounds %"class.dealii::Quadrature.16", ptr %0, i64 0, i32 3, i32 0, i32 0, i32 0, i32 1
  store ptr %17, ptr %19, align 8, !tbaa !38
  ret void

20:                                               ; preds = %2
  %21 = landingpad { ptr, i32 }
          cleanup
  br label %24

22:                                               ; preds = %6
  %23 = landingpad { ptr, i32 }
          cleanup
  tail call void @_ZdlPv(ptr noundef nonnull %5) #23
  br label %24

24:                                               ; preds = %22, %20
  %25 = phi { ptr, i32 } [ %23, %22 ], [ %21, %20 ]
  invoke void @_ZN6dealii11SubscriptorD2Ev(ptr noundef nonnull align 8 dereferenceable(72) %0)
          to label %26 unwind label %27

26:                                               ; preds = %24
  resume { ptr, i32 } %25

27:                                               ; preds = %24
  %28 = landingpad { ptr, i32 }
          catch ptr null
  %29 = extractvalue { ptr, i32 } %28, 0
  tail call void @__clang_call_terminate(ptr %29) #24
  unreachable
}

; Function Attrs: sspstrong uwtable
define weak_odr dso_local noundef nonnull align 8 dereferenceable(128) ptr @_ZN6dealii10QuadratureILi3EEaSERKS1_(ptr noundef nonnull align 8 dereferenceable(128) %0, ptr noundef nonnull align 8 dereferenceable(128) %1) local_unnamed_addr #0 comdat align 2 {
  %3 = getelementptr inbounds %"class.dealii::Quadrature.16", ptr %1, i64 0, i32 3
  %4 = getelementptr inbounds %"class.dealii::Quadrature.16", ptr %0, i64 0, i32 3
  %5 = tail call noundef nonnull align 8 dereferenceable(24) ptr @_ZNSt6vectorIdSaIdEEaSERKS1_(ptr noundef nonnull align 8 dereferenceable(24) %4, ptr noundef nonnull align 8 dereferenceable(24) %3)
  %6 = getelementptr inbounds %"class.dealii::Quadrature.16", ptr %1, i64 0, i32 2
  %7 = getelementptr inbounds %"class.dealii::Quadrature.16", ptr %0, i64 0, i32 2
  %8 = tail call noundef nonnull align 8 dereferenceable(24) ptr @_ZNSt6vectorIN6dealii5PointILi3EEESaIS2_EEaSERKS4_(ptr noundef nonnull align 8 dereferenceable(24) %7, ptr noundef nonnull align 8 dereferenceable(24) %6)
  %9 = getelementptr inbounds %"class.dealii::Quadrature.16", ptr %1, i64 0, i32 3, i32 0, i32 0, i32 0, i32 1
  %10 = load ptr, ptr %9, align 8, !tbaa !38
  %11 = load ptr, ptr %3, align 8, !tbaa !36
  %12 = ptrtoint ptr %10 to i64
  %13 = ptrtoint ptr %11 to i64
  %14 = sub i64 %12, %13
  %15 = lshr exact i64 %14, 3
  %16 = trunc i64 %15 to i32
  %17 = getelementptr inbounds %"class.dealii::Quadrature.16", ptr %0, i64 0, i32 1
  store i32 %16, ptr %17, align 8, !tbaa !103
  ret ptr %0
}

; Function Attrs: sspstrong uwtable
define linkonce_odr dso_local noundef nonnull align 8 dereferenceable(24) ptr @_ZNSt6vectorIN6dealii5PointILi3EEESaIS2_EEaSERKS4_(ptr noundef nonnull align 8 dereferenceable(24) %0, ptr noundef nonnull align 8 dereferenceable(24) %1) local_unnamed_addr #0 comdat align 2 personality ptr @__gxx_personality_v0 {
  %3 = icmp eq ptr %1, %0
  br i1 %3, label %109, label %4

4:                                                ; preds = %2
  %5 = getelementptr inbounds %"struct.std::_Vector_base<dealii::Point<3>, std::allocator<dealii::Point<3> > >::_Vector_impl_data", ptr %1, i64 0, i32 1
  %6 = load ptr, ptr %5, align 8, !tbaa !40
  %7 = load ptr, ptr %1, align 8, !tbaa !40
  %8 = ptrtoint ptr %6 to i64
  %9 = ptrtoint ptr %7 to i64
  %10 = sub i64 %8, %9
  %11 = sdiv exact i64 %10, 24
  %12 = getelementptr inbounds %"struct.std::_Vector_base<dealii::Point<3>, std::allocator<dealii::Point<3> > >::_Vector_impl_data", ptr %0, i64 0, i32 2
  %13 = load ptr, ptr %12, align 8, !tbaa !110
  %14 = load ptr, ptr %0, align 8, !tbaa !40
  %15 = ptrtoint ptr %13 to i64
  %16 = ptrtoint ptr %14 to i64
  %17 = sub i64 %15, %16
  %18 = sdiv exact i64 %17, 24
  %19 = icmp ugt i64 %11, %18
  br i1 %19, label %20, label %44

20:                                               ; preds = %4
  %21 = icmp ugt i64 %11, 384307168202282325
  br i1 %21, label %22, label %23, !prof !39

22:                                               ; preds = %20
  tail call void @_ZSt28__throw_bad_array_new_lengthv() #26
  unreachable

23:                                               ; preds = %20
  %24 = tail call noalias noundef nonnull ptr @_Znwm(i64 noundef %10) #22
  %25 = icmp eq ptr %7, %6
  br i1 %25, label %39, label %26

26:                                               ; preds = %23, %26
  %27 = phi ptr [ %37, %26 ], [ %24, %23 ]
  %28 = phi ptr [ %36, %26 ], [ %7, %23 ]
  %29 = load double, ptr %28, align 8, !tbaa !33
  store double %29, ptr %27, align 8, !tbaa !33
  %30 = getelementptr inbounds [3 x double], ptr %28, i64 0, i64 1
  %31 = load double, ptr %30, align 8, !tbaa !33
  %32 = getelementptr inbounds [3 x double], ptr %27, i64 0, i64 1
  store double %31, ptr %32, align 8, !tbaa !33
  %33 = getelementptr inbounds [3 x double], ptr %28, i64 0, i64 2
  %34 = load double, ptr %33, align 8, !tbaa !33
  %35 = getelementptr inbounds [3 x double], ptr %27, i64 0, i64 2
  store double %34, ptr %35, align 8, !tbaa !33
  %36 = getelementptr inbounds %"class.dealii::Point.22", ptr %28, i64 1
  %37 = getelementptr inbounds %"class.dealii::Point.22", ptr %27, i64 1
  %38 = icmp eq ptr %36, %6
  br i1 %38, label %39, label %26

39:                                               ; preds = %26, %23
  %40 = icmp eq ptr %14, null
  br i1 %40, label %42, label %41

41:                                               ; preds = %39
  tail call void @_ZdlPv(ptr noundef nonnull %14) #23
  br label %42

42:                                               ; preds = %39, %41
  store ptr %24, ptr %0, align 8, !tbaa !109
  %43 = getelementptr inbounds %"class.dealii::Point.22", ptr %24, i64 %11
  store ptr %43, ptr %12, align 8, !tbaa !110
  br label %105

44:                                               ; preds = %4
  %45 = getelementptr inbounds %"struct.std::_Vector_base<dealii::Point<3>, std::allocator<dealii::Point<3> > >::_Vector_impl_data", ptr %0, i64 0, i32 1
  %46 = load ptr, ptr %45, align 8, !tbaa !111
  %47 = ptrtoint ptr %46 to i64
  %48 = sub i64 %47, %16
  %49 = sdiv exact i64 %48, 24
  %50 = icmp ult i64 %49, %11
  br i1 %50, label %70, label %51

51:                                               ; preds = %44
  %52 = icmp sgt i64 %10, 0
  br i1 %52, label %53, label %105

53:                                               ; preds = %51
  %54 = udiv exact i64 %10, 24
  br label %55

55:                                               ; preds = %55, %53
  %56 = phi i64 [ %68, %55 ], [ %54, %53 ]
  %57 = phi ptr [ %67, %55 ], [ %14, %53 ]
  %58 = phi ptr [ %66, %55 ], [ %7, %53 ]
  %59 = load double, ptr %58, align 8, !tbaa !33
  store double %59, ptr %57, align 8, !tbaa !33
  %60 = getelementptr inbounds [3 x double], ptr %58, i64 0, i64 1
  %61 = load double, ptr %60, align 8, !tbaa !33
  %62 = getelementptr inbounds [3 x double], ptr %57, i64 0, i64 1
  store double %61, ptr %62, align 8, !tbaa !33
  %63 = getelementptr inbounds [3 x double], ptr %58, i64 0, i64 2
  %64 = load double, ptr %63, align 8, !tbaa !33
  %65 = getelementptr inbounds [3 x double], ptr %57, i64 0, i64 2
  store double %64, ptr %65, align 8, !tbaa !33
  %66 = getelementptr inbounds %"class.dealii::Point.22", ptr %58, i64 1
  %67 = getelementptr inbounds %"class.dealii::Point.22", ptr %57, i64 1
  %68 = add nsw i64 %56, -1
  %69 = icmp ugt i64 %56, 1
  br i1 %69, label %55, label %105

70:                                               ; preds = %44
  %71 = getelementptr inbounds %"class.dealii::Point.22", ptr %7, i64 %49
  %72 = icmp sgt i64 %48, 0
  br i1 %72, label %73, label %90

73:                                               ; preds = %70
  %74 = udiv exact i64 %48, 24
  br label %75

75:                                               ; preds = %75, %73
  %76 = phi i64 [ %88, %75 ], [ %74, %73 ]
  %77 = phi ptr [ %87, %75 ], [ %14, %73 ]
  %78 = phi ptr [ %86, %75 ], [ %7, %73 ]
  %79 = load double, ptr %78, align 8, !tbaa !33
  store double %79, ptr %77, align 8, !tbaa !33
  %80 = getelementptr inbounds [3 x double], ptr %78, i64 0, i64 1
  %81 = load double, ptr %80, align 8, !tbaa !33
  %82 = getelementptr inbounds [3 x double], ptr %77, i64 0, i64 1
  store double %81, ptr %82, align 8, !tbaa !33
  %83 = getelementptr inbounds [3 x double], ptr %78, i64 0, i64 2
  %84 = load double, ptr %83, align 8, !tbaa !33
  %85 = getelementptr inbounds [3 x double], ptr %77, i64 0, i64 2
  store double %84, ptr %85, align 8, !tbaa !33
  %86 = getelementptr inbounds %"class.dealii::Point.22", ptr %78, i64 1
  %87 = getelementptr inbounds %"class.dealii::Point.22", ptr %77, i64 1
  %88 = add nsw i64 %76, -1
  %89 = icmp ugt i64 %76, 1
  br i1 %89, label %75, label %90

90:                                               ; preds = %75, %70
  %91 = icmp eq ptr %71, %6
  br i1 %91, label %105, label %92

92:                                               ; preds = %90, %92
  %93 = phi ptr [ %103, %92 ], [ %46, %90 ]
  %94 = phi ptr [ %102, %92 ], [ %71, %90 ]
  %95 = load double, ptr %94, align 8, !tbaa !33
  store double %95, ptr %93, align 8, !tbaa !33
  %96 = getelementptr inbounds [3 x double], ptr %94, i64 0, i64 1
  %97 = load double, ptr %96, align 8, !tbaa !33
  %98 = getelementptr inbounds [3 x double], ptr %93, i64 0, i64 1
  store double %97, ptr %98, align 8, !tbaa !33
  %99 = getelementptr inbounds [3 x double], ptr %94, i64 0, i64 2
  %100 = load double, ptr %99, align 8, !tbaa !33
  %101 = getelementptr inbounds [3 x double], ptr %93, i64 0, i64 2
  store double %100, ptr %101, align 8, !tbaa !33
  %102 = getelementptr inbounds %"class.dealii::Point.22", ptr %94, i64 1
  %103 = getelementptr inbounds %"class.dealii::Point.22", ptr %93, i64 1
  %104 = icmp eq ptr %102, %6
  br i1 %104, label %105, label %92

105:                                              ; preds = %55, %92, %51, %90, %42
  %106 = load ptr, ptr %0, align 8, !tbaa !109
  %107 = getelementptr inbounds %"class.dealii::Point.22", ptr %106, i64 %11
  %108 = getelementptr inbounds %"struct.std::_Vector_base<dealii::Point<3>, std::allocator<dealii::Point<3> > >::_Vector_impl_data", ptr %0, i64 0, i32 1
  store ptr %107, ptr %108, align 8, !tbaa !111
  br label %109

109:                                              ; preds = %105, %2
  ret ptr %0
}

; Function Attrs: sspstrong uwtable
define weak_odr dso_local void @_ZN6dealii10QuadratureILi3EED0Ev(ptr noundef nonnull align 8 dereferenceable(128) %0) unnamed_addr #0 comdat($_ZN6dealii10QuadratureILi3EED5Ev) align 2 personality ptr @__gxx_personality_v0 {
  store ptr getelementptr inbounds ({ [4 x ptr] }, ptr @_ZTVN6dealii10QuadratureILi3EEE, i64 0, inrange i32 0, i64 2), ptr %0, align 8, !tbaa !5
  %2 = getelementptr inbounds %"class.dealii::Quadrature.16", ptr %0, i64 0, i32 3
  %3 = load ptr, ptr %2, align 8, !tbaa !36
  %4 = icmp eq ptr %3, null
  br i1 %4, label %6, label %5

5:                                                ; preds = %1
  tail call void @_ZdlPv(ptr noundef nonnull %3) #23
  br label %6

6:                                                ; preds = %5, %1
  %7 = getelementptr inbounds %"class.dealii::Quadrature.16", ptr %0, i64 0, i32 2
  %8 = load ptr, ptr %7, align 8, !tbaa !109
  %9 = icmp eq ptr %8, null
  br i1 %9, label %11, label %10

10:                                               ; preds = %6
  tail call void @_ZdlPv(ptr noundef nonnull %8) #23
  br label %11

11:                                               ; preds = %10, %6
  invoke void @_ZN6dealii11SubscriptorD2Ev(ptr noundef nonnull align 8 dereferenceable(72) %0)
          to label %12 unwind label %13

12:                                               ; preds = %11
  tail call void @_ZdlPv(ptr noundef nonnull %0) #23
  ret void

13:                                               ; preds = %11
  %14 = landingpad { ptr, i32 }
          cleanup
  tail call void @_ZdlPv(ptr noundef nonnull %0) #23
  resume { ptr, i32 } %14
}

; Function Attrs: inlinehint sspstrong uwtable
define weak_odr dso_local noundef nonnull align 8 dereferenceable(24) ptr @_ZNK6dealii10QuadratureILi3EE5pointEj(ptr noundef nonnull align 8 dereferenceable(128) %0, i32 noundef %1) local_unnamed_addr #4 comdat align 2 {
  %3 = getelementptr inbounds %"class.dealii::Quadrature.16", ptr %0, i64 0, i32 2
  %4 = zext i32 %1 to i64
  %5 = load ptr, ptr %3, align 8, !tbaa !109
  %6 = getelementptr inbounds %"class.dealii::Point.22", ptr %5, i64 %4
  ret ptr %6
}

; Function Attrs: nounwind sspstrong uwtable
define weak_odr dso_local noundef nonnull align 8 dereferenceable(24) ptr @_ZNK6dealii10QuadratureILi3EE10get_pointsEv(ptr noundef nonnull align 8 dereferenceable(128) %0) local_unnamed_addr #6 comdat align 2 {
  %2 = getelementptr inbounds %"class.dealii::Quadrature.16", ptr %0, i64 0, i32 2
  ret ptr %2
}

; Function Attrs: sspstrong uwtable
define weak_odr dso_local noundef double @_ZNK6dealii10QuadratureILi3EE6weightEj(ptr noundef nonnull align 8 dereferenceable(128) %0, i32 noundef %1) local_unnamed_addr #0 comdat align 2 {
  %3 = getelementptr inbounds %"class.dealii::Quadrature.16", ptr %0, i64 0, i32 3
  %4 = zext i32 %1 to i64
  %5 = load ptr, ptr %3, align 8, !tbaa !36
  %6 = getelementptr inbounds double, ptr %5, i64 %4
  %7 = load double, ptr %6, align 8, !tbaa !33
  ret double %7
}

; Function Attrs: nounwind sspstrong uwtable
define weak_odr dso_local noundef nonnull align 8 dereferenceable(24) ptr @_ZNK6dealii10QuadratureILi3EE11get_weightsEv(ptr noundef nonnull align 8 dereferenceable(128) %0) local_unnamed_addr #6 comdat align 2 {
  %2 = getelementptr inbounds %"class.dealii::Quadrature.16", ptr %0, i64 0, i32 3
  ret ptr %2
}

; Function Attrs: sspstrong uwtable
define weak_odr dso_local noundef i32 @_ZNK6dealii10QuadratureILi3EE18memory_consumptionEv(ptr noundef nonnull align 8 dereferenceable(128) %0) local_unnamed_addr #0 comdat align 2 {
  %2 = getelementptr inbounds %"class.dealii::Quadrature.16", ptr %0, i64 0, i32 2
  %3 = getelementptr inbounds %"class.dealii::Quadrature.16", ptr %0, i64 0, i32 2, i32 0, i32 0, i32 0, i32 1
  %4 = load ptr, ptr %3, align 8, !tbaa !111
  %5 = load ptr, ptr %2, align 8, !tbaa !109
  %6 = ptrtoint ptr %4 to i64
  %7 = ptrtoint ptr %5 to i64
  %8 = sub i64 %6, %7
  %9 = sdiv exact i64 %8, 24
  %10 = trunc i64 %9 to i32
  %11 = getelementptr inbounds %"class.dealii::Quadrature.16", ptr %0, i64 0, i32 2, i32 0, i32 0, i32 0, i32 2
  %12 = load ptr, ptr %11, align 8, !tbaa !110
  %13 = ptrtoint ptr %12 to i64
  %14 = sub i64 %13, %7
  %15 = sdiv exact i64 %14, 24
  %16 = sub nsw i64 %15, %9
  %17 = trunc i64 %16 to i32
  %18 = getelementptr inbounds %"class.dealii::Quadrature.16", ptr %0, i64 0, i32 3
  %19 = getelementptr inbounds %"class.dealii::Quadrature.16", ptr %0, i64 0, i32 3, i32 0, i32 0, i32 0, i32 2
  %20 = load ptr, ptr %19, align 8, !tbaa !37
  %21 = load ptr, ptr %18, align 8, !tbaa !36
  %22 = ptrtoint ptr %20 to i64
  %23 = ptrtoint ptr %21 to i64
  %24 = sub i64 %22, %23
  %25 = trunc i64 %24 to i32
  %26 = and i32 %25, -8
  %27 = add i32 %17, %10
  %28 = mul i32 %27, 24
  %29 = add i32 %26, 48
  %30 = add i32 %29, %28
  ret i32 %30
}

; Function Attrs: sspstrong uwtable
define weak_odr dso_local void @_ZN6dealii12QAnisotropicILi1EEC2ERKNS_10QuadratureILi1EEE(ptr noundef nonnull align 8 dereferenceable(128) %0, ptr noundef nonnull align 8 dereferenceable(128) %1) unnamed_addr #0 comdat($_ZN6dealii12QAnisotropicILi1EEC5ERKNS_10QuadratureILi1EEE) align 2 personality ptr @__gxx_personality_v0 {
  %3 = getelementptr inbounds %"class.dealii::Quadrature", ptr %1, i64 0, i32 3
  %4 = getelementptr inbounds %"class.dealii::Quadrature", ptr %1, i64 0, i32 3, i32 0, i32 0, i32 0, i32 1
  %5 = load ptr, ptr %4, align 8, !tbaa !38
  %6 = load ptr, ptr %3, align 8, !tbaa !36
  %7 = ptrtoint ptr %5 to i64
  %8 = ptrtoint ptr %6 to i64
  %9 = sub i64 %7, %8
  %10 = lshr exact i64 %9, 3
  %11 = trunc i64 %10 to i32
  tail call void @_ZN6dealii10QuadratureILi1EEC2Ej(ptr noundef nonnull align 8 dereferenceable(128) %0, i32 noundef %11)
  store ptr getelementptr inbounds ({ [4 x ptr] }, ptr @_ZTVN6dealii12QAnisotropicILi1EEE, i64 0, inrange i32 0, i64 2), ptr %0, align 8, !tbaa !5
  %12 = load ptr, ptr %4, align 8, !tbaa !38
  %13 = load ptr, ptr %3, align 8, !tbaa !36
  %14 = ptrtoint ptr %12 to i64
  %15 = ptrtoint ptr %13 to i64
  %16 = sub i64 %14, %15
  %17 = and i64 %16, 34359738360
  %18 = icmp eq i64 %17, 0
  br i1 %18, label %85, label %19

19:                                               ; preds = %2
  %20 = lshr exact i64 %16, 3
  %21 = getelementptr inbounds %"class.dealii::Quadrature", ptr %1, i64 0, i32 2
  %22 = load ptr, ptr %21, align 8, !tbaa !31
  %23 = getelementptr inbounds %"class.dealii::Quadrature", ptr %0, i64 0, i32 2
  %24 = load ptr, ptr %23, align 8, !tbaa !31
  %25 = getelementptr inbounds %"class.dealii::Quadrature", ptr %0, i64 0, i32 3
  %26 = load ptr, ptr %25, align 8, !tbaa !36
  %27 = and i64 %20, 4294967295
  %28 = icmp ult i64 %27, 24
  br i1 %28, label %68, label %29

29:                                               ; preds = %19
  %30 = ptrtoint ptr %26 to i64
  %31 = ptrtoint ptr %24 to i64
  %32 = ptrtoint ptr %22 to i64
  %33 = sub i64 %30, %31
  %34 = icmp ult i64 %33, 64
  %35 = sub i64 %31, %32
  %36 = icmp ult i64 %35, 64
  %37 = or i1 %34, %36
  %38 = sub i64 %15, %31
  %39 = icmp ult i64 %38, 64
  %40 = or i1 %37, %39
  %41 = sub i64 %30, %32
  %42 = icmp ult i64 %41, 64
  %43 = or i1 %40, %42
  %44 = sub i64 %30, %15
  %45 = icmp ult i64 %44, 64
  %46 = or i1 %43, %45
  br i1 %46, label %68, label %47

47:                                               ; preds = %29
  %48 = and i64 %20, 7
  %49 = sub nsw i64 %27, %48
  br label %50

50:                                               ; preds = %50, %47
  %51 = phi i64 [ 0, %47 ], [ %64, %50 ]
  %52 = getelementptr inbounds %"class.dealii::Point", ptr %22, i64 %51
  %53 = load <4 x double>, ptr %52, align 8, !tbaa !33
  %54 = getelementptr inbounds double, ptr %52, i64 4
  %55 = load <4 x double>, ptr %54, align 8, !tbaa !33
  %56 = getelementptr inbounds %"class.dealii::Point", ptr %24, i64 %51
  store <4 x double> %53, ptr %56, align 8, !tbaa !33
  %57 = getelementptr inbounds double, ptr %56, i64 4
  store <4 x double> %55, ptr %57, align 8, !tbaa !33
  %58 = getelementptr inbounds double, ptr %13, i64 %51
  %59 = load <4 x double>, ptr %58, align 8, !tbaa !33
  %60 = getelementptr inbounds double, ptr %58, i64 4
  %61 = load <4 x double>, ptr %60, align 8, !tbaa !33
  %62 = getelementptr inbounds double, ptr %26, i64 %51
  store <4 x double> %59, ptr %62, align 8, !tbaa !33
  %63 = getelementptr inbounds double, ptr %62, i64 4
  store <4 x double> %61, ptr %63, align 8, !tbaa !33
  %64 = add nuw i64 %51, 8
  %65 = icmp eq i64 %64, %49
  br i1 %65, label %66, label %50, !llvm.loop !146

66:                                               ; preds = %50
  %67 = icmp eq i64 %48, 0
  br i1 %67, label %85, label %68

68:                                               ; preds = %29, %19, %66
  %69 = phi i64 [ 0, %29 ], [ 0, %19 ], [ %49, %66 ]
  %70 = sub nsw i64 %20, %69
  %71 = add nsw i64 %69, 1
  %72 = and i64 %70, 1
  %73 = icmp eq i64 %72, 0
  br i1 %73, label %82, label %74

74:                                               ; preds = %68
  %75 = getelementptr inbounds %"class.dealii::Point", ptr %22, i64 %69
  %76 = load double, ptr %75, align 8, !tbaa !33
  %77 = getelementptr inbounds %"class.dealii::Point", ptr %24, i64 %69
  store double %76, ptr %77, align 8, !tbaa !33
  %78 = getelementptr inbounds double, ptr %13, i64 %69
  %79 = load double, ptr %78, align 8, !tbaa !33
  %80 = add nuw nsw i64 %69, 1
  %81 = getelementptr inbounds double, ptr %26, i64 %69
  store double %79, ptr %81, align 8, !tbaa !33
  br label %82

82:                                               ; preds = %74, %68
  %83 = phi i64 [ %69, %68 ], [ %80, %74 ]
  %84 = icmp eq i64 %27, %71
  br i1 %84, label %85, label %86

85:                                               ; preds = %82, %86, %66, %2
  ret void

86:                                               ; preds = %82, %86
  %87 = phi i64 [ %100, %86 ], [ %83, %82 ]
  %88 = getelementptr inbounds %"class.dealii::Point", ptr %22, i64 %87
  %89 = load double, ptr %88, align 8, !tbaa !33
