; ModuleID = 'dwarf2out.c'
source_filename = "dwarf2out.c"
target datalayout = "e-m:e-p270:32:32-p271:32:32-p272:64:64-i64:64-f80:128-n8:16:32:64-S128"
target triple = "x86_64-pc-linux-gnu"

%struct.gcc_target = type { %struct.asm_out, %struct.sched, %struct.vectorize, i32, ptr, ptr, ptr, ptr, ptr, ptr, ptr, ptr, ptr, ptr, ptr, ptr, ptr, ptr, ptr, ptr, ptr, ptr, ptr, ptr, ptr, ptr, ptr, ptr, ptr, ptr, ptr, ptr, ptr, ptr, ptr, ptr, ptr, ptr, ptr, ptr, ptr, ptr, ptr, i64, i64, ptr, ptr, ptr, ptr, ptr, ptr, ptr, ptr, ptr, ptr, ptr, ptr, %struct.addr_space, ptr, ptr, ptr, ptr, ptr, ptr, ptr, ptr, ptr, ptr, ptr, ptr, ptr, ptr, ptr, ptr, ptr, ptr, ptr, ptr, ptr, ptr, ptr, ptr, ptr, ptr, ptr, ptr, ptr, i64, %struct.calls, ptr, ptr, ptr, ptr, ptr, ptr, ptr, ptr, ptr, ptr, ptr, ptr, ptr, ptr, ptr, %struct.c, %struct.cxx, %struct.emutls, %struct.target_option_hooks, ptr, i8, i8, i8, i8, i8, i8, i8, i8, i8, i8, i8, i8 }
%struct.asm_out = type { ptr, ptr, ptr, %struct.asm_int_op, %struct.asm_int_op, ptr, ptr, ptr, ptr, ptr, ptr, ptr, ptr, ptr, ptr, ptr, ptr, ptr, ptr, ptr, ptr, ptr, ptr, ptr, ptr, ptr, ptr, ptr, ptr, ptr, ptr, ptr, ptr, ptr, ptr, ptr, ptr, ptr, ptr, ptr }
%struct.asm_int_op = type { ptr, ptr, ptr, ptr }
%struct.sched = type { ptr, ptr, ptr, ptr, ptr, ptr, ptr, ptr, ptr, ptr, ptr, ptr, ptr, ptr, ptr, ptr, ptr, ptr, ptr, ptr, ptr, ptr, ptr, ptr, ptr, ptr, ptr, ptr, ptr, ptr, ptr, ptr, ptr, ptr, ptr, ptr, ptr }
%struct.vectorize = type { ptr, ptr, ptr, ptr, ptr, ptr, ptr, ptr, ptr, ptr }
%struct.addr_space = type { ptr, ptr, ptr, ptr, ptr, ptr, ptr }
%struct.calls = type { ptr, ptr, ptr, ptr, ptr, ptr, ptr, ptr, ptr, ptr, ptr, ptr, ptr, ptr, ptr, ptr, ptr, ptr, ptr, ptr, ptr, ptr, ptr, ptr }
%struct.c = type { ptr }
%struct.cxx = type { ptr, ptr, ptr, ptr, ptr, ptr, ptr, ptr, ptr, ptr, ptr, ptr, ptr }
%struct.emutls = type { ptr, ptr, ptr, ptr, ptr, ptr, ptr, ptr, i8, i8 }
%struct.target_option_hooks = type { ptr, ptr, ptr, ptr, ptr, ptr }
%struct.cfa_loc = type { i64, i64, i32, i8 }
%struct.reg_saved_in_data = type { ptr, ptr }
%struct.rtl_data = type { %struct.expr_status, %struct.emit_status, %struct.varasm_status, %struct.incoming_args, %struct.function_subsections, %struct.rtl_eh, i32, ptr, ptr, ptr, ptr, ptr, ptr, ptr, ptr, ptr, ptr, i64, ptr, ptr, ptr, i32, i32, i32, i32, i32, i32, ptr, i8, i8, i8, i8, i8, i8, i8, i8, i8, i8, i8, i8, i8, i8, i8, i8, i8, i8, i8, i8, i8, i8 }
%struct.expr_status = type { i32, i32, i32, ptr, ptr, ptr }
%struct.emit_status = type { i32, i32, ptr, ptr, ptr, i32, i32, i32, i32, ptr }
%struct.varasm_status = type { ptr, i32 }
%struct.incoming_args = type { i32, i32, i32, ptr, %struct.ix86_args, ptr }
%struct.ix86_args = type { i32, i32, i32, i32, i32, i32, i32, i32, i32, i32, i32, i32, i32, i32, i32, i32 }
%struct.function_subsections = type { ptr, ptr, ptr, ptr, ptr }
%struct.rtl_eh = type { ptr, ptr, ptr, ptr, ptr, ptr, [2 x ptr] }
%struct.gcc_debug_hooks = type { ptr, ptr, ptr, ptr, ptr, ptr, ptr, ptr, ptr, ptr, ptr, ptr, ptr, ptr, ptr, ptr, ptr, ptr, ptr, ptr, ptr, ptr, ptr, ptr, ptr, ptr, ptr, ptr, ptr, ptr, ptr, i32 }
%struct.lang_hooks = type { ptr, i64, ptr, ptr, ptr, ptr, ptr, ptr, ptr, ptr, ptr, ptr, ptr, ptr, ptr, ptr, ptr, ptr, ptr, ptr, ptr, ptr, ptr, ptr, ptr, ptr, ptr, ptr, ptr, ptr, %struct.lang_hooks_for_tree_inlining, %struct.lang_hooks_for_callgraph, %struct.lang_hooks_for_tree_dump, %struct.lang_hooks_for_decls, %struct.lang_hooks_for_types, %struct.lang_hooks_for_lto, ptr, ptr, ptr, ptr, ptr, ptr, ptr, ptr, ptr, ptr, ptr, i8 }
%struct.lang_hooks_for_tree_inlining = type { ptr }
%struct.lang_hooks_for_callgraph = type { ptr }
%struct.lang_hooks_for_tree_dump = type { ptr, ptr }
%struct.lang_hooks_for_decls = type { ptr, ptr, ptr, ptr, ptr, ptr, ptr, ptr, ptr, ptr, ptr, ptr, ptr, ptr, ptr, ptr, ptr, ptr, ptr, ptr }
%struct.lang_hooks_for_types = type { ptr, ptr, ptr, ptr, ptr, ptr, ptr, ptr, ptr, ptr, ptr, ptr, ptr, ptr, ptr, i8 }
%struct.lang_hooks_for_lto = type { ptr, ptr, ptr }
%struct.ggc_root_tab = type { ptr, i64, i64, ptr, ptr }
%struct._IO_FILE = type { i32, ptr, ptr, ptr, ptr, ptr, ptr, ptr, ptr, ptr, ptr, ptr, ptr, ptr, i32, i32, i64, i16, i8, [1 x i8], ptr, i64, ptr, ptr, ptr, ptr, i64, i32, [20 x i8] }
%struct.tree_type = type { %struct.tree_common, ptr, ptr, ptr, ptr, i32, i32, i32, i32, ptr, ptr, %union.tree_type_symtab, ptr, ptr, ptr, ptr, ptr, ptr, ptr, ptr, ptr }
%struct.tree_common = type { %struct.tree_base, ptr, ptr }
%struct.tree_base = type { i64 }
%union.tree_type_symtab = type { ptr }
%struct.dw_fde_struct = type { ptr, ptr, ptr, ptr, ptr, ptr, ptr, ptr, ptr, ptr, i32, i64, i32, i32, i16 }
%struct.dw_cfi_struct = type { ptr, i32, %union.dw_cfi_oprnd_struct, %union.dw_cfi_oprnd_struct }
%union.dw_cfi_oprnd_struct = type { i64 }
%struct.dw_loc_descr_struct = type { ptr, i16, i32, %struct.dw_val_struct, %struct.dw_val_struct }
%struct.dw_val_struct = type { i32, %union.dw_val_struct_union }
%union.dw_val_struct_union = type { %struct.double_int }
%struct.double_int = type { i64, i64 }
%struct.queued_reg_save = type { ptr, ptr, i64, ptr }
%struct.rtx_def = type { i32, %union.u }
%union.u = type { %struct.block_symbol }
%struct.block_symbol = type { [3 x %union.rtunion_def], ptr, i64 }
%union.rtunion_def = type { ptr }
%struct.rtvec_def = type { i32, [1 x ptr] }
%struct.VEC_rtx_base = type { i32, i32, [1 x ptr] }
%struct.function = type { ptr, ptr, ptr, ptr, ptr, ptr, ptr, ptr, ptr, ptr, ptr, ptr, ptr, i32, i32, i32, i32, i32, i32, ptr, i32 }
%struct.dwarf_file_data = type { ptr, i32 }
%struct.tree_identifier = type { %struct.tree_common, %struct.ht_identifier }
%struct.ht_identifier = type { ptr, i32, i32 }
%struct.VEC_dw_cfi_ref_base = type { i32, i32, [1 x ptr] }
%struct.cu_hash_table_entry = type { ptr, i32, i32, ptr }
%struct.VEC_die_arg_entry_base = type { i32, i32, [1 x %struct.die_arg_entry_struct] }
%struct.die_arg_entry_struct = type { ptr, ptr }
%struct.die_struct = type { i32, %union.die_symbol_or_type_node, ptr, ptr, ptr, ptr, ptr, i64, i64, i32, i32, i32 }
%union.die_symbol_or_type_node = type { ptr }
%struct.VEC_dw_attr_node_base = type { i32, i32, [1 x %struct.dw_attr_struct] }
%struct.dw_attr_struct = type { i32, %struct.dw_val_struct }
%struct.VEC_deferred_locations_base = type { i32, i32, [1 x %struct.deferred_locations_struct] }
%struct.deferred_locations_struct = type { ptr, ptr }
%struct.limbo_die_struct = type { ptr, ptr, ptr }
%struct.diagnostic_context = type { ptr, [12 x i32], i8, i8, [870 x i32], i8, i8, ptr, ptr, ptr, ptr, ptr, i32, i8 }
%struct.tree_decl_minimal = type { %struct.tree_common, i32, i32, ptr, ptr }
%struct.VEC_tree_base = type { i32, i32, [1 x ptr] }
%struct.comdat_type_struct = type { ptr, ptr, [8 x i8], ptr }
%struct.dw_ranges_struct = type { i32 }
%struct.VEC_dcall_entry_base = type { i32, i32, [1 x %struct.dcall_struct] }
%struct.dcall_struct = type { i32, ptr, ptr }
%struct.VEC_vcall_entry_base = type { i32, i32, [1 x %struct.vcall_struct] }
%struct.vcall_struct = type { i32, i32 }
%struct.dw_ranges_by_label_struct = type { ptr, ptr }
%struct.tree_block = type { %struct.tree_common, i32, i32, ptr, ptr, ptr, ptr, ptr, ptr, ptr }
%struct.tree_decl_common = type { %struct.tree_decl_minimal, ptr, i40, i32, ptr, ptr, ptr, ptr, ptr }
%struct.tree_decl_non_common = type { %struct.tree_decl_with_vis, ptr, ptr, ptr, ptr }
%struct.tree_decl_with_vis = type { %struct.tree_decl_with_rtl, ptr, ptr, ptr, i24 }
%struct.tree_decl_with_rtl = type { %struct.tree_decl_common, ptr }
%struct.tree_list = type { %struct.tree_common, ptr, ptr }
%struct.tree_function_decl = type { %struct.tree_decl_non_common, ptr, ptr, ptr, ptr, i32 }
%struct.var_loc_list_def = type { ptr, ptr, i32 }
%struct.var_loc_node = type { ptr, ptr, ptr }
%struct.tree_exp = type { %struct.tree_common, i32, ptr, [1 x ptr] }
%struct.tree_int_cst = type { %struct.tree_common, %struct.double_int }
%struct.vcall_insn = type { i32, i32 }
%struct.indirect_string_node = type { ptr, i32, i32, ptr }
%struct.dw_loc_list_struct = type { ptr, ptr, ptr, ptr, ptr, ptr }
%struct.VEC_pubname_entry_base = type { i32, i32, [1 x %struct.pubname_struct] }
%struct.pubname_struct = type { ptr, ptr }
%struct.skeleton_chain_struct = type { ptr, ptr, ptr }
%struct.md5_ctx = type { i32, i32, i32, i32, [2 x i32], i32, [128 x i8] }
%struct.tree_string = type { %struct.tree_common, i32, [1 x i8] }
%struct.tree_constructor = type { %struct.tree_common, ptr }
%struct.VEC_constructor_elt_base = type { i32, i32, [1 x %struct.constructor_elt_d] }
%struct.constructor_elt_d = type { ptr, ptr }
%struct.real_value = type { i32, [3 x i64] }
%struct.varpool_node = type { ptr, ptr, ptr, ptr, i32, i8 }
%struct.tree_parm_decl = type { %struct.tree_decl_with_rtl, ptr, ptr }
%struct.mem_attrs = type { ptr, ptr, ptr, i32, i32, i8 }
%struct.array_descr_info = type { i32, ptr, ptr, ptr, ptr, ptr, [10 x %struct.array_descr_dimen] }
%struct.array_descr_dimen = type { ptr, ptr, ptr }
%struct.tree_field_decl = type { %struct.tree_decl_common, ptr, ptr, ptr, ptr, ptr }
%struct.tree_binfo = type { %struct.tree_common, ptr, ptr, ptr, ptr, ptr, ptr, ptr, ptr, %struct.VEC_tree_none }
%struct.VEC_tree_none = type { %struct.VEC_tree_base }
%struct.expanded_location = type { ptr, i32, i32, i8 }
%struct.tree_vec = type { %struct.tree_common, i32, [1 x ptr] }
%struct.types_used_by_vars_entry = type { ptr, ptr }
%struct.checksum_attributes = type { ptr, ptr, ptr, ptr, ptr, ptr, ptr, ptr, ptr, ptr, ptr, ptr, ptr, ptr, ptr, ptr, ptr, ptr, ptr, ptr, ptr, ptr, ptr, ptr, ptr, ptr, ptr, ptr, ptr, ptr, ptr, ptr, ptr, ptr, ptr, ptr, ptr, ptr, ptr, ptr, ptr, ptr, ptr, ptr, ptr, ptr, ptr }
%struct.decl_table_entry = type { ptr, ptr }
%struct.htab = type { ptr, ptr, ptr, ptr, i64, i64, i64, i32, i32, ptr, ptr, ptr, ptr, ptr, i32 }

@stdout = external local_unnamed_addr global ptr, align 8
@stdin = external local_unnamed_addr global ptr, align 8
@write_symbols = external local_unnamed_addr global i32, align 4
@saved_do_cfi_asm = internal global i8 0, align 1
@flag_unwind_tables = external local_unnamed_addr global i32, align 4
@flag_exceptions = external local_unnamed_addr global i32, align 4
@flag_dwarf2_cfi_asm = external local_unnamed_addr global i32, align 4
@svr4_dbx_register_map = external local_unnamed_addr constant [53 x i32], align 16
@integer_types = external local_unnamed_addr global [11 x ptr], align 16
@mode_size = external local_unnamed_addr global [87 x i8], align 16
@reg_raw_mode = external local_unnamed_addr global [53 x i32], align 16
@targetm = external local_unnamed_addr global %struct.gcc_target, align 8
@dwarf2out_cfi_label.label = internal global [20 x i8] zeroinitializer, align 16
@.str = private unnamed_addr constant [16 x i8] c"<do not output>\00", align 1
@.str.1 = private unnamed_addr constant [7 x i8] c"*.%s%u\00", align 1
@.str.2 = private unnamed_addr constant [5 x i8] c"LCFI\00", align 1
@dwarf2out_cfi_label_num = internal global i64 0, align 8
@asm_out_file = external local_unnamed_addr global ptr, align 8
@.str.3 = private unnamed_addr constant [3 x i8] c":\0A\00", align 1
@cfa = internal global %struct.cfa_loc zeroinitializer, align 8
@cfa_store = internal unnamed_addr global %struct.cfa_loc zeroinitializer, align 8
@cie_cfi_head = internal global ptr null, align 8
@.str.4 = private unnamed_addr constant [12 x i8] c"dwarf2out.c\00", align 1
@.str.5 = private unnamed_addr constant [2 x i8] c"?\00", align 1
@.str.6 = private unnamed_addr constant [29 x i8] c"DW_LOC_OP %s not implemented\00", align 1
@.str.7 = private unnamed_addr constant [11 x i8] c"DW_OP_addr\00", align 1
@.str.8 = private unnamed_addr constant [12 x i8] c"DW_OP_deref\00", align 1
@.str.9 = private unnamed_addr constant [14 x i8] c"DW_OP_const1u\00", align 1
@.str.10 = private unnamed_addr constant [14 x i8] c"DW_OP_const1s\00", align 1
@.str.11 = private unnamed_addr constant [14 x i8] c"DW_OP_const2u\00", align 1
@.str.12 = private unnamed_addr constant [14 x i8] c"DW_OP_const2s\00", align 1
@.str.13 = private unnamed_addr constant [14 x i8] c"DW_OP_const4u\00", align 1
@.str.14 = private unnamed_addr constant [14 x i8] c"DW_OP_const4s\00", align 1
@.str.15 = private unnamed_addr constant [14 x i8] c"DW_OP_const8u\00", align 1
@.str.16 = private unnamed_addr constant [14 x i8] c"DW_OP_const8s\00", align 1
@.str.17 = private unnamed_addr constant [13 x i8] c"DW_OP_constu\00", align 1
@.str.18 = private unnamed_addr constant [13 x i8] c"DW_OP_consts\00", align 1
@.str.19 = private unnamed_addr constant [10 x i8] c"DW_OP_dup\00", align 1
@.str.20 = private unnamed_addr constant [11 x i8] c"DW_OP_drop\00", align 1
@.str.21 = private unnamed_addr constant [11 x i8] c"DW_OP_over\00", align 1
@.str.22 = private unnamed_addr constant [11 x i8] c"DW_OP_pick\00", align 1
@.str.23 = private unnamed_addr constant [11 x i8] c"DW_OP_swap\00", align 1
@.str.24 = private unnamed_addr constant [10 x i8] c"DW_OP_rot\00", align 1
@.str.25 = private unnamed_addr constant [13 x i8] c"DW_OP_xderef\00", align 1
@.str.26 = private unnamed_addr constant [10 x i8] c"DW_OP_abs\00", align 1
@.str.27 = private unnamed_addr constant [10 x i8] c"DW_OP_and\00", align 1
@.str.28 = private unnamed_addr constant [10 x i8] c"DW_OP_div\00", align 1
@.str.29 = private unnamed_addr constant [12 x i8] c"DW_OP_minus\00", align 1
@.str.30 = private unnamed_addr constant [10 x i8] c"DW_OP_mod\00", align 1
@.str.31 = private unnamed_addr constant [10 x i8] c"DW_OP_mul\00", align 1
@.str.32 = private unnamed_addr constant [10 x i8] c"DW_OP_neg\00", align 1
@.str.33 = private unnamed_addr constant [10 x i8] c"DW_OP_not\00", align 1
@.str.34 = private unnamed_addr constant [9 x i8] c"DW_OP_or\00", align 1
@.str.35 = private unnamed_addr constant [11 x i8] c"DW_OP_plus\00", align 1
@.str.36 = private unnamed_addr constant [18 x i8] c"DW_OP_plus_uconst\00", align 1
@.str.37 = private unnamed_addr constant [10 x i8] c"DW_OP_shl\00", align 1
@.str.38 = private unnamed_addr constant [10 x i8] c"DW_OP_shr\00", align 1
@.str.39 = private unnamed_addr constant [11 x i8] c"DW_OP_shra\00", align 1
@.str.40 = private unnamed_addr constant [10 x i8] c"DW_OP_xor\00", align 1
@.str.41 = private unnamed_addr constant [10 x i8] c"DW_OP_bra\00", align 1
@.str.42 = private unnamed_addr constant [9 x i8] c"DW_OP_eq\00", align 1
@.str.43 = private unnamed_addr constant [9 x i8] c"DW_OP_ge\00", align 1
@.str.44 = private unnamed_addr constant [9 x i8] c"DW_OP_gt\00", align 1
@.str.45 = private unnamed_addr constant [9 x i8] c"DW_OP_le\00", align 1
@.str.46 = private unnamed_addr constant [9 x i8] c"DW_OP_lt\00", align 1
@.str.47 = private unnamed_addr constant [9 x i8] c"DW_OP_ne\00", align 1
@.str.48 = private unnamed_addr constant [11 x i8] c"DW_OP_skip\00", align 1
@.str.49 = private unnamed_addr constant [11 x i8] c"DW_OP_lit0\00", align 1
@.str.50 = private unnamed_addr constant [11 x i8] c"DW_OP_lit1\00", align 1
@.str.51 = private unnamed_addr constant [11 x i8] c"DW_OP_lit2\00", align 1
@.str.52 = private unnamed_addr constant [11 x i8] c"DW_OP_lit3\00", align 1
@.str.53 = private unnamed_addr constant [11 x i8] c"DW_OP_lit4\00", align 1
@.str.54 = private unnamed_addr constant [11 x i8] c"DW_OP_lit5\00", align 1
@.str.55 = private unnamed_addr constant [11 x i8] c"DW_OP_lit6\00", align 1
@.str.56 = private unnamed_addr constant [11 x i8] c"DW_OP_lit7\00", align 1
@.str.57 = private unnamed_addr constant [11 x i8] c"DW_OP_lit8\00", align 1
@.str.58 = private unnamed_addr constant [11 x i8] c"DW_OP_lit9\00", align 1
@.str.59 = private unnamed_addr constant [12 x i8] c"DW_OP_lit10\00", align 1
@.str.60 = private unnamed_addr constant [12 x i8] c"DW_OP_lit11\00", align 1
@.str.61 = private unnamed_addr constant [12 x i8] c"DW_OP_lit12\00", align 1
@.str.62 = private unnamed_addr constant [12 x i8] c"DW_OP_lit13\00", align 1
@.str.63 = private unnamed_addr constant [12 x i8] c"DW_OP_lit14\00", align 1
@.str.64 = private unnamed_addr constant [12 x i8] c"DW_OP_lit15\00", align 1
@.str.65 = private unnamed_addr constant [12 x i8] c"DW_OP_lit16\00", align 1
@.str.66 = private unnamed_addr constant [12 x i8] c"DW_OP_lit17\00", align 1
@.str.67 = private unnamed_addr constant [12 x i8] c"DW_OP_lit18\00", align 1
@.str.68 = private unnamed_addr constant [12 x i8] c"DW_OP_lit19\00", align 1
@.str.69 = private unnamed_addr constant [12 x i8] c"DW_OP_lit20\00", align 1
@.str.70 = private unnamed_addr constant [12 x i8] c"DW_OP_lit21\00", align 1
@.str.71 = private unnamed_addr constant [12 x i8] c"DW_OP_lit22\00", align 1
@.str.72 = private unnamed_addr constant [12 x i8] c"DW_OP_lit23\00", align 1
@.str.73 = private unnamed_addr constant [12 x i8] c"DW_OP_lit24\00", align 1
@.str.74 = private unnamed_addr constant [12 x i8] c"DW_OP_lit25\00", align 1
@.str.75 = private unnamed_addr constant [12 x i8] c"DW_OP_lit26\00", align 1
@.str.76 = private unnamed_addr constant [12 x i8] c"DW_OP_lit27\00", align 1
@.str.77 = private unnamed_addr constant [12 x i8] c"DW_OP_lit28\00", align 1
@.str.78 = private unnamed_addr constant [12 x i8] c"DW_OP_lit29\00", align 1
@.str.79 = private unnamed_addr constant [12 x i8] c"DW_OP_lit30\00", align 1
@.str.80 = private unnamed_addr constant [12 x i8] c"DW_OP_lit31\00", align 1
@.str.81 = private unnamed_addr constant [11 x i8] c"DW_OP_reg0\00", align 1
@.str.82 = private unnamed_addr constant [11 x i8] c"DW_OP_reg1\00", align 1
@.str.83 = private unnamed_addr constant [11 x i8] c"DW_OP_reg2\00", align 1
@.str.84 = private unnamed_addr constant [11 x i8] c"DW_OP_reg3\00", align 1
@.str.85 = private unnamed_addr constant [11 x i8] c"DW_OP_reg4\00", align 1
@.str.86 = private unnamed_addr constant [11 x i8] c"DW_OP_reg5\00", align 1
@.str.87 = private unnamed_addr constant [11 x i8] c"DW_OP_reg6\00", align 1
@.str.88 = private unnamed_addr constant [11 x i8] c"DW_OP_reg7\00", align 1
@.str.89 = private unnamed_addr constant [11 x i8] c"DW_OP_reg8\00", align 1
@.str.90 = private unnamed_addr constant [11 x i8] c"DW_OP_reg9\00", align 1
@.str.91 = private unnamed_addr constant [12 x i8] c"DW_OP_reg10\00", align 1
@.str.92 = private unnamed_addr constant [12 x i8] c"DW_OP_reg11\00", align 1
@.str.93 = private unnamed_addr constant [12 x i8] c"DW_OP_reg12\00", align 1
@.str.94 = private unnamed_addr constant [12 x i8] c"DW_OP_reg13\00", align 1
@.str.95 = private unnamed_addr constant [12 x i8] c"DW_OP_reg14\00", align 1
@.str.96 = private unnamed_addr constant [12 x i8] c"DW_OP_reg15\00", align 1
@.str.97 = private unnamed_addr constant [12 x i8] c"DW_OP_reg16\00", align 1
@.str.98 = private unnamed_addr constant [12 x i8] c"DW_OP_reg17\00", align 1
@.str.99 = private unnamed_addr constant [12 x i8] c"DW_OP_reg18\00", align 1
@.str.100 = private unnamed_addr constant [12 x i8] c"DW_OP_reg19\00", align 1
@.str.101 = private unnamed_addr constant [12 x i8] c"DW_OP_reg20\00", align 1
@.str.102 = private unnamed_addr constant [12 x i8] c"DW_OP_reg21\00", align 1
@.str.103 = private unnamed_addr constant [12 x i8] c"DW_OP_reg22\00", align 1
@.str.104 = private unnamed_addr constant [12 x i8] c"DW_OP_reg23\00", align 1
@.str.105 = private unnamed_addr constant [12 x i8] c"DW_OP_reg24\00", align 1
@.str.106 = private unnamed_addr constant [12 x i8] c"DW_OP_reg25\00", align 1
@.str.107 = private unnamed_addr constant [12 x i8] c"DW_OP_reg26\00", align 1
@.str.108 = private unnamed_addr constant [12 x i8] c"DW_OP_reg27\00", align 1
@.str.109 = private unnamed_addr constant [12 x i8] c"DW_OP_reg28\00", align 1
@.str.110 = private unnamed_addr constant [12 x i8] c"DW_OP_reg29\00", align 1
@.str.111 = private unnamed_addr constant [12 x i8] c"DW_OP_reg30\00", align 1
@.str.112 = private unnamed_addr constant [12 x i8] c"DW_OP_reg31\00", align 1
@.str.113 = private unnamed_addr constant [12 x i8] c"DW_OP_breg0\00", align 1
@.str.114 = private unnamed_addr constant [12 x i8] c"DW_OP_breg1\00", align 1
@.str.115 = private unnamed_addr constant [12 x i8] c"DW_OP_breg2\00", align 1
@.str.116 = private unnamed_addr constant [12 x i8] c"DW_OP_breg3\00", align 1
@.str.117 = private unnamed_addr constant [12 x i8] c"DW_OP_breg4\00", align 1
@.str.118 = private unnamed_addr constant [12 x i8] c"DW_OP_breg5\00", align 1
@.str.119 = private unnamed_addr constant [12 x i8] c"DW_OP_breg6\00", align 1
@.str.120 = private unnamed_addr constant [12 x i8] c"DW_OP_breg7\00", align 1
@.str.121 = private unnamed_addr constant [12 x i8] c"DW_OP_breg8\00", align 1
@.str.122 = private unnamed_addr constant [12 x i8] c"DW_OP_breg9\00", align 1
@.str.123 = private unnamed_addr constant [13 x i8] c"DW_OP_breg10\00", align 1
@.str.124 = private unnamed_addr constant [13 x i8] c"DW_OP_breg11\00", align 1
@.str.125 = private unnamed_addr constant [13 x i8] c"DW_OP_breg12\00", align 1
@.str.126 = private unnamed_addr constant [13 x i8] c"DW_OP_breg13\00", align 1
@.str.127 = private unnamed_addr constant [13 x i8] c"DW_OP_breg14\00", align 1
@.str.128 = private unnamed_addr constant [13 x i8] c"DW_OP_breg15\00", align 1
@.str.129 = private unnamed_addr constant [13 x i8] c"DW_OP_breg16\00", align 1
@.str.130 = private unnamed_addr constant [13 x i8] c"DW_OP_breg17\00", align 1
@.str.131 = private unnamed_addr constant [13 x i8] c"DW_OP_breg18\00", align 1
@.str.132 = private unnamed_addr constant [13 x i8] c"DW_OP_breg19\00", align 1
@.str.133 = private unnamed_addr constant [13 x i8] c"DW_OP_breg20\00", align 1
@.str.134 = private unnamed_addr constant [13 x i8] c"DW_OP_breg21\00", align 1
@.str.135 = private unnamed_addr constant [13 x i8] c"DW_OP_breg22\00", align 1
@.str.136 = private unnamed_addr constant [13 x i8] c"DW_OP_breg23\00", align 1
@.str.137 = private unnamed_addr constant [13 x i8] c"DW_OP_breg24\00", align 1
@.str.138 = private unnamed_addr constant [13 x i8] c"DW_OP_breg25\00", align 1
@.str.139 = private unnamed_addr constant [13 x i8] c"DW_OP_breg26\00", align 1
@.str.140 = private unnamed_addr constant [13 x i8] c"DW_OP_breg27\00", align 1
@.str.141 = private unnamed_addr constant [13 x i8] c"DW_OP_breg28\00", align 1
@.str.142 = private unnamed_addr constant [13 x i8] c"DW_OP_breg29\00", align 1
@.str.143 = private unnamed_addr constant [13 x i8] c"DW_OP_breg30\00", align 1
@.str.144 = private unnamed_addr constant [13 x i8] c"DW_OP_breg31\00", align 1
@.str.145 = private unnamed_addr constant [11 x i8] c"DW_OP_regx\00", align 1
@.str.146 = private unnamed_addr constant [12 x i8] c"DW_OP_fbreg\00", align 1
@.str.147 = private unnamed_addr constant [12 x i8] c"DW_OP_bregx\00", align 1
@.str.148 = private unnamed_addr constant [12 x i8] c"DW_OP_piece\00", align 1
@.str.149 = private unnamed_addr constant [17 x i8] c"DW_OP_deref_size\00", align 1
@.str.150 = private unnamed_addr constant [18 x i8] c"DW_OP_xderef_size\00", align 1
@.str.151 = private unnamed_addr constant [10 x i8] c"DW_OP_nop\00", align 1
@.str.152 = private unnamed_addr constant [26 x i8] c"DW_OP_push_object_address\00", align 1
@.str.153 = private unnamed_addr constant [12 x i8] c"DW_OP_call2\00", align 1
@.str.154 = private unnamed_addr constant [12 x i8] c"DW_OP_call4\00", align 1
@.str.155 = private unnamed_addr constant [15 x i8] c"DW_OP_call_ref\00", align 1
@.str.156 = private unnamed_addr constant [21 x i8] c"DW_OP_implicit_value\00", align 1
@.str.157 = private unnamed_addr constant [18 x i8] c"DW_OP_stack_value\00", align 1
@.str.158 = private unnamed_addr constant [23 x i8] c"DW_OP_form_tls_address\00", align 1
@.str.159 = private unnamed_addr constant [21 x i8] c"DW_OP_call_frame_cfa\00", align 1
@.str.160 = private unnamed_addr constant [16 x i8] c"DW_OP_bit_piece\00", align 1
@.str.161 = private unnamed_addr constant [27 x i8] c"DW_OP_GNU_push_tls_address\00", align 1
@.str.162 = private unnamed_addr constant [17 x i8] c"DW_OP_GNU_uninit\00", align 1
@.str.163 = private unnamed_addr constant [23 x i8] c"DW_OP_GNU_encoded_addr\00", align 1
@.str.164 = private unnamed_addr constant [13 x i8] c"OP_<unknown>\00", align 1
@fde_table_in_use = internal global i32 0, align 4
@fde_table = internal global ptr null, align 8
@emit_cfa_remember = internal unnamed_addr global i1 false, align 1
@dwarf_version = external local_unnamed_addr global i32, align 4
@debug_info_level = external local_unnamed_addr global i32, align 4
@.str.165 = private unnamed_addr constant [23 x i8] c"\09.cfi_offset %lu, %ld\0A\00", align 1
@.str.166 = private unnamed_addr constant [19 x i8] c"\09.cfi_restore %lu\0A\00", align 1
@.str.167 = private unnamed_addr constant [21 x i8] c"\09.cfi_undefined %lu\0A\00", align 1
@.str.168 = private unnamed_addr constant [22 x i8] c"\09.cfi_same_value %lu\0A\00", align 1
@.str.169 = private unnamed_addr constant [24 x i8] c"\09.cfi_def_cfa %lu, %ld\0A\00", align 1
@.str.170 = private unnamed_addr constant [28 x i8] c"\09.cfi_def_cfa_register %lu\0A\00", align 1
@.str.171 = private unnamed_addr constant [25 x i8] c"\09.cfi_register %lu, %lu\0A\00", align 1
@.str.172 = private unnamed_addr constant [26 x i8] c"\09.cfi_def_cfa_offset %ld\0A\00", align 1
@.str.173 = private unnamed_addr constant [22 x i8] c"\09.cfi_remember_state\0A\00", align 1
@.str.174 = private unnamed_addr constant [21 x i8] c"\09.cfi_restore_state\0A\00", align 1
@.str.175 = private unnamed_addr constant [19 x i8] c"\09.cfi_escape 0x%x,\00", align 1
@flag_debug_asm = external local_unnamed_addr global i32, align 4
@.str.176 = private unnamed_addr constant [18 x i8] c"\09%s args_size %ld\00", align 1
@.str.177 = private unnamed_addr constant [2 x i8] c"#\00", align 1
@.str.178 = private unnamed_addr constant [19 x i8] c"\09.cfi_window_save\0A\00", align 1
@.str.179 = private unnamed_addr constant [6 x i8] c"0x%x,\00", align 1
@.str.180 = private unnamed_addr constant [5 x i8] c"0x%x\00", align 1
@num_regs_saved_in_regs = internal global i64 0, align 8
@regs_saved_in_regs = internal global [4 x %struct.reg_saved_in_data] zeroinitializer, align 16
@cfa_temp.0 = internal unnamed_addr global i64 0, align 8
@cfa_temp.1 = internal unnamed_addr global i32 0, align 8
@barrier_args_size = internal unnamed_addr global ptr null, align 8
@target_flags = external local_unnamed_addr global i32, align 4
@queued_reg_saves = internal global ptr null, align 8
@last_reg_save_label = internal unnamed_addr global ptr null, align 8
@final_sequence = external local_unnamed_addr global ptr, align 8
@flag_asynchronous_unwind_tables = external local_unnamed_addr global i32, align 4
@.str.181 = private unnamed_addr constant [1 x i8] zeroinitializer, align 1
@args_size = internal unnamed_addr global i64 0, align 8
@old_args_size = internal unnamed_addr global i64 0, align 8
@global_rtl = external local_unnamed_addr global [11 x ptr], align 16
@fixed_regs = external local_unnamed_addr global [53 x i8], align 16
@x_rtl = external local_unnamed_addr global %struct.rtl_data, align 8
@cfa_remember = internal unnamed_addr global %struct.cfa_loc zeroinitializer, align 8
@current_function_func_begin_label = external local_unnamed_addr global ptr, align 8
@current_function_decl = external local_unnamed_addr global ptr, align 8
@.str.182 = private unnamed_addr constant [4 x i8] c"LFB\00", align 1
@cfun = external local_unnamed_addr global ptr, align 8
@fde_table_allocated = internal global i32 0, align 4
@flag_reorder_blocks_and_partition = external local_unnamed_addr global i32, align 4
@first_function_block_is_cold = external local_unnamed_addr global i8, align 1
@text_section = external local_unnamed_addr global ptr, align 8
@cold_text_section = internal global ptr null, align 8
@current_unit_personality = internal global ptr null, align 8
@.str.183 = private unnamed_addr constant [100 x i8] c"Multiple EH personalities are supported only with assemblers supporting .cfi.personality directive.\00", align 1
@dwarf2out_source_line.last_is_stmt = internal unnamed_addr global i8 1, align 1
@.str.184 = private unnamed_addr constant [11 x i8] c"\09%s %s:%d\0A\00", align 1
@.str.185 = private unnamed_addr constant [14 x i8] c"\09.loc %d %d 0\00", align 1
@.str.186 = private unnamed_addr constant [12 x i8] c" is_stmt %d\00", align 1
@line_info_table_in_use = internal global i32 0, align 4
@last_emitted_file = internal global ptr null, align 8
@.str.187 = private unnamed_addr constant [11 x i8] c"\09.file %u \00", align 1
@file_table_last_lookup = internal global ptr null, align 8
@file_table = internal global ptr null, align 8
@.str.188 = private unnamed_addr constant [17 x i8] c"\09.cfi_startproc\0A\00", align 1
@.str.189 = private unnamed_addr constant [24 x i8] c"\09.cfi_personality 0x%x,\00", align 1
@.str.190 = private unnamed_addr constant [7 x i8] c"LLSDAC\00", align 1
@.str.191 = private unnamed_addr constant [6 x i8] c"LLSDA\00", align 1
@.str.192 = private unnamed_addr constant [17 x i8] c"\09.cfi_lsda 0x%x,\00", align 1
@last_var_location_insn = internal unnamed_addr global ptr null, align 8
@.str.193 = private unnamed_addr constant [15 x i8] c"\09.cfi_endproc\0A\00", align 1
@.str.194 = private unnamed_addr constant [4 x i8] c"LFE\00", align 1
@.str.195 = private unnamed_addr constant [7 x i8] c"Lframe\00", align 1
@.str.196 = private unnamed_addr constant [6 x i8] c"LSCIE\00", align 1
@.str.197 = private unnamed_addr constant [6 x i8] c"LECIE\00", align 1
@.str.198 = private unnamed_addr constant [35 x i8] c"Length of Common Information Entry\00", align 1
@.str.199 = private unnamed_addr constant [19 x i8] c"CIE Identifier Tag\00", align 1
@.str.200 = private unnamed_addr constant [12 x i8] c"CIE Version\00", align 1
@.str.201 = private unnamed_addr constant [17 x i8] c"CIE Augmentation\00", align 1
@.str.202 = private unnamed_addr constant [26 x i8] c"CIE Code Alignment Factor\00", align 1
@.str.203 = private unnamed_addr constant [26 x i8] c"CIE Data Alignment Factor\00", align 1
@.str.204 = private unnamed_addr constant [14 x i8] c"CIE RA Column\00", align 1
@.str.205 = private unnamed_addr constant [18 x i8] c"Augmentation size\00", align 1
@.str.206 = private unnamed_addr constant [17 x i8] c"Personality (%s)\00", align 1
@.str.207 = private unnamed_addr constant [19 x i8] c"LSDA Encoding (%s)\00", align 1
@.str.208 = private unnamed_addr constant [18 x i8] c"FDE Encoding (%s)\00", align 1
@.str.209 = private unnamed_addr constant [12 x i8] c"\09.align %d\0A\00", align 1
@.str.210 = private unnamed_addr constant [13 x i8] c"End of Table\00", align 1
@debug_frame_section = internal global ptr null, align 8
@.str.211 = private unnamed_addr constant [13 x i8] c".debug_frame\00", align 1
@eh_frame_section = external local_unnamed_addr global ptr, align 8
@flag_pic = external local_unnamed_addr global i32, align 4
@.str.212 = private unnamed_addr constant [10 x i8] c".eh_frame\00", align 1
@data_section = external local_unnamed_addr global ptr, align 8
@.str.213 = private unnamed_addr constant [2 x i8] c"F\00", align 1
@.str.214 = private unnamed_addr constant [25 x i8] c"DW_CFA_advance_loc 0x%lx\00", align 1
@.str.215 = private unnamed_addr constant [28 x i8] c"DW_CFA_offset, column 0x%lx\00", align 1
@.str.216 = private unnamed_addr constant [29 x i8] c"DW_CFA_restore, column 0x%lx\00", align 1
@.str.217 = private unnamed_addr constant [3 x i8] c"%s\00", align 1
@.str.221 = private unnamed_addr constant [11 x i8] c"DW_CFA_nop\00", align 1
@.str.222 = private unnamed_addr constant [15 x i8] c"DW_CFA_set_loc\00", align 1
@.str.223 = private unnamed_addr constant [20 x i8] c"DW_CFA_advance_loc1\00", align 1
@.str.224 = private unnamed_addr constant [20 x i8] c"DW_CFA_advance_loc2\00", align 1
@.str.225 = private unnamed_addr constant [20 x i8] c"DW_CFA_advance_loc4\00", align 1
@.str.226 = private unnamed_addr constant [23 x i8] c"DW_CFA_offset_extended\00", align 1
@.str.227 = private unnamed_addr constant [24 x i8] c"DW_CFA_restore_extended\00", align 1
@.str.228 = private unnamed_addr constant [17 x i8] c"DW_CFA_undefined\00", align 1
@.str.229 = private unnamed_addr constant [18 x i8] c"DW_CFA_same_value\00", align 1
@.str.230 = private unnamed_addr constant [16 x i8] c"DW_CFA_register\00", align 1
@.str.231 = private unnamed_addr constant [22 x i8] c"DW_CFA_remember_state\00", align 1
@.str.232 = private unnamed_addr constant [21 x i8] c"DW_CFA_restore_state\00", align 1
@.str.233 = private unnamed_addr constant [15 x i8] c"DW_CFA_def_cfa\00", align 1
@.str.234 = private unnamed_addr constant [24 x i8] c"DW_CFA_def_cfa_register\00", align 1
@.str.235 = private unnamed_addr constant [22 x i8] c"DW_CFA_def_cfa_offset\00", align 1
@.str.236 = private unnamed_addr constant [26 x i8] c"DW_CFA_def_cfa_expression\00", align 1
@.str.237 = private unnamed_addr constant [18 x i8] c"DW_CFA_expression\00", align 1
@.str.238 = private unnamed_addr constant [26 x i8] c"DW_CFA_offset_extended_sf\00", align 1
@.str.239 = private unnamed_addr constant [18 x i8] c"DW_CFA_def_cfa_sf\00", align 1
@.str.240 = private unnamed_addr constant [25 x i8] c"DW_CFA_def_cfa_offset_sf\00", align 1
@.str.241 = private unnamed_addr constant [25 x i8] c"DW_CFA_MIPS_advance_loc8\00", align 1
@.str.242 = private unnamed_addr constant [23 x i8] c"DW_CFA_GNU_window_save\00", align 1
@.str.243 = private unnamed_addr constant [21 x i8] c"DW_CFA_GNU_args_size\00", align 1
@.str.244 = private unnamed_addr constant [36 x i8] c"DW_CFA_GNU_negative_offset_extended\00", align 1
@.str.245 = private unnamed_addr constant [17 x i8] c"DW_CFA_<unknown>\00", align 1
@.str.246 = private unnamed_addr constant [30 x i8] c"fp or vector constant word %u\00", align 1
@output_fde.j = internal unnamed_addr global i32 0, align 4
@.str.247 = private unnamed_addr constant [6 x i8] c"LSFDE\00", align 1
@.str.248 = private unnamed_addr constant [7 x i8] c"LASFDE\00", align 1
@.str.249 = private unnamed_addr constant [6 x i8] c"LEFDE\00", align 1
@.str.250 = private unnamed_addr constant [11 x i8] c"FDE Length\00", align 1
@.str.251 = private unnamed_addr constant [15 x i8] c"FDE CIE offset\00", align 1
@.str.252 = private unnamed_addr constant [21 x i8] c"FDE initial location\00", align 1
@.str.253 = private unnamed_addr constant [18 x i8] c"FDE address range\00", align 1
@.str.254 = private unnamed_addr constant [28 x i8] c"Language Specific Data Area\00", align 1
@.str.255 = private unnamed_addr constant [35 x i8] c"Language Specific Data Area (none)\00", align 1
@in_cold_section_p = external local_unnamed_addr global i8, align 1
@have_multiple_function_sections = internal global i8 0, align 1
@text_section_used = internal global i8 0, align 1
@cold_text_section_used = internal global i8 0, align 1
@dwarf2_debug_hooks = dso_local local_unnamed_addr constant %struct.gcc_debug_hooks { ptr @dwarf2out_init, ptr @dwarf2out_finish, ptr @dwarf2out_assembly_start, ptr @dwarf2out_define, ptr @dwarf2out_undef, ptr @dwarf2out_start_source_file, ptr @dwarf2out_end_source_file, ptr @dwarf2out_begin_block, ptr @dwarf2out_end_block, ptr @dwarf2out_ignore_block, ptr @dwarf2out_source_line, ptr @dwarf2out_begin_prologue, ptr @debug_nothing_int_charstar, ptr @dwarf2out_end_epilogue, ptr @dwarf2out_begin_function, ptr @debug_nothing_int, ptr @dwarf2out_function_decl, ptr @dwarf2out_global_decl, ptr @dwarf2out_type_decl, ptr @dwarf2out_imported_module_or_decl, ptr @debug_nothing_tree, ptr @dwarf2out_abstract_function, ptr @debug_nothing_rtx, ptr @debug_nothing_int, ptr @dwarf2out_var_location, ptr @dwarf2out_switch_text_section, ptr @dwarf2out_direct_call, ptr @dwarf2out_virtual_call_token, ptr @dwarf2out_copy_call_info, ptr @dwarf2out_virtual_call, ptr @dwarf2out_set_name, i32 1 }, align 8
@decl_die_table = internal global ptr null, align 8
@decl_loc_table = internal global ptr null, align 8
@decl_scope_table = internal global ptr null, align 8
@abbrev_die_table = internal global ptr null, align 8
@abbrev_die_table_allocated = internal global i32 0, align 4
@abbrev_die_table_in_use = internal global i32 0, align 4
@line_info_table = internal global ptr null, align 8
@line_info_table_allocated = internal global i32 0, align 4
@pubname_table = internal global ptr null, align 8
@pubtype_table = internal global ptr null, align 8
@vcall_insn_table = internal global ptr null, align 8
@comp_unit_die = internal global ptr null, align 8
@incomplete_types = internal global ptr null, align 8
@used_rtx_array = internal global ptr null, align 8
@.str.256 = private unnamed_addr constant [12 x i8] c".debug_info\00", align 1
@debug_info_section = internal global ptr null, align 8
@.str.257 = private unnamed_addr constant [14 x i8] c".debug_abbrev\00", align 1
@debug_abbrev_section = internal global ptr null, align 8
@.str.258 = private unnamed_addr constant [15 x i8] c".debug_aranges\00", align 1
@debug_aranges_section = internal global ptr null, align 8
@.str.259 = private unnamed_addr constant [15 x i8] c".debug_macinfo\00", align 1
@debug_macinfo_section = internal global ptr null, align 8
@.str.260 = private unnamed_addr constant [12 x i8] c".debug_line\00", align 1
@debug_line_section = internal global ptr null, align 8
@.str.261 = private unnamed_addr constant [11 x i8] c".debug_loc\00", align 1
@debug_loc_section = internal global ptr null, align 8
@.str.262 = private unnamed_addr constant [16 x i8] c".debug_pubnames\00", align 1
@debug_pubnames_section = internal global ptr null, align 8
@.str.263 = private unnamed_addr constant [16 x i8] c".debug_pubtypes\00", align 1
@debug_pubtypes_section = internal global ptr null, align 8
@.str.264 = private unnamed_addr constant [13 x i8] c".debug_dcall\00", align 1
@debug_dcall_section = internal global ptr null, align 8
@.str.265 = private unnamed_addr constant [13 x i8] c".debug_vcall\00", align 1
@debug_vcall_section = internal global ptr null, align 8
@.str.266 = private unnamed_addr constant [11 x i8] c".debug_str\00", align 1
@flag_merge_debug_strings = external local_unnamed_addr global i32, align 4
@debug_str_section = internal global ptr null, align 8
@.str.267 = private unnamed_addr constant [14 x i8] c".debug_ranges\00", align 1
@debug_ranges_section = internal global ptr null, align 8
@text_end_label = internal global [30 x i8] zeroinitializer, align 16
@.str.268 = private unnamed_addr constant [7 x i8] c"Letext\00", align 1
@abbrev_section_label = internal global [30 x i8] zeroinitializer, align 16
@.str.269 = private unnamed_addr constant [14 x i8] c"Ldebug_abbrev\00", align 1
@text_section_label = internal global [30 x i8] zeroinitializer, align 16
@.str.270 = private unnamed_addr constant [6 x i8] c"Ltext\00", align 1
@cold_text_section_label = internal global [30 x i8] zeroinitializer, align 16
@.str.271 = private unnamed_addr constant [11 x i8] c"Ltext_cold\00", align 1
@cold_end_label = internal global [30 x i8] zeroinitializer, align 16
@.str.272 = private unnamed_addr constant [12 x i8] c"Letext_cold\00", align 1
@debug_info_section_label = internal global [30 x i8] zeroinitializer, align 16
@.str.273 = private unnamed_addr constant [12 x i8] c"Ldebug_info\00", align 1
@debug_line_section_label = internal global [30 x i8] zeroinitializer, align 16
@.str.274 = private unnamed_addr constant [12 x i8] c"Ldebug_line\00", align 1
@ranges_section_label = internal global [60 x i8] zeroinitializer, align 16
@.str.275 = private unnamed_addr constant [14 x i8] c"Ldebug_ranges\00", align 1
@macinfo_section_label = internal global [30 x i8] zeroinitializer, align 16
@.str.276 = private unnamed_addr constant [15 x i8] c"Ldebug_macinfo\00", align 1
@lang_hooks = external local_unnamed_addr global %struct.lang_hooks, align 8
@.str.277 = private unnamed_addr constant [6 x i8] c"%s %s\00", align 1
@version_string = external constant [0 x i8], align 1
@.str.278 = private unnamed_addr constant [8 x i8] c"GNU C++\00", align 1
@.str.279 = private unnamed_addr constant [8 x i8] c"GNU F77\00", align 1
@.str.280 = private unnamed_addr constant [11 x i8] c"GNU Pascal\00", align 1
@dwarf_strict = external local_unnamed_addr global i32, align 4
@.str.281 = private unnamed_addr constant [8 x i8] c"GNU Ada\00", align 1
@.str.282 = private unnamed_addr constant [12 x i8] c"GNU Fortran\00", align 1
@.str.283 = private unnamed_addr constant [9 x i8] c"GNU Java\00", align 1
@.str.284 = private unnamed_addr constant [16 x i8] c"GNU Objective-C\00", align 1
@.str.285 = private unnamed_addr constant [18 x i8] c"GNU Objective-C++\00", align 1
@limbo_die_list = internal global ptr null, align 8
@demangle_name_func = internal unnamed_addr global ptr null, align 8
@debug_str_hash = internal global ptr null, align 8
@deferred_locations_list = internal global ptr null, align 8
@global_dc = external local_unnamed_addr global ptr, align 8
@tree_code_type = external local_unnamed_addr constant [0 x i32], align 4
@deferred_asm_name = internal global ptr null, align 8
@flag_eliminate_unused_debug_types = external local_unnamed_addr global i32, align 4
@flag_eliminate_dwarf2_dups = external local_unnamed_addr global i32, align 4
@comdat_type_list = internal global ptr null, align 8
@const_int_rtx = external local_unnamed_addr global [129 x ptr], align 16
@have_location_lists = internal global i8 0, align 1
@loc_section_label = internal global [30 x i8] zeroinitializer, align 16
@.str.286 = private unnamed_addr constant [11 x i8] c"Ldebug_loc\00", align 1
@dcall_table = internal global ptr null, align 8
@vcall_table = internal global ptr null, align 8
@ranges_table_in_use = internal global i32 0, align 4
@.str.287 = private unnamed_addr constant [21 x i8] c"End compilation unit\00", align 1
@tmpl_value_parm_die_table = internal global ptr null, align 8
@global_trees = external local_unnamed_addr global [131 x ptr], align 16
@mode_class = external local_unnamed_addr constant [87 x i8], align 16
@cgraph_global_info_ready = external local_unnamed_addr global i8, align 1
@mode_inner = external local_unnamed_addr constant [87 x i8], align 16
@rtx_class = external local_unnamed_addr constant [139 x i32], align 16
@.str.288 = private unnamed_addr constant [35 x i8] c"UNSPEC hasn't been delegitimized.\0A\00", align 1
@.str.289 = private unnamed_addr constant [42 x i8] c"Constant was removed from constant pool.\0A\00", align 1
@.str.290 = private unnamed_addr constant [35 x i8] c"Symbol not defined in current TU.\0A\00", align 1
@dump_file = external local_unnamed_addr global ptr, align 8
@dump_flags = external local_unnamed_addr global i32, align 4
@.str.291 = private unnamed_addr constant [28 x i8] c"Failed to expand as dwarf: \00", align 1
@.str.293 = private unnamed_addr constant [13 x i8] c"\0AReason: %s\0A\00", align 1
@tree_contains_struct = external local_unnamed_addr global [191 x [64 x i8]], align 16
@reload_completed = external local_unnamed_addr global i32, align 4
@.str.294 = private unnamed_addr constant [11 x i8] c"ERROR_MARK\00", align 1
@.str.295 = private unnamed_addr constant [17 x i8] c"PLACEHOLDER_EXPR\00", align 1
@.str.296 = private unnamed_addr constant [10 x i8] c"CALL_EXPR\00", align 1
@.str.297 = private unnamed_addr constant [30 x i8] c"PRE/POST INDCREMENT/DECREMENT\00", align 1
@.str.298 = private unnamed_addr constant [26 x i8] c"need address of ADDR_EXPR\00", align 1
@.str.299 = private unnamed_addr constant [16 x i8] c"DECL has no RTL\00", align 1
@mode_mask_array = external local_unnamed_addr constant [87 x i64], align 16
@.str.300 = private unnamed_addr constant [13 x i8] c"CONST_STRING\00", align 1
@.str.301 = private unnamed_addr constant [41 x i8] c"failed to produce loc descriptor for rtl\00", align 1
@.str.302 = private unnamed_addr constant [16 x i8] c"bitfield access\00", align 1
@.str.303 = private unnamed_addr constant [36 x i8] c"Integer operand is not host integer\00", align 1
@.str.304 = private unnamed_addr constant [45 x i8] c"constructor or constant not in constant pool\00", align 1
@.str.305 = private unnamed_addr constant [28 x i8] c"language specific tree node\00", align 1
@.str.306 = private unnamed_addr constant [28 x i8] c"DWARF address size mismatch\00", align 1
@.str.307 = private unnamed_addr constant [33 x i8] c"Want address and only have value\00", align 1
@.str.308 = private unnamed_addr constant [34 x i8] c"no indirect ref in inner refrence\00", align 1
@.str.309 = private unnamed_addr constant [42 x i8] c"CST value in contant pool but not marked.\00", align 1
@.str.310 = private unnamed_addr constant [5 x i8] c"LLST\00", align 1
@label_num = internal global i32 0, align 4
@hard_regno_nregs = external local_unnamed_addr global [53 x [87 x i8]], align 16
@.str.311 = private unnamed_addr constant [62 x i8] c"CONCAT/CONCATN/VAR_LOCATION is handled only by loc_descriptor\00", align 1
@word_mode = external local_unnamed_addr global i32, align 4
@frame_pointer_fb_offset = internal unnamed_addr global i64 0, align 8
@optimize = external local_unnamed_addr global i32, align 4
@.str.312 = private unnamed_addr constant [57 x i8] c"Don't know how to merge two non-trivial location lists.\0A\00", align 1
@.str.313 = private unnamed_addr constant [47 x i8] c"Location list where only loc descriptor needed\00", align 1
@.str.314 = private unnamed_addr constant [12 x i8] c"__unknown__\00", align 1
@.str.315 = private unnamed_addr constant [11 x i8] c"artificial\00", align 1
@arange_table_in_use = internal global i32 0, align 4
@arange_table_allocated = internal global i32 0, align 4
@arange_table = internal global ptr null, align 8
@input_location = external local_unnamed_addr global i32, align 4
@common_block_die_table = internal global ptr null, align 8
@htab_hash_pointer = external local_unnamed_addr global ptr, align 8
@.str.316 = private unnamed_addr constant [4 x i8] c"LBB\00", align 1
@.str.317 = private unnamed_addr constant [4 x i8] c"LBE\00", align 1
@.str.318 = private unnamed_addr constant [7 x i8] c"MAIN__\00", align 1
@.str.319 = private unnamed_addr constant [2 x i8] c"L\00", align 1
@debug_str_hash_forced = internal global i8 0, align 1
@types_used_by_vars_hash = external local_unnamed_addr global ptr, align 8
@comdat_symbol_number = internal unnamed_addr global i32 0, align 4
@comdat_symbol_id = internal unnamed_addr global ptr null, align 8
@.str.320 = private unnamed_addr constant [9 x i8] c"%s.%s.%x\00", align 1
@.str.321 = private unnamed_addr constant [3 x i8] c"DW\00", align 1
@.str.322 = private unnamed_addr constant [5 x i8] c"LDIE\00", align 1
@.str.323 = private unnamed_addr constant [10 x i8] c"anonymous\00", align 1
@.str.324 = private unnamed_addr constant [4 x i8] c"%s.\00", align 1
@.str.325 = private unnamed_addr constant [5 x i8] c"%.2x\00", align 1
@ranges_by_label_in_use = internal global i32 0, align 4
@ranges_by_label_allocated = internal global i32 0, align 4
@ranges_by_label = internal global ptr null, align 8
@ranges_table_allocated = internal global i32 0, align 4
@ranges_table = internal global ptr null, align 8
@.str.326 = private unnamed_addr constant [33 x i8] c"Location list begin address (%s)\00", align 1
@.str.327 = private unnamed_addr constant [31 x i8] c"Location list end address (%s)\00", align 1
@.str.328 = private unnamed_addr constant [25 x i8] c"Location expression size\00", align 1
@.str.329 = private unnamed_addr constant [36 x i8] c"Location list terminator begin (%s)\00", align 1
@.str.330 = private unnamed_addr constant [34 x i8] c"Location list terminator end (%s)\00", align 1
@next_die_offset = internal unnamed_addr global i64 0, align 8
@.str.331 = private unnamed_addr constant [20 x i8] c".gnu.linkonce.wi.%s\00", align 1
@.str.332 = private unnamed_addr constant [5 x i8] c"LASF\00", align 1
@dw2_string_counter = internal global i32 0, align 4
@.str.333 = private unnamed_addr constant [32 x i8] c"Length of Compilation Unit Info\00", align 1
@.str.334 = private unnamed_addr constant [21 x i8] c"DWARF version number\00", align 1
@.str.335 = private unnamed_addr constant [28 x i8] c"Offset Into Abbrev. Section\00", align 1
@.str.336 = private unnamed_addr constant [24 x i8] c"Pointer Size (in bytes)\00", align 1
@.str.337 = private unnamed_addr constant [17 x i8] c"(DIE (0x%lx) %s)\00", align 1
@.str.338 = private unnamed_addr constant [7 x i8] c"+0x%lx\00", align 1
@.str.339 = private unnamed_addr constant [10 x i8] c"\09\09\09%s %s\0A\00", align 1
@.str.340 = private unnamed_addr constant [9 x i8] c"%s: \22%s\22\00", align 1
@.str.341 = private unnamed_addr constant [8 x i8] c"%s (%s)\00", align 1
@.str.342 = private unnamed_addr constant [29 x i8] c"end of children of DIE 0x%lx\00", align 1
@.str.343 = private unnamed_addr constant [15 x i8] c"DW_TAG_padding\00", align 1
@.str.344 = private unnamed_addr constant [18 x i8] c"DW_TAG_array_type\00", align 1
@.str.345 = private unnamed_addr constant [18 x i8] c"DW_TAG_class_type\00", align 1
@.str.346 = private unnamed_addr constant [19 x i8] c"DW_TAG_entry_point\00", align 1
@.str.347 = private unnamed_addr constant [24 x i8] c"DW_TAG_enumeration_type\00", align 1
@.str.348 = private unnamed_addr constant [24 x i8] c"DW_TAG_formal_parameter\00", align 1
@.str.349 = private unnamed_addr constant [28 x i8] c"DW_TAG_imported_declaration\00", align 1
@.str.350 = private unnamed_addr constant [13 x i8] c"DW_TAG_label\00", align 1
@.str.351 = private unnamed_addr constant [21 x i8] c"DW_TAG_lexical_block\00", align 1
@.str.352 = private unnamed_addr constant [14 x i8] c"DW_TAG_member\00", align 1
@.str.353 = private unnamed_addr constant [20 x i8] c"DW_TAG_pointer_type\00", align 1
@.str.354 = private unnamed_addr constant [22 x i8] c"DW_TAG_reference_type\00", align 1
@.str.355 = private unnamed_addr constant [20 x i8] c"DW_TAG_compile_unit\00", align 1
@.str.356 = private unnamed_addr constant [19 x i8] c"DW_TAG_string_type\00", align 1
@.str.357 = private unnamed_addr constant [22 x i8] c"DW_TAG_structure_type\00", align 1
@.str.358 = private unnamed_addr constant [23 x i8] c"DW_TAG_subroutine_type\00", align 1
@.str.359 = private unnamed_addr constant [15 x i8] c"DW_TAG_typedef\00", align 1
@.str.360 = private unnamed_addr constant [18 x i8] c"DW_TAG_union_type\00", align 1
@.str.361 = private unnamed_addr constant [30 x i8] c"DW_TAG_unspecified_parameters\00", align 1
@.str.362 = private unnamed_addr constant [15 x i8] c"DW_TAG_variant\00", align 1
@.str.363 = private unnamed_addr constant [20 x i8] c"DW_TAG_common_block\00", align 1
@.str.364 = private unnamed_addr constant [24 x i8] c"DW_TAG_common_inclusion\00", align 1
@.str.365 = private unnamed_addr constant [19 x i8] c"DW_TAG_inheritance\00", align 1
@.str.366 = private unnamed_addr constant [26 x i8] c"DW_TAG_inlined_subroutine\00", align 1
@.str.367 = private unnamed_addr constant [14 x i8] c"DW_TAG_module\00", align 1
@.str.368 = private unnamed_addr constant [26 x i8] c"DW_TAG_ptr_to_member_type\00", align 1
@.str.369 = private unnamed_addr constant [16 x i8] c"DW_TAG_set_type\00", align 1
@.str.370 = private unnamed_addr constant [21 x i8] c"DW_TAG_subrange_type\00", align 1
@.str.371 = private unnamed_addr constant [17 x i8] c"DW_TAG_with_stmt\00", align 1
@.str.372 = private unnamed_addr constant [26 x i8] c"DW_TAG_access_declaration\00", align 1
@.str.373 = private unnamed_addr constant [17 x i8] c"DW_TAG_base_type\00", align 1
@.str.374 = private unnamed_addr constant [19 x i8] c"DW_TAG_catch_block\00", align 1
@.str.375 = private unnamed_addr constant [18 x i8] c"DW_TAG_const_type\00", align 1
@.str.376 = private unnamed_addr constant [16 x i8] c"DW_TAG_constant\00", align 1
@.str.377 = private unnamed_addr constant [18 x i8] c"DW_TAG_enumerator\00", align 1
@.str.378 = private unnamed_addr constant [17 x i8] c"DW_TAG_file_type\00", align 1
@.str.379 = private unnamed_addr constant [14 x i8] c"DW_TAG_friend\00", align 1
@.str.380 = private unnamed_addr constant [16 x i8] c"DW_TAG_namelist\00", align 1
@.str.381 = private unnamed_addr constant [21 x i8] c"DW_TAG_namelist_item\00", align 1
@.str.382 = private unnamed_addr constant [19 x i8] c"DW_TAG_packed_type\00", align 1
@.str.383 = private unnamed_addr constant [18 x i8] c"DW_TAG_subprogram\00", align 1
@.str.384 = private unnamed_addr constant [27 x i8] c"DW_TAG_template_type_param\00", align 1
@.str.385 = private unnamed_addr constant [28 x i8] c"DW_TAG_template_value_param\00", align 1
@.str.386 = private unnamed_addr constant [19 x i8] c"DW_TAG_thrown_type\00", align 1
@.str.387 = private unnamed_addr constant [17 x i8] c"DW_TAG_try_block\00", align 1
@.str.388 = private unnamed_addr constant [20 x i8] c"DW_TAG_variant_part\00", align 1
@.str.389 = private unnamed_addr constant [16 x i8] c"DW_TAG_variable\00", align 1
@.str.390 = private unnamed_addr constant [21 x i8] c"DW_TAG_volatile_type\00", align 1
@.str.391 = private unnamed_addr constant [23 x i8] c"DW_TAG_dwarf_procedure\00", align 1
@.str.392 = private unnamed_addr constant [21 x i8] c"DW_TAG_restrict_type\00", align 1
@.str.393 = private unnamed_addr constant [22 x i8] c"DW_TAG_interface_type\00", align 1
@.str.394 = private unnamed_addr constant [17 x i8] c"DW_TAG_namespace\00", align 1
@.str.395 = private unnamed_addr constant [23 x i8] c"DW_TAG_imported_module\00", align 1
@.str.396 = private unnamed_addr constant [24 x i8] c"DW_TAG_unspecified_type\00", align 1
@.str.397 = private unnamed_addr constant [20 x i8] c"DW_TAG_partial_unit\00", align 1
@.str.398 = private unnamed_addr constant [21 x i8] c"DW_TAG_imported_unit\00", align 1
@.str.399 = private unnamed_addr constant [17 x i8] c"DW_TAG_condition\00", align 1
@.str.400 = private unnamed_addr constant [19 x i8] c"DW_TAG_shared_type\00", align 1
@.str.401 = private unnamed_addr constant [17 x i8] c"DW_TAG_type_unit\00", align 1
@.str.402 = private unnamed_addr constant [29 x i8] c"DW_TAG_rvalue_reference_type\00", align 1
@.str.403 = private unnamed_addr constant [22 x i8] c"DW_TAG_template_alias\00", align 1
@.str.404 = private unnamed_addr constant [35 x i8] c"DW_TAG_GNU_template_parameter_pack\00", align 1
@.str.405 = private unnamed_addr constant [33 x i8] c"DW_TAG_GNU_formal_parameter_pack\00", align 1
@.str.406 = private unnamed_addr constant [17 x i8] c"DW_TAG_MIPS_loop\00", align 1
@.str.407 = private unnamed_addr constant [20 x i8] c"DW_TAG_format_label\00", align 1
@.str.408 = private unnamed_addr constant [25 x i8] c"DW_TAG_function_template\00", align 1
@.str.409 = private unnamed_addr constant [22 x i8] c"DW_TAG_class_template\00", align 1
@.str.410 = private unnamed_addr constant [17 x i8] c"DW_TAG_GNU_BINCL\00", align 1
@.str.411 = private unnamed_addr constant [17 x i8] c"DW_TAG_GNU_EINCL\00", align 1
@.str.412 = private unnamed_addr constant [35 x i8] c"DW_TAG_GNU_template_template_param\00", align 1
@.str.413 = private unnamed_addr constant [17 x i8] c"DW_TAG_<unknown>\00", align 1
@.str.414 = private unnamed_addr constant [14 x i8] c"DW_AT_sibling\00", align 1
@.str.415 = private unnamed_addr constant [15 x i8] c"DW_AT_location\00", align 1
@.str.416 = private unnamed_addr constant [11 x i8] c"DW_AT_name\00", align 1
@.str.417 = private unnamed_addr constant [15 x i8] c"DW_AT_ordering\00", align 1
@.str.418 = private unnamed_addr constant [18 x i8] c"DW_AT_subscr_data\00", align 1
@.str.419 = private unnamed_addr constant [16 x i8] c"DW_AT_byte_size\00", align 1
@.str.420 = private unnamed_addr constant [17 x i8] c"DW_AT_bit_offset\00", align 1
@.str.421 = private unnamed_addr constant [15 x i8] c"DW_AT_bit_size\00", align 1
@.str.422 = private unnamed_addr constant [19 x i8] c"DW_AT_element_list\00", align 1
@.str.423 = private unnamed_addr constant [16 x i8] c"DW_AT_stmt_list\00", align 1
@.str.424 = private unnamed_addr constant [13 x i8] c"DW_AT_low_pc\00", align 1
@.str.425 = private unnamed_addr constant [14 x i8] c"DW_AT_high_pc\00", align 1
@.str.426 = private unnamed_addr constant [15 x i8] c"DW_AT_language\00", align 1
@.str.427 = private unnamed_addr constant [13 x i8] c"DW_AT_member\00", align 1
@.str.428 = private unnamed_addr constant [12 x i8] c"DW_AT_discr\00", align 1
@.str.429 = private unnamed_addr constant [18 x i8] c"DW_AT_discr_value\00", align 1
@.str.430 = private unnamed_addr constant [17 x i8] c"DW_AT_visibility\00", align 1
@.str.431 = private unnamed_addr constant [13 x i8] c"DW_AT_import\00", align 1
@.str.432 = private unnamed_addr constant [20 x i8] c"DW_AT_string_length\00", align 1
@.str.433 = private unnamed_addr constant [23 x i8] c"DW_AT_common_reference\00", align 1
@.str.434 = private unnamed_addr constant [15 x i8] c"DW_AT_comp_dir\00", align 1
@.str.435 = private unnamed_addr constant [18 x i8] c"DW_AT_const_value\00", align 1
@.str.436 = private unnamed_addr constant [22 x i8] c"DW_AT_containing_type\00", align 1
@.str.437 = private unnamed_addr constant [20 x i8] c"DW_AT_default_value\00", align 1
@.str.438 = private unnamed_addr constant [13 x i8] c"DW_AT_inline\00", align 1
@.str.439 = private unnamed_addr constant [18 x i8] c"DW_AT_is_optional\00", align 1
@.str.440 = private unnamed_addr constant [18 x i8] c"DW_AT_lower_bound\00", align 1
@.str.441 = private unnamed_addr constant [15 x i8] c"DW_AT_producer\00", align 1
@.str.442 = private unnamed_addr constant [17 x i8] c"DW_AT_prototyped\00", align 1
@.str.443 = private unnamed_addr constant [18 x i8] c"DW_AT_return_addr\00", align 1
@.str.444 = private unnamed_addr constant [18 x i8] c"DW_AT_start_scope\00", align 1
@.str.445 = private unnamed_addr constant [17 x i8] c"DW_AT_bit_stride\00", align 1
@.str.446 = private unnamed_addr constant [18 x i8] c"DW_AT_upper_bound\00", align 1
@.str.447 = private unnamed_addr constant [22 x i8] c"DW_AT_abstract_origin\00", align 1
@.str.448 = private unnamed_addr constant [20 x i8] c"DW_AT_accessibility\00", align 1
@.str.449 = private unnamed_addr constant [20 x i8] c"DW_AT_address_class\00", align 1
@.str.450 = private unnamed_addr constant [17 x i8] c"DW_AT_artificial\00", align 1
@.str.451 = private unnamed_addr constant [17 x i8] c"DW_AT_base_types\00", align 1
@.str.452 = private unnamed_addr constant [25 x i8] c"DW_AT_calling_convention\00", align 1
@.str.453 = private unnamed_addr constant [12 x i8] c"DW_AT_count\00", align 1
@.str.454 = private unnamed_addr constant [27 x i8] c"DW_AT_data_member_location\00", align 1
@.str.455 = private unnamed_addr constant [18 x i8] c"DW_AT_decl_column\00", align 1
@.str.456 = private unnamed_addr constant [16 x i8] c"DW_AT_decl_file\00", align 1
@.str.457 = private unnamed_addr constant [16 x i8] c"DW_AT_decl_line\00", align 1
@.str.458 = private unnamed_addr constant [18 x i8] c"DW_AT_declaration\00", align 1
@.str.459 = private unnamed_addr constant [17 x i8] c"DW_AT_discr_list\00", align 1
@.str.460 = private unnamed_addr constant [15 x i8] c"DW_AT_encoding\00", align 1
@.str.461 = private unnamed_addr constant [15 x i8] c"DW_AT_external\00", align 1
@.str.462 = private unnamed_addr constant [15 x i8] c"DW_AT_explicit\00", align 1
@.str.463 = private unnamed_addr constant [17 x i8] c"DW_AT_frame_base\00", align 1
@.str.464 = private unnamed_addr constant [13 x i8] c"DW_AT_friend\00", align 1
@.str.465 = private unnamed_addr constant [22 x i8] c"DW_AT_identifier_case\00", align 1
@.str.466 = private unnamed_addr constant [17 x i8] c"DW_AT_macro_info\00", align 1
@.str.467 = private unnamed_addr constant [21 x i8] c"DW_AT_namelist_items\00", align 1
@.str.468 = private unnamed_addr constant [15 x i8] c"DW_AT_priority\00", align 1
@.str.469 = private unnamed_addr constant [14 x i8] c"DW_AT_segment\00", align 1
@.str.470 = private unnamed_addr constant [20 x i8] c"DW_AT_specification\00", align 1
@.str.471 = private unnamed_addr constant [18 x i8] c"DW_AT_static_link\00", align 1
@.str.472 = private unnamed_addr constant [11 x i8] c"DW_AT_type\00", align 1
@.str.473 = private unnamed_addr constant [19 x i8] c"DW_AT_use_location\00", align 1
@.str.474 = private unnamed_addr constant [25 x i8] c"DW_AT_variable_parameter\00", align 1
@.str.475 = private unnamed_addr constant [17 x i8] c"DW_AT_virtuality\00", align 1
@.str.476 = private unnamed_addr constant [27 x i8] c"DW_AT_vtable_elem_location\00", align 1
@.str.477 = private unnamed_addr constant [16 x i8] c"DW_AT_allocated\00", align 1
@.str.478 = private unnamed_addr constant [17 x i8] c"DW_AT_associated\00", align 1
@.str.479 = private unnamed_addr constant [20 x i8] c"DW_AT_data_location\00", align 1
@.str.480 = private unnamed_addr constant [18 x i8] c"DW_AT_byte_stride\00", align 1
@.str.481 = private unnamed_addr constant [15 x i8] c"DW_AT_entry_pc\00", align 1
@.str.482 = private unnamed_addr constant [15 x i8] c"DW_AT_use_UTF8\00", align 1
@.str.483 = private unnamed_addr constant [16 x i8] c"DW_AT_extension\00", align 1
@.str.484 = private unnamed_addr constant [13 x i8] c"DW_AT_ranges\00", align 1
@.str.485 = private unnamed_addr constant [17 x i8] c"DW_AT_trampoline\00", align 1
@.str.486 = private unnamed_addr constant [18 x i8] c"DW_AT_call_column\00", align 1
@.str.487 = private unnamed_addr constant [16 x i8] c"DW_AT_call_file\00", align 1
@.str.488 = private unnamed_addr constant [16 x i8] c"DW_AT_call_line\00", align 1
@.str.489 = private unnamed_addr constant [16 x i8] c"DW_AT_signature\00", align 1
@.str.490 = private unnamed_addr constant [22 x i8] c"DW_AT_main_subprogram\00", align 1
@.str.491 = private unnamed_addr constant [22 x i8] c"DW_AT_data_bit_offset\00", align 1
@.str.492 = private unnamed_addr constant [17 x i8] c"DW_AT_const_expr\00", align 1
@.str.493 = private unnamed_addr constant [17 x i8] c"DW_AT_enum_class\00", align 1
@.str.494 = private unnamed_addr constant [19 x i8] c"DW_AT_linkage_name\00", align 1
@.str.495 = private unnamed_addr constant [15 x i8] c"DW_AT_MIPS_fde\00", align 1
@.str.496 = private unnamed_addr constant [22 x i8] c"DW_AT_MIPS_loop_begin\00", align 1
@.str.497 = private unnamed_addr constant [27 x i8] c"DW_AT_MIPS_tail_loop_begin\00", align 1
@.str.498 = private unnamed_addr constant [24 x i8] c"DW_AT_MIPS_epilog_begin\00", align 1
@.str.499 = private unnamed_addr constant [30 x i8] c"DW_AT_MIPS_loop_unroll_factor\00", align 1
@.str.500 = private unnamed_addr constant [35 x i8] c"DW_AT_MIPS_software_pipeline_depth\00", align 1
@.str.501 = private unnamed_addr constant [24 x i8] c"DW_AT_MIPS_linkage_name\00", align 1
@.str.502 = private unnamed_addr constant [18 x i8] c"DW_AT_MIPS_stride\00", align 1
@.str.503 = private unnamed_addr constant [25 x i8] c"DW_AT_MIPS_abstract_name\00", align 1
@.str.504 = private unnamed_addr constant [24 x i8] c"DW_AT_MIPS_clone_origin\00", align 1
@.str.505 = private unnamed_addr constant [23 x i8] c"DW_AT_MIPS_has_inlines\00", align 1
@.str.506 = private unnamed_addr constant [15 x i8] c"DW_AT_sf_names\00", align 1
@.str.507 = private unnamed_addr constant [15 x i8] c"DW_AT_src_info\00", align 1
@.str.508 = private unnamed_addr constant [15 x i8] c"DW_AT_mac_info\00", align 1
@.str.509 = private unnamed_addr constant [17 x i8] c"DW_AT_src_coords\00", align 1
@.str.510 = private unnamed_addr constant [17 x i8] c"DW_AT_body_begin\00", align 1
@.str.511 = private unnamed_addr constant [15 x i8] c"DW_AT_body_end\00", align 1
@.str.512 = private unnamed_addr constant [17 x i8] c"DW_AT_GNU_vector\00", align 1
@.str.513 = private unnamed_addr constant [21 x i8] c"DW_AT_GNU_guarded_by\00", align 1
@.str.514 = private unnamed_addr constant [24 x i8] c"DW_AT_GNU_pt_guarded_by\00", align 1
@.str.515 = private unnamed_addr constant [18 x i8] c"DW_AT_GNU_guarded\00", align 1
@.str.516 = private unnamed_addr constant [21 x i8] c"DW_AT_GNU_pt_guarded\00", align 1
@.str.517 = private unnamed_addr constant [25 x i8] c"DW_AT_GNU_locks_excluded\00", align 1
@.str.518 = private unnamed_addr constant [35 x i8] c"DW_AT_GNU_exclusive_locks_required\00", align 1
@.str.519 = private unnamed_addr constant [32 x i8] c"DW_AT_GNU_shared_locks_required\00", align 1
@.str.520 = private unnamed_addr constant [24 x i8] c"DW_AT_GNU_odr_signature\00", align 1
@.str.521 = private unnamed_addr constant [24 x i8] c"DW_AT_GNU_template_name\00", align 1
@.str.522 = private unnamed_addr constant [28 x i8] c"DW_AT_VMS_rtnbeg_pd_address\00", align 1
@.str.523 = private unnamed_addr constant [16 x i8] c"DW_AT_<unknown>\00", align 1
@.str.524 = private unnamed_addr constant [13 x i8] c".debug_types\00", align 1
@.str.526 = private unnamed_addr constant [5 x i8] c"%02x\00", align 1
@.str.527 = private unnamed_addr constant [15 x i8] c"Type Signature\00", align 1
@.str.528 = private unnamed_addr constant [19 x i8] c"Offset to Type DIE\00", align 1
@.str.529 = private unnamed_addr constant [14 x i8] c"(abbrev code)\00", align 1
@.str.530 = private unnamed_addr constant [10 x i8] c"(TAG: %s)\00", align 1
@.str.531 = private unnamed_addr constant [16 x i8] c"DW_children_yes\00", align 1
@.str.532 = private unnamed_addr constant [15 x i8] c"DW_children_no\00", align 1
@.str.533 = private unnamed_addr constant [5 x i8] c"(%s)\00", align 1
@.str.534 = private unnamed_addr constant [13 x i8] c"DW_FORM_addr\00", align 1
@.str.535 = private unnamed_addr constant [15 x i8] c"DW_FORM_block2\00", align 1
@.str.536 = private unnamed_addr constant [15 x i8] c"DW_FORM_block4\00", align 1
@.str.537 = private unnamed_addr constant [14 x i8] c"DW_FORM_data2\00", align 1
@.str.538 = private unnamed_addr constant [14 x i8] c"DW_FORM_data4\00", align 1
@.str.539 = private unnamed_addr constant [14 x i8] c"DW_FORM_data8\00", align 1
@.str.540 = private unnamed_addr constant [15 x i8] c"DW_FORM_string\00", align 1
@.str.541 = private unnamed_addr constant [14 x i8] c"DW_FORM_block\00", align 1
@.str.542 = private unnamed_addr constant [15 x i8] c"DW_FORM_block1\00", align 1
@.str.543 = private unnamed_addr constant [14 x i8] c"DW_FORM_data1\00", align 1
@.str.544 = private unnamed_addr constant [13 x i8] c"DW_FORM_flag\00", align 1
@.str.545 = private unnamed_addr constant [14 x i8] c"DW_FORM_sdata\00", align 1
@.str.546 = private unnamed_addr constant [13 x i8] c"DW_FORM_strp\00", align 1
@.str.547 = private unnamed_addr constant [14 x i8] c"DW_FORM_udata\00", align 1
@.str.548 = private unnamed_addr constant [17 x i8] c"DW_FORM_ref_addr\00", align 1
@.str.549 = private unnamed_addr constant [13 x i8] c"DW_FORM_ref1\00", align 1
@.str.550 = private unnamed_addr constant [13 x i8] c"DW_FORM_ref2\00", align 1
@.str.551 = private unnamed_addr constant [13 x i8] c"DW_FORM_ref4\00", align 1
@.str.552 = private unnamed_addr constant [13 x i8] c"DW_FORM_ref8\00", align 1
@.str.553 = private unnamed_addr constant [18 x i8] c"DW_FORM_ref_udata\00", align 1
@.str.554 = private unnamed_addr constant [17 x i8] c"DW_FORM_indirect\00", align 1
@.str.555 = private unnamed_addr constant [19 x i8] c"DW_FORM_sec_offset\00", align 1
@.str.556 = private unnamed_addr constant [16 x i8] c"DW_FORM_exprloc\00", align 1
@.str.557 = private unnamed_addr constant [21 x i8] c"DW_FORM_flag_present\00", align 1
@.str.558 = private unnamed_addr constant [17 x i8] c"DW_FORM_ref_sig8\00", align 1
@.str.559 = private unnamed_addr constant [18 x i8] c"DW_FORM_<unknown>\00", align 1
@.str.560 = private unnamed_addr constant [28 x i8] c"Length of Public Names Info\00", align 1
@.str.561 = private unnamed_addr constant [33 x i8] c"Length of Public Type Names Info\00", align 1
@.str.562 = private unnamed_addr constant [14 x i8] c"DWARF Version\00", align 1
@.str.563 = private unnamed_addr constant [32 x i8] c"Offset of Compilation Unit Info\00", align 1
@.str.564 = private unnamed_addr constant [24 x i8] c"Compilation Unit Length\00", align 1
@.str.565 = private unnamed_addr constant [11 x i8] c"DIE offset\00", align 1
@.str.566 = private unnamed_addr constant [14 x i8] c"external name\00", align 1
@.str.567 = private unnamed_addr constant [28 x i8] c"Length of Direct Call Table\00", align 1
@.str.568 = private unnamed_addr constant [15 x i8] c"Version number\00", align 1
@.str.569 = private unnamed_addr constant [11 x i8] c"New caller\00", align 1
@.str.570 = private unnamed_addr constant [18 x i8] c"Caller DIE offset\00", align 1
@.str.571 = private unnamed_addr constant [5 x i8] c"LPOC\00", align 1
@.str.572 = private unnamed_addr constant [14 x i8] c"Point of call\00", align 1
@.str.573 = private unnamed_addr constant [18 x i8] c"Callee DIE offset\00", align 1
@.str.574 = private unnamed_addr constant [29 x i8] c"Length of Virtual Call Table\00", align 1
@.str.575 = private unnamed_addr constant [12 x i8] c"Vtable slot\00", align 1
@.str.576 = private unnamed_addr constant [30 x i8] c"Length of Address Ranges Info\00", align 1
@.str.577 = private unnamed_addr constant [16 x i8] c"Size of Address\00", align 1
@.str.578 = private unnamed_addr constant [27 x i8] c"Size of Segment Descriptor\00", align 1
@.str.579 = private unnamed_addr constant [24 x i8] c"Pad to %d byte boundary\00", align 1
@.str.580 = private unnamed_addr constant [8 x i8] c"Address\00", align 1
@.str.581 = private unnamed_addr constant [7 x i8] c"Length\00", align 1
@.str.582 = private unnamed_addr constant [12 x i8] c"Offset 0x%x\00", align 1
@.str.583 = private unnamed_addr constant [13 x i8] c"Define macro\00", align 1
@.str.584 = private unnamed_addr constant [18 x i8] c"At line number %d\00", align 1
@.str.585 = private unnamed_addr constant [10 x i8] c"The macro\00", align 1
@.str.586 = private unnamed_addr constant [15 x i8] c"Undefine macro\00", align 1
@.str.587 = private unnamed_addr constant [15 x i8] c"Start new file\00", align 1
@.str.588 = private unnamed_addr constant [29 x i8] c"Included from line number %d\00", align 1
@.str.589 = private unnamed_addr constant [8 x i8] c"file %s\00", align 1
@.str.590 = private unnamed_addr constant [9 x i8] c"End file\00", align 1
@dwarf2out_var_location.last_label = internal unnamed_addr global ptr null, align 8
@dwarf2out_var_location.last_postcall_label = internal unnamed_addr global ptr null, align 8
@dwarf2out_var_location.last_in_cold_section_p = internal unnamed_addr global i8 0, align 1
@.str.591 = private unnamed_addr constant [4 x i8] c"LVL\00", align 1
@loclabel_num = internal global i32 0, align 4
@.str.592 = private unnamed_addr constant [5 x i8] c"%s-1\00", align 1
@poc_label_num = internal global i32 0, align 4
@stderr = external local_unnamed_addr global ptr, align 8
@.str.593 = private unnamed_addr constant [14 x i8] c"DIE %4ld: %s\0A\00", align 1
@.str.594 = private unnamed_addr constant [17 x i8] c"  abbrev id: %lu\00", align 1
@.str.595 = private unnamed_addr constant [14 x i8] c" offset: %ld\0A\00", align 1
@.str.596 = private unnamed_addr constant [14 x i8] c"  signature: \00", align 1
@.str.597 = private unnamed_addr constant [7 x i8] c"  %s: \00", align 1
@.str.598 = private unnamed_addr constant [8 x i8] c"address\00", align 1
@.str.599 = private unnamed_addr constant [7 x i8] c"offset\00", align 1
@.str.600 = private unnamed_addr constant [20 x i8] c"location descriptor\00", align 1
@.str.601 = private unnamed_addr constant [26 x i8] c"location list -> label:%s\00", align 1
@.str.602 = private unnamed_addr constant [11 x i8] c"range list\00", align 1
@.str.603 = private unnamed_addr constant [4 x i8] c"%ld\00", align 1
@.str.604 = private unnamed_addr constant [4 x i8] c"%lu\00", align 1
@.str.605 = private unnamed_addr constant [19 x i8] c"constant (%ld,%lu)\00", align 1
@.str.606 = private unnamed_addr constant [34 x i8] c"floating-point or vector constant\00", align 1
@.str.607 = private unnamed_addr constant [3 x i8] c"%u\00", align 1
@.str.608 = private unnamed_addr constant [19 x i8] c"die -> signature: \00", align 1
@.str.609 = private unnamed_addr constant [17 x i8] c"die -> label: %s\00", align 1
@.str.610 = private unnamed_addr constant [11 x i8] c"die -> %ld\00", align 1
@.str.611 = private unnamed_addr constant [14 x i8] c"die -> <null>\00", align 1
@.str.612 = private unnamed_addr constant [10 x i8] c"label: %s\00", align 1
@.str.613 = private unnamed_addr constant [5 x i8] c"\22%s\22\00", align 1
@.str.614 = private unnamed_addr constant [7 x i8] c"<null>\00", align 1
@.str.615 = private unnamed_addr constant [10 x i8] c"\22%s\22 (%d)\00", align 1
@print_indent = internal unnamed_addr global i32 0, align 4
@.str.616 = private unnamed_addr constant [4 x i8] c"%*s\00", align 1
@gt_ggc_r_gt_dwarf2out_h = dso_local local_unnamed_addr constant [48 x %struct.ggc_root_tab] [%struct.ggc_root_tab { ptr @tmpl_value_parm_die_table, i64 1, i64 8, ptr @gt_ggc_mx_VEC_die_arg_entry_gc, ptr @gt_pch_nx_VEC_die_arg_entry_gc }, %struct.ggc_root_tab { ptr @file_table_last_lookup, i64 1, i64 8, ptr @gt_ggc_mx_dwarf_file_data, ptr @gt_pch_nx_dwarf_file_data }, %struct.ggc_root_tab { ptr @last_emitted_file, i64 1, i64 8, ptr @gt_ggc_mx_dwarf_file_data, ptr @gt_pch_nx_dwarf_file_data }, %struct.ggc_root_tab { ptr @vcall_insn_table, i64 1, i64 8, ptr @gt_ggc_m_P10vcall_insn4htab, ptr @gt_pch_n_P10vcall_insn4htab }, %struct.ggc_root_tab { ptr @vcall_table, i64 1, i64 8, ptr @gt_ggc_mx_VEC_vcall_entry_gc, ptr @gt_pch_nx_VEC_vcall_entry_gc }, %struct.ggc_root_tab { ptr @dcall_table, i64 1, i64 8, ptr @gt_ggc_mx_VEC_dcall_entry_gc, ptr @gt_pch_nx_VEC_dcall_entry_gc }, %struct.ggc_root_tab { ptr @ranges_by_label, i64 1, i64 8, ptr @gt_ggc_ma_ranges_by_label, ptr @gt_pch_na_ranges_by_label }, %struct.ggc_root_tab { ptr @ranges_table, i64 1, i64 8, ptr @gt_ggc_ma_ranges_table, ptr @gt_pch_na_ranges_table }, %struct.ggc_root_tab { ptr @arange_table, i64 1, i64 8, ptr @gt_ggc_ma_arange_table, ptr @gt_pch_na_arange_table }, %struct.ggc_root_tab { ptr @pubtype_table, i64 1, i64 8, ptr @gt_ggc_mx_VEC_pubname_entry_gc, ptr @gt_pch_nx_VEC_pubname_entry_gc }, %struct.ggc_root_tab { ptr @pubname_table, i64 1, i64 8, ptr @gt_ggc_mx_VEC_pubname_entry_gc, ptr @gt_pch_nx_VEC_pubname_entry_gc }, %struct.ggc_root_tab { ptr @separate_line_info_table, i64 1, i64 8, ptr @gt_ggc_ma_separate_line_info_table, ptr @gt_pch_na_separate_line_info_table }, %struct.ggc_root_tab { ptr @line_info_table, i64 1, i64 8, ptr @gt_ggc_ma_line_info_table, ptr @gt_pch_na_line_info_table }, %struct.ggc_root_tab { ptr @abbrev_die_table, i64 1, i64 8, ptr @gt_ggc_ma_abbrev_die_table, ptr @gt_pch_na_abbrev_die_table }, %struct.ggc_root_tab { ptr @decl_loc_table, i64 1, i64 8, ptr @gt_ggc_m_P16var_loc_list_def4htab, ptr @gt_pch_n_P16var_loc_list_def4htab }, %struct.ggc_root_tab { ptr @common_block_die_table, i64 1, i64 8, ptr @gt_ggc_m_P10die_struct4htab, ptr @gt_pch_n_P10die_struct4htab }, %struct.ggc_root_tab { ptr @decl_die_table, i64 1, i64 8, ptr @gt_ggc_m_P10die_struct4htab, ptr @gt_pch_n_P10die_struct4htab }, %struct.ggc_root_tab { ptr @file_table, i64 1, i64 8, ptr @gt_ggc_m_P15dwarf_file_data4htab, ptr @gt_pch_n_P15dwarf_file_data4htab }, %struct.ggc_root_tab { ptr @deferred_asm_name, i64 1, i64 8, ptr @gt_ggc_mx_limbo_die_struct, ptr @gt_pch_nx_limbo_die_struct }, %struct.ggc_root_tab { ptr @limbo_die_list, i64 1, i64 8, ptr @gt_ggc_mx_limbo_die_struct, ptr @gt_pch_nx_limbo_die_struct }, %struct.ggc_root_tab { ptr @comdat_type_list, i64 1, i64 8, ptr @gt_ggc_mx_comdat_type_struct, ptr @gt_pch_nx_comdat_type_struct }, %struct.ggc_root_tab { ptr @comp_unit_die, i64 1, i64 8, ptr @gt_ggc_mx_die_struct, ptr @gt_pch_nx_die_struct }, %struct.ggc_root_tab { ptr @deferred_locations_list, i64 1, i64 8, ptr @gt_ggc_mx_VEC_deferred_locations_gc, ptr @gt_pch_nx_VEC_deferred_locations_gc }, %struct.ggc_root_tab { ptr @regs_saved_in_regs, i64 4, i64 16, ptr @gt_ggc_mx_rtx_def, ptr @gt_pch_nx_rtx_def }, %struct.ggc_root_tab { ptr getelementptr (i8, ptr @regs_saved_in_regs, i64 8), i64 4, i64 16, ptr @gt_ggc_mx_rtx_def, ptr @gt_pch_nx_rtx_def }, %struct.ggc_root_tab { ptr @queued_reg_saves, i64 1, i64 8, ptr @gt_ggc_mx_queued_reg_save, ptr @gt_pch_nx_queued_reg_save }, %struct.ggc_root_tab { ptr @cold_text_section, i64 1, i64 8, ptr @gt_ggc_mx_section, ptr @gt_pch_nx_section }, %struct.ggc_root_tab { ptr @debug_str_hash, i64 1, i64 8, ptr @gt_ggc_m_P20indirect_string_node4htab, ptr @gt_pch_n_P20indirect_string_node4htab }, %struct.ggc_root_tab { ptr @cie_cfi_head, i64 1, i64 8, ptr @gt_ggc_mx_dw_cfi_struct, ptr @gt_pch_nx_dw_cfi_struct }, %struct.ggc_root_tab { ptr @fde_table, i64 1, i64 8, ptr @gt_ggc_ma_fde_table, ptr @gt_pch_na_fde_table }, %struct.ggc_root_tab { ptr @current_unit_personality, i64 1, i64 8, ptr @gt_ggc_mx_rtx_def, ptr @gt_pch_nx_rtx_def }, %struct.ggc_root_tab { ptr @debug_frame_section, i64 1, i64 8, ptr @gt_ggc_mx_section, ptr @gt_pch_nx_section }, %struct.ggc_root_tab { ptr @debug_ranges_section, i64 1, i64 8, ptr @gt_ggc_mx_section, ptr @gt_pch_nx_section }, %struct.ggc_root_tab { ptr @debug_str_section, i64 1, i64 8, ptr @gt_ggc_mx_section, ptr @gt_pch_nx_section }, %struct.ggc_root_tab { ptr @debug_vcall_section, i64 1, i64 8, ptr @gt_ggc_mx_section, ptr @gt_pch_nx_section }, %struct.ggc_root_tab { ptr @debug_dcall_section, i64 1, i64 8, ptr @gt_ggc_mx_section, ptr @gt_pch_nx_section }, %struct.ggc_root_tab { ptr @debug_pubtypes_section, i64 1, i64 8, ptr @gt_ggc_mx_section, ptr @gt_pch_nx_section }, %struct.ggc_root_tab { ptr @debug_pubnames_section, i64 1, i64 8, ptr @gt_ggc_mx_section, ptr @gt_pch_nx_section }, %struct.ggc_root_tab { ptr @debug_loc_section, i64 1, i64 8, ptr @gt_ggc_mx_section, ptr @gt_pch_nx_section }, %struct.ggc_root_tab { ptr @debug_line_section, i64 1, i64 8, ptr @gt_ggc_mx_section, ptr @gt_pch_nx_section }, %struct.ggc_root_tab { ptr @debug_macinfo_section, i64 1, i64 8, ptr @gt_ggc_mx_section, ptr @gt_pch_nx_section }, %struct.ggc_root_tab { ptr @debug_aranges_section, i64 1, i64 8, ptr @gt_ggc_mx_section, ptr @gt_pch_nx_section }, %struct.ggc_root_tab { ptr @debug_abbrev_section, i64 1, i64 8, ptr @gt_ggc_mx_section, ptr @gt_pch_nx_section }, %struct.ggc_root_tab { ptr @debug_info_section, i64 1, i64 8, ptr @gt_ggc_mx_section, ptr @gt_pch_nx_section }, %struct.ggc_root_tab { ptr @decl_scope_table, i64 1, i64 8, ptr @gt_ggc_mx_VEC_tree_gc, ptr @gt_pch_nx_VEC_tree_gc }, %struct.ggc_root_tab { ptr @incomplete_types, i64 1, i64 8, ptr @gt_ggc_mx_VEC_tree_gc, ptr @gt_pch_nx_VEC_tree_gc }, %struct.ggc_root_tab { ptr @used_rtx_array, i64 1, i64 8, ptr @gt_ggc_mx_VEC_rtx_gc, ptr @gt_pch_nx_VEC_rtx_gc }, %struct.ggc_root_tab zeroinitializer], align 16
@separate_line_info_table = internal global ptr null, align 8
@separate_line_info_table_allocated = internal global i32 0, align 4
@gt_pch_rs_gt_dwarf2out_h = dso_local local_unnamed_addr constant [28 x %struct.ggc_root_tab] [%struct.ggc_root_tab { ptr @label_num, i64 1, i64 4, ptr null, ptr null }, %struct.ggc_root_tab { ptr @poc_label_num, i64 1, i64 4, ptr null, ptr null }, %struct.ggc_root_tab { ptr @loclabel_num, i64 1, i64 4, ptr null, ptr null }, %struct.ggc_root_tab { ptr @have_location_lists, i64 1, i64 1, ptr null, ptr null }, %struct.ggc_root_tab { ptr @ranges_by_label_in_use, i64 1, i64 4, ptr null, ptr null }, %struct.ggc_root_tab { ptr @ranges_by_label_allocated, i64 1, i64 4, ptr null, ptr null }, %struct.ggc_root_tab { ptr @ranges_table_in_use, i64 1, i64 4, ptr null, ptr null }, %struct.ggc_root_tab { ptr @ranges_table_allocated, i64 1, i64 4, ptr null, ptr null }, %struct.ggc_root_tab { ptr @arange_table_in_use, i64 1, i64 4, ptr null, ptr null }, %struct.ggc_root_tab { ptr @arange_table_allocated, i64 1, i64 4, ptr null, ptr null }, %struct.ggc_root_tab { ptr @separate_line_info_table_in_use, i64 1, i64 4, ptr null, ptr null }, %struct.ggc_root_tab { ptr @separate_line_info_table_allocated, i64 1, i64 4, ptr null, ptr null }, %struct.ggc_root_tab { ptr @line_info_table_in_use, i64 1, i64 4, ptr null, ptr null }, %struct.ggc_root_tab { ptr @line_info_table_allocated, i64 1, i64 4, ptr null, ptr null }, %struct.ggc_root_tab { ptr @abbrev_die_table_in_use, i64 1, i64 4, ptr null, ptr null }, %struct.ggc_root_tab { ptr @abbrev_die_table_allocated, i64 1, i64 4, ptr null, ptr null }, %struct.ggc_root_tab { ptr @num_regs_saved_in_regs, i64 1, i64 8, ptr null, ptr null }, %struct.ggc_root_tab { ptr @regs_saved_in_regs, i64 1, i64 64, ptr null, ptr null }, %struct.ggc_root_tab { ptr @cold_text_section_used, i64 1, i64 1, ptr null, ptr null }, %struct.ggc_root_tab { ptr @text_section_used, i64 1, i64 1, ptr null, ptr null }, %struct.ggc_root_tab { ptr @have_multiple_function_sections, i64 1, i64 1, ptr null, ptr null }, %struct.ggc_root_tab { ptr @dwarf2out_cfi_label_num, i64 1, i64 8, ptr null, ptr null }, %struct.ggc_root_tab { ptr @dw2_string_counter, i64 1, i64 4, ptr null, ptr null }, %struct.ggc_root_tab { ptr @debug_str_hash_forced, i64 1, i64 1, ptr null, ptr null }, %struct.ggc_root_tab { ptr @fde_table_in_use, i64 1, i64 4, ptr null, ptr null }, %struct.ggc_root_tab { ptr @fde_table_allocated, i64 1, i64 4, ptr null, ptr null }, %struct.ggc_root_tab { ptr @saved_do_cfi_asm, i64 1, i64 1, ptr null, ptr null }, %struct.ggc_root_tab zeroinitializer], align 16
@separate_line_info_table_in_use = internal global i32 0, align 4
@reltable.dwarf_stack_op_name = private unnamed_addr constant [239 x i32] [i32 trunc (i64 sub (i64 ptrtoint (ptr @.str.7 to i64), i64 ptrtoint (ptr @reltable.dwarf_stack_op_name to i64)) to i32), i32 trunc (i64 sub (i64 ptrtoint (ptr @.str.164 to i64), i64 ptrtoint (ptr @reltable.dwarf_stack_op_name to i64)) to i32), i32 trunc (i64 sub (i64 ptrtoint (ptr @.str.164 to i64), i64 ptrtoint (ptr @reltable.dwarf_stack_op_name to i64)) to i32), i32 trunc (i64 sub (i64 ptrtoint (ptr @.str.8 to i64), i64 ptrtoint (ptr @reltable.dwarf_stack_op_name to i64)) to i32), i32 trunc (i64 sub (i64 ptrtoint (ptr @.str.164 to i64), i64 ptrtoint (ptr @reltable.dwarf_stack_op_name to i64)) to i32), i32 trunc (i64 sub (i64 ptrtoint (ptr @.str.9 to i64), i64 ptrtoint (ptr @reltable.dwarf_stack_op_name to i64)) to i32), i32 trunc (i64 sub (i64 ptrtoint (ptr @.str.10 to i64), i64 ptrtoint (ptr @reltable.dwarf_stack_op_name to i64)) to i32), i32 trunc (i64 sub (i64 ptrtoint (ptr @.str.11 to i64), i64 ptrtoint (ptr @reltable.dwarf_stack_op_name to i64)) to i32), i32 trunc (i64 sub (i64 ptrtoint (ptr @.str.12 to i64), i64 ptrtoint (ptr @reltable.dwarf_stack_op_name to i64)) to i32), i32 trunc (i64 sub (i64 ptrtoint (ptr @.str.13 to i64), i64 ptrtoint (ptr @reltable.dwarf_stack_op_name to i64)) to i32), i32 trunc (i64 sub (i64 ptrtoint (ptr @.str.14 to i64), i64 ptrtoint (ptr @reltable.dwarf_stack_op_name to i64)) to i32), i32 trunc (i64 sub (i64 ptrtoint (ptr @.str.15 to i64), i64 ptrtoint (ptr @reltable.dwarf_stack_op_name to i64)) to i32), i32 trunc (i64 sub (i64 ptrtoint (ptr @.str.16 to i64), i64 ptrtoint (ptr @reltable.dwarf_stack_op_name to i64)) to i32), i32 trunc (i64 sub (i64 ptrtoint (ptr @.str.17 to i64), i64 ptrtoint (ptr @reltable.dwarf_stack_op_name to i64)) to i32), i32 trunc (i64 sub (i64 ptrtoint (ptr @.str.18 to i64), i64 ptrtoint (ptr @reltable.dwarf_stack_op_name to i64)) to i32), i32 trunc (i64 sub (i64 ptrtoint (ptr @.str.19 to i64), i64 ptrtoint (ptr @reltable.dwarf_stack_op_name to i64)) to i32), i32 trunc (i64 sub (i64 ptrtoint (ptr @.str.20 to i64), i64 ptrtoint (ptr @reltable.dwarf_stack_op_name to i64)) to i32), i32 trunc (i64 sub (i64 ptrtoint (ptr @.str.21 to i64), i64 ptrtoint (ptr @reltable.dwarf_stack_op_name to i64)) to i32), i32 trunc (i64 sub (i64 ptrtoint (ptr @.str.22 to i64), i64 ptrtoint (ptr @reltable.dwarf_stack_op_name to i64)) to i32), i32 trunc (i64 sub (i64 ptrtoint (ptr @.str.23 to i64), i64 ptrtoint (ptr @reltable.dwarf_stack_op_name to i64)) to i32), i32 trunc (i64 sub (i64 ptrtoint (ptr @.str.24 to i64), i64 ptrtoint (ptr @reltable.dwarf_stack_op_name to i64)) to i32), i32 trunc (i64 sub (i64 ptrtoint (ptr @.str.25 to i64), i64 ptrtoint (ptr @reltable.dwarf_stack_op_name to i64)) to i32), i32 trunc (i64 sub (i64 ptrtoint (ptr @.str.26 to i64), i64 ptrtoint (ptr @reltable.dwarf_stack_op_name to i64)) to i32), i32 trunc (i64 sub (i64 ptrtoint (ptr @.str.27 to i64), i64 ptrtoint (ptr @reltable.dwarf_stack_op_name to i64)) to i32), i32 trunc (i64 sub (i64 ptrtoint (ptr @.str.28 to i64), i64 ptrtoint (ptr @reltable.dwarf_stack_op_name to i64)) to i32), i32 trunc (i64 sub (i64 ptrtoint (ptr @.str.29 to i64), i64 ptrtoint (ptr @reltable.dwarf_stack_op_name to i64)) to i32), i32 trunc (i64 sub (i64 ptrtoint (ptr @.str.30 to i64), i64 ptrtoint (ptr @reltable.dwarf_stack_op_name to i64)) to i32), i32 trunc (i64 sub (i64 ptrtoint (ptr @.str.31 to i64), i64 ptrtoint (ptr @reltable.dwarf_stack_op_name to i64)) to i32), i32 trunc (i64 sub (i64 ptrtoint (ptr @.str.32 to i64), i64 ptrtoint (ptr @reltable.dwarf_stack_op_name to i64)) to i32), i32 trunc (i64 sub (i64 ptrtoint (ptr @.str.33 to i64), i64 ptrtoint (ptr @reltable.dwarf_stack_op_name to i64)) to i32), i32 trunc (i64 sub (i64 ptrtoint (ptr @.str.34 to i64), i64 ptrtoint (ptr @reltable.dwarf_stack_op_name to i64)) to i32), i32 trunc (i64 sub (i64 ptrtoint (ptr @.str.35 to i64), i64 ptrtoint (ptr @reltable.dwarf_stack_op_name to i64)) to i32), i32 trunc (i64 sub (i64 ptrtoint (ptr @.str.36 to i64), i64 ptrtoint (ptr @reltable.dwarf_stack_op_name to i64)) to i32), i32 trunc (i64 sub (i64 ptrtoint (ptr @.str.37 to i64), i64 ptrtoint (ptr @reltable.dwarf_stack_op_name to i64)) to i32), i32 trunc (i64 sub (i64 ptrtoint (ptr @.str.38 to i64), i64 ptrtoint (ptr @reltable.dwarf_stack_op_name to i64)) to i32), i32 trunc (i64 sub (i64 ptrtoint (ptr @.str.39 to i64), i64 ptrtoint (ptr @reltable.dwarf_stack_op_name to i64)) to i32), i32 trunc (i64 sub (i64 ptrtoint (ptr @.str.40 to i64), i64 ptrtoint (ptr @reltable.dwarf_stack_op_name to i64)) to i32), i32 trunc (i64 sub (i64 ptrtoint (ptr @.str.41 to i64), i64 ptrtoint (ptr @reltable.dwarf_stack_op_name to i64)) to i32), i32 trunc (i64 sub (i64 ptrtoint (ptr @.str.42 to i64), i64 ptrtoint (ptr @reltable.dwarf_stack_op_name to i64)) to i32), i32 trunc (i64 sub (i64 ptrtoint (ptr @.str.43 to i64), i64 ptrtoint (ptr @reltable.dwarf_stack_op_name to i64)) to i32), i32 trunc (i64 sub (i64 ptrtoint (ptr @.str.44 to i64), i64 ptrtoint (ptr @reltable.dwarf_stack_op_name to i64)) to i32), i32 trunc (i64 sub (i64 ptrtoint (ptr @.str.45 to i64), i64 ptrtoint (ptr @reltable.dwarf_stack_op_name to i64)) to i32), i32 trunc (i64 sub (i64 ptrtoint (ptr @.str.46 to i64), i64 ptrtoint (ptr @reltable.dwarf_stack_op_name to i64)) to i32), i32 trunc (i64 sub (i64 ptrtoint (ptr @.str.47 to i64), i64 ptrtoint (ptr @reltable.dwarf_stack_op_name to i64)) to i32), i32 trunc (i64 sub (i64 ptrtoint (ptr @.str.48 to i64), i64 ptrtoint (ptr @reltable.dwarf_stack_op_name to i64)) to i32), i32 trunc (i64 sub (i64 ptrtoint (ptr @.str.49 to i64), i64 ptrtoint (ptr @reltable.dwarf_stack_op_name to i64)) to i32), i32 trunc (i64 sub (i64 ptrtoint (ptr @.str.50 to i64), i64 ptrtoint (ptr @reltable.dwarf_stack_op_name to i64)) to i32), i32 trunc (i64 sub (i64 ptrtoint (ptr @.str.51 to i64), i64 ptrtoint (ptr @reltable.dwarf_stack_op_name to i64)) to i32), i32 trunc (i64 sub (i64 ptrtoint (ptr @.str.52 to i64), i64 ptrtoint (ptr @reltable.dwarf_stack_op_name to i64)) to i32), i32 trunc (i64 sub (i64 ptrtoint (ptr @.str.53 to i64), i64 ptrtoint (ptr @reltable.dwarf_stack_op_name to i64)) to i32), i32 trunc (i64 sub (i64 ptrtoint (ptr @.str.54 to i64), i64 ptrtoint (ptr @reltable.dwarf_stack_op_name to i64)) to i32), i32 trunc (i64 sub (i64 ptrtoint (ptr @.str.55 to i64), i64 ptrtoint (ptr @reltable.dwarf_stack_op_name to i64)) to i32), i32 trunc (i64 sub (i64 ptrtoint (ptr @.str.56 to i64), i64 ptrtoint (ptr @reltable.dwarf_stack_op_name to i64)) to i32), i32 trunc (i64 sub (i64 ptrtoint (ptr @.str.57 to i64), i64 ptrtoint (ptr @reltable.dwarf_stack_op_name to i64)) to i32), i32 trunc (i64 sub (i64 ptrtoint (ptr @.str.58 to i64), i64 ptrtoint (ptr @reltable.dwarf_stack_op_name to i64)) to i32), i32 trunc (i64 sub (i64 ptrtoint (ptr @.str.59 to i64), i64 ptrtoint (ptr @reltable.dwarf_stack_op_name to i64)) to i32), i32 trunc (i64 sub (i64 ptrtoint (ptr @.str.60 to i64), i64 ptrtoint (ptr @reltable.dwarf_stack_op_name to i64)) to i32), i32 trunc (i64 sub (i64 ptrtoint (ptr @.str.61 to i64), i64 ptrtoint (ptr @reltable.dwarf_stack_op_name to i64)) to i32), i32 trunc (i64 sub (i64 ptrtoint (ptr @.str.62 to i64), i64 ptrtoint (ptr @reltable.dwarf_stack_op_name to i64)) to i32), i32 trunc (i64 sub (i64 ptrtoint (ptr @.str.63 to i64), i64 ptrtoint (ptr @reltable.dwarf_stack_op_name to i64)) to i32), i32 trunc (i64 sub (i64 ptrtoint (ptr @.str.64 to i64), i64 ptrtoint (ptr @reltable.dwarf_stack_op_name to i64)) to i32), i32 trunc (i64 sub (i64 ptrtoint (ptr @.str.65 to i64), i64 ptrtoint (ptr @reltable.dwarf_stack_op_name to i64)) to i32), i32 trunc (i64 sub (i64 ptrtoint (ptr @.str.66 to i64), i64 ptrtoint (ptr @reltable.dwarf_stack_op_name to i64)) to i32), i32 trunc (i64 sub (i64 ptrtoint (ptr @.str.67 to i64), i64 ptrtoint (ptr @reltable.dwarf_stack_op_name to i64)) to i32), i32 trunc (i64 sub (i64 ptrtoint (ptr @.str.68 to i64), i64 ptrtoint (ptr @reltable.dwarf_stack_op_name to i64)) to i32), i32 trunc (i64 sub (i64 ptrtoint (ptr @.str.69 to i64), i64 ptrtoint (ptr @reltable.dwarf_stack_op_name to i64)) to i32), i32 trunc (i64 sub (i64 ptrtoint (ptr @.str.70 to i64), i64 ptrtoint (ptr @reltable.dwarf_stack_op_name to i64)) to i32), i32 trunc (i64 sub (i64 ptrtoint (ptr @.str.71 to i64), i64 ptrtoint (ptr @reltable.dwarf_stack_op_name to i64)) to i32), i32 trunc (i64 sub (i64 ptrtoint (ptr @.str.72 to i64), i64 ptrtoint (ptr @reltable.dwarf_stack_op_name to i64)) to i32), i32 trunc (i64 sub (i64 ptrtoint (ptr @.str.73 to i64), i64 ptrtoint (ptr @reltable.dwarf_stack_op_name to i64)) to i32), i32 trunc (i64 sub (i64 ptrtoint (ptr @.str.74 to i64), i64 ptrtoint (ptr @reltable.dwarf_stack_op_name to i64)) to i32), i32 trunc (i64 sub (i64 ptrtoint (ptr @.str.75 to i64), i64 ptrtoint (ptr @reltable.dwarf_stack_op_name to i64)) to i32), i32 trunc (i64 sub (i64 ptrtoint (ptr @.str.76 to i64), i64 ptrtoint (ptr @reltable.dwarf_stack_op_name to i64)) to i32), i32 trunc (i64 sub (i64 ptrtoint (ptr @.str.77 to i64), i64 ptrtoint (ptr @reltable.dwarf_stack_op_name to i64)) to i32), i32 trunc (i64 sub (i64 ptrtoint (ptr @.str.78 to i64), i64 ptrtoint (ptr @reltable.dwarf_stack_op_name to i64)) to i32), i32 trunc (i64 sub (i64 ptrtoint (ptr @.str.79 to i64), i64 ptrtoint (ptr @reltable.dwarf_stack_op_name to i64)) to i32), i32 trunc (i64 sub (i64 ptrtoint (ptr @.str.80 to i64), i64 ptrtoint (ptr @reltable.dwarf_stack_op_name to i64)) to i32), i32 trunc (i64 sub (i64 ptrtoint (ptr @.str.81 to i64), i64 ptrtoint (ptr @reltable.dwarf_stack_op_name to i64)) to i32), i32 trunc (i64 sub (i64 ptrtoint (ptr @.str.82 to i64), i64 ptrtoint (ptr @reltable.dwarf_stack_op_name to i64)) to i32), i32 trunc (i64 sub (i64 ptrtoint (ptr @.str.83 to i64), i64 ptrtoint (ptr @reltable.dwarf_stack_op_name to i64)) to i32), i32 trunc (i64 sub (i64 ptrtoint (ptr @.str.84 to i64), i64 ptrtoint (ptr @reltable.dwarf_stack_op_name to i64)) to i32), i32 trunc (i64 sub (i64 ptrtoint (ptr @.str.85 to i64), i64 ptrtoint (ptr @reltable.dwarf_stack_op_name to i64)) to i32), i32 trunc (i64 sub (i64 ptrtoint (ptr @.str.86 to i64), i64 ptrtoint (ptr @reltable.dwarf_stack_op_name to i64)) to i32), i32 trunc (i64 sub (i64 ptrtoint (ptr @.str.87 to i64), i64 ptrtoint (ptr @reltable.dwarf_stack_op_name to i64)) to i32), i32 trunc (i64 sub (i64 ptrtoint (ptr @.str.88 to i64), i64 ptrtoint (ptr @reltable.dwarf_stack_op_name to i64)) to i32), i32 trunc (i64 sub (i64 ptrtoint (ptr @.str.89 to i64), i64 ptrtoint (ptr @reltable.dwarf_stack_op_name to i64)) to i32), i32 trunc (i64 sub (i64 ptrtoint (ptr @.str.90 to i64), i64 ptrtoint (ptr @reltable.dwarf_stack_op_name to i64)) to i32), i32 trunc (i64 sub (i64 ptrtoint (ptr @.str.91 to i64), i64 ptrtoint (ptr @reltable.dwarf_stack_op_name to i64)) to i32), i32 trunc (i64 sub (i64 ptrtoint (ptr @.str.92 to i64), i64 ptrtoint (ptr @reltable.dwarf_stack_op_name to i64)) to i32), i32 trunc (i64 sub (i64 ptrtoint (ptr @.str.93 to i64), i64 ptrtoint (ptr @reltable.dwarf_stack_op_name to i64)) to i32), i32 trunc (i64 sub (i64 ptrtoint (ptr @.str.94 to i64), i64 ptrtoint (ptr @reltable.dwarf_stack_op_name to i64)) to i32), i32 trunc (i64 sub (i64 ptrtoint (ptr @.str.95 to i64), i64 ptrtoint (ptr @reltable.dwarf_stack_op_name to i64)) to i32), i32 trunc (i64 sub (i64 ptrtoint (ptr @.str.96 to i64), i64 ptrtoint (ptr @reltable.dwarf_stack_op_name to i64)) to i32), i32 trunc (i64 sub (i64 ptrtoint (ptr @.str.97 to i64), i64 ptrtoint (ptr @reltable.dwarf_stack_op_name to i64)) to i32), i32 trunc (i64 sub (i64 ptrtoint (ptr @.str.98 to i64), i64 ptrtoint (ptr @reltable.dwarf_stack_op_name to i64)) to i32), i32 trunc (i64 sub (i64 ptrtoint (ptr @.str.99 to i64), i64 ptrtoint (ptr @reltable.dwarf_stack_op_name to i64)) to i32), i32 trunc (i64 sub (i64 ptrtoint (ptr @.str.100 to i64), i64 ptrtoint (ptr @reltable.dwarf_stack_op_name to i64)) to i32), i32 trunc (i64 sub (i64 ptrtoint (ptr @.str.101 to i64), i64 ptrtoint (ptr @reltable.dwarf_stack_op_name to i64)) to i32), i32 trunc (i64 sub (i64 ptrtoint (ptr @.str.102 to i64), i64 ptrtoint (ptr @reltable.dwarf_stack_op_name to i64)) to i32), i32 trunc (i64 sub (i64 ptrtoint (ptr @.str.103 to i64), i64 ptrtoint (ptr @reltable.dwarf_stack_op_name to i64)) to i32), i32 trunc (i64 sub (i64 ptrtoint (ptr @.str.104 to i64), i64 ptrtoint (ptr @reltable.dwarf_stack_op_name to i64)) to i32), i32 trunc (i64 sub (i64 ptrtoint (ptr @.str.105 to i64), i64 ptrtoint (ptr @reltable.dwarf_stack_op_name to i64)) to i32), i32 trunc (i64 sub (i64 ptrtoint (ptr @.str.106 to i64), i64 ptrtoint (ptr @reltable.dwarf_stack_op_name to i64)) to i32), i32 trunc (i64 sub (i64 ptrtoint (ptr @.str.107 to i64), i64 ptrtoint (ptr @reltable.dwarf_stack_op_name to i64)) to i32), i32 trunc (i64 sub (i64 ptrtoint (ptr @.str.108 to i64), i64 ptrtoint (ptr @reltable.dwarf_stack_op_name to i64)) to i32), i32 trunc (i64 sub (i64 ptrtoint (ptr @.str.109 to i64), i64 ptrtoint (ptr @reltable.dwarf_stack_op_name to i64)) to i32), i32 trunc (i64 sub (i64 ptrtoint (ptr @.str.110 to i64), i64 ptrtoint (ptr @reltable.dwarf_stack_op_name to i64)) to i32), i32 trunc (i64 sub (i64 ptrtoint (ptr @.str.111 to i64), i64 ptrtoint (ptr @reltable.dwarf_stack_op_name to i64)) to i32), i32 trunc (i64 sub (i64 ptrtoint (ptr @.str.112 to i64), i64 ptrtoint (ptr @reltable.dwarf_stack_op_name to i64)) to i32), i32 trunc (i64 sub (i64 ptrtoint (ptr @.str.113 to i64), i64 ptrtoint (ptr @reltable.dwarf_stack_op_name to i64)) to i32), i32 trunc (i64 sub (i64 ptrtoint (ptr @.str.114 to i64), i64 ptrtoint (ptr @reltable.dwarf_stack_op_name to i64)) to i32), i32 trunc (i64 sub (i64 ptrtoint (ptr @.str.115 to i64), i64 ptrtoint (ptr @reltable.dwarf_stack_op_name to i64)) to i32), i32 trunc (i64 sub (i64 ptrtoint (ptr @.str.116 to i64), i64 ptrtoint (ptr @reltable.dwarf_stack_op_name to i64)) to i32), i32 trunc (i64 sub (i64 ptrtoint (ptr @.str.117 to i64), i64 ptrtoint (ptr @reltable.dwarf_stack_op_name to i64)) to i32), i32 trunc (i64 sub (i64 ptrtoint (ptr @.str.118 to i64), i64 ptrtoint (ptr @reltable.dwarf_stack_op_name to i64)) to i32), i32 trunc (i64 sub (i64 ptrtoint (ptr @.str.119 to i64), i64 ptrtoint (ptr @reltable.dwarf_stack_op_name to i64)) to i32), i32 trunc (i64 sub (i64 ptrtoint (ptr @.str.120 to i64), i64 ptrtoint (ptr @reltable.dwarf_stack_op_name to i64)) to i32), i32 trunc (i64 sub (i64 ptrtoint (ptr @.str.121 to i64), i64 ptrtoint (ptr @reltable.dwarf_stack_op_name to i64)) to i32), i32 trunc (i64 sub (i64 ptrtoint (ptr @.str.122 to i64), i64 ptrtoint (ptr @reltable.dwarf_stack_op_name to i64)) to i32), i32 trunc (i64 sub (i64 ptrtoint (ptr @.str.123 to i64), i64 ptrtoint (ptr @reltable.dwarf_stack_op_name to i64)) to i32), i32 trunc (i64 sub (i64 ptrtoint (ptr @.str.124 to i64), i64 ptrtoint (ptr @reltable.dwarf_stack_op_name to i64)) to i32), i32 trunc (i64 sub (i64 ptrtoint (ptr @.str.125 to i64), i64 ptrtoint (ptr @reltable.dwarf_stack_op_name to i64)) to i32), i32 trunc (i64 sub (i64 ptrtoint (ptr @.str.126 to i64), i64 ptrtoint (ptr @reltable.dwarf_stack_op_name to i64)) to i32), i32 trunc (i64 sub (i64 ptrtoint (ptr @.str.127 to i64), i64 ptrtoint (ptr @reltable.dwarf_stack_op_name to i64)) to i32), i32 trunc (i64 sub (i64 ptrtoint (ptr @.str.128 to i64), i64 ptrtoint (ptr @reltable.dwarf_stack_op_name to i64)) to i32), i32 trunc (i64 sub (i64 ptrtoint (ptr @.str.129 to i64), i64 ptrtoint (ptr @reltable.dwarf_stack_op_name to i64)) to i32), i32 trunc (i64 sub (i64 ptrtoint (ptr @.str.130 to i64), i64 ptrtoint (ptr @reltable.dwarf_stack_op_name to i64)) to i32), i32 trunc (i64 sub (i64 ptrtoint (ptr @.str.131 to i64), i64 ptrtoint (ptr @reltable.dwarf_stack_op_name to i64)) to i32), i32 trunc (i64 sub (i64 ptrtoint (ptr @.str.132 to i64), i64 ptrtoint (ptr @reltable.dwarf_stack_op_name to i64)) to i32), i32 trunc (i64 sub (i64 ptrtoint (ptr @.str.133 to i64), i64 ptrtoint (ptr @reltable.dwarf_stack_op_name to i64)) to i32), i32 trunc (i64 sub (i64 ptrtoint (ptr @.str.134 to i64), i64 ptrtoint (ptr @reltable.dwarf_stack_op_name to i64)) to i32), i32 trunc (i64 sub (i64 ptrtoint (ptr @.str.135 to i64), i64 ptrtoint (ptr @reltable.dwarf_stack_op_name to i64)) to i32), i32 trunc (i64 sub (i64 ptrtoint (ptr @.str.136 to i64), i64 ptrtoint (ptr @reltable.dwarf_stack_op_name to i64)) to i32), i32 trunc (i64 sub (i64 ptrtoint (ptr @.str.137 to i64), i64 ptrtoint (ptr @reltable.dwarf_stack_op_name to i64)) to i32), i32 trunc (i64 sub (i64 ptrtoint (ptr @.str.138 to i64), i64 ptrtoint (ptr @reltable.dwarf_stack_op_name to i64)) to i32), i32 trunc (i64 sub (i64 ptrtoint (ptr @.str.139 to i64), i64 ptrtoint (ptr @reltable.dwarf_stack_op_name to i64)) to i32), i32 trunc (i64 sub (i64 ptrtoint (ptr @.str.140 to i64), i64 ptrtoint (ptr @reltable.dwarf_stack_op_name to i64)) to i32), i32 trunc (i64 sub (i64 ptrtoint (ptr @.str.141 to i64), i64 ptrtoint (ptr @reltable.dwarf_stack_op_name to i64)) to i32), i32 trunc (i64 sub (i64 ptrtoint (ptr @.str.142 to i64), i64 ptrtoint (ptr @reltable.dwarf_stack_op_name to i64)) to i32), i32 trunc (i64 sub (i64 ptrtoint (ptr @.str.143 to i64), i64 ptrtoint (ptr @reltable.dwarf_stack_op_name to i64)) to i32), i32 trunc (i64 sub (i64 ptrtoint (ptr @.str.144 to i64), i64 ptrtoint (ptr @reltable.dwarf_stack_op_name to i64)) to i32), i32 trunc (i64 sub (i64 ptrtoint (ptr @.str.145 to i64), i64 ptrtoint (ptr @reltable.dwarf_stack_op_name to i64)) to i32), i32 trunc (i64 sub (i64 ptrtoint (ptr @.str.146 to i64), i64 ptrtoint (ptr @reltable.dwarf_stack_op_name to i64)) to i32), i32 trunc (i64 sub (i64 ptrtoint (ptr @.str.147 to i64), i64 ptrtoint (ptr @reltable.dwarf_stack_op_name to i64)) to i32), i32 trunc (i64 sub (i64 ptrtoint (ptr @.str.148 to i64), i64 ptrtoint (ptr @reltable.dwarf_stack_op_name to i64)) to i32), i32 trunc (i64 sub (i64 ptrtoint (ptr @.str.149 to i64), i64 ptrtoint (ptr @reltable.dwarf_stack_op_name to i64)) to i32), i32 trunc (i64 sub (i64 ptrtoint (ptr @.str.150 to i64), i64 ptrtoint (ptr @reltable.dwarf_stack_op_name to i64)) to i32), i32 trunc (i64 sub (i64 ptrtoint (ptr @.str.151 to i64), i64 ptrtoint (ptr @reltable.dwarf_stack_op_name to i64)) to i32), i32 trunc (i64 sub (i64 ptrtoint (ptr @.str.152 to i64), i64 ptrtoint (ptr @reltable.dwarf_stack_op_name to i64)) to i32), i32 trunc (i64 sub (i64 ptrtoint (ptr @.str.153 to i64), i64 ptrtoint (ptr @reltable.dwarf_stack_op_name to i64)) to i32), i32 trunc (i64 sub (i64 ptrtoint (ptr @.str.154 to i64), i64 ptrtoint (ptr @reltable.dwarf_stack_op_name to i64)) to i32), i32 trunc (i64 sub (i64 ptrtoint (ptr @.str.155 to i64), i64 ptrtoint (ptr @reltable.dwarf_stack_op_name to i64)) to i32), i32 trunc (i64 sub (i64 ptrtoint (ptr @.str.158 to i64), i64 ptrtoint (ptr @reltable.dwarf_stack_op_name to i64)) to i32), i32 trunc (i64 sub (i64 ptrtoint (ptr @.str.159 to i64), i64 ptrtoint (ptr @reltable.dwarf_stack_op_name to i64)) to i32), i32 trunc (i64 sub (i64 ptrtoint (ptr @.str.160 to i64), i64 ptrtoint (ptr @reltable.dwarf_stack_op_name to i64)) to i32), i32 trunc (i64 sub (i64 ptrtoint (ptr @.str.156 to i64), i64 ptrtoint (ptr @reltable.dwarf_stack_op_name to i64)) to i32), i32 trunc (i64 sub (i64 ptrtoint (ptr @.str.157 to i64), i64 ptrtoint (ptr @reltable.dwarf_stack_op_name to i64)) to i32), i32 trunc (i64 sub (i64 ptrtoint (ptr @.str.164 to i64), i64 ptrtoint (ptr @reltable.dwarf_stack_op_name to i64)) to i32), i32 trunc (i64 sub (i64 ptrtoint (ptr @.str.164 to i64), i64 ptrtoint (ptr @reltable.dwarf_stack_op_name to i64)) to i32), i32 trunc (i64 sub (i64 ptrtoint (ptr @.str.164 to i64), i64 ptrtoint (ptr @reltable.dwarf_stack_op_name to i64)) to i32), i32 trunc (i64 sub (i64 ptrtoint (ptr @.str.164 to i64), i64 ptrtoint (ptr @reltable.dwarf_stack_op_name to i64)) to i32), i32 trunc (i64 sub (i64 ptrtoint (ptr @.str.164 to i64), i64 ptrtoint (ptr @reltable.dwarf_stack_op_name to i64)) to i32), i32 trunc (i64 sub (i64 ptrtoint (ptr @.str.164 to i64), i64 ptrtoint (ptr @reltable.dwarf_stack_op_name to i64)) to i32), i32 trunc (i64 sub (i64 ptrtoint (ptr @.str.164 to i64), i64 ptrtoint (ptr @reltable.dwarf_stack_op_name to i64)) to i32), i32 trunc (i64 sub (i64 ptrtoint (ptr @.str.164 to i64), i64 ptrtoint (ptr @reltable.dwarf_stack_op_name to i64)) to i32), i32 trunc (i64 sub (i64 ptrtoint (ptr @.str.164 to i64), i64 ptrtoint (ptr @reltable.dwarf_stack_op_name to i64)) to i32), i32 trunc (i64 sub (i64 ptrtoint (ptr @.str.164 to i64), i64 ptrtoint (ptr @reltable.dwarf_stack_op_name to i64)) to i32), i32 trunc (i64 sub (i64 ptrtoint (ptr @.str.164 to i64), i64 ptrtoint (ptr @reltable.dwarf_stack_op_name to i64)) to i32), i32 trunc (i64 sub (i64 ptrtoint (ptr @.str.164 to i64), i64 ptrtoint (ptr @reltable.dwarf_stack_op_name to i64)) to i32), i32 trunc (i64 sub (i64 ptrtoint (ptr @.str.164 to i64), i64 ptrtoint (ptr @reltable.dwarf_stack_op_name to i64)) to i32), i32 trunc (i64 sub (i64 ptrtoint (ptr @.str.164 to i64), i64 ptrtoint (ptr @reltable.dwarf_stack_op_name to i64)) to i32), i32 trunc (i64 sub (i64 ptrtoint (ptr @.str.164 to i64), i64 ptrtoint (ptr @reltable.dwarf_stack_op_name to i64)) to i32), i32 trunc (i64 sub (i64 ptrtoint (ptr @.str.164 to i64), i64 ptrtoint (ptr @reltable.dwarf_stack_op_name to i64)) to i32), i32 trunc (i64 sub (i64 ptrtoint (ptr @.str.164 to i64), i64 ptrtoint (ptr @reltable.dwarf_stack_op_name to i64)) to i32), i32 trunc (i64 sub (i64 ptrtoint (ptr @.str.164 to i64), i64 ptrtoint (ptr @reltable.dwarf_stack_op_name to i64)) to i32), i32 trunc (i64 sub (i64 ptrtoint (ptr @.str.164 to i64), i64 ptrtoint (ptr @reltable.dwarf_stack_op_name to i64)) to i32), i32 trunc (i64 sub (i64 ptrtoint (ptr @.str.164 to i64), i64 ptrtoint (ptr @reltable.dwarf_stack_op_name to i64)) to i32), i32 trunc (i64 sub (i64 ptrtoint (ptr @.str.164 to i64), i64 ptrtoint (ptr @reltable.dwarf_stack_op_name to i64)) to i32), i32 trunc (i64 sub (i64 ptrtoint (ptr @.str.164 to i64), i64 ptrtoint (ptr @reltable.dwarf_stack_op_name to i64)) to i32), i32 trunc (i64 sub (i64 ptrtoint (ptr @.str.164 to i64), i64 ptrtoint (ptr @reltable.dwarf_stack_op_name to i64)) to i32), i32 trunc (i64 sub (i64 ptrtoint (ptr @.str.164 to i64), i64 ptrtoint (ptr @reltable.dwarf_stack_op_name to i64)) to i32), i32 trunc (i64 sub (i64 ptrtoint (ptr @.str.164 to i64), i64 ptrtoint (ptr @reltable.dwarf_stack_op_name to i64)) to i32), i32 trunc (i64 sub (i64 ptrtoint (ptr @.str.164 to i64), i64 ptrtoint (ptr @reltable.dwarf_stack_op_name to i64)) to i32), i32 trunc (i64 sub (i64 ptrtoint (ptr @.str.164 to i64), i64 ptrtoint (ptr @reltable.dwarf_stack_op_name to i64)) to i32), i32 trunc (i64 sub (i64 ptrtoint (ptr @.str.164 to i64), i64 ptrtoint (ptr @reltable.dwarf_stack_op_name to i64)) to i32), i32 trunc (i64 sub (i64 ptrtoint (ptr @.str.164 to i64), i64 ptrtoint (ptr @reltable.dwarf_stack_op_name to i64)) to i32), i32 trunc (i64 sub (i64 ptrtoint (ptr @.str.164 to i64), i64 ptrtoint (ptr @reltable.dwarf_stack_op_name to i64)) to i32), i32 trunc (i64 sub (i64 ptrtoint (ptr @.str.164 to i64), i64 ptrtoint (ptr @reltable.dwarf_stack_op_name to i64)) to i32), i32 trunc (i64 sub (i64 ptrtoint (ptr @.str.164 to i64), i64 ptrtoint (ptr @reltable.dwarf_stack_op_name to i64)) to i32), i32 trunc (i64 sub (i64 ptrtoint (ptr @.str.164 to i64), i64 ptrtoint (ptr @reltable.dwarf_stack_op_name to i64)) to i32), i32 trunc (i64 sub (i64 ptrtoint (ptr @.str.164 to i64), i64 ptrtoint (ptr @reltable.dwarf_stack_op_name to i64)) to i32), i32 trunc (i64 sub (i64 ptrtoint (ptr @.str.164 to i64), i64 ptrtoint (ptr @reltable.dwarf_stack_op_name to i64)) to i32), i32 trunc (i64 sub (i64 ptrtoint (ptr @.str.164 to i64), i64 ptrtoint (ptr @reltable.dwarf_stack_op_name to i64)) to i32), i32 trunc (i64 sub (i64 ptrtoint (ptr @.str.164 to i64), i64 ptrtoint (ptr @reltable.dwarf_stack_op_name to i64)) to i32), i32 trunc (i64 sub (i64 ptrtoint (ptr @.str.164 to i64), i64 ptrtoint (ptr @reltable.dwarf_stack_op_name to i64)) to i32), i32 trunc (i64 sub (i64 ptrtoint (ptr @.str.164 to i64), i64 ptrtoint (ptr @reltable.dwarf_stack_op_name to i64)) to i32), i32 trunc (i64 sub (i64 ptrtoint (ptr @.str.164 to i64), i64 ptrtoint (ptr @reltable.dwarf_stack_op_name to i64)) to i32), i32 trunc (i64 sub (i64 ptrtoint (ptr @.str.164 to i64), i64 ptrtoint (ptr @reltable.dwarf_stack_op_name to i64)) to i32), i32 trunc (i64 sub (i64 ptrtoint (ptr @.str.164 to i64), i64 ptrtoint (ptr @reltable.dwarf_stack_op_name to i64)) to i32), i32 trunc (i64 sub (i64 ptrtoint (ptr @.str.164 to i64), i64 ptrtoint (ptr @reltable.dwarf_stack_op_name to i64)) to i32), i32 trunc (i64 sub (i64 ptrtoint (ptr @.str.164 to i64), i64 ptrtoint (ptr @reltable.dwarf_stack_op_name to i64)) to i32), i32 trunc (i64 sub (i64 ptrtoint (ptr @.str.164 to i64), i64 ptrtoint (ptr @reltable.dwarf_stack_op_name to i64)) to i32), i32 trunc (i64 sub (i64 ptrtoint (ptr @.str.164 to i64), i64 ptrtoint (ptr @reltable.dwarf_stack_op_name to i64)) to i32), i32 trunc (i64 sub (i64 ptrtoint (ptr @.str.164 to i64), i64 ptrtoint (ptr @reltable.dwarf_stack_op_name to i64)) to i32), i32 trunc (i64 sub (i64 ptrtoint (ptr @.str.164 to i64), i64 ptrtoint (ptr @reltable.dwarf_stack_op_name to i64)) to i32), i32 trunc (i64 sub (i64 ptrtoint (ptr @.str.164 to i64), i64 ptrtoint (ptr @reltable.dwarf_stack_op_name to i64)) to i32), i32 trunc (i64 sub (i64 ptrtoint (ptr @.str.164 to i64), i64 ptrtoint (ptr @reltable.dwarf_stack_op_name to i64)) to i32), i32 trunc (i64 sub (i64 ptrtoint (ptr @.str.164 to i64), i64 ptrtoint (ptr @reltable.dwarf_stack_op_name to i64)) to i32), i32 trunc (i64 sub (i64 ptrtoint (ptr @.str.164 to i64), i64 ptrtoint (ptr @reltable.dwarf_stack_op_name to i64)) to i32), i32 trunc (i64 sub (i64 ptrtoint (ptr @.str.164 to i64), i64 ptrtoint (ptr @reltable.dwarf_stack_op_name to i64)) to i32), i32 trunc (i64 sub (i64 ptrtoint (ptr @.str.164 to i64), i64 ptrtoint (ptr @reltable.dwarf_stack_op_name to i64)) to i32), i32 trunc (i64 sub (i64 ptrtoint (ptr @.str.164 to i64), i64 ptrtoint (ptr @reltable.dwarf_stack_op_name to i64)) to i32), i32 trunc (i64 sub (i64 ptrtoint (ptr @.str.164 to i64), i64 ptrtoint (ptr @reltable.dwarf_stack_op_name to i64)) to i32), i32 trunc (i64 sub (i64 ptrtoint (ptr @.str.164 to i64), i64 ptrtoint (ptr @reltable.dwarf_stack_op_name to i64)) to i32), i32 trunc (i64 sub (i64 ptrtoint (ptr @.str.164 to i64), i64 ptrtoint (ptr @reltable.dwarf_stack_op_name to i64)) to i32), i32 trunc (i64 sub (i64 ptrtoint (ptr @.str.164 to i64), i64 ptrtoint (ptr @reltable.dwarf_stack_op_name to i64)) to i32), i32 trunc (i64 sub (i64 ptrtoint (ptr @.str.164 to i64), i64 ptrtoint (ptr @reltable.dwarf_stack_op_name to i64)) to i32), i32 trunc (i64 sub (i64 ptrtoint (ptr @.str.164 to i64), i64 ptrtoint (ptr @reltable.dwarf_stack_op_name to i64)) to i32), i32 trunc (i64 sub (i64 ptrtoint (ptr @.str.164 to i64), i64 ptrtoint (ptr @reltable.dwarf_stack_op_name to i64)) to i32), i32 trunc (i64 sub (i64 ptrtoint (ptr @.str.164 to i64), i64 ptrtoint (ptr @reltable.dwarf_stack_op_name to i64)) to i32), i32 trunc (i64 sub (i64 ptrtoint (ptr @.str.164 to i64), i64 ptrtoint (ptr @reltable.dwarf_stack_op_name to i64)) to i32), i32 trunc (i64 sub (i64 ptrtoint (ptr @.str.161 to i64), i64 ptrtoint (ptr @reltable.dwarf_stack_op_name to i64)) to i32), i32 trunc (i64 sub (i64 ptrtoint (ptr @.str.164 to i64), i64 ptrtoint (ptr @reltable.dwarf_stack_op_name to i64)) to i32), i32 trunc (i64 sub (i64 ptrtoint (ptr @.str.164 to i64), i64 ptrtoint (ptr @reltable.dwarf_stack_op_name to i64)) to i32), i32 trunc (i64 sub (i64 ptrtoint (ptr @.str.164 to i64), i64 ptrtoint (ptr @reltable.dwarf_stack_op_name to i64)) to i32), i32 trunc (i64 sub (i64 ptrtoint (ptr @.str.164 to i64), i64 ptrtoint (ptr @reltable.dwarf_stack_op_name to i64)) to i32), i32 trunc (i64 sub (i64 ptrtoint (ptr @.str.164 to i64), i64 ptrtoint (ptr @reltable.dwarf_stack_op_name to i64)) to i32), i32 trunc (i64 sub (i64 ptrtoint (ptr @.str.164 to i64), i64 ptrtoint (ptr @reltable.dwarf_stack_op_name to i64)) to i32), i32 trunc (i64 sub (i64 ptrtoint (ptr @.str.164 to i64), i64 ptrtoint (ptr @reltable.dwarf_stack_op_name to i64)) to i32), i32 trunc (i64 sub (i64 ptrtoint (ptr @.str.164 to i64), i64 ptrtoint (ptr @reltable.dwarf_stack_op_name to i64)) to i32), i32 trunc (i64 sub (i64 ptrtoint (ptr @.str.164 to i64), i64 ptrtoint (ptr @reltable.dwarf_stack_op_name to i64)) to i32), i32 trunc (i64 sub (i64 ptrtoint (ptr @.str.164 to i64), i64 ptrtoint (ptr @reltable.dwarf_stack_op_name to i64)) to i32), i32 trunc (i64 sub (i64 ptrtoint (ptr @.str.164 to i64), i64 ptrtoint (ptr @reltable.dwarf_stack_op_name to i64)) to i32), i32 trunc (i64 sub (i64 ptrtoint (ptr @.str.164 to i64), i64 ptrtoint (ptr @reltable.dwarf_stack_op_name to i64)) to i32), i32 trunc (i64 sub (i64 ptrtoint (ptr @.str.164 to i64), i64 ptrtoint (ptr @reltable.dwarf_stack_op_name to i64)) to i32), i32 trunc (i64 sub (i64 ptrtoint (ptr @.str.164 to i64), i64 ptrtoint (ptr @reltable.dwarf_stack_op_name to i64)) to i32), i32 trunc (i64 sub (i64 ptrtoint (ptr @.str.164 to i64), i64 ptrtoint (ptr @reltable.dwarf_stack_op_name to i64)) to i32), i32 trunc (i64 sub (i64 ptrtoint (ptr @.str.162 to i64), i64 ptrtoint (ptr @reltable.dwarf_stack_op_name to i64)) to i32), i32 trunc (i64 sub (i64 ptrtoint (ptr @.str.163 to i64), i64 ptrtoint (ptr @reltable.dwarf_stack_op_name to i64)) to i32)], align 4
@reltable.output_cfi = private unnamed_addr constant [48 x i32] [i32 trunc (i64 sub (i64 ptrtoint (ptr @.str.221 to i64), i64 ptrtoint (ptr @reltable.output_cfi to i64)) to i32), i32 trunc (i64 sub (i64 ptrtoint (ptr @.str.222 to i64), i64 ptrtoint (ptr @reltable.output_cfi to i64)) to i32), i32 trunc (i64 sub (i64 ptrtoint (ptr @.str.223 to i64), i64 ptrtoint (ptr @reltable.output_cfi to i64)) to i32), i32 trunc (i64 sub (i64 ptrtoint (ptr @.str.224 to i64), i64 ptrtoint (ptr @reltable.output_cfi to i64)) to i32), i32 trunc (i64 sub (i64 ptrtoint (ptr @.str.225 to i64), i64 ptrtoint (ptr @reltable.output_cfi to i64)) to i32), i32 trunc (i64 sub (i64 ptrtoint (ptr @.str.226 to i64), i64 ptrtoint (ptr @reltable.output_cfi to i64)) to i32), i32 trunc (i64 sub (i64 ptrtoint (ptr @.str.227 to i64), i64 ptrtoint (ptr @reltable.output_cfi to i64)) to i32), i32 trunc (i64 sub (i64 ptrtoint (ptr @.str.228 to i64), i64 ptrtoint (ptr @reltable.output_cfi to i64)) to i32), i32 trunc (i64 sub (i64 ptrtoint (ptr @.str.229 to i64), i64 ptrtoint (ptr @reltable.output_cfi to i64)) to i32), i32 trunc (i64 sub (i64 ptrtoint (ptr @.str.230 to i64), i64 ptrtoint (ptr @reltable.output_cfi to i64)) to i32), i32 trunc (i64 sub (i64 ptrtoint (ptr @.str.231 to i64), i64 ptrtoint (ptr @reltable.output_cfi to i64)) to i32), i32 trunc (i64 sub (i64 ptrtoint (ptr @.str.232 to i64), i64 ptrtoint (ptr @reltable.output_cfi to i64)) to i32), i32 trunc (i64 sub (i64 ptrtoint (ptr @.str.233 to i64), i64 ptrtoint (ptr @reltable.output_cfi to i64)) to i32), i32 trunc (i64 sub (i64 ptrtoint (ptr @.str.234 to i64), i64 ptrtoint (ptr @reltable.output_cfi to i64)) to i32), i32 trunc (i64 sub (i64 ptrtoint (ptr @.str.235 to i64), i64 ptrtoint (ptr @reltable.output_cfi to i64)) to i32), i32 trunc (i64 sub (i64 ptrtoint (ptr @.str.236 to i64), i64 ptrtoint (ptr @reltable.output_cfi to i64)) to i32), i32 trunc (i64 sub (i64 ptrtoint (ptr @.str.237 to i64), i64 ptrtoint (ptr @reltable.output_cfi to i64)) to i32), i32 trunc (i64 sub (i64 ptrtoint (ptr @.str.238 to i64), i64 ptrtoint (ptr @reltable.output_cfi to i64)) to i32), i32 trunc (i64 sub (i64 ptrtoint (ptr @.str.239 to i64), i64 ptrtoint (ptr @reltable.output_cfi to i64)) to i32), i32 trunc (i64 sub (i64 ptrtoint (ptr @.str.240 to i64), i64 ptrtoint (ptr @reltable.output_cfi to i64)) to i32), i32 trunc (i64 sub (i64 ptrtoint (ptr @.str.245 to i64), i64 ptrtoint (ptr @reltable.output_cfi to i64)) to i32), i32 trunc (i64 sub (i64 ptrtoint (ptr @.str.245 to i64), i64 ptrtoint (ptr @reltable.output_cfi to i64)) to i32), i32 trunc (i64 sub (i64 ptrtoint (ptr @.str.245 to i64), i64 ptrtoint (ptr @reltable.output_cfi to i64)) to i32), i32 trunc (i64 sub (i64 ptrtoint (ptr @.str.245 to i64), i64 ptrtoint (ptr @reltable.output_cfi to i64)) to i32), i32 trunc (i64 sub (i64 ptrtoint (ptr @.str.245 to i64), i64 ptrtoint (ptr @reltable.output_cfi to i64)) to i32), i32 trunc (i64 sub (i64 ptrtoint (ptr @.str.245 to i64), i64 ptrtoint (ptr @reltable.output_cfi to i64)) to i32), i32 trunc (i64 sub (i64 ptrtoint (ptr @.str.245 to i64), i64 ptrtoint (ptr @reltable.output_cfi to i64)) to i32), i32 trunc (i64 sub (i64 ptrtoint (ptr @.str.245 to i64), i64 ptrtoint (ptr @reltable.output_cfi to i64)) to i32), i32 trunc (i64 sub (i64 ptrtoint (ptr @.str.245 to i64), i64 ptrtoint (ptr @reltable.output_cfi to i64)) to i32), i32 trunc (i64 sub (i64 ptrtoint (ptr @.str.241 to i64), i64 ptrtoint (ptr @reltable.output_cfi to i64)) to i32), i32 trunc (i64 sub (i64 ptrtoint (ptr @.str.245 to i64), i64 ptrtoint (ptr @reltable.output_cfi to i64)) to i32), i32 trunc (i64 sub (i64 ptrtoint (ptr @.str.245 to i64), i64 ptrtoint (ptr @reltable.output_cfi to i64)) to i32), i32 trunc (i64 sub (i64 ptrtoint (ptr @.str.245 to i64), i64 ptrtoint (ptr @reltable.output_cfi to i64)) to i32), i32 trunc (i64 sub (i64 ptrtoint (ptr @.str.245 to i64), i64 ptrtoint (ptr @reltable.output_cfi to i64)) to i32), i32 trunc (i64 sub (i64 ptrtoint (ptr @.str.245 to i64), i64 ptrtoint (ptr @reltable.output_cfi to i64)) to i32), i32 trunc (i64 sub (i64 ptrtoint (ptr @.str.245 to i64), i64 ptrtoint (ptr @reltable.output_cfi to i64)) to i32), i32 trunc (i64 sub (i64 ptrtoint (ptr @.str.245 to i64), i64 ptrtoint (ptr @reltable.output_cfi to i64)) to i32), i32 trunc (i64 sub (i64 ptrtoint (ptr @.str.245 to i64), i64 ptrtoint (ptr @reltable.output_cfi to i64)) to i32), i32 trunc (i64 sub (i64 ptrtoint (ptr @.str.245 to i64), i64 ptrtoint (ptr @reltable.output_cfi to i64)) to i32), i32 trunc (i64 sub (i64 ptrtoint (ptr @.str.245 to i64), i64 ptrtoint (ptr @reltable.output_cfi to i64)) to i32), i32 trunc (i64 sub (i64 ptrtoint (ptr @.str.245 to i64), i64 ptrtoint (ptr @reltable.output_cfi to i64)) to i32), i32 trunc (i64 sub (i64 ptrtoint (ptr @.str.245 to i64), i64 ptrtoint (ptr @reltable.output_cfi to i64)) to i32), i32 trunc (i64 sub (i64 ptrtoint (ptr @.str.245 to i64), i64 ptrtoint (ptr @reltable.output_cfi to i64)) to i32), i32 trunc (i64 sub (i64 ptrtoint (ptr @.str.245 to i64), i64 ptrtoint (ptr @reltable.output_cfi to i64)) to i32), i32 trunc (i64 sub (i64 ptrtoint (ptr @.str.245 to i64), i64 ptrtoint (ptr @reltable.output_cfi to i64)) to i32), i32 trunc (i64 sub (i64 ptrtoint (ptr @.str.242 to i64), i64 ptrtoint (ptr @reltable.output_cfi to i64)) to i32), i32 trunc (i64 sub (i64 ptrtoint (ptr @.str.243 to i64), i64 ptrtoint (ptr @reltable.output_cfi to i64)) to i32), i32 trunc (i64 sub (i64 ptrtoint (ptr @.str.244 to i64), i64 ptrtoint (ptr @reltable.output_cfi to i64)) to i32)], align 4
@reltable.dwarf2out_finish = private unnamed_addr constant [32 x i32] [i32 trunc (i64 sub (i64 ptrtoint (ptr @.str.534 to i64), i64 ptrtoint (ptr @reltable.dwarf2out_finish to i64)) to i32), i32 trunc (i64 sub (i64 ptrtoint (ptr @.str.559 to i64), i64 ptrtoint (ptr @reltable.dwarf2out_finish to i64)) to i32), i32 trunc (i64 sub (i64 ptrtoint (ptr @.str.535 to i64), i64 ptrtoint (ptr @reltable.dwarf2out_finish to i64)) to i32), i32 trunc (i64 sub (i64 ptrtoint (ptr @.str.536 to i64), i64 ptrtoint (ptr @reltable.dwarf2out_finish to i64)) to i32), i32 trunc (i64 sub (i64 ptrtoint (ptr @.str.537 to i64), i64 ptrtoint (ptr @reltable.dwarf2out_finish to i64)) to i32), i32 trunc (i64 sub (i64 ptrtoint (ptr @.str.538 to i64), i64 ptrtoint (ptr @reltable.dwarf2out_finish to i64)) to i32), i32 trunc (i64 sub (i64 ptrtoint (ptr @.str.539 to i64), i64 ptrtoint (ptr @reltable.dwarf2out_finish to i64)) to i32), i32 trunc (i64 sub (i64 ptrtoint (ptr @.str.540 to i64), i64 ptrtoint (ptr @reltable.dwarf2out_finish to i64)) to i32), i32 trunc (i64 sub (i64 ptrtoint (ptr @.str.541 to i64), i64 ptrtoint (ptr @reltable.dwarf2out_finish to i64)) to i32), i32 trunc (i64 sub (i64 ptrtoint (ptr @.str.542 to i64), i64 ptrtoint (ptr @reltable.dwarf2out_finish to i64)) to i32), i32 trunc (i64 sub (i64 ptrtoint (ptr @.str.543 to i64), i64 ptrtoint (ptr @reltable.dwarf2out_finish to i64)) to i32), i32 trunc (i64 sub (i64 ptrtoint (ptr @.str.544 to i64), i64 ptrtoint (ptr @reltable.dwarf2out_finish to i64)) to i32), i32 trunc (i64 sub (i64 ptrtoint (ptr @.str.545 to i64), i64 ptrtoint (ptr @reltable.dwarf2out_finish to i64)) to i32), i32 trunc (i64 sub (i64 ptrtoint (ptr @.str.546 to i64), i64 ptrtoint (ptr @reltable.dwarf2out_finish to i64)) to i32), i32 trunc (i64 sub (i64 ptrtoint (ptr @.str.547 to i64), i64 ptrtoint (ptr @reltable.dwarf2out_finish to i64)) to i32), i32 trunc (i64 sub (i64 ptrtoint (ptr @.str.548 to i64), i64 ptrtoint (ptr @reltable.dwarf2out_finish to i64)) to i32), i32 trunc (i64 sub (i64 ptrtoint (ptr @.str.549 to i64), i64 ptrtoint (ptr @reltable.dwarf2out_finish to i64)) to i32), i32 trunc (i64 sub (i64 ptrtoint (ptr @.str.550 to i64), i64 ptrtoint (ptr @reltable.dwarf2out_finish to i64)) to i32), i32 trunc (i64 sub (i64 ptrtoint (ptr @.str.551 to i64), i64 ptrtoint (ptr @reltable.dwarf2out_finish to i64)) to i32), i32 trunc (i64 sub (i64 ptrtoint (ptr @.str.552 to i64), i64 ptrtoint (ptr @reltable.dwarf2out_finish to i64)) to i32), i32 trunc (i64 sub (i64 ptrtoint (ptr @.str.553 to i64), i64 ptrtoint (ptr @reltable.dwarf2out_finish to i64)) to i32), i32 trunc (i64 sub (i64 ptrtoint (ptr @.str.554 to i64), i64 ptrtoint (ptr @reltable.dwarf2out_finish to i64)) to i32), i32 trunc (i64 sub (i64 ptrtoint (ptr @.str.555 to i64), i64 ptrtoint (ptr @reltable.dwarf2out_finish to i64)) to i32), i32 trunc (i64 sub (i64 ptrtoint (ptr @.str.556 to i64), i64 ptrtoint (ptr @reltable.dwarf2out_finish to i64)) to i32), i32 trunc (i64 sub (i64 ptrtoint (ptr @.str.557 to i64), i64 ptrtoint (ptr @reltable.dwarf2out_finish to i64)) to i32), i32 trunc (i64 sub (i64 ptrtoint (ptr @.str.559 to i64), i64 ptrtoint (ptr @reltable.dwarf2out_finish to i64)) to i32), i32 trunc (i64 sub (i64 ptrtoint (ptr @.str.559 to i64), i64 ptrtoint (ptr @reltable.dwarf2out_finish to i64)) to i32), i32 trunc (i64 sub (i64 ptrtoint (ptr @.str.559 to i64), i64 ptrtoint (ptr @reltable.dwarf2out_finish to i64)) to i32), i32 trunc (i64 sub (i64 ptrtoint (ptr @.str.559 to i64), i64 ptrtoint (ptr @reltable.dwarf2out_finish to i64)) to i32), i32 trunc (i64 sub (i64 ptrtoint (ptr @.str.559 to i64), i64 ptrtoint (ptr @reltable.dwarf2out_finish to i64)) to i32), i32 trunc (i64 sub (i64 ptrtoint (ptr @.str.559 to i64), i64 ptrtoint (ptr @reltable.dwarf2out_finish to i64)) to i32), i32 trunc (i64 sub (i64 ptrtoint (ptr @.str.558 to i64), i64 ptrtoint (ptr @reltable.dwarf2out_finish to i64)) to i32)], align 4
@switch.table.value_format = private unnamed_addr constant [8 x i32] [i32 11, i32 5, i32 11, i32 6, i32 11, i32 11, i32 11, i32 7], align 4

; Function Attrs: inlinehint nofree nounwind sspstrong uwtable
define dso_local i32 @vprintf(ptr noalias nocapture noundef readonly %0, ptr noundef %1) local_unnamed_addr #0 {
  %3 = load ptr, ptr @stdout, align 8, !tbaa !6
  %4 = tail call i32 @vfprintf(ptr noundef %3, ptr noundef %0, ptr noundef %1)
  ret i32 %4
}

; Function Attrs: nofree nounwind
declare noundef i32 @vfprintf(ptr nocapture noundef, ptr nocapture noundef readonly, ptr noundef) local_unnamed_addr #1

; Function Attrs: inlinehint nofree nounwind sspstrong uwtable
define dso_local i32 @getchar() local_unnamed_addr #0 {
  %1 = load ptr, ptr @stdin, align 8, !tbaa !6
  %2 = tail call i32 @getc(ptr noundef %1)
  ret i32 %2
}

; Function Attrs: nofree nounwind
declare noundef i32 @getc(ptr nocapture noundef) local_unnamed_addr #1

; Function Attrs: inlinehint nounwind sspstrong uwtable
define dso_local i32 @fgetc_unlocked(ptr noundef %0) local_unnamed_addr #2 {
  %2 = getelementptr inbounds %struct._IO_FILE, ptr %0, i64 0, i32 1
  %3 = load ptr, ptr %2, align 8, !tbaa !10
  %4 = getelementptr inbounds %struct._IO_FILE, ptr %0, i64 0, i32 2
  %5 = load ptr, ptr %4, align 8, !tbaa !15
  %6 = icmp ult ptr %3, %5
  br i1 %6, label %9, label %7, !prof !16

7:                                                ; preds = %1
  %8 = tail call i32 @__uflow(ptr noundef nonnull %0) #31
  br label %13

9:                                                ; preds = %1
  %10 = getelementptr inbounds i8, ptr %3, i64 1
  store ptr %10, ptr %2, align 8, !tbaa !10
  %11 = load i8, ptr %3, align 1, !tbaa !17
  %12 = zext i8 %11 to i32
  br label %13

13:                                               ; preds = %9, %7
  %14 = phi i32 [ %8, %7 ], [ %12, %9 ]
  ret i32 %14
}

declare i32 @__uflow(ptr noundef) local_unnamed_addr #3

; Function Attrs: inlinehint nounwind sspstrong uwtable
define dso_local i32 @getc_unlocked(ptr noundef %0) local_unnamed_addr #2 {
  %2 = getelementptr inbounds %struct._IO_FILE, ptr %0, i64 0, i32 1
  %3 = load ptr, ptr %2, align 8, !tbaa !10
  %4 = getelementptr inbounds %struct._IO_FILE, ptr %0, i64 0, i32 2
  %5 = load ptr, ptr %4, align 8, !tbaa !15
  %6 = icmp ult ptr %3, %5
  br i1 %6, label %9, label %7, !prof !16

7:                                                ; preds = %1
  %8 = tail call i32 @__uflow(ptr noundef nonnull %0) #31
  br label %13

9:                                                ; preds = %1
  %10 = getelementptr inbounds i8, ptr %3, i64 1
  store ptr %10, ptr %2, align 8, !tbaa !10
  %11 = load i8, ptr %3, align 1, !tbaa !17
  %12 = zext i8 %11 to i32
  br label %13

13:                                               ; preds = %9, %7
  %14 = phi i32 [ %8, %7 ], [ %12, %9 ]
  ret i32 %14
}

; Function Attrs: inlinehint nounwind sspstrong uwtable
define dso_local i32 @getchar_unlocked() local_unnamed_addr #2 {
  %1 = load ptr, ptr @stdin, align 8, !tbaa !6
  %2 = getelementptr inbounds %struct._IO_FILE, ptr %1, i64 0, i32 1
  %3 = load ptr, ptr %2, align 8, !tbaa !10
  %4 = getelementptr inbounds %struct._IO_FILE, ptr %1, i64 0, i32 2
  %5 = load ptr, ptr %4, align 8, !tbaa !15
  %6 = icmp ult ptr %3, %5
  br i1 %6, label %9, label %7, !prof !16

7:                                                ; preds = %0
  %8 = tail call i32 @__uflow(ptr noundef nonnull %1) #31
  br label %13

9:                                                ; preds = %0
  %10 = getelementptr inbounds i8, ptr %3, i64 1
  store ptr %10, ptr %2, align 8, !tbaa !10
  %11 = load i8, ptr %3, align 1, !tbaa !17
  %12 = zext i8 %11 to i32
  br label %13

13:                                               ; preds = %9, %7
  %14 = phi i32 [ %8, %7 ], [ %12, %9 ]
  ret i32 %14
}

; Function Attrs: inlinehint nofree nounwind sspstrong uwtable
define dso_local i32 @putchar(i32 noundef %0) local_unnamed_addr #0 {
  %2 = load ptr, ptr @stdout, align 8, !tbaa !6
  %3 = tail call i32 @putc(i32 noundef %0, ptr noundef %2)
  ret i32 %3
}

; Function Attrs: nofree nounwind
declare noundef i32 @putc(i32 noundef, ptr nocapture noundef) local_unnamed_addr #1

; Function Attrs: inlinehint nounwind sspstrong uwtable
define dso_local i32 @fputc_unlocked(i32 noundef %0, ptr noundef %1) local_unnamed_addr #2 {
  %3 = getelementptr inbounds %struct._IO_FILE, ptr %1, i64 0, i32 5
  %4 = load ptr, ptr %3, align 8, !tbaa !18
  %5 = getelementptr inbounds %struct._IO_FILE, ptr %1, i64 0, i32 6
  %6 = load ptr, ptr %5, align 8, !tbaa !19
  %7 = icmp ult ptr %4, %6
  br i1 %7, label %11, label %8, !prof !16

8:                                                ; preds = %2
  %9 = and i32 %0, 255
  %10 = tail call i32 @__overflow(ptr noundef nonnull %1, i32 noundef %9) #31
  br label %15

11:                                               ; preds = %2
  %12 = trunc i32 %0 to i8
  %13 = getelementptr inbounds i8, ptr %4, i64 1
  store ptr %13, ptr %3, align 8, !tbaa !18
  store i8 %12, ptr %4, align 1, !tbaa !17
  %14 = and i32 %0, 255
  br label %15

15:                                               ; preds = %11, %8
  %16 = phi i32 [ %10, %8 ], [ %14, %11 ]
  ret i32 %16
}

declare i32 @__overflow(ptr noundef, i32 noundef) local_unnamed_addr #3

; Function Attrs: inlinehint nounwind sspstrong uwtable
define dso_local i32 @putc_unlocked(i32 noundef %0, ptr noundef %1) local_unnamed_addr #2 {
  %3 = getelementptr inbounds %struct._IO_FILE, ptr %1, i64 0, i32 5
  %4 = load ptr, ptr %3, align 8, !tbaa !18
  %5 = getelementptr inbounds %struct._IO_FILE, ptr %1, i64 0, i32 6
  %6 = load ptr, ptr %5, align 8, !tbaa !19
  %7 = icmp ult ptr %4, %6
  br i1 %7, label %11, label %8, !prof !16

8:                                                ; preds = %2
  %9 = and i32 %0, 255
  %10 = tail call i32 @__overflow(ptr noundef nonnull %1, i32 noundef %9) #31
  br label %15

11:                                               ; preds = %2
  %12 = trunc i32 %0 to i8
  %13 = getelementptr inbounds i8, ptr %4, i64 1
  store ptr %13, ptr %3, align 8, !tbaa !18
  store i8 %12, ptr %4, align 1, !tbaa !17
  %14 = and i32 %0, 255
  br label %15

15:                                               ; preds = %11, %8
  %16 = phi i32 [ %10, %8 ], [ %14, %11 ]
  ret i32 %16
}

; Function Attrs: inlinehint nounwind sspstrong uwtable
define dso_local i32 @putchar_unlocked(i32 noundef %0) local_unnamed_addr #2 {
  %2 = load ptr, ptr @stdout, align 8, !tbaa !6
  %3 = getelementptr inbounds %struct._IO_FILE, ptr %2, i64 0, i32 5
  %4 = load ptr, ptr %3, align 8, !tbaa !18
  %5 = getelementptr inbounds %struct._IO_FILE, ptr %2, i64 0, i32 6
  %6 = load ptr, ptr %5, align 8, !tbaa !19
  %7 = icmp ult ptr %4, %6
  br i1 %7, label %11, label %8, !prof !16

8:                                                ; preds = %1
  %9 = and i32 %0, 255
  %10 = tail call i32 @__overflow(ptr noundef nonnull %2, i32 noundef %9) #31
  br label %15

11:                                               ; preds = %1
  %12 = trunc i32 %0 to i8
  %13 = getelementptr inbounds i8, ptr %4, i64 1
  store ptr %13, ptr %3, align 8, !tbaa !18
  store i8 %12, ptr %4, align 1, !tbaa !17
  %14 = and i32 %0, 255
  br label %15

15:                                               ; preds = %11, %8
  %16 = phi i32 [ %10, %8 ], [ %14, %11 ]
  ret i32 %16
}

; Function Attrs: inlinehint nounwind sspstrong uwtable
define dso_local i64 @getline(ptr noundef %0, ptr noundef %1, ptr noundef %2) local_unnamed_addr #2 {
  %4 = tail call i64 @__getdelim(ptr noundef %0, ptr noundef %1, i32 noundef 10, ptr noundef %2) #31
  ret i64 %4
}

declare i64 @__getdelim(ptr noundef, ptr noundef, i32 noundef, ptr noundef) local_unnamed_addr #3

; Function Attrs: inlinehint mustprogress nofree norecurse nosync nounwind sspstrong willreturn memory(argmem: read) uwtable
define dso_local i32 @feof_unlocked(ptr nocapture noundef readonly %0) local_unnamed_addr #4 {
  %2 = load i32, ptr %0, align 8, !tbaa !20
  %3 = lshr i32 %2, 4
  %4 = and i32 %3, 1
  ret i32 %4
}

; Function Attrs: inlinehint mustprogress nofree norecurse nosync nounwind sspstrong willreturn memory(argmem: read) uwtable
define dso_local i32 @ferror_unlocked(ptr nocapture noundef readonly %0) local_unnamed_addr #4 {
  %2 = load i32, ptr %0, align 8, !tbaa !20
  %3 = lshr i32 %2, 5
  %4 = and i32 %3, 1
  ret i32 %4
}

; Function Attrs: inlinehint mustprogress nofree nounwind sspstrong willreturn memory(read) uwtable
define dso_local i32 @tolower(i32 noundef %0) local_unnamed_addr #5 {
  %2 = add i32 %0, 128
  %3 = icmp ult i32 %2, 384
  br i1 %3, label %4, label %10

4:                                                ; preds = %1
  %5 = tail call ptr @__ctype_tolower_loc() #31
  %6 = load ptr, ptr %5, align 8, !tbaa !6
  %7 = sext i32 %0 to i64
  %8 = getelementptr inbounds i32, ptr %6, i64 %7
  %9 = load i32, ptr %8, align 4, !tbaa !21
  br label %10

10:                                               ; preds = %1, %4
  %11 = phi i32 [ %9, %4 ], [ %0, %1 ]
  ret i32 %11
}

declare ptr @__ctype_tolower_loc() local_unnamed_addr #3

; Function Attrs: inlinehint mustprogress nofree nounwind sspstrong willreturn memory(read) uwtable
define dso_local i32 @toupper(i32 noundef %0) local_unnamed_addr #5 {
  %2 = add i32 %0, 128
  %3 = icmp ult i32 %2, 384
  br i1 %3, label %4, label %10

4:                                                ; preds = %1
  %5 = tail call ptr @__ctype_toupper_loc() #31
  %6 = load ptr, ptr %5, align 8, !tbaa !6
  %7 = sext i32 %0 to i64
  %8 = getelementptr inbounds i32, ptr %6, i64 %7
  %9 = load i32, ptr %8, align 4, !tbaa !21
  br label %10

10:                                               ; preds = %1, %4
  %11 = phi i32 [ %9, %4 ], [ %0, %1 ]
  ret i32 %11
}

declare ptr @__ctype_toupper_loc() local_unnamed_addr #3

; Function Attrs: inlinehint nounwind sspstrong uwtable
define dso_local i32 @atoi(ptr noundef %0) local_unnamed_addr #2 {
  %2 = tail call i64 @__isoc23_strtol(ptr noundef %0, ptr noundef null, i32 noundef 10) #31
  %3 = trunc i64 %2 to i32
  ret i32 %3
}

declare i64 @__isoc23_strtol(ptr noundef, ptr noundef, i32 noundef) local_unnamed_addr #3

; Function Attrs: inlinehint nounwind sspstrong uwtable
define dso_local i64 @atol(ptr noundef %0) local_unnamed_addr #2 {
  %2 = tail call i64 @__isoc23_strtol(ptr noundef %0, ptr noundef null, i32 noundef 10) #31
  ret i64 %2
}

; Function Attrs: inlinehint nounwind sspstrong uwtable
define dso_local i64 @atoll(ptr noundef %0) local_unnamed_addr #2 {
  %2 = tail call i64 @__isoc23_strtoll(ptr noundef %0, ptr noundef null, i32 noundef 10) #31
  ret i64 %2
}

declare i64 @__isoc23_strtoll(ptr noundef, ptr noundef, i32 noundef) local_unnamed_addr #3

; Function Attrs: inlinehint nounwind sspstrong uwtable
define dso_local ptr @bsearch(ptr noundef %0, ptr noundef %1, i64 noundef %2, i64 noundef %3, ptr nocapture noundef readonly %4) local_unnamed_addr #2 {
  %6 = icmp eq i64 %2, 0
  br i1 %6, label %24, label %7

7:                                                ; preds = %5, %20
  %8 = phi i64 [ %22, %20 ], [ 0, %5 ]
  %9 = phi i64 [ %21, %20 ], [ %2, %5 ]
  %10 = add i64 %8, %9
  %11 = lshr i64 %10, 1
  %12 = mul i64 %11, %3
  %13 = getelementptr inbounds i8, ptr %1, i64 %12
  %14 = tail call i32 %4(ptr noundef %0, ptr noundef %13) #31
  %15 = icmp slt i32 %14, 0
  br i1 %15, label %20, label %16

16:                                               ; preds = %7
  %17 = icmp eq i32 %14, 0
  br i1 %17, label %24, label %18

18:                                               ; preds = %16
  %19 = add nuw i64 %11, 1
  br label %20

20:                                               ; preds = %7, %18
  %21 = phi i64 [ %9, %18 ], [ %11, %7 ]
  %22 = phi i64 [ %19, %18 ], [ %8, %7 ]
  %23 = icmp ult i64 %22, %21
  br i1 %23, label %7, label %24, !llvm.loop !22

24:                                               ; preds = %16, %20, %5
  %25 = phi ptr [ null, %5 ], [ null, %20 ], [ %13, %16 ]
  ret ptr %25
}

; Function Attrs: mustprogress nocallback nofree nosync nounwind willreturn memory(argmem: readwrite)
declare void @llvm.lifetime.start.p0(i64 immarg, ptr nocapture) #6

; Function Attrs: mustprogress nocallback nofree nosync nounwind willreturn memory(argmem: readwrite)
declare void @llvm.lifetime.end.p0(i64 immarg, ptr nocapture) #6

; Function Attrs: inlinehint mustprogress nofree nounwind sspstrong willreturn uwtable
define dso_local nofpclass(nan inf) double @atof(ptr nocapture noundef readonly %0) local_unnamed_addr #7 {
  %2 = tail call fast nofpclass(nan inf) double @strtod(ptr nocapture noundef %0, ptr noundef null)
  ret double %2
}

; Function Attrs: mustprogress nofree nounwind willreturn
declare nofpclass(nan inf) double @strtod(ptr noundef readonly, ptr nocapture noundef) local_unnamed_addr #8

; Function Attrs: mustprogress nofree norecurse nosync nounwind sspstrong willreturn memory(read, argmem: none, inaccessiblemem: none) uwtable
define dso_local i32 @dwarf2out_do_frame() local_unnamed_addr #9 {
  %1 = load i32, ptr @write_symbols, align 4
  %2 = icmp eq i32 %1, 3
  %3 = icmp eq i32 %1, 6
  %4 = or i1 %2, %3
  %5 = load i8, ptr @saved_do_cfi_asm, align 1
  %6 = icmp ne i8 %5, 0
  %7 = select i1 %4, i1 true, i1 %6
  %8 = load i32, ptr @flag_unwind_tables, align 4
  %9 = icmp ne i32 %8, 0
  %10 = select i1 %7, i1 true, i1 %9
  %11 = load i32, ptr @flag_exceptions, align 4
  %12 = icmp ne i32 %11, 0
  %13 = select i1 %10, i1 true, i1 %12
  %14 = zext i1 %13 to i32
  ret i32 %14
}

; Function Attrs: nounwind sspstrong uwtable
define dso_local i32 @dwarf2out_do_cfi_asm() local_unnamed_addr #10 {
  %1 = load i32, ptr @flag_dwarf2_cfi_asm, align 4, !tbaa !21
  %2 = icmp eq i32 %1, 0
  br i1 %2, label %34, label %3

3:                                                ; preds = %0
  %4 = load i32, ptr @write_symbols, align 4
  %5 = icmp ne i32 %4, 3
  %6 = icmp ne i32 %4, 6
  %7 = and i1 %5, %6
  %8 = load i8, ptr @saved_do_cfi_asm, align 1
  %9 = icmp eq i8 %8, 0
  %10 = select i1 %7, i1 %9, i1 false
  %11 = load i32, ptr @flag_unwind_tables, align 4
  %12 = icmp eq i32 %11, 0
  %13 = select i1 %10, i1 %12, i1 false
  %14 = load i32, ptr @flag_exceptions, align 4
  %15 = icmp eq i32 %14, 0
  %16 = select i1 %13, i1 %15, i1 false
  %17 = xor i1 %9, true
  %18 = select i1 %16, i1 true, i1 %17
  %19 = xor i1 %16, true
  %20 = zext i1 %19 to i32
  br i1 %18, label %34, label %21

21:                                               ; preds = %3
  %22 = tail call i32 @asm_preferred_eh_data_format(i32 noundef 2, i32 noundef 1) #31
  %23 = and i32 %22, 112
  switch i32 %23, label %34 [
    i32 0, label %24
    i32 16, label %24
  ]

24:                                               ; preds = %21, %21
  %25 = tail call i32 @asm_preferred_eh_data_format(i32 noundef 0, i32 noundef 0) #31
  %26 = and i32 %25, 112
  switch i32 %26, label %34 [
    i32 0, label %27
    i32 16, label %27
  ]

27:                                               ; preds = %24, %24
  %28 = load i32, ptr @flag_unwind_tables, align 4, !tbaa !21
  %29 = icmp ne i32 %28, 0
  %30 = load i32, ptr @flag_exceptions, align 4
  %31 = icmp ne i32 %30, 0
  %32 = select i1 %29, i1 true, i1 %31
  br i1 %32, label %33, label %34

33:                                               ; preds = %27
  store i8 1, ptr @saved_do_cfi_asm, align 1, !tbaa !17
  br label %34

34:                                               ; preds = %3, %27, %24, %21, %0, %33
  %35 = phi i32 [ 1, %33 ], [ %20, %3 ], [ 0, %0 ], [ 0, %21 ], [ 0, %24 ], [ 0, %27 ]
  ret i32 %35
}

declare i32 @asm_preferred_eh_data_format(i32 noundef, i32 noundef) local_unnamed_addr #3

; Function Attrs: nounwind sspstrong uwtable
define dso_local ptr @expand_builtin_dwarf_sp_column() local_unnamed_addr #10 {
  %1 = load i32, ptr getelementptr inbounds ([53 x i32], ptr @svr4_dbx_register_map, i64 0, i64 7), align 4, !tbaa !21
  %2 = zext i32 %1 to i64
  %3 = tail call ptr @gen_rtx_CONST_INT(i32 noundef 0, i64 noundef %2) #31
  ret ptr %3
}

declare ptr @gen_rtx_CONST_INT(i32 noundef, i64 noundef) local_unnamed_addr #3

; Function Attrs: nounwind sspstrong uwtable
define dso_local void @expand_builtin_init_dwarf_reg_sizes(ptr noundef %0) local_unnamed_addr #10 {
  %2 = load ptr, ptr @integer_types, align 16, !tbaa !6
  %3 = load i64, ptr %2, align 8
  %4 = and i64 %3, 65535
  %5 = icmp eq i64 %4, 14
  br i1 %5, label %6, label %8

6:                                                ; preds = %1
  %7 = tail call i32 @vector_type_mode(ptr noundef nonnull %2) #31
  br label %13

8:                                                ; preds = %1
  %9 = getelementptr inbounds %struct.tree_type, ptr %2, i64 0, i32 6
  %10 = load i32, ptr %9, align 4
  %11 = lshr i32 %10, 16
  %12 = and i32 %11, 255
  br label %13

13:                                               ; preds = %8, %6
  %14 = phi i32 [ %7, %6 ], [ %12, %8 ]
  %15 = tail call ptr @expand_expr_real(ptr noundef %0, ptr noundef null, i32 noundef 0, i32 noundef 0, ptr noundef null) #31
  %16 = tail call ptr @gen_rtx_MEM(i32 noundef 1, ptr noundef %15) #31
  %17 = zext i32 %14 to i64
  %18 = getelementptr inbounds [87 x i8], ptr @mode_size, i64 0, i64 %17
  br label %19

19:                                               ; preds = %13, %46
  %20 = phi i64 [ 0, %13 ], [ %48, %46 ]
  %21 = phi i8 [ 0, %13 ], [ %47, %46 ]
  %22 = getelementptr inbounds [53 x i32], ptr @svr4_dbx_register_map, i64 0, i64 %20
  %23 = load i32, ptr %22, align 4, !tbaa !21
  %24 = icmp slt i32 %23, 17
  br i1 %24, label %25, label %46

25:                                               ; preds = %19
  %26 = load i8, ptr %18, align 1, !tbaa !17
  %27 = zext i8 %26 to i32
  %28 = mul nsw i32 %23, %27
  %29 = sext i32 %28 to i64
  %30 = getelementptr inbounds [53 x i32], ptr @reg_raw_mode, i64 0, i64 %20
  %31 = load i32, ptr %30, align 4, !tbaa !17
  %32 = icmp eq i32 %23, 8
  br i1 %32, label %33, label %35

33:                                               ; preds = %25
  %34 = icmp eq i32 %31, 0
  br i1 %34, label %46, label %35

35:                                               ; preds = %33, %25
  %36 = phi i8 [ %21, %25 ], [ 1, %33 ]
  %37 = icmp slt i32 %28, 0
  br i1 %37, label %46, label %38

38:                                               ; preds = %35
  %39 = zext i32 %31 to i64
  %40 = getelementptr inbounds [87 x i8], ptr @mode_size, i64 0, i64 %39
  %41 = load i8, ptr %40, align 1, !tbaa !17
  %42 = zext i8 %41 to i64
  %43 = tail call ptr @adjust_address_1(ptr noundef %16, i32 noundef %14, i64 noundef %29, i32 noundef 1, i32 noundef 1) #31
  %44 = tail call ptr @gen_int_mode(i64 noundef %42, i32 noundef %14) #31
  %45 = tail call ptr @emit_move_insn(ptr noundef %43, ptr noundef %44) #31
  br label %46

46:                                               ; preds = %38, %33, %35, %19
  %47 = phi i8 [ %21, %19 ], [ %36, %38 ], [ %21, %33 ], [ %36, %35 ]
  %48 = add nuw nsw i64 %20, 1
  %49 = icmp eq i64 %48, 53
  br i1 %49, label %50, label %19, !llvm.loop !24

50:                                               ; preds = %46
  %51 = icmp eq i8 %47, 0
  br i1 %51, label %52, label %61

52:                                               ; preds = %50
  %53 = load i8, ptr %18, align 1, !tbaa !17
  %54 = zext i8 %53 to i64
  %55 = shl nuw nsw i64 %54, 3
  %56 = load i8, ptr getelementptr inbounds ([87 x i8], ptr @mode_size, i64 0, i64 16), align 16, !tbaa !17
  %57 = zext i8 %56 to i64
  %58 = tail call ptr @adjust_address_1(ptr noundef %16, i32 noundef %14, i64 noundef %55, i32 noundef 1, i32 noundef 1) #31
  %59 = tail call ptr @gen_rtx_CONST_INT(i32 noundef 0, i64 noundef %57) #31
  %60 = tail call ptr @emit_move_insn(ptr noundef %58, ptr noundef %59) #31
  br label %61

61:                                               ; preds = %52, %50
  %62 = load ptr, ptr getelementptr inbounds (%struct.gcc_target, ptr @targetm, i64 0, i32 65), align 8, !tbaa !25
  tail call void %62(ptr noundef %0) #31
  ret void
}

declare i32 @vector_type_mode(ptr noundef) local_unnamed_addr #3

declare ptr @gen_rtx_MEM(i32 noundef, ptr noundef) local_unnamed_addr #3

declare ptr @emit_move_insn(ptr noundef, ptr noundef) local_unnamed_addr #3

declare ptr @adjust_address_1(ptr noundef, i32 noundef, i64 noundef, i32 noundef, i32 noundef) local_unnamed_addr #3

declare ptr @gen_int_mode(i64 noundef, i32 noundef) local_unnamed_addr #3

declare ptr @expand_expr_real(ptr noundef, ptr noundef, i32 noundef, i32 noundef, ptr noundef) local_unnamed_addr #3

; Function Attrs: nounwind sspstrong uwtable
define dso_local nonnull ptr @dwarf2out_cfi_label(i8 noundef zeroext %0) local_unnamed_addr #10 {
  %2 = icmp eq i8 %0, 0
  br i1 %2, label %3, label %7

3:                                                ; preds = %1
  %4 = tail call i32 @dwarf2out_do_cfi_asm(), !range !37
  %5 = icmp eq i32 %4, 0
  br i1 %5, label %7, label %6

6:                                                ; preds = %3
  tail call void @llvm.memcpy.p0.p0.i64(ptr noundef nonnull align 16 dereferenceable(16) @dwarf2out_cfi_label.label, ptr noundef nonnull align 1 dereferenceable(16) @.str, i64 16, i1 false)
  br label %15

7:                                                ; preds = %1, %3
  %8 = load i64, ptr @dwarf2out_cfi_label_num, align 8, !tbaa !38
  %9 = add i64 %8, 1
  store i64 %9, ptr @dwarf2out_cfi_label_num, align 8, !tbaa !38
  %10 = trunc i64 %8 to i32
  %11 = tail call i32 (ptr, ptr, ...) @sprintf(ptr noundef nonnull dereferenceable(1) @dwarf2out_cfi_label.label, ptr noundef nonnull dereferenceable(1) @.str.1, ptr noundef nonnull @.str.2, i32 noundef %10)
  %12 = load ptr, ptr @asm_out_file, align 8, !tbaa !6
  tail call void @assemble_name(ptr noundef %12, ptr noundef nonnull @dwarf2out_cfi_label.label) #31
  %13 = load ptr, ptr @asm_out_file, align 8, !tbaa !6
  %14 = tail call i64 @fwrite(ptr nonnull @.str.3, i64 2, i64 1, ptr %13)
  br label %15

15:                                               ; preds = %7, %6
  ret ptr @dwarf2out_cfi_label.label
}

; Function Attrs: nofree nounwind
declare noundef i32 @sprintf(ptr noalias nocapture noundef writeonly, ptr nocapture noundef readonly, ...) local_unnamed_addr #1

declare void @assemble_name(ptr noundef, ptr noundef) local_unnamed_addr #3

; Function Attrs: nounwind sspstrong uwtable
define dso_local void @dwarf2out_def_cfa(ptr noundef %0, i32 noundef %1, i64 noundef %2) local_unnamed_addr #10 {
  %4 = alloca %struct.cfa_loc, align 8
  call void @llvm.lifetime.start.p0(i64 24, ptr nonnull %4) #31
  %5 = getelementptr inbounds %struct.cfa_loc, ptr %4, i64 0, i32 3
  store i8 0, ptr %5, align 4
  %6 = getelementptr inbounds %struct.cfa_loc, ptr %4, i64 0, i32 1
  store i64 0, ptr %6, align 8, !tbaa !39
  %7 = getelementptr inbounds %struct.cfa_loc, ptr %4, i64 0, i32 2
  store i32 %1, ptr %7, align 8, !tbaa !41
  store i64 %2, ptr %4, align 8, !tbaa !42
  call fastcc void @def_cfa_1(ptr noundef %0, ptr noundef nonnull %4)
  call void @llvm.lifetime.end.p0(i64 24, ptr nonnull %4) #31
  ret void
}

; Function Attrs: nounwind sspstrong uwtable
define internal fastcc void @def_cfa_1(ptr noundef %0, ptr nocapture noundef readonly %1) unnamed_addr #10 {
  %3 = alloca %struct.cfa_loc, align 8
  %4 = alloca %struct.cfa_loc, align 8
  %5 = alloca %struct.cfa_loc, align 8
  call void @llvm.lifetime.start.p0(i64 24, ptr nonnull %4) #31
  call void @llvm.lifetime.start.p0(i64 24, ptr nonnull %5) #31
  tail call void @llvm.memcpy.p0.p0.i64(ptr noundef nonnull align 8 dereferenceable(24) @cfa, ptr noundef nonnull align 8 dereferenceable(24) %1, i64 24, i1 false), !tbaa.struct !43
  call void @llvm.memcpy.p0.p0.i64(ptr noundef nonnull align 8 dereferenceable(24) %5, ptr noundef nonnull align 8 dereferenceable(24) %1, i64 24, i1 false), !tbaa.struct !43
  %6 = load i32, ptr getelementptr inbounds (%struct.cfa_loc, ptr @cfa_store, i64 0, i32 2), align 8, !tbaa !41
  %7 = getelementptr inbounds %struct.cfa_loc, ptr %5, i64 0, i32 2
  %8 = load i32, ptr %7, align 8, !tbaa !41
  %9 = icmp eq i32 %6, %8
  br i1 %9, label %10, label %17

10:                                               ; preds = %2
  %11 = getelementptr inbounds %struct.cfa_loc, ptr %5, i64 0, i32 3
  %12 = load i8, ptr %11, align 4
  %13 = and i8 %12, 1
  %14 = icmp eq i8 %13, 0
  br i1 %14, label %15, label %17

15:                                               ; preds = %10
  %16 = load i64, ptr %5, align 8, !tbaa !42
  store i64 %16, ptr @cfa_store, align 8, !tbaa !42
  br label %17

17:                                               ; preds = %15, %10, %2
  %18 = zext i32 %8 to i64
  %19 = getelementptr inbounds [53 x i32], ptr @svr4_dbx_register_map, i64 0, i64 %18
  %20 = load i32, ptr %19, align 4, !tbaa !21
  store i32 %20, ptr %7, align 8, !tbaa !41
  call void @llvm.lifetime.start.p0(i64 24, ptr nonnull %3) #31
  call void @llvm.memset.p0.i64(ptr noundef nonnull align 8 dereferenceable(24) %4, i8 0, i64 24, i1 false)
  %21 = getelementptr inbounds %struct.cfa_loc, ptr %4, i64 0, i32 2
  store i32 -1, ptr %21, align 8, !tbaa !41
  call void @llvm.memcpy.p0.p0.i64(ptr noundef nonnull align 8 dereferenceable(24) %3, ptr noundef nonnull align 8 dereferenceable(24) %4, i64 24, i1 false), !tbaa.struct !43
  %22 = load ptr, ptr @cie_cfi_head, align 8, !tbaa !6
  %23 = icmp eq ptr %22, null
  br i1 %23, label %28, label %24

24:                                               ; preds = %17, %24
  %25 = phi ptr [ %26, %24 ], [ %22, %17 ]
  call fastcc void @lookup_cfa_1(ptr noundef nonnull %25, ptr noundef nonnull %4, ptr noundef nonnull %3)
  %26 = load ptr, ptr %25, align 8, !tbaa !6
  %27 = icmp eq ptr %26, null
  br i1 %27, label %28, label %24, !llvm.loop !44

28:                                               ; preds = %24, %17
  %29 = load i32, ptr @fde_table_in_use, align 4
  %30 = icmp eq i32 %29, 0
  %31 = load ptr, ptr @fde_table, align 8
  %32 = icmp eq ptr %31, null
  %33 = select i1 %30, i1 true, i1 %32
  br i1 %33, label %44, label %34

34:                                               ; preds = %28
  %35 = add i32 %29, -1
  %36 = zext i32 %35 to i64
  %37 = getelementptr inbounds %struct.dw_fde_struct, ptr %31, i64 %36, i32 8
  %38 = load ptr, ptr %37, align 8, !tbaa !6
  %39 = icmp eq ptr %38, null
  br i1 %39, label %44, label %40

40:                                               ; preds = %34, %40
  %41 = phi ptr [ %42, %40 ], [ %38, %34 ]
  call fastcc void @lookup_cfa_1(ptr noundef nonnull %41, ptr noundef nonnull %4, ptr noundef nonnull %3)
  %42 = load ptr, ptr %41, align 8, !tbaa !6
  %43 = icmp eq ptr %42, null
  br i1 %43, label %44, label %40, !llvm.loop !45

44:                                               ; preds = %40, %28, %34
  call void @llvm.lifetime.end.p0(i64 24, ptr nonnull %3) #31
  %45 = load i32, ptr %21, align 8
  %46 = icmp eq i32 %20, %45
  br i1 %46, label %47, label %67

47:                                               ; preds = %44
  %48 = load i64, ptr %5, align 8, !tbaa !42
  %49 = load i64, ptr %4, align 8, !tbaa !42
  %50 = icmp eq i64 %48, %49
  br i1 %50, label %51, label %67

51:                                               ; preds = %47
  %52 = getelementptr inbounds %struct.cfa_loc, ptr %5, i64 0, i32 3
  %53 = load i8, ptr %52, align 4
  %54 = and i8 %53, 1
  %55 = getelementptr inbounds %struct.cfa_loc, ptr %4, i64 0, i32 3
  %56 = load i8, ptr %55, align 4
  %57 = and i8 %56, 1
  %58 = icmp eq i8 %54, %57
  br i1 %58, label %59, label %67

59:                                               ; preds = %51
  %60 = icmp eq i8 %54, 0
  br i1 %60, label %107, label %61

61:                                               ; preds = %59
  %62 = getelementptr inbounds %struct.cfa_loc, ptr %5, i64 0, i32 1
  %63 = load i64, ptr %62, align 8, !tbaa !39
  %64 = getelementptr inbounds %struct.cfa_loc, ptr %4, i64 0, i32 1
  %65 = load i64, ptr %64, align 8, !tbaa !39
  %66 = icmp eq i64 %63, %65
  br i1 %66, label %107, label %67

67:                                               ; preds = %44, %47, %51, %61
  %68 = tail call ptr @ggc_alloc_stat(i64 noundef 32) #31
  store ptr null, ptr %68, align 8, !tbaa !46
  %69 = getelementptr inbounds %struct.dw_cfi_struct, ptr %68, i64 0, i32 2
  store i32 0, ptr %69, align 8, !tbaa !17
  %70 = getelementptr inbounds %struct.dw_cfi_struct, ptr %68, i64 0, i32 3
  store i32 0, ptr %70, align 8, !tbaa !17
  br i1 %46, label %73, label %71

71:                                               ; preds = %67
  %72 = load i64, ptr %5, align 8, !tbaa !42
  br label %83

73:                                               ; preds = %67
  %74 = getelementptr inbounds %struct.cfa_loc, ptr %5, i64 0, i32 3
  %75 = load i8, ptr %74, align 4
  %76 = and i8 %75, 1
  %77 = icmp eq i8 %76, 0
  %78 = load i64, ptr %5, align 8, !tbaa !42
  br i1 %77, label %79, label %83

79:                                               ; preds = %73
  %80 = icmp slt i64 %78, 0
  %81 = select i1 %80, i32 19, i32 14
  %82 = getelementptr inbounds %struct.dw_cfi_struct, ptr %68, i64 0, i32 1
  store i32 %81, ptr %82, align 8
  store i64 %78, ptr %69, align 8, !tbaa !17
  br label %106

83:                                               ; preds = %71, %73
  %84 = phi i64 [ %72, %71 ], [ %78, %73 ]
  %85 = load i64, ptr %4, align 8, !tbaa !42
  %86 = icmp eq i64 %84, %85
  %87 = icmp ne i32 %45, -1
  %88 = and i1 %87, %86
  %89 = getelementptr inbounds %struct.cfa_loc, ptr %5, i64 0, i32 3
  %90 = load i8, ptr %89, align 4
  %91 = and i8 %90, 1
  %92 = icmp eq i8 %91, 0
  %93 = select i1 %88, i1 %92, i1 false
  br i1 %93, label %94, label %96

94:                                               ; preds = %83
  %95 = getelementptr inbounds %struct.dw_cfi_struct, ptr %68, i64 0, i32 1
  store i32 13, ptr %95, align 8, !tbaa !48
  store i32 %20, ptr %69, align 8, !tbaa !17
  br label %106

96:                                               ; preds = %83
  %97 = and i8 %90, 1
  %98 = icmp eq i8 %97, 0
  br i1 %98, label %99, label %103

99:                                               ; preds = %96
  %100 = icmp slt i64 %84, 0
  %101 = select i1 %100, i32 18, i32 12
  %102 = getelementptr inbounds %struct.dw_cfi_struct, ptr %68, i64 0, i32 1
  store i32 %101, ptr %102, align 8
  store i32 %20, ptr %69, align 8, !tbaa !17
  store i64 %84, ptr %70, align 8, !tbaa !17
  br label %106

103:                                              ; preds = %96
  %104 = getelementptr inbounds %struct.dw_cfi_struct, ptr %68, i64 0, i32 1
  store i32 15, ptr %104, align 8, !tbaa !48
  %105 = call fastcc ptr @build_cfa_loc(ptr noundef nonnull %5)
  store ptr %105, ptr %69, align 8, !tbaa !17
  br label %106

106:                                              ; preds = %94, %103, %99, %79
  tail call fastcc void @add_fde_cfi(ptr noundef %0, ptr noundef nonnull %68)
  br label %107

107:                                              ; preds = %59, %61, %106
  call void @llvm.lifetime.end.p0(i64 24, ptr nonnull %5) #31
  call void @llvm.lifetime.end.p0(i64 24, ptr nonnull %4) #31
  ret void
}

; Function Attrs: mustprogress nocallback nofree nounwind willreturn memory(argmem: readwrite)
declare void @llvm.memcpy.p0.p0.i64(ptr noalias nocapture writeonly, ptr noalias nocapture readonly, i64, i1 immarg) #11

; Function Attrs: nounwind sspstrong uwtable
define internal fastcc ptr @build_cfa_loc(ptr nocapture noundef readonly %0) unnamed_addr #10 {
  %2 = alloca ptr, align 8
  call void @llvm.lifetime.start.p0(i64 8, ptr nonnull %2)
  %3 = load i64, ptr %0, align 8, !tbaa !42
  %4 = getelementptr inbounds %struct.cfa_loc, ptr %0, i64 0, i32 3
  %5 = load i8, ptr %4, align 4
  %6 = and i8 %5, 1
  %7 = icmp eq i8 %6, 0
  %8 = getelementptr inbounds %struct.cfa_loc, ptr %0, i64 0, i32 2
  %9 = load i32, ptr %8, align 8, !tbaa !41
  br i1 %7, label %64, label %10

10:                                               ; preds = %1
  %11 = getelementptr inbounds %struct.cfa_loc, ptr %0, i64 0, i32 1
  %12 = load i64, ptr %11, align 8, !tbaa !39
  %13 = icmp ult i32 %9, 32
  br i1 %13, label %14, label %18

14:                                               ; preds = %10
  %15 = tail call ptr @ggc_alloc_cleared_stat(i64 noundef 64) #31
  %16 = trunc i32 %9 to i16
  %17 = add nuw nsw i16 %16, 112
  br label %21

18:                                               ; preds = %10
  %19 = zext i32 %9 to i64
  %20 = tail call ptr @ggc_alloc_cleared_stat(i64 noundef 64) #31
  br label %21

21:                                               ; preds = %14, %18
  %22 = phi i16 [ 146, %18 ], [ %17, %14 ]
  %23 = phi ptr [ %20, %18 ], [ %15, %14 ]
  %24 = phi i64 [ %19, %18 ], [ %12, %14 ]
  %25 = phi i64 [ %12, %18 ], [ 0, %14 ]
  %26 = getelementptr inbounds %struct.dw_loc_descr_struct, ptr %23, i64 0, i32 1
  %27 = load i16, ptr %26, align 8
  %28 = and i16 %27, -256
  %29 = or i16 %28, %22
  store i16 %29, ptr %26, align 8
  %30 = getelementptr inbounds %struct.dw_loc_descr_struct, ptr %23, i64 0, i32 3
  %31 = getelementptr inbounds %struct.dw_loc_descr_struct, ptr %23, i64 0, i32 3, i32 1
  store i64 %24, ptr %31, align 8, !tbaa !17
  %32 = getelementptr inbounds %struct.dw_loc_descr_struct, ptr %23, i64 0, i32 4
  store i32 6, ptr %32, align 8, !tbaa !49
  %33 = getelementptr inbounds %struct.dw_loc_descr_struct, ptr %23, i64 0, i32 4, i32 1
  store i64 %25, ptr %33, align 8, !tbaa !17
  store ptr %23, ptr %2, align 8, !tbaa !6
  store i32 5, ptr %30, align 8, !tbaa !52
  %34 = tail call ptr @ggc_alloc_cleared_stat(i64 noundef 64) #31
  %35 = getelementptr inbounds %struct.dw_loc_descr_struct, ptr %34, i64 0, i32 1
  %36 = load i16, ptr %35, align 8
  %37 = and i16 %36, -256
  %38 = or i16 %37, 6
  store i16 %38, ptr %35, align 8
  %39 = getelementptr inbounds %struct.dw_loc_descr_struct, ptr %34, i64 0, i32 3
  store i32 6, ptr %39, align 8, !tbaa !52
  %40 = getelementptr inbounds %struct.dw_loc_descr_struct, ptr %34, i64 0, i32 3, i32 1
  store i64 0, ptr %40, align 8, !tbaa !17
  %41 = getelementptr inbounds %struct.dw_loc_descr_struct, ptr %34, i64 0, i32 4
  store i32 6, ptr %41, align 8, !tbaa !49
  %42 = getelementptr inbounds %struct.dw_loc_descr_struct, ptr %34, i64 0, i32 4, i32 1
  store i64 0, ptr %42, align 8, !tbaa !17
  br label %43

43:                                               ; preds = %43, %21
  %44 = phi ptr [ %2, %21 ], [ %45, %43 ]
  %45 = load ptr, ptr %44, align 8, !tbaa !6
  %46 = icmp eq ptr %45, null
  br i1 %46, label %47, label %43, !llvm.loop !53

47:                                               ; preds = %43
  store ptr %34, ptr %44, align 8, !tbaa !6
  %48 = icmp eq i64 %3, 0
  br i1 %48, label %86, label %49

49:                                               ; preds = %47
  %50 = tail call ptr @ggc_alloc_cleared_stat(i64 noundef 64) #31
  %51 = getelementptr inbounds %struct.dw_loc_descr_struct, ptr %50, i64 0, i32 1
  %52 = load i16, ptr %51, align 8
  %53 = and i16 %52, -256
  %54 = or i16 %53, 35
  store i16 %54, ptr %51, align 8
  %55 = getelementptr inbounds %struct.dw_loc_descr_struct, ptr %50, i64 0, i32 3
  store i32 6, ptr %55, align 8, !tbaa !52
  %56 = getelementptr inbounds %struct.dw_loc_descr_struct, ptr %50, i64 0, i32 3, i32 1
  store i64 %3, ptr %56, align 8, !tbaa !17
  %57 = getelementptr inbounds %struct.dw_loc_descr_struct, ptr %50, i64 0, i32 4
  store i32 6, ptr %57, align 8, !tbaa !49
  %58 = getelementptr inbounds %struct.dw_loc_descr_struct, ptr %50, i64 0, i32 4, i32 1
  store i64 0, ptr %58, align 8, !tbaa !17
  br label %59

59:                                               ; preds = %59, %49
  %60 = phi ptr [ %2, %49 ], [ %61, %59 ]
  %61 = load ptr, ptr %60, align 8, !tbaa !6
  %62 = icmp eq ptr %61, null
  br i1 %62, label %63, label %59, !llvm.loop !53

63:                                               ; preds = %59
  store ptr %50, ptr %60, align 8, !tbaa !6
  br label %86

64:                                               ; preds = %1
  %65 = icmp ult i32 %9, 32
  br i1 %65, label %66, label %70

66:                                               ; preds = %64
  %67 = tail call ptr @ggc_alloc_cleared_stat(i64 noundef 64) #31
  %68 = trunc i32 %9 to i16
  %69 = add nuw nsw i16 %68, 112
  br label %73

70:                                               ; preds = %64
  %71 = zext i32 %9 to i64
  %72 = tail call ptr @ggc_alloc_cleared_stat(i64 noundef 64) #31
  br label %73

73:                                               ; preds = %66, %70
  %74 = phi i16 [ 146, %70 ], [ %69, %66 ]
  %75 = phi ptr [ %72, %70 ], [ %67, %66 ]
  %76 = phi i64 [ %71, %70 ], [ %3, %66 ]
  %77 = phi i64 [ %3, %70 ], [ 0, %66 ]
  %78 = getelementptr inbounds %struct.dw_loc_descr_struct, ptr %75, i64 0, i32 1
  %79 = load i16, ptr %78, align 8
  %80 = and i16 %79, -256
  %81 = or i16 %80, %74
  store i16 %81, ptr %78, align 8
  %82 = getelementptr inbounds %struct.dw_loc_descr_struct, ptr %75, i64 0, i32 3
  store i32 6, ptr %82, align 8, !tbaa !52
  %83 = getelementptr inbounds %struct.dw_loc_descr_struct, ptr %75, i64 0, i32 3, i32 1
  store i64 %76, ptr %83, align 8, !tbaa !17
  %84 = getelementptr inbounds %struct.dw_loc_descr_struct, ptr %75, i64 0, i32 4
  store i32 6, ptr %84, align 8, !tbaa !49
  %85 = getelementptr inbounds %struct.dw_loc_descr_struct, ptr %75, i64 0, i32 4, i32 1
  store i64 %77, ptr %85, align 8, !tbaa !17
  store ptr %75, ptr %2, align 8, !tbaa !6
  br label %86

86:                                               ; preds = %47, %63, %73
  %87 = load ptr, ptr %2, align 8, !tbaa !6
  call void @llvm.lifetime.end.p0(i64 8, ptr nonnull %2)
  ret ptr %87
}

; Function Attrs: nounwind sspstrong uwtable
define internal fastcc void @add_fde_cfi(ptr noundef %0, ptr noundef %1) unnamed_addr #10 {
  %3 = load i1, ptr @emit_cfa_remember, align 1
  br i1 %3, label %4, label %9

4:                                                ; preds = %2
  store i1 false, ptr @emit_cfa_remember, align 1
  %5 = tail call ptr @ggc_alloc_stat(i64 noundef 32) #31
  store ptr null, ptr %5, align 8, !tbaa !46
  %6 = getelementptr inbounds %struct.dw_cfi_struct, ptr %5, i64 0, i32 2
  store i32 0, ptr %6, align 8, !tbaa !17
  %7 = getelementptr inbounds %struct.dw_cfi_struct, ptr %5, i64 0, i32 3
  store i32 0, ptr %7, align 8, !tbaa !17
  %8 = getelementptr inbounds %struct.dw_cfi_struct, ptr %5, i64 0, i32 1
  store i32 10, ptr %8, align 8, !tbaa !48
  tail call fastcc void @add_fde_cfi(ptr noundef %0, ptr noundef nonnull %5)
  br label %9

9:                                                ; preds = %4, %2
  %10 = tail call i32 @dwarf2out_do_cfi_asm(), !range !37
  %11 = icmp eq i32 %10, 0
  %12 = icmp eq ptr %0, null
  br i1 %11, label %71, label %13

13:                                               ; preds = %9
  br i1 %12, label %122, label %14

14:                                               ; preds = %13
  %15 = load i32, ptr @fde_table_in_use, align 4
  %16 = icmp eq i32 %15, 0
  %17 = load ptr, ptr @fde_table, align 8
  %18 = add i32 %15, -1
  %19 = zext i32 %18 to i64
  %20 = getelementptr inbounds %struct.dw_fde_struct, ptr %17, i64 %19
  %21 = select i1 %16, ptr null, ptr %20
  %22 = icmp eq ptr %21, null
  br i1 %22, label %23, label %24

23:                                               ; preds = %14
  tail call void @fancy_abort(ptr noundef nonnull @.str.4, i32 noundef 821, ptr noundef nonnull @.str.5) #31
  br label %24

24:                                               ; preds = %14, %23
  %25 = load i32, ptr @dwarf_version, align 4, !tbaa !21
  %26 = icmp eq i32 %25, 2
  %27 = load i32, ptr @debug_info_level, align 4
  %28 = icmp ugt i32 %27, 1
  %29 = select i1 %26, i1 %28, i1 false
  br i1 %29, label %30, label %69

30:                                               ; preds = %24
  %31 = load i32, ptr @write_symbols, align 4
  switch i32 %31, label %69 [
    i32 6, label %32
    i32 3, label %32
  ]

32:                                               ; preds = %30, %30
  %33 = getelementptr inbounds %struct.dw_cfi_struct, ptr %1, i64 0, i32 1
  %34 = load i32, ptr %33, align 8, !tbaa !48
  switch i32 %34, label %69 [
    i32 14, label %35
    i32 19, label %35
    i32 13, label %35
    i32 12, label %35
    i32 18, label %35
    i32 15, label %35
    i32 11, label %35
  ]

35:                                               ; preds = %32, %32, %32, %32, %32, %32, %32
  %36 = load i8, ptr %0, align 1, !tbaa !17
  %37 = icmp eq i8 %36, 0
  br i1 %37, label %41, label %38

38:                                               ; preds = %35
  %39 = tail call i32 @strcmp(ptr noundef nonnull dereferenceable(1) %0, ptr noundef nonnull dereferenceable(16) @.str)
  %40 = icmp eq i32 %39, 0
  br i1 %40, label %41, label %49

41:                                               ; preds = %38, %35
  %42 = load i64, ptr @dwarf2out_cfi_label_num, align 8, !tbaa !38
  %43 = add i64 %42, 1
  store i64 %43, ptr @dwarf2out_cfi_label_num, align 8, !tbaa !38
  %44 = trunc i64 %42 to i32
  %45 = tail call i32 (ptr, ptr, ...) @sprintf(ptr noundef nonnull dereferenceable(1) @dwarf2out_cfi_label.label, ptr noundef nonnull dereferenceable(1) @.str.1, ptr noundef nonnull @.str.2, i32 noundef %44)
  %46 = load ptr, ptr @asm_out_file, align 8, !tbaa !6
  tail call void @assemble_name(ptr noundef %46, ptr noundef nonnull @dwarf2out_cfi_label.label) #31
  %47 = load ptr, ptr @asm_out_file, align 8, !tbaa !6
  %48 = tail call i64 @fwrite(ptr nonnull @.str.3, i64 2, i64 1, ptr %47)
  br label %49

49:                                               ; preds = %41, %38
  %50 = phi ptr [ @dwarf2out_cfi_label.label, %41 ], [ %0, %38 ]
  %51 = getelementptr inbounds %struct.dw_fde_struct, ptr %21, i64 0, i32 2
  %52 = load ptr, ptr %51, align 8, !tbaa !54
  %53 = icmp eq ptr %52, null
  br i1 %53, label %57, label %54

54:                                               ; preds = %49
  %55 = tail call i32 @strcmp(ptr noundef nonnull dereferenceable(1) %50, ptr noundef nonnull dereferenceable(1) %52)
  %56 = icmp eq i32 %55, 0
  br i1 %56, label %69, label %57

57:                                               ; preds = %54, %49
  %58 = tail call ptr @xstrdup(ptr noundef nonnull %50) #31
  %59 = tail call ptr @ggc_alloc_stat(i64 noundef 32) #31
  store ptr null, ptr %59, align 8, !tbaa !46
  %60 = getelementptr inbounds %struct.dw_cfi_struct, ptr %59, i64 0, i32 2
  %61 = getelementptr inbounds %struct.dw_cfi_struct, ptr %59, i64 0, i32 3
  store i32 0, ptr %61, align 8, !tbaa !17
  %62 = getelementptr inbounds %struct.dw_cfi_struct, ptr %59, i64 0, i32 1
  store i32 1, ptr %62, align 8, !tbaa !48
  store ptr %58, ptr %60, align 8, !tbaa !17
  %63 = getelementptr inbounds %struct.dw_fde_struct, ptr %21, i64 0, i32 8
  br label %64

64:                                               ; preds = %64, %57
  %65 = phi ptr [ %63, %57 ], [ %66, %64 ]
  %66 = load ptr, ptr %65, align 8, !tbaa !6
  %67 = icmp eq ptr %66, null
  br i1 %67, label %68, label %64, !llvm.loop !56

68:                                               ; preds = %64
  store ptr %59, ptr %65, align 8, !tbaa !6
  store ptr %58, ptr %51, align 8, !tbaa !54
  br label %69

69:                                               ; preds = %30, %68, %54, %32, %24
  tail call fastcc void @output_cfi_directive(ptr noundef %1)
  %70 = getelementptr inbounds %struct.dw_fde_struct, ptr %21, i64 0, i32 8
  br label %122

71:                                               ; preds = %9
  br i1 %12, label %122, label %72

72:                                               ; preds = %71
  %73 = load i32, ptr @fde_table_in_use, align 4
  %74 = icmp eq i32 %73, 0
  %75 = load ptr, ptr @fde_table, align 8
  %76 = add i32 %73, -1
  %77 = zext i32 %76 to i64
  %78 = getelementptr inbounds %struct.dw_fde_struct, ptr %75, i64 %77
  %79 = select i1 %74, ptr null, ptr %78
  %80 = icmp eq ptr %79, null
  br i1 %80, label %81, label %82

81:                                               ; preds = %72
  tail call void @fancy_abort(ptr noundef nonnull @.str.4, i32 noundef 884, ptr noundef nonnull @.str.5) #31
  br label %82

82:                                               ; preds = %72, %81
  %83 = load i8, ptr %0, align 1, !tbaa !17
  %84 = icmp eq i8 %83, 0
  br i1 %84, label %85, label %97

85:                                               ; preds = %82
  %86 = tail call i32 @dwarf2out_do_cfi_asm(), !range !37
  %87 = icmp eq i32 %86, 0
  br i1 %87, label %89, label %88

88:                                               ; preds = %85
  tail call void @llvm.memcpy.p0.p0.i64(ptr noundef nonnull align 16 dereferenceable(16) @dwarf2out_cfi_label.label, ptr noundef nonnull align 1 dereferenceable(16) @.str, i64 16, i1 false)
  br label %97

89:                                               ; preds = %85
  %90 = load i64, ptr @dwarf2out_cfi_label_num, align 8, !tbaa !38
  %91 = add i64 %90, 1
  store i64 %91, ptr @dwarf2out_cfi_label_num, align 8, !tbaa !38
  %92 = trunc i64 %90 to i32
  %93 = tail call i32 (ptr, ptr, ...) @sprintf(ptr noundef nonnull dereferenceable(1) @dwarf2out_cfi_label.label, ptr noundef nonnull dereferenceable(1) @.str.1, ptr noundef nonnull @.str.2, i32 noundef %92)
  %94 = load ptr, ptr @asm_out_file, align 8, !tbaa !6
  tail call void @assemble_name(ptr noundef %94, ptr noundef nonnull @dwarf2out_cfi_label.label) #31
  %95 = load ptr, ptr @asm_out_file, align 8, !tbaa !6
  %96 = tail call i64 @fwrite(ptr nonnull @.str.3, i64 2, i64 1, ptr %95)
  br label %97

97:                                               ; preds = %89, %88, %82
  %98 = phi ptr [ %0, %82 ], [ @dwarf2out_cfi_label.label, %88 ], [ @dwarf2out_cfi_label.label, %89 ]
  %99 = getelementptr inbounds %struct.dw_fde_struct, ptr %79, i64 0, i32 2
  %100 = load ptr, ptr %99, align 8, !tbaa !54
  %101 = icmp eq ptr %100, null
  br i1 %101, label %105, label %102

102:                                              ; preds = %97
  %103 = tail call i32 @strcmp(ptr noundef nonnull dereferenceable(1) %98, ptr noundef nonnull dereferenceable(1) %100)
  %104 = icmp eq i32 %103, 0
  br i1 %104, label %120, label %105

105:                                              ; preds = %102, %97
  %106 = tail call ptr @xstrdup(ptr noundef nonnull %98) #31
  %107 = tail call ptr @ggc_alloc_stat(i64 noundef 32) #31
  store ptr null, ptr %107, align 8, !tbaa !46
  %108 = getelementptr inbounds %struct.dw_cfi_struct, ptr %107, i64 0, i32 2
  store i32 0, ptr %108, align 8, !tbaa !17
  %109 = getelementptr inbounds %struct.dw_cfi_struct, ptr %107, i64 0, i32 3
  store i32 0, ptr %109, align 8, !tbaa !17
  %110 = load ptr, ptr %99, align 8, !tbaa !54
  %111 = icmp eq ptr %110, null
  %112 = select i1 %111, i32 1, i32 4
  %113 = getelementptr inbounds %struct.dw_cfi_struct, ptr %107, i64 0, i32 1
  store i32 %112, ptr %113, align 8, !tbaa !48
  store ptr %106, ptr %108, align 8, !tbaa !17
  %114 = getelementptr inbounds %struct.dw_fde_struct, ptr %79, i64 0, i32 8
  br label %115

115:                                              ; preds = %115, %105
  %116 = phi ptr [ %114, %105 ], [ %117, %115 ]
  %117 = load ptr, ptr %116, align 8, !tbaa !6
  %118 = icmp eq ptr %117, null
  br i1 %118, label %119, label %115, !llvm.loop !56

119:                                              ; preds = %115
  store ptr %107, ptr %116, align 8, !tbaa !6
  store ptr %106, ptr %99, align 8, !tbaa !54
  br label %120

120:                                              ; preds = %119, %102
  %121 = getelementptr inbounds %struct.dw_fde_struct, ptr %79, i64 0, i32 8
  br label %122

122:                                              ; preds = %71, %120, %13, %69
  %123 = phi ptr [ @cie_cfi_head, %71 ], [ %121, %120 ], [ @cie_cfi_head, %13 ], [ %70, %69 ]
  br label %124

124:                                              ; preds = %122, %124
  %125 = phi ptr [ %126, %124 ], [ %123, %122 ]
  %126 = load ptr, ptr %125, align 8, !tbaa !6
  %127 = icmp eq ptr %126, null
  br i1 %127, label %128, label %124, !llvm.loop !56

128:                                              ; preds = %124
  store ptr %1, ptr %125, align 8, !tbaa !6
  ret void
}

; Function Attrs: mustprogress nocallback nofree nounwind willreturn memory(argmem: write)
declare void @llvm.memset.p0.i64(ptr nocapture writeonly, i8, i64, i1 immarg) #12

; Function Attrs: nounwind sspstrong uwtable
define internal fastcc void @lookup_cfa_1(ptr nocapture noundef readonly %0, ptr nocapture noundef %1, ptr nocapture noundef %2) unnamed_addr #10 {
  %4 = getelementptr inbounds %struct.dw_cfi_struct, ptr %0, i64 0, i32 1
  %5 = load i32, ptr %4, align 8, !tbaa !48
  switch i32 %5, label %80 [
    i32 14, label %6
    i32 19, label %6
    i32 13, label %9
    i32 12, label %13
    i32 18, label %13
    i32 15, label %19
    i32 10, label %62
    i32 11, label %71
  ]

6:                                                ; preds = %3, %3
  %7 = getelementptr inbounds %struct.dw_cfi_struct, ptr %0, i64 0, i32 2
  %8 = load i64, ptr %7, align 8, !tbaa !17
  store i64 %8, ptr %1, align 8, !tbaa !42
  br label %80

9:                                                ; preds = %3
  %10 = getelementptr inbounds %struct.dw_cfi_struct, ptr %0, i64 0, i32 2
  %11 = load i32, ptr %10, align 8, !tbaa !17
  %12 = getelementptr inbounds %struct.cfa_loc, ptr %1, i64 0, i32 2
  store i32 %11, ptr %12, align 8, !tbaa !41
  br label %80

13:                                               ; preds = %3, %3
  %14 = getelementptr inbounds %struct.dw_cfi_struct, ptr %0, i64 0, i32 2
  %15 = load i32, ptr %14, align 8, !tbaa !17
  %16 = getelementptr inbounds %struct.cfa_loc, ptr %1, i64 0, i32 2
  store i32 %15, ptr %16, align 8, !tbaa !41
  %17 = getelementptr inbounds %struct.dw_cfi_struct, ptr %0, i64 0, i32 3
  %18 = load i64, ptr %17, align 8, !tbaa !17
  store i64 %18, ptr %1, align 8, !tbaa !42
  br label %80

19:                                               ; preds = %3
  %20 = getelementptr inbounds %struct.dw_cfi_struct, ptr %0, i64 0, i32 2
  %21 = load ptr, ptr %20, align 8, !tbaa !17
  %22 = getelementptr inbounds %struct.cfa_loc, ptr %1, i64 0, i32 1
  %23 = getelementptr inbounds %struct.cfa_loc, ptr %1, i64 0, i32 3
  tail call void @llvm.memset.p0.i64(ptr noundef nonnull align 8 dereferenceable(16) %1, i8 0, i64 16, i1 false)
  %24 = load i8, ptr %23, align 4
  %25 = and i8 %24, -2
  store i8 %25, ptr %23, align 4
  %26 = getelementptr inbounds %struct.cfa_loc, ptr %1, i64 0, i32 2
  store i32 -1, ptr %26, align 8, !tbaa !41
  %27 = icmp eq ptr %21, null
  br i1 %27, label %80, label %28

28:                                               ; preds = %19, %59
  %29 = phi ptr [ %60, %59 ], [ %21, %19 ]
  %30 = getelementptr inbounds %struct.dw_loc_descr_struct, ptr %29, i64 0, i32 1
  %31 = load i16, ptr %30, align 8
  %32 = and i16 %31, 255
  %33 = zext i16 %32 to i32
  %34 = trunc i16 %31 to i8
  switch i8 %34, label %57 [
    i8 80, label %35
    i8 81, label %35
    i8 82, label %35
    i8 83, label %35
    i8 84, label %35
    i8 85, label %35
    i8 86, label %35
    i8 87, label %35
    i8 88, label %35
    i8 89, label %35
    i8 90, label %35
    i8 91, label %35
    i8 92, label %35
    i8 93, label %35
    i8 94, label %35
    i8 95, label %35
    i8 96, label %35
    i8 97, label %35
    i8 98, label %35
    i8 99, label %35
    i8 100, label %35
    i8 101, label %35
    i8 102, label %35
    i8 103, label %35
    i8 104, label %35
    i8 105, label %35
    i8 106, label %35
    i8 107, label %35
    i8 108, label %35
    i8 109, label %35
    i8 110, label %35
    i8 111, label %35
    i8 -112, label %37
    i8 112, label %41
    i8 113, label %41
    i8 114, label %41
    i8 115, label %41
    i8 116, label %41
    i8 117, label %41
    i8 118, label %41
    i8 119, label %41
    i8 120, label %41
    i8 121, label %41
    i8 122, label %41
    i8 123, label %41
    i8 124, label %41
    i8 125, label %41
    i8 126, label %41
    i8 127, label %41
    i8 -128, label %41
    i8 -127, label %41
    i8 -126, label %41
    i8 -125, label %41
    i8 -124, label %41
    i8 -123, label %41
    i8 -122, label %41
    i8 -121, label %41
    i8 -120, label %41
    i8 -119, label %41
    i8 -118, label %41
    i8 -117, label %41
    i8 -116, label %41
    i8 -115, label %41
    i8 -114, label %41
    i8 -113, label %41
    i8 -110, label %45
    i8 6, label %51
    i8 35, label %54
  ]

35:                                               ; preds = %28, %28, %28, %28, %28, %28, %28, %28, %28, %28, %28, %28, %28, %28, %28, %28, %28, %28, %28, %28, %28, %28, %28, %28, %28, %28, %28, %28, %28, %28, %28, %28
  %36 = add nsw i32 %33, -80
  store i32 %36, ptr %26, align 8, !tbaa !41
  br label %59

37:                                               ; preds = %28
  %38 = getelementptr inbounds %struct.dw_loc_descr_struct, ptr %29, i64 0, i32 3, i32 1
  %39 = load i64, ptr %38, align 8, !tbaa !17
  %40 = trunc i64 %39 to i32
  store i32 %40, ptr %26, align 8, !tbaa !41
  br label %59

41:                                               ; preds = %28, %28, %28, %28, %28, %28, %28, %28, %28, %28, %28, %28, %28, %28, %28, %28, %28, %28, %28, %28, %28, %28, %28, %28, %28, %28, %28, %28, %28, %28, %28, %28
  %42 = add nsw i32 %33, -112
  store i32 %42, ptr %26, align 8, !tbaa !41
  %43 = getelementptr inbounds %struct.dw_loc_descr_struct, ptr %29, i64 0, i32 3, i32 1
  %44 = load i64, ptr %43, align 8, !tbaa !17
  store i64 %44, ptr %22, align 8, !tbaa !39
  br label %59

45:                                               ; preds = %28
  %46 = getelementptr inbounds %struct.dw_loc_descr_struct, ptr %29, i64 0, i32 3, i32 1
  %47 = load i64, ptr %46, align 8, !tbaa !17
  %48 = trunc i64 %47 to i32
  store i32 %48, ptr %26, align 8, !tbaa !41
  %49 = getelementptr inbounds %struct.dw_loc_descr_struct, ptr %29, i64 0, i32 4, i32 1
  %50 = load i64, ptr %49, align 8, !tbaa !17
  store i64 %50, ptr %22, align 8, !tbaa !39
  br label %59

51:                                               ; preds = %28
  %52 = load i8, ptr %23, align 4
  %53 = or i8 %52, 1
  store i8 %53, ptr %23, align 4
  br label %59

54:                                               ; preds = %28
  %55 = getelementptr inbounds %struct.dw_loc_descr_struct, ptr %29, i64 0, i32 3, i32 1
  %56 = load i64, ptr %55, align 8, !tbaa !17
  store i64 %56, ptr %1, align 8, !tbaa !42
  br label %59

57:                                               ; preds = %28
  %58 = tail call fastcc ptr @dwarf_stack_op_name(i32 noundef %33)
  tail call void (ptr, ...) @internal_error(ptr noundef nonnull @.str.6, ptr noundef nonnull %58) #31
  br label %59

59:                                               ; preds = %57, %54, %51, %45, %41, %37, %35
  %60 = load ptr, ptr %29, align 8, !tbaa !57
  %61 = icmp eq ptr %60, null
  br i1 %61, label %80, label %28, !llvm.loop !58

62:                                               ; preds = %3
  %63 = getelementptr inbounds %struct.cfa_loc, ptr %2, i64 0, i32 3
  %64 = load i8, ptr %63, align 4
  %65 = and i8 %64, 2
  %66 = icmp eq i8 %65, 0
  br i1 %66, label %68, label %67

67:                                               ; preds = %62
  tail call void @fancy_abort(ptr noundef nonnull @.str.4, i32 noundef 939, ptr noundef nonnull @.str.5) #31
  br label %68

68:                                               ; preds = %62, %67
  tail call void @llvm.memcpy.p0.p0.i64(ptr noundef nonnull align 8 dereferenceable(24) %2, ptr noundef nonnull align 8 dereferenceable(24) %1, i64 24, i1 false), !tbaa.struct !43
  %69 = load i8, ptr %63, align 4
  %70 = or i8 %69, 2
  store i8 %70, ptr %63, align 4
  br label %80

71:                                               ; preds = %3
  %72 = getelementptr inbounds %struct.cfa_loc, ptr %2, i64 0, i32 3
  %73 = load i8, ptr %72, align 4
  %74 = and i8 %73, 2
  %75 = icmp eq i8 %74, 0
  br i1 %75, label %76, label %77

76:                                               ; preds = %71
  tail call void @fancy_abort(ptr noundef nonnull @.str.4, i32 noundef 944, ptr noundef nonnull @.str.5) #31
  br label %77

77:                                               ; preds = %71, %76
  tail call void @llvm.memcpy.p0.p0.i64(ptr noundef nonnull align 8 dereferenceable(24) %1, ptr noundef nonnull align 8 dereferenceable(24) %2, i64 24, i1 false), !tbaa.struct !43
  %78 = load i8, ptr %72, align 4
  %79 = and i8 %78, -3
  store i8 %79, ptr %72, align 4
  br label %80

80:                                               ; preds = %59, %19, %3, %77, %68, %13, %9, %6
  ret void
}

declare void @fancy_abort(ptr noundef, i32 noundef, ptr noundef) local_unnamed_addr #3

declare void @internal_error(ptr noundef, ...) local_unnamed_addr #3

; Function Attrs: mustprogress nofree norecurse nosync nounwind sspstrong willreturn memory(none) uwtable
define internal fastcc nonnull ptr @dwarf_stack_op_name(i32 noundef %0) unnamed_addr #13 {
  %2 = add i32 %0, -3
  %3 = icmp ult i32 %2, 239
  br i1 %3, label %4, label %8

4:                                                ; preds = %1
  %5 = sext i32 %2 to i64
  %6 = shl i64 %5, 2
  %7 = call ptr @llvm.load.relative.i64(ptr @reltable.dwarf_stack_op_name, i64 %6)
  br label %8

8:                                                ; preds = %1, %4
  %9 = phi ptr [ %7, %4 ], [ @.str.164, %1 ]
  ret ptr %9
}

declare ptr @ggc_alloc_stat(i64 noundef) local_unnamed_addr #3

declare ptr @ggc_alloc_cleared_stat(i64 noundef) local_unnamed_addr #3

; Function Attrs: mustprogress nofree nounwind willreturn memory(argmem: read)
declare i32 @strcmp(ptr nocapture noundef, ptr nocapture noundef) local_unnamed_addr #14

declare ptr @xstrdup(ptr noundef) local_unnamed_addr #3

; Function Attrs: nounwind sspstrong uwtable
define internal fastcc void @output_cfi_directive(ptr nocapture noundef readonly %0) unnamed_addr #10 {
  %2 = getelementptr inbounds %struct.dw_cfi_struct, ptr %0, i64 0, i32 1
  %3 = load i32, ptr %2, align 8, !tbaa !48
  switch i32 %3, label %197 [
    i32 64, label %4
    i32 2, label %4
    i32 3, label %4
    i32 4, label %4
    i32 29, label %4
    i32 1, label %4
    i32 128, label %5
    i32 5, label %5
    i32 17, label %5
    i32 192, label %13
    i32 6, label %13
    i32 7, label %19
    i32 8, label %25
    i32 12, label %31
    i32 18, label %31
    i32 13, label %39
    i32 9, label %45
    i32 14, label %54
    i32 19, label %54
    i32 10, label %59
    i32 11, label %62
    i32 46, label %65
    i32 45, label %79
    i32 15, label %82
    i32 16, label %82
  ]

4:                                                ; preds = %1, %1, %1, %1, %1, %1
  tail call void @fancy_abort(ptr noundef nonnull @.str.4, i32 noundef 3198, ptr noundef nonnull @.str.5) #31
  br label %5

5:                                                ; preds = %1, %1, %1, %4
  %6 = getelementptr inbounds %struct.dw_cfi_struct, ptr %0, i64 0, i32 2
  %7 = load i32, ptr %6, align 8, !tbaa !17
  %8 = zext i32 %7 to i64
  %9 = load ptr, ptr @asm_out_file, align 8, !tbaa !6
  %10 = getelementptr inbounds %struct.dw_cfi_struct, ptr %0, i64 0, i32 3
  %11 = load i64, ptr %10, align 8, !tbaa !17
  %12 = tail call i32 (ptr, ptr, ...) @fprintf(ptr noundef %9, ptr noundef nonnull @.str.165, i64 noundef %8, i64 noundef %11)
  br label %198

13:                                               ; preds = %1, %1
  %14 = getelementptr inbounds %struct.dw_cfi_struct, ptr %0, i64 0, i32 2
  %15 = load i32, ptr %14, align 8, !tbaa !17
  %16 = zext i32 %15 to i64
  %17 = load ptr, ptr @asm_out_file, align 8, !tbaa !6
  %18 = tail call i32 (ptr, ptr, ...) @fprintf(ptr noundef %17, ptr noundef nonnull @.str.166, i64 noundef %16)
  br label %198

19:                                               ; preds = %1
  %20 = getelementptr inbounds %struct.dw_cfi_struct, ptr %0, i64 0, i32 2
  %21 = load i32, ptr %20, align 8, !tbaa !17
  %22 = zext i32 %21 to i64
  %23 = load ptr, ptr @asm_out_file, align 8, !tbaa !6
  %24 = tail call i32 (ptr, ptr, ...) @fprintf(ptr noundef %23, ptr noundef nonnull @.str.167, i64 noundef %22)
  br label %198

25:                                               ; preds = %1
  %26 = getelementptr inbounds %struct.dw_cfi_struct, ptr %0, i64 0, i32 2
  %27 = load i32, ptr %26, align 8, !tbaa !17
  %28 = zext i32 %27 to i64
  %29 = load ptr, ptr @asm_out_file, align 8, !tbaa !6
  %30 = tail call i32 (ptr, ptr, ...) @fprintf(ptr noundef %29, ptr noundef nonnull @.str.168, i64 noundef %28)
  br label %198

31:                                               ; preds = %1, %1
  %32 = getelementptr inbounds %struct.dw_cfi_struct, ptr %0, i64 0, i32 2
  %33 = load i32, ptr %32, align 8, !tbaa !17
  %34 = zext i32 %33 to i64
  %35 = load ptr, ptr @asm_out_file, align 8, !tbaa !6
  %36 = getelementptr inbounds %struct.dw_cfi_struct, ptr %0, i64 0, i32 3
  %37 = load i64, ptr %36, align 8, !tbaa !17
  %38 = tail call i32 (ptr, ptr, ...) @fprintf(ptr noundef %35, ptr noundef nonnull @.str.169, i64 noundef %34, i64 noundef %37)
  br label %198

39:                                               ; preds = %1
  %40 = getelementptr inbounds %struct.dw_cfi_struct, ptr %0, i64 0, i32 2
  %41 = load i32, ptr %40, align 8, !tbaa !17
  %42 = zext i32 %41 to i64
  %43 = load ptr, ptr @asm_out_file, align 8, !tbaa !6
  %44 = tail call i32 (ptr, ptr, ...) @fprintf(ptr noundef %43, ptr noundef nonnull @.str.170, i64 noundef %42)
  br label %198

45:                                               ; preds = %1
  %46 = getelementptr inbounds %struct.dw_cfi_struct, ptr %0, i64 0, i32 2
  %47 = load i32, ptr %46, align 8, !tbaa !17
  %48 = zext i32 %47 to i64
  %49 = getelementptr inbounds %struct.dw_cfi_struct, ptr %0, i64 0, i32 3
  %50 = load i32, ptr %49, align 8, !tbaa !17
  %51 = zext i32 %50 to i64
  %52 = load ptr, ptr @asm_out_file, align 8, !tbaa !6
  %53 = tail call i32 (ptr, ptr, ...) @fprintf(ptr noundef %52, ptr noundef nonnull @.str.171, i64 noundef %48, i64 noundef %51)
  br label %198

54:                                               ; preds = %1, %1
  %55 = load ptr, ptr @asm_out_file, align 8, !tbaa !6
  %56 = getelementptr inbounds %struct.dw_cfi_struct, ptr %0, i64 0, i32 2
  %57 = load i64, ptr %56, align 8, !tbaa !17
  %58 = tail call i32 (ptr, ptr, ...) @fprintf(ptr noundef %55, ptr noundef nonnull @.str.172, i64 noundef %57)
  br label %198

59:                                               ; preds = %1
  %60 = load ptr, ptr @asm_out_file, align 8, !tbaa !6
  %61 = tail call i64 @fwrite(ptr nonnull @.str.173, i64 21, i64 1, ptr %60)
  br label %198

62:                                               ; preds = %1
  %63 = load ptr, ptr @asm_out_file, align 8, !tbaa !6
  %64 = tail call i64 @fwrite(ptr nonnull @.str.174, i64 20, i64 1, ptr %63)
  br label %198

65:                                               ; preds = %1
  %66 = load ptr, ptr @asm_out_file, align 8, !tbaa !6
  %67 = tail call i32 (ptr, ptr, ...) @fprintf(ptr noundef %66, ptr noundef nonnull @.str.175, i32 noundef 46)
  %68 = getelementptr inbounds %struct.dw_cfi_struct, ptr %0, i64 0, i32 2
  %69 = load i64, ptr %68, align 8, !tbaa !17
  tail call void @dw2_asm_output_data_uleb128_raw(i64 noundef %69) #31
  %70 = load i32, ptr @flag_debug_asm, align 4, !tbaa !21
  %71 = icmp eq i32 %70, 0
  br i1 %71, label %76, label %72

72:                                               ; preds = %65
  %73 = load ptr, ptr @asm_out_file, align 8, !tbaa !6
  %74 = load i64, ptr %68, align 8, !tbaa !17
  %75 = tail call i32 (ptr, ptr, ...) @fprintf(ptr noundef %73, ptr noundef nonnull @.str.176, ptr noundef nonnull @.str.177, i64 noundef %74)
  br label %76

76:                                               ; preds = %72, %65
  %77 = load ptr, ptr @asm_out_file, align 8, !tbaa !6
  %78 = tail call i32 @fputc(i32 noundef 10, ptr noundef %77)
  br label %198

79:                                               ; preds = %1
  %80 = load ptr, ptr @asm_out_file, align 8, !tbaa !6
  %81 = tail call i64 @fwrite(ptr nonnull @.str.178, i64 18, i64 1, ptr %80)
  br label %198

82:                                               ; preds = %1, %1
  %83 = load ptr, ptr @asm_out_file, align 8, !tbaa !6
  %84 = tail call i32 (ptr, ptr, ...) @fprintf(ptr noundef %83, ptr noundef nonnull @.str.175, i32 noundef %3)
  %85 = load i32, ptr %2, align 8, !tbaa !48
  %86 = icmp eq i32 %85, 16
  br i1 %86, label %87, label %93

87:                                               ; preds = %82
  %88 = load ptr, ptr @asm_out_file, align 8, !tbaa !6
  %89 = getelementptr inbounds %struct.dw_cfi_struct, ptr %0, i64 0, i32 2
  %90 = load i32, ptr %89, align 8, !tbaa !17
  %91 = tail call i32 (ptr, ptr, ...) @fprintf(ptr noundef %88, ptr noundef nonnull @.str.179, i32 noundef %90)
  %92 = getelementptr inbounds %struct.dw_cfi_struct, ptr %0, i64 0, i32 3
  br label %95

93:                                               ; preds = %82
  %94 = getelementptr inbounds %struct.dw_cfi_struct, ptr %0, i64 0, i32 2
  br label %95

95:                                               ; preds = %93, %87
  %96 = phi ptr [ %92, %87 ], [ %94, %93 ]
  %97 = load ptr, ptr %96, align 8, !tbaa !17
  %98 = icmp eq ptr %97, null
  br i1 %98, label %120, label %99

99:                                               ; preds = %95, %106
  %100 = phi i64 [ %108, %106 ], [ 0, %95 ]
  %101 = phi ptr [ %109, %106 ], [ %97, %95 ]
  %102 = getelementptr inbounds %struct.dw_loc_descr_struct, ptr %101, i64 0, i32 1
  %103 = load i16, ptr %102, align 8
  %104 = trunc i16 %103 to i8
  switch i8 %104, label %106 [
    i8 47, label %105
    i8 40, label %105
  ]

105:                                              ; preds = %99, %99
  br label %111

106:                                              ; preds = %99
  %107 = tail call fastcc i64 @size_of_loc_descr(ptr noundef nonnull %101)
  %108 = add i64 %107, %100
  %109 = load ptr, ptr %101, align 8, !tbaa !57
  %110 = icmp eq ptr %109, null
  br i1 %110, label %120, label %99, !llvm.loop !59

111:                                              ; preds = %105, %111
  %112 = phi i64 [ %117, %111 ], [ 0, %105 ]
  %113 = phi ptr [ %118, %111 ], [ %97, %105 ]
  %114 = trunc i64 %112 to i32
  %115 = getelementptr inbounds %struct.dw_loc_descr_struct, ptr %113, i64 0, i32 2
  store i32 %114, ptr %115, align 4, !tbaa !60
  %116 = tail call fastcc i64 @size_of_loc_descr(ptr noundef nonnull %113)
  %117 = add i64 %116, %112
  %118 = load ptr, ptr %113, align 8, !tbaa !57
  %119 = icmp eq ptr %118, null
  br i1 %119, label %120, label %111, !llvm.loop !61

120:                                              ; preds = %106, %111, %95
  %121 = phi i64 [ 0, %95 ], [ %117, %111 ], [ %108, %106 ]
  tail call void @dw2_asm_output_data_uleb128_raw(i64 noundef %121) #31
  br label %122

122:                                              ; preds = %191, %120
  %123 = phi ptr [ %97, %120 ], [ %192, %191 ]
  %124 = load ptr, ptr @asm_out_file, align 8, !tbaa !6
  %125 = tail call i32 @fputc(i32 noundef 44, ptr noundef %124)
  %126 = load ptr, ptr @asm_out_file, align 8, !tbaa !6
  %127 = getelementptr inbounds %struct.dw_loc_descr_struct, ptr %123, i64 0, i32 1
  %128 = load i16, ptr %127, align 8
  %129 = and i16 %128, 255
  %130 = zext i16 %129 to i32
  %131 = tail call i32 (ptr, ptr, ...) @fprintf(ptr noundef %126, ptr noundef nonnull @.str.180, i32 noundef %130)
  %132 = load i16, ptr %127, align 8
  %133 = trunc i16 %132 to i8
  switch i8 %133, label %191 [
    i8 3, label %134
    i8 -98, label %134
    i8 8, label %135
    i8 9, label %135
    i8 21, label %135
    i8 -108, label %135
    i8 -107, label %135
    i8 10, label %140
    i8 11, label %140
    i8 12, label %145
    i8 13, label %145
    i8 14, label %150
    i8 15, label %150
    i8 47, label %155
    i8 40, label %155
    i8 16, label %172
    i8 35, label %172
    i8 -112, label %172
    i8 -109, label %172
    i8 17, label %177
    i8 112, label %177
    i8 113, label %177
    i8 114, label %177
    i8 115, label %177
    i8 116, label %177
    i8 117, label %177
    i8 118, label %177
    i8 119, label %177
    i8 120, label %177
    i8 121, label %177
    i8 122, label %177
    i8 123, label %177
    i8 124, label %177
    i8 125, label %177
    i8 126, label %177
    i8 127, label %177
    i8 -128, label %177
    i8 -127, label %177
    i8 -126, label %177
    i8 -125, label %177
    i8 -124, label %177
    i8 -123, label %177
    i8 -122, label %177
    i8 -121, label %177
    i8 -120, label %177
    i8 -119, label %177
    i8 -118, label %177
    i8 -117, label %177
    i8 -116, label %177
    i8 -115, label %177
    i8 -114, label %177
    i8 -113, label %177
    i8 -111, label %177
    i8 -110, label %182
  ]

134:                                              ; preds = %122, %122
  tail call void @fancy_abort(ptr noundef nonnull @.str.4, i32 noundef 5073, ptr noundef nonnull @.str.5) #31
  br label %135

135:                                              ; preds = %134, %122, %122, %122, %122, %122
  %136 = load ptr, ptr @asm_out_file, align 8, !tbaa !6
  %137 = tail call i32 @fputc(i32 noundef 44, ptr noundef %136)
  %138 = getelementptr inbounds %struct.dw_loc_descr_struct, ptr %123, i64 0, i32 3, i32 1
  %139 = load i64, ptr %138, align 8, !tbaa !17
  tail call void @dw2_asm_output_data_raw(i32 noundef 1, i64 noundef %139) #31
  br label %191

140:                                              ; preds = %122, %122
  %141 = load ptr, ptr @asm_out_file, align 8, !tbaa !6
  %142 = tail call i32 @fputc(i32 noundef 44, ptr noundef %141)
  %143 = getelementptr inbounds %struct.dw_loc_descr_struct, ptr %123, i64 0, i32 3, i32 1
  %144 = load i64, ptr %143, align 8, !tbaa !17
  tail call void @dw2_asm_output_data_raw(i32 noundef 2, i64 noundef %144) #31
  br label %191

145:                                              ; preds = %122, %122
  %146 = load ptr, ptr @asm_out_file, align 8, !tbaa !6
  %147 = tail call i32 @fputc(i32 noundef 44, ptr noundef %146)
  %148 = getelementptr inbounds %struct.dw_loc_descr_struct, ptr %123, i64 0, i32 3, i32 1
  %149 = load i64, ptr %148, align 8, !tbaa !17
  tail call void @dw2_asm_output_data_raw(i32 noundef 4, i64 noundef %149) #31
  br label %191

150:                                              ; preds = %122, %122
  %151 = load ptr, ptr @asm_out_file, align 8, !tbaa !6
  %152 = tail call i32 @fputc(i32 noundef 44, ptr noundef %151)
  %153 = getelementptr inbounds %struct.dw_loc_descr_struct, ptr %123, i64 0, i32 3, i32 1
  %154 = load i64, ptr %153, align 8, !tbaa !17
  tail call void @dw2_asm_output_data_raw(i32 noundef 8, i64 noundef %154) #31
  br label %191

155:                                              ; preds = %122, %122
  %156 = getelementptr inbounds %struct.dw_loc_descr_struct, ptr %123, i64 0, i32 3
  %157 = load i32, ptr %156, align 8, !tbaa !62
  %158 = icmp eq i32 %157, 2
  br i1 %158, label %160, label %159

159:                                              ; preds = %155
  tail call void @fancy_abort(ptr noundef nonnull @.str.4, i32 noundef 5108, ptr noundef nonnull @.str.5) #31
  br label %160

160:                                              ; preds = %159, %155
  %161 = getelementptr inbounds %struct.dw_loc_descr_struct, ptr %123, i64 0, i32 3, i32 1
  %162 = load ptr, ptr %161, align 8, !tbaa !17
  %163 = getelementptr inbounds %struct.dw_loc_descr_struct, ptr %162, i64 0, i32 2
  %164 = load i32, ptr %163, align 4, !tbaa !60
  %165 = getelementptr inbounds %struct.dw_loc_descr_struct, ptr %123, i64 0, i32 2
  %166 = load i32, ptr %165, align 4, !tbaa !60
  %167 = add i32 %164, -3
  %168 = sub i32 %167, %166
  %169 = load ptr, ptr @asm_out_file, align 8, !tbaa !6
  %170 = tail call i32 @fputc(i32 noundef 44, ptr noundef %169)
  %171 = sext i32 %168 to i64
  tail call void @dw2_asm_output_data_raw(i32 noundef 2, i64 noundef %171) #31
  br label %191

172:                                              ; preds = %122, %122, %122, %122
  %173 = load ptr, ptr @asm_out_file, align 8, !tbaa !6
  %174 = tail call i32 @fputc(i32 noundef 44, ptr noundef %173)
  %175 = getelementptr inbounds %struct.dw_loc_descr_struct, ptr %123, i64 0, i32 3, i32 1
  %176 = load i64, ptr %175, align 8, !tbaa !17
  tail call void @dw2_asm_output_data_uleb128_raw(i64 noundef %176) #31
  br label %191

177:                                              ; preds = %122, %122, %122, %122, %122, %122, %122, %122, %122, %122, %122, %122, %122, %122, %122, %122, %122, %122, %122, %122, %122, %122, %122, %122, %122, %122, %122, %122, %122, %122, %122, %122, %122, %122
  %178 = load ptr, ptr @asm_out_file, align 8, !tbaa !6
  %179 = tail call i32 @fputc(i32 noundef 44, ptr noundef %178)
  %180 = getelementptr inbounds %struct.dw_loc_descr_struct, ptr %123, i64 0, i32 3, i32 1
  %181 = load i64, ptr %180, align 8, !tbaa !17
  tail call void @dw2_asm_output_data_sleb128_raw(i64 noundef %181) #31
  br label %191

182:                                              ; preds = %122
  %183 = load ptr, ptr @asm_out_file, align 8, !tbaa !6
  %184 = tail call i32 @fputc(i32 noundef 44, ptr noundef %183)
  %185 = getelementptr inbounds %struct.dw_loc_descr_struct, ptr %123, i64 0, i32 3, i32 1
  %186 = load i64, ptr %185, align 8, !tbaa !17
  tail call void @dw2_asm_output_data_uleb128_raw(i64 noundef %186) #31
  %187 = load ptr, ptr @asm_out_file, align 8, !tbaa !6
  %188 = tail call i32 @fputc(i32 noundef 44, ptr noundef %187)
  %189 = getelementptr inbounds %struct.dw_loc_descr_struct, ptr %123, i64 0, i32 4, i32 1
  %190 = load i64, ptr %189, align 8, !tbaa !17
  tail call void @dw2_asm_output_data_sleb128_raw(i64 noundef %190) #31
  br label %191

191:                                              ; preds = %182, %177, %172, %160, %150, %145, %140, %135, %122
  %192 = load ptr, ptr %123, align 8, !tbaa !57
  %193 = icmp eq ptr %192, null
  br i1 %193, label %194, label %122

194:                                              ; preds = %191
  %195 = load ptr, ptr @asm_out_file, align 8, !tbaa !6
  %196 = tail call i32 @fputc(i32 noundef 10, ptr noundef %195)
  br label %198

197:                                              ; preds = %1
  tail call void @fancy_abort(ptr noundef nonnull @.str.4, i32 noundef 3277, ptr noundef nonnull @.str.5) #31
  br label %198

198:                                              ; preds = %197, %194, %79, %76, %62, %59, %54, %45, %39, %31, %25, %19, %13, %5
  ret void
}

; Function Attrs: nofree nounwind
declare noundef i32 @fprintf(ptr nocapture noundef, ptr nocapture noundef readonly, ...) local_unnamed_addr #1

declare void @dw2_asm_output_data_uleb128_raw(i64 noundef) local_unnamed_addr #3

; Function Attrs: nofree nounwind
declare noundef i32 @fputc(i32 noundef, ptr nocapture noundef) local_unnamed_addr #1

; Function Attrs: nounwind sspstrong uwtable
define internal fastcc i64 @size_of_loc_descr(ptr nocapture noundef readonly %0) unnamed_addr #10 {
  %2 = getelementptr inbounds %struct.dw_loc_descr_struct, ptr %0, i64 0, i32 1
  %3 = load i16, ptr %2, align 8
  %4 = trunc i16 %3 to i8
  switch i8 %4, label %77 [
    i8 3, label %5
    i8 8, label %6
    i8 9, label %6
    i8 10, label %7
    i8 11, label %7
    i8 12, label %8
    i8 13, label %8
    i8 14, label %9
    i8 15, label %9
    i8 16, label %10
    i8 17, label %16
    i8 21, label %22
    i8 35, label %23
    i8 47, label %29
    i8 40, label %29
    i8 112, label %30
    i8 113, label %30
    i8 114, label %30
    i8 115, label %30
    i8 116, label %30
    i8 117, label %30
    i8 118, label %30
    i8 119, label %30
    i8 120, label %30
    i8 121, label %30
    i8 122, label %30
    i8 123, label %30
    i8 124, label %30
    i8 125, label %30
    i8 126, label %30
    i8 127, label %30
    i8 -128, label %30
    i8 -127, label %30
    i8 -126, label %30
    i8 -125, label %30
    i8 -124, label %30
    i8 -123, label %30
    i8 -122, label %30
    i8 -121, label %30
    i8 -120, label %30
    i8 -119, label %30
    i8 -118, label %30
    i8 -117, label %30
    i8 -116, label %30
    i8 -115, label %30
    i8 -114, label %30
    i8 -113, label %30
    i8 -112, label %36
    i8 -111, label %42
    i8 -110, label %48
    i8 -109, label %59
    i8 -108, label %65
    i8 -107, label %65
    i8 -104, label %66
    i8 -103, label %67
    i8 -102, label %68
    i8 -98, label %69
  ]

5:                                                ; preds = %1
  br label %77

6:                                                ; preds = %1, %1
  br label %77

7:                                                ; preds = %1, %1
  br label %77

8:                                                ; preds = %1, %1
  br label %77

9:                                                ; preds = %1, %1
  br label %77

10:                                               ; preds = %1
  %11 = getelementptr inbounds %struct.dw_loc_descr_struct, ptr %0, i64 0, i32 3, i32 1
  %12 = load i64, ptr %11, align 8, !tbaa !17
  %13 = tail call i32 @size_of_uleb128(i64 noundef %12) #31
  %14 = sext i32 %13 to i64
  %15 = add nsw i64 %14, 1
  br label %77

16:                                               ; preds = %1
  %17 = getelementptr inbounds %struct.dw_loc_descr_struct, ptr %0, i64 0, i32 3, i32 1
  %18 = load i64, ptr %17, align 8, !tbaa !17
  %19 = tail call i32 @size_of_sleb128(i64 noundef %18) #31
  %20 = sext i32 %19 to i64
  %21 = add nsw i64 %20, 1
  br label %77

22:                                               ; preds = %1
  br label %77

23:                                               ; preds = %1
  %24 = getelementptr inbounds %struct.dw_loc_descr_struct, ptr %0, i64 0, i32 3, i32 1
  %25 = load i64, ptr %24, align 8, !tbaa !17
  %26 = tail call i32 @size_of_uleb128(i64 noundef %25) #31
  %27 = sext i32 %26 to i64
  %28 = add nsw i64 %27, 1
  br label %77

29:                                               ; preds = %1, %1
  br label %77

30:                                               ; preds = %1, %1, %1, %1, %1, %1, %1, %1, %1, %1, %1, %1, %1, %1, %1, %1, %1, %1, %1, %1, %1, %1, %1, %1, %1, %1, %1, %1, %1, %1, %1, %1
  %31 = getelementptr inbounds %struct.dw_loc_descr_struct, ptr %0, i64 0, i32 3, i32 1
  %32 = load i64, ptr %31, align 8, !tbaa !17
  %33 = tail call i32 @size_of_sleb128(i64 noundef %32) #31
  %34 = sext i32 %33 to i64
  %35 = add nsw i64 %34, 1
  br label %77

36:                                               ; preds = %1
  %37 = getelementptr inbounds %struct.dw_loc_descr_struct, ptr %0, i64 0, i32 3, i32 1
  %38 = load i64, ptr %37, align 8, !tbaa !17
  %39 = tail call i32 @size_of_uleb128(i64 noundef %38) #31
  %40 = sext i32 %39 to i64
  %41 = add nsw i64 %40, 1
  br label %77

42:                                               ; preds = %1
  %43 = getelementptr inbounds %struct.dw_loc_descr_struct, ptr %0, i64 0, i32 3, i32 1
  %44 = load i64, ptr %43, align 8, !tbaa !17
  %45 = tail call i32 @size_of_sleb128(i64 noundef %44) #31
  %46 = sext i32 %45 to i64
  %47 = add nsw i64 %46, 1
  br label %77

48:                                               ; preds = %1
  %49 = getelementptr inbounds %struct.dw_loc_descr_struct, ptr %0, i64 0, i32 3, i32 1
  %50 = load i64, ptr %49, align 8, !tbaa !17
  %51 = tail call i32 @size_of_uleb128(i64 noundef %50) #31
  %52 = sext i32 %51 to i64
  %53 = add nsw i64 %52, 1
  %54 = getelementptr inbounds %struct.dw_loc_descr_struct, ptr %0, i64 0, i32 4, i32 1
  %55 = load i64, ptr %54, align 8, !tbaa !17
  %56 = tail call i32 @size_of_sleb128(i64 noundef %55) #31
  %57 = sext i32 %56 to i64
  %58 = add nsw i64 %53, %57
  br label %77

59:                                               ; preds = %1
  %60 = getelementptr inbounds %struct.dw_loc_descr_struct, ptr %0, i64 0, i32 3, i32 1
  %61 = load i64, ptr %60, align 8, !tbaa !17
  %62 = tail call i32 @size_of_uleb128(i64 noundef %61) #31
  %63 = sext i32 %62 to i64
  %64 = add nsw i64 %63, 1
  br label %77

65:                                               ; preds = %1, %1
  br label %77

66:                                               ; preds = %1
  br label %77

67:                                               ; preds = %1
  br label %77

68:                                               ; preds = %1
  br label %77

69:                                               ; preds = %1
  %70 = getelementptr inbounds %struct.dw_loc_descr_struct, ptr %0, i64 0, i32 3, i32 1
  %71 = load i64, ptr %70, align 8, !tbaa !17
  %72 = tail call i32 @size_of_uleb128(i64 noundef %71) #31
  %73 = sext i32 %72 to i64
  %74 = load i64, ptr %70, align 8, !tbaa !17
  %75 = add nsw i64 %73, 1
  %76 = add i64 %75, %74
  br label %77

77:                                               ; preds = %1, %69, %68, %67, %66, %65, %59, %48, %42, %36, %30, %29, %23, %22, %16, %10, %9, %8, %7, %6, %5
  %78 = phi i64 [ 1, %1 ], [ %76, %69 ], [ 5, %68 ], [ 5, %67 ], [ 3, %66 ], [ 2, %65 ], [ %64, %59 ], [ %58, %48 ], [ %47, %42 ], [ %41, %36 ], [ %35, %30 ], [ 3, %29 ], [ %28, %23 ], [ 2, %22 ], [ %21, %16 ], [ %15, %10 ], [ 9, %9 ], [ 5, %8 ], [ 3, %7 ], [ 2, %6 ], [ 5, %5 ]
  ret i64 %78
}

declare i32 @size_of_uleb128(i64 noundef) local_unnamed_addr #3

declare i32 @size_of_sleb128(i64 noundef) local_unnamed_addr #3

declare void @dw2_asm_output_data_raw(i32 noundef, i64 noundef) local_unnamed_addr #3

declare void @dw2_asm_output_data_sleb128_raw(i64 noundef) local_unnamed_addr #3

; Function Attrs: nounwind sspstrong uwtable
define dso_local void @dwarf2out_window_save(ptr noundef %0) local_unnamed_addr #10 {
  %2 = tail call ptr @ggc_alloc_stat(i64 noundef 32) #31
  store ptr null, ptr %2, align 8, !tbaa !46
  %3 = getelementptr inbounds %struct.dw_cfi_struct, ptr %2, i64 0, i32 2
  store i32 0, ptr %3, align 8, !tbaa !17
  %4 = getelementptr inbounds %struct.dw_cfi_struct, ptr %2, i64 0, i32 3
  store i32 0, ptr %4, align 8, !tbaa !17
  %5 = getelementptr inbounds %struct.dw_cfi_struct, ptr %2, i64 0, i32 1
  store i32 45, ptr %5, align 8, !tbaa !48
  tail call fastcc void @add_fde_cfi(ptr noundef %0, ptr noundef nonnull %2)
  ret void
}

; Function Attrs: nounwind sspstrong uwtable
define dso_local void @dwarf2out_reg_save(ptr noundef %0, i32 noundef %1, i64 noundef %2) local_unnamed_addr #10 {
  %4 = zext i32 %1 to i64
  %5 = getelementptr inbounds [53 x i32], ptr @svr4_dbx_register_map, i64 0, i64 %4
  %6 = load i32, ptr %5, align 4, !tbaa !21
  tail call fastcc void @reg_save(ptr noundef %0, i32 noundef %6, i32 noundef -1, i64 noundef %2)
  ret void
}

; Function Attrs: nounwind sspstrong uwtable
define internal fastcc void @reg_save(ptr noundef %0, i32 noundef %1, i32 noundef %2, i64 noundef %3) unnamed_addr #10 {
  %5 = alloca ptr, align 8
  %6 = tail call ptr @ggc_alloc_stat(i64 noundef 32) #31
  store ptr null, ptr %6, align 8, !tbaa !46
  %7 = getelementptr inbounds %struct.dw_cfi_struct, ptr %6, i64 0, i32 2
  %8 = getelementptr inbounds %struct.dw_cfi_struct, ptr %6, i64 0, i32 3
  store i32 0, ptr %8, align 8, !tbaa !17
  %9 = load i32, ptr @fde_table_in_use, align 4
  %10 = icmp eq i32 %9, 0
  %11 = load ptr, ptr @fde_table, align 8
  %12 = add i32 %9, -1
  %13 = zext i32 %12 to i64
  store i32 %1, ptr %7, align 8, !tbaa !17
  %14 = icmp eq ptr %11, null
  %15 = select i1 %10, i1 true, i1 %14
  br i1 %15, label %128, label %16

16:                                               ; preds = %4
  %17 = getelementptr inbounds %struct.dw_fde_struct, ptr %11, i64 %13, i32 14
  %18 = load i16, ptr %17, align 8
  %19 = and i16 %18, 8
  %20 = icmp ne i16 %19, 0
  %21 = icmp eq i32 %2, -1
  %22 = and i1 %21, %20
  br i1 %22, label %23, label %128

23:                                               ; preds = %16
  %24 = getelementptr inbounds %struct.dw_cfi_struct, ptr %6, i64 0, i32 1
  store i32 16, ptr %24, align 8, !tbaa !48
  store i32 %1, ptr %7, align 8, !tbaa !17
  %25 = getelementptr inbounds %struct.dw_fde_struct, ptr %11, i64 %13, i32 11
  %26 = load i64, ptr %25, align 8, !tbaa !63
  call void @llvm.lifetime.start.p0(i64 8, ptr nonnull %5) #31
  %27 = load i32, ptr getelementptr inbounds ([53 x i32], ptr @svr4_dbx_register_map, i64 0, i64 6), align 8, !tbaa !21
  %28 = load i32, ptr getelementptr inbounds (%struct.cfa_loc, ptr @cfa, i64 0, i32 2), align 8, !tbaa !41
  %29 = icmp eq i32 %28, 6
  br i1 %29, label %30, label %104

30:                                               ; preds = %23
  %31 = load i8, ptr getelementptr inbounds (%struct.cfa_loc, ptr @cfa, i64 0, i32 3), align 4
  %32 = and i8 %31, 1
  %33 = icmp eq i8 %32, 0
  br i1 %33, label %34, label %104

34:                                               ; preds = %30
  %35 = icmp ult i32 %27, 32
  br i1 %35, label %36, label %40

36:                                               ; preds = %34
  %37 = tail call ptr @ggc_alloc_cleared_stat(i64 noundef 64) #31
  %38 = trunc i32 %27 to i16
  %39 = add nuw nsw i16 %38, 112
  br label %43

40:                                               ; preds = %34
  %41 = zext i32 %27 to i64
  %42 = tail call ptr @ggc_alloc_cleared_stat(i64 noundef 64) #31
  br label %43

43:                                               ; preds = %40, %36
  %44 = phi i16 [ 146, %40 ], [ %39, %36 ]
  %45 = phi ptr [ %42, %40 ], [ %37, %36 ]
  %46 = phi i64 [ %41, %40 ], [ 0, %36 ]
  %47 = getelementptr inbounds %struct.dw_loc_descr_struct, ptr %45, i64 0, i32 1
  %48 = load i16, ptr %47, align 8
  %49 = and i16 %48, -256
  %50 = or i16 %49, %44
  store i16 %50, ptr %47, align 8
  %51 = getelementptr inbounds %struct.dw_loc_descr_struct, ptr %45, i64 0, i32 3
  store i32 6, ptr %51, align 8, !tbaa !52
  %52 = getelementptr inbounds %struct.dw_loc_descr_struct, ptr %45, i64 0, i32 3, i32 1
  store i64 %46, ptr %52, align 8, !tbaa !17
  %53 = getelementptr inbounds %struct.dw_loc_descr_struct, ptr %45, i64 0, i32 4
  store i32 6, ptr %53, align 8, !tbaa !49
  %54 = getelementptr inbounds %struct.dw_loc_descr_struct, ptr %45, i64 0, i32 4, i32 1
  store i64 0, ptr %54, align 8, !tbaa !17
  store ptr %45, ptr %5, align 8, !tbaa !6
  %55 = icmp sgt i64 %26, -1
  br i1 %55, label %56, label %68

56:                                               ; preds = %43
  %57 = icmp ult i64 %26, 32
  br i1 %57, label %58, label %61

58:                                               ; preds = %56
  %59 = trunc i64 %26 to i16
  %60 = add nuw nsw i16 %59, 48
  br label %73

61:                                               ; preds = %56
  %62 = icmp ult i64 %26, 256
  br i1 %62, label %73, label %63

63:                                               ; preds = %61
  %64 = icmp ult i64 %26, 65536
  br i1 %64, label %73, label %65

65:                                               ; preds = %63
  %66 = icmp ult i64 %26, 4294967296
  %67 = select i1 %66, i16 12, i16 16
  br label %73

68:                                               ; preds = %43
  %69 = icmp ugt i64 %26, -129
  br i1 %69, label %73, label %70

70:                                               ; preds = %68
  %71 = icmp ugt i64 %26, -32769
  %72 = select i1 %71, i16 11, i16 17
  br label %73

73:                                               ; preds = %70, %68, %65, %63, %61, %58
  %74 = phi i16 [ %60, %58 ], [ 8, %61 ], [ 10, %63 ], [ %67, %65 ], [ 9, %68 ], [ %72, %70 ]
  %75 = tail call ptr @ggc_alloc_cleared_stat(i64 noundef 64) #31
  %76 = getelementptr inbounds %struct.dw_loc_descr_struct, ptr %75, i64 0, i32 1
  %77 = load i16, ptr %76, align 8
  %78 = and i16 %77, -256
  %79 = or i16 %78, %74
  store i16 %79, ptr %76, align 8
  %80 = getelementptr inbounds %struct.dw_loc_descr_struct, ptr %75, i64 0, i32 3
  store i32 6, ptr %80, align 8, !tbaa !52
  %81 = getelementptr inbounds %struct.dw_loc_descr_struct, ptr %75, i64 0, i32 3, i32 1
  store i64 %26, ptr %81, align 8, !tbaa !17
  %82 = getelementptr inbounds %struct.dw_loc_descr_struct, ptr %75, i64 0, i32 4
  store i32 6, ptr %82, align 8, !tbaa !49
  %83 = getelementptr inbounds %struct.dw_loc_descr_struct, ptr %75, i64 0, i32 4, i32 1
  store i64 0, ptr %83, align 8, !tbaa !17
  br label %84

84:                                               ; preds = %84, %73
  %85 = phi ptr [ %5, %73 ], [ %86, %84 ]
  %86 = load ptr, ptr %85, align 8, !tbaa !6
  %87 = icmp eq ptr %86, null
  br i1 %87, label %88, label %84, !llvm.loop !53

88:                                               ; preds = %84
  store ptr %75, ptr %85, align 8, !tbaa !6
  %89 = tail call ptr @ggc_alloc_cleared_stat(i64 noundef 64) #31
  %90 = getelementptr inbounds %struct.dw_loc_descr_struct, ptr %89, i64 0, i32 1
  %91 = load i16, ptr %90, align 8
  %92 = and i16 %91, -256
  %93 = or i16 %92, 26
  store i16 %93, ptr %90, align 8
  %94 = getelementptr inbounds %struct.dw_loc_descr_struct, ptr %89, i64 0, i32 3
  store i32 6, ptr %94, align 8, !tbaa !52
  %95 = getelementptr inbounds %struct.dw_loc_descr_struct, ptr %89, i64 0, i32 3, i32 1
  store i64 0, ptr %95, align 8, !tbaa !17
  %96 = getelementptr inbounds %struct.dw_loc_descr_struct, ptr %89, i64 0, i32 4
  store i32 6, ptr %96, align 8, !tbaa !49
  %97 = getelementptr inbounds %struct.dw_loc_descr_struct, ptr %89, i64 0, i32 4, i32 1
  store i64 0, ptr %97, align 8, !tbaa !17
  br label %98

98:                                               ; preds = %98, %88
  %99 = phi ptr [ %5, %88 ], [ %100, %98 ]
  %100 = load ptr, ptr %99, align 8, !tbaa !6
  %101 = icmp eq ptr %100, null
  br i1 %101, label %102, label %98, !llvm.loop !53

102:                                              ; preds = %98
  store ptr %89, ptr %99, align 8, !tbaa !6
  call fastcc void @loc_descr_plus_const(ptr noundef nonnull %5, i64 noundef %3)
  %103 = load ptr, ptr %5, align 8, !tbaa !6
  br label %126

104:                                              ; preds = %30, %23
  %105 = icmp ult i32 %27, 32
  br i1 %105, label %106, label %110

106:                                              ; preds = %104
  %107 = tail call ptr @ggc_alloc_cleared_stat(i64 noundef 64) #31
  %108 = trunc i32 %27 to i16
  %109 = add nuw nsw i16 %108, 112
  br label %113

110:                                              ; preds = %104
  %111 = zext i32 %27 to i64
  %112 = tail call ptr @ggc_alloc_cleared_stat(i64 noundef 64) #31
  br label %113

113:                                              ; preds = %110, %106
  %114 = phi i16 [ 146, %110 ], [ %109, %106 ]
  %115 = phi ptr [ %112, %110 ], [ %107, %106 ]
  %116 = phi i64 [ %111, %110 ], [ %3, %106 ]
  %117 = phi i64 [ %3, %110 ], [ 0, %106 ]
  %118 = getelementptr inbounds %struct.dw_loc_descr_struct, ptr %115, i64 0, i32 1
  %119 = load i16, ptr %118, align 8
  %120 = and i16 %119, -256
  %121 = or i16 %120, %114
  store i16 %121, ptr %118, align 8
  %122 = getelementptr inbounds %struct.dw_loc_descr_struct, ptr %115, i64 0, i32 3
  store i32 6, ptr %122, align 8, !tbaa !52
  %123 = getelementptr inbounds %struct.dw_loc_descr_struct, ptr %115, i64 0, i32 3, i32 1
  store i64 %116, ptr %123, align 8, !tbaa !17
  %124 = getelementptr inbounds %struct.dw_loc_descr_struct, ptr %115, i64 0, i32 4
  store i32 6, ptr %124, align 8, !tbaa !49
  %125 = getelementptr inbounds %struct.dw_loc_descr_struct, ptr %115, i64 0, i32 4, i32 1
  store i64 %117, ptr %125, align 8, !tbaa !17
  br label %126

126:                                              ; preds = %102, %113
  %127 = phi ptr [ %115, %113 ], [ %103, %102 ]
  call void @llvm.lifetime.end.p0(i64 8, ptr nonnull %5) #31
  store ptr %127, ptr %8, align 8, !tbaa !17
  br label %145

128:                                              ; preds = %16, %4
  %129 = icmp eq i32 %2, -1
  br i1 %129, label %130, label %140

130:                                              ; preds = %128
  %131 = icmp slt i64 %3, 1
  br i1 %131, label %134, label %132

132:                                              ; preds = %130
  %133 = getelementptr inbounds %struct.dw_cfi_struct, ptr %6, i64 0, i32 1
  store i32 17, ptr %133, align 8, !tbaa !48
  br label %139

134:                                              ; preds = %130
  %135 = icmp ult i32 %1, 64
  %136 = getelementptr inbounds %struct.dw_cfi_struct, ptr %6, i64 0, i32 1
  br i1 %135, label %138, label %137

137:                                              ; preds = %134
  store i32 5, ptr %136, align 8, !tbaa !48
  br label %139

138:                                              ; preds = %134
  store i32 128, ptr %136, align 8, !tbaa !48
  br label %139

139:                                              ; preds = %137, %138, %132
  store i64 %3, ptr %8, align 8, !tbaa !17
  br label %145

140:                                              ; preds = %128
  %141 = icmp eq i32 %2, %1
  %142 = getelementptr inbounds %struct.dw_cfi_struct, ptr %6, i64 0, i32 1
  br i1 %141, label %143, label %144

143:                                              ; preds = %140
  store i32 8, ptr %142, align 8, !tbaa !48
  br label %145

144:                                              ; preds = %140
  store i32 9, ptr %142, align 8, !tbaa !48
  store i32 %2, ptr %8, align 8, !tbaa !17
  br label %145

145:                                              ; preds = %139, %144, %143, %126
  tail call fastcc void @add_fde_cfi(ptr noundef %0, ptr noundef nonnull %6)
  ret void
}

; Function Attrs: nounwind sspstrong uwtable
define internal fastcc ptr @int_loc_descriptor(i64 noundef %0) unnamed_addr #10 {
  %2 = icmp sgt i64 %0, -1
  br i1 %2, label %3, label %15

3:                                                ; preds = %1
  %4 = icmp ult i64 %0, 32
  br i1 %4, label %5, label %8

5:                                                ; preds = %3
  %6 = trunc i64 %0 to i16
  %7 = add nuw nsw i16 %6, 48
  br label %20

8:                                                ; preds = %3
  %9 = icmp ult i64 %0, 256
  br i1 %9, label %20, label %10

10:                                               ; preds = %8
  %11 = icmp ult i64 %0, 65536
  br i1 %11, label %20, label %12

12:                                               ; preds = %10
  %13 = icmp ult i64 %0, 4294967296
  %14 = select i1 %13, i16 12, i16 16
  br label %20

15:                                               ; preds = %1
  %16 = icmp ugt i64 %0, -129
  br i1 %16, label %20, label %17

17:                                               ; preds = %15
  %18 = icmp ugt i64 %0, -32769
  %19 = select i1 %18, i16 11, i16 17
  br label %20

20:                                               ; preds = %17, %15, %12, %10, %8, %5
  %21 = phi i16 [ %7, %5 ], [ 8, %8 ], [ 10, %10 ], [ %14, %12 ], [ 9, %15 ], [ %19, %17 ]
  %22 = tail call ptr @ggc_alloc_cleared_stat(i64 noundef 64) #31
  %23 = getelementptr inbounds %struct.dw_loc_descr_struct, ptr %22, i64 0, i32 1
  %24 = load i16, ptr %23, align 8
  %25 = and i16 %24, -256
  %26 = or i16 %25, %21
  store i16 %26, ptr %23, align 8
  %27 = getelementptr inbounds %struct.dw_loc_descr_struct, ptr %22, i64 0, i32 3
  store i32 6, ptr %27, align 8, !tbaa !52
  %28 = getelementptr inbounds %struct.dw_loc_descr_struct, ptr %22, i64 0, i32 3, i32 1
  store i64 %0, ptr %28, align 8, !tbaa !17
  %29 = getelementptr inbounds %struct.dw_loc_descr_struct, ptr %22, i64 0, i32 4
  store i32 6, ptr %29, align 8, !tbaa !49
  %30 = getelementptr inbounds %struct.dw_loc_descr_struct, ptr %22, i64 0, i32 4, i32 1
  store i64 0, ptr %30, align 8, !tbaa !17
  ret ptr %22
}

; Function Attrs: nounwind sspstrong uwtable
define internal fastcc void @loc_descr_plus_const(ptr nocapture noundef readonly %0, i64 noundef %1) unnamed_addr #10 {
  %3 = load ptr, ptr %0, align 8, !tbaa !6
  %4 = icmp eq ptr %3, null
  br i1 %4, label %5, label %6

5:                                                ; preds = %2
  tail call void @fancy_abort(ptr noundef nonnull @.str.4, i32 noundef 4649, ptr noundef nonnull @.str.5) #31
  br label %6

6:                                                ; preds = %2, %5
  %7 = icmp eq i64 %1, 0
  br i1 %7, label %87, label %8

8:                                                ; preds = %6
  %9 = load ptr, ptr %0, align 8, !tbaa !6
  br label %10

10:                                               ; preds = %10, %8
  %11 = phi ptr [ %9, %8 ], [ %12, %10 ]
  %12 = load ptr, ptr %11, align 8, !tbaa !57
  %13 = icmp eq ptr %12, null
  br i1 %13, label %14, label %10, !llvm.loop !64

14:                                               ; preds = %10
  %15 = getelementptr inbounds %struct.dw_loc_descr_struct, ptr %11, i64 0, i32 1
  %16 = load i16, ptr %15, align 8
  %17 = and i16 %16, 255
  %18 = icmp eq i16 %17, 145
  %19 = add nsw i16 %17, -112
  %20 = icmp ult i16 %19, 32
  %21 = select i1 %18, i1 true, i1 %20
  br i1 %21, label %22, label %24

22:                                               ; preds = %14
  %23 = getelementptr inbounds %struct.dw_loc_descr_struct, ptr %11, i64 0, i32 3, i32 1
  br label %27

24:                                               ; preds = %14
  %25 = icmp eq i16 %17, 146
  %26 = getelementptr inbounds %struct.dw_loc_descr_struct, ptr %11, i64 0, i32 4, i32 1
  br i1 %25, label %27, label %43

27:                                               ; preds = %24, %22
  %28 = phi ptr [ %23, %22 ], [ %26, %24 ]
  %29 = icmp sgt i64 %1, 0
  br i1 %29, label %30, label %34

30:                                               ; preds = %27
  %31 = load i64, ptr %28, align 8, !tbaa !38
  %32 = sub nuw nsw i64 9223372036854775807, %1
  %33 = icmp sgt i64 %31, %32
  br i1 %33, label %45, label %40

34:                                               ; preds = %27
  %35 = icmp slt i64 %1, 0
  br i1 %35, label %36, label %62

36:                                               ; preds = %34
  %37 = load i64, ptr %28, align 8, !tbaa !38
  %38 = sub nsw i64 -9223372036854775808, %1
  %39 = icmp slt i64 %37, %38
  br i1 %39, label %57, label %40

40:                                               ; preds = %36, %30
  %41 = phi i64 [ %37, %36 ], [ %31, %30 ]
  %42 = add nsw i64 %41, %1
  store i64 %42, ptr %28, align 8, !tbaa !38
  br label %87

43:                                               ; preds = %24
  %44 = icmp sgt i64 %1, 0
  br i1 %44, label %45, label %55

45:                                               ; preds = %30, %43
  %46 = tail call ptr @ggc_alloc_cleared_stat(i64 noundef 64) #31
  %47 = getelementptr inbounds %struct.dw_loc_descr_struct, ptr %46, i64 0, i32 1
  %48 = load i16, ptr %47, align 8
  %49 = and i16 %48, -256
  %50 = or i16 %49, 35
  store i16 %50, ptr %47, align 8
  %51 = getelementptr inbounds %struct.dw_loc_descr_struct, ptr %46, i64 0, i32 3
  store i32 6, ptr %51, align 8, !tbaa !52
  %52 = getelementptr inbounds %struct.dw_loc_descr_struct, ptr %46, i64 0, i32 3, i32 1
  store i64 %1, ptr %52, align 8, !tbaa !17
  %53 = getelementptr inbounds %struct.dw_loc_descr_struct, ptr %46, i64 0, i32 4
  store i32 6, ptr %53, align 8, !tbaa !49
  %54 = getelementptr inbounds %struct.dw_loc_descr_struct, ptr %46, i64 0, i32 4, i32 1
  store i64 0, ptr %54, align 8, !tbaa !17
  store ptr %46, ptr %11, align 8, !tbaa !57
  br label %87

55:                                               ; preds = %43
  %56 = icmp sgt i64 %1, -1
  br i1 %56, label %62, label %57

57:                                               ; preds = %36, %55
  %58 = icmp ugt i64 %1, -129
  br i1 %58, label %62, label %59

59:                                               ; preds = %57
  %60 = icmp ugt i64 %1, -32769
  %61 = select i1 %60, i16 11, i16 17
  br label %62

62:                                               ; preds = %55, %34, %57, %59
  %63 = phi i16 [ 9, %57 ], [ %61, %59 ], [ 48, %34 ], [ 48, %55 ]
  %64 = tail call ptr @ggc_alloc_cleared_stat(i64 noundef 64) #31
  %65 = getelementptr inbounds %struct.dw_loc_descr_struct, ptr %64, i64 0, i32 1
  %66 = load i16, ptr %65, align 8
  %67 = and i16 %66, -256
  %68 = or i16 %67, %63
  store i16 %68, ptr %65, align 8
  %69 = getelementptr inbounds %struct.dw_loc_descr_struct, ptr %64, i64 0, i32 3
  store i32 6, ptr %69, align 8, !tbaa !52
  %70 = getelementptr inbounds %struct.dw_loc_descr_struct, ptr %64, i64 0, i32 3, i32 1
  store i64 %1, ptr %70, align 8, !tbaa !17
  %71 = getelementptr inbounds %struct.dw_loc_descr_struct, ptr %64, i64 0, i32 4
  store i32 6, ptr %71, align 8, !tbaa !49
  %72 = getelementptr inbounds %struct.dw_loc_descr_struct, ptr %64, i64 0, i32 4, i32 1
  store i64 0, ptr %72, align 8, !tbaa !17
  store ptr %64, ptr %11, align 8, !tbaa !57
  %73 = tail call ptr @ggc_alloc_cleared_stat(i64 noundef 64) #31
  %74 = getelementptr inbounds %struct.dw_loc_descr_struct, ptr %73, i64 0, i32 1
  %75 = load i16, ptr %74, align 8
  %76 = and i16 %75, -256
  %77 = or i16 %76, 34
  store i16 %77, ptr %74, align 8
  %78 = getelementptr inbounds %struct.dw_loc_descr_struct, ptr %73, i64 0, i32 3
  store i32 6, ptr %78, align 8, !tbaa !52
  %79 = getelementptr inbounds %struct.dw_loc_descr_struct, ptr %73, i64 0, i32 3, i32 1
  store i64 0, ptr %79, align 8, !tbaa !17
  %80 = getelementptr inbounds %struct.dw_loc_descr_struct, ptr %73, i64 0, i32 4
  store i32 6, ptr %80, align 8, !tbaa !49
  %81 = getelementptr inbounds %struct.dw_loc_descr_struct, ptr %73, i64 0, i32 4, i32 1
  store i64 0, ptr %81, align 8, !tbaa !17
  br label %82

82:                                               ; preds = %82, %62
  %83 = phi ptr [ %11, %62 ], [ %84, %82 ]
  %84 = load ptr, ptr %83, align 8, !tbaa !6
  %85 = icmp eq ptr %84, null
  br i1 %85, label %86, label %82, !llvm.loop !53

86:                                               ; preds = %82
  store ptr %73, ptr %83, align 8, !tbaa !6
  br label %87

87:                                               ; preds = %40, %86, %45, %6
  ret void
}

; Function Attrs: nounwind sspstrong uwtable
define dso_local void @dwarf2out_return_save(ptr noundef %0, i64 noundef %1) local_unnamed_addr #10 {
  tail call fastcc void @reg_save(ptr noundef %0, i32 noundef 8, i32 noundef -1, i64 noundef %1)
  ret void
}

; Function Attrs: nounwind sspstrong uwtable
define dso_local void @dwarf2out_return_reg(ptr noundef %0, i32 noundef %1) local_unnamed_addr #10 {
  %3 = zext i32 %1 to i64
  %4 = getelementptr inbounds [53 x i32], ptr @svr4_dbx_register_map, i64 0, i64 %3
  %5 = load i32, ptr %4, align 4, !tbaa !21
  tail call fastcc void @reg_save(ptr noundef %0, i32 noundef 8, i32 noundef %5, i64 noundef 0)
  ret void
}

; Function Attrs: nounwind sspstrong uwtable
define dso_local void @dwarf2out_reg_save_reg(ptr noundef %0, ptr noundef %1, ptr noundef %2) local_unnamed_addr #10 {
  %4 = load i64, ptr @num_regs_saved_in_regs, align 8, !tbaa !38
  %5 = icmp eq i64 %4, 0
  br i1 %5, label %19, label %6

6:                                                ; preds = %3
  %7 = getelementptr i8, ptr %1, i64 8
  %8 = load i32, ptr %7, align 8, !tbaa !17
  br label %9

9:                                                ; preds = %6, %16
  %10 = phi i64 [ 0, %6 ], [ %17, %16 ]
  %11 = getelementptr inbounds [4 x %struct.reg_saved_in_data], ptr @regs_saved_in_regs, i64 0, i64 %10
  %12 = load ptr, ptr %11, align 16, !tbaa !65
  %13 = getelementptr i8, ptr %12, i64 8
  %14 = load i32, ptr %13, align 8, !tbaa !17
  %15 = icmp eq i32 %14, %8
  br i1 %15, label %19, label %16

16:                                               ; preds = %9
  %17 = add nuw i64 %10, 1
  %18 = icmp eq i64 %17, %4
  br i1 %18, label %22, label %9, !llvm.loop !67

19:                                               ; preds = %9, %3
  %20 = phi i64 [ 0, %3 ], [ %10, %9 ]
  %21 = icmp eq i64 %20, %4
  br i1 %21, label %22, label %30

22:                                               ; preds = %16, %19
  %23 = phi i64 [ %20, %19 ], [ %4, %16 ]
  %24 = icmp eq i64 %4, 4
  br i1 %24, label %25, label %27

25:                                               ; preds = %22
  tail call void @fancy_abort(ptr noundef nonnull @.str.4, i32 noundef 1782, ptr noundef nonnull @.str.5) #31
  %26 = load i64, ptr @num_regs_saved_in_regs, align 8, !tbaa !38
  br label %27

27:                                               ; preds = %22, %25
  %28 = phi i64 [ %4, %22 ], [ %26, %25 ]
  %29 = add i64 %28, 1
  store i64 %29, ptr @num_regs_saved_in_regs, align 8, !tbaa !38
  br label %30

30:                                               ; preds = %27, %19
  %31 = phi i64 [ %23, %27 ], [ %20, %19 ]
  %32 = getelementptr inbounds [4 x %struct.reg_saved_in_data], ptr @regs_saved_in_regs, i64 0, i64 %31
  store ptr %1, ptr %32, align 16, !tbaa !65
  %33 = getelementptr inbounds [4 x %struct.reg_saved_in_data], ptr @regs_saved_in_regs, i64 0, i64 %31, i32 1
  store ptr %2, ptr %33, align 8, !tbaa !68
  %34 = getelementptr i8, ptr %1, i64 8
  %35 = load i32, ptr %34, align 8, !tbaa !17
  %36 = zext i32 %35 to i64
  %37 = getelementptr inbounds [53 x i32], ptr @svr4_dbx_register_map, i64 0, i64 %36
  %38 = load i32, ptr %37, align 4, !tbaa !21
  %39 = getelementptr i8, ptr %2, i64 8
  %40 = load i32, ptr %39, align 8, !tbaa !17
  %41 = zext i32 %40 to i64
  %42 = getelementptr inbounds [53 x i32], ptr @svr4_dbx_register_map, i64 0, i64 %41
  %43 = load i32, ptr %42, align 4, !tbaa !21
  tail call fastcc void @reg_save(ptr noundef %0, i32 noundef %38, i32 noundef %43, i64 noundef 0)
  ret void
}

; Function Attrs: nounwind sspstrong uwtable
define dso_local void @dwarf2out_frame_debug(ptr noundef %0, i8 noundef zeroext %1) local_unnamed_addr #10 {
  %3 = alloca %struct.cfa_loc, align 8
  %4 = icmp eq ptr %0, null
  br i1 %4, label %5, label %44

5:                                                ; preds = %2
  tail call fastcc void @flush_queued_reg_saves()
  call void @llvm.lifetime.start.p0(i64 24, ptr nonnull %3) #31
  tail call void @llvm.memset.p0.i64(ptr noundef nonnull align 8 dereferenceable(24) @cfa, i8 0, i64 24, i1 false)
  store i32 -1, ptr getelementptr inbounds (%struct.cfa_loc, ptr @cfa, i64 0, i32 2), align 8, !tbaa !41
  call void @llvm.memcpy.p0.p0.i64(ptr noundef nonnull align 8 dereferenceable(24) %3, ptr noundef nonnull align 8 dereferenceable(24) @cfa, i64 24, i1 false), !tbaa.struct !43
  %6 = load ptr, ptr @cie_cfi_head, align 8, !tbaa !6
  %7 = icmp eq ptr %6, null
  br i1 %7, label %12, label %8

8:                                                ; preds = %5, %8
  %9 = phi ptr [ %10, %8 ], [ %6, %5 ]
  call fastcc void @lookup_cfa_1(ptr noundef nonnull %9, ptr noundef nonnull @cfa, ptr noundef nonnull %3)
  %10 = load ptr, ptr %9, align 8, !tbaa !6
  %11 = icmp eq ptr %10, null
  br i1 %11, label %12, label %8, !llvm.loop !44

12:                                               ; preds = %8, %5
  %13 = load i32, ptr @fde_table_in_use, align 4
  %14 = icmp eq i32 %13, 0
  %15 = load ptr, ptr @fde_table, align 8
  %16 = icmp eq ptr %15, null
  %17 = select i1 %14, i1 true, i1 %16
  br i1 %17, label %28, label %18

18:                                               ; preds = %12
  %19 = add i32 %13, -1
  %20 = zext i32 %19 to i64
  %21 = getelementptr inbounds %struct.dw_fde_struct, ptr %15, i64 %20, i32 8
  %22 = load ptr, ptr %21, align 8, !tbaa !6
  %23 = icmp eq ptr %22, null
  br i1 %23, label %28, label %24

24:                                               ; preds = %18, %24
  %25 = phi ptr [ %26, %24 ], [ %22, %18 ]
  call fastcc void @lookup_cfa_1(ptr noundef nonnull %25, ptr noundef nonnull @cfa, ptr noundef nonnull %3)
  %26 = load ptr, ptr %25, align 8, !tbaa !6
  %27 = icmp eq ptr %26, null
  br i1 %27, label %28, label %24, !llvm.loop !45

28:                                               ; preds = %24, %12, %18
  call void @llvm.lifetime.end.p0(i64 24, ptr nonnull %3) #31
  %29 = load i32, ptr getelementptr inbounds (%struct.cfa_loc, ptr @cfa, i64 0, i32 2), align 8, !tbaa !41
  %30 = zext i32 %29 to i64
  %31 = load i32, ptr getelementptr inbounds ([53 x i32], ptr @svr4_dbx_register_map, i64 0, i64 7), align 4, !tbaa !21
  %32 = sext i32 %31 to i64
  %33 = icmp eq i64 %30, %32
  br i1 %33, label %35, label %34

34:                                               ; preds = %28
  tail call void @fancy_abort(ptr noundef nonnull @.str.4, i32 noundef 2664, ptr noundef nonnull @.str.5) #31
  br label %35

35:                                               ; preds = %28, %34
  store i32 7, ptr getelementptr inbounds (%struct.cfa_loc, ptr @cfa, i64 0, i32 2), align 8, !tbaa !41
  tail call void @llvm.memcpy.p0.p0.i64(ptr noundef nonnull align 8 dereferenceable(24) @cfa_store, ptr noundef nonnull align 8 dereferenceable(24) @cfa, i64 24, i1 false), !tbaa.struct !43
  store i32 -1, ptr @cfa_temp.1, align 8, !tbaa !41
  store i64 0, ptr @cfa_temp.0, align 8, !tbaa !42
  %36 = load i64, ptr @num_regs_saved_in_regs, align 8, !tbaa !38
  %37 = icmp eq i64 %36, 0
  br i1 %37, label %40, label %38

38:                                               ; preds = %35
  %39 = shl nuw i64 %36, 4
  tail call void @llvm.memset.p0.i64(ptr nonnull align 16 @regs_saved_in_regs, i8 0, i64 %39, i1 false), !tbaa !6
  br label %40

40:                                               ; preds = %38, %35
  store i64 0, ptr @num_regs_saved_in_regs, align 8, !tbaa !38
  %41 = load ptr, ptr @barrier_args_size, align 8, !tbaa !6
  %42 = icmp eq ptr %41, null
  br i1 %42, label %562, label %43

43:                                               ; preds = %40
  tail call void @free(ptr noundef nonnull %41)
  store ptr null, ptr @barrier_args_size, align 8, !tbaa !6
  br label %562

44:                                               ; preds = %2
  %45 = load i32, ptr %0, align 8
  %46 = and i32 %45, 65535
  %47 = icmp eq i32 %46, 8
  br i1 %47, label %48, label %85

48:                                               ; preds = %44
  %49 = load ptr, ptr @queued_reg_saves, align 8, !tbaa !6
  %50 = icmp eq ptr %49, null
  br i1 %50, label %86, label %54

51:                                               ; preds = %81, %60
  %52 = load ptr, ptr %55, align 8, !tbaa !6
  %53 = icmp eq ptr %52, null
  br i1 %53, label %86, label %54, !llvm.loop !69

54:                                               ; preds = %48, %51
  %55 = phi ptr [ %52, %51 ], [ %49, %48 ]
  %56 = getelementptr inbounds %struct.queued_reg_save, ptr %55, i64 0, i32 1
  %57 = load ptr, ptr %56, align 8, !tbaa !70
  %58 = tail call i32 @modified_in_p(ptr noundef %57, ptr noundef nonnull %0) #31
  %59 = icmp eq i32 %58, 0
  br i1 %59, label %60, label %85

60:                                               ; preds = %54
  %61 = load i64, ptr @num_regs_saved_in_regs, align 8, !tbaa !38
  %62 = icmp eq i64 %61, 0
  br i1 %62, label %51, label %63

63:                                               ; preds = %60, %81
  %64 = phi i64 [ %82, %81 ], [ %61, %60 ]
  %65 = phi i64 [ %83, %81 ], [ 0, %60 ]
  %66 = load ptr, ptr %56, align 8, !tbaa !70
  %67 = getelementptr i8, ptr %66, i64 8
  %68 = load i32, ptr %67, align 8, !tbaa !17
  %69 = getelementptr inbounds [4 x %struct.reg_saved_in_data], ptr @regs_saved_in_regs, i64 0, i64 %65
  %70 = load ptr, ptr %69, align 16, !tbaa !65
  %71 = getelementptr i8, ptr %70, i64 8
  %72 = load i32, ptr %71, align 8, !tbaa !17
  %73 = icmp eq i32 %68, %72
  br i1 %73, label %74, label %81

74:                                               ; preds = %63
  %75 = getelementptr inbounds [4 x %struct.reg_saved_in_data], ptr @regs_saved_in_regs, i64 0, i64 %65, i32 1
  %76 = load ptr, ptr %75, align 8, !tbaa !68
  %77 = tail call i32 @modified_in_p(ptr noundef %76, ptr noundef nonnull %0) #31
  %78 = icmp eq i32 %77, 0
  br i1 %78, label %79, label %85

79:                                               ; preds = %74
  %80 = load i64, ptr @num_regs_saved_in_regs, align 8, !tbaa !38
  br label %81

81:                                               ; preds = %79, %63
  %82 = phi i64 [ %80, %79 ], [ %64, %63 ]
  %83 = add nuw i64 %65, 1
  %84 = icmp ult i64 %83, %82
  br i1 %84, label %63, label %51, !llvm.loop !72

85:                                               ; preds = %54, %74, %44
  tail call fastcc void @flush_queued_reg_saves()
  br label %86

86:                                               ; preds = %51, %48, %85
  %87 = load i32, ptr %0, align 8
  %88 = and i32 %87, 1073741824
  %89 = icmp eq i32 %88, 0
  br i1 %89, label %90, label %262

90:                                               ; preds = %86
  %91 = load i32, ptr @target_flags, align 4, !tbaa !21
  %92 = and i32 %91, 4
  %93 = icmp eq i32 %92, 0
  br i1 %93, label %94, label %562

94:                                               ; preds = %90
  %95 = tail call i32 @ix86_cfun_abi() #31
  %96 = icmp eq i32 %95, 1
  br i1 %96, label %562, label %97

97:                                               ; preds = %94
  %98 = tail call i32 @prologue_epilogue_contains(ptr noundef nonnull %0) #31
  %99 = icmp eq i32 %98, 0
  br i1 %99, label %100, label %562

100:                                              ; preds = %97
  %101 = load ptr, ptr @final_sequence, align 8, !tbaa !6
  %102 = icmp eq ptr %101, null
  br i1 %102, label %103, label %105

103:                                              ; preds = %100
  %104 = load i32, ptr %0, align 8
  br label %117

105:                                              ; preds = %100
  %106 = getelementptr inbounds %struct.rtx_def, ptr %101, i64 0, i32 1
  %107 = load ptr, ptr %106, align 8, !tbaa !17
  %108 = getelementptr inbounds %struct.rtvec_def, ptr %107, i64 0, i32 1
  %109 = load ptr, ptr %108, align 8, !tbaa !6
  %110 = load i32, ptr %109, align 8
  %111 = and i32 %110, 67108864
  %112 = icmp eq i32 %111, 0
  %113 = load i32, ptr %0, align 8
  %114 = and i32 %113, 268435456
  %115 = icmp eq i32 %114, 0
  %116 = select i1 %112, i1 true, i1 %115
  br i1 %116, label %117, label %562

117:                                              ; preds = %103, %105
  %118 = phi i32 [ %104, %103 ], [ %113, %105 ]
  %119 = load i32, ptr @flag_asynchronous_unwind_tables, align 4, !tbaa !21
  %120 = icmp eq i32 %119, 0
  %121 = load i32, ptr getelementptr inbounds (%struct.cfa_loc, ptr @cfa, i64 0, i32 2), align 8
  %122 = icmp ne i32 %121, 7
  %123 = select i1 %120, i1 %122, i1 false
  %124 = and i32 %118, 65535
  %125 = icmp ne i32 %124, 10
  %126 = icmp ne i8 %1, 0
  %127 = or i1 %126, %125
  br i1 %123, label %128, label %168

128:                                              ; preds = %117
  br i1 %127, label %562, label %129

129:                                              ; preds = %128
  %130 = getelementptr inbounds %struct.rtx_def, ptr %0, i64 1
  %131 = load ptr, ptr %130, align 8, !tbaa !17
  %132 = load i32, ptr %131, align 8
  %133 = and i32 %132, 65535
  %134 = icmp eq i32 %133, 15
  br i1 %134, label %135, label %141

135:                                              ; preds = %129
  %136 = getelementptr inbounds %struct.rtx_def, ptr %131, i64 0, i32 1
  %137 = load ptr, ptr %136, align 8, !tbaa !17
  %138 = getelementptr inbounds %struct.rtvec_def, ptr %137, i64 0, i32 1
  %139 = load ptr, ptr %138, align 8, !tbaa !6
  %140 = load i32, ptr %139, align 8
  br label %141

141:                                              ; preds = %135, %129
  %142 = phi i32 [ %140, %135 ], [ %132, %129 ]
  %143 = phi ptr [ %139, %135 ], [ %131, %129 ]
  %144 = and i32 %142, 65535
  %145 = icmp eq i32 %144, 23
  br i1 %145, label %146, label %151

146:                                              ; preds = %141
  %147 = getelementptr inbounds %struct.rtx_def, ptr %143, i64 0, i32 1, i32 0, i32 0, i64 1
  %148 = load ptr, ptr %147, align 8, !tbaa !17
  %149 = load i32, ptr %148, align 8
  %150 = and i32 %149, 65535
  br label %151

151:                                              ; preds = %146, %141
  %152 = phi i32 [ %150, %146 ], [ %144, %141 ]
  %153 = phi ptr [ %148, %146 ], [ %143, %141 ]
  %154 = icmp eq i32 %152, 26
  br i1 %154, label %156, label %155

155:                                              ; preds = %151
  tail call void @fancy_abort(ptr noundef nonnull @.str.4, i32 noundef 1593, ptr noundef nonnull @.str.5) #31
  br label %156

156:                                              ; preds = %155, %151
  %157 = getelementptr inbounds %struct.rtx_def, ptr %153, i64 0, i32 1, i32 0, i32 0, i64 1
  %158 = load ptr, ptr %157, align 8, !tbaa !17
  %159 = getelementptr inbounds %struct.rtx_def, ptr %158, i64 0, i32 1
  %160 = load i64, ptr %159, align 8, !tbaa !17
  %161 = load i64, ptr @old_args_size, align 8, !tbaa !38
  %162 = icmp eq i64 %161, %160
  br i1 %162, label %562, label %163

163:                                              ; preds = %156
  store i64 %160, ptr @old_args_size, align 8, !tbaa !38
  %164 = tail call ptr @ggc_alloc_stat(i64 noundef 32) #31
  store ptr null, ptr %164, align 8, !tbaa !46
  %165 = getelementptr inbounds %struct.dw_cfi_struct, ptr %164, i64 0, i32 2
  %166 = getelementptr inbounds %struct.dw_cfi_struct, ptr %164, i64 0, i32 3
  store i32 0, ptr %166, align 8, !tbaa !17
  %167 = getelementptr inbounds %struct.dw_cfi_struct, ptr %164, i64 0, i32 1
  store i32 46, ptr %167, align 8, !tbaa !48
  store i64 %160, ptr %165, align 8, !tbaa !17
  tail call fastcc void @add_fde_cfi(ptr noundef nonnull @.str.181, ptr noundef nonnull %164)
  br label %562

168:                                              ; preds = %117
  br i1 %127, label %179, label %169

169:                                              ; preds = %168
  br i1 %120, label %170, label %562

170:                                              ; preds = %169
  %171 = load i64, ptr @args_size, align 8, !tbaa !38
  %172 = load i64, ptr @old_args_size, align 8, !tbaa !38
  %173 = icmp eq i64 %172, %171
  br i1 %173, label %562, label %174

174:                                              ; preds = %170
  store i64 %171, ptr @old_args_size, align 8, !tbaa !38
  %175 = tail call ptr @ggc_alloc_stat(i64 noundef 32) #31
  store ptr null, ptr %175, align 8, !tbaa !46
  %176 = getelementptr inbounds %struct.dw_cfi_struct, ptr %175, i64 0, i32 2
  %177 = getelementptr inbounds %struct.dw_cfi_struct, ptr %175, i64 0, i32 3
  store i32 0, ptr %177, align 8, !tbaa !17
  %178 = getelementptr inbounds %struct.dw_cfi_struct, ptr %175, i64 0, i32 1
  store i32 46, ptr %178, align 8, !tbaa !48
  store i64 %171, ptr %176, align 8, !tbaa !17
  tail call fastcc void @add_fde_cfi(ptr noundef nonnull @.str.181, ptr noundef nonnull %175)
  br label %562

179:                                              ; preds = %168
  %180 = icmp eq i32 %124, 11
  br i1 %180, label %181, label %203

181:                                              ; preds = %179
  %182 = load ptr, ptr @barrier_args_size, align 8, !tbaa !6
  %183 = icmp eq ptr %182, null
  br i1 %183, label %184, label %191

184:                                              ; preds = %181
  %185 = tail call ptr @next_nonnote_insn(ptr noundef nonnull %0) #31
  %186 = icmp eq ptr %185, null
  br i1 %186, label %188, label %187

187:                                              ; preds = %184
  tail call fastcc void @compute_barrier_args_size()
  br label %188

188:                                              ; preds = %187, %184
  %189 = load ptr, ptr @barrier_args_size, align 8, !tbaa !6
  %190 = icmp eq ptr %189, null
  br i1 %190, label %199, label %191

191:                                              ; preds = %188, %181
  %192 = phi ptr [ %189, %188 ], [ %182, %181 ]
  %193 = getelementptr inbounds %struct.rtx_def, ptr %0, i64 0, i32 1
  %194 = load i32, ptr %193, align 8, !tbaa !17
  %195 = sext i32 %194 to i64
  %196 = getelementptr inbounds i64, ptr %192, i64 %195
  %197 = load i64, ptr %196, align 8, !tbaa !38
  %198 = tail call i64 @llvm.smax.i64(i64 %197, i64 0)
  br label %199

199:                                              ; preds = %191, %188
  %200 = phi i64 [ %198, %191 ], [ 0, %188 ]
  %201 = load i64, ptr @args_size, align 8, !tbaa !38
  %202 = sub nsw i64 %200, %201
  br label %246

203:                                              ; preds = %179
  %204 = getelementptr inbounds %struct.rtx_def, ptr %0, i64 1
  %205 = load ptr, ptr %204, align 8, !tbaa !17
  %206 = load i32, ptr %205, align 8
  %207 = trunc i32 %206 to i16
  switch i16 %207, label %562 [
    i16 23, label %208
    i16 15, label %215
    i16 5, label %215
  ]

208:                                              ; preds = %203
  %209 = load i64, ptr @args_size, align 8, !tbaa !38
  %210 = getelementptr i8, ptr %205, i64 8
  %211 = load ptr, ptr %210, align 8, !tbaa !17
  %212 = getelementptr i8, ptr %205, i64 16
  %213 = load ptr, ptr %212, align 8, !tbaa !17
  %214 = tail call fastcc i64 @stack_adjust_offset(ptr %211, ptr %213, i64 noundef %209, i64 noundef 0)
  br label %246

215:                                              ; preds = %203, %203
  %216 = getelementptr inbounds %struct.rtx_def, ptr %205, i64 0, i32 1
  %217 = load ptr, ptr %216, align 8, !tbaa !17
  %218 = load i32, ptr %217, align 8, !tbaa !73
  %219 = icmp sgt i32 %218, 0
  br i1 %219, label %220, label %562

220:                                              ; preds = %215
  %221 = zext i32 %218 to i64
  br label %222

222:                                              ; preds = %243, %220
  %223 = phi i64 [ %221, %220 ], [ %225, %243 ]
  %224 = phi i64 [ 0, %220 ], [ %244, %243 ]
  %225 = add nsw i64 %223, -1
  %226 = load ptr, ptr %204, align 8, !tbaa !17
  %227 = getelementptr inbounds %struct.rtx_def, ptr %226, i64 0, i32 1
  %228 = load ptr, ptr %227, align 8, !tbaa !17
  %229 = and i64 %225, 4294967295
  %230 = getelementptr inbounds %struct.rtvec_def, ptr %228, i64 0, i32 1, i64 %229
  %231 = load ptr, ptr %230, align 8, !tbaa !6
  %232 = load i32, ptr %231, align 8
  %233 = and i32 %232, 65535
  %234 = icmp eq i32 %233, 23
  br i1 %234, label %235, label %243

235:                                              ; preds = %222
  %236 = load i64, ptr @args_size, align 8, !tbaa !38
  %237 = getelementptr i8, ptr %231, i64 8
  %238 = load ptr, ptr %237, align 8, !tbaa !17
  %239 = getelementptr i8, ptr %231, i64 16
  %240 = load ptr, ptr %239, align 8, !tbaa !17
  %241 = tail call fastcc i64 @stack_adjust_offset(ptr %238, ptr %240, i64 noundef %236, i64 noundef %224)
  %242 = add nsw i64 %241, %224
  br label %243

243:                                              ; preds = %235, %222
  %244 = phi i64 [ %242, %235 ], [ %224, %222 ]
  %245 = icmp ugt i64 %223, 1
  br i1 %245, label %222, label %246, !llvm.loop !75

246:                                              ; preds = %243, %208, %199
  %247 = phi i64 [ %202, %199 ], [ %214, %208 ], [ %244, %243 ]
  %248 = icmp eq i64 %247, 0
  br i1 %248, label %562, label %249

249:                                              ; preds = %246
  %250 = tail call i32 @dwarf2out_do_cfi_asm(), !range !37
  %251 = icmp eq i32 %250, 0
  br i1 %251, label %253, label %252

252:                                              ; preds = %249
  tail call void @llvm.memcpy.p0.p0.i64(ptr noundef nonnull align 16 dereferenceable(16) @dwarf2out_cfi_label.label, ptr noundef nonnull align 1 dereferenceable(16) @.str, i64 16, i1 false)
  br label %261

253:                                              ; preds = %249
  %254 = load i64, ptr @dwarf2out_cfi_label_num, align 8, !tbaa !38
  %255 = add i64 %254, 1
  store i64 %255, ptr @dwarf2out_cfi_label_num, align 8, !tbaa !38
  %256 = trunc i64 %254 to i32
  %257 = tail call i32 (ptr, ptr, ...) @sprintf(ptr noundef nonnull dereferenceable(1) @dwarf2out_cfi_label.label, ptr noundef nonnull dereferenceable(1) @.str.1, ptr noundef nonnull @.str.2, i32 noundef %256)
  %258 = load ptr, ptr @asm_out_file, align 8, !tbaa !6
  tail call void @assemble_name(ptr noundef %258, ptr noundef nonnull @dwarf2out_cfi_label.label) #31
  %259 = load ptr, ptr @asm_out_file, align 8, !tbaa !6
  %260 = tail call i64 @fwrite(ptr nonnull @.str.3, i64 2, i64 1, ptr %259)
  br label %261

261:                                              ; preds = %253, %252
  tail call fastcc void @dwarf2out_stack_adjust(i64 noundef %247)
  br label %562

262:                                              ; preds = %86
  %263 = tail call i32 @dwarf2out_do_cfi_asm(), !range !37
  %264 = icmp eq i32 %263, 0
  br i1 %264, label %266, label %265

265:                                              ; preds = %262
  tail call void @llvm.memcpy.p0.p0.i64(ptr noundef nonnull align 16 dereferenceable(16) @dwarf2out_cfi_label.label, ptr noundef nonnull align 1 dereferenceable(16) @.str, i64 16, i1 false)
  br label %274

266:                                              ; preds = %262
  %267 = load i64, ptr @dwarf2out_cfi_label_num, align 8, !tbaa !38
  %268 = add i64 %267, 1
  store i64 %268, ptr @dwarf2out_cfi_label_num, align 8, !tbaa !38
  %269 = trunc i64 %267 to i32
  %270 = tail call i32 (ptr, ptr, ...) @sprintf(ptr noundef nonnull dereferenceable(1) @dwarf2out_cfi_label.label, ptr noundef nonnull dereferenceable(1) @.str.1, ptr noundef nonnull @.str.2, i32 noundef %269)
  %271 = load ptr, ptr @asm_out_file, align 8, !tbaa !6
  tail call void @assemble_name(ptr noundef %271, ptr noundef nonnull @dwarf2out_cfi_label.label) #31
  %272 = load ptr, ptr @asm_out_file, align 8, !tbaa !6
  %273 = tail call i64 @fwrite(ptr nonnull @.str.3, i64 2, i64 1, ptr %272)
  br label %274

274:                                              ; preds = %265, %266
  %275 = getelementptr inbounds %struct.rtx_def, ptr %0, i64 1, i32 1, i32 0, i32 0, i64 1
  %276 = load ptr, ptr %275, align 8, !tbaa !17
  %277 = icmp eq ptr %276, null
  br i1 %277, label %557, label %278

278:                                              ; preds = %274
  %279 = getelementptr inbounds %struct.rtx_def, ptr %0, i64 1
  br label %280

280:                                              ; preds = %278, %550
  %281 = phi ptr [ %276, %278 ], [ %553, %550 ]
  %282 = phi i8 [ 0, %278 ], [ %551, %550 ]
  %283 = load i32, ptr %281, align 8
  %284 = lshr i32 %283, 16
  %285 = trunc i32 %284 to i8
  switch i8 %285, label %550 [
    i8 17, label %286
    i8 18, label %288
    i8 19, label %307
    i8 20, label %358
    i8 21, label %457
    i8 22, label %492
    i8 23, label %523
  ]

286:                                              ; preds = %280
  %287 = getelementptr inbounds %struct.rtx_def, ptr %281, i64 0, i32 1
  br label %559

288:                                              ; preds = %280
  %289 = getelementptr inbounds %struct.rtx_def, ptr %281, i64 0, i32 1
  %290 = load ptr, ptr %289, align 8, !tbaa !17
  tail call void @llvm.memset.p0.i64(ptr noundef nonnull align 8 dereferenceable(24) @cfa, i8 0, i64 24, i1 false)
  %291 = load i32, ptr %290, align 8
  %292 = trunc i32 %291 to i16
  switch i16 %292, label %305 [
    i16 49, label %293
    i16 37, label %302
  ]

293:                                              ; preds = %288
  %294 = getelementptr inbounds %struct.rtx_def, ptr %290, i64 0, i32 1
  %295 = load ptr, ptr %294, align 8, !tbaa !17
  %296 = getelementptr i8, ptr %295, i64 8
  %297 = load i32, ptr %296, align 8, !tbaa !17
  store i32 %297, ptr getelementptr inbounds (%struct.cfa_loc, ptr @cfa, i64 0, i32 2), align 8, !tbaa !41
  %298 = getelementptr inbounds %struct.rtx_def, ptr %290, i64 0, i32 1, i32 0, i32 0, i64 1
  %299 = load ptr, ptr %298, align 8, !tbaa !17
  %300 = getelementptr inbounds %struct.rtx_def, ptr %299, i64 0, i32 1
  %301 = load i64, ptr %300, align 8, !tbaa !17
  store i64 %301, ptr @cfa, align 8, !tbaa !42
  br label %306

302:                                              ; preds = %288
  %303 = getelementptr i8, ptr %290, i64 8
  %304 = load i32, ptr %303, align 8, !tbaa !17
  store i32 %304, ptr getelementptr inbounds (%struct.cfa_loc, ptr @cfa, i64 0, i32 2), align 8, !tbaa !41
  br label %306

305:                                              ; preds = %288
  tail call void @fancy_abort(ptr noundef nonnull @.str.4, i32 noundef 1840, ptr noundef nonnull @.str.5) #31
  br label %306

306:                                              ; preds = %293, %302, %305
  tail call fastcc void @def_cfa_1(ptr noundef nonnull @dwarf2out_cfi_label.label, ptr noundef nonnull @cfa)
  br label %550

307:                                              ; preds = %280
  %308 = getelementptr inbounds %struct.rtx_def, ptr %281, i64 0, i32 1
  %309 = load ptr, ptr %308, align 8, !tbaa !17
  %310 = icmp eq ptr %309, null
  br i1 %310, label %311, label %321

311:                                              ; preds = %307
  %312 = load ptr, ptr %279, align 8, !tbaa !17
  %313 = load i32, ptr %312, align 8
  %314 = and i32 %313, 65535
  %315 = icmp eq i32 %314, 15
  br i1 %315, label %316, label %321

316:                                              ; preds = %311
  %317 = getelementptr inbounds %struct.rtx_def, ptr %312, i64 0, i32 1
  %318 = load ptr, ptr %317, align 8, !tbaa !17
  %319 = getelementptr inbounds %struct.rtvec_def, ptr %318, i64 0, i32 1
  %320 = load ptr, ptr %319, align 8, !tbaa !6
  br label %321

321:                                              ; preds = %311, %316, %307
  %322 = phi ptr [ %320, %316 ], [ %312, %311 ], [ %309, %307 ]
  %323 = load i32, ptr %322, align 8
  %324 = and i32 %323, 65535
  %325 = icmp eq i32 %324, 23
  br i1 %325, label %327, label %326

326:                                              ; preds = %321
  tail call void @fancy_abort(ptr noundef nonnull @.str.4, i32 noundef 1853, ptr noundef nonnull @.str.5) #31
  br label %327

327:                                              ; preds = %326, %321
  %328 = getelementptr inbounds %struct.rtx_def, ptr %322, i64 0, i32 1
  %329 = load ptr, ptr %328, align 8, !tbaa !17
  %330 = getelementptr inbounds %struct.rtx_def, ptr %322, i64 0, i32 1, i32 0, i32 0, i64 1
  %331 = load ptr, ptr %330, align 8, !tbaa !17
  %332 = load i32, ptr %331, align 8
  %333 = trunc i32 %332 to i16
  switch i16 %333, label %349 [
    i16 49, label %334
    i16 37, label %350
  ]

334:                                              ; preds = %327
  %335 = getelementptr inbounds %struct.rtx_def, ptr %331, i64 0, i32 1
  %336 = load ptr, ptr %335, align 8, !tbaa !17
  %337 = getelementptr i8, ptr %336, i64 8
  %338 = load i32, ptr %337, align 8, !tbaa !17
  %339 = load i32, ptr getelementptr inbounds (%struct.cfa_loc, ptr @cfa, i64 0, i32 2), align 8, !tbaa !41
  %340 = icmp eq i32 %338, %339
  br i1 %340, label %342, label %341

341:                                              ; preds = %334
  tail call void @fancy_abort(ptr noundef nonnull @.str.4, i32 noundef 1860, ptr noundef nonnull @.str.5) #31
  br label %342

342:                                              ; preds = %341, %334
  %343 = getelementptr inbounds %struct.rtx_def, ptr %331, i64 0, i32 1, i32 0, i32 0, i64 1
