; ModuleID = 'source/me-tomography/forward_solver_evaluators.cc'
source_filename = "source/me-tomography/forward_solver_evaluators.cc"
target datalayout = "e-m:e-p270:32:32-p271:32:32-p272:64:64-i64:64-f80:128-n8:16:32:64-S128"
target triple = "x86_64-pc-linux-gnu"

module asm ".globl _ZSt21ios_base_library_initv"

%"class.dealii::Point" = type { %"class.dealii::Tensor" }
%"class.dealii::Tensor" = type { [3 x double] }
%"class.dealii::MultithreadInfo" = type { i32, i32 }
%"class.dealii::DataOut" = type <{ %"class.dealii::DataOut_DoFData", i32, [4 x i8] }>
%"class.dealii::DataOut_DoFData" = type { %"class.dealii::DataOutInterface", %"class.dealii::SmartPointer", %"class.std::vector", %"class.std::vector", %"class.std::vector.19" }
%"class.dealii::DataOutInterface" = type { ptr, i32, i32, %"struct.dealii::DataOutBase::DXFlags", %"struct.dealii::DataOutBase::UcdFlags", %"struct.dealii::DataOutBase::GnuplotFlags", %"struct.dealii::DataOutBase::PovrayFlags", %"struct.dealii::DataOutBase::EpsFlags", %"struct.dealii::DataOutBase::GmvFlags", %"struct.dealii::DataOutBase::TecplotFlags", %"struct.dealii::DataOutBase::VtkFlags", %"struct.dealii::DataOutBase::Deal_II_IntermediateFlags" }
%"struct.dealii::DataOutBase::DXFlags" = type { i8, i8, i8, i8, i8 }
%"struct.dealii::DataOutBase::UcdFlags" = type { i8 }
%"struct.dealii::DataOutBase::GnuplotFlags" = type { i32 }
%"struct.dealii::DataOutBase::PovrayFlags" = type { i8, i8, i8 }
%"struct.dealii::DataOutBase::EpsFlags" = type { i32, i32, i32, i32, double, double, double, double, i8, i8, i8, ptr }
%"struct.dealii::DataOutBase::GmvFlags" = type { i32 }
%"struct.dealii::DataOutBase::TecplotFlags" = type { ptr, ptr }
%"struct.dealii::DataOutBase::VtkFlags" = type { i32 }
%"struct.dealii::DataOutBase::Deal_II_IntermediateFlags" = type { i32 }
%"class.dealii::SmartPointer" = type { ptr, ptr }
%"class.std::vector" = type { %"struct.std::_Vector_base" }
%"struct.std::_Vector_base" = type { %"struct.std::_Vector_base<boost::shared_ptr<dealii::DataOut_DoFData<dealii::DoFHandler<3, 3>, 3, 3>::DataEntryBase>, std::allocator<boost::shared_ptr<dealii::DataOut_DoFData<dealii::DoFHandler<3, 3>, 3, 3>::DataEntryBase> > >::_Vector_impl" }
%"struct.std::_Vector_base<boost::shared_ptr<dealii::DataOut_DoFData<dealii::DoFHandler<3, 3>, 3, 3>::DataEntryBase>, std::allocator<boost::shared_ptr<dealii::DataOut_DoFData<dealii::DoFHandler<3, 3>, 3, 3>::DataEntryBase> > >::_Vector_impl" = type { %"struct.std::_Vector_base<boost::shared_ptr<dealii::DataOut_DoFData<dealii::DoFHandler<3, 3>, 3, 3>::DataEntryBase>, std::allocator<boost::shared_ptr<dealii::DataOut_DoFData<dealii::DoFHandler<3, 3>, 3, 3>::DataEntryBase> > >::_Vector_impl_data" }
%"struct.std::_Vector_base<boost::shared_ptr<dealii::DataOut_DoFData<dealii::DoFHandler<3, 3>, 3, 3>::DataEntryBase>, std::allocator<boost::shared_ptr<dealii::DataOut_DoFData<dealii::DoFHandler<3, 3>, 3, 3>::DataEntryBase> > >::_Vector_impl_data" = type { ptr, ptr, ptr }
%"class.std::vector.19" = type { %"struct.std::_Vector_base.20" }
%"struct.std::_Vector_base.20" = type { %"struct.std::_Vector_base<dealii::DataOutBase::Patch<3, 3>, std::allocator<dealii::DataOutBase::Patch<3, 3> > >::_Vector_impl" }
%"struct.std::_Vector_base<dealii::DataOutBase::Patch<3, 3>, std::allocator<dealii::DataOutBase::Patch<3, 3> > >::_Vector_impl" = type { %"struct.std::_Vector_base<dealii::DataOutBase::Patch<3, 3>, std::allocator<dealii::DataOutBase::Patch<3, 3> > >::_Vector_impl_data" }
%"struct.std::_Vector_base<dealii::DataOutBase::Patch<3, 3>, std::allocator<dealii::DataOutBase::Patch<3, 3> > >::_Vector_impl_data" = type { ptr, ptr, ptr }
%"class.METomography::ForwardSolver::Evaluation::SolutionOutput" = type <{ %"class.METomography::ForwardSolver::Evaluation::EvaluationBase", %"class.std::__cxx11::basic_string", i32, [4 x i8] }>
%"class.METomography::ForwardSolver::Evaluation::EvaluationBase" = type { ptr }
%"class.std::__cxx11::basic_string" = type { %"struct.std::__cxx11::basic_string<char>::_Alloc_hider", i64, %union.anon }
%"struct.std::__cxx11::basic_string<char>::_Alloc_hider" = type { ptr }
%union.anon = type { i64, [8 x i8] }
%"class.std::vector.24" = type { %"struct.std::_Vector_base.25" }
%"struct.std::_Vector_base.25" = type { %"struct.std::_Vector_base<std::__cxx11::basic_string<char>, std::allocator<std::__cxx11::basic_string<char> > >::_Vector_impl" }
%"struct.std::_Vector_base<std::__cxx11::basic_string<char>, std::allocator<std::__cxx11::basic_string<char> > >::_Vector_impl" = type { %"struct.std::_Vector_base<std::__cxx11::basic_string<char>, std::allocator<std::__cxx11::basic_string<char> > >::_Vector_impl_data" }
%"struct.std::_Vector_base<std::__cxx11::basic_string<char>, std::allocator<std::__cxx11::basic_string<char> > >::_Vector_impl_data" = type { ptr, ptr, ptr }
%"class.std::vector.44" = type { %"struct.std::_Vector_base.45" }
%"struct.std::_Vector_base.45" = type { %"struct.std::_Vector_base<dealii::DataComponentInterpretation::DataComponentInterpretation, std::allocator<dealii::DataComponentInterpretation::DataComponentInterpretation> >::_Vector_impl" }
%"struct.std::_Vector_base<dealii::DataComponentInterpretation::DataComponentInterpretation, std::allocator<dealii::DataComponentInterpretation::DataComponentInterpretation> >::_Vector_impl" = type { %"struct.std::_Vector_base<dealii::DataComponentInterpretation::DataComponentInterpretation, std::allocator<dealii::DataComponentInterpretation::DataComponentInterpretation> >::_Vector_impl_data" }
%"struct.std::_Vector_base<dealii::DataComponentInterpretation::DataComponentInterpretation, std::allocator<dealii::DataComponentInterpretation::DataComponentInterpretation> >::_Vector_impl_data" = type { ptr, ptr, ptr }
%"class.std::__cxx11::basic_ostringstream" = type { %"class.std::basic_ostream.base", %"class.std::__cxx11::basic_stringbuf", %"class.std::basic_ios" }
%"class.std::basic_ostream.base" = type { ptr }
%"class.std::__cxx11::basic_stringbuf" = type { %"class.std::basic_streambuf", i32, %"class.std::__cxx11::basic_string" }
%"class.std::basic_streambuf" = type { ptr, ptr, ptr, ptr, ptr, ptr, ptr, %"class.std::locale" }
%"class.std::locale" = type { ptr }
%"class.std::basic_ios" = type { %"class.std::ios_base", ptr, i8, i8, ptr, ptr, ptr, ptr }
%"class.std::ios_base" = type { ptr, i64, i64, i32, i32, i32, ptr, %"struct.std::ios_base::_Words", [8 x %"struct.std::ios_base::_Words"], i32, ptr, %"class.std::locale" }
%"struct.std::ios_base::_Words" = type { ptr, i64 }
%"class.std::basic_ofstream" = type { %"class.std::basic_ostream.base", %"class.std::basic_filebuf", %"class.std::basic_ios" }
%"class.std::basic_filebuf" = type { %"class.std::basic_streambuf", %union.pthread_mutex_t, %"class.std::__basic_file", i32, %struct.__mbstate_t, %struct.__mbstate_t, %struct.__mbstate_t, ptr, i64, i8, i8, i8, i8, ptr, ptr, i8, ptr, ptr, i64, ptr, ptr }
%union.pthread_mutex_t = type { %struct.__pthread_mutex_s }
%struct.__pthread_mutex_s = type { i32, i32, i32, i32, i32, i16, i16, %struct.__pthread_internal_list }
%struct.__pthread_internal_list = type { ptr, ptr }
%"class.std::__basic_file" = type <{ ptr, i8, [7 x i8] }>
%struct.__mbstate_t = type { i32, %union.anon.49 }
%union.anon.49 = type { i32 }
%"class.METomography::ForwardSolver::Evaluation::MeshOutput" = type { %"class.METomography::ForwardSolver::Evaluation::EvaluationBase", %"class.std::__cxx11::basic_string" }
%"class.dealii::GridOut" = type { i32, %"struct.dealii::GridOutFlags::DX", %"struct.dealii::GridOutFlags::Msh", %"struct.dealii::GridOutFlags::Ucd", [2 x i8], %"struct.dealii::GridOutFlags::Gnuplot", [4 x i8], %"struct.dealii::GridOutFlags::Eps", %"struct.dealii::GridOutFlags::Eps.50", %"struct.dealii::GridOutFlags::Eps.52", %"struct.dealii::GridOutFlags::XFig" }
%"struct.dealii::GridOutFlags::DX" = type { i8, i8, i8, i8, i8 }
%"struct.dealii::GridOutFlags::Msh" = type { i8, i8 }
%"struct.dealii::GridOutFlags::Ucd" = type { i8, i8, i8 }
%"struct.dealii::GridOutFlags::Gnuplot" = type <{ i8, [3 x i8], i32, i8, [3 x i8] }>
%"struct.dealii::GridOutFlags::Eps" = type { %"struct.dealii::GridOutFlags::EpsFlagsBase.base", [7 x i8] }
%"struct.dealii::GridOutFlags::EpsFlagsBase.base" = type <{ i32, i32, double, i8, [3 x i8], i32, i8 }>
%"struct.dealii::GridOutFlags::Eps.50" = type { %"struct.dealii::GridOutFlags::EpsFlagsBase.base", i8, i8, i8, [4 x i8] }
%"struct.dealii::GridOutFlags::Eps.52" = type { %"struct.dealii::GridOutFlags::EpsFlagsBase.base", double, double }
%"struct.dealii::GridOutFlags::XFig" = type <{ i8, i8, i8, i8, i32, %"class.dealii::Point.53", %"class.dealii::Point.53", i32, i32, i32, i32, i32, [4 x i8] }>
%"class.dealii::Point.53" = type { %"class.dealii::Tensor.54" }
%"class.dealii::Tensor.54" = type { [2 x double] }
%"class.dealii::DoFHandler" = type { %"class.dealii::Subscriptor", %"class.dealii::SmartPointer.32", %"class.dealii::SmartPointer.33", %"class.std::vector.34", ptr, i32, %"class.std::vector.39" }
%"class.dealii::Subscriptor" = type { ptr, i32, %"class.std::map", ptr }
%"class.std::map" = type { %"class.std::_Rb_tree" }
%"class.std::_Rb_tree" = type { %"struct.std::_Rb_tree<const char *, std::pair<const char *const, unsigned int>, std::_Select1st<std::pair<const char *const, unsigned int> >, std::less<const char *> >::_Rb_tree_impl" }
%"struct.std::_Rb_tree<const char *, std::pair<const char *const, unsigned int>, std::_Select1st<std::pair<const char *const, unsigned int> >, std::less<const char *> >::_Rb_tree_impl" = type { %"struct.std::_Rb_tree_key_compare", %"struct.std::_Rb_tree_header" }
%"struct.std::_Rb_tree_key_compare" = type { %"struct.std::less" }
%"struct.std::less" = type { i8 }
%"struct.std::_Rb_tree_header" = type { %"struct.std::_Rb_tree_node_base", i64 }
%"struct.std::_Rb_tree_node_base" = type { i32, ptr, ptr, ptr }
%"class.dealii::SmartPointer.32" = type { ptr, ptr }
%"class.dealii::SmartPointer.33" = type { ptr, ptr }
%"class.std::vector.34" = type { %"struct.std::_Vector_base.35" }
%"struct.std::_Vector_base.35" = type { %"struct.std::_Vector_base<dealii::internal::DoFHandler::DoFLevel<3> *, std::allocator<dealii::internal::DoFHandler::DoFLevel<3> *> >::_Vector_impl" }
%"struct.std::_Vector_base<dealii::internal::DoFHandler::DoFLevel<3> *, std::allocator<dealii::internal::DoFHandler::DoFLevel<3> *> >::_Vector_impl" = type { %"struct.std::_Vector_base<dealii::internal::DoFHandler::DoFLevel<3> *, std::allocator<dealii::internal::DoFHandler::DoFLevel<3> *> >::_Vector_impl_data" }
%"struct.std::_Vector_base<dealii::internal::DoFHandler::DoFLevel<3> *, std::allocator<dealii::internal::DoFHandler::DoFLevel<3> *> >::_Vector_impl_data" = type { ptr, ptr, ptr }
%"class.std::vector.39" = type { %"struct.std::_Vector_base.40" }
%"struct.std::_Vector_base.40" = type { %"struct.std::_Vector_base<unsigned int, std::allocator<unsigned int> >::_Vector_impl" }
%"struct.std::_Vector_base<unsigned int, std::allocator<unsigned int> >::_Vector_impl" = type { %"struct.std::_Vector_base<unsigned int, std::allocator<unsigned int> >::_Vector_impl_data" }
%"struct.std::_Vector_base<unsigned int, std::allocator<unsigned int> >::_Vector_impl_data" = type { ptr, ptr, ptr }
%"class.dealii::DataOutFaces" = type { %"class.dealii::DataOut_DoFData.75" }
%"class.dealii::DataOut_DoFData.75" = type { %"class.dealii::DataOutInterface.76", %"class.dealii::SmartPointer", %"class.std::vector.77", %"class.std::vector.77", %"class.std::vector.82" }
%"class.dealii::DataOutInterface.76" = type { ptr, i32, i32, %"struct.dealii::DataOutBase::DXFlags", %"struct.dealii::DataOutBase::UcdFlags", %"struct.dealii::DataOutBase::GnuplotFlags", %"struct.dealii::DataOutBase::PovrayFlags", %"struct.dealii::DataOutBase::EpsFlags", %"struct.dealii::DataOutBase::GmvFlags", %"struct.dealii::DataOutBase::TecplotFlags", %"struct.dealii::DataOutBase::VtkFlags", %"struct.dealii::DataOutBase::Deal_II_IntermediateFlags" }
%"class.std::vector.77" = type { %"struct.std::_Vector_base.78" }
%"struct.std::_Vector_base.78" = type { %"struct.std::_Vector_base<boost::shared_ptr<dealii::DataOut_DoFData<dealii::DoFHandler<3, 3>, 2, 3>::DataEntryBase>, std::allocator<boost::shared_ptr<dealii::DataOut_DoFData<dealii::DoFHandler<3, 3>, 2, 3>::DataEntryBase> > >::_Vector_impl" }
%"struct.std::_Vector_base<boost::shared_ptr<dealii::DataOut_DoFData<dealii::DoFHandler<3, 3>, 2, 3>::DataEntryBase>, std::allocator<boost::shared_ptr<dealii::DataOut_DoFData<dealii::DoFHandler<3, 3>, 2, 3>::DataEntryBase> > >::_Vector_impl" = type { %"struct.std::_Vector_base<boost::shared_ptr<dealii::DataOut_DoFData<dealii::DoFHandler<3, 3>, 2, 3>::DataEntryBase>, std::allocator<boost::shared_ptr<dealii::DataOut_DoFData<dealii::DoFHandler<3, 3>, 2, 3>::DataEntryBase> > >::_Vector_impl_data" }
%"struct.std::_Vector_base<boost::shared_ptr<dealii::DataOut_DoFData<dealii::DoFHandler<3, 3>, 2, 3>::DataEntryBase>, std::allocator<boost::shared_ptr<dealii::DataOut_DoFData<dealii::DoFHandler<3, 3>, 2, 3>::DataEntryBase> > >::_Vector_impl_data" = type { ptr, ptr, ptr }
%"class.std::vector.82" = type { %"struct.std::_Vector_base.83" }
%"struct.std::_Vector_base.83" = type { %"struct.std::_Vector_base<dealii::DataOutBase::Patch<2, 3>, std::allocator<dealii::DataOutBase::Patch<2, 3> > >::_Vector_impl" }
%"struct.std::_Vector_base<dealii::DataOutBase::Patch<2, 3>, std::allocator<dealii::DataOutBase::Patch<2, 3> > >::_Vector_impl" = type { %"struct.std::_Vector_base<dealii::DataOutBase::Patch<2, 3>, std::allocator<dealii::DataOutBase::Patch<2, 3> > >::_Vector_impl_data" }
%"struct.std::_Vector_base<dealii::DataOutBase::Patch<2, 3>, std::allocator<dealii::DataOutBase::Patch<2, 3> > >::_Vector_impl_data" = type { ptr, ptr, ptr }
%"class.METomography::ForwardSolver::Evaluation::SurfaceOutput" = type <{ %"class.METomography::ForwardSolver::Evaluation::EvaluationBase", %"class.std::__cxx11::basic_string", i32, [4 x i8] }>
%"class.METomography::ForwardSolver::Evaluation::BreastPhantomGeometry::DetectorPositions" = type { %"class.METomography::ForwardSolver::Evaluation::EvaluationBase", %"class.std::__cxx11::basic_string" }
%"class.dealii::QTrapez" = type { %"class.dealii::Quadrature" }
%"class.dealii::Quadrature" = type { %"class.dealii::Subscriptor", i32, %"class.std::vector.97", %"class.std::vector.92" }
%"class.std::vector.97" = type { %"struct.std::_Vector_base.98" }
%"struct.std::_Vector_base.98" = type { %"struct.std::_Vector_base<dealii::Point<1>, std::allocator<dealii::Point<1> > >::_Vector_impl" }
%"struct.std::_Vector_base<dealii::Point<1>, std::allocator<dealii::Point<1> > >::_Vector_impl" = type { %"struct.std::_Vector_base<dealii::Point<1>, std::allocator<dealii::Point<1> > >::_Vector_impl_data" }
%"struct.std::_Vector_base<dealii::Point<1>, std::allocator<dealii::Point<1> > >::_Vector_impl_data" = type { ptr, ptr, ptr }
%"class.std::vector.92" = type { %"struct.std::_Vector_base.93" }
%"struct.std::_Vector_base.93" = type { %"struct.std::_Vector_base<double, std::allocator<double> >::_Vector_impl" }
%"struct.std::_Vector_base<double, std::allocator<double> >::_Vector_impl" = type { %"struct.std::_Vector_base<double, std::allocator<double> >::_Vector_impl_data" }
%"struct.std::_Vector_base<double, std::allocator<double> >::_Vector_impl_data" = type { ptr, ptr, ptr }
%"class.dealii::QIterated" = type { %"class.dealii::Quadrature.102" }
%"class.dealii::Quadrature.102" = type { %"class.dealii::Subscriptor", i32, %"class.std::vector.60", %"class.std::vector.92" }
%"class.std::vector.60" = type { %"struct.std::_Vector_base.61" }
%"struct.std::_Vector_base.61" = type { %"struct.std::_Vector_base<dealii::Point<3>, std::allocator<dealii::Point<3> > >::_Vector_impl" }
%"struct.std::_Vector_base<dealii::Point<3>, std::allocator<dealii::Point<3> > >::_Vector_impl" = type { %"struct.std::_Vector_base<dealii::Point<3>, std::allocator<dealii::Point<3> > >::_Vector_impl_data" }
%"struct.std::_Vector_base<dealii::Point<3>, std::allocator<dealii::Point<3> > >::_Vector_impl_data" = type { ptr, ptr, ptr }
%"class.dealii::FEValues" = type { %"class.dealii::FEValuesBase", %"class.dealii::Quadrature.102" }
%"class.dealii::FEValuesBase" = type { %"class.dealii::Subscriptor", %"class.dealii::FEValuesData.base", i32, i32, %"class.std::auto_ptr", %"class.dealii::SmartPointer.128", %"class.dealii::SmartPointer.33", %"class.dealii::SmartPointer.129", %"class.dealii::SmartPointer.129", i32, %"struct.dealii::internal::FEValuesViews::Cache" }
%"class.dealii::FEValuesData.base" = type <{ %"class.dealii::Table", %"class.std::vector.103", %"class.std::vector.108", %"class.std::vector.92", %"class.std::vector.113", %"class.std::vector.118", %"class.std::vector.113", %"class.std::vector.60", %"class.std::vector.60", %"class.std::vector.60", %"class.std::vector.123", %"class.std::vector.60", %"class.std::vector.108", %"class.std::vector.108", %"class.std::vector.39", i32 }>
%"class.dealii::Table" = type { %"class.dealii::TableBase.base", [4 x i8] }
%"class.dealii::TableBase.base" = type <{ %"class.dealii::Subscriptor", ptr, i32, %"class.dealii::TableIndices" }>
%"class.dealii::TableIndices" = type { %"class.dealii::TableIndicesBase" }
%"class.dealii::TableIndicesBase" = type { [2 x i32] }
%"class.std::vector.103" = type { %"struct.std::_Vector_base.104" }
%"struct.std::_Vector_base.104" = type { %"struct.std::_Vector_base<std::vector<dealii::Tensor<1, 3> >, std::allocator<std::vector<dealii::Tensor<1, 3> > > >::_Vector_impl" }
%"struct.std::_Vector_base<std::vector<dealii::Tensor<1, 3> >, std::allocator<std::vector<dealii::Tensor<1, 3> > > >::_Vector_impl" = type { %"struct.std::_Vector_base<std::vector<dealii::Tensor<1, 3> >, std::allocator<std::vector<dealii::Tensor<1, 3> > > >::_Vector_impl_data" }
%"struct.std::_Vector_base<std::vector<dealii::Tensor<1, 3> >, std::allocator<std::vector<dealii::Tensor<1, 3> > > >::_Vector_impl_data" = type { ptr, ptr, ptr }
%"class.std::vector.118" = type { %"struct.std::_Vector_base.119" }
%"struct.std::_Vector_base.119" = type { %"struct.std::_Vector_base<dealii::Tensor<3, 3>, std::allocator<dealii::Tensor<3, 3> > >::_Vector_impl" }
%"struct.std::_Vector_base<dealii::Tensor<3, 3>, std::allocator<dealii::Tensor<3, 3> > >::_Vector_impl" = type { %"struct.std::_Vector_base<dealii::Tensor<3, 3>, std::allocator<dealii::Tensor<3, 3> > >::_Vector_impl_data" }
%"struct.std::_Vector_base<dealii::Tensor<3, 3>, std::allocator<dealii::Tensor<3, 3> > >::_Vector_impl_data" = type { ptr, ptr, ptr }
%"class.std::vector.113" = type { %"struct.std::_Vector_base.114" }
%"struct.std::_Vector_base.114" = type { %"struct.std::_Vector_base<dealii::Tensor<2, 3>, std::allocator<dealii::Tensor<2, 3> > >::_Vector_impl" }
%"struct.std::_Vector_base<dealii::Tensor<2, 3>, std::allocator<dealii::Tensor<2, 3> > >::_Vector_impl" = type { %"struct.std::_Vector_base<dealii::Tensor<2, 3>, std::allocator<dealii::Tensor<2, 3> > >::_Vector_impl_data" }
%"struct.std::_Vector_base<dealii::Tensor<2, 3>, std::allocator<dealii::Tensor<2, 3> > >::_Vector_impl_data" = type { ptr, ptr, ptr }
%"class.std::vector.123" = type { %"struct.std::_Vector_base.124" }
%"struct.std::_Vector_base.124" = type { %"struct.std::_Vector_base<dealii::Tensor<1, 3>, std::allocator<dealii::Tensor<1, 3> > >::_Vector_impl" }
%"struct.std::_Vector_base<dealii::Tensor<1, 3>, std::allocator<dealii::Tensor<1, 3> > >::_Vector_impl" = type { %"struct.std::_Vector_base<dealii::Tensor<1, 3>, std::allocator<dealii::Tensor<1, 3> > >::_Vector_impl_data" }
%"struct.std::_Vector_base<dealii::Tensor<1, 3>, std::allocator<dealii::Tensor<1, 3> > >::_Vector_impl_data" = type { ptr, ptr, ptr }
%"class.std::vector.108" = type { %"struct.std::_Vector_base.109" }
%"struct.std::_Vector_base.109" = type { %"struct.std::_Vector_base<std::vector<dealii::Tensor<2, 3> >, std::allocator<std::vector<dealii::Tensor<2, 3> > > >::_Vector_impl" }
%"struct.std::_Vector_base<std::vector<dealii::Tensor<2, 3> >, std::allocator<std::vector<dealii::Tensor<2, 3> > > >::_Vector_impl" = type { %"struct.std::_Vector_base<std::vector<dealii::Tensor<2, 3> >, std::allocator<std::vector<dealii::Tensor<2, 3> > > >::_Vector_impl_data" }
%"struct.std::_Vector_base<std::vector<dealii::Tensor<2, 3> >, std::allocator<std::vector<dealii::Tensor<2, 3> > > >::_Vector_impl_data" = type { ptr, ptr, ptr }
%"class.std::auto_ptr" = type { ptr }
%"class.dealii::SmartPointer.128" = type { ptr, ptr }
%"class.dealii::SmartPointer.129" = type { ptr, ptr }
%"struct.dealii::internal::FEValuesViews::Cache" = type { %"class.std::vector.130", %"class.std::vector.135" }
%"class.std::vector.130" = type { %"struct.std::_Vector_base.131" }
%"struct.std::_Vector_base.131" = type { %"struct.std::_Vector_base<dealii::FEValuesViews::Scalar<3, 3>, std::allocator<dealii::FEValuesViews::Scalar<3, 3> > >::_Vector_impl" }
%"struct.std::_Vector_base<dealii::FEValuesViews::Scalar<3, 3>, std::allocator<dealii::FEValuesViews::Scalar<3, 3> > >::_Vector_impl" = type { %"struct.std::_Vector_base<dealii::FEValuesViews::Scalar<3, 3>, std::allocator<dealii::FEValuesViews::Scalar<3, 3> > >::_Vector_impl_data" }
%"struct.std::_Vector_base<dealii::FEValuesViews::Scalar<3, 3>, std::allocator<dealii::FEValuesViews::Scalar<3, 3> > >::_Vector_impl_data" = type { ptr, ptr, ptr }
%"class.std::vector.135" = type { %"struct.std::_Vector_base.136" }
%"struct.std::_Vector_base.136" = type { %"struct.std::_Vector_base<dealii::FEValuesViews::Vector<3, 3>, std::allocator<dealii::FEValuesViews::Vector<3, 3> > >::_Vector_impl" }
%"struct.std::_Vector_base<dealii::FEValuesViews::Vector<3, 3>, std::allocator<dealii::FEValuesViews::Vector<3, 3> > >::_Vector_impl" = type { %"struct.std::_Vector_base<dealii::FEValuesViews::Vector<3, 3>, std::allocator<dealii::FEValuesViews::Vector<3, 3> > >::_Vector_impl_data" }
%"struct.std::_Vector_base<dealii::FEValuesViews::Vector<3, 3>, std::allocator<dealii::FEValuesViews::Vector<3, 3> > >::_Vector_impl_data" = type { ptr, ptr, ptr }
%"class.std::vector.174" = type { %"struct.std::_Vector_base.175" }
%"struct.std::_Vector_base.175" = type { %"struct.std::_Vector_base<dealii::Vector<double>, std::allocator<dealii::Vector<double> > >::_Vector_impl" }
%"struct.std::_Vector_base<dealii::Vector<double>, std::allocator<dealii::Vector<double> > >::_Vector_impl" = type { %"struct.std::_Vector_base<dealii::Vector<double>, std::allocator<dealii::Vector<double> > >::_Vector_impl_data" }
%"struct.std::_Vector_base<dealii::Vector<double>, std::allocator<dealii::Vector<double> > >::_Vector_impl_data" = type { ptr, ptr, ptr }
%"class.dealii::Vector" = type { %"class.dealii::Subscriptor", i32, i32, ptr }
%"class.std::allocator.176" = type { i8 }
%"class.dealii::TriaActiveIterator" = type { %"class.dealii::TriaIterator" }
%"class.dealii::TriaIterator" = type { %"class.dealii::TriaRawIterator" }
%"class.dealii::TriaRawIterator" = type { %"class.dealii::DoFCellAccessor" }
%"class.dealii::DoFCellAccessor" = type { %"class.dealii::DoFAccessor" }
%"class.dealii::DoFAccessor" = type { %"class.dealii::CellAccessor", ptr }
%"class.dealii::CellAccessor" = type { %"class.dealii::TriaAccessor" }
%"class.dealii::TriaAccessor" = type { %"class.dealii::TriaAccessorBase" }
%"class.dealii::TriaAccessorBase" = type { i32, i32, ptr }
%"class.dealii::StandardExceptions::ExcMessage" = type { %"class.dealii::ExceptionBase.base", ptr }
%"class.dealii::ExceptionBase.base" = type <{ %"class.std::exception", ptr, i32, [4 x i8], ptr, ptr, ptr, ptr, i32 }>
%"class.std::exception" = type { ptr }
%"class.dealii::Triangulation" = type { %"class.dealii::Subscriptor", %"class.std::vector.55", ptr, %"class.std::vector.60", %"class.std::vector.65", [255 x %"class.dealii::SmartPointer.69"], [255 x %"class.dealii::SmartPointer.69"], i8, i32, %"struct.dealii::internal::Triangulation::NumberCache", %"class.std::__cxx11::list" }
%"class.std::vector.55" = type { %"struct.std::_Vector_base.56" }
%"struct.std::_Vector_base.56" = type { %"struct.std::_Vector_base<dealii::internal::Triangulation::TriaLevel<3> *, std::allocator<dealii::internal::Triangulation::TriaLevel<3> *> >::_Vector_impl" }
%"struct.std::_Vector_base<dealii::internal::Triangulation::TriaLevel<3> *, std::allocator<dealii::internal::Triangulation::TriaLevel<3> *> >::_Vector_impl" = type { %"struct.std::_Vector_base<dealii::internal::Triangulation::TriaLevel<3> *, std::allocator<dealii::internal::Triangulation::TriaLevel<3> *> >::_Vector_impl_data" }
%"struct.std::_Vector_base<dealii::internal::Triangulation::TriaLevel<3> *, std::allocator<dealii::internal::Triangulation::TriaLevel<3> *> >::_Vector_impl_data" = type { ptr, ptr, ptr }
%"class.std::vector.65" = type { %"struct.std::_Bvector_base" }
%"struct.std::_Bvector_base" = type { %"struct.std::_Bvector_base<std::allocator<bool> >::_Bvector_impl" }
%"struct.std::_Bvector_base<std::allocator<bool> >::_Bvector_impl" = type { %"struct.std::_Bvector_base<std::allocator<bool> >::_Bvector_impl_data" }
%"struct.std::_Bvector_base<std::allocator<bool> >::_Bvector_impl_data" = type { %"struct.std::_Bit_iterator", %"struct.std::_Bit_iterator", ptr }
%"struct.std::_Bit_iterator" = type { %"struct.std::_Bit_iterator_base.base", [4 x i8] }
%"struct.std::_Bit_iterator_base.base" = type <{ ptr, i32 }>
%"class.dealii::SmartPointer.69" = type { ptr, ptr }
%"struct.dealii::internal::Triangulation::NumberCache" = type { %"struct.dealii::internal::Triangulation::NumberCache.70", i32, %"class.std::vector.39", i32, %"class.std::vector.39" }
%"struct.dealii::internal::Triangulation::NumberCache.70" = type { %"struct.dealii::internal::Triangulation::NumberCache.71", i32, %"class.std::vector.39", i32, %"class.std::vector.39" }
%"struct.dealii::internal::Triangulation::NumberCache.71" = type { i32, %"class.std::vector.39", i32, %"class.std::vector.39" }
%"class.std::__cxx11::list" = type { %"class.std::__cxx11::_List_base" }
%"class.std::__cxx11::_List_base" = type { %"struct.std::__cxx11::_List_base<dealii::Triangulation<3, 3>::RefinementListener *, std::allocator<dealii::Triangulation<3, 3>::RefinementListener *> >::_List_impl" }
%"struct.std::__cxx11::_List_base<dealii::Triangulation<3, 3>::RefinementListener *, std::allocator<dealii::Triangulation<3, 3>::RefinementListener *> >::_List_impl" = type { %"struct.std::__detail::_List_node_header" }
%"struct.std::__detail::_List_node_header" = type { %"struct.std::__detail::_List_node_base", i64 }
%"struct.std::__detail::_List_node_base" = type { ptr, ptr }
%"class.dealii::internal::Triangulation::TriaLevel" = type { %"class.std::vector.195", %"class.std::vector.65", %"class.std::vector.200", %"class.std::vector.39", %"class.dealii::internal::Triangulation::TriaObjectsHex" }
%"class.std::vector.195" = type { %"struct.std::_Vector_base.196" }
%"struct.std::_Vector_base.196" = type { %"struct.std::_Vector_base<unsigned char, std::allocator<unsigned char> >::_Vector_impl" }
%"struct.std::_Vector_base<unsigned char, std::allocator<unsigned char> >::_Vector_impl" = type { %"struct.std::_Vector_base<unsigned char, std::allocator<unsigned char> >::_Vector_impl_data" }
%"struct.std::_Vector_base<unsigned char, std::allocator<unsigned char> >::_Vector_impl_data" = type { ptr, ptr, ptr }
%"class.std::vector.200" = type { %"struct.std::_Vector_base.201" }
%"struct.std::_Vector_base.201" = type { %"struct.std::_Vector_base<std::pair<int, int>, std::allocator<std::pair<int, int> > >::_Vector_impl" }
%"struct.std::_Vector_base<std::pair<int, int>, std::allocator<std::pair<int, int> > >::_Vector_impl" = type { %"struct.std::_Vector_base<std::pair<int, int>, std::allocator<std::pair<int, int> > >::_Vector_impl_data" }
%"struct.std::_Vector_base<std::pair<int, int>, std::allocator<std::pair<int, int> > >::_Vector_impl_data" = type { ptr, ptr, ptr }
%"class.dealii::internal::Triangulation::TriaObjectsHex" = type { %"class.dealii::internal::Triangulation::TriaObjects.base", %"class.std::vector.65", %"class.std::vector.65", %"class.std::vector.65" }
%"class.dealii::internal::Triangulation::TriaObjects.base" = type <{ %"class.std::vector.205", %"class.std::vector.154", %"class.std::vector.210", %"class.std::vector.65", %"class.std::vector.65", %"class.std::vector.195", i32, i32, i8, [7 x i8], %"class.std::vector.215", i32 }>
%"class.std::vector.205" = type { %"struct.std::_Vector_base.206" }
%"struct.std::_Vector_base.206" = type { %"struct.std::_Vector_base<dealii::internal::Triangulation::TriaObject<3>, std::allocator<dealii::internal::Triangulation::TriaObject<3> > >::_Vector_impl" }
%"struct.std::_Vector_base<dealii::internal::Triangulation::TriaObject<3>, std::allocator<dealii::internal::Triangulation::TriaObject<3> > >::_Vector_impl" = type { %"struct.std::_Vector_base<dealii::internal::Triangulation::TriaObject<3>, std::allocator<dealii::internal::Triangulation::TriaObject<3> > >::_Vector_impl_data" }
%"struct.std::_Vector_base<dealii::internal::Triangulation::TriaObject<3>, std::allocator<dealii::internal::Triangulation::TriaObject<3> > >::_Vector_impl_data" = type { ptr, ptr, ptr }
%"class.std::vector.154" = type { %"struct.std::_Vector_base.155" }
%"struct.std::_Vector_base.155" = type { %"struct.std::_Vector_base<int, std::allocator<int> >::_Vector_impl" }
%"struct.std::_Vector_base<int, std::allocator<int> >::_Vector_impl" = type { %"struct.std::_Vector_base<int, std::allocator<int> >::_Vector_impl_data" }
%"struct.std::_Vector_base<int, std::allocator<int> >::_Vector_impl_data" = type { ptr, ptr, ptr }
%"class.std::vector.210" = type { %"struct.std::_Vector_base.211" }
%"struct.std::_Vector_base.211" = type { %"struct.std::_Vector_base<dealii::RefinementCase<3>, std::allocator<dealii::RefinementCase<3> > >::_Vector_impl" }
%"struct.std::_Vector_base<dealii::RefinementCase<3>, std::allocator<dealii::RefinementCase<3> > >::_Vector_impl" = type { %"struct.std::_Vector_base<dealii::RefinementCase<3>, std::allocator<dealii::RefinementCase<3> > >::_Vector_impl_data" }
%"struct.std::_Vector_base<dealii::RefinementCase<3>, std::allocator<dealii::RefinementCase<3> > >::_Vector_impl_data" = type { ptr, ptr, ptr }
%"class.std::vector.215" = type { %"struct.std::_Vector_base.216" }
%"struct.std::_Vector_base.216" = type { %"struct.std::_Vector_base<dealii::internal::Triangulation::TriaObjects<dealii::internal::Triangulation::TriaObject<3> >::UserData, std::allocator<dealii::internal::Triangulation::TriaObjects<dealii::internal::Triangulation::TriaObject<3> >::UserData> >::_Vector_impl" }
%"struct.std::_Vector_base<dealii::internal::Triangulation::TriaObjects<dealii::internal::Triangulation::TriaObject<3> >::UserData, std::allocator<dealii::internal::Triangulation::TriaObjects<dealii::internal::Triangulation::TriaObject<3> >::UserData> >::_Vector_impl" = type { %"struct.std::_Vector_base<dealii::internal::Triangulation::TriaObjects<dealii::internal::Triangulation::TriaObject<3> >::UserData, std::allocator<dealii::internal::Triangulation::TriaObjects<dealii::internal::Triangulation::TriaObject<3> >::UserData> >::_Vector_impl_data" }
%"struct.std::_Vector_base<dealii::internal::Triangulation::TriaObjects<dealii::internal::Triangulation::TriaObject<3> >::UserData, std::allocator<dealii::internal::Triangulation::TriaObjects<dealii::internal::Triangulation::TriaObject<3> >::UserData> >::_Vector_impl_data" = type { ptr, ptr, ptr }
%"class.std::complex" = type { { double, double } }
%"class.std::ctype" = type <{ %"class.std::locale::facet.base", [4 x i8], ptr, i8, [7 x i8], ptr, ptr, ptr, i8, [256 x i8], [256 x i8], i8, [6 x i8] }>
%"class.std::locale::facet.base" = type <{ ptr, i32 }>
%"class.dealii::internal::Triangulation::TriaObject" = type { [6 x i32] }
%"class.dealii::internal::Triangulation::TriaObject.247" = type { [4 x i32] }
%"class.dealii::internal::Triangulation::TriaObjectsQuad3D" = type { %"class.dealii::internal::Triangulation::TriaObjects.base.246", %"class.std::vector.65" }
%"class.dealii::internal::Triangulation::TriaObjects.base.246" = type <{ %"class.std::vector.231", %"class.std::vector.154", %"class.std::vector.236", %"class.std::vector.65", %"class.std::vector.65", %"class.std::vector.195", i32, i32, i8, [7 x i8], %"class.std::vector.241", i32 }>
%"class.std::vector.231" = type { %"struct.std::_Vector_base.232" }
%"struct.std::_Vector_base.232" = type { %"struct.std::_Vector_base<dealii::internal::Triangulation::TriaObject<2>, std::allocator<dealii::internal::Triangulation::TriaObject<2> > >::_Vector_impl" }
%"struct.std::_Vector_base<dealii::internal::Triangulation::TriaObject<2>, std::allocator<dealii::internal::Triangulation::TriaObject<2> > >::_Vector_impl" = type { %"struct.std::_Vector_base<dealii::internal::Triangulation::TriaObject<2>, std::allocator<dealii::internal::Triangulation::TriaObject<2> > >::_Vector_impl_data" }
%"struct.std::_Vector_base<dealii::internal::Triangulation::TriaObject<2>, std::allocator<dealii::internal::Triangulation::TriaObject<2> > >::_Vector_impl_data" = type { ptr, ptr, ptr }
%"class.std::vector.236" = type { %"struct.std::_Vector_base.237" }
%"struct.std::_Vector_base.237" = type { %"struct.std::_Vector_base<dealii::RefinementCase<2>, std::allocator<dealii::RefinementCase<2> > >::_Vector_impl" }
%"struct.std::_Vector_base<dealii::RefinementCase<2>, std::allocator<dealii::RefinementCase<2> > >::_Vector_impl" = type { %"struct.std::_Vector_base<dealii::RefinementCase<2>, std::allocator<dealii::RefinementCase<2> > >::_Vector_impl_data" }
%"struct.std::_Vector_base<dealii::RefinementCase<2>, std::allocator<dealii::RefinementCase<2> > >::_Vector_impl_data" = type { ptr, ptr, ptr }
%"class.std::vector.241" = type { %"struct.std::_Vector_base.242" }
%"struct.std::_Vector_base.242" = type { %"struct.std::_Vector_base<dealii::internal::Triangulation::TriaObjects<dealii::internal::Triangulation::TriaObject<2> >::UserData, std::allocator<dealii::internal::Triangulation::TriaObjects<dealii::internal::Triangulation::TriaObject<2> >::UserData> >::_Vector_impl" }
%"struct.std::_Vector_base<dealii::internal::Triangulation::TriaObjects<dealii::internal::Triangulation::TriaObject<2> >::UserData, std::allocator<dealii::internal::Triangulation::TriaObjects<dealii::internal::Triangulation::TriaObject<2> >::UserData> >::_Vector_impl" = type { %"struct.std::_Vector_base<dealii::internal::Triangulation::TriaObjects<dealii::internal::Triangulation::TriaObject<2> >::UserData, std::allocator<dealii::internal::Triangulation::TriaObjects<dealii::internal::Triangulation::TriaObject<2> >::UserData> >::_Vector_impl_data" }
%"struct.std::_Vector_base<dealii::internal::Triangulation::TriaObjects<dealii::internal::Triangulation::TriaObject<2> >::UserData, std::allocator<dealii::internal::Triangulation::TriaObjects<dealii::internal::Triangulation::TriaObject<2> >::UserData> >::_Vector_impl_data" = type { ptr, ptr, ptr }
%"class.dealii::internal::Triangulation::TriaFaces" = type { %"class.dealii::internal::Triangulation::TriaObjectsQuad3D", %"class.dealii::internal::Triangulation::TriaObjects.248" }
%"class.dealii::internal::Triangulation::TriaObjects.248" = type <{ %"class.std::vector.249", %"class.std::vector.154", %"class.std::vector.254", %"class.std::vector.65", %"class.std::vector.65", %"class.std::vector.195", i32, i32, i8, [7 x i8], %"class.std::vector.259", i32, [4 x i8] }>
%"class.std::vector.249" = type { %"struct.std::_Vector_base.250" }
%"struct.std::_Vector_base.250" = type { %"struct.std::_Vector_base<dealii::internal::Triangulation::TriaObject<1>, std::allocator<dealii::internal::Triangulation::TriaObject<1> > >::_Vector_impl" }
%"struct.std::_Vector_base<dealii::internal::Triangulation::TriaObject<1>, std::allocator<dealii::internal::Triangulation::TriaObject<1> > >::_Vector_impl" = type { %"struct.std::_Vector_base<dealii::internal::Triangulation::TriaObject<1>, std::allocator<dealii::internal::Triangulation::TriaObject<1> > >::_Vector_impl_data" }
%"struct.std::_Vector_base<dealii::internal::Triangulation::TriaObject<1>, std::allocator<dealii::internal::Triangulation::TriaObject<1> > >::_Vector_impl_data" = type { ptr, ptr, ptr }
%"class.std::vector.254" = type { %"struct.std::_Vector_base.255" }
%"struct.std::_Vector_base.255" = type { %"struct.std::_Vector_base<dealii::RefinementCase<1>, std::allocator<dealii::RefinementCase<1> > >::_Vector_impl" }
%"struct.std::_Vector_base<dealii::RefinementCase<1>, std::allocator<dealii::RefinementCase<1> > >::_Vector_impl" = type { %"struct.std::_Vector_base<dealii::RefinementCase<1>, std::allocator<dealii::RefinementCase<1> > >::_Vector_impl_data" }
%"struct.std::_Vector_base<dealii::RefinementCase<1>, std::allocator<dealii::RefinementCase<1> > >::_Vector_impl_data" = type { ptr, ptr, ptr }
%"class.std::vector.259" = type { %"struct.std::_Vector_base.260" }
%"struct.std::_Vector_base.260" = type { %"struct.std::_Vector_base<dealii::internal::Triangulation::TriaObjects<dealii::internal::Triangulation::TriaObject<1> >::UserData, std::allocator<dealii::internal::Triangulation::TriaObjects<dealii::internal::Triangulation::TriaObject<1> >::UserData> >::_Vector_impl" }
%"struct.std::_Vector_base<dealii::internal::Triangulation::TriaObjects<dealii::internal::Triangulation::TriaObject<1> >::UserData, std::allocator<dealii::internal::Triangulation::TriaObjects<dealii::internal::Triangulation::TriaObject<1> >::UserData> >::_Vector_impl" = type { %"struct.std::_Vector_base<dealii::internal::Triangulation::TriaObjects<dealii::internal::Triangulation::TriaObject<1> >::UserData, std::allocator<dealii::internal::Triangulation::TriaObjects<dealii::internal::Triangulation::TriaObject<1> >::UserData> >::_Vector_impl_data" }
%"struct.std::_Vector_base<dealii::internal::Triangulation::TriaObjects<dealii::internal::Triangulation::TriaObject<1> >::UserData, std::allocator<dealii::internal::Triangulation::TriaObjects<dealii::internal::Triangulation::TriaObject<1> >::UserData> >::_Vector_impl_data" = type { ptr, ptr, ptr }
%"class.dealii::internal::Triangulation::TriaObject.265" = type { [2 x i32] }
%"class.std::__cxx11::list.180" = type { %"class.std::__cxx11::_List_base.181" }
%"class.std::__cxx11::_List_base.181" = type { %"struct.std::__cxx11::_List_base<boost::shared_ptr<METomography::ForwardSolver::Evaluation::EvaluationBase<3> >, std::allocator<boost::shared_ptr<METomography::ForwardSolver::Evaluation::EvaluationBase<3> > > >::_List_impl" }
%"struct.std::__cxx11::_List_base<boost::shared_ptr<METomography::ForwardSolver::Evaluation::EvaluationBase<3> >, std::allocator<boost::shared_ptr<METomography::ForwardSolver::Evaluation::EvaluationBase<3> > > >::_List_impl" = type { %"struct.std::__detail::_List_node_header" }
%"class.boost::shared_ptr" = type { ptr, %"class.boost::detail::shared_count" }
%"class.boost::detail::shared_count" = type { ptr }
%"class.METomography::ForwardSolver::Parameters" = type <{ %"struct.METomography::ExperimentDescription<3>::Parameters", %"class.std::__cxx11::basic_string", %"class.std::__cxx11::basic_string", %"class.std::__cxx11::basic_string", i32, i32, %"class.std::__cxx11::basic_string", %"class.std::__cxx11::basic_string", i32, i32, %"class.std::__cxx11::basic_string", i32, [4 x i8] }>
%"struct.METomography::ExperimentDescription<3>::Parameters" = type { %"class.std::__cxx11::basic_string" }
%"class.boost::detail::sp_counted_base" = type { ptr, i64, i64 }
%"class.boost::detail::sp_counted_impl_p" = type { %"class.boost::detail::sp_counted_base", ptr }
%"struct.std::_List_node" = type { %"struct.std::__detail::_List_node_base", %"class.boost::shared_ptr" }
%"class.boost::detail::sp_counted_impl_p.267" = type { %"class.boost::detail::sp_counted_base", ptr }
%"class.boost::detail::sp_counted_impl_p.268" = type { %"class.boost::detail::sp_counted_base", ptr }
%"class.boost::detail::sp_counted_impl_p.269" = type { %"class.boost::detail::sp_counted_base", ptr }
%"class.std::vector.185" = type { %"struct.std::_Vector_base.186" }
%"struct.std::_Vector_base.186" = type { %"struct.std::_Vector_base<boost::tuples::tuple<unsigned int, unsigned int, std::__cxx11::basic_string<char> >, std::allocator<boost::tuples::tuple<unsigned int, unsigned int, std::__cxx11::basic_string<char> > > >::_Vector_impl" }
%"struct.std::_Vector_base<boost::tuples::tuple<unsigned int, unsigned int, std::__cxx11::basic_string<char> >, std::allocator<boost::tuples::tuple<unsigned int, unsigned int, std::__cxx11::basic_string<char> > > >::_Vector_impl" = type { %"struct.std::_Vector_base<boost::tuples::tuple<unsigned int, unsigned int, std::__cxx11::basic_string<char> >, std::allocator<boost::tuples::tuple<unsigned int, unsigned int, std::__cxx11::basic_string<char> > > >::_Vector_impl_data" }
%"struct.std::_Vector_base<boost::tuples::tuple<unsigned int, unsigned int, std::__cxx11::basic_string<char> >, std::allocator<boost::tuples::tuple<unsigned int, unsigned int, std::__cxx11::basic_string<char> > > >::_Vector_impl_data" = type { ptr, ptr, ptr }

$_ZN12METomography13ForwardSolver10Evaluation14EvaluationBaseILi3EED5Ev = comdat any

$_ZN12METomography13ForwardSolver10Evaluation14SolutionOutputILi3EEC5ERKNSt7__cxx1112basic_stringIcSt11char_traitsIcESaIcEEESB_ = comdat any

$__clang_call_terminate = comdat any

$_ZNK12METomography13ForwardSolver10Evaluation14SolutionOutputILi3EE8evaluateERKN6dealii10DoFHandlerILi3ELi3EEERKNS4_6VectorIdEEjjj = comdat any

$_ZNSt6vectorINSt7__cxx1112basic_stringIcSt11char_traitsIcESaIcEEESaIS5_EED2Ev = comdat any

$_ZN12METomography13ForwardSolver10Evaluation10MeshOutputILi3EEC5ERKNSt7__cxx1112basic_stringIcSt11char_traitsIcESaIcEEE = comdat any

$_ZNK12METomography13ForwardSolver10Evaluation10MeshOutputILi3EE8evaluateERKN6dealii10DoFHandlerILi3ELi3EEERKNS4_6VectorIdEEjjj = comdat any

$_ZN12METomography13ForwardSolver10Evaluation13SurfaceOutputILi3EEC5ERKNSt7__cxx1112basic_stringIcSt11char_traitsIcESaIcEEESB_ = comdat any

$_ZNK12METomography13ForwardSolver10Evaluation13SurfaceOutputILi3EE8evaluateERKN6dealii10DoFHandlerILi3ELi3EEERKNS4_6VectorIdEEjjj = comdat any

$_ZN12METomography13ForwardSolver10Evaluation21BreastPhantomGeometry17DetectorPositionsILi3EEC5ERKNSt7__cxx1112basic_stringIcSt11char_traitsIcESaIcEEE = comdat any

$_ZNK12METomography13ForwardSolver10Evaluation21BreastPhantomGeometry17DetectorPositionsILi3EE8evaluateERKN6dealii10DoFHandlerILi3ELi3EEERKNS5_6VectorIdEEjjj = comdat any

$_ZNSt6vectorIN6dealii6VectorIdEESaIS2_EEC2EmRKS2_RKS3_ = comdat any

$_ZN6dealii6VectorIdED2Ev = comdat any

$_ZNK6dealii12TriaAccessorILi3ELi3ELi3EE8diameterEv = comdat any

$_ZNK6dealii12TriaAccessorILi3ELi3ELi3EE6centerEv = comdat any

$_ZN6dealii8FEValuesILi3ELi3EED2Ev = comdat any

$_ZN12METomography13ForwardSolver10Evaluation18get_evaluator_listILi3EEENS1_13EvaluatorListIXT_EE4typeERKNS0_10ParametersIXT_EEE = comdat any

$_ZN5boost10shared_ptrIN12METomography13ForwardSolver10Evaluation14EvaluationBaseILi3EEEED2Ev = comdat any

$_ZNSt7__cxx1110_List_baseIN5boost10shared_ptrIN12METomography13ForwardSolver10Evaluation14EvaluationBaseILi3EEEEESaIS8_EED2Ev = comdat any

$_ZN12METomography13ForwardSolver10Evaluation14SolutionOutputILi3EED2Ev = comdat any

$_ZN12METomography13ForwardSolver10Evaluation14SolutionOutputILi3EED0Ev = comdat any

$_ZN12METomography13ForwardSolver10Evaluation10MeshOutputILi3EED2Ev = comdat any

$_ZN12METomography13ForwardSolver10Evaluation10MeshOutputILi3EED0Ev = comdat any

$_ZN12METomography13ForwardSolver10Evaluation13SurfaceOutputILi3EED2Ev = comdat any

$_ZN12METomography13ForwardSolver10Evaluation13SurfaceOutputILi3EED0Ev = comdat any

$_ZN12METomography13ForwardSolver10Evaluation21BreastPhantomGeometry17DetectorPositionsILi3EED2Ev = comdat any

$_ZN12METomography13ForwardSolver10Evaluation21BreastPhantomGeometry17DetectorPositionsILi3EED0Ev = comdat any

$_ZN6dealii7DataOutILi3ENS_10DoFHandlerILi3ELi3EEEED0Ev = comdat any

$_ZN6dealii12DataOutFacesILi3ENS_10DoFHandlerILi3ELi3EEEED0Ev = comdat any

$_ZN6dealii18StandardExceptions10ExcMessageD0Ev = comdat any

$_ZNK6dealii18StandardExceptions10ExcMessage10print_infoERSo = comdat any

$_ZN6dealii8FEValuesILi3ELi3EED0Ev = comdat any

$_ZNSt6vectorINSt7__cxx1112basic_stringIcSt11char_traitsIcESaIcEEESaIS5_EE17_M_realloc_insertEN9__gnu_cxx17__normal_iteratorIPS5_S7_EERKS5_ = comdat any

$_ZSt16__do_uninit_copyIPNSt7__cxx1112basic_stringIcSt11char_traitsIcESaIcEEES6_ET0_T_S8_S7_ = comdat any

$_ZN6dealii6VectorIdED0Ev = comdat any

$_ZN6dealii6VectorIdE6reinitEjb = comdat any

$_ZN6dealii6VectorIdE4swapERS1_ = comdat any

$_ZN5boost6detail17sp_counted_impl_pIN12METomography13ForwardSolver10Evaluation14SolutionOutputILi3EEEED0Ev = comdat any

$_ZN5boost6detail17sp_counted_impl_pIN12METomography13ForwardSolver10Evaluation14SolutionOutputILi3EEEE7disposeEv = comdat any

$_ZN5boost6detail15sp_counted_base7destroyEv = comdat any

$_ZN5boost6detail17sp_counted_impl_pIN12METomography13ForwardSolver10Evaluation14SolutionOutputILi3EEEE11get_deleterERKSt9type_info = comdat any

$_ZN5boost6detail17sp_counted_impl_pIN12METomography13ForwardSolver10Evaluation10MeshOutputILi3EEEED0Ev = comdat any

$_ZN5boost6detail17sp_counted_impl_pIN12METomography13ForwardSolver10Evaluation10MeshOutputILi3EEEE7disposeEv = comdat any

$_ZN5boost6detail17sp_counted_impl_pIN12METomography13ForwardSolver10Evaluation10MeshOutputILi3EEEE11get_deleterERKSt9type_info = comdat any

$_ZN5boost6detail17sp_counted_impl_pIN12METomography13ForwardSolver10Evaluation13SurfaceOutputILi3EEEED0Ev = comdat any

$_ZN5boost6detail17sp_counted_impl_pIN12METomography13ForwardSolver10Evaluation13SurfaceOutputILi3EEEE7disposeEv = comdat any

$_ZN5boost6detail17sp_counted_impl_pIN12METomography13ForwardSolver10Evaluation13SurfaceOutputILi3EEEE11get_deleterERKSt9type_info = comdat any

$_ZN5boost6detail15sp_counted_baseD2Ev = comdat any

$_ZN5boost6detail17sp_counted_impl_pIN12METomography13ForwardSolver10Evaluation21BreastPhantomGeometry17DetectorPositionsILi3EEEED0Ev = comdat any

$_ZN5boost6detail17sp_counted_impl_pIN12METomography13ForwardSolver10Evaluation21BreastPhantomGeometry17DetectorPositionsILi3EEEE7disposeEv = comdat any

$_ZN5boost6detail17sp_counted_impl_pIN12METomography13ForwardSolver10Evaluation21BreastPhantomGeometry17DetectorPositionsILi3EEEE11get_deleterERKSt9type_info = comdat any

$_ZTVN12METomography13ForwardSolver10Evaluation14SolutionOutputILi3EEE = comdat any

$_ZTVN12METomography13ForwardSolver10Evaluation10MeshOutputILi3EEE = comdat any

$_ZTVN12METomography13ForwardSolver10Evaluation13SurfaceOutputILi3EEE = comdat any

$_ZTVN12METomography13ForwardSolver10Evaluation21BreastPhantomGeometry17DetectorPositionsILi3EEE = comdat any

$_ZTVN12METomography13ForwardSolver10Evaluation14EvaluationBaseILi3EEE = comdat any

$_ZTSN12METomography13ForwardSolver10Evaluation14EvaluationBaseILi3EEE = comdat any

$_ZTIN12METomography13ForwardSolver10Evaluation14EvaluationBaseILi3EEE = comdat any

$_ZTSN12METomography13ForwardSolver10Evaluation14SolutionOutputILi3EEE = comdat any

$_ZTIN12METomography13ForwardSolver10Evaluation14SolutionOutputILi3EEE = comdat any

$_ZTSN12METomography13ForwardSolver10Evaluation10MeshOutputILi3EEE = comdat any

$_ZTIN12METomography13ForwardSolver10Evaluation10MeshOutputILi3EEE = comdat any

$_ZTSN12METomography13ForwardSolver10Evaluation13SurfaceOutputILi3EEE = comdat any

$_ZTIN12METomography13ForwardSolver10Evaluation13SurfaceOutputILi3EEE = comdat any

$_ZTSN12METomography13ForwardSolver10Evaluation21BreastPhantomGeometry17DetectorPositionsILi3EEE = comdat any

$_ZTIN12METomography13ForwardSolver10Evaluation21BreastPhantomGeometry17DetectorPositionsILi3EEE = comdat any

$_ZTVN6dealii7DataOutILi3ENS_10DoFHandlerILi3ELi3EEEEE = comdat any

$_ZTSN6dealii7DataOutILi3ENS_10DoFHandlerILi3ELi3EEEEE = comdat any

$_ZTSN6dealii15DataOut_DoFDataINS_10DoFHandlerILi3ELi3EEELi3ELi3EEE = comdat any

$_ZTSN6dealii16DataOutInterfaceILi3ELi3EEE = comdat any

$_ZTSN6dealii11DataOutBaseE = comdat any

$_ZTIN6dealii11DataOutBaseE = comdat any

$_ZTIN6dealii16DataOutInterfaceILi3ELi3EEE = comdat any

$_ZTIN6dealii15DataOut_DoFDataINS_10DoFHandlerILi3ELi3EEELi3ELi3EEE = comdat any

$_ZTIN6dealii7DataOutILi3ENS_10DoFHandlerILi3ELi3EEEEE = comdat any

$_ZTVN6dealii12DataOutFacesILi3ENS_10DoFHandlerILi3ELi3EEEEE = comdat any

$_ZTSN6dealii12DataOutFacesILi3ENS_10DoFHandlerILi3ELi3EEEEE = comdat any

$_ZTSN6dealii15DataOut_DoFDataINS_10DoFHandlerILi3ELi3EEELi2ELi3EEE = comdat any

$_ZTSN6dealii16DataOutInterfaceILi2ELi3EEE = comdat any

$_ZTIN6dealii16DataOutInterfaceILi2ELi3EEE = comdat any

$_ZTIN6dealii15DataOut_DoFDataINS_10DoFHandlerILi3ELi3EEELi2ELi3EEE = comdat any

$_ZTIN6dealii12DataOutFacesILi3ENS_10DoFHandlerILi3ELi3EEEEE = comdat any

$_ZTVN6dealii18StandardExceptions10ExcMessageE = comdat any

$_ZTSN6dealii18StandardExceptions10ExcMessageE = comdat any

$_ZTIN6dealii18StandardExceptions10ExcMessageE = comdat any

$_ZTVN6dealii8FEValuesILi3ELi3EEE = comdat any

$_ZTSN6dealii8FEValuesILi3ELi3EEE = comdat any

$_ZTSN6dealii12FEValuesBaseILi3ELi3EEE = comdat any

$_ZTSN6dealii12FEValuesDataILi3ELi3EEE = comdat any

$_ZTIN6dealii12FEValuesDataILi3ELi3EEE = comdat any

$_ZTIN6dealii12FEValuesBaseILi3ELi3EEE = comdat any

$_ZTIN6dealii8FEValuesILi3ELi3EEE = comdat any

$_ZTVN6dealii6VectorIdEE = comdat any

$_ZTSN6dealii6VectorIdEE = comdat any

$_ZTIN6dealii6VectorIdEE = comdat any

$_ZZN6dealii8internal12TriaAccessor14Implementation12vertex_indexILi3ELi3EEEjRKNS_12TriaAccessorILi2EXT_EXT0_EEEjE12switch_table = comdat any

$_ZTVN5boost6detail17sp_counted_impl_pIN12METomography13ForwardSolver10Evaluation14SolutionOutputILi3EEEEE = comdat any

$_ZTSN5boost6detail17sp_counted_impl_pIN12METomography13ForwardSolver10Evaluation14SolutionOutputILi3EEEEE = comdat any

$_ZTSN5boost6detail15sp_counted_baseE = comdat any

$_ZTIN5boost6detail15sp_counted_baseE = comdat any

$_ZTIN5boost6detail17sp_counted_impl_pIN12METomography13ForwardSolver10Evaluation14SolutionOutputILi3EEEEE = comdat any

$_ZTVN5boost6detail17sp_counted_impl_pIN12METomography13ForwardSolver10Evaluation10MeshOutputILi3EEEEE = comdat any

$_ZTSN5boost6detail17sp_counted_impl_pIN12METomography13ForwardSolver10Evaluation10MeshOutputILi3EEEEE = comdat any

$_ZTIN5boost6detail17sp_counted_impl_pIN12METomography13ForwardSolver10Evaluation10MeshOutputILi3EEEEE = comdat any

$_ZTVN5boost6detail17sp_counted_impl_pIN12METomography13ForwardSolver10Evaluation13SurfaceOutputILi3EEEEE = comdat any

$_ZTSN5boost6detail17sp_counted_impl_pIN12METomography13ForwardSolver10Evaluation13SurfaceOutputILi3EEEEE = comdat any

$_ZTIN5boost6detail17sp_counted_impl_pIN12METomography13ForwardSolver10Evaluation13SurfaceOutputILi3EEEEE = comdat any

$_ZTVN5boost6detail17sp_counted_impl_pIN12METomography13ForwardSolver10Evaluation21BreastPhantomGeometry17DetectorPositionsILi3EEEEE = comdat any

$_ZTSN5boost6detail17sp_counted_impl_pIN12METomography13ForwardSolver10Evaluation21BreastPhantomGeometry17DetectorPositionsILi3EEEEE = comdat any

$_ZTIN5boost6detail17sp_counted_impl_pIN12METomography13ForwardSolver10Evaluation21BreastPhantomGeometry17DetectorPositionsILi3EEEEE = comdat any

@_ZN12METomography13ForwardSolver10Evaluation21BreastPhantomGeometry18detector_positionsE = dso_local local_unnamed_addr constant [128 x %"class.dealii::Point"] [%"class.dealii::Point" { %"class.dealii::Tensor" { [3 x double] [double -5.000000e+00, double -0.000000e+00, double 0.000000e+00] } }, %"class.dealii::Point" { %"class.dealii::Tensor" { [3 x double] [double -4.903900e+00, double -9.755000e-01, double 0.000000e+00] } }, %"class.dealii::Point" { %"class.dealii::Tensor" { [3 x double] [double -4.619400e+00, double -1.913400e+00, double 0.000000e+00] } }, %"class.dealii::Point" { %"class.dealii::Tensor" { [3 x double] [double -4.157300e+00, double -2.777900e+00, double 0.000000e+00] } }, %"class.dealii::Point" { %"class.dealii::Tensor" { [3 x double] [double -3.535500e+00, double -3.535500e+00, double 0.000000e+00] } }, %"class.dealii::Point" { %"class.dealii::Tensor" { [3 x double] [double -2.777900e+00, double -4.157300e+00, double 0.000000e+00] } }, %"class.dealii::Point" { %"class.dealii::Tensor" { [3 x double] [double -1.913400e+00, double -4.619400e+00, double 0.000000e+00] } }, %"class.dealii::Point" { %"class.dealii::Tensor" { [3 x double] [double -9.755000e-01, double -4.903900e+00, double 0.000000e+00] } }, %"class.dealii::Point" { %"class.dealii::Tensor" { [3 x double] [double 0.000000e+00, double -5.000000e+00, double 0.000000e+00] } }, %"class.dealii::Point" { %"class.dealii::Tensor" { [3 x double] [double 9.755000e-01, double -4.903900e+00, double 0.000000e+00] } }, %"class.dealii::Point" { %"class.dealii::Tensor" { [3 x double] [double 1.913400e+00, double -4.619400e+00, double 0.000000e+00] } }, %"class.dealii::Point" { %"class.dealii::Tensor" { [3 x double] [double 2.777900e+00, double -4.157300e+00, double 0.000000e+00] } }, %"class.dealii::Point" { %"class.dealii::Tensor" { [3 x double] [double 3.535500e+00, double -3.535500e+00, double 0.000000e+00] } }, %"class.dealii::Point" { %"class.dealii::Tensor" { [3 x double] [double 4.157300e+00, double -2.777900e+00, double 0.000000e+00] } }, %"class.dealii::Point" { %"class.dealii::Tensor" { [3 x double] [double 4.619400e+00, double -1.913400e+00, double 0.000000e+00] } }, %"class.dealii::Point" { %"class.dealii::Tensor" { [3 x double] [double 4.903900e+00, double -9.755000e-01, double 0.000000e+00] } }, %"class.dealii::Point" { %"class.dealii::Tensor" { [3 x double] [double 5.000000e+00, double -0.000000e+00, double 0.000000e+00] } }, %"class.dealii::Point" { %"class.dealii::Tensor" { [3 x double] [double 4.903900e+00, double 9.755000e-01, double 0.000000e+00] } }, %"class.dealii::Point" { %"class.dealii::Tensor" { [3 x double] [double 4.619400e+00, double 1.913400e+00, double 0.000000e+00] } }, %"class.dealii::Point" { %"class.dealii::Tensor" { [3 x double] [double 4.157300e+00, double 2.777900e+00, double 0.000000e+00] } }, %"class.dealii::Point" { %"class.dealii::Tensor" { [3 x double] [double 3.535500e+00, double 3.535500e+00, double 0.000000e+00] } }, %"class.dealii::Point" { %"class.dealii::Tensor" { [3 x double] [double 2.777900e+00, double 4.157300e+00, double 0.000000e+00] } }, %"class.dealii::Point" { %"class.dealii::Tensor" { [3 x double] [double 1.913400e+00, double 4.619400e+00, double 0.000000e+00] } }, %"class.dealii::Point" { %"class.dealii::Tensor" { [3 x double] [double 9.755000e-01, double 4.903900e+00, double 0.000000e+00] } }, %"class.dealii::Point" { %"class.dealii::Tensor" { [3 x double] [double 0.000000e+00, double 5.000000e+00, double 0.000000e+00] } }, %"class.dealii::Point" { %"class.dealii::Tensor" { [3 x double] [double -9.755000e-01, double 4.903900e+00, double 0.000000e+00] } }, %"class.dealii::Point" { %"class.dealii::Tensor" { [3 x double] [double -1.913400e+00, double 4.619400e+00, double 0.000000e+00] } }, %"class.dealii::Point" { %"class.dealii::Tensor" { [3 x double] [double -2.777900e+00, double 4.157300e+00, double 0.000000e+00] } }, %"class.dealii::Point" { %"class.dealii::Tensor" { [3 x double] [double -3.535500e+00, double 3.535500e+00, double 0.000000e+00] } }, %"class.dealii::Point" { %"class.dealii::Tensor" { [3 x double] [double -4.157300e+00, double 2.777900e+00, double 0.000000e+00] } }, %"class.dealii::Point" { %"class.dealii::Tensor" { [3 x double] [double -4.619400e+00, double 1.913400e+00, double 0.000000e+00] } }, %"class.dealii::Point" { %"class.dealii::Tensor" { [3 x double] [double -4.903900e+00, double 9.755000e-01, double 0.000000e+00] } }, %"class.dealii::Point" { %"class.dealii::Tensor" { [3 x double] [double -4.755300e+00, double -0.000000e+00, double 1.545100e+00] } }, %"class.dealii::Point" { %"class.dealii::Tensor" { [3 x double] [double -4.663900e+00, double 0xBFEDAFB7E90FF972, double 1.545100e+00] } }, %"class.dealii::Point" { %"class.dealii::Tensor" { [3 x double] [double -4.393300e+00, double -1.819800e+00, double 1.545100e+00] } }, %"class.dealii::Point" { %"class.dealii::Tensor" { [3 x double] [double -3.953900e+00, double -2.641900e+00, double 1.545100e+00] } }, %"class.dealii::Point" { %"class.dealii::Tensor" { [3 x double] [double -3.362500e+00, double -3.362500e+00, double 1.545100e+00] } }, %"class.dealii::Point" { %"class.dealii::Tensor" { [3 x double] [double -2.641900e+00, double -3.953900e+00, double 1.545100e+00] } }, %"class.dealii::Point" { %"class.dealii::Tensor" { [3 x double] [double -1.819800e+00, double -4.393300e+00, double 1.545100e+00] } }, %"class.dealii::Point" { %"class.dealii::Tensor" { [3 x double] [double 0xBFEDAFB7E90FF972, double -4.663900e+00, double 1.545100e+00] } }, %"class.dealii::Point" { %"class.dealii::Tensor" { [3 x double] [double 0.000000e+00, double -4.755300e+00, double 1.545100e+00] } }, %"class.dealii::Point" { %"class.dealii::Tensor" { [3 x double] [double 0x3FEDAFB7E90FF972, double -4.663900e+00, double 1.545100e+00] } }, %"class.dealii::Point" { %"class.dealii::Tensor" { [3 x double] [double 1.819800e+00, double -4.393300e+00, double 1.545100e+00] } }, %"class.dealii::Point" { %"class.dealii::Tensor" { [3 x double] [double 2.641900e+00, double -3.953900e+00, double 1.545100e+00] } }, %"class.dealii::Point" { %"class.dealii::Tensor" { [3 x double] [double 3.362500e+00, double -3.362500e+00, double 1.545100e+00] } }, %"class.dealii::Point" { %"class.dealii::Tensor" { [3 x double] [double 3.953900e+00, double -2.641900e+00, double 1.545100e+00] } }, %"class.dealii::Point" { %"class.dealii::Tensor" { [3 x double] [double 4.393300e+00, double -1.819800e+00, double 1.545100e+00] } }, %"class.dealii::Point" { %"class.dealii::Tensor" { [3 x double] [double 4.663900e+00, double 0xBFEDAFB7E90FF972, double 1.545100e+00] } }, %"class.dealii::Point" { %"class.dealii::Tensor" { [3 x double] [double 4.755300e+00, double -0.000000e+00, double 1.545100e+00] } }, %"class.dealii::Point" { %"class.dealii::Tensor" { [3 x double] [double 4.663900e+00, double 0x3FEDAFB7E90FF972, double 1.545100e+00] } }, %"class.dealii::Point" { %"class.dealii::Tensor" { [3 x double] [double 4.393300e+00, double 1.819800e+00, double 1.545100e+00] } }, %"class.dealii::Point" { %"class.dealii::Tensor" { [3 x double] [double 3.953900e+00, double 2.641900e+00, double 1.545100e+00] } }, %"class.dealii::Point" { %"class.dealii::Tensor" { [3 x double] [double 3.362500e+00, double 3.362500e+00, double 1.545100e+00] } }, %"class.dealii::Point" { %"class.dealii::Tensor" { [3 x double] [double 2.641900e+00, double 3.953900e+00, double 1.545100e+00] } }, %"class.dealii::Point" { %"class.dealii::Tensor" { [3 x double] [double 1.819800e+00, double 4.393300e+00, double 1.545100e+00] } }, %"class.dealii::Point" { %"class.dealii::Tensor" { [3 x double] [double 0x3FEDAFB7E90FF972, double 4.663900e+00, double 1.545100e+00] } }, %"class.dealii::Point" { %"class.dealii::Tensor" { [3 x double] [double 0.000000e+00, double 4.755300e+00, double 1.545100e+00] } }, %"class.dealii::Point" { %"class.dealii::Tensor" { [3 x double] [double 0xBFEDAFB7E90FF972, double 4.663900e+00, double 1.545100e+00] } }, %"class.dealii::Point" { %"class.dealii::Tensor" { [3 x double] [double -1.819800e+00, double 4.393300e+00, double 1.545100e+00] } }, %"class.dealii::Point" { %"class.dealii::Tensor" { [3 x double] [double -2.641900e+00, double 3.953900e+00, double 1.545100e+00] } }, %"class.dealii::Point" { %"class.dealii::Tensor" { [3 x double] [double -3.362500e+00, double 3.362500e+00, double 1.545100e+00] } }, %"class.dealii::Point" { %"class.dealii::Tensor" { [3 x double] [double -3.953900e+00, double 2.641900e+00, double 1.545100e+00] } }, %"class.dealii::Point" { %"class.dealii::Tensor" { [3 x double] [double -4.393300e+00, double 1.819800e+00, double 1.545100e+00] } }, %"class.dealii::Point" { %"class.dealii::Tensor" { [3 x double] [double -4.663900e+00, double 0x3FEDAFB7E90FF972, double 1.545100e+00] } }, %"class.dealii::Point" { %"class.dealii::Tensor" { [3 x double] [double -4.045100e+00, double -0.000000e+00, double 2.938900e+00] } }, %"class.dealii::Point" { %"class.dealii::Tensor" { [3 x double] [double -3.967400e+00, double -7.892000e-01, double 2.938900e+00] } }, %"class.dealii::Point" { %"class.dealii::Tensor" { [3 x double] [double -3.737200e+00, double -1.548000e+00, double 2.938900e+00] } }, %"class.dealii::Point" { %"class.dealii::Tensor" { [3 x double] [double -3.363400e+00, double -2.247300e+00, double 2.938900e+00] } }, %"class.dealii::Point" { %"class.dealii::Tensor" { [3 x double] [double -2.860300e+00, double -2.860300e+00, double 2.938900e+00] } }, %"class.dealii::Point" { %"class.dealii::Tensor" { [3 x double] [double -2.247300e+00, double -3.363400e+00, double 2.938900e+00] } }, %"class.dealii::Point" { %"class.dealii::Tensor" { [3 x double] [double -1.548000e+00, double -3.737200e+00, double 2.938900e+00] } }, %"class.dealii::Point" { %"class.dealii::Tensor" { [3 x double] [double -7.892000e-01, double -3.967400e+00, double 2.938900e+00] } }, %"class.dealii::Point" { %"class.dealii::Tensor" { [3 x double] [double 0.000000e+00, double -4.045100e+00, double 2.938900e+00] } }, %"class.dealii::Point" { %"class.dealii::Tensor" { [3 x double] [double 7.892000e-01, double -3.967400e+00, double 2.938900e+00] } }, %"class.dealii::Point" { %"class.dealii::Tensor" { [3 x double] [double 1.548000e+00, double -3.737200e+00, double 2.938900e+00] } }, %"class.dealii::Point" { %"class.dealii::Tensor" { [3 x double] [double 2.247300e+00, double -3.363400e+00, double 2.938900e+00] } }, %"class.dealii::Point" { %"class.dealii::Tensor" { [3 x double] [double 2.860300e+00, double -2.860300e+00, double 2.938900e+00] } }, %"class.dealii::Point" { %"class.dealii::Tensor" { [3 x double] [double 3.363400e+00, double -2.247300e+00, double 2.938900e+00] } }, %"class.dealii::Point" { %"class.dealii::Tensor" { [3 x double] [double 3.737200e+00, double -1.548000e+00, double 2.938900e+00] } }, %"class.dealii::Point" { %"class.dealii::Tensor" { [3 x double] [double 3.967400e+00, double -7.892000e-01, double 2.938900e+00] } }, %"class.dealii::Point" { %"class.dealii::Tensor" { [3 x double] [double 4.045100e+00, double -0.000000e+00, double 2.938900e+00] } }, %"class.dealii::Point" { %"class.dealii::Tensor" { [3 x double] [double 3.967400e+00, double 7.892000e-01, double 2.938900e+00] } }, %"class.dealii::Point" { %"class.dealii::Tensor" { [3 x double] [double 3.737200e+00, double 1.548000e+00, double 2.938900e+00] } }, %"class.dealii::Point" { %"class.dealii::Tensor" { [3 x double] [double 3.363400e+00, double 2.247300e+00, double 2.938900e+00] } }, %"class.dealii::Point" { %"class.dealii::Tensor" { [3 x double] [double 2.860300e+00, double 2.860300e+00, double 2.938900e+00] } }, %"class.dealii::Point" { %"class.dealii::Tensor" { [3 x double] [double 2.247300e+00, double 3.363400e+00, double 2.938900e+00] } }, %"class.dealii::Point" { %"class.dealii::Tensor" { [3 x double] [double 1.548000e+00, double 3.737200e+00, double 2.938900e+00] } }, %"class.dealii::Point" { %"class.dealii::Tensor" { [3 x double] [double 7.892000e-01, double 3.967400e+00, double 2.938900e+00] } }, %"class.dealii::Point" { %"class.dealii::Tensor" { [3 x double] [double 0.000000e+00, double 4.045100e+00, double 2.938900e+00] } }, %"class.dealii::Point" { %"class.dealii::Tensor" { [3 x double] [double -7.892000e-01, double 3.967400e+00, double 2.938900e+00] } }, %"class.dealii::Point" { %"class.dealii::Tensor" { [3 x double] [double -1.548000e+00, double 3.737200e+00, double 2.938900e+00] } }, %"class.dealii::Point" { %"class.dealii::Tensor" { [3 x double] [double -2.247300e+00, double 3.363400e+00, double 2.938900e+00] } }, %"class.dealii::Point" { %"class.dealii::Tensor" { [3 x double] [double -2.860300e+00, double 2.860300e+00, double 2.938900e+00] } }, %"class.dealii::Point" { %"class.dealii::Tensor" { [3 x double] [double -3.363400e+00, double 2.247300e+00, double 2.938900e+00] } }, %"class.dealii::Point" { %"class.dealii::Tensor" { [3 x double] [double -3.737200e+00, double 1.548000e+00, double 2.938900e+00] } }, %"class.dealii::Point" { %"class.dealii::Tensor" { [3 x double] [double -3.967400e+00, double 7.892000e-01, double 2.938900e+00] } }, %"class.dealii::Point" { %"class.dealii::Tensor" { [3 x double] [double -2.938900e+00, double -0.000000e+00, double 4.045100e+00] } }, %"class.dealii::Point" { %"class.dealii::Tensor" { [3 x double] [double -2.715200e+00, double -1.124700e+00, double 4.045100e+00] } }, %"class.dealii::Point" { %"class.dealii::Tensor" { [3 x double] [double -2.078100e+00, double -2.078100e+00, double 4.045100e+00] } }, %"class.dealii::Point" { %"class.dealii::Tensor" { [3 x double] [double -1.124700e+00, double -2.715200e+00, double 4.045100e+00] } }, %"class.dealii::Point" { %"class.dealii::Tensor" { [3 x double] [double 0.000000e+00, double -2.938900e+00, double 4.045100e+00] } }, %"class.dealii::Point" { %"class.dealii::Tensor" { [3 x double] [double 1.124700e+00, double -2.715200e+00, double 4.045100e+00] } }, %"class.dealii::Point" { %"class.dealii::Tensor" { [3 x double] [double 2.078100e+00, double -2.078100e+00, double 4.045100e+00] } }, %"class.dealii::Point" { %"class.dealii::Tensor" { [3 x double] [double 2.715200e+00, double -1.124700e+00, double 4.045100e+00] } }, %"class.dealii::Point" { %"class.dealii::Tensor" { [3 x double] [double 2.938900e+00, double -0.000000e+00, double 4.045100e+00] } }, %"class.dealii::Point" { %"class.dealii::Tensor" { [3 x double] [double 2.715200e+00, double 1.124700e+00, double 4.045100e+00] } }, %"class.dealii::Point" { %"class.dealii::Tensor" { [3 x double] [double 2.078100e+00, double 2.078100e+00, double 4.045100e+00] } }, %"class.dealii::Point" { %"class.dealii::Tensor" { [3 x double] [double 1.124700e+00, double 2.715200e+00, double 4.045100e+00] } }, %"class.dealii::Point" { %"class.dealii::Tensor" { [3 x double] [double 0.000000e+00, double 2.938900e+00, double 4.045100e+00] } }, %"class.dealii::Point" { %"class.dealii::Tensor" { [3 x double] [double -1.124700e+00, double 2.715200e+00, double 4.045100e+00] } }, %"class.dealii::Point" { %"class.dealii::Tensor" { [3 x double] [double -2.078100e+00, double 2.078100e+00, double 4.045100e+00] } }, %"class.dealii::Point" { %"class.dealii::Tensor" { [3 x double] [double -2.715200e+00, double 1.124700e+00, double 4.045100e+00] } }, %"class.dealii::Point" { %"class.dealii::Tensor" { [3 x double] [double -1.545100e+00, double -0.000000e+00, double 4.755300e+00] } }, %"class.dealii::Point" { %"class.dealii::Tensor" { [3 x double] [double -1.427500e+00, double -5.913000e-01, double 4.755300e+00] } }, %"class.dealii::Point" { %"class.dealii::Tensor" { [3 x double] [double -1.092500e+00, double -1.092500e+00, double 4.755300e+00] } }, %"class.dealii::Point" { %"class.dealii::Tensor" { [3 x double] [double -5.913000e-01, double -1.427500e+00, double 4.755300e+00] } }, %"class.dealii::Point" { %"class.dealii::Tensor" { [3 x double] [double 0.000000e+00, double -1.545100e+00, double 4.755300e+00] } }, %"class.dealii::Point" { %"class.dealii::Tensor" { [3 x double] [double 5.913000e-01, double -1.427500e+00, double 4.755300e+00] } }, %"class.dealii::Point" { %"class.dealii::Tensor" { [3 x double] [double 1.092500e+00, double -1.092500e+00, double 4.755300e+00] } }, %"class.dealii::Point" { %"class.dealii::Tensor" { [3 x double] [double 1.427500e+00, double -5.913000e-01, double 4.755300e+00] } }, %"class.dealii::Point" { %"class.dealii::Tensor" { [3 x double] [double 1.545100e+00, double -0.000000e+00, double 4.755300e+00] } }, %"class.dealii::Point" { %"class.dealii::Tensor" { [3 x double] [double 1.427500e+00, double 5.913000e-01, double 4.755300e+00] } }, %"class.dealii::Point" { %"class.dealii::Tensor" { [3 x double] [double 1.092500e+00, double 1.092500e+00, double 4.755300e+00] } }, %"class.dealii::Point" { %"class.dealii::Tensor" { [3 x double] [double 5.913000e-01, double 1.427500e+00, double 4.755300e+00] } }, %"class.dealii::Point" { %"class.dealii::Tensor" { [3 x double] [double 0.000000e+00, double 1.545100e+00, double 4.755300e+00] } }, %"class.dealii::Point" { %"class.dealii::Tensor" { [3 x double] [double -5.913000e-01, double 1.427500e+00, double 4.755300e+00] } }, %"class.dealii::Point" { %"class.dealii::Tensor" { [3 x double] [double -1.092500e+00, double 1.092500e+00, double 4.755300e+00] } }, %"class.dealii::Point" { %"class.dealii::Tensor" { [3 x double] [double -1.427500e+00, double 5.913000e-01, double 4.755300e+00] } }], align 16
@_ZN12METomography13ForwardSolver10Evaluation21BreastPhantomGeometry11n_detectorsE = dso_local local_unnamed_addr constant i32 128, align 4
@_ZTVN12METomography13ForwardSolver10Evaluation14SolutionOutputILi3EEE = weak_odr dso_local unnamed_addr constant { [5 x ptr] } { [5 x ptr] [ptr null, ptr @_ZTIN12METomography13ForwardSolver10Evaluation14SolutionOutputILi3EEE, ptr @_ZN12METomography13ForwardSolver10Evaluation14SolutionOutputILi3EED2Ev, ptr @_ZN12METomography13ForwardSolver10Evaluation14SolutionOutputILi3EED0Ev, ptr @_ZNK12METomography13ForwardSolver10Evaluation14SolutionOutputILi3EE8evaluateERKN6dealii10DoFHandlerILi3ELi3EEERKNS4_6VectorIdEEjjj] }, comdat, align 8
@_ZN6dealii16multithread_infoE = external local_unnamed_addr global %"class.dealii::MultithreadInfo", align 4
@.str.13 = private unnamed_addr constant [2 x i8] c"-\00", align 1
@.str.14 = private unnamed_addr constant [2 x i8] c".\00", align 1
@_ZTVN12METomography13ForwardSolver10Evaluation10MeshOutputILi3EEE = weak_odr dso_local unnamed_addr constant { [5 x ptr] } { [5 x ptr] [ptr null, ptr @_ZTIN12METomography13ForwardSolver10Evaluation10MeshOutputILi3EEE, ptr @_ZN12METomography13ForwardSolver10Evaluation10MeshOutputILi3EED2Ev, ptr @_ZN12METomography13ForwardSolver10Evaluation10MeshOutputILi3EED0Ev, ptr @_ZNK12METomography13ForwardSolver10Evaluation10MeshOutputILi3EE8evaluateERKN6dealii10DoFHandlerILi3ELi3EEERKNS4_6VectorIdEEjjj] }, comdat, align 8
@.str.15 = private unnamed_addr constant [5 x i8] c".eps\00", align 1
@_ZTVN12METomography13ForwardSolver10Evaluation13SurfaceOutputILi3EEE = weak_odr dso_local unnamed_addr constant { [5 x ptr] } { [5 x ptr] [ptr null, ptr @_ZTIN12METomography13ForwardSolver10Evaluation13SurfaceOutputILi3EEE, ptr @_ZN12METomography13ForwardSolver10Evaluation13SurfaceOutputILi3EED2Ev, ptr @_ZN12METomography13ForwardSolver10Evaluation13SurfaceOutputILi3EED0Ev, ptr @_ZNK12METomography13ForwardSolver10Evaluation13SurfaceOutputILi3EE8evaluateERKN6dealii10DoFHandlerILi3ELi3EEERKNS4_6VectorIdEEjjj] }, comdat, align 8
@_ZTVN12METomography13ForwardSolver10Evaluation21BreastPhantomGeometry17DetectorPositionsILi3EEE = weak_odr dso_local unnamed_addr constant { [5 x ptr] } { [5 x ptr] [ptr null, ptr @_ZTIN12METomography13ForwardSolver10Evaluation21BreastPhantomGeometry17DetectorPositionsILi3EEE, ptr @_ZN12METomography13ForwardSolver10Evaluation21BreastPhantomGeometry17DetectorPositionsILi3EED2Ev, ptr @_ZN12METomography13ForwardSolver10Evaluation21BreastPhantomGeometry17DetectorPositionsILi3EED0Ev, ptr @_ZNK12METomography13ForwardSolver10Evaluation21BreastPhantomGeometry17DetectorPositionsILi3EE8evaluateERKN6dealii10DoFHandlerILi3ELi3EEERKNS5_6VectorIdEEjjj] }, comdat, align 8
@.str.16 = private unnamed_addr constant [50 x i8] c"source/me-tomography/forward_solver_evaluators.cc\00", align 1
@.str.17 = private unnamed_addr constant [1 x i8] zeroinitializer, align 1
@.str.18 = private unnamed_addr constant [15 x i8] c"volumes[i] > 0\00", align 1
@.str.19 = private unnamed_addr constant [40 x i8] c"ExcMessage (\22Detector point not found\22)\00", align 1
@.str.20 = private unnamed_addr constant [25 x i8] c"Detector point not found\00", align 1
@.str.21 = private unnamed_addr constant [7 x i8] c"output\00", align 1
@.str.22 = private unnamed_addr constant [8 x i8] c"forward\00", align 1
@.str.23 = private unnamed_addr constant [12 x i8] c"mesh output\00", align 1
@.str.24 = private unnamed_addr constant [15 x i8] c"surface output\00", align 1
@.str.25 = private unnamed_addr constant [16 x i8] c"forward-surface\00", align 1
@.str.26 = private unnamed_addr constant [19 x i8] c"phantom: detectors\00", align 1
@.str.27 = private unnamed_addr constant [18 x i8] c"forward-detectors\00", align 1
@.str.28 = private unnamed_addr constant [6 x i8] c"false\00", align 1
@.str.29 = private unnamed_addr constant [89 x i8] c"ExcMessage ((std::string(\22There is no evaluator named <\22) + name_list[i] + \22>\22).c_str())\00", align 1
@.str.30 = private unnamed_addr constant [30 x i8] c"There is no evaluator named <\00", align 1
@.str.31 = private unnamed_addr constant [2 x i8] c">\00", align 1
@_ZTVN12METomography13ForwardSolver10Evaluation14EvaluationBaseILi3EEE = weak_odr dso_local unnamed_addr constant { [5 x ptr] } { [5 x ptr] [ptr null, ptr @_ZTIN12METomography13ForwardSolver10Evaluation14EvaluationBaseILi3EEE, ptr @_ZN12METomography13ForwardSolver10Evaluation14EvaluationBaseILi3EED2Ev, ptr @_ZN12METomography13ForwardSolver10Evaluation14EvaluationBaseILi3EED0Ev, ptr @__cxa_pure_virtual] }, comdat, align 8
@_ZTVN10__cxxabiv117__class_type_infoE = external global ptr
@_ZTSN12METomography13ForwardSolver10Evaluation14EvaluationBaseILi3EEE = weak_odr dso_local constant [66 x i8] c"N12METomography13ForwardSolver10Evaluation14EvaluationBaseILi3EEE\00", comdat, align 1
@_ZTIN12METomography13ForwardSolver10Evaluation14EvaluationBaseILi3EEE = weak_odr dso_local constant { ptr, ptr } { ptr getelementptr inbounds (ptr, ptr @_ZTVN10__cxxabiv117__class_type_infoE, i64 2), ptr @_ZTSN12METomography13ForwardSolver10Evaluation14EvaluationBaseILi3EEE }, comdat, align 8
@_ZTVN10__cxxabiv120__si_class_type_infoE = external global ptr
@_ZTSN12METomography13ForwardSolver10Evaluation14SolutionOutputILi3EEE = weak_odr dso_local constant [66 x i8] c"N12METomography13ForwardSolver10Evaluation14SolutionOutputILi3EEE\00", comdat, align 1
@_ZTIN12METomography13ForwardSolver10Evaluation14SolutionOutputILi3EEE = weak_odr dso_local constant { ptr, ptr, ptr } { ptr getelementptr inbounds (ptr, ptr @_ZTVN10__cxxabiv120__si_class_type_infoE, i64 2), ptr @_ZTSN12METomography13ForwardSolver10Evaluation14SolutionOutputILi3EEE, ptr @_ZTIN12METomography13ForwardSolver10Evaluation14EvaluationBaseILi3EEE }, comdat, align 8
@_ZTSN12METomography13ForwardSolver10Evaluation10MeshOutputILi3EEE = weak_odr dso_local constant [62 x i8] c"N12METomography13ForwardSolver10Evaluation10MeshOutputILi3EEE\00", comdat, align 1
@_ZTIN12METomography13ForwardSolver10Evaluation10MeshOutputILi3EEE = weak_odr dso_local constant { ptr, ptr, ptr } { ptr getelementptr inbounds (ptr, ptr @_ZTVN10__cxxabiv120__si_class_type_infoE, i64 2), ptr @_ZTSN12METomography13ForwardSolver10Evaluation10MeshOutputILi3EEE, ptr @_ZTIN12METomography13ForwardSolver10Evaluation14EvaluationBaseILi3EEE }, comdat, align 8
@_ZTSN12METomography13ForwardSolver10Evaluation13SurfaceOutputILi3EEE = weak_odr dso_local constant [65 x i8] c"N12METomography13ForwardSolver10Evaluation13SurfaceOutputILi3EEE\00", comdat, align 1
@_ZTIN12METomography13ForwardSolver10Evaluation13SurfaceOutputILi3EEE = weak_odr dso_local constant { ptr, ptr, ptr } { ptr getelementptr inbounds (ptr, ptr @_ZTVN10__cxxabiv120__si_class_type_infoE, i64 2), ptr @_ZTSN12METomography13ForwardSolver10Evaluation13SurfaceOutputILi3EEE, ptr @_ZTIN12METomography13ForwardSolver10Evaluation14EvaluationBaseILi3EEE }, comdat, align 8
@_ZTSN12METomography13ForwardSolver10Evaluation21BreastPhantomGeometry17DetectorPositionsILi3EEE = weak_odr dso_local constant [92 x i8] c"N12METomography13ForwardSolver10Evaluation21BreastPhantomGeometry17DetectorPositionsILi3EEE\00", comdat, align 1
@_ZTIN12METomography13ForwardSolver10Evaluation21BreastPhantomGeometry17DetectorPositionsILi3EEE = weak_odr dso_local constant { ptr, ptr, ptr } { ptr getelementptr inbounds (ptr, ptr @_ZTVN10__cxxabiv120__si_class_type_infoE, i64 2), ptr @_ZTSN12METomography13ForwardSolver10Evaluation21BreastPhantomGeometry17DetectorPositionsILi3EEE, ptr @_ZTIN12METomography13ForwardSolver10Evaluation14EvaluationBaseILi3EEE }, comdat, align 8
@_ZTVN6dealii7DataOutILi3ENS_10DoFHandlerILi3ELi3EEEEE = linkonce_odr dso_local unnamed_addr constant { [12 x ptr] } { [12 x ptr] [ptr null, ptr @_ZTIN6dealii7DataOutILi3ENS_10DoFHandlerILi3ELi3EEEEE, ptr @_ZN6dealii15DataOut_DoFDataINS_10DoFHandlerILi3ELi3EEELi3ELi3EED2Ev, ptr @_ZN6dealii7DataOutILi3ENS_10DoFHandlerILi3ELi3EEEED0Ev, ptr @_ZNK6dealii15DataOut_DoFDataINS_10DoFHandlerILi3ELi3EEELi3ELi3EE11get_patchesEv, ptr @_ZNK6dealii15DataOut_DoFDataINS_10DoFHandlerILi3ELi3EEELi3ELi3EE17get_dataset_namesB5cxx11Ev, ptr @_ZNK6dealii15DataOut_DoFDataINS_10DoFHandlerILi3ELi3EEELi3ELi3EE22get_vector_data_rangesB5cxx11Ev, ptr @_ZN6dealii15DataOut_DoFDataINS_10DoFHandlerILi3ELi3EEELi3ELi3EE5clearEv, ptr @_ZN6dealii7DataOutILi3ENS_10DoFHandlerILi3ELi3EEEE13build_patchesEjj, ptr @_ZN6dealii7DataOutILi3ENS_10DoFHandlerILi3ELi3EEEE13build_patchesERKNS_7MappingILi3ELi3EEEjjNS3_16CurvedCellRegionE, ptr @_ZN6dealii7DataOutILi3ENS_10DoFHandlerILi3ELi3EEEE10first_cellEv, ptr @_ZN6dealii7DataOutILi3ENS_10DoFHandlerILi3ELi3EEEE9next_cellERKNS_12TriaIteratorINS_15DoFCellAccessorIS2_EEEE] }, comdat, align 8
@_ZTSN6dealii7DataOutILi3ENS_10DoFHandlerILi3ELi3EEEEE = linkonce_odr dso_local constant [50 x i8] c"N6dealii7DataOutILi3ENS_10DoFHandlerILi3ELi3EEEEE\00", comdat, align 1
@_ZTSN6dealii15DataOut_DoFDataINS_10DoFHandlerILi3ELi3EEELi3ELi3EEE = linkonce_odr dso_local constant [63 x i8] c"N6dealii15DataOut_DoFDataINS_10DoFHandlerILi3ELi3EEELi3ELi3EEE\00", comdat, align 1
@_ZTVN10__cxxabiv121__vmi_class_type_infoE = external global ptr
@_ZTSN6dealii16DataOutInterfaceILi3ELi3EEE = linkonce_odr dso_local constant [38 x i8] c"N6dealii16DataOutInterfaceILi3ELi3EEE\00", comdat, align 1
@_ZTSN6dealii11DataOutBaseE = linkonce_odr dso_local constant [23 x i8] c"N6dealii11DataOutBaseE\00", comdat, align 1
@_ZTIN6dealii11DataOutBaseE = linkonce_odr dso_local constant { ptr, ptr } { ptr getelementptr inbounds (ptr, ptr @_ZTVN10__cxxabiv117__class_type_infoE, i64 2), ptr @_ZTSN6dealii11DataOutBaseE }, comdat, align 8
@_ZTIN6dealii16DataOutInterfaceILi3ELi3EEE = linkonce_odr dso_local constant { ptr, ptr, i32, i32, ptr, i64 } { ptr getelementptr inbounds (ptr, ptr @_ZTVN10__cxxabiv121__vmi_class_type_infoE, i64 2), ptr @_ZTSN6dealii16DataOutInterfaceILi3ELi3EEE, i32 0, i32 1, ptr @_ZTIN6dealii11DataOutBaseE, i64 0 }, comdat, align 8
@_ZTIN6dealii15DataOut_DoFDataINS_10DoFHandlerILi3ELi3EEELi3ELi3EEE = linkonce_odr dso_local constant { ptr, ptr, ptr } { ptr getelementptr inbounds (ptr, ptr @_ZTVN10__cxxabiv120__si_class_type_infoE, i64 2), ptr @_ZTSN6dealii15DataOut_DoFDataINS_10DoFHandlerILi3ELi3EEELi3ELi3EEE, ptr @_ZTIN6dealii16DataOutInterfaceILi3ELi3EEE }, comdat, align 8
@_ZTIN6dealii7DataOutILi3ENS_10DoFHandlerILi3ELi3EEEEE = linkonce_odr dso_local constant { ptr, ptr, ptr } { ptr getelementptr inbounds (ptr, ptr @_ZTVN10__cxxabiv120__si_class_type_infoE, i64 2), ptr @_ZTSN6dealii7DataOutILi3ENS_10DoFHandlerILi3ELi3EEEEE, ptr @_ZTIN6dealii15DataOut_DoFDataINS_10DoFHandlerILi3ELi3EEELi3ELi3EEE }, comdat, align 8
@_ZTVN6dealii12DataOutFacesILi3ENS_10DoFHandlerILi3ELi3EEEEE = linkonce_odr dso_local unnamed_addr constant { [11 x ptr] } { [11 x ptr] [ptr null, ptr @_ZTIN6dealii12DataOutFacesILi3ENS_10DoFHandlerILi3ELi3EEEEE, ptr @_ZN6dealii15DataOut_DoFDataINS_10DoFHandlerILi3ELi3EEELi2ELi3EED2Ev, ptr @_ZN6dealii12DataOutFacesILi3ENS_10DoFHandlerILi3ELi3EEEED0Ev, ptr @_ZNK6dealii15DataOut_DoFDataINS_10DoFHandlerILi3ELi3EEELi2ELi3EE11get_patchesEv, ptr @_ZNK6dealii15DataOut_DoFDataINS_10DoFHandlerILi3ELi3EEELi2ELi3EE17get_dataset_namesB5cxx11Ev, ptr @_ZNK6dealii15DataOut_DoFDataINS_10DoFHandlerILi3ELi3EEELi2ELi3EE22get_vector_data_rangesB5cxx11Ev, ptr @_ZN6dealii15DataOut_DoFDataINS_10DoFHandlerILi3ELi3EEELi2ELi3EE5clearEv, ptr @_ZN6dealii12DataOutFacesILi3ENS_10DoFHandlerILi3ELi3EEEE13build_patchesEjj, ptr @_ZN6dealii12DataOutFacesILi3ENS_10DoFHandlerILi3ELi3EEEE10first_faceEv, ptr @_ZN6dealii12DataOutFacesILi3ENS_10DoFHandlerILi3ELi3EEEE9next_faceERKSt4pairINS_12TriaIteratorINS_15DoFCellAccessorIS2_EEEEjE] }, comdat, align 8
@_ZTSN6dealii12DataOutFacesILi3ENS_10DoFHandlerILi3ELi3EEEEE = linkonce_odr dso_local constant [56 x i8] c"N6dealii12DataOutFacesILi3ENS_10DoFHandlerILi3ELi3EEEEE\00", comdat, align 1
@_ZTSN6dealii15DataOut_DoFDataINS_10DoFHandlerILi3ELi3EEELi2ELi3EEE = linkonce_odr dso_local constant [63 x i8] c"N6dealii15DataOut_DoFDataINS_10DoFHandlerILi3ELi3EEELi2ELi3EEE\00", comdat, align 1
@_ZTSN6dealii16DataOutInterfaceILi2ELi3EEE = linkonce_odr dso_local constant [38 x i8] c"N6dealii16DataOutInterfaceILi2ELi3EEE\00", comdat, align 1
@_ZTIN6dealii16DataOutInterfaceILi2ELi3EEE = linkonce_odr dso_local constant { ptr, ptr, i32, i32, ptr, i64 } { ptr getelementptr inbounds (ptr, ptr @_ZTVN10__cxxabiv121__vmi_class_type_infoE, i64 2), ptr @_ZTSN6dealii16DataOutInterfaceILi2ELi3EEE, i32 0, i32 1, ptr @_ZTIN6dealii11DataOutBaseE, i64 0 }, comdat, align 8
@_ZTIN6dealii15DataOut_DoFDataINS_10DoFHandlerILi3ELi3EEELi2ELi3EEE = linkonce_odr dso_local constant { ptr, ptr, ptr } { ptr getelementptr inbounds (ptr, ptr @_ZTVN10__cxxabiv120__si_class_type_infoE, i64 2), ptr @_ZTSN6dealii15DataOut_DoFDataINS_10DoFHandlerILi3ELi3EEELi2ELi3EEE, ptr @_ZTIN6dealii16DataOutInterfaceILi2ELi3EEE }, comdat, align 8
@_ZTIN6dealii12DataOutFacesILi3ENS_10DoFHandlerILi3ELi3EEEEE = linkonce_odr dso_local constant { ptr, ptr, ptr } { ptr getelementptr inbounds (ptr, ptr @_ZTVN10__cxxabiv120__si_class_type_infoE, i64 2), ptr @_ZTSN6dealii12DataOutFacesILi3ENS_10DoFHandlerILi3ELi3EEEEE, ptr @_ZTIN6dealii15DataOut_DoFDataINS_10DoFHandlerILi3ELi3EEELi2ELi3EEE }, comdat, align 8
@_ZTVN6dealii18StandardExceptions10ExcMessageE = linkonce_odr dso_local unnamed_addr constant { [6 x ptr] } { [6 x ptr] [ptr null, ptr @_ZTIN6dealii18StandardExceptions10ExcMessageE, ptr @_ZN6dealii13ExceptionBaseD2Ev, ptr @_ZN6dealii18StandardExceptions10ExcMessageD0Ev, ptr @_ZNK6dealii13ExceptionBase4whatEv, ptr @_ZNK6dealii18StandardExceptions10ExcMessage10print_infoERSo] }, comdat, align 8
@_ZTSN6dealii18StandardExceptions10ExcMessageE = linkonce_odr dso_local constant [42 x i8] c"N6dealii18StandardExceptions10ExcMessageE\00", comdat, align 1
@_ZTIN6dealii13ExceptionBaseE = external constant ptr
@_ZTIN6dealii18StandardExceptions10ExcMessageE = linkonce_odr dso_local constant { ptr, ptr, ptr } { ptr getelementptr inbounds (ptr, ptr @_ZTVN10__cxxabiv120__si_class_type_infoE, i64 2), ptr @_ZTSN6dealii18StandardExceptions10ExcMessageE, ptr @_ZTIN6dealii13ExceptionBaseE }, comdat, align 8
@_ZTVN6dealii8FEValuesILi3ELi3EEE = linkonce_odr dso_local unnamed_addr constant { [4 x ptr] } { [4 x ptr] [ptr null, ptr @_ZTIN6dealii8FEValuesILi3ELi3EEE, ptr @_ZN6dealii8FEValuesILi3ELi3EED2Ev, ptr @_ZN6dealii8FEValuesILi3ELi3EED0Ev] }, comdat, align 8
@_ZTSN6dealii8FEValuesILi3ELi3EEE = linkonce_odr dso_local constant [29 x i8] c"N6dealii8FEValuesILi3ELi3EEE\00", comdat, align 1
@_ZTSN6dealii12FEValuesBaseILi3ELi3EEE = linkonce_odr dso_local constant [34 x i8] c"N6dealii12FEValuesBaseILi3ELi3EEE\00", comdat, align 1
@_ZTSN6dealii12FEValuesDataILi3ELi3EEE = linkonce_odr dso_local constant [34 x i8] c"N6dealii12FEValuesDataILi3ELi3EEE\00", comdat, align 1
@_ZTIN6dealii12FEValuesDataILi3ELi3EEE = linkonce_odr dso_local constant { ptr, ptr } { ptr getelementptr inbounds (ptr, ptr @_ZTVN10__cxxabiv117__class_type_infoE, i64 2), ptr @_ZTSN6dealii12FEValuesDataILi3ELi3EEE }, comdat, align 8
@_ZTIN6dealii11SubscriptorE = external constant ptr
@_ZTIN6dealii12FEValuesBaseILi3ELi3EEE = linkonce_odr dso_local constant { ptr, ptr, i32, i32, ptr, i64, ptr, i64 } { ptr getelementptr inbounds (ptr, ptr @_ZTVN10__cxxabiv121__vmi_class_type_infoE, i64 2), ptr @_ZTSN6dealii12FEValuesBaseILi3ELi3EEE, i32 0, i32 2, ptr @_ZTIN6dealii12FEValuesDataILi3ELi3EEE, i64 18432, ptr @_ZTIN6dealii11SubscriptorE, i64 2 }, comdat, align 8
@_ZTIN6dealii8FEValuesILi3ELi3EEE = linkonce_odr dso_local constant { ptr, ptr, ptr } { ptr getelementptr inbounds (ptr, ptr @_ZTVN10__cxxabiv120__si_class_type_infoE, i64 2), ptr @_ZTSN6dealii8FEValuesILi3ELi3EEE, ptr @_ZTIN6dealii12FEValuesBaseILi3ELi3EEE }, comdat, align 8
@.str.33 = private unnamed_addr constant [26 x i8] c"vector::_M_realloc_insert\00", align 1
@_ZTTNSt7__cxx1119basic_ostringstreamIcSt11char_traitsIcESaIcEEE = external unnamed_addr constant [4 x ptr], align 8
@_ZTVNSt7__cxx1115basic_stringbufIcSt11char_traitsIcESaIcEEE = external unnamed_addr constant { [16 x ptr] }, align 8
@_ZTVSt15basic_streambufIcSt11char_traitsIcEE = external unnamed_addr constant { [16 x ptr] }, align 8
@_ZTTSt14basic_ofstreamIcSt11char_traitsIcEE = external unnamed_addr constant [4 x ptr], align 8
@.str.36 = private unnamed_addr constant [49 x i8] c"cannot create std::vector larger than max_size()\00", align 1
@_ZTVN6dealii6VectorIdEE = linkonce_odr dso_local unnamed_addr constant { [6 x ptr] } { [6 x ptr] [ptr null, ptr @_ZTIN6dealii6VectorIdEE, ptr @_ZN6dealii6VectorIdED2Ev, ptr @_ZN6dealii6VectorIdED0Ev, ptr @_ZN6dealii6VectorIdE6reinitEjb, ptr @_ZN6dealii6VectorIdE4swapERS1_] }, comdat, align 8
@_ZTSN6dealii6VectorIdEE = linkonce_odr dso_local constant [20 x i8] c"N6dealii6VectorIdEE\00", comdat, align 1
@_ZTIN6dealii6VectorIdEE = linkonce_odr dso_local constant { ptr, ptr, ptr } { ptr getelementptr inbounds (ptr, ptr @_ZTVN10__cxxabiv120__si_class_type_infoE, i64 2), ptr @_ZTSN6dealii6VectorIdEE, ptr @_ZTIN6dealii11SubscriptorE }, comdat, align 8
@_ZZN6dealii8internal12TriaAccessor14Implementation12vertex_indexILi3ELi3EEEjRKNS_12TriaAccessorILi2EXT_EXT0_EEEjE12switch_table = linkonce_odr dso_local local_unnamed_addr constant [2 x [2 x i32]] [[2 x i32] [i32 1, i32 0], [2 x i32] [i32 0, i32 1]], comdat, align 16
@.str.37 = private unnamed_addr constant [21 x i8] c"basic_string::append\00", align 1
@_ZTVN5boost6detail17sp_counted_impl_pIN12METomography13ForwardSolver10Evaluation14SolutionOutputILi3EEEEE = linkonce_odr dso_local unnamed_addr constant { [7 x ptr] } { [7 x ptr] [ptr null, ptr @_ZTIN5boost6detail17sp_counted_impl_pIN12METomography13ForwardSolver10Evaluation14SolutionOutputILi3EEEEE, ptr @_ZN5boost6detail15sp_counted_baseD2Ev, ptr @_ZN5boost6detail17sp_counted_impl_pIN12METomography13ForwardSolver10Evaluation14SolutionOutputILi3EEEED0Ev, ptr @_ZN5boost6detail17sp_counted_impl_pIN12METomography13ForwardSolver10Evaluation14SolutionOutputILi3EEEE7disposeEv, ptr @_ZN5boost6detail15sp_counted_base7destroyEv, ptr @_ZN5boost6detail17sp_counted_impl_pIN12METomography13ForwardSolver10Evaluation14SolutionOutputILi3EEEE11get_deleterERKSt9type_info] }, comdat, align 8
@_ZTSN5boost6detail17sp_counted_impl_pIN12METomography13ForwardSolver10Evaluation14SolutionOutputILi3EEEEE = linkonce_odr dso_local constant [102 x i8] c"N5boost6detail17sp_counted_impl_pIN12METomography13ForwardSolver10Evaluation14SolutionOutputILi3EEEEE\00", comdat, align 1
@_ZTSN5boost6detail15sp_counted_baseE = linkonce_odr dso_local constant [33 x i8] c"N5boost6detail15sp_counted_baseE\00", comdat, align 1
@_ZTIN5boost6detail15sp_counted_baseE = linkonce_odr dso_local constant { ptr, ptr } { ptr getelementptr inbounds (ptr, ptr @_ZTVN10__cxxabiv117__class_type_infoE, i64 2), ptr @_ZTSN5boost6detail15sp_counted_baseE }, comdat, align 8
@_ZTIN5boost6detail17sp_counted_impl_pIN12METomography13ForwardSolver10Evaluation14SolutionOutputILi3EEEEE = linkonce_odr dso_local constant { ptr, ptr, ptr } { ptr getelementptr inbounds (ptr, ptr @_ZTVN10__cxxabiv120__si_class_type_infoE, i64 2), ptr @_ZTSN5boost6detail17sp_counted_impl_pIN12METomography13ForwardSolver10Evaluation14SolutionOutputILi3EEEEE, ptr @_ZTIN5boost6detail15sp_counted_baseE }, comdat, align 8
@_ZTVN5boost6detail17sp_counted_impl_pIN12METomography13ForwardSolver10Evaluation10MeshOutputILi3EEEEE = linkonce_odr dso_local unnamed_addr constant { [7 x ptr] } { [7 x ptr] [ptr null, ptr @_ZTIN5boost6detail17sp_counted_impl_pIN12METomography13ForwardSolver10Evaluation10MeshOutputILi3EEEEE, ptr @_ZN5boost6detail15sp_counted_baseD2Ev, ptr @_ZN5boost6detail17sp_counted_impl_pIN12METomography13ForwardSolver10Evaluation10MeshOutputILi3EEEED0Ev, ptr @_ZN5boost6detail17sp_counted_impl_pIN12METomography13ForwardSolver10Evaluation10MeshOutputILi3EEEE7disposeEv, ptr @_ZN5boost6detail15sp_counted_base7destroyEv, ptr @_ZN5boost6detail17sp_counted_impl_pIN12METomography13ForwardSolver10Evaluation10MeshOutputILi3EEEE11get_deleterERKSt9type_info] }, comdat, align 8
@_ZTSN5boost6detail17sp_counted_impl_pIN12METomography13ForwardSolver10Evaluation10MeshOutputILi3EEEEE = linkonce_odr dso_local constant [98 x i8] c"N5boost6detail17sp_counted_impl_pIN12METomography13ForwardSolver10Evaluation10MeshOutputILi3EEEEE\00", comdat, align 1
@_ZTIN5boost6detail17sp_counted_impl_pIN12METomography13ForwardSolver10Evaluation10MeshOutputILi3EEEEE = linkonce_odr dso_local constant { ptr, ptr, ptr } { ptr getelementptr inbounds (ptr, ptr @_ZTVN10__cxxabiv120__si_class_type_infoE, i64 2), ptr @_ZTSN5boost6detail17sp_counted_impl_pIN12METomography13ForwardSolver10Evaluation10MeshOutputILi3EEEEE, ptr @_ZTIN5boost6detail15sp_counted_baseE }, comdat, align 8
@_ZTVN5boost6detail17sp_counted_impl_pIN12METomography13ForwardSolver10Evaluation13SurfaceOutputILi3EEEEE = linkonce_odr dso_local unnamed_addr constant { [7 x ptr] } { [7 x ptr] [ptr null, ptr @_ZTIN5boost6detail17sp_counted_impl_pIN12METomography13ForwardSolver10Evaluation13SurfaceOutputILi3EEEEE, ptr @_ZN5boost6detail15sp_counted_baseD2Ev, ptr @_ZN5boost6detail17sp_counted_impl_pIN12METomography13ForwardSolver10Evaluation13SurfaceOutputILi3EEEED0Ev, ptr @_ZN5boost6detail17sp_counted_impl_pIN12METomography13ForwardSolver10Evaluation13SurfaceOutputILi3EEEE7disposeEv, ptr @_ZN5boost6detail15sp_counted_base7destroyEv, ptr @_ZN5boost6detail17sp_counted_impl_pIN12METomography13ForwardSolver10Evaluation13SurfaceOutputILi3EEEE11get_deleterERKSt9type_info] }, comdat, align 8
@_ZTSN5boost6detail17sp_counted_impl_pIN12METomography13ForwardSolver10Evaluation13SurfaceOutputILi3EEEEE = linkonce_odr dso_local constant [101 x i8] c"N5boost6detail17sp_counted_impl_pIN12METomography13ForwardSolver10Evaluation13SurfaceOutputILi3EEEEE\00", comdat, align 1
@_ZTIN5boost6detail17sp_counted_impl_pIN12METomography13ForwardSolver10Evaluation13SurfaceOutputILi3EEEEE = linkonce_odr dso_local constant { ptr, ptr, ptr } { ptr getelementptr inbounds (ptr, ptr @_ZTVN10__cxxabiv120__si_class_type_infoE, i64 2), ptr @_ZTSN5boost6detail17sp_counted_impl_pIN12METomography13ForwardSolver10Evaluation13SurfaceOutputILi3EEEEE, ptr @_ZTIN5boost6detail15sp_counted_baseE }, comdat, align 8
@_ZTVN5boost6detail17sp_counted_impl_pIN12METomography13ForwardSolver10Evaluation21BreastPhantomGeometry17DetectorPositionsILi3EEEEE = linkonce_odr dso_local unnamed_addr constant { [7 x ptr] } { [7 x ptr] [ptr null, ptr @_ZTIN5boost6detail17sp_counted_impl_pIN12METomography13ForwardSolver10Evaluation21BreastPhantomGeometry17DetectorPositionsILi3EEEEE, ptr @_ZN5boost6detail15sp_counted_baseD2Ev, ptr @_ZN5boost6detail17sp_counted_impl_pIN12METomography13ForwardSolver10Evaluation21BreastPhantomGeometry17DetectorPositionsILi3EEEED0Ev, ptr @_ZN5boost6detail17sp_counted_impl_pIN12METomography13ForwardSolver10Evaluation21BreastPhantomGeometry17DetectorPositionsILi3EEEE7disposeEv, ptr @_ZN5boost6detail15sp_counted_base7destroyEv, ptr @_ZN5boost6detail17sp_counted_impl_pIN12METomography13ForwardSolver10Evaluation21BreastPhantomGeometry17DetectorPositionsILi3EEEE11get_deleterERKSt9type_info] }, comdat, align 8
@_ZTSN5boost6detail17sp_counted_impl_pIN12METomography13ForwardSolver10Evaluation21BreastPhantomGeometry17DetectorPositionsILi3EEEEE = linkonce_odr dso_local constant [128 x i8] c"N5boost6detail17sp_counted_impl_pIN12METomography13ForwardSolver10Evaluation21BreastPhantomGeometry17DetectorPositionsILi3EEEEE\00", comdat, align 1
@_ZTIN5boost6detail17sp_counted_impl_pIN12METomography13ForwardSolver10Evaluation21BreastPhantomGeometry17DetectorPositionsILi3EEEEE = linkonce_odr dso_local constant { ptr, ptr, ptr } { ptr getelementptr inbounds (ptr, ptr @_ZTVN10__cxxabiv120__si_class_type_infoE, i64 2), ptr @_ZTSN5boost6detail17sp_counted_impl_pIN12METomography13ForwardSolver10Evaluation21BreastPhantomGeometry17DetectorPositionsILi3EEEEE, ptr @_ZTIN5boost6detail15sp_counted_baseE }, comdat, align 8
@llvm.global_ctors = appending global [0 x { i32, ptr, ptr }] zeroinitializer

@_ZN12METomography13ForwardSolver10Evaluation14EvaluationBaseILi3EED1Ev = weak_odr dso_local unnamed_addr alias void (ptr), ptr @_ZN12METomography13ForwardSolver10Evaluation14EvaluationBaseILi3EED2Ev
@_ZN12METomography13ForwardSolver10Evaluation14SolutionOutputILi3EEC1ERKNSt7__cxx1112basic_stringIcSt11char_traitsIcESaIcEEESB_ = weak_odr dso_local unnamed_addr alias void (ptr, ptr, ptr), ptr @_ZN12METomography13ForwardSolver10Evaluation14SolutionOutputILi3EEC2ERKNSt7__cxx1112basic_stringIcSt11char_traitsIcESaIcEEESB_
@_ZN12METomography13ForwardSolver10Evaluation10MeshOutputILi3EEC1ERKNSt7__cxx1112basic_stringIcSt11char_traitsIcESaIcEEE = weak_odr dso_local unnamed_addr alias void (ptr, ptr), ptr @_ZN12METomography13ForwardSolver10Evaluation10MeshOutputILi3EEC2ERKNSt7__cxx1112basic_stringIcSt11char_traitsIcESaIcEEE
@_ZN12METomography13ForwardSolver10Evaluation13SurfaceOutputILi3EEC1ERKNSt7__cxx1112basic_stringIcSt11char_traitsIcESaIcEEESB_ = weak_odr dso_local unnamed_addr alias void (ptr, ptr, ptr), ptr @_ZN12METomography13ForwardSolver10Evaluation13SurfaceOutputILi3EEC2ERKNSt7__cxx1112basic_stringIcSt11char_traitsIcESaIcEEESB_
@_ZN12METomography13ForwardSolver10Evaluation21BreastPhantomGeometry17DetectorPositionsILi3EEC1ERKNSt7__cxx1112basic_stringIcSt11char_traitsIcESaIcEEE = weak_odr dso_local unnamed_addr alias void (ptr, ptr), ptr @_ZN12METomography13ForwardSolver10Evaluation21BreastPhantomGeometry17DetectorPositionsILi3EEC2ERKNSt7__cxx1112basic_stringIcSt11char_traitsIcESaIcEEE

; Function Attrs: nounwind sspstrong uwtable
define weak_odr dso_local void @_ZN12METomography13ForwardSolver10Evaluation14EvaluationBaseILi3EED2Ev(ptr noundef nonnull align 8 dereferenceable(8) %0) unnamed_addr #0 comdat($_ZN12METomography13ForwardSolver10Evaluation14EvaluationBaseILi3EED5Ev) align 2 {
  ret void
}

; Function Attrs: nounwind sspstrong uwtable
define weak_odr dso_local void @_ZN12METomography13ForwardSolver10Evaluation14EvaluationBaseILi3EED0Ev(ptr noundef nonnull align 8 dereferenceable(8) %0) unnamed_addr #0 comdat($_ZN12METomography13ForwardSolver10Evaluation14EvaluationBaseILi3EED5Ev) align 2 {
  tail call void @llvm.trap() #19
  unreachable
}

; Function Attrs: cold noreturn nounwind
declare void @llvm.trap() #1

; Function Attrs: sspstrong uwtable
define weak_odr dso_local void @_ZN12METomography13ForwardSolver10Evaluation14SolutionOutputILi3EEC2ERKNSt7__cxx1112basic_stringIcSt11char_traitsIcESaIcEEESB_(ptr noundef nonnull align 8 dereferenceable(44) %0, ptr noundef nonnull align 8 dereferenceable(32) %1, ptr noundef nonnull align 8 dereferenceable(32) %2) unnamed_addr #2 comdat($_ZN12METomography13ForwardSolver10Evaluation14SolutionOutputILi3EEC5ERKNSt7__cxx1112basic_stringIcSt11char_traitsIcESaIcEEESB_) align 2 personality ptr @__gxx_personality_v0 {
  %4 = alloca i64, align 8
  %5 = alloca %"class.dealii::DataOut", align 8
  store ptr getelementptr inbounds ({ [5 x ptr] }, ptr @_ZTVN12METomography13ForwardSolver10Evaluation14SolutionOutputILi3EEE, i64 0, inrange i32 0, i64 2), ptr %0, align 8, !tbaa !5
  %6 = getelementptr inbounds %"class.METomography::ForwardSolver::Evaluation::SolutionOutput", ptr %0, i64 0, i32 1
  %7 = getelementptr inbounds %"class.METomography::ForwardSolver::Evaluation::SolutionOutput", ptr %0, i64 0, i32 1, i32 2
  store ptr %7, ptr %6, align 8, !tbaa !8
  %8 = load ptr, ptr %1, align 8, !tbaa !12
  %9 = getelementptr inbounds %"class.std::__cxx11::basic_string", ptr %1, i64 0, i32 1
  %10 = load i64, ptr %9, align 8, !tbaa !15
  call void @llvm.lifetime.start.p0(i64 8, ptr nonnull %4) #20
  store i64 %10, ptr %4, align 8, !tbaa !16
  %11 = icmp ugt i64 %10, 15
  br i1 %11, label %12, label %15

12:                                               ; preds = %3
  %13 = call noundef ptr @_ZNSt7__cxx1112basic_stringIcSt11char_traitsIcESaIcEE9_M_createERmm(ptr noundef nonnull align 8 dereferenceable(32) %6, ptr noundef nonnull align 8 dereferenceable(8) %4, i64 noundef 0)
  store ptr %13, ptr %6, align 8, !tbaa !12
  %14 = load i64, ptr %4, align 8, !tbaa !16
  store i64 %14, ptr %7, align 8, !tbaa !17
  br label %15

15:                                               ; preds = %12, %3
  %16 = phi ptr [ %13, %12 ], [ %7, %3 ]
  switch i64 %10, label %19 [
    i64 1, label %17
    i64 0, label %20
  ]

17:                                               ; preds = %15
  %18 = load i8, ptr %8, align 1, !tbaa !17
  store i8 %18, ptr %16, align 1, !tbaa !17
  br label %20

19:                                               ; preds = %15
  call void @llvm.memcpy.p0.p0.i64(ptr align 1 %16, ptr align 1 %8, i64 %10, i1 false)
  br label %20

20:                                               ; preds = %19, %17, %15
  %21 = load i64, ptr %4, align 8, !tbaa !16
  %22 = getelementptr inbounds %"class.METomography::ForwardSolver::Evaluation::SolutionOutput", ptr %0, i64 0, i32 1, i32 1
  store i64 %21, ptr %22, align 8, !tbaa !15
  %23 = load ptr, ptr %6, align 8, !tbaa !12
  %24 = getelementptr inbounds i8, ptr %23, i64 %21
  store i8 0, ptr %24, align 1, !tbaa !17
  call void @llvm.lifetime.end.p0(i64 8, ptr nonnull %4) #20
  call void @llvm.memset.p0.i64(ptr noundef nonnull align 8 dereferenceable(224) %5, i8 0, i64 224, i1 false)
  invoke void @_ZN6dealii15DataOut_DoFDataINS_10DoFHandlerILi3ELi3EEELi3ELi3EEC2Ev(ptr noundef nonnull align 8 dereferenceable(216) %5)
          to label %25 unwind label %30

25:                                               ; preds = %20
  store ptr getelementptr inbounds ({ [12 x ptr] }, ptr @_ZTVN6dealii7DataOutILi3ENS_10DoFHandlerILi3ELi3EEEEE, i64 0, inrange i32 0, i64 2), ptr %5, align 8, !tbaa !5
  %26 = invoke noundef i32 @_ZN6dealii11DataOutBase19parse_output_formatERKNSt7__cxx1112basic_stringIcSt11char_traitsIcESaIcEEE(ptr noundef nonnull align 8 dereferenceable(32) %2)
          to label %27 unwind label %32

27:                                               ; preds = %25
  invoke void @_ZN6dealii15DataOut_DoFDataINS_10DoFHandlerILi3ELi3EEELi3ELi3EED2Ev(ptr noundef nonnull align 8 dereferenceable(220) %5)
          to label %28 unwind label %30

28:                                               ; preds = %27
  %29 = getelementptr inbounds %"class.METomography::ForwardSolver::Evaluation::SolutionOutput", ptr %0, i64 0, i32 2
  store i32 %26, ptr %29, align 8, !tbaa !18
  ret void

30:                                               ; preds = %20, %27
  %31 = landingpad { ptr, i32 }
          cleanup
  br label %34

32:                                               ; preds = %25
  %33 = landingpad { ptr, i32 }
          cleanup
  invoke void @_ZN6dealii15DataOut_DoFDataINS_10DoFHandlerILi3ELi3EEELi3ELi3EED2Ev(ptr noundef nonnull align 8 dereferenceable(220) %5)
          to label %34 unwind label %43

34:                                               ; preds = %32, %30
  %35 = phi { ptr, i32 } [ %31, %30 ], [ %33, %32 ]
  %36 = load ptr, ptr %6, align 8, !tbaa !12
  %37 = icmp eq ptr %36, %7
  br i1 %37, label %38, label %41

38:                                               ; preds = %34
  %39 = load i64, ptr %22, align 8, !tbaa !15
  %40 = icmp ult i64 %39, 16
  call void @llvm.assume(i1 %40)
  br label %42

41:                                               ; preds = %34
  call void @_ZdlPv(ptr noundef %36) #21
  br label %42

42:                                               ; preds = %41, %38
  resume { ptr, i32 } %35

43:                                               ; preds = %32
  %44 = landingpad { ptr, i32 }
          catch ptr null
  %45 = extractvalue { ptr, i32 } %44, 0
  call void @__clang_call_terminate(ptr %45) #19
  unreachable
}

declare i32 @__gxx_personality_v0(...)

; Function Attrs: mustprogress nocallback nofree nounwind willreturn memory(argmem: write)
declare void @llvm.memset.p0.i64(ptr nocapture writeonly, i8, i64, i1 immarg) #3

declare noundef i32 @_ZN6dealii11DataOutBase19parse_output_formatERKNSt7__cxx1112basic_stringIcSt11char_traitsIcESaIcEEE(ptr noundef nonnull align 8 dereferenceable(32)) local_unnamed_addr #4

declare void @_ZN6dealii15DataOut_DoFDataINS_10DoFHandlerILi3ELi3EEELi3ELi3EED2Ev(ptr noundef nonnull align 8 dereferenceable(216)) unnamed_addr #4

; Function Attrs: noinline noreturn nounwind sspstrong uwtable
define linkonce_odr hidden void @__clang_call_terminate(ptr noundef %0) local_unnamed_addr #5 comdat {
  %2 = tail call ptr @__cxa_begin_catch(ptr %0) #20
  tail call void @_ZSt9terminatev() #19
  unreachable
}

declare ptr @__cxa_begin_catch(ptr) local_unnamed_addr

declare void @_ZSt9terminatev() local_unnamed_addr

; Function Attrs: sspstrong uwtable
define weak_odr dso_local void @_ZNK12METomography13ForwardSolver10Evaluation14SolutionOutputILi3EE8evaluateERKN6dealii10DoFHandlerILi3ELi3EEERKNS4_6VectorIdEEjjj(ptr noundef nonnull align 8 dereferenceable(44) %0, ptr noundef nonnull align 8 dereferenceable(168) %1, ptr noundef nonnull align 8 dereferenceable(88) %2, i32 noundef %3, i32 noundef %4, i32 noundef %5) unnamed_addr #2 comdat align 2 personality ptr @__gxx_personality_v0 {
  %7 = alloca %"class.std::vector.24", align 8
  %8 = alloca %"class.std::__cxx11::basic_string", align 8
  %9 = alloca %"class.std::__cxx11::basic_string", align 8
  %10 = alloca %"class.std::__cxx11::basic_string", align 8
  %11 = alloca %"class.std::__cxx11::basic_string", align 8
  %12 = alloca %"class.dealii::DataOut", align 8
  %13 = alloca %"class.std::vector.44", align 8
  %14 = alloca %"class.std::__cxx11::basic_ostringstream", align 8
  %15 = alloca %"class.std::__cxx11::basic_string", align 8
  %16 = alloca %"class.std::__cxx11::basic_string", align 8
  %17 = alloca %"class.std::basic_ofstream", align 8
  %18 = alloca %"class.std::__cxx11::basic_string", align 8
  call void @llvm.lifetime.start.p0(i64 24, ptr nonnull %7) #20
  call void @llvm.memset.p0.i64(ptr noundef nonnull align 8 dereferenceable(24) %7, i8 0, i64 24, i1 false)
  call void @llvm.lifetime.start.p0(i64 32, ptr nonnull %8) #20
  %19 = getelementptr inbounds %"class.std::__cxx11::basic_string", ptr %8, i64 0, i32 2
  store ptr %19, ptr %8, align 8, !tbaa !8
  store i64 7310010030045228649, ptr %19, align 8
  %20 = getelementptr inbounds %"class.std::__cxx11::basic_string", ptr %8, i64 0, i32 1
  store i64 8, ptr %20, align 8, !tbaa !15
  %21 = getelementptr inbounds %"class.std::__cxx11::basic_string", ptr %8, i64 0, i32 2, i32 1
  store i8 0, ptr %21, align 8, !tbaa !17
  %22 = getelementptr inbounds %"struct.std::_Vector_base<std::__cxx11::basic_string<char>, std::allocator<std::__cxx11::basic_string<char> > >::_Vector_impl_data", ptr %7, i64 0, i32 1
  %23 = getelementptr inbounds %"struct.std::_Vector_base<std::__cxx11::basic_string<char>, std::allocator<std::__cxx11::basic_string<char> > >::_Vector_impl_data", ptr %7, i64 0, i32 2
  invoke void @_ZNSt6vectorINSt7__cxx1112basic_stringIcSt11char_traitsIcESaIcEEESaIS5_EE17_M_realloc_insertEN9__gnu_cxx17__normal_iteratorIPS5_S7_EERKS5_(ptr noundef nonnull align 8 dereferenceable(24) %7, ptr null, ptr noundef nonnull align 8 dereferenceable(32) %8)
          to label %24 unwind label %262

24:                                               ; preds = %6
  %25 = load ptr, ptr %8, align 8, !tbaa !12
  %26 = icmp eq ptr %25, %19
  br i1 %26, label %27, label %30

27:                                               ; preds = %24
  %28 = load i64, ptr %20, align 8, !tbaa !15
  %29 = icmp ult i64 %28, 16
  call void @llvm.assume(i1 %29)
  br label %31

30:                                               ; preds = %24
  call void @_ZdlPv(ptr noundef %25) #21
  br label %31

31:                                               ; preds = %30, %27
  call void @llvm.lifetime.end.p0(i64 32, ptr nonnull %8) #20
  call void @llvm.lifetime.start.p0(i64 32, ptr nonnull %9) #20
  %32 = getelementptr inbounds %"class.std::__cxx11::basic_string", ptr %9, i64 0, i32 2
  store ptr %32, ptr %9, align 8, !tbaa !8
  store i64 7883937507558256233, ptr %32, align 8
  %33 = getelementptr inbounds %"class.std::__cxx11::basic_string", ptr %9, i64 0, i32 1
  store i64 8, ptr %33, align 8, !tbaa !15
  %34 = getelementptr inbounds %"class.std::__cxx11::basic_string", ptr %9, i64 0, i32 2, i32 1
  store i8 0, ptr %34, align 8, !tbaa !17
  %35 = load ptr, ptr %22, align 8, !tbaa !22
  %36 = load ptr, ptr %23, align 8, !tbaa !23
  %37 = icmp eq ptr %35, %36
  br i1 %37, label %46, label %38

38:                                               ; preds = %31
  %39 = getelementptr inbounds %"class.std::__cxx11::basic_string", ptr %35, i64 0, i32 2
  store ptr %39, ptr %35, align 8, !tbaa !8
  %40 = load ptr, ptr %9, align 8, !tbaa !12
  %41 = load i64, ptr %40, align 1
  store i64 %41, ptr %39, align 1
  %42 = getelementptr inbounds %"class.std::__cxx11::basic_string", ptr %35, i64 0, i32 1
  store i64 8, ptr %42, align 8, !tbaa !15
  %43 = getelementptr inbounds %"class.std::__cxx11::basic_string", ptr %35, i64 0, i32 2, i32 1
  store i8 0, ptr %43, align 1, !tbaa !17
  %44 = load ptr, ptr %22, align 8, !tbaa !25
  %45 = getelementptr inbounds %"class.std::__cxx11::basic_string", ptr %44, i64 1
  store ptr %45, ptr %22, align 8, !tbaa !25
  br label %49

46:                                               ; preds = %31
  invoke void @_ZNSt6vectorINSt7__cxx1112basic_stringIcSt11char_traitsIcESaIcEEESaIS5_EE17_M_realloc_insertEN9__gnu_cxx17__normal_iteratorIPS5_S7_EERKS5_(ptr noundef nonnull align 8 dereferenceable(24) %7, ptr %35, ptr noundef nonnull align 8 dereferenceable(32) %9)
          to label %47 unwind label %271

47:                                               ; preds = %46
  %48 = load ptr, ptr %9, align 8, !tbaa !12
  br label %49

49:                                               ; preds = %47, %38
  %50 = phi ptr [ %48, %47 ], [ %40, %38 ]
  %51 = icmp eq ptr %50, %32
  br i1 %51, label %52, label %55

52:                                               ; preds = %49
  %53 = load i64, ptr %33, align 8, !tbaa !15
  %54 = icmp ult i64 %53, 16
  call void @llvm.assume(i1 %54)
  br label %56

55:                                               ; preds = %49
  call void @_ZdlPv(ptr noundef %50) #21
  br label %56

56:                                               ; preds = %55, %52
  call void @llvm.lifetime.end.p0(i64 32, ptr nonnull %9) #20
  call void @llvm.lifetime.start.p0(i64 32, ptr nonnull %10) #20
  %57 = getelementptr inbounds %"class.std::__cxx11::basic_string", ptr %10, i64 0, i32 2
  store ptr %57, ptr %10, align 8, !tbaa !8
  store i64 7310010090276613222, ptr %57, align 8
  %58 = getelementptr inbounds %"class.std::__cxx11::basic_string", ptr %10, i64 0, i32 1
  store i64 8, ptr %58, align 8, !tbaa !15
  %59 = getelementptr inbounds %"class.std::__cxx11::basic_string", ptr %10, i64 0, i32 2, i32 1
  store i8 0, ptr %59, align 8, !tbaa !17
  %60 = load ptr, ptr %22, align 8, !tbaa !22
  %61 = load ptr, ptr %23, align 8, !tbaa !23
  %62 = icmp eq ptr %60, %61
  br i1 %62, label %71, label %63

63:                                               ; preds = %56
  %64 = getelementptr inbounds %"class.std::__cxx11::basic_string", ptr %60, i64 0, i32 2
  store ptr %64, ptr %60, align 8, !tbaa !8
  %65 = load ptr, ptr %10, align 8, !tbaa !12
  %66 = load i64, ptr %65, align 1
  store i64 %66, ptr %64, align 1
  %67 = getelementptr inbounds %"class.std::__cxx11::basic_string", ptr %60, i64 0, i32 1
  store i64 8, ptr %67, align 8, !tbaa !15
  %68 = getelementptr inbounds %"class.std::__cxx11::basic_string", ptr %60, i64 0, i32 2, i32 1
  store i8 0, ptr %68, align 1, !tbaa !17
  %69 = load ptr, ptr %22, align 8, !tbaa !25
  %70 = getelementptr inbounds %"class.std::__cxx11::basic_string", ptr %69, i64 1
  store ptr %70, ptr %22, align 8, !tbaa !25
  br label %74

71:                                               ; preds = %56
  invoke void @_ZNSt6vectorINSt7__cxx1112basic_stringIcSt11char_traitsIcESaIcEEESaIS5_EE17_M_realloc_insertEN9__gnu_cxx17__normal_iteratorIPS5_S7_EERKS5_(ptr noundef nonnull align 8 dereferenceable(24) %7, ptr %60, ptr noundef nonnull align 8 dereferenceable(32) %10)
          to label %72 unwind label %280

72:                                               ; preds = %71
  %73 = load ptr, ptr %10, align 8, !tbaa !12
  br label %74

74:                                               ; preds = %72, %63
  %75 = phi ptr [ %73, %72 ], [ %65, %63 ]
  %76 = icmp eq ptr %75, %57
  br i1 %76, label %77, label %80

77:                                               ; preds = %74
  %78 = load i64, ptr %58, align 8, !tbaa !15
  %79 = icmp ult i64 %78, 16
  call void @llvm.assume(i1 %79)
  br label %81

80:                                               ; preds = %74
  call void @_ZdlPv(ptr noundef %75) #21
  br label %81

81:                                               ; preds = %80, %77
  call void @llvm.lifetime.end.p0(i64 32, ptr nonnull %10) #20
  call void @llvm.lifetime.start.p0(i64 32, ptr nonnull %11) #20
  %82 = getelementptr inbounds %"class.std::__cxx11::basic_string", ptr %11, i64 0, i32 2
  store ptr %82, ptr %11, align 8, !tbaa !8
  store i64 7883937567789640806, ptr %82, align 8
  %83 = getelementptr inbounds %"class.std::__cxx11::basic_string", ptr %11, i64 0, i32 1
  store i64 8, ptr %83, align 8, !tbaa !15
  %84 = getelementptr inbounds %"class.std::__cxx11::basic_string", ptr %11, i64 0, i32 2, i32 1
  store i8 0, ptr %84, align 8, !tbaa !17
  %85 = load ptr, ptr %22, align 8, !tbaa !22
  %86 = load ptr, ptr %23, align 8, !tbaa !23
  %87 = icmp eq ptr %85, %86
  br i1 %87, label %96, label %88

88:                                               ; preds = %81
  %89 = getelementptr inbounds %"class.std::__cxx11::basic_string", ptr %85, i64 0, i32 2
  store ptr %89, ptr %85, align 8, !tbaa !8
  %90 = load ptr, ptr %11, align 8, !tbaa !12
  %91 = load i64, ptr %90, align 1
  store i64 %91, ptr %89, align 1
  %92 = getelementptr inbounds %"class.std::__cxx11::basic_string", ptr %85, i64 0, i32 1
  store i64 8, ptr %92, align 8, !tbaa !15
  %93 = getelementptr inbounds %"class.std::__cxx11::basic_string", ptr %85, i64 0, i32 2, i32 1
  store i8 0, ptr %93, align 1, !tbaa !17
  %94 = load ptr, ptr %22, align 8, !tbaa !25
  %95 = getelementptr inbounds %"class.std::__cxx11::basic_string", ptr %94, i64 1
  store ptr %95, ptr %22, align 8, !tbaa !25
  br label %99

96:                                               ; preds = %81
  invoke void @_ZNSt6vectorINSt7__cxx1112basic_stringIcSt11char_traitsIcESaIcEEESaIS5_EE17_M_realloc_insertEN9__gnu_cxx17__normal_iteratorIPS5_S7_EERKS5_(ptr noundef nonnull align 8 dereferenceable(24) %7, ptr %85, ptr noundef nonnull align 8 dereferenceable(32) %11)
          to label %97 unwind label %289

97:                                               ; preds = %96
  %98 = load ptr, ptr %11, align 8, !tbaa !12
  br label %99

99:                                               ; preds = %97, %88
  %100 = phi ptr [ %98, %97 ], [ %90, %88 ]
  %101 = icmp eq ptr %100, %82
  br i1 %101, label %102, label %105

102:                                              ; preds = %99
  %103 = load i64, ptr %83, align 8, !tbaa !15
  %104 = icmp ult i64 %103, 16
  call void @llvm.assume(i1 %104)
  br label %106

105:                                              ; preds = %99
  call void @_ZdlPv(ptr noundef %100) #21
  br label %106

106:                                              ; preds = %105, %102
  call void @llvm.lifetime.end.p0(i64 32, ptr nonnull %11) #20
  call void @llvm.lifetime.start.p0(i64 224, ptr nonnull %12) #20
  invoke void @_ZN6dealii15DataOut_DoFDataINS_10DoFHandlerILi3ELi3EEELi3ELi3EEC2Ev(ptr noundef nonnull align 8 dereferenceable(216) %12)
          to label %107 unwind label %298

107:                                              ; preds = %106
  store ptr getelementptr inbounds ({ [12 x ptr] }, ptr @_ZTVN6dealii7DataOutILi3ENS_10DoFHandlerILi3ELi3EEEEE, i64 0, inrange i32 0, i64 2), ptr %12, align 8, !tbaa !5
  invoke void @_ZN6dealii15DataOut_DoFDataINS_10DoFHandlerILi3ELi3EEELi3ELi3EE18attach_dof_handlerERKS2_(ptr noundef nonnull align 8 dereferenceable(216) %12, ptr noundef nonnull align 8 dereferenceable(168) %1)
          to label %108 unwind label %300

108:                                              ; preds = %107
  call void @llvm.lifetime.start.p0(i64 24, ptr nonnull %13) #20
  call void @llvm.memset.p0.i64(ptr noundef nonnull align 8 dereferenceable(24) %13, i8 0, i64 24, i1 false)
  invoke void @_ZN6dealii15DataOut_DoFDataINS_10DoFHandlerILi3ELi3EEELi3ELi3EE15add_data_vectorINS_6VectorIdEEEEvRKT_RKSt6vectorINSt7__cxx1112basic_stringIcSt11char_traitsIcESaIcEEESaISG_EENS3_14DataVectorTypeERKSA_INS_27DataComponentInterpretation27DataComponentInterpretationESaISN_EE(ptr noundef nonnull align 8 dereferenceable(216) %12, ptr noundef nonnull align 8 dereferenceable(88) %2, ptr noundef nonnull align 8 dereferenceable(24) %7, i32 noundef 2, ptr noundef nonnull align 8 dereferenceable(24) %13)
          to label %109 unwind label %302

109:                                              ; preds = %108
  %110 = load ptr, ptr %13, align 8, !tbaa !26
  %111 = icmp eq ptr %110, null
  br i1 %111, label %113, label %112

112:                                              ; preds = %109
  call void @_ZdlPv(ptr noundef nonnull %110) #21
  br label %113

113:                                              ; preds = %112, %109
  call void @llvm.lifetime.end.p0(i64 24, ptr nonnull %13) #20
  %114 = load i32, ptr getelementptr inbounds (%"class.dealii::MultithreadInfo", ptr @_ZN6dealii16multithread_infoE, i64 0, i32 1), align 4, !tbaa !28
  invoke void @_ZN6dealii7DataOutILi3ENS_10DoFHandlerILi3ELi3EEEE13build_patchesEjj(ptr noundef nonnull align 8 dereferenceable(220) %12, i32 noundef 0, i32 noundef %114)
          to label %115 unwind label %300

115:                                              ; preds = %113
  call void @llvm.lifetime.start.p0(i64 376, ptr nonnull %14) #20
  invoke void @_ZNSt7__cxx1119basic_ostringstreamIcSt11char_traitsIcESaIcEEC1Ev(ptr noundef nonnull align 8 dereferenceable(112) %14)
          to label %116 unwind label %308

116:                                              ; preds = %115
  %117 = getelementptr inbounds %"class.METomography::ForwardSolver::Evaluation::SolutionOutput", ptr %0, i64 0, i32 1
  %118 = load ptr, ptr %117, align 8, !tbaa !12
  %119 = getelementptr inbounds %"class.METomography::ForwardSolver::Evaluation::SolutionOutput", ptr %0, i64 0, i32 1, i32 1
  %120 = load i64, ptr %119, align 8, !tbaa !15
  %121 = invoke noundef nonnull align 8 dereferenceable(8) ptr @_ZSt16__ostream_insertIcSt11char_traitsIcEERSt13basic_ostreamIT_T0_ES6_PKS3_l(ptr noundef nonnull align 8 dereferenceable(8) %14, ptr noundef %118, i64 noundef %120)
          to label %122 unwind label %310

122:                                              ; preds = %116
  %123 = invoke noundef nonnull align 8 dereferenceable(8) ptr @_ZSt16__ostream_insertIcSt11char_traitsIcEERSt13basic_ostreamIT_T0_ES6_PKS3_l(ptr noundef nonnull align 8 dereferenceable(8) %121, ptr noundef nonnull @.str.13, i64 noundef 1)
          to label %124 unwind label %310

124:                                              ; preds = %122
  call void @llvm.lifetime.start.p0(i64 32, ptr nonnull %15) #20
  %125 = invoke noundef i32 @_ZN6dealii9Utilities13needed_digitsEj(i32 noundef %4)
          to label %126 unwind label %312

126:                                              ; preds = %124
  invoke void @_ZN6dealii9Utilities13int_to_stringB5cxx11Ejj(ptr nonnull sret(%"class.std::__cxx11::basic_string") align 8 %15, i32 noundef %3, i32 noundef %125)
          to label %127 unwind label %312

127:                                              ; preds = %126
  %128 = load ptr, ptr %15, align 8, !tbaa !12
  %129 = getelementptr inbounds %"class.std::__cxx11::basic_string", ptr %15, i64 0, i32 1
  %130 = load i64, ptr %129, align 8, !tbaa !15
  %131 = invoke noundef nonnull align 8 dereferenceable(8) ptr @_ZSt16__ostream_insertIcSt11char_traitsIcEERSt13basic_ostreamIT_T0_ES6_PKS3_l(ptr noundef nonnull align 8 dereferenceable(8) %121, ptr noundef %128, i64 noundef %130)
          to label %132 unwind label %314

132:                                              ; preds = %127
  %133 = invoke noundef nonnull align 8 dereferenceable(8) ptr @_ZSt16__ostream_insertIcSt11char_traitsIcEERSt13basic_ostreamIT_T0_ES6_PKS3_l(ptr noundef nonnull align 8 dereferenceable(8) %131, ptr noundef nonnull @.str.14, i64 noundef 1)
          to label %134 unwind label %314

134:                                              ; preds = %132
  %135 = zext i32 %5 to i64
  %136 = invoke noundef nonnull align 8 dereferenceable(8) ptr @_ZNSo9_M_insertImEERSoT_(ptr noundef nonnull align 8 dereferenceable(8) %131, i64 noundef %135)
          to label %137 unwind label %314

137:                                              ; preds = %134
  call void @llvm.lifetime.start.p0(i64 32, ptr nonnull %16) #20
  %138 = getelementptr inbounds %"class.METomography::ForwardSolver::Evaluation::SolutionOutput", ptr %0, i64 0, i32 2
  %139 = load i32, ptr %138, align 8, !tbaa !18
  invoke void @_ZNK6dealii16DataOutInterfaceILi3ELi3EE14default_suffixB5cxx11ENS_11DataOutBase12OutputFormatE(ptr nonnull sret(%"class.std::__cxx11::basic_string") align 8 %16, ptr noundef nonnull align 8 dereferenceable(128) %12, i32 noundef %139)
          to label %140 unwind label %316

140:                                              ; preds = %137
  %141 = load ptr, ptr %16, align 8, !tbaa !12
  %142 = getelementptr inbounds %"class.std::__cxx11::basic_string", ptr %16, i64 0, i32 1
  %143 = load i64, ptr %142, align 8, !tbaa !15
  %144 = invoke noundef nonnull align 8 dereferenceable(8) ptr @_ZSt16__ostream_insertIcSt11char_traitsIcEERSt13basic_ostreamIT_T0_ES6_PKS3_l(ptr noundef nonnull align 8 dereferenceable(8) %136, ptr noundef %141, i64 noundef %143)
          to label %145 unwind label %318

145:                                              ; preds = %140
  %146 = invoke noundef nonnull align 8 dereferenceable(8) ptr @_ZNSo3putEc(ptr noundef nonnull align 8 dereferenceable(8) %144, i8 noundef signext 0)
          to label %147 unwind label %318

147:                                              ; preds = %145
  %148 = load ptr, ptr %16, align 8, !tbaa !12
  %149 = getelementptr inbounds %"class.std::__cxx11::basic_string", ptr %16, i64 0, i32 2
  %150 = icmp eq ptr %148, %149
  br i1 %150, label %151, label %154

151:                                              ; preds = %147
  %152 = load i64, ptr %142, align 8, !tbaa !15
  %153 = icmp ult i64 %152, 16
  call void @llvm.assume(i1 %153)
  br label %155

154:                                              ; preds = %147
  call void @_ZdlPv(ptr noundef %148) #21
  br label %155

155:                                              ; preds = %154, %151
  call void @llvm.lifetime.end.p0(i64 32, ptr nonnull %16) #20
  %156 = load ptr, ptr %15, align 8, !tbaa !12
  %157 = getelementptr inbounds %"class.std::__cxx11::basic_string", ptr %15, i64 0, i32 2
  %158 = icmp eq ptr %156, %157
  br i1 %158, label %159, label %162

159:                                              ; preds = %155
  %160 = load i64, ptr %129, align 8, !tbaa !15
  %161 = icmp ult i64 %160, 16
  call void @llvm.assume(i1 %161)
  br label %163

162:                                              ; preds = %155
  call void @_ZdlPv(ptr noundef %156) #21
  br label %163

163:                                              ; preds = %162, %159
  call void @llvm.lifetime.end.p0(i64 32, ptr nonnull %15) #20
  call void @llvm.lifetime.start.p0(i64 512, ptr nonnull %17) #20
  call void @llvm.lifetime.start.p0(i64 32, ptr nonnull %18) #20
  call void @llvm.experimental.noalias.scope.decl(metadata !31)
  call void @llvm.experimental.noalias.scope.decl(metadata !34)
  %164 = getelementptr inbounds %"class.std::__cxx11::basic_string", ptr %18, i64 0, i32 2
  store ptr %164, ptr %18, align 8, !tbaa !8, !alias.scope !37
  %165 = getelementptr inbounds %"class.std::__cxx11::basic_string", ptr %18, i64 0, i32 1
  store i64 0, ptr %165, align 8, !tbaa !15, !alias.scope !37
  store i8 0, ptr %164, align 8, !tbaa !17, !alias.scope !37
  %166 = getelementptr inbounds %"class.std::__cxx11::basic_ostringstream", ptr %14, i64 0, i32 1, i32 0, i32 5
  %167 = load ptr, ptr %166, align 8, !tbaa !38, !noalias !37
  %168 = icmp eq ptr %167, null
  %169 = getelementptr inbounds %"class.std::__cxx11::basic_ostringstream", ptr %14, i64 0, i32 1, i32 0, i32 3
  %170 = load ptr, ptr %169, align 8, !noalias !37
  %171 = icmp ugt ptr %167, %170
  %172 = select i1 %171, ptr %167, ptr %170
  %173 = icmp eq ptr %172, null
  %174 = select i1 %168, i1 true, i1 %173
  br i1 %174, label %190, label %175

175:                                              ; preds = %163
  %176 = getelementptr inbounds %"class.std::__cxx11::basic_ostringstream", ptr %14, i64 0, i32 1, i32 0, i32 4
  %177 = load ptr, ptr %176, align 8, !tbaa !41, !noalias !37
  %178 = ptrtoint ptr %172 to i64
  %179 = ptrtoint ptr %177 to i64
  %180 = sub i64 %178, %179
  %181 = invoke noundef nonnull align 8 dereferenceable(32) ptr @_ZNSt7__cxx1112basic_stringIcSt11char_traitsIcESaIcEE10_M_replaceEmmPKcm(ptr noundef nonnull align 8 dereferenceable(32) %18, i64 noundef 0, i64 noundef 0, ptr noundef %177, i64 noundef %180)
          to label %192 unwind label %182

182:                                              ; preds = %190, %175
  %183 = landingpad { ptr, i32 }
          cleanup
  %184 = load ptr, ptr %18, align 8, !tbaa !12, !alias.scope !37
  %185 = icmp eq ptr %184, %164
  br i1 %185, label %186, label %189

186:                                              ; preds = %182
  %187 = load i64, ptr %165, align 8, !tbaa !15, !alias.scope !37
  %188 = icmp ult i64 %187, 16
  call void @llvm.assume(i1 %188)
  br label %348

189:                                              ; preds = %182
  call void @_ZdlPv(ptr noundef %184) #21
  br label %348

190:                                              ; preds = %163
  %191 = getelementptr inbounds %"class.std::__cxx11::basic_ostringstream", ptr %14, i64 0, i32 1, i32 2
  invoke void @_ZNSt7__cxx1112basic_stringIcSt11char_traitsIcESaIcEE9_M_assignERKS4_(ptr noundef nonnull align 8 dereferenceable(32) %18, ptr noundef nonnull align 8 dereferenceable(32) %191)
          to label %192 unwind label %182

192:                                              ; preds = %190, %175
  %193 = load ptr, ptr %18, align 8, !tbaa !12
  invoke void @_ZNSt14basic_ofstreamIcSt11char_traitsIcEEC1EPKcSt13_Ios_Openmode(ptr noundef nonnull align 8 dereferenceable(248) %17, ptr noundef %193, i32 noundef 16)
          to label %194 unwind label %340

194:                                              ; preds = %192
  %195 = load ptr, ptr %18, align 8, !tbaa !12
  %196 = icmp eq ptr %195, %164
  br i1 %196, label %197, label %200

197:                                              ; preds = %194
  %198 = load i64, ptr %165, align 8, !tbaa !15
  %199 = icmp ult i64 %198, 16
  call void @llvm.assume(i1 %199)
  br label %201

200:                                              ; preds = %194
  call void @_ZdlPv(ptr noundef %195) #21
  br label %201

201:                                              ; preds = %200, %197
  call void @llvm.lifetime.end.p0(i64 32, ptr nonnull %18) #20
  %202 = load i32, ptr %138, align 8, !tbaa !18
  invoke void @_ZNK6dealii16DataOutInterfaceILi3ELi3EE5writeERSoNS_11DataOutBase12OutputFormatE(ptr noundef nonnull align 8 dereferenceable(128) %12, ptr noundef nonnull align 8 dereferenceable(8) %17, i32 noundef %202)
          to label %203 unwind label %350

203:                                              ; preds = %201
  %204 = load ptr, ptr @_ZTTSt14basic_ofstreamIcSt11char_traitsIcEE, align 8
  store ptr %204, ptr %17, align 8, !tbaa !5
  %205 = load ptr, ptr getelementptr inbounds ([4 x ptr], ptr @_ZTTSt14basic_ofstreamIcSt11char_traitsIcEE, i64 0, i64 3), align 8
  %206 = getelementptr i8, ptr %204, i64 -24
  %207 = load i64, ptr %206, align 8
  %208 = getelementptr inbounds i8, ptr %17, i64 %207
  store ptr %205, ptr %208, align 8, !tbaa !5
  %209 = getelementptr inbounds %"class.std::basic_ofstream", ptr %17, i64 0, i32 1
  invoke void @_ZNSt13basic_filebufIcSt11char_traitsIcEED2Ev(ptr noundef nonnull align 8 dereferenceable(240) %209)
          to label %210 unwind label %212

210:                                              ; preds = %203
  %211 = getelementptr inbounds i8, ptr %17, i64 248
  invoke void @_ZNSt8ios_baseD2Ev(ptr noundef nonnull align 8 dereferenceable(264) %211)
          to label %218 unwind label %352

212:                                              ; preds = %203
  %213 = landingpad { ptr, i32 }
          cleanup
  %214 = getelementptr inbounds i8, ptr %17, i64 248
  invoke void @_ZNSt8ios_baseD2Ev(ptr noundef nonnull align 8 dereferenceable(264) %214)
          to label %354 unwind label %215

215:                                              ; preds = %212
  %216 = landingpad { ptr, i32 }
          catch ptr null
  %217 = extractvalue { ptr, i32 } %216, 0
  call void @__clang_call_terminate(ptr %217) #19
  unreachable

218:                                              ; preds = %210
  call void @llvm.lifetime.end.p0(i64 512, ptr nonnull %17) #20
  %219 = load ptr, ptr @_ZTTNSt7__cxx1119basic_ostringstreamIcSt11char_traitsIcESaIcEEE, align 8
  store ptr %219, ptr %14, align 8, !tbaa !5
  %220 = load ptr, ptr getelementptr inbounds ([4 x ptr], ptr @_ZTTNSt7__cxx1119basic_ostringstreamIcSt11char_traitsIcESaIcEEE, i64 0, i64 3), align 8
  %221 = getelementptr i8, ptr %219, i64 -24
  %222 = load i64, ptr %221, align 8
  %223 = getelementptr inbounds i8, ptr %14, i64 %222
  store ptr %220, ptr %223, align 8, !tbaa !5
  %224 = getelementptr inbounds %"class.std::__cxx11::basic_ostringstream", ptr %14, i64 0, i32 1
  store ptr getelementptr inbounds ({ [16 x ptr] }, ptr @_ZTVNSt7__cxx1115basic_stringbufIcSt11char_traitsIcESaIcEEE, i64 0, inrange i32 0, i64 2), ptr %224, align 8, !tbaa !5
  %225 = getelementptr inbounds %"class.std::__cxx11::basic_ostringstream", ptr %14, i64 0, i32 1, i32 2
  %226 = load ptr, ptr %225, align 8, !tbaa !12
  %227 = getelementptr inbounds %"class.std::__cxx11::basic_ostringstream", ptr %14, i64 0, i32 1, i32 2, i32 2
  %228 = icmp eq ptr %226, %227
  br i1 %228, label %229, label %233

229:                                              ; preds = %218
  %230 = getelementptr inbounds %"class.std::__cxx11::basic_ostringstream", ptr %14, i64 0, i32 1, i32 2, i32 1
  %231 = load i64, ptr %230, align 8, !tbaa !15
  %232 = icmp ult i64 %231, 16
  call void @llvm.assume(i1 %232)
  br label %234

233:                                              ; preds = %218
  call void @_ZdlPv(ptr noundef %226) #21
  br label %234

234:                                              ; preds = %233, %229
  store ptr getelementptr inbounds ({ [16 x ptr] }, ptr @_ZTVSt15basic_streambufIcSt11char_traitsIcEE, i64 0, inrange i32 0, i64 2), ptr %224, align 8, !tbaa !5
  %235 = getelementptr inbounds %"class.std::__cxx11::basic_ostringstream", ptr %14, i64 0, i32 1, i32 0, i32 7
  call void @_ZNSt6localeD1Ev(ptr noundef nonnull align 8 dereferenceable(8) %235) #20
  %236 = getelementptr inbounds i8, ptr %14, i64 112
  invoke void @_ZNSt8ios_baseD2Ev(ptr noundef nonnull align 8 dereferenceable(264) %236)
          to label %237 unwind label %308

237:                                              ; preds = %234
  call void @llvm.lifetime.end.p0(i64 376, ptr nonnull %14) #20
  invoke void @_ZN6dealii15DataOut_DoFDataINS_10DoFHandlerILi3ELi3EEELi3ELi3EED2Ev(ptr noundef nonnull align 8 dereferenceable(220) %12)
          to label %238 unwind label %298

238:                                              ; preds = %237
  call void @llvm.lifetime.end.p0(i64 224, ptr nonnull %12) #20
  %239 = load ptr, ptr %7, align 8, !tbaa !42
  %240 = load ptr, ptr %22, align 8, !tbaa !25
  %241 = icmp eq ptr %239, %240
  br i1 %241, label %257, label %242

242:                                              ; preds = %238, %252
  %243 = phi ptr [ %253, %252 ], [ %239, %238 ]
  %244 = load ptr, ptr %243, align 8, !tbaa !12
  %245 = getelementptr inbounds %"class.std::__cxx11::basic_string", ptr %243, i64 0, i32 2
  %246 = icmp eq ptr %244, %245
  br i1 %246, label %247, label %251

247:                                              ; preds = %242
  %248 = getelementptr inbounds %"class.std::__cxx11::basic_string", ptr %243, i64 0, i32 1
  %249 = load i64, ptr %248, align 8, !tbaa !15
  %250 = icmp ult i64 %249, 16
  call void @llvm.assume(i1 %250)
  br label %252

251:                                              ; preds = %242
  call void @_ZdlPv(ptr noundef %244) #21
  br label %252

252:                                              ; preds = %251, %247
  %253 = getelementptr inbounds %"class.std::__cxx11::basic_string", ptr %243, i64 1
  %254 = icmp eq ptr %253, %240
  br i1 %254, label %255, label %242

255:                                              ; preds = %252
  %256 = load ptr, ptr %7, align 8, !tbaa !42
  br label %257

257:                                              ; preds = %255, %238
  %258 = phi ptr [ %256, %255 ], [ %239, %238 ]
  %259 = icmp eq ptr %258, null
  br i1 %259, label %261, label %260

260:                                              ; preds = %257
  call void @_ZdlPv(ptr noundef nonnull %258) #21
  br label %261

261:                                              ; preds = %257, %260
  call void @llvm.lifetime.end.p0(i64 24, ptr nonnull %7) #20
  ret void

262:                                              ; preds = %6
  %263 = landingpad { ptr, i32 }
          cleanup
  %264 = load ptr, ptr %8, align 8, !tbaa !12
  %265 = icmp eq ptr %264, %19
  br i1 %265, label %266, label %269

266:                                              ; preds = %262
  %267 = load i64, ptr %20, align 8, !tbaa !15
  %268 = icmp ult i64 %267, 16
  call void @llvm.assume(i1 %268)
  br label %270

269:                                              ; preds = %262
  call void @_ZdlPv(ptr noundef %264) #21
  br label %270

270:                                              ; preds = %269, %266
  call void @llvm.lifetime.end.p0(i64 32, ptr nonnull %8) #20
  br label %364

271:                                              ; preds = %46
  %272 = landingpad { ptr, i32 }
          cleanup
  %273 = load ptr, ptr %9, align 8, !tbaa !12
  %274 = icmp eq ptr %273, %32
  br i1 %274, label %275, label %278

275:                                              ; preds = %271
  %276 = load i64, ptr %33, align 8, !tbaa !15
  %277 = icmp ult i64 %276, 16
  call void @llvm.assume(i1 %277)
  br label %279

278:                                              ; preds = %271
  call void @_ZdlPv(ptr noundef %273) #21
  br label %279

279:                                              ; preds = %278, %275
  call void @llvm.lifetime.end.p0(i64 32, ptr nonnull %9) #20
  br label %364

280:                                              ; preds = %71
  %281 = landingpad { ptr, i32 }
          cleanup
  %282 = load ptr, ptr %10, align 8, !tbaa !12
  %283 = icmp eq ptr %282, %57
  br i1 %283, label %284, label %287

284:                                              ; preds = %280
  %285 = load i64, ptr %58, align 8, !tbaa !15
  %286 = icmp ult i64 %285, 16
  call void @llvm.assume(i1 %286)
  br label %288

287:                                              ; preds = %280
  call void @_ZdlPv(ptr noundef %282) #21
  br label %288

288:                                              ; preds = %287, %284
  call void @llvm.lifetime.end.p0(i64 32, ptr nonnull %10) #20
  br label %364

289:                                              ; preds = %96
  %290 = landingpad { ptr, i32 }
          cleanup
  %291 = load ptr, ptr %11, align 8, !tbaa !12
  %292 = icmp eq ptr %291, %82
  br i1 %292, label %293, label %296

293:                                              ; preds = %289
  %294 = load i64, ptr %83, align 8, !tbaa !15
  %295 = icmp ult i64 %294, 16
  call void @llvm.assume(i1 %295)
  br label %297

296:                                              ; preds = %289
  call void @_ZdlPv(ptr noundef %291) #21
  br label %297

297:                                              ; preds = %296, %293
  call void @llvm.lifetime.end.p0(i64 32, ptr nonnull %11) #20
  br label %364

298:                                              ; preds = %106, %237
  %299 = landingpad { ptr, i32 }
          cleanup
  br label %362

300:                                              ; preds = %113, %107
  %301 = landingpad { ptr, i32 }
          cleanup
  br label %360

302:                                              ; preds = %108
  %303 = landingpad { ptr, i32 }
          cleanup
  %304 = load ptr, ptr %13, align 8, !tbaa !26
  %305 = icmp eq ptr %304, null
  br i1 %305, label %307, label %306

306:                                              ; preds = %302
  call void @_ZdlPv(ptr noundef nonnull %304) #21
  br label %307

307:                                              ; preds = %306, %302
  call void @llvm.lifetime.end.p0(i64 24, ptr nonnull %13) #20
  br label %360

308:                                              ; preds = %234, %115
  %309 = landingpad { ptr, i32 }
          cleanup
  br label %358

310:                                              ; preds = %122, %116
  %311 = landingpad { ptr, i32 }
          cleanup
  br label %356

312:                                              ; preds = %126, %124
  %313 = landingpad { ptr, i32 }
          cleanup
  br label %338

314:                                              ; preds = %134, %132, %127
  %315 = landingpad { ptr, i32 }
          cleanup
  br label %329

316:                                              ; preds = %137
  %317 = landingpad { ptr, i32 }
          cleanup
  br label %327

318:                                              ; preds = %145, %140
  %319 = landingpad { ptr, i32 }
          cleanup
  %320 = load ptr, ptr %16, align 8, !tbaa !12
  %321 = getelementptr inbounds %"class.std::__cxx11::basic_string", ptr %16, i64 0, i32 2
  %322 = icmp eq ptr %320, %321
  br i1 %322, label %323, label %326

323:                                              ; preds = %318
  %324 = load i64, ptr %142, align 8, !tbaa !15
  %325 = icmp ult i64 %324, 16
  call void @llvm.assume(i1 %325)
  br label %327

326:                                              ; preds = %318
  call void @_ZdlPv(ptr noundef %320) #21
  br label %327

327:                                              ; preds = %326, %323, %316
  %328 = phi { ptr, i32 } [ %317, %316 ], [ %319, %323 ], [ %319, %326 ]
  call void @llvm.lifetime.end.p0(i64 32, ptr nonnull %16) #20
  br label %329

329:                                              ; preds = %327, %314
  %330 = phi { ptr, i32 } [ %328, %327 ], [ %315, %314 ]
  %331 = load ptr, ptr %15, align 8, !tbaa !12
  %332 = getelementptr inbounds %"class.std::__cxx11::basic_string", ptr %15, i64 0, i32 2
  %333 = icmp eq ptr %331, %332
  br i1 %333, label %334, label %337

334:                                              ; preds = %329
  %335 = load i64, ptr %129, align 8, !tbaa !15
  %336 = icmp ult i64 %335, 16
  call void @llvm.assume(i1 %336)
  br label %338

337:                                              ; preds = %329
  call void @_ZdlPv(ptr noundef %331) #21
  br label %338

338:                                              ; preds = %337, %334, %312
  %339 = phi { ptr, i32 } [ %313, %312 ], [ %330, %334 ], [ %330, %337 ]
  call void @llvm.lifetime.end.p0(i64 32, ptr nonnull %15) #20
  br label %356

340:                                              ; preds = %192
  %341 = landingpad { ptr, i32 }
          cleanup
  %342 = load ptr, ptr %18, align 8, !tbaa !12
  %343 = icmp eq ptr %342, %164
  br i1 %343, label %344, label %347

344:                                              ; preds = %340
  %345 = load i64, ptr %165, align 8, !tbaa !15
  %346 = icmp ult i64 %345, 16
  call void @llvm.assume(i1 %346)
  br label %348

347:                                              ; preds = %340
  call void @_ZdlPv(ptr noundef %342) #21
  br label %348

348:                                              ; preds = %347, %344, %189, %186
  %349 = phi { ptr, i32 } [ %183, %189 ], [ %183, %186 ], [ %341, %344 ], [ %341, %347 ]
  call void @llvm.lifetime.end.p0(i64 32, ptr nonnull %18) #20
  br label %354

350:                                              ; preds = %201
  %351 = landingpad { ptr, i32 }
          cleanup
  invoke void @_ZNSt14basic_ofstreamIcSt11char_traitsIcEED1Ev(ptr noundef nonnull align 8 dereferenceable(248) %17)
          to label %354 unwind label %367

352:                                              ; preds = %210
  %353 = landingpad { ptr, i32 }
          cleanup
  br label %354

354:                                              ; preds = %352, %212, %350, %348
  %355 = phi { ptr, i32 } [ %351, %350 ], [ %349, %348 ], [ %353, %352 ], [ %213, %212 ]
  call void @llvm.lifetime.end.p0(i64 512, ptr nonnull %17) #20
  br label %356

356:                                              ; preds = %354, %338, %310
  %357 = phi { ptr, i32 } [ %355, %354 ], [ %339, %338 ], [ %311, %310 ]
  invoke void @_ZNSt7__cxx1119basic_ostringstreamIcSt11char_traitsIcESaIcEED1Ev(ptr noundef nonnull align 8 dereferenceable(112) %14)
          to label %358 unwind label %367

358:                                              ; preds = %356, %308
  %359 = phi { ptr, i32 } [ %309, %308 ], [ %357, %356 ]
  call void @llvm.lifetime.end.p0(i64 376, ptr nonnull %14) #20
  br label %360

360:                                              ; preds = %358, %307, %300
  %361 = phi { ptr, i32 } [ %359, %358 ], [ %301, %300 ], [ %303, %307 ]
  invoke void @_ZN6dealii15DataOut_DoFDataINS_10DoFHandlerILi3ELi3EEELi3ELi3EED2Ev(ptr noundef nonnull align 8 dereferenceable(220) %12)
          to label %362 unwind label %367

362:                                              ; preds = %360, %298
  %363 = phi { ptr, i32 } [ %299, %298 ], [ %361, %360 ]
  call void @llvm.lifetime.end.p0(i64 224, ptr nonnull %12) #20
  br label %364

364:                                              ; preds = %362, %297, %288, %279, %270
  %365 = phi { ptr, i32 } [ %363, %362 ], [ %290, %297 ], [ %281, %288 ], [ %272, %279 ], [ %263, %270 ]
  invoke void @_ZNSt6vectorINSt7__cxx1112basic_stringIcSt11char_traitsIcESaIcEEESaIS5_EED2Ev(ptr noundef nonnull align 8 dereferenceable(24) %7)
          to label %366 unwind label %367

366:                                              ; preds = %364
  call void @llvm.lifetime.end.p0(i64 24, ptr nonnull %7) #20
  resume { ptr, i32 } %365

367:                                              ; preds = %364, %360, %356, %350
  %368 = landingpad { ptr, i32 }
          catch ptr null
  %369 = extractvalue { ptr, i32 } %368, 0
  call void @__clang_call_terminate(ptr %369) #19
  unreachable
}

; Function Attrs: mustprogress nocallback nofree nosync nounwind willreturn memory(argmem: readwrite)
declare void @llvm.lifetime.start.p0(i64 immarg, ptr nocapture) #6

; Function Attrs: mustprogress nocallback nofree nosync nounwind willreturn memory(argmem: readwrite)
declare void @llvm.lifetime.end.p0(i64 immarg, ptr nocapture) #6

declare void @_ZN6dealii15DataOut_DoFDataINS_10DoFHandlerILi3ELi3EEELi3ELi3EE18attach_dof_handlerERKS2_(ptr noundef nonnull align 8 dereferenceable(216), ptr noundef nonnull align 8 dereferenceable(168)) local_unnamed_addr #4

declare void @_ZN6dealii15DataOut_DoFDataINS_10DoFHandlerILi3ELi3EEELi3ELi3EE15add_data_vectorINS_6VectorIdEEEEvRKT_RKSt6vectorINSt7__cxx1112basic_stringIcSt11char_traitsIcESaIcEEESaISG_EENS3_14DataVectorTypeERKSA_INS_27DataComponentInterpretation27DataComponentInterpretationESaISN_EE(ptr noundef nonnull align 8 dereferenceable(216), ptr noundef nonnull align 8 dereferenceable(88), ptr noundef nonnull align 8 dereferenceable(24), i32 noundef, ptr noundef nonnull align 8 dereferenceable(24)) local_unnamed_addr #4

declare void @_ZN6dealii7DataOutILi3ENS_10DoFHandlerILi3ELi3EEEE13build_patchesEjj(ptr noundef nonnull align 8 dereferenceable(220), i32 noundef, i32 noundef) unnamed_addr #4

; Function Attrs: sspstrong uwtable
declare void @_ZNSt7__cxx1119basic_ostringstreamIcSt11char_traitsIcESaIcEEC1Ev(ptr noundef nonnull align 8 dereferenceable(112)) unnamed_addr #2 align 2

declare void @_ZN6dealii9Utilities13int_to_stringB5cxx11Ejj(ptr sret(%"class.std::__cxx11::basic_string") align 8, i32 noundef, i32 noundef) local_unnamed_addr #4

declare noundef i32 @_ZN6dealii9Utilities13needed_digitsEj(i32 noundef) local_unnamed_addr #4

declare void @_ZNK6dealii16DataOutInterfaceILi3ELi3EE14default_suffixB5cxx11ENS_11DataOutBase12OutputFormatE(ptr sret(%"class.std::__cxx11::basic_string") align 8, ptr noundef nonnull align 8 dereferenceable(128), i32 noundef) local_unnamed_addr #4

; Function Attrs: sspstrong uwtable
declare void @_ZNSt14basic_ofstreamIcSt11char_traitsIcEEC1EPKcSt13_Ios_Openmode(ptr noundef nonnull align 8 dereferenceable(248), ptr noundef, i32 noundef) unnamed_addr #2 align 2

declare void @_ZNK6dealii16DataOutInterfaceILi3ELi3EE5writeERSoNS_11DataOutBase12OutputFormatE(ptr noundef nonnull align 8 dereferenceable(128), ptr noundef nonnull align 8 dereferenceable(8), i32 noundef) local_unnamed_addr #4

; Function Attrs: sspstrong uwtable
declare void @_ZNSt14basic_ofstreamIcSt11char_traitsIcEED1Ev(ptr noundef nonnull align 8 dereferenceable(248)) unnamed_addr #2 align 2

; Function Attrs: sspstrong uwtable
declare void @_ZNSt7__cxx1119basic_ostringstreamIcSt11char_traitsIcESaIcEED1Ev(ptr noundef nonnull align 8 dereferenceable(112)) unnamed_addr #2 align 2

; Function Attrs: sspstrong uwtable
define linkonce_odr dso_local void @_ZNSt6vectorINSt7__cxx1112basic_stringIcSt11char_traitsIcESaIcEEESaIS5_EED2Ev(ptr noundef nonnull align 8 dereferenceable(24) %0) unnamed_addr #2 comdat align 2 personality ptr @__gxx_personality_v0 {
  %2 = load ptr, ptr %0, align 8, !tbaa !42
  %3 = getelementptr inbounds %"struct.std::_Vector_base<std::__cxx11::basic_string<char>, std::allocator<std::__cxx11::basic_string<char> > >::_Vector_impl_data", ptr %0, i64 0, i32 1
  %4 = load ptr, ptr %3, align 8, !tbaa !25
  %5 = icmp eq ptr %2, %4
  br i1 %5, label %21, label %6

6:                                                ; preds = %1, %16
  %7 = phi ptr [ %17, %16 ], [ %2, %1 ]
  %8 = load ptr, ptr %7, align 8, !tbaa !12
  %9 = getelementptr inbounds %"class.std::__cxx11::basic_string", ptr %7, i64 0, i32 2
  %10 = icmp eq ptr %8, %9
  br i1 %10, label %11, label %15

11:                                               ; preds = %6
  %12 = getelementptr inbounds %"class.std::__cxx11::basic_string", ptr %7, i64 0, i32 1
  %13 = load i64, ptr %12, align 8, !tbaa !15
  %14 = icmp ult i64 %13, 16
  tail call void @llvm.assume(i1 %14)
  br label %16

15:                                               ; preds = %6
  tail call void @_ZdlPv(ptr noundef %8) #21
  br label %16

16:                                               ; preds = %15, %11
  %17 = getelementptr inbounds %"class.std::__cxx11::basic_string", ptr %7, i64 1
  %18 = icmp eq ptr %17, %4
  br i1 %18, label %19, label %6

19:                                               ; preds = %16
  %20 = load ptr, ptr %0, align 8, !tbaa !42
  br label %21

21:                                               ; preds = %19, %1
  %22 = phi ptr [ %20, %19 ], [ %2, %1 ]
  %23 = icmp eq ptr %22, null
  br i1 %23, label %25, label %24

24:                                               ; preds = %21
  tail call void @_ZdlPv(ptr noundef nonnull %22) #21
  br label %25

25:                                               ; preds = %21, %24
  ret void
}

; Function Attrs: sspstrong uwtable
define weak_odr dso_local void @_ZN12METomography13ForwardSolver10Evaluation10MeshOutputILi3EEC2ERKNSt7__cxx1112basic_stringIcSt11char_traitsIcESaIcEEE(ptr noundef nonnull align 8 dereferenceable(40) %0, ptr noundef nonnull align 8 dereferenceable(32) %1) unnamed_addr #2 comdat($_ZN12METomography13ForwardSolver10Evaluation10MeshOutputILi3EEC5ERKNSt7__cxx1112basic_stringIcSt11char_traitsIcESaIcEEE) align 2 personality ptr @__gxx_personality_v0 {
  %3 = alloca i64, align 8
  store ptr getelementptr inbounds ({ [5 x ptr] }, ptr @_ZTVN12METomography13ForwardSolver10Evaluation10MeshOutputILi3EEE, i64 0, inrange i32 0, i64 2), ptr %0, align 8, !tbaa !5
  %4 = getelementptr inbounds %"class.METomography::ForwardSolver::Evaluation::MeshOutput", ptr %0, i64 0, i32 1
  %5 = getelementptr inbounds %"class.METomography::ForwardSolver::Evaluation::MeshOutput", ptr %0, i64 0, i32 1, i32 2
  store ptr %5, ptr %4, align 8, !tbaa !8
  %6 = load ptr, ptr %1, align 8, !tbaa !12
  %7 = getelementptr inbounds %"class.std::__cxx11::basic_string", ptr %1, i64 0, i32 1
  %8 = load i64, ptr %7, align 8, !tbaa !15
  call void @llvm.lifetime.start.p0(i64 8, ptr nonnull %3) #20
  store i64 %8, ptr %3, align 8, !tbaa !16
  %9 = icmp ugt i64 %8, 15
  br i1 %9, label %10, label %13

10:                                               ; preds = %2
  %11 = call noundef ptr @_ZNSt7__cxx1112basic_stringIcSt11char_traitsIcESaIcEE9_M_createERmm(ptr noundef nonnull align 8 dereferenceable(32) %4, ptr noundef nonnull align 8 dereferenceable(8) %3, i64 noundef 0)
  store ptr %11, ptr %4, align 8, !tbaa !12
  %12 = load i64, ptr %3, align 8, !tbaa !16
  store i64 %12, ptr %5, align 8, !tbaa !17
  br label %13

13:                                               ; preds = %10, %2
  %14 = phi ptr [ %11, %10 ], [ %5, %2 ]
  switch i64 %8, label %17 [
    i64 1, label %15
    i64 0, label %18
  ]

15:                                               ; preds = %13
  %16 = load i8, ptr %6, align 1, !tbaa !17
  store i8 %16, ptr %14, align 1, !tbaa !17
  br label %18

17:                                               ; preds = %13
  call void @llvm.memcpy.p0.p0.i64(ptr align 1 %14, ptr align 1 %6, i64 %8, i1 false)
  br label %18

18:                                               ; preds = %17, %15, %13
  %19 = load i64, ptr %3, align 8, !tbaa !16
  %20 = getelementptr inbounds %"class.METomography::ForwardSolver::Evaluation::MeshOutput", ptr %0, i64 0, i32 1, i32 1
  store i64 %19, ptr %20, align 8, !tbaa !15
  %21 = load ptr, ptr %4, align 8, !tbaa !12
  %22 = getelementptr inbounds i8, ptr %21, i64 %19
  store i8 0, ptr %22, align 1, !tbaa !17
  call void @llvm.lifetime.end.p0(i64 8, ptr nonnull %3) #20
  ret void
}

; Function Attrs: sspstrong uwtable
define weak_odr dso_local void @_ZNK12METomography13ForwardSolver10Evaluation10MeshOutputILi3EE8evaluateERKN6dealii10DoFHandlerILi3ELi3EEERKNS4_6VectorIdEEjjj(ptr noundef nonnull align 8 dereferenceable(40) %0, ptr noundef nonnull align 8 dereferenceable(168) %1, ptr noundef nonnull align 8 dereferenceable(88) %2, i32 noundef %3, i32 noundef %4, i32 noundef %5) unnamed_addr #2 comdat align 2 personality ptr @__gxx_personality_v0 {
  %7 = alloca %"class.std::__cxx11::basic_ostringstream", align 8
  %8 = alloca %"class.std::__cxx11::basic_string", align 8
  %9 = alloca %"class.std::basic_ofstream", align 8
  %10 = alloca %"class.std::__cxx11::basic_string", align 8
  %11 = alloca %"class.dealii::GridOut", align 8
  call void @llvm.lifetime.start.p0(i64 376, ptr nonnull %7) #20
  call void @_ZNSt7__cxx1119basic_ostringstreamIcSt11char_traitsIcESaIcEEC1Ev(ptr noundef nonnull align 8 dereferenceable(112) %7)
  %12 = getelementptr inbounds %"class.METomography::ForwardSolver::Evaluation::MeshOutput", ptr %0, i64 0, i32 1
  %13 = load ptr, ptr %12, align 8, !tbaa !12
  %14 = getelementptr inbounds %"class.METomography::ForwardSolver::Evaluation::MeshOutput", ptr %0, i64 0, i32 1, i32 1
  %15 = load i64, ptr %14, align 8, !tbaa !15
  %16 = invoke noundef nonnull align 8 dereferenceable(8) ptr @_ZSt16__ostream_insertIcSt11char_traitsIcEERSt13basic_ostreamIT_T0_ES6_PKS3_l(ptr noundef nonnull align 8 dereferenceable(8) %7, ptr noundef %13, i64 noundef %15)
          to label %17 unwind label %135

17:                                               ; preds = %6
  %18 = invoke noundef nonnull align 8 dereferenceable(8) ptr @_ZSt16__ostream_insertIcSt11char_traitsIcEERSt13basic_ostreamIT_T0_ES6_PKS3_l(ptr noundef nonnull align 8 dereferenceable(8) %16, ptr noundef nonnull @.str.13, i64 noundef 1)
          to label %19 unwind label %135

19:                                               ; preds = %17
  call void @llvm.lifetime.start.p0(i64 32, ptr nonnull %8) #20
  %20 = invoke noundef i32 @_ZN6dealii9Utilities13needed_digitsEj(i32 noundef %4)
          to label %21 unwind label %137

21:                                               ; preds = %19
  invoke void @_ZN6dealii9Utilities13int_to_stringB5cxx11Ejj(ptr nonnull sret(%"class.std::__cxx11::basic_string") align 8 %8, i32 noundef %3, i32 noundef %20)
          to label %22 unwind label %137

22:                                               ; preds = %21
  %23 = load ptr, ptr %8, align 8, !tbaa !12
  %24 = getelementptr inbounds %"class.std::__cxx11::basic_string", ptr %8, i64 0, i32 1
  %25 = load i64, ptr %24, align 8, !tbaa !15
  %26 = invoke noundef nonnull align 8 dereferenceable(8) ptr @_ZSt16__ostream_insertIcSt11char_traitsIcEERSt13basic_ostreamIT_T0_ES6_PKS3_l(ptr noundef nonnull align 8 dereferenceable(8) %16, ptr noundef %23, i64 noundef %25)
          to label %27 unwind label %139

27:                                               ; preds = %22
  %28 = invoke noundef nonnull align 8 dereferenceable(8) ptr @_ZSt16__ostream_insertIcSt11char_traitsIcEERSt13basic_ostreamIT_T0_ES6_PKS3_l(ptr noundef nonnull align 8 dereferenceable(8) %26, ptr noundef nonnull @.str.14, i64 noundef 1)
          to label %29 unwind label %139

29:                                               ; preds = %27
  %30 = zext i32 %5 to i64
  %31 = invoke noundef nonnull align 8 dereferenceable(8) ptr @_ZNSo9_M_insertImEERSoT_(ptr noundef nonnull align 8 dereferenceable(8) %26, i64 noundef %30)
          to label %32 unwind label %139

32:                                               ; preds = %29
  %33 = invoke noundef nonnull align 8 dereferenceable(8) ptr @_ZSt16__ostream_insertIcSt11char_traitsIcEERSt13basic_ostreamIT_T0_ES6_PKS3_l(ptr noundef nonnull align 8 dereferenceable(8) %31, ptr noundef nonnull @.str.15, i64 noundef 4)
          to label %34 unwind label %139

34:                                               ; preds = %32
  %35 = invoke noundef nonnull align 8 dereferenceable(8) ptr @_ZNSo3putEc(ptr noundef nonnull align 8 dereferenceable(8) %31, i8 noundef signext 0)
          to label %36 unwind label %139

36:                                               ; preds = %34
  %37 = load ptr, ptr %8, align 8, !tbaa !12
  %38 = getelementptr inbounds %"class.std::__cxx11::basic_string", ptr %8, i64 0, i32 2
  %39 = icmp eq ptr %37, %38
  br i1 %39, label %40, label %43

40:                                               ; preds = %36
  %41 = load i64, ptr %24, align 8, !tbaa !15
  %42 = icmp ult i64 %41, 16
  call void @llvm.assume(i1 %42)
  br label %44

43:                                               ; preds = %36
  call void @_ZdlPv(ptr noundef %37) #21
  br label %44

44:                                               ; preds = %43, %40
  call void @llvm.lifetime.end.p0(i64 32, ptr nonnull %8) #20
  call void @llvm.lifetime.start.p0(i64 512, ptr nonnull %9) #20
  call void @llvm.lifetime.start.p0(i64 32, ptr nonnull %10) #20
  call void @llvm.experimental.noalias.scope.decl(metadata !43)
  call void @llvm.experimental.noalias.scope.decl(metadata !46)
  %45 = getelementptr inbounds %"class.std::__cxx11::basic_string", ptr %10, i64 0, i32 2
  store ptr %45, ptr %10, align 8, !tbaa !8, !alias.scope !49
  %46 = getelementptr inbounds %"class.std::__cxx11::basic_string", ptr %10, i64 0, i32 1
  store i64 0, ptr %46, align 8, !tbaa !15, !alias.scope !49
  store i8 0, ptr %45, align 8, !tbaa !17, !alias.scope !49
  %47 = getelementptr inbounds %"class.std::__cxx11::basic_ostringstream", ptr %7, i64 0, i32 1, i32 0, i32 5
  %48 = load ptr, ptr %47, align 8, !tbaa !38, !noalias !49
  %49 = icmp eq ptr %48, null
  %50 = getelementptr inbounds %"class.std::__cxx11::basic_ostringstream", ptr %7, i64 0, i32 1, i32 0, i32 3
  %51 = load ptr, ptr %50, align 8, !noalias !49
  %52 = icmp ugt ptr %48, %51
  %53 = select i1 %52, ptr %48, ptr %51
  %54 = icmp eq ptr %53, null
  %55 = select i1 %49, i1 true, i1 %54
  br i1 %55, label %71, label %56

56:                                               ; preds = %44
  %57 = getelementptr inbounds %"class.std::__cxx11::basic_ostringstream", ptr %7, i64 0, i32 1, i32 0, i32 4
  %58 = load ptr, ptr %57, align 8, !tbaa !41, !noalias !49
  %59 = ptrtoint ptr %53 to i64
  %60 = ptrtoint ptr %58 to i64
  %61 = sub i64 %59, %60
  %62 = invoke noundef nonnull align 8 dereferenceable(32) ptr @_ZNSt7__cxx1112basic_stringIcSt11char_traitsIcESaIcEE10_M_replaceEmmPKcm(ptr noundef nonnull align 8 dereferenceable(32) %10, i64 noundef 0, i64 noundef 0, ptr noundef %58, i64 noundef %61)
          to label %73 unwind label %63

63:                                               ; preds = %71, %56
  %64 = landingpad { ptr, i32 }
          cleanup
  %65 = load ptr, ptr %10, align 8, !tbaa !12, !alias.scope !49
  %66 = icmp eq ptr %65, %45
  br i1 %66, label %67, label %70

67:                                               ; preds = %63
  %68 = load i64, ptr %46, align 8, !tbaa !15, !alias.scope !49
  %69 = icmp ult i64 %68, 16
  call void @llvm.assume(i1 %69)
  br label %158

70:                                               ; preds = %63
  call void @_ZdlPv(ptr noundef %65) #21
  br label %158

71:                                               ; preds = %44
  %72 = getelementptr inbounds %"class.std::__cxx11::basic_ostringstream", ptr %7, i64 0, i32 1, i32 2
  invoke void @_ZNSt7__cxx1112basic_stringIcSt11char_traitsIcESaIcEE9_M_assignERKS4_(ptr noundef nonnull align 8 dereferenceable(32) %10, ptr noundef nonnull align 8 dereferenceable(32) %72)
          to label %73 unwind label %63

73:                                               ; preds = %71, %56
  %74 = load ptr, ptr %10, align 8, !tbaa !12
  invoke void @_ZNSt14basic_ofstreamIcSt11char_traitsIcEEC1EPKcSt13_Ios_Openmode(ptr noundef nonnull align 8 dereferenceable(248) %9, ptr noundef %74, i32 noundef 16)
          to label %75 unwind label %150

75:                                               ; preds = %73
  %76 = load ptr, ptr %10, align 8, !tbaa !12
  %77 = icmp eq ptr %76, %45
  br i1 %77, label %78, label %81

78:                                               ; preds = %75
  %79 = load i64, ptr %46, align 8, !tbaa !15
  %80 = icmp ult i64 %79, 16
  call void @llvm.assume(i1 %80)
  br label %82

81:                                               ; preds = %75
  call void @_ZdlPv(ptr noundef %76) #21
  br label %82

82:                                               ; preds = %81, %78
  call void @llvm.lifetime.end.p0(i64 32, ptr nonnull %10) #20
  call void @llvm.lifetime.start.p0(i64 208, ptr nonnull %11) #20
  call void @llvm.memset.p0.i64(ptr noundef nonnull align 8 dereferenceable(208) %11, i8 0, i64 208, i1 false)
  %83 = getelementptr inbounds %"class.dealii::GridOut", ptr %11, i64 0, i32 1
  invoke void @_ZN6dealii12GridOutFlags2DXC1Ebbbbb(ptr noundef nonnull align 1 dereferenceable(5) %83, i1 noundef zeroext true, i1 noundef zeroext false, i1 noundef zeroext false, i1 noundef zeroext false, i1 noundef zeroext true)
          to label %84 unwind label %160

84:                                               ; preds = %82
  %85 = getelementptr inbounds %"class.dealii::GridOut", ptr %11, i64 0, i32 2
  invoke void @_ZN6dealii12GridOutFlags3MshC1Ebb(ptr noundef nonnull align 1 dereferenceable(2) %85, i1 noundef zeroext false, i1 noundef zeroext false)
          to label %86 unwind label %160

86:                                               ; preds = %84
  %87 = getelementptr inbounds %"class.dealii::GridOut", ptr %11, i64 0, i32 3
  invoke void @_ZN6dealii12GridOutFlags3UcdC1Ebbb(ptr noundef nonnull align 1 dereferenceable(3) %87, i1 noundef zeroext false, i1 noundef zeroext false, i1 noundef zeroext false)
          to label %88 unwind label %160

88:                                               ; preds = %86
  %89 = getelementptr inbounds %"class.dealii::GridOut", ptr %11, i64 0, i32 5
  invoke void @_ZN6dealii12GridOutFlags7GnuplotC1Ebjb(ptr noundef nonnull align 4 dereferenceable(9) %89, i1 noundef zeroext false, i32 noundef 2, i1 noundef zeroext false)
          to label %90 unwind label %160

90:                                               ; preds = %88
  %91 = getelementptr inbounds %"class.dealii::GridOut", ptr %11, i64 0, i32 7
  invoke void @_ZN6dealii12GridOutFlags3EpsILi1EEC1ENS0_12EpsFlagsBase8SizeTypeEjdbj(ptr noundef nonnull align 8 dereferenceable(25) %91, i32 noundef 0, i32 noundef 300, double noundef 5.000000e-01, i1 noundef zeroext false, i32 noundef 2)
          to label %92 unwind label %160

92:                                               ; preds = %90
  %93 = getelementptr inbounds %"class.dealii::GridOut", ptr %11, i64 0, i32 8
  invoke void @_ZN6dealii12GridOutFlags3EpsILi2EEC1ENS0_12EpsFlagsBase8SizeTypeEjdbjbbbb(ptr noundef nonnull align 8 dereferenceable(28) %93, i32 noundef 0, i32 noundef 300, double noundef 5.000000e-01, i1 noundef zeroext false, i32 noundef 2, i1 noundef zeroext false, i1 noundef zeroext true, i1 noundef zeroext false, i1 noundef zeroext false)
          to label %94 unwind label %160

94:                                               ; preds = %92
  %95 = getelementptr inbounds %"class.dealii::GridOut", ptr %11, i64 0, i32 9
  invoke void @_ZN6dealii12GridOutFlags3EpsILi3EEC1ENS0_12EpsFlagsBase8SizeTypeEjdbjdd(ptr noundef nonnull align 8 dereferenceable(48) %95, i32 noundef 0, i32 noundef 300, double noundef 5.000000e-01, i1 noundef zeroext false, i32 noundef 2, double noundef 6.000000e+01, double noundef 3.000000e+01)
          to label %96 unwind label %160

96:                                               ; preds = %94
  %97 = getelementptr inbounds %"class.dealii::GridOut", ptr %11, i64 0, i32 10
  invoke void @_ZN6dealii12GridOutFlags4XFigC1Ev(ptr noundef nonnull align 8 dereferenceable(60) %97)
          to label %98 unwind label %160

98:                                               ; preds = %96
  %99 = getelementptr inbounds %"class.dealii::DoFHandler", ptr %1, i64 0, i32 1
  %100 = load ptr, ptr %99, align 8, !tbaa !50
  invoke void @_ZNK6dealii7GridOut9write_epsILi3EEEvRKNS_13TriangulationIXT_EXT_EEERSoPKNS_7MappingIXT_EXT_EEE(ptr noundef nonnull align 8 dereferenceable(208) %11, ptr noundef nonnull align 8 dereferenceable(8552) %100, ptr noundef nonnull align 8 dereferenceable(8) %9, ptr noundef null)
          to label %101 unwind label %160

101:                                              ; preds = %98
  call void @llvm.lifetime.end.p0(i64 208, ptr nonnull %11) #20
  %102 = load ptr, ptr @_ZTTSt14basic_ofstreamIcSt11char_traitsIcEE, align 8
  store ptr %102, ptr %9, align 8, !tbaa !5
  %103 = load ptr, ptr getelementptr inbounds ([4 x ptr], ptr @_ZTTSt14basic_ofstreamIcSt11char_traitsIcEE, i64 0, i64 3), align 8
  %104 = getelementptr i8, ptr %102, i64 -24
  %105 = load i64, ptr %104, align 8
  %106 = getelementptr inbounds i8, ptr %9, i64 %105
  store ptr %103, ptr %106, align 8, !tbaa !5
  %107 = getelementptr inbounds %"class.std::basic_ofstream", ptr %9, i64 0, i32 1
  invoke void @_ZNSt13basic_filebufIcSt11char_traitsIcEED2Ev(ptr noundef nonnull align 8 dereferenceable(240) %107)
          to label %108 unwind label %110

108:                                              ; preds = %101
  %109 = getelementptr inbounds i8, ptr %9, i64 248
  invoke void @_ZNSt8ios_baseD2Ev(ptr noundef nonnull align 8 dereferenceable(264) %109)
          to label %116 unwind label %162

110:                                              ; preds = %101
  %111 = landingpad { ptr, i32 }
          cleanup
  %112 = getelementptr inbounds i8, ptr %9, i64 248
  invoke void @_ZNSt8ios_baseD2Ev(ptr noundef nonnull align 8 dereferenceable(264) %112)
          to label %164 unwind label %113

113:                                              ; preds = %110
  %114 = landingpad { ptr, i32 }
          catch ptr null
  %115 = extractvalue { ptr, i32 } %114, 0
  call void @__clang_call_terminate(ptr %115) #19
  unreachable

116:                                              ; preds = %108
  call void @llvm.lifetime.end.p0(i64 512, ptr nonnull %9) #20
  %117 = load ptr, ptr @_ZTTNSt7__cxx1119basic_ostringstreamIcSt11char_traitsIcESaIcEEE, align 8
  store ptr %117, ptr %7, align 8, !tbaa !5
  %118 = load ptr, ptr getelementptr inbounds ([4 x ptr], ptr @_ZTTNSt7__cxx1119basic_ostringstreamIcSt11char_traitsIcESaIcEEE, i64 0, i64 3), align 8
  %119 = getelementptr i8, ptr %117, i64 -24
  %120 = load i64, ptr %119, align 8
  %121 = getelementptr inbounds i8, ptr %7, i64 %120
  store ptr %118, ptr %121, align 8, !tbaa !5
  %122 = getelementptr inbounds %"class.std::__cxx11::basic_ostringstream", ptr %7, i64 0, i32 1
  store ptr getelementptr inbounds ({ [16 x ptr] }, ptr @_ZTVNSt7__cxx1115basic_stringbufIcSt11char_traitsIcESaIcEEE, i64 0, inrange i32 0, i64 2), ptr %122, align 8, !tbaa !5
  %123 = getelementptr inbounds %"class.std::__cxx11::basic_ostringstream", ptr %7, i64 0, i32 1, i32 2
  %124 = load ptr, ptr %123, align 8, !tbaa !12
  %125 = getelementptr inbounds %"class.std::__cxx11::basic_ostringstream", ptr %7, i64 0, i32 1, i32 2, i32 2
  %126 = icmp eq ptr %124, %125
  br i1 %126, label %127, label %131

127:                                              ; preds = %116
  %128 = getelementptr inbounds %"class.std::__cxx11::basic_ostringstream", ptr %7, i64 0, i32 1, i32 2, i32 1
  %129 = load i64, ptr %128, align 8, !tbaa !15
  %130 = icmp ult i64 %129, 16
  call void @llvm.assume(i1 %130)
  br label %132

131:                                              ; preds = %116
  call void @_ZdlPv(ptr noundef %124) #21
  br label %132

132:                                              ; preds = %127, %131
  store ptr getelementptr inbounds ({ [16 x ptr] }, ptr @_ZTVSt15basic_streambufIcSt11char_traitsIcEE, i64 0, inrange i32 0, i64 2), ptr %122, align 8, !tbaa !5
  %133 = getelementptr inbounds %"class.std::__cxx11::basic_ostringstream", ptr %7, i64 0, i32 1, i32 0, i32 7
  call void @_ZNSt6localeD1Ev(ptr noundef nonnull align 8 dereferenceable(8) %133) #20
  %134 = getelementptr inbounds i8, ptr %7, i64 112
  call void @_ZNSt8ios_baseD2Ev(ptr noundef nonnull align 8 dereferenceable(264) %134)
  call void @llvm.lifetime.end.p0(i64 376, ptr nonnull %7) #20
  ret void

135:                                              ; preds = %17, %6
  %136 = landingpad { ptr, i32 }
          cleanup
  br label %166

137:                                              ; preds = %21, %19
  %138 = landingpad { ptr, i32 }
          cleanup
  br label %148

139:                                              ; preds = %34, %32, %29, %27, %22
  %140 = landingpad { ptr, i32 }
          cleanup
  %141 = load ptr, ptr %8, align 8, !tbaa !12
  %142 = getelementptr inbounds %"class.std::__cxx11::basic_string", ptr %8, i64 0, i32 2
  %143 = icmp eq ptr %141, %142
  br i1 %143, label %144, label %147

144:                                              ; preds = %139
  %145 = load i64, ptr %24, align 8, !tbaa !15
  %146 = icmp ult i64 %145, 16
  call void @llvm.assume(i1 %146)
  br label %148

147:                                              ; preds = %139
  call void @_ZdlPv(ptr noundef %141) #21
  br label %148

148:                                              ; preds = %147, %144, %137
  %149 = phi { ptr, i32 } [ %138, %137 ], [ %140, %144 ], [ %140, %147 ]
  call void @llvm.lifetime.end.p0(i64 32, ptr nonnull %8) #20
  br label %166

150:                                              ; preds = %73
  %151 = landingpad { ptr, i32 }
          cleanup
  %152 = load ptr, ptr %10, align 8, !tbaa !12
  %153 = icmp eq ptr %152, %45
  br i1 %153, label %154, label %157

154:                                              ; preds = %150
  %155 = load i64, ptr %46, align 8, !tbaa !15
  %156 = icmp ult i64 %155, 16
  call void @llvm.assume(i1 %156)
  br label %158

157:                                              ; preds = %150
  call void @_ZdlPv(ptr noundef %152) #21
  br label %158

158:                                              ; preds = %157, %154, %70, %67
  %159 = phi { ptr, i32 } [ %64, %70 ], [ %64, %67 ], [ %151, %154 ], [ %151, %157 ]
  call void @llvm.lifetime.end.p0(i64 32, ptr nonnull %10) #20
  br label %164

160:                                              ; preds = %96, %94, %92, %90, %88, %86, %84, %82, %98
  %161 = landingpad { ptr, i32 }
          cleanup
  call void @llvm.lifetime.end.p0(i64 208, ptr nonnull %11) #20
  invoke void @_ZNSt14basic_ofstreamIcSt11char_traitsIcEED1Ev(ptr noundef nonnull align 8 dereferenceable(248) %9)
          to label %164 unwind label %169

162:                                              ; preds = %108
  %163 = landingpad { ptr, i32 }
          cleanup
  br label %164

164:                                              ; preds = %162, %110, %160, %158
  %165 = phi { ptr, i32 } [ %161, %160 ], [ %159, %158 ], [ %163, %162 ], [ %111, %110 ]
  call void @llvm.lifetime.end.p0(i64 512, ptr nonnull %9) #20
  br label %166

166:                                              ; preds = %164, %148, %135
  %167 = phi { ptr, i32 } [ %165, %164 ], [ %149, %148 ], [ %136, %135 ]
  invoke void @_ZNSt7__cxx1119basic_ostringstreamIcSt11char_traitsIcESaIcEED1Ev(ptr noundef nonnull align 8 dereferenceable(112) %7)
          to label %168 unwind label %169

168:                                              ; preds = %166
  call void @llvm.lifetime.end.p0(i64 376, ptr nonnull %7) #20
  resume { ptr, i32 } %167

169:                                              ; preds = %166, %160
  %170 = landingpad { ptr, i32 }
          catch ptr null
  %171 = extractvalue { ptr, i32 } %170, 0
  call void @__clang_call_terminate(ptr %171) #19
  unreachable
}

declare void @_ZNK6dealii7GridOut9write_epsILi3EEEvRKNS_13TriangulationIXT_EXT_EEERSoPKNS_7MappingIXT_EXT_EEE(ptr noundef nonnull align 8 dereferenceable(208), ptr noundef nonnull align 8 dereferenceable(8552), ptr noundef nonnull align 8 dereferenceable(8), ptr noundef) local_unnamed_addr #4

; Function Attrs: sspstrong uwtable
define weak_odr dso_local void @_ZN12METomography13ForwardSolver10Evaluation13SurfaceOutputILi3EEC2ERKNSt7__cxx1112basic_stringIcSt11char_traitsIcESaIcEEESB_(ptr noundef nonnull align 8 dereferenceable(44) %0, ptr noundef nonnull align 8 dereferenceable(32) %1, ptr noundef nonnull align 8 dereferenceable(32) %2) unnamed_addr #2 comdat($_ZN12METomography13ForwardSolver10Evaluation13SurfaceOutputILi3EEC5ERKNSt7__cxx1112basic_stringIcSt11char_traitsIcESaIcEEESB_) align 2 personality ptr @__gxx_personality_v0 {
  %4 = alloca i64, align 8
  %5 = alloca %"class.dealii::DataOutFaces", align 8
  store ptr getelementptr inbounds ({ [5 x ptr] }, ptr @_ZTVN12METomography13ForwardSolver10Evaluation13SurfaceOutputILi3EEE, i64 0, inrange i32 0, i64 2), ptr %0, align 8, !tbaa !5
  %6 = getelementptr inbounds %"class.METomography::ForwardSolver::Evaluation::SurfaceOutput", ptr %0, i64 0, i32 1
  %7 = getelementptr inbounds %"class.METomography::ForwardSolver::Evaluation::SurfaceOutput", ptr %0, i64 0, i32 1, i32 2
  store ptr %7, ptr %6, align 8, !tbaa !8
  %8 = load ptr, ptr %1, align 8, !tbaa !12
  %9 = getelementptr inbounds %"class.std::__cxx11::basic_string", ptr %1, i64 0, i32 1
  %10 = load i64, ptr %9, align 8, !tbaa !15
  call void @llvm.lifetime.start.p0(i64 8, ptr nonnull %4) #20
  store i64 %10, ptr %4, align 8, !tbaa !16
  %11 = icmp ugt i64 %10, 15
  br i1 %11, label %12, label %15

12:                                               ; preds = %3
  %13 = call noundef ptr @_ZNSt7__cxx1112basic_stringIcSt11char_traitsIcESaIcEE9_M_createERmm(ptr noundef nonnull align 8 dereferenceable(32) %6, ptr noundef nonnull align 8 dereferenceable(8) %4, i64 noundef 0)
  store ptr %13, ptr %6, align 8, !tbaa !12
  %14 = load i64, ptr %4, align 8, !tbaa !16
  store i64 %14, ptr %7, align 8, !tbaa !17
  br label %15

15:                                               ; preds = %12, %3
  %16 = phi ptr [ %13, %12 ], [ %7, %3 ]
  switch i64 %10, label %19 [
    i64 1, label %17
    i64 0, label %20
  ]

17:                                               ; preds = %15
  %18 = load i8, ptr %8, align 1, !tbaa !17
  store i8 %18, ptr %16, align 1, !tbaa !17
  br label %20

19:                                               ; preds = %15
  call void @llvm.memcpy.p0.p0.i64(ptr align 1 %16, ptr align 1 %8, i64 %10, i1 false)
  br label %20

20:                                               ; preds = %19, %17, %15
  %21 = load i64, ptr %4, align 8, !tbaa !16
  %22 = getelementptr inbounds %"class.METomography::ForwardSolver::Evaluation::SurfaceOutput", ptr %0, i64 0, i32 1, i32 1
  store i64 %21, ptr %22, align 8, !tbaa !15
  %23 = load ptr, ptr %6, align 8, !tbaa !12
  %24 = getelementptr inbounds i8, ptr %23, i64 %21
  store i8 0, ptr %24, align 1, !tbaa !17
  call void @llvm.lifetime.end.p0(i64 8, ptr nonnull %4) #20
  call void @llvm.memset.p0.i64(ptr noundef nonnull align 8 dereferenceable(216) %5, i8 0, i64 216, i1 false)
  invoke void @_ZN6dealii15DataOut_DoFDataINS_10DoFHandlerILi3ELi3EEELi2ELi3EEC2Ev(ptr noundef nonnull align 8 dereferenceable(216) %5)
          to label %25 unwind label %30

25:                                               ; preds = %20
  store ptr getelementptr inbounds ({ [11 x ptr] }, ptr @_ZTVN6dealii12DataOutFacesILi3ENS_10DoFHandlerILi3ELi3EEEEE, i64 0, inrange i32 0, i64 2), ptr %5, align 8, !tbaa !5
  %26 = invoke noundef i32 @_ZN6dealii11DataOutBase19parse_output_formatERKNSt7__cxx1112basic_stringIcSt11char_traitsIcESaIcEEE(ptr noundef nonnull align 8 dereferenceable(32) %2)
          to label %27 unwind label %32

27:                                               ; preds = %25
  invoke void @_ZN6dealii15DataOut_DoFDataINS_10DoFHandlerILi3ELi3EEELi2ELi3EED2Ev(ptr noundef nonnull align 8 dereferenceable(216) %5)
          to label %28 unwind label %30

28:                                               ; preds = %27
  %29 = getelementptr inbounds %"class.METomography::ForwardSolver::Evaluation::SurfaceOutput", ptr %0, i64 0, i32 2
  store i32 %26, ptr %29, align 8, !tbaa !52
  ret void

30:                                               ; preds = %20, %27
  %31 = landingpad { ptr, i32 }
          cleanup
  br label %34

32:                                               ; preds = %25
  %33 = landingpad { ptr, i32 }
          cleanup
  invoke void @_ZN6dealii15DataOut_DoFDataINS_10DoFHandlerILi3ELi3EEELi2ELi3EED2Ev(ptr noundef nonnull align 8 dereferenceable(216) %5)
          to label %34 unwind label %43

34:                                               ; preds = %32, %30
  %35 = phi { ptr, i32 } [ %31, %30 ], [ %33, %32 ]
  %36 = load ptr, ptr %6, align 8, !tbaa !12
  %37 = icmp eq ptr %36, %7
  br i1 %37, label %38, label %41

38:                                               ; preds = %34
  %39 = load i64, ptr %22, align 8, !tbaa !15
  %40 = icmp ult i64 %39, 16
  call void @llvm.assume(i1 %40)
  br label %42

41:                                               ; preds = %34
  call void @_ZdlPv(ptr noundef %36) #21
  br label %42

42:                                               ; preds = %41, %38
  resume { ptr, i32 } %35

43:                                               ; preds = %32
  %44 = landingpad { ptr, i32 }
          catch ptr null
  %45 = extractvalue { ptr, i32 } %44, 0
  call void @__clang_call_terminate(ptr %45) #19
  unreachable
}

declare void @_ZN6dealii15DataOut_DoFDataINS_10DoFHandlerILi3ELi3EEELi2ELi3EED2Ev(ptr noundef nonnull align 8 dereferenceable(216)) unnamed_addr #4

; Function Attrs: sspstrong uwtable
define weak_odr dso_local void @_ZNK12METomography13ForwardSolver10Evaluation13SurfaceOutputILi3EE8evaluateERKN6dealii10DoFHandlerILi3ELi3EEERKNS4_6VectorIdEEjjj(ptr noundef nonnull align 8 dereferenceable(44) %0, ptr noundef nonnull align 8 dereferenceable(168) %1, ptr noundef nonnull align 8 dereferenceable(88) %2, i32 noundef %3, i32 noundef %4, i32 noundef %5) unnamed_addr #2 comdat align 2 personality ptr @__gxx_personality_v0 {
  %7 = alloca %"class.std::vector.24", align 8
  %8 = alloca %"class.std::__cxx11::basic_string", align 8
  %9 = alloca %"class.std::__cxx11::basic_string", align 8
  %10 = alloca %"class.std::__cxx11::basic_string", align 8
  %11 = alloca %"class.std::__cxx11::basic_string", align 8
  %12 = alloca %"class.dealii::DataOutFaces", align 8
  %13 = alloca %"class.std::vector.44", align 8
  %14 = alloca %"class.std::__cxx11::basic_ostringstream", align 8
  %15 = alloca %"class.std::__cxx11::basic_string", align 8
  %16 = alloca %"class.std::__cxx11::basic_string", align 8
  %17 = alloca %"class.std::basic_ofstream", align 8
  %18 = alloca %"class.std::__cxx11::basic_string", align 8
  call void @llvm.lifetime.start.p0(i64 24, ptr nonnull %7) #20
  call void @llvm.memset.p0.i64(ptr noundef nonnull align 8 dereferenceable(24) %7, i8 0, i64 24, i1 false)
  call void @llvm.lifetime.start.p0(i64 32, ptr nonnull %8) #20
  %19 = getelementptr inbounds %"class.std::__cxx11::basic_string", ptr %8, i64 0, i32 2
  store ptr %19, ptr %8, align 8, !tbaa !8
  store i64 7310010030045228649, ptr %19, align 8
  %20 = getelementptr inbounds %"class.std::__cxx11::basic_string", ptr %8, i64 0, i32 1
  store i64 8, ptr %20, align 8, !tbaa !15
  %21 = getelementptr inbounds %"class.std::__cxx11::basic_string", ptr %8, i64 0, i32 2, i32 1
  store i8 0, ptr %21, align 8, !tbaa !17
  %22 = getelementptr inbounds %"struct.std::_Vector_base<std::__cxx11::basic_string<char>, std::allocator<std::__cxx11::basic_string<char> > >::_Vector_impl_data", ptr %7, i64 0, i32 1
  %23 = getelementptr inbounds %"struct.std::_Vector_base<std::__cxx11::basic_string<char>, std::allocator<std::__cxx11::basic_string<char> > >::_Vector_impl_data", ptr %7, i64 0, i32 2
  invoke void @_ZNSt6vectorINSt7__cxx1112basic_stringIcSt11char_traitsIcESaIcEEESaIS5_EE17_M_realloc_insertEN9__gnu_cxx17__normal_iteratorIPS5_S7_EERKS5_(ptr noundef nonnull align 8 dereferenceable(24) %7, ptr null, ptr noundef nonnull align 8 dereferenceable(32) %8)
          to label %24 unwind label %262

24:                                               ; preds = %6
  %25 = load ptr, ptr %8, align 8, !tbaa !12
  %26 = icmp eq ptr %25, %19
  br i1 %26, label %27, label %30

27:                                               ; preds = %24
  %28 = load i64, ptr %20, align 8, !tbaa !15
  %29 = icmp ult i64 %28, 16
  call void @llvm.assume(i1 %29)
  br label %31

30:                                               ; preds = %24
  call void @_ZdlPv(ptr noundef %25) #21
  br label %31

31:                                               ; preds = %30, %27
  call void @llvm.lifetime.end.p0(i64 32, ptr nonnull %8) #20
  call void @llvm.lifetime.start.p0(i64 32, ptr nonnull %9) #20
  %32 = getelementptr inbounds %"class.std::__cxx11::basic_string", ptr %9, i64 0, i32 2
  store ptr %32, ptr %9, align 8, !tbaa !8
  store i64 7883937507558256233, ptr %32, align 8
  %33 = getelementptr inbounds %"class.std::__cxx11::basic_string", ptr %9, i64 0, i32 1
  store i64 8, ptr %33, align 8, !tbaa !15
  %34 = getelementptr inbounds %"class.std::__cxx11::basic_string", ptr %9, i64 0, i32 2, i32 1
  store i8 0, ptr %34, align 8, !tbaa !17
  %35 = load ptr, ptr %22, align 8, !tbaa !22
  %36 = load ptr, ptr %23, align 8, !tbaa !23
  %37 = icmp eq ptr %35, %36
  br i1 %37, label %46, label %38

38:                                               ; preds = %31
  %39 = getelementptr inbounds %"class.std::__cxx11::basic_string", ptr %35, i64 0, i32 2
  store ptr %39, ptr %35, align 8, !tbaa !8
  %40 = load ptr, ptr %9, align 8, !tbaa !12
  %41 = load i64, ptr %40, align 1
  store i64 %41, ptr %39, align 1
  %42 = getelementptr inbounds %"class.std::__cxx11::basic_string", ptr %35, i64 0, i32 1
  store i64 8, ptr %42, align 8, !tbaa !15
  %43 = getelementptr inbounds %"class.std::__cxx11::basic_string", ptr %35, i64 0, i32 2, i32 1
  store i8 0, ptr %43, align 1, !tbaa !17
  %44 = load ptr, ptr %22, align 8, !tbaa !25
  %45 = getelementptr inbounds %"class.std::__cxx11::basic_string", ptr %44, i64 1
  store ptr %45, ptr %22, align 8, !tbaa !25
  br label %49

46:                                               ; preds = %31
  invoke void @_ZNSt6vectorINSt7__cxx1112basic_stringIcSt11char_traitsIcESaIcEEESaIS5_EE17_M_realloc_insertEN9__gnu_cxx17__normal_iteratorIPS5_S7_EERKS5_(ptr noundef nonnull align 8 dereferenceable(24) %7, ptr %35, ptr noundef nonnull align 8 dereferenceable(32) %9)
          to label %47 unwind label %271

47:                                               ; preds = %46
  %48 = load ptr, ptr %9, align 8, !tbaa !12
  br label %49

49:                                               ; preds = %47, %38
  %50 = phi ptr [ %48, %47 ], [ %40, %38 ]
  %51 = icmp eq ptr %50, %32
  br i1 %51, label %52, label %55

52:                                               ; preds = %49
  %53 = load i64, ptr %33, align 8, !tbaa !15
  %54 = icmp ult i64 %53, 16
  call void @llvm.assume(i1 %54)
  br label %56

55:                                               ; preds = %49
  call void @_ZdlPv(ptr noundef %50) #21
  br label %56

56:                                               ; preds = %55, %52
  call void @llvm.lifetime.end.p0(i64 32, ptr nonnull %9) #20
  call void @llvm.lifetime.start.p0(i64 32, ptr nonnull %10) #20
  %57 = getelementptr inbounds %"class.std::__cxx11::basic_string", ptr %10, i64 0, i32 2
  store ptr %57, ptr %10, align 8, !tbaa !8
  store i64 7310010090276613222, ptr %57, align 8
  %58 = getelementptr inbounds %"class.std::__cxx11::basic_string", ptr %10, i64 0, i32 1
  store i64 8, ptr %58, align 8, !tbaa !15
  %59 = getelementptr inbounds %"class.std::__cxx11::basic_string", ptr %10, i64 0, i32 2, i32 1
  store i8 0, ptr %59, align 8, !tbaa !17
  %60 = load ptr, ptr %22, align 8, !tbaa !22
  %61 = load ptr, ptr %23, align 8, !tbaa !23
  %62 = icmp eq ptr %60, %61
  br i1 %62, label %71, label %63

63:                                               ; preds = %56
  %64 = getelementptr inbounds %"class.std::__cxx11::basic_string", ptr %60, i64 0, i32 2
  store ptr %64, ptr %60, align 8, !tbaa !8
  %65 = load ptr, ptr %10, align 8, !tbaa !12
  %66 = load i64, ptr %65, align 1
  store i64 %66, ptr %64, align 1
  %67 = getelementptr inbounds %"class.std::__cxx11::basic_string", ptr %60, i64 0, i32 1
  store i64 8, ptr %67, align 8, !tbaa !15
  %68 = getelementptr inbounds %"class.std::__cxx11::basic_string", ptr %60, i64 0, i32 2, i32 1
  store i8 0, ptr %68, align 1, !tbaa !17
  %69 = load ptr, ptr %22, align 8, !tbaa !25
  %70 = getelementptr inbounds %"class.std::__cxx11::basic_string", ptr %69, i64 1
  store ptr %70, ptr %22, align 8, !tbaa !25
  br label %74

71:                                               ; preds = %56
  invoke void @_ZNSt6vectorINSt7__cxx1112basic_stringIcSt11char_traitsIcESaIcEEESaIS5_EE17_M_realloc_insertEN9__gnu_cxx17__normal_iteratorIPS5_S7_EERKS5_(ptr noundef nonnull align 8 dereferenceable(24) %7, ptr %60, ptr noundef nonnull align 8 dereferenceable(32) %10)
          to label %72 unwind label %280

72:                                               ; preds = %71
  %73 = load ptr, ptr %10, align 8, !tbaa !12
  br label %74

74:                                               ; preds = %72, %63
  %75 = phi ptr [ %73, %72 ], [ %65, %63 ]
  %76 = icmp eq ptr %75, %57
  br i1 %76, label %77, label %80

77:                                               ; preds = %74
  %78 = load i64, ptr %58, align 8, !tbaa !15
  %79 = icmp ult i64 %78, 16
  call void @llvm.assume(i1 %79)
  br label %81

80:                                               ; preds = %74
  call void @_ZdlPv(ptr noundef %75) #21
  br label %81

81:                                               ; preds = %80, %77
  call void @llvm.lifetime.end.p0(i64 32, ptr nonnull %10) #20
  call void @llvm.lifetime.start.p0(i64 32, ptr nonnull %11) #20
  %82 = getelementptr inbounds %"class.std::__cxx11::basic_string", ptr %11, i64 0, i32 2
  store ptr %82, ptr %11, align 8, !tbaa !8
  store i64 7883937567789640806, ptr %82, align 8
  %83 = getelementptr inbounds %"class.std::__cxx11::basic_string", ptr %11, i64 0, i32 1
  store i64 8, ptr %83, align 8, !tbaa !15
  %84 = getelementptr inbounds %"class.std::__cxx11::basic_string", ptr %11, i64 0, i32 2, i32 1
  store i8 0, ptr %84, align 8, !tbaa !17
  %85 = load ptr, ptr %22, align 8, !tbaa !22
  %86 = load ptr, ptr %23, align 8, !tbaa !23
  %87 = icmp eq ptr %85, %86
  br i1 %87, label %96, label %88

88:                                               ; preds = %81
  %89 = getelementptr inbounds %"class.std::__cxx11::basic_string", ptr %85, i64 0, i32 2
  store ptr %89, ptr %85, align 8, !tbaa !8
  %90 = load ptr, ptr %11, align 8, !tbaa !12
  %91 = load i64, ptr %90, align 1
  store i64 %91, ptr %89, align 1
  %92 = getelementptr inbounds %"class.std::__cxx11::basic_string", ptr %85, i64 0, i32 1
  store i64 8, ptr %92, align 8, !tbaa !15
  %93 = getelementptr inbounds %"class.std::__cxx11::basic_string", ptr %85, i64 0, i32 2, i32 1
  store i8 0, ptr %93, align 1, !tbaa !17
  %94 = load ptr, ptr %22, align 8, !tbaa !25
  %95 = getelementptr inbounds %"class.std::__cxx11::basic_string", ptr %94, i64 1
  store ptr %95, ptr %22, align 8, !tbaa !25
  br label %99

96:                                               ; preds = %81
  invoke void @_ZNSt6vectorINSt7__cxx1112basic_stringIcSt11char_traitsIcESaIcEEESaIS5_EE17_M_realloc_insertEN9__gnu_cxx17__normal_iteratorIPS5_S7_EERKS5_(ptr noundef nonnull align 8 dereferenceable(24) %7, ptr %85, ptr noundef nonnull align 8 dereferenceable(32) %11)
          to label %97 unwind label %289

97:                                               ; preds = %96
  %98 = load ptr, ptr %11, align 8, !tbaa !12
  br label %99

99:                                               ; preds = %97, %88
  %100 = phi ptr [ %98, %97 ], [ %90, %88 ]
  %101 = icmp eq ptr %100, %82
  br i1 %101, label %102, label %105

102:                                              ; preds = %99
  %103 = load i64, ptr %83, align 8, !tbaa !15
  %104 = icmp ult i64 %103, 16
  call void @llvm.assume(i1 %104)
  br label %106

105:                                              ; preds = %99
  call void @_ZdlPv(ptr noundef %100) #21
  br label %106

106:                                              ; preds = %105, %102
  call void @llvm.lifetime.end.p0(i64 32, ptr nonnull %11) #20
  call void @llvm.lifetime.start.p0(i64 216, ptr nonnull %12) #20
  invoke void @_ZN6dealii15DataOut_DoFDataINS_10DoFHandlerILi3ELi3EEELi2ELi3EEC2Ev(ptr noundef nonnull align 8 dereferenceable(216) %12)
          to label %107 unwind label %298

107:                                              ; preds = %106
  store ptr getelementptr inbounds ({ [11 x ptr] }, ptr @_ZTVN6dealii12DataOutFacesILi3ENS_10DoFHandlerILi3ELi3EEEEE, i64 0, inrange i32 0, i64 2), ptr %12, align 8, !tbaa !5
  invoke void @_ZN6dealii15DataOut_DoFDataINS_10DoFHandlerILi3ELi3EEELi2ELi3EE18attach_dof_handlerERKS2_(ptr noundef nonnull align 8 dereferenceable(216) %12, ptr noundef nonnull align 8 dereferenceable(168) %1)
          to label %108 unwind label %300

108:                                              ; preds = %107
  call void @llvm.lifetime.start.p0(i64 24, ptr nonnull %13) #20
  call void @llvm.memset.p0.i64(ptr noundef nonnull align 8 dereferenceable(24) %13, i8 0, i64 24, i1 false)
  invoke void @_ZN6dealii15DataOut_DoFDataINS_10DoFHandlerILi3ELi3EEELi2ELi3EE15add_data_vectorINS_6VectorIdEEEEvRKT_RKSt6vectorINSt7__cxx1112basic_stringIcSt11char_traitsIcESaIcEEESaISG_EENS3_14DataVectorTypeERKSA_INS_27DataComponentInterpretation27DataComponentInterpretationESaISN_EE(ptr noundef nonnull align 8 dereferenceable(216) %12, ptr noundef nonnull align 8 dereferenceable(88) %2, ptr noundef nonnull align 8 dereferenceable(24) %7, i32 noundef 2, ptr noundef nonnull align 8 dereferenceable(24) %13)
          to label %109 unwind label %302

109:                                              ; preds = %108
  %110 = load ptr, ptr %13, align 8, !tbaa !26
  %111 = icmp eq ptr %110, null
  br i1 %111, label %113, label %112

112:                                              ; preds = %109
  call void @_ZdlPv(ptr noundef nonnull %110) #21
  br label %113

113:                                              ; preds = %112, %109
  call void @llvm.lifetime.end.p0(i64 24, ptr nonnull %13) #20
  %114 = load i32, ptr getelementptr inbounds (%"class.dealii::MultithreadInfo", ptr @_ZN6dealii16multithread_infoE, i64 0, i32 1), align 4, !tbaa !28
  invoke void @_ZN6dealii12DataOutFacesILi3ENS_10DoFHandlerILi3ELi3EEEE13build_patchesEjj(ptr noundef nonnull align 8 dereferenceable(216) %12, i32 noundef 0, i32 noundef %114)
          to label %115 unwind label %300

115:                                              ; preds = %113
  call void @llvm.lifetime.start.p0(i64 376, ptr nonnull %14) #20
  invoke void @_ZNSt7__cxx1119basic_ostringstreamIcSt11char_traitsIcESaIcEEC1Ev(ptr noundef nonnull align 8 dereferenceable(112) %14)
          to label %116 unwind label %308

116:                                              ; preds = %115
  %117 = getelementptr inbounds %"class.METomography::ForwardSolver::Evaluation::SurfaceOutput", ptr %0, i64 0, i32 1
  %118 = load ptr, ptr %117, align 8, !tbaa !12
  %119 = getelementptr inbounds %"class.METomography::ForwardSolver::Evaluation::SurfaceOutput", ptr %0, i64 0, i32 1, i32 1
  %120 = load i64, ptr %119, align 8, !tbaa !15
  %121 = invoke noundef nonnull align 8 dereferenceable(8) ptr @_ZSt16__ostream_insertIcSt11char_traitsIcEERSt13basic_ostreamIT_T0_ES6_PKS3_l(ptr noundef nonnull align 8 dereferenceable(8) %14, ptr noundef %118, i64 noundef %120)
          to label %122 unwind label %310

122:                                              ; preds = %116
  %123 = invoke noundef nonnull align 8 dereferenceable(8) ptr @_ZSt16__ostream_insertIcSt11char_traitsIcEERSt13basic_ostreamIT_T0_ES6_PKS3_l(ptr noundef nonnull align 8 dereferenceable(8) %121, ptr noundef nonnull @.str.13, i64 noundef 1)
          to label %124 unwind label %310

124:                                              ; preds = %122
  call void @llvm.lifetime.start.p0(i64 32, ptr nonnull %15) #20
  %125 = invoke noundef i32 @_ZN6dealii9Utilities13needed_digitsEj(i32 noundef %4)
          to label %126 unwind label %312

126:                                              ; preds = %124
  invoke void @_ZN6dealii9Utilities13int_to_stringB5cxx11Ejj(ptr nonnull sret(%"class.std::__cxx11::basic_string") align 8 %15, i32 noundef %3, i32 noundef %125)
          to label %127 unwind label %312

127:                                              ; preds = %126
  %128 = load ptr, ptr %15, align 8, !tbaa !12
  %129 = getelementptr inbounds %"class.std::__cxx11::basic_string", ptr %15, i64 0, i32 1
  %130 = load i64, ptr %129, align 8, !tbaa !15
  %131 = invoke noundef nonnull align 8 dereferenceable(8) ptr @_ZSt16__ostream_insertIcSt11char_traitsIcEERSt13basic_ostreamIT_T0_ES6_PKS3_l(ptr noundef nonnull align 8 dereferenceable(8) %121, ptr noundef %128, i64 noundef %130)
          to label %132 unwind label %314

132:                                              ; preds = %127
  %133 = invoke noundef nonnull align 8 dereferenceable(8) ptr @_ZSt16__ostream_insertIcSt11char_traitsIcEERSt13basic_ostreamIT_T0_ES6_PKS3_l(ptr noundef nonnull align 8 dereferenceable(8) %131, ptr noundef nonnull @.str.14, i64 noundef 1)
          to label %134 unwind label %314

134:                                              ; preds = %132
  %135 = zext i32 %5 to i64
  %136 = invoke noundef nonnull align 8 dereferenceable(8) ptr @_ZNSo9_M_insertImEERSoT_(ptr noundef nonnull align 8 dereferenceable(8) %131, i64 noundef %135)
          to label %137 unwind label %314

137:                                              ; preds = %134
  call void @llvm.lifetime.start.p0(i64 32, ptr nonnull %16) #20
  %138 = getelementptr inbounds %"class.METomography::ForwardSolver::Evaluation::SurfaceOutput", ptr %0, i64 0, i32 2
  %139 = load i32, ptr %138, align 8, !tbaa !52
  invoke void @_ZNK6dealii16DataOutInterfaceILi2ELi3EE14default_suffixB5cxx11ENS_11DataOutBase12OutputFormatE(ptr nonnull sret(%"class.std::__cxx11::basic_string") align 8 %16, ptr noundef nonnull align 8 dereferenceable(128) %12, i32 noundef %139)
          to label %140 unwind label %316

140:                                              ; preds = %137
  %141 = load ptr, ptr %16, align 8, !tbaa !12
  %142 = getelementptr inbounds %"class.std::__cxx11::basic_string", ptr %16, i64 0, i32 1
  %143 = load i64, ptr %142, align 8, !tbaa !15
  %144 = invoke noundef nonnull align 8 dereferenceable(8) ptr @_ZSt16__ostream_insertIcSt11char_traitsIcEERSt13basic_ostreamIT_T0_ES6_PKS3_l(ptr noundef nonnull align 8 dereferenceable(8) %136, ptr noundef %141, i64 noundef %143)
          to label %145 unwind label %318

145:                                              ; preds = %140
  %146 = invoke noundef nonnull align 8 dereferenceable(8) ptr @_ZNSo3putEc(ptr noundef nonnull align 8 dereferenceable(8) %144, i8 noundef signext 0)
          to label %147 unwind label %318

147:                                              ; preds = %145
  %148 = load ptr, ptr %16, align 8, !tbaa !12
  %149 = getelementptr inbounds %"class.std::__cxx11::basic_string", ptr %16, i64 0, i32 2
  %150 = icmp eq ptr %148, %149
  br i1 %150, label %151, label %154

151:                                              ; preds = %147
  %152 = load i64, ptr %142, align 8, !tbaa !15
  %153 = icmp ult i64 %152, 16
  call void @llvm.assume(i1 %153)
  br label %155

154:                                              ; preds = %147
  call void @_ZdlPv(ptr noundef %148) #21
  br label %155

155:                                              ; preds = %154, %151
  call void @llvm.lifetime.end.p0(i64 32, ptr nonnull %16) #20
  %156 = load ptr, ptr %15, align 8, !tbaa !12
  %157 = getelementptr inbounds %"class.std::__cxx11::basic_string", ptr %15, i64 0, i32 2
  %158 = icmp eq ptr %156, %157
  br i1 %158, label %159, label %162

159:                                              ; preds = %155
  %160 = load i64, ptr %129, align 8, !tbaa !15
  %161 = icmp ult i64 %160, 16
  call void @llvm.assume(i1 %161)
  br label %163

162:                                              ; preds = %155
  call void @_ZdlPv(ptr noundef %156) #21
  br label %163

163:                                              ; preds = %162, %159
  call void @llvm.lifetime.end.p0(i64 32, ptr nonnull %15) #20
  call void @llvm.lifetime.start.p0(i64 512, ptr nonnull %17) #20
  call void @llvm.lifetime.start.p0(i64 32, ptr nonnull %18) #20
  call void @llvm.experimental.noalias.scope.decl(metadata !54)
  call void @llvm.experimental.noalias.scope.decl(metadata !57)
  %164 = getelementptr inbounds %"class.std::__cxx11::basic_string", ptr %18, i64 0, i32 2
  store ptr %164, ptr %18, align 8, !tbaa !8, !alias.scope !60
  %165 = getelementptr inbounds %"class.std::__cxx11::basic_string", ptr %18, i64 0, i32 1
  store i64 0, ptr %165, align 8, !tbaa !15, !alias.scope !60
  store i8 0, ptr %164, align 8, !tbaa !17, !alias.scope !60
  %166 = getelementptr inbounds %"class.std::__cxx11::basic_ostringstream", ptr %14, i64 0, i32 1, i32 0, i32 5
  %167 = load ptr, ptr %166, align 8, !tbaa !38, !noalias !60
  %168 = icmp eq ptr %167, null
  %169 = getelementptr inbounds %"class.std::__cxx11::basic_ostringstream", ptr %14, i64 0, i32 1, i32 0, i32 3
  %170 = load ptr, ptr %169, align 8, !noalias !60
  %171 = icmp ugt ptr %167, %170
  %172 = select i1 %171, ptr %167, ptr %170
  %173 = icmp eq ptr %172, null
  %174 = select i1 %168, i1 true, i1 %173
  br i1 %174, label %190, label %175

175:                                              ; preds = %163
  %176 = getelementptr inbounds %"class.std::__cxx11::basic_ostringstream", ptr %14, i64 0, i32 1, i32 0, i32 4
  %177 = load ptr, ptr %176, align 8, !tbaa !41, !noalias !60
  %178 = ptrtoint ptr %172 to i64
  %179 = ptrtoint ptr %177 to i64
  %180 = sub i64 %178, %179
  %181 = invoke noundef nonnull align 8 dereferenceable(32) ptr @_ZNSt7__cxx1112basic_stringIcSt11char_traitsIcESaIcEE10_M_replaceEmmPKcm(ptr noundef nonnull align 8 dereferenceable(32) %18, i64 noundef 0, i64 noundef 0, ptr noundef %177, i64 noundef %180)
          to label %192 unwind label %182

182:                                              ; preds = %190, %175
  %183 = landingpad { ptr, i32 }
          cleanup
  %184 = load ptr, ptr %18, align 8, !tbaa !12, !alias.scope !60
  %185 = icmp eq ptr %184, %164
  br i1 %185, label %186, label %189

186:                                              ; preds = %182
  %187 = load i64, ptr %165, align 8, !tbaa !15, !alias.scope !60
  %188 = icmp ult i64 %187, 16
  call void @llvm.assume(i1 %188)
  br label %348

189:                                              ; preds = %182
  call void @_ZdlPv(ptr noundef %184) #21
  br label %348

190:                                              ; preds = %163
  %191 = getelementptr inbounds %"class.std::__cxx11::basic_ostringstream", ptr %14, i64 0, i32 1, i32 2
  invoke void @_ZNSt7__cxx1112basic_stringIcSt11char_traitsIcESaIcEE9_M_assignERKS4_(ptr noundef nonnull align 8 dereferenceable(32) %18, ptr noundef nonnull align 8 dereferenceable(32) %191)
          to label %192 unwind label %182

192:                                              ; preds = %190, %175
  %193 = load ptr, ptr %18, align 8, !tbaa !12
  invoke void @_ZNSt14basic_ofstreamIcSt11char_traitsIcEEC1EPKcSt13_Ios_Openmode(ptr noundef nonnull align 8 dereferenceable(248) %17, ptr noundef %193, i32 noundef 16)
          to label %194 unwind label %340

194:                                              ; preds = %192
  %195 = load ptr, ptr %18, align 8, !tbaa !12
  %196 = icmp eq ptr %195, %164
  br i1 %196, label %197, label %200

197:                                              ; preds = %194
  %198 = load i64, ptr %165, align 8, !tbaa !15
  %199 = icmp ult i64 %198, 16
  call void @llvm.assume(i1 %199)
  br label %201

200:                                              ; preds = %194
  call void @_ZdlPv(ptr noundef %195) #21
  br label %201

201:                                              ; preds = %200, %197
  call void @llvm.lifetime.end.p0(i64 32, ptr nonnull %18) #20
  %202 = load i32, ptr %138, align 8, !tbaa !52
  invoke void @_ZNK6dealii16DataOutInterfaceILi2ELi3EE5writeERSoNS_11DataOutBase12OutputFormatE(ptr noundef nonnull align 8 dereferenceable(128) %12, ptr noundef nonnull align 8 dereferenceable(8) %17, i32 noundef %202)
          to label %203 unwind label %350

203:                                              ; preds = %201
  %204 = load ptr, ptr @_ZTTSt14basic_ofstreamIcSt11char_traitsIcEE, align 8
  store ptr %204, ptr %17, align 8, !tbaa !5
  %205 = load ptr, ptr getelementptr inbounds ([4 x ptr], ptr @_ZTTSt14basic_ofstreamIcSt11char_traitsIcEE, i64 0, i64 3), align 8
  %206 = getelementptr i8, ptr %204, i64 -24
  %207 = load i64, ptr %206, align 8
  %208 = getelementptr inbounds i8, ptr %17, i64 %207
  store ptr %205, ptr %208, align 8, !tbaa !5
  %209 = getelementptr inbounds %"class.std::basic_ofstream", ptr %17, i64 0, i32 1
  invoke void @_ZNSt13basic_filebufIcSt11char_traitsIcEED2Ev(ptr noundef nonnull align 8 dereferenceable(240) %209)
          to label %210 unwind label %212

210:                                              ; preds = %203
  %211 = getelementptr inbounds i8, ptr %17, i64 248
  invoke void @_ZNSt8ios_baseD2Ev(ptr noundef nonnull align 8 dereferenceable(264) %211)
          to label %218 unwind label %352

212:                                              ; preds = %203
  %213 = landingpad { ptr, i32 }
          cleanup
  %214 = getelementptr inbounds i8, ptr %17, i64 248
  invoke void @_ZNSt8ios_baseD2Ev(ptr noundef nonnull align 8 dereferenceable(264) %214)
          to label %354 unwind label %215

215:                                              ; preds = %212
  %216 = landingpad { ptr, i32 }
          catch ptr null
  %217 = extractvalue { ptr, i32 } %216, 0
  call void @__clang_call_terminate(ptr %217) #19
  unreachable

218:                                              ; preds = %210
  call void @llvm.lifetime.end.p0(i64 512, ptr nonnull %17) #20
  %219 = load ptr, ptr @_ZTTNSt7__cxx1119basic_ostringstreamIcSt11char_traitsIcESaIcEEE, align 8
  store ptr %219, ptr %14, align 8, !tbaa !5
  %220 = load ptr, ptr getelementptr inbounds ([4 x ptr], ptr @_ZTTNSt7__cxx1119basic_ostringstreamIcSt11char_traitsIcESaIcEEE, i64 0, i64 3), align 8
  %221 = getelementptr i8, ptr %219, i64 -24
  %222 = load i64, ptr %221, align 8
  %223 = getelementptr inbounds i8, ptr %14, i64 %222
  store ptr %220, ptr %223, align 8, !tbaa !5
  %224 = getelementptr inbounds %"class.std::__cxx11::basic_ostringstream", ptr %14, i64 0, i32 1
  store ptr getelementptr inbounds ({ [16 x ptr] }, ptr @_ZTVNSt7__cxx1115basic_stringbufIcSt11char_traitsIcESaIcEEE, i64 0, inrange i32 0, i64 2), ptr %224, align 8, !tbaa !5
  %225 = getelementptr inbounds %"class.std::__cxx11::basic_ostringstream", ptr %14, i64 0, i32 1, i32 2
  %226 = load ptr, ptr %225, align 8, !tbaa !12
  %227 = getelementptr inbounds %"class.std::__cxx11::basic_ostringstream", ptr %14, i64 0, i32 1, i32 2, i32 2
  %228 = icmp eq ptr %226, %227
  br i1 %228, label %229, label %233

229:                                              ; preds = %218
  %230 = getelementptr inbounds %"class.std::__cxx11::basic_ostringstream", ptr %14, i64 0, i32 1, i32 2, i32 1
  %231 = load i64, ptr %230, align 8, !tbaa !15
  %232 = icmp ult i64 %231, 16
  call void @llvm.assume(i1 %232)
  br label %234

233:                                              ; preds = %218
  call void @_ZdlPv(ptr noundef %226) #21
  br label %234

234:                                              ; preds = %233, %229
  store ptr getelementptr inbounds ({ [16 x ptr] }, ptr @_ZTVSt15basic_streambufIcSt11char_traitsIcEE, i64 0, inrange i32 0, i64 2), ptr %224, align 8, !tbaa !5
  %235 = getelementptr inbounds %"class.std::__cxx11::basic_ostringstream", ptr %14, i64 0, i32 1, i32 0, i32 7
  call void @_ZNSt6localeD1Ev(ptr noundef nonnull align 8 dereferenceable(8) %235) #20
  %236 = getelementptr inbounds i8, ptr %14, i64 112
  invoke void @_ZNSt8ios_baseD2Ev(ptr noundef nonnull align 8 dereferenceable(264) %236)
          to label %237 unwind label %308

237:                                              ; preds = %234
  call void @llvm.lifetime.end.p0(i64 376, ptr nonnull %14) #20
  invoke void @_ZN6dealii15DataOut_DoFDataINS_10DoFHandlerILi3ELi3EEELi2ELi3EED2Ev(ptr noundef nonnull align 8 dereferenceable(216) %12)
          to label %238 unwind label %298

238:                                              ; preds = %237
  call void @llvm.lifetime.end.p0(i64 216, ptr nonnull %12) #20
  %239 = load ptr, ptr %7, align 8, !tbaa !42
  %240 = load ptr, ptr %22, align 8, !tbaa !25
  %241 = icmp eq ptr %239, %240
  br i1 %241, label %257, label %242

242:                                              ; preds = %238, %252
  %243 = phi ptr [ %253, %252 ], [ %239, %238 ]
  %244 = load ptr, ptr %243, align 8, !tbaa !12
  %245 = getelementptr inbounds %"class.std::__cxx11::basic_string", ptr %243, i64 0, i32 2
  %246 = icmp eq ptr %244, %245
  br i1 %246, label %247, label %251

247:                                              ; preds = %242
  %248 = getelementptr inbounds %"class.std::__cxx11::basic_string", ptr %243, i64 0, i32 1
  %249 = load i64, ptr %248, align 8, !tbaa !15
  %250 = icmp ult i64 %249, 16
  call void @llvm.assume(i1 %250)
  br label %252

251:                                              ; preds = %242
  call void @_ZdlPv(ptr noundef %244) #21
  br label %252

252:                                              ; preds = %251, %247
  %253 = getelementptr inbounds %"class.std::__cxx11::basic_string", ptr %243, i64 1
  %254 = icmp eq ptr %253, %240
  br i1 %254, label %255, label %242

255:                                              ; preds = %252
  %256 = load ptr, ptr %7, align 8, !tbaa !42
  br label %257

257:                                              ; preds = %255, %238
  %258 = phi ptr [ %256, %255 ], [ %239, %238 ]
  %259 = icmp eq ptr %258, null
  br i1 %259, label %261, label %260

260:                                              ; preds = %257
  call void @_ZdlPv(ptr noundef nonnull %258) #21
  br label %261

261:                                              ; preds = %257, %260
  call void @llvm.lifetime.end.p0(i64 24, ptr nonnull %7) #20
  ret void

262:                                              ; preds = %6
  %263 = landingpad { ptr, i32 }
          cleanup
  %264 = load ptr, ptr %8, align 8, !tbaa !12
  %265 = icmp eq ptr %264, %19
  br i1 %265, label %266, label %269

266:                                              ; preds = %262
  %267 = load i64, ptr %20, align 8, !tbaa !15
  %268 = icmp ult i64 %267, 16
  call void @llvm.assume(i1 %268)
  br label %270

269:                                              ; preds = %262
  call void @_ZdlPv(ptr noundef %264) #21
  br label %270

270:                                              ; preds = %269, %266
  call void @llvm.lifetime.end.p0(i64 32, ptr nonnull %8) #20
  br label %364

271:                                              ; preds = %46
  %272 = landingpad { ptr, i32 }
          cleanup
  %273 = load ptr, ptr %9, align 8, !tbaa !12
  %274 = icmp eq ptr %273, %32
  br i1 %274, label %275, label %278

275:                                              ; preds = %271
  %276 = load i64, ptr %33, align 8, !tbaa !15
  %277 = icmp ult i64 %276, 16
  call void @llvm.assume(i1 %277)
  br label %279

278:                                              ; preds = %271
  call void @_ZdlPv(ptr noundef %273) #21
  br label %279

279:                                              ; preds = %278, %275
  call void @llvm.lifetime.end.p0(i64 32, ptr nonnull %9) #20
  br label %364

280:                                              ; preds = %71
  %281 = landingpad { ptr, i32 }
          cleanup
  %282 = load ptr, ptr %10, align 8, !tbaa !12
  %283 = icmp eq ptr %282, %57
  br i1 %283, label %284, label %287

284:                                              ; preds = %280
  %285 = load i64, ptr %58, align 8, !tbaa !15
  %286 = icmp ult i64 %285, 16
  call void @llvm.assume(i1 %286)
  br label %288

287:                                              ; preds = %280
  call void @_ZdlPv(ptr noundef %282) #21
  br label %288

288:                                              ; preds = %287, %284
  call void @llvm.lifetime.end.p0(i64 32, ptr nonnull %10) #20
  br label %364

289:                                              ; preds = %96
  %290 = landingpad { ptr, i32 }
          cleanup
  %291 = load ptr, ptr %11, align 8, !tbaa !12
  %292 = icmp eq ptr %291, %82
  br i1 %292, label %293, label %296

293:                                              ; preds = %289
  %294 = load i64, ptr %83, align 8, !tbaa !15
  %295 = icmp ult i64 %294, 16
  call void @llvm.assume(i1 %295)
  br label %297

296:                                              ; preds = %289
  call void @_ZdlPv(ptr noundef %291) #21
  br label %297

297:                                              ; preds = %296, %293
  call void @llvm.lifetime.end.p0(i64 32, ptr nonnull %11) #20
  br label %364

298:                                              ; preds = %106, %237
  %299 = landingpad { ptr, i32 }
          cleanup
  br label %362

300:                                              ; preds = %113, %107
  %301 = landingpad { ptr, i32 }
          cleanup
  br label %360

302:                                              ; preds = %108
  %303 = landingpad { ptr, i32 }
          cleanup
  %304 = load ptr, ptr %13, align 8, !tbaa !26
  %305 = icmp eq ptr %304, null
  br i1 %305, label %307, label %306

306:                                              ; preds = %302
  call void @_ZdlPv(ptr noundef nonnull %304) #21
  br label %307

307:                                              ; preds = %306, %302
  call void @llvm.lifetime.end.p0(i64 24, ptr nonnull %13) #20
  br label %360

308:                                              ; preds = %234, %115
  %309 = landingpad { ptr, i32 }
          cleanup
  br label %358

310:                                              ; preds = %122, %116
  %311 = landingpad { ptr, i32 }
          cleanup
  br label %356

312:                                              ; preds = %126, %124
  %313 = landingpad { ptr, i32 }
          cleanup
  br label %338

314:                                              ; preds = %134, %132, %127
  %315 = landingpad { ptr, i32 }
          cleanup
  br label %329

316:                                              ; preds = %137
  %317 = landingpad { ptr, i32 }
          cleanup
  br label %327

318:                                              ; preds = %145, %140
  %319 = landingpad { ptr, i32 }
          cleanup
  %320 = load ptr, ptr %16, align 8, !tbaa !12
  %321 = getelementptr inbounds %"class.std::__cxx11::basic_string", ptr %16, i64 0, i32 2
  %322 = icmp eq ptr %320, %321
  br i1 %322, label %323, label %326

323:                                              ; preds = %318
  %324 = load i64, ptr %142, align 8, !tbaa !15
  %325 = icmp ult i64 %324, 16
  call void @llvm.assume(i1 %325)
  br label %327

326:                                              ; preds = %318
  call void @_ZdlPv(ptr noundef %320) #21
  br label %327

327:                                              ; preds = %326, %323, %316
  %328 = phi { ptr, i32 } [ %317, %316 ], [ %319, %323 ], [ %319, %326 ]
  call void @llvm.lifetime.end.p0(i64 32, ptr nonnull %16) #20
  br label %329

329:                                              ; preds = %327, %314
  %330 = phi { ptr, i32 } [ %328, %327 ], [ %315, %314 ]
  %331 = load ptr, ptr %15, align 8, !tbaa !12
  %332 = getelementptr inbounds %"class.std::__cxx11::basic_string", ptr %15, i64 0, i32 2
  %333 = icmp eq ptr %331, %332
  br i1 %333, label %334, label %337

334:                                              ; preds = %329
  %335 = load i64, ptr %129, align 8, !tbaa !15
  %336 = icmp ult i64 %335, 16
  call void @llvm.assume(i1 %336)
  br label %338

337:                                              ; preds = %329
  call void @_ZdlPv(ptr noundef %331) #21
  br label %338

338:                                              ; preds = %337, %334, %312
  %339 = phi { ptr, i32 } [ %313, %312 ], [ %330, %334 ], [ %330, %337 ]
  call void @llvm.lifetime.end.p0(i64 32, ptr nonnull %15) #20
  br label %356

340:                                              ; preds = %192
  %341 = landingpad { ptr, i32 }
          cleanup
  %342 = load ptr, ptr %18, align 8, !tbaa !12
  %343 = icmp eq ptr %342, %164
  br i1 %343, label %344, label %347

344:                                              ; preds = %340
  %345 = load i64, ptr %165, align 8, !tbaa !15
  %346 = icmp ult i64 %345, 16
  call void @llvm.assume(i1 %346)
  br label %348

347:                                              ; preds = %340
  call void @_ZdlPv(ptr noundef %342) #21
  br label %348

348:                                              ; preds = %347, %344, %189, %186
  %349 = phi { ptr, i32 } [ %183, %189 ], [ %183, %186 ], [ %341, %344 ], [ %341, %347 ]
  call void @llvm.lifetime.end.p0(i64 32, ptr nonnull %18) #20
  br label %354

350:                                              ; preds = %201
  %351 = landingpad { ptr, i32 }
          cleanup
  invoke void @_ZNSt14basic_ofstreamIcSt11char_traitsIcEED1Ev(ptr noundef nonnull align 8 dereferenceable(248) %17)
          to label %354 unwind label %367

352:                                              ; preds = %210
  %353 = landingpad { ptr, i32 }
          cleanup
  br label %354

354:                                              ; preds = %352, %212, %350, %348
  %355 = phi { ptr, i32 } [ %351, %350 ], [ %349, %348 ], [ %353, %352 ], [ %213, %212 ]
  call void @llvm.lifetime.end.p0(i64 512, ptr nonnull %17) #20
  br label %356

356:                                              ; preds = %354, %338, %310
  %357 = phi { ptr, i32 } [ %355, %354 ], [ %339, %338 ], [ %311, %310 ]
  invoke void @_ZNSt7__cxx1119basic_ostringstreamIcSt11char_traitsIcESaIcEED1Ev(ptr noundef nonnull align 8 dereferenceable(112) %14)
          to label %358 unwind label %367

358:                                              ; preds = %356, %308
  %359 = phi { ptr, i32 } [ %309, %308 ], [ %357, %356 ]
  call void @llvm.lifetime.end.p0(i64 376, ptr nonnull %14) #20
  br label %360

360:                                              ; preds = %358, %307, %300
  %361 = phi { ptr, i32 } [ %359, %358 ], [ %301, %300 ], [ %303, %307 ]
  invoke void @_ZN6dealii15DataOut_DoFDataINS_10DoFHandlerILi3ELi3EEELi2ELi3EED2Ev(ptr noundef nonnull align 8 dereferenceable(216) %12)
          to label %362 unwind label %367

362:                                              ; preds = %360, %298
  %363 = phi { ptr, i32 } [ %299, %298 ], [ %361, %360 ]
  call void @llvm.lifetime.end.p0(i64 216, ptr nonnull %12) #20
  br label %364

364:                                              ; preds = %362, %297, %288, %279, %270
  %365 = phi { ptr, i32 } [ %363, %362 ], [ %290, %297 ], [ %281, %288 ], [ %272, %279 ], [ %263, %270 ]
  invoke void @_ZNSt6vectorINSt7__cxx1112basic_stringIcSt11char_traitsIcESaIcEEESaIS5_EED2Ev(ptr noundef nonnull align 8 dereferenceable(24) %7)
          to label %366 unwind label %367

366:                                              ; preds = %364
  call void @llvm.lifetime.end.p0(i64 24, ptr nonnull %7) #20
  resume { ptr, i32 } %365

367:                                              ; preds = %364, %360, %356, %350
  %368 = landingpad { ptr, i32 }
          catch ptr null
  %369 = extractvalue { ptr, i32 } %368, 0
  call void @__clang_call_terminate(ptr %369) #19
  unreachable
}

declare void @_ZN6dealii15DataOut_DoFDataINS_10DoFHandlerILi3ELi3EEELi2ELi3EE18attach_dof_handlerERKS2_(ptr noundef nonnull align 8 dereferenceable(216), ptr noundef nonnull align 8 dereferenceable(168)) local_unnamed_addr #4

declare void @_ZN6dealii15DataOut_DoFDataINS_10DoFHandlerILi3ELi3EEELi2ELi3EE15add_data_vectorINS_6VectorIdEEEEvRKT_RKSt6vectorINSt7__cxx1112basic_stringIcSt11char_traitsIcESaIcEEESaISG_EENS3_14DataVectorTypeERKSA_INS_27DataComponentInterpretation27DataComponentInterpretationESaISN_EE(ptr noundef nonnull align 8 dereferenceable(216), ptr noundef nonnull align 8 dereferenceable(88), ptr noundef nonnull align 8 dereferenceable(24), i32 noundef, ptr noundef nonnull align 8 dereferenceable(24)) local_unnamed_addr #4

declare void @_ZN6dealii12DataOutFacesILi3ENS_10DoFHandlerILi3ELi3EEEE13build_patchesEjj(ptr noundef nonnull align 8 dereferenceable(216), i32 noundef, i32 noundef) unnamed_addr #4

declare void @_ZNK6dealii16DataOutInterfaceILi2ELi3EE14default_suffixB5cxx11ENS_11DataOutBase12OutputFormatE(ptr sret(%"class.std::__cxx11::basic_string") align 8, ptr noundef nonnull align 8 dereferenceable(128), i32 noundef) local_unnamed_addr #4

declare void @_ZNK6dealii16DataOutInterfaceILi2ELi3EE5writeERSoNS_11DataOutBase12OutputFormatE(ptr noundef nonnull align 8 dereferenceable(128), ptr noundef nonnull align 8 dereferenceable(8), i32 noundef) local_unnamed_addr #4

; Function Attrs: sspstrong uwtable
define weak_odr dso_local void @_ZN12METomography13ForwardSolver10Evaluation21BreastPhantomGeometry17DetectorPositionsILi3EEC2ERKNSt7__cxx1112basic_stringIcSt11char_traitsIcESaIcEEE(ptr noundef nonnull align 8 dereferenceable(40) %0, ptr noundef nonnull align 8 dereferenceable(32) %1) unnamed_addr #2 comdat($_ZN12METomography13ForwardSolver10Evaluation21BreastPhantomGeometry17DetectorPositionsILi3EEC5ERKNSt7__cxx1112basic_stringIcSt11char_traitsIcESaIcEEE) align 2 personality ptr @__gxx_personality_v0 {
  %3 = alloca i64, align 8
  store ptr getelementptr inbounds ({ [5 x ptr] }, ptr @_ZTVN12METomography13ForwardSolver10Evaluation21BreastPhantomGeometry17DetectorPositionsILi3EEE, i64 0, inrange i32 0, i64 2), ptr %0, align 8, !tbaa !5
  %4 = getelementptr inbounds %"class.METomography::ForwardSolver::Evaluation::BreastPhantomGeometry::DetectorPositions", ptr %0, i64 0, i32 1
  %5 = getelementptr inbounds %"class.METomography::ForwardSolver::Evaluation::BreastPhantomGeometry::DetectorPositions", ptr %0, i64 0, i32 1, i32 2
  store ptr %5, ptr %4, align 8, !tbaa !8
  %6 = load ptr, ptr %1, align 8, !tbaa !12
  %7 = getelementptr inbounds %"class.std::__cxx11::basic_string", ptr %1, i64 0, i32 1
  %8 = load i64, ptr %7, align 8, !tbaa !15
  call void @llvm.lifetime.start.p0(i64 8, ptr nonnull %3) #20
  store i64 %8, ptr %3, align 8, !tbaa !16
  %9 = icmp ugt i64 %8, 15
  br i1 %9, label %10, label %13

10:                                               ; preds = %2
  %11 = call noundef ptr @_ZNSt7__cxx1112basic_stringIcSt11char_traitsIcESaIcEE9_M_createERmm(ptr noundef nonnull align 8 dereferenceable(32) %4, ptr noundef nonnull align 8 dereferenceable(8) %3, i64 noundef 0)
  store ptr %11, ptr %4, align 8, !tbaa !12
  %12 = load i64, ptr %3, align 8, !tbaa !16
  store i64 %12, ptr %5, align 8, !tbaa !17
  br label %13

13:                                               ; preds = %10, %2
  %14 = phi ptr [ %11, %10 ], [ %5, %2 ]
  switch i64 %8, label %17 [
    i64 1, label %15
    i64 0, label %18
  ]

15:                                               ; preds = %13
  %16 = load i8, ptr %6, align 1, !tbaa !17
  store i8 %16, ptr %14, align 1, !tbaa !17
  br label %18

17:                                               ; preds = %13
  call void @llvm.memcpy.p0.p0.i64(ptr align 1 %14, ptr align 1 %6, i64 %8, i1 false)
  br label %18

18:                                               ; preds = %17, %15, %13
  %19 = load i64, ptr %3, align 8, !tbaa !16
  %20 = getelementptr inbounds %"class.METomography::ForwardSolver::Evaluation::BreastPhantomGeometry::DetectorPositions", ptr %0, i64 0, i32 1, i32 1
  store i64 %19, ptr %20, align 8, !tbaa !15
  %21 = load ptr, ptr %4, align 8, !tbaa !12
  %22 = getelementptr inbounds i8, ptr %21, i64 %19
  store i8 0, ptr %22, align 1, !tbaa !17
  call void @llvm.lifetime.end.p0(i64 8, ptr nonnull %3) #20
  ret void
}

; Function Attrs: sspstrong uwtable
define weak_odr dso_local void @_ZNK12METomography13ForwardSolver10Evaluation21BreastPhantomGeometry17DetectorPositionsILi3EE8evaluateERKN6dealii10DoFHandlerILi3ELi3EEERKNS5_6VectorIdEEjjj(ptr noundef nonnull align 8 dereferenceable(40) %0, ptr noundef nonnull align 8 dereferenceable(168) %1, ptr noundef nonnull align 8 dereferenceable(88) %2, i32 noundef %3, i32 noundef %4, i32 noundef %5) unnamed_addr #2 comdat align 2 personality ptr @__gxx_personality_v0 {
  %7 = alloca i8, align 1
  %8 = alloca i8, align 1
  %9 = alloca %"class.dealii::QTrapez", align 8
  %10 = alloca %"class.dealii::QIterated", align 8
  %11 = alloca %"class.dealii::FEValues", align 8
  %12 = alloca %"class.std::vector.174", align 8
  %13 = alloca %"class.dealii::Vector", align 8
  %14 = alloca %"class.std::allocator.176", align 1
  %15 = alloca %"class.dealii::TriaActiveIterator", align 8
  %16 = alloca %"class.dealii::TriaRawIterator", align 8
  %17 = alloca %"class.dealii::Point", align 8
  %18 = alloca %"class.std::__cxx11::basic_ostringstream", align 8
  %19 = alloca %"class.std::__cxx11::basic_string", align 8
  %20 = alloca %"class.std::basic_ofstream", align 8
  %21 = alloca %"class.std::__cxx11::basic_string", align 8
  %22 = alloca %"class.dealii::StandardExceptions::ExcMessage", align 8
  %23 = tail call noalias noundef nonnull dereferenceable(2048) ptr @_Znwm(i64 noundef 2048) #22
  tail call void @llvm.memset.p0.i64(ptr noundef nonnull align 8 dereferenceable(2048) %23, i8 0, i64 2048, i1 false)
  %24 = invoke noalias noundef nonnull dereferenceable(1024) ptr @_Znwm(i64 noundef 1024) #22
          to label %25 unwind label %71

25:                                               ; preds = %6
  tail call void @llvm.memset.p0.i64(ptr noundef nonnull align 8 dereferenceable(1024) %24, i8 0, i64 1024, i1 false), !tbaa !61
  call void @llvm.lifetime.start.p0(i64 128, ptr nonnull %9) #20
  invoke void @_ZN6dealii7QTrapezILi1EEC1Ev(ptr noundef nonnull align 8 dereferenceable(128) %9)
          to label %26 unwind label %73

26:                                               ; preds = %25
  call void @llvm.lifetime.start.p0(i64 128, ptr nonnull %10) #20
  invoke void @_ZN6dealii9QIteratedILi3EEC1ERKNS_10QuadratureILi1EEEj(ptr noundef nonnull align 8 dereferenceable(128) %10, ptr noundef nonnull align 8 dereferenceable(128) %9, i32 noundef 4)
          to label %27 unwind label %75

27:                                               ; preds = %26
  %28 = getelementptr inbounds %"class.dealii::Quadrature.102", ptr %10, i64 0, i32 1
  %29 = load i32, ptr %28, align 8, !tbaa !63
  call void @llvm.lifetime.start.p0(i64 776, ptr nonnull %11) #20
  %30 = getelementptr inbounds %"class.dealii::DoFHandler", ptr %1, i64 0, i32 2
  %31 = load ptr, ptr %30, align 8, !tbaa !82
  invoke void @_ZN6dealii8FEValuesILi3ELi3EEC1ERKNS_13FiniteElementILi3ELi3EEERKNS_10QuadratureILi3EEENS_11UpdateFlagsE(ptr noundef nonnull align 8 dereferenceable(776) %11, ptr noundef nonnull align 8 dereferenceable(728) %31, ptr noundef nonnull align 8 dereferenceable(128) %10, i32 noundef 49)
          to label %32 unwind label %77

32:                                               ; preds = %27
  call void @llvm.lifetime.start.p0(i64 24, ptr nonnull %12) #20
  call void @llvm.lifetime.start.p0(i64 88, ptr nonnull %13) #20
  invoke void @_ZN6dealii11SubscriptorC2Ev(ptr noundef nonnull align 8 dereferenceable(72) %13)
          to label %33 unwind label %79

33:                                               ; preds = %32
  store ptr getelementptr inbounds ({ [6 x ptr] }, ptr @_ZTVN6dealii6VectorIdEE, i64 0, inrange i32 0, i64 2), ptr %13, align 8, !tbaa !5
  %34 = getelementptr inbounds %"class.dealii::Vector", ptr %13, i64 0, i32 1
  call void @llvm.memset.p0.i64(ptr noundef nonnull align 8 dereferenceable(16) %34, i8 0, i64 16, i1 false)
  %35 = invoke noalias noundef nonnull dereferenceable(32) ptr @_Znam(i64 noundef 32) #22
          to label %41 unwind label %36

36:                                               ; preds = %33
  %37 = landingpad { ptr, i32 }
          cleanup
  invoke void @_ZN6dealii11SubscriptorD2Ev(ptr noundef nonnull align 8 dereferenceable(72) %13)
          to label %83 unwind label %38

38:                                               ; preds = %36
  %39 = landingpad { ptr, i32 }
          catch ptr null
  %40 = extractvalue { ptr, i32 } %39, 0
  call void @__clang_call_terminate(ptr %40) #19
  unreachable

41:                                               ; preds = %33
  %42 = getelementptr inbounds %"class.dealii::Vector", ptr %13, i64 0, i32 3
  %43 = getelementptr inbounds %"class.dealii::Vector", ptr %13, i64 0, i32 2
  store ptr %35, ptr %42, align 8, !tbaa !84
  store i32 4, ptr %43, align 4, !tbaa !86
  store i32 4, ptr %34, align 8, !tbaa !87
  call void @llvm.memset.p0.i64(ptr noundef nonnull align 8 dereferenceable(32) %35, i8 0, i64 32, i1 false), !tbaa !61
  %44 = zext i32 %29 to i64
  call void @llvm.lifetime.start.p0(i64 1, ptr nonnull %14) #20
  invoke void @_ZNSt6vectorIN6dealii6VectorIdEESaIS2_EEC2EmRKS2_RKS3_(ptr noundef nonnull align 8 dereferenceable(24) %12, i64 noundef %44, ptr noundef nonnull align 8 dereferenceable(88) %13, ptr noundef nonnull align 1 dereferenceable(1) %14)
          to label %45 unwind label %81

45:                                               ; preds = %41
  call void @llvm.lifetime.end.p0(i64 1, ptr nonnull %14) #20
  store ptr getelementptr inbounds ({ [6 x ptr] }, ptr @_ZTVN6dealii6VectorIdEE, i64 0, inrange i32 0, i64 2), ptr %13, align 8, !tbaa !5
  %46 = load ptr, ptr %42, align 8, !tbaa !84
  %47 = icmp eq ptr %46, null
  br i1 %47, label %49, label %48

48:                                               ; preds = %45
  call void @_ZdaPv(ptr noundef nonnull %46) #21
  store ptr null, ptr %42, align 8, !tbaa !84
  br label %49

49:                                               ; preds = %48, %45
  invoke void @_ZN6dealii11SubscriptorD2Ev(ptr noundef nonnull align 8 dereferenceable(72) %13)
          to label %50 unwind label %79

50:                                               ; preds = %49
  call void @llvm.lifetime.end.p0(i64 88, ptr nonnull %13) #20
  call void @llvm.lifetime.start.p0(i64 24, ptr nonnull %15) #20
  invoke void @_ZNK6dealii10DoFHandlerILi3ELi3EE12begin_activeEj(ptr nonnull sret(%"class.dealii::TriaActiveIterator") align 8 %15, ptr noundef nonnull align 8 dereferenceable(168) %1, i32 noundef 0)
          to label %51 unwind label %85

51:                                               ; preds = %50
  %52 = getelementptr inbounds %"class.dealii::TriaAccessorBase", ptr %15, i64 0, i32 1
  %53 = getelementptr inbounds %"class.dealii::TriaAccessorBase", ptr %16, i64 0, i32 1
  %54 = getelementptr inbounds [3 x double], ptr %17, i64 0, i64 1
  %55 = getelementptr inbounds [3 x double], ptr %17, i64 0, i64 2
  %56 = icmp eq i32 %29, 0
  %57 = getelementptr inbounds i8, ptr %11, i64 312
  %58 = getelementptr inbounds i8, ptr %11, i64 216
  %59 = getelementptr inbounds %"class.dealii::TriaAccessorBase", ptr %15, i64 0, i32 2
  br label %61

60:                                               ; preds = %173, %176
  br label %61

61:                                               ; preds = %60, %51
  call void @llvm.lifetime.start.p0(i64 24, ptr nonnull %16) #20
  invoke void @_ZNK6dealii10DoFHandlerILi3ELi3EE3endEv(ptr nonnull sret(%"class.dealii::TriaRawIterator") align 8 %16, ptr noundef nonnull align 8 dereferenceable(168) %1)
          to label %62 unwind label %87

62:                                               ; preds = %61
  %63 = load i32, ptr %52, align 4, !tbaa !88
  %64 = load i32, ptr %53, align 4, !tbaa !88
  %65 = icmp ne i32 %63, %64
  %66 = load i32, ptr %15, align 8
  %67 = load i32, ptr %16, align 8
  %68 = icmp ne i32 %66, %67
  %69 = select i1 %65, i1 true, i1 %68
  call void @llvm.lifetime.end.p0(i64 24, ptr nonnull %16) #20
  br i1 %69, label %89, label %70

70:                                               ; preds = %62
  call void @llvm.lifetime.end.p0(i64 24, ptr nonnull %15) #20
  call void @llvm.lifetime.start.p0(i64 376, ptr nonnull %18) #20
  invoke void @_ZNSt7__cxx1119basic_ostringstreamIcSt11char_traitsIcESaIcEEC1Ev(ptr noundef nonnull align 8 dereferenceable(112) %18)
          to label %265 unwind label %350

71:                                               ; preds = %6
  %72 = landingpad { ptr, i32 }
          cleanup
  br label %572

73:                                               ; preds = %523, %25
  %74 = landingpad { ptr, i32 }
          cleanup
  br label %570

75:                                               ; preds = %522, %26
  %76 = landingpad { ptr, i32 }
          cleanup
  br label %568

77:                                               ; preds = %516, %27
  %78 = landingpad { ptr, i32 }
          cleanup
  br label %566

79:                                               ; preds = %49, %32
  %80 = landingpad { ptr, i32 }
          cleanup
  br label %83

81:                                               ; preds = %41
  %82 = landingpad { ptr, i32 }
          cleanup
  call void @llvm.lifetime.end.p0(i64 1, ptr nonnull %14) #20
  invoke void @_ZN6dealii6VectorIdED2Ev(ptr noundef nonnull align 8 dereferenceable(88) %13)
          to label %83 unwind label %574

83:                                               ; preds = %79, %36, %81
  %84 = phi { ptr, i32 } [ %82, %81 ], [ %80, %79 ], [ %37, %36 ]
  call void @llvm.lifetime.end.p0(i64 88, ptr nonnull %13) #20
  br label %557

85:                                               ; preds = %50
  %86 = landingpad { ptr, i32 }
          cleanup
  br label %263

87:                                               ; preds = %61
  %88 = landingpad { ptr, i32 }
          cleanup
  call void @llvm.lifetime.end.p0(i64 24, ptr nonnull %16) #20
  br label %263

89:                                               ; preds = %62
  %90 = invoke noundef double @_ZNK6dealii12TriaAccessorILi3ELi3ELi3EE8diameterEv(ptr noundef nonnull align 8 dereferenceable(16) %15)
          to label %91 unwind label %187

91:                                               ; preds = %89
  call void @llvm.lifetime.start.p0(i64 24, ptr nonnull %17) #20
  invoke void @_ZNK6dealii12TriaAccessorILi3ELi3ELi3EE6centerEv(ptr nonnull sret(%"class.dealii::Point") align 8 %17, ptr noundef nonnull align 8 dereferenceable(16) %15)
          to label %92 unwind label %189

92:                                               ; preds = %91
  %93 = fadd double %90, 5.000000e-01
  br label %191

94:                                               ; preds = %258
  call void @llvm.lifetime.end.p0(i64 24, ptr nonnull %17) #20
  %95 = load ptr, ptr %59, align 8, !tbaa !90
  %96 = getelementptr inbounds %"class.dealii::Triangulation", ptr %95, i64 0, i32 1
  %97 = load ptr, ptr %96, align 8, !tbaa !91
  %98 = ptrtoint ptr %97 to i64
  %99 = getelementptr inbounds %"class.dealii::Triangulation", ptr %95, i64 0, i32 1, i32 0, i32 0, i32 0, i32 1
  %100 = load i32, ptr %15, align 8, !tbaa !93
  %101 = load i32, ptr %52, align 4
  br label %102

102:                                              ; preds = %171, %94
  %103 = phi i32 [ %100, %94 ], [ %151, %171 ]
  %104 = phi i32 [ %100, %94 ], [ %172, %171 ]
  %105 = phi i32 [ %101, %94 ], [ %152, %171 ]
  %106 = add nsw i32 %105, 1
  %107 = sext i32 %104 to i64
  %108 = getelementptr inbounds ptr, ptr %97, i64 %107
  %109 = load ptr, ptr %108, align 8, !tbaa !22
  %110 = getelementptr inbounds %"class.dealii::internal::Triangulation::TriaLevel", ptr %109, i64 0, i32 4
  %111 = getelementptr inbounds %"class.dealii::internal::Triangulation::TriaLevel", ptr %109, i64 0, i32 4, i32 0, i32 0, i32 0, i32 0, i32 0, i32 1
  %112 = load ptr, ptr %111, align 8, !tbaa !94
  %113 = load ptr, ptr %110, align 8, !tbaa !96
  %114 = ptrtoint ptr %112 to i64
  %115 = ptrtoint ptr %113 to i64
  %116 = sub i64 %114, %115
  %117 = sdiv exact i64 %116, 24
  %118 = trunc i64 %117 to i32
  %119 = icmp slt i32 %106, %118
  br i1 %119, label %150, label %120

120:                                              ; preds = %102
  %121 = add nsw i64 %107, 1
  %122 = trunc i64 %121 to i32
  store i32 %122, ptr %15, align 8, !tbaa !93
  %123 = load ptr, ptr %99, align 8, !tbaa !97
  %124 = ptrtoint ptr %123 to i64
  %125 = sub i64 %124, %98
  %126 = shl i64 %125, 29
  %127 = ashr i64 %126, 32
  %128 = icmp slt i64 %121, %127
  br i1 %128, label %129, label %147

129:                                              ; preds = %120, %143
  %130 = phi i64 [ %144, %143 ], [ %121, %120 ]
  %131 = getelementptr inbounds ptr, ptr %97, i64 %130
  %132 = load ptr, ptr %131, align 8, !tbaa !22
  %133 = getelementptr inbounds %"class.dealii::internal::Triangulation::TriaLevel", ptr %132, i64 0, i32 4
  %134 = getelementptr inbounds %"class.dealii::internal::Triangulation::TriaLevel", ptr %132, i64 0, i32 4, i32 0, i32 0, i32 0, i32 0, i32 0, i32 1
  %135 = load ptr, ptr %134, align 8, !tbaa !94
  %136 = load ptr, ptr %133, align 8, !tbaa !96
  %137 = ptrtoint ptr %135 to i64
  %138 = ptrtoint ptr %136 to i64
  %139 = sub i64 %137, %138
  %140 = sdiv exact i64 %139, 24
  %141 = trunc i64 %140 to i32
  %142 = icmp sgt i32 %141, 0
  br i1 %142, label %148, label %143

143:                                              ; preds = %129
  %144 = add i64 %130, 1
  %145 = trunc i64 %144 to i32
  store i32 %145, ptr %15, align 8, !tbaa !93
  %146 = icmp eq i64 %144, %127
  br i1 %146, label %147, label %129, !llvm.loop !98

147:                                              ; preds = %143, %120
  store i32 -1, ptr %15, align 8, !tbaa !93
  br label %150

148:                                              ; preds = %129
  %149 = trunc i64 %130 to i32
  br label %150

150:                                              ; preds = %148, %147, %102
  %151 = phi i32 [ %103, %102 ], [ -1, %147 ], [ %149, %148 ]
  %152 = phi i32 [ %106, %102 ], [ -1, %147 ], [ 0, %148 ]
  %153 = phi i32 [ %104, %102 ], [ -1, %147 ], [ %149, %148 ]
  %154 = or i32 %153, %152
  %155 = icmp sgt i32 %154, -1
  br i1 %155, label %156, label %173

156:                                              ; preds = %150
  %157 = zext i32 %153 to i64
  %158 = getelementptr inbounds ptr, ptr %97, i64 %157
  %159 = load ptr, ptr %158, align 8, !tbaa !22
  %160 = getelementptr inbounds %"class.dealii::internal::Triangulation::TriaLevel", ptr %159, i64 0, i32 4, i32 0, i32 3
  %161 = load ptr, ptr %160, align 8, !tbaa !100
  %162 = lshr i32 %152, 6
  %163 = zext i32 %162 to i64
  %164 = getelementptr inbounds i64, ptr %161, i64 %163
  %165 = and i32 %152, 63
  %166 = zext i32 %165 to i64
  %167 = shl nuw i64 1, %166
  %168 = load i64, ptr %164, align 8, !tbaa !16
  %169 = and i64 %168, %167
  %170 = icmp eq i64 %169, 0
  br i1 %170, label %171, label %173

171:                                              ; preds = %156, %176
  %172 = phi i32 [ %153, %156 ], [ %151, %176 ]
  br label %102

173:                                              ; preds = %156, %150
  store i32 %152, ptr %52, align 4, !tbaa !88
  %174 = or i32 %152, %151
  %175 = icmp sgt i32 %174, -1
  br i1 %175, label %176, label %60

176:                                              ; preds = %173
  %177 = zext i32 %151 to i64
  %178 = getelementptr inbounds ptr, ptr %97, i64 %177
  %179 = load ptr, ptr %178, align 8, !tbaa !22
  %180 = getelementptr inbounds %"class.dealii::internal::Triangulation::TriaLevel", ptr %179, i64 0, i32 4, i32 0, i32 1
  %181 = shl i32 %152, 2
  %182 = zext i32 %181 to i64
  %183 = load ptr, ptr %180, align 8, !tbaa !102
  %184 = getelementptr inbounds i32, ptr %183, i64 %182
  %185 = load i32, ptr %184, align 4, !tbaa !104
  %186 = icmp eq i32 %185, -1
  br i1 %186, label %60, label %171

187:                                              ; preds = %89
  %188 = landingpad { ptr, i32 }
          cleanup
  br label %263

189:                                              ; preds = %91
  %190 = landingpad { ptr, i32 }
          cleanup
  br label %261

191:                                              ; preds = %92, %258
  %192 = phi i64 [ 0, %92 ], [ %259, %258 ]
  %193 = getelementptr inbounds [128 x %"class.dealii::Point"], ptr @_ZN12METomography13ForwardSolver10Evaluation21BreastPhantomGeometry18detector_positionsE, i64 0, i64 %192
  %194 = load double, ptr %17, align 8, !tbaa !61
  %195 = load double, ptr %193, align 8, !tbaa !61
  %196 = fsub double %194, %195
  %197 = call double @llvm.fmuladd.f64(double %196, double %196, double 0.000000e+00)
  %198 = load double, ptr %54, align 8, !tbaa !61
  %199 = getelementptr inbounds [3 x double], ptr %193, i64 0, i64 1
  %200 = load double, ptr %199, align 8, !tbaa !61
  %201 = fsub double %198, %200
  %202 = call double @llvm.fmuladd.f64(double %201, double %201, double %197)
  %203 = load double, ptr %55, align 8, !tbaa !61
  %204 = getelementptr inbounds [3 x double], ptr %193, i64 0, i64 2
  %205 = load double, ptr %204, align 8, !tbaa !61
  %206 = fsub double %203, %205
  %207 = call double @llvm.fmuladd.f64(double %206, double %206, double %202)
  %208 = call double @llvm.sqrt.f64(double %207)
  %209 = fcmp olt double %208, %93
  br i1 %209, label %210, label %258

210:                                              ; preds = %191
  invoke void @_ZN6dealii8FEValuesILi3ELi3EE6reinitERKNS_12TriaIteratorINS_15DoFCellAccessorINS_10DoFHandlerILi3ELi3EEEEEEE(ptr noundef nonnull align 8 dereferenceable(776) %11, ptr noundef nonnull align 8 dereferenceable(24) %15)
          to label %211 unwind label %222

211:                                              ; preds = %210
  invoke void @_ZNK6dealii12FEValuesBaseILi3ELi3EE19get_function_valuesINS_6VectorIdEEdEEvRKT_RSt6vectorINS3_IT0_EESaISA_EE(ptr noundef nonnull align 8 dereferenceable(648) %11, ptr noundef nonnull align 8 dereferenceable(88) %2, ptr noundef nonnull align 8 dereferenceable(24) %12)
          to label %212 unwind label %222

212:                                              ; preds = %211
  br i1 %56, label %258, label %213

213:                                              ; preds = %212
  %214 = load ptr, ptr %57, align 8, !tbaa !105
  %215 = load double, ptr %193, align 8, !tbaa !61
  %216 = load double, ptr %199, align 8, !tbaa !61
  %217 = load double, ptr %204, align 8, !tbaa !61
  %218 = load ptr, ptr %12, align 8
  %219 = load ptr, ptr %58, align 8
  %220 = getelementptr inbounds %"class.std::complex", ptr %23, i64 %192
  %221 = getelementptr inbounds double, ptr %24, i64 %192
  br label %224

222:                                              ; preds = %211, %210
  %223 = landingpad { ptr, i32 }
          cleanup
  br label %261

224:                                              ; preds = %213, %255
  %225 = phi i64 [ 0, %213 ], [ %256, %255 ]
  %226 = getelementptr inbounds %"class.dealii::Point", ptr %214, i64 %225
  %227 = load double, ptr %226, align 8, !tbaa !61
  %228 = fsub double %227, %215
  %229 = call double @llvm.fmuladd.f64(double %228, double %228, double 0.000000e+00)
  %230 = getelementptr inbounds [3 x double], ptr %226, i64 0, i64 1
  %231 = load double, ptr %230, align 8, !tbaa !61
  %232 = fsub double %231, %216
  %233 = call double @llvm.fmuladd.f64(double %232, double %232, double %229)
  %234 = getelementptr inbounds [3 x double], ptr %226, i64 0, i64 2
  %235 = load double, ptr %234, align 8, !tbaa !61
  %236 = fsub double %235, %217
  %237 = call double @llvm.fmuladd.f64(double %236, double %236, double %233)
  %238 = call double @llvm.sqrt.f64(double %237)
  %239 = fcmp olt double %238, 5.000000e-01
  br i1 %239, label %240, label %255

240:                                              ; preds = %224
  %241 = getelementptr inbounds %"class.dealii::Vector", ptr %218, i64 %225, i32 3
  %242 = load ptr, ptr %241, align 8, !tbaa !84
  %243 = getelementptr inbounds double, ptr %242, i64 2
  %244 = getelementptr inbounds double, ptr %219, i64 %225
  %245 = load double, ptr %244, align 8, !tbaa !61
  %246 = load <2 x double>, ptr %243, align 8, !tbaa !61
  %247 = insertelement <2 x double> poison, double %245, i64 0
  %248 = shufflevector <2 x double> %247, <2 x double> poison, <2 x i32> zeroinitializer
  %249 = fmul <2 x double> %246, %248
  %250 = load <2 x double>, ptr %220, align 8
  %251 = fadd <2 x double> %249, %250
  store <2 x double> %251, ptr %220, align 8
  %252 = load double, ptr %244, align 8, !tbaa !61
  %253 = load double, ptr %221, align 8, !tbaa !61
  %254 = fadd double %252, %253
  store double %254, ptr %221, align 8, !tbaa !61
  br label %255

255:                                              ; preds = %224, %240
  %256 = add nuw nsw i64 %225, 1
  %257 = icmp eq i64 %256, %44
  br i1 %257, label %258, label %224

258:                                              ; preds = %255, %212, %191
  %259 = add nuw nsw i64 %192, 1
  %260 = icmp eq i64 %259, 128
  br i1 %260, label %94, label %191

261:                                              ; preds = %222, %189
  %262 = phi { ptr, i32 } [ %190, %189 ], [ %223, %222 ]
  call void @llvm.lifetime.end.p0(i64 24, ptr nonnull %17) #20
  br label %263

263:                                              ; preds = %187, %261, %87, %85
  %264 = phi { ptr, i32 } [ %86, %85 ], [ %88, %87 ], [ %262, %261 ], [ %188, %187 ]
  call void @llvm.lifetime.end.p0(i64 24, ptr nonnull %15) #20
  br label %533

265:                                              ; preds = %70
  %266 = getelementptr inbounds %"class.METomography::ForwardSolver::Evaluation::BreastPhantomGeometry::DetectorPositions", ptr %0, i64 0, i32 1
  %267 = load ptr, ptr %266, align 8, !tbaa !12
  %268 = getelementptr inbounds %"class.METomography::ForwardSolver::Evaluation::BreastPhantomGeometry::DetectorPositions", ptr %0, i64 0, i32 1, i32 1
  %269 = load i64, ptr %268, align 8, !tbaa !15
  %270 = invoke noundef nonnull align 8 dereferenceable(8) ptr @_ZSt16__ostream_insertIcSt11char_traitsIcEERSt13basic_ostreamIT_T0_ES6_PKS3_l(ptr noundef nonnull align 8 dereferenceable(8) %18, ptr noundef %267, i64 noundef %269)
          to label %271 unwind label %352

271:                                              ; preds = %265
  %272 = invoke noundef nonnull align 8 dereferenceable(8) ptr @_ZSt16__ostream_insertIcSt11char_traitsIcEERSt13basic_ostreamIT_T0_ES6_PKS3_l(ptr noundef nonnull align 8 dereferenceable(8) %270, ptr noundef nonnull @.str.13, i64 noundef 1)
          to label %273 unwind label %352

273:                                              ; preds = %271
  call void @llvm.lifetime.start.p0(i64 32, ptr nonnull %19) #20
  %274 = invoke noundef i32 @_ZN6dealii9Utilities13needed_digitsEj(i32 noundef %4)
          to label %275 unwind label %354

275:                                              ; preds = %273
  invoke void @_ZN6dealii9Utilities13int_to_stringB5cxx11Ejj(ptr nonnull sret(%"class.std::__cxx11::basic_string") align 8 %19, i32 noundef %3, i32 noundef %274)
          to label %276 unwind label %354

276:                                              ; preds = %275
  %277 = load ptr, ptr %19, align 8, !tbaa !12
  %278 = getelementptr inbounds %"class.std::__cxx11::basic_string", ptr %19, i64 0, i32 1
  %279 = load i64, ptr %278, align 8, !tbaa !15
  %280 = invoke noundef nonnull align 8 dereferenceable(8) ptr @_ZSt16__ostream_insertIcSt11char_traitsIcEERSt13basic_ostreamIT_T0_ES6_PKS3_l(ptr noundef nonnull align 8 dereferenceable(8) %270, ptr noundef %277, i64 noundef %279)
          to label %281 unwind label %356

281:                                              ; preds = %276
  %282 = invoke noundef nonnull align 8 dereferenceable(8) ptr @_ZSt16__ostream_insertIcSt11char_traitsIcEERSt13basic_ostreamIT_T0_ES6_PKS3_l(ptr noundef nonnull align 8 dereferenceable(8) %280, ptr noundef nonnull @.str.14, i64 noundef 1)
          to label %283 unwind label %356

283:                                              ; preds = %281
  %284 = zext i32 %5 to i64
  %285 = invoke noundef nonnull align 8 dereferenceable(8) ptr @_ZNSo9_M_insertImEERSoT_(ptr noundef nonnull align 8 dereferenceable(8) %280, i64 noundef %284)
          to label %286 unwind label %356

286:                                              ; preds = %283
  %287 = invoke noundef nonnull align 8 dereferenceable(8) ptr @_ZNSo3putEc(ptr noundef nonnull align 8 dereferenceable(8) %285, i8 noundef signext 0)
          to label %288 unwind label %356

288:                                              ; preds = %286
  %289 = load ptr, ptr %19, align 8, !tbaa !12
  %290 = getelementptr inbounds %"class.std::__cxx11::basic_string", ptr %19, i64 0, i32 2
  %291 = icmp eq ptr %289, %290
  br i1 %291, label %292, label %295

292:                                              ; preds = %288
  %293 = load i64, ptr %278, align 8, !tbaa !15
  %294 = icmp ult i64 %293, 16
  call void @llvm.assume(i1 %294)
  br label %296

295:                                              ; preds = %288
  call void @_ZdlPv(ptr noundef %289) #21
  br label %296

296:                                              ; preds = %295, %292
  call void @llvm.lifetime.end.p0(i64 32, ptr nonnull %19) #20
  call void @llvm.lifetime.start.p0(i64 512, ptr nonnull %20) #20
  call void @llvm.lifetime.start.p0(i64 32, ptr nonnull %21) #20
  call void @llvm.experimental.noalias.scope.decl(metadata !106)
  call void @llvm.experimental.noalias.scope.decl(metadata !109)
  %297 = getelementptr inbounds %"class.std::__cxx11::basic_string", ptr %21, i64 0, i32 2
  store ptr %297, ptr %21, align 8, !tbaa !8, !alias.scope !112
  %298 = getelementptr inbounds %"class.std::__cxx11::basic_string", ptr %21, i64 0, i32 1
  store i64 0, ptr %298, align 8, !tbaa !15, !alias.scope !112
  store i8 0, ptr %297, align 8, !tbaa !17, !alias.scope !112
  %299 = getelementptr inbounds %"class.std::__cxx11::basic_ostringstream", ptr %18, i64 0, i32 1, i32 0, i32 5
  %300 = load ptr, ptr %299, align 8, !tbaa !38, !noalias !112
  %301 = icmp eq ptr %300, null
  %302 = getelementptr inbounds %"class.std::__cxx11::basic_ostringstream", ptr %18, i64 0, i32 1, i32 0, i32 3
  %303 = load ptr, ptr %302, align 8, !noalias !112
  %304 = icmp ugt ptr %300, %303
  %305 = select i1 %304, ptr %300, ptr %303
  %306 = icmp eq ptr %305, null
  %307 = select i1 %301, i1 true, i1 %306
  br i1 %307, label %323, label %308

308:                                              ; preds = %296
  %309 = getelementptr inbounds %"class.std::__cxx11::basic_ostringstream", ptr %18, i64 0, i32 1, i32 0, i32 4
  %310 = load ptr, ptr %309, align 8, !tbaa !41, !noalias !112
  %311 = ptrtoint ptr %305 to i64
  %312 = ptrtoint ptr %310 to i64
  %313 = sub i64 %311, %312
  %314 = invoke noundef nonnull align 8 dereferenceable(32) ptr @_ZNSt7__cxx1112basic_stringIcSt11char_traitsIcESaIcEE10_M_replaceEmmPKcm(ptr noundef nonnull align 8 dereferenceable(32) %21, i64 noundef 0, i64 noundef 0, ptr noundef %310, i64 noundef %313)
          to label %325 unwind label %315

315:                                              ; preds = %323, %308
  %316 = landingpad { ptr, i32 }
          cleanup
  %317 = load ptr, ptr %21, align 8, !tbaa !12, !alias.scope !112
  %318 = icmp eq ptr %317, %297
  br i1 %318, label %319, label %322

319:                                              ; preds = %315
  %320 = load i64, ptr %298, align 8, !tbaa !15, !alias.scope !112
  %321 = icmp ult i64 %320, 16
  call void @llvm.assume(i1 %321)
  br label %375

322:                                              ; preds = %315
  call void @_ZdlPv(ptr noundef %317) #21
  br label %375

323:                                              ; preds = %296
  %324 = getelementptr inbounds %"class.std::__cxx11::basic_ostringstream", ptr %18, i64 0, i32 1, i32 2
  invoke void @_ZNSt7__cxx1112basic_stringIcSt11char_traitsIcESaIcEE9_M_assignERKS4_(ptr noundef nonnull align 8 dereferenceable(32) %21, ptr noundef nonnull align 8 dereferenceable(32) %324)
          to label %325 unwind label %315

325:                                              ; preds = %323, %308
  %326 = load ptr, ptr %21, align 8, !tbaa !12
  invoke void @_ZNSt14basic_ofstreamIcSt11char_traitsIcEEC1EPKcSt13_Ios_Openmode(ptr noundef nonnull align 8 dereferenceable(248) %20, ptr noundef %326, i32 noundef 16)
          to label %327 unwind label %367

327:                                              ; preds = %325
  %328 = load ptr, ptr %21, align 8, !tbaa !12
  %329 = icmp eq ptr %328, %297
  br i1 %329, label %330, label %333

330:                                              ; preds = %327
  %331 = load i64, ptr %298, align 8, !tbaa !15
  %332 = icmp ult i64 %331, 16
  call void @llvm.assume(i1 %332)
  br label %334

333:                                              ; preds = %327
  call void @_ZdlPv(ptr noundef %328) #21
  br label %334

334:                                              ; preds = %333, %330
  call void @llvm.lifetime.end.p0(i64 32, ptr nonnull %21) #20
  br label %377

335:                                              ; preds = %467
  %336 = load ptr, ptr @_ZTTSt14basic_ofstreamIcSt11char_traitsIcEE, align 8
  store ptr %336, ptr %20, align 8, !tbaa !5
  %337 = load ptr, ptr getelementptr inbounds ([4 x ptr], ptr @_ZTTSt14basic_ofstreamIcSt11char_traitsIcEE, i64 0, i64 3), align 8
  %338 = getelementptr i8, ptr %336, i64 -24
  %339 = load i64, ptr %338, align 8
  %340 = getelementptr inbounds i8, ptr %20, i64 %339
  store ptr %337, ptr %340, align 8, !tbaa !5
  %341 = getelementptr inbounds %"class.std::basic_ofstream", ptr %20, i64 0, i32 1
  invoke void @_ZNSt13basic_filebufIcSt11char_traitsIcEED2Ev(ptr noundef nonnull align 8 dereferenceable(240) %341)
          to label %342 unwind label %344

342:                                              ; preds = %335
  %343 = getelementptr inbounds i8, ptr %20, i64 248
  invoke void @_ZNSt8ios_baseD2Ev(ptr noundef nonnull align 8 dereferenceable(264) %343)
          to label %472 unwind label %525

344:                                              ; preds = %335
  %345 = landingpad { ptr, i32 }
          cleanup
  %346 = getelementptr inbounds i8, ptr %20, i64 248
  invoke void @_ZNSt8ios_baseD2Ev(ptr noundef nonnull align 8 dereferenceable(264) %346)
          to label %527 unwind label %347

347:                                              ; preds = %344
  %348 = landingpad { ptr, i32 }
          catch ptr null
  %349 = extractvalue { ptr, i32 } %348, 0
  call void @__clang_call_terminate(ptr %349) #19
  unreachable

350:                                              ; preds = %488, %70
  %351 = landingpad { ptr, i32 }
          cleanup
  br label %531

352:                                              ; preds = %271, %265
  %353 = landingpad { ptr, i32 }
          cleanup
  br label %529

354:                                              ; preds = %275, %273
  %355 = landingpad { ptr, i32 }
          cleanup
  br label %365

356:                                              ; preds = %286, %283, %281, %276
  %357 = landingpad { ptr, i32 }
          cleanup
  %358 = load ptr, ptr %19, align 8, !tbaa !12
  %359 = getelementptr inbounds %"class.std::__cxx11::basic_string", ptr %19, i64 0, i32 2
  %360 = icmp eq ptr %358, %359
  br i1 %360, label %361, label %364

361:                                              ; preds = %356
  %362 = load i64, ptr %278, align 8, !tbaa !15
  %363 = icmp ult i64 %362, 16
  call void @llvm.assume(i1 %363)
  br label %365

364:                                              ; preds = %356
  call void @_ZdlPv(ptr noundef %358) #21
  br label %365

365:                                              ; preds = %364, %361, %354
  %366 = phi { ptr, i32 } [ %355, %354 ], [ %357, %361 ], [ %357, %364 ]
  call void @llvm.lifetime.end.p0(i64 32, ptr nonnull %19) #20
  br label %529

367:                                              ; preds = %325
  %368 = landingpad { ptr, i32 }
          cleanup
  %369 = load ptr, ptr %21, align 8, !tbaa !12
  %370 = icmp eq ptr %369, %297
  br i1 %370, label %371, label %374

371:                                              ; preds = %367
  %372 = load i64, ptr %298, align 8, !tbaa !15
  %373 = icmp ult i64 %372, 16
  call void @llvm.assume(i1 %373)
  br label %375

374:                                              ; preds = %367
  call void @_ZdlPv(ptr noundef %369) #21
  br label %375

375:                                              ; preds = %374, %371, %322, %319
  %376 = phi { ptr, i32 } [ %316, %322 ], [ %316, %319 ], [ %368, %371 ], [ %368, %374 ]
  call void @llvm.lifetime.end.p0(i64 32, ptr nonnull %21) #20
  br label %527

377:                                              ; preds = %334, %467
  %378 = phi i64 [ 0, %334 ], [ %468, %467 ]
  %379 = getelementptr inbounds double, ptr %24, i64 %378
  %380 = load double, ptr %379, align 8, !tbaa !61
  %381 = fcmp ogt double %380, 0.000000e+00
  br i1 %381, label %401, label %382

382:                                              ; preds = %377
  invoke void @_ZN6dealii13ExceptionBaseC2Ev(ptr noundef nonnull align 8 dereferenceable(60) %22)
          to label %383 unwind label %395

383:                                              ; preds = %382
  store ptr getelementptr inbounds ({ [6 x ptr] }, ptr @_ZTVN6dealii18StandardExceptions10ExcMessageE, i64 0, inrange i32 0, i64 2), ptr %22, align 8, !tbaa !5
  %384 = getelementptr inbounds %"class.dealii::StandardExceptions::ExcMessage", ptr %22, i64 0, i32 1
  store ptr @.str.20, ptr %384, align 8, !tbaa !113
  invoke void @_ZN6dealii13ExceptionBase10set_fieldsEPKciS2_S2_S2_(ptr noundef nonnull align 8 dereferenceable(60) %22, ptr noundef nonnull @.str.16, i32 noundef 491, ptr noundef nonnull @.str.17, ptr noundef nonnull @.str.18, ptr noundef nonnull @.str.19)
          to label %385 unwind label %397

385:                                              ; preds = %383
  %386 = call ptr @__cxa_allocate_exception(i64 72) #20
  invoke void @_ZN6dealii13ExceptionBaseC2ERKS0_(ptr noundef nonnull align 8 dereferenceable(60) %386, ptr noundef nonnull align 8 dereferenceable(60) %22)
          to label %387 unwind label %391

387:                                              ; preds = %385
  store ptr getelementptr inbounds ({ [6 x ptr] }, ptr @_ZTVN6dealii18StandardExceptions10ExcMessageE, i64 0, inrange i32 0, i64 2), ptr %386, align 8, !tbaa !5
  %388 = getelementptr inbounds %"class.dealii::StandardExceptions::ExcMessage", ptr %386, i64 0, i32 1
  %389 = load ptr, ptr %384, align 8, !tbaa !113
  store ptr %389, ptr %388, align 8, !tbaa !113
  invoke void @__cxa_throw(ptr nonnull %386, ptr nonnull @_ZTIN6dealii18StandardExceptions10ExcMessageE, ptr nonnull @_ZN6dealii13ExceptionBaseD2Ev) #23
          to label %390 unwind label %397

390:                                              ; preds = %387
  unreachable

391:                                              ; preds = %385
  %392 = landingpad { ptr, i32 }
