; ModuleID = 'source/me-tomography/geometry.cc'
source_filename = "source/me-tomography/geometry.cc"
target datalayout = "e-m:e-p270:32:32-p271:32:32-p272:64:64-i64:64-f80:128-n8:16:32:64-S128"
target triple = "x86_64-pc-linux-gnu"

%"class.dealii::Point" = type { %"class.dealii::Tensor" }
%"class.dealii::Tensor" = type { [3 x double] }
%"class.METomography::Geometry::BreastPhantom::CylinderBoundary" = type { %"class.dealii::StraightBoundary", double }
%"class.dealii::StraightBoundary" = type { %"class.dealii::Boundary" }
%"class.dealii::Boundary" = type { %"class.dealii::Subscriptor" }
%"class.dealii::Subscriptor" = type { ptr, i32, %"class.std::map", ptr }
%"class.std::map" = type { %"class.std::_Rb_tree" }
%"class.std::_Rb_tree" = type { %"struct.std::_Rb_tree<const char *, std::pair<const char *const, unsigned int>, std::_Select1st<std::pair<const char *const, unsigned int> >, std::less<const char *> >::_Rb_tree_impl" }
%"struct.std::_Rb_tree<const char *, std::pair<const char *const, unsigned int>, std::_Select1st<std::pair<const char *const, unsigned int> >, std::less<const char *> >::_Rb_tree_impl" = type { %"struct.std::_Rb_tree_key_compare", %"struct.std::_Rb_tree_header" }
%"struct.std::_Rb_tree_key_compare" = type { %"struct.std::less" }
%"struct.std::less" = type { i8 }
%"struct.std::_Rb_tree_header" = type { %"struct.std::_Rb_tree_node_base", i64 }
%"struct.std::_Rb_tree_node_base" = type { i32, ptr, ptr, ptr }
%"class.METomography::Geometry::BreastPhantom::SphereBoundary" = type { %"class.dealii::HyperBallBoundary.base", [7 x i8] }
%"class.dealii::HyperBallBoundary.base" = type <{ %"class.dealii::StraightBoundary", %"class.dealii::Point", double, i8 }>
%"class.METomography::Geometry::CurvedHypercube8::Boundary" = type { %"class.dealii::StraightBoundary" }
%"class.std::__cxx11::basic_string" = type { %"struct.std::__cxx11::basic_string<char>::_Alloc_hider", i64, %union.anon.53 }
%"struct.std::__cxx11::basic_string<char>::_Alloc_hider" = type { ptr }
%union.anon.53 = type { i64, [8 x i8] }
%"class.METomography::Geometry::PointCloudSurface::Boundary" = type { %"class.dealii::StraightBoundary", %"class.std::vector" }
%"class.std::vector" = type { %"struct.std::_Vector_base" }
%"struct.std::_Vector_base" = type { %"struct.std::_Vector_base<dealii::Point<3>, std::allocator<dealii::Point<3> > >::_Vector_impl" }
%"struct.std::_Vector_base<dealii::Point<3>, std::allocator<dealii::Point<3> > >::_Vector_impl" = type { %"struct.std::_Vector_base<dealii::Point<3>, std::allocator<dealii::Point<3> > >::_Vector_impl_data" }
%"struct.std::_Vector_base<dealii::Point<3>, std::allocator<dealii::Point<3> > >::_Vector_impl_data" = type { ptr, ptr, ptr }
%"class.std::vector.8" = type { %"struct.std::_Vector_base.9" }
%"struct.std::_Vector_base.9" = type { %"struct.std::_Vector_base<dealii::CellData<3>, std::allocator<dealii::CellData<3> > >::_Vector_impl" }
%"struct.std::_Vector_base<dealii::CellData<3>, std::allocator<dealii::CellData<3> > >::_Vector_impl" = type { %"struct.std::_Vector_base<dealii::CellData<3>, std::allocator<dealii::CellData<3> > >::_Vector_impl_data" }
%"struct.std::_Vector_base<dealii::CellData<3>, std::allocator<dealii::CellData<3> > >::_Vector_impl_data" = type { ptr, ptr, ptr }
%"struct.dealii::SubCellData" = type { %"class.std::vector.13", %"class.std::vector.18" }
%"class.std::vector.13" = type { %"struct.std::_Vector_base.14" }
%"struct.std::_Vector_base.14" = type { %"struct.std::_Vector_base<dealii::CellData<1>, std::allocator<dealii::CellData<1> > >::_Vector_impl" }
%"struct.std::_Vector_base<dealii::CellData<1>, std::allocator<dealii::CellData<1> > >::_Vector_impl" = type { %"struct.std::_Vector_base<dealii::CellData<1>, std::allocator<dealii::CellData<1> > >::_Vector_impl_data" }
%"struct.std::_Vector_base<dealii::CellData<1>, std::allocator<dealii::CellData<1> > >::_Vector_impl_data" = type { ptr, ptr, ptr }
%"class.std::vector.18" = type { %"struct.std::_Vector_base.19" }
%"struct.std::_Vector_base.19" = type { %"struct.std::_Vector_base<dealii::CellData<2>, std::allocator<dealii::CellData<2> > >::_Vector_impl" }
%"struct.std::_Vector_base<dealii::CellData<2>, std::allocator<dealii::CellData<2> > >::_Vector_impl" = type { %"struct.std::_Vector_base<dealii::CellData<2>, std::allocator<dealii::CellData<2> > >::_Vector_impl_data" }
%"struct.std::_Vector_base<dealii::CellData<2>, std::allocator<dealii::CellData<2> > >::_Vector_impl_data" = type { ptr, ptr, ptr }
%"class.dealii::TriaActiveIterator" = type { %"class.dealii::TriaIterator.45" }
%"class.dealii::TriaIterator.45" = type { %"class.dealii::TriaRawIterator.46" }
%"class.dealii::TriaRawIterator.46" = type { %"class.dealii::CellAccessor" }
%"class.dealii::CellAccessor" = type { %"class.dealii::TriaAccessor.48" }
%"class.dealii::TriaAccessor.48" = type { %"class.dealii::TriaAccessorBase.49" }
%"class.dealii::TriaAccessorBase.49" = type { i32, i32, ptr }
%"struct.dealii::CellData" = type { [8 x i32], i8 }
%"struct.dealii::CellData.23" = type { [4 x i32], i8 }
%"struct.dealii::CellData.24" = type { [2 x i32], i8 }
%"class.dealii::internal::Triangulation::TriaLevel" = type { %"class.std::vector.57", %"class.std::vector.30", %"class.std::vector.62", %"class.std::vector.37", %"class.dealii::internal::Triangulation::TriaObjectsHex" }
%"class.std::vector.57" = type { %"struct.std::_Vector_base.58" }
%"struct.std::_Vector_base.58" = type { %"struct.std::_Vector_base<unsigned char, std::allocator<unsigned char> >::_Vector_impl" }
%"struct.std::_Vector_base<unsigned char, std::allocator<unsigned char> >::_Vector_impl" = type { %"struct.std::_Vector_base<unsigned char, std::allocator<unsigned char> >::_Vector_impl_data" }
%"struct.std::_Vector_base<unsigned char, std::allocator<unsigned char> >::_Vector_impl_data" = type { ptr, ptr, ptr }
%"class.std::vector.30" = type { %"struct.std::_Bvector_base" }
%"struct.std::_Bvector_base" = type { %"struct.std::_Bvector_base<std::allocator<bool> >::_Bvector_impl" }
%"struct.std::_Bvector_base<std::allocator<bool> >::_Bvector_impl" = type { %"struct.std::_Bvector_base<std::allocator<bool> >::_Bvector_impl_data" }
%"struct.std::_Bvector_base<std::allocator<bool> >::_Bvector_impl_data" = type { %"struct.std::_Bit_iterator", %"struct.std::_Bit_iterator", ptr }
%"struct.std::_Bit_iterator" = type { %"struct.std::_Bit_iterator_base.base", [4 x i8] }
%"struct.std::_Bit_iterator_base.base" = type <{ ptr, i32 }>
%"class.std::vector.62" = type { %"struct.std::_Vector_base.63" }
%"struct.std::_Vector_base.63" = type { %"struct.std::_Vector_base<std::pair<int, int>, std::allocator<std::pair<int, int> > >::_Vector_impl" }
%"struct.std::_Vector_base<std::pair<int, int>, std::allocator<std::pair<int, int> > >::_Vector_impl" = type { %"struct.std::_Vector_base<std::pair<int, int>, std::allocator<std::pair<int, int> > >::_Vector_impl_data" }
%"struct.std::_Vector_base<std::pair<int, int>, std::allocator<std::pair<int, int> > >::_Vector_impl_data" = type { ptr, ptr, ptr }
%"class.std::vector.37" = type { %"struct.std::_Vector_base.38" }
%"struct.std::_Vector_base.38" = type { %"struct.std::_Vector_base<unsigned int, std::allocator<unsigned int> >::_Vector_impl" }
%"struct.std::_Vector_base<unsigned int, std::allocator<unsigned int> >::_Vector_impl" = type { %"struct.std::_Vector_base<unsigned int, std::allocator<unsigned int> >::_Vector_impl_data" }
%"struct.std::_Vector_base<unsigned int, std::allocator<unsigned int> >::_Vector_impl_data" = type { ptr, ptr, ptr }
%"class.dealii::internal::Triangulation::TriaObjectsHex" = type { %"class.dealii::internal::Triangulation::TriaObjects.base", %"class.std::vector.30", %"class.std::vector.30", %"class.std::vector.30" }
%"class.dealii::internal::Triangulation::TriaObjects.base" = type <{ %"class.std::vector.67", %"class.std::vector.72", %"class.std::vector.77", %"class.std::vector.30", %"class.std::vector.30", %"class.std::vector.57", i32, i32, i8, [7 x i8], %"class.std::vector.82", i32 }>
%"class.std::vector.67" = type { %"struct.std::_Vector_base.68" }
%"struct.std::_Vector_base.68" = type { %"struct.std::_Vector_base<dealii::internal::Triangulation::TriaObject<3>, std::allocator<dealii::internal::Triangulation::TriaObject<3> > >::_Vector_impl" }
%"struct.std::_Vector_base<dealii::internal::Triangulation::TriaObject<3>, std::allocator<dealii::internal::Triangulation::TriaObject<3> > >::_Vector_impl" = type { %"struct.std::_Vector_base<dealii::internal::Triangulation::TriaObject<3>, std::allocator<dealii::internal::Triangulation::TriaObject<3> > >::_Vector_impl_data" }
%"struct.std::_Vector_base<dealii::internal::Triangulation::TriaObject<3>, std::allocator<dealii::internal::Triangulation::TriaObject<3> > >::_Vector_impl_data" = type { ptr, ptr, ptr }
%"class.std::vector.72" = type { %"struct.std::_Vector_base.73" }
%"struct.std::_Vector_base.73" = type { %"struct.std::_Vector_base<int, std::allocator<int> >::_Vector_impl" }
%"struct.std::_Vector_base<int, std::allocator<int> >::_Vector_impl" = type { %"struct.std::_Vector_base<int, std::allocator<int> >::_Vector_impl_data" }
%"struct.std::_Vector_base<int, std::allocator<int> >::_Vector_impl_data" = type { ptr, ptr, ptr }
%"class.std::vector.77" = type { %"struct.std::_Vector_base.78" }
%"struct.std::_Vector_base.78" = type { %"struct.std::_Vector_base<dealii::RefinementCase<3>, std::allocator<dealii::RefinementCase<3> > >::_Vector_impl" }
%"struct.std::_Vector_base<dealii::RefinementCase<3>, std::allocator<dealii::RefinementCase<3> > >::_Vector_impl" = type { %"struct.std::_Vector_base<dealii::RefinementCase<3>, std::allocator<dealii::RefinementCase<3> > >::_Vector_impl_data" }
%"struct.std::_Vector_base<dealii::RefinementCase<3>, std::allocator<dealii::RefinementCase<3> > >::_Vector_impl_data" = type { ptr, ptr, ptr }
%"class.std::vector.82" = type { %"struct.std::_Vector_base.83" }
%"struct.std::_Vector_base.83" = type { %"struct.std::_Vector_base<dealii::internal::Triangulation::TriaObjects<dealii::internal::Triangulation::TriaObject<3> >::UserData, std::allocator<dealii::internal::Triangulation::TriaObjects<dealii::internal::Triangulation::TriaObject<3> >::UserData> >::_Vector_impl" }
%"struct.std::_Vector_base<dealii::internal::Triangulation::TriaObjects<dealii::internal::Triangulation::TriaObject<3> >::UserData, std::allocator<dealii::internal::Triangulation::TriaObjects<dealii::internal::Triangulation::TriaObject<3> >::UserData> >::_Vector_impl" = type { %"struct.std::_Vector_base<dealii::internal::Triangulation::TriaObjects<dealii::internal::Triangulation::TriaObject<3> >::UserData, std::allocator<dealii::internal::Triangulation::TriaObjects<dealii::internal::Triangulation::TriaObject<3> >::UserData> >::_Vector_impl_data" }
%"struct.std::_Vector_base<dealii::internal::Triangulation::TriaObjects<dealii::internal::Triangulation::TriaObject<3> >::UserData, std::allocator<dealii::internal::Triangulation::TriaObjects<dealii::internal::Triangulation::TriaObject<3> >::UserData> >::_Vector_impl_data" = type { ptr, ptr, ptr }
%"class.dealii::Triangulation" = type { %"class.dealii::Subscriptor", %"class.std::vector.25", ptr, %"class.std::vector", %"class.std::vector.30", [255 x %"class.dealii::SmartPointer"], [255 x %"class.dealii::SmartPointer"], i8, i32, %"struct.dealii::internal::Triangulation::NumberCache", %"class.std::__cxx11::list" }
%"class.std::vector.25" = type { %"struct.std::_Vector_base.26" }
%"struct.std::_Vector_base.26" = type { %"struct.std::_Vector_base<dealii::internal::Triangulation::TriaLevel<3> *, std::allocator<dealii::internal::Triangulation::TriaLevel<3> *> >::_Vector_impl" }
%"struct.std::_Vector_base<dealii::internal::Triangulation::TriaLevel<3> *, std::allocator<dealii::internal::Triangulation::TriaLevel<3> *> >::_Vector_impl" = type { %"struct.std::_Vector_base<dealii::internal::Triangulation::TriaLevel<3> *, std::allocator<dealii::internal::Triangulation::TriaLevel<3> *> >::_Vector_impl_data" }
%"struct.std::_Vector_base<dealii::internal::Triangulation::TriaLevel<3> *, std::allocator<dealii::internal::Triangulation::TriaLevel<3> *> >::_Vector_impl_data" = type { ptr, ptr, ptr }
%"class.dealii::SmartPointer" = type { ptr, ptr }
%"struct.dealii::internal::Triangulation::NumberCache" = type { %"struct.dealii::internal::Triangulation::NumberCache.35", i32, %"class.std::vector.37", i32, %"class.std::vector.37" }
%"struct.dealii::internal::Triangulation::NumberCache.35" = type { %"struct.dealii::internal::Triangulation::NumberCache.36", i32, %"class.std::vector.37", i32, %"class.std::vector.37" }
%"struct.dealii::internal::Triangulation::NumberCache.36" = type { i32, %"class.std::vector.37", i32, %"class.std::vector.37" }
%"class.std::__cxx11::list" = type { %"class.std::__cxx11::_List_base" }
%"class.std::__cxx11::_List_base" = type { %"struct.std::__cxx11::_List_base<dealii::Triangulation<3, 3>::RefinementListener *, std::allocator<dealii::Triangulation<3, 3>::RefinementListener *> >::_List_impl" }
%"struct.std::__cxx11::_List_base<dealii::Triangulation<3, 3>::RefinementListener *, std::allocator<dealii::Triangulation<3, 3>::RefinementListener *> >::_List_impl" = type { %"struct.std::__detail::_List_node_header" }
%"struct.std::__detail::_List_node_header" = type { %"struct.std::__detail::_List_node_base", i64 }
%"struct.std::__detail::_List_node_base" = type { ptr, ptr }
%"class.dealii::internal::Triangulation::TriaObject" = type { [6 x i32] }
%"class.dealii::internal::Triangulation::TriaObjects.108" = type <{ %"class.std::vector.109", %"class.std::vector.72", %"class.std::vector.114", %"class.std::vector.30", %"class.std::vector.30", %"class.std::vector.57", i32, i32, i8, [7 x i8], %"class.std::vector.119", i32, [4 x i8] }>
%"class.std::vector.109" = type { %"struct.std::_Vector_base.110" }
%"struct.std::_Vector_base.110" = type { %"struct.std::_Vector_base<dealii::internal::Triangulation::TriaObject<2>, std::allocator<dealii::internal::Triangulation::TriaObject<2> > >::_Vector_impl" }
%"struct.std::_Vector_base<dealii::internal::Triangulation::TriaObject<2>, std::allocator<dealii::internal::Triangulation::TriaObject<2> > >::_Vector_impl" = type { %"struct.std::_Vector_base<dealii::internal::Triangulation::TriaObject<2>, std::allocator<dealii::internal::Triangulation::TriaObject<2> > >::_Vector_impl_data" }
%"struct.std::_Vector_base<dealii::internal::Triangulation::TriaObject<2>, std::allocator<dealii::internal::Triangulation::TriaObject<2> > >::_Vector_impl_data" = type { ptr, ptr, ptr }
%"class.std::vector.114" = type { %"struct.std::_Vector_base.115" }
%"struct.std::_Vector_base.115" = type { %"struct.std::_Vector_base<dealii::RefinementCase<2>, std::allocator<dealii::RefinementCase<2> > >::_Vector_impl" }
%"struct.std::_Vector_base<dealii::RefinementCase<2>, std::allocator<dealii::RefinementCase<2> > >::_Vector_impl" = type { %"struct.std::_Vector_base<dealii::RefinementCase<2>, std::allocator<dealii::RefinementCase<2> > >::_Vector_impl_data" }
%"struct.std::_Vector_base<dealii::RefinementCase<2>, std::allocator<dealii::RefinementCase<2> > >::_Vector_impl_data" = type { ptr, ptr, ptr }
%"class.std::vector.119" = type { %"struct.std::_Vector_base.120" }
%"struct.std::_Vector_base.120" = type { %"struct.std::_Vector_base<dealii::internal::Triangulation::TriaObjects<dealii::internal::Triangulation::TriaObject<2> >::UserData, std::allocator<dealii::internal::Triangulation::TriaObjects<dealii::internal::Triangulation::TriaObject<2> >::UserData> >::_Vector_impl" }
%"struct.std::_Vector_base<dealii::internal::Triangulation::TriaObjects<dealii::internal::Triangulation::TriaObject<2> >::UserData, std::allocator<dealii::internal::Triangulation::TriaObjects<dealii::internal::Triangulation::TriaObject<2> >::UserData> >::_Vector_impl" = type { %"struct.std::_Vector_base<dealii::internal::Triangulation::TriaObjects<dealii::internal::Triangulation::TriaObject<2> >::UserData, std::allocator<dealii::internal::Triangulation::TriaObjects<dealii::internal::Triangulation::TriaObject<2> >::UserData> >::_Vector_impl_data" }
%"struct.std::_Vector_base<dealii::internal::Triangulation::TriaObjects<dealii::internal::Triangulation::TriaObject<2> >::UserData, std::allocator<dealii::internal::Triangulation::TriaObjects<dealii::internal::Triangulation::TriaObject<2> >::UserData> >::_Vector_impl_data" = type { ptr, ptr, ptr }
%"class.dealii::internal::Triangulation::TriaObject.127" = type { [4 x i32] }
%"class.dealii::internal::Triangulation::TriaObjectsQuad3D" = type { %"class.dealii::internal::Triangulation::TriaObjects.base.124", %"class.std::vector.30" }
%"class.dealii::internal::Triangulation::TriaObjects.base.124" = type <{ %"class.std::vector.109", %"class.std::vector.72", %"class.std::vector.114", %"class.std::vector.30", %"class.std::vector.30", %"class.std::vector.57", i32, i32, i8, [7 x i8], %"class.std::vector.119", i32 }>
%"class.dealii::internal::Triangulation::TriaFaces" = type { %"class.dealii::internal::Triangulation::TriaObjectsQuad3D", %"class.dealii::internal::Triangulation::TriaObjects.90" }
%"class.dealii::internal::Triangulation::TriaObjects.90" = type <{ %"class.std::vector.91", %"class.std::vector.72", %"class.std::vector.96", %"class.std::vector.30", %"class.std::vector.30", %"class.std::vector.57", i32, i32, i8, [7 x i8], %"class.std::vector.101", i32, [4 x i8] }>
%"class.std::vector.91" = type { %"struct.std::_Vector_base.92" }
%"struct.std::_Vector_base.92" = type { %"struct.std::_Vector_base<dealii::internal::Triangulation::TriaObject<1>, std::allocator<dealii::internal::Triangulation::TriaObject<1> > >::_Vector_impl" }
%"struct.std::_Vector_base<dealii::internal::Triangulation::TriaObject<1>, std::allocator<dealii::internal::Triangulation::TriaObject<1> > >::_Vector_impl" = type { %"struct.std::_Vector_base<dealii::internal::Triangulation::TriaObject<1>, std::allocator<dealii::internal::Triangulation::TriaObject<1> > >::_Vector_impl_data" }
%"struct.std::_Vector_base<dealii::internal::Triangulation::TriaObject<1>, std::allocator<dealii::internal::Triangulation::TriaObject<1> > >::_Vector_impl_data" = type { ptr, ptr, ptr }
%"class.std::vector.96" = type { %"struct.std::_Vector_base.97" }
%"struct.std::_Vector_base.97" = type { %"struct.std::_Vector_base<dealii::RefinementCase<1>, std::allocator<dealii::RefinementCase<1> > >::_Vector_impl" }
%"struct.std::_Vector_base<dealii::RefinementCase<1>, std::allocator<dealii::RefinementCase<1> > >::_Vector_impl" = type { %"struct.std::_Vector_base<dealii::RefinementCase<1>, std::allocator<dealii::RefinementCase<1> > >::_Vector_impl_data" }
%"struct.std::_Vector_base<dealii::RefinementCase<1>, std::allocator<dealii::RefinementCase<1> > >::_Vector_impl_data" = type { ptr, ptr, ptr }
%"class.std::vector.101" = type { %"struct.std::_Vector_base.102" }
%"struct.std::_Vector_base.102" = type { %"struct.std::_Vector_base<dealii::internal::Triangulation::TriaObjects<dealii::internal::Triangulation::TriaObject<1> >::UserData, std::allocator<dealii::internal::Triangulation::TriaObjects<dealii::internal::Triangulation::TriaObject<1> >::UserData> >::_Vector_impl" }
%"struct.std::_Vector_base<dealii::internal::Triangulation::TriaObjects<dealii::internal::Triangulation::TriaObject<1> >::UserData, std::allocator<dealii::internal::Triangulation::TriaObjects<dealii::internal::Triangulation::TriaObject<1> >::UserData> >::_Vector_impl" = type { %"struct.std::_Vector_base<dealii::internal::Triangulation::TriaObjects<dealii::internal::Triangulation::TriaObject<1> >::UserData, std::allocator<dealii::internal::Triangulation::TriaObjects<dealii::internal::Triangulation::TriaObject<1> >::UserData> >::_Vector_impl_data" }
%"struct.std::_Vector_base<dealii::internal::Triangulation::TriaObjects<dealii::internal::Triangulation::TriaObject<1> >::UserData, std::allocator<dealii::internal::Triangulation::TriaObjects<dealii::internal::Triangulation::TriaObject<1> >::UserData> >::_Vector_impl_data" = type { ptr, ptr, ptr }
%"class.dealii::internal::Triangulation::TriaObject.107" = type { [2 x i32] }
%"class.std::basic_ifstream" = type { %"class.std::basic_istream.base", %"class.std::basic_filebuf", %"class.std::basic_ios" }
%"class.std::basic_istream.base" = type { ptr, i64 }
%"class.std::basic_filebuf" = type { %"class.std::basic_streambuf", %union.pthread_mutex_t, %"class.std::__basic_file", i32, %struct.__mbstate_t, %struct.__mbstate_t, %struct.__mbstate_t, ptr, i64, i8, i8, i8, i8, ptr, ptr, i8, ptr, ptr, i64, ptr, ptr }
%"class.std::basic_streambuf" = type { ptr, ptr, ptr, ptr, ptr, ptr, ptr, %"class.std::locale" }
%"class.std::locale" = type { ptr }
%union.pthread_mutex_t = type { %struct.__pthread_mutex_s }
%struct.__pthread_mutex_s = type { i32, i32, i32, i32, i32, i16, i16, %struct.__pthread_internal_list }
%struct.__pthread_internal_list = type { ptr, ptr }
%"class.std::__basic_file" = type <{ ptr, i8, [7 x i8] }>
%struct.__mbstate_t = type { i32, %union.anon }
%union.anon = type { i32 }
%"class.std::basic_ios" = type { %"class.std::ios_base", ptr, i8, i8, ptr, ptr, ptr, ptr }
%"class.std::ios_base" = type { ptr, i64, i64, i32, i32, i32, ptr, %"struct.std::ios_base::_Words", [8 x %"struct.std::ios_base::_Words"], i32, ptr, %"class.std::locale" }
%"struct.std::ios_base::_Words" = type { ptr, i64 }
%"class.std::allocator.50" = type { i8 }
%"class.dealii::StandardExceptions::ExcMessage" = type { %"class.dealii::ExceptionBase.base", ptr }
%"class.dealii::ExceptionBase.base" = type <{ %"class.std::exception", ptr, i32, [4 x i8], ptr, ptr, ptr, ptr, i32 }>
%"class.std::exception" = type { ptr }
%"class.dealii::StandardExceptions::ExcIO" = type { %"class.dealii::ExceptionBase.base", [4 x i8] }
%"class.std::basic_istream" = type { ptr, i64, %"class.std::basic_ios" }
%"class.std::allocator.39" = type { i8 }
%"class.METomography::GridTransfer::InitialMeshRefinement" = type { %"class.libparest::GridTransfer::Base", i32, %"class.std::__cxx11::basic_string" }
%"class.libparest::GridTransfer::Base" = type { ptr }
%"class.std::ctype" = type <{ %"class.std::locale::facet.base", [4 x i8], ptr, i8, [7 x i8], ptr, ptr, ptr, i8, [256 x i8], [256 x i8], i8, [6 x i8] }>
%"class.std::locale::facet.base" = type <{ ptr, i32 }>

$_ZN6dealii11SubCellDataD2Ev = comdat any

$__clang_call_terminate = comdat any

$_ZStplIcSt11char_traitsIcESaIcEENSt7__cxx1112basic_stringIT_T0_T1_EERKS8_PKS5_ = comdat any

$_ZStplIcSt11char_traitsIcESaIcEENSt7__cxx1112basic_stringIT_T0_T1_EERKS8_SA_ = comdat any

$_ZNSt6vectorIjSaIjEEC2IiEET_S3_RKS0_ = comdat any

$_ZN12METomography8Geometry17PointCloudSurface8BoundaryD2Ev = comdat any

$_ZN12METomography12GridTransfer21InitialMeshRefinementILi3EEC5EjRKNSt7__cxx1112basic_stringIcSt11char_traitsIcESaIcEEE = comdat any

$_ZNK12METomography12GridTransfer21InitialMeshRefinementILi3EE11refine_gridERN6dealii13TriangulationILi3ELi3EEE = comdat any

$_ZN12METomography8Geometry24refine_measurement_cellsILi3EEEvjRN6dealii13TriangulationIXT_EXT_EEE = comdat any

$_ZN12METomography8Geometry17PointCloudSurface8BoundaryD0Ev = comdat any

$_ZN12METomography12GridTransfer21InitialMeshRefinementILi3EED2Ev = comdat any

$_ZN12METomography12GridTransfer21InitialMeshRefinementILi3EED0Ev = comdat any

$_ZN6dealii18StandardExceptions10ExcMessageD0Ev = comdat any

$_ZNK6dealii18StandardExceptions10ExcMessage10print_infoERSo = comdat any

$_ZN6dealii18StandardExceptions5ExcIOD0Ev = comdat any

$_ZNSt6vectorIN6dealii5PointILi3EEESaIS2_EE17_M_realloc_insertEN9__gnu_cxx17__normal_iteratorIPS2_S4_EERKS2_ = comdat any

$_ZN12METomography8Geometry13BreastPhantom16CylinderBoundaryILi3EED0Ev = comdat any

$_ZNK12METomography8Geometry13BreastPhantom16CylinderBoundaryILi3EE31get_intermediate_points_on_lineERKN6dealii12TriaIteratorINS4_12TriaAccessorILi1ELi3ELi3EEEEERSt6vectorINS4_5PointILi3EEESaISD_EE = comdat any

$_ZNK12METomography8Geometry13BreastPhantom16CylinderBoundaryILi3EE23get_normals_at_verticesERKN6dealii12TriaIteratorINS4_12TriaAccessorILi2ELi3ELi3EEEEERA4_NS4_6TensorILi1ELi3EEE = comdat any

$_ZN12METomography8Geometry13BreastPhantom14SphereBoundaryILi3EED0Ev = comdat any

$_ZN12METomography8Geometry16CurvedHypercube88BoundaryILi3EED0Ev = comdat any

$_ZNK12METomography8Geometry16CurvedHypercube88BoundaryILi3EE31get_intermediate_points_on_lineERKN6dealii12TriaIteratorINS4_12TriaAccessorILi1ELi3ELi3EEEEERSt6vectorINS4_5PointILi3EEESaISD_EE = comdat any

$_ZNK12METomography8Geometry16CurvedHypercube88BoundaryILi3EE23get_normals_at_verticesERKN6dealii12TriaIteratorINS4_12TriaAccessorILi2ELi3ELi3EEEEERA4_NS4_6TensorILi1ELi3EEE = comdat any

$_ZTVN12METomography12GridTransfer21InitialMeshRefinementILi3EEE = comdat any

$_ZTSN6dealii16StraightBoundaryILi3ELi3EEE = comdat any

$_ZTSN6dealii8BoundaryILi3ELi3EEE = comdat any

$_ZTIN6dealii8BoundaryILi3ELi3EEE = comdat any

$_ZTIN6dealii16StraightBoundaryILi3ELi3EEE = comdat any

$_ZTSN12METomography12GridTransfer21InitialMeshRefinementILi3EEE = comdat any

$_ZTSN9libparest12GridTransfer4BaseILi3EEE = comdat any

$_ZTIN9libparest12GridTransfer4BaseILi3EEE = comdat any

$_ZTIN12METomography12GridTransfer21InitialMeshRefinementILi3EEE = comdat any

$_ZTVN6dealii18StandardExceptions10ExcMessageE = comdat any

$_ZTSN6dealii18StandardExceptions10ExcMessageE = comdat any

$_ZTIN6dealii18StandardExceptions10ExcMessageE = comdat any

$_ZTVN6dealii18StandardExceptions5ExcIOE = comdat any

$_ZTSN6dealii18StandardExceptions5ExcIOE = comdat any

$_ZTIN6dealii18StandardExceptions5ExcIOE = comdat any

$_ZTVN12METomography8Geometry13BreastPhantom16CylinderBoundaryILi3EEE = comdat any

$_ZTSN12METomography8Geometry13BreastPhantom16CylinderBoundaryILi3EEE = comdat any

$_ZTIN12METomography8Geometry13BreastPhantom16CylinderBoundaryILi3EEE = comdat any

$_ZTVN12METomography8Geometry13BreastPhantom14SphereBoundaryILi3EEE = comdat any

$_ZTSN12METomography8Geometry13BreastPhantom14SphereBoundaryILi3EEE = comdat any

$_ZTSN6dealii17HyperBallBoundaryILi3ELi3EEE = comdat any

$_ZTIN6dealii17HyperBallBoundaryILi3ELi3EEE = comdat any

$_ZTIN12METomography8Geometry13BreastPhantom14SphereBoundaryILi3EEE = comdat any

$_ZTVN12METomography8Geometry16CurvedHypercube88BoundaryILi3EEE = comdat any

$_ZTSN12METomography8Geometry16CurvedHypercube88BoundaryILi3EEE = comdat any

$_ZTIN12METomography8Geometry16CurvedHypercube88BoundaryILi3EEE = comdat any

$_ZZN6dealii8internal12TriaAccessor14Implementation12vertex_indexILi3ELi3EEEjRKNS_12TriaAccessorILi2EXT_EXT0_EEEjE12switch_table = comdat any

@_ZN12METomography8Geometry13BreastPhantom13source_pointsE = dso_local local_unnamed_addr constant [26 x %"class.dealii::Point"] [%"class.dealii::Point" { %"class.dealii::Tensor" { [3 x double] [double -4.914700e+00, double 4.841000e-01, double 7.822000e-01] } }, %"class.dealii::Point" { %"class.dealii::Tensor" { [3 x double] [double -3.132900e+00, double 3.817500e+00, double 7.822000e-01] } }, %"class.dealii::Point" { %"class.dealii::Tensor" { [3 x double] [double 4.841000e-01, double 4.914700e+00, double 7.822000e-01] } }, %"class.dealii::Point" { %"class.dealii::Tensor" { [3 x double] [double 3.817500e+00, double 3.132900e+00, double 7.822000e-01] } }, %"class.dealii::Point" { %"class.dealii::Tensor" { [3 x double] [double 4.914700e+00, double -4.841000e-01, double 7.822000e-01] } }, %"class.dealii::Point" { %"class.dealii::Tensor" { [3 x double] [double 3.132900e+00, double -3.817500e+00, double 7.822000e-01] } }, %"class.dealii::Point" { %"class.dealii::Tensor" { [3 x double] [double -4.841000e-01, double -4.914700e+00, double 7.822000e-01] } }, %"class.dealii::Point" { %"class.dealii::Tensor" { [3 x double] [double -3.817500e+00, double -3.132900e+00, double 7.822000e-01] } }, %"class.dealii::Point" { %"class.dealii::Tensor" { [3 x double] [double -3.443800e+00, double 2.826200e+00, double 2.270000e+00] } }, %"class.dealii::Point" { %"class.dealii::Tensor" { [3 x double] [double -4.367000e-01, double 4.433600e+00, double 2.270000e+00] } }, %"class.dealii::Point" { %"class.dealii::Tensor" { [3 x double] [double 2.826200e+00, double 3.443800e+00, double 2.270000e+00] } }, %"class.dealii::Point" { %"class.dealii::Tensor" { [3 x double] [double 4.433600e+00, double 4.367000e-01, double 2.270000e+00] } }, %"class.dealii::Point" { %"class.dealii::Tensor" { [3 x double] [double 3.443800e+00, double -2.826200e+00, double 2.270000e+00] } }, %"class.dealii::Point" { %"class.dealii::Tensor" { [3 x double] [double 4.367000e-01, double -4.433600e+00, double 2.270000e+00] } }, %"class.dealii::Point" { %"class.dealii::Tensor" { [3 x double] [double -2.826200e+00, double -3.443800e+00, double 2.270000e+00] } }, %"class.dealii::Point" { %"class.dealii::Tensor" { [3 x double] [double -4.433600e+00, double -4.367000e-01, double 2.270000e+00] } }, %"class.dealii::Point" { %"class.dealii::Tensor" { [3 x double] [double -3.518500e+00, double 3.465000e-01, double 3.535500e+00] } }, %"class.dealii::Point" { %"class.dealii::Tensor" { [3 x double] [double 3.465000e-01, double 3.518500e+00, double 3.535500e+00] } }, %"class.dealii::Point" { %"class.dealii::Tensor" { [3 x double] [double 3.518500e+00, double -3.465000e-01, double 3.535500e+00] } }, %"class.dealii::Point" { %"class.dealii::Tensor" { [3 x double] [double -3.465000e-01, double -3.518500e+00, double 3.535500e+00] } }, %"class.dealii::Point" { %"class.dealii::Tensor" { [3 x double] [double -1.440000e+00, double 1.754700e+00, double 4.455000e+00] } }, %"class.dealii::Point" { %"class.dealii::Tensor" { [3 x double] [double 1.754700e+00, double 1.440000e+00, double 4.455000e+00] } }, %"class.dealii::Point" { %"class.dealii::Tensor" { [3 x double] [double 1.440000e+00, double -1.754700e+00, double 4.455000e+00] } }, %"class.dealii::Point" { %"class.dealii::Tensor" { [3 x double] [double -1.754700e+00, double -1.440000e+00, double 4.455000e+00] } }, %"class.dealii::Point" { %"class.dealii::Tensor" { [3 x double] [double 0.000000e+00, double 0.000000e+00, double 5.000000e+00] } }, %"class.dealii::Point" { %"class.dealii::Tensor" { [3 x double] [double -7.800000e-01, double -8.000000e-02, double 4.940000e+00] } }], align 16
@_ZN12METomography8Geometry13BreastPhantom9n_sourcesE = dso_local local_unnamed_addr constant i32 26, align 4
@_ZN12METomography8Geometry13BreastPhantom15detector_pointsE = dso_local local_unnamed_addr constant [128 x %"class.dealii::Point"] [%"class.dealii::Point" { %"class.dealii::Tensor" { [3 x double] [double -5.000000e+00, double -0.000000e+00, double 0.000000e+00] } }, %"class.dealii::Point" { %"class.dealii::Tensor" { [3 x double] [double -4.903900e+00, double -9.755000e-01, double 0.000000e+00] } }, %"class.dealii::Point" { %"class.dealii::Tensor" { [3 x double] [double -4.619400e+00, double -1.913400e+00, double 0.000000e+00] } }, %"class.dealii::Point" { %"class.dealii::Tensor" { [3 x double] [double -4.157300e+00, double -2.777900e+00, double 0.000000e+00] } }, %"class.dealii::Point" { %"class.dealii::Tensor" { [3 x double] [double -3.535500e+00, double -3.535500e+00, double 0.000000e+00] } }, %"class.dealii::Point" { %"class.dealii::Tensor" { [3 x double] [double -2.777900e+00, double -4.157300e+00, double 0.000000e+00] } }, %"class.dealii::Point" { %"class.dealii::Tensor" { [3 x double] [double -1.913400e+00, double -4.619400e+00, double 0.000000e+00] } }, %"class.dealii::Point" { %"class.dealii::Tensor" { [3 x double] [double -9.755000e-01, double -4.903900e+00, double 0.000000e+00] } }, %"class.dealii::Point" { %"class.dealii::Tensor" { [3 x double] [double 0.000000e+00, double -5.000000e+00, double 0.000000e+00] } }, %"class.dealii::Point" { %"class.dealii::Tensor" { [3 x double] [double 9.755000e-01, double -4.903900e+00, double 0.000000e+00] } }, %"class.dealii::Point" { %"class.dealii::Tensor" { [3 x double] [double 1.913400e+00, double -4.619400e+00, double 0.000000e+00] } }, %"class.dealii::Point" { %"class.dealii::Tensor" { [3 x double] [double 2.777900e+00, double -4.157300e+00, double 0.000000e+00] } }, %"class.dealii::Point" { %"class.dealii::Tensor" { [3 x double] [double 3.535500e+00, double -3.535500e+00, double 0.000000e+00] } }, %"class.dealii::Point" { %"class.dealii::Tensor" { [3 x double] [double 4.157300e+00, double -2.777900e+00, double 0.000000e+00] } }, %"class.dealii::Point" { %"class.dealii::Tensor" { [3 x double] [double 4.619400e+00, double -1.913400e+00, double 0.000000e+00] } }, %"class.dealii::Point" { %"class.dealii::Tensor" { [3 x double] [double 4.903900e+00, double -9.755000e-01, double 0.000000e+00] } }, %"class.dealii::Point" { %"class.dealii::Tensor" { [3 x double] [double 5.000000e+00, double -0.000000e+00, double 0.000000e+00] } }, %"class.dealii::Point" { %"class.dealii::Tensor" { [3 x double] [double 4.903900e+00, double 9.755000e-01, double 0.000000e+00] } }, %"class.dealii::Point" { %"class.dealii::Tensor" { [3 x double] [double 4.619400e+00, double 1.913400e+00, double 0.000000e+00] } }, %"class.dealii::Point" { %"class.dealii::Tensor" { [3 x double] [double 4.157300e+00, double 2.777900e+00, double 0.000000e+00] } }, %"class.dealii::Point" { %"class.dealii::Tensor" { [3 x double] [double 3.535500e+00, double 3.535500e+00, double 0.000000e+00] } }, %"class.dealii::Point" { %"class.dealii::Tensor" { [3 x double] [double 2.777900e+00, double 4.157300e+00, double 0.000000e+00] } }, %"class.dealii::Point" { %"class.dealii::Tensor" { [3 x double] [double 1.913400e+00, double 4.619400e+00, double 0.000000e+00] } }, %"class.dealii::Point" { %"class.dealii::Tensor" { [3 x double] [double 9.755000e-01, double 4.903900e+00, double 0.000000e+00] } }, %"class.dealii::Point" { %"class.dealii::Tensor" { [3 x double] [double 0.000000e+00, double 5.000000e+00, double 0.000000e+00] } }, %"class.dealii::Point" { %"class.dealii::Tensor" { [3 x double] [double -9.755000e-01, double 4.903900e+00, double 0.000000e+00] } }, %"class.dealii::Point" { %"class.dealii::Tensor" { [3 x double] [double -1.913400e+00, double 4.619400e+00, double 0.000000e+00] } }, %"class.dealii::Point" { %"class.dealii::Tensor" { [3 x double] [double -2.777900e+00, double 4.157300e+00, double 0.000000e+00] } }, %"class.dealii::Point" { %"class.dealii::Tensor" { [3 x double] [double -3.535500e+00, double 3.535500e+00, double 0.000000e+00] } }, %"class.dealii::Point" { %"class.dealii::Tensor" { [3 x double] [double -4.157300e+00, double 2.777900e+00, double 0.000000e+00] } }, %"class.dealii::Point" { %"class.dealii::Tensor" { [3 x double] [double -4.619400e+00, double 1.913400e+00, double 0.000000e+00] } }, %"class.dealii::Point" { %"class.dealii::Tensor" { [3 x double] [double -4.903900e+00, double 9.755000e-01, double 0.000000e+00] } }, %"class.dealii::Point" { %"class.dealii::Tensor" { [3 x double] [double -4.755300e+00, double -0.000000e+00, double 1.545100e+00] } }, %"class.dealii::Point" { %"class.dealii::Tensor" { [3 x double] [double -4.663900e+00, double 0xBFEDAFB7E90FF972, double 1.545100e+00] } }, %"class.dealii::Point" { %"class.dealii::Tensor" { [3 x double] [double -4.393300e+00, double -1.819800e+00, double 1.545100e+00] } }, %"class.dealii::Point" { %"class.dealii::Tensor" { [3 x double] [double -3.953900e+00, double -2.641900e+00, double 1.545100e+00] } }, %"class.dealii::Point" { %"class.dealii::Tensor" { [3 x double] [double -3.362500e+00, double -3.362500e+00, double 1.545100e+00] } }, %"class.dealii::Point" { %"class.dealii::Tensor" { [3 x double] [double -2.641900e+00, double -3.953900e+00, double 1.545100e+00] } }, %"class.dealii::Point" { %"class.dealii::Tensor" { [3 x double] [double -1.819800e+00, double -4.393300e+00, double 1.545100e+00] } }, %"class.dealii::Point" { %"class.dealii::Tensor" { [3 x double] [double 0xBFEDAFB7E90FF972, double -4.663900e+00, double 1.545100e+00] } }, %"class.dealii::Point" { %"class.dealii::Tensor" { [3 x double] [double 0.000000e+00, double -4.755300e+00, double 1.545100e+00] } }, %"class.dealii::Point" { %"class.dealii::Tensor" { [3 x double] [double 0x3FEDAFB7E90FF972, double -4.663900e+00, double 1.545100e+00] } }, %"class.dealii::Point" { %"class.dealii::Tensor" { [3 x double] [double 1.819800e+00, double -4.393300e+00, double 1.545100e+00] } }, %"class.dealii::Point" { %"class.dealii::Tensor" { [3 x double] [double 2.641900e+00, double -3.953900e+00, double 1.545100e+00] } }, %"class.dealii::Point" { %"class.dealii::Tensor" { [3 x double] [double 3.362500e+00, double -3.362500e+00, double 1.545100e+00] } }, %"class.dealii::Point" { %"class.dealii::Tensor" { [3 x double] [double 3.953900e+00, double -2.641900e+00, double 1.545100e+00] } }, %"class.dealii::Point" { %"class.dealii::Tensor" { [3 x double] [double 4.393300e+00, double -1.819800e+00, double 1.545100e+00] } }, %"class.dealii::Point" { %"class.dealii::Tensor" { [3 x double] [double 4.663900e+00, double 0xBFEDAFB7E90FF972, double 1.545100e+00] } }, %"class.dealii::Point" { %"class.dealii::Tensor" { [3 x double] [double 4.755300e+00, double -0.000000e+00, double 1.545100e+00] } }, %"class.dealii::Point" { %"class.dealii::Tensor" { [3 x double] [double 4.663900e+00, double 0x3FEDAFB7E90FF972, double 1.545100e+00] } }, %"class.dealii::Point" { %"class.dealii::Tensor" { [3 x double] [double 4.393300e+00, double 1.819800e+00, double 1.545100e+00] } }, %"class.dealii::Point" { %"class.dealii::Tensor" { [3 x double] [double 3.953900e+00, double 2.641900e+00, double 1.545100e+00] } }, %"class.dealii::Point" { %"class.dealii::Tensor" { [3 x double] [double 3.362500e+00, double 3.362500e+00, double 1.545100e+00] } }, %"class.dealii::Point" { %"class.dealii::Tensor" { [3 x double] [double 2.641900e+00, double 3.953900e+00, double 1.545100e+00] } }, %"class.dealii::Point" { %"class.dealii::Tensor" { [3 x double] [double 1.819800e+00, double 4.393300e+00, double 1.545100e+00] } }, %"class.dealii::Point" { %"class.dealii::Tensor" { [3 x double] [double 0x3FEDAFB7E90FF972, double 4.663900e+00, double 1.545100e+00] } }, %"class.dealii::Point" { %"class.dealii::Tensor" { [3 x double] [double 0.000000e+00, double 4.755300e+00, double 1.545100e+00] } }, %"class.dealii::Point" { %"class.dealii::Tensor" { [3 x double] [double 0xBFEDAFB7E90FF972, double 4.663900e+00, double 1.545100e+00] } }, %"class.dealii::Point" { %"class.dealii::Tensor" { [3 x double] [double -1.819800e+00, double 4.393300e+00, double 1.545100e+00] } }, %"class.dealii::Point" { %"class.dealii::Tensor" { [3 x double] [double -2.641900e+00, double 3.953900e+00, double 1.545100e+00] } }, %"class.dealii::Point" { %"class.dealii::Tensor" { [3 x double] [double -3.362500e+00, double 3.362500e+00, double 1.545100e+00] } }, %"class.dealii::Point" { %"class.dealii::Tensor" { [3 x double] [double -3.953900e+00, double 2.641900e+00, double 1.545100e+00] } }, %"class.dealii::Point" { %"class.dealii::Tensor" { [3 x double] [double -4.393300e+00, double 1.819800e+00, double 1.545100e+00] } }, %"class.dealii::Point" { %"class.dealii::Tensor" { [3 x double] [double -4.663900e+00, double 0x3FEDAFB7E90FF972, double 1.545100e+00] } }, %"class.dealii::Point" { %"class.dealii::Tensor" { [3 x double] [double -4.045100e+00, double -0.000000e+00, double 2.938900e+00] } }, %"class.dealii::Point" { %"class.dealii::Tensor" { [3 x double] [double -3.967400e+00, double -7.892000e-01, double 2.938900e+00] } }, %"class.dealii::Point" { %"class.dealii::Tensor" { [3 x double] [double -3.737200e+00, double -1.548000e+00, double 2.938900e+00] } }, %"class.dealii::Point" { %"class.dealii::Tensor" { [3 x double] [double -3.363400e+00, double -2.247300e+00, double 2.938900e+00] } }, %"class.dealii::Point" { %"class.dealii::Tensor" { [3 x double] [double -2.860300e+00, double -2.860300e+00, double 2.938900e+00] } }, %"class.dealii::Point" { %"class.dealii::Tensor" { [3 x double] [double -2.247300e+00, double -3.363400e+00, double 2.938900e+00] } }, %"class.dealii::Point" { %"class.dealii::Tensor" { [3 x double] [double -1.548000e+00, double -3.737200e+00, double 2.938900e+00] } }, %"class.dealii::Point" { %"class.dealii::Tensor" { [3 x double] [double -7.892000e-01, double -3.967400e+00, double 2.938900e+00] } }, %"class.dealii::Point" { %"class.dealii::Tensor" { [3 x double] [double 0.000000e+00, double -4.045100e+00, double 2.938900e+00] } }, %"class.dealii::Point" { %"class.dealii::Tensor" { [3 x double] [double 7.892000e-01, double -3.967400e+00, double 2.938900e+00] } }, %"class.dealii::Point" { %"class.dealii::Tensor" { [3 x double] [double 1.548000e+00, double -3.737200e+00, double 2.938900e+00] } }, %"class.dealii::Point" { %"class.dealii::Tensor" { [3 x double] [double 2.247300e+00, double -3.363400e+00, double 2.938900e+00] } }, %"class.dealii::Point" { %"class.dealii::Tensor" { [3 x double] [double 2.860300e+00, double -2.860300e+00, double 2.938900e+00] } }, %"class.dealii::Point" { %"class.dealii::Tensor" { [3 x double] [double 3.363400e+00, double -2.247300e+00, double 2.938900e+00] } }, %"class.dealii::Point" { %"class.dealii::Tensor" { [3 x double] [double 3.737200e+00, double -1.548000e+00, double 2.938900e+00] } }, %"class.dealii::Point" { %"class.dealii::Tensor" { [3 x double] [double 3.967400e+00, double -7.892000e-01, double 2.938900e+00] } }, %"class.dealii::Point" { %"class.dealii::Tensor" { [3 x double] [double 4.045100e+00, double -0.000000e+00, double 2.938900e+00] } }, %"class.dealii::Point" { %"class.dealii::Tensor" { [3 x double] [double 3.967400e+00, double 7.892000e-01, double 2.938900e+00] } }, %"class.dealii::Point" { %"class.dealii::Tensor" { [3 x double] [double 3.737200e+00, double 1.548000e+00, double 2.938900e+00] } }, %"class.dealii::Point" { %"class.dealii::Tensor" { [3 x double] [double 3.363400e+00, double 2.247300e+00, double 2.938900e+00] } }, %"class.dealii::Point" { %"class.dealii::Tensor" { [3 x double] [double 2.860300e+00, double 2.860300e+00, double 2.938900e+00] } }, %"class.dealii::Point" { %"class.dealii::Tensor" { [3 x double] [double 2.247300e+00, double 3.363400e+00, double 2.938900e+00] } }, %"class.dealii::Point" { %"class.dealii::Tensor" { [3 x double] [double 1.548000e+00, double 3.737200e+00, double 2.938900e+00] } }, %"class.dealii::Point" { %"class.dealii::Tensor" { [3 x double] [double 7.892000e-01, double 3.967400e+00, double 2.938900e+00] } }, %"class.dealii::Point" { %"class.dealii::Tensor" { [3 x double] [double 0.000000e+00, double 4.045100e+00, double 2.938900e+00] } }, %"class.dealii::Point" { %"class.dealii::Tensor" { [3 x double] [double -7.892000e-01, double 3.967400e+00, double 2.938900e+00] } }, %"class.dealii::Point" { %"class.dealii::Tensor" { [3 x double] [double -1.548000e+00, double 3.737200e+00, double 2.938900e+00] } }, %"class.dealii::Point" { %"class.dealii::Tensor" { [3 x double] [double -2.247300e+00, double 3.363400e+00, double 2.938900e+00] } }, %"class.dealii::Point" { %"class.dealii::Tensor" { [3 x double] [double -2.860300e+00, double 2.860300e+00, double 2.938900e+00] } }, %"class.dealii::Point" { %"class.dealii::Tensor" { [3 x double] [double -3.363400e+00, double 2.247300e+00, double 2.938900e+00] } }, %"class.dealii::Point" { %"class.dealii::Tensor" { [3 x double] [double -3.737200e+00, double 1.548000e+00, double 2.938900e+00] } }, %"class.dealii::Point" { %"class.dealii::Tensor" { [3 x double] [double -3.967400e+00, double 7.892000e-01, double 2.938900e+00] } }, %"class.dealii::Point" { %"class.dealii::Tensor" { [3 x double] [double -2.938900e+00, double -0.000000e+00, double 4.045100e+00] } }, %"class.dealii::Point" { %"class.dealii::Tensor" { [3 x double] [double -2.715200e+00, double -1.124700e+00, double 4.045100e+00] } }, %"class.dealii::Point" { %"class.dealii::Tensor" { [3 x double] [double -2.078100e+00, double -2.078100e+00, double 4.045100e+00] } }, %"class.dealii::Point" { %"class.dealii::Tensor" { [3 x double] [double -1.124700e+00, double -2.715200e+00, double 4.045100e+00] } }, %"class.dealii::Point" { %"class.dealii::Tensor" { [3 x double] [double 0.000000e+00, double -2.938900e+00, double 4.045100e+00] } }, %"class.dealii::Point" { %"class.dealii::Tensor" { [3 x double] [double 1.124700e+00, double -2.715200e+00, double 4.045100e+00] } }, %"class.dealii::Point" { %"class.dealii::Tensor" { [3 x double] [double 2.078100e+00, double -2.078100e+00, double 4.045100e+00] } }, %"class.dealii::Point" { %"class.dealii::Tensor" { [3 x double] [double 2.715200e+00, double -1.124700e+00, double 4.045100e+00] } }, %"class.dealii::Point" { %"class.dealii::Tensor" { [3 x double] [double 2.938900e+00, double -0.000000e+00, double 4.045100e+00] } }, %"class.dealii::Point" { %"class.dealii::Tensor" { [3 x double] [double 2.715200e+00, double 1.124700e+00, double 4.045100e+00] } }, %"class.dealii::Point" { %"class.dealii::Tensor" { [3 x double] [double 2.078100e+00, double 2.078100e+00, double 4.045100e+00] } }, %"class.dealii::Point" { %"class.dealii::Tensor" { [3 x double] [double 1.124700e+00, double 2.715200e+00, double 4.045100e+00] } }, %"class.dealii::Point" { %"class.dealii::Tensor" { [3 x double] [double 0.000000e+00, double 2.938900e+00, double 4.045100e+00] } }, %"class.dealii::Point" { %"class.dealii::Tensor" { [3 x double] [double -1.124700e+00, double 2.715200e+00, double 4.045100e+00] } }, %"class.dealii::Point" { %"class.dealii::Tensor" { [3 x double] [double -2.078100e+00, double 2.078100e+00, double 4.045100e+00] } }, %"class.dealii::Point" { %"class.dealii::Tensor" { [3 x double] [double -2.715200e+00, double 1.124700e+00, double 4.045100e+00] } }, %"class.dealii::Point" { %"class.dealii::Tensor" { [3 x double] [double -1.545100e+00, double -0.000000e+00, double 4.755300e+00] } }, %"class.dealii::Point" { %"class.dealii::Tensor" { [3 x double] [double -1.427500e+00, double -5.913000e-01, double 4.755300e+00] } }, %"class.dealii::Point" { %"class.dealii::Tensor" { [3 x double] [double -1.092500e+00, double -1.092500e+00, double 4.755300e+00] } }, %"class.dealii::Point" { %"class.dealii::Tensor" { [3 x double] [double -5.913000e-01, double -1.427500e+00, double 4.755300e+00] } }, %"class.dealii::Point" { %"class.dealii::Tensor" { [3 x double] [double 0.000000e+00, double -1.545100e+00, double 4.755300e+00] } }, %"class.dealii::Point" { %"class.dealii::Tensor" { [3 x double] [double 5.913000e-01, double -1.427500e+00, double 4.755300e+00] } }, %"class.dealii::Point" { %"class.dealii::Tensor" { [3 x double] [double 1.092500e+00, double -1.092500e+00, double 4.755300e+00] } }, %"class.dealii::Point" { %"class.dealii::Tensor" { [3 x double] [double 1.427500e+00, double -5.913000e-01, double 4.755300e+00] } }, %"class.dealii::Point" { %"class.dealii::Tensor" { [3 x double] [double 1.545100e+00, double -0.000000e+00, double 4.755300e+00] } }, %"class.dealii::Point" { %"class.dealii::Tensor" { [3 x double] [double 1.427500e+00, double 5.913000e-01, double 4.755300e+00] } }, %"class.dealii::Point" { %"class.dealii::Tensor" { [3 x double] [double 1.092500e+00, double 1.092500e+00, double 4.755300e+00] } }, %"class.dealii::Point" { %"class.dealii::Tensor" { [3 x double] [double 5.913000e-01, double 1.427500e+00, double 4.755300e+00] } }, %"class.dealii::Point" { %"class.dealii::Tensor" { [3 x double] [double 0.000000e+00, double 1.545100e+00, double 4.755300e+00] } }, %"class.dealii::Point" { %"class.dealii::Tensor" { [3 x double] [double -5.913000e-01, double 1.427500e+00, double 4.755300e+00] } }, %"class.dealii::Point" { %"class.dealii::Tensor" { [3 x double] [double -1.092500e+00, double 1.092500e+00, double 4.755300e+00] } }, %"class.dealii::Point" { %"class.dealii::Tensor" { [3 x double] [double -1.427500e+00, double 5.913000e-01, double 4.755300e+00] } }], align 16
@_ZN12METomography8Geometry13BreastPhantom11n_detectorsE = dso_local local_unnamed_addr constant i32 128, align 4
@__const._ZN12METomography8Geometry13BreastPhantom18create_coarse_gridERN6dealii13TriangulationILi3ELi3EEE.connectivity = private unnamed_addr constant [20 x [4 x i32]] [[4 x i32] [i32 1, i32 2, i32 3, i32 0], [4 x i32] [i32 3, i32 4, i32 5, i32 0], [4 x i32] [i32 0, i32 5, i32 6, i32 7], [4 x i32] [i32 1, i32 0, i32 7, i32 8], [4 x i32] [i32 9, i32 10, i32 2, i32 1], [4 x i32] [i32 10, i32 11, i32 3, i32 2], [4 x i32] [i32 11, i32 12, i32 4, i32 3], [4 x i32] [i32 4, i32 12, i32 13, i32 5], [4 x i32] [i32 5, i32 13, i32 14, i32 6], [4 x i32] [i32 6, i32 14, i32 15, i32 7], [4 x i32] [i32 8, i32 7, i32 15, i32 16], [4 x i32] [i32 9, i32 1, i32 8, i32 16], [4 x i32] [i32 17, i32 18, i32 10, i32 9], [4 x i32] [i32 18, i32 19, i32 11, i32 10], [4 x i32] [i32 19, i32 20, i32 12, i32 11], [4 x i32] [i32 12, i32 20, i32 21, i32 13], [4 x i32] [i32 13, i32 21, i32 22, i32 14], [4 x i32] [i32 14, i32 22, i32 23, i32 15], [4 x i32] [i32 16, i32 15, i32 23, i32 24], [4 x i32] [i32 17, i32 9, i32 16, i32 24]], align 16
@__const._ZN12METomography8Geometry13BreastPhantom18create_coarse_gridERN6dealii13TriangulationILi3ELi3EEE.connectivity.3 = private unnamed_addr constant [8 x [2 x i32]] [[2 x i32] [i32 17, i32 18], [2 x i32] [i32 18, i32 19], [2 x i32] [i32 19, i32 20], [2 x i32] [i32 20, i32 21], [2 x i32] [i32 21, i32 22], [2 x i32] [i32 22, i32 23], [2 x i32] [i32 23, i32 24], [2 x i32] [i32 24, i32 17]], align 16
@__const._ZN12METomography8Geometry13BreastPhantom18create_coarse_gridERN6dealii13TriangulationILi3ELi3EEE.connectivity.5 = private unnamed_addr constant [12 x [4 x i32]] [[4 x i32] [i32 1, i32 2, i32 3, i32 0], [4 x i32] [i32 3, i32 4, i32 5, i32 0], [4 x i32] [i32 0, i32 5, i32 6, i32 7], [4 x i32] [i32 1, i32 0, i32 7, i32 8], [4 x i32] [i32 9, i32 10, i32 2, i32 1], [4 x i32] [i32 10, i32 11, i32 3, i32 2], [4 x i32] [i32 11, i32 12, i32 4, i32 3], [4 x i32] [i32 4, i32 12, i32 13, i32 5], [4 x i32] [i32 5, i32 13, i32 14, i32 6], [4 x i32] [i32 6, i32 14, i32 15, i32 7], [4 x i32] [i32 8, i32 7, i32 15, i32 16], [4 x i32] [i32 9, i32 1, i32 8, i32 16]], align 16
@__const._ZN12METomography8Geometry13BreastPhantom18create_coarse_gridERN6dealii13TriangulationILi3ELi3EEE.vertices = private unnamed_addr constant [9 x i32] [i32 9, i32 10, i32 11, i32 12, i32 13, i32 14, i32 15, i32 16, i32 9], align 16
@__const._ZN12METomography8Geometry13BreastPhantom18create_coarse_gridERN6dealii13TriangulationILi3ELi3EEE.connectivity.6 = private unnamed_addr constant [4 x [8 x i32]] [[8 x i32] [i32 59, i32 60, i32 61, i32 67, i32 51, i32 52, i32 53, i32 50], [8 x i32] [i32 61, i32 62, i32 63, i32 67, i32 53, i32 54, i32 55, i32 50], [8 x i32] [i32 67, i32 63, i32 64, i32 65, i32 50, i32 55, i32 56, i32 57], [8 x i32] [i32 59, i32 67, i32 65, i32 66, i32 51, i32 50, i32 57, i32 58]], align 16
@_ZZN12METomography8Geometry13BreastPhantom18create_coarse_gridERN6dealii13TriangulationILi3ELi3EEEE24bottom_cylinder_boundary = internal global %"class.METomography::Geometry::BreastPhantom::CylinderBoundary" zeroinitializer, align 8
@_ZGVZN12METomography8Geometry13BreastPhantom18create_coarse_gridERN6dealii13TriangulationILi3ELi3EEEE24bottom_cylinder_boundary = internal global i64 0, align 8
@__dso_handle = external hidden global i8
@_ZZN12METomography8Geometry13BreastPhantom18create_coarse_gridERN6dealii13TriangulationILi3ELi3EEEE24middle_cylinder_boundary = internal global %"class.METomography::Geometry::BreastPhantom::CylinderBoundary" zeroinitializer, align 8
@_ZGVZN12METomography8Geometry13BreastPhantom18create_coarse_gridERN6dealii13TriangulationILi3ELi3EEEE24middle_cylinder_boundary = internal global i64 0, align 8
@_ZZN12METomography8Geometry13BreastPhantom18create_coarse_gridERN6dealii13TriangulationILi3ELi3EEEE15sphere_boundary = internal global %"class.METomography::Geometry::BreastPhantom::SphereBoundary" zeroinitializer, align 8
@_ZGVZN12METomography8Geometry13BreastPhantom18create_coarse_gridERN6dealii13TriangulationILi3ELi3EEEE15sphere_boundary = internal global i64 0, align 8
@_ZZN12METomography8Geometry16CurvedHypercube818create_coarse_gridERN6dealii13TriangulationILi3ELi3EEEE8boundary = internal global %"class.METomography::Geometry::CurvedHypercube8::Boundary" zeroinitializer, align 8
@_ZGVZN12METomography8Geometry16CurvedHypercube818create_coarse_gridERN6dealii13TriangulationILi3ELi3EEEE8boundary = internal global i64 0, align 8
@_ZTVN12METomography8Geometry17PointCloudSurface8BoundaryE = dso_local unnamed_addr constant { [9 x ptr] } { [9 x ptr] [ptr null, ptr @_ZTIN12METomography8Geometry17PointCloudSurface8BoundaryE, ptr @_ZN12METomography8Geometry17PointCloudSurface8BoundaryD2Ev, ptr @_ZN12METomography8Geometry17PointCloudSurface8BoundaryD0Ev, ptr @_ZNK12METomography8Geometry17PointCloudSurface8Boundary21get_new_point_on_lineERKN6dealii12TriaIteratorINS3_12TriaAccessorILi1ELi3ELi3EEEEE, ptr @_ZNK12METomography8Geometry17PointCloudSurface8Boundary21get_new_point_on_quadERKN6dealii12TriaIteratorINS3_12TriaAccessorILi2ELi3ELi3EEEEE, ptr @_ZNK12METomography8Geometry17PointCloudSurface8Boundary31get_intermediate_points_on_lineERKN6dealii12TriaIteratorINS3_12TriaAccessorILi1ELi3ELi3EEEEERSt6vectorINS3_5PointILi3EEESaISC_EE, ptr @_ZNK12METomography8Geometry17PointCloudSurface8Boundary31get_intermediate_points_on_quadERKN6dealii12TriaIteratorINS3_12TriaAccessorILi2ELi3ELi3EEEEERSt6vectorINS3_5PointILi3EEESaISC_EE, ptr @_ZNK6dealii16StraightBoundaryILi3ELi3EE23get_normals_at_verticesERKNS_12TriaIteratorINS_12TriaAccessorILi2ELi3ELi3EEEEERA4_NS_6TensorILi1ELi3EEE] }, align 8
@_ZZN12METomography8Geometry17PointCloudSurface8BoundaryC1ERKNSt7__cxx1112basic_stringIcSt11char_traitsIcESaIcEEEE7messageB5cxx11 = internal global %"class.std::__cxx11::basic_string" zeroinitializer, align 8
@_ZGVZN12METomography8Geometry17PointCloudSurface8BoundaryC1ERKNSt7__cxx1112basic_stringIcSt11char_traitsIcESaIcEEEE7messageB5cxx11 = internal global i64 0, align 8
@.str = private unnamed_addr constant [23 x i8] c"Can't read from file <\00", align 1
@.str.7 = private unnamed_addr constant [2 x i8] c">\00", align 1
@.str.8 = private unnamed_addr constant [33 x i8] c"source/me-tomography/geometry.cc\00", align 1
@.str.9 = private unnamed_addr constant [1 x i8] zeroinitializer, align 1
@.str.10 = private unnamed_addr constant [3 x i8] c"in\00", align 1
@.str.11 = private unnamed_addr constant [28 x i8] c"ExcMessage(message.c_str())\00", align 1
@.str.12 = private unnamed_addr constant [22 x i8] c"point_list.size() > 1\00", align 1
@.str.13 = private unnamed_addr constant [8 x i8] c"ExcIO()\00", align 1
@.str.14 = private unnamed_addr constant [7 x i8] c"square\00", align 1
@.str.15 = private unnamed_addr constant [12 x i8] c"hypercube_8\00", align 1
@.str.16 = private unnamed_addr constant [6 x i8] c"8x8x4\00", align 1
@.str.17 = private unnamed_addr constant [19 x i8] c"curved hypercube_8\00", align 1
@.str.18 = private unnamed_addr constant [15 x i8] c"breast phantom\00", align 1
@.str.19 = private unnamed_addr constant [25 x i8] c"experimental point cloud\00", align 1
@.str.20 = private unnamed_addr constant [26 x i8] c"experimental point cloud \00", align 1
@_ZZN12METomography8Geometry16make_coarse_gridILi3EEEvRKNSt7__cxx1112basic_stringIcSt11char_traitsIcESaIcEEERN6dealii13TriangulationIXT_EXT_EEEE8boundary = internal global %"class.METomography::Geometry::PointCloudSurface::Boundary" zeroinitializer, align 8
@_ZGVZN12METomography8Geometry16make_coarse_gridILi3EEEvRKNSt7__cxx1112basic_stringIcSt11char_traitsIcESaIcEEERN6dealii13TriangulationIXT_EXT_EEEE8boundary = internal global i64 0, align 8
@_ZTVN12METomography12GridTransfer21InitialMeshRefinementILi3EEE = weak_odr dso_local unnamed_addr constant { [5 x ptr] } { [5 x ptr] [ptr null, ptr @_ZTIN12METomography12GridTransfer21InitialMeshRefinementILi3EEE, ptr @_ZN12METomography12GridTransfer21InitialMeshRefinementILi3EED2Ev, ptr @_ZN12METomography12GridTransfer21InitialMeshRefinementILi3EED0Ev, ptr @_ZNK12METomography12GridTransfer21InitialMeshRefinementILi3EE11refine_gridERN6dealii13TriangulationILi3ELi3EEE] }, comdat, align 8
@.str.21 = private unnamed_addr constant [6 x i8] c"false\00", align 1
@.str.22 = private unnamed_addr constant [103 x i8] c"ExcMessage ((std::string(\22Character <\22) + measurement_refinements[i] + \22> is not recognized\22).c_str())\00", align 1
@.str.23 = private unnamed_addr constant [12 x i8] c"Character <\00", align 1
@.str.24 = private unnamed_addr constant [20 x i8] c"> is not recognized\00", align 1
@_ZTVN10__cxxabiv120__si_class_type_infoE = external global ptr
@_ZTSN12METomography8Geometry17PointCloudSurface8BoundaryE = dso_local constant [54 x i8] c"N12METomography8Geometry17PointCloudSurface8BoundaryE\00", align 1
@_ZTSN6dealii16StraightBoundaryILi3ELi3EEE = linkonce_odr dso_local constant [38 x i8] c"N6dealii16StraightBoundaryILi3ELi3EEE\00", comdat, align 1
@_ZTSN6dealii8BoundaryILi3ELi3EEE = linkonce_odr dso_local constant [29 x i8] c"N6dealii8BoundaryILi3ELi3EEE\00", comdat, align 1
@_ZTIN6dealii11SubscriptorE = external constant ptr
@_ZTIN6dealii8BoundaryILi3ELi3EEE = linkonce_odr dso_local constant { ptr, ptr, ptr } { ptr getelementptr inbounds (ptr, ptr @_ZTVN10__cxxabiv120__si_class_type_infoE, i64 2), ptr @_ZTSN6dealii8BoundaryILi3ELi3EEE, ptr @_ZTIN6dealii11SubscriptorE }, comdat, align 8
@_ZTIN6dealii16StraightBoundaryILi3ELi3EEE = linkonce_odr dso_local constant { ptr, ptr, ptr } { ptr getelementptr inbounds (ptr, ptr @_ZTVN10__cxxabiv120__si_class_type_infoE, i64 2), ptr @_ZTSN6dealii16StraightBoundaryILi3ELi3EEE, ptr @_ZTIN6dealii8BoundaryILi3ELi3EEE }, comdat, align 8
@_ZTIN12METomography8Geometry17PointCloudSurface8BoundaryE = dso_local constant { ptr, ptr, ptr } { ptr getelementptr inbounds (ptr, ptr @_ZTVN10__cxxabiv120__si_class_type_infoE, i64 2), ptr @_ZTSN12METomography8Geometry17PointCloudSurface8BoundaryE, ptr @_ZTIN6dealii16StraightBoundaryILi3ELi3EEE }, align 8
@_ZTSN12METomography12GridTransfer21InitialMeshRefinementILi3EEE = weak_odr dso_local constant [60 x i8] c"N12METomography12GridTransfer21InitialMeshRefinementILi3EEE\00", comdat, align 1
@_ZTVN10__cxxabiv117__class_type_infoE = external global ptr
@_ZTSN9libparest12GridTransfer4BaseILi3EEE = linkonce_odr dso_local constant [38 x i8] c"N9libparest12GridTransfer4BaseILi3EEE\00", comdat, align 1
@_ZTIN9libparest12GridTransfer4BaseILi3EEE = linkonce_odr dso_local constant { ptr, ptr } { ptr getelementptr inbounds (ptr, ptr @_ZTVN10__cxxabiv117__class_type_infoE, i64 2), ptr @_ZTSN9libparest12GridTransfer4BaseILi3EEE }, comdat, align 8
@_ZTIN12METomography12GridTransfer21InitialMeshRefinementILi3EEE = weak_odr dso_local constant { ptr, ptr, ptr } { ptr getelementptr inbounds (ptr, ptr @_ZTVN10__cxxabiv120__si_class_type_infoE, i64 2), ptr @_ZTSN12METomography12GridTransfer21InitialMeshRefinementILi3EEE, ptr @_ZTIN9libparest12GridTransfer4BaseILi3EEE }, comdat, align 8
@_ZTVN6dealii18StandardExceptions10ExcMessageE = linkonce_odr dso_local unnamed_addr constant { [6 x ptr] } { [6 x ptr] [ptr null, ptr @_ZTIN6dealii18StandardExceptions10ExcMessageE, ptr @_ZN6dealii13ExceptionBaseD2Ev, ptr @_ZN6dealii18StandardExceptions10ExcMessageD0Ev, ptr @_ZNK6dealii13ExceptionBase4whatEv, ptr @_ZNK6dealii18StandardExceptions10ExcMessage10print_infoERSo] }, comdat, align 8
@_ZTSN6dealii18StandardExceptions10ExcMessageE = linkonce_odr dso_local constant [42 x i8] c"N6dealii18StandardExceptions10ExcMessageE\00", comdat, align 1
@_ZTIN6dealii13ExceptionBaseE = external constant ptr
@_ZTIN6dealii18StandardExceptions10ExcMessageE = linkonce_odr dso_local constant { ptr, ptr, ptr } { ptr getelementptr inbounds (ptr, ptr @_ZTVN10__cxxabiv120__si_class_type_infoE, i64 2), ptr @_ZTSN6dealii18StandardExceptions10ExcMessageE, ptr @_ZTIN6dealii13ExceptionBaseE }, comdat, align 8
@_ZTVN6dealii18StandardExceptions5ExcIOE = linkonce_odr dso_local unnamed_addr constant { [6 x ptr] } { [6 x ptr] [ptr null, ptr @_ZTIN6dealii18StandardExceptions5ExcIOE, ptr @_ZN6dealii13ExceptionBaseD2Ev, ptr @_ZN6dealii18StandardExceptions5ExcIOD0Ev, ptr @_ZNK6dealii13ExceptionBase4whatEv, ptr @_ZNK6dealii13ExceptionBase10print_infoERSo] }, comdat, align 8
@_ZTSN6dealii18StandardExceptions5ExcIOE = linkonce_odr dso_local constant [36 x i8] c"N6dealii18StandardExceptions5ExcIOE\00", comdat, align 1
@_ZTIN6dealii18StandardExceptions5ExcIOE = linkonce_odr dso_local constant { ptr, ptr, ptr } { ptr getelementptr inbounds (ptr, ptr @_ZTVN10__cxxabiv120__si_class_type_infoE, i64 2), ptr @_ZTSN6dealii18StandardExceptions5ExcIOE, ptr @_ZTIN6dealii13ExceptionBaseE }, comdat, align 8
@.str.25 = private unnamed_addr constant [26 x i8] c"vector::_M_realloc_insert\00", align 1
@_ZTVN12METomography8Geometry13BreastPhantom16CylinderBoundaryILi3EEE = linkonce_odr dso_local unnamed_addr constant { [9 x ptr] } { [9 x ptr] [ptr null, ptr @_ZTIN12METomography8Geometry13BreastPhantom16CylinderBoundaryILi3EEE, ptr @_ZN6dealii8BoundaryILi3ELi3EED2Ev, ptr @_ZN12METomography8Geometry13BreastPhantom16CylinderBoundaryILi3EED0Ev, ptr @_ZNK12METomography8Geometry13BreastPhantom16CylinderBoundaryILi3EE21get_new_point_on_lineERKN6dealii12TriaIteratorINS4_12TriaAccessorILi1ELi3ELi3EEEEE, ptr @_ZNK12METomography8Geometry13BreastPhantom16CylinderBoundaryILi3EE21get_new_point_on_quadERKN6dealii12TriaIteratorINS4_12TriaAccessorILi2ELi3ELi3EEEEE, ptr @_ZNK12METomography8Geometry13BreastPhantom16CylinderBoundaryILi3EE31get_intermediate_points_on_lineERKN6dealii12TriaIteratorINS4_12TriaAccessorILi1ELi3ELi3EEEEERSt6vectorINS4_5PointILi3EEESaISD_EE, ptr @_ZNK12METomography8Geometry13BreastPhantom16CylinderBoundaryILi3EE31get_intermediate_points_on_quadERKN6dealii12TriaIteratorINS4_12TriaAccessorILi2ELi3ELi3EEEEERSt6vectorINS4_5PointILi3EEESaISD_EE, ptr @_ZNK12METomography8Geometry13BreastPhantom16CylinderBoundaryILi3EE23get_normals_at_verticesERKN6dealii12TriaIteratorINS4_12TriaAccessorILi2ELi3ELi3EEEEERA4_NS4_6TensorILi1ELi3EEE] }, comdat, align 8
@_ZTSN12METomography8Geometry13BreastPhantom16CylinderBoundaryILi3EEE = linkonce_odr dso_local constant [65 x i8] c"N12METomography8Geometry13BreastPhantom16CylinderBoundaryILi3EEE\00", comdat, align 1
@_ZTIN12METomography8Geometry13BreastPhantom16CylinderBoundaryILi3EEE = linkonce_odr dso_local constant { ptr, ptr, ptr } { ptr getelementptr inbounds (ptr, ptr @_ZTVN10__cxxabiv120__si_class_type_infoE, i64 2), ptr @_ZTSN12METomography8Geometry13BreastPhantom16CylinderBoundaryILi3EEE, ptr @_ZTIN6dealii16StraightBoundaryILi3ELi3EEE }, comdat, align 8
@_ZTVN12METomography8Geometry13BreastPhantom14SphereBoundaryILi3EEE = linkonce_odr dso_local unnamed_addr constant { [9 x ptr] } { [9 x ptr] [ptr null, ptr @_ZTIN12METomography8Geometry13BreastPhantom14SphereBoundaryILi3EEE, ptr @_ZN6dealii8BoundaryILi3ELi3EED2Ev, ptr @_ZN12METomography8Geometry13BreastPhantom14SphereBoundaryILi3EED0Ev, ptr @_ZNK6dealii17HyperBallBoundaryILi3ELi3EE21get_new_point_on_lineERKNS_12TriaIteratorINS_12TriaAccessorILi1ELi3ELi3EEEEE, ptr @_ZNK6dealii17HyperBallBoundaryILi3ELi3EE21get_new_point_on_quadERKNS_12TriaIteratorINS_12TriaAccessorILi2ELi3ELi3EEEEE, ptr @_ZNK6dealii17HyperBallBoundaryILi3ELi3EE31get_intermediate_points_on_lineERKNS_12TriaIteratorINS_12TriaAccessorILi1ELi3ELi3EEEEERSt6vectorINS_5PointILi3EEESaISA_EE, ptr @_ZNK6dealii17HyperBallBoundaryILi3ELi3EE31get_intermediate_points_on_quadERKNS_12TriaIteratorINS_12TriaAccessorILi2ELi3ELi3EEEEERSt6vectorINS_5PointILi3EEESaISA_EE, ptr @_ZNK6dealii17HyperBallBoundaryILi3ELi3EE23get_normals_at_verticesERKNS_12TriaIteratorINS_12TriaAccessorILi2ELi3ELi3EEEEERA4_NS_6TensorILi1ELi3EEE] }, comdat, align 8
@_ZTSN12METomography8Geometry13BreastPhantom14SphereBoundaryILi3EEE = linkonce_odr dso_local constant [63 x i8] c"N12METomography8Geometry13BreastPhantom14SphereBoundaryILi3EEE\00", comdat, align 1
@_ZTSN6dealii17HyperBallBoundaryILi3ELi3EEE = linkonce_odr dso_local constant [39 x i8] c"N6dealii17HyperBallBoundaryILi3ELi3EEE\00", comdat, align 1
@_ZTIN6dealii17HyperBallBoundaryILi3ELi3EEE = linkonce_odr dso_local constant { ptr, ptr, ptr } { ptr getelementptr inbounds (ptr, ptr @_ZTVN10__cxxabiv120__si_class_type_infoE, i64 2), ptr @_ZTSN6dealii17HyperBallBoundaryILi3ELi3EEE, ptr @_ZTIN6dealii16StraightBoundaryILi3ELi3EEE }, comdat, align 8
@_ZTIN12METomography8Geometry13BreastPhantom14SphereBoundaryILi3EEE = linkonce_odr dso_local constant { ptr, ptr, ptr } { ptr getelementptr inbounds (ptr, ptr @_ZTVN10__cxxabiv120__si_class_type_infoE, i64 2), ptr @_ZTSN12METomography8Geometry13BreastPhantom14SphereBoundaryILi3EEE, ptr @_ZTIN6dealii17HyperBallBoundaryILi3ELi3EEE }, comdat, align 8
@_ZTVN12METomography8Geometry16CurvedHypercube88BoundaryILi3EEE = linkonce_odr dso_local unnamed_addr constant { [9 x ptr] } { [9 x ptr] [ptr null, ptr @_ZTIN12METomography8Geometry16CurvedHypercube88BoundaryILi3EEE, ptr @_ZN6dealii8BoundaryILi3ELi3EED2Ev, ptr @_ZN12METomography8Geometry16CurvedHypercube88BoundaryILi3EED0Ev, ptr @_ZNK12METomography8Geometry16CurvedHypercube88BoundaryILi3EE21get_new_point_on_lineERKN6dealii12TriaIteratorINS4_12TriaAccessorILi1ELi3ELi3EEEEE, ptr @_ZNK12METomography8Geometry16CurvedHypercube88BoundaryILi3EE21get_new_point_on_quadERKN6dealii12TriaIteratorINS4_12TriaAccessorILi2ELi3ELi3EEEEE, ptr @_ZNK12METomography8Geometry16CurvedHypercube88BoundaryILi3EE31get_intermediate_points_on_lineERKN6dealii12TriaIteratorINS4_12TriaAccessorILi1ELi3ELi3EEEEERSt6vectorINS4_5PointILi3EEESaISD_EE, ptr @_ZNK12METomography8Geometry16CurvedHypercube88BoundaryILi3EE31get_intermediate_points_on_quadERKN6dealii12TriaIteratorINS4_12TriaAccessorILi2ELi3ELi3EEEEERSt6vectorINS4_5PointILi3EEESaISD_EE, ptr @_ZNK12METomography8Geometry16CurvedHypercube88BoundaryILi3EE23get_normals_at_verticesERKN6dealii12TriaIteratorINS4_12TriaAccessorILi2ELi3ELi3EEEEERA4_NS4_6TensorILi1ELi3EEE] }, comdat, align 8
@_ZTSN12METomography8Geometry16CurvedHypercube88BoundaryILi3EEE = linkonce_odr dso_local constant [59 x i8] c"N12METomography8Geometry16CurvedHypercube88BoundaryILi3EEE\00", comdat, align 1
@_ZTIN12METomography8Geometry16CurvedHypercube88BoundaryILi3EEE = linkonce_odr dso_local constant { ptr, ptr, ptr } { ptr getelementptr inbounds (ptr, ptr @_ZTVN10__cxxabiv120__si_class_type_infoE, i64 2), ptr @_ZTSN12METomography8Geometry16CurvedHypercube88BoundaryILi3EEE, ptr @_ZTIN6dealii16StraightBoundaryILi3ELi3EEE }, comdat, align 8
@_ZZN6dealii8internal12TriaAccessor14Implementation12vertex_indexILi3ELi3EEEjRKNS_12TriaAccessorILi2EXT_EXT0_EEEjE12switch_table = linkonce_odr dso_local local_unnamed_addr constant [2 x [2 x i32]] [[2 x i32] [i32 1, i32 0], [2 x i32] [i32 0, i32 1]], comdat, align 16
@_ZTTSt14basic_ifstreamIcSt11char_traitsIcEE = external unnamed_addr constant [4 x ptr], align 8
@.str.27 = private unnamed_addr constant [21 x i8] c"basic_string::append\00", align 1
@.str.28 = private unnamed_addr constant [49 x i8] c"cannot create std::vector larger than max_size()\00", align 1
@llvm.global_ctors = appending global [0 x { i32, ptr, ptr }] zeroinitializer

@_ZN12METomography8Geometry17PointCloudSurface8BoundaryC1ERKNSt7__cxx1112basic_stringIcSt11char_traitsIcESaIcEEE = dso_local unnamed_addr alias void (ptr, ptr), ptr @_ZN12METomography8Geometry17PointCloudSurface8BoundaryC2ERKNSt7__cxx1112basic_stringIcSt11char_traitsIcESaIcEEE
@_ZN12METomography12GridTransfer21InitialMeshRefinementILi3EEC1EjRKNSt7__cxx1112basic_stringIcSt11char_traitsIcESaIcEEE = weak_odr dso_local unnamed_addr alias void (ptr, i32, ptr), ptr @_ZN12METomography12GridTransfer21InitialMeshRefinementILi3EEC2EjRKNSt7__cxx1112basic_stringIcSt11char_traitsIcESaIcEEE

; Function Attrs: mustprogress nofree nosync nounwind sspstrong willreturn memory(read, inaccessiblemem: none) uwtable
define dso_local noundef double @_ZN12METomography8Geometry13BreastPhantom6Fibers16source_intensityERKN6dealii5PointILi3EEEj(ptr nocapture noundef nonnull readonly align 8 dereferenceable(24) %0, i32 noundef %1) local_unnamed_addr #0 {
  %3 = zext i32 %1 to i64
  %4 = getelementptr inbounds [26 x %"class.dealii::Point"], ptr @_ZN12METomography8Geometry13BreastPhantom13source_pointsE, i64 0, i64 %3
  %5 = load double, ptr %0, align 8, !tbaa !5
  %6 = load double, ptr %4, align 8, !tbaa !5
  %7 = fsub double %5, %6
  %8 = tail call double @llvm.fmuladd.f64(double %7, double %7, double 0.000000e+00)
  %9 = getelementptr inbounds [3 x double], ptr %0, i64 0, i64 1
  %10 = load double, ptr %9, align 8, !tbaa !5
  %11 = getelementptr inbounds [3 x double], ptr %4, i64 0, i64 1
  %12 = load double, ptr %11, align 8, !tbaa !5
  %13 = fsub double %10, %12
  %14 = tail call double @llvm.fmuladd.f64(double %13, double %13, double %8)
  %15 = getelementptr inbounds [3 x double], ptr %0, i64 0, i64 2
  %16 = load double, ptr %15, align 8, !tbaa !5
  %17 = getelementptr inbounds [3 x double], ptr %4, i64 0, i64 2
  %18 = load double, ptr %17, align 8, !tbaa !5
  %19 = fsub double %16, %18
  %20 = tail call double @llvm.fmuladd.f64(double %19, double %19, double %14)
  %21 = tail call double @llvm.sqrt.f64(double %20)
  %22 = fcmp ugt double %21, 5.000000e-01
  %23 = select i1 %22, double 0.000000e+00, double 0x3FF45F306DC9C883
  ret double %23
}

; Function Attrs: mustprogress nofree nosync nounwind sspstrong willreturn memory(read, inaccessiblemem: none) uwtable
define dso_local noundef double @_ZN12METomography8Geometry13BreastPhantom6Fibers17measurement_valueERKN6dealii5PointILi3EEEjd(ptr nocapture noundef nonnull readonly align 8 dereferenceable(24) %0, i32 noundef %1, double noundef %2) local_unnamed_addr #0 {
  %4 = zext i32 %1 to i64
  %5 = getelementptr inbounds [128 x %"class.dealii::Point"], ptr @_ZN12METomography8Geometry13BreastPhantom15detector_pointsE, i64 0, i64 %4
  %6 = load double, ptr %0, align 8, !tbaa !5
  %7 = load double, ptr %5, align 8, !tbaa !5
  %8 = fsub double %6, %7
  %9 = tail call double @llvm.fmuladd.f64(double %8, double %8, double 0.000000e+00)
  %10 = getelementptr inbounds [3 x double], ptr %0, i64 0, i64 1
  %11 = load double, ptr %10, align 8, !tbaa !5
  %12 = getelementptr inbounds [3 x double], ptr %5, i64 0, i64 1
  %13 = load double, ptr %12, align 8, !tbaa !5
  %14 = fsub double %11, %13
  %15 = tail call double @llvm.fmuladd.f64(double %14, double %14, double %9)
  %16 = getelementptr inbounds [3 x double], ptr %0, i64 0, i64 2
  %17 = load double, ptr %16, align 8, !tbaa !5
  %18 = getelementptr inbounds [3 x double], ptr %5, i64 0, i64 2
  %19 = load double, ptr %18, align 8, !tbaa !5
  %20 = fsub double %17, %19
  %21 = tail call double @llvm.fmuladd.f64(double %20, double %20, double %15)
  %22 = tail call double @llvm.sqrt.f64(double %21)
  %23 = fcmp ugt double %22, 5.000000e-01
  %24 = select i1 %23, double 0.000000e+00, double %2
  ret double %24
}

; Function Attrs: mustprogress nofree nosync nounwind sspstrong willreturn memory(read, inaccessiblemem: none) uwtable
define dso_local noundef double @_ZN12METomography8Geometry13BreastPhantom6Fibers28measurement_modulation_depthERKN6dealii5PointILi3EEEjd(ptr nocapture noundef nonnull readonly align 8 dereferenceable(24) %0, i32 noundef %1, double noundef %2) local_unnamed_addr #0 {
  %4 = zext i32 %1 to i64
  %5 = getelementptr inbounds [128 x %"class.dealii::Point"], ptr @_ZN12METomography8Geometry13BreastPhantom15detector_pointsE, i64 0, i64 %4
  %6 = load double, ptr %0, align 8, !tbaa !5
  %7 = load double, ptr %5, align 8, !tbaa !5
  %8 = fsub double %6, %7
  %9 = tail call double @llvm.fmuladd.f64(double %8, double %8, double 0.000000e+00)
  %10 = getelementptr inbounds [3 x double], ptr %0, i64 0, i64 1
  %11 = load double, ptr %10, align 8, !tbaa !5
  %12 = getelementptr inbounds [3 x double], ptr %5, i64 0, i64 1
  %13 = load double, ptr %12, align 8, !tbaa !5
  %14 = fsub double %11, %13
  %15 = tail call double @llvm.fmuladd.f64(double %14, double %14, double %9)
  %16 = getelementptr inbounds [3 x double], ptr %0, i64 0, i64 2
  %17 = load double, ptr %16, align 8, !tbaa !5
  %18 = getelementptr inbounds [3 x double], ptr %5, i64 0, i64 2
  %19 = load double, ptr %18, align 8, !tbaa !5
  %20 = fsub double %17, %19
  %21 = tail call double @llvm.fmuladd.f64(double %20, double %20, double %15)
  %22 = tail call double @llvm.sqrt.f64(double %21)
  %23 = fcmp ugt double %22, 5.000000e-01
  %24 = select i1 %23, double 0.000000e+00, double %2
  ret double %24
}

; Function Attrs: sspstrong uwtable
define dso_local void @_ZNK12METomography8Geometry13BreastPhantom16CylinderBoundaryILi3EE21get_new_point_on_lineERKN6dealii12TriaIteratorINS4_12TriaAccessorILi1ELi3ELi3EEEEE(ptr noalias nocapture writeonly sret(%"class.dealii::Point") align 8 %0, ptr noundef nonnull align 8 dereferenceable(80) %1, ptr noundef nonnull align 8 dereferenceable(16) %2) unnamed_addr #1 align 2 {
  %4 = alloca %"class.dealii::Point", align 16
  call void @llvm.lifetime.start.p0(i64 24, ptr nonnull %4) #23
  call void @_ZNK6dealii16StraightBoundaryILi3ELi3EE21get_new_point_on_lineERKNS_12TriaIteratorINS_12TriaAccessorILi1ELi3ELi3EEEEE(ptr nonnull sret(%"class.dealii::Point") align 8 %4, ptr noundef nonnull align 8 dereferenceable(72) %1, ptr noundef nonnull align 8 dereferenceable(16) %2)
  %5 = getelementptr inbounds %"class.METomography::Geometry::BreastPhantom::CylinderBoundary", ptr %1, i64 0, i32 1
  %6 = load double, ptr %5, align 8, !tbaa !9
  %7 = getelementptr inbounds [3 x double], ptr %4, i64 0, i64 2
  %8 = load double, ptr %7, align 16, !tbaa !5
  %9 = load <2 x double>, ptr %4, align 16, !tbaa !5
  %10 = extractelement <2 x double> %9, i64 0
  %11 = call double @llvm.fmuladd.f64(double %10, double %10, double 0.000000e+00)
  %12 = extractelement <2 x double> %9, i64 1
  %13 = call double @llvm.fmuladd.f64(double %12, double %12, double %11)
  %14 = call double @llvm.sqrt.f64(double %13)
  %15 = fdiv double %6, %14
  %16 = insertelement <2 x double> poison, double %15, i64 0
  %17 = shufflevector <2 x double> %16, <2 x double> poison, <2 x i32> zeroinitializer
  %18 = fmul <2 x double> %9, %17
  store <2 x double> %18, ptr %0, align 8, !tbaa !5
  %19 = getelementptr inbounds [3 x double], ptr %0, i64 0, i64 2
  store double %8, ptr %19, align 8, !tbaa !5
  call void @llvm.lifetime.end.p0(i64 24, ptr nonnull %4) #23
  ret void
}

; Function Attrs: mustprogress nocallback nofree nosync nounwind willreturn memory(argmem: readwrite)
declare void @llvm.lifetime.start.p0(i64 immarg, ptr nocapture) #2

declare void @_ZNK6dealii16StraightBoundaryILi3ELi3EE21get_new_point_on_lineERKNS_12TriaIteratorINS_12TriaAccessorILi1ELi3ELi3EEEEE(ptr sret(%"class.dealii::Point") align 8, ptr noundef nonnull align 8 dereferenceable(72), ptr noundef nonnull align 8 dereferenceable(16)) unnamed_addr #3

; Function Attrs: mustprogress nocallback nofree nosync nounwind willreturn memory(argmem: readwrite)
declare void @llvm.lifetime.end.p0(i64 immarg, ptr nocapture) #2

; Function Attrs: sspstrong uwtable
define dso_local void @_ZNK12METomography8Geometry13BreastPhantom16CylinderBoundaryILi3EE21get_new_point_on_quadERKN6dealii12TriaIteratorINS4_12TriaAccessorILi2ELi3ELi3EEEEE(ptr noalias nocapture writeonly sret(%"class.dealii::Point") align 8 %0, ptr noundef nonnull align 8 dereferenceable(80) %1, ptr noundef nonnull align 8 dereferenceable(16) %2) unnamed_addr #1 align 2 {
  %4 = alloca %"class.dealii::Point", align 16
  call void @llvm.lifetime.start.p0(i64 24, ptr nonnull %4) #23
  call void @_ZNK6dealii16StraightBoundaryILi3ELi3EE21get_new_point_on_quadERKNS_12TriaIteratorINS_12TriaAccessorILi2ELi3ELi3EEEEE(ptr nonnull sret(%"class.dealii::Point") align 8 %4, ptr noundef nonnull align 8 dereferenceable(72) %1, ptr noundef nonnull align 8 dereferenceable(16) %2)
  %5 = getelementptr inbounds %"class.METomography::Geometry::BreastPhantom::CylinderBoundary", ptr %1, i64 0, i32 1
  %6 = load double, ptr %5, align 8, !tbaa !9
  %7 = getelementptr inbounds [3 x double], ptr %4, i64 0, i64 2
  %8 = load double, ptr %7, align 16, !tbaa !5
  %9 = load <2 x double>, ptr %4, align 16, !tbaa !5
  %10 = extractelement <2 x double> %9, i64 0
  %11 = call double @llvm.fmuladd.f64(double %10, double %10, double 0.000000e+00)
  %12 = extractelement <2 x double> %9, i64 1
  %13 = call double @llvm.fmuladd.f64(double %12, double %12, double %11)
  %14 = call double @llvm.sqrt.f64(double %13)
  %15 = fdiv double %6, %14
  %16 = insertelement <2 x double> poison, double %15, i64 0
  %17 = shufflevector <2 x double> %16, <2 x double> poison, <2 x i32> zeroinitializer
  %18 = fmul <2 x double> %9, %17
  store <2 x double> %18, ptr %0, align 8, !tbaa !5
  %19 = getelementptr inbounds [3 x double], ptr %0, i64 0, i64 2
  store double %8, ptr %19, align 8, !tbaa !5
  call void @llvm.lifetime.end.p0(i64 24, ptr nonnull %4) #23
  ret void
}

declare void @_ZNK6dealii16StraightBoundaryILi3ELi3EE21get_new_point_on_quadERKNS_12TriaIteratorINS_12TriaAccessorILi2ELi3ELi3EEEEE(ptr sret(%"class.dealii::Point") align 8, ptr noundef nonnull align 8 dereferenceable(72), ptr noundef nonnull align 8 dereferenceable(16)) unnamed_addr #3

; Function Attrs: mustprogress nofree norecurse nosync nounwind sspstrong willreturn memory(none) uwtable
define dso_local void @_ZNK12METomography8Geometry13BreastPhantom16CylinderBoundaryILi3EE31get_intermediate_points_on_quadERKN6dealii12TriaIteratorINS4_12TriaAccessorILi2ELi3ELi3EEEEERSt6vectorINS4_5PointILi3EEESaISD_EE(ptr nocapture nonnull align 8 %0, ptr nocapture nonnull align 8 %1, ptr nocapture nonnull align 8 %2) unnamed_addr #4 align 2 {
  ret void
}

; Function Attrs: sspstrong uwtable
define dso_local void @_ZN12METomography8Geometry13BreastPhantom18create_coarse_gridERN6dealii13TriangulationILi3ELi3EEE(ptr noundef nonnull align 8 dereferenceable(8552) %0) local_unnamed_addr #1 personality ptr @__gxx_personality_v0 {
  %2 = alloca %"class.dealii::Point", align 8
  %3 = alloca %"class.std::vector", align 8
  %4 = alloca %"class.std::vector.8", align 8
  %5 = alloca %"struct.dealii::SubCellData", align 8
  %6 = alloca [8 x %"class.dealii::Point"], align 16
  %7 = alloca %"class.dealii::Point", align 8
  %8 = alloca %"class.dealii::Point", align 8
  %9 = alloca %"class.dealii::Point", align 16
  %10 = alloca %"class.dealii::Point", align 16
  %11 = alloca %"class.dealii::Point", align 16
  %12 = alloca %"class.dealii::Point", align 8
  %13 = alloca %"class.dealii::TriaActiveIterator", align 8
  %14 = alloca %"class.dealii::TriaRawIterator.46", align 8
  call void @llvm.lifetime.start.p0(i64 24, ptr nonnull %3) #23
  call void @llvm.memset.p0.i64(ptr noundef nonnull align 8 dereferenceable(24) %3, i8 0, i64 24, i1 false)
  call void @llvm.lifetime.start.p0(i64 24, ptr nonnull %4) #23
  call void @llvm.memset.p0.i64(ptr noundef nonnull align 8 dereferenceable(24) %4, i8 0, i64 24, i1 false)
  call void @llvm.lifetime.start.p0(i64 48, ptr nonnull %5) #23
  call void @llvm.memset.p0.i64(ptr noundef nonnull align 8 dereferenceable(48) %5, i8 0, i64 48, i1 false)
  call void @llvm.lifetime.start.p0(i64 192, ptr nonnull %6) #23
  store double -1.000000e+00, ptr %6, align 16, !tbaa !5
  %15 = getelementptr inbounds [3 x double], ptr %6, i64 0, i64 1
  %16 = getelementptr inbounds %"class.dealii::Point", ptr %6, i64 1
  call void @llvm.memset.p0.i64(ptr noundef nonnull align 8 dereferenceable(16) %15, i8 0, i64 16, i1 false)
  store <2 x double> <double 0xBFE6A09E667F3BCC, double 0xBFE6A09E667F3BCC>, ptr %16, align 8, !tbaa !5, !alias.scope !25
  %17 = getelementptr inbounds %"class.dealii::Point", ptr %6, i64 1, i32 0, i32 0, i64 2
  %18 = getelementptr inbounds %"class.dealii::Point", ptr %6, i64 2, i32 0, i32 0, i64 1
  call void @llvm.memset.p0.i64(ptr noundef nonnull align 8 dereferenceable(16) %17, i8 0, i64 16, i1 false)
  store <4 x double> <double -1.000000e+00, double 0.000000e+00, double 0x3FE6A09E667F3BCC, double 0xBFE6A09E667F3BCC>, ptr %18, align 8, !tbaa !5
  %19 = getelementptr inbounds %"class.dealii::Point", ptr %6, i64 3, i32 0, i32 0, i64 2
  store <2 x double> <double 0.000000e+00, double 1.000000e+00>, ptr %19, align 8, !tbaa !5
  %20 = getelementptr inbounds %"class.dealii::Point", ptr %6, i64 4, i32 0, i32 0, i64 1
  %21 = getelementptr inbounds %"class.dealii::Point", ptr %6, i64 5
  call void @llvm.memset.p0.i64(ptr noundef nonnull align 8 dereferenceable(16) %20, i8 0, i64 16, i1 false)
  store <2 x double> <double 0x3FE6A09E667F3BCC, double 0x3FE6A09E667F3BCC>, ptr %21, align 8, !tbaa !5, !alias.scope !28
  %22 = getelementptr inbounds %"class.dealii::Point", ptr %6, i64 5, i32 0, i32 0, i64 2
  %23 = getelementptr inbounds %"class.dealii::Point", ptr %6, i64 6, i32 0, i32 0, i64 1
  call void @llvm.memset.p0.i64(ptr noundef nonnull align 8 dereferenceable(16) %22, i8 0, i64 16, i1 false)
  store <4 x double> <double 1.000000e+00, double 0.000000e+00, double 0xBFE6A09E667F3BCC, double 0x3FE6A09E667F3BCC>, ptr %23, align 8, !tbaa !5
  %24 = getelementptr inbounds %"class.dealii::Point", ptr %6, i64 7, i32 0, i32 0, i64 2
  store double 0.000000e+00, ptr %24, align 8, !tbaa !5, !alias.scope !31
  call void @llvm.lifetime.start.p0(i64 24, ptr nonnull %7) #23
  %25 = getelementptr inbounds [3 x double], ptr %7, i64 0, i64 2
  call void @llvm.memset.p0.i64(ptr noundef nonnull align 8 dereferenceable(16) %7, i8 0, i64 16, i1 false)
  store double -5.000000e-01, ptr %25, align 8, !tbaa !5
  %26 = getelementptr inbounds %"struct.std::_Vector_base<dealii::Point<3>, std::allocator<dealii::Point<3> > >::_Vector_impl_data", ptr %3, i64 0, i32 1
  %27 = getelementptr inbounds %"struct.std::_Vector_base<dealii::Point<3>, std::allocator<dealii::Point<3> > >::_Vector_impl_data", ptr %3, i64 0, i32 2
  invoke void @_ZNSt6vectorIN6dealii5PointILi3EEESaIS2_EE17_M_realloc_insertEN9__gnu_cxx17__normal_iteratorIPS2_S4_EERKS2_(ptr noundef nonnull align 8 dereferenceable(24) %3, ptr null, ptr noundef nonnull align 8 dereferenceable(24) %7)
          to label %28 unwind label %31

28:                                               ; preds = %1
  %29 = load ptr, ptr %27, align 8, !tbaa !34
  %30 = load ptr, ptr %26, align 8, !tbaa !36
  call void @llvm.lifetime.end.p0(i64 24, ptr nonnull %7) #23
  br label %164

31:                                               ; preds = %1
  %32 = landingpad { ptr, i32 }
          cleanup
  call void @llvm.lifetime.end.p0(i64 24, ptr nonnull %7) #23
  br label %797

33:                                               ; preds = %225, %92
  %34 = phi ptr [ %93, %92 ], [ %226, %225 ]
  %35 = phi ptr [ %94, %92 ], [ %227, %225 ]
  %36 = phi i64 [ %95, %92 ], [ 0, %225 ]
  %37 = getelementptr inbounds [8 x %"class.dealii::Point"], ptr %6, i64 0, i64 %36
  %38 = getelementptr inbounds [3 x double], ptr %37, i64 0, i64 2
  %39 = load double, ptr %38, align 8, !tbaa !5, !noalias !37
  %40 = load <2 x double>, ptr %37, align 8, !tbaa !5, !noalias !37
  %41 = fmul <2 x double> %40, <double 5.000000e+00, double 5.000000e+00>
  %42 = fmul double %39, 5.000000e+00
  %43 = fadd <2 x double> %41, zeroinitializer
  %44 = fadd double %42, -5.000000e-01
  %45 = icmp eq ptr %35, %34
  br i1 %45, label %49, label %46

46:                                               ; preds = %33
  store <2 x double> %43, ptr %35, align 8, !tbaa !5
  %47 = getelementptr inbounds [3 x double], ptr %35, i64 0, i64 2
  store double %44, ptr %47, align 8, !tbaa !5
  %48 = getelementptr inbounds %"class.dealii::Point", ptr %35, i64 1
  store ptr %48, ptr %26, align 8, !tbaa !40
  br label %92

49:                                               ; preds = %33
  %50 = load ptr, ptr %3, align 8, !tbaa !36
  %51 = ptrtoint ptr %34 to i64
  %52 = ptrtoint ptr %50 to i64
  %53 = sub i64 %51, %52
  %54 = icmp eq i64 %53, 9223372036854775800
  br i1 %54, label %186, label %55

55:                                               ; preds = %49
  %56 = sdiv exact i64 %53, 24
  %57 = call i64 @llvm.umax.i64(i64 %56, i64 1)
  %58 = add i64 %57, %56
  %59 = icmp ult i64 %58, %56
  %60 = icmp ugt i64 %58, 384307168202282325
  %61 = or i1 %59, %60
  %62 = select i1 %61, i64 384307168202282325, i64 %58
  %63 = icmp eq i64 %62, 0
  br i1 %63, label %67, label %64

64:                                               ; preds = %55
  %65 = mul nuw nsw i64 %62, 24
  %66 = invoke noalias noundef nonnull ptr @_Znwm(i64 noundef %65) #24
          to label %67 unwind label %232

67:                                               ; preds = %64, %55
  %68 = phi ptr [ null, %55 ], [ %66, %64 ]
  %69 = getelementptr inbounds %"class.dealii::Point", ptr %68, i64 %56
  store <2 x double> %43, ptr %69, align 8, !tbaa !5
  %70 = getelementptr inbounds [3 x double], ptr %69, i64 0, i64 2
  store double %44, ptr %70, align 8, !tbaa !5
  %71 = icmp eq ptr %50, %34
  br i1 %71, label %85, label %72

72:                                               ; preds = %67, %72
  %73 = phi ptr [ %83, %72 ], [ %68, %67 ]
  %74 = phi ptr [ %82, %72 ], [ %50, %67 ]
  %75 = load double, ptr %74, align 8, !tbaa !5
  store double %75, ptr %73, align 8, !tbaa !5
  %76 = getelementptr inbounds [3 x double], ptr %74, i64 0, i64 1
  %77 = load double, ptr %76, align 8, !tbaa !5
  %78 = getelementptr inbounds [3 x double], ptr %73, i64 0, i64 1
  store double %77, ptr %78, align 8, !tbaa !5
  %79 = getelementptr inbounds [3 x double], ptr %74, i64 0, i64 2
  %80 = load double, ptr %79, align 8, !tbaa !5
  %81 = getelementptr inbounds [3 x double], ptr %73, i64 0, i64 2
  store double %80, ptr %81, align 8, !tbaa !5
  %82 = getelementptr inbounds %"class.dealii::Point", ptr %74, i64 1
  %83 = getelementptr inbounds %"class.dealii::Point", ptr %73, i64 1
  %84 = icmp eq ptr %82, %34
  br i1 %84, label %85, label %72

85:                                               ; preds = %72, %67
  %86 = phi ptr [ %68, %67 ], [ %83, %72 ]
  %87 = getelementptr inbounds %"class.dealii::Point", ptr %86, i64 1
  %88 = icmp eq ptr %50, null
  br i1 %88, label %90, label %89

89:                                               ; preds = %85
  call void @_ZdlPv(ptr noundef nonnull %50) #25
  br label %90

90:                                               ; preds = %89, %85
  store ptr %68, ptr %3, align 8, !tbaa !41
  store ptr %87, ptr %26, align 8, !tbaa !40
  %91 = getelementptr inbounds %"class.dealii::Point", ptr %68, i64 %62
  store ptr %91, ptr %27, align 8, !tbaa !34
  br label %92

92:                                               ; preds = %90, %46
  %93 = phi ptr [ %91, %90 ], [ %34, %46 ]
  %94 = phi ptr [ %87, %90 ], [ %48, %46 ]
  %95 = add nuw nsw i64 %36, 1
  %96 = icmp eq i64 %95, 8
  br i1 %96, label %97, label %33

97:                                               ; preds = %92, %156
  %98 = phi ptr [ %157, %156 ], [ %93, %92 ]
  %99 = phi ptr [ %158, %156 ], [ %94, %92 ]
  %100 = phi i64 [ %159, %156 ], [ 0, %92 ]
  %101 = getelementptr inbounds [8 x %"class.dealii::Point"], ptr %6, i64 0, i64 %100
  %102 = getelementptr inbounds [3 x double], ptr %101, i64 0, i64 2
  %103 = load double, ptr %102, align 8, !tbaa !5, !noalias !37
  %104 = load <2 x double>, ptr %101, align 8, !tbaa !5, !noalias !37
  %105 = fmul <2 x double> %104, <double 1.000000e+01, double 1.000000e+01>
  %106 = fmul double %103, 1.000000e+01
  %107 = fadd <2 x double> %105, zeroinitializer
  %108 = fadd double %106, -5.000000e-01
  %109 = icmp eq ptr %99, %98
  br i1 %109, label %113, label %110

110:                                              ; preds = %97
  store <2 x double> %107, ptr %99, align 8, !tbaa !5
  %111 = getelementptr inbounds [3 x double], ptr %99, i64 0, i64 2
  store double %108, ptr %111, align 8, !tbaa !5
  %112 = getelementptr inbounds %"class.dealii::Point", ptr %99, i64 1
  store ptr %112, ptr %26, align 8, !tbaa !40
  br label %156

113:                                              ; preds = %97
  %114 = load ptr, ptr %3, align 8, !tbaa !36
  %115 = ptrtoint ptr %98 to i64
  %116 = ptrtoint ptr %114 to i64
  %117 = sub i64 %115, %116
  %118 = icmp eq i64 %117, 9223372036854775800
  br i1 %118, label %186, label %119

119:                                              ; preds = %113
  %120 = sdiv exact i64 %117, 24
  %121 = call i64 @llvm.umax.i64(i64 %120, i64 1)
  %122 = add i64 %121, %120
  %123 = icmp ult i64 %122, %120
  %124 = icmp ugt i64 %122, 384307168202282325
  %125 = or i1 %123, %124
  %126 = select i1 %125, i64 384307168202282325, i64 %122
  %127 = icmp eq i64 %126, 0
  br i1 %127, label %131, label %128

128:                                              ; preds = %119
  %129 = mul nuw nsw i64 %126, 24
  %130 = invoke noalias noundef nonnull ptr @_Znwm(i64 noundef %129) #24
          to label %131 unwind label %234

131:                                              ; preds = %128, %119
  %132 = phi ptr [ null, %119 ], [ %130, %128 ]
  %133 = getelementptr inbounds %"class.dealii::Point", ptr %132, i64 %120
  store <2 x double> %107, ptr %133, align 8, !tbaa !5
  %134 = getelementptr inbounds [3 x double], ptr %133, i64 0, i64 2
  store double %108, ptr %134, align 8, !tbaa !5
  %135 = icmp eq ptr %114, %98
  br i1 %135, label %149, label %136

136:                                              ; preds = %131, %136
  %137 = phi ptr [ %147, %136 ], [ %132, %131 ]
  %138 = phi ptr [ %146, %136 ], [ %114, %131 ]
  %139 = load double, ptr %138, align 8, !tbaa !5
  store double %139, ptr %137, align 8, !tbaa !5
  %140 = getelementptr inbounds [3 x double], ptr %138, i64 0, i64 1
  %141 = load double, ptr %140, align 8, !tbaa !5
  %142 = getelementptr inbounds [3 x double], ptr %137, i64 0, i64 1
  store double %141, ptr %142, align 8, !tbaa !5
  %143 = getelementptr inbounds [3 x double], ptr %138, i64 0, i64 2
  %144 = load double, ptr %143, align 8, !tbaa !5
  %145 = getelementptr inbounds [3 x double], ptr %137, i64 0, i64 2
  store double %144, ptr %145, align 8, !tbaa !5
  %146 = getelementptr inbounds %"class.dealii::Point", ptr %138, i64 1
  %147 = getelementptr inbounds %"class.dealii::Point", ptr %137, i64 1
  %148 = icmp eq ptr %146, %98
  br i1 %148, label %149, label %136

149:                                              ; preds = %136, %131
  %150 = phi ptr [ %132, %131 ], [ %147, %136 ]
  %151 = getelementptr inbounds %"class.dealii::Point", ptr %150, i64 1
  %152 = icmp eq ptr %114, null
  br i1 %152, label %154, label %153

153:                                              ; preds = %149
  call void @_ZdlPv(ptr noundef nonnull %114) #25
  br label %154

154:                                              ; preds = %153, %149
  store ptr %132, ptr %3, align 8, !tbaa !41
  store ptr %151, ptr %26, align 8, !tbaa !40
  %155 = getelementptr inbounds %"class.dealii::Point", ptr %132, i64 %126
  store ptr %155, ptr %27, align 8, !tbaa !34
  br label %156

156:                                              ; preds = %154, %110
  %157 = phi ptr [ %155, %154 ], [ %98, %110 ]
  %158 = phi ptr [ %151, %154 ], [ %112, %110 ]
  %159 = add nuw nsw i64 %100, 1
  %160 = icmp eq i64 %159, 8
  br i1 %160, label %161, label %97

161:                                              ; preds = %156
  call void @llvm.lifetime.start.p0(i64 24, ptr nonnull %8) #23
  %162 = getelementptr inbounds [3 x double], ptr %8, i64 0, i64 2
  call void @llvm.memset.p0.i64(ptr noundef nonnull align 8 dereferenceable(16) %8, i8 0, i64 16, i1 false)
  store double -3.000000e+00, ptr %162, align 8, !tbaa !5
  %163 = icmp eq ptr %158, %157
  br i1 %163, label %242, label %238

164:                                              ; preds = %28, %225
  %165 = phi ptr [ %29, %28 ], [ %226, %225 ]
  %166 = phi ptr [ %30, %28 ], [ %227, %225 ]
  %167 = phi i64 [ 0, %28 ], [ %228, %225 ]
  %168 = getelementptr inbounds [8 x %"class.dealii::Point"], ptr %6, i64 0, i64 %167
  %169 = getelementptr inbounds [3 x double], ptr %168, i64 0, i64 2
  %170 = load double, ptr %169, align 8, !tbaa !5, !noalias !37
  %171 = load <2 x double>, ptr %168, align 8, !tbaa !5, !noalias !37
  %172 = fmul <2 x double> %171, <double 0x4000918C003E1580, double 0x4000918C003E1580>
  %173 = fmul double %170, 0x4000918C003E1580
  %174 = fadd <2 x double> %172, zeroinitializer
  %175 = fadd double %173, -5.000000e-01
  %176 = icmp eq ptr %166, %165
  br i1 %176, label %180, label %177

177:                                              ; preds = %164
  store <2 x double> %174, ptr %166, align 8, !tbaa !5
  %178 = getelementptr inbounds [3 x double], ptr %166, i64 0, i64 2
  store double %175, ptr %178, align 8, !tbaa !5
  %179 = getelementptr inbounds %"class.dealii::Point", ptr %166, i64 1
  store ptr %179, ptr %26, align 8, !tbaa !40
  br label %225

180:                                              ; preds = %164
  %181 = load ptr, ptr %3, align 8, !tbaa !36
  %182 = ptrtoint ptr %165 to i64
  %183 = ptrtoint ptr %181 to i64
  %184 = sub i64 %182, %183
  %185 = icmp eq i64 %184, 9223372036854775800
  br i1 %185, label %186, label %188

186:                                              ; preds = %180, %49, %113
  invoke void @_ZSt20__throw_length_errorPKc(ptr noundef nonnull @.str.25) #26
          to label %187 unwind label %236

187:                                              ; preds = %186
  unreachable

188:                                              ; preds = %180
  %189 = sdiv exact i64 %184, 24
  %190 = call i64 @llvm.umax.i64(i64 %189, i64 1)
  %191 = add i64 %190, %189
  %192 = icmp ult i64 %191, %189
  %193 = icmp ugt i64 %191, 384307168202282325
  %194 = or i1 %192, %193
  %195 = select i1 %194, i64 384307168202282325, i64 %191
  %196 = icmp eq i64 %195, 0
  br i1 %196, label %200, label %197

197:                                              ; preds = %188
  %198 = mul nuw nsw i64 %195, 24
  %199 = invoke noalias noundef nonnull ptr @_Znwm(i64 noundef %198) #24
          to label %200 unwind label %230

200:                                              ; preds = %197, %188
  %201 = phi ptr [ null, %188 ], [ %199, %197 ]
  %202 = getelementptr inbounds %"class.dealii::Point", ptr %201, i64 %189
  store <2 x double> %174, ptr %202, align 8, !tbaa !5
  %203 = getelementptr inbounds [3 x double], ptr %202, i64 0, i64 2
  store double %175, ptr %203, align 8, !tbaa !5
  %204 = icmp eq ptr %181, %165
  br i1 %204, label %218, label %205

205:                                              ; preds = %200, %205
  %206 = phi ptr [ %216, %205 ], [ %201, %200 ]
  %207 = phi ptr [ %215, %205 ], [ %181, %200 ]
  %208 = load double, ptr %207, align 8, !tbaa !5
  store double %208, ptr %206, align 8, !tbaa !5
  %209 = getelementptr inbounds [3 x double], ptr %207, i64 0, i64 1
  %210 = load double, ptr %209, align 8, !tbaa !5
  %211 = getelementptr inbounds [3 x double], ptr %206, i64 0, i64 1
  store double %210, ptr %211, align 8, !tbaa !5
  %212 = getelementptr inbounds [3 x double], ptr %207, i64 0, i64 2
  %213 = load double, ptr %212, align 8, !tbaa !5
  %214 = getelementptr inbounds [3 x double], ptr %206, i64 0, i64 2
  store double %213, ptr %214, align 8, !tbaa !5
  %215 = getelementptr inbounds %"class.dealii::Point", ptr %207, i64 1
  %216 = getelementptr inbounds %"class.dealii::Point", ptr %206, i64 1
  %217 = icmp eq ptr %215, %165
  br i1 %217, label %218, label %205

218:                                              ; preds = %205, %200
  %219 = phi ptr [ %201, %200 ], [ %216, %205 ]
  %220 = getelementptr inbounds %"class.dealii::Point", ptr %219, i64 1
  %221 = icmp eq ptr %181, null
  br i1 %221, label %223, label %222

222:                                              ; preds = %218
  call void @_ZdlPv(ptr noundef nonnull %181) #25
  br label %223

223:                                              ; preds = %222, %218
  store ptr %201, ptr %3, align 8, !tbaa !41
  store ptr %220, ptr %26, align 8, !tbaa !40
  %224 = getelementptr inbounds %"class.dealii::Point", ptr %201, i64 %195
  store ptr %224, ptr %27, align 8, !tbaa !34
  br label %225

225:                                              ; preds = %223, %177
  %226 = phi ptr [ %224, %223 ], [ %165, %177 ]
  %227 = phi ptr [ %220, %223 ], [ %179, %177 ]
  %228 = add nuw nsw i64 %167, 1
  %229 = icmp eq i64 %228, 8
  br i1 %229, label %33, label %164

230:                                              ; preds = %197
  %231 = landingpad { ptr, i32 }
          cleanup
  br label %797

232:                                              ; preds = %64
  %233 = landingpad { ptr, i32 }
          cleanup
  br label %797

234:                                              ; preds = %128
  %235 = landingpad { ptr, i32 }
          cleanup
  br label %797

236:                                              ; preds = %186
  %237 = landingpad { ptr, i32 }
          cleanup
  br label %797

238:                                              ; preds = %161
  call void @llvm.memset.p0.i64(ptr noundef nonnull align 8 dereferenceable(16) %158, i8 0, i64 16, i1 false)
  %239 = load double, ptr %162, align 8, !tbaa !5
  %240 = getelementptr inbounds [3 x double], ptr %158, i64 0, i64 2
  store double %239, ptr %240, align 8, !tbaa !5
  %241 = getelementptr inbounds %"class.dealii::Point", ptr %158, i64 1
  store ptr %241, ptr %26, align 8, !tbaa !40
  br label %246

242:                                              ; preds = %161
  invoke void @_ZNSt6vectorIN6dealii5PointILi3EEESaIS2_EE17_M_realloc_insertEN9__gnu_cxx17__normal_iteratorIPS2_S4_EERKS2_(ptr noundef nonnull align 8 dereferenceable(24) %3, ptr %157, ptr noundef nonnull align 8 dereferenceable(24) %8)
          to label %243 unwind label %249

243:                                              ; preds = %242
  %244 = load ptr, ptr %26, align 8, !tbaa !36
  %245 = load ptr, ptr %27, align 8, !tbaa !34
  br label %246

246:                                              ; preds = %243, %238
  %247 = phi ptr [ %245, %243 ], [ %157, %238 ]
  %248 = phi ptr [ %244, %243 ], [ %241, %238 ]
  call void @llvm.lifetime.end.p0(i64 24, ptr nonnull %8) #23
  br label %383

249:                                              ; preds = %242
  %250 = landingpad { ptr, i32 }
          cleanup
  call void @llvm.lifetime.end.p0(i64 24, ptr nonnull %8) #23
  br label %797

251:                                              ; preds = %444, %310
  %252 = phi ptr [ %311, %310 ], [ %445, %444 ]
  %253 = phi ptr [ %312, %310 ], [ %446, %444 ]
  %254 = phi i64 [ %313, %310 ], [ 0, %444 ]
  %255 = getelementptr inbounds [8 x %"class.dealii::Point"], ptr %6, i64 0, i64 %254
  %256 = getelementptr inbounds [3 x double], ptr %255, i64 0, i64 2
  %257 = load double, ptr %256, align 8, !tbaa !5, !noalias !42
  %258 = load <2 x double>, ptr %255, align 8, !tbaa !5, !noalias !42
  %259 = fmul <2 x double> %258, <double 5.000000e+00, double 5.000000e+00>
  %260 = fmul double %257, 5.000000e+00
  %261 = fadd <2 x double> %259, zeroinitializer
  %262 = fadd double %260, -3.000000e+00
  %263 = icmp eq ptr %253, %252
  br i1 %263, label %267, label %264

264:                                              ; preds = %251
  store <2 x double> %261, ptr %253, align 8, !tbaa !5
  %265 = getelementptr inbounds [3 x double], ptr %253, i64 0, i64 2
  store double %262, ptr %265, align 8, !tbaa !5
  %266 = getelementptr inbounds %"class.dealii::Point", ptr %253, i64 1
  store ptr %266, ptr %26, align 8, !tbaa !40
  br label %310

267:                                              ; preds = %251
  %268 = load ptr, ptr %3, align 8, !tbaa !36
  %269 = ptrtoint ptr %252 to i64
  %270 = ptrtoint ptr %268 to i64
  %271 = sub i64 %269, %270
  %272 = icmp eq i64 %271, 9223372036854775800
  br i1 %272, label %405, label %273

273:                                              ; preds = %267
  %274 = sdiv exact i64 %271, 24
  %275 = call i64 @llvm.umax.i64(i64 %274, i64 1)
  %276 = add i64 %275, %274
  %277 = icmp ult i64 %276, %274
  %278 = icmp ugt i64 %276, 384307168202282325
  %279 = or i1 %277, %278
  %280 = select i1 %279, i64 384307168202282325, i64 %276
  %281 = icmp eq i64 %280, 0
  br i1 %281, label %285, label %282

282:                                              ; preds = %273
  %283 = mul nuw nsw i64 %280, 24
  %284 = invoke noalias noundef nonnull ptr @_Znwm(i64 noundef %283) #24
          to label %285 unwind label %451

285:                                              ; preds = %282, %273
  %286 = phi ptr [ null, %273 ], [ %284, %282 ]
  %287 = getelementptr inbounds %"class.dealii::Point", ptr %286, i64 %274
  store <2 x double> %261, ptr %287, align 8, !tbaa !5
  %288 = getelementptr inbounds [3 x double], ptr %287, i64 0, i64 2
  store double %262, ptr %288, align 8, !tbaa !5
  %289 = icmp eq ptr %268, %252
  br i1 %289, label %303, label %290

290:                                              ; preds = %285, %290
  %291 = phi ptr [ %301, %290 ], [ %286, %285 ]
  %292 = phi ptr [ %300, %290 ], [ %268, %285 ]
  %293 = load double, ptr %292, align 8, !tbaa !5
  store double %293, ptr %291, align 8, !tbaa !5
  %294 = getelementptr inbounds [3 x double], ptr %292, i64 0, i64 1
  %295 = load double, ptr %294, align 8, !tbaa !5
  %296 = getelementptr inbounds [3 x double], ptr %291, i64 0, i64 1
  store double %295, ptr %296, align 8, !tbaa !5
  %297 = getelementptr inbounds [3 x double], ptr %292, i64 0, i64 2
  %298 = load double, ptr %297, align 8, !tbaa !5
  %299 = getelementptr inbounds [3 x double], ptr %291, i64 0, i64 2
  store double %298, ptr %299, align 8, !tbaa !5
  %300 = getelementptr inbounds %"class.dealii::Point", ptr %292, i64 1
  %301 = getelementptr inbounds %"class.dealii::Point", ptr %291, i64 1
  %302 = icmp eq ptr %300, %252
  br i1 %302, label %303, label %290

303:                                              ; preds = %290, %285
  %304 = phi ptr [ %286, %285 ], [ %301, %290 ]
  %305 = getelementptr inbounds %"class.dealii::Point", ptr %304, i64 1
  %306 = icmp eq ptr %268, null
  br i1 %306, label %308, label %307

307:                                              ; preds = %303
  call void @_ZdlPv(ptr noundef nonnull %268) #25
  br label %308

308:                                              ; preds = %307, %303
  store ptr %286, ptr %3, align 8, !tbaa !41
  store ptr %305, ptr %26, align 8, !tbaa !40
  %309 = getelementptr inbounds %"class.dealii::Point", ptr %286, i64 %280
  store ptr %309, ptr %27, align 8, !tbaa !34
  br label %310

310:                                              ; preds = %308, %264
  %311 = phi ptr [ %309, %308 ], [ %252, %264 ]
  %312 = phi ptr [ %305, %308 ], [ %266, %264 ]
  %313 = add nuw nsw i64 %254, 1
  %314 = icmp eq i64 %313, 8
  br i1 %314, label %315, label %251

315:                                              ; preds = %310, %374
  %316 = phi ptr [ %375, %374 ], [ %311, %310 ]
  %317 = phi ptr [ %376, %374 ], [ %312, %310 ]
  %318 = phi i64 [ %377, %374 ], [ 0, %310 ]
  %319 = getelementptr inbounds [8 x %"class.dealii::Point"], ptr %6, i64 0, i64 %318
  %320 = getelementptr inbounds [3 x double], ptr %319, i64 0, i64 2
  %321 = load double, ptr %320, align 8, !tbaa !5, !noalias !42
  %322 = load <2 x double>, ptr %319, align 8, !tbaa !5, !noalias !42
  %323 = fmul <2 x double> %322, <double 1.000000e+01, double 1.000000e+01>
  %324 = fmul double %321, 1.000000e+01
  %325 = fadd <2 x double> %323, zeroinitializer
  %326 = fadd double %324, -3.000000e+00
  %327 = icmp eq ptr %317, %316
  br i1 %327, label %331, label %328

328:                                              ; preds = %315
  store <2 x double> %325, ptr %317, align 8, !tbaa !5
  %329 = getelementptr inbounds [3 x double], ptr %317, i64 0, i64 2
  store double %326, ptr %329, align 8, !tbaa !5
  %330 = getelementptr inbounds %"class.dealii::Point", ptr %317, i64 1
  store ptr %330, ptr %26, align 8, !tbaa !40
  br label %374

331:                                              ; preds = %315
  %332 = load ptr, ptr %3, align 8, !tbaa !36
  %333 = ptrtoint ptr %316 to i64
  %334 = ptrtoint ptr %332 to i64
  %335 = sub i64 %333, %334
  %336 = icmp eq i64 %335, 9223372036854775800
  br i1 %336, label %405, label %337

337:                                              ; preds = %331
  %338 = sdiv exact i64 %335, 24
  %339 = call i64 @llvm.umax.i64(i64 %338, i64 1)
  %340 = add i64 %339, %338
  %341 = icmp ult i64 %340, %338
  %342 = icmp ugt i64 %340, 384307168202282325
  %343 = or i1 %341, %342
  %344 = select i1 %343, i64 384307168202282325, i64 %340
  %345 = icmp eq i64 %344, 0
  br i1 %345, label %349, label %346

346:                                              ; preds = %337
  %347 = mul nuw nsw i64 %344, 24
  %348 = invoke noalias noundef nonnull ptr @_Znwm(i64 noundef %347) #24
          to label %349 unwind label %453

349:                                              ; preds = %346, %337
  %350 = phi ptr [ null, %337 ], [ %348, %346 ]
  %351 = getelementptr inbounds %"class.dealii::Point", ptr %350, i64 %338
  store <2 x double> %325, ptr %351, align 8, !tbaa !5
  %352 = getelementptr inbounds [3 x double], ptr %351, i64 0, i64 2
  store double %326, ptr %352, align 8, !tbaa !5
  %353 = icmp eq ptr %332, %316
  br i1 %353, label %367, label %354

354:                                              ; preds = %349, %354
  %355 = phi ptr [ %365, %354 ], [ %350, %349 ]
  %356 = phi ptr [ %364, %354 ], [ %332, %349 ]
  %357 = load double, ptr %356, align 8, !tbaa !5
  store double %357, ptr %355, align 8, !tbaa !5
  %358 = getelementptr inbounds [3 x double], ptr %356, i64 0, i64 1
  %359 = load double, ptr %358, align 8, !tbaa !5
  %360 = getelementptr inbounds [3 x double], ptr %355, i64 0, i64 1
  store double %359, ptr %360, align 8, !tbaa !5
  %361 = getelementptr inbounds [3 x double], ptr %356, i64 0, i64 2
  %362 = load double, ptr %361, align 8, !tbaa !5
  %363 = getelementptr inbounds [3 x double], ptr %355, i64 0, i64 2
  store double %362, ptr %363, align 8, !tbaa !5
  %364 = getelementptr inbounds %"class.dealii::Point", ptr %356, i64 1
  %365 = getelementptr inbounds %"class.dealii::Point", ptr %355, i64 1
  %366 = icmp eq ptr %364, %316
  br i1 %366, label %367, label %354

367:                                              ; preds = %354, %349
  %368 = phi ptr [ %350, %349 ], [ %365, %354 ]
  %369 = getelementptr inbounds %"class.dealii::Point", ptr %368, i64 1
  %370 = icmp eq ptr %332, null
  br i1 %370, label %372, label %371

371:                                              ; preds = %367
  call void @_ZdlPv(ptr noundef nonnull %332) #25
  br label %372

372:                                              ; preds = %371, %367
  store ptr %350, ptr %3, align 8, !tbaa !41
  store ptr %369, ptr %26, align 8, !tbaa !40
  %373 = getelementptr inbounds %"class.dealii::Point", ptr %350, i64 %344
  store ptr %373, ptr %27, align 8, !tbaa !34
  br label %374

374:                                              ; preds = %372, %328
  %375 = phi ptr [ %373, %372 ], [ %316, %328 ]
  %376 = phi ptr [ %369, %372 ], [ %330, %328 ]
  %377 = add nuw nsw i64 %318, 1
  %378 = icmp eq i64 %377, 8
  br i1 %378, label %379, label %315

379:                                              ; preds = %374
  %380 = getelementptr inbounds %"struct.std::_Vector_base<dealii::CellData<3>, std::allocator<dealii::CellData<3> > >::_Vector_impl_data", ptr %4, i64 0, i32 1
  %381 = getelementptr inbounds %"struct.std::_Vector_base<dealii::CellData<3>, std::allocator<dealii::CellData<3> > >::_Vector_impl_data", ptr %4, i64 0, i32 2
  %382 = load ptr, ptr %380, align 8, !tbaa !36
  br label %463

383:                                              ; preds = %246, %444
  %384 = phi ptr [ %247, %246 ], [ %445, %444 ]
  %385 = phi ptr [ %248, %246 ], [ %446, %444 ]
  %386 = phi i64 [ 0, %246 ], [ %447, %444 ]
  %387 = getelementptr inbounds [8 x %"class.dealii::Point"], ptr %6, i64 0, i64 %386
  %388 = getelementptr inbounds [3 x double], ptr %387, i64 0, i64 2
  %389 = load double, ptr %388, align 8, !tbaa !5, !noalias !42
  %390 = load <2 x double>, ptr %387, align 8, !tbaa !5, !noalias !42
  %391 = fmul <2 x double> %390, <double 0x4000918C003E1580, double 0x4000918C003E1580>
  %392 = fmul double %389, 0x4000918C003E1580
  %393 = fadd <2 x double> %391, zeroinitializer
  %394 = fadd double %392, -3.000000e+00
  %395 = icmp eq ptr %385, %384
  br i1 %395, label %399, label %396

396:                                              ; preds = %383
  store <2 x double> %393, ptr %385, align 8, !tbaa !5
  %397 = getelementptr inbounds [3 x double], ptr %385, i64 0, i64 2
  store double %394, ptr %397, align 8, !tbaa !5
  %398 = getelementptr inbounds %"class.dealii::Point", ptr %385, i64 1
  store ptr %398, ptr %26, align 8, !tbaa !40
  br label %444

399:                                              ; preds = %383
  %400 = load ptr, ptr %3, align 8, !tbaa !36
  %401 = ptrtoint ptr %384 to i64
  %402 = ptrtoint ptr %400 to i64
  %403 = sub i64 %401, %402
  %404 = icmp eq i64 %403, 9223372036854775800
  br i1 %404, label %405, label %407

405:                                              ; preds = %399, %267, %331
  invoke void @_ZSt20__throw_length_errorPKc(ptr noundef nonnull @.str.25) #26
          to label %406 unwind label %455

406:                                              ; preds = %405
  unreachable

407:                                              ; preds = %399
  %408 = sdiv exact i64 %403, 24
  %409 = call i64 @llvm.umax.i64(i64 %408, i64 1)
  %410 = add i64 %409, %408
  %411 = icmp ult i64 %410, %408
  %412 = icmp ugt i64 %410, 384307168202282325
  %413 = or i1 %411, %412
  %414 = select i1 %413, i64 384307168202282325, i64 %410
  %415 = icmp eq i64 %414, 0
  br i1 %415, label %419, label %416

416:                                              ; preds = %407
  %417 = mul nuw nsw i64 %414, 24
  %418 = invoke noalias noundef nonnull ptr @_Znwm(i64 noundef %417) #24
          to label %419 unwind label %449

419:                                              ; preds = %416, %407
  %420 = phi ptr [ null, %407 ], [ %418, %416 ]
  %421 = getelementptr inbounds %"class.dealii::Point", ptr %420, i64 %408
  store <2 x double> %393, ptr %421, align 8, !tbaa !5
  %422 = getelementptr inbounds [3 x double], ptr %421, i64 0, i64 2
  store double %394, ptr %422, align 8, !tbaa !5
  %423 = icmp eq ptr %400, %384
  br i1 %423, label %437, label %424

424:                                              ; preds = %419, %424
  %425 = phi ptr [ %435, %424 ], [ %420, %419 ]
  %426 = phi ptr [ %434, %424 ], [ %400, %419 ]
  %427 = load double, ptr %426, align 8, !tbaa !5
  store double %427, ptr %425, align 8, !tbaa !5
  %428 = getelementptr inbounds [3 x double], ptr %426, i64 0, i64 1
  %429 = load double, ptr %428, align 8, !tbaa !5
  %430 = getelementptr inbounds [3 x double], ptr %425, i64 0, i64 1
  store double %429, ptr %430, align 8, !tbaa !5
  %431 = getelementptr inbounds [3 x double], ptr %426, i64 0, i64 2
  %432 = load double, ptr %431, align 8, !tbaa !5
  %433 = getelementptr inbounds [3 x double], ptr %425, i64 0, i64 2
  store double %432, ptr %433, align 8, !tbaa !5
  %434 = getelementptr inbounds %"class.dealii::Point", ptr %426, i64 1
  %435 = getelementptr inbounds %"class.dealii::Point", ptr %425, i64 1
  %436 = icmp eq ptr %434, %384
  br i1 %436, label %437, label %424

437:                                              ; preds = %424, %419
  %438 = phi ptr [ %420, %419 ], [ %435, %424 ]
  %439 = getelementptr inbounds %"class.dealii::Point", ptr %438, i64 1
  %440 = icmp eq ptr %400, null
  br i1 %440, label %442, label %441

441:                                              ; preds = %437
  call void @_ZdlPv(ptr noundef nonnull %400) #25
  br label %442

442:                                              ; preds = %441, %437
  store ptr %420, ptr %3, align 8, !tbaa !41
  store ptr %439, ptr %26, align 8, !tbaa !40
  %443 = getelementptr inbounds %"class.dealii::Point", ptr %420, i64 %414
  store ptr %443, ptr %27, align 8, !tbaa !34
  br label %444

444:                                              ; preds = %442, %396
  %445 = phi ptr [ %443, %442 ], [ %384, %396 ]
  %446 = phi ptr [ %439, %442 ], [ %398, %396 ]
  %447 = add nuw nsw i64 %386, 1
  %448 = icmp eq i64 %447, 8
  br i1 %448, label %251, label %383

449:                                              ; preds = %416
  %450 = landingpad { ptr, i32 }
          cleanup
  br label %797

451:                                              ; preds = %282
  %452 = landingpad { ptr, i32 }
          cleanup
  br label %797

453:                                              ; preds = %346
  %454 = landingpad { ptr, i32 }
          cleanup
  br label %797

455:                                              ; preds = %405
  %456 = landingpad { ptr, i32 }
          cleanup
  br label %797

457:                                              ; preds = %516
  %458 = getelementptr inbounds %"struct.dealii::SubCellData", ptr %5, i64 0, i32 1
  %459 = getelementptr inbounds %"struct.dealii::SubCellData", ptr %5, i64 0, i32 1, i32 0, i32 0, i32 0, i32 1
  %460 = getelementptr inbounds %"struct.dealii::SubCellData", ptr %5, i64 0, i32 1, i32 0, i32 0, i32 0, i32 2
  %461 = getelementptr inbounds %"struct.std::_Vector_base<dealii::CellData<1>, std::allocator<dealii::CellData<1> > >::_Vector_impl_data", ptr %5, i64 0, i32 1
  %462 = getelementptr inbounds %"struct.std::_Vector_base<dealii::CellData<1>, std::allocator<dealii::CellData<1> > >::_Vector_impl_data", ptr %5, i64 0, i32 2
  br label %534

463:                                              ; preds = %379, %516
  %464 = phi ptr [ %382, %379 ], [ %517, %516 ]
  %465 = phi i64 [ 0, %379 ], [ %518, %516 ]
  %466 = shl nuw nsw i64 %465, 4
  %467 = getelementptr i8, ptr @__const._ZN12METomography8Geometry13BreastPhantom18create_coarse_gridERN6dealii13TriangulationILi3ELi3EEE.connectivity, i64 %466
  %468 = getelementptr inbounds [20 x [4 x i32]], ptr @__const._ZN12METomography8Geometry13BreastPhantom18create_coarse_gridERN6dealii13TriangulationILi3ELi3EEE.connectivity, i64 0, i64 %465, i64 0
  %469 = load <4 x i32>, ptr %468, align 16, !tbaa !45
  %470 = add <4 x i32> %469, <i32 25, i32 25, i32 25, i32 25>
  %471 = load ptr, ptr %381, align 8, !tbaa !46
  %472 = icmp eq ptr %464, %471
  br i1 %472, label %477, label %473

473:                                              ; preds = %463
  call void @llvm.memcpy.p0.p0.i64(ptr noundef nonnull align 4 dereferenceable(16) %464, ptr noundef nonnull align 16 dereferenceable(16) %467, i64 16, i1 false)
  %474 = getelementptr inbounds i8, ptr %464, i64 16
  store <4 x i32> %470, ptr %474, align 4
  %475 = getelementptr inbounds i8, ptr %464, i64 32
  store i8 0, ptr %475, align 4, !tbaa.struct !48
  %476 = getelementptr inbounds %"struct.dealii::CellData", ptr %464, i64 1
  store ptr %476, ptr %380, align 8, !tbaa !50
  br label %516

477:                                              ; preds = %463
  %478 = load ptr, ptr %4, align 8, !tbaa !36
  %479 = ptrtoint ptr %464 to i64
  %480 = ptrtoint ptr %478 to i64
  %481 = sub i64 %479, %480
  %482 = icmp eq i64 %481, 9223372036854775800
  br i1 %482, label %483, label %485

483:                                              ; preds = %477
  invoke void @_ZSt20__throw_length_errorPKc(ptr noundef nonnull @.str.25) #26
          to label %484 unwind label %522

484:                                              ; preds = %483
  unreachable

485:                                              ; preds = %477
  %486 = sdiv exact i64 %481, 36
  %487 = call i64 @llvm.umax.i64(i64 %486, i64 1)
  %488 = add i64 %487, %486
  %489 = icmp ult i64 %488, %486
  %490 = icmp ugt i64 %488, 256204778801521550
  %491 = or i1 %489, %490
  %492 = select i1 %491, i64 256204778801521550, i64 %488
  %493 = icmp eq i64 %492, 0
  br i1 %493, label %497, label %494

494:                                              ; preds = %485
  %495 = mul nuw nsw i64 %492, 36
  %496 = invoke noalias noundef nonnull ptr @_Znwm(i64 noundef %495) #24
          to label %497 unwind label %520

497:                                              ; preds = %494, %485
  %498 = phi ptr [ null, %485 ], [ %496, %494 ]
  %499 = getelementptr inbounds %"struct.dealii::CellData", ptr %498, i64 %486
  call void @llvm.memcpy.p0.p0.i64(ptr noundef nonnull align 4 dereferenceable(16) %499, ptr noundef nonnull align 16 dereferenceable(16) %467, i64 16, i1 false)
  %500 = getelementptr inbounds i8, ptr %499, i64 16
  store <4 x i32> %470, ptr %500, align 4
  %501 = getelementptr inbounds i8, ptr %499, i64 32
  store i8 0, ptr %501, align 4, !tbaa.struct !48
  %502 = icmp sgt i64 %481, 36
  br i1 %502, label %503, label %504, !prof !51

503:                                              ; preds = %497
  call void @llvm.memmove.p0.p0.i64(ptr nonnull align 4 %498, ptr align 4 %478, i64 %481, i1 false)
  br label %508

504:                                              ; preds = %497
  %505 = icmp eq i64 %481, 36
  br i1 %505, label %506, label %508

506:                                              ; preds = %504
  call void @llvm.memcpy.p0.p0.i64(ptr noundef nonnull align 4 dereferenceable(36) %498, ptr noundef nonnull align 4 dereferenceable(36) %478, i64 36, i1 false), !tbaa.struct !52
  %507 = getelementptr inbounds %"struct.dealii::CellData", ptr %499, i64 1
  br label %511

508:                                              ; preds = %504, %503
  %509 = getelementptr inbounds %"struct.dealii::CellData", ptr %499, i64 1
  %510 = icmp eq ptr %478, null
  br i1 %510, label %513, label %511

511:                                              ; preds = %506, %508
  %512 = phi ptr [ %507, %506 ], [ %509, %508 ]
  call void @_ZdlPv(ptr noundef nonnull %478) #25
  br label %513

513:                                              ; preds = %511, %508
  %514 = phi ptr [ %509, %508 ], [ %512, %511 ]
  store ptr %498, ptr %4, align 8, !tbaa !53
  store ptr %514, ptr %380, align 8, !tbaa !50
  %515 = getelementptr inbounds %"struct.dealii::CellData", ptr %498, i64 %492
  store ptr %515, ptr %381, align 8, !tbaa !46
  br label %516

516:                                              ; preds = %513, %473
  %517 = phi ptr [ %514, %513 ], [ %476, %473 ]
  %518 = add nuw nsw i64 %465, 1
  %519 = icmp eq i64 %518, 20
  br i1 %519, label %457, label %463

520:                                              ; preds = %494
  %521 = landingpad { ptr, i32 }
          cleanup
  br label %797

522:                                              ; preds = %483
  %523 = landingpad { ptr, i32 }
          cleanup
  br label %797

524:                                              ; preds = %786
  call void @llvm.lifetime.end.p0(i64 192, ptr nonnull %6) #23
  %525 = load ptr, ptr %26, align 8, !tbaa !40
  %526 = load ptr, ptr %3, align 8, !tbaa !41
  %527 = ptrtoint ptr %525 to i64
  %528 = ptrtoint ptr %526 to i64
  %529 = sub i64 %527, %528
  %530 = sdiv exact i64 %529, 24
  %531 = trunc i64 %530 to i32
  %532 = getelementptr inbounds [3 x double], ptr %9, i64 0, i64 1
  %533 = getelementptr inbounds [3 x double], ptr %9, i64 0, i64 2
  br label %799

534:                                              ; preds = %457, %786
  %535 = phi i64 [ 0, %457 ], [ %787, %786 ]
  %536 = getelementptr inbounds [8 x [2 x i32]], ptr @__const._ZN12METomography8Geometry13BreastPhantom18create_coarse_gridERN6dealii13TriangulationILi3ELi3EEE.connectivity.3, i64 0, i64 %535
  %537 = load i32, ptr %536, align 8, !tbaa !45
  %538 = add i32 %537, 25
  %539 = getelementptr inbounds [8 x [2 x i32]], ptr @__const._ZN12METomography8Geometry13BreastPhantom18create_coarse_gridERN6dealii13TriangulationILi3ELi3EEE.connectivity.3, i64 0, i64 %535, i64 1
  %540 = load i32, ptr %539, align 4, !tbaa !45
  %541 = add i32 %540, 25
  %542 = load ptr, ptr %459, align 8, !tbaa !36
  %543 = load ptr, ptr %460, align 8, !tbaa !54
  %544 = icmp eq ptr %542, %543
  br i1 %544, label %552, label %545

545:                                              ; preds = %534
  store i32 %538, ptr %542, align 4, !tbaa.struct !56
  %546 = getelementptr inbounds i8, ptr %542, i64 4
  store i32 %541, ptr %546, align 4, !tbaa.struct !57
  %547 = getelementptr inbounds i8, ptr %542, i64 8
  store i32 %540, ptr %547, align 4, !tbaa.struct !58
  %548 = getelementptr inbounds i8, ptr %542, i64 12
  store i32 %537, ptr %548, align 4, !tbaa.struct !59
  %549 = getelementptr inbounds i8, ptr %542, i64 16
  store i8 49, ptr %549, align 4, !tbaa.struct !48
  %550 = load ptr, ptr %459, align 8, !tbaa !60
  %551 = getelementptr inbounds %"struct.dealii::CellData.23", ptr %550, i64 1
  store ptr %551, ptr %459, align 8, !tbaa !60
  br label %593

552:                                              ; preds = %534
  %553 = load ptr, ptr %458, align 8, !tbaa !36
  %554 = ptrtoint ptr %542 to i64
  %555 = ptrtoint ptr %553 to i64
  %556 = sub i64 %554, %555
  %557 = icmp eq i64 %556, 9223372036854775800
  br i1 %557, label %558, label %560

558:                                              ; preds = %552
  invoke void @_ZSt20__throw_length_errorPKc(ptr noundef nonnull @.str.25) #26
          to label %559 unwind label %599

559:                                              ; preds = %558
  unreachable

560:                                              ; preds = %552
  %561 = sdiv exact i64 %556, 20
  %562 = call i64 @llvm.umax.i64(i64 %561, i64 1)
  %563 = add i64 %562, %561
  %564 = icmp ult i64 %563, %561
  %565 = icmp ugt i64 %563, 461168601842738790
  %566 = or i1 %564, %565
  %567 = select i1 %566, i64 461168601842738790, i64 %563
  %568 = icmp eq i64 %567, 0
  br i1 %568, label %572, label %569

569:                                              ; preds = %560
  %570 = mul nuw nsw i64 %567, 20
  %571 = invoke noalias noundef nonnull ptr @_Znwm(i64 noundef %570) #24
          to label %572 unwind label %597

572:                                              ; preds = %569, %560
  %573 = phi ptr [ null, %560 ], [ %571, %569 ]
  %574 = getelementptr inbounds %"struct.dealii::CellData.23", ptr %573, i64 %561
  store i32 %538, ptr %574, align 4, !tbaa.struct !56
  %575 = getelementptr inbounds i8, ptr %574, i64 4
  store i32 %541, ptr %575, align 4, !tbaa.struct !57
  %576 = getelementptr inbounds i8, ptr %574, i64 8
  store i32 %540, ptr %576, align 4, !tbaa.struct !58
  %577 = getelementptr inbounds i8, ptr %574, i64 12
  store i32 %537, ptr %577, align 4, !tbaa.struct !59
  %578 = getelementptr inbounds i8, ptr %574, i64 16
  store i8 49, ptr %578, align 4, !tbaa.struct !48
  %579 = icmp sgt i64 %556, 20
  br i1 %579, label %580, label %581, !prof !51

580:                                              ; preds = %572
  call void @llvm.memmove.p0.p0.i64(ptr nonnull align 4 %573, ptr align 4 %553, i64 %556, i1 false)
  br label %585

581:                                              ; preds = %572
  %582 = icmp eq i64 %556, 20
  br i1 %582, label %583, label %585

583:                                              ; preds = %581
  call void @llvm.memcpy.p0.p0.i64(ptr noundef nonnull align 4 dereferenceable(20) %573, ptr noundef nonnull align 4 dereferenceable(20) %553, i64 20, i1 false), !tbaa.struct !56
  %584 = getelementptr inbounds %"struct.dealii::CellData.23", ptr %574, i64 1
  br label %588

585:                                              ; preds = %581, %580
  %586 = getelementptr inbounds %"struct.dealii::CellData.23", ptr %574, i64 1
  %587 = icmp eq ptr %553, null
  br i1 %587, label %590, label %588

588:                                              ; preds = %583, %585
  %589 = phi ptr [ %584, %583 ], [ %586, %585 ]
  call void @_ZdlPv(ptr noundef nonnull %553) #25
  br label %590

590:                                              ; preds = %588, %585
  %591 = phi ptr [ %586, %585 ], [ %589, %588 ]
  store ptr %573, ptr %458, align 8, !tbaa !61
  store ptr %591, ptr %459, align 8, !tbaa !60
  %592 = getelementptr inbounds %"struct.dealii::CellData.23", ptr %573, i64 %567
  store ptr %592, ptr %460, align 8, !tbaa !54
  br label %593

593:                                              ; preds = %590, %545
  %594 = load ptr, ptr %461, align 8, !tbaa !36
  %595 = load ptr, ptr %462, align 8, !tbaa !62
  %596 = icmp eq ptr %594, %595
  br i1 %596, label %607, label %601

597:                                              ; preds = %569
  %598 = landingpad { ptr, i32 }
          cleanup
  br label %797

599:                                              ; preds = %558
  %600 = landingpad { ptr, i32 }
          cleanup
  br label %797

601:                                              ; preds = %593
  store i32 %537, ptr %594, align 4, !tbaa.struct !58
  %602 = getelementptr inbounds i8, ptr %594, i64 4
  store i32 %540, ptr %602, align 4, !tbaa.struct !59
  %603 = getelementptr inbounds i8, ptr %594, i64 8
  store i8 49, ptr %603, align 4, !tbaa.struct !48
  %604 = load ptr, ptr %461, align 8, !tbaa !64
  %605 = getelementptr inbounds %"struct.dealii::CellData.24", ptr %604, i64 1
  store ptr %605, ptr %461, align 8, !tbaa !64
  %606 = load ptr, ptr %462, align 8, !tbaa !62
  br label %646

607:                                              ; preds = %593
  %608 = load ptr, ptr %5, align 8, !tbaa !36
  %609 = ptrtoint ptr %594 to i64
  %610 = ptrtoint ptr %608 to i64
  %611 = sub i64 %609, %610
  %612 = icmp eq i64 %611, 9223372036854775800
  br i1 %612, label %613, label %615

613:                                              ; preds = %749, %703, %656, %607
  invoke void @_ZSt20__throw_length_errorPKc(ptr noundef nonnull @.str.25) #26
          to label %614 unwind label %791

614:                                              ; preds = %613
  unreachable

615:                                              ; preds = %607
  %616 = sdiv exact i64 %611, 12
  %617 = call i64 @llvm.umax.i64(i64 %616, i64 1)
  %618 = add i64 %617, %616
  %619 = icmp ult i64 %618, %616
  %620 = icmp ugt i64 %618, 768614336404564650
  %621 = or i1 %619, %620
  %622 = select i1 %621, i64 768614336404564650, i64 %618
  %623 = icmp eq i64 %622, 0
  br i1 %623, label %627, label %624

624:                                              ; preds = %615
  %625 = mul nuw nsw i64 %622, 12
  %626 = invoke noalias noundef nonnull ptr @_Znwm(i64 noundef %625) #24
          to label %627 unwind label %789

627:                                              ; preds = %624, %615
  %628 = phi ptr [ null, %615 ], [ %626, %624 ]
  %629 = getelementptr inbounds %"struct.dealii::CellData.24", ptr %628, i64 %616
  store i32 %537, ptr %629, align 4, !tbaa.struct !58
  %630 = getelementptr inbounds i8, ptr %629, i64 4
  store i32 %540, ptr %630, align 4, !tbaa.struct !59
  %631 = getelementptr inbounds i8, ptr %629, i64 8
  store i8 49, ptr %631, align 4, !tbaa.struct !48
  %632 = icmp sgt i64 %611, 12
  br i1 %632, label %633, label %634, !prof !51

633:                                              ; preds = %627
  call void @llvm.memmove.p0.p0.i64(ptr nonnull align 4 %628, ptr align 4 %608, i64 %611, i1 false)
  br label %638

634:                                              ; preds = %627
  %635 = icmp eq i64 %611, 12
  br i1 %635, label %636, label %638

636:                                              ; preds = %634
  call void @llvm.memcpy.p0.p0.i64(ptr noundef nonnull align 4 dereferenceable(12) %628, ptr noundef nonnull align 4 dereferenceable(12) %608, i64 12, i1 false), !tbaa.struct !58
  %637 = getelementptr inbounds %"struct.dealii::CellData.24", ptr %629, i64 1
  br label %641

638:                                              ; preds = %634, %633
  %639 = getelementptr inbounds %"struct.dealii::CellData.24", ptr %629, i64 1
  %640 = icmp eq ptr %608, null
  br i1 %640, label %643, label %641

641:                                              ; preds = %636, %638
  %642 = phi ptr [ %637, %636 ], [ %639, %638 ]
  call void @_ZdlPv(ptr noundef nonnull %608) #25
  br label %643

643:                                              ; preds = %641, %638
  %644 = phi ptr [ %639, %638 ], [ %642, %641 ]
  store ptr %628, ptr %5, align 8, !tbaa !65
  store ptr %644, ptr %461, align 8, !tbaa !64
  %645 = getelementptr inbounds %"struct.dealii::CellData.24", ptr %628, i64 %622
  store ptr %645, ptr %462, align 8, !tbaa !62
  br label %646

646:                                              ; preds = %643, %601
  %647 = phi ptr [ %645, %643 ], [ %606, %601 ]
  %648 = phi ptr [ %644, %643 ], [ %605, %601 ]
  %649 = icmp eq ptr %648, %647
  br i1 %649, label %656, label %650

650:                                              ; preds = %646
  store i32 %538, ptr %648, align 4, !tbaa.struct !58
  %651 = getelementptr inbounds i8, ptr %648, i64 4
  store i32 %541, ptr %651, align 4, !tbaa.struct !59
  %652 = getelementptr inbounds i8, ptr %648, i64 8
  store i8 49, ptr %652, align 4, !tbaa.struct !48
  %653 = load ptr, ptr %461, align 8, !tbaa !64
  %654 = getelementptr inbounds %"struct.dealii::CellData.24", ptr %653, i64 1
  store ptr %654, ptr %461, align 8, !tbaa !64
  %655 = load ptr, ptr %462, align 8, !tbaa !62
  br label %693

656:                                              ; preds = %646
  %657 = load ptr, ptr %5, align 8, !tbaa !36
  %658 = ptrtoint ptr %647 to i64
  %659 = ptrtoint ptr %657 to i64
  %660 = sub i64 %658, %659
  %661 = icmp eq i64 %660, 9223372036854775800
  br i1 %661, label %613, label %662

662:                                              ; preds = %656
  %663 = sdiv exact i64 %660, 12
  %664 = call i64 @llvm.umax.i64(i64 %663, i64 1)
  %665 = add i64 %664, %663
  %666 = icmp ult i64 %665, %663
  %667 = icmp ugt i64 %665, 768614336404564650
  %668 = or i1 %666, %667
  %669 = select i1 %668, i64 768614336404564650, i64 %665
  %670 = icmp eq i64 %669, 0
  br i1 %670, label %674, label %671

671:                                              ; preds = %662
  %672 = mul nuw nsw i64 %669, 12
  %673 = invoke noalias noundef nonnull ptr @_Znwm(i64 noundef %672) #24
          to label %674 unwind label %789

674:                                              ; preds = %671, %662
  %675 = phi ptr [ null, %662 ], [ %673, %671 ]
  %676 = getelementptr inbounds %"struct.dealii::CellData.24", ptr %675, i64 %663
  store i32 %538, ptr %676, align 4, !tbaa.struct !58
  %677 = getelementptr inbounds i8, ptr %676, i64 4
  store i32 %541, ptr %677, align 4, !tbaa.struct !59
  %678 = getelementptr inbounds i8, ptr %676, i64 8
  store i8 49, ptr %678, align 4, !tbaa.struct !48
  %679 = icmp sgt i64 %660, 12
  br i1 %679, label %684, label %680, !prof !51

680:                                              ; preds = %674
  %681 = icmp eq i64 %660, 12
  br i1 %681, label %682, label %685

682:                                              ; preds = %680
  call void @llvm.memcpy.p0.p0.i64(ptr noundef nonnull align 4 dereferenceable(12) %675, ptr noundef nonnull align 4 dereferenceable(12) %657, i64 12, i1 false), !tbaa.struct !58
  %683 = getelementptr inbounds %"struct.dealii::CellData.24", ptr %676, i64 1
  br label %688

684:                                              ; preds = %674
  call void @llvm.memmove.p0.p0.i64(ptr nonnull align 4 %675, ptr align 4 %657, i64 %660, i1 false)
  br label %685

685:                                              ; preds = %684, %680
  %686 = getelementptr inbounds %"struct.dealii::CellData.24", ptr %676, i64 1
  %687 = icmp eq ptr %657, null
  br i1 %687, label %690, label %688

688:                                              ; preds = %685, %682
  %689 = phi ptr [ %683, %682 ], [ %686, %685 ]
  call void @_ZdlPv(ptr noundef nonnull %657) #25
  br label %690

690:                                              ; preds = %688, %685
  %691 = phi ptr [ %686, %685 ], [ %689, %688 ]
  store ptr %675, ptr %5, align 8, !tbaa !65
  store ptr %691, ptr %461, align 8, !tbaa !64
  %692 = getelementptr inbounds %"struct.dealii::CellData.24", ptr %675, i64 %669
  store ptr %692, ptr %462, align 8, !tbaa !62
  br label %693

693:                                              ; preds = %690, %650
  %694 = phi ptr [ %692, %690 ], [ %655, %650 ]
  %695 = phi ptr [ %691, %690 ], [ %654, %650 ]
  %696 = icmp eq ptr %695, %694
  br i1 %696, label %703, label %697

697:                                              ; preds = %693
  store i32 %538, ptr %695, align 4, !tbaa.struct !58
  %698 = getelementptr inbounds i8, ptr %695, i64 4
  store i32 %537, ptr %698, align 4, !tbaa.struct !59
  %699 = getelementptr inbounds i8, ptr %695, i64 8
  store i8 49, ptr %699, align 4, !tbaa.struct !48
  %700 = load ptr, ptr %461, align 8, !tbaa !64
  %701 = getelementptr inbounds %"struct.dealii::CellData.24", ptr %700, i64 1
  store ptr %701, ptr %461, align 8, !tbaa !64
  %702 = load ptr, ptr %462, align 8, !tbaa !62
  br label %740

703:                                              ; preds = %693
  %704 = load ptr, ptr %5, align 8, !tbaa !36
  %705 = ptrtoint ptr %694 to i64
  %706 = ptrtoint ptr %704 to i64
  %707 = sub i64 %705, %706
  %708 = icmp eq i64 %707, 9223372036854775800
  br i1 %708, label %613, label %709

709:                                              ; preds = %703
  %710 = sdiv exact i64 %707, 12
  %711 = call i64 @llvm.umax.i64(i64 %710, i64 1)
  %712 = add i64 %711, %710
  %713 = icmp ult i64 %712, %710
  %714 = icmp ugt i64 %712, 768614336404564650
  %715 = or i1 %713, %714
  %716 = select i1 %715, i64 768614336404564650, i64 %712
  %717 = icmp eq i64 %716, 0
  br i1 %717, label %721, label %718

718:                                              ; preds = %709
  %719 = mul nuw nsw i64 %716, 12
  %720 = invoke noalias noundef nonnull ptr @_Znwm(i64 noundef %719) #24
          to label %721 unwind label %789

721:                                              ; preds = %718, %709
  %722 = phi ptr [ null, %709 ], [ %720, %718 ]
  %723 = getelementptr inbounds %"struct.dealii::CellData.24", ptr %722, i64 %710
  store i32 %538, ptr %723, align 4, !tbaa.struct !58
  %724 = getelementptr inbounds i8, ptr %723, i64 4
  store i32 %537, ptr %724, align 4, !tbaa.struct !59
  %725 = getelementptr inbounds i8, ptr %723, i64 8
  store i8 49, ptr %725, align 4, !tbaa.struct !48
  %726 = icmp sgt i64 %707, 12
  br i1 %726, label %731, label %727, !prof !51

727:                                              ; preds = %721
  %728 = icmp eq i64 %707, 12
  br i1 %728, label %729, label %732

729:                                              ; preds = %727
  call void @llvm.memcpy.p0.p0.i64(ptr noundef nonnull align 4 dereferenceable(12) %722, ptr noundef nonnull align 4 dereferenceable(12) %704, i64 12, i1 false), !tbaa.struct !58
  %730 = getelementptr inbounds %"struct.dealii::CellData.24", ptr %723, i64 1
  br label %735

731:                                              ; preds = %721
  call void @llvm.memmove.p0.p0.i64(ptr nonnull align 4 %722, ptr align 4 %704, i64 %707, i1 false)
  br label %732

732:                                              ; preds = %731, %727
  %733 = getelementptr inbounds %"struct.dealii::CellData.24", ptr %723, i64 1
  %734 = icmp eq ptr %704, null
  br i1 %734, label %737, label %735

735:                                              ; preds = %732, %729
  %736 = phi ptr [ %730, %729 ], [ %733, %732 ]
  call void @_ZdlPv(ptr noundef nonnull %704) #25
  br label %737

737:                                              ; preds = %735, %732
  %738 = phi ptr [ %733, %732 ], [ %736, %735 ]
  store ptr %722, ptr %5, align 8, !tbaa !65
  store ptr %738, ptr %461, align 8, !tbaa !64
  %739 = getelementptr inbounds %"struct.dealii::CellData.24", ptr %722, i64 %716
  store ptr %739, ptr %462, align 8, !tbaa !62
  br label %740

740:                                              ; preds = %737, %697
  %741 = phi ptr [ %739, %737 ], [ %702, %697 ]
  %742 = phi ptr [ %738, %737 ], [ %701, %697 ]
  %743 = icmp eq ptr %742, %741
  br i1 %743, label %749, label %744

744:                                              ; preds = %740
  store i32 %541, ptr %742, align 4, !tbaa.struct !58
  %745 = getelementptr inbounds i8, ptr %742, i64 4
  store i32 %540, ptr %745, align 4, !tbaa.struct !59
  %746 = getelementptr inbounds i8, ptr %742, i64 8
  store i8 49, ptr %746, align 4, !tbaa.struct !48
  %747 = load ptr, ptr %461, align 8, !tbaa !64
  %748 = getelementptr inbounds %"struct.dealii::CellData.24", ptr %747, i64 1
  store ptr %748, ptr %461, align 8, !tbaa !64
  br label %786

749:                                              ; preds = %740
  %750 = load ptr, ptr %5, align 8, !tbaa !36
  %751 = ptrtoint ptr %741 to i64
  %752 = ptrtoint ptr %750 to i64
  %753 = sub i64 %751, %752
  %754 = icmp eq i64 %753, 9223372036854775800
  br i1 %754, label %613, label %755

755:                                              ; preds = %749
  %756 = sdiv exact i64 %753, 12
  %757 = call i64 @llvm.umax.i64(i64 %756, i64 1)
  %758 = add i64 %757, %756
  %759 = icmp ult i64 %758, %756
  %760 = icmp ugt i64 %758, 768614336404564650
  %761 = or i1 %759, %760
  %762 = select i1 %761, i64 768614336404564650, i64 %758
  %763 = icmp eq i64 %762, 0
  br i1 %763, label %767, label %764

764:                                              ; preds = %755
  %765 = mul nuw nsw i64 %762, 12
  %766 = invoke noalias noundef nonnull ptr @_Znwm(i64 noundef %765) #24
          to label %767 unwind label %789

767:                                              ; preds = %764, %755
  %768 = phi ptr [ null, %755 ], [ %766, %764 ]
  %769 = getelementptr inbounds %"struct.dealii::CellData.24", ptr %768, i64 %756
  store i32 %541, ptr %769, align 4, !tbaa.struct !58
  %770 = getelementptr inbounds i8, ptr %769, i64 4
  store i32 %540, ptr %770, align 4, !tbaa.struct !59
  %771 = getelementptr inbounds i8, ptr %769, i64 8
  store i8 49, ptr %771, align 4, !tbaa.struct !48
  %772 = icmp sgt i64 %753, 12
  br i1 %772, label %777, label %773, !prof !51

773:                                              ; preds = %767
  %774 = icmp eq i64 %753, 12
  br i1 %774, label %775, label %778

775:                                              ; preds = %773
  call void @llvm.memcpy.p0.p0.i64(ptr noundef nonnull align 4 dereferenceable(12) %768, ptr noundef nonnull align 4 dereferenceable(12) %750, i64 12, i1 false), !tbaa.struct !58
  %776 = getelementptr inbounds %"struct.dealii::CellData.24", ptr %769, i64 1
  br label %781

777:                                              ; preds = %767
  call void @llvm.memmove.p0.p0.i64(ptr nonnull align 4 %768, ptr align 4 %750, i64 %753, i1 false)
  br label %778

778:                                              ; preds = %777, %773
  %779 = getelementptr inbounds %"struct.dealii::CellData.24", ptr %769, i64 1
  %780 = icmp eq ptr %750, null
  br i1 %780, label %783, label %781

781:                                              ; preds = %778, %775
  %782 = phi ptr [ %776, %775 ], [ %779, %778 ]
  call void @_ZdlPv(ptr noundef nonnull %750) #25
  br label %783

783:                                              ; preds = %781, %778
  %784 = phi ptr [ %779, %778 ], [ %782, %781 ]
  store ptr %768, ptr %5, align 8, !tbaa !65
  store ptr %784, ptr %461, align 8, !tbaa !64
  %785 = getelementptr inbounds %"struct.dealii::CellData.24", ptr %768, i64 %762
  store ptr %785, ptr %462, align 8, !tbaa !62
  br label %786

786:                                              ; preds = %783, %744
  %787 = add nuw nsw i64 %535, 1
  %788 = icmp eq i64 %787, 8
  br i1 %788, label %524, label %534

789:                                              ; preds = %764, %718, %671, %624
  %790 = landingpad { ptr, i32 }
          cleanup
  br label %797

791:                                              ; preds = %613
  %792 = landingpad { ptr, i32 }
          cleanup
  br label %797

793:                                              ; preds = %815
  %794 = load ptr, ptr %380, align 8, !tbaa !36
  %795 = insertelement <4 x i32> poison, i32 %531, i64 0
  %796 = shufflevector <4 x i32> %795, <4 x i32> poison, <4 x i32> zeroinitializer
  br label %823

797:                                              ; preds = %599, %597, %791, %789, %520, %522, %449, %453, %451, %230, %234, %232, %455, %236, %249, %31
  %798 = phi { ptr, i32 } [ %250, %249 ], [ %32, %31 ], [ %237, %236 ], [ %456, %455 ], [ %231, %230 ], [ %233, %232 ], [ %235, %234 ], [ %450, %449 ], [ %452, %451 ], [ %454, %453 ], [ %521, %520 ], [ %523, %522 ], [ %598, %597 ], [ %600, %599 ], [ %790, %789 ], [ %792, %791 ]
  call void @llvm.lifetime.end.p0(i64 192, ptr nonnull %6) #23
  br label %2721

799:                                              ; preds = %524, %815
  %800 = phi i64 [ 0, %524 ], [ %816, %815 ]
  call void @llvm.lifetime.start.p0(i64 24, ptr nonnull %9) #23
  %801 = load ptr, ptr %3, align 8, !tbaa !41
  %802 = getelementptr inbounds %"class.dealii::Point", ptr %801, i64 %800
  %803 = load <2 x double>, ptr %802, align 8, !tbaa !5
  store <2 x double> %803, ptr %9, align 16, !tbaa !5
  store double 0.000000e+00, ptr %533, align 16, !tbaa !5
  %804 = load ptr, ptr %26, align 8, !tbaa !36
  %805 = load ptr, ptr %27, align 8, !tbaa !34
  %806 = icmp eq ptr %804, %805
  br i1 %806, label %814, label %807

807:                                              ; preds = %799
  %808 = extractelement <2 x double> %803, i64 0
  store double %808, ptr %804, align 8, !tbaa !5
  %809 = load double, ptr %532, align 8, !tbaa !5
  %810 = getelementptr inbounds [3 x double], ptr %804, i64 0, i64 1
  store double %809, ptr %810, align 8, !tbaa !5
  %811 = load double, ptr %533, align 16, !tbaa !5
  %812 = getelementptr inbounds [3 x double], ptr %804, i64 0, i64 2
  store double %811, ptr %812, align 8, !tbaa !5
  %813 = getelementptr inbounds %"class.dealii::Point", ptr %804, i64 1
  store ptr %813, ptr %26, align 8, !tbaa !40
  br label %815

814:                                              ; preds = %799
  invoke void @_ZNSt6vectorIN6dealii5PointILi3EEESaIS2_EE17_M_realloc_insertEN9__gnu_cxx17__normal_iteratorIPS2_S4_EERKS2_(ptr noundef nonnull align 8 dereferenceable(24) %3, ptr %804, ptr noundef nonnull align 8 dereferenceable(24) %9)
          to label %815 unwind label %818

815:                                              ; preds = %807, %814
  call void @llvm.lifetime.end.p0(i64 24, ptr nonnull %9) #23
  %816 = add nuw nsw i64 %800, 1
  %817 = icmp eq i64 %816, 17
  br i1 %817, label %793, label %799

818:                                              ; preds = %814
  %819 = landingpad { ptr, i32 }
          cleanup
  call void @llvm.lifetime.end.p0(i64 24, ptr nonnull %9) #23
  br label %2721

820:                                              ; preds = %874
  %821 = add i32 %531, 9
  %822 = load ptr, ptr %461, align 8, !tbaa !36
  br label %882

823:                                              ; preds = %793, %874
  %824 = phi ptr [ %794, %793 ], [ %875, %874 ]
  %825 = phi i64 [ 0, %793 ], [ %876, %874 ]
  %826 = getelementptr inbounds [12 x [4 x i32]], ptr @__const._ZN12METomography8Geometry13BreastPhantom18create_coarse_gridERN6dealii13TriangulationILi3ELi3EEE.connectivity.5, i64 0, i64 %825, i64 0
  %827 = load <4 x i32>, ptr %826, align 16, !tbaa !45
  %828 = add <4 x i32> %827, %796
  %829 = load ptr, ptr %381, align 8, !tbaa !46
  %830 = icmp eq ptr %824, %829
  br i1 %830, label %835, label %831

831:                                              ; preds = %823
  %832 = shufflevector <4 x i32> %828, <4 x i32> %827, <8 x i32> <i32 0, i32 1, i32 2, i32 3, i32 4, i32 5, i32 6, i32 7>
  store <8 x i32> %832, ptr %824, align 4
  %833 = getelementptr inbounds i8, ptr %824, i64 32
  store i8 0, ptr %833, align 4, !tbaa.struct !48
  %834 = getelementptr inbounds %"struct.dealii::CellData", ptr %824, i64 1
  store ptr %834, ptr %380, align 8, !tbaa !50
  br label %874

835:                                              ; preds = %823
  %836 = load ptr, ptr %4, align 8, !tbaa !36
  %837 = ptrtoint ptr %824 to i64
  %838 = ptrtoint ptr %836 to i64
  %839 = sub i64 %837, %838
  %840 = icmp eq i64 %839, 9223372036854775800
  br i1 %840, label %841, label %843

841:                                              ; preds = %835
  invoke void @_ZSt20__throw_length_errorPKc(ptr noundef nonnull @.str.25) #26
          to label %842 unwind label %880

842:                                              ; preds = %841
  unreachable

843:                                              ; preds = %835
  %844 = sdiv exact i64 %839, 36
  %845 = call i64 @llvm.umax.i64(i64 %844, i64 1)
  %846 = add i64 %845, %844
  %847 = icmp ult i64 %846, %844
  %848 = icmp ugt i64 %846, 256204778801521550
  %849 = or i1 %847, %848
  %850 = select i1 %849, i64 256204778801521550, i64 %846
  %851 = icmp eq i64 %850, 0
  br i1 %851, label %855, label %852

852:                                              ; preds = %843
  %853 = mul nuw nsw i64 %850, 36
  %854 = invoke noalias noundef nonnull ptr @_Znwm(i64 noundef %853) #24
          to label %855 unwind label %878

855:                                              ; preds = %852, %843
  %856 = phi ptr [ null, %843 ], [ %854, %852 ]
  %857 = getelementptr inbounds %"struct.dealii::CellData", ptr %856, i64 %844
  store <4 x i32> %828, ptr %857, align 4
  %858 = getelementptr inbounds i8, ptr %857, i64 16
  store <4 x i32> %827, ptr %858, align 4
  %859 = getelementptr inbounds i8, ptr %857, i64 32
  store i8 0, ptr %859, align 4, !tbaa.struct !48
  %860 = icmp sgt i64 %839, 36
  br i1 %860, label %861, label %862, !prof !51

861:                                              ; preds = %855
  call void @llvm.memmove.p0.p0.i64(ptr nonnull align 4 %856, ptr align 4 %836, i64 %839, i1 false)
  br label %866

862:                                              ; preds = %855
  %863 = icmp eq i64 %839, 36
  br i1 %863, label %864, label %866

864:                                              ; preds = %862
  call void @llvm.memcpy.p0.p0.i64(ptr noundef nonnull align 4 dereferenceable(36) %856, ptr noundef nonnull align 4 dereferenceable(36) %836, i64 36, i1 false), !tbaa.struct !52
  %865 = getelementptr inbounds %"struct.dealii::CellData", ptr %857, i64 1
  br label %869

866:                                              ; preds = %862, %861
  %867 = getelementptr inbounds %"struct.dealii::CellData", ptr %857, i64 1
  %868 = icmp eq ptr %836, null
  br i1 %868, label %871, label %869

869:                                              ; preds = %864, %866
  %870 = phi ptr [ %865, %864 ], [ %867, %866 ]
  call void @_ZdlPv(ptr noundef nonnull %836) #25
  br label %871

871:                                              ; preds = %869, %866
  %872 = phi ptr [ %867, %866 ], [ %870, %869 ]
  store ptr %856, ptr %4, align 8, !tbaa !53
  store ptr %872, ptr %380, align 8, !tbaa !50
  %873 = getelementptr inbounds %"struct.dealii::CellData", ptr %856, i64 %850
  store ptr %873, ptr %381, align 8, !tbaa !46
  br label %874

874:                                              ; preds = %871, %831
  %875 = phi ptr [ %872, %871 ], [ %834, %831 ]
  %876 = add nuw nsw i64 %825, 1
  %877 = icmp eq i64 %876, 12
  br i1 %877, label %820, label %823

878:                                              ; preds = %852
  %879 = landingpad { ptr, i32 }
          cleanup
  br label %2721

880:                                              ; preds = %841
  %881 = landingpad { ptr, i32 }
          cleanup
  br label %2721

882:                                              ; preds = %820, %931
  %883 = phi ptr [ %822, %820 ], [ %932, %931 ]
  %884 = phi i32 [ 0, %820 ], [ %933, %931 ]
  %885 = load ptr, ptr %462, align 8, !tbaa !62
  %886 = icmp eq ptr %883, %885
  br i1 %886, label %892, label %887

887:                                              ; preds = %882
  store i32 9, ptr %883, align 4, !tbaa.struct !58
  %888 = getelementptr inbounds i8, ptr %883, i64 4
  store i32 %821, ptr %888, align 4, !tbaa.struct !59
  %889 = getelementptr inbounds i8, ptr %883, i64 8
  store i8 50, ptr %889, align 4, !tbaa.struct !48
  %890 = load ptr, ptr %461, align 8, !tbaa !64
  %891 = getelementptr inbounds %"struct.dealii::CellData.24", ptr %890, i64 1
  store ptr %891, ptr %461, align 8, !tbaa !64
  br label %931

892:                                              ; preds = %882
  %893 = load ptr, ptr %5, align 8, !tbaa !36
  %894 = ptrtoint ptr %883 to i64
  %895 = ptrtoint ptr %893 to i64
  %896 = sub i64 %894, %895
  %897 = icmp eq i64 %896, 9223372036854775800
  br i1 %897, label %898, label %900

898:                                              ; preds = %892
  invoke void @_ZSt20__throw_length_errorPKc(ptr noundef nonnull @.str.25) #26
          to label %899 unwind label %937

899:                                              ; preds = %898
  unreachable

900:                                              ; preds = %892
  %901 = sdiv exact i64 %896, 12
  %902 = call i64 @llvm.umax.i64(i64 %901, i64 1)
  %903 = add i64 %902, %901
  %904 = icmp ult i64 %903, %901
  %905 = icmp ugt i64 %903, 768614336404564650
  %906 = or i1 %904, %905
  %907 = select i1 %906, i64 768614336404564650, i64 %903
  %908 = icmp eq i64 %907, 0
  br i1 %908, label %912, label %909

909:                                              ; preds = %900
  %910 = mul nuw nsw i64 %907, 12
  %911 = invoke noalias noundef nonnull ptr @_Znwm(i64 noundef %910) #24
          to label %912 unwind label %935

912:                                              ; preds = %909, %900
  %913 = phi ptr [ null, %900 ], [ %911, %909 ]
  %914 = getelementptr inbounds %"struct.dealii::CellData.24", ptr %913, i64 %901
  store i32 9, ptr %914, align 4, !tbaa.struct !58
  %915 = getelementptr inbounds i8, ptr %914, i64 4
  store i32 %821, ptr %915, align 4, !tbaa.struct !59
  %916 = getelementptr inbounds i8, ptr %914, i64 8
  store i8 50, ptr %916, align 4, !tbaa.struct !48
  %917 = icmp sgt i64 %896, 12
  br i1 %917, label %918, label %919, !prof !51

918:                                              ; preds = %912
  call void @llvm.memmove.p0.p0.i64(ptr nonnull align 4 %913, ptr align 4 %893, i64 %896, i1 false)
  br label %923

919:                                              ; preds = %912
  %920 = icmp eq i64 %896, 12
  br i1 %920, label %921, label %923

921:                                              ; preds = %919
  call void @llvm.memcpy.p0.p0.i64(ptr noundef nonnull align 4 dereferenceable(12) %913, ptr noundef nonnull align 4 dereferenceable(12) %893, i64 12, i1 false), !tbaa.struct !58
  %922 = getelementptr inbounds %"struct.dealii::CellData.24", ptr %914, i64 1
  br label %926

923:                                              ; preds = %919, %918
  %924 = getelementptr inbounds %"struct.dealii::CellData.24", ptr %914, i64 1
  %925 = icmp eq ptr %893, null
  br i1 %925, label %928, label %926

926:                                              ; preds = %921, %923
  %927 = phi ptr [ %922, %921 ], [ %924, %923 ]
  call void @_ZdlPv(ptr noundef nonnull %893) #25
  br label %928

928:                                              ; preds = %926, %923
  %929 = phi ptr [ %924, %923 ], [ %927, %926 ]
  store ptr %913, ptr %5, align 8, !tbaa !65
  store ptr %929, ptr %461, align 8, !tbaa !64
  %930 = getelementptr inbounds %"struct.dealii::CellData.24", ptr %913, i64 %907
  store ptr %930, ptr %462, align 8, !tbaa !62
  br label %931

931:                                              ; preds = %928, %887
  %932 = phi ptr [ %929, %928 ], [ %891, %887 ]
  %933 = add nuw nsw i32 %884, 1
  %934 = icmp eq i32 %933, 8
  br i1 %934, label %941, label %882

935:                                              ; preds = %909
  %936 = landingpad { ptr, i32 }
          cleanup
  br label %2721

937:                                              ; preds = %898
  %938 = landingpad { ptr, i32 }
          cleanup
  br label %2721

939:                                              ; preds = %994
  %940 = load ptr, ptr %459, align 8, !tbaa !36
  br label %1053

941:                                              ; preds = %931, %994
  %942 = phi ptr [ %995, %994 ], [ %932, %931 ]
  %943 = phi i32 [ %945, %994 ], [ 0, %931 ]
  %944 = add nuw nsw i32 %943, 9
  %945 = add nuw nsw i32 %943, 1
  %946 = and i32 %945, 7
  %947 = add nuw nsw i32 %946, 9
  %948 = load ptr, ptr %462, align 8, !tbaa !62
  %949 = icmp eq ptr %942, %948
  br i1 %949, label %955, label %950

950:                                              ; preds = %941
  store i32 %944, ptr %942, align 4, !tbaa.struct !58
  %951 = getelementptr inbounds i8, ptr %942, i64 4
  store i32 %947, ptr %951, align 4, !tbaa.struct !59
  %952 = getelementptr inbounds i8, ptr %942, i64 8
  store i8 50, ptr %952, align 4, !tbaa.struct !48
  %953 = load ptr, ptr %461, align 8, !tbaa !64
  %954 = getelementptr inbounds %"struct.dealii::CellData.24", ptr %953, i64 1
  store ptr %954, ptr %461, align 8, !tbaa !64
  br label %994

955:                                              ; preds = %941
  %956 = load ptr, ptr %5, align 8, !tbaa !36
  %957 = ptrtoint ptr %942 to i64
  %958 = ptrtoint ptr %956 to i64
  %959 = sub i64 %957, %958
  %960 = icmp eq i64 %959, 9223372036854775800
  br i1 %960, label %961, label %963

961:                                              ; preds = %955
  invoke void @_ZSt20__throw_length_errorPKc(ptr noundef nonnull @.str.25) #26
          to label %962 unwind label %999

962:                                              ; preds = %961
  unreachable

963:                                              ; preds = %955
  %964 = sdiv exact i64 %959, 12
  %965 = call i64 @llvm.umax.i64(i64 %964, i64 1)
  %966 = add i64 %965, %964
  %967 = icmp ult i64 %966, %964
  %968 = icmp ugt i64 %966, 768614336404564650
  %969 = or i1 %967, %968
  %970 = select i1 %969, i64 768614336404564650, i64 %966
  %971 = icmp eq i64 %970, 0
  br i1 %971, label %975, label %972

972:                                              ; preds = %963
  %973 = mul nuw nsw i64 %970, 12
  %974 = invoke noalias noundef nonnull ptr @_Znwm(i64 noundef %973) #24
          to label %975 unwind label %997

975:                                              ; preds = %972, %963
  %976 = phi ptr [ null, %963 ], [ %974, %972 ]
  %977 = getelementptr inbounds %"struct.dealii::CellData.24", ptr %976, i64 %964
  store i32 %944, ptr %977, align 4, !tbaa.struct !58
  %978 = getelementptr inbounds i8, ptr %977, i64 4
  store i32 %947, ptr %978, align 4, !tbaa.struct !59
  %979 = getelementptr inbounds i8, ptr %977, i64 8
  store i8 50, ptr %979, align 4, !tbaa.struct !48
  %980 = icmp sgt i64 %959, 12
  br i1 %980, label %981, label %982, !prof !51

981:                                              ; preds = %975
  call void @llvm.memmove.p0.p0.i64(ptr nonnull align 4 %976, ptr align 4 %956, i64 %959, i1 false)
  br label %986

982:                                              ; preds = %975
  %983 = icmp eq i64 %959, 12
  br i1 %983, label %984, label %986

984:                                              ; preds = %982
  call void @llvm.memcpy.p0.p0.i64(ptr noundef nonnull align 4 dereferenceable(12) %976, ptr noundef nonnull align 4 dereferenceable(12) %956, i64 12, i1 false), !tbaa.struct !58
  %985 = getelementptr inbounds %"struct.dealii::CellData.24", ptr %977, i64 1
  br label %989

986:                                              ; preds = %982, %981
  %987 = getelementptr inbounds %"struct.dealii::CellData.24", ptr %977, i64 1
  %988 = icmp eq ptr %956, null
  br i1 %988, label %991, label %989

989:                                              ; preds = %984, %986
  %990 = phi ptr [ %985, %984 ], [ %987, %986 ]
  call void @_ZdlPv(ptr noundef nonnull %956) #25
  br label %991

991:                                              ; preds = %989, %986
  %992 = phi ptr [ %987, %986 ], [ %990, %989 ]
  store ptr %976, ptr %5, align 8, !tbaa !65
  store ptr %992, ptr %461, align 8, !tbaa !64
  %993 = getelementptr inbounds %"struct.dealii::CellData.24", ptr %976, i64 %970
  store ptr %993, ptr %462, align 8, !tbaa !62
  br label %994

994:                                              ; preds = %991, %950
  %995 = phi ptr [ %992, %991 ], [ %954, %950 ]
  %996 = icmp eq i32 %945, 8
  br i1 %996, label %939, label %941

997:                                              ; preds = %972
  %998 = landingpad { ptr, i32 }
          cleanup
  br label %2721

999:                                              ; preds = %961
  %1000 = landingpad { ptr, i32 }
          cleanup
  br label %2721

1001:                                             ; preds = %1112
  %1002 = getelementptr inbounds [3 x double], ptr %10, i64 0, i64 1
  %1003 = getelementptr inbounds [3 x double], ptr %10, i64 0, i64 2
  %1004 = load ptr, ptr %3, align 8, !tbaa !41
  %1005 = load <2 x double>, ptr %1004, align 8, !tbaa !5
  call void @llvm.lifetime.start.p0(i64 24, ptr nonnull %10) #23
  %1006 = extractelement <2 x double> %1005, i64 0
  %1007 = call double @llvm.fmuladd.f64(double %1006, double %1006, double 0.000000e+00)
  %1008 = extractelement <2 x double> %1005, i64 1
  %1009 = call double @llvm.fmuladd.f64(double %1008, double %1008, double %1007)
  %1010 = fadd double %1009, 1.000000e+00
  %1011 = call double @llvm.sqrt.f64(double %1010)
  %1012 = insertelement <2 x double> poison, double %1011, i64 0
  %1013 = shufflevector <2 x double> %1012, <2 x double> poison, <2 x i32> zeroinitializer
  %1014 = fdiv <2 x double> %1005, %1013
  %1015 = fdiv double 1.000000e+00, %1011
  %1016 = fmul <2 x double> %1014, <double 0x3FFD483344DCBFAA, double 0x3FFD483344DCBFAA>
  %1017 = fmul double %1015, 0x3FFD483344DCBFAA
  store <2 x double> %1016, ptr %10, align 16, !tbaa !5, !alias.scope !66
  store double %1017, ptr %1003, align 16, !tbaa !5, !alias.scope !66
  %1018 = load ptr, ptr %26, align 8, !tbaa !36
  %1019 = load ptr, ptr %27, align 8, !tbaa !34
  %1020 = icmp eq ptr %1018, %1019
  br i1 %1020, label %1028, label %1021

1021:                                             ; preds = %1001
  %1022 = extractelement <2 x double> %1016, i64 0
  store double %1022, ptr %1018, align 8, !tbaa !5
  %1023 = load double, ptr %1002, align 8, !tbaa !5
  %1024 = getelementptr inbounds [3 x double], ptr %1018, i64 0, i64 1
  store double %1023, ptr %1024, align 8, !tbaa !5
  %1025 = load double, ptr %1003, align 16, !tbaa !5
  %1026 = getelementptr inbounds [3 x double], ptr %1018, i64 0, i64 2
  store double %1025, ptr %1026, align 8, !tbaa !5
  %1027 = getelementptr inbounds %"class.dealii::Point", ptr %1018, i64 1
  store ptr %1027, ptr %26, align 8, !tbaa !40
  br label %1029

1028:                                             ; preds = %1001
  invoke void @_ZNSt6vectorIN6dealii5PointILi3EEESaIS2_EE17_M_realloc_insertEN9__gnu_cxx17__normal_iteratorIPS2_S4_EERKS2_(ptr noundef nonnull align 8 dereferenceable(24) %3, ptr %1018, ptr noundef nonnull align 8 dereferenceable(24) %10)
          to label %1029 unwind label %1379

1029:                                             ; preds = %1021, %1028
  call void @llvm.lifetime.end.p0(i64 24, ptr nonnull %10) #23
  %1030 = load ptr, ptr %3, align 8, !tbaa !41
  %1031 = getelementptr inbounds %"class.dealii::Point", ptr %1030, i64 1
  %1032 = load <2 x double>, ptr %1031, align 8, !tbaa !5
  %1033 = call <2 x double> @llvm.fabs.v2f64(<2 x double> %1032)
  %1034 = extractelement <2 x double> %1033, i64 0
  %1035 = extractelement <2 x double> %1033, i64 1
  %1036 = fcmp olt double %1034, %1035
  %1037 = select i1 %1036, double %1035, double %1034
  call void @llvm.lifetime.start.p0(i64 24, ptr nonnull %10) #23
  %1038 = extractelement <2 x double> %1032, i64 0
  %1039 = call double @llvm.fmuladd.f64(double %1038, double %1038, double 0.000000e+00)
  %1040 = extractelement <2 x double> %1032, i64 1
  %1041 = call double @llvm.fmuladd.f64(double %1040, double %1040, double %1039)
  %1042 = call double @llvm.fmuladd.f64(double %1037, double %1037, double %1041)
  %1043 = call double @llvm.sqrt.f64(double %1042)
  %1044 = insertelement <2 x double> poison, double %1043, i64 0
  %1045 = shufflevector <2 x double> %1044, <2 x double> poison, <2 x i32> zeroinitializer
  %1046 = fdiv <2 x double> %1032, %1045
  %1047 = fdiv double %1037, %1043
  %1048 = fmul <2 x double> %1046, <double 0x3FFD483344DCBFAA, double 0x3FFD483344DCBFAA>
  %1049 = fmul double %1047, 0x3FFD483344DCBFAA
  store <2 x double> %1048, ptr %10, align 16, !tbaa !5, !alias.scope !66
  store double %1049, ptr %1003, align 16, !tbaa !5, !alias.scope !66
  %1050 = load ptr, ptr %26, align 8, !tbaa !36
  %1051 = load ptr, ptr %27, align 8, !tbaa !34
  %1052 = icmp eq ptr %1050, %1051
  br i1 %1052, label %1126, label %1119

1053:                                             ; preds = %939, %1112
  %1054 = phi ptr [ %940, %939 ], [ %1113, %1112 ]
  %1055 = phi i32 [ 0, %939 ], [ %1057, %1112 ]
  %1056 = add nuw nsw i32 %1055, 9
  %1057 = add nuw nsw i32 %1055, 1
  %1058 = and i32 %1057, 7
  %1059 = add nuw nsw i32 %1058, 9
  %1060 = add i32 %1059, %531
  %1061 = add i32 %1056, %531
  %1062 = load ptr, ptr %460, align 8, !tbaa !54
  %1063 = icmp eq ptr %1054, %1062
  br i1 %1063, label %1071, label %1064

1064:                                             ; preds = %1053
  store i32 %1056, ptr %1054, align 4, !tbaa.struct !56
  %1065 = getelementptr inbounds i8, ptr %1054, i64 4
  store i32 %1059, ptr %1065, align 4, !tbaa.struct !57
  %1066 = getelementptr inbounds i8, ptr %1054, i64 8
  store i32 %1060, ptr %1066, align 4, !tbaa.struct !58
  %1067 = getelementptr inbounds i8, ptr %1054, i64 12
  store i32 %1061, ptr %1067, align 4, !tbaa.struct !59
  %1068 = getelementptr inbounds i8, ptr %1054, i64 16
  store i8 50, ptr %1068, align 4, !tbaa.struct !48
  %1069 = load ptr, ptr %459, align 8, !tbaa !60
  %1070 = getelementptr inbounds %"struct.dealii::CellData.23", ptr %1069, i64 1
  store ptr %1070, ptr %459, align 8, !tbaa !60
  br label %1112

1071:                                             ; preds = %1053
  %1072 = load ptr, ptr %458, align 8, !tbaa !36
  %1073 = ptrtoint ptr %1054 to i64
  %1074 = ptrtoint ptr %1072 to i64
  %1075 = sub i64 %1073, %1074
  %1076 = icmp eq i64 %1075, 9223372036854775800
  br i1 %1076, label %1077, label %1079

1077:                                             ; preds = %1071
  invoke void @_ZSt20__throw_length_errorPKc(ptr noundef nonnull @.str.25) #26
          to label %1078 unwind label %1117

1078:                                             ; preds = %1077
  unreachable

1079:                                             ; preds = %1071
  %1080 = sdiv exact i64 %1075, 20
  %1081 = call i64 @llvm.umax.i64(i64 %1080, i64 1)
  %1082 = add i64 %1081, %1080
  %1083 = icmp ult i64 %1082, %1080
  %1084 = icmp ugt i64 %1082, 461168601842738790
  %1085 = or i1 %1083, %1084
  %1086 = select i1 %1085, i64 461168601842738790, i64 %1082
  %1087 = icmp eq i64 %1086, 0
  br i1 %1087, label %1091, label %1088

1088:                                             ; preds = %1079
  %1089 = mul nuw nsw i64 %1086, 20
  %1090 = invoke noalias noundef nonnull ptr @_Znwm(i64 noundef %1089) #24
          to label %1091 unwind label %1115

1091:                                             ; preds = %1088, %1079
  %1092 = phi ptr [ null, %1079 ], [ %1090, %1088 ]
  %1093 = getelementptr inbounds %"struct.dealii::CellData.23", ptr %1092, i64 %1080
  store i32 %1056, ptr %1093, align 4, !tbaa.struct !56
  %1094 = getelementptr inbounds i8, ptr %1093, i64 4
  store i32 %1059, ptr %1094, align 4, !tbaa.struct !57
  %1095 = getelementptr inbounds i8, ptr %1093, i64 8
  store i32 %1060, ptr %1095, align 4, !tbaa.struct !58
  %1096 = getelementptr inbounds i8, ptr %1093, i64 12
  store i32 %1061, ptr %1096, align 4, !tbaa.struct !59
  %1097 = getelementptr inbounds i8, ptr %1093, i64 16
  store i8 50, ptr %1097, align 4, !tbaa.struct !48
  %1098 = icmp sgt i64 %1075, 20
  br i1 %1098, label %1099, label %1100, !prof !51

1099:                                             ; preds = %1091
  call void @llvm.memmove.p0.p0.i64(ptr nonnull align 4 %1092, ptr align 4 %1072, i64 %1075, i1 false)
  br label %1104

1100:                                             ; preds = %1091
  %1101 = icmp eq i64 %1075, 20
  br i1 %1101, label %1102, label %1104

1102:                                             ; preds = %1100
  call void @llvm.memcpy.p0.p0.i64(ptr noundef nonnull align 4 dereferenceable(20) %1092, ptr noundef nonnull align 4 dereferenceable(20) %1072, i64 20, i1 false), !tbaa.struct !56
  %1103 = getelementptr inbounds %"struct.dealii::CellData.23", ptr %1093, i64 1
  br label %1107

1104:                                             ; preds = %1100, %1099
  %1105 = getelementptr inbounds %"struct.dealii::CellData.23", ptr %1093, i64 1
  %1106 = icmp eq ptr %1072, null
  br i1 %1106, label %1109, label %1107

1107:                                             ; preds = %1102, %1104
  %1108 = phi ptr [ %1103, %1102 ], [ %1105, %1104 ]
  call void @_ZdlPv(ptr noundef nonnull %1072) #25
  br label %1109

1109:                                             ; preds = %1107, %1104
  %1110 = phi ptr [ %1105, %1104 ], [ %1108, %1107 ]
  store ptr %1092, ptr %458, align 8, !tbaa !61
  store ptr %1110, ptr %459, align 8, !tbaa !60
  %1111 = getelementptr inbounds %"struct.dealii::CellData.23", ptr %1092, i64 %1086
  store ptr %1111, ptr %460, align 8, !tbaa !54
  br label %1112

1112:                                             ; preds = %1109, %1064
  %1113 = phi ptr [ %1110, %1109 ], [ %1070, %1064 ]
  %1114 = icmp eq i32 %1057, 8
  br i1 %1114, label %1001, label %1053

1115:                                             ; preds = %1088
  %1116 = landingpad { ptr, i32 }
          cleanup
  br label %2721

1117:                                             ; preds = %1077
  %1118 = landingpad { ptr, i32 }
          cleanup
  br label %2721

1119:                                             ; preds = %1029
  %1120 = extractelement <2 x double> %1048, i64 0
  store double %1120, ptr %1050, align 8, !tbaa !5
  %1121 = load double, ptr %1002, align 8, !tbaa !5
  %1122 = getelementptr inbounds [3 x double], ptr %1050, i64 0, i64 1
  store double %1121, ptr %1122, align 8, !tbaa !5
  %1123 = load double, ptr %1003, align 16, !tbaa !5
  %1124 = getelementptr inbounds [3 x double], ptr %1050, i64 0, i64 2
  store double %1123, ptr %1124, align 8, !tbaa !5
  %1125 = getelementptr inbounds %"class.dealii::Point", ptr %1050, i64 1
  store ptr %1125, ptr %26, align 8, !tbaa !40
  br label %1127

1126:                                             ; preds = %1029
  invoke void @_ZNSt6vectorIN6dealii5PointILi3EEESaIS2_EE17_M_realloc_insertEN9__gnu_cxx17__normal_iteratorIPS2_S4_EERKS2_(ptr noundef nonnull align 8 dereferenceable(24) %3, ptr %1050, ptr noundef nonnull align 8 dereferenceable(24) %10)
          to label %1127 unwind label %1377

1127:                                             ; preds = %1119, %1126
  call void @llvm.lifetime.end.p0(i64 24, ptr nonnull %10) #23
  %1128 = load ptr, ptr %3, align 8, !tbaa !41
  %1129 = getelementptr inbounds %"class.dealii::Point", ptr %1128, i64 2
  %1130 = load <2 x double>, ptr %1129, align 8, !tbaa !5
  %1131 = call <2 x double> @llvm.fabs.v2f64(<2 x double> %1130)
  %1132 = extractelement <2 x double> %1131, i64 0
  %1133 = extractelement <2 x double> %1131, i64 1
  %1134 = fcmp olt double %1132, %1133
  %1135 = select i1 %1134, double %1133, double %1132
  call void @llvm.lifetime.start.p0(i64 24, ptr nonnull %10) #23
  %1136 = extractelement <2 x double> %1130, i64 0
  %1137 = call double @llvm.fmuladd.f64(double %1136, double %1136, double 0.000000e+00)
  %1138 = extractelement <2 x double> %1130, i64 1
  %1139 = call double @llvm.fmuladd.f64(double %1138, double %1138, double %1137)
  %1140 = call double @llvm.fmuladd.f64(double %1135, double %1135, double %1139)
  %1141 = call double @llvm.sqrt.f64(double %1140)
  %1142 = insertelement <2 x double> poison, double %1141, i64 0
  %1143 = shufflevector <2 x double> %1142, <2 x double> poison, <2 x i32> zeroinitializer
  %1144 = fdiv <2 x double> %1130, %1143
  %1145 = fdiv double %1135, %1141
  %1146 = fmul <2 x double> %1144, <double 0x3FFD483344DCBFAA, double 0x3FFD483344DCBFAA>
  %1147 = fmul double %1145, 0x3FFD483344DCBFAA
  store <2 x double> %1146, ptr %10, align 16, !tbaa !5, !alias.scope !66
  store double %1147, ptr %1003, align 16, !tbaa !5, !alias.scope !66
  %1148 = load ptr, ptr %26, align 8, !tbaa !36
  %1149 = load ptr, ptr %27, align 8, !tbaa !34
  %1150 = icmp eq ptr %1148, %1149
  br i1 %1150, label %1158, label %1151

1151:                                             ; preds = %1127
  %1152 = extractelement <2 x double> %1146, i64 0
  store double %1152, ptr %1148, align 8, !tbaa !5
  %1153 = load double, ptr %1002, align 8, !tbaa !5
  %1154 = getelementptr inbounds [3 x double], ptr %1148, i64 0, i64 1
  store double %1153, ptr %1154, align 8, !tbaa !5
  %1155 = load double, ptr %1003, align 16, !tbaa !5
  %1156 = getelementptr inbounds [3 x double], ptr %1148, i64 0, i64 2
  store double %1155, ptr %1156, align 8, !tbaa !5
  %1157 = getelementptr inbounds %"class.dealii::Point", ptr %1148, i64 1
  store ptr %1157, ptr %26, align 8, !tbaa !40
  br label %1159

1158:                                             ; preds = %1127
  invoke void @_ZNSt6vectorIN6dealii5PointILi3EEESaIS2_EE17_M_realloc_insertEN9__gnu_cxx17__normal_iteratorIPS2_S4_EERKS2_(ptr noundef nonnull align 8 dereferenceable(24) %3, ptr %1148, ptr noundef nonnull align 8 dereferenceable(24) %10)
          to label %1159 unwind label %1377

1159:                                             ; preds = %1158, %1151
  call void @llvm.lifetime.end.p0(i64 24, ptr nonnull %10) #23
  %1160 = load ptr, ptr %3, align 8, !tbaa !41
  %1161 = getelementptr inbounds %"class.dealii::Point", ptr %1160, i64 3
  %1162 = load <2 x double>, ptr %1161, align 8, !tbaa !5
  %1163 = call <2 x double> @llvm.fabs.v2f64(<2 x double> %1162)
  %1164 = extractelement <2 x double> %1163, i64 0
  %1165 = extractelement <2 x double> %1163, i64 1
  %1166 = fcmp olt double %1164, %1165
  %1167 = select i1 %1166, double %1165, double %1164
  call void @llvm.lifetime.start.p0(i64 24, ptr nonnull %10) #23
  %1168 = extractelement <2 x double> %1162, i64 0
  %1169 = call double @llvm.fmuladd.f64(double %1168, double %1168, double 0.000000e+00)
  %1170 = extractelement <2 x double> %1162, i64 1
  %1171 = call double @llvm.fmuladd.f64(double %1170, double %1170, double %1169)
  %1172 = call double @llvm.fmuladd.f64(double %1167, double %1167, double %1171)
  %1173 = call double @llvm.sqrt.f64(double %1172)
  %1174 = insertelement <2 x double> poison, double %1173, i64 0
  %1175 = shufflevector <2 x double> %1174, <2 x double> poison, <2 x i32> zeroinitializer
  %1176 = fdiv <2 x double> %1162, %1175
  %1177 = fdiv double %1167, %1173
  %1178 = fmul <2 x double> %1176, <double 0x3FFD483344DCBFAA, double 0x3FFD483344DCBFAA>
  %1179 = fmul double %1177, 0x3FFD483344DCBFAA
  store <2 x double> %1178, ptr %10, align 16, !tbaa !5, !alias.scope !66
  store double %1179, ptr %1003, align 16, !tbaa !5, !alias.scope !66
  %1180 = load ptr, ptr %26, align 8, !tbaa !36
  %1181 = load ptr, ptr %27, align 8, !tbaa !34
  %1182 = icmp eq ptr %1180, %1181
  br i1 %1182, label %1190, label %1183

1183:                                             ; preds = %1159
  %1184 = extractelement <2 x double> %1178, i64 0
  store double %1184, ptr %1180, align 8, !tbaa !5
  %1185 = load double, ptr %1002, align 8, !tbaa !5
  %1186 = getelementptr inbounds [3 x double], ptr %1180, i64 0, i64 1
  store double %1185, ptr %1186, align 8, !tbaa !5
  %1187 = load double, ptr %1003, align 16, !tbaa !5
  %1188 = getelementptr inbounds [3 x double], ptr %1180, i64 0, i64 2
  store double %1187, ptr %1188, align 8, !tbaa !5
  %1189 = getelementptr inbounds %"class.dealii::Point", ptr %1180, i64 1
  store ptr %1189, ptr %26, align 8, !tbaa !40
  br label %1191

1190:                                             ; preds = %1159
  invoke void @_ZNSt6vectorIN6dealii5PointILi3EEESaIS2_EE17_M_realloc_insertEN9__gnu_cxx17__normal_iteratorIPS2_S4_EERKS2_(ptr noundef nonnull align 8 dereferenceable(24) %3, ptr %1180, ptr noundef nonnull align 8 dereferenceable(24) %10)
          to label %1191 unwind label %1377

1191:                                             ; preds = %1190, %1183
  call void @llvm.lifetime.end.p0(i64 24, ptr nonnull %10) #23
  %1192 = load ptr, ptr %3, align 8, !tbaa !41
  %1193 = getelementptr inbounds %"class.dealii::Point", ptr %1192, i64 4
  %1194 = load <2 x double>, ptr %1193, align 8, !tbaa !5
  %1195 = call <2 x double> @llvm.fabs.v2f64(<2 x double> %1194)
  %1196 = extractelement <2 x double> %1195, i64 0
  %1197 = extractelement <2 x double> %1195, i64 1
  %1198 = fcmp olt double %1196, %1197
  %1199 = select i1 %1198, double %1197, double %1196
  call void @llvm.lifetime.start.p0(i64 24, ptr nonnull %10) #23
  %1200 = extractelement <2 x double> %1194, i64 0
  %1201 = call double @llvm.fmuladd.f64(double %1200, double %1200, double 0.000000e+00)
  %1202 = extractelement <2 x double> %1194, i64 1
  %1203 = call double @llvm.fmuladd.f64(double %1202, double %1202, double %1201)
  %1204 = call double @llvm.fmuladd.f64(double %1199, double %1199, double %1203)
  %1205 = call double @llvm.sqrt.f64(double %1204)
  %1206 = insertelement <2 x double> poison, double %1205, i64 0
  %1207 = shufflevector <2 x double> %1206, <2 x double> poison, <2 x i32> zeroinitializer
  %1208 = fdiv <2 x double> %1194, %1207
  %1209 = fdiv double %1199, %1205
  %1210 = fmul <2 x double> %1208, <double 0x3FFD483344DCBFAA, double 0x3FFD483344DCBFAA>
  %1211 = fmul double %1209, 0x3FFD483344DCBFAA
  store <2 x double> %1210, ptr %10, align 16, !tbaa !5, !alias.scope !66
  store double %1211, ptr %1003, align 16, !tbaa !5, !alias.scope !66
  %1212 = load ptr, ptr %26, align 8, !tbaa !36
  %1213 = load ptr, ptr %27, align 8, !tbaa !34
  %1214 = icmp eq ptr %1212, %1213
  br i1 %1214, label %1222, label %1215

1215:                                             ; preds = %1191
  %1216 = extractelement <2 x double> %1210, i64 0
  store double %1216, ptr %1212, align 8, !tbaa !5
  %1217 = load double, ptr %1002, align 8, !tbaa !5
  %1218 = getelementptr inbounds [3 x double], ptr %1212, i64 0, i64 1
  store double %1217, ptr %1218, align 8, !tbaa !5
  %1219 = load double, ptr %1003, align 16, !tbaa !5
  %1220 = getelementptr inbounds [3 x double], ptr %1212, i64 0, i64 2
  store double %1219, ptr %1220, align 8, !tbaa !5
  %1221 = getelementptr inbounds %"class.dealii::Point", ptr %1212, i64 1
  store ptr %1221, ptr %26, align 8, !tbaa !40
  br label %1223

1222:                                             ; preds = %1191
  invoke void @_ZNSt6vectorIN6dealii5PointILi3EEESaIS2_EE17_M_realloc_insertEN9__gnu_cxx17__normal_iteratorIPS2_S4_EERKS2_(ptr noundef nonnull align 8 dereferenceable(24) %3, ptr %1212, ptr noundef nonnull align 8 dereferenceable(24) %10)
          to label %1223 unwind label %1377

1223:                                             ; preds = %1222, %1215
  call void @llvm.lifetime.end.p0(i64 24, ptr nonnull %10) #23
  %1224 = load ptr, ptr %3, align 8, !tbaa !41
  %1225 = getelementptr inbounds %"class.dealii::Point", ptr %1224, i64 5
  %1226 = load <2 x double>, ptr %1225, align 8, !tbaa !5
  %1227 = call <2 x double> @llvm.fabs.v2f64(<2 x double> %1226)
  %1228 = extractelement <2 x double> %1227, i64 0
  %1229 = extractelement <2 x double> %1227, i64 1
  %1230 = fcmp olt double %1228, %1229
  %1231 = select i1 %1230, double %1229, double %1228
  call void @llvm.lifetime.start.p0(i64 24, ptr nonnull %10) #23
  %1232 = extractelement <2 x double> %1226, i64 0
  %1233 = call double @llvm.fmuladd.f64(double %1232, double %1232, double 0.000000e+00)
  %1234 = extractelement <2 x double> %1226, i64 1
  %1235 = call double @llvm.fmuladd.f64(double %1234, double %1234, double %1233)
  %1236 = call double @llvm.fmuladd.f64(double %1231, double %1231, double %1235)
  %1237 = call double @llvm.sqrt.f64(double %1236)
  %1238 = insertelement <2 x double> poison, double %1237, i64 0
  %1239 = shufflevector <2 x double> %1238, <2 x double> poison, <2 x i32> zeroinitializer
  %1240 = fdiv <2 x double> %1226, %1239
  %1241 = fdiv double %1231, %1237
  %1242 = fmul <2 x double> %1240, <double 0x3FFD483344DCBFAA, double 0x3FFD483344DCBFAA>
  %1243 = fmul double %1241, 0x3FFD483344DCBFAA
  store <2 x double> %1242, ptr %10, align 16, !tbaa !5, !alias.scope !66
  store double %1243, ptr %1003, align 16, !tbaa !5, !alias.scope !66
  %1244 = load ptr, ptr %26, align 8, !tbaa !36
  %1245 = load ptr, ptr %27, align 8, !tbaa !34
  %1246 = icmp eq ptr %1244, %1245
  br i1 %1246, label %1254, label %1247

1247:                                             ; preds = %1223
  %1248 = extractelement <2 x double> %1242, i64 0
  store double %1248, ptr %1244, align 8, !tbaa !5
  %1249 = load double, ptr %1002, align 8, !tbaa !5
  %1250 = getelementptr inbounds [3 x double], ptr %1244, i64 0, i64 1
  store double %1249, ptr %1250, align 8, !tbaa !5
  %1251 = load double, ptr %1003, align 16, !tbaa !5
  %1252 = getelementptr inbounds [3 x double], ptr %1244, i64 0, i64 2
  store double %1251, ptr %1252, align 8, !tbaa !5
  %1253 = getelementptr inbounds %"class.dealii::Point", ptr %1244, i64 1
  store ptr %1253, ptr %26, align 8, !tbaa !40
  br label %1255

1254:                                             ; preds = %1223
  invoke void @_ZNSt6vectorIN6dealii5PointILi3EEESaIS2_EE17_M_realloc_insertEN9__gnu_cxx17__normal_iteratorIPS2_S4_EERKS2_(ptr noundef nonnull align 8 dereferenceable(24) %3, ptr %1244, ptr noundef nonnull align 8 dereferenceable(24) %10)
          to label %1255 unwind label %1377

1255:                                             ; preds = %1254, %1247
  call void @llvm.lifetime.end.p0(i64 24, ptr nonnull %10) #23
  %1256 = load ptr, ptr %3, align 8, !tbaa !41
  %1257 = getelementptr inbounds %"class.dealii::Point", ptr %1256, i64 6
  %1258 = load <2 x double>, ptr %1257, align 8, !tbaa !5
  %1259 = call <2 x double> @llvm.fabs.v2f64(<2 x double> %1258)
  %1260 = extractelement <2 x double> %1259, i64 0
  %1261 = extractelement <2 x double> %1259, i64 1
  %1262 = fcmp olt double %1260, %1261
  %1263 = select i1 %1262, double %1261, double %1260
  call void @llvm.lifetime.start.p0(i64 24, ptr nonnull %10) #23
  %1264 = extractelement <2 x double> %1258, i64 0
  %1265 = call double @llvm.fmuladd.f64(double %1264, double %1264, double 0.000000e+00)
  %1266 = extractelement <2 x double> %1258, i64 1
  %1267 = call double @llvm.fmuladd.f64(double %1266, double %1266, double %1265)
  %1268 = call double @llvm.fmuladd.f64(double %1263, double %1263, double %1267)
  %1269 = call double @llvm.sqrt.f64(double %1268)
  %1270 = insertelement <2 x double> poison, double %1269, i64 0
  %1271 = shufflevector <2 x double> %1270, <2 x double> poison, <2 x i32> zeroinitializer
  %1272 = fdiv <2 x double> %1258, %1271
  %1273 = fdiv double %1263, %1269
  %1274 = fmul <2 x double> %1272, <double 0x3FFD483344DCBFAA, double 0x3FFD483344DCBFAA>
  %1275 = fmul double %1273, 0x3FFD483344DCBFAA
  store <2 x double> %1274, ptr %10, align 16, !tbaa !5, !alias.scope !66
  store double %1275, ptr %1003, align 16, !tbaa !5, !alias.scope !66
  %1276 = load ptr, ptr %26, align 8, !tbaa !36
  %1277 = load ptr, ptr %27, align 8, !tbaa !34
  %1278 = icmp eq ptr %1276, %1277
  br i1 %1278, label %1286, label %1279

1279:                                             ; preds = %1255
  %1280 = extractelement <2 x double> %1274, i64 0
  store double %1280, ptr %1276, align 8, !tbaa !5
  %1281 = load double, ptr %1002, align 8, !tbaa !5
  %1282 = getelementptr inbounds [3 x double], ptr %1276, i64 0, i64 1
  store double %1281, ptr %1282, align 8, !tbaa !5
  %1283 = load double, ptr %1003, align 16, !tbaa !5
  %1284 = getelementptr inbounds [3 x double], ptr %1276, i64 0, i64 2
  store double %1283, ptr %1284, align 8, !tbaa !5
  %1285 = getelementptr inbounds %"class.dealii::Point", ptr %1276, i64 1
  store ptr %1285, ptr %26, align 8, !tbaa !40
  br label %1287

1286:                                             ; preds = %1255
  invoke void @_ZNSt6vectorIN6dealii5PointILi3EEESaIS2_EE17_M_realloc_insertEN9__gnu_cxx17__normal_iteratorIPS2_S4_EERKS2_(ptr noundef nonnull align 8 dereferenceable(24) %3, ptr %1276, ptr noundef nonnull align 8 dereferenceable(24) %10)
          to label %1287 unwind label %1377

1287:                                             ; preds = %1286, %1279
  call void @llvm.lifetime.end.p0(i64 24, ptr nonnull %10) #23
  %1288 = load ptr, ptr %3, align 8, !tbaa !41
  %1289 = getelementptr inbounds %"class.dealii::Point", ptr %1288, i64 7
  %1290 = load <2 x double>, ptr %1289, align 8, !tbaa !5
  %1291 = call <2 x double> @llvm.fabs.v2f64(<2 x double> %1290)
  %1292 = extractelement <2 x double> %1291, i64 0
  %1293 = extractelement <2 x double> %1291, i64 1
  %1294 = fcmp olt double %1292, %1293
  %1295 = select i1 %1294, double %1293, double %1292
  call void @llvm.lifetime.start.p0(i64 24, ptr nonnull %10) #23
  %1296 = extractelement <2 x double> %1290, i64 0
  %1297 = call double @llvm.fmuladd.f64(double %1296, double %1296, double 0.000000e+00)
  %1298 = extractelement <2 x double> %1290, i64 1
  %1299 = call double @llvm.fmuladd.f64(double %1298, double %1298, double %1297)
  %1300 = call double @llvm.fmuladd.f64(double %1295, double %1295, double %1299)
  %1301 = call double @llvm.sqrt.f64(double %1300)
  %1302 = insertelement <2 x double> poison, double %1301, i64 0
  %1303 = shufflevector <2 x double> %1302, <2 x double> poison, <2 x i32> zeroinitializer
  %1304 = fdiv <2 x double> %1290, %1303
  %1305 = fdiv double %1295, %1301
  %1306 = fmul <2 x double> %1304, <double 0x3FFD483344DCBFAA, double 0x3FFD483344DCBFAA>
  %1307 = fmul double %1305, 0x3FFD483344DCBFAA
  store <2 x double> %1306, ptr %10, align 16, !tbaa !5, !alias.scope !66
  store double %1307, ptr %1003, align 16, !tbaa !5, !alias.scope !66
  %1308 = load ptr, ptr %26, align 8, !tbaa !36
  %1309 = load ptr, ptr %27, align 8, !tbaa !34
  %1310 = icmp eq ptr %1308, %1309
  br i1 %1310, label %1318, label %1311

1311:                                             ; preds = %1287
  %1312 = extractelement <2 x double> %1306, i64 0
  store double %1312, ptr %1308, align 8, !tbaa !5
  %1313 = load double, ptr %1002, align 8, !tbaa !5
  %1314 = getelementptr inbounds [3 x double], ptr %1308, i64 0, i64 1
  store double %1313, ptr %1314, align 8, !tbaa !5
  %1315 = load double, ptr %1003, align 16, !tbaa !5
  %1316 = getelementptr inbounds [3 x double], ptr %1308, i64 0, i64 2
  store double %1315, ptr %1316, align 8, !tbaa !5
  %1317 = getelementptr inbounds %"class.dealii::Point", ptr %1308, i64 1
  store ptr %1317, ptr %26, align 8, !tbaa !40
  br label %1319

1318:                                             ; preds = %1287
  invoke void @_ZNSt6vectorIN6dealii5PointILi3EEESaIS2_EE17_M_realloc_insertEN9__gnu_cxx17__normal_iteratorIPS2_S4_EERKS2_(ptr noundef nonnull align 8 dereferenceable(24) %3, ptr %1308, ptr noundef nonnull align 8 dereferenceable(24) %10)
          to label %1319 unwind label %1377

1319:                                             ; preds = %1318, %1311
  call void @llvm.lifetime.end.p0(i64 24, ptr nonnull %10) #23
  %1320 = load ptr, ptr %3, align 8, !tbaa !41
  %1321 = getelementptr inbounds %"class.dealii::Point", ptr %1320, i64 8
  %1322 = load <2 x double>, ptr %1321, align 8, !tbaa !5
  %1323 = call <2 x double> @llvm.fabs.v2f64(<2 x double> %1322)
  %1324 = extractelement <2 x double> %1323, i64 0
  %1325 = extractelement <2 x double> %1323, i64 1
  %1326 = fcmp olt double %1324, %1325
  %1327 = select i1 %1326, double %1325, double %1324
  call void @llvm.lifetime.start.p0(i64 24, ptr nonnull %10) #23
  %1328 = extractelement <2 x double> %1322, i64 0
  %1329 = call double @llvm.fmuladd.f64(double %1328, double %1328, double 0.000000e+00)
  %1330 = extractelement <2 x double> %1322, i64 1
  %1331 = call double @llvm.fmuladd.f64(double %1330, double %1330, double %1329)
  %1332 = call double @llvm.fmuladd.f64(double %1327, double %1327, double %1331)
  %1333 = call double @llvm.sqrt.f64(double %1332)
  %1334 = insertelement <2 x double> poison, double %1333, i64 0
  %1335 = shufflevector <2 x double> %1334, <2 x double> poison, <2 x i32> zeroinitializer
  %1336 = fdiv <2 x double> %1322, %1335
  %1337 = fdiv double %1327, %1333
  %1338 = fmul <2 x double> %1336, <double 0x3FFD483344DCBFAA, double 0x3FFD483344DCBFAA>
  %1339 = fmul double %1337, 0x3FFD483344DCBFAA
  store <2 x double> %1338, ptr %10, align 16, !tbaa !5, !alias.scope !66
  store double %1339, ptr %1003, align 16, !tbaa !5, !alias.scope !66
  %1340 = load ptr, ptr %26, align 8, !tbaa !36
  %1341 = load ptr, ptr %27, align 8, !tbaa !34
  %1342 = icmp eq ptr %1340, %1341
  br i1 %1342, label %1350, label %1343

1343:                                             ; preds = %1319
  %1344 = extractelement <2 x double> %1338, i64 0
  store double %1344, ptr %1340, align 8, !tbaa !5
  %1345 = load double, ptr %1002, align 8, !tbaa !5
  %1346 = getelementptr inbounds [3 x double], ptr %1340, i64 0, i64 1
  store double %1345, ptr %1346, align 8, !tbaa !5
  %1347 = load double, ptr %1003, align 16, !tbaa !5
  %1348 = getelementptr inbounds [3 x double], ptr %1340, i64 0, i64 2
  store double %1347, ptr %1348, align 8, !tbaa !5
  %1349 = getelementptr inbounds %"class.dealii::Point", ptr %1340, i64 1
  store ptr %1349, ptr %26, align 8, !tbaa !40
  br label %1351

1350:                                             ; preds = %1319
  invoke void @_ZNSt6vectorIN6dealii5PointILi3EEESaIS2_EE17_M_realloc_insertEN9__gnu_cxx17__normal_iteratorIPS2_S4_EERKS2_(ptr noundef nonnull align 8 dereferenceable(24) %3, ptr %1340, ptr noundef nonnull align 8 dereferenceable(24) %10)
          to label %1351 unwind label %1377

1351:                                             ; preds = %1350, %1343
  call void @llvm.lifetime.end.p0(i64 24, ptr nonnull %10) #23
  %1352 = getelementptr inbounds [3 x double], ptr %11, i64 0, i64 1
  %1353 = getelementptr inbounds [3 x double], ptr %11, i64 0, i64 2
  %1354 = load ptr, ptr %3, align 8, !tbaa !41
  %1355 = getelementptr inbounds %"class.dealii::Point", ptr %1354, i64 9
  %1356 = load <2 x double>, ptr %1355, align 8, !tbaa !5
  %1357 = call <2 x double> @llvm.fabs.v2f64(<2 x double> %1356)
  %1358 = extractelement <2 x double> %1357, i64 0
  %1359 = extractelement <2 x double> %1357, i64 1
  %1360 = fcmp olt double %1358, %1359
  %1361 = select i1 %1360, double %1359, double %1358
  call void @llvm.lifetime.start.p0(i64 24, ptr nonnull %11) #23
  %1362 = extractelement <2 x double> %1356, i64 0
  %1363 = call double @llvm.fmuladd.f64(double %1362, double %1362, double 0.000000e+00)
  %1364 = extractelement <2 x double> %1356, i64 1
  %1365 = call double @llvm.fmuladd.f64(double %1364, double %1364, double %1363)
  %1366 = call double @llvm.fmuladd.f64(double %1361, double %1361, double %1365)
  %1367 = call double @llvm.sqrt.f64(double %1366)
  %1368 = insertelement <2 x double> poison, double %1367, i64 0
  %1369 = shufflevector <2 x double> %1368, <2 x double> poison, <2 x i32> zeroinitializer
  %1370 = fdiv <2 x double> %1356, %1369
  %1371 = fdiv double %1361, %1367
  %1372 = fmul <2 x double> %1370, <double 5.000000e+00, double 5.000000e+00>
  %1373 = fmul double %1371, 5.000000e+00
  store <2 x double> %1372, ptr %11, align 16, !tbaa !5, !alias.scope !69
  store double %1373, ptr %1353, align 16, !tbaa !5, !alias.scope !69
  %1374 = load ptr, ptr %26, align 8, !tbaa !36
  %1375 = load ptr, ptr %27, align 8, !tbaa !34
  %1376 = icmp eq ptr %1374, %1375
  br i1 %1376, label %1390, label %1383

1377:                                             ; preds = %1350, %1318, %1286, %1254, %1222, %1190, %1158, %1126
  %1378 = landingpad { ptr, i32 }
          cleanup
  br label %1381

1379:                                             ; preds = %1028
  %1380 = landingpad { ptr, i32 }
          cleanup
  br label %1381

1381:                                             ; preds = %1379, %1377
  %1382 = phi { ptr, i32 } [ %1378, %1377 ], [ %1380, %1379 ]
  call void @llvm.lifetime.end.p0(i64 24, ptr nonnull %10) #23
  br label %2721

1383:                                             ; preds = %1351
  %1384 = extractelement <2 x double> %1372, i64 0
  store double %1384, ptr %1374, align 8, !tbaa !5
  %1385 = load double, ptr %1352, align 8, !tbaa !5
  %1386 = getelementptr inbounds [3 x double], ptr %1374, i64 0, i64 1
  store double %1385, ptr %1386, align 8, !tbaa !5
  %1387 = load double, ptr %1353, align 16, !tbaa !5
  %1388 = getelementptr inbounds [3 x double], ptr %1374, i64 0, i64 2
  store double %1387, ptr %1388, align 8, !tbaa !5
  %1389 = getelementptr inbounds %"class.dealii::Point", ptr %1374, i64 1
  store ptr %1389, ptr %26, align 8, !tbaa !40
  br label %1391

1390:                                             ; preds = %1351
  invoke void @_ZNSt6vectorIN6dealii5PointILi3EEESaIS2_EE17_M_realloc_insertEN9__gnu_cxx17__normal_iteratorIPS2_S4_EERKS2_(ptr noundef nonnull align 8 dereferenceable(24) %3, ptr %1374, ptr noundef nonnull align 8 dereferenceable(24) %11)
          to label %1391 unwind label %1617

1391:                                             ; preds = %1383, %1390
  call void @llvm.lifetime.end.p0(i64 24, ptr nonnull %11) #23
  %1392 = load ptr, ptr %3, align 8, !tbaa !41
  %1393 = getelementptr inbounds %"class.dealii::Point", ptr %1392, i64 10
  %1394 = load <2 x double>, ptr %1393, align 8, !tbaa !5
  %1395 = call <2 x double> @llvm.fabs.v2f64(<2 x double> %1394)
  %1396 = extractelement <2 x double> %1395, i64 0
  %1397 = extractelement <2 x double> %1395, i64 1
  %1398 = fcmp olt double %1396, %1397
  %1399 = select i1 %1398, double %1397, double %1396
  call void @llvm.lifetime.start.p0(i64 24, ptr nonnull %11) #23
  %1400 = extractelement <2 x double> %1394, i64 0
  %1401 = call double @llvm.fmuladd.f64(double %1400, double %1400, double 0.000000e+00)
  %1402 = extractelement <2 x double> %1394, i64 1
  %1403 = call double @llvm.fmuladd.f64(double %1402, double %1402, double %1401)
  %1404 = call double @llvm.fmuladd.f64(double %1399, double %1399, double %1403)
  %1405 = call double @llvm.sqrt.f64(double %1404)
  %1406 = insertelement <2 x double> poison, double %1405, i64 0
  %1407 = shufflevector <2 x double> %1406, <2 x double> poison, <2 x i32> zeroinitializer
  %1408 = fdiv <2 x double> %1394, %1407
  %1409 = fdiv double %1399, %1405
  %1410 = fmul <2 x double> %1408, <double 5.000000e+00, double 5.000000e+00>
  %1411 = fmul double %1409, 5.000000e+00
  store <2 x double> %1410, ptr %11, align 16, !tbaa !5, !alias.scope !69
  store double %1411, ptr %1353, align 16, !tbaa !5, !alias.scope !69
  %1412 = load ptr, ptr %26, align 8, !tbaa !36
  %1413 = load ptr, ptr %27, align 8, !tbaa !34
  %1414 = icmp eq ptr %1412, %1413
  br i1 %1414, label %1422, label %1415

1415:                                             ; preds = %1391
  %1416 = extractelement <2 x double> %1410, i64 0
  store double %1416, ptr %1412, align 8, !tbaa !5
  %1417 = load double, ptr %1352, align 8, !tbaa !5
  %1418 = getelementptr inbounds [3 x double], ptr %1412, i64 0, i64 1
  store double %1417, ptr %1418, align 8, !tbaa !5
  %1419 = load double, ptr %1353, align 16, !tbaa !5
  %1420 = getelementptr inbounds [3 x double], ptr %1412, i64 0, i64 2
  store double %1419, ptr %1420, align 8, !tbaa !5
  %1421 = getelementptr inbounds %"class.dealii::Point", ptr %1412, i64 1
  store ptr %1421, ptr %26, align 8, !tbaa !40
  br label %1423

1422:                                             ; preds = %1391
  invoke void @_ZNSt6vectorIN6dealii5PointILi3EEESaIS2_EE17_M_realloc_insertEN9__gnu_cxx17__normal_iteratorIPS2_S4_EERKS2_(ptr noundef nonnull align 8 dereferenceable(24) %3, ptr %1412, ptr noundef nonnull align 8 dereferenceable(24) %11)
          to label %1423 unwind label %1617

1423:                                             ; preds = %1422, %1415
  call void @llvm.lifetime.end.p0(i64 24, ptr nonnull %11) #23
  %1424 = load ptr, ptr %3, align 8, !tbaa !41
  %1425 = getelementptr inbounds %"class.dealii::Point", ptr %1424, i64 11
  %1426 = load <2 x double>, ptr %1425, align 8, !tbaa !5
  %1427 = call <2 x double> @llvm.fabs.v2f64(<2 x double> %1426)
  %1428 = extractelement <2 x double> %1427, i64 0
  %1429 = extractelement <2 x double> %1427, i64 1
  %1430 = fcmp olt double %1428, %1429
  %1431 = select i1 %1430, double %1429, double %1428
  call void @llvm.lifetime.start.p0(i64 24, ptr nonnull %11) #23
  %1432 = extractelement <2 x double> %1426, i64 0
  %1433 = call double @llvm.fmuladd.f64(double %1432, double %1432, double 0.000000e+00)
  %1434 = extractelement <2 x double> %1426, i64 1
  %1435 = call double @llvm.fmuladd.f64(double %1434, double %1434, double %1433)
  %1436 = call double @llvm.fmuladd.f64(double %1431, double %1431, double %1435)
  %1437 = call double @llvm.sqrt.f64(double %1436)
  %1438 = insertelement <2 x double> poison, double %1437, i64 0
  %1439 = shufflevector <2 x double> %1438, <2 x double> poison, <2 x i32> zeroinitializer
  %1440 = fdiv <2 x double> %1426, %1439
  %1441 = fdiv double %1431, %1437
  %1442 = fmul <2 x double> %1440, <double 5.000000e+00, double 5.000000e+00>
  %1443 = fmul double %1441, 5.000000e+00
  store <2 x double> %1442, ptr %11, align 16, !tbaa !5, !alias.scope !69
  store double %1443, ptr %1353, align 16, !tbaa !5, !alias.scope !69
  %1444 = load ptr, ptr %26, align 8, !tbaa !36
  %1445 = load ptr, ptr %27, align 8, !tbaa !34
  %1446 = icmp eq ptr %1444, %1445
  br i1 %1446, label %1454, label %1447

1447:                                             ; preds = %1423
  %1448 = extractelement <2 x double> %1442, i64 0
  store double %1448, ptr %1444, align 8, !tbaa !5
  %1449 = load double, ptr %1352, align 8, !tbaa !5
  %1450 = getelementptr inbounds [3 x double], ptr %1444, i64 0, i64 1
  store double %1449, ptr %1450, align 8, !tbaa !5
  %1451 = load double, ptr %1353, align 16, !tbaa !5
  %1452 = getelementptr inbounds [3 x double], ptr %1444, i64 0, i64 2
  store double %1451, ptr %1452, align 8, !tbaa !5
  %1453 = getelementptr inbounds %"class.dealii::Point", ptr %1444, i64 1
  store ptr %1453, ptr %26, align 8, !tbaa !40
  br label %1455

1454:                                             ; preds = %1423
  invoke void @_ZNSt6vectorIN6dealii5PointILi3EEESaIS2_EE17_M_realloc_insertEN9__gnu_cxx17__normal_iteratorIPS2_S4_EERKS2_(ptr noundef nonnull align 8 dereferenceable(24) %3, ptr %1444, ptr noundef nonnull align 8 dereferenceable(24) %11)
          to label %1455 unwind label %1617

1455:                                             ; preds = %1454, %1447
  call void @llvm.lifetime.end.p0(i64 24, ptr nonnull %11) #23
  %1456 = load ptr, ptr %3, align 8, !tbaa !41
  %1457 = getelementptr inbounds %"class.dealii::Point", ptr %1456, i64 12
  %1458 = load <2 x double>, ptr %1457, align 8, !tbaa !5
  %1459 = call <2 x double> @llvm.fabs.v2f64(<2 x double> %1458)
  %1460 = extractelement <2 x double> %1459, i64 0
  %1461 = extractelement <2 x double> %1459, i64 1
  %1462 = fcmp olt double %1460, %1461
  %1463 = select i1 %1462, double %1461, double %1460
  call void @llvm.lifetime.start.p0(i64 24, ptr nonnull %11) #23
  %1464 = extractelement <2 x double> %1458, i64 0
  %1465 = call double @llvm.fmuladd.f64(double %1464, double %1464, double 0.000000e+00)
  %1466 = extractelement <2 x double> %1458, i64 1
  %1467 = call double @llvm.fmuladd.f64(double %1466, double %1466, double %1465)
  %1468 = call double @llvm.fmuladd.f64(double %1463, double %1463, double %1467)
  %1469 = call double @llvm.sqrt.f64(double %1468)
  %1470 = insertelement <2 x double> poison, double %1469, i64 0
  %1471 = shufflevector <2 x double> %1470, <2 x double> poison, <2 x i32> zeroinitializer
  %1472 = fdiv <2 x double> %1458, %1471
  %1473 = fdiv double %1463, %1469
  %1474 = fmul <2 x double> %1472, <double 5.000000e+00, double 5.000000e+00>
  %1475 = fmul double %1473, 5.000000e+00
  store <2 x double> %1474, ptr %11, align 16, !tbaa !5, !alias.scope !69
  store double %1475, ptr %1353, align 16, !tbaa !5, !alias.scope !69
  %1476 = load ptr, ptr %26, align 8, !tbaa !36
  %1477 = load ptr, ptr %27, align 8, !tbaa !34
  %1478 = icmp eq ptr %1476, %1477
  br i1 %1478, label %1486, label %1479

1479:                                             ; preds = %1455
  %1480 = extractelement <2 x double> %1474, i64 0
  store double %1480, ptr %1476, align 8, !tbaa !5
  %1481 = load double, ptr %1352, align 8, !tbaa !5
  %1482 = getelementptr inbounds [3 x double], ptr %1476, i64 0, i64 1
  store double %1481, ptr %1482, align 8, !tbaa !5
  %1483 = load double, ptr %1353, align 16, !tbaa !5
  %1484 = getelementptr inbounds [3 x double], ptr %1476, i64 0, i64 2
  store double %1483, ptr %1484, align 8, !tbaa !5
  %1485 = getelementptr inbounds %"class.dealii::Point", ptr %1476, i64 1
  store ptr %1485, ptr %26, align 8, !tbaa !40
  br label %1487

1486:                                             ; preds = %1455
  invoke void @_ZNSt6vectorIN6dealii5PointILi3EEESaIS2_EE17_M_realloc_insertEN9__gnu_cxx17__normal_iteratorIPS2_S4_EERKS2_(ptr noundef nonnull align 8 dereferenceable(24) %3, ptr %1476, ptr noundef nonnull align 8 dereferenceable(24) %11)
          to label %1487 unwind label %1617

1487:                                             ; preds = %1486, %1479
  call void @llvm.lifetime.end.p0(i64 24, ptr nonnull %11) #23
  %1488 = load ptr, ptr %3, align 8, !tbaa !41
  %1489 = getelementptr inbounds %"class.dealii::Point", ptr %1488, i64 13
  %1490 = load <2 x double>, ptr %1489, align 8, !tbaa !5
  %1491 = call <2 x double> @llvm.fabs.v2f64(<2 x double> %1490)
  %1492 = extractelement <2 x double> %1491, i64 0
  %1493 = extractelement <2 x double> %1491, i64 1
  %1494 = fcmp olt double %1492, %1493
  %1495 = select i1 %1494, double %1493, double %1492
  call void @llvm.lifetime.start.p0(i64 24, ptr nonnull %11) #23
  %1496 = extractelement <2 x double> %1490, i64 0
  %1497 = call double @llvm.fmuladd.f64(double %1496, double %1496, double 0.000000e+00)
  %1498 = extractelement <2 x double> %1490, i64 1
  %1499 = call double @llvm.fmuladd.f64(double %1498, double %1498, double %1497)
  %1500 = call double @llvm.fmuladd.f64(double %1495, double %1495, double %1499)
  %1501 = call double @llvm.sqrt.f64(double %1500)
  %1502 = insertelement <2 x double> poison, double %1501, i64 0
  %1503 = shufflevector <2 x double> %1502, <2 x double> poison, <2 x i32> zeroinitializer
  %1504 = fdiv <2 x double> %1490, %1503
  %1505 = fdiv double %1495, %1501
  %1506 = fmul <2 x double> %1504, <double 5.000000e+00, double 5.000000e+00>
  %1507 = fmul double %1505, 5.000000e+00
  store <2 x double> %1506, ptr %11, align 16, !tbaa !5, !alias.scope !69
  store double %1507, ptr %1353, align 16, !tbaa !5, !alias.scope !69
  %1508 = load ptr, ptr %26, align 8, !tbaa !36
  %1509 = load ptr, ptr %27, align 8, !tbaa !34
  %1510 = icmp eq ptr %1508, %1509
  br i1 %1510, label %1518, label %1511

1511:                                             ; preds = %1487
  %1512 = extractelement <2 x double> %1506, i64 0
  store double %1512, ptr %1508, align 8, !tbaa !5
  %1513 = load double, ptr %1352, align 8, !tbaa !5
  %1514 = getelementptr inbounds [3 x double], ptr %1508, i64 0, i64 1
  store double %1513, ptr %1514, align 8, !tbaa !5
  %1515 = load double, ptr %1353, align 16, !tbaa !5
  %1516 = getelementptr inbounds [3 x double], ptr %1508, i64 0, i64 2
  store double %1515, ptr %1516, align 8, !tbaa !5
  %1517 = getelementptr inbounds %"class.dealii::Point", ptr %1508, i64 1
  store ptr %1517, ptr %26, align 8, !tbaa !40
  br label %1519

1518:                                             ; preds = %1487
  invoke void @_ZNSt6vectorIN6dealii5PointILi3EEESaIS2_EE17_M_realloc_insertEN9__gnu_cxx17__normal_iteratorIPS2_S4_EERKS2_(ptr noundef nonnull align 8 dereferenceable(24) %3, ptr %1508, ptr noundef nonnull align 8 dereferenceable(24) %11)
          to label %1519 unwind label %1617

1519:                                             ; preds = %1518, %1511
  call void @llvm.lifetime.end.p0(i64 24, ptr nonnull %11) #23
  %1520 = load ptr, ptr %3, align 8, !tbaa !41
  %1521 = getelementptr inbounds %"class.dealii::Point", ptr %1520, i64 14
  %1522 = load <2 x double>, ptr %1521, align 8, !tbaa !5
  %1523 = call <2 x double> @llvm.fabs.v2f64(<2 x double> %1522)
  %1524 = extractelement <2 x double> %1523, i64 0
  %1525 = extractelement <2 x double> %1523, i64 1
  %1526 = fcmp olt double %1524, %1525
  %1527 = select i1 %1526, double %1525, double %1524
  call void @llvm.lifetime.start.p0(i64 24, ptr nonnull %11) #23
  %1528 = extractelement <2 x double> %1522, i64 0
  %1529 = call double @llvm.fmuladd.f64(double %1528, double %1528, double 0.000000e+00)
  %1530 = extractelement <2 x double> %1522, i64 1
  %1531 = call double @llvm.fmuladd.f64(double %1530, double %1530, double %1529)
  %1532 = call double @llvm.fmuladd.f64(double %1527, double %1527, double %1531)
  %1533 = call double @llvm.sqrt.f64(double %1532)
  %1534 = insertelement <2 x double> poison, double %1533, i64 0
  %1535 = shufflevector <2 x double> %1534, <2 x double> poison, <2 x i32> zeroinitializer
  %1536 = fdiv <2 x double> %1522, %1535
  %1537 = fdiv double %1527, %1533
  %1538 = fmul <2 x double> %1536, <double 5.000000e+00, double 5.000000e+00>
  %1539 = fmul double %1537, 5.000000e+00
  store <2 x double> %1538, ptr %11, align 16, !tbaa !5, !alias.scope !69
  store double %1539, ptr %1353, align 16, !tbaa !5, !alias.scope !69
  %1540 = load ptr, ptr %26, align 8, !tbaa !36
  %1541 = load ptr, ptr %27, align 8, !tbaa !34
  %1542 = icmp eq ptr %1540, %1541
  br i1 %1542, label %1550, label %1543

1543:                                             ; preds = %1519
  %1544 = extractelement <2 x double> %1538, i64 0
  store double %1544, ptr %1540, align 8, !tbaa !5
  %1545 = load double, ptr %1352, align 8, !tbaa !5
  %1546 = getelementptr inbounds [3 x double], ptr %1540, i64 0, i64 1
  store double %1545, ptr %1546, align 8, !tbaa !5
  %1547 = load double, ptr %1353, align 16, !tbaa !5
  %1548 = getelementptr inbounds [3 x double], ptr %1540, i64 0, i64 2
  store double %1547, ptr %1548, align 8, !tbaa !5
  %1549 = getelementptr inbounds %"class.dealii::Point", ptr %1540, i64 1
  store ptr %1549, ptr %26, align 8, !tbaa !40
  br label %1551

1550:                                             ; preds = %1519
  invoke void @_ZNSt6vectorIN6dealii5PointILi3EEESaIS2_EE17_M_realloc_insertEN9__gnu_cxx17__normal_iteratorIPS2_S4_EERKS2_(ptr noundef nonnull align 8 dereferenceable(24) %3, ptr %1540, ptr noundef nonnull align 8 dereferenceable(24) %11)
          to label %1551 unwind label %1617

1551:                                             ; preds = %1550, %1543
  call void @llvm.lifetime.end.p0(i64 24, ptr nonnull %11) #23
  %1552 = load ptr, ptr %3, align 8, !tbaa !41
  %1553 = getelementptr inbounds %"class.dealii::Point", ptr %1552, i64 15
  %1554 = load <2 x double>, ptr %1553, align 8, !tbaa !5
  %1555 = call <2 x double> @llvm.fabs.v2f64(<2 x double> %1554)
  %1556 = extractelement <2 x double> %1555, i64 0
  %1557 = extractelement <2 x double> %1555, i64 1
  %1558 = fcmp olt double %1556, %1557
  %1559 = select i1 %1558, double %1557, double %1556
  call void @llvm.lifetime.start.p0(i64 24, ptr nonnull %11) #23
  %1560 = extractelement <2 x double> %1554, i64 0
  %1561 = call double @llvm.fmuladd.f64(double %1560, double %1560, double 0.000000e+00)
  %1562 = extractelement <2 x double> %1554, i64 1
  %1563 = call double @llvm.fmuladd.f64(double %1562, double %1562, double %1561)
  %1564 = call double @llvm.fmuladd.f64(double %1559, double %1559, double %1563)
  %1565 = call double @llvm.sqrt.f64(double %1564)
  %1566 = insertelement <2 x double> poison, double %1565, i64 0
  %1567 = shufflevector <2 x double> %1566, <2 x double> poison, <2 x i32> zeroinitializer
  %1568 = fdiv <2 x double> %1554, %1567
  %1569 = fdiv double %1559, %1565
  %1570 = fmul <2 x double> %1568, <double 5.000000e+00, double 5.000000e+00>
  %1571 = fmul double %1569, 5.000000e+00
  store <2 x double> %1570, ptr %11, align 16, !tbaa !5, !alias.scope !69
  store double %1571, ptr %1353, align 16, !tbaa !5, !alias.scope !69
  %1572 = load ptr, ptr %26, align 8, !tbaa !36
  %1573 = load ptr, ptr %27, align 8, !tbaa !34
  %1574 = icmp eq ptr %1572, %1573
  br i1 %1574, label %1582, label %1575

1575:                                             ; preds = %1551
  %1576 = extractelement <2 x double> %1570, i64 0
  store double %1576, ptr %1572, align 8, !tbaa !5
  %1577 = load double, ptr %1352, align 8, !tbaa !5
  %1578 = getelementptr inbounds [3 x double], ptr %1572, i64 0, i64 1
  store double %1577, ptr %1578, align 8, !tbaa !5
  %1579 = load double, ptr %1353, align 16, !tbaa !5
  %1580 = getelementptr inbounds [3 x double], ptr %1572, i64 0, i64 2
  store double %1579, ptr %1580, align 8, !tbaa !5
  %1581 = getelementptr inbounds %"class.dealii::Point", ptr %1572, i64 1
  store ptr %1581, ptr %26, align 8, !tbaa !40
  br label %1583

1582:                                             ; preds = %1551
  invoke void @_ZNSt6vectorIN6dealii5PointILi3EEESaIS2_EE17_M_realloc_insertEN9__gnu_cxx17__normal_iteratorIPS2_S4_EERKS2_(ptr noundef nonnull align 8 dereferenceable(24) %3, ptr %1572, ptr noundef nonnull align 8 dereferenceable(24) %11)
          to label %1583 unwind label %1617

1583:                                             ; preds = %1582, %1575
  call void @llvm.lifetime.end.p0(i64 24, ptr nonnull %11) #23
  %1584 = load ptr, ptr %3, align 8, !tbaa !41
  %1585 = getelementptr inbounds %"class.dealii::Point", ptr %1584, i64 16
  %1586 = load <2 x double>, ptr %1585, align 8, !tbaa !5
  %1587 = call <2 x double> @llvm.fabs.v2f64(<2 x double> %1586)
  %1588 = extractelement <2 x double> %1587, i64 0
  %1589 = extractelement <2 x double> %1587, i64 1
  %1590 = fcmp olt double %1588, %1589
  %1591 = select i1 %1590, double %1589, double %1588
  call void @llvm.lifetime.start.p0(i64 24, ptr nonnull %11) #23
  %1592 = extractelement <2 x double> %1586, i64 0
  %1593 = call double @llvm.fmuladd.f64(double %1592, double %1592, double 0.000000e+00)
  %1594 = extractelement <2 x double> %1586, i64 1
  %1595 = call double @llvm.fmuladd.f64(double %1594, double %1594, double %1593)
  %1596 = call double @llvm.fmuladd.f64(double %1591, double %1591, double %1595)
  %1597 = call double @llvm.sqrt.f64(double %1596)
  %1598 = insertelement <2 x double> poison, double %1597, i64 0
  %1599 = shufflevector <2 x double> %1598, <2 x double> poison, <2 x i32> zeroinitializer
  %1600 = fdiv <2 x double> %1586, %1599
  %1601 = fdiv double %1591, %1597
  %1602 = fmul <2 x double> %1600, <double 5.000000e+00, double 5.000000e+00>
  %1603 = fmul double %1601, 5.000000e+00
  store <2 x double> %1602, ptr %11, align 16, !tbaa !5, !alias.scope !69
  store double %1603, ptr %1353, align 16, !tbaa !5, !alias.scope !69
  %1604 = load ptr, ptr %26, align 8, !tbaa !36
  %1605 = load ptr, ptr %27, align 8, !tbaa !34
  %1606 = icmp eq ptr %1604, %1605
  br i1 %1606, label %1614, label %1607

1607:                                             ; preds = %1583
  %1608 = extractelement <2 x double> %1602, i64 0
  store double %1608, ptr %1604, align 8, !tbaa !5
  %1609 = load double, ptr %1352, align 8, !tbaa !5
  %1610 = getelementptr inbounds [3 x double], ptr %1604, i64 0, i64 1
  store double %1609, ptr %1610, align 8, !tbaa !5
  %1611 = load double, ptr %1353, align 16, !tbaa !5
  %1612 = getelementptr inbounds [3 x double], ptr %1604, i64 0, i64 2
  store double %1611, ptr %1612, align 8, !tbaa !5
  %1613 = getelementptr inbounds %"class.dealii::Point", ptr %1604, i64 1
  store ptr %1613, ptr %26, align 8, !tbaa !40
  br label %1615

1614:                                             ; preds = %1583
  invoke void @_ZNSt6vectorIN6dealii5PointILi3EEESaIS2_EE17_M_realloc_insertEN9__gnu_cxx17__normal_iteratorIPS2_S4_EERKS2_(ptr noundef nonnull align 8 dereferenceable(24) %3, ptr %1604, ptr noundef nonnull align 8 dereferenceable(24) %11)
          to label %1615 unwind label %1617

1615:                                             ; preds = %1614, %1607
  call void @llvm.lifetime.end.p0(i64 24, ptr nonnull %11) #23
  %1616 = load ptr, ptr %380, align 8, !tbaa !36
  br label %1619

1617:                                             ; preds = %1614, %1582, %1550, %1518, %1486, %1454, %1422, %1390
  %1618 = landingpad { ptr, i32 }
          cleanup
  call void @llvm.lifetime.end.p0(i64 24, ptr nonnull %11) #23
  br label %2721

1619:                                             ; preds = %1615, %1671
  %1620 = phi ptr [ %1616, %1615 ], [ %1672, %1671 ]
  %1621 = phi i64 [ 0, %1615 ], [ %1673, %1671 ]
  %1622 = getelementptr inbounds [12 x [4 x i32]], ptr @__const._ZN12METomography8Geometry13BreastPhantom18create_coarse_gridERN6dealii13TriangulationILi3ELi3EEE.connectivity.5, i64 0, i64 %1621, i64 0
  %1623 = load <4 x i32>, ptr %1622, align 16, !tbaa !45
  %1624 = add <4 x i32> %1623, <i32 67, i32 67, i32 67, i32 67>
  %1625 = add <4 x i32> %1623, <i32 50, i32 50, i32 50, i32 50>
  %1626 = load ptr, ptr %381, align 8, !tbaa !46
  %1627 = icmp eq ptr %1620, %1626
  br i1 %1627, label %1632, label %1628

1628:                                             ; preds = %1619
  %1629 = shufflevector <4 x i32> %1624, <4 x i32> %1625, <8 x i32> <i32 0, i32 1, i32 2, i32 3, i32 4, i32 5, i32 6, i32 7>
  store <8 x i32> %1629, ptr %1620, align 4
  %1630 = getelementptr inbounds i8, ptr %1620, i64 32
  store i8 0, ptr %1630, align 4, !tbaa.struct !48
  %1631 = getelementptr inbounds %"struct.dealii::CellData", ptr %1620, i64 1
  store ptr %1631, ptr %380, align 8, !tbaa !50
  br label %1671

1632:                                             ; preds = %1619
  %1633 = load ptr, ptr %4, align 8, !tbaa !36
  %1634 = ptrtoint ptr %1620 to i64
  %1635 = ptrtoint ptr %1633 to i64
  %1636 = sub i64 %1634, %1635
  %1637 = icmp eq i64 %1636, 9223372036854775800
  br i1 %1637, label %1638, label %1640

1638:                                             ; preds = %1632
  invoke void @_ZSt20__throw_length_errorPKc(ptr noundef nonnull @.str.25) #26
          to label %1639 unwind label %1677

1639:                                             ; preds = %1638
  unreachable

1640:                                             ; preds = %1632
  %1641 = sdiv exact i64 %1636, 36
  %1642 = call i64 @llvm.umax.i64(i64 %1641, i64 1)
  %1643 = add i64 %1642, %1641
  %1644 = icmp ult i64 %1643, %1641
  %1645 = icmp ugt i64 %1643, 256204778801521550
  %1646 = or i1 %1644, %1645
  %1647 = select i1 %1646, i64 256204778801521550, i64 %1643
  %1648 = icmp eq i64 %1647, 0
  br i1 %1648, label %1652, label %1649

1649:                                             ; preds = %1640
  %1650 = mul nuw nsw i64 %1647, 36
  %1651 = invoke noalias noundef nonnull ptr @_Znwm(i64 noundef %1650) #24
          to label %1652 unwind label %1675

1652:                                             ; preds = %1649, %1640
  %1653 = phi ptr [ null, %1640 ], [ %1651, %1649 ]
  %1654 = getelementptr inbounds %"struct.dealii::CellData", ptr %1653, i64 %1641
  store <4 x i32> %1624, ptr %1654, align 4
  %1655 = getelementptr inbounds i8, ptr %1654, i64 16
  store <4 x i32> %1625, ptr %1655, align 4
  %1656 = getelementptr inbounds i8, ptr %1654, i64 32
  store i8 0, ptr %1656, align 4, !tbaa.struct !48
  %1657 = icmp sgt i64 %1636, 36
  br i1 %1657, label %1658, label %1659, !prof !51

1658:                                             ; preds = %1652
  call void @llvm.memmove.p0.p0.i64(ptr nonnull align 4 %1653, ptr align 4 %1633, i64 %1636, i1 false)
  br label %1663

1659:                                             ; preds = %1652
  %1660 = icmp eq i64 %1636, 36
  br i1 %1660, label %1661, label %1663

1661:                                             ; preds = %1659
  call void @llvm.memcpy.p0.p0.i64(ptr noundef nonnull align 4 dereferenceable(36) %1653, ptr noundef nonnull align 4 dereferenceable(36) %1633, i64 36, i1 false), !tbaa.struct !52
  %1662 = getelementptr inbounds %"struct.dealii::CellData", ptr %1654, i64 1
  br label %1666

1663:                                             ; preds = %1659, %1658
  %1664 = getelementptr inbounds %"struct.dealii::CellData", ptr %1654, i64 1
  %1665 = icmp eq ptr %1633, null
  br i1 %1665, label %1668, label %1666

1666:                                             ; preds = %1661, %1663
  %1667 = phi ptr [ %1662, %1661 ], [ %1664, %1663 ]
  call void @_ZdlPv(ptr noundef nonnull %1633) #25
  br label %1668

1668:                                             ; preds = %1666, %1663
  %1669 = phi ptr [ %1664, %1663 ], [ %1667, %1666 ]
  store ptr %1653, ptr %4, align 8, !tbaa !53
  store ptr %1669, ptr %380, align 8, !tbaa !50
  %1670 = getelementptr inbounds %"struct.dealii::CellData", ptr %1653, i64 %1647
  store ptr %1670, ptr %381, align 8, !tbaa !46
  br label %1671

1671:                                             ; preds = %1668, %1628
  %1672 = phi ptr [ %1669, %1668 ], [ %1631, %1628 ]
  %1673 = add nuw nsw i64 %1621, 1
  %1674 = icmp eq i64 %1673, 12
  br i1 %1674, label %1679, label %1619

1675:                                             ; preds = %1649
  %1676 = landingpad { ptr, i32 }
          cleanup
  br label %2721

1677:                                             ; preds = %1638
  %1678 = landingpad { ptr, i32 }
          cleanup
  br label %2721

1679:                                             ; preds = %1671, %1933
  %1680 = phi i32 [ %1685, %1933 ], [ 9, %1671 ]
  %1681 = phi i64 [ %1683, %1933 ], [ 0, %1671 ]
  %1682 = add i32 %1680, 50
  %1683 = add nuw nsw i64 %1681, 1
  %1684 = getelementptr inbounds [9 x i32], ptr @__const._ZN12METomography8Geometry13BreastPhantom18create_coarse_gridERN6dealii13TriangulationILi3ELi3EEE.vertices, i64 0, i64 %1683
  %1685 = load i32, ptr %1684, align 4, !tbaa !45
  %1686 = add i32 %1685, 50
  %1687 = add i32 %1685, 67
  %1688 = add i32 %1680, 67
  %1689 = load ptr, ptr %459, align 8, !tbaa !36
  %1690 = load ptr, ptr %460, align 8, !tbaa !54
  %1691 = icmp eq ptr %1689, %1690
  br i1 %1691, label %1699, label %1692

1692:                                             ; preds = %1679
  store i32 %1682, ptr %1689, align 4, !tbaa.struct !56
  %1693 = getelementptr inbounds i8, ptr %1689, i64 4
  store i32 %1686, ptr %1693, align 4, !tbaa.struct !57
  %1694 = getelementptr inbounds i8, ptr %1689, i64 8
  store i32 %1687, ptr %1694, align 4, !tbaa.struct !58
  %1695 = getelementptr inbounds i8, ptr %1689, i64 12
  store i32 %1688, ptr %1695, align 4, !tbaa.struct !59
  %1696 = getelementptr inbounds i8, ptr %1689, i64 16
  store i8 64, ptr %1696, align 4, !tbaa.struct !48
  %1697 = load ptr, ptr %459, align 8, !tbaa !60
  %1698 = getelementptr inbounds %"struct.dealii::CellData.23", ptr %1697, i64 1
  store ptr %1698, ptr %459, align 8, !tbaa !60
  br label %1740

1699:                                             ; preds = %1679
  %1700 = load ptr, ptr %458, align 8, !tbaa !36
  %1701 = ptrtoint ptr %1689 to i64
  %1702 = ptrtoint ptr %1700 to i64
  %1703 = sub i64 %1701, %1702
  %1704 = icmp eq i64 %1703, 9223372036854775800
  br i1 %1704, label %1705, label %1707

1705:                                             ; preds = %1699
  invoke void @_ZSt20__throw_length_errorPKc(ptr noundef nonnull @.str.25) #26
          to label %1706 unwind label %1746

1706:                                             ; preds = %1705
  unreachable

1707:                                             ; preds = %1699
  %1708 = sdiv exact i64 %1703, 20
  %1709 = call i64 @llvm.umax.i64(i64 %1708, i64 1)
  %1710 = add i64 %1709, %1708
  %1711 = icmp ult i64 %1710, %1708
  %1712 = icmp ugt i64 %1710, 461168601842738790
  %1713 = or i1 %1711, %1712
  %1714 = select i1 %1713, i64 461168601842738790, i64 %1710
  %1715 = icmp eq i64 %1714, 0
  br i1 %1715, label %1719, label %1716

1716:                                             ; preds = %1707
  %1717 = mul nuw nsw i64 %1714, 20
  %1718 = invoke noalias noundef nonnull ptr @_Znwm(i64 noundef %1717) #24
          to label %1719 unwind label %1744

1719:                                             ; preds = %1716, %1707
  %1720 = phi ptr [ null, %1707 ], [ %1718, %1716 ]
  %1721 = getelementptr inbounds %"struct.dealii::CellData.23", ptr %1720, i64 %1708
  store i32 %1682, ptr %1721, align 4, !tbaa.struct !56
  %1722 = getelementptr inbounds i8, ptr %1721, i64 4
  store i32 %1686, ptr %1722, align 4, !tbaa.struct !57
  %1723 = getelementptr inbounds i8, ptr %1721, i64 8
  store i32 %1687, ptr %1723, align 4, !tbaa.struct !58
  %1724 = getelementptr inbounds i8, ptr %1721, i64 12
  store i32 %1688, ptr %1724, align 4, !tbaa.struct !59
  %1725 = getelementptr inbounds i8, ptr %1721, i64 16
  store i8 64, ptr %1725, align 4, !tbaa.struct !48
  %1726 = icmp sgt i64 %1703, 20
  br i1 %1726, label %1727, label %1728, !prof !51

1727:                                             ; preds = %1719
  call void @llvm.memmove.p0.p0.i64(ptr nonnull align 4 %1720, ptr align 4 %1700, i64 %1703, i1 false)
  br label %1732

1728:                                             ; preds = %1719
  %1729 = icmp eq i64 %1703, 20
  br i1 %1729, label %1730, label %1732

1730:                                             ; preds = %1728
  call void @llvm.memcpy.p0.p0.i64(ptr noundef nonnull align 4 dereferenceable(20) %1720, ptr noundef nonnull align 4 dereferenceable(20) %1700, i64 20, i1 false), !tbaa.struct !56
  %1731 = getelementptr inbounds %"struct.dealii::CellData.23", ptr %1721, i64 1
  br label %1735

1732:                                             ; preds = %1728, %1727
  %1733 = getelementptr inbounds %"struct.dealii::CellData.23", ptr %1721, i64 1
  %1734 = icmp eq ptr %1700, null
  br i1 %1734, label %1737, label %1735

1735:                                             ; preds = %1730, %1732
  %1736 = phi ptr [ %1731, %1730 ], [ %1733, %1732 ]
  call void @_ZdlPv(ptr noundef nonnull %1700) #25
  br label %1737

1737:                                             ; preds = %1735, %1732
  %1738 = phi ptr [ %1733, %1732 ], [ %1736, %1735 ]
  store ptr %1720, ptr %458, align 8, !tbaa !61
  store ptr %1738, ptr %459, align 8, !tbaa !60
  %1739 = getelementptr inbounds %"struct.dealii::CellData.23", ptr %1720, i64 %1714
  store ptr %1739, ptr %460, align 8, !tbaa !54
  br label %1740

1740:                                             ; preds = %1737, %1692
  %1741 = load ptr, ptr %461, align 8, !tbaa !36
  %1742 = load ptr, ptr %462, align 8, !tbaa !62
  %1743 = icmp eq ptr %1741, %1742
  br i1 %1743, label %1754, label %1748

1744:                                             ; preds = %1716
  %1745 = landingpad { ptr, i32 }
          cleanup
  br label %2721

1746:                                             ; preds = %1705
  %1747 = landingpad { ptr, i32 }
          cleanup
  br label %2721

1748:                                             ; preds = %1740
  store i32 %1682, ptr %1741, align 4, !tbaa.struct !58
  %1749 = getelementptr inbounds i8, ptr %1741, i64 4
  store i32 %1686, ptr %1749, align 4, !tbaa.struct !59
  %1750 = getelementptr inbounds i8, ptr %1741, i64 8
  store i8 64, ptr %1750, align 4, !tbaa.struct !48
  %1751 = load ptr, ptr %461, align 8, !tbaa !64
  %1752 = getelementptr inbounds %"struct.dealii::CellData.24", ptr %1751, i64 1
  store ptr %1752, ptr %461, align 8, !tbaa !64
  %1753 = load ptr, ptr %462, align 8, !tbaa !62
  br label %1793

1754:                                             ; preds = %1740
  %1755 = load ptr, ptr %5, align 8, !tbaa !36
  %1756 = ptrtoint ptr %1741 to i64
  %1757 = ptrtoint ptr %1755 to i64
  %1758 = sub i64 %1756, %1757
  %1759 = icmp eq i64 %1758, 9223372036854775800
  br i1 %1759, label %1760, label %1762

1760:                                             ; preds = %1896, %1850, %1803, %1754
  invoke void @_ZSt20__throw_length_errorPKc(ptr noundef nonnull @.str.25) #26
          to label %1761 unwind label %1937

1761:                                             ; preds = %1760
  unreachable

1762:                                             ; preds = %1754
  %1763 = sdiv exact i64 %1758, 12
  %1764 = call i64 @llvm.umax.i64(i64 %1763, i64 1)
  %1765 = add i64 %1764, %1763
  %1766 = icmp ult i64 %1765, %1763
  %1767 = icmp ugt i64 %1765, 768614336404564650
  %1768 = or i1 %1766, %1767
  %1769 = select i1 %1768, i64 768614336404564650, i64 %1765
  %1770 = icmp eq i64 %1769, 0
  br i1 %1770, label %1774, label %1771

1771:                                             ; preds = %1762
  %1772 = mul nuw nsw i64 %1769, 12
  %1773 = invoke noalias noundef nonnull ptr @_Znwm(i64 noundef %1772) #24
          to label %1774 unwind label %1935

1774:                                             ; preds = %1771, %1762
  %1775 = phi ptr [ null, %1762 ], [ %1773, %1771 ]
  %1776 = getelementptr inbounds %"struct.dealii::CellData.24", ptr %1775, i64 %1763
  store i32 %1682, ptr %1776, align 4, !tbaa.struct !58
  %1777 = getelementptr inbounds i8, ptr %1776, i64 4
  store i32 %1686, ptr %1777, align 4, !tbaa.struct !59
  %1778 = getelementptr inbounds i8, ptr %1776, i64 8
  store i8 64, ptr %1778, align 4, !tbaa.struct !48
  %1779 = icmp sgt i64 %1758, 12
  br i1 %1779, label %1780, label %1781, !prof !51

1780:                                             ; preds = %1774
  call void @llvm.memmove.p0.p0.i64(ptr nonnull align 4 %1775, ptr align 4 %1755, i64 %1758, i1 false)
  br label %1785

1781:                                             ; preds = %1774
  %1782 = icmp eq i64 %1758, 12
  br i1 %1782, label %1783, label %1785

1783:                                             ; preds = %1781
  call void @llvm.memcpy.p0.p0.i64(ptr noundef nonnull align 4 dereferenceable(12) %1775, ptr noundef nonnull align 4 dereferenceable(12) %1755, i64 12, i1 false), !tbaa.struct !58
  %1784 = getelementptr inbounds %"struct.dealii::CellData.24", ptr %1776, i64 1
  br label %1788

1785:                                             ; preds = %1781, %1780
  %1786 = getelementptr inbounds %"struct.dealii::CellData.24", ptr %1776, i64 1
  %1787 = icmp eq ptr %1755, null
  br i1 %1787, label %1790, label %1788

1788:                                             ; preds = %1783, %1785
  %1789 = phi ptr [ %1784, %1783 ], [ %1786, %1785 ]
  call void @_ZdlPv(ptr noundef nonnull %1755) #25
  br label %1790

1790:                                             ; preds = %1788, %1785
  %1791 = phi ptr [ %1786, %1785 ], [ %1789, %1788 ]
  store ptr %1775, ptr %5, align 8, !tbaa !65
  store ptr %1791, ptr %461, align 8, !tbaa !64
  %1792 = getelementptr inbounds %"struct.dealii::CellData.24", ptr %1775, i64 %1769
  store ptr %1792, ptr %462, align 8, !tbaa !62
  br label %1793

1793:                                             ; preds = %1790, %1748
  %1794 = phi ptr [ %1792, %1790 ], [ %1753, %1748 ]
  %1795 = phi ptr [ %1791, %1790 ], [ %1752, %1748 ]
  %1796 = icmp eq ptr %1795, %1794
  br i1 %1796, label %1803, label %1797

1797:                                             ; preds = %1793
  store i32 %1688, ptr %1795, align 4, !tbaa.struct !58
  %1798 = getelementptr inbounds i8, ptr %1795, i64 4
  store i32 %1687, ptr %1798, align 4, !tbaa.struct !59
  %1799 = getelementptr inbounds i8, ptr %1795, i64 8
  store i8 64, ptr %1799, align 4, !tbaa.struct !48
  %1800 = load ptr, ptr %461, align 8, !tbaa !64
  %1801 = getelementptr inbounds %"struct.dealii::CellData.24", ptr %1800, i64 1
  store ptr %1801, ptr %461, align 8, !tbaa !64
  %1802 = load ptr, ptr %462, align 8, !tbaa !62
  br label %1840

1803:                                             ; preds = %1793
  %1804 = load ptr, ptr %5, align 8, !tbaa !36
  %1805 = ptrtoint ptr %1794 to i64
  %1806 = ptrtoint ptr %1804 to i64
  %1807 = sub i64 %1805, %1806
  %1808 = icmp eq i64 %1807, 9223372036854775800
  br i1 %1808, label %1760, label %1809

1809:                                             ; preds = %1803
  %1810 = sdiv exact i64 %1807, 12
  %1811 = call i64 @llvm.umax.i64(i64 %1810, i64 1)
  %1812 = add i64 %1811, %1810
  %1813 = icmp ult i64 %1812, %1810
  %1814 = icmp ugt i64 %1812, 768614336404564650
  %1815 = or i1 %1813, %1814
  %1816 = select i1 %1815, i64 768614336404564650, i64 %1812
  %1817 = icmp eq i64 %1816, 0
  br i1 %1817, label %1821, label %1818

1818:                                             ; preds = %1809
  %1819 = mul nuw nsw i64 %1816, 12
  %1820 = invoke noalias noundef nonnull ptr @_Znwm(i64 noundef %1819) #24
          to label %1821 unwind label %1935

1821:                                             ; preds = %1818, %1809
  %1822 = phi ptr [ null, %1809 ], [ %1820, %1818 ]
  %1823 = getelementptr inbounds %"struct.dealii::CellData.24", ptr %1822, i64 %1810
  store i32 %1688, ptr %1823, align 4, !tbaa.struct !58
  %1824 = getelementptr inbounds i8, ptr %1823, i64 4
  store i32 %1687, ptr %1824, align 4, !tbaa.struct !59
  %1825 = getelementptr inbounds i8, ptr %1823, i64 8
  store i8 64, ptr %1825, align 4, !tbaa.struct !48
  %1826 = icmp sgt i64 %1807, 12
  br i1 %1826, label %1831, label %1827, !prof !51

1827:                                             ; preds = %1821
  %1828 = icmp eq i64 %1807, 12
  br i1 %1828, label %1829, label %1832

1829:                                             ; preds = %1827
  call void @llvm.memcpy.p0.p0.i64(ptr noundef nonnull align 4 dereferenceable(12) %1822, ptr noundef nonnull align 4 dereferenceable(12) %1804, i64 12, i1 false), !tbaa.struct !58
  %1830 = getelementptr inbounds %"struct.dealii::CellData.24", ptr %1823, i64 1
  br label %1835

1831:                                             ; preds = %1821
  call void @llvm.memmove.p0.p0.i64(ptr nonnull align 4 %1822, ptr align 4 %1804, i64 %1807, i1 false)
  br label %1832

1832:                                             ; preds = %1831, %1827
  %1833 = getelementptr inbounds %"struct.dealii::CellData.24", ptr %1823, i64 1
  %1834 = icmp eq ptr %1804, null
  br i1 %1834, label %1837, label %1835

1835:                                             ; preds = %1832, %1829
  %1836 = phi ptr [ %1830, %1829 ], [ %1833, %1832 ]
  call void @_ZdlPv(ptr noundef nonnull %1804) #25
  br label %1837

1837:                                             ; preds = %1835, %1832
  %1838 = phi ptr [ %1833, %1832 ], [ %1836, %1835 ]
  store ptr %1822, ptr %5, align 8, !tbaa !65
  store ptr %1838, ptr %461, align 8, !tbaa !64
  %1839 = getelementptr inbounds %"struct.dealii::CellData.24", ptr %1822, i64 %1816
  store ptr %1839, ptr %462, align 8, !tbaa !62
  br label %1840

1840:                                             ; preds = %1837, %1797
  %1841 = phi ptr [ %1839, %1837 ], [ %1802, %1797 ]
  %1842 = phi ptr [ %1838, %1837 ], [ %1801, %1797 ]
  %1843 = icmp eq ptr %1842, %1841
  br i1 %1843, label %1850, label %1844

1844:                                             ; preds = %1840
  store i32 %1682, ptr %1842, align 4, !tbaa.struct !58
  %1845 = getelementptr inbounds i8, ptr %1842, i64 4
  store i32 %1688, ptr %1845, align 4, !tbaa.struct !59
  %1846 = getelementptr inbounds i8, ptr %1842, i64 8
  store i8 64, ptr %1846, align 4, !tbaa.struct !48
  %1847 = load ptr, ptr %461, align 8, !tbaa !64
  %1848 = getelementptr inbounds %"struct.dealii::CellData.24", ptr %1847, i64 1
  store ptr %1848, ptr %461, align 8, !tbaa !64
  %1849 = load ptr, ptr %462, align 8, !tbaa !62
  br label %1887

1850:                                             ; preds = %1840
  %1851 = load ptr, ptr %5, align 8, !tbaa !36
  %1852 = ptrtoint ptr %1841 to i64
  %1853 = ptrtoint ptr %1851 to i64
  %1854 = sub i64 %1852, %1853
  %1855 = icmp eq i64 %1854, 9223372036854775800
  br i1 %1855, label %1760, label %1856

1856:                                             ; preds = %1850
  %1857 = sdiv exact i64 %1854, 12
  %1858 = call i64 @llvm.umax.i64(i64 %1857, i64 1)
  %1859 = add i64 %1858, %1857
  %1860 = icmp ult i64 %1859, %1857
  %1861 = icmp ugt i64 %1859, 768614336404564650
  %1862 = or i1 %1860, %1861
  %1863 = select i1 %1862, i64 768614336404564650, i64 %1859
  %1864 = icmp eq i64 %1863, 0
  br i1 %1864, label %1868, label %1865

1865:                                             ; preds = %1856
  %1866 = mul nuw nsw i64 %1863, 12
  %1867 = invoke noalias noundef nonnull ptr @_Znwm(i64 noundef %1866) #24
          to label %1868 unwind label %1935

1868:                                             ; preds = %1865, %1856
  %1869 = phi ptr [ null, %1856 ], [ %1867, %1865 ]
  %1870 = getelementptr inbounds %"struct.dealii::CellData.24", ptr %1869, i64 %1857
  store i32 %1682, ptr %1870, align 4, !tbaa.struct !58
  %1871 = getelementptr inbounds i8, ptr %1870, i64 4
  store i32 %1688, ptr %1871, align 4, !tbaa.struct !59
  %1872 = getelementptr inbounds i8, ptr %1870, i64 8
  store i8 64, ptr %1872, align 4, !tbaa.struct !48
  %1873 = icmp sgt i64 %1854, 12
  br i1 %1873, label %1878, label %1874, !prof !51

1874:                                             ; preds = %1868
  %1875 = icmp eq i64 %1854, 12
  br i1 %1875, label %1876, label %1879

1876:                                             ; preds = %1874
  call void @llvm.memcpy.p0.p0.i64(ptr noundef nonnull align 4 dereferenceable(12) %1869, ptr noundef nonnull align 4 dereferenceable(12) %1851, i64 12, i1 false), !tbaa.struct !58
  %1877 = getelementptr inbounds %"struct.dealii::CellData.24", ptr %1870, i64 1
  br label %1882

1878:                                             ; preds = %1868
  call void @llvm.memmove.p0.p0.i64(ptr nonnull align 4 %1869, ptr align 4 %1851, i64 %1854, i1 false)
  br label %1879

1879:                                             ; preds = %1878, %1874
  %1880 = getelementptr inbounds %"struct.dealii::CellData.24", ptr %1870, i64 1
  %1881 = icmp eq ptr %1851, null
  br i1 %1881, label %1884, label %1882

1882:                                             ; preds = %1879, %1876
  %1883 = phi ptr [ %1877, %1876 ], [ %1880, %1879 ]
  call void @_ZdlPv(ptr noundef nonnull %1851) #25
  br label %1884

1884:                                             ; preds = %1882, %1879
  %1885 = phi ptr [ %1880, %1879 ], [ %1883, %1882 ]
  store ptr %1869, ptr %5, align 8, !tbaa !65
  store ptr %1885, ptr %461, align 8, !tbaa !64
  %1886 = getelementptr inbounds %"struct.dealii::CellData.24", ptr %1869, i64 %1863
  store ptr %1886, ptr %462, align 8, !tbaa !62
  br label %1887

1887:                                             ; preds = %1884, %1844
  %1888 = phi ptr [ %1886, %1884 ], [ %1849, %1844 ]
  %1889 = phi ptr [ %1885, %1884 ], [ %1848, %1844 ]
  %1890 = icmp eq ptr %1889, %1888
  br i1 %1890, label %1896, label %1891

1891:                                             ; preds = %1887
  store i32 %1686, ptr %1889, align 4, !tbaa.struct !58
  %1892 = getelementptr inbounds i8, ptr %1889, i64 4
  store i32 %1687, ptr %1892, align 4, !tbaa.struct !59
  %1893 = getelementptr inbounds i8, ptr %1889, i64 8
  store i8 64, ptr %1893, align 4, !tbaa.struct !48
  %1894 = load ptr, ptr %461, align 8, !tbaa !64
  %1895 = getelementptr inbounds %"struct.dealii::CellData.24", ptr %1894, i64 1
  store ptr %1895, ptr %461, align 8, !tbaa !64
  br label %1933

1896:                                             ; preds = %1887
  %1897 = load ptr, ptr %5, align 8, !tbaa !36
  %1898 = ptrtoint ptr %1888 to i64
  %1899 = ptrtoint ptr %1897 to i64
  %1900 = sub i64 %1898, %1899
  %1901 = icmp eq i64 %1900, 9223372036854775800
  br i1 %1901, label %1760, label %1902

1902:                                             ; preds = %1896
  %1903 = sdiv exact i64 %1900, 12
  %1904 = call i64 @llvm.umax.i64(i64 %1903, i64 1)
  %1905 = add i64 %1904, %1903
  %1906 = icmp ult i64 %1905, %1903
  %1907 = icmp ugt i64 %1905, 768614336404564650
  %1908 = or i1 %1906, %1907
  %1909 = select i1 %1908, i64 768614336404564650, i64 %1905
  %1910 = icmp eq i64 %1909, 0
  br i1 %1910, label %1914, label %1911

1911:                                             ; preds = %1902
  %1912 = mul nuw nsw i64 %1909, 12
  %1913 = invoke noalias noundef nonnull ptr @_Znwm(i64 noundef %1912) #24
          to label %1914 unwind label %1935

1914:                                             ; preds = %1911, %1902
  %1915 = phi ptr [ null, %1902 ], [ %1913, %1911 ]
  %1916 = getelementptr inbounds %"struct.dealii::CellData.24", ptr %1915, i64 %1903
  store i32 %1686, ptr %1916, align 4, !tbaa.struct !58
  %1917 = getelementptr inbounds i8, ptr %1916, i64 4
  store i32 %1687, ptr %1917, align 4, !tbaa.struct !59
  %1918 = getelementptr inbounds i8, ptr %1916, i64 8
  store i8 64, ptr %1918, align 4, !tbaa.struct !48
  %1919 = icmp sgt i64 %1900, 12
  br i1 %1919, label %1924, label %1920, !prof !51

1920:                                             ; preds = %1914
  %1921 = icmp eq i64 %1900, 12
  br i1 %1921, label %1922, label %1925

1922:                                             ; preds = %1920
  call void @llvm.memcpy.p0.p0.i64(ptr noundef nonnull align 4 dereferenceable(12) %1915, ptr noundef nonnull align 4 dereferenceable(12) %1897, i64 12, i1 false), !tbaa.struct !58
  %1923 = getelementptr inbounds %"struct.dealii::CellData.24", ptr %1916, i64 1
  br label %1928

1924:                                             ; preds = %1914
  call void @llvm.memmove.p0.p0.i64(ptr nonnull align 4 %1915, ptr align 4 %1897, i64 %1900, i1 false)
  br label %1925

1925:                                             ; preds = %1924, %1920
  %1926 = getelementptr inbounds %"struct.dealii::CellData.24", ptr %1916, i64 1
  %1927 = icmp eq ptr %1897, null
  br i1 %1927, label %1930, label %1928

1928:                                             ; preds = %1925, %1922
  %1929 = phi ptr [ %1923, %1922 ], [ %1926, %1925 ]
  call void @_ZdlPv(ptr noundef nonnull %1897) #25
  br label %1930

1930:                                             ; preds = %1928, %1925
  %1931 = phi ptr [ %1926, %1925 ], [ %1929, %1928 ]
  store ptr %1915, ptr %5, align 8, !tbaa !65
  store ptr %1931, ptr %461, align 8, !tbaa !64
  %1932 = getelementptr inbounds %"struct.dealii::CellData.24", ptr %1915, i64 %1909
  store ptr %1932, ptr %462, align 8, !tbaa !62
  br label %1933

1933:                                             ; preds = %1930, %1891
  %1934 = icmp eq i64 %1683, 8
  br i1 %1934, label %1939, label %1679

1935:                                             ; preds = %1911, %1865, %1818, %1771
  %1936 = landingpad { ptr, i32 }
          cleanup
  br label %2721

1937:                                             ; preds = %1760
  %1938 = landingpad { ptr, i32 }
          cleanup
  br label %2721

1939:                                             ; preds = %1933
  call void @llvm.lifetime.start.p0(i64 24, ptr nonnull %12) #23
  %1940 = getelementptr inbounds [3 x double], ptr %12, i64 0, i64 2
  call void @llvm.memset.p0.i64(ptr noundef nonnull align 8 dereferenceable(16) %12, i8 0, i64 16, i1 false)
  store double 5.000000e+00, ptr %1940, align 8, !tbaa !5
  %1941 = load ptr, ptr %26, align 8, !tbaa !36
  %1942 = load ptr, ptr %27, align 8, !tbaa !34
  %1943 = icmp eq ptr %1941, %1942
  br i1 %1943, label %1951, label %1944

1944:                                             ; preds = %1939
  %1945 = getelementptr inbounds [3 x double], ptr %12, i64 0, i64 1
  store double 0.000000e+00, ptr %1941, align 8, !tbaa !5
  %1946 = load double, ptr %1945, align 8, !tbaa !5
  %1947 = getelementptr inbounds [3 x double], ptr %1941, i64 0, i64 1
  store double %1946, ptr %1947, align 8, !tbaa !5
  %1948 = load double, ptr %1940, align 8, !tbaa !5
  %1949 = getelementptr inbounds [3 x double], ptr %1941, i64 0, i64 2
  store double %1948, ptr %1949, align 8, !tbaa !5
  %1950 = getelementptr inbounds %"class.dealii::Point", ptr %1941, i64 1
  store ptr %1950, ptr %26, align 8, !tbaa !40
  br label %1952

1951:                                             ; preds = %1939
  invoke void @_ZNSt6vectorIN6dealii5PointILi3EEESaIS2_EE17_M_realloc_insertEN9__gnu_cxx17__normal_iteratorIPS2_S4_EERKS2_(ptr noundef nonnull align 8 dereferenceable(24) %3, ptr %1941, ptr noundef nonnull align 8 dereferenceable(24) %12)
          to label %1952 unwind label %1956

1952:                                             ; preds = %1944, %1951
  call void @llvm.lifetime.end.p0(i64 24, ptr nonnull %12) #23
  %1953 = load ptr, ptr %380, align 8, !tbaa !36
  %1954 = load ptr, ptr %381, align 8, !tbaa !46
  %1955 = icmp eq ptr %1953, %1954
  br i1 %1955, label %1961, label %1958

1956:                                             ; preds = %1951
  %1957 = landingpad { ptr, i32 }
          cleanup
  call void @llvm.lifetime.end.p0(i64 24, ptr nonnull %12) #23
  br label %2721

1958:                                             ; preds = %1952
  store <8 x i32> <i32 76, i32 77, i32 78, i32 84, i32 68, i32 69, i32 70, i32 67>, ptr %1953, align 4
  %1959 = getelementptr inbounds i8, ptr %1953, i64 32
  store i8 0, ptr %1959, align 4, !tbaa.struct !48
  %1960 = getelementptr inbounds %"struct.dealii::CellData", ptr %1953, i64 1
  store ptr %1960, ptr %380, align 8, !tbaa !50
  br label %1999

1961:                                             ; preds = %1952
  %1962 = load ptr, ptr %4, align 8, !tbaa !36
  %1963 = ptrtoint ptr %1953 to i64
  %1964 = ptrtoint ptr %1962 to i64
  %1965 = sub i64 %1963, %1964
  %1966 = icmp eq i64 %1965, 9223372036854775800
  br i1 %1966, label %1967, label %1969

1967:                                             ; preds = %2092, %2049, %2006, %1961
  invoke void @_ZSt20__throw_length_errorPKc(ptr noundef nonnull @.str.25) #26
          to label %1968 unwind label %2131

1968:                                             ; preds = %1967
  unreachable

1969:                                             ; preds = %1961
  %1970 = sdiv exact i64 %1965, 36
  %1971 = call i64 @llvm.umax.i64(i64 %1970, i64 1)
  %1972 = add i64 %1971, %1970
  %1973 = icmp ult i64 %1972, %1970
  %1974 = icmp ugt i64 %1972, 256204778801521550
  %1975 = or i1 %1973, %1974
  %1976 = select i1 %1975, i64 256204778801521550, i64 %1972
  %1977 = icmp eq i64 %1976, 0
  br i1 %1977, label %1981, label %1978

1978:                                             ; preds = %1969
  %1979 = mul nuw nsw i64 %1976, 36
  %1980 = invoke noalias noundef nonnull ptr @_Znwm(i64 noundef %1979) #24
          to label %1981 unwind label %2129

1981:                                             ; preds = %1978, %1969
  %1982 = phi ptr [ null, %1969 ], [ %1980, %1978 ]
  %1983 = getelementptr inbounds %"struct.dealii::CellData", ptr %1982, i64 %1970
  store <8 x i32> <i32 76, i32 77, i32 78, i32 84, i32 68, i32 69, i32 70, i32 67>, ptr %1983, align 4
  %1984 = getelementptr inbounds i8, ptr %1983, i64 32
  store i8 0, ptr %1984, align 4, !tbaa.struct !48
  %1985 = icmp sgt i64 %1965, 36
  br i1 %1985, label %1986, label %1987, !prof !51

1986:                                             ; preds = %1981
  call void @llvm.memmove.p0.p0.i64(ptr nonnull align 4 %1982, ptr align 4 %1962, i64 %1965, i1 false)
  br label %1991

1987:                                             ; preds = %1981
  %1988 = icmp eq i64 %1965, 36
  br i1 %1988, label %1989, label %1991

1989:                                             ; preds = %1987
  call void @llvm.memcpy.p0.p0.i64(ptr noundef nonnull align 4 dereferenceable(36) %1982, ptr noundef nonnull align 4 dereferenceable(36) %1962, i64 36, i1 false), !tbaa.struct !52
  %1990 = getelementptr inbounds %"struct.dealii::CellData", ptr %1983, i64 1
  br label %1994

1991:                                             ; preds = %1987, %1986
  %1992 = getelementptr inbounds %"struct.dealii::CellData", ptr %1983, i64 1
  %1993 = icmp eq ptr %1962, null
  br i1 %1993, label %1996, label %1994

1994:                                             ; preds = %1989, %1991
  %1995 = phi ptr [ %1990, %1989 ], [ %1992, %1991 ]
  call void @_ZdlPv(ptr noundef nonnull %1962) #25
  br label %1996

1996:                                             ; preds = %1994, %1991
  %1997 = phi ptr [ %1992, %1991 ], [ %1995, %1994 ]
  store ptr %1982, ptr %4, align 8, !tbaa !53
  store ptr %1997, ptr %380, align 8, !tbaa !50
  %1998 = getelementptr inbounds %"struct.dealii::CellData", ptr %1982, i64 %1976
  store ptr %1998, ptr %381, align 8, !tbaa !46
  br label %1999

1999:                                             ; preds = %1996, %1958
  %2000 = phi ptr [ %1997, %1996 ], [ %1960, %1958 ]
  %2001 = load ptr, ptr %381, align 8, !tbaa !46
  %2002 = icmp eq ptr %2000, %2001
  br i1 %2002, label %2006, label %2003

2003:                                             ; preds = %1999
  store <8 x i32> <i32 78, i32 79, i32 80, i32 84, i32 70, i32 71, i32 72, i32 67>, ptr %2000, align 4
  %2004 = getelementptr inbounds i8, ptr %2000, i64 32
  store i8 0, ptr %2004, align 4, !tbaa.struct !48
  %2005 = getelementptr inbounds %"struct.dealii::CellData", ptr %2000, i64 1
  store ptr %2005, ptr %380, align 8, !tbaa !50
  br label %2042

2006:                                             ; preds = %1999
  %2007 = load ptr, ptr %4, align 8, !tbaa !36
  %2008 = ptrtoint ptr %2000 to i64
  %2009 = ptrtoint ptr %2007 to i64
  %2010 = sub i64 %2008, %2009
  %2011 = icmp eq i64 %2010, 9223372036854775800
  br i1 %2011, label %1967, label %2012

2012:                                             ; preds = %2006
  %2013 = sdiv exact i64 %2010, 36
  %2014 = call i64 @llvm.umax.i64(i64 %2013, i64 1)
  %2015 = add i64 %2014, %2013
  %2016 = icmp ult i64 %2015, %2013
  %2017 = icmp ugt i64 %2015, 256204778801521550
  %2018 = or i1 %2016, %2017
  %2019 = select i1 %2018, i64 256204778801521550, i64 %2015
  %2020 = icmp eq i64 %2019, 0
  br i1 %2020, label %2024, label %2021

2021:                                             ; preds = %2012
  %2022 = mul nuw nsw i64 %2019, 36
  %2023 = invoke noalias noundef nonnull ptr @_Znwm(i64 noundef %2022) #24
          to label %2024 unwind label %2129

2024:                                             ; preds = %2021, %2012
  %2025 = phi ptr [ null, %2012 ], [ %2023, %2021 ]
  %2026 = getelementptr inbounds %"struct.dealii::CellData", ptr %2025, i64 %2013
  store <8 x i32> <i32 78, i32 79, i32 80, i32 84, i32 70, i32 71, i32 72, i32 67>, ptr %2026, align 4
  %2027 = getelementptr inbounds i8, ptr %2026, i64 32
  store i8 0, ptr %2027, align 4, !tbaa.struct !48
  %2028 = icmp sgt i64 %2010, 36
  br i1 %2028, label %2033, label %2029, !prof !51

2029:                                             ; preds = %2024
  %2030 = icmp eq i64 %2010, 36
  br i1 %2030, label %2031, label %2034

2031:                                             ; preds = %2029
  call void @llvm.memcpy.p0.p0.i64(ptr noundef nonnull align 4 dereferenceable(36) %2025, ptr noundef nonnull align 4 dereferenceable(36) %2007, i64 36, i1 false), !tbaa.struct !52
  %2032 = getelementptr inbounds %"struct.dealii::CellData", ptr %2026, i64 1
  br label %2037

2033:                                             ; preds = %2024
  call void @llvm.memmove.p0.p0.i64(ptr nonnull align 4 %2025, ptr align 4 %2007, i64 %2010, i1 false)
  br label %2034

2034:                                             ; preds = %2033, %2029
  %2035 = getelementptr inbounds %"struct.dealii::CellData", ptr %2026, i64 1
  %2036 = icmp eq ptr %2007, null
  br i1 %2036, label %2039, label %2037

2037:                                             ; preds = %2034, %2031
  %2038 = phi ptr [ %2032, %2031 ], [ %2035, %2034 ]
  call void @_ZdlPv(ptr noundef nonnull %2007) #25
  br label %2039

2039:                                             ; preds = %2037, %2034
  %2040 = phi ptr [ %2035, %2034 ], [ %2038, %2037 ]
  store ptr %2025, ptr %4, align 8, !tbaa !53
  store ptr %2040, ptr %380, align 8, !tbaa !50
  %2041 = getelementptr inbounds %"struct.dealii::CellData", ptr %2025, i64 %2019
  store ptr %2041, ptr %381, align 8, !tbaa !46
  br label %2042

2042:                                             ; preds = %2039, %2003
  %2043 = phi ptr [ %2040, %2039 ], [ %2005, %2003 ]
  %2044 = load ptr, ptr %381, align 8, !tbaa !46
  %2045 = icmp eq ptr %2043, %2044
  br i1 %2045, label %2049, label %2046

2046:                                             ; preds = %2042
  store <8 x i32> <i32 84, i32 80, i32 81, i32 82, i32 67, i32 72, i32 73, i32 74>, ptr %2043, align 4
  %2047 = getelementptr inbounds i8, ptr %2043, i64 32
  store i8 0, ptr %2047, align 4, !tbaa.struct !48
  %2048 = getelementptr inbounds %"struct.dealii::CellData", ptr %2043, i64 1
  store ptr %2048, ptr %380, align 8, !tbaa !50
  br label %2085

2049:                                             ; preds = %2042
  %2050 = load ptr, ptr %4, align 8, !tbaa !36
  %2051 = ptrtoint ptr %2043 to i64
  %2052 = ptrtoint ptr %2050 to i64
  %2053 = sub i64 %2051, %2052
  %2054 = icmp eq i64 %2053, 9223372036854775800
  br i1 %2054, label %1967, label %2055

2055:                                             ; preds = %2049
  %2056 = sdiv exact i64 %2053, 36
  %2057 = call i64 @llvm.umax.i64(i64 %2056, i64 1)
  %2058 = add i64 %2057, %2056
  %2059 = icmp ult i64 %2058, %2056
  %2060 = icmp ugt i64 %2058, 256204778801521550
  %2061 = or i1 %2059, %2060
  %2062 = select i1 %2061, i64 256204778801521550, i64 %2058
  %2063 = icmp eq i64 %2062, 0
  br i1 %2063, label %2067, label %2064

2064:                                             ; preds = %2055
  %2065 = mul nuw nsw i64 %2062, 36
  %2066 = invoke noalias noundef nonnull ptr @_Znwm(i64 noundef %2065) #24
          to label %2067 unwind label %2129

2067:                                             ; preds = %2064, %2055
  %2068 = phi ptr [ null, %2055 ], [ %2066, %2064 ]
  %2069 = getelementptr inbounds %"struct.dealii::CellData", ptr %2068, i64 %2056
  store <8 x i32> <i32 84, i32 80, i32 81, i32 82, i32 67, i32 72, i32 73, i32 74>, ptr %2069, align 4
  %2070 = getelementptr inbounds i8, ptr %2069, i64 32
  store i8 0, ptr %2070, align 4, !tbaa.struct !48
  %2071 = icmp sgt i64 %2053, 36
  br i1 %2071, label %2076, label %2072, !prof !51

2072:                                             ; preds = %2067
  %2073 = icmp eq i64 %2053, 36
  br i1 %2073, label %2074, label %2077

2074:                                             ; preds = %2072
  call void @llvm.memcpy.p0.p0.i64(ptr noundef nonnull align 4 dereferenceable(36) %2068, ptr noundef nonnull align 4 dereferenceable(36) %2050, i64 36, i1 false), !tbaa.struct !52
  %2075 = getelementptr inbounds %"struct.dealii::CellData", ptr %2069, i64 1
  br label %2080

2076:                                             ; preds = %2067
  call void @llvm.memmove.p0.p0.i64(ptr nonnull align 4 %2068, ptr align 4 %2050, i64 %2053, i1 false)
  br label %2077

2077:                                             ; preds = %2076, %2072
  %2078 = getelementptr inbounds %"struct.dealii::CellData", ptr %2069, i64 1
  %2079 = icmp eq ptr %2050, null
  br i1 %2079, label %2082, label %2080

2080:                                             ; preds = %2077, %2074
  %2081 = phi ptr [ %2075, %2074 ], [ %2078, %2077 ]
  call void @_ZdlPv(ptr noundef nonnull %2050) #25
  br label %2082

2082:                                             ; preds = %2080, %2077
  %2083 = phi ptr [ %2078, %2077 ], [ %2081, %2080 ]
  store ptr %2068, ptr %4, align 8, !tbaa !53
  store ptr %2083, ptr %380, align 8, !tbaa !50
  %2084 = getelementptr inbounds %"struct.dealii::CellData", ptr %2068, i64 %2062
  store ptr %2084, ptr %381, align 8, !tbaa !46
  br label %2085

2085:                                             ; preds = %2082, %2046
  %2086 = phi ptr [ %2083, %2082 ], [ %2048, %2046 ]
  %2087 = load ptr, ptr %381, align 8, !tbaa !46
  %2088 = icmp eq ptr %2086, %2087
  br i1 %2088, label %2092, label %2089

2089:                                             ; preds = %2085
  store <8 x i32> <i32 76, i32 84, i32 82, i32 83, i32 68, i32 67, i32 74, i32 75>, ptr %2086, align 4
  %2090 = getelementptr inbounds i8, ptr %2086, i64 32
  store i8 0, ptr %2090, align 4, !tbaa.struct !48
  %2091 = getelementptr inbounds %"struct.dealii::CellData", ptr %2086, i64 1
  store ptr %2091, ptr %380, align 8, !tbaa !50
  br label %2128

2092:                                             ; preds = %2085
  %2093 = load ptr, ptr %4, align 8, !tbaa !36
  %2094 = ptrtoint ptr %2086 to i64
  %2095 = ptrtoint ptr %2093 to i64
  %2096 = sub i64 %2094, %2095
  %2097 = icmp eq i64 %2096, 9223372036854775800
  br i1 %2097, label %1967, label %2098

2098:                                             ; preds = %2092
  %2099 = sdiv exact i64 %2096, 36
  %2100 = call i64 @llvm.umax.i64(i64 %2099, i64 1)
  %2101 = add i64 %2100, %2099
  %2102 = icmp ult i64 %2101, %2099
  %2103 = icmp ugt i64 %2101, 256204778801521550
  %2104 = or i1 %2102, %2103
  %2105 = select i1 %2104, i64 256204778801521550, i64 %2101
  %2106 = icmp eq i64 %2105, 0
  br i1 %2106, label %2110, label %2107

2107:                                             ; preds = %2098
  %2108 = mul nuw nsw i64 %2105, 36
  %2109 = invoke noalias noundef nonnull ptr @_Znwm(i64 noundef %2108) #24
          to label %2110 unwind label %2129

2110:                                             ; preds = %2107, %2098
  %2111 = phi ptr [ null, %2098 ], [ %2109, %2107 ]
  %2112 = getelementptr inbounds %"struct.dealii::CellData", ptr %2111, i64 %2099
  store <8 x i32> <i32 76, i32 84, i32 82, i32 83, i32 68, i32 67, i32 74, i32 75>, ptr %2112, align 4
  %2113 = getelementptr inbounds i8, ptr %2112, i64 32
  store i8 0, ptr %2113, align 4, !tbaa.struct !48
  %2114 = icmp sgt i64 %2096, 36
  br i1 %2114, label %2119, label %2115, !prof !51

2115:                                             ; preds = %2110
  %2116 = icmp eq i64 %2096, 36
  br i1 %2116, label %2117, label %2120

2117:                                             ; preds = %2115
  call void @llvm.memcpy.p0.p0.i64(ptr noundef nonnull align 4 dereferenceable(36) %2111, ptr noundef nonnull align 4 dereferenceable(36) %2093, i64 36, i1 false), !tbaa.struct !52
  %2118 = getelementptr inbounds %"struct.dealii::CellData", ptr %2112, i64 1
  br label %2123

2119:                                             ; preds = %2110
