; ModuleID = 'source/me-tomography/measurements.cc'
source_filename = "source/me-tomography/measurements.cc"
target datalayout = "e-m:e-p270:32:32-p271:32:32-p272:64:64-i64:64-f80:128-n8:16:32:64-S128"
target triple = "x86_64-pc-linux-gnu"

module asm ".globl _ZSt21ios_base_library_initv"

%"class.METomography::Measurements::ScaledWeightedDirichletMeasurements::Base" = type { %"class.libparest::Slave::Stationary::Measurements::Base", %"class.libparest::Slave::Stationary::Measurements::BoundaryMeasurementBase", %"class.dealii::SmartPointer.23" }
%"class.libparest::Slave::Stationary::Measurements::Base" = type { %"class.dealii::Subscriptor", %"class.dealii::SmartPointer" }
%"class.dealii::Subscriptor" = type { ptr, i32, %"class.std::map", ptr }
%"class.std::map" = type { %"class.std::_Rb_tree" }
%"class.std::_Rb_tree" = type { %"struct.std::_Rb_tree<const char *, std::pair<const char *const, unsigned int>, std::_Select1st<std::pair<const char *const, unsigned int> >, std::less<const char *> >::_Rb_tree_impl" }
%"struct.std::_Rb_tree<const char *, std::pair<const char *const, unsigned int>, std::_Select1st<std::pair<const char *const, unsigned int> >, std::less<const char *> >::_Rb_tree_impl" = type { %"struct.std::_Rb_tree_key_compare", %"struct.std::_Rb_tree_header" }
%"struct.std::_Rb_tree_key_compare" = type { %"struct.std::less" }
%"struct.std::less" = type { i8 }
%"struct.std::_Rb_tree_header" = type { %"struct.std::_Rb_tree_node_base", i64 }
%"struct.std::_Rb_tree_node_base" = type { i32, ptr, ptr, ptr }
%"class.dealii::SmartPointer" = type { ptr, ptr }
%"class.libparest::Slave::Stationary::Measurements::BoundaryMeasurementBase" = type { %"class.std::set" }
%"class.std::set" = type { %"class.std::_Rb_tree.16" }
%"class.std::_Rb_tree.16" = type { %"struct.std::_Rb_tree<unsigned char, unsigned char, std::_Identity<unsigned char>, std::less<unsigned char> >::_Rb_tree_impl" }
%"struct.std::_Rb_tree<unsigned char, unsigned char, std::_Identity<unsigned char>, std::less<unsigned char> >::_Rb_tree_impl" = type { %"struct.std::_Rb_tree_key_compare.20", %"struct.std::_Rb_tree_header" }
%"struct.std::_Rb_tree_key_compare.20" = type { %"struct.std::less.21" }
%"struct.std::less.21" = type { i8 }
%"class.dealii::SmartPointer.23" = type { ptr, ptr }
%"class.dealii::FEFaceValues" = type { %"class.dealii::FEFaceValuesBase" }
%"class.dealii::FEFaceValuesBase" = type { %"class.dealii::FEValuesBase", i32, %"class.dealii::Quadrature" }
%"class.dealii::FEValuesBase" = type { %"class.dealii::Subscriptor", %"class.dealii::FEValuesData.base", i32, i32, %"class.std::auto_ptr.100", %"class.dealii::SmartPointer.101", %"class.dealii::SmartPointer.102", %"class.dealii::SmartPointer.103", %"class.dealii::SmartPointer.103", i32, %"struct.dealii::internal::FEValuesViews::Cache" }
%"class.dealii::FEValuesData.base" = type <{ %"class.dealii::Table", %"class.std::vector.75", %"class.std::vector.80", %"class.std::vector.27", %"class.std::vector.85", %"class.std::vector.90", %"class.std::vector.85", %"class.std::vector.37", %"class.std::vector.37", %"class.std::vector.37", %"class.std::vector.95", %"class.std::vector.37", %"class.std::vector.80", %"class.std::vector.80", %"class.std::vector.61", i32 }>
%"class.dealii::Table" = type { %"class.dealii::TableBase.base", [4 x i8] }
%"class.dealii::TableBase.base" = type <{ %"class.dealii::Subscriptor", ptr, i32, %"class.dealii::TableIndices" }>
%"class.dealii::TableIndices" = type { %"class.dealii::TableIndicesBase" }
%"class.dealii::TableIndicesBase" = type { [2 x i32] }
%"class.std::vector.75" = type { %"struct.std::_Vector_base.76" }
%"struct.std::_Vector_base.76" = type { %"struct.std::_Vector_base<std::vector<dealii::Tensor<1, 3> >, std::allocator<std::vector<dealii::Tensor<1, 3> > > >::_Vector_impl" }
%"struct.std::_Vector_base<std::vector<dealii::Tensor<1, 3> >, std::allocator<std::vector<dealii::Tensor<1, 3> > > >::_Vector_impl" = type { %"struct.std::_Vector_base<std::vector<dealii::Tensor<1, 3> >, std::allocator<std::vector<dealii::Tensor<1, 3> > > >::_Vector_impl_data" }
%"struct.std::_Vector_base<std::vector<dealii::Tensor<1, 3> >, std::allocator<std::vector<dealii::Tensor<1, 3> > > >::_Vector_impl_data" = type { ptr, ptr, ptr }
%"class.std::vector.27" = type { %"struct.std::_Vector_base.28" }
%"struct.std::_Vector_base.28" = type { %"struct.std::_Vector_base<double, std::allocator<double> >::_Vector_impl" }
%"struct.std::_Vector_base<double, std::allocator<double> >::_Vector_impl" = type { %"struct.std::_Vector_base<double, std::allocator<double> >::_Vector_impl_data" }
%"struct.std::_Vector_base<double, std::allocator<double> >::_Vector_impl_data" = type { ptr, ptr, ptr }
%"class.std::vector.90" = type { %"struct.std::_Vector_base.91" }
%"struct.std::_Vector_base.91" = type { %"struct.std::_Vector_base<dealii::Tensor<3, 3>, std::allocator<dealii::Tensor<3, 3> > >::_Vector_impl" }
%"struct.std::_Vector_base<dealii::Tensor<3, 3>, std::allocator<dealii::Tensor<3, 3> > >::_Vector_impl" = type { %"struct.std::_Vector_base<dealii::Tensor<3, 3>, std::allocator<dealii::Tensor<3, 3> > >::_Vector_impl_data" }
%"struct.std::_Vector_base<dealii::Tensor<3, 3>, std::allocator<dealii::Tensor<3, 3> > >::_Vector_impl_data" = type { ptr, ptr, ptr }
%"class.std::vector.85" = type { %"struct.std::_Vector_base.86" }
%"struct.std::_Vector_base.86" = type { %"struct.std::_Vector_base<dealii::Tensor<2, 3>, std::allocator<dealii::Tensor<2, 3> > >::_Vector_impl" }
%"struct.std::_Vector_base<dealii::Tensor<2, 3>, std::allocator<dealii::Tensor<2, 3> > >::_Vector_impl" = type { %"struct.std::_Vector_base<dealii::Tensor<2, 3>, std::allocator<dealii::Tensor<2, 3> > >::_Vector_impl_data" }
%"struct.std::_Vector_base<dealii::Tensor<2, 3>, std::allocator<dealii::Tensor<2, 3> > >::_Vector_impl_data" = type { ptr, ptr, ptr }
%"class.std::vector.95" = type { %"struct.std::_Vector_base.96" }
%"struct.std::_Vector_base.96" = type { %"struct.std::_Vector_base<dealii::Tensor<1, 3>, std::allocator<dealii::Tensor<1, 3> > >::_Vector_impl" }
%"struct.std::_Vector_base<dealii::Tensor<1, 3>, std::allocator<dealii::Tensor<1, 3> > >::_Vector_impl" = type { %"struct.std::_Vector_base<dealii::Tensor<1, 3>, std::allocator<dealii::Tensor<1, 3> > >::_Vector_impl_data" }
%"struct.std::_Vector_base<dealii::Tensor<1, 3>, std::allocator<dealii::Tensor<1, 3> > >::_Vector_impl_data" = type { ptr, ptr, ptr }
%"class.std::vector.37" = type { %"struct.std::_Vector_base.38" }
%"struct.std::_Vector_base.38" = type { %"struct.std::_Vector_base<dealii::Point<3>, std::allocator<dealii::Point<3> > >::_Vector_impl" }
%"struct.std::_Vector_base<dealii::Point<3>, std::allocator<dealii::Point<3> > >::_Vector_impl" = type { %"struct.std::_Vector_base<dealii::Point<3>, std::allocator<dealii::Point<3> > >::_Vector_impl_data" }
%"struct.std::_Vector_base<dealii::Point<3>, std::allocator<dealii::Point<3> > >::_Vector_impl_data" = type { ptr, ptr, ptr }
%"class.std::vector.80" = type { %"struct.std::_Vector_base.81" }
%"struct.std::_Vector_base.81" = type { %"struct.std::_Vector_base<std::vector<dealii::Tensor<2, 3> >, std::allocator<std::vector<dealii::Tensor<2, 3> > > >::_Vector_impl" }
%"struct.std::_Vector_base<std::vector<dealii::Tensor<2, 3> >, std::allocator<std::vector<dealii::Tensor<2, 3> > > >::_Vector_impl" = type { %"struct.std::_Vector_base<std::vector<dealii::Tensor<2, 3> >, std::allocator<std::vector<dealii::Tensor<2, 3> > > >::_Vector_impl_data" }
%"struct.std::_Vector_base<std::vector<dealii::Tensor<2, 3> >, std::allocator<std::vector<dealii::Tensor<2, 3> > > >::_Vector_impl_data" = type { ptr, ptr, ptr }
%"class.std::vector.61" = type { %"struct.std::_Vector_base.62" }
%"struct.std::_Vector_base.62" = type { %"struct.std::_Vector_base<unsigned int, std::allocator<unsigned int> >::_Vector_impl" }
%"struct.std::_Vector_base<unsigned int, std::allocator<unsigned int> >::_Vector_impl" = type { %"struct.std::_Vector_base<unsigned int, std::allocator<unsigned int> >::_Vector_impl_data" }
%"struct.std::_Vector_base<unsigned int, std::allocator<unsigned int> >::_Vector_impl_data" = type { ptr, ptr, ptr }
%"class.std::auto_ptr.100" = type { ptr }
%"class.dealii::SmartPointer.101" = type { ptr, ptr }
%"class.dealii::SmartPointer.102" = type { ptr, ptr }
%"class.dealii::SmartPointer.103" = type { ptr, ptr }
%"struct.dealii::internal::FEValuesViews::Cache" = type { %"class.std::vector.104", %"class.std::vector.109" }
%"class.std::vector.104" = type { %"struct.std::_Vector_base.105" }
%"struct.std::_Vector_base.105" = type { %"struct.std::_Vector_base<dealii::FEValuesViews::Scalar<3, 3>, std::allocator<dealii::FEValuesViews::Scalar<3, 3> > >::_Vector_impl" }
%"struct.std::_Vector_base<dealii::FEValuesViews::Scalar<3, 3>, std::allocator<dealii::FEValuesViews::Scalar<3, 3> > >::_Vector_impl" = type { %"struct.std::_Vector_base<dealii::FEValuesViews::Scalar<3, 3>, std::allocator<dealii::FEValuesViews::Scalar<3, 3> > >::_Vector_impl_data" }
%"struct.std::_Vector_base<dealii::FEValuesViews::Scalar<3, 3>, std::allocator<dealii::FEValuesViews::Scalar<3, 3> > >::_Vector_impl_data" = type { ptr, ptr, ptr }
%"class.std::vector.109" = type { %"struct.std::_Vector_base.110" }
%"struct.std::_Vector_base.110" = type { %"struct.std::_Vector_base<dealii::FEValuesViews::Vector<3, 3>, std::allocator<dealii::FEValuesViews::Vector<3, 3> > >::_Vector_impl" }
%"struct.std::_Vector_base<dealii::FEValuesViews::Vector<3, 3>, std::allocator<dealii::FEValuesViews::Vector<3, 3> > >::_Vector_impl" = type { %"struct.std::_Vector_base<dealii::FEValuesViews::Vector<3, 3>, std::allocator<dealii::FEValuesViews::Vector<3, 3> > >::_Vector_impl_data" }
%"struct.std::_Vector_base<dealii::FEValuesViews::Vector<3, 3>, std::allocator<dealii::FEValuesViews::Vector<3, 3> > >::_Vector_impl_data" = type { ptr, ptr, ptr }
%"class.dealii::Quadrature" = type { %"class.dealii::Subscriptor", i32, %"class.std::vector", %"class.std::vector.27" }
%"class.std::vector" = type { %"struct.std::_Vector_base" }
%"struct.std::_Vector_base" = type { %"struct.std::_Vector_base<dealii::Point<2>, std::allocator<dealii::Point<2> > >::_Vector_impl" }
%"struct.std::_Vector_base<dealii::Point<2>, std::allocator<dealii::Point<2> > >::_Vector_impl" = type { %"struct.std::_Vector_base<dealii::Point<2>, std::allocator<dealii::Point<2> > >::_Vector_impl_data" }
%"struct.std::_Vector_base<dealii::Point<2>, std::allocator<dealii::Point<2> > >::_Vector_impl_data" = type { ptr, ptr, ptr }
%"class.std::vector.114" = type { %"struct.std::_Vector_base.115" }
%"struct.std::_Vector_base.115" = type { %"struct.std::_Vector_base<dealii::Vector<double>, std::allocator<dealii::Vector<double> > >::_Vector_impl" }
%"struct.std::_Vector_base<dealii::Vector<double>, std::allocator<dealii::Vector<double> > >::_Vector_impl" = type { %"struct.std::_Vector_base<dealii::Vector<double>, std::allocator<dealii::Vector<double> > >::_Vector_impl_data" }
%"struct.std::_Vector_base<dealii::Vector<double>, std::allocator<dealii::Vector<double> > >::_Vector_impl_data" = type { ptr, ptr, ptr }
%"class.dealii::Vector" = type { %"class.dealii::Subscriptor", i32, i32, ptr }
%"class.std::allocator.116" = type { i8 }
%"class.dealii::TriaActiveIterator" = type { %"class.dealii::TriaIterator" }
%"class.dealii::TriaIterator" = type { %"class.dealii::TriaRawIterator" }
%"class.dealii::TriaRawIterator" = type { %"class.dealii::DoFCellAccessor" }
%"class.dealii::DoFCellAccessor" = type { %"class.dealii::DoFAccessor" }
%"class.dealii::DoFAccessor" = type { %"class.dealii::CellAccessor", ptr }
%"class.dealii::CellAccessor" = type { %"class.dealii::TriaAccessor" }
%"class.dealii::TriaAccessor" = type { %"class.dealii::TriaAccessorBase" }
%"class.dealii::TriaAccessorBase" = type { i32, i32, ptr }
%"class.dealii::TriaActiveIterator.159" = type { %"class.dealii::TriaIterator.160" }
%"class.dealii::TriaIterator.160" = type { %"class.dealii::TriaRawIterator.161" }
%"class.dealii::TriaRawIterator.161" = type { %"class.dealii::CellAccessor" }
%"class.libparest::Slave::Stationary::Discretization::Base" = type { %"class.dealii::Subscriptor", ptr, ptr, ptr }
%"class.libparest::Slave::Stationary::Discretization::FiniteElements" = type { %"class.dealii::Subscriptor", ptr, ptr, ptr, ptr, ptr }
%"class.libparest::Slave::Stationary::ProblemDescription" = type { %"class.dealii::Subscriptor", i32, i32, i32, i32 }
%"class.libparest::Slave::Stationary::Discretization::DoFHandlers" = type { %"class.dealii::Subscriptor", %"class.dealii::DoFHandler", %"class.dealii::InterGridMap", %"class.dealii::InterGridMap", %"class.std::vector.66", %"class.dealii::ConstraintMatrix", %"class.dealii::BlockSparsityPattern", %"class.std::vector.61", %"class.std::vector.61", %"class.dealii::SparsityPattern", %"class.dealii::SparseMatrix", %"class.dealii::SmartPointer.147", %"class.libparest::Slave::Stationary::ProblemDescription", %"class.dealii::SmartPointer.148", i8, [7 x i8], %"class.dealii::Table.149" }
%"class.dealii::DoFHandler" = type { %"class.dealii::Subscriptor", %"class.dealii::SmartPointer.120", %"class.dealii::SmartPointer.102", %"class.std::vector.121", ptr, i32, %"class.std::vector.61" }
%"class.dealii::SmartPointer.120" = type { ptr, ptr }
%"class.std::vector.121" = type { %"struct.std::_Vector_base.122" }
%"struct.std::_Vector_base.122" = type { %"struct.std::_Vector_base<dealii::internal::DoFHandler::DoFLevel<3> *, std::allocator<dealii::internal::DoFHandler::DoFLevel<3> *> >::_Vector_impl" }
%"struct.std::_Vector_base<dealii::internal::DoFHandler::DoFLevel<3> *, std::allocator<dealii::internal::DoFHandler::DoFLevel<3> *> >::_Vector_impl" = type { %"struct.std::_Vector_base<dealii::internal::DoFHandler::DoFLevel<3> *, std::allocator<dealii::internal::DoFHandler::DoFLevel<3> *> >::_Vector_impl_data" }
%"struct.std::_Vector_base<dealii::internal::DoFHandler::DoFLevel<3> *, std::allocator<dealii::internal::DoFHandler::DoFLevel<3> *> >::_Vector_impl_data" = type { ptr, ptr, ptr }
%"class.dealii::InterGridMap" = type { %"class.std::vector.126", %"class.dealii::SmartPointer.131", %"class.dealii::SmartPointer.131" }
%"class.std::vector.126" = type { %"struct.std::_Vector_base.127" }
%"struct.std::_Vector_base.127" = type { %"struct.std::_Vector_base<std::vector<dealii::TriaIterator<dealii::DoFCellAccessor<dealii::DoFHandler<3, 3> > > >, std::allocator<std::vector<dealii::TriaIterator<dealii::DoFCellAccessor<dealii::DoFHandler<3, 3> > > > > >::_Vector_impl" }
%"struct.std::_Vector_base<std::vector<dealii::TriaIterator<dealii::DoFCellAccessor<dealii::DoFHandler<3, 3> > > >, std::allocator<std::vector<dealii::TriaIterator<dealii::DoFCellAccessor<dealii::DoFHandler<3, 3> > > > > >::_Vector_impl" = type { %"struct.std::_Vector_base<std::vector<dealii::TriaIterator<dealii::DoFCellAccessor<dealii::DoFHandler<3, 3> > > >, std::allocator<std::vector<dealii::TriaIterator<dealii::DoFCellAccessor<dealii::DoFHandler<3, 3> > > > > >::_Vector_impl_data" }
%"struct.std::_Vector_base<std::vector<dealii::TriaIterator<dealii::DoFCellAccessor<dealii::DoFHandler<3, 3> > > >, std::allocator<std::vector<dealii::TriaIterator<dealii::DoFCellAccessor<dealii::DoFHandler<3, 3> > > > > >::_Vector_impl_data" = type { ptr, ptr, ptr }
%"class.dealii::SmartPointer.131" = type { ptr, ptr }
%"class.std::vector.66" = type { %"struct.std::_Bvector_base" }
%"struct.std::_Bvector_base" = type { %"struct.std::_Bvector_base<std::allocator<bool> >::_Bvector_impl" }
%"struct.std::_Bvector_base<std::allocator<bool> >::_Bvector_impl" = type { %"struct.std::_Bvector_base<std::allocator<bool> >::_Bvector_impl_data" }
%"struct.std::_Bvector_base<std::allocator<bool> >::_Bvector_impl_data" = type { %"struct.std::_Bit_iterator", %"struct.std::_Bit_iterator", ptr }
%"struct.std::_Bit_iterator" = type { %"struct.std::_Bit_iterator_base.base", [4 x i8] }
%"struct.std::_Bit_iterator_base.base" = type <{ ptr, i32 }>
%"class.dealii::ConstraintMatrix" = type <{ %"class.dealii::Subscriptor", %"class.std::vector.132", %"class.std::vector.66", i8, %"class.dealii::Threads::DummyThreadMutex", [6 x i8] }>
%"class.std::vector.132" = type { %"struct.std::_Vector_base.133" }
%"struct.std::_Vector_base.133" = type { %"struct.std::_Vector_base<dealii::ConstraintMatrix::ConstraintLine, std::allocator<dealii::ConstraintMatrix::ConstraintLine> >::_Vector_impl" }
%"struct.std::_Vector_base<dealii::ConstraintMatrix::ConstraintLine, std::allocator<dealii::ConstraintMatrix::ConstraintLine> >::_Vector_impl" = type { %"struct.std::_Vector_base<dealii::ConstraintMatrix::ConstraintLine, std::allocator<dealii::ConstraintMatrix::ConstraintLine> >::_Vector_impl_data" }
%"struct.std::_Vector_base<dealii::ConstraintMatrix::ConstraintLine, std::allocator<dealii::ConstraintMatrix::ConstraintLine> >::_Vector_impl_data" = type { ptr, ptr, ptr }
%"class.dealii::Threads::DummyThreadMutex" = type { i8 }
%"class.dealii::BlockSparsityPattern" = type { %"class.dealii::BlockSparsityPatternBase" }
%"class.dealii::BlockSparsityPatternBase" = type { %"class.dealii::Subscriptor", i32, i32, %"class.dealii::Table.137", %"class.dealii::BlockIndices", %"class.dealii::BlockIndices", %"class.std::vector.61", %"class.std::vector.141" }
%"class.dealii::Table.137" = type { %"class.dealii::TableBase.base.139", [4 x i8] }
%"class.dealii::TableBase.base.139" = type <{ %"class.dealii::Subscriptor", ptr, i32, %"class.dealii::TableIndices" }>
%"class.dealii::BlockIndices" = type { i32, %"class.std::vector.61" }
%"class.std::vector.141" = type { %"struct.std::_Vector_base.142" }
%"struct.std::_Vector_base.142" = type { %"struct.std::_Vector_base<std::vector<unsigned int>, std::allocator<std::vector<unsigned int> > >::_Vector_impl" }
%"struct.std::_Vector_base<std::vector<unsigned int>, std::allocator<std::vector<unsigned int> > >::_Vector_impl" = type { %"struct.std::_Vector_base<std::vector<unsigned int>, std::allocator<std::vector<unsigned int> > >::_Vector_impl_data" }
%"struct.std::_Vector_base<std::vector<unsigned int>, std::allocator<std::vector<unsigned int> > >::_Vector_impl_data" = type { ptr, ptr, ptr }
%"class.dealii::SparsityPattern" = type <{ %"class.dealii::Subscriptor", i32, i32, i32, [4 x i8], i64, i32, [4 x i8], ptr, ptr, i8, i8, [6 x i8] }>
%"class.dealii::SparseMatrix" = type <{ ptr, %"class.dealii::SmartPointer.146", ptr, i32, [4 x i8], %"class.dealii::Subscriptor" }>
%"class.dealii::SmartPointer.146" = type { ptr, ptr }
%"class.dealii::SmartPointer.147" = type { ptr, ptr }
%"class.dealii::SmartPointer.148" = type { ptr, ptr }
%"class.dealii::Table.149" = type { %"class.dealii::TableBase.base.151", [4 x i8] }
%"class.dealii::TableBase.base.151" = type <{ %"class.dealii::Subscriptor", ptr, i32, %"class.dealii::TableIndices" }>
%"class.dealii::Triangulation" = type { %"class.dealii::Subscriptor", %"class.std::vector.212", ptr, %"class.std::vector.37", %"class.std::vector.66", [255 x %"class.dealii::SmartPointer.217"], [255 x %"class.dealii::SmartPointer.217"], i8, i32, %"struct.dealii::internal::Triangulation::NumberCache", %"class.std::__cxx11::list" }
%"class.std::vector.212" = type { %"struct.std::_Vector_base.213" }
%"struct.std::_Vector_base.213" = type { %"struct.std::_Vector_base<dealii::internal::Triangulation::TriaLevel<3> *, std::allocator<dealii::internal::Triangulation::TriaLevel<3> *> >::_Vector_impl" }
%"struct.std::_Vector_base<dealii::internal::Triangulation::TriaLevel<3> *, std::allocator<dealii::internal::Triangulation::TriaLevel<3> *> >::_Vector_impl" = type { %"struct.std::_Vector_base<dealii::internal::Triangulation::TriaLevel<3> *, std::allocator<dealii::internal::Triangulation::TriaLevel<3> *> >::_Vector_impl_data" }
%"struct.std::_Vector_base<dealii::internal::Triangulation::TriaLevel<3> *, std::allocator<dealii::internal::Triangulation::TriaLevel<3> *> >::_Vector_impl_data" = type { ptr, ptr, ptr }
%"class.dealii::SmartPointer.217" = type { ptr, ptr }
%"struct.dealii::internal::Triangulation::NumberCache" = type { %"struct.dealii::internal::Triangulation::NumberCache.218", i32, %"class.std::vector.61", i32, %"class.std::vector.61" }
%"struct.dealii::internal::Triangulation::NumberCache.218" = type { %"struct.dealii::internal::Triangulation::NumberCache.219", i32, %"class.std::vector.61", i32, %"class.std::vector.61" }
%"struct.dealii::internal::Triangulation::NumberCache.219" = type { i32, %"class.std::vector.61", i32, %"class.std::vector.61" }
%"class.std::__cxx11::list" = type { %"class.std::__cxx11::_List_base" }
%"class.std::__cxx11::_List_base" = type { %"struct.std::__cxx11::_List_base<dealii::Triangulation<3, 3>::RefinementListener *, std::allocator<dealii::Triangulation<3, 3>::RefinementListener *> >::_List_impl" }
%"struct.std::__cxx11::_List_base<dealii::Triangulation<3, 3>::RefinementListener *, std::allocator<dealii::Triangulation<3, 3>::RefinementListener *> >::_List_impl" = type { %"struct.std::__detail::_List_node_header" }
%"struct.std::__detail::_List_node_header" = type { %"struct.std::__detail::_List_node_base", i64 }
%"struct.std::__detail::_List_node_base" = type { ptr, ptr }
%"class.dealii::internal::Triangulation::TriaLevel" = type { %"class.std::vector.190", %"class.std::vector.66", %"class.std::vector.192", %"class.std::vector.61", %"class.dealii::internal::Triangulation::TriaObjectsHex" }
%"class.std::vector.190" = type { %"struct.std::_Vector_base.191" }
%"struct.std::_Vector_base.191" = type { %"struct.std::_Vector_base<unsigned char, std::allocator<unsigned char> >::_Vector_impl" }
%"struct.std::_Vector_base<unsigned char, std::allocator<unsigned char> >::_Vector_impl" = type { %"struct.std::_Vector_base<unsigned char, std::allocator<unsigned char> >::_Vector_impl_data" }
%"struct.std::_Vector_base<unsigned char, std::allocator<unsigned char> >::_Vector_impl_data" = type { ptr, ptr, ptr }
%"class.std::vector.192" = type { %"struct.std::_Vector_base.193" }
%"struct.std::_Vector_base.193" = type { %"struct.std::_Vector_base<std::pair<int, int>, std::allocator<std::pair<int, int> > >::_Vector_impl" }
%"struct.std::_Vector_base<std::pair<int, int>, std::allocator<std::pair<int, int> > >::_Vector_impl" = type { %"struct.std::_Vector_base<std::pair<int, int>, std::allocator<std::pair<int, int> > >::_Vector_impl_data" }
%"struct.std::_Vector_base<std::pair<int, int>, std::allocator<std::pair<int, int> > >::_Vector_impl_data" = type { ptr, ptr, ptr }
%"class.dealii::internal::Triangulation::TriaObjectsHex" = type { %"class.dealii::internal::Triangulation::TriaObjects.base", %"class.std::vector.66", %"class.std::vector.66", %"class.std::vector.66" }
%"class.dealii::internal::Triangulation::TriaObjects.base" = type <{ %"class.std::vector.197", %"class.std::vector.46", %"class.std::vector.202", %"class.std::vector.66", %"class.std::vector.66", %"class.std::vector.190", i32, i32, i8, [7 x i8], %"class.std::vector.207", i32 }>
%"class.std::vector.197" = type { %"struct.std::_Vector_base.198" }
%"struct.std::_Vector_base.198" = type { %"struct.std::_Vector_base<dealii::internal::Triangulation::TriaObject<3>, std::allocator<dealii::internal::Triangulation::TriaObject<3> > >::_Vector_impl" }
%"struct.std::_Vector_base<dealii::internal::Triangulation::TriaObject<3>, std::allocator<dealii::internal::Triangulation::TriaObject<3> > >::_Vector_impl" = type { %"struct.std::_Vector_base<dealii::internal::Triangulation::TriaObject<3>, std::allocator<dealii::internal::Triangulation::TriaObject<3> > >::_Vector_impl_data" }
%"struct.std::_Vector_base<dealii::internal::Triangulation::TriaObject<3>, std::allocator<dealii::internal::Triangulation::TriaObject<3> > >::_Vector_impl_data" = type { ptr, ptr, ptr }
%"class.std::vector.46" = type { %"struct.std::_Vector_base.47" }
%"struct.std::_Vector_base.47" = type { %"struct.std::_Vector_base<int, std::allocator<int> >::_Vector_impl" }
%"struct.std::_Vector_base<int, std::allocator<int> >::_Vector_impl" = type { %"struct.std::_Vector_base<int, std::allocator<int> >::_Vector_impl_data" }
%"struct.std::_Vector_base<int, std::allocator<int> >::_Vector_impl_data" = type { ptr, ptr, ptr }
%"class.std::vector.202" = type { %"struct.std::_Vector_base.203" }
%"struct.std::_Vector_base.203" = type { %"struct.std::_Vector_base<dealii::RefinementCase<3>, std::allocator<dealii::RefinementCase<3> > >::_Vector_impl" }
%"struct.std::_Vector_base<dealii::RefinementCase<3>, std::allocator<dealii::RefinementCase<3> > >::_Vector_impl" = type { %"struct.std::_Vector_base<dealii::RefinementCase<3>, std::allocator<dealii::RefinementCase<3> > >::_Vector_impl_data" }
%"struct.std::_Vector_base<dealii::RefinementCase<3>, std::allocator<dealii::RefinementCase<3> > >::_Vector_impl_data" = type { ptr, ptr, ptr }
%"class.std::vector.207" = type { %"struct.std::_Vector_base.208" }
%"struct.std::_Vector_base.208" = type { %"struct.std::_Vector_base<dealii::internal::Triangulation::TriaObjects<dealii::internal::Triangulation::TriaObject<3> >::UserData, std::allocator<dealii::internal::Triangulation::TriaObjects<dealii::internal::Triangulation::TriaObject<3> >::UserData> >::_Vector_impl" }
%"struct.std::_Vector_base<dealii::internal::Triangulation::TriaObjects<dealii::internal::Triangulation::TriaObject<3> >::UserData, std::allocator<dealii::internal::Triangulation::TriaObjects<dealii::internal::Triangulation::TriaObject<3> >::UserData> >::_Vector_impl" = type { %"struct.std::_Vector_base<dealii::internal::Triangulation::TriaObjects<dealii::internal::Triangulation::TriaObject<3> >::UserData, std::allocator<dealii::internal::Triangulation::TriaObjects<dealii::internal::Triangulation::TriaObject<3> >::UserData> >::_Vector_impl_data" }
%"struct.std::_Vector_base<dealii::internal::Triangulation::TriaObjects<dealii::internal::Triangulation::TriaObject<3> >::UserData, std::allocator<dealii::internal::Triangulation::TriaObjects<dealii::internal::Triangulation::TriaObject<3> >::UserData> >::_Vector_impl_data" = type { ptr, ptr, ptr }
%"class.dealii::internal::Triangulation::TriaObject" = type { [6 x i32] }
%"class.dealii::internal::Triangulation::TriaObjects.223" = type <{ %"class.std::vector.224", %"class.std::vector.46", %"class.std::vector.229", %"class.std::vector.66", %"class.std::vector.66", %"class.std::vector.190", i32, i32, i8, [7 x i8], %"class.std::vector.234", i32, [4 x i8] }>
%"class.std::vector.224" = type { %"struct.std::_Vector_base.225" }
%"struct.std::_Vector_base.225" = type { %"struct.std::_Vector_base<dealii::internal::Triangulation::TriaObject<2>, std::allocator<dealii::internal::Triangulation::TriaObject<2> > >::_Vector_impl" }
%"struct.std::_Vector_base<dealii::internal::Triangulation::TriaObject<2>, std::allocator<dealii::internal::Triangulation::TriaObject<2> > >::_Vector_impl" = type { %"struct.std::_Vector_base<dealii::internal::Triangulation::TriaObject<2>, std::allocator<dealii::internal::Triangulation::TriaObject<2> > >::_Vector_impl_data" }
%"struct.std::_Vector_base<dealii::internal::Triangulation::TriaObject<2>, std::allocator<dealii::internal::Triangulation::TriaObject<2> > >::_Vector_impl_data" = type { ptr, ptr, ptr }
%"class.std::vector.229" = type { %"struct.std::_Vector_base.230" }
%"struct.std::_Vector_base.230" = type { %"struct.std::_Vector_base<dealii::RefinementCase<2>, std::allocator<dealii::RefinementCase<2> > >::_Vector_impl" }
%"struct.std::_Vector_base<dealii::RefinementCase<2>, std::allocator<dealii::RefinementCase<2> > >::_Vector_impl" = type { %"struct.std::_Vector_base<dealii::RefinementCase<2>, std::allocator<dealii::RefinementCase<2> > >::_Vector_impl_data" }
%"struct.std::_Vector_base<dealii::RefinementCase<2>, std::allocator<dealii::RefinementCase<2> > >::_Vector_impl_data" = type { ptr, ptr, ptr }
%"class.std::vector.234" = type { %"struct.std::_Vector_base.235" }
%"struct.std::_Vector_base.235" = type { %"struct.std::_Vector_base<dealii::internal::Triangulation::TriaObjects<dealii::internal::Triangulation::TriaObject<2> >::UserData, std::allocator<dealii::internal::Triangulation::TriaObjects<dealii::internal::Triangulation::TriaObject<2> >::UserData> >::_Vector_impl" }
%"struct.std::_Vector_base<dealii::internal::Triangulation::TriaObjects<dealii::internal::Triangulation::TriaObject<2> >::UserData, std::allocator<dealii::internal::Triangulation::TriaObjects<dealii::internal::Triangulation::TriaObject<2> >::UserData> >::_Vector_impl" = type { %"struct.std::_Vector_base<dealii::internal::Triangulation::TriaObjects<dealii::internal::Triangulation::TriaObject<2> >::UserData, std::allocator<dealii::internal::Triangulation::TriaObjects<dealii::internal::Triangulation::TriaObject<2> >::UserData> >::_Vector_impl_data" }
%"struct.std::_Vector_base<dealii::internal::Triangulation::TriaObjects<dealii::internal::Triangulation::TriaObject<2> >::UserData, std::allocator<dealii::internal::Triangulation::TriaObjects<dealii::internal::Triangulation::TriaObject<2> >::UserData> >::_Vector_impl_data" = type { ptr, ptr, ptr }
%"struct.std::_Rb_tree_node" = type <{ %"struct.std::_Rb_tree_node_base", i8, [7 x i8] }>
%"class.dealii::FiniteElement" = type { %"class.dealii::Subscriptor", %"class.dealii::FiniteElementData", i8, %"class.std::vector.32", %"class.std::vector.32", %"class.dealii::FullMatrix", %"class.std::vector.37", %"class.std::vector", %"class.std::vector.37", %"class.std::vector", %"class.dealii::Table.42", %"class.std::vector.46", %"class.std::vector.51", %"class.std::vector.51", %"class.std::vector.56", %"class.std::vector.56", %"class.std::vector.61", %"class.std::vector.56", %"class.std::vector.66", %"class.std::vector.70", %"class.std::vector.61" }
%"class.dealii::FiniteElementData" = type { i32, i32, i32, i32, i32, i32, i32, i32, i32, i32, i32, i32, i32, i32, i32 }
%"class.std::vector.32" = type { %"struct.std::_Vector_base.33" }
%"struct.std::_Vector_base.33" = type { %"struct.std::_Vector_base<std::vector<dealii::FullMatrix<double> >, std::allocator<std::vector<dealii::FullMatrix<double> > > >::_Vector_impl" }
%"struct.std::_Vector_base<std::vector<dealii::FullMatrix<double> >, std::allocator<std::vector<dealii::FullMatrix<double> > > >::_Vector_impl" = type { %"struct.std::_Vector_base<std::vector<dealii::FullMatrix<double> >, std::allocator<std::vector<dealii::FullMatrix<double> > > >::_Vector_impl_data" }
%"struct.std::_Vector_base<std::vector<dealii::FullMatrix<double> >, std::allocator<std::vector<dealii::FullMatrix<double> > > >::_Vector_impl_data" = type { ptr, ptr, ptr }
%"class.dealii::FullMatrix" = type { %"class.dealii::Table.base", [4 x i8] }
%"class.dealii::Table.base" = type { %"class.dealii::TableBase.base" }
%"class.dealii::Table.42" = type { %"class.dealii::TableBase.base.44", [4 x i8] }
%"class.dealii::TableBase.base.44" = type <{ %"class.dealii::Subscriptor", ptr, i32, %"class.dealii::TableIndices" }>
%"class.std::vector.51" = type { %"struct.std::_Vector_base.52" }
%"struct.std::_Vector_base.52" = type { %"struct.std::_Vector_base<std::pair<unsigned int, unsigned int>, std::allocator<std::pair<unsigned int, unsigned int> > >::_Vector_impl" }
%"struct.std::_Vector_base<std::pair<unsigned int, unsigned int>, std::allocator<std::pair<unsigned int, unsigned int> > >::_Vector_impl" = type { %"struct.std::_Vector_base<std::pair<unsigned int, unsigned int>, std::allocator<std::pair<unsigned int, unsigned int> > >::_Vector_impl_data" }
%"struct.std::_Vector_base<std::pair<unsigned int, unsigned int>, std::allocator<std::pair<unsigned int, unsigned int> > >::_Vector_impl_data" = type { ptr, ptr, ptr }
%"class.std::vector.56" = type { %"struct.std::_Vector_base.57" }
%"struct.std::_Vector_base.57" = type { %"struct.std::_Vector_base<std::pair<std::pair<unsigned int, unsigned int>, unsigned int>, std::allocator<std::pair<std::pair<unsigned int, unsigned int>, unsigned int> > >::_Vector_impl" }
%"struct.std::_Vector_base<std::pair<std::pair<unsigned int, unsigned int>, unsigned int>, std::allocator<std::pair<std::pair<unsigned int, unsigned int>, unsigned int> > >::_Vector_impl" = type { %"struct.std::_Vector_base<std::pair<std::pair<unsigned int, unsigned int>, unsigned int>, std::allocator<std::pair<std::pair<unsigned int, unsigned int>, unsigned int> > >::_Vector_impl_data" }
%"struct.std::_Vector_base<std::pair<std::pair<unsigned int, unsigned int>, unsigned int>, std::allocator<std::pair<std::pair<unsigned int, unsigned int>, unsigned int> > >::_Vector_impl_data" = type { ptr, ptr, ptr }
%"class.std::vector.70" = type { %"struct.std::_Vector_base.71" }
%"struct.std::_Vector_base.71" = type { %"struct.std::_Vector_base<std::vector<bool>, std::allocator<std::vector<bool> > >::_Vector_impl" }
%"struct.std::_Vector_base<std::vector<bool>, std::allocator<std::vector<bool> > >::_Vector_impl" = type { %"struct.std::_Vector_base<std::vector<bool>, std::allocator<std::vector<bool> > >::_Vector_impl_data" }
%"struct.std::_Vector_base<std::vector<bool>, std::allocator<std::vector<bool> > >::_Vector_impl_data" = type { ptr, ptr, ptr }
%"class.dealii::BlockVectorBase" = type { %"class.dealii::Subscriptor", %"class.std::vector.114", %"class.dealii::BlockIndices" }
%"struct.std::pair" = type { i32, i32 }
%"class.dealii::TableBase" = type <{ %"class.dealii::Subscriptor", ptr, i32, %"class.dealii::TableIndices", [4 x i8] }>
%"class.dealii::BlockMatrixBase" = type { %"class.dealii::Subscriptor", %"class.dealii::BlockIndices", %"class.dealii::BlockIndices", %"class.dealii::Table.163", %"class.std::vector.61", %"class.std::vector.141", %"class.std::vector.167" }
%"class.dealii::Table.163" = type { %"class.dealii::TableBase.base.165", [4 x i8] }
%"class.dealii::TableBase.base.165" = type <{ %"class.dealii::Subscriptor", ptr, i32, %"class.dealii::TableIndices" }>
%"class.std::vector.167" = type { %"struct.std::_Vector_base.168" }
%"struct.std::_Vector_base.168" = type { %"struct.std::_Vector_base<std::vector<double>, std::allocator<std::vector<double> > >::_Vector_impl" }
%"struct.std::_Vector_base<std::vector<double>, std::allocator<std::vector<double> > >::_Vector_impl" = type { %"struct.std::_Vector_base<std::vector<double>, std::allocator<std::vector<double> > >::_Vector_impl_data" }
%"struct.std::_Vector_base<std::vector<double>, std::allocator<std::vector<double> > >::_Vector_impl_data" = type { ptr, ptr, ptr }
%"class.dealii::SmartPointer.260" = type { ptr, ptr }
%"class.METomography::Measurements::ScaledWeightedDirichletMeasurements::Base.173" = type { %"class.libparest::Slave::Stationary::Measurements::Base.174", %"class.libparest::Slave::Stationary::Measurements::BoundaryMeasurementBase", %"class.dealii::SmartPointer.23" }
%"class.libparest::Slave::Stationary::Measurements::Base.174" = type { %"class.dealii::Subscriptor", %"class.dealii::SmartPointer" }
%"class.dealii::BlockMatrixBase.176" = type { %"class.dealii::Subscriptor", %"class.dealii::BlockIndices", %"class.dealii::BlockIndices", %"class.dealii::Table.177", %"class.std::vector.61", %"class.std::vector.141", %"class.std::vector.167" }
%"class.dealii::Table.177" = type { %"class.dealii::TableBase.base.179", [4 x i8] }
%"class.dealii::TableBase.base.179" = type <{ %"class.dealii::Subscriptor", ptr, i32, %"class.dealii::TableIndices" }>
%"class.dealii::SmartPointer.264" = type { ptr, ptr }
%"class.dealii::SparseMatrix.261" = type <{ ptr, %"class.dealii::SmartPointer.146", ptr, i32, [4 x i8], %"class.dealii::Subscriptor" }>
%"class.METomography::Measurements::ReferencedMeasurements::RatioOverRatioMinusOne" = type { %"class.libparest::Slave::Stationary::Measurements::Base", %"class.libparest::Slave::Stationary::Measurements::BoundaryMeasurementBase", %"class.dealii::SmartPointer.23" }
%"class.dealii::Vector.184" = type { %"class.dealii::Subscriptor", i32, i32, ptr }
%"class.METomography::Measurements::ReferencedMeasurements::RatioOverRatioMinusOne<3, double>::ExcDiagNotPositive" = type { %"class.dealii::ExceptionBase.base", double }
%"class.dealii::ExceptionBase.base" = type <{ %"class.std::exception", ptr, i32, [4 x i8], ptr, ptr, ptr, ptr, i32 }>
%"class.std::exception" = type { ptr }
%"class.std::basic_ios" = type { %"class.std::ios_base", ptr, i8, i8, ptr, ptr, ptr, ptr }
%"class.std::ios_base" = type { ptr, i64, i64, i32, i32, i32, ptr, %"struct.std::ios_base::_Words", [8 x %"struct.std::ios_base::_Words"], i32, ptr, %"class.std::locale" }
%"struct.std::ios_base::_Words" = type { ptr, i64 }
%"class.std::locale" = type { ptr }
%"class.std::ctype" = type <{ %"class.std::locale::facet.base", [4 x i8], ptr, i8, [7 x i8], ptr, ptr, ptr, i8, [256 x i8], [256 x i8], i8, [6 x i8] }>
%"class.std::locale::facet.base" = type <{ ptr, i32 }>
%"class.METomography::Measurements::ReferencedMeasurements::RatioOverRatioMinusOne.185" = type { %"class.libparest::Slave::Stationary::Measurements::Base.174", %"class.libparest::Slave::Stationary::Measurements::BoundaryMeasurementBase", %"class.dealii::SmartPointer.23" }
%"class.METomography::Measurements::ReferencedMeasurements::RatioOverRatioMinusOne<3, float>::ExcDiagNotPositive" = type { %"class.dealii::ExceptionBase.base", double }
%"class.METomography::Measurements::ReferencedMeasurements::RatioMinusRatio" = type { %"class.libparest::Slave::Stationary::Measurements::Base", %"class.libparest::Slave::Stationary::Measurements::BoundaryMeasurementBase", %"class.std::complex", %"class.std::complex", %"class.dealii::Point", i32, %"class.dealii::SmartPointer.23" }
%"class.std::complex" = type { { double, double } }
%"class.dealii::Point" = type { %"class.dealii::Tensor" }
%"class.dealii::Tensor" = type { [3 x double] }
%"class.dealii::QTrapez" = type { %"class.dealii::Quadrature" }
%"class.dealii::internal::Triangulation::TriaObject.273" = type { [4 x i32] }
%"class.dealii::internal::Triangulation::TriaObjectsQuad3D" = type { %"class.dealii::internal::Triangulation::TriaObjects.base.239", %"class.std::vector.66" }
%"class.dealii::internal::Triangulation::TriaObjects.base.239" = type <{ %"class.std::vector.224", %"class.std::vector.46", %"class.std::vector.229", %"class.std::vector.66", %"class.std::vector.66", %"class.std::vector.190", i32, i32, i8, [7 x i8], %"class.std::vector.234", i32 }>
%"class.dealii::internal::Triangulation::TriaFaces" = type { %"class.dealii::internal::Triangulation::TriaObjectsQuad3D", %"class.dealii::internal::Triangulation::TriaObjects.240" }
%"class.dealii::internal::Triangulation::TriaObjects.240" = type <{ %"class.std::vector.241", %"class.std::vector.46", %"class.std::vector.246", %"class.std::vector.66", %"class.std::vector.66", %"class.std::vector.190", i32, i32, i8, [7 x i8], %"class.std::vector.251", i32, [4 x i8] }>
%"class.std::vector.241" = type { %"struct.std::_Vector_base.242" }
%"struct.std::_Vector_base.242" = type { %"struct.std::_Vector_base<dealii::internal::Triangulation::TriaObject<1>, std::allocator<dealii::internal::Triangulation::TriaObject<1> > >::_Vector_impl" }
%"struct.std::_Vector_base<dealii::internal::Triangulation::TriaObject<1>, std::allocator<dealii::internal::Triangulation::TriaObject<1> > >::_Vector_impl" = type { %"struct.std::_Vector_base<dealii::internal::Triangulation::TriaObject<1>, std::allocator<dealii::internal::Triangulation::TriaObject<1> > >::_Vector_impl_data" }
%"struct.std::_Vector_base<dealii::internal::Triangulation::TriaObject<1>, std::allocator<dealii::internal::Triangulation::TriaObject<1> > >::_Vector_impl_data" = type { ptr, ptr, ptr }
%"class.std::vector.246" = type { %"struct.std::_Vector_base.247" }
%"struct.std::_Vector_base.247" = type { %"struct.std::_Vector_base<dealii::RefinementCase<1>, std::allocator<dealii::RefinementCase<1> > >::_Vector_impl" }
%"struct.std::_Vector_base<dealii::RefinementCase<1>, std::allocator<dealii::RefinementCase<1> > >::_Vector_impl" = type { %"struct.std::_Vector_base<dealii::RefinementCase<1>, std::allocator<dealii::RefinementCase<1> > >::_Vector_impl_data" }
%"struct.std::_Vector_base<dealii::RefinementCase<1>, std::allocator<dealii::RefinementCase<1> > >::_Vector_impl_data" = type { ptr, ptr, ptr }
%"class.std::vector.251" = type { %"struct.std::_Vector_base.252" }
%"struct.std::_Vector_base.252" = type { %"struct.std::_Vector_base<dealii::internal::Triangulation::TriaObjects<dealii::internal::Triangulation::TriaObject<1> >::UserData, std::allocator<dealii::internal::Triangulation::TriaObjects<dealii::internal::Triangulation::TriaObject<1> >::UserData> >::_Vector_impl" }
%"struct.std::_Vector_base<dealii::internal::Triangulation::TriaObjects<dealii::internal::Triangulation::TriaObject<1> >::UserData, std::allocator<dealii::internal::Triangulation::TriaObjects<dealii::internal::Triangulation::TriaObject<1> >::UserData> >::_Vector_impl" = type { %"struct.std::_Vector_base<dealii::internal::Triangulation::TriaObjects<dealii::internal::Triangulation::TriaObject<1> >::UserData, std::allocator<dealii::internal::Triangulation::TriaObjects<dealii::internal::Triangulation::TriaObject<1> >::UserData> >::_Vector_impl_data" }
%"struct.std::_Vector_base<dealii::internal::Triangulation::TriaObjects<dealii::internal::Triangulation::TriaObject<1> >::UserData, std::allocator<dealii::internal::Triangulation::TriaObjects<dealii::internal::Triangulation::TriaObject<1> >::UserData> >::_Vector_impl_data" = type { ptr, ptr, ptr }
%"class.dealii::internal::Triangulation::TriaObject.274" = type { [2 x i32] }
%"class.dealii::StandardExceptions::ExcNotImplemented" = type { %"class.dealii::ExceptionBase.base", [4 x i8] }
%"class.METomography::Measurements::ReferencedMeasurements::RatioMinusRatio.186" = type { %"class.libparest::Slave::Stationary::Measurements::Base.174", %"class.libparest::Slave::Stationary::Measurements::BoundaryMeasurementBase", %"class.std::complex", %"class.std::complex", %"class.dealii::Point", i32, %"class.dealii::SmartPointer.23" }

$_ZN12METomography12Measurements35ScaledWeightedDirichletMeasurements4BaseILi3EdEC5ERKN9libparest5Slave10Stationary18ProblemDescriptionERKN6dealii8FunctionILi3EEERKSt3setIhSt4lessIhESaIhEE = comdat any

$__clang_call_terminate = comdat any

$_ZNK12METomography12Measurements35ScaledWeightedDirichletMeasurements4BaseILi3EdE21compute_data_misfit_1ERKN9libparest5Slave10Stationary14Discretization4BaseILi3EEERKN6dealii11BlockVectorIdEERKNS6_17MeasurementGetter9Factories4BaseILi3EEEjjRd = comdat any

$_ZNSt6vectorIN6dealii6VectorIdEESaIS2_EEC2EmRKS2_RKS3_ = comdat any

$_ZN6dealii6VectorIdED2Ev = comdat any

$_ZNSt6vectorIN6dealii6VectorIdEESaIS2_EED2Ev = comdat any

$_ZNK12METomography12Measurements35ScaledWeightedDirichletMeasurements4BaseILi3EdE24build_rhs_contribution_1ERKN9libparest5Slave10Stationary14Discretization4BaseILi3EEERKN6dealii11BlockVectorIdEERKNS6_17MeasurementGetter9Factories4BaseILi3EEERSE_jjRNSC_7Threads16DummyThreadMutexE = comdat any

$_ZNK12METomography12Measurements35ScaledWeightedDirichletMeasurements4BaseILi3EdE27build_matrix_contribution_1ERKN9libparest5Slave10Stationary14Discretization4BaseILi3EEERKN6dealii11BlockVectorIdEERKNS6_17MeasurementGetter9Factories4BaseILi3EEERNSC_17BlockSparseMatrixIdEEjjRNSC_7Threads16DummyThreadMutexE = comdat any

$_ZNK12METomography12Measurements35ScaledWeightedDirichletMeasurements4BaseILi3EdE9m_prime_1ERKN9libparest5Slave10Stationary14Discretization4BaseILi3EEERKN6dealii10DoFHandlerILi3ELi3EEERKNSC_6VectorIdEESK_RKNS6_17MeasurementGetter9Factories4BaseILi3EEERNSH_IfEEjj = comdat any

$_ZN12METomography12Measurements35ScaledWeightedDirichletMeasurements4BaseILi3EfEC5ERKN9libparest5Slave10Stationary18ProblemDescriptionERKN6dealii8FunctionILi3EEERKSt3setIhSt4lessIhESaIhEE = comdat any

$_ZNK12METomography12Measurements35ScaledWeightedDirichletMeasurements4BaseILi3EfE21compute_data_misfit_1ERKN9libparest5Slave10Stationary14Discretization4BaseILi3EEERKN6dealii11BlockVectorIdEERKNS6_17MeasurementGetter9Factories4BaseILi3EEEjjRd = comdat any

$_ZNK12METomography12Measurements35ScaledWeightedDirichletMeasurements4BaseILi3EfE24build_rhs_contribution_1ERKN9libparest5Slave10Stationary14Discretization4BaseILi3EEERKN6dealii11BlockVectorIdEERKNS6_17MeasurementGetter9Factories4BaseILi3EEERSE_jjRNSC_7Threads16DummyThreadMutexE = comdat any

$_ZNK12METomography12Measurements35ScaledWeightedDirichletMeasurements4BaseILi3EfE27build_matrix_contribution_1ERKN9libparest5Slave10Stationary14Discretization4BaseILi3EEERKN6dealii11BlockVectorIdEERKNS6_17MeasurementGetter9Factories4BaseILi3EEERNSC_17BlockSparseMatrixIfEEjjRNSC_7Threads16DummyThreadMutexE = comdat any

$_ZNK12METomography12Measurements35ScaledWeightedDirichletMeasurements4BaseILi3EfE9m_prime_1ERKN9libparest5Slave10Stationary14Discretization4BaseILi3EEERKN6dealii10DoFHandlerILi3ELi3EEERKNSC_6VectorIdEESK_RKNS6_17MeasurementGetter9Factories4BaseILi3EEERNSH_IfEEjj = comdat any

$_ZN12METomography12Measurements35ScaledWeightedDirichletMeasurements7Pure_L2ILi3EdEC5ERKN9libparest5Slave10Stationary18ProblemDescriptionERKN6dealii8FunctionILi3EEERKSt3setIhSt4lessIhESaIhEE = comdat any

$_ZNK12METomography12Measurements35ScaledWeightedDirichletMeasurements7Pure_L2ILi3EdE14scaling_factorERKN9libparest5Slave10Stationary14Discretization4BaseILi3EEERKN6dealii11BlockVectorIdEERKNS6_17MeasurementGetter9Factories4BaseILi3EEE = comdat any

$_ZN12METomography12Measurements35ScaledWeightedDirichletMeasurements7Pure_L2ILi3EfEC5ERKN9libparest5Slave10Stationary18ProblemDescriptionERKN6dealii8FunctionILi3EEERKSt3setIhSt4lessIhESaIhEE = comdat any

$_ZNK12METomography12Measurements35ScaledWeightedDirichletMeasurements7Pure_L2ILi3EfE14scaling_factorERKN9libparest5Slave10Stationary14Discretization4BaseILi3EEERKN6dealii11BlockVectorIdEERKNS6_17MeasurementGetter9Factories4BaseILi3EEE = comdat any

$_ZN12METomography12Measurements35ScaledWeightedDirichletMeasurements7L2_RealILi3EdEC5ERKN9libparest5Slave10Stationary18ProblemDescriptionERKN6dealii8FunctionILi3EEERKSt3setIhSt4lessIhESaIhEE = comdat any

$_ZNK12METomography12Measurements35ScaledWeightedDirichletMeasurements7L2_RealILi3EdE14scaling_factorERKN9libparest5Slave10Stationary14Discretization4BaseILi3EEERKN6dealii11BlockVectorIdEERKNS6_17MeasurementGetter9Factories4BaseILi3EEE = comdat any

$_ZN12METomography12Measurements35ScaledWeightedDirichletMeasurements7L2_RealILi3EfEC5ERKN9libparest5Slave10Stationary18ProblemDescriptionERKN6dealii8FunctionILi3EEERKSt3setIhSt4lessIhESaIhEE = comdat any

$_ZNK12METomography12Measurements35ScaledWeightedDirichletMeasurements7L2_RealILi3EfE14scaling_factorERKN9libparest5Slave10Stationary14Discretization4BaseILi3EEERKN6dealii11BlockVectorIdEERKNS6_17MeasurementGetter9Factories4BaseILi3EEE = comdat any

$_ZN12METomography12Measurements35ScaledWeightedDirichletMeasurements10L2_ComplexILi3EdEC5ERKN9libparest5Slave10Stationary18ProblemDescriptionERKN6dealii8FunctionILi3EEERKSt3setIhSt4lessIhESaIhEE = comdat any

$_ZNK12METomography12Measurements35ScaledWeightedDirichletMeasurements10L2_ComplexILi3EdE14scaling_factorERKN9libparest5Slave10Stationary14Discretization4BaseILi3EEERKN6dealii11BlockVectorIdEERKNS6_17MeasurementGetter9Factories4BaseILi3EEE = comdat any

$_ZN12METomography12Measurements35ScaledWeightedDirichletMeasurements10L2_ComplexILi3EfEC5ERKN9libparest5Slave10Stationary18ProblemDescriptionERKN6dealii8FunctionILi3EEERKSt3setIhSt4lessIhESaIhEE = comdat any

$_ZNK12METomography12Measurements35ScaledWeightedDirichletMeasurements10L2_ComplexILi3EfE14scaling_factorERKN9libparest5Slave10Stationary14Discretization4BaseILi3EEERKN6dealii11BlockVectorIdEERKNS6_17MeasurementGetter9Factories4BaseILi3EEE = comdat any

$_ZN12METomography12Measurements22ReferencedMeasurements22RatioOverRatioMinusOneILi3EdEC5ERKN9libparest5Slave10Stationary18ProblemDescriptionERKN6dealii8FunctionILi3EEERKSt3setIhSt4lessIhESaIhEE = comdat any

$_ZNK12METomography12Measurements22ReferencedMeasurements22RatioOverRatioMinusOneILi3EdE21compute_data_misfit_1ERKN9libparest5Slave10Stationary14Discretization4BaseILi3EEERKN6dealii11BlockVectorIdEERKNS6_17MeasurementGetter9Factories4BaseILi3EEEjjRd = comdat any

$_ZNK12METomography12Measurements22ReferencedMeasurements22RatioOverRatioMinusOneILi3EdE24build_rhs_contribution_1ERKN9libparest5Slave10Stationary14Discretization4BaseILi3EEERKN6dealii11BlockVectorIdEERKNS6_17MeasurementGetter9Factories4BaseILi3EEERSE_jjRNSC_7Threads16DummyThreadMutexE = comdat any

$_ZNK12METomography12Measurements22ReferencedMeasurements22RatioOverRatioMinusOneILi3EdE27build_matrix_contribution_1ERKN9libparest5Slave10Stationary14Discretization4BaseILi3EEERKN6dealii11BlockVectorIdEERKNS6_17MeasurementGetter9Factories4BaseILi3EEERNSC_17BlockSparseMatrixIdEEjjRNSC_7Threads16DummyThreadMutexE = comdat any

$_ZNK12METomography12Measurements22ReferencedMeasurements22RatioOverRatioMinusOneILi3EdE9m_prime_1ERKN9libparest5Slave10Stationary14Discretization4BaseILi3EEERKN6dealii10DoFHandlerILi3ELi3EEERKNSC_6VectorIdEESK_RKNS6_17MeasurementGetter9Factories4BaseILi3EEERNSH_IfEEjj = comdat any

$_ZN12METomography12Measurements22ReferencedMeasurements22RatioOverRatioMinusOneILi3EdE18ExcDiagNotPositiveC5Ed = comdat any

$_ZN12METomography12Measurements22ReferencedMeasurements22RatioOverRatioMinusOneILi3EdE18ExcDiagNotPositiveD5Ev = comdat any

$_ZNK12METomography12Measurements22ReferencedMeasurements22RatioOverRatioMinusOneILi3EdE18ExcDiagNotPositive10print_infoERSo = comdat any

$_ZN12METomography12Measurements22ReferencedMeasurements22RatioOverRatioMinusOneILi3EfEC5ERKN9libparest5Slave10Stationary18ProblemDescriptionERKN6dealii8FunctionILi3EEERKSt3setIhSt4lessIhESaIhEE = comdat any

$_ZNK12METomography12Measurements22ReferencedMeasurements22RatioOverRatioMinusOneILi3EfE21compute_data_misfit_1ERKN9libparest5Slave10Stationary14Discretization4BaseILi3EEERKN6dealii11BlockVectorIdEERKNS6_17MeasurementGetter9Factories4BaseILi3EEEjjRd = comdat any

$_ZNK12METomography12Measurements22ReferencedMeasurements22RatioOverRatioMinusOneILi3EfE24build_rhs_contribution_1ERKN9libparest5Slave10Stationary14Discretization4BaseILi3EEERKN6dealii11BlockVectorIdEERKNS6_17MeasurementGetter9Factories4BaseILi3EEERSE_jjRNSC_7Threads16DummyThreadMutexE = comdat any

$_ZNK12METomography12Measurements22ReferencedMeasurements22RatioOverRatioMinusOneILi3EfE27build_matrix_contribution_1ERKN9libparest5Slave10Stationary14Discretization4BaseILi3EEERKN6dealii11BlockVectorIdEERKNS6_17MeasurementGetter9Factories4BaseILi3EEERNSC_17BlockSparseMatrixIfEEjjRNSC_7Threads16DummyThreadMutexE = comdat any

$_ZNK12METomography12Measurements22ReferencedMeasurements22RatioOverRatioMinusOneILi3EfE9m_prime_1ERKN9libparest5Slave10Stationary14Discretization4BaseILi3EEERKN6dealii10DoFHandlerILi3ELi3EEERKNSC_6VectorIdEESK_RKNS6_17MeasurementGetter9Factories4BaseILi3EEERNSH_IfEEjj = comdat any

$_ZN12METomography12Measurements22ReferencedMeasurements22RatioOverRatioMinusOneILi3EfE18ExcDiagNotPositiveC5Ed = comdat any

$_ZN12METomography12Measurements22ReferencedMeasurements22RatioOverRatioMinusOneILi3EfE18ExcDiagNotPositiveD5Ev = comdat any

$_ZNK12METomography12Measurements22ReferencedMeasurements22RatioOverRatioMinusOneILi3EfE18ExcDiagNotPositive10print_infoERSo = comdat any

$_ZN12METomography12Measurements22ReferencedMeasurements15RatioMinusRatioILi3EdEC5ERKN9libparest5Slave10Stationary18ProblemDescriptionERKN6dealii8FunctionILi3EEERKSt3setIhSt4lessIhESaIhEE = comdat any

$_ZN12METomography12Measurements22ReferencedMeasurements15RatioMinusRatioILi3EdE28initialize_gauss_newton_stepERKN9libparest5Slave10Stationary14Discretization4BaseILi3EEERKN6dealii11BlockVectorIdEERKNS6_17MeasurementGetter9Factories4BaseILi3EEE = comdat any

$_ZNK12METomography12Measurements22ReferencedMeasurements15RatioMinusRatioILi3EdE21compute_data_misfit_1ERKN9libparest5Slave10Stationary14Discretization4BaseILi3EEERKN6dealii11BlockVectorIdEERKNS6_17MeasurementGetter9Factories4BaseILi3EEEjjRd = comdat any

$_ZNK12METomography12Measurements22ReferencedMeasurements15RatioMinusRatioILi3EdE24build_rhs_contribution_1ERKN9libparest5Slave10Stationary14Discretization4BaseILi3EEERKN6dealii11BlockVectorIdEERKNS6_17MeasurementGetter9Factories4BaseILi3EEERSE_jjRNSC_7Threads16DummyThreadMutexE = comdat any

$_ZNK12METomography12Measurements22ReferencedMeasurements15RatioMinusRatioILi3EdE27build_matrix_contribution_1ERKN9libparest5Slave10Stationary14Discretization4BaseILi3EEERKN6dealii11BlockVectorIdEERKNS6_17MeasurementGetter9Factories4BaseILi3EEERNSC_17BlockSparseMatrixIdEEjjRNSC_7Threads16DummyThreadMutexE = comdat any

$_ZNK12METomography12Measurements22ReferencedMeasurements15RatioMinusRatioILi3EdE9m_prime_1ERKN9libparest5Slave10Stationary14Discretization4BaseILi3EEERKN6dealii10DoFHandlerILi3ELi3EEERKNSC_6VectorIdEESK_RKNS6_17MeasurementGetter9Factories4BaseILi3EEERNSH_IfEEjj = comdat any

$_ZN12METomography12Measurements22ReferencedMeasurements15RatioMinusRatioILi3EfEC5ERKN9libparest5Slave10Stationary18ProblemDescriptionERKN6dealii8FunctionILi3EEERKSt3setIhSt4lessIhESaIhEE = comdat any

$_ZN12METomography12Measurements22ReferencedMeasurements15RatioMinusRatioILi3EfE28initialize_gauss_newton_stepERKN9libparest5Slave10Stationary14Discretization4BaseILi3EEERKN6dealii11BlockVectorIdEERKNS6_17MeasurementGetter9Factories4BaseILi3EEE = comdat any

$_ZNK12METomography12Measurements22ReferencedMeasurements15RatioMinusRatioILi3EfE21compute_data_misfit_1ERKN9libparest5Slave10Stationary14Discretization4BaseILi3EEERKN6dealii11BlockVectorIdEERKNS6_17MeasurementGetter9Factories4BaseILi3EEEjjRd = comdat any

$_ZNK12METomography12Measurements22ReferencedMeasurements15RatioMinusRatioILi3EfE24build_rhs_contribution_1ERKN9libparest5Slave10Stationary14Discretization4BaseILi3EEERKN6dealii11BlockVectorIdEERKNS6_17MeasurementGetter9Factories4BaseILi3EEERSE_jjRNSC_7Threads16DummyThreadMutexE = comdat any

$_ZNK12METomography12Measurements22ReferencedMeasurements15RatioMinusRatioILi3EfE27build_matrix_contribution_1ERKN9libparest5Slave10Stationary14Discretization4BaseILi3EEERKN6dealii11BlockVectorIdEERKNS6_17MeasurementGetter9Factories4BaseILi3EEERNSC_17BlockSparseMatrixIfEEjjRNSC_7Threads16DummyThreadMutexE = comdat any

$_ZNK12METomography12Measurements22ReferencedMeasurements15RatioMinusRatioILi3EfE9m_prime_1ERKN9libparest5Slave10Stationary14Discretization4BaseILi3EEERKN6dealii10DoFHandlerILi3ELi3EEERKNSC_6VectorIdEESK_RKNS6_17MeasurementGetter9Factories4BaseILi3EEERNSH_IfEEjj = comdat any

$_ZN12METomography12Measurements35ScaledWeightedDirichletMeasurements4BaseILi3EdED0Ev = comdat any

$_ZN12METomography12Measurements35ScaledWeightedDirichletMeasurements4BaseILi3EfED0Ev = comdat any

$_ZN12METomography12Measurements35ScaledWeightedDirichletMeasurements7Pure_L2ILi3EdED0Ev = comdat any

$_ZN12METomography12Measurements35ScaledWeightedDirichletMeasurements7Pure_L2ILi3EfED0Ev = comdat any

$_ZN12METomography12Measurements35ScaledWeightedDirichletMeasurements7L2_RealILi3EdED0Ev = comdat any

$_ZN12METomography12Measurements35ScaledWeightedDirichletMeasurements7L2_RealILi3EfED0Ev = comdat any

$_ZN12METomography12Measurements35ScaledWeightedDirichletMeasurements4BaseILi3EdED2Ev = comdat any

$_ZN12METomography12Measurements35ScaledWeightedDirichletMeasurements10L2_ComplexILi3EdED0Ev = comdat any

$_ZN12METomography12Measurements35ScaledWeightedDirichletMeasurements4BaseILi3EfED2Ev = comdat any

$_ZN12METomography12Measurements35ScaledWeightedDirichletMeasurements10L2_ComplexILi3EfED0Ev = comdat any

$_ZN12METomography12Measurements22ReferencedMeasurements22RatioOverRatioMinusOneILi3EdED2Ev = comdat any

$_ZN12METomography12Measurements22ReferencedMeasurements22RatioOverRatioMinusOneILi3EdED0Ev = comdat any

$_ZN12METomography12Measurements22ReferencedMeasurements22RatioOverRatioMinusOneILi3EfED2Ev = comdat any

$_ZN12METomography12Measurements22ReferencedMeasurements22RatioOverRatioMinusOneILi3EfED0Ev = comdat any

$_ZN12METomography12Measurements22ReferencedMeasurements15RatioMinusRatioILi3EdED2Ev = comdat any

$_ZN12METomography12Measurements22ReferencedMeasurements15RatioMinusRatioILi3EdED0Ev = comdat any

$_ZN12METomography12Measurements22ReferencedMeasurements15RatioMinusRatioILi3EfED2Ev = comdat any

$_ZN12METomography12Measurements22ReferencedMeasurements15RatioMinusRatioILi3EfED0Ev = comdat any

$_ZNSt8_Rb_treeIhhSt9_IdentityIhESt4lessIhESaIhEE8_M_eraseEPSt13_Rb_tree_nodeIhE = comdat any

$_ZN6dealii16FEFaceValuesBaseILi3ELi3EED2Ev = comdat any

$_ZN6dealii16FEFaceValuesBaseILi3ELi3EED0Ev = comdat any

$_ZN6dealii9TableBaseILi2EdED2Ev = comdat any

$_ZN6dealii9TableBaseILi2EdED0Ev = comdat any

$_ZN6dealii18StandardExceptions17ExcNotImplementedD0Ev = comdat any

$_ZN9libparest5Slave10Stationary12Measurements4BaseILi3EdED2Ev = comdat any

$_ZN9libparest5Slave10Stationary12Measurements4BaseILi3EdED0Ev = comdat any

$_ZN6dealii6VectorIdED0Ev = comdat any

$_ZN6dealii6VectorIdE6reinitEjb = comdat any

$_ZN6dealii6VectorIdE4swapERS1_ = comdat any

$_ZSt9__advanceIN6dealii18TriaActiveIteratorINS0_15DoFCellAccessorINS0_10DoFHandlerILi3ELi3EEEEEEElEvRT_T0_St26bidirectional_iterator_tag = comdat any

$_ZN9libparest5Slave10Stationary12Measurements4BaseILi3EfED2Ev = comdat any

$_ZN9libparest5Slave10Stationary12Measurements4BaseILi3EfED0Ev = comdat any

$_ZTVN12METomography12Measurements35ScaledWeightedDirichletMeasurements4BaseILi3EdEE = comdat any

$_ZTVN12METomography12Measurements35ScaledWeightedDirichletMeasurements4BaseILi3EfEE = comdat any

$_ZTVN12METomography12Measurements35ScaledWeightedDirichletMeasurements7Pure_L2ILi3EdEE = comdat any

$_ZTVN12METomography12Measurements35ScaledWeightedDirichletMeasurements7Pure_L2ILi3EfEE = comdat any

$_ZTVN12METomography12Measurements35ScaledWeightedDirichletMeasurements7L2_RealILi3EdEE = comdat any

$_ZTVN12METomography12Measurements35ScaledWeightedDirichletMeasurements7L2_RealILi3EfEE = comdat any

$_ZTVN12METomography12Measurements35ScaledWeightedDirichletMeasurements10L2_ComplexILi3EdEE = comdat any

$_ZTVN12METomography12Measurements35ScaledWeightedDirichletMeasurements10L2_ComplexILi3EfEE = comdat any

$_ZTVN12METomography12Measurements22ReferencedMeasurements22RatioOverRatioMinusOneILi3EdEE = comdat any

$_ZTVN12METomography12Measurements22ReferencedMeasurements22RatioOverRatioMinusOneILi3EdE18ExcDiagNotPositiveE = comdat any

$_ZTVN12METomography12Measurements22ReferencedMeasurements22RatioOverRatioMinusOneILi3EfEE = comdat any

$_ZTVN12METomography12Measurements22ReferencedMeasurements22RatioOverRatioMinusOneILi3EfE18ExcDiagNotPositiveE = comdat any

$_ZTVN12METomography12Measurements22ReferencedMeasurements15RatioMinusRatioILi3EdEE = comdat any

$_ZTVN12METomography12Measurements22ReferencedMeasurements15RatioMinusRatioILi3EfEE = comdat any

$_ZTSN12METomography12Measurements35ScaledWeightedDirichletMeasurements4BaseILi3EdEE = comdat any

$_ZTSN9libparest5Slave10Stationary12Measurements4BaseILi3EdEE = comdat any

$_ZTIN9libparest5Slave10Stationary12Measurements4BaseILi3EdEE = comdat any

$_ZTSN9libparest5Slave10Stationary12Measurements23BoundaryMeasurementBaseE = comdat any

$_ZTIN9libparest5Slave10Stationary12Measurements23BoundaryMeasurementBaseE = comdat any

$_ZTIN12METomography12Measurements35ScaledWeightedDirichletMeasurements4BaseILi3EdEE = comdat any

$_ZTSN12METomography12Measurements35ScaledWeightedDirichletMeasurements4BaseILi3EfEE = comdat any

$_ZTSN9libparest5Slave10Stationary12Measurements4BaseILi3EfEE = comdat any

$_ZTIN9libparest5Slave10Stationary12Measurements4BaseILi3EfEE = comdat any

$_ZTIN12METomography12Measurements35ScaledWeightedDirichletMeasurements4BaseILi3EfEE = comdat any

$_ZTSN12METomography12Measurements35ScaledWeightedDirichletMeasurements7Pure_L2ILi3EdEE = comdat any

$_ZTIN12METomography12Measurements35ScaledWeightedDirichletMeasurements7Pure_L2ILi3EdEE = comdat any

$_ZTSN12METomography12Measurements35ScaledWeightedDirichletMeasurements7Pure_L2ILi3EfEE = comdat any

$_ZTIN12METomography12Measurements35ScaledWeightedDirichletMeasurements7Pure_L2ILi3EfEE = comdat any

$_ZTSN12METomography12Measurements35ScaledWeightedDirichletMeasurements7L2_RealILi3EdEE = comdat any

$_ZTIN12METomography12Measurements35ScaledWeightedDirichletMeasurements7L2_RealILi3EdEE = comdat any

$_ZTSN12METomography12Measurements35ScaledWeightedDirichletMeasurements7L2_RealILi3EfEE = comdat any

$_ZTIN12METomography12Measurements35ScaledWeightedDirichletMeasurements7L2_RealILi3EfEE = comdat any

$_ZTSN12METomography12Measurements35ScaledWeightedDirichletMeasurements10L2_ComplexILi3EdEE = comdat any

$_ZTIN12METomography12Measurements35ScaledWeightedDirichletMeasurements10L2_ComplexILi3EdEE = comdat any

$_ZTSN12METomography12Measurements35ScaledWeightedDirichletMeasurements10L2_ComplexILi3EfEE = comdat any

$_ZTIN12METomography12Measurements35ScaledWeightedDirichletMeasurements10L2_ComplexILi3EfEE = comdat any

$_ZTSN12METomography12Measurements22ReferencedMeasurements22RatioOverRatioMinusOneILi3EdEE = comdat any

$_ZTIN12METomography12Measurements22ReferencedMeasurements22RatioOverRatioMinusOneILi3EdEE = comdat any

$_ZTSN12METomography12Measurements22ReferencedMeasurements22RatioOverRatioMinusOneILi3EdE18ExcDiagNotPositiveE = comdat any

$_ZTIN12METomography12Measurements22ReferencedMeasurements22RatioOverRatioMinusOneILi3EdE18ExcDiagNotPositiveE = comdat any

$_ZTSN12METomography12Measurements22ReferencedMeasurements22RatioOverRatioMinusOneILi3EfEE = comdat any

$_ZTIN12METomography12Measurements22ReferencedMeasurements22RatioOverRatioMinusOneILi3EfEE = comdat any

$_ZTSN12METomography12Measurements22ReferencedMeasurements22RatioOverRatioMinusOneILi3EfE18ExcDiagNotPositiveE = comdat any

$_ZTIN12METomography12Measurements22ReferencedMeasurements22RatioOverRatioMinusOneILi3EfE18ExcDiagNotPositiveE = comdat any

$_ZTSN12METomography12Measurements22ReferencedMeasurements15RatioMinusRatioILi3EdEE = comdat any

$_ZTIN12METomography12Measurements22ReferencedMeasurements15RatioMinusRatioILi3EdEE = comdat any

$_ZTSN12METomography12Measurements22ReferencedMeasurements15RatioMinusRatioILi3EfEE = comdat any

$_ZTIN12METomography12Measurements22ReferencedMeasurements15RatioMinusRatioILi3EfEE = comdat any

$_ZTVN6dealii16FEFaceValuesBaseILi3ELi3EEE = comdat any

$_ZTSN6dealii16FEFaceValuesBaseILi3ELi3EEE = comdat any

$_ZTSN6dealii12FEValuesBaseILi3ELi3EEE = comdat any

$_ZTSN6dealii12FEValuesDataILi3ELi3EEE = comdat any

$_ZTIN6dealii12FEValuesDataILi3ELi3EEE = comdat any

$_ZTIN6dealii12FEValuesBaseILi3ELi3EEE = comdat any

$_ZTIN6dealii16FEFaceValuesBaseILi3ELi3EEE = comdat any

$_ZTVN6dealii9TableBaseILi2EdEE = comdat any

$_ZTSN6dealii9TableBaseILi2EdEE = comdat any

$_ZTIN6dealii9TableBaseILi2EdEE = comdat any

$_ZTVN6dealii18StandardExceptions17ExcNotImplementedE = comdat any

$_ZTSN6dealii18StandardExceptions17ExcNotImplementedE = comdat any

$_ZTIN6dealii18StandardExceptions17ExcNotImplementedE = comdat any

$_ZTVN9libparest5Slave10Stationary12Measurements4BaseILi3EdEE = comdat any

$_ZTVN6dealii6VectorIdEE = comdat any

$_ZTSN6dealii6VectorIdEE = comdat any

$_ZTIN6dealii6VectorIdEE = comdat any

$_ZTVN9libparest5Slave10Stationary12Measurements4BaseILi3EfEE = comdat any

$_ZZN6dealii8internal12TriaAccessor14Implementation12vertex_indexILi3ELi3EEEjRKNS_12TriaAccessorILi2EXT_EXT0_EEEjE12switch_table = comdat any

@_ZTVN12METomography12Measurements35ScaledWeightedDirichletMeasurements4BaseILi3EdEE = weak_odr dso_local unnamed_addr constant { [14 x ptr] } { [14 x ptr] [ptr null, ptr @_ZTIN12METomography12Measurements35ScaledWeightedDirichletMeasurements4BaseILi3EdEE, ptr @_ZN12METomography12Measurements35ScaledWeightedDirichletMeasurements4BaseILi3EdED2Ev, ptr @_ZN12METomography12Measurements35ScaledWeightedDirichletMeasurements4BaseILi3EdED0Ev, ptr @_ZNK9libparest5Slave10Stationary12Measurements4BaseILi3EdE19compute_data_misfitERKNS1_14Discretization4BaseILi3EEERKN6dealii11BlockVectorIdEERKNS1_17MeasurementGetter9Factories4BaseILi3EEE, ptr @_ZNK9libparest5Slave10Stationary12Measurements4BaseILi3EdE22build_rhs_contributionERKNS1_14Discretization4BaseILi3EEERKN6dealii11BlockVectorIdEERKNS1_17MeasurementGetter9Factories4BaseILi3EEERSC_, ptr @_ZNK9libparest5Slave10Stationary12Measurements4BaseILi3EdE25build_matrix_contributionERKNS1_14Discretization4BaseILi3EEERKN6dealii11BlockVectorIdEERKNS1_17MeasurementGetter9Factories4BaseILi3EEERNSA_17BlockSparseMatrixIdEE, ptr @_ZNK9libparest5Slave10Stationary12Measurements4BaseILi3EdE7m_primeERKNS1_14Discretization4BaseILi3EEERKN6dealii10DoFHandlerILi3ELi3EEERKNSA_6VectorIdEESI_RKNS1_17MeasurementGetter9Factories4BaseILi3EEERNSF_IfEE, ptr @_ZN9libparest5Slave10Stationary12Measurements4BaseILi3EdE28initialize_gauss_newton_stepERKNS1_14Discretization4BaseILi3EEERKN6dealii11BlockVectorIdEERKNS1_17MeasurementGetter9Factories4BaseILi3EEE, ptr @_ZNK12METomography12Measurements35ScaledWeightedDirichletMeasurements4BaseILi3EdE21compute_data_misfit_1ERKN9libparest5Slave10Stationary14Discretization4BaseILi3EEERKN6dealii11BlockVectorIdEERKNS6_17MeasurementGetter9Factories4BaseILi3EEEjjRd, ptr @_ZNK12METomography12Measurements35ScaledWeightedDirichletMeasurements4BaseILi3EdE24build_rhs_contribution_1ERKN9libparest5Slave10Stationary14Discretization4BaseILi3EEERKN6dealii11BlockVectorIdEERKNS6_17MeasurementGetter9Factories4BaseILi3EEERSE_jjRNSC_7Threads16DummyThreadMutexE, ptr @_ZNK12METomography12Measurements35ScaledWeightedDirichletMeasurements4BaseILi3EdE27build_matrix_contribution_1ERKN9libparest5Slave10Stationary14Discretization4BaseILi3EEERKN6dealii11BlockVectorIdEERKNS6_17MeasurementGetter9Factories4BaseILi3EEERNSC_17BlockSparseMatrixIdEEjjRNSC_7Threads16DummyThreadMutexE, ptr @_ZNK12METomography12Measurements35ScaledWeightedDirichletMeasurements4BaseILi3EdE9m_prime_1ERKN9libparest5Slave10Stationary14Discretization4BaseILi3EEERKN6dealii10DoFHandlerILi3ELi3EEERKNSC_6VectorIdEESK_RKNS6_17MeasurementGetter9Factories4BaseILi3EEERNSH_IfEEjj, ptr @__cxa_pure_virtual] }, comdat, align 8
@_ZTVN12METomography12Measurements35ScaledWeightedDirichletMeasurements4BaseILi3EfEE = weak_odr dso_local unnamed_addr constant { [14 x ptr] } { [14 x ptr] [ptr null, ptr @_ZTIN12METomography12Measurements35ScaledWeightedDirichletMeasurements4BaseILi3EfEE, ptr @_ZN12METomography12Measurements35ScaledWeightedDirichletMeasurements4BaseILi3EfED2Ev, ptr @_ZN12METomography12Measurements35ScaledWeightedDirichletMeasurements4BaseILi3EfED0Ev, ptr @_ZNK9libparest5Slave10Stationary12Measurements4BaseILi3EfE19compute_data_misfitERKNS1_14Discretization4BaseILi3EEERKN6dealii11BlockVectorIdEERKNS1_17MeasurementGetter9Factories4BaseILi3EEE, ptr @_ZNK9libparest5Slave10Stationary12Measurements4BaseILi3EfE22build_rhs_contributionERKNS1_14Discretization4BaseILi3EEERKN6dealii11BlockVectorIdEERKNS1_17MeasurementGetter9Factories4BaseILi3EEERSC_, ptr @_ZNK9libparest5Slave10Stationary12Measurements4BaseILi3EfE25build_matrix_contributionERKNS1_14Discretization4BaseILi3EEERKN6dealii11BlockVectorIdEERKNS1_17MeasurementGetter9Factories4BaseILi3EEERNSA_17BlockSparseMatrixIfEE, ptr @_ZNK9libparest5Slave10Stationary12Measurements4BaseILi3EfE7m_primeERKNS1_14Discretization4BaseILi3EEERKN6dealii10DoFHandlerILi3ELi3EEERKNSA_6VectorIdEESI_RKNS1_17MeasurementGetter9Factories4BaseILi3EEERNSF_IfEE, ptr @_ZN9libparest5Slave10Stationary12Measurements4BaseILi3EfE28initialize_gauss_newton_stepERKNS1_14Discretization4BaseILi3EEERKN6dealii11BlockVectorIdEERKNS1_17MeasurementGetter9Factories4BaseILi3EEE, ptr @_ZNK12METomography12Measurements35ScaledWeightedDirichletMeasurements4BaseILi3EfE21compute_data_misfit_1ERKN9libparest5Slave10Stationary14Discretization4BaseILi3EEERKN6dealii11BlockVectorIdEERKNS6_17MeasurementGetter9Factories4BaseILi3EEEjjRd, ptr @_ZNK12METomography12Measurements35ScaledWeightedDirichletMeasurements4BaseILi3EfE24build_rhs_contribution_1ERKN9libparest5Slave10Stationary14Discretization4BaseILi3EEERKN6dealii11BlockVectorIdEERKNS6_17MeasurementGetter9Factories4BaseILi3EEERSE_jjRNSC_7Threads16DummyThreadMutexE, ptr @_ZNK12METomography12Measurements35ScaledWeightedDirichletMeasurements4BaseILi3EfE27build_matrix_contribution_1ERKN9libparest5Slave10Stationary14Discretization4BaseILi3EEERKN6dealii11BlockVectorIdEERKNS6_17MeasurementGetter9Factories4BaseILi3EEERNSC_17BlockSparseMatrixIfEEjjRNSC_7Threads16DummyThreadMutexE, ptr @_ZNK12METomography12Measurements35ScaledWeightedDirichletMeasurements4BaseILi3EfE9m_prime_1ERKN9libparest5Slave10Stationary14Discretization4BaseILi3EEERKN6dealii10DoFHandlerILi3ELi3EEERKNSC_6VectorIdEESK_RKNS6_17MeasurementGetter9Factories4BaseILi3EEERNSH_IfEEjj, ptr @__cxa_pure_virtual] }, comdat, align 8
@_ZTVN12METomography12Measurements35ScaledWeightedDirichletMeasurements7Pure_L2ILi3EdEE = weak_odr dso_local unnamed_addr constant { [14 x ptr] } { [14 x ptr] [ptr null, ptr @_ZTIN12METomography12Measurements35ScaledWeightedDirichletMeasurements7Pure_L2ILi3EdEE, ptr @_ZN12METomography12Measurements35ScaledWeightedDirichletMeasurements4BaseILi3EdED2Ev, ptr @_ZN12METomography12Measurements35ScaledWeightedDirichletMeasurements7Pure_L2ILi3EdED0Ev, ptr @_ZNK9libparest5Slave10Stationary12Measurements4BaseILi3EdE19compute_data_misfitERKNS1_14Discretization4BaseILi3EEERKN6dealii11BlockVectorIdEERKNS1_17MeasurementGetter9Factories4BaseILi3EEE, ptr @_ZNK9libparest5Slave10Stationary12Measurements4BaseILi3EdE22build_rhs_contributionERKNS1_14Discretization4BaseILi3EEERKN6dealii11BlockVectorIdEERKNS1_17MeasurementGetter9Factories4BaseILi3EEERSC_, ptr @_ZNK9libparest5Slave10Stationary12Measurements4BaseILi3EdE25build_matrix_contributionERKNS1_14Discretization4BaseILi3EEERKN6dealii11BlockVectorIdEERKNS1_17MeasurementGetter9Factories4BaseILi3EEERNSA_17BlockSparseMatrixIdEE, ptr @_ZNK9libparest5Slave10Stationary12Measurements4BaseILi3EdE7m_primeERKNS1_14Discretization4BaseILi3EEERKN6dealii10DoFHandlerILi3ELi3EEERKNSA_6VectorIdEESI_RKNS1_17MeasurementGetter9Factories4BaseILi3EEERNSF_IfEE, ptr @_ZN9libparest5Slave10Stationary12Measurements4BaseILi3EdE28initialize_gauss_newton_stepERKNS1_14Discretization4BaseILi3EEERKN6dealii11BlockVectorIdEERKNS1_17MeasurementGetter9Factories4BaseILi3EEE, ptr @_ZNK12METomography12Measurements35ScaledWeightedDirichletMeasurements4BaseILi3EdE21compute_data_misfit_1ERKN9libparest5Slave10Stationary14Discretization4BaseILi3EEERKN6dealii11BlockVectorIdEERKNS6_17MeasurementGetter9Factories4BaseILi3EEEjjRd, ptr @_ZNK12METomography12Measurements35ScaledWeightedDirichletMeasurements4BaseILi3EdE24build_rhs_contribution_1ERKN9libparest5Slave10Stationary14Discretization4BaseILi3EEERKN6dealii11BlockVectorIdEERKNS6_17MeasurementGetter9Factories4BaseILi3EEERSE_jjRNSC_7Threads16DummyThreadMutexE, ptr @_ZNK12METomography12Measurements35ScaledWeightedDirichletMeasurements4BaseILi3EdE27build_matrix_contribution_1ERKN9libparest5Slave10Stationary14Discretization4BaseILi3EEERKN6dealii11BlockVectorIdEERKNS6_17MeasurementGetter9Factories4BaseILi3EEERNSC_17BlockSparseMatrixIdEEjjRNSC_7Threads16DummyThreadMutexE, ptr @_ZNK12METomography12Measurements35ScaledWeightedDirichletMeasurements4BaseILi3EdE9m_prime_1ERKN9libparest5Slave10Stationary14Discretization4BaseILi3EEERKN6dealii10DoFHandlerILi3ELi3EEERKNSC_6VectorIdEESK_RKNS6_17MeasurementGetter9Factories4BaseILi3EEERNSH_IfEEjj, ptr @_ZNK12METomography12Measurements35ScaledWeightedDirichletMeasurements7Pure_L2ILi3EdE14scaling_factorERKN9libparest5Slave10Stationary14Discretization4BaseILi3EEERKN6dealii11BlockVectorIdEERKNS6_17MeasurementGetter9Factories4BaseILi3EEE] }, comdat, align 8
@_ZTVN12METomography12Measurements35ScaledWeightedDirichletMeasurements7Pure_L2ILi3EfEE = weak_odr dso_local unnamed_addr constant { [14 x ptr] } { [14 x ptr] [ptr null, ptr @_ZTIN12METomography12Measurements35ScaledWeightedDirichletMeasurements7Pure_L2ILi3EfEE, ptr @_ZN12METomography12Measurements35ScaledWeightedDirichletMeasurements4BaseILi3EfED2Ev, ptr @_ZN12METomography12Measurements35ScaledWeightedDirichletMeasurements7Pure_L2ILi3EfED0Ev, ptr @_ZNK9libparest5Slave10Stationary12Measurements4BaseILi3EfE19compute_data_misfitERKNS1_14Discretization4BaseILi3EEERKN6dealii11BlockVectorIdEERKNS1_17MeasurementGetter9Factories4BaseILi3EEE, ptr @_ZNK9libparest5Slave10Stationary12Measurements4BaseILi3EfE22build_rhs_contributionERKNS1_14Discretization4BaseILi3EEERKN6dealii11BlockVectorIdEERKNS1_17MeasurementGetter9Factories4BaseILi3EEERSC_, ptr @_ZNK9libparest5Slave10Stationary12Measurements4BaseILi3EfE25build_matrix_contributionERKNS1_14Discretization4BaseILi3EEERKN6dealii11BlockVectorIdEERKNS1_17MeasurementGetter9Factories4BaseILi3EEERNSA_17BlockSparseMatrixIfEE, ptr @_ZNK9libparest5Slave10Stationary12Measurements4BaseILi3EfE7m_primeERKNS1_14Discretization4BaseILi3EEERKN6dealii10DoFHandlerILi3ELi3EEERKNSA_6VectorIdEESI_RKNS1_17MeasurementGetter9Factories4BaseILi3EEERNSF_IfEE, ptr @_ZN9libparest5Slave10Stationary12Measurements4BaseILi3EfE28initialize_gauss_newton_stepERKNS1_14Discretization4BaseILi3EEERKN6dealii11BlockVectorIdEERKNS1_17MeasurementGetter9Factories4BaseILi3EEE, ptr @_ZNK12METomography12Measurements35ScaledWeightedDirichletMeasurements4BaseILi3EfE21compute_data_misfit_1ERKN9libparest5Slave10Stationary14Discretization4BaseILi3EEERKN6dealii11BlockVectorIdEERKNS6_17MeasurementGetter9Factories4BaseILi3EEEjjRd, ptr @_ZNK12METomography12Measurements35ScaledWeightedDirichletMeasurements4BaseILi3EfE24build_rhs_contribution_1ERKN9libparest5Slave10Stationary14Discretization4BaseILi3EEERKN6dealii11BlockVectorIdEERKNS6_17MeasurementGetter9Factories4BaseILi3EEERSE_jjRNSC_7Threads16DummyThreadMutexE, ptr @_ZNK12METomography12Measurements35ScaledWeightedDirichletMeasurements4BaseILi3EfE27build_matrix_contribution_1ERKN9libparest5Slave10Stationary14Discretization4BaseILi3EEERKN6dealii11BlockVectorIdEERKNS6_17MeasurementGetter9Factories4BaseILi3EEERNSC_17BlockSparseMatrixIfEEjjRNSC_7Threads16DummyThreadMutexE, ptr @_ZNK12METomography12Measurements35ScaledWeightedDirichletMeasurements4BaseILi3EfE9m_prime_1ERKN9libparest5Slave10Stationary14Discretization4BaseILi3EEERKN6dealii10DoFHandlerILi3ELi3EEERKNSC_6VectorIdEESK_RKNS6_17MeasurementGetter9Factories4BaseILi3EEERNSH_IfEEjj, ptr @_ZNK12METomography12Measurements35ScaledWeightedDirichletMeasurements7Pure_L2ILi3EfE14scaling_factorERKN9libparest5Slave10Stationary14Discretization4BaseILi3EEERKN6dealii11BlockVectorIdEERKNS6_17MeasurementGetter9Factories4BaseILi3EEE] }, comdat, align 8
@_ZTVN12METomography12Measurements35ScaledWeightedDirichletMeasurements7L2_RealILi3EdEE = weak_odr dso_local unnamed_addr constant { [14 x ptr] } { [14 x ptr] [ptr null, ptr @_ZTIN12METomography12Measurements35ScaledWeightedDirichletMeasurements7L2_RealILi3EdEE, ptr @_ZN12METomography12Measurements35ScaledWeightedDirichletMeasurements4BaseILi3EdED2Ev, ptr @_ZN12METomography12Measurements35ScaledWeightedDirichletMeasurements7L2_RealILi3EdED0Ev, ptr @_ZNK9libparest5Slave10Stationary12Measurements4BaseILi3EdE19compute_data_misfitERKNS1_14Discretization4BaseILi3EEERKN6dealii11BlockVectorIdEERKNS1_17MeasurementGetter9Factories4BaseILi3EEE, ptr @_ZNK9libparest5Slave10Stationary12Measurements4BaseILi3EdE22build_rhs_contributionERKNS1_14Discretization4BaseILi3EEERKN6dealii11BlockVectorIdEERKNS1_17MeasurementGetter9Factories4BaseILi3EEERSC_, ptr @_ZNK9libparest5Slave10Stationary12Measurements4BaseILi3EdE25build_matrix_contributionERKNS1_14Discretization4BaseILi3EEERKN6dealii11BlockVectorIdEERKNS1_17MeasurementGetter9Factories4BaseILi3EEERNSA_17BlockSparseMatrixIdEE, ptr @_ZNK9libparest5Slave10Stationary12Measurements4BaseILi3EdE7m_primeERKNS1_14Discretization4BaseILi3EEERKN6dealii10DoFHandlerILi3ELi3EEERKNSA_6VectorIdEESI_RKNS1_17MeasurementGetter9Factories4BaseILi3EEERNSF_IfEE, ptr @_ZN9libparest5Slave10Stationary12Measurements4BaseILi3EdE28initialize_gauss_newton_stepERKNS1_14Discretization4BaseILi3EEERKN6dealii11BlockVectorIdEERKNS1_17MeasurementGetter9Factories4BaseILi3EEE, ptr @_ZNK12METomography12Measurements35ScaledWeightedDirichletMeasurements4BaseILi3EdE21compute_data_misfit_1ERKN9libparest5Slave10Stationary14Discretization4BaseILi3EEERKN6dealii11BlockVectorIdEERKNS6_17MeasurementGetter9Factories4BaseILi3EEEjjRd, ptr @_ZNK12METomography12Measurements35ScaledWeightedDirichletMeasurements4BaseILi3EdE24build_rhs_contribution_1ERKN9libparest5Slave10Stationary14Discretization4BaseILi3EEERKN6dealii11BlockVectorIdEERKNS6_17MeasurementGetter9Factories4BaseILi3EEERSE_jjRNSC_7Threads16DummyThreadMutexE, ptr @_ZNK12METomography12Measurements35ScaledWeightedDirichletMeasurements4BaseILi3EdE27build_matrix_contribution_1ERKN9libparest5Slave10Stationary14Discretization4BaseILi3EEERKN6dealii11BlockVectorIdEERKNS6_17MeasurementGetter9Factories4BaseILi3EEERNSC_17BlockSparseMatrixIdEEjjRNSC_7Threads16DummyThreadMutexE, ptr @_ZNK12METomography12Measurements35ScaledWeightedDirichletMeasurements4BaseILi3EdE9m_prime_1ERKN9libparest5Slave10Stationary14Discretization4BaseILi3EEERKN6dealii10DoFHandlerILi3ELi3EEERKNSC_6VectorIdEESK_RKNS6_17MeasurementGetter9Factories4BaseILi3EEERNSH_IfEEjj, ptr @_ZNK12METomography12Measurements35ScaledWeightedDirichletMeasurements7L2_RealILi3EdE14scaling_factorERKN9libparest5Slave10Stationary14Discretization4BaseILi3EEERKN6dealii11BlockVectorIdEERKNS6_17MeasurementGetter9Factories4BaseILi3EEE] }, comdat, align 8
@_ZTVN12METomography12Measurements35ScaledWeightedDirichletMeasurements7L2_RealILi3EfEE = weak_odr dso_local unnamed_addr constant { [14 x ptr] } { [14 x ptr] [ptr null, ptr @_ZTIN12METomography12Measurements35ScaledWeightedDirichletMeasurements7L2_RealILi3EfEE, ptr @_ZN12METomography12Measurements35ScaledWeightedDirichletMeasurements4BaseILi3EfED2Ev, ptr @_ZN12METomography12Measurements35ScaledWeightedDirichletMeasurements7L2_RealILi3EfED0Ev, ptr @_ZNK9libparest5Slave10Stationary12Measurements4BaseILi3EfE19compute_data_misfitERKNS1_14Discretization4BaseILi3EEERKN6dealii11BlockVectorIdEERKNS1_17MeasurementGetter9Factories4BaseILi3EEE, ptr @_ZNK9libparest5Slave10Stationary12Measurements4BaseILi3EfE22build_rhs_contributionERKNS1_14Discretization4BaseILi3EEERKN6dealii11BlockVectorIdEERKNS1_17MeasurementGetter9Factories4BaseILi3EEERSC_, ptr @_ZNK9libparest5Slave10Stationary12Measurements4BaseILi3EfE25build_matrix_contributionERKNS1_14Discretization4BaseILi3EEERKN6dealii11BlockVectorIdEERKNS1_17MeasurementGetter9Factories4BaseILi3EEERNSA_17BlockSparseMatrixIfEE, ptr @_ZNK9libparest5Slave10Stationary12Measurements4BaseILi3EfE7m_primeERKNS1_14Discretization4BaseILi3EEERKN6dealii10DoFHandlerILi3ELi3EEERKNSA_6VectorIdEESI_RKNS1_17MeasurementGetter9Factories4BaseILi3EEERNSF_IfEE, ptr @_ZN9libparest5Slave10Stationary12Measurements4BaseILi3EfE28initialize_gauss_newton_stepERKNS1_14Discretization4BaseILi3EEERKN6dealii11BlockVectorIdEERKNS1_17MeasurementGetter9Factories4BaseILi3EEE, ptr @_ZNK12METomography12Measurements35ScaledWeightedDirichletMeasurements4BaseILi3EfE21compute_data_misfit_1ERKN9libparest5Slave10Stationary14Discretization4BaseILi3EEERKN6dealii11BlockVectorIdEERKNS6_17MeasurementGetter9Factories4BaseILi3EEEjjRd, ptr @_ZNK12METomography12Measurements35ScaledWeightedDirichletMeasurements4BaseILi3EfE24build_rhs_contribution_1ERKN9libparest5Slave10Stationary14Discretization4BaseILi3EEERKN6dealii11BlockVectorIdEERKNS6_17MeasurementGetter9Factories4BaseILi3EEERSE_jjRNSC_7Threads16DummyThreadMutexE, ptr @_ZNK12METomography12Measurements35ScaledWeightedDirichletMeasurements4BaseILi3EfE27build_matrix_contribution_1ERKN9libparest5Slave10Stationary14Discretization4BaseILi3EEERKN6dealii11BlockVectorIdEERKNS6_17MeasurementGetter9Factories4BaseILi3EEERNSC_17BlockSparseMatrixIfEEjjRNSC_7Threads16DummyThreadMutexE, ptr @_ZNK12METomography12Measurements35ScaledWeightedDirichletMeasurements4BaseILi3EfE9m_prime_1ERKN9libparest5Slave10Stationary14Discretization4BaseILi3EEERKN6dealii10DoFHandlerILi3ELi3EEERKNSC_6VectorIdEESK_RKNS6_17MeasurementGetter9Factories4BaseILi3EEERNSH_IfEEjj, ptr @_ZNK12METomography12Measurements35ScaledWeightedDirichletMeasurements7L2_RealILi3EfE14scaling_factorERKN9libparest5Slave10Stationary14Discretization4BaseILi3EEERKN6dealii11BlockVectorIdEERKNS6_17MeasurementGetter9Factories4BaseILi3EEE] }, comdat, align 8
@_ZTVN12METomography12Measurements35ScaledWeightedDirichletMeasurements10L2_ComplexILi3EdEE = weak_odr dso_local unnamed_addr constant { [14 x ptr] } { [14 x ptr] [ptr null, ptr @_ZTIN12METomography12Measurements35ScaledWeightedDirichletMeasurements10L2_ComplexILi3EdEE, ptr @_ZN12METomography12Measurements35ScaledWeightedDirichletMeasurements4BaseILi3EdED2Ev, ptr @_ZN12METomography12Measurements35ScaledWeightedDirichletMeasurements10L2_ComplexILi3EdED0Ev, ptr @_ZNK9libparest5Slave10Stationary12Measurements4BaseILi3EdE19compute_data_misfitERKNS1_14Discretization4BaseILi3EEERKN6dealii11BlockVectorIdEERKNS1_17MeasurementGetter9Factories4BaseILi3EEE, ptr @_ZNK9libparest5Slave10Stationary12Measurements4BaseILi3EdE22build_rhs_contributionERKNS1_14Discretization4BaseILi3EEERKN6dealii11BlockVectorIdEERKNS1_17MeasurementGetter9Factories4BaseILi3EEERSC_, ptr @_ZNK9libparest5Slave10Stationary12Measurements4BaseILi3EdE25build_matrix_contributionERKNS1_14Discretization4BaseILi3EEERKN6dealii11BlockVectorIdEERKNS1_17MeasurementGetter9Factories4BaseILi3EEERNSA_17BlockSparseMatrixIdEE, ptr @_ZNK9libparest5Slave10Stationary12Measurements4BaseILi3EdE7m_primeERKNS1_14Discretization4BaseILi3EEERKN6dealii10DoFHandlerILi3ELi3EEERKNSA_6VectorIdEESI_RKNS1_17MeasurementGetter9Factories4BaseILi3EEERNSF_IfEE, ptr @_ZN9libparest5Slave10Stationary12Measurements4BaseILi3EdE28initialize_gauss_newton_stepERKNS1_14Discretization4BaseILi3EEERKN6dealii11BlockVectorIdEERKNS1_17MeasurementGetter9Factories4BaseILi3EEE, ptr @_ZNK12METomography12Measurements35ScaledWeightedDirichletMeasurements4BaseILi3EdE21compute_data_misfit_1ERKN9libparest5Slave10Stationary14Discretization4BaseILi3EEERKN6dealii11BlockVectorIdEERKNS6_17MeasurementGetter9Factories4BaseILi3EEEjjRd, ptr @_ZNK12METomography12Measurements35ScaledWeightedDirichletMeasurements4BaseILi3EdE24build_rhs_contribution_1ERKN9libparest5Slave10Stationary14Discretization4BaseILi3EEERKN6dealii11BlockVectorIdEERKNS6_17MeasurementGetter9Factories4BaseILi3EEERSE_jjRNSC_7Threads16DummyThreadMutexE, ptr @_ZNK12METomography12Measurements35ScaledWeightedDirichletMeasurements4BaseILi3EdE27build_matrix_contribution_1ERKN9libparest5Slave10Stationary14Discretization4BaseILi3EEERKN6dealii11BlockVectorIdEERKNS6_17MeasurementGetter9Factories4BaseILi3EEERNSC_17BlockSparseMatrixIdEEjjRNSC_7Threads16DummyThreadMutexE, ptr @_ZNK12METomography12Measurements35ScaledWeightedDirichletMeasurements4BaseILi3EdE9m_prime_1ERKN9libparest5Slave10Stationary14Discretization4BaseILi3EEERKN6dealii10DoFHandlerILi3ELi3EEERKNSC_6VectorIdEESK_RKNS6_17MeasurementGetter9Factories4BaseILi3EEERNSH_IfEEjj, ptr @_ZNK12METomography12Measurements35ScaledWeightedDirichletMeasurements10L2_ComplexILi3EdE14scaling_factorERKN9libparest5Slave10Stationary14Discretization4BaseILi3EEERKN6dealii11BlockVectorIdEERKNS6_17MeasurementGetter9Factories4BaseILi3EEE] }, comdat, align 8
@_ZTVN12METomography12Measurements35ScaledWeightedDirichletMeasurements10L2_ComplexILi3EfEE = weak_odr dso_local unnamed_addr constant { [14 x ptr] } { [14 x ptr] [ptr null, ptr @_ZTIN12METomography12Measurements35ScaledWeightedDirichletMeasurements10L2_ComplexILi3EfEE, ptr @_ZN12METomography12Measurements35ScaledWeightedDirichletMeasurements4BaseILi3EfED2Ev, ptr @_ZN12METomography12Measurements35ScaledWeightedDirichletMeasurements10L2_ComplexILi3EfED0Ev, ptr @_ZNK9libparest5Slave10Stationary12Measurements4BaseILi3EfE19compute_data_misfitERKNS1_14Discretization4BaseILi3EEERKN6dealii11BlockVectorIdEERKNS1_17MeasurementGetter9Factories4BaseILi3EEE, ptr @_ZNK9libparest5Slave10Stationary12Measurements4BaseILi3EfE22build_rhs_contributionERKNS1_14Discretization4BaseILi3EEERKN6dealii11BlockVectorIdEERKNS1_17MeasurementGetter9Factories4BaseILi3EEERSC_, ptr @_ZNK9libparest5Slave10Stationary12Measurements4BaseILi3EfE25build_matrix_contributionERKNS1_14Discretization4BaseILi3EEERKN6dealii11BlockVectorIdEERKNS1_17MeasurementGetter9Factories4BaseILi3EEERNSA_17BlockSparseMatrixIfEE, ptr @_ZNK9libparest5Slave10Stationary12Measurements4BaseILi3EfE7m_primeERKNS1_14Discretization4BaseILi3EEERKN6dealii10DoFHandlerILi3ELi3EEERKNSA_6VectorIdEESI_RKNS1_17MeasurementGetter9Factories4BaseILi3EEERNSF_IfEE, ptr @_ZN9libparest5Slave10Stationary12Measurements4BaseILi3EfE28initialize_gauss_newton_stepERKNS1_14Discretization4BaseILi3EEERKN6dealii11BlockVectorIdEERKNS1_17MeasurementGetter9Factories4BaseILi3EEE, ptr @_ZNK12METomography12Measurements35ScaledWeightedDirichletMeasurements4BaseILi3EfE21compute_data_misfit_1ERKN9libparest5Slave10Stationary14Discretization4BaseILi3EEERKN6dealii11BlockVectorIdEERKNS6_17MeasurementGetter9Factories4BaseILi3EEEjjRd, ptr @_ZNK12METomography12Measurements35ScaledWeightedDirichletMeasurements4BaseILi3EfE24build_rhs_contribution_1ERKN9libparest5Slave10Stationary14Discretization4BaseILi3EEERKN6dealii11BlockVectorIdEERKNS6_17MeasurementGetter9Factories4BaseILi3EEERSE_jjRNSC_7Threads16DummyThreadMutexE, ptr @_ZNK12METomography12Measurements35ScaledWeightedDirichletMeasurements4BaseILi3EfE27build_matrix_contribution_1ERKN9libparest5Slave10Stationary14Discretization4BaseILi3EEERKN6dealii11BlockVectorIdEERKNS6_17MeasurementGetter9Factories4BaseILi3EEERNSC_17BlockSparseMatrixIfEEjjRNSC_7Threads16DummyThreadMutexE, ptr @_ZNK12METomography12Measurements35ScaledWeightedDirichletMeasurements4BaseILi3EfE9m_prime_1ERKN9libparest5Slave10Stationary14Discretization4BaseILi3EEERKN6dealii10DoFHandlerILi3ELi3EEERKNSC_6VectorIdEESK_RKNS6_17MeasurementGetter9Factories4BaseILi3EEERNSH_IfEEjj, ptr @_ZNK12METomography12Measurements35ScaledWeightedDirichletMeasurements10L2_ComplexILi3EfE14scaling_factorERKN9libparest5Slave10Stationary14Discretization4BaseILi3EEERKN6dealii11BlockVectorIdEERKNS6_17MeasurementGetter9Factories4BaseILi3EEE] }, comdat, align 8
@_ZTVN12METomography12Measurements22ReferencedMeasurements22RatioOverRatioMinusOneILi3EdEE = weak_odr dso_local unnamed_addr constant { [13 x ptr] } { [13 x ptr] [ptr null, ptr @_ZTIN12METomography12Measurements22ReferencedMeasurements22RatioOverRatioMinusOneILi3EdEE, ptr @_ZN12METomography12Measurements22ReferencedMeasurements22RatioOverRatioMinusOneILi3EdED2Ev, ptr @_ZN12METomography12Measurements22ReferencedMeasurements22RatioOverRatioMinusOneILi3EdED0Ev, ptr @_ZNK9libparest5Slave10Stationary12Measurements4BaseILi3EdE19compute_data_misfitERKNS1_14Discretization4BaseILi3EEERKN6dealii11BlockVectorIdEERKNS1_17MeasurementGetter9Factories4BaseILi3EEE, ptr @_ZNK9libparest5Slave10Stationary12Measurements4BaseILi3EdE22build_rhs_contributionERKNS1_14Discretization4BaseILi3EEERKN6dealii11BlockVectorIdEERKNS1_17MeasurementGetter9Factories4BaseILi3EEERSC_, ptr @_ZNK9libparest5Slave10Stationary12Measurements4BaseILi3EdE25build_matrix_contributionERKNS1_14Discretization4BaseILi3EEERKN6dealii11BlockVectorIdEERKNS1_17MeasurementGetter9Factories4BaseILi3EEERNSA_17BlockSparseMatrixIdEE, ptr @_ZNK9libparest5Slave10Stationary12Measurements4BaseILi3EdE7m_primeERKNS1_14Discretization4BaseILi3EEERKN6dealii10DoFHandlerILi3ELi3EEERKNSA_6VectorIdEESI_RKNS1_17MeasurementGetter9Factories4BaseILi3EEERNSF_IfEE, ptr @_ZN9libparest5Slave10Stationary12Measurements4BaseILi3EdE28initialize_gauss_newton_stepERKNS1_14Discretization4BaseILi3EEERKN6dealii11BlockVectorIdEERKNS1_17MeasurementGetter9Factories4BaseILi3EEE, ptr @_ZNK12METomography12Measurements22ReferencedMeasurements22RatioOverRatioMinusOneILi3EdE21compute_data_misfit_1ERKN9libparest5Slave10Stationary14Discretization4BaseILi3EEERKN6dealii11BlockVectorIdEERKNS6_17MeasurementGetter9Factories4BaseILi3EEEjjRd, ptr @_ZNK12METomography12Measurements22ReferencedMeasurements22RatioOverRatioMinusOneILi3EdE24build_rhs_contribution_1ERKN9libparest5Slave10Stationary14Discretization4BaseILi3EEERKN6dealii11BlockVectorIdEERKNS6_17MeasurementGetter9Factories4BaseILi3EEERSE_jjRNSC_7Threads16DummyThreadMutexE, ptr @_ZNK12METomography12Measurements22ReferencedMeasurements22RatioOverRatioMinusOneILi3EdE27build_matrix_contribution_1ERKN9libparest5Slave10Stationary14Discretization4BaseILi3EEERKN6dealii11BlockVectorIdEERKNS6_17MeasurementGetter9Factories4BaseILi3EEERNSC_17BlockSparseMatrixIdEEjjRNSC_7Threads16DummyThreadMutexE, ptr @_ZNK12METomography12Measurements22ReferencedMeasurements22RatioOverRatioMinusOneILi3EdE9m_prime_1ERKN9libparest5Slave10Stationary14Discretization4BaseILi3EEERKN6dealii10DoFHandlerILi3ELi3EEERKNSC_6VectorIdEESK_RKNS6_17MeasurementGetter9Factories4BaseILi3EEERNSH_IfEEjj] }, comdat, align 8
@_ZTVN12METomography12Measurements22ReferencedMeasurements22RatioOverRatioMinusOneILi3EdE18ExcDiagNotPositiveE = weak_odr dso_local unnamed_addr constant { [6 x ptr] } { [6 x ptr] [ptr null, ptr @_ZTIN12METomography12Measurements22ReferencedMeasurements22RatioOverRatioMinusOneILi3EdE18ExcDiagNotPositiveE, ptr @_ZN12METomography12Measurements22ReferencedMeasurements22RatioOverRatioMinusOneILi3EdE18ExcDiagNotPositiveD2Ev, ptr @_ZN12METomography12Measurements22ReferencedMeasurements22RatioOverRatioMinusOneILi3EdE18ExcDiagNotPositiveD0Ev, ptr @_ZNK6dealii13ExceptionBase4whatEv, ptr @_ZNK12METomography12Measurements22ReferencedMeasurements22RatioOverRatioMinusOneILi3EdE18ExcDiagNotPositive10print_infoERSo] }, comdat, align 8
@.str = private unnamed_addr constant [52 x i8] c"A diagonal element of the second derivative matrix \00", align 1
@.str.9 = private unnamed_addr constant [39 x i8] c"is not positive, but rather has value \00", align 1
@_ZTVN12METomography12Measurements22ReferencedMeasurements22RatioOverRatioMinusOneILi3EfEE = weak_odr dso_local unnamed_addr constant { [13 x ptr] } { [13 x ptr] [ptr null, ptr @_ZTIN12METomography12Measurements22ReferencedMeasurements22RatioOverRatioMinusOneILi3EfEE, ptr @_ZN12METomography12Measurements22ReferencedMeasurements22RatioOverRatioMinusOneILi3EfED2Ev, ptr @_ZN12METomography12Measurements22ReferencedMeasurements22RatioOverRatioMinusOneILi3EfED0Ev, ptr @_ZNK9libparest5Slave10Stationary12Measurements4BaseILi3EfE19compute_data_misfitERKNS1_14Discretization4BaseILi3EEERKN6dealii11BlockVectorIdEERKNS1_17MeasurementGetter9Factories4BaseILi3EEE, ptr @_ZNK9libparest5Slave10Stationary12Measurements4BaseILi3EfE22build_rhs_contributionERKNS1_14Discretization4BaseILi3EEERKN6dealii11BlockVectorIdEERKNS1_17MeasurementGetter9Factories4BaseILi3EEERSC_, ptr @_ZNK9libparest5Slave10Stationary12Measurements4BaseILi3EfE25build_matrix_contributionERKNS1_14Discretization4BaseILi3EEERKN6dealii11BlockVectorIdEERKNS1_17MeasurementGetter9Factories4BaseILi3EEERNSA_17BlockSparseMatrixIfEE, ptr @_ZNK9libparest5Slave10Stationary12Measurements4BaseILi3EfE7m_primeERKNS1_14Discretization4BaseILi3EEERKN6dealii10DoFHandlerILi3ELi3EEERKNSA_6VectorIdEESI_RKNS1_17MeasurementGetter9Factories4BaseILi3EEERNSF_IfEE, ptr @_ZN9libparest5Slave10Stationary12Measurements4BaseILi3EfE28initialize_gauss_newton_stepERKNS1_14Discretization4BaseILi3EEERKN6dealii11BlockVectorIdEERKNS1_17MeasurementGetter9Factories4BaseILi3EEE, ptr @_ZNK12METomography12Measurements22ReferencedMeasurements22RatioOverRatioMinusOneILi3EfE21compute_data_misfit_1ERKN9libparest5Slave10Stationary14Discretization4BaseILi3EEERKN6dealii11BlockVectorIdEERKNS6_17MeasurementGetter9Factories4BaseILi3EEEjjRd, ptr @_ZNK12METomography12Measurements22ReferencedMeasurements22RatioOverRatioMinusOneILi3EfE24build_rhs_contribution_1ERKN9libparest5Slave10Stationary14Discretization4BaseILi3EEERKN6dealii11BlockVectorIdEERKNS6_17MeasurementGetter9Factories4BaseILi3EEERSE_jjRNSC_7Threads16DummyThreadMutexE, ptr @_ZNK12METomography12Measurements22ReferencedMeasurements22RatioOverRatioMinusOneILi3EfE27build_matrix_contribution_1ERKN9libparest5Slave10Stationary14Discretization4BaseILi3EEERKN6dealii11BlockVectorIdEERKNS6_17MeasurementGetter9Factories4BaseILi3EEERNSC_17BlockSparseMatrixIfEEjjRNSC_7Threads16DummyThreadMutexE, ptr @_ZNK12METomography12Measurements22ReferencedMeasurements22RatioOverRatioMinusOneILi3EfE9m_prime_1ERKN9libparest5Slave10Stationary14Discretization4BaseILi3EEERKN6dealii10DoFHandlerILi3ELi3EEERKNSC_6VectorIdEESK_RKNS6_17MeasurementGetter9Factories4BaseILi3EEERNSH_IfEEjj] }, comdat, align 8
@_ZTVN12METomography12Measurements22ReferencedMeasurements22RatioOverRatioMinusOneILi3EfE18ExcDiagNotPositiveE = weak_odr dso_local unnamed_addr constant { [6 x ptr] } { [6 x ptr] [ptr null, ptr @_ZTIN12METomography12Measurements22ReferencedMeasurements22RatioOverRatioMinusOneILi3EfE18ExcDiagNotPositiveE, ptr @_ZN12METomography12Measurements22ReferencedMeasurements22RatioOverRatioMinusOneILi3EfE18ExcDiagNotPositiveD2Ev, ptr @_ZN12METomography12Measurements22ReferencedMeasurements22RatioOverRatioMinusOneILi3EfE18ExcDiagNotPositiveD0Ev, ptr @_ZNK6dealii13ExceptionBase4whatEv, ptr @_ZNK12METomography12Measurements22ReferencedMeasurements22RatioOverRatioMinusOneILi3EfE18ExcDiagNotPositive10print_infoERSo] }, comdat, align 8
@_ZTVN12METomography12Measurements22ReferencedMeasurements15RatioMinusRatioILi3EdEE = weak_odr dso_local unnamed_addr constant { [13 x ptr] } { [13 x ptr] [ptr null, ptr @_ZTIN12METomography12Measurements22ReferencedMeasurements15RatioMinusRatioILi3EdEE, ptr @_ZN12METomography12Measurements22ReferencedMeasurements15RatioMinusRatioILi3EdED2Ev, ptr @_ZN12METomography12Measurements22ReferencedMeasurements15RatioMinusRatioILi3EdED0Ev, ptr @_ZNK9libparest5Slave10Stationary12Measurements4BaseILi3EdE19compute_data_misfitERKNS1_14Discretization4BaseILi3EEERKN6dealii11BlockVectorIdEERKNS1_17MeasurementGetter9Factories4BaseILi3EEE, ptr @_ZNK9libparest5Slave10Stationary12Measurements4BaseILi3EdE22build_rhs_contributionERKNS1_14Discretization4BaseILi3EEERKN6dealii11BlockVectorIdEERKNS1_17MeasurementGetter9Factories4BaseILi3EEERSC_, ptr @_ZNK9libparest5Slave10Stationary12Measurements4BaseILi3EdE25build_matrix_contributionERKNS1_14Discretization4BaseILi3EEERKN6dealii11BlockVectorIdEERKNS1_17MeasurementGetter9Factories4BaseILi3EEERNSA_17BlockSparseMatrixIdEE, ptr @_ZNK9libparest5Slave10Stationary12Measurements4BaseILi3EdE7m_primeERKNS1_14Discretization4BaseILi3EEERKN6dealii10DoFHandlerILi3ELi3EEERKNSA_6VectorIdEESI_RKNS1_17MeasurementGetter9Factories4BaseILi3EEERNSF_IfEE, ptr @_ZN12METomography12Measurements22ReferencedMeasurements15RatioMinusRatioILi3EdE28initialize_gauss_newton_stepERKN9libparest5Slave10Stationary14Discretization4BaseILi3EEERKN6dealii11BlockVectorIdEERKNS6_17MeasurementGetter9Factories4BaseILi3EEE, ptr @_ZNK12METomography12Measurements22ReferencedMeasurements15RatioMinusRatioILi3EdE21compute_data_misfit_1ERKN9libparest5Slave10Stationary14Discretization4BaseILi3EEERKN6dealii11BlockVectorIdEERKNS6_17MeasurementGetter9Factories4BaseILi3EEEjjRd, ptr @_ZNK12METomography12Measurements22ReferencedMeasurements15RatioMinusRatioILi3EdE24build_rhs_contribution_1ERKN9libparest5Slave10Stationary14Discretization4BaseILi3EEERKN6dealii11BlockVectorIdEERKNS6_17MeasurementGetter9Factories4BaseILi3EEERSE_jjRNSC_7Threads16DummyThreadMutexE, ptr @_ZNK12METomography12Measurements22ReferencedMeasurements15RatioMinusRatioILi3EdE27build_matrix_contribution_1ERKN9libparest5Slave10Stationary14Discretization4BaseILi3EEERKN6dealii11BlockVectorIdEERKNS6_17MeasurementGetter9Factories4BaseILi3EEERNSC_17BlockSparseMatrixIdEEjjRNSC_7Threads16DummyThreadMutexE, ptr @_ZNK12METomography12Measurements22ReferencedMeasurements15RatioMinusRatioILi3EdE9m_prime_1ERKN9libparest5Slave10Stationary14Discretization4BaseILi3EEERKN6dealii10DoFHandlerILi3ELi3EEERKNSC_6VectorIdEESK_RKNS6_17MeasurementGetter9Factories4BaseILi3EEERNSH_IfEEjj] }, comdat, align 8
@.str.10 = private unnamed_addr constant [37 x i8] c"source/me-tomography/measurements.cc\00", align 1
@.str.11 = private unnamed_addr constant [1 x i8] zeroinitializer, align 1
@.str.12 = private unnamed_addr constant [6 x i8] c"false\00", align 1
@.str.13 = private unnamed_addr constant [20 x i8] c"ExcNotImplemented()\00", align 1
@_ZTVN12METomography12Measurements22ReferencedMeasurements15RatioMinusRatioILi3EfEE = weak_odr dso_local unnamed_addr constant { [13 x ptr] } { [13 x ptr] [ptr null, ptr @_ZTIN12METomography12Measurements22ReferencedMeasurements15RatioMinusRatioILi3EfEE, ptr @_ZN12METomography12Measurements22ReferencedMeasurements15RatioMinusRatioILi3EfED2Ev, ptr @_ZN12METomography12Measurements22ReferencedMeasurements15RatioMinusRatioILi3EfED0Ev, ptr @_ZNK9libparest5Slave10Stationary12Measurements4BaseILi3EfE19compute_data_misfitERKNS1_14Discretization4BaseILi3EEERKN6dealii11BlockVectorIdEERKNS1_17MeasurementGetter9Factories4BaseILi3EEE, ptr @_ZNK9libparest5Slave10Stationary12Measurements4BaseILi3EfE22build_rhs_contributionERKNS1_14Discretization4BaseILi3EEERKN6dealii11BlockVectorIdEERKNS1_17MeasurementGetter9Factories4BaseILi3EEERSC_, ptr @_ZNK9libparest5Slave10Stationary12Measurements4BaseILi3EfE25build_matrix_contributionERKNS1_14Discretization4BaseILi3EEERKN6dealii11BlockVectorIdEERKNS1_17MeasurementGetter9Factories4BaseILi3EEERNSA_17BlockSparseMatrixIfEE, ptr @_ZNK9libparest5Slave10Stationary12Measurements4BaseILi3EfE7m_primeERKNS1_14Discretization4BaseILi3EEERKN6dealii10DoFHandlerILi3ELi3EEERKNSA_6VectorIdEESI_RKNS1_17MeasurementGetter9Factories4BaseILi3EEERNSF_IfEE, ptr @_ZN12METomography12Measurements22ReferencedMeasurements15RatioMinusRatioILi3EfE28initialize_gauss_newton_stepERKN9libparest5Slave10Stationary14Discretization4BaseILi3EEERKN6dealii11BlockVectorIdEERKNS6_17MeasurementGetter9Factories4BaseILi3EEE, ptr @_ZNK12METomography12Measurements22ReferencedMeasurements15RatioMinusRatioILi3EfE21compute_data_misfit_1ERKN9libparest5Slave10Stationary14Discretization4BaseILi3EEERKN6dealii11BlockVectorIdEERKNS6_17MeasurementGetter9Factories4BaseILi3EEEjjRd, ptr @_ZNK12METomography12Measurements22ReferencedMeasurements15RatioMinusRatioILi3EfE24build_rhs_contribution_1ERKN9libparest5Slave10Stationary14Discretization4BaseILi3EEERKN6dealii11BlockVectorIdEERKNS6_17MeasurementGetter9Factories4BaseILi3EEERSE_jjRNSC_7Threads16DummyThreadMutexE, ptr @_ZNK12METomography12Measurements22ReferencedMeasurements15RatioMinusRatioILi3EfE27build_matrix_contribution_1ERKN9libparest5Slave10Stationary14Discretization4BaseILi3EEERKN6dealii11BlockVectorIdEERKNS6_17MeasurementGetter9Factories4BaseILi3EEERNSC_17BlockSparseMatrixIfEEjjRNSC_7Threads16DummyThreadMutexE, ptr @_ZNK12METomography12Measurements22ReferencedMeasurements15RatioMinusRatioILi3EfE9m_prime_1ERKN9libparest5Slave10Stationary14Discretization4BaseILi3EEERKN6dealii10DoFHandlerILi3ELi3EEERKNSC_6VectorIdEESK_RKNS6_17MeasurementGetter9Factories4BaseILi3EEERNSH_IfEEjj] }, comdat, align 8
@_ZTVN10__cxxabiv121__vmi_class_type_infoE = external global ptr
@_ZTSN12METomography12Measurements35ScaledWeightedDirichletMeasurements4BaseILi3EdEE = weak_odr dso_local constant [80 x i8] c"N12METomography12Measurements35ScaledWeightedDirichletMeasurements4BaseILi3EdEE\00", comdat, align 1
@_ZTVN10__cxxabiv120__si_class_type_infoE = external global ptr
@_ZTSN9libparest5Slave10Stationary12Measurements4BaseILi3EdEE = linkonce_odr dso_local constant [57 x i8] c"N9libparest5Slave10Stationary12Measurements4BaseILi3EdEE\00", comdat, align 1
@_ZTIN6dealii11SubscriptorE = external constant ptr
@_ZTIN9libparest5Slave10Stationary12Measurements4BaseILi3EdEE = linkonce_odr dso_local constant { ptr, ptr, ptr } { ptr getelementptr inbounds (ptr, ptr @_ZTVN10__cxxabiv120__si_class_type_infoE, i64 2), ptr @_ZTSN9libparest5Slave10Stationary12Measurements4BaseILi3EdEE, ptr @_ZTIN6dealii11SubscriptorE }, comdat, align 8
@_ZTVN10__cxxabiv117__class_type_infoE = external global ptr
@_ZTSN9libparest5Slave10Stationary12Measurements23BoundaryMeasurementBaseE = linkonce_odr dso_local constant [70 x i8] c"N9libparest5Slave10Stationary12Measurements23BoundaryMeasurementBaseE\00", comdat, align 1
@_ZTIN9libparest5Slave10Stationary12Measurements23BoundaryMeasurementBaseE = linkonce_odr dso_local constant { ptr, ptr } { ptr getelementptr inbounds (ptr, ptr @_ZTVN10__cxxabiv117__class_type_infoE, i64 2), ptr @_ZTSN9libparest5Slave10Stationary12Measurements23BoundaryMeasurementBaseE }, comdat, align 8
@_ZTIN12METomography12Measurements35ScaledWeightedDirichletMeasurements4BaseILi3EdEE = weak_odr dso_local constant { ptr, ptr, i32, i32, ptr, i64, ptr, i64 } { ptr getelementptr inbounds (ptr, ptr @_ZTVN10__cxxabiv121__vmi_class_type_infoE, i64 2), ptr @_ZTSN12METomography12Measurements35ScaledWeightedDirichletMeasurements4BaseILi3EdEE, i32 0, i32 2, ptr @_ZTIN9libparest5Slave10Stationary12Measurements4BaseILi3EdEE, i64 2, ptr @_ZTIN9libparest5Slave10Stationary12Measurements23BoundaryMeasurementBaseE, i64 22530 }, comdat, align 8
@_ZTSN12METomography12Measurements35ScaledWeightedDirichletMeasurements4BaseILi3EfEE = weak_odr dso_local constant [80 x i8] c"N12METomography12Measurements35ScaledWeightedDirichletMeasurements4BaseILi3EfEE\00", comdat, align 1
@_ZTSN9libparest5Slave10Stationary12Measurements4BaseILi3EfEE = linkonce_odr dso_local constant [57 x i8] c"N9libparest5Slave10Stationary12Measurements4BaseILi3EfEE\00", comdat, align 1
@_ZTIN9libparest5Slave10Stationary12Measurements4BaseILi3EfEE = linkonce_odr dso_local constant { ptr, ptr, ptr } { ptr getelementptr inbounds (ptr, ptr @_ZTVN10__cxxabiv120__si_class_type_infoE, i64 2), ptr @_ZTSN9libparest5Slave10Stationary12Measurements4BaseILi3EfEE, ptr @_ZTIN6dealii11SubscriptorE }, comdat, align 8
@_ZTIN12METomography12Measurements35ScaledWeightedDirichletMeasurements4BaseILi3EfEE = weak_odr dso_local constant { ptr, ptr, i32, i32, ptr, i64, ptr, i64 } { ptr getelementptr inbounds (ptr, ptr @_ZTVN10__cxxabiv121__vmi_class_type_infoE, i64 2), ptr @_ZTSN12METomography12Measurements35ScaledWeightedDirichletMeasurements4BaseILi3EfEE, i32 0, i32 2, ptr @_ZTIN9libparest5Slave10Stationary12Measurements4BaseILi3EfEE, i64 2, ptr @_ZTIN9libparest5Slave10Stationary12Measurements23BoundaryMeasurementBaseE, i64 22530 }, comdat, align 8
@_ZTSN12METomography12Measurements35ScaledWeightedDirichletMeasurements7Pure_L2ILi3EdEE = weak_odr dso_local constant [83 x i8] c"N12METomography12Measurements35ScaledWeightedDirichletMeasurements7Pure_L2ILi3EdEE\00", comdat, align 1
@_ZTIN12METomography12Measurements35ScaledWeightedDirichletMeasurements7Pure_L2ILi3EdEE = weak_odr dso_local constant { ptr, ptr, ptr } { ptr getelementptr inbounds (ptr, ptr @_ZTVN10__cxxabiv120__si_class_type_infoE, i64 2), ptr @_ZTSN12METomography12Measurements35ScaledWeightedDirichletMeasurements7Pure_L2ILi3EdEE, ptr @_ZTIN12METomography12Measurements35ScaledWeightedDirichletMeasurements4BaseILi3EdEE }, comdat, align 8
@_ZTSN12METomography12Measurements35ScaledWeightedDirichletMeasurements7Pure_L2ILi3EfEE = weak_odr dso_local constant [83 x i8] c"N12METomography12Measurements35ScaledWeightedDirichletMeasurements7Pure_L2ILi3EfEE\00", comdat, align 1
@_ZTIN12METomography12Measurements35ScaledWeightedDirichletMeasurements7Pure_L2ILi3EfEE = weak_odr dso_local constant { ptr, ptr, ptr } { ptr getelementptr inbounds (ptr, ptr @_ZTVN10__cxxabiv120__si_class_type_infoE, i64 2), ptr @_ZTSN12METomography12Measurements35ScaledWeightedDirichletMeasurements7Pure_L2ILi3EfEE, ptr @_ZTIN12METomography12Measurements35ScaledWeightedDirichletMeasurements4BaseILi3EfEE }, comdat, align 8
@_ZTSN12METomography12Measurements35ScaledWeightedDirichletMeasurements7L2_RealILi3EdEE = weak_odr dso_local constant [83 x i8] c"N12METomography12Measurements35ScaledWeightedDirichletMeasurements7L2_RealILi3EdEE\00", comdat, align 1
@_ZTIN12METomography12Measurements35ScaledWeightedDirichletMeasurements7L2_RealILi3EdEE = weak_odr dso_local constant { ptr, ptr, ptr } { ptr getelementptr inbounds (ptr, ptr @_ZTVN10__cxxabiv120__si_class_type_infoE, i64 2), ptr @_ZTSN12METomography12Measurements35ScaledWeightedDirichletMeasurements7L2_RealILi3EdEE, ptr @_ZTIN12METomography12Measurements35ScaledWeightedDirichletMeasurements4BaseILi3EdEE }, comdat, align 8
@_ZTSN12METomography12Measurements35ScaledWeightedDirichletMeasurements7L2_RealILi3EfEE = weak_odr dso_local constant [83 x i8] c"N12METomography12Measurements35ScaledWeightedDirichletMeasurements7L2_RealILi3EfEE\00", comdat, align 1
@_ZTIN12METomography12Measurements35ScaledWeightedDirichletMeasurements7L2_RealILi3EfEE = weak_odr dso_local constant { ptr, ptr, ptr } { ptr getelementptr inbounds (ptr, ptr @_ZTVN10__cxxabiv120__si_class_type_infoE, i64 2), ptr @_ZTSN12METomography12Measurements35ScaledWeightedDirichletMeasurements7L2_RealILi3EfEE, ptr @_ZTIN12METomography12Measurements35ScaledWeightedDirichletMeasurements4BaseILi3EfEE }, comdat, align 8
@_ZTSN12METomography12Measurements35ScaledWeightedDirichletMeasurements10L2_ComplexILi3EdEE = weak_odr dso_local constant [87 x i8] c"N12METomography12Measurements35ScaledWeightedDirichletMeasurements10L2_ComplexILi3EdEE\00", comdat, align 1
@_ZTIN12METomography12Measurements35ScaledWeightedDirichletMeasurements10L2_ComplexILi3EdEE = weak_odr dso_local constant { ptr, ptr, ptr } { ptr getelementptr inbounds (ptr, ptr @_ZTVN10__cxxabiv120__si_class_type_infoE, i64 2), ptr @_ZTSN12METomography12Measurements35ScaledWeightedDirichletMeasurements10L2_ComplexILi3EdEE, ptr @_ZTIN12METomography12Measurements35ScaledWeightedDirichletMeasurements4BaseILi3EdEE }, comdat, align 8
@_ZTSN12METomography12Measurements35ScaledWeightedDirichletMeasurements10L2_ComplexILi3EfEE = weak_odr dso_local constant [87 x i8] c"N12METomography12Measurements35ScaledWeightedDirichletMeasurements10L2_ComplexILi3EfEE\00", comdat, align 1
@_ZTIN12METomography12Measurements35ScaledWeightedDirichletMeasurements10L2_ComplexILi3EfEE = weak_odr dso_local constant { ptr, ptr, ptr } { ptr getelementptr inbounds (ptr, ptr @_ZTVN10__cxxabiv120__si_class_type_infoE, i64 2), ptr @_ZTSN12METomography12Measurements35ScaledWeightedDirichletMeasurements10L2_ComplexILi3EfEE, ptr @_ZTIN12METomography12Measurements35ScaledWeightedDirichletMeasurements4BaseILi3EfEE }, comdat, align 8
@_ZTSN12METomography12Measurements22ReferencedMeasurements22RatioOverRatioMinusOneILi3EdEE = weak_odr dso_local constant [86 x i8] c"N12METomography12Measurements22ReferencedMeasurements22RatioOverRatioMinusOneILi3EdEE\00", comdat, align 1
@_ZTIN12METomography12Measurements22ReferencedMeasurements22RatioOverRatioMinusOneILi3EdEE = weak_odr dso_local constant { ptr, ptr, i32, i32, ptr, i64, ptr, i64 } { ptr getelementptr inbounds (ptr, ptr @_ZTVN10__cxxabiv121__vmi_class_type_infoE, i64 2), ptr @_ZTSN12METomography12Measurements22ReferencedMeasurements22RatioOverRatioMinusOneILi3EdEE, i32 0, i32 2, ptr @_ZTIN9libparest5Slave10Stationary12Measurements4BaseILi3EdEE, i64 2, ptr @_ZTIN9libparest5Slave10Stationary12Measurements23BoundaryMeasurementBaseE, i64 22530 }, comdat, align 8
@_ZTSN12METomography12Measurements22ReferencedMeasurements22RatioOverRatioMinusOneILi3EdE18ExcDiagNotPositiveE = weak_odr dso_local constant [106 x i8] c"N12METomography12Measurements22ReferencedMeasurements22RatioOverRatioMinusOneILi3EdE18ExcDiagNotPositiveE\00", comdat, align 1
@_ZTIN6dealii13ExceptionBaseE = external constant ptr
@_ZTIN12METomography12Measurements22ReferencedMeasurements22RatioOverRatioMinusOneILi3EdE18ExcDiagNotPositiveE = weak_odr dso_local constant { ptr, ptr, ptr } { ptr getelementptr inbounds (ptr, ptr @_ZTVN10__cxxabiv120__si_class_type_infoE, i64 2), ptr @_ZTSN12METomography12Measurements22ReferencedMeasurements22RatioOverRatioMinusOneILi3EdE18ExcDiagNotPositiveE, ptr @_ZTIN6dealii13ExceptionBaseE }, comdat, align 8
@_ZTSN12METomography12Measurements22ReferencedMeasurements22RatioOverRatioMinusOneILi3EfEE = weak_odr dso_local constant [86 x i8] c"N12METomography12Measurements22ReferencedMeasurements22RatioOverRatioMinusOneILi3EfEE\00", comdat, align 1
@_ZTIN12METomography12Measurements22ReferencedMeasurements22RatioOverRatioMinusOneILi3EfEE = weak_odr dso_local constant { ptr, ptr, i32, i32, ptr, i64, ptr, i64 } { ptr getelementptr inbounds (ptr, ptr @_ZTVN10__cxxabiv121__vmi_class_type_infoE, i64 2), ptr @_ZTSN12METomography12Measurements22ReferencedMeasurements22RatioOverRatioMinusOneILi3EfEE, i32 0, i32 2, ptr @_ZTIN9libparest5Slave10Stationary12Measurements4BaseILi3EfEE, i64 2, ptr @_ZTIN9libparest5Slave10Stationary12Measurements23BoundaryMeasurementBaseE, i64 22530 }, comdat, align 8
@_ZTSN12METomography12Measurements22ReferencedMeasurements22RatioOverRatioMinusOneILi3EfE18ExcDiagNotPositiveE = weak_odr dso_local constant [106 x i8] c"N12METomography12Measurements22ReferencedMeasurements22RatioOverRatioMinusOneILi3EfE18ExcDiagNotPositiveE\00", comdat, align 1
@_ZTIN12METomography12Measurements22ReferencedMeasurements22RatioOverRatioMinusOneILi3EfE18ExcDiagNotPositiveE = weak_odr dso_local constant { ptr, ptr, ptr } { ptr getelementptr inbounds (ptr, ptr @_ZTVN10__cxxabiv120__si_class_type_infoE, i64 2), ptr @_ZTSN12METomography12Measurements22ReferencedMeasurements22RatioOverRatioMinusOneILi3EfE18ExcDiagNotPositiveE, ptr @_ZTIN6dealii13ExceptionBaseE }, comdat, align 8
@_ZTSN12METomography12Measurements22ReferencedMeasurements15RatioMinusRatioILi3EdEE = weak_odr dso_local constant [79 x i8] c"N12METomography12Measurements22ReferencedMeasurements15RatioMinusRatioILi3EdEE\00", comdat, align 1
@_ZTIN12METomography12Measurements22ReferencedMeasurements15RatioMinusRatioILi3EdEE = weak_odr dso_local constant { ptr, ptr, i32, i32, ptr, i64, ptr, i64 } { ptr getelementptr inbounds (ptr, ptr @_ZTVN10__cxxabiv121__vmi_class_type_infoE, i64 2), ptr @_ZTSN12METomography12Measurements22ReferencedMeasurements15RatioMinusRatioILi3EdEE, i32 0, i32 2, ptr @_ZTIN9libparest5Slave10Stationary12Measurements4BaseILi3EdEE, i64 2, ptr @_ZTIN9libparest5Slave10Stationary12Measurements23BoundaryMeasurementBaseE, i64 22530 }, comdat, align 8
@_ZTSN12METomography12Measurements22ReferencedMeasurements15RatioMinusRatioILi3EfEE = weak_odr dso_local constant [79 x i8] c"N12METomography12Measurements22ReferencedMeasurements15RatioMinusRatioILi3EfEE\00", comdat, align 1
@_ZTIN12METomography12Measurements22ReferencedMeasurements15RatioMinusRatioILi3EfEE = weak_odr dso_local constant { ptr, ptr, i32, i32, ptr, i64, ptr, i64 } { ptr getelementptr inbounds (ptr, ptr @_ZTVN10__cxxabiv121__vmi_class_type_infoE, i64 2), ptr @_ZTSN12METomography12Measurements22ReferencedMeasurements15RatioMinusRatioILi3EfEE, i32 0, i32 2, ptr @_ZTIN9libparest5Slave10Stationary12Measurements4BaseILi3EfEE, i64 2, ptr @_ZTIN9libparest5Slave10Stationary12Measurements23BoundaryMeasurementBaseE, i64 22530 }, comdat, align 8
@_ZTVN6dealii16FEFaceValuesBaseILi3ELi3EEE = linkonce_odr dso_local unnamed_addr constant { [4 x ptr] } { [4 x ptr] [ptr null, ptr @_ZTIN6dealii16FEFaceValuesBaseILi3ELi3EEE, ptr @_ZN6dealii16FEFaceValuesBaseILi3ELi3EED2Ev, ptr @_ZN6dealii16FEFaceValuesBaseILi3ELi3EED0Ev] }, comdat, align 8
@_ZTSN6dealii16FEFaceValuesBaseILi3ELi3EEE = linkonce_odr dso_local constant [38 x i8] c"N6dealii16FEFaceValuesBaseILi3ELi3EEE\00", comdat, align 1
@_ZTSN6dealii12FEValuesBaseILi3ELi3EEE = linkonce_odr dso_local constant [34 x i8] c"N6dealii12FEValuesBaseILi3ELi3EEE\00", comdat, align 1
@_ZTSN6dealii12FEValuesDataILi3ELi3EEE = linkonce_odr dso_local constant [34 x i8] c"N6dealii12FEValuesDataILi3ELi3EEE\00", comdat, align 1
@_ZTIN6dealii12FEValuesDataILi3ELi3EEE = linkonce_odr dso_local constant { ptr, ptr } { ptr getelementptr inbounds (ptr, ptr @_ZTVN10__cxxabiv117__class_type_infoE, i64 2), ptr @_ZTSN6dealii12FEValuesDataILi3ELi3EEE }, comdat, align 8
@_ZTIN6dealii12FEValuesBaseILi3ELi3EEE = linkonce_odr dso_local constant { ptr, ptr, i32, i32, ptr, i64, ptr, i64 } { ptr getelementptr inbounds (ptr, ptr @_ZTVN10__cxxabiv121__vmi_class_type_infoE, i64 2), ptr @_ZTSN6dealii12FEValuesBaseILi3ELi3EEE, i32 0, i32 2, ptr @_ZTIN6dealii12FEValuesDataILi3ELi3EEE, i64 18432, ptr @_ZTIN6dealii11SubscriptorE, i64 2 }, comdat, align 8
@_ZTIN6dealii16FEFaceValuesBaseILi3ELi3EEE = linkonce_odr dso_local constant { ptr, ptr, ptr } { ptr getelementptr inbounds (ptr, ptr @_ZTVN10__cxxabiv120__si_class_type_infoE, i64 2), ptr @_ZTSN6dealii16FEFaceValuesBaseILi3ELi3EEE, ptr @_ZTIN6dealii12FEValuesBaseILi3ELi3EEE }, comdat, align 8
@_ZTVN6dealii9TableBaseILi2EdEE = linkonce_odr dso_local unnamed_addr constant { [4 x ptr] } { [4 x ptr] [ptr null, ptr @_ZTIN6dealii9TableBaseILi2EdEE, ptr @_ZN6dealii9TableBaseILi2EdED2Ev, ptr @_ZN6dealii9TableBaseILi2EdED0Ev] }, comdat, align 8
@_ZTSN6dealii9TableBaseILi2EdEE = linkonce_odr dso_local constant [27 x i8] c"N6dealii9TableBaseILi2EdEE\00", comdat, align 1
@_ZTIN6dealii9TableBaseILi2EdEE = linkonce_odr dso_local constant { ptr, ptr, ptr } { ptr getelementptr inbounds (ptr, ptr @_ZTVN10__cxxabiv120__si_class_type_infoE, i64 2), ptr @_ZTSN6dealii9TableBaseILi2EdEE, ptr @_ZTIN6dealii11SubscriptorE }, comdat, align 8
@_ZTVN6dealii18StandardExceptions17ExcNotImplementedE = linkonce_odr dso_local unnamed_addr constant { [6 x ptr] } { [6 x ptr] [ptr null, ptr @_ZTIN6dealii18StandardExceptions17ExcNotImplementedE, ptr @_ZN6dealii13ExceptionBaseD2Ev, ptr @_ZN6dealii18StandardExceptions17ExcNotImplementedD0Ev, ptr @_ZNK6dealii13ExceptionBase4whatEv, ptr @_ZNK6dealii13ExceptionBase10print_infoERSo] }, comdat, align 8
@_ZTSN6dealii18StandardExceptions17ExcNotImplementedE = linkonce_odr dso_local constant [49 x i8] c"N6dealii18StandardExceptions17ExcNotImplementedE\00", comdat, align 1
@_ZTIN6dealii18StandardExceptions17ExcNotImplementedE = linkonce_odr dso_local constant { ptr, ptr, ptr } { ptr getelementptr inbounds (ptr, ptr @_ZTVN10__cxxabiv120__si_class_type_infoE, i64 2), ptr @_ZTSN6dealii18StandardExceptions17ExcNotImplementedE, ptr @_ZTIN6dealii13ExceptionBaseE }, comdat, align 8
@.str.14 = private unnamed_addr constant [49 x i8] c"cannot create std::vector larger than max_size()\00", align 1
@_ZTVN9libparest5Slave10Stationary12Measurements4BaseILi3EdEE = linkonce_odr dso_local unnamed_addr constant { [13 x ptr] } { [13 x ptr] [ptr null, ptr @_ZTIN9libparest5Slave10Stationary12Measurements4BaseILi3EdEE, ptr @_ZN9libparest5Slave10Stationary12Measurements4BaseILi3EdED2Ev, ptr @_ZN9libparest5Slave10Stationary12Measurements4BaseILi3EdED0Ev, ptr @_ZNK9libparest5Slave10Stationary12Measurements4BaseILi3EdE19compute_data_misfitERKNS1_14Discretization4BaseILi3EEERKN6dealii11BlockVectorIdEERKNS1_17MeasurementGetter9Factories4BaseILi3EEE, ptr @_ZNK9libparest5Slave10Stationary12Measurements4BaseILi3EdE22build_rhs_contributionERKNS1_14Discretization4BaseILi3EEERKN6dealii11BlockVectorIdEERKNS1_17MeasurementGetter9Factories4BaseILi3EEERSC_, ptr @_ZNK9libparest5Slave10Stationary12Measurements4BaseILi3EdE25build_matrix_contributionERKNS1_14Discretization4BaseILi3EEERKN6dealii11BlockVectorIdEERKNS1_17MeasurementGetter9Factories4BaseILi3EEERNSA_17BlockSparseMatrixIdEE, ptr @_ZNK9libparest5Slave10Stationary12Measurements4BaseILi3EdE7m_primeERKNS1_14Discretization4BaseILi3EEERKN6dealii10DoFHandlerILi3ELi3EEERKNSA_6VectorIdEESI_RKNS1_17MeasurementGetter9Factories4BaseILi3EEERNSF_IfEE, ptr @_ZN9libparest5Slave10Stationary12Measurements4BaseILi3EdE28initialize_gauss_newton_stepERKNS1_14Discretization4BaseILi3EEERKN6dealii11BlockVectorIdEERKNS1_17MeasurementGetter9Factories4BaseILi3EEE, ptr @__cxa_pure_virtual, ptr @__cxa_pure_virtual, ptr @__cxa_pure_virtual, ptr @__cxa_pure_virtual] }, comdat, align 8
@_ZTVN6dealii6VectorIdEE = linkonce_odr dso_local unnamed_addr constant { [6 x ptr] } { [6 x ptr] [ptr null, ptr @_ZTIN6dealii6VectorIdEE, ptr @_ZN6dealii6VectorIdED2Ev, ptr @_ZN6dealii6VectorIdED0Ev, ptr @_ZN6dealii6VectorIdE6reinitEjb, ptr @_ZN6dealii6VectorIdE4swapERS1_] }, comdat, align 8
@_ZTSN6dealii6VectorIdEE = linkonce_odr dso_local constant [20 x i8] c"N6dealii6VectorIdEE\00", comdat, align 1
@_ZTIN6dealii6VectorIdEE = linkonce_odr dso_local constant { ptr, ptr, ptr } { ptr getelementptr inbounds (ptr, ptr @_ZTVN10__cxxabiv120__si_class_type_infoE, i64 2), ptr @_ZTSN6dealii6VectorIdEE, ptr @_ZTIN6dealii11SubscriptorE }, comdat, align 8
@_ZTVN9libparest5Slave10Stationary12Measurements4BaseILi3EfEE = linkonce_odr dso_local unnamed_addr constant { [13 x ptr] } { [13 x ptr] [ptr null, ptr @_ZTIN9libparest5Slave10Stationary12Measurements4BaseILi3EfEE, ptr @_ZN9libparest5Slave10Stationary12Measurements4BaseILi3EfED2Ev, ptr @_ZN9libparest5Slave10Stationary12Measurements4BaseILi3EfED0Ev, ptr @_ZNK9libparest5Slave10Stationary12Measurements4BaseILi3EfE19compute_data_misfitERKNS1_14Discretization4BaseILi3EEERKN6dealii11BlockVectorIdEERKNS1_17MeasurementGetter9Factories4BaseILi3EEE, ptr @_ZNK9libparest5Slave10Stationary12Measurements4BaseILi3EfE22build_rhs_contributionERKNS1_14Discretization4BaseILi3EEERKN6dealii11BlockVectorIdEERKNS1_17MeasurementGetter9Factories4BaseILi3EEERSC_, ptr @_ZNK9libparest5Slave10Stationary12Measurements4BaseILi3EfE25build_matrix_contributionERKNS1_14Discretization4BaseILi3EEERKN6dealii11BlockVectorIdEERKNS1_17MeasurementGetter9Factories4BaseILi3EEERNSA_17BlockSparseMatrixIfEE, ptr @_ZNK9libparest5Slave10Stationary12Measurements4BaseILi3EfE7m_primeERKNS1_14Discretization4BaseILi3EEERKN6dealii10DoFHandlerILi3ELi3EEERKNSA_6VectorIdEESI_RKNS1_17MeasurementGetter9Factories4BaseILi3EEERNSF_IfEE, ptr @_ZN9libparest5Slave10Stationary12Measurements4BaseILi3EfE28initialize_gauss_newton_stepERKNS1_14Discretization4BaseILi3EEERKN6dealii11BlockVectorIdEERKNS1_17MeasurementGetter9Factories4BaseILi3EEE, ptr @__cxa_pure_virtual, ptr @__cxa_pure_virtual, ptr @__cxa_pure_virtual, ptr @__cxa_pure_virtual] }, comdat, align 8
@_ZZN6dealii8internal12TriaAccessor14Implementation12vertex_indexILi3ELi3EEEjRKNS_12TriaAccessorILi2EXT_EXT0_EEEjE12switch_table = linkonce_odr dso_local local_unnamed_addr constant [2 x [2 x i32]] [[2 x i32] [i32 1, i32 0], [2 x i32] [i32 0, i32 1]], comdat, align 16
@llvm.global_ctors = appending global [0 x { i32, ptr, ptr }] zeroinitializer

@_ZN12METomography12Measurements35ScaledWeightedDirichletMeasurements7Pure_L2ILi3EdEC1ERKN9libparest5Slave10Stationary18ProblemDescriptionERKN6dealii8FunctionILi3EEERKSt3setIhSt4lessIhESaIhEE = weak_odr dso_local unnamed_addr alias void (ptr, ptr, ptr, ptr), ptr @_ZN12METomography12Measurements35ScaledWeightedDirichletMeasurements7Pure_L2ILi3EdEC2ERKN9libparest5Slave10Stationary18ProblemDescriptionERKN6dealii8FunctionILi3EEERKSt3setIhSt4lessIhESaIhEE
@_ZN12METomography12Measurements35ScaledWeightedDirichletMeasurements7Pure_L2ILi3EfEC1ERKN9libparest5Slave10Stationary18ProblemDescriptionERKN6dealii8FunctionILi3EEERKSt3setIhSt4lessIhESaIhEE = weak_odr dso_local unnamed_addr alias void (ptr, ptr, ptr, ptr), ptr @_ZN12METomography12Measurements35ScaledWeightedDirichletMeasurements7Pure_L2ILi3EfEC2ERKN9libparest5Slave10Stationary18ProblemDescriptionERKN6dealii8FunctionILi3EEERKSt3setIhSt4lessIhESaIhEE
@_ZN12METomography12Measurements35ScaledWeightedDirichletMeasurements7L2_RealILi3EdEC1ERKN9libparest5Slave10Stationary18ProblemDescriptionERKN6dealii8FunctionILi3EEERKSt3setIhSt4lessIhESaIhEE = weak_odr dso_local unnamed_addr alias void (ptr, ptr, ptr, ptr), ptr @_ZN12METomography12Measurements35ScaledWeightedDirichletMeasurements7L2_RealILi3EdEC2ERKN9libparest5Slave10Stationary18ProblemDescriptionERKN6dealii8FunctionILi3EEERKSt3setIhSt4lessIhESaIhEE
@_ZN12METomography12Measurements35ScaledWeightedDirichletMeasurements7L2_RealILi3EfEC1ERKN9libparest5Slave10Stationary18ProblemDescriptionERKN6dealii8FunctionILi3EEERKSt3setIhSt4lessIhESaIhEE = weak_odr dso_local unnamed_addr alias void (ptr, ptr, ptr, ptr), ptr @_ZN12METomography12Measurements35ScaledWeightedDirichletMeasurements7L2_RealILi3EfEC2ERKN9libparest5Slave10Stationary18ProblemDescriptionERKN6dealii8FunctionILi3EEERKSt3setIhSt4lessIhESaIhEE
@_ZN12METomography12Measurements35ScaledWeightedDirichletMeasurements10L2_ComplexILi3EdEC1ERKN9libparest5Slave10Stationary18ProblemDescriptionERKN6dealii8FunctionILi3EEERKSt3setIhSt4lessIhESaIhEE = weak_odr dso_local unnamed_addr alias void (ptr, ptr, ptr, ptr), ptr @_ZN12METomography12Measurements35ScaledWeightedDirichletMeasurements10L2_ComplexILi3EdEC2ERKN9libparest5Slave10Stationary18ProblemDescriptionERKN6dealii8FunctionILi3EEERKSt3setIhSt4lessIhESaIhEE
@_ZN12METomography12Measurements35ScaledWeightedDirichletMeasurements10L2_ComplexILi3EfEC1ERKN9libparest5Slave10Stationary18ProblemDescriptionERKN6dealii8FunctionILi3EEERKSt3setIhSt4lessIhESaIhEE = weak_odr dso_local unnamed_addr alias void (ptr, ptr, ptr, ptr), ptr @_ZN12METomography12Measurements35ScaledWeightedDirichletMeasurements10L2_ComplexILi3EfEC2ERKN9libparest5Slave10Stationary18ProblemDescriptionERKN6dealii8FunctionILi3EEERKSt3setIhSt4lessIhESaIhEE
@_ZN12METomography12Measurements22ReferencedMeasurements22RatioOverRatioMinusOneILi3EdEC1ERKN9libparest5Slave10Stationary18ProblemDescriptionERKN6dealii8FunctionILi3EEERKSt3setIhSt4lessIhESaIhEE = weak_odr dso_local unnamed_addr alias void (ptr, ptr, ptr, ptr), ptr @_ZN12METomography12Measurements22ReferencedMeasurements22RatioOverRatioMinusOneILi3EdEC2ERKN9libparest5Slave10Stationary18ProblemDescriptionERKN6dealii8FunctionILi3EEERKSt3setIhSt4lessIhESaIhEE
@_ZN12METomography12Measurements22ReferencedMeasurements22RatioOverRatioMinusOneILi3EdE18ExcDiagNotPositiveC1Ed = weak_odr dso_local unnamed_addr alias void (ptr, double), ptr @_ZN12METomography12Measurements22ReferencedMeasurements22RatioOverRatioMinusOneILi3EdE18ExcDiagNotPositiveC2Ed
@_ZN12METomography12Measurements22ReferencedMeasurements22RatioOverRatioMinusOneILi3EdE18ExcDiagNotPositiveD1Ev = weak_odr dso_local unnamed_addr alias void (ptr), ptr @_ZN12METomography12Measurements22ReferencedMeasurements22RatioOverRatioMinusOneILi3EdE18ExcDiagNotPositiveD2Ev
@_ZN12METomography12Measurements22ReferencedMeasurements22RatioOverRatioMinusOneILi3EfEC1ERKN9libparest5Slave10Stationary18ProblemDescriptionERKN6dealii8FunctionILi3EEERKSt3setIhSt4lessIhESaIhEE = weak_odr dso_local unnamed_addr alias void (ptr, ptr, ptr, ptr), ptr @_ZN12METomography12Measurements22ReferencedMeasurements22RatioOverRatioMinusOneILi3EfEC2ERKN9libparest5Slave10Stationary18ProblemDescriptionERKN6dealii8FunctionILi3EEERKSt3setIhSt4lessIhESaIhEE
@_ZN12METomography12Measurements22ReferencedMeasurements22RatioOverRatioMinusOneILi3EfE18ExcDiagNotPositiveC1Ed = weak_odr dso_local unnamed_addr alias void (ptr, double), ptr @_ZN12METomography12Measurements22ReferencedMeasurements22RatioOverRatioMinusOneILi3EfE18ExcDiagNotPositiveC2Ed
@_ZN12METomography12Measurements22ReferencedMeasurements22RatioOverRatioMinusOneILi3EfE18ExcDiagNotPositiveD1Ev = weak_odr dso_local unnamed_addr alias void (ptr), ptr @_ZN12METomography12Measurements22ReferencedMeasurements22RatioOverRatioMinusOneILi3EfE18ExcDiagNotPositiveD2Ev
@_ZN12METomography12Measurements22ReferencedMeasurements15RatioMinusRatioILi3EdEC1ERKN9libparest5Slave10Stationary18ProblemDescriptionERKN6dealii8FunctionILi3EEERKSt3setIhSt4lessIhESaIhEE = weak_odr dso_local unnamed_addr alias void (ptr, ptr, ptr, ptr), ptr @_ZN12METomography12Measurements22ReferencedMeasurements15RatioMinusRatioILi3EdEC2ERKN9libparest5Slave10Stationary18ProblemDescriptionERKN6dealii8FunctionILi3EEERKSt3setIhSt4lessIhESaIhEE
@_ZN12METomography12Measurements22ReferencedMeasurements15RatioMinusRatioILi3EfEC1ERKN9libparest5Slave10Stationary18ProblemDescriptionERKN6dealii8FunctionILi3EEERKSt3setIhSt4lessIhESaIhEE = weak_odr dso_local unnamed_addr alias void (ptr, ptr, ptr, ptr), ptr @_ZN12METomography12Measurements22ReferencedMeasurements15RatioMinusRatioILi3EfEC2ERKN9libparest5Slave10Stationary18ProblemDescriptionERKN6dealii8FunctionILi3EEERKSt3setIhSt4lessIhESaIhEE

; Function Attrs: sspstrong uwtable
define weak_odr dso_local void @_ZN12METomography12Measurements35ScaledWeightedDirichletMeasurements4BaseILi3EdEC2ERKN9libparest5Slave10Stationary18ProblemDescriptionERKN6dealii8FunctionILi3EEERKSt3setIhSt4lessIhESaIhEE(ptr noundef nonnull align 8 dereferenceable(152) %0, ptr noundef nonnull align 8 dereferenceable(88) %1, ptr noundef nonnull align 8 dereferenceable(92) %2, ptr noundef nonnull align 8 dereferenceable(48) %3) unnamed_addr #0 comdat($_ZN12METomography12Measurements35ScaledWeightedDirichletMeasurements4BaseILi3EdEC5ERKN9libparest5Slave10Stationary18ProblemDescriptionERKN6dealii8FunctionILi3EEERKSt3setIhSt4lessIhESaIhEE) align 2 personality ptr @__gxx_personality_v0 {
  tail call void @_ZN9libparest5Slave10Stationary12Measurements4BaseILi3EdEC2ERKNS1_18ProblemDescriptionE(ptr noundef nonnull align 8 dereferenceable(88) %0, ptr noundef nonnull align 8 dereferenceable(88) %1)
  %5 = getelementptr inbounds i8, ptr %0, i64 88
  invoke void @_ZN9libparest5Slave10Stationary12Measurements23BoundaryMeasurementBaseC2ERKSt3setIhSt4lessIhESaIhEE(ptr noundef nonnull align 8 dereferenceable(48) %5, ptr noundef nonnull align 8 dereferenceable(48) %3)
          to label %6 unwind label %9

6:                                                ; preds = %4
  store ptr getelementptr inbounds ({ [14 x ptr] }, ptr @_ZTVN12METomography12Measurements35ScaledWeightedDirichletMeasurements4BaseILi3EdEE, i64 0, inrange i32 0, i64 2), ptr %0, align 8, !tbaa !5
  %7 = getelementptr inbounds %"class.METomography::Measurements::ScaledWeightedDirichletMeasurements::Base", ptr %0, i64 0, i32 2
  store ptr %2, ptr %7, align 8, !tbaa !8
  %8 = getelementptr inbounds %"class.METomography::Measurements::ScaledWeightedDirichletMeasurements::Base", ptr %0, i64 0, i32 2, i32 1
  store ptr null, ptr %8, align 8, !tbaa !12
  ret void

9:                                                ; preds = %4
  %10 = landingpad { ptr, i32 }
          cleanup
  store ptr getelementptr inbounds ({ [13 x ptr] }, ptr @_ZTVN9libparest5Slave10Stationary12Measurements4BaseILi3EdEE, i64 0, inrange i32 0, i64 2), ptr %0, align 8, !tbaa !5
  invoke void @_ZN6dealii11SubscriptorD2Ev(ptr noundef nonnull align 8 dereferenceable(72) %0)
          to label %11 unwind label %12

11:                                               ; preds = %9
  resume { ptr, i32 } %10

12:                                               ; preds = %9
  %13 = landingpad { ptr, i32 }
          catch ptr null
  %14 = extractvalue { ptr, i32 } %13, 0
  tail call void @__clang_call_terminate(ptr %14) #17
  unreachable
}

declare void @_ZN9libparest5Slave10Stationary12Measurements4BaseILi3EdEC2ERKNS1_18ProblemDescriptionE(ptr noundef nonnull align 8 dereferenceable(88), ptr noundef nonnull align 8 dereferenceable(88)) unnamed_addr #1

declare void @_ZN9libparest5Slave10Stationary12Measurements23BoundaryMeasurementBaseC2ERKSt3setIhSt4lessIhESaIhEE(ptr noundef nonnull align 8 dereferenceable(48), ptr noundef nonnull align 8 dereferenceable(48)) unnamed_addr #1

declare i32 @__gxx_personality_v0(...)

; Function Attrs: noinline noreturn nounwind sspstrong uwtable
define linkonce_odr hidden void @__clang_call_terminate(ptr noundef %0) local_unnamed_addr #2 comdat {
  %2 = tail call ptr @__cxa_begin_catch(ptr %0) #18
  tail call void @_ZSt9terminatev() #17
  unreachable
}

declare ptr @__cxa_begin_catch(ptr) local_unnamed_addr

declare void @_ZSt9terminatev() local_unnamed_addr

; Function Attrs: sspstrong uwtable
define weak_odr dso_local void @_ZNK12METomography12Measurements35ScaledWeightedDirichletMeasurements4BaseILi3EdE21compute_data_misfit_1ERKN9libparest5Slave10Stationary14Discretization4BaseILi3EEERKN6dealii11BlockVectorIdEERKNS6_17MeasurementGetter9Factories4BaseILi3EEEjjRd(ptr noundef nonnull align 8 dereferenceable(152) %0, ptr noundef nonnull align 8 dereferenceable(96) %1, ptr noundef nonnull align 8 dereferenceable(128) %2, ptr noundef nonnull align 8 dereferenceable(8) %3, i32 noundef %4, i32 noundef %5, ptr noundef nonnull align 8 dereferenceable(8) %6) unnamed_addr #0 comdat align 2 personality ptr @__gxx_personality_v0 {
  %8 = alloca %"class.dealii::FEFaceValues", align 8
  %9 = alloca %"class.std::vector.114", align 8
  %10 = alloca %"class.dealii::Vector", align 8
  %11 = alloca %"class.std::allocator.116", align 1
  %12 = alloca %"class.std::vector.114", align 8
  %13 = alloca %"class.dealii::Vector", align 8
  %14 = alloca %"class.std::allocator.116", align 1
  %15 = alloca %"class.std::vector.27", align 8
  %16 = alloca %"class.dealii::TriaActiveIterator", align 8
  %17 = alloca %"class.dealii::TriaActiveIterator", align 8
  %18 = alloca %"class.dealii::TriaActiveIterator.159", align 8
  %19 = getelementptr inbounds %"class.libparest::Slave::Stationary::Discretization::Base", ptr %1, i64 0, i32 2
  %20 = load ptr, ptr %19, align 8, !tbaa !13
  %21 = getelementptr inbounds %"class.libparest::Slave::Stationary::Discretization::FiniteElements", ptr %20, i64 0, i32 5
  %22 = load ptr, ptr %21, align 8, !tbaa !26
  %23 = getelementptr inbounds %"class.dealii::Quadrature", ptr %22, i64 0, i32 1
  %24 = load i32, ptr %23, align 8, !tbaa !28
  %25 = load ptr, ptr %3, align 8, !tbaa !5
  %26 = getelementptr inbounds ptr, ptr %25, i64 3
  %27 = load ptr, ptr %26, align 8
  %28 = tail call noundef ptr %27(ptr noundef nonnull align 8 dereferenceable(8) %3, ptr noundef nonnull align 8 dereferenceable(128) %22, i32 noundef 0)
  %29 = load ptr, ptr %19, align 8, !tbaa !13
  %30 = getelementptr inbounds %"class.libparest::Slave::Stationary::Discretization::FiniteElements", ptr %29, i64 0, i32 1
  %31 = load ptr, ptr %30, align 8, !tbaa !38
  call void @llvm.lifetime.start.p0(i64 784, ptr nonnull %8) #18
  invoke void @_ZN6dealii12FEFaceValuesILi3ELi3EEC1ERKNS_13FiniteElementILi3ELi3EEERKNS_10QuadratureILi2EEENS_11UpdateFlagsE(ptr noundef nonnull align 8 dereferenceable(784) %8, ptr noundef nonnull align 8 dereferenceable(728) %31, ptr noundef nonnull align 8 dereferenceable(128) %22, i32 noundef 49)
          to label %32 unwind label %250

32:                                               ; preds = %7
  call void @llvm.lifetime.start.p0(i64 24, ptr nonnull %9) #18
  %33 = zext i32 %24 to i64
  call void @llvm.lifetime.start.p0(i64 88, ptr nonnull %10) #18
  %34 = getelementptr inbounds %"class.libparest::Slave::Stationary::Measurements::Base", ptr %0, i64 0, i32 1
  %35 = load ptr, ptr %34, align 8, !tbaa !39
  %36 = getelementptr inbounds %"class.libparest::Slave::Stationary::ProblemDescription", ptr %35, i64 0, i32 4
  %37 = load i32, ptr %36, align 4, !tbaa !41
  invoke void @_ZN6dealii11SubscriptorC2Ev(ptr noundef nonnull align 8 dereferenceable(72) %10)
          to label %38 unwind label %252

38:                                               ; preds = %32
  store ptr getelementptr inbounds ({ [6 x ptr] }, ptr @_ZTVN6dealii6VectorIdEE, i64 0, inrange i32 0, i64 2), ptr %10, align 8, !tbaa !5
  %39 = getelementptr inbounds %"class.dealii::Vector", ptr %10, i64 0, i32 1
  call void @llvm.memset.p0.i64(ptr noundef nonnull align 8 dereferenceable(16) %39, i8 0, i64 16, i1 false)
  %40 = icmp eq i32 %37, 0
  br i1 %40, label %53, label %41

41:                                               ; preds = %38
  %42 = zext i32 %37 to i64
  %43 = shl nuw nsw i64 %42, 3
  %44 = invoke noalias noundef nonnull ptr @_Znam(i64 noundef %43) #19
          to label %45 unwind label %48

45:                                               ; preds = %41
  %46 = getelementptr inbounds %"class.dealii::Vector", ptr %10, i64 0, i32 3
  %47 = getelementptr inbounds %"class.dealii::Vector", ptr %10, i64 0, i32 2
  store ptr %44, ptr %46, align 8, !tbaa !43
  store i32 %37, ptr %47, align 4, !tbaa !45
  store i32 %37, ptr %39, align 8, !tbaa !46
  call void @llvm.memset.p0.i64(ptr nonnull align 8 %44, i8 0, i64 %43, i1 false), !tbaa !47
  br label %53

48:                                               ; preds = %41
  %49 = landingpad { ptr, i32 }
          cleanup
  invoke void @_ZN6dealii11SubscriptorD2Ev(ptr noundef nonnull align 8 dereferenceable(72) %10)
          to label %256 unwind label %50

50:                                               ; preds = %48
  %51 = landingpad { ptr, i32 }
          catch ptr null
  %52 = extractvalue { ptr, i32 } %51, 0
  call void @__clang_call_terminate(ptr %52) #17
  unreachable

53:                                               ; preds = %45, %38
  call void @llvm.lifetime.start.p0(i64 1, ptr nonnull %11) #18
  invoke void @_ZNSt6vectorIN6dealii6VectorIdEESaIS2_EEC2EmRKS2_RKS3_(ptr noundef nonnull align 8 dereferenceable(24) %9, i64 noundef %33, ptr noundef nonnull align 8 dereferenceable(88) %10, ptr noundef nonnull align 1 dereferenceable(1) %11)
          to label %54 unwind label %254

54:                                               ; preds = %53
  call void @llvm.lifetime.end.p0(i64 1, ptr nonnull %11) #18
  store ptr getelementptr inbounds ({ [6 x ptr] }, ptr @_ZTVN6dealii6VectorIdEE, i64 0, inrange i32 0, i64 2), ptr %10, align 8, !tbaa !5
  %55 = getelementptr inbounds %"class.dealii::Vector", ptr %10, i64 0, i32 3
  %56 = load ptr, ptr %55, align 8, !tbaa !43
  %57 = icmp eq ptr %56, null
  br i1 %57, label %59, label %58

58:                                               ; preds = %54
  call void @_ZdaPv(ptr noundef nonnull %56) #20
  store ptr null, ptr %55, align 8, !tbaa !43
  br label %59

59:                                               ; preds = %58, %54
  invoke void @_ZN6dealii11SubscriptorD2Ev(ptr noundef nonnull align 8 dereferenceable(72) %10)
          to label %60 unwind label %252

60:                                               ; preds = %59
  call void @llvm.lifetime.end.p0(i64 88, ptr nonnull %10) #18
  call void @llvm.lifetime.start.p0(i64 24, ptr nonnull %12) #18
  call void @llvm.lifetime.start.p0(i64 88, ptr nonnull %13) #18
  %61 = load ptr, ptr %34, align 8, !tbaa !39
  %62 = getelementptr inbounds %"class.libparest::Slave::Stationary::ProblemDescription", ptr %61, i64 0, i32 1
  %63 = load i32, ptr %62, align 8, !tbaa !49
  invoke void @_ZN6dealii11SubscriptorC2Ev(ptr noundef nonnull align 8 dereferenceable(72) %13)
          to label %64 unwind label %258

64:                                               ; preds = %60
  store ptr getelementptr inbounds ({ [6 x ptr] }, ptr @_ZTVN6dealii6VectorIdEE, i64 0, inrange i32 0, i64 2), ptr %13, align 8, !tbaa !5
  %65 = getelementptr inbounds %"class.dealii::Vector", ptr %13, i64 0, i32 1
  call void @llvm.memset.p0.i64(ptr noundef nonnull align 8 dereferenceable(16) %65, i8 0, i64 16, i1 false)
  %66 = icmp eq i32 %63, 0
  br i1 %66, label %79, label %67

67:                                               ; preds = %64
  %68 = zext i32 %63 to i64
  %69 = shl nuw nsw i64 %68, 3
  %70 = invoke noalias noundef nonnull ptr @_Znam(i64 noundef %69) #19
          to label %71 unwind label %74

71:                                               ; preds = %67
  %72 = getelementptr inbounds %"class.dealii::Vector", ptr %13, i64 0, i32 3
  %73 = getelementptr inbounds %"class.dealii::Vector", ptr %13, i64 0, i32 2
  store ptr %70, ptr %72, align 8, !tbaa !43
  store i32 %63, ptr %73, align 4, !tbaa !45
  store i32 %63, ptr %65, align 8, !tbaa !46
  call void @llvm.memset.p0.i64(ptr nonnull align 8 %70, i8 0, i64 %69, i1 false), !tbaa !47
  br label %79

74:                                               ; preds = %67
  %75 = landingpad { ptr, i32 }
          cleanup
  invoke void @_ZN6dealii11SubscriptorD2Ev(ptr noundef nonnull align 8 dereferenceable(72) %13)
          to label %262 unwind label %76

76:                                               ; preds = %74
  %77 = landingpad { ptr, i32 }
          catch ptr null
  %78 = extractvalue { ptr, i32 } %77, 0
  call void @__clang_call_terminate(ptr %78) #17
  unreachable

79:                                               ; preds = %71, %64
  call void @llvm.lifetime.start.p0(i64 1, ptr nonnull %14) #18
  invoke void @_ZNSt6vectorIN6dealii6VectorIdEESaIS2_EEC2EmRKS2_RKS3_(ptr noundef nonnull align 8 dereferenceable(24) %12, i64 noundef %33, ptr noundef nonnull align 8 dereferenceable(88) %13, ptr noundef nonnull align 1 dereferenceable(1) %14)
          to label %80 unwind label %260

80:                                               ; preds = %79
  call void @llvm.lifetime.end.p0(i64 1, ptr nonnull %14) #18
  store ptr getelementptr inbounds ({ [6 x ptr] }, ptr @_ZTVN6dealii6VectorIdEE, i64 0, inrange i32 0, i64 2), ptr %13, align 8, !tbaa !5
  %81 = getelementptr inbounds %"class.dealii::Vector", ptr %13, i64 0, i32 3
  %82 = load ptr, ptr %81, align 8, !tbaa !43
  %83 = icmp eq ptr %82, null
  br i1 %83, label %85, label %84

84:                                               ; preds = %80
  call void @_ZdaPv(ptr noundef nonnull %82) #20
  store ptr null, ptr %81, align 8, !tbaa !43
  br label %85

85:                                               ; preds = %84, %80
  invoke void @_ZN6dealii11SubscriptorD2Ev(ptr noundef nonnull align 8 dereferenceable(72) %13)
          to label %86 unwind label %258

86:                                               ; preds = %85
  call void @llvm.lifetime.end.p0(i64 88, ptr nonnull %13) #18
  call void @llvm.lifetime.start.p0(i64 24, ptr nonnull %15) #18
  %87 = icmp eq i32 %24, 0
  br i1 %87, label %88, label %89

88:                                               ; preds = %86
  call void @llvm.memset.p0.i64(ptr noundef nonnull align 8 dereferenceable(24) %15, i8 0, i64 24, i1 false)
  br label %95

89:                                               ; preds = %86
  %90 = shl nuw nsw i64 %33, 3
  %91 = invoke noalias noundef nonnull ptr @_Znwm(i64 noundef %90) #19
          to label %92 unwind label %264

92:                                               ; preds = %89
  store ptr %91, ptr %15, align 8, !tbaa !50
  %93 = getelementptr inbounds double, ptr %91, i64 %33
  %94 = getelementptr inbounds %"struct.std::_Vector_base<double, std::allocator<double> >::_Vector_impl_data", ptr %15, i64 0, i32 2
  store ptr %93, ptr %94, align 8, !tbaa !51
  call void @llvm.memset.p0.i64(ptr nonnull align 8 %91, i8 0, i64 %90, i1 false), !tbaa !47
  br label %95

95:                                               ; preds = %92, %88
  %96 = phi ptr [ null, %88 ], [ %93, %92 ]
  %97 = getelementptr inbounds %"struct.std::_Vector_base<double, std::allocator<double> >::_Vector_impl_data", ptr %15, i64 0, i32 1
  store ptr %96, ptr %97, align 8, !tbaa !52
  %98 = load ptr, ptr %0, align 8, !tbaa !5
  %99 = getelementptr inbounds ptr, ptr %98, i64 11
  %100 = load ptr, ptr %99, align 8
  %101 = invoke { double, double } %100(ptr noundef nonnull align 8 dereferenceable(152) %0, ptr noundef nonnull align 8 dereferenceable(96) %1, ptr noundef nonnull align 8 dereferenceable(128) %2, ptr noundef nonnull align 8 dereferenceable(8) %3)
          to label %102 unwind label %266

102:                                              ; preds = %95
  %103 = extractvalue { double, double } %101, 0
  %104 = extractvalue { double, double } %101, 1
  call void @llvm.lifetime.start.p0(i64 24, ptr nonnull %16) #18
  %105 = getelementptr inbounds %"class.libparest::Slave::Stationary::Discretization::Base", ptr %1, i64 0, i32 3
  %106 = load ptr, ptr %105, align 8, !tbaa !53
  %107 = getelementptr inbounds %"class.libparest::Slave::Stationary::Discretization::DoFHandlers", ptr %106, i64 0, i32 1
  invoke void @_ZNK6dealii10DoFHandlerILi3ELi3EE12begin_activeEj(ptr nonnull sret(%"class.dealii::TriaActiveIterator") align 8 %16, ptr noundef nonnull align 8 dereferenceable(168) %107, i32 noundef 0)
          to label %108 unwind label %268

108:                                              ; preds = %102
  call void @llvm.lifetime.start.p0(i64 24, ptr nonnull %17) #18
  %109 = load ptr, ptr %105, align 8, !tbaa !53
  %110 = getelementptr inbounds %"class.libparest::Slave::Stationary::Discretization::DoFHandlers", ptr %109, i64 0, i32 1
  invoke void @_ZNK6dealii10DoFHandlerILi3ELi3EE12begin_activeEj(ptr nonnull sret(%"class.dealii::TriaActiveIterator") align 8 %17, ptr noundef nonnull align 8 dereferenceable(168) %110, i32 noundef 0)
          to label %111 unwind label %270

111:                                              ; preds = %108
  %112 = sext i32 %4 to i64
  invoke void @_ZSt9__advanceIN6dealii18TriaActiveIteratorINS0_15DoFCellAccessorINS0_10DoFHandlerILi3ELi3EEEEEEElEvRT_T0_St26bidirectional_iterator_tag(ptr noundef nonnull align 8 dereferenceable(24) %16, i64 noundef %112)
          to label %113 unwind label %270

113:                                              ; preds = %111
  %114 = sext i32 %5 to i64
  invoke void @_ZSt9__advanceIN6dealii18TriaActiveIteratorINS0_15DoFCellAccessorINS0_10DoFHandlerILi3ELi3EEEEEEElEvRT_T0_St26bidirectional_iterator_tag(ptr noundef nonnull align 8 dereferenceable(24) %17, i64 noundef %114)
          to label %115 unwind label %270

115:                                              ; preds = %113
  %116 = getelementptr inbounds %"class.dealii::TriaAccessorBase", ptr %16, i64 0, i32 1
  %117 = getelementptr inbounds %"class.dealii::TriaAccessorBase", ptr %17, i64 0, i32 1
  %118 = load i32, ptr %116, align 4, !tbaa !54
  %119 = load i32, ptr %117, align 4, !tbaa !54
  %120 = icmp ne i32 %118, %119
  %121 = load i32, ptr %16, align 8
  %122 = load i32, ptr %17, align 8
  %123 = icmp ne i32 %121, %122
  %124 = select i1 %120, i1 true, i1 %123
  br i1 %124, label %125, label %394

125:                                              ; preds = %115
  %126 = getelementptr inbounds %"class.dealii::TriaAccessorBase", ptr %16, i64 0, i32 2
  %127 = getelementptr inbounds i8, ptr %0, i64 104
  %128 = getelementptr inbounds i8, ptr %0, i64 96
  %129 = getelementptr inbounds %"class.METomography::Measurements::ScaledWeightedDirichletMeasurements::Base", ptr %0, i64 0, i32 2
  %130 = getelementptr inbounds i8, ptr %8, i64 312
  %131 = getelementptr inbounds i8, ptr %8, i64 216
  br label %272

132:                                              ; preds = %389
  %133 = load ptr, ptr %126, align 8, !tbaa !56
  %134 = getelementptr inbounds %"class.dealii::Triangulation", ptr %133, i64 0, i32 1
  %135 = load ptr, ptr %134, align 8, !tbaa !57
  %136 = ptrtoint ptr %135 to i64
  %137 = getelementptr inbounds %"class.dealii::Triangulation", ptr %133, i64 0, i32 1, i32 0, i32 0, i32 0, i32 1
  %138 = load i32, ptr %16, align 8
  %139 = load i32, ptr %116, align 4
  br label %140

140:                                              ; preds = %228, %132
  %141 = phi i32 [ %138, %132 ], [ %207, %228 ]
  %142 = phi i32 [ %138, %132 ], [ %208, %228 ]
  %143 = phi i32 [ %138, %132 ], [ %229, %228 ]
  %144 = phi i32 [ %139, %132 ], [ %209, %228 ]
  %145 = add nsw i32 %144, 1
  %146 = sext i32 %143 to i64
  %147 = getelementptr inbounds ptr, ptr %135, i64 %146
  %148 = load ptr, ptr %147, align 8, !tbaa !59
  %149 = getelementptr inbounds %"class.dealii::internal::Triangulation::TriaLevel", ptr %148, i64 0, i32 4
  %150 = getelementptr inbounds %"class.dealii::internal::Triangulation::TriaLevel", ptr %148, i64 0, i32 4, i32 0, i32 0, i32 0, i32 0, i32 0, i32 1
  %151 = load ptr, ptr %150, align 8, !tbaa !60
  %152 = load ptr, ptr %149, align 8, !tbaa !62
  %153 = ptrtoint ptr %151 to i64
  %154 = ptrtoint ptr %152 to i64
  %155 = sub i64 %153, %154
  %156 = sdiv exact i64 %155, 24
  %157 = trunc i64 %156 to i32
  %158 = icmp slt i32 %145, %157
  br i1 %158, label %206, label %159

159:                                              ; preds = %140
  %160 = add nsw i64 %146, 1
  %161 = trunc i64 %160 to i32
  store i32 %161, ptr %16, align 8, !tbaa !63
  %162 = load ptr, ptr %137, align 8, !tbaa !64
  %163 = ptrtoint ptr %162 to i64
  %164 = sub i64 %163, %136
  %165 = shl i64 %164, 29
  %166 = ashr i64 %165, 32
  %167 = icmp slt i64 %160, %166
  br i1 %167, label %168, label %200

168:                                              ; preds = %159
  %169 = getelementptr inbounds ptr, ptr %135, i64 %160
  %170 = load ptr, ptr %169, align 8, !tbaa !59
  %171 = getelementptr inbounds %"class.dealii::internal::Triangulation::TriaLevel", ptr %170, i64 0, i32 4
  %172 = getelementptr inbounds %"class.dealii::internal::Triangulation::TriaLevel", ptr %170, i64 0, i32 4, i32 0, i32 0, i32 0, i32 0, i32 0, i32 1
  %173 = load ptr, ptr %172, align 8, !tbaa !60
  %174 = load ptr, ptr %171, align 8, !tbaa !62
  %175 = ptrtoint ptr %173 to i64
  %176 = ptrtoint ptr %174 to i64
  %177 = sub i64 %175, %176
  %178 = sdiv exact i64 %177, 24
  %179 = trunc i64 %178 to i32
  %180 = icmp sgt i32 %179, 0
  br i1 %180, label %202, label %194

181:                                              ; preds = %194
  %182 = getelementptr inbounds ptr, ptr %135, i64 %196
  %183 = load ptr, ptr %182, align 8, !tbaa !59
  %184 = getelementptr inbounds %"class.dealii::internal::Triangulation::TriaLevel", ptr %183, i64 0, i32 4
  %185 = getelementptr inbounds %"class.dealii::internal::Triangulation::TriaLevel", ptr %183, i64 0, i32 4, i32 0, i32 0, i32 0, i32 0, i32 0, i32 1
  %186 = load ptr, ptr %185, align 8, !tbaa !60
  %187 = load ptr, ptr %184, align 8, !tbaa !62
  %188 = ptrtoint ptr %186 to i64
  %189 = ptrtoint ptr %187 to i64
  %190 = sub i64 %188, %189
  %191 = sdiv exact i64 %190, 24
  %192 = trunc i64 %191 to i32
  %193 = icmp sgt i32 %192, 0
  br i1 %193, label %201, label %194, !llvm.loop !65

194:                                              ; preds = %168, %181
  %195 = phi i64 [ %196, %181 ], [ %160, %168 ]
  %196 = add i64 %195, 1
  %197 = trunc i64 %196 to i32
  %198 = icmp eq i64 %196, %166
  br i1 %198, label %199, label %181, !llvm.loop !65

199:                                              ; preds = %194
  store i32 %197, ptr %16, align 8, !tbaa !63
  br label %200

200:                                              ; preds = %199, %159
  store i32 -1, ptr %16, align 8, !tbaa !63
  br label %206

201:                                              ; preds = %181
  store i32 %197, ptr %16, align 8, !tbaa !63
  br label %202

202:                                              ; preds = %201, %168
  %203 = phi i32 [ %161, %168 ], [ %197, %201 ]
  %204 = phi i64 [ %160, %168 ], [ %196, %201 ]
  %205 = trunc i64 %204 to i32
  br label %206

206:                                              ; preds = %202, %200, %140
  %207 = phi i32 [ %141, %140 ], [ -1, %200 ], [ %203, %202 ]
  %208 = phi i32 [ %142, %140 ], [ -1, %200 ], [ %205, %202 ]
  %209 = phi i32 [ %145, %140 ], [ -1, %200 ], [ 0, %202 ]
  %210 = phi i32 [ %143, %140 ], [ -1, %200 ], [ %205, %202 ]
  %211 = or i32 %210, %209
  %212 = icmp sgt i32 %211, -1
  br i1 %212, label %213, label %230

213:                                              ; preds = %206
  %214 = zext i32 %210 to i64
  %215 = getelementptr inbounds ptr, ptr %135, i64 %214
  %216 = load ptr, ptr %215, align 8, !tbaa !59
  %217 = getelementptr inbounds %"class.dealii::internal::Triangulation::TriaLevel", ptr %216, i64 0, i32 4, i32 0, i32 3
  %218 = load ptr, ptr %217, align 8, !tbaa !67
  %219 = lshr i32 %209, 6
  %220 = zext i32 %219 to i64
  %221 = getelementptr inbounds i64, ptr %218, i64 %220
  %222 = and i32 %209, 63
  %223 = zext i32 %222 to i64
  %224 = shl nuw i64 1, %223
  %225 = load i64, ptr %221, align 8, !tbaa !69
  %226 = and i64 %225, %224
  %227 = icmp eq i64 %226, 0
  br i1 %227, label %228, label %230

228:                                              ; preds = %213, %233
  %229 = phi i32 [ %210, %213 ], [ %208, %233 ]
  br label %140

230:                                              ; preds = %213, %206
  store i32 %209, ptr %116, align 4, !tbaa !54
  %231 = or i32 %209, %208
  %232 = icmp sgt i32 %231, -1
  br i1 %232, label %233, label %244

233:                                              ; preds = %230
  %234 = zext i32 %208 to i64
  %235 = getelementptr inbounds ptr, ptr %135, i64 %234
  %236 = load ptr, ptr %235, align 8, !tbaa !59
  %237 = getelementptr inbounds %"class.dealii::internal::Triangulation::TriaLevel", ptr %236, i64 0, i32 4, i32 0, i32 1
  %238 = shl i32 %209, 2
  %239 = zext i32 %238 to i64
  %240 = load ptr, ptr %237, align 8, !tbaa !70
  %241 = getelementptr inbounds i32, ptr %240, i64 %239
  %242 = load i32, ptr %241, align 4, !tbaa !72
  %243 = icmp eq i32 %242, -1
  br i1 %243, label %244, label %228

244:                                              ; preds = %230, %233
  %245 = load i32, ptr %117, align 4, !tbaa !54
  %246 = icmp ne i32 %209, %245
  %247 = load i32, ptr %17, align 8
  %248 = icmp ne i32 %207, %247
  %249 = select i1 %246, i1 true, i1 %248
  br i1 %249, label %392, label %394

250:                                              ; preds = %446, %7
  %251 = landingpad { ptr, i32 }
          cleanup
  br label %525

252:                                              ; preds = %59, %32
  %253 = landingpad { ptr, i32 }
          cleanup
  br label %256

254:                                              ; preds = %53
  %255 = landingpad { ptr, i32 }
          cleanup
  call void @llvm.lifetime.end.p0(i64 1, ptr nonnull %11) #18
  invoke void @_ZN6dealii6VectorIdED2Ev(ptr noundef nonnull align 8 dereferenceable(88) %10)
          to label %256 unwind label %533

256:                                              ; preds = %252, %48, %254
  %257 = phi { ptr, i32 } [ %255, %254 ], [ %253, %252 ], [ %49, %48 ]
  call void @llvm.lifetime.end.p0(i64 88, ptr nonnull %10) #18
  br label %516

258:                                              ; preds = %85, %60
  %259 = landingpad { ptr, i32 }
          cleanup
  br label %262

260:                                              ; preds = %79
  %261 = landingpad { ptr, i32 }
          cleanup
  call void @llvm.lifetime.end.p0(i64 1, ptr nonnull %14) #18
  invoke void @_ZN6dealii6VectorIdED2Ev(ptr noundef nonnull align 8 dereferenceable(88) %13)
          to label %262 unwind label %533

262:                                              ; preds = %258, %74, %260
  %263 = phi { ptr, i32 } [ %261, %260 ], [ %259, %258 ], [ %75, %74 ]
  call void @llvm.lifetime.end.p0(i64 88, ptr nonnull %13) #18
  br label %492

264:                                              ; preds = %89
  %265 = landingpad { ptr, i32 }
          cleanup
  br label %468

266:                                              ; preds = %95
  %267 = landingpad { ptr, i32 }
          cleanup
  br label %463

268:                                              ; preds = %102
  %269 = landingpad { ptr, i32 }
          cleanup
  br label %461

270:                                              ; preds = %113, %111, %108
  %271 = landingpad { ptr, i32 }
          cleanup
  br label %459

272:                                              ; preds = %392, %125
  %273 = phi i64 [ 0, %125 ], [ %393, %392 ]
  %274 = load ptr, ptr %126, align 8, !tbaa !56, !noalias !73
  %275 = getelementptr inbounds %"class.dealii::Triangulation", ptr %274, i64 0, i32 1
  %276 = load i32, ptr %16, align 8, !tbaa !63, !noalias !73
  %277 = sext i32 %276 to i64
  %278 = load ptr, ptr %275, align 8, !tbaa !57, !noalias !73
  %279 = getelementptr inbounds ptr, ptr %278, i64 %277
  %280 = load ptr, ptr %279, align 8, !tbaa !59, !noalias !73
  %281 = getelementptr inbounds %"class.dealii::internal::Triangulation::TriaLevel", ptr %280, i64 0, i32 4
  %282 = load i32, ptr %116, align 4, !tbaa !54, !noalias !73
  %283 = sext i32 %282 to i64
  %284 = load ptr, ptr %281, align 8, !tbaa !62, !noalias !73
  %285 = getelementptr inbounds %"class.dealii::internal::Triangulation::TriaObject", ptr %284, i64 %283
  %286 = getelementptr inbounds [6 x i32], ptr %285, i64 0, i64 %273
  %287 = load i32, ptr %286, align 4, !tbaa !72, !noalias !73
  %288 = getelementptr inbounds %"class.dealii::Triangulation", ptr %274, i64 0, i32 2
  %289 = load ptr, ptr %288, align 8, !tbaa !74
  %290 = getelementptr inbounds %"class.dealii::internal::Triangulation::TriaObjects.223", ptr %289, i64 0, i32 5
  %291 = sext i32 %287 to i64
  %292 = load ptr, ptr %290, align 8, !tbaa !102
  %293 = getelementptr inbounds i8, ptr %292, i64 %291
  %294 = load i8, ptr %293, align 1, !tbaa !104
  %295 = icmp eq i8 %294, -1
  %296 = load ptr, ptr %127, align 8
  %297 = icmp eq ptr %296, null
  %298 = select i1 %295, i1 true, i1 %297
  br i1 %298, label %389, label %299

299:                                              ; preds = %272, %299
  %300 = phi ptr [ %309, %299 ], [ %296, %272 ]
  %301 = phi ptr [ %307, %299 ], [ %128, %272 ]
  %302 = getelementptr inbounds %"struct.std::_Rb_tree_node", ptr %300, i64 0, i32 1
  %303 = load i8, ptr %302, align 1, !tbaa !104
  %304 = icmp ult i8 %303, %294
  %305 = getelementptr inbounds %"struct.std::_Rb_tree_node_base", ptr %300, i64 0, i32 3
  %306 = getelementptr inbounds %"struct.std::_Rb_tree_node_base", ptr %300, i64 0, i32 2
  %307 = select i1 %304, ptr %301, ptr %300
  %308 = select i1 %304, ptr %305, ptr %306
  %309 = load ptr, ptr %308, align 8, !tbaa !59
  %310 = icmp eq ptr %309, null
  br i1 %310, label %311, label %299

311:                                              ; preds = %299
  %312 = icmp eq ptr %307, %128
  br i1 %312, label %389, label %313

313:                                              ; preds = %311
  %314 = getelementptr inbounds %"struct.std::_Rb_tree_node", ptr %307, i64 0, i32 1
  %315 = load i8, ptr %314, align 1, !tbaa !104
  %316 = icmp ugt i8 %315, %294
  br i1 %316, label %389, label %317

317:                                              ; preds = %313
  %318 = trunc i64 %273 to i32
  invoke void @_ZN6dealii12FEFaceValuesILi3ELi3EE6reinitERKNS_12TriaIteratorINS_15DoFCellAccessorINS_10DoFHandlerILi3ELi3EEEEEEEj(ptr noundef nonnull align 8 dereferenceable(784) %8, ptr noundef nonnull align 8 dereferenceable(24) %16, i32 noundef %318)
          to label %319 unwind label %330

319:                                              ; preds = %317
  invoke void @_ZNK6dealii12FEValuesBaseILi3ELi3EE19get_function_valuesINS_11BlockVectorIdEEdEEvRKT_RSt6vectorINS_6VectorIT0_EESaISB_EE(ptr noundef nonnull align 8 dereferenceable(648) %8, ptr noundef nonnull align 8 dereferenceable(128) %2, ptr noundef nonnull align 8 dereferenceable(24) %9)
          to label %320 unwind label %330

320:                                              ; preds = %319
  %321 = load ptr, ptr %129, align 8, !tbaa !8
  %322 = load ptr, ptr %321, align 8, !tbaa !5
  %323 = getelementptr inbounds ptr, ptr %322, i64 6
  %324 = load ptr, ptr %323, align 8
  invoke void %324(ptr noundef nonnull align 8 dereferenceable(92) %321, ptr noundef nonnull align 8 dereferenceable(24) %130, ptr noundef nonnull align 8 dereferenceable(24) %15, i32 noundef 0)
          to label %325 unwind label %330

325:                                              ; preds = %320
  call void @llvm.lifetime.start.p0(i64 16, ptr nonnull %18) #18
  call void @llvm.memcpy.p0.p0.i64(ptr noundef nonnull align 8 dereferenceable(16) %18, ptr noundef nonnull align 8 dereferenceable(16) %16, i64 16, i1 false)
  %326 = load ptr, ptr %28, align 8, !tbaa !5
  %327 = getelementptr inbounds ptr, ptr %326, i64 2
  %328 = load ptr, ptr %327, align 8
  invoke void %328(ptr noundef nonnull align 8 dereferenceable(8) %28, ptr noundef nonnull align 8 dereferenceable(16) %18, i32 noundef %318, ptr noundef nonnull align 8 dereferenceable(24) %12)
          to label %329 unwind label %332

329:                                              ; preds = %325
  call void @llvm.lifetime.end.p0(i64 16, ptr nonnull %18) #18
  br i1 %87, label %389, label %334

330:                                              ; preds = %320, %319, %317
  %331 = landingpad { ptr, i32 }
          cleanup
  br label %459

332:                                              ; preds = %325
  %333 = landingpad { ptr, i32 }
          cleanup
  call void @llvm.lifetime.end.p0(i64 16, ptr nonnull %18) #18
  br label %459

334:                                              ; preds = %329, %366
  %335 = phi i64 [ %387, %366 ], [ 0, %329 ]
  %336 = load ptr, ptr %9, align 8, !tbaa !105
  %337 = getelementptr inbounds %"class.dealii::Vector", ptr %336, i64 %335, i32 3
  %338 = load ptr, ptr %337, align 8, !tbaa !43
  %339 = getelementptr inbounds double, ptr %338, i64 2
  %340 = load double, ptr %339, align 8, !tbaa !47
  %341 = getelementptr inbounds double, ptr %338, i64 3
  %342 = load double, ptr %341, align 8, !tbaa !47
  %343 = load ptr, ptr %12, align 8, !tbaa !105
  %344 = getelementptr inbounds %"class.dealii::Vector", ptr %343, i64 %335, i32 3
  %345 = load ptr, ptr %344, align 8, !tbaa !43
  %346 = getelementptr inbounds double, ptr %345, i64 2
  %347 = load double, ptr %346, align 8, !tbaa !47
  %348 = getelementptr inbounds double, ptr %345, i64 3
  %349 = load double, ptr %348, align 8, !tbaa !47
  %350 = fmul double %103, %347
  %351 = fmul double %104, %349
  %352 = fmul double %103, %349
  %353 = fmul double %104, %347
  %354 = fsub double %350, %351
  %355 = fadd double %353, %352
  %356 = fcmp uno double %354, 0.000000e+00
  br i1 %356, label %357, label %366, !prof !107

357:                                              ; preds = %334
  %358 = fcmp uno double %355, 0.000000e+00
  br i1 %358, label %359, label %366, !prof !107

359:                                              ; preds = %357
  %360 = call noundef { double, double } @__muldc3(double noundef %103, double noundef %104, double noundef %347, double noundef %349) #18
  %361 = extractvalue { double, double } %360, 0
  %362 = extractvalue { double, double } %360, 1
  %363 = call noundef { double, double } @__muldc3(double noundef %103, double noundef %104, double noundef %347, double noundef %349) #18
  %364 = extractvalue { double, double } %363, 0
  %365 = extractvalue { double, double } %363, 1
  br label %366

366:                                              ; preds = %357, %334, %359
  %367 = phi double [ %362, %359 ], [ %355, %334 ], [ %355, %357 ]
  %368 = phi double [ %361, %359 ], [ %354, %334 ], [ %354, %357 ]
  %369 = phi double [ %364, %359 ], [ %354, %334 ], [ %354, %357 ]
  %370 = phi double [ %365, %359 ], [ %355, %334 ], [ %355, %357 ]
  %371 = fsub double %340, %368
  %372 = fsub double %342, %367
  %373 = fsub double %340, %369
  %374 = fsub double %342, %370
  %375 = fmul double %372, %374
  %376 = call double @llvm.fmuladd.f64(double %371, double %373, double %375)
  %377 = load ptr, ptr %15, align 8, !tbaa !50
  %378 = getelementptr inbounds double, ptr %377, i64 %335
  %379 = load double, ptr %378, align 8, !tbaa !47
  %380 = load ptr, ptr %131, align 8, !tbaa !50
  %381 = getelementptr inbounds double, ptr %380, i64 %335
  %382 = load double, ptr %381, align 8, !tbaa !47
  %383 = fmul double %376, 5.000000e-01
  %384 = fmul double %379, %383
  %385 = load double, ptr %6, align 8, !tbaa !47
  %386 = call double @llvm.fmuladd.f64(double %384, double %382, double %385)
  store double %386, ptr %6, align 8, !tbaa !47
  %387 = add nuw nsw i64 %335, 1
  %388 = icmp eq i64 %387, %33
  br i1 %388, label %389, label %334

389:                                              ; preds = %366, %329, %311, %272, %313
  %390 = add nuw nsw i64 %273, 1
  %391 = icmp eq i64 %390, 6
  br i1 %391, label %132, label %392

392:                                              ; preds = %389, %244
  %393 = phi i64 [ %390, %389 ], [ 0, %244 ]
  br label %272

394:                                              ; preds = %244, %115
  call void @llvm.lifetime.end.p0(i64 24, ptr nonnull %17) #18
  call void @llvm.lifetime.end.p0(i64 24, ptr nonnull %16) #18
  %395 = load ptr, ptr %15, align 8, !tbaa !50
  %396 = icmp eq ptr %395, null
  br i1 %396, label %398, label %397

397:                                              ; preds = %394
  call void @_ZdlPv(ptr noundef nonnull %395) #20
  br label %398

398:                                              ; preds = %397, %394
  call void @llvm.lifetime.end.p0(i64 24, ptr nonnull %15) #18
  %399 = load ptr, ptr %12, align 8, !tbaa !105
  %400 = getelementptr inbounds %"struct.std::_Vector_base<dealii::Vector<double>, std::allocator<dealii::Vector<double> > >::_Vector_impl_data", ptr %12, i64 0, i32 1
  %401 = load ptr, ptr %400, align 8, !tbaa !108
  %402 = icmp eq ptr %399, %401
  br i1 %402, label %412, label %403

403:                                              ; preds = %398, %407
  %404 = phi ptr [ %408, %407 ], [ %399, %398 ]
  %405 = load ptr, ptr %404, align 8, !tbaa !5
  %406 = load ptr, ptr %405, align 8
  invoke void %406(ptr noundef nonnull align 8 dereferenceable(88) %404)
          to label %407 unwind label %416

407:                                              ; preds = %403
  %408 = getelementptr inbounds %"class.dealii::Vector", ptr %404, i64 1
  %409 = icmp eq ptr %408, %401
  br i1 %409, label %410, label %403

410:                                              ; preds = %407
  %411 = load ptr, ptr %12, align 8, !tbaa !105
  br label %412

412:                                              ; preds = %410, %398
  %413 = phi ptr [ %411, %410 ], [ %399, %398 ]
  %414 = icmp eq ptr %413, null
  br i1 %414, label %421, label %415

415:                                              ; preds = %412
  call void @_ZdlPv(ptr noundef nonnull %413) #20
  br label %421

416:                                              ; preds = %403
  %417 = landingpad { ptr, i32 }
          cleanup
  %418 = load ptr, ptr %12, align 8, !tbaa !105
  %419 = icmp eq ptr %418, null
  br i1 %419, label %492, label %420

420:                                              ; preds = %416
  call void @_ZdlPv(ptr noundef nonnull %418) #20
  br label %492

421:                                              ; preds = %415, %412
  call void @llvm.lifetime.end.p0(i64 24, ptr nonnull %12) #18
  %422 = load ptr, ptr %9, align 8, !tbaa !105
  %423 = getelementptr inbounds %"struct.std::_Vector_base<dealii::Vector<double>, std::allocator<dealii::Vector<double> > >::_Vector_impl_data", ptr %9, i64 0, i32 1
  %424 = load ptr, ptr %423, align 8, !tbaa !108
  %425 = icmp eq ptr %422, %424
  br i1 %425, label %435, label %426

426:                                              ; preds = %421, %430
  %427 = phi ptr [ %431, %430 ], [ %422, %421 ]
  %428 = load ptr, ptr %427, align 8, !tbaa !5
  %429 = load ptr, ptr %428, align 8
  invoke void %429(ptr noundef nonnull align 8 dereferenceable(88) %427)
          to label %430 unwind label %439

430:                                              ; preds = %426
  %431 = getelementptr inbounds %"class.dealii::Vector", ptr %427, i64 1
  %432 = icmp eq ptr %431, %424
  br i1 %432, label %433, label %426

433:                                              ; preds = %430
  %434 = load ptr, ptr %9, align 8, !tbaa !105
  br label %435

435:                                              ; preds = %433, %421
  %436 = phi ptr [ %434, %433 ], [ %422, %421 ]
  %437 = icmp eq ptr %436, null
  br i1 %437, label %444, label %438

438:                                              ; preds = %435
  call void @_ZdlPv(ptr noundef nonnull %436) #20
  br label %444

439:                                              ; preds = %426
  %440 = landingpad { ptr, i32 }
          cleanup
  %441 = load ptr, ptr %9, align 8, !tbaa !105
  %442 = icmp eq ptr %441, null
  br i1 %442, label %516, label %443

443:                                              ; preds = %439
  call void @_ZdlPv(ptr noundef nonnull %441) #20
  br label %516

444:                                              ; preds = %438, %435
  call void @llvm.lifetime.end.p0(i64 24, ptr nonnull %9) #18
  store ptr getelementptr inbounds ({ [4 x ptr] }, ptr @_ZTVN6dealii16FEFaceValuesBaseILi3ELi3EEE, i64 0, inrange i32 0, i64 2), ptr %8, align 8, !tbaa !5
  %445 = getelementptr inbounds %"class.dealii::FEFaceValuesBase", ptr %8, i64 0, i32 2
  invoke void @_ZN6dealii10QuadratureILi2EED1Ev(ptr noundef nonnull align 8 dereferenceable(128) %445)
          to label %446 unwind label %447

446:                                              ; preds = %444
  invoke void @_ZN6dealii12FEValuesBaseILi3ELi3EED2Ev(ptr noundef nonnull align 8 dereferenceable(648) %8)
          to label %452 unwind label %250

447:                                              ; preds = %444
  %448 = landingpad { ptr, i32 }
          cleanup
  invoke void @_ZN6dealii12FEValuesBaseILi3ELi3EED2Ev(ptr noundef nonnull align 8 dereferenceable(648) %8)
          to label %525 unwind label %449

449:                                              ; preds = %447
  %450 = landingpad { ptr, i32 }
          catch ptr null
  %451 = extractvalue { ptr, i32 } %450, 0
  call void @__clang_call_terminate(ptr %451) #17
  unreachable

452:                                              ; preds = %446
  call void @llvm.lifetime.end.p0(i64 784, ptr nonnull %8) #18
  %453 = icmp eq ptr %28, null
  br i1 %453, label %458, label %454

454:                                              ; preds = %452
  %455 = load ptr, ptr %28, align 8, !tbaa !5
  %456 = getelementptr inbounds ptr, ptr %455, i64 1
  %457 = load ptr, ptr %456, align 8
  call void %457(ptr noundef nonnull align 8 dereferenceable(8) %28)
  br label %458

458:                                              ; preds = %452, %454
  ret void

459:                                              ; preds = %330, %332, %270
  %460 = phi { ptr, i32 } [ %271, %270 ], [ %333, %332 ], [ %331, %330 ]
  call void @llvm.lifetime.end.p0(i64 24, ptr nonnull %17) #18
  br label %461

461:                                              ; preds = %459, %268
  %462 = phi { ptr, i32 } [ %460, %459 ], [ %269, %268 ]
  call void @llvm.lifetime.end.p0(i64 24, ptr nonnull %16) #18
  br label %463

463:                                              ; preds = %461, %266
  %464 = phi { ptr, i32 } [ %462, %461 ], [ %267, %266 ]
  %465 = load ptr, ptr %15, align 8, !tbaa !50
  %466 = icmp eq ptr %465, null
  br i1 %466, label %468, label %467

467:                                              ; preds = %463
  call void @_ZdlPv(ptr noundef nonnull %465) #20
  br label %468

468:                                              ; preds = %467, %463, %264
  %469 = phi { ptr, i32 } [ %265, %264 ], [ %464, %463 ], [ %464, %467 ]
  call void @llvm.lifetime.end.p0(i64 24, ptr nonnull %15) #18
  %470 = load ptr, ptr %12, align 8, !tbaa !105
  %471 = getelementptr inbounds %"struct.std::_Vector_base<dealii::Vector<double>, std::allocator<dealii::Vector<double> > >::_Vector_impl_data", ptr %12, i64 0, i32 1
  %472 = load ptr, ptr %471, align 8, !tbaa !108
  %473 = icmp eq ptr %470, %472
  br i1 %473, label %483, label %474

474:                                              ; preds = %468, %478
  %475 = phi ptr [ %479, %478 ], [ %470, %468 ]
  %476 = load ptr, ptr %475, align 8, !tbaa !5
  %477 = load ptr, ptr %476, align 8
  invoke void %477(ptr noundef nonnull align 8 dereferenceable(88) %475)
          to label %478 unwind label %487

478:                                              ; preds = %474
  %479 = getelementptr inbounds %"class.dealii::Vector", ptr %475, i64 1
  %480 = icmp eq ptr %479, %472
  br i1 %480, label %481, label %474

481:                                              ; preds = %478
  %482 = load ptr, ptr %12, align 8, !tbaa !105
  br label %483

483:                                              ; preds = %481, %468
  %484 = phi ptr [ %482, %481 ], [ %470, %468 ]
  %485 = icmp eq ptr %484, null
  br i1 %485, label %492, label %486

486:                                              ; preds = %483
  call void @_ZdlPv(ptr noundef nonnull %484) #20
  br label %492

487:                                              ; preds = %474
  %488 = landingpad { ptr, i32 }
          catch ptr null
  %489 = load ptr, ptr %12, align 8, !tbaa !105
  %490 = icmp eq ptr %489, null
  br i1 %490, label %535, label %491

491:                                              ; preds = %487
  call void @_ZdlPv(ptr noundef nonnull %489) #20
  br label %535

492:                                              ; preds = %420, %416, %486, %483, %262
  %493 = phi { ptr, i32 } [ %263, %262 ], [ %469, %483 ], [ %469, %486 ], [ %417, %420 ], [ %417, %416 ]
  call void @llvm.lifetime.end.p0(i64 24, ptr nonnull %12) #18
  %494 = load ptr, ptr %9, align 8, !tbaa !105
  %495 = getelementptr inbounds %"struct.std::_Vector_base<dealii::Vector<double>, std::allocator<dealii::Vector<double> > >::_Vector_impl_data", ptr %9, i64 0, i32 1
  %496 = load ptr, ptr %495, align 8, !tbaa !108
  %497 = icmp eq ptr %494, %496
  br i1 %497, label %507, label %498

498:                                              ; preds = %492, %502
  %499 = phi ptr [ %503, %502 ], [ %494, %492 ]
  %500 = load ptr, ptr %499, align 8, !tbaa !5
  %501 = load ptr, ptr %500, align 8
  invoke void %501(ptr noundef nonnull align 8 dereferenceable(88) %499)
          to label %502 unwind label %511

502:                                              ; preds = %498
  %503 = getelementptr inbounds %"class.dealii::Vector", ptr %499, i64 1
  %504 = icmp eq ptr %503, %496
  br i1 %504, label %505, label %498

505:                                              ; preds = %502
  %506 = load ptr, ptr %9, align 8, !tbaa !105
  br label %507

507:                                              ; preds = %505, %492
  %508 = phi ptr [ %506, %505 ], [ %494, %492 ]
  %509 = icmp eq ptr %508, null
  br i1 %509, label %516, label %510

510:                                              ; preds = %507
  call void @_ZdlPv(ptr noundef nonnull %508) #20
  br label %516

511:                                              ; preds = %498
  %512 = landingpad { ptr, i32 }
          catch ptr null
  %513 = load ptr, ptr %9, align 8, !tbaa !105
  %514 = icmp eq ptr %513, null
  br i1 %514, label %535, label %515

515:                                              ; preds = %511
  call void @_ZdlPv(ptr noundef nonnull %513) #20
  br label %535

516:                                              ; preds = %443, %439, %510, %507, %256
  %517 = phi { ptr, i32 } [ %257, %256 ], [ %493, %507 ], [ %493, %510 ], [ %440, %443 ], [ %440, %439 ]
  call void @llvm.lifetime.end.p0(i64 24, ptr nonnull %9) #18
  store ptr getelementptr inbounds ({ [4 x ptr] }, ptr @_ZTVN6dealii16FEFaceValuesBaseILi3ELi3EEE, i64 0, inrange i32 0, i64 2), ptr %8, align 8, !tbaa !5
  %518 = getelementptr inbounds %"class.dealii::FEFaceValuesBase", ptr %8, i64 0, i32 2
  invoke void @_ZN6dealii10QuadratureILi2EED1Ev(ptr noundef nonnull align 8 dereferenceable(128) %518)
          to label %519 unwind label %520

519:                                              ; preds = %516
  invoke void @_ZN6dealii12FEValuesBaseILi3ELi3EED2Ev(ptr noundef nonnull align 8 dereferenceable(648) %8)
          to label %525 unwind label %533

520:                                              ; preds = %516
  %521 = landingpad { ptr, i32 }
          catch ptr null
  invoke void @_ZN6dealii12FEValuesBaseILi3ELi3EED2Ev(ptr noundef nonnull align 8 dereferenceable(648) %8)
          to label %535 unwind label %522

522:                                              ; preds = %520
  %523 = landingpad { ptr, i32 }
          catch ptr null
  %524 = extractvalue { ptr, i32 } %523, 0
  call void @__clang_call_terminate(ptr %524) #17
  unreachable

525:                                              ; preds = %519, %447, %250
  %526 = phi { ptr, i32 } [ %251, %250 ], [ %448, %447 ], [ %517, %519 ]
  call void @llvm.lifetime.end.p0(i64 784, ptr nonnull %8) #18
  %527 = icmp eq ptr %28, null
  br i1 %527, label %532, label %528

528:                                              ; preds = %525
  %529 = load ptr, ptr %28, align 8, !tbaa !5
  %530 = getelementptr inbounds ptr, ptr %529, i64 1
  %531 = load ptr, ptr %530, align 8
  invoke void %531(ptr noundef nonnull align 8 dereferenceable(8) %28)
          to label %532 unwind label %533

532:                                              ; preds = %525, %528
  resume { ptr, i32 } %526

533:                                              ; preds = %528, %519, %260, %254
  %534 = landingpad { ptr, i32 }
          catch ptr null
  br label %535

535:                                              ; preds = %515, %511, %520, %533, %487, %491
  %536 = phi { ptr, i32 } [ %488, %491 ], [ %488, %487 ], [ %512, %515 ], [ %512, %511 ], [ %534, %533 ], [ %521, %520 ]
  %537 = extractvalue { ptr, i32 } %536, 0
  call void @__clang_call_terminate(ptr %537) #17
  unreachable
}

; Function Attrs: mustprogress nocallback nofree nosync nounwind willreturn memory(argmem: readwrite)
declare void @llvm.lifetime.start.p0(i64 immarg, ptr nocapture) #3

declare void @_ZN6dealii12FEFaceValuesILi3ELi3EEC1ERKNS_13FiniteElementILi3ELi3EEERKNS_10QuadratureILi2EEENS_11UpdateFlagsE(ptr noundef nonnull align 8 dereferenceable(784), ptr noundef nonnull align 8 dereferenceable(728), ptr noundef nonnull align 8 dereferenceable(128), i32 noundef) unnamed_addr #1

; Function Attrs: sspstrong uwtable
define linkonce_odr dso_local void @_ZNSt6vectorIN6dealii6VectorIdEESaIS2_EEC2EmRKS2_RKS3_(ptr noundef nonnull align 8 dereferenceable(24) %0, i64 noundef %1, ptr noundef nonnull align 8 dereferenceable(88) %2, ptr noundef nonnull align 1 dereferenceable(1) %3) unnamed_addr #0 comdat align 2 personality ptr @__gxx_personality_v0 {
  %5 = icmp ugt i64 %1, 104811045873349725
  br i1 %5, label %6, label %7

6:                                                ; preds = %4
  tail call void @_ZSt20__throw_length_errorPKc(ptr noundef nonnull @.str.14) #21
  unreachable

7:                                                ; preds = %4
  tail call void @llvm.memset.p0.i64(ptr noundef nonnull align 8 dereferenceable(24) %0, i8 0, i64 24, i1 false)
  %8 = icmp eq i64 %1, 0
  br i1 %8, label %9, label %11

9:                                                ; preds = %7
  %10 = getelementptr inbounds %"struct.std::_Vector_base<dealii::Vector<double>, std::allocator<dealii::Vector<double> > >::_Vector_impl_data", ptr %0, i64 0, i32 1
  tail call void @llvm.memset.p0.i64(ptr noundef nonnull align 8 dereferenceable(24) %0, i8 0, i64 24, i1 false)
  br label %47

11:                                               ; preds = %7
  %12 = mul nuw nsw i64 %1, 88
  %13 = tail call noalias noundef nonnull ptr @_Znwm(i64 noundef %12) #19
  store ptr %13, ptr %0, align 8, !tbaa !105
  %14 = getelementptr inbounds %"struct.std::_Vector_base<dealii::Vector<double>, std::allocator<dealii::Vector<double> > >::_Vector_impl_data", ptr %0, i64 0, i32 1
  store ptr %13, ptr %14, align 8, !tbaa !108
  %15 = getelementptr inbounds %"class.dealii::Vector", ptr %13, i64 %1
  %16 = getelementptr inbounds %"struct.std::_Vector_base<dealii::Vector<double>, std::allocator<dealii::Vector<double> > >::_Vector_impl_data", ptr %0, i64 0, i32 2
  store ptr %15, ptr %16, align 8, !tbaa !109
  br label %17

17:                                               ; preds = %11, %20
  %18 = phi ptr [ %22, %20 ], [ %13, %11 ]
  %19 = phi i64 [ %21, %20 ], [ %1, %11 ]
  invoke void @_ZN6dealii6VectorIdEC1ERKS1_(ptr noundef nonnull align 8 dereferenceable(88) %18, ptr noundef nonnull align 8 dereferenceable(88) %2)
          to label %20 unwind label %24

20:                                               ; preds = %17
  %21 = add i64 %19, -1
  %22 = getelementptr inbounds %"class.dealii::Vector", ptr %18, i64 1
  %23 = icmp eq i64 %21, 0
  br i1 %23, label %47, label %17

24:                                               ; preds = %17
  %25 = landingpad { ptr, i32 }
          catch ptr null
  %26 = extractvalue { ptr, i32 } %25, 0
  %27 = tail call ptr @__cxa_begin_catch(ptr %26) #18
  %28 = icmp eq ptr %18, %13
  br i1 %28, label %36, label %29

29:                                               ; preds = %24, %33
  %30 = phi ptr [ %34, %33 ], [ %13, %24 ]
  %31 = load ptr, ptr %30, align 8, !tbaa !5
  %32 = load ptr, ptr %31, align 8
  invoke void %32(ptr noundef nonnull align 8 dereferenceable(88) %30)
          to label %33 unwind label %37

33:                                               ; preds = %29
  %34 = getelementptr inbounds %"class.dealii::Vector", ptr %30, i64 1
  %35 = icmp eq ptr %34, %18
  br i1 %35, label %36, label %29

36:                                               ; preds = %33, %24
  invoke void @__cxa_rethrow() #21
          to label %46 unwind label %39

37:                                               ; preds = %29
  %38 = landingpad { ptr, i32 }
          cleanup
  br label %41

39:                                               ; preds = %36
  %40 = landingpad { ptr, i32 }
          cleanup
  br label %41

41:                                               ; preds = %39, %37
  %42 = phi { ptr, i32 } [ %38, %37 ], [ %40, %39 ]
  invoke void @__cxa_end_catch()
          to label %50 unwind label %43

43:                                               ; preds = %41
  %44 = landingpad { ptr, i32 }
          catch ptr null
  %45 = extractvalue { ptr, i32 } %44, 0
  tail call void @__clang_call_terminate(ptr %45) #17
  unreachable

46:                                               ; preds = %36
  unreachable

47:                                               ; preds = %20, %9
  %48 = phi ptr [ %10, %9 ], [ %14, %20 ]
  %49 = phi ptr [ null, %9 ], [ %22, %20 ]
  store ptr %49, ptr %48, align 8, !tbaa !108
  ret void

50:                                               ; preds = %41
  %51 = load ptr, ptr %0, align 8, !tbaa !105
  %52 = icmp eq ptr %51, null
  br i1 %52, label %54, label %53

53:                                               ; preds = %50
  tail call void @_ZdlPv(ptr noundef nonnull %51) #20
  br label %54

54:                                               ; preds = %53, %50
  resume { ptr, i32 } %42
}

; Function Attrs: mustprogress nocallback nofree nosync nounwind willreturn memory(argmem: readwrite)
declare void @llvm.lifetime.end.p0(i64 immarg, ptr nocapture) #3

; Function Attrs: inlinehint sspstrong uwtable
define linkonce_odr dso_local void @_ZN6dealii6VectorIdED2Ev(ptr noundef nonnull align 8 dereferenceable(88) %0) unnamed_addr #4 comdat align 2 {
  store ptr getelementptr inbounds ({ [6 x ptr] }, ptr @_ZTVN6dealii6VectorIdEE, i64 0, inrange i32 0, i64 2), ptr %0, align 8, !tbaa !5
  %2 = getelementptr inbounds %"class.dealii::Vector", ptr %0, i64 0, i32 3
  %3 = load ptr, ptr %2, align 8, !tbaa !43
  %4 = icmp eq ptr %3, null
  br i1 %4, label %6, label %5

5:                                                ; preds = %1
  tail call void @_ZdaPv(ptr noundef nonnull %3) #20
  store ptr null, ptr %2, align 8, !tbaa !43
  br label %6

6:                                                ; preds = %5, %1
  tail call void @_ZN6dealii11SubscriptorD2Ev(ptr noundef nonnull align 8 dereferenceable(72) %0)
  ret void
}

declare void @_ZNK6dealii10DoFHandlerILi3ELi3EE12begin_activeEj(ptr sret(%"class.dealii::TriaActiveIterator") align 8, ptr noundef nonnull align 8 dereferenceable(168), i32 noundef) local_unnamed_addr #1

declare void @_ZN6dealii12FEFaceValuesILi3ELi3EE6reinitERKNS_12TriaIteratorINS_15DoFCellAccessorINS_10DoFHandlerILi3ELi3EEEEEEEj(ptr noundef nonnull align 8 dereferenceable(784), ptr noundef nonnull align 8 dereferenceable(24), i32 noundef) local_unnamed_addr #1

declare void @_ZNK6dealii12FEValuesBaseILi3ELi3EE19get_function_valuesINS_11BlockVectorIdEEdEEvRKT_RSt6vectorINS_6VectorIT0_EESaISB_EE(ptr noundef nonnull align 8 dereferenceable(648), ptr noundef nonnull align 8 dereferenceable(128), ptr noundef nonnull align 8 dereferenceable(24)) local_unnamed_addr #1

; Function Attrs: mustprogress nocallback nofree nosync nounwind speculatable willreturn memory(none)
declare double @llvm.fmuladd.f64(double, double, double) #5

; Function Attrs: sspstrong uwtable
define linkonce_odr dso_local void @_ZNSt6vectorIN6dealii6VectorIdEESaIS2_EED2Ev(ptr noundef nonnull align 8 dereferenceable(24) %0) unnamed_addr #0 comdat align 2 personality ptr @__gxx_personality_v0 {
  %2 = load ptr, ptr %0, align 8, !tbaa !105
  %3 = getelementptr inbounds %"struct.std::_Vector_base<dealii::Vector<double>, std::allocator<dealii::Vector<double> > >::_Vector_impl_data", ptr %0, i64 0, i32 1
  %4 = load ptr, ptr %3, align 8, !tbaa !108
  %5 = icmp eq ptr %2, %4
  br i1 %5, label %15, label %6

6:                                                ; preds = %1, %10
  %7 = phi ptr [ %11, %10 ], [ %2, %1 ]
  %8 = load ptr, ptr %7, align 8, !tbaa !5
  %9 = load ptr, ptr %8, align 8
  invoke void %9(ptr noundef nonnull align 8 dereferenceable(88) %7)
          to label %10 unwind label %20

10:                                               ; preds = %6
  %11 = getelementptr inbounds %"class.dealii::Vector", ptr %7, i64 1
  %12 = icmp eq ptr %11, %4
  br i1 %12, label %13, label %6

13:                                               ; preds = %10
  %14 = load ptr, ptr %0, align 8, !tbaa !105
  br label %15

15:                                               ; preds = %13, %1
  %16 = phi ptr [ %14, %13 ], [ %2, %1 ]
  %17 = icmp eq ptr %16, null
  br i1 %17, label %19, label %18

18:                                               ; preds = %15
  tail call void @_ZdlPv(ptr noundef nonnull %16) #20
  br label %19

19:                                               ; preds = %15, %18
  ret void

20:                                               ; preds = %6
  %21 = landingpad { ptr, i32 }
          cleanup
  %22 = load ptr, ptr %0, align 8, !tbaa !105
  %23 = icmp eq ptr %22, null
  br i1 %23, label %25, label %24

24:                                               ; preds = %20
  tail call void @_ZdlPv(ptr noundef nonnull %22) #20
  br label %25

25:                                               ; preds = %24, %20
  resume { ptr, i32 } %21
}

; Function Attrs: sspstrong uwtable
define weak_odr dso_local void @_ZNK12METomography12Measurements35ScaledWeightedDirichletMeasurements4BaseILi3EdE24build_rhs_contribution_1ERKN9libparest5Slave10Stationary14Discretization4BaseILi3EEERKN6dealii11BlockVectorIdEERKNS6_17MeasurementGetter9Factories4BaseILi3EEERSE_jjRNSC_7Threads16DummyThreadMutexE(ptr noundef nonnull align 8 dereferenceable(152) %0, ptr noundef nonnull align 8 dereferenceable(96) %1, ptr noundef nonnull align 8 dereferenceable(128) %2, ptr noundef nonnull align 8 dereferenceable(8) %3, ptr noundef nonnull align 8 dereferenceable(128) %4, i32 noundef %5, i32 noundef %6, ptr noundef nonnull align 1 dereferenceable(1) %7) unnamed_addr #0 comdat align 2 personality ptr @__gxx_personality_v0 {
  %9 = alloca %"class.dealii::FEFaceValues", align 8
  %10 = alloca %"class.std::vector.114", align 8
  %11 = alloca %"class.dealii::Vector", align 8
  %12 = alloca %"class.std::allocator.116", align 1
  %13 = alloca %"class.std::vector.114", align 8
  %14 = alloca %"class.dealii::Vector", align 8
  %15 = alloca %"class.std::allocator.116", align 1
  %16 = alloca %"class.dealii::Vector", align 8
  %17 = alloca %"class.std::vector.27", align 8
  %18 = alloca %"class.dealii::TriaActiveIterator", align 8
  %19 = alloca %"class.dealii::TriaActiveIterator", align 8
  %20 = alloca %"class.dealii::TriaActiveIterator.159", align 8
  %21 = getelementptr inbounds %"class.libparest::Slave::Stationary::Discretization::Base", ptr %1, i64 0, i32 2
  %22 = load ptr, ptr %21, align 8, !tbaa !13
  %23 = getelementptr inbounds %"class.libparest::Slave::Stationary::Discretization::FiniteElements", ptr %22, i64 0, i32 1
  %24 = load ptr, ptr %23, align 8, !tbaa !38
  %25 = getelementptr inbounds i8, ptr %24, i64 112
  %26 = load i32, ptr %25, align 8, !tbaa !110
  %27 = getelementptr inbounds %"class.libparest::Slave::Stationary::Discretization::FiniteElements", ptr %22, i64 0, i32 5
  %28 = load ptr, ptr %27, align 8, !tbaa !26
  %29 = getelementptr inbounds %"class.dealii::Quadrature", ptr %28, i64 0, i32 1
  %30 = load i32, ptr %29, align 8, !tbaa !28
  %31 = load ptr, ptr %3, align 8, !tbaa !5
  %32 = getelementptr inbounds ptr, ptr %31, i64 3
  %33 = load ptr, ptr %32, align 8
  %34 = tail call noundef ptr %33(ptr noundef nonnull align 8 dereferenceable(8) %3, ptr noundef nonnull align 8 dereferenceable(128) %28, i32 noundef 0)
  call void @llvm.lifetime.start.p0(i64 784, ptr nonnull %9) #18
  %35 = load ptr, ptr %21, align 8, !tbaa !13
  %36 = getelementptr inbounds %"class.libparest::Slave::Stationary::Discretization::FiniteElements", ptr %35, i64 0, i32 5
  %37 = load ptr, ptr %36, align 8, !tbaa !26
  invoke void @_ZN6dealii12FEFaceValuesILi3ELi3EEC1ERKNS_13FiniteElementILi3ELi3EEERKNS_10QuadratureILi2EEENS_11UpdateFlagsE(ptr noundef nonnull align 8 dereferenceable(784) %9, ptr noundef nonnull align 8 dereferenceable(728) %24, ptr noundef nonnull align 8 dereferenceable(128) %37, i32 noundef 49)
          to label %38 unwind label %289

38:                                               ; preds = %8
  %39 = zext i32 %26 to i64
  %40 = icmp eq i32 %26, 0
  br i1 %40, label %45, label %41

41:                                               ; preds = %38
  %42 = shl nuw nsw i64 %39, 2
  %43 = invoke noalias noundef nonnull ptr @_Znwm(i64 noundef %42) #19
          to label %44 unwind label %291

44:                                               ; preds = %41
  call void @llvm.memset.p0.i64(ptr nonnull align 4 %43, i8 0, i64 %42, i1 false), !tbaa !72
  br label %45

45:                                               ; preds = %44, %38
  %46 = phi ptr [ null, %38 ], [ %43, %44 ]
  call void @llvm.lifetime.start.p0(i64 24, ptr nonnull %10) #18
  %47 = zext i32 %30 to i64
  call void @llvm.lifetime.start.p0(i64 88, ptr nonnull %11) #18
  %48 = getelementptr inbounds %"class.libparest::Slave::Stationary::Measurements::Base", ptr %0, i64 0, i32 1
  %49 = load ptr, ptr %48, align 8, !tbaa !39
  %50 = getelementptr inbounds %"class.libparest::Slave::Stationary::ProblemDescription", ptr %49, i64 0, i32 4
  %51 = load i32, ptr %50, align 4, !tbaa !41
  invoke void @_ZN6dealii11SubscriptorC2Ev(ptr noundef nonnull align 8 dereferenceable(72) %11)
          to label %52 unwind label %293

52:                                               ; preds = %45
  store ptr getelementptr inbounds ({ [6 x ptr] }, ptr @_ZTVN6dealii6VectorIdEE, i64 0, inrange i32 0, i64 2), ptr %11, align 8, !tbaa !5
  %53 = getelementptr inbounds %"class.dealii::Vector", ptr %11, i64 0, i32 1
  call void @llvm.memset.p0.i64(ptr noundef nonnull align 8 dereferenceable(16) %53, i8 0, i64 16, i1 false)
  %54 = icmp eq i32 %51, 0
  br i1 %54, label %67, label %55

55:                                               ; preds = %52
  %56 = zext i32 %51 to i64
  %57 = shl nuw nsw i64 %56, 3
  %58 = invoke noalias noundef nonnull ptr @_Znam(i64 noundef %57) #19
          to label %59 unwind label %62

59:                                               ; preds = %55
  %60 = getelementptr inbounds %"class.dealii::Vector", ptr %11, i64 0, i32 3
  %61 = getelementptr inbounds %"class.dealii::Vector", ptr %11, i64 0, i32 2
  store ptr %58, ptr %60, align 8, !tbaa !43
  store i32 %51, ptr %61, align 4, !tbaa !45
  store i32 %51, ptr %53, align 8, !tbaa !46
  call void @llvm.memset.p0.i64(ptr nonnull align 8 %58, i8 0, i64 %57, i1 false), !tbaa !47
  br label %67

62:                                               ; preds = %55
  %63 = landingpad { ptr, i32 }
          cleanup
  invoke void @_ZN6dealii11SubscriptorD2Ev(ptr noundef nonnull align 8 dereferenceable(72) %11)
          to label %297 unwind label %64

64:                                               ; preds = %62
  %65 = landingpad { ptr, i32 }
          catch ptr null
  %66 = extractvalue { ptr, i32 } %65, 0
  call void @__clang_call_terminate(ptr %66) #17
  unreachable

67:                                               ; preds = %59, %52
  call void @llvm.lifetime.start.p0(i64 1, ptr nonnull %12) #18
  invoke void @_ZNSt6vectorIN6dealii6VectorIdEESaIS2_EEC2EmRKS2_RKS3_(ptr noundef nonnull align 8 dereferenceable(24) %10, i64 noundef %47, ptr noundef nonnull align 8 dereferenceable(88) %11, ptr noundef nonnull align 1 dereferenceable(1) %12)
          to label %68 unwind label %295

68:                                               ; preds = %67
  call void @llvm.lifetime.end.p0(i64 1, ptr nonnull %12) #18
  store ptr getelementptr inbounds ({ [6 x ptr] }, ptr @_ZTVN6dealii6VectorIdEE, i64 0, inrange i32 0, i64 2), ptr %11, align 8, !tbaa !5
  %69 = getelementptr inbounds %"class.dealii::Vector", ptr %11, i64 0, i32 3
  %70 = load ptr, ptr %69, align 8, !tbaa !43
  %71 = icmp eq ptr %70, null
  br i1 %71, label %73, label %72

72:                                               ; preds = %68
  call void @_ZdaPv(ptr noundef nonnull %70) #20
  store ptr null, ptr %69, align 8, !tbaa !43
  br label %73

73:                                               ; preds = %72, %68
  invoke void @_ZN6dealii11SubscriptorD2Ev(ptr noundef nonnull align 8 dereferenceable(72) %11)
          to label %74 unwind label %293

74:                                               ; preds = %73
  call void @llvm.lifetime.end.p0(i64 88, ptr nonnull %11) #18
  call void @llvm.lifetime.start.p0(i64 24, ptr nonnull %13) #18
  call void @llvm.lifetime.start.p0(i64 88, ptr nonnull %14) #18
  %75 = load ptr, ptr %48, align 8, !tbaa !39
  %76 = getelementptr inbounds %"class.libparest::Slave::Stationary::ProblemDescription", ptr %75, i64 0, i32 1
  %77 = load i32, ptr %76, align 8, !tbaa !49
  invoke void @_ZN6dealii11SubscriptorC2Ev(ptr noundef nonnull align 8 dereferenceable(72) %14)
          to label %78 unwind label %299

78:                                               ; preds = %74
  store ptr getelementptr inbounds ({ [6 x ptr] }, ptr @_ZTVN6dealii6VectorIdEE, i64 0, inrange i32 0, i64 2), ptr %14, align 8, !tbaa !5
  %79 = getelementptr inbounds %"class.dealii::Vector", ptr %14, i64 0, i32 1
  call void @llvm.memset.p0.i64(ptr noundef nonnull align 8 dereferenceable(16) %79, i8 0, i64 16, i1 false)
  %80 = icmp eq i32 %77, 0
  br i1 %80, label %93, label %81

81:                                               ; preds = %78
  %82 = zext i32 %77 to i64
  %83 = shl nuw nsw i64 %82, 3
  %84 = invoke noalias noundef nonnull ptr @_Znam(i64 noundef %83) #19
          to label %85 unwind label %88

85:                                               ; preds = %81
  %86 = getelementptr inbounds %"class.dealii::Vector", ptr %14, i64 0, i32 3
  %87 = getelementptr inbounds %"class.dealii::Vector", ptr %14, i64 0, i32 2
  store ptr %84, ptr %86, align 8, !tbaa !43
  store i32 %77, ptr %87, align 4, !tbaa !45
  store i32 %77, ptr %79, align 8, !tbaa !46
  call void @llvm.memset.p0.i64(ptr nonnull align 8 %84, i8 0, i64 %83, i1 false), !tbaa !47
  br label %93

88:                                               ; preds = %81
  %89 = landingpad { ptr, i32 }
          cleanup
  invoke void @_ZN6dealii11SubscriptorD2Ev(ptr noundef nonnull align 8 dereferenceable(72) %14)
          to label %303 unwind label %90

90:                                               ; preds = %88
  %91 = landingpad { ptr, i32 }
          catch ptr null
  %92 = extractvalue { ptr, i32 } %91, 0
  call void @__clang_call_terminate(ptr %92) #17
  unreachable

93:                                               ; preds = %85, %78
  call void @llvm.lifetime.start.p0(i64 1, ptr nonnull %15) #18
  invoke void @_ZNSt6vectorIN6dealii6VectorIdEESaIS2_EEC2EmRKS2_RKS3_(ptr noundef nonnull align 8 dereferenceable(24) %13, i64 noundef %47, ptr noundef nonnull align 8 dereferenceable(88) %14, ptr noundef nonnull align 1 dereferenceable(1) %15)
          to label %94 unwind label %301

94:                                               ; preds = %93
  call void @llvm.lifetime.end.p0(i64 1, ptr nonnull %15) #18
  store ptr getelementptr inbounds ({ [6 x ptr] }, ptr @_ZTVN6dealii6VectorIdEE, i64 0, inrange i32 0, i64 2), ptr %14, align 8, !tbaa !5
  %95 = getelementptr inbounds %"class.dealii::Vector", ptr %14, i64 0, i32 3
  %96 = load ptr, ptr %95, align 8, !tbaa !43
  %97 = icmp eq ptr %96, null
  br i1 %97, label %99, label %98

98:                                               ; preds = %94
  call void @_ZdaPv(ptr noundef nonnull %96) #20
  store ptr null, ptr %95, align 8, !tbaa !43
  br label %99

99:                                               ; preds = %98, %94
  invoke void @_ZN6dealii11SubscriptorD2Ev(ptr noundef nonnull align 8 dereferenceable(72) %14)
          to label %100 unwind label %299

100:                                              ; preds = %99
  call void @llvm.lifetime.end.p0(i64 88, ptr nonnull %14) #18
  call void @llvm.lifetime.start.p0(i64 88, ptr nonnull %16) #18
  invoke void @_ZN6dealii11SubscriptorC2Ev(ptr noundef nonnull align 8 dereferenceable(72) %16)
          to label %101 unwind label %305

101:                                              ; preds = %100
  store ptr getelementptr inbounds ({ [6 x ptr] }, ptr @_ZTVN6dealii6VectorIdEE, i64 0, inrange i32 0, i64 2), ptr %16, align 8, !tbaa !5
  %102 = getelementptr inbounds %"class.dealii::Vector", ptr %16, i64 0, i32 1
  call void @llvm.memset.p0.i64(ptr noundef nonnull align 8 dereferenceable(16) %102, i8 0, i64 16, i1 false)
  br i1 %40, label %114, label %103

103:                                              ; preds = %101
  %104 = shl nuw nsw i64 %39, 3
  %105 = invoke noalias noundef nonnull ptr @_Znam(i64 noundef %104) #19
          to label %106 unwind label %109

106:                                              ; preds = %103
  %107 = getelementptr inbounds %"class.dealii::Vector", ptr %16, i64 0, i32 3
  %108 = getelementptr inbounds %"class.dealii::Vector", ptr %16, i64 0, i32 2
  store ptr %105, ptr %107, align 8, !tbaa !43
  store i32 %26, ptr %108, align 4, !tbaa !45
  store i32 %26, ptr %102, align 8, !tbaa !46
  call void @llvm.memset.p0.i64(ptr nonnull align 8 %105, i8 0, i64 %104, i1 false), !tbaa !47
  br label %114

109:                                              ; preds = %103
  %110 = landingpad { ptr, i32 }
          cleanup
  invoke void @_ZN6dealii11SubscriptorD2Ev(ptr noundef nonnull align 8 dereferenceable(72) %16)
          to label %739 unwind label %111

111:                                              ; preds = %109
  %112 = landingpad { ptr, i32 }
          catch ptr null
  %113 = extractvalue { ptr, i32 } %112, 0
  call void @__clang_call_terminate(ptr %113) #17
  unreachable

114:                                              ; preds = %106, %101
  call void @llvm.lifetime.start.p0(i64 24, ptr nonnull %17) #18
  %115 = icmp eq i32 %30, 0
  br i1 %115, label %116, label %117

116:                                              ; preds = %114
  call void @llvm.memset.p0.i64(ptr noundef nonnull align 8 dereferenceable(24) %17, i8 0, i64 24, i1 false)
  br label %123

117:                                              ; preds = %114
  %118 = shl nuw nsw i64 %47, 3
  %119 = invoke noalias noundef nonnull ptr @_Znwm(i64 noundef %118) #19
          to label %120 unwind label %307

120:                                              ; preds = %117
  store ptr %119, ptr %17, align 8, !tbaa !50
  %121 = getelementptr inbounds double, ptr %119, i64 %47
  %122 = getelementptr inbounds %"struct.std::_Vector_base<double, std::allocator<double> >::_Vector_impl_data", ptr %17, i64 0, i32 2
  store ptr %121, ptr %122, align 8, !tbaa !51
  call void @llvm.memset.p0.i64(ptr nonnull align 8 %119, i8 0, i64 %118, i1 false), !tbaa !47
  br label %123

123:                                              ; preds = %120, %116
  %124 = phi ptr [ null, %116 ], [ %121, %120 ]
  %125 = getelementptr inbounds %"struct.std::_Vector_base<double, std::allocator<double> >::_Vector_impl_data", ptr %17, i64 0, i32 1
  store ptr %124, ptr %125, align 8, !tbaa !52
  %126 = load ptr, ptr %0, align 8, !tbaa !5
  %127 = getelementptr inbounds ptr, ptr %126, i64 11
  %128 = load ptr, ptr %127, align 8
  %129 = invoke { double, double } %128(ptr noundef nonnull align 8 dereferenceable(152) %0, ptr noundef nonnull align 8 dereferenceable(96) %1, ptr noundef nonnull align 8 dereferenceable(128) %2, ptr noundef nonnull align 8 dereferenceable(8) %3)
          to label %130 unwind label %309

130:                                              ; preds = %123
  %131 = extractvalue { double, double } %129, 0
  %132 = extractvalue { double, double } %129, 1
  call void @llvm.lifetime.start.p0(i64 24, ptr nonnull %18) #18
  %133 = getelementptr inbounds %"class.libparest::Slave::Stationary::Discretization::Base", ptr %1, i64 0, i32 3
  %134 = load ptr, ptr %133, align 8, !tbaa !53
  %135 = getelementptr inbounds %"class.libparest::Slave::Stationary::Discretization::DoFHandlers", ptr %134, i64 0, i32 1
  invoke void @_ZNK6dealii10DoFHandlerILi3ELi3EE12begin_activeEj(ptr nonnull sret(%"class.dealii::TriaActiveIterator") align 8 %18, ptr noundef nonnull align 8 dereferenceable(168) %135, i32 noundef 0)
          to label %136 unwind label %311

136:                                              ; preds = %130
  call void @llvm.lifetime.start.p0(i64 24, ptr nonnull %19) #18
  %137 = load ptr, ptr %133, align 8, !tbaa !53
  %138 = getelementptr inbounds %"class.libparest::Slave::Stationary::Discretization::DoFHandlers", ptr %137, i64 0, i32 1
  invoke void @_ZNK6dealii10DoFHandlerILi3ELi3EE12begin_activeEj(ptr nonnull sret(%"class.dealii::TriaActiveIterator") align 8 %19, ptr noundef nonnull align 8 dereferenceable(168) %138, i32 noundef 0)
          to label %139 unwind label %313

139:                                              ; preds = %136
  %140 = sext i32 %5 to i64
  invoke void @_ZSt9__advanceIN6dealii18TriaActiveIteratorINS0_15DoFCellAccessorINS0_10DoFHandlerILi3ELi3EEEEEEElEvRT_T0_St26bidirectional_iterator_tag(ptr noundef nonnull align 8 dereferenceable(24) %18, i64 noundef %140)
          to label %141 unwind label %313

141:                                              ; preds = %139
  %142 = sext i32 %6 to i64
  invoke void @_ZSt9__advanceIN6dealii18TriaActiveIteratorINS0_15DoFCellAccessorINS0_10DoFHandlerILi3ELi3EEEEEEElEvRT_T0_St26bidirectional_iterator_tag(ptr noundef nonnull align 8 dereferenceable(24) %19, i64 noundef %142)
          to label %143 unwind label %313

143:                                              ; preds = %141
  %144 = getelementptr inbounds %"class.dealii::TriaAccessorBase", ptr %18, i64 0, i32 1
  %145 = getelementptr inbounds %"class.dealii::TriaAccessorBase", ptr %19, i64 0, i32 1
  %146 = load i32, ptr %144, align 4, !tbaa !54
  %147 = load i32, ptr %145, align 4, !tbaa !54
  %148 = icmp ne i32 %146, %147
  %149 = load i32, ptr %18, align 8
  %150 = load i32, ptr %19, align 8
  %151 = icmp ne i32 %149, %150
  %152 = select i1 %148, i1 true, i1 %151
  br i1 %152, label %153, label %649

153:                                              ; preds = %143
  %154 = getelementptr inbounds %"class.dealii::TriaAccessorBase", ptr %18, i64 0, i32 2
  %155 = getelementptr inbounds %"class.dealii::DoFAccessor", ptr %18, i64 0, i32 1
  %156 = getelementptr inbounds i8, ptr %0, i64 104
  %157 = getelementptr inbounds i8, ptr %0, i64 96
  %158 = getelementptr inbounds %"class.dealii::Vector", ptr %16, i64 0, i32 3
  %159 = getelementptr inbounds %"class.METomography::Measurements::ScaledWeightedDirichletMeasurements::Base", ptr %0, i64 0, i32 2
  %160 = getelementptr inbounds i8, ptr %9, i64 312
  %161 = getelementptr inbounds %"class.dealii::FEValuesBase", ptr %9, i64 0, i32 2
  %162 = getelementptr inbounds %"class.dealii::FiniteElement", ptr %24, i64 0, i32 12
  %163 = getelementptr inbounds %"class.dealii::FEValuesBase", ptr %9, i64 0, i32 6
  %164 = getelementptr inbounds i8, ptr %9, i64 480
  %165 = getelementptr inbounds i8, ptr %9, i64 144
  %166 = getelementptr inbounds i8, ptr %9, i64 160
  %167 = getelementptr inbounds i8, ptr %9, i64 216
  %168 = getelementptr inbounds %"class.dealii::BlockVectorBase", ptr %4, i64 0, i32 2
  %169 = getelementptr inbounds %"class.dealii::BlockVectorBase", ptr %4, i64 0, i32 2, i32 1
  %170 = getelementptr inbounds %"class.dealii::BlockVectorBase", ptr %4, i64 0, i32 1
  br label %315

171:                                              ; preds = %644
  %172 = load ptr, ptr %154, align 8, !tbaa !56
  %173 = getelementptr inbounds %"class.dealii::Triangulation", ptr %172, i64 0, i32 1
  %174 = load ptr, ptr %173, align 8, !tbaa !57
  %175 = ptrtoint ptr %174 to i64
  %176 = getelementptr inbounds %"class.dealii::Triangulation", ptr %172, i64 0, i32 1, i32 0, i32 0, i32 0, i32 1
  %177 = load i32, ptr %18, align 8
  %178 = load i32, ptr %144, align 4
  br label %179

179:                                              ; preds = %267, %171
  %180 = phi i32 [ %177, %171 ], [ %246, %267 ]
  %181 = phi i32 [ %177, %171 ], [ %247, %267 ]
  %182 = phi i32 [ %177, %171 ], [ %268, %267 ]
  %183 = phi i32 [ %178, %171 ], [ %248, %267 ]
  %184 = add nsw i32 %183, 1
  %185 = sext i32 %182 to i64
  %186 = getelementptr inbounds ptr, ptr %174, i64 %185
  %187 = load ptr, ptr %186, align 8, !tbaa !59
  %188 = getelementptr inbounds %"class.dealii::internal::Triangulation::TriaLevel", ptr %187, i64 0, i32 4
  %189 = getelementptr inbounds %"class.dealii::internal::Triangulation::TriaLevel", ptr %187, i64 0, i32 4, i32 0, i32 0, i32 0, i32 0, i32 0, i32 1
  %190 = load ptr, ptr %189, align 8, !tbaa !60
  %191 = load ptr, ptr %188, align 8, !tbaa !62
  %192 = ptrtoint ptr %190 to i64
  %193 = ptrtoint ptr %191 to i64
  %194 = sub i64 %192, %193
  %195 = sdiv exact i64 %194, 24
  %196 = trunc i64 %195 to i32
  %197 = icmp slt i32 %184, %196
  br i1 %197, label %245, label %198

198:                                              ; preds = %179
  %199 = add nsw i64 %185, 1
  %200 = trunc i64 %199 to i32
  store i32 %200, ptr %18, align 8, !tbaa !63
  %201 = load ptr, ptr %176, align 8, !tbaa !64
  %202 = ptrtoint ptr %201 to i64
  %203 = sub i64 %202, %175
  %204 = shl i64 %203, 29
  %205 = ashr i64 %204, 32
  %206 = icmp slt i64 %199, %205
  br i1 %206, label %207, label %239

207:                                              ; preds = %198
  %208 = getelementptr inbounds ptr, ptr %174, i64 %199
  %209 = load ptr, ptr %208, align 8, !tbaa !59
  %210 = getelementptr inbounds %"class.dealii::internal::Triangulation::TriaLevel", ptr %209, i64 0, i32 4
  %211 = getelementptr inbounds %"class.dealii::internal::Triangulation::TriaLevel", ptr %209, i64 0, i32 4, i32 0, i32 0, i32 0, i32 0, i32 0, i32 1
  %212 = load ptr, ptr %211, align 8, !tbaa !60
  %213 = load ptr, ptr %210, align 8, !tbaa !62
  %214 = ptrtoint ptr %212 to i64
  %215 = ptrtoint ptr %213 to i64
  %216 = sub i64 %214, %215
  %217 = sdiv exact i64 %216, 24
  %218 = trunc i64 %217 to i32
  %219 = icmp sgt i32 %218, 0
  br i1 %219, label %241, label %233

220:                                              ; preds = %233
  %221 = getelementptr inbounds ptr, ptr %174, i64 %235
  %222 = load ptr, ptr %221, align 8, !tbaa !59
  %223 = getelementptr inbounds %"class.dealii::internal::Triangulation::TriaLevel", ptr %222, i64 0, i32 4
  %224 = getelementptr inbounds %"class.dealii::internal::Triangulation::TriaLevel", ptr %222, i64 0, i32 4, i32 0, i32 0, i32 0, i32 0, i32 0, i32 1
  %225 = load ptr, ptr %224, align 8, !tbaa !60
  %226 = load ptr, ptr %223, align 8, !tbaa !62
  %227 = ptrtoint ptr %225 to i64
  %228 = ptrtoint ptr %226 to i64
  %229 = sub i64 %227, %228
  %230 = sdiv exact i64 %229, 24
  %231 = trunc i64 %230 to i32
  %232 = icmp sgt i32 %231, 0
  br i1 %232, label %240, label %233, !llvm.loop !65

233:                                              ; preds = %207, %220
  %234 = phi i64 [ %235, %220 ], [ %199, %207 ]
  %235 = add i64 %234, 1
  %236 = trunc i64 %235 to i32
  %237 = icmp eq i64 %235, %205
  br i1 %237, label %238, label %220, !llvm.loop !65

238:                                              ; preds = %233
  store i32 %236, ptr %18, align 8, !tbaa !63
  br label %239

239:                                              ; preds = %238, %198
  store i32 -1, ptr %18, align 8, !tbaa !63
  br label %245

240:                                              ; preds = %220
  store i32 %236, ptr %18, align 8, !tbaa !63
  br label %241

241:                                              ; preds = %240, %207
  %242 = phi i32 [ %200, %207 ], [ %236, %240 ]
  %243 = phi i64 [ %199, %207 ], [ %235, %240 ]
  %244 = trunc i64 %243 to i32
  br label %245

245:                                              ; preds = %241, %239, %179
  %246 = phi i32 [ %180, %179 ], [ -1, %239 ], [ %242, %241 ]
  %247 = phi i32 [ %181, %179 ], [ -1, %239 ], [ %244, %241 ]
  %248 = phi i32 [ %184, %179 ], [ -1, %239 ], [ 0, %241 ]
  %249 = phi i32 [ %182, %179 ], [ -1, %239 ], [ %244, %241 ]
  %250 = or i32 %249, %248
  %251 = icmp sgt i32 %250, -1
  br i1 %251, label %252, label %269

252:                                              ; preds = %245
  %253 = zext i32 %249 to i64
  %254 = getelementptr inbounds ptr, ptr %174, i64 %253
  %255 = load ptr, ptr %254, align 8, !tbaa !59
  %256 = getelementptr inbounds %"class.dealii::internal::Triangulation::TriaLevel", ptr %255, i64 0, i32 4, i32 0, i32 3
  %257 = load ptr, ptr %256, align 8, !tbaa !67
  %258 = lshr i32 %248, 6
  %259 = zext i32 %258 to i64
  %260 = getelementptr inbounds i64, ptr %257, i64 %259
  %261 = and i32 %248, 63
  %262 = zext i32 %261 to i64
  %263 = shl nuw i64 1, %262
  %264 = load i64, ptr %260, align 8, !tbaa !69
  %265 = and i64 %264, %263
  %266 = icmp eq i64 %265, 0
  br i1 %266, label %267, label %269

267:                                              ; preds = %252, %272
  %268 = phi i32 [ %249, %252 ], [ %247, %272 ]
  br label %179

269:                                              ; preds = %252, %245
  store i32 %248, ptr %144, align 4, !tbaa !54
  %270 = or i32 %248, %247
  %271 = icmp sgt i32 %270, -1
  br i1 %271, label %272, label %283

272:                                              ; preds = %269
  %273 = zext i32 %247 to i64
  %274 = getelementptr inbounds ptr, ptr %174, i64 %273
  %275 = load ptr, ptr %274, align 8, !tbaa !59
  %276 = getelementptr inbounds %"class.dealii::internal::Triangulation::TriaLevel", ptr %275, i64 0, i32 4, i32 0, i32 1
  %277 = shl i32 %248, 2
  %278 = zext i32 %277 to i64
  %279 = load ptr, ptr %276, align 8, !tbaa !70
  %280 = getelementptr inbounds i32, ptr %279, i64 %278
  %281 = load i32, ptr %280, align 4, !tbaa !72
  %282 = icmp eq i32 %281, -1
  br i1 %282, label %283, label %267

283:                                              ; preds = %269, %272
  %284 = load i32, ptr %145, align 4, !tbaa !54
  %285 = icmp ne i32 %248, %284
  %286 = load i32, ptr %19, align 8
  %287 = icmp ne i32 %246, %286
  %288 = select i1 %285, i1 true, i1 %287
  br i1 %288, label %647, label %649

289:                                              ; preds = %710, %8
  %290 = landingpad { ptr, i32 }
          cleanup
  br label %800

291:                                              ; preds = %41
  %292 = landingpad { ptr, i32 }
          cleanup
  br label %791

293:                                              ; preds = %73, %45
  %294 = landingpad { ptr, i32 }
          cleanup
  br label %297

295:                                              ; preds = %67
  %296 = landingpad { ptr, i32 }
          cleanup
  call void @llvm.lifetime.end.p0(i64 1, ptr nonnull %12) #18
  invoke void @_ZN6dealii6VectorIdED2Ev(ptr noundef nonnull align 8 dereferenceable(88) %11)
          to label %297 unwind label %808

297:                                              ; preds = %293, %62, %295
  %298 = phi { ptr, i32 } [ %296, %295 ], [ %294, %293 ], [ %63, %62 ]
  call void @llvm.lifetime.end.p0(i64 88, ptr nonnull %11) #18
  br label %787

299:                                              ; preds = %99, %74
  %300 = landingpad { ptr, i32 }
          cleanup
  br label %303

301:                                              ; preds = %93
  %302 = landingpad { ptr, i32 }
          cleanup
  call void @llvm.lifetime.end.p0(i64 1, ptr nonnull %15) #18
  invoke void @_ZN6dealii6VectorIdED2Ev(ptr noundef nonnull align 8 dereferenceable(88) %14)
          to label %303 unwind label %808

303:                                              ; preds = %299, %88, %301
  %304 = phi { ptr, i32 } [ %302, %301 ], [ %300, %299 ], [ %89, %88 ]
  call void @llvm.lifetime.end.p0(i64 88, ptr nonnull %14) #18
  br label %763

305:                                              ; preds = %658, %100
  %306 = landingpad { ptr, i32 }
          cleanup
  br label %739

307:                                              ; preds = %117
  %308 = landingpad { ptr, i32 }
          cleanup
  br label %732

309:                                              ; preds = %123
  %310 = landingpad { ptr, i32 }
          cleanup
  br label %727

311:                                              ; preds = %130
  %312 = landingpad { ptr, i32 }
          cleanup
  br label %725

313:                                              ; preds = %141, %139, %136
  %314 = landingpad { ptr, i32 }
          cleanup
  br label %723

315:                                              ; preds = %647, %153
  %316 = phi i64 [ 0, %153 ], [ %648, %647 ]
  %317 = load ptr, ptr %154, align 8, !tbaa !56, !noalias !73
  %318 = getelementptr inbounds %"class.dealii::Triangulation", ptr %317, i64 0, i32 1
  %319 = load i32, ptr %18, align 8, !tbaa !63, !noalias !73
  %320 = sext i32 %319 to i64
  %321 = load ptr, ptr %318, align 8, !tbaa !57, !noalias !73
  %322 = getelementptr inbounds ptr, ptr %321, i64 %320
  %323 = load ptr, ptr %322, align 8, !tbaa !59, !noalias !73
  %324 = getelementptr inbounds %"class.dealii::internal::Triangulation::TriaLevel", ptr %323, i64 0, i32 4
  %325 = load i32, ptr %144, align 4, !tbaa !54, !noalias !73
  %326 = sext i32 %325 to i64
  %327 = load ptr, ptr %324, align 8, !tbaa !62, !noalias !73
  %328 = getelementptr inbounds %"class.dealii::internal::Triangulation::TriaObject", ptr %327, i64 %326
  %329 = getelementptr inbounds [6 x i32], ptr %328, i64 0, i64 %316
  %330 = load i32, ptr %329, align 4, !tbaa !72, !noalias !73
  %331 = getelementptr inbounds %"class.dealii::Triangulation", ptr %317, i64 0, i32 2
  %332 = load ptr, ptr %331, align 8, !tbaa !74
  %333 = getelementptr inbounds %"class.dealii::internal::Triangulation::TriaObjects.223", ptr %332, i64 0, i32 5
  %334 = sext i32 %330 to i64
  %335 = load ptr, ptr %333, align 8, !tbaa !102
  %336 = getelementptr inbounds i8, ptr %335, i64 %334
  %337 = load i8, ptr %336, align 1, !tbaa !104
  %338 = icmp eq i8 %337, -1
  %339 = load ptr, ptr %156, align 8
  %340 = icmp eq ptr %339, null
  %341 = select i1 %338, i1 true, i1 %340
  br i1 %341, label %644, label %342

342:                                              ; preds = %315, %342
  %343 = phi ptr [ %352, %342 ], [ %339, %315 ]
  %344 = phi ptr [ %350, %342 ], [ %157, %315 ]
  %345 = getelementptr inbounds %"struct.std::_Rb_tree_node", ptr %343, i64 0, i32 1
  %346 = load i8, ptr %345, align 1, !tbaa !104
  %347 = icmp ult i8 %346, %337
  %348 = getelementptr inbounds %"struct.std::_Rb_tree_node_base", ptr %343, i64 0, i32 3
  %349 = getelementptr inbounds %"struct.std::_Rb_tree_node_base", ptr %343, i64 0, i32 2
  %350 = select i1 %347, ptr %344, ptr %343
  %351 = select i1 %347, ptr %348, ptr %349
  %352 = load ptr, ptr %351, align 8, !tbaa !59
  %353 = icmp eq ptr %352, null
  br i1 %353, label %354, label %342

354:                                              ; preds = %342
  %355 = icmp eq ptr %350, %157
  br i1 %355, label %644, label %356

356:                                              ; preds = %354
  %357 = getelementptr inbounds %"struct.std::_Rb_tree_node", ptr %350, i64 0, i32 1
  %358 = load i8, ptr %357, align 1, !tbaa !104
  %359 = icmp ugt i8 %358, %337
  br i1 %359, label %644, label %360

360:                                              ; preds = %356
  %361 = trunc i64 %316 to i32
  invoke void @_ZN6dealii12FEFaceValuesILi3ELi3EE6reinitERKNS_12TriaIteratorINS_15DoFCellAccessorINS_10DoFHandlerILi3ELi3EEEEEEEj(ptr noundef nonnull align 8 dereferenceable(784) %9, ptr noundef nonnull align 8 dereferenceable(24) %18, i32 noundef %361)
          to label %362 unwind label %417

362:                                              ; preds = %360
  %363 = load i32, ptr %102, align 8, !tbaa !46
  %364 = icmp eq i32 %363, 0
  br i1 %364, label %369, label %365

365:                                              ; preds = %362
  %366 = load ptr, ptr %158, align 8, !tbaa !43
  %367 = zext i32 %363 to i64
  %368 = shl nuw nsw i64 %367, 3
  call void @llvm.memset.p0.i64(ptr align 8 %366, i8 0, i64 %368, i1 false), !tbaa !47
  br label %369

369:                                              ; preds = %365, %362
  %370 = load ptr, ptr %155, align 8, !tbaa !113
  %371 = getelementptr inbounds %"class.dealii::DoFHandler", ptr %370, i64 0, i32 2
  %372 = load ptr, ptr %371, align 8, !tbaa !117
  %373 = getelementptr inbounds i8, ptr %372, i64 112
  %374 = load i32, ptr %373, align 8, !tbaa !110
  %375 = icmp eq i32 %374, 0
  br i1 %375, label %398, label %376

376:                                              ; preds = %369
  %377 = getelementptr inbounds %"class.dealii::DoFHandler", ptr %370, i64 0, i32 3
  %378 = load ptr, ptr %377, align 8, !tbaa !119
  %379 = load i32, ptr %18, align 8, !tbaa !63
  %380 = sext i32 %379 to i64
  %381 = getelementptr inbounds ptr, ptr %378, i64 %380
  %382 = load ptr, ptr %381, align 8, !tbaa !59
  %383 = load ptr, ptr %382, align 8, !tbaa !121
  %384 = load i32, ptr %144, align 4, !tbaa !54
  %385 = mul i32 %384, %374
  %386 = zext i32 %385 to i64
  %387 = getelementptr inbounds i32, ptr %383, i64 %386
  br label %388

388:                                              ; preds = %388, %376
  %389 = phi i64 [ 0, %376 ], [ %393, %388 ]
  %390 = phi ptr [ %387, %376 ], [ %394, %388 ]
  %391 = load i32, ptr %390, align 4, !tbaa !72
  %392 = getelementptr inbounds i32, ptr %46, i64 %389
  store i32 %391, ptr %392, align 4, !tbaa !72
  %393 = add nuw nsw i64 %389, 1
  %394 = getelementptr inbounds i32, ptr %390, i64 1
  %395 = load i32, ptr %373, align 8, !tbaa !110
  %396 = zext i32 %395 to i64
  %397 = icmp ult i64 %393, %396
  br i1 %397, label %388, label %398

398:                                              ; preds = %388, %369
  invoke void @_ZNK6dealii12FEValuesBaseILi3ELi3EE19get_function_valuesINS_11BlockVectorIdEEdEEvRKT_RSt6vectorINS_6VectorIT0_EESaISB_EE(ptr noundef nonnull align 8 dereferenceable(648) %9, ptr noundef nonnull align 8 dereferenceable(128) %2, ptr noundef nonnull align 8 dereferenceable(24) %10)
          to label %399 unwind label %417

399:                                              ; preds = %398
  %400 = load ptr, ptr %159, align 8, !tbaa !8
  %401 = load ptr, ptr %400, align 8, !tbaa !5
  %402 = getelementptr inbounds ptr, ptr %401, i64 6
  %403 = load ptr, ptr %402, align 8
  invoke void %403(ptr noundef nonnull align 8 dereferenceable(92) %400, ptr noundef nonnull align 8 dereferenceable(24) %160, ptr noundef nonnull align 8 dereferenceable(24) %17, i32 noundef 0)
          to label %404 unwind label %417

404:                                              ; preds = %399
  call void @llvm.lifetime.start.p0(i64 16, ptr nonnull %20) #18
  call void @llvm.memcpy.p0.p0.i64(ptr noundef nonnull align 8 dereferenceable(16) %20, ptr noundef nonnull align 8 dereferenceable(16) %18, i64 16, i1 false)
  %405 = load ptr, ptr %34, align 8, !tbaa !5
  %406 = getelementptr inbounds ptr, ptr %405, i64 2
  %407 = load ptr, ptr %406, align 8
  invoke void %407(ptr noundef nonnull align 8 dereferenceable(8) %34, ptr noundef nonnull align 8 dereferenceable(16) %20, i32 noundef %361, ptr noundef nonnull align 8 dereferenceable(24) %13)
          to label %408 unwind label %419

408:                                              ; preds = %404
  call void @llvm.lifetime.end.p0(i64 16, ptr nonnull %20) #18
  %409 = load i32, ptr %161, align 4, !tbaa !122
  %410 = icmp eq i32 %409, 0
  br i1 %410, label %411, label %421

411:                                              ; preds = %452, %408
  br i1 %40, label %644, label %412

412:                                              ; preds = %411
  %413 = load ptr, ptr %158, align 8, !tbaa !43
  %414 = load i32, ptr %168, align 8, !tbaa !163
  %415 = load ptr, ptr %169, align 8, !tbaa !121
  %416 = load ptr, ptr %170, align 8, !tbaa !105
  br label %618

417:                                              ; preds = %399, %398, %360
  %418 = landingpad { ptr, i32 }
          cleanup
  br label %723

419:                                              ; preds = %404
  %420 = landingpad { ptr, i32 }
          cleanup
  call void @llvm.lifetime.end.p0(i64 16, ptr nonnull %20) #18
  br label %723

421:                                              ; preds = %408, %452
  %422 = phi i32 [ %453, %452 ], [ %409, %408 ]
  %423 = phi i64 [ %454, %452 ], [ 0, %408 ]
  %424 = load ptr, ptr %10, align 8, !tbaa !105
  %425 = getelementptr inbounds %"class.dealii::Vector", ptr %424, i64 %423, i32 3
  %426 = load ptr, ptr %425, align 8, !tbaa !43
  %427 = getelementptr inbounds double, ptr %426, i64 2
  %428 = load double, ptr %427, align 8, !tbaa !47
  %429 = getelementptr inbounds double, ptr %426, i64 3
  %430 = load double, ptr %429, align 8, !tbaa !47
  %431 = load ptr, ptr %13, align 8, !tbaa !105
  %432 = getelementptr inbounds %"class.dealii::Vector", ptr %431, i64 %423, i32 3
  %433 = load ptr, ptr %432, align 8, !tbaa !43
  %434 = getelementptr inbounds double, ptr %433, i64 2
  %435 = load double, ptr %434, align 8, !tbaa !47
  %436 = getelementptr inbounds double, ptr %433, i64 3
  %437 = load double, ptr %436, align 8, !tbaa !47
  br i1 %40, label %452, label %438

438:                                              ; preds = %421
  %439 = fmul double %131, %435
  %440 = fmul double %132, %437
  %441 = fmul double %131, %437
  %442 = fmul double %132, %435
  %443 = fsub double %439, %440
  %444 = fadd double %442, %441
  %445 = fcmp ord double %443, 0.000000e+00
  %446 = fcmp ord double %444, 0.000000e+00
  %447 = trunc i64 %423 to i32
  %448 = trunc i64 %423 to i32
  %449 = select i1 %445, i1 true, i1 %446
  br label %457

450:                                              ; preds = %615
  %451 = load i32, ptr %161, align 4, !tbaa !122
  br label %452

452:                                              ; preds = %450, %421
  %453 = phi i32 [ %451, %450 ], [ %422, %421 ]
  %454 = add nuw nsw i64 %423, 1
  %455 = zext i32 %453 to i64
  %456 = icmp ult i64 %454, %455
  br i1 %456, label %421, label %411

457:                                              ; preds = %438, %615
  %458 = phi i64 [ 0, %438 ], [ %616, %615 ]
  %459 = load ptr, ptr %162, align 8, !tbaa !165
  %460 = getelementptr inbounds %"struct.std::pair", ptr %459, i64 %458
  %461 = load i64, ptr %460, align 4
  %462 = and i64 %461, 4294967294
  %463 = icmp eq i64 %462, 2
  br i1 %463, label %464, label %615

464:                                              ; preds = %457
  %465 = load ptr, ptr %163, align 8, !tbaa !117
  %466 = getelementptr inbounds %"class.dealii::FiniteElement", ptr %465, i64 0, i32 2
  %467 = load i8, ptr %466, align 4, !tbaa !167, !range !190, !noundef !73
  %468 = icmp eq i8 %467, 0
  br i1 %468, label %469, label %475

469:                                              ; preds = %464
  %470 = getelementptr inbounds %"class.dealii::FiniteElement", ptr %465, i64 0, i32 20
  %471 = load ptr, ptr %470, align 8, !tbaa !121
  %472 = getelementptr inbounds i32, ptr %471, i64 %458
  %473 = load i32, ptr %472, align 4, !tbaa !72
  %474 = icmp eq i32 %473, 1
  br i1 %474, label %475, label %486

475:                                              ; preds = %464, %469
  %476 = getelementptr inbounds %"class.dealii::FiniteElement", ptr %465, i64 0, i32 12
  %477 = load ptr, ptr %476, align 8, !tbaa !165
  %478 = getelementptr inbounds %"struct.std::pair", ptr %477, i64 %458
  %479 = load i64, ptr %478, align 4
  %480 = and i64 %479, 4294967295
  %481 = icmp eq i64 %480, 2
  br i1 %481, label %482, label %527

482:                                              ; preds = %475
  %483 = load ptr, ptr %164, align 8, !tbaa !121
  %484 = getelementptr inbounds i32, ptr %483, i64 %458
  %485 = load i32, ptr %484, align 4, !tbaa !72
  br label %518

486:                                              ; preds = %469
  %487 = getelementptr inbounds %"class.dealii::FiniteElement", ptr %465, i64 0, i32 19
  %488 = load ptr, ptr %487, align 8, !tbaa !191
  %489 = getelementptr inbounds %"class.std::vector.66", ptr %488, i64 %458
  %490 = load ptr, ptr %489, align 8, !tbaa !67
  %491 = load i64, ptr %490, align 8, !tbaa !69
  %492 = and i64 %491, 4
  %493 = icmp eq i64 %492, 0
  br i1 %493, label %546, label %494

494:                                              ; preds = %486
  %495 = load ptr, ptr %164, align 8, !tbaa !121
  %496 = getelementptr inbounds i32, ptr %495, i64 %458
  %497 = load i32, ptr %496, align 4, !tbaa !72
  br label %498

498:                                              ; preds = %498, %494
  %499 = phi i64 [ %506, %498 ], [ 0, %494 ]
  %500 = phi i32 [ %511, %498 ], [ 0, %494 ]
  %501 = phi ptr [ %510, %498 ], [ %490, %494 ]
  %502 = zext i32 %500 to i64
  %503 = load i64, ptr %501, align 8, !tbaa !69
  %504 = lshr i64 %503, %502
  %505 = and i64 %504, 1
  %506 = add nuw nsw i64 %505, %499
  %507 = add i32 %500, 1
  %508 = icmp eq i32 %500, 63
  %509 = zext i1 %508 to i64
  %510 = getelementptr inbounds i64, ptr %501, i64 %509
  %511 = select i1 %508, i32 0, i32 %507
  %512 = icmp ne ptr %510, %490
  %513 = icmp ne i32 %511, 2
  %514 = or i1 %513, %512
  br i1 %514, label %498, label %515

515:                                              ; preds = %498
  %516 = trunc i64 %506 to i32
  %517 = add i32 %497, %516
  br label %518

518:                                              ; preds = %515, %482
  %519 = phi i32 [ %517, %515 ], [ %485, %482 ]
  %520 = load ptr, ptr %165, align 8, !tbaa !192
  %521 = load i32, ptr %166, align 8, !tbaa !72
  %522 = mul i32 %521, %519
  %523 = add i32 %522, %447
  %524 = zext i32 %523 to i64
  %525 = getelementptr inbounds double, ptr %520, i64 %524
  %526 = load double, ptr %525, align 8, !tbaa !47
  br label %527

527:                                              ; preds = %518, %475
  %528 = phi double [ 0.000000e+00, %475 ], [ %526, %518 ]
  br i1 %468, label %529, label %535

529:                                              ; preds = %527
  %530 = getelementptr inbounds %"class.dealii::FiniteElement", ptr %465, i64 0, i32 20
  %531 = load ptr, ptr %530, align 8, !tbaa !121
  %532 = getelementptr inbounds i32, ptr %531, i64 %458
  %533 = load i32, ptr %532, align 4, !tbaa !72
  %534 = icmp eq i32 %533, 1
  br i1 %534, label %535, label %546

535:                                              ; preds = %527, %529
  %536 = getelementptr inbounds %"class.dealii::FiniteElement", ptr %465, i64 0, i32 12
  %537 = load ptr, ptr %536, align 8, !tbaa !165
  %538 = getelementptr inbounds %"struct.std::pair", ptr %537, i64 %458
  %539 = load i64, ptr %538, align 4
  %540 = and i64 %539, 4294967295
  %541 = icmp eq i64 %540, 3
  br i1 %541, label %542, label %589

542:                                              ; preds = %535
  %543 = load ptr, ptr %164, align 8, !tbaa !121
  %544 = getelementptr inbounds i32, ptr %543, i64 %458
  %545 = load i32, ptr %544, align 4, !tbaa !72
  br label %579

546:                                              ; preds = %486, %529
  %547 = phi double [ %528, %529 ], [ 0.000000e+00, %486 ]
  %548 = getelementptr inbounds %"class.dealii::FiniteElement", ptr %465, i64 0, i32 19
  %549 = load ptr, ptr %548, align 8, !tbaa !191
  %550 = getelementptr inbounds %"class.std::vector.66", ptr %549, i64 %458
  %551 = load ptr, ptr %550, align 8, !tbaa !67
  %552 = load i64, ptr %551, align 8, !tbaa !69
  %553 = and i64 %552, 8
  %554 = icmp eq i64 %553, 0
  br i1 %554, label %589, label %555

555:                                              ; preds = %546
  %556 = load ptr, ptr %164, align 8, !tbaa !121
  %557 = getelementptr inbounds i32, ptr %556, i64 %458
  %558 = load i32, ptr %557, align 4, !tbaa !72
  br label %559

559:                                              ; preds = %559, %555
  %560 = phi i64 [ %567, %559 ], [ 0, %555 ]
  %561 = phi i32 [ %572, %559 ], [ 0, %555 ]
  %562 = phi ptr [ %571, %559 ], [ %551, %555 ]
  %563 = zext i32 %561 to i64
  %564 = load i64, ptr %562, align 8, !tbaa !69
  %565 = lshr i64 %564, %563
  %566 = and i64 %565, 1
  %567 = add nuw nsw i64 %566, %560
  %568 = add i32 %561, 1
  %569 = icmp eq i32 %561, 63
  %570 = zext i1 %569 to i64
  %571 = getelementptr inbounds i64, ptr %562, i64 %570
  %572 = select i1 %569, i32 0, i32 %568
  %573 = icmp ne ptr %571, %551
  %574 = icmp ne i32 %572, 3
  %575 = or i1 %574, %573
  br i1 %575, label %559, label %576

576:                                              ; preds = %559
  %577 = trunc i64 %567 to i32
  %578 = add i32 %558, %577
  br label %579

579:                                              ; preds = %576, %542
  %580 = phi double [ %547, %576 ], [ %528, %542 ]
  %581 = phi i32 [ %578, %576 ], [ %545, %542 ]
  %582 = load ptr, ptr %165, align 8, !tbaa !192
  %583 = load i32, ptr %166, align 8, !tbaa !72
  %584 = mul i32 %583, %581
  %585 = add i32 %584, %448
  %586 = zext i32 %585 to i64
  %587 = getelementptr inbounds double, ptr %582, i64 %586
  %588 = load double, ptr %587, align 8, !tbaa !47
  br label %589

589:                                              ; preds = %579, %546, %535
  %590 = phi double [ %528, %535 ], [ %547, %546 ], [ %580, %579 ]
  %591 = phi double [ 0.000000e+00, %535 ], [ 0.000000e+00, %546 ], [ %588, %579 ]
  br i1 %449, label %596, label %592, !prof !193

592:                                              ; preds = %589
  %593 = call noundef { double, double } @__muldc3(double noundef %131, double noundef %132, double noundef %435, double noundef %437) #18
  %594 = extractvalue { double, double } %593, 0
  %595 = extractvalue { double, double } %593, 1
  br label %596

596:                                              ; preds = %589, %592
  %597 = phi double [ %443, %589 ], [ %594, %592 ]
  %598 = phi double [ %444, %589 ], [ %595, %592 ]
  %599 = fsub double %428, %597
  %600 = fsub double %430, %598
  %601 = fmul double %591, %600
  %602 = call double @llvm.fmuladd.f64(double %599, double %590, double %601)
  %603 = load ptr, ptr %17, align 8, !tbaa !50
  %604 = getelementptr inbounds double, ptr %603, i64 %423
  %605 = load double, ptr %604, align 8, !tbaa !47
  %606 = load ptr, ptr %167, align 8, !tbaa !50
  %607 = getelementptr inbounds double, ptr %606, i64 %423
  %608 = load double, ptr %607, align 8, !tbaa !47
  %609 = load ptr, ptr %158, align 8, !tbaa !43
  %610 = getelementptr inbounds double, ptr %609, i64 %458
  %611 = load double, ptr %610, align 8, !tbaa !47
  %612 = fneg double %602
  %613 = fmul double %605, %612
  %614 = call double @llvm.fmuladd.f64(double %613, double %608, double %611)
  store double %614, ptr %610, align 8, !tbaa !47
  br label %615

615:                                              ; preds = %457, %596
  %616 = add nuw nsw i64 %458, 1
  %617 = icmp eq i64 %616, %39
  br i1 %617, label %450, label %457

618:                                              ; preds = %412, %631
  %619 = phi i64 [ 0, %412 ], [ %642, %631 ]
  %620 = getelementptr inbounds double, ptr %413, i64 %619
  %621 = load double, ptr %620, align 8, !tbaa !47
  %622 = getelementptr inbounds i32, ptr %46, i64 %619
  %623 = load i32, ptr %622, align 4, !tbaa !72
  br label %624

624:                                              ; preds = %624, %618
  %625 = phi i32 [ %414, %618 ], [ %626, %624 ]
  %626 = add i32 %625, -1
  %627 = sext i32 %626 to i64
  %628 = getelementptr inbounds i32, ptr %415, i64 %627
  %629 = load i32, ptr %628, align 4, !tbaa !72
  %630 = icmp ugt i32 %629, %623
  br i1 %630, label %624, label %631

631:                                              ; preds = %624
  %632 = sub i32 %623, %629
  %633 = zext i32 %632 to i64
  %634 = zext i32 %626 to i64
  %635 = getelementptr inbounds %"class.dealii::Vector", ptr %416, i64 %634, i32 3
  %636 = load ptr, ptr %635, align 8, !tbaa !43
  %637 = getelementptr inbounds double, ptr %636, i64 %633
  %638 = fptrunc double %621 to float
  %639 = fpext float %638 to double
  %640 = load double, ptr %637, align 8, !tbaa !47
  %641 = fadd double %640, %639
  store double %641, ptr %637, align 8, !tbaa !47
  %642 = add nuw nsw i64 %619, 1
  %643 = icmp eq i64 %642, %39
  br i1 %643, label %644, label %618

644:                                              ; preds = %631, %411, %354, %315, %356
  %645 = add nuw nsw i64 %316, 1
  %646 = icmp eq i64 %645, 6
  br i1 %646, label %171, label %647

647:                                              ; preds = %644, %283
  %648 = phi i64 [ %645, %644 ], [ 0, %283 ]
  br label %315

649:                                              ; preds = %283, %143
  call void @llvm.lifetime.end.p0(i64 24, ptr nonnull %19) #18
  call void @llvm.lifetime.end.p0(i64 24, ptr nonnull %18) #18
  %650 = load ptr, ptr %17, align 8, !tbaa !50
  %651 = icmp eq ptr %650, null
  br i1 %651, label %653, label %652

652:                                              ; preds = %649
  call void @_ZdlPv(ptr noundef nonnull %650) #20
  br label %653

653:                                              ; preds = %652, %649
  call void @llvm.lifetime.end.p0(i64 24, ptr nonnull %17) #18
  store ptr getelementptr inbounds ({ [6 x ptr] }, ptr @_ZTVN6dealii6VectorIdEE, i64 0, inrange i32 0, i64 2), ptr %16, align 8, !tbaa !5
  %654 = getelementptr inbounds %"class.dealii::Vector", ptr %16, i64 0, i32 3
  %655 = load ptr, ptr %654, align 8, !tbaa !43
  %656 = icmp eq ptr %655, null
  br i1 %656, label %658, label %657

657:                                              ; preds = %653
  call void @_ZdaPv(ptr noundef nonnull %655) #20
  store ptr null, ptr %654, align 8, !tbaa !43
  br label %658

658:                                              ; preds = %657, %653
  invoke void @_ZN6dealii11SubscriptorD2Ev(ptr noundef nonnull align 8 dereferenceable(72) %16)
          to label %659 unwind label %305

659:                                              ; preds = %658
  call void @llvm.lifetime.end.p0(i64 88, ptr nonnull %16) #18
  %660 = load ptr, ptr %13, align 8, !tbaa !105
  %661 = getelementptr inbounds %"struct.std::_Vector_base<dealii::Vector<double>, std::allocator<dealii::Vector<double> > >::_Vector_impl_data", ptr %13, i64 0, i32 1
  %662 = load ptr, ptr %661, align 8, !tbaa !108
  %663 = icmp eq ptr %660, %662
  br i1 %663, label %673, label %664

664:                                              ; preds = %659, %668
  %665 = phi ptr [ %669, %668 ], [ %660, %659 ]
  %666 = load ptr, ptr %665, align 8, !tbaa !5
  %667 = load ptr, ptr %666, align 8
  invoke void %667(ptr noundef nonnull align 8 dereferenceable(88) %665)
          to label %668 unwind label %677

668:                                              ; preds = %664
  %669 = getelementptr inbounds %"class.dealii::Vector", ptr %665, i64 1
  %670 = icmp eq ptr %669, %662
  br i1 %670, label %671, label %664

671:                                              ; preds = %668
  %672 = load ptr, ptr %13, align 8, !tbaa !105
  br label %673

673:                                              ; preds = %671, %659
  %674 = phi ptr [ %672, %671 ], [ %660, %659 ]
  %675 = icmp eq ptr %674, null
  br i1 %675, label %682, label %676

676:                                              ; preds = %673
  call void @_ZdlPv(ptr noundef nonnull %674) #20
  br label %682

677:                                              ; preds = %664
  %678 = landingpad { ptr, i32 }
          cleanup
  %679 = load ptr, ptr %13, align 8, !tbaa !105
  %680 = icmp eq ptr %679, null
  br i1 %680, label %763, label %681

681:                                              ; preds = %677
  call void @_ZdlPv(ptr noundef nonnull %679) #20
  br label %763

682:                                              ; preds = %676, %673
  call void @llvm.lifetime.end.p0(i64 24, ptr nonnull %13) #18
  %683 = load ptr, ptr %10, align 8, !tbaa !105
  %684 = getelementptr inbounds %"struct.std::_Vector_base<dealii::Vector<double>, std::allocator<dealii::Vector<double> > >::_Vector_impl_data", ptr %10, i64 0, i32 1
  %685 = load ptr, ptr %684, align 8, !tbaa !108
  %686 = icmp eq ptr %683, %685
  br i1 %686, label %696, label %687

687:                                              ; preds = %682, %691
  %688 = phi ptr [ %692, %691 ], [ %683, %682 ]
  %689 = load ptr, ptr %688, align 8, !tbaa !5
  %690 = load ptr, ptr %689, align 8
  invoke void %690(ptr noundef nonnull align 8 dereferenceable(88) %688)
          to label %691 unwind label %700

691:                                              ; preds = %687
  %692 = getelementptr inbounds %"class.dealii::Vector", ptr %688, i64 1
  %693 = icmp eq ptr %692, %685
  br i1 %693, label %694, label %687

694:                                              ; preds = %691
  %695 = load ptr, ptr %10, align 8, !tbaa !105
  br label %696

696:                                              ; preds = %694, %682
  %697 = phi ptr [ %695, %694 ], [ %683, %682 ]
  %698 = icmp eq ptr %697, null
  br i1 %698, label %705, label %699

699:                                              ; preds = %696
  call void @_ZdlPv(ptr noundef nonnull %697) #20
  br label %705

700:                                              ; preds = %687
  %701 = landingpad { ptr, i32 }
          cleanup
  %702 = load ptr, ptr %10, align 8, !tbaa !105
  %703 = icmp eq ptr %702, null
  br i1 %703, label %787, label %704

704:                                              ; preds = %700
  call void @_ZdlPv(ptr noundef nonnull %702) #20
  br label %787

705:                                              ; preds = %699, %696
  call void @llvm.lifetime.end.p0(i64 24, ptr nonnull %10) #18
  %706 = icmp eq ptr %46, null
  br i1 %706, label %708, label %707

707:                                              ; preds = %705
  call void @_ZdlPv(ptr noundef nonnull %46) #20
  br label %708

708:                                              ; preds = %707, %705
  store ptr getelementptr inbounds ({ [4 x ptr] }, ptr @_ZTVN6dealii16FEFaceValuesBaseILi3ELi3EEE, i64 0, inrange i32 0, i64 2), ptr %9, align 8, !tbaa !5
  %709 = getelementptr inbounds %"class.dealii::FEFaceValuesBase", ptr %9, i64 0, i32 2
  invoke void @_ZN6dealii10QuadratureILi2EED1Ev(ptr noundef nonnull align 8 dereferenceable(128) %709)
          to label %710 unwind label %711

710:                                              ; preds = %708
  invoke void @_ZN6dealii12FEValuesBaseILi3ELi3EED2Ev(ptr noundef nonnull align 8 dereferenceable(648) %9)
          to label %716 unwind label %289

711:                                              ; preds = %708
  %712 = landingpad { ptr, i32 }
          cleanup
  invoke void @_ZN6dealii12FEValuesBaseILi3ELi3EED2Ev(ptr noundef nonnull align 8 dereferenceable(648) %9)
          to label %800 unwind label %713

713:                                              ; preds = %711
  %714 = landingpad { ptr, i32 }
          catch ptr null
  %715 = extractvalue { ptr, i32 } %714, 0
  call void @__clang_call_terminate(ptr %715) #17
  unreachable

716:                                              ; preds = %710
  call void @llvm.lifetime.end.p0(i64 784, ptr nonnull %9) #18
  %717 = icmp eq ptr %34, null
  br i1 %717, label %722, label %718

718:                                              ; preds = %716
  %719 = load ptr, ptr %34, align 8, !tbaa !5
  %720 = getelementptr inbounds ptr, ptr %719, i64 1
  %721 = load ptr, ptr %720, align 8
  call void %721(ptr noundef nonnull align 8 dereferenceable(8) %34)
  br label %722

722:                                              ; preds = %716, %718
  ret void

723:                                              ; preds = %417, %419, %313
  %724 = phi { ptr, i32 } [ %314, %313 ], [ %420, %419 ], [ %418, %417 ]
  call void @llvm.lifetime.end.p0(i64 24, ptr nonnull %19) #18
  br label %725

725:                                              ; preds = %723, %311
  %726 = phi { ptr, i32 } [ %724, %723 ], [ %312, %311 ]
  call void @llvm.lifetime.end.p0(i64 24, ptr nonnull %18) #18
  br label %727

727:                                              ; preds = %725, %309
  %728 = phi { ptr, i32 } [ %726, %725 ], [ %310, %309 ]
  %729 = load ptr, ptr %17, align 8, !tbaa !50
  %730 = icmp eq ptr %729, null
  br i1 %730, label %732, label %731

731:                                              ; preds = %727
  call void @_ZdlPv(ptr noundef nonnull %729) #20
  br label %732

732:                                              ; preds = %731, %727, %307
  %733 = phi { ptr, i32 } [ %308, %307 ], [ %728, %727 ], [ %728, %731 ]
  call void @llvm.lifetime.end.p0(i64 24, ptr nonnull %17) #18
  store ptr getelementptr inbounds ({ [6 x ptr] }, ptr @_ZTVN6dealii6VectorIdEE, i64 0, inrange i32 0, i64 2), ptr %16, align 8, !tbaa !5
  %734 = getelementptr inbounds %"class.dealii::Vector", ptr %16, i64 0, i32 3
  %735 = load ptr, ptr %734, align 8, !tbaa !43
  %736 = icmp eq ptr %735, null
  br i1 %736, label %738, label %737

737:                                              ; preds = %732
  call void @_ZdaPv(ptr noundef nonnull %735) #20
  store ptr null, ptr %734, align 8, !tbaa !43
  br label %738

738:                                              ; preds = %737, %732
  invoke void @_ZN6dealii11SubscriptorD2Ev(ptr noundef nonnull align 8 dereferenceable(72) %16)
          to label %739 unwind label %808

739:                                              ; preds = %738, %305, %109
  %740 = phi { ptr, i32 } [ %306, %305 ], [ %110, %109 ], [ %733, %738 ]
  call void @llvm.lifetime.end.p0(i64 88, ptr nonnull %16) #18
  %741 = load ptr, ptr %13, align 8, !tbaa !105
  %742 = getelementptr inbounds %"struct.std::_Vector_base<dealii::Vector<double>, std::allocator<dealii::Vector<double> > >::_Vector_impl_data", ptr %13, i64 0, i32 1
  %743 = load ptr, ptr %742, align 8, !tbaa !108
  %744 = icmp eq ptr %741, %743
  br i1 %744, label %754, label %745

745:                                              ; preds = %739, %749
  %746 = phi ptr [ %750, %749 ], [ %741, %739 ]
  %747 = load ptr, ptr %746, align 8, !tbaa !5
  %748 = load ptr, ptr %747, align 8
  invoke void %748(ptr noundef nonnull align 8 dereferenceable(88) %746)
          to label %749 unwind label %758

749:                                              ; preds = %745
  %750 = getelementptr inbounds %"class.dealii::Vector", ptr %746, i64 1
  %751 = icmp eq ptr %750, %743
  br i1 %751, label %752, label %745

752:                                              ; preds = %749
  %753 = load ptr, ptr %13, align 8, !tbaa !105
  br label %754

754:                                              ; preds = %752, %739
  %755 = phi ptr [ %753, %752 ], [ %741, %739 ]
  %756 = icmp eq ptr %755, null
  br i1 %756, label %763, label %757

757:                                              ; preds = %754
  call void @_ZdlPv(ptr noundef nonnull %755) #20
  br label %763

758:                                              ; preds = %745
  %759 = landingpad { ptr, i32 }
          catch ptr null
  %760 = load ptr, ptr %13, align 8, !tbaa !105
  %761 = icmp eq ptr %760, null
  br i1 %761, label %810, label %762

762:                                              ; preds = %758
  call void @_ZdlPv(ptr noundef nonnull %760) #20
  br label %810

763:                                              ; preds = %681, %677, %757, %754, %303
  %764 = phi { ptr, i32 } [ %304, %303 ], [ %740, %754 ], [ %740, %757 ], [ %678, %681 ], [ %678, %677 ]
  call void @llvm.lifetime.end.p0(i64 24, ptr nonnull %13) #18
  %765 = load ptr, ptr %10, align 8, !tbaa !105
  %766 = getelementptr inbounds %"struct.std::_Vector_base<dealii::Vector<double>, std::allocator<dealii::Vector<double> > >::_Vector_impl_data", ptr %10, i64 0, i32 1
  %767 = load ptr, ptr %766, align 8, !tbaa !108
  %768 = icmp eq ptr %765, %767
  br i1 %768, label %778, label %769

769:                                              ; preds = %763, %773
  %770 = phi ptr [ %774, %773 ], [ %765, %763 ]
  %771 = load ptr, ptr %770, align 8, !tbaa !5
  %772 = load ptr, ptr %771, align 8
  invoke void %772(ptr noundef nonnull align 8 dereferenceable(88) %770)
          to label %773 unwind label %782

773:                                              ; preds = %769
  %774 = getelementptr inbounds %"class.dealii::Vector", ptr %770, i64 1
  %775 = icmp eq ptr %774, %767
  br i1 %775, label %776, label %769

776:                                              ; preds = %773
  %777 = load ptr, ptr %10, align 8, !tbaa !105
  br label %778

778:                                              ; preds = %776, %763
  %779 = phi ptr [ %777, %776 ], [ %765, %763 ]
  %780 = icmp eq ptr %779, null
  br i1 %780, label %787, label %781

781:                                              ; preds = %778
  call void @_ZdlPv(ptr noundef nonnull %779) #20
  br label %787

782:                                              ; preds = %769
  %783 = landingpad { ptr, i32 }
          catch ptr null
  %784 = load ptr, ptr %10, align 8, !tbaa !105
  %785 = icmp eq ptr %784, null
  br i1 %785, label %810, label %786

786:                                              ; preds = %782
  call void @_ZdlPv(ptr noundef nonnull %784) #20
  br label %810

787:                                              ; preds = %704, %700, %781, %778, %297
  %788 = phi { ptr, i32 } [ %298, %297 ], [ %764, %778 ], [ %764, %781 ], [ %701, %704 ], [ %701, %700 ]
  call void @llvm.lifetime.end.p0(i64 24, ptr nonnull %10) #18
  %789 = icmp eq ptr %46, null
  br i1 %789, label %791, label %790

790:                                              ; preds = %787
  call void @_ZdlPv(ptr noundef nonnull %46) #20
  br label %791

791:                                              ; preds = %790, %787, %291
  %792 = phi { ptr, i32 } [ %292, %291 ], [ %788, %787 ], [ %788, %790 ]
  store ptr getelementptr inbounds ({ [4 x ptr] }, ptr @_ZTVN6dealii16FEFaceValuesBaseILi3ELi3EEE, i64 0, inrange i32 0, i64 2), ptr %9, align 8, !tbaa !5
  %793 = getelementptr inbounds %"class.dealii::FEFaceValuesBase", ptr %9, i64 0, i32 2
  invoke void @_ZN6dealii10QuadratureILi2EED1Ev(ptr noundef nonnull align 8 dereferenceable(128) %793)
          to label %794 unwind label %795

794:                                              ; preds = %791
  invoke void @_ZN6dealii12FEValuesBaseILi3ELi3EED2Ev(ptr noundef nonnull align 8 dereferenceable(648) %9)
          to label %800 unwind label %808

795:                                              ; preds = %791
  %796 = landingpad { ptr, i32 }
          catch ptr null
  invoke void @_ZN6dealii12FEValuesBaseILi3ELi3EED2Ev(ptr noundef nonnull align 8 dereferenceable(648) %9)
          to label %810 unwind label %797

797:                                              ; preds = %795
  %798 = landingpad { ptr, i32 }
          catch ptr null
  %799 = extractvalue { ptr, i32 } %798, 0
  call void @__clang_call_terminate(ptr %799) #17
  unreachable

800:                                              ; preds = %794, %711, %289
  %801 = phi { ptr, i32 } [ %290, %289 ], [ %712, %711 ], [ %792, %794 ]
  call void @llvm.lifetime.end.p0(i64 784, ptr nonnull %9) #18
  %802 = icmp eq ptr %34, null
  br i1 %802, label %807, label %803

803:                                              ; preds = %800
  %804 = load ptr, ptr %34, align 8, !tbaa !5
  %805 = getelementptr inbounds ptr, ptr %804, i64 1
  %806 = load ptr, ptr %805, align 8
  invoke void %806(ptr noundef nonnull align 8 dereferenceable(8) %34)
          to label %807 unwind label %808

807:                                              ; preds = %800, %803
  resume { ptr, i32 } %801

808:                                              ; preds = %803, %794, %738, %301, %295
  %809 = landingpad { ptr, i32 }
          catch ptr null
  br label %810

810:                                              ; preds = %786, %782, %795, %808, %758, %762
  %811 = phi { ptr, i32 } [ %759, %762 ], [ %759, %758 ], [ %783, %786 ], [ %783, %782 ], [ %809, %808 ], [ %796, %795 ]
  %812 = extractvalue { ptr, i32 } %811, 0
  call void @__clang_call_terminate(ptr %812) #17
  unreachable
}

; Function Attrs: sspstrong uwtable
define weak_odr dso_local void @_ZNK12METomography12Measurements35ScaledWeightedDirichletMeasurements4BaseILi3EdE27build_matrix_contribution_1ERKN9libparest5Slave10Stationary14Discretization4BaseILi3EEERKN6dealii11BlockVectorIdEERKNS6_17MeasurementGetter9Factories4BaseILi3EEERNSC_17BlockSparseMatrixIdEEjjRNSC_7Threads16DummyThreadMutexE(ptr noundef nonnull align 8 dereferenceable(152) %0, ptr noundef nonnull align 8 dereferenceable(96) %1, ptr noundef nonnull align 8 dereferenceable(128) %2, ptr noundef nonnull align 8 dereferenceable(8) %3, ptr noundef nonnull align 8 dereferenceable(320) %4, i32 noundef %5, i32 noundef %6, ptr noundef nonnull align 1 dereferenceable(1) %7) unnamed_addr #0 comdat align 2 personality ptr @__gxx_personality_v0 {
  %9 = alloca %"class.dealii::FEFaceValues", align 8
  %10 = alloca %"class.dealii::FullMatrix", align 8
  %11 = alloca %"class.std::vector.27", align 8
  %12 = alloca %"class.dealii::TriaActiveIterator", align 8
  %13 = alloca %"class.dealii::TriaActiveIterator", align 8
  %14 = getelementptr inbounds %"class.libparest::Slave::Stationary::Discretization::Base", ptr %1, i64 0, i32 2
  %15 = load ptr, ptr %14, align 8, !tbaa !13
  %16 = getelementptr inbounds %"class.libparest::Slave::Stationary::Discretization::FiniteElements", ptr %15, i64 0, i32 1
  %17 = load ptr, ptr %16, align 8, !tbaa !38
  %18 = getelementptr inbounds i8, ptr %17, i64 112
  %19 = load i32, ptr %18, align 8, !tbaa !110
  call void @llvm.lifetime.start.p0(i64 784, ptr nonnull %9) #18
  %20 = getelementptr inbounds %"class.libparest::Slave::Stationary::Discretization::FiniteElements", ptr %15, i64 0, i32 5
  %21 = load ptr, ptr %20, align 8, !tbaa !26
  call void @_ZN6dealii12FEFaceValuesILi3ELi3EEC1ERKNS_13FiniteElementILi3ELi3EEERKNS_10QuadratureILi2EEENS_11UpdateFlagsE(ptr noundef nonnull align 8 dereferenceable(784) %9, ptr noundef nonnull align 8 dereferenceable(728) %17, ptr noundef nonnull align 8 dereferenceable(128) %21, i32 noundef 49)
  %22 = zext i32 %19 to i64
  %23 = icmp eq i32 %19, 0
  br i1 %23, label %28, label %24

24:                                               ; preds = %8
  %25 = shl nuw nsw i64 %22, 2
  %26 = invoke noalias noundef nonnull ptr @_Znwm(i64 noundef %25) #19
          to label %27 unwind label %206

27:                                               ; preds = %24
  call void @llvm.memset.p0.i64(ptr nonnull align 4 %26, i8 0, i64 %25, i1 false), !tbaa !72
  br label %28

28:                                               ; preds = %27, %8
  %29 = phi ptr [ null, %8 ], [ %26, %27 ]
  call void @llvm.lifetime.start.p0(i64 96, ptr nonnull %10) #18
  invoke void @_ZN6dealii10FullMatrixIdEC1Ejj(ptr noundef nonnull align 8 dereferenceable(92) %10, i32 noundef %19, i32 noundef %19)
          to label %30 unwind label %208

30:                                               ; preds = %28
  call void @llvm.lifetime.start.p0(i64 24, ptr nonnull %11) #18
  %31 = getelementptr inbounds %"class.dealii::FEValuesBase", ptr %9, i64 0, i32 2
  %32 = load i32, ptr %31, align 4, !tbaa !122
  %33 = zext i32 %32 to i64
  %34 = icmp eq i32 %32, 0
  br i1 %34, label %35, label %36

35:                                               ; preds = %30
  call void @llvm.memset.p0.i64(ptr noundef nonnull align 8 dereferenceable(24) %11, i8 0, i64 24, i1 false)
  br label %42

36:                                               ; preds = %30
  %37 = shl nuw nsw i64 %33, 3
  %38 = invoke noalias noundef nonnull ptr @_Znwm(i64 noundef %37) #19
          to label %39 unwind label %210

39:                                               ; preds = %36
  store ptr %38, ptr %11, align 8, !tbaa !50
  %40 = getelementptr inbounds double, ptr %38, i64 %33
  %41 = getelementptr inbounds %"struct.std::_Vector_base<double, std::allocator<double> >::_Vector_impl_data", ptr %11, i64 0, i32 2
  store ptr %40, ptr %41, align 8, !tbaa !51
  call void @llvm.memset.p0.i64(ptr nonnull align 8 %38, i8 0, i64 %37, i1 false), !tbaa !47
  br label %42

42:                                               ; preds = %39, %35
  %43 = phi ptr [ null, %35 ], [ %40, %39 ]
  %44 = getelementptr inbounds %"struct.std::_Vector_base<double, std::allocator<double> >::_Vector_impl_data", ptr %11, i64 0, i32 1
  store ptr %43, ptr %44, align 8, !tbaa !52
  call void @llvm.lifetime.start.p0(i64 24, ptr nonnull %12) #18
  %45 = getelementptr inbounds %"class.libparest::Slave::Stationary::Discretization::Base", ptr %1, i64 0, i32 3
  %46 = load ptr, ptr %45, align 8, !tbaa !53
  %47 = getelementptr inbounds %"class.libparest::Slave::Stationary::Discretization::DoFHandlers", ptr %46, i64 0, i32 1
  invoke void @_ZNK6dealii10DoFHandlerILi3ELi3EE12begin_activeEj(ptr nonnull sret(%"class.dealii::TriaActiveIterator") align 8 %12, ptr noundef nonnull align 8 dereferenceable(168) %47, i32 noundef 0)
          to label %48 unwind label %212

48:                                               ; preds = %42
  call void @llvm.lifetime.start.p0(i64 24, ptr nonnull %13) #18
  %49 = load ptr, ptr %45, align 8, !tbaa !53
  %50 = getelementptr inbounds %"class.libparest::Slave::Stationary::Discretization::DoFHandlers", ptr %49, i64 0, i32 1
  invoke void @_ZNK6dealii10DoFHandlerILi3ELi3EE12begin_activeEj(ptr nonnull sret(%"class.dealii::TriaActiveIterator") align 8 %13, ptr noundef nonnull align 8 dereferenceable(168) %50, i32 noundef 0)
          to label %51 unwind label %214

51:                                               ; preds = %48
  %52 = sext i32 %5 to i64
  invoke void @_ZSt9__advanceIN6dealii18TriaActiveIteratorINS0_15DoFCellAccessorINS0_10DoFHandlerILi3ELi3EEEEEEElEvRT_T0_St26bidirectional_iterator_tag(ptr noundef nonnull align 8 dereferenceable(24) %12, i64 noundef %52)
          to label %53 unwind label %214

53:                                               ; preds = %51
  %54 = sext i32 %6 to i64
  invoke void @_ZSt9__advanceIN6dealii18TriaActiveIteratorINS0_15DoFCellAccessorINS0_10DoFHandlerILi3ELi3EEEEEEElEvRT_T0_St26bidirectional_iterator_tag(ptr noundef nonnull align 8 dereferenceable(24) %13, i64 noundef %54)
          to label %55 unwind label %214

55:                                               ; preds = %53
  %56 = getelementptr inbounds %"class.dealii::TriaAccessorBase", ptr %12, i64 0, i32 1
  %57 = getelementptr inbounds %"class.dealii::TriaAccessorBase", ptr %13, i64 0, i32 1
  %58 = load i32, ptr %56, align 4, !tbaa !54
  %59 = load i32, ptr %57, align 4, !tbaa !54
  %60 = icmp ne i32 %58, %59
  %61 = load i32, ptr %12, align 8
  %62 = load i32, ptr %13, align 8
  %63 = icmp ne i32 %61, %62
  %64 = select i1 %60, i1 true, i1 %63
  br i1 %64, label %65, label %686

65:                                               ; preds = %55
  %66 = getelementptr inbounds %"class.dealii::TriaAccessorBase", ptr %12, i64 0, i32 2
  %67 = getelementptr inbounds %"class.dealii::DoFAccessor", ptr %12, i64 0, i32 1
  %68 = getelementptr inbounds i8, ptr %0, i64 104
  %69 = getelementptr inbounds i8, ptr %0, i64 96
  %70 = getelementptr inbounds %"class.METomography::Measurements::ScaledWeightedDirichletMeasurements::Base", ptr %0, i64 0, i32 2
  %71 = getelementptr inbounds i8, ptr %9, i64 312
  %72 = getelementptr inbounds %"class.dealii::TableBase", ptr %10, i64 0, i32 3
  %73 = getelementptr inbounds %"class.dealii::TableBase", ptr %10, i64 0, i32 3, i32 0, i32 0, i64 1
  %74 = getelementptr inbounds %"class.dealii::TableBase", ptr %10, i64 0, i32 1
  %75 = getelementptr inbounds %"class.dealii::FiniteElement", ptr %17, i64 0, i32 12
  %76 = getelementptr inbounds %"class.libparest::Slave::Stationary::Measurements::Base", ptr %0, i64 0, i32 1
  %77 = getelementptr inbounds %"class.dealii::FEValuesBase", ptr %9, i64 0, i32 6
  %78 = getelementptr inbounds i8, ptr %9, i64 480
  %79 = getelementptr inbounds i8, ptr %9, i64 144
  %80 = getelementptr inbounds i8, ptr %9, i64 160
  %81 = getelementptr inbounds i8, ptr %9, i64 216
  %82 = getelementptr inbounds %"class.dealii::BlockMatrixBase", ptr %4, i64 0, i32 1
  %83 = getelementptr inbounds %"class.dealii::BlockMatrixBase", ptr %4, i64 0, i32 1, i32 1
  %84 = getelementptr inbounds %"class.dealii::BlockMatrixBase", ptr %4, i64 0, i32 2
  %85 = getelementptr inbounds %"class.dealii::BlockMatrixBase", ptr %4, i64 0, i32 2, i32 1
  %86 = getelementptr inbounds %"class.dealii::BlockMatrixBase", ptr %4, i64 0, i32 3, i32 0, i32 1
  %87 = getelementptr inbounds %"class.dealii::BlockMatrixBase", ptr %4, i64 0, i32 3, i32 0, i32 3, i32 0, i32 0, i64 1
  br label %216

88:                                               ; preds = %681
  %89 = load ptr, ptr %66, align 8, !tbaa !56
  %90 = getelementptr inbounds %"class.dealii::Triangulation", ptr %89, i64 0, i32 1
  %91 = load ptr, ptr %90, align 8, !tbaa !57
  %92 = ptrtoint ptr %91 to i64
  %93 = getelementptr inbounds %"class.dealii::Triangulation", ptr %89, i64 0, i32 1, i32 0, i32 0, i32 0, i32 1
  %94 = load i32, ptr %12, align 8
  %95 = load i32, ptr %56, align 4
  br label %96

96:                                               ; preds = %184, %88
  %97 = phi i32 [ %94, %88 ], [ %163, %184 ]
  %98 = phi i32 [ %94, %88 ], [ %164, %184 ]
  %99 = phi i32 [ %94, %88 ], [ %185, %184 ]
  %100 = phi i32 [ %95, %88 ], [ %165, %184 ]
  %101 = add nsw i32 %100, 1
  %102 = sext i32 %99 to i64
  %103 = getelementptr inbounds ptr, ptr %91, i64 %102
  %104 = load ptr, ptr %103, align 8, !tbaa !59
  %105 = getelementptr inbounds %"class.dealii::internal::Triangulation::TriaLevel", ptr %104, i64 0, i32 4
  %106 = getelementptr inbounds %"class.dealii::internal::Triangulation::TriaLevel", ptr %104, i64 0, i32 4, i32 0, i32 0, i32 0, i32 0, i32 0, i32 1
  %107 = load ptr, ptr %106, align 8, !tbaa !60
  %108 = load ptr, ptr %105, align 8, !tbaa !62
  %109 = ptrtoint ptr %107 to i64
  %110 = ptrtoint ptr %108 to i64
  %111 = sub i64 %109, %110
  %112 = sdiv exact i64 %111, 24
  %113 = trunc i64 %112 to i32
  %114 = icmp slt i32 %101, %113
  br i1 %114, label %162, label %115

115:                                              ; preds = %96
  %116 = add nsw i64 %102, 1
  %117 = trunc i64 %116 to i32
  store i32 %117, ptr %12, align 8, !tbaa !63
  %118 = load ptr, ptr %93, align 8, !tbaa !64
  %119 = ptrtoint ptr %118 to i64
  %120 = sub i64 %119, %92
  %121 = shl i64 %120, 29
  %122 = ashr i64 %121, 32
  %123 = icmp slt i64 %116, %122
  br i1 %123, label %124, label %156

124:                                              ; preds = %115
  %125 = getelementptr inbounds ptr, ptr %91, i64 %116
  %126 = load ptr, ptr %125, align 8, !tbaa !59
  %127 = getelementptr inbounds %"class.dealii::internal::Triangulation::TriaLevel", ptr %126, i64 0, i32 4
  %128 = getelementptr inbounds %"class.dealii::internal::Triangulation::TriaLevel", ptr %126, i64 0, i32 4, i32 0, i32 0, i32 0, i32 0, i32 0, i32 1
  %129 = load ptr, ptr %128, align 8, !tbaa !60
  %130 = load ptr, ptr %127, align 8, !tbaa !62
  %131 = ptrtoint ptr %129 to i64
  %132 = ptrtoint ptr %130 to i64
  %133 = sub i64 %131, %132
  %134 = sdiv exact i64 %133, 24
  %135 = trunc i64 %134 to i32
  %136 = icmp sgt i32 %135, 0
  br i1 %136, label %158, label %150

137:                                              ; preds = %150
  %138 = getelementptr inbounds ptr, ptr %91, i64 %152
  %139 = load ptr, ptr %138, align 8, !tbaa !59
  %140 = getelementptr inbounds %"class.dealii::internal::Triangulation::TriaLevel", ptr %139, i64 0, i32 4
  %141 = getelementptr inbounds %"class.dealii::internal::Triangulation::TriaLevel", ptr %139, i64 0, i32 4, i32 0, i32 0, i32 0, i32 0, i32 0, i32 1
  %142 = load ptr, ptr %141, align 8, !tbaa !60
  %143 = load ptr, ptr %140, align 8, !tbaa !62
  %144 = ptrtoint ptr %142 to i64
  %145 = ptrtoint ptr %143 to i64
  %146 = sub i64 %144, %145
  %147 = sdiv exact i64 %146, 24
  %148 = trunc i64 %147 to i32
  %149 = icmp sgt i32 %148, 0
  br i1 %149, label %157, label %150, !llvm.loop !65

150:                                              ; preds = %124, %137
  %151 = phi i64 [ %152, %137 ], [ %116, %124 ]
  %152 = add i64 %151, 1
  %153 = trunc i64 %152 to i32
  %154 = icmp eq i64 %152, %122
  br i1 %154, label %155, label %137, !llvm.loop !65

155:                                              ; preds = %150
  store i32 %153, ptr %12, align 8, !tbaa !63
  br label %156

156:                                              ; preds = %155, %115
  store i32 -1, ptr %12, align 8, !tbaa !63
  br label %162

157:                                              ; preds = %137
  store i32 %153, ptr %12, align 8, !tbaa !63
  br label %158

158:                                              ; preds = %157, %124
  %159 = phi i32 [ %117, %124 ], [ %153, %157 ]
  %160 = phi i64 [ %116, %124 ], [ %152, %157 ]
  %161 = trunc i64 %160 to i32
  br label %162

162:                                              ; preds = %158, %156, %96
  %163 = phi i32 [ %97, %96 ], [ -1, %156 ], [ %159, %158 ]
  %164 = phi i32 [ %98, %96 ], [ -1, %156 ], [ %161, %158 ]
  %165 = phi i32 [ %101, %96 ], [ -1, %156 ], [ 0, %158 ]
  %166 = phi i32 [ %99, %96 ], [ -1, %156 ], [ %161, %158 ]
  %167 = or i32 %166, %165
  %168 = icmp sgt i32 %167, -1
  br i1 %168, label %169, label %186

169:                                              ; preds = %162
  %170 = zext i32 %166 to i64
  %171 = getelementptr inbounds ptr, ptr %91, i64 %170
  %172 = load ptr, ptr %171, align 8, !tbaa !59
  %173 = getelementptr inbounds %"class.dealii::internal::Triangulation::TriaLevel", ptr %172, i64 0, i32 4, i32 0, i32 3
  %174 = load ptr, ptr %173, align 8, !tbaa !67
  %175 = lshr i32 %165, 6
  %176 = zext i32 %175 to i64
  %177 = getelementptr inbounds i64, ptr %174, i64 %176
  %178 = and i32 %165, 63
  %179 = zext i32 %178 to i64
  %180 = shl nuw i64 1, %179
  %181 = load i64, ptr %177, align 8, !tbaa !69
  %182 = and i64 %181, %180
  %183 = icmp eq i64 %182, 0
  br i1 %183, label %184, label %186

184:                                              ; preds = %169, %189
  %185 = phi i32 [ %166, %169 ], [ %164, %189 ]
  br label %96

186:                                              ; preds = %169, %162
  store i32 %165, ptr %56, align 4, !tbaa !54
  %187 = or i32 %165, %164
  %188 = icmp sgt i32 %187, -1
  br i1 %188, label %189, label %200

189:                                              ; preds = %186
  %190 = zext i32 %164 to i64
  %191 = getelementptr inbounds ptr, ptr %91, i64 %190
  %192 = load ptr, ptr %191, align 8, !tbaa !59
  %193 = getelementptr inbounds %"class.dealii::internal::Triangulation::TriaLevel", ptr %192, i64 0, i32 4, i32 0, i32 1
  %194 = shl i32 %165, 2
  %195 = zext i32 %194 to i64
  %196 = load ptr, ptr %193, align 8, !tbaa !70
  %197 = getelementptr inbounds i32, ptr %196, i64 %195
  %198 = load i32, ptr %197, align 4, !tbaa !72
  %199 = icmp eq i32 %198, -1
  br i1 %199, label %200, label %184

200:                                              ; preds = %186, %189
  %201 = load i32, ptr %57, align 4, !tbaa !54
  %202 = icmp ne i32 %165, %201
  %203 = load i32, ptr %13, align 8
  %204 = icmp ne i32 %163, %203
  %205 = select i1 %202, i1 true, i1 %204
  br i1 %205, label %684, label %686

206:                                              ; preds = %24
  %207 = landingpad { ptr, i32 }
          cleanup
  br label %727

208:                                              ; preds = %695, %28
  %209 = landingpad { ptr, i32 }
          cleanup
  br label %723

210:                                              ; preds = %36
  %211 = landingpad { ptr, i32 }
          cleanup
  br label %716

212:                                              ; preds = %42
  %213 = landingpad { ptr, i32 }
          cleanup
  br label %711

214:                                              ; preds = %53, %51, %48
  %215 = landingpad { ptr, i32 }
          cleanup
  br label %709

216:                                              ; preds = %684, %65
  %217 = phi i64 [ 0, %65 ], [ %685, %684 ]
  %218 = load ptr, ptr %66, align 8, !tbaa !56, !noalias !73
  %219 = getelementptr inbounds %"class.dealii::Triangulation", ptr %218, i64 0, i32 1
  %220 = load i32, ptr %12, align 8, !tbaa !63, !noalias !73
  %221 = sext i32 %220 to i64
  %222 = load ptr, ptr %219, align 8, !tbaa !57, !noalias !73
  %223 = getelementptr inbounds ptr, ptr %222, i64 %221
  %224 = load ptr, ptr %223, align 8, !tbaa !59, !noalias !73
  %225 = getelementptr inbounds %"class.dealii::internal::Triangulation::TriaLevel", ptr %224, i64 0, i32 4
  %226 = load i32, ptr %56, align 4, !tbaa !54, !noalias !73
  %227 = sext i32 %226 to i64
  %228 = load ptr, ptr %225, align 8, !tbaa !62, !noalias !73
  %229 = getelementptr inbounds %"class.dealii::internal::Triangulation::TriaObject", ptr %228, i64 %227
  %230 = getelementptr inbounds [6 x i32], ptr %229, i64 0, i64 %217
  %231 = load i32, ptr %230, align 4, !tbaa !72, !noalias !73
  %232 = getelementptr inbounds %"class.dealii::Triangulation", ptr %218, i64 0, i32 2
  %233 = load ptr, ptr %232, align 8, !tbaa !74
  %234 = getelementptr inbounds %"class.dealii::internal::Triangulation::TriaObjects.223", ptr %233, i64 0, i32 5
  %235 = sext i32 %231 to i64
  %236 = load ptr, ptr %234, align 8, !tbaa !102
  %237 = getelementptr inbounds i8, ptr %236, i64 %235
  %238 = load i8, ptr %237, align 1, !tbaa !104
  %239 = icmp eq i8 %238, -1
  %240 = load ptr, ptr %68, align 8
  %241 = icmp eq ptr %240, null
  %242 = select i1 %239, i1 true, i1 %241
  br i1 %242, label %681, label %243

243:                                              ; preds = %216, %243
  %244 = phi ptr [ %253, %243 ], [ %240, %216 ]
  %245 = phi ptr [ %251, %243 ], [ %69, %216 ]
  %246 = getelementptr inbounds %"struct.std::_Rb_tree_node", ptr %244, i64 0, i32 1
  %247 = load i8, ptr %246, align 1, !tbaa !104
  %248 = icmp ult i8 %247, %238
  %249 = getelementptr inbounds %"struct.std::_Rb_tree_node_base", ptr %244, i64 0, i32 3
  %250 = getelementptr inbounds %"struct.std::_Rb_tree_node_base", ptr %244, i64 0, i32 2
  %251 = select i1 %248, ptr %245, ptr %244
  %252 = select i1 %248, ptr %249, ptr %250
  %253 = load ptr, ptr %252, align 8, !tbaa !59
  %254 = icmp eq ptr %253, null
  br i1 %254, label %255, label %243

255:                                              ; preds = %243
  %256 = icmp eq ptr %251, %69
  br i1 %256, label %681, label %257

257:                                              ; preds = %255
  %258 = getelementptr inbounds %"struct.std::_Rb_tree_node", ptr %251, i64 0, i32 1
  %259 = load i8, ptr %258, align 1, !tbaa !104
  %260 = icmp ugt i8 %259, %238
  br i1 %260, label %681, label %261

261:                                              ; preds = %257
  %262 = trunc i64 %217 to i32
  invoke void @_ZN6dealii12FEFaceValuesILi3ELi3EE6reinitERKNS_12TriaIteratorINS_15DoFCellAccessorINS_10DoFHandlerILi3ELi3EEEEEEEj(ptr noundef nonnull align 8 dereferenceable(784) %9, ptr noundef nonnull align 8 dereferenceable(24) %12, i32 noundef %262)
          to label %263 unwind label %608

263:                                              ; preds = %261
  %264 = load ptr, ptr %70, align 8, !tbaa !8
  %265 = load ptr, ptr %264, align 8, !tbaa !5
  %266 = getelementptr inbounds ptr, ptr %265, i64 6
  %267 = load ptr, ptr %266, align 8
  invoke void %267(ptr noundef nonnull align 8 dereferenceable(92) %264, ptr noundef nonnull align 8 dereferenceable(24) %71, ptr noundef nonnull align 8 dereferenceable(24) %11, i32 noundef 0)
          to label %268 unwind label %608

268:                                              ; preds = %263
  %269 = load i32, ptr %72, align 4, !tbaa !72
  %270 = load i32, ptr %73, align 8, !tbaa !72
  %271 = mul i32 %270, %269
  %272 = icmp eq i32 %271, 0
  br i1 %272, label %277, label %273

273:                                              ; preds = %268
  %274 = load ptr, ptr %74, align 8, !tbaa !192
  %275 = zext i32 %271 to i64
  %276 = shl nuw nsw i64 %275, 3
  call void @llvm.memset.p0.i64(ptr align 8 %274, i8 0, i64 %276, i1 false), !tbaa !47
  br label %277

277:                                              ; preds = %268, %273
  %278 = load ptr, ptr %67, align 8, !tbaa !113
  %279 = getelementptr inbounds %"class.dealii::DoFHandler", ptr %278, i64 0, i32 2
  %280 = load ptr, ptr %279, align 8, !tbaa !117
  %281 = getelementptr inbounds i8, ptr %280, i64 112
  %282 = load i32, ptr %281, align 8, !tbaa !110
  %283 = icmp eq i32 %282, 0
  br i1 %283, label %306, label %284

284:                                              ; preds = %277
  %285 = getelementptr inbounds %"class.dealii::DoFHandler", ptr %278, i64 0, i32 3
  %286 = load ptr, ptr %285, align 8, !tbaa !119
  %287 = load i32, ptr %12, align 8, !tbaa !63
  %288 = sext i32 %287 to i64
  %289 = getelementptr inbounds ptr, ptr %286, i64 %288
  %290 = load ptr, ptr %289, align 8, !tbaa !59
  %291 = load ptr, ptr %290, align 8, !tbaa !121
  %292 = load i32, ptr %56, align 4, !tbaa !54
  %293 = mul i32 %292, %282
  %294 = zext i32 %293 to i64
  %295 = getelementptr inbounds i32, ptr %291, i64 %294
  br label %296

296:                                              ; preds = %296, %284
  %297 = phi i64 [ 0, %284 ], [ %301, %296 ]
  %298 = phi ptr [ %295, %284 ], [ %302, %296 ]
  %299 = load i32, ptr %298, align 4, !tbaa !72
  %300 = getelementptr inbounds i32, ptr %29, i64 %297
  store i32 %299, ptr %300, align 4, !tbaa !72
  %301 = add nuw nsw i64 %297, 1
  %302 = getelementptr inbounds i32, ptr %298, i64 1
  %303 = load i32, ptr %281, align 8, !tbaa !110
  %304 = zext i32 %303 to i64
  %305 = icmp ult i64 %301, %304
  br i1 %305, label %296, label %306

306:                                              ; preds = %296, %277
  %307 = load i32, ptr %31, align 4, !tbaa !122
  %308 = icmp eq i32 %307, 0
  br i1 %308, label %607, label %309

309:                                              ; preds = %306
  br i1 %23, label %681, label %310

310:                                              ; preds = %309
  %311 = load ptr, ptr %75, align 8, !tbaa !165
  %312 = zext i32 %307 to i64
  br label %313

313:                                              ; preds = %604, %310
  %314 = phi i64 [ %605, %604 ], [ 0, %310 ]
  %315 = trunc i64 %314 to i32
  %316 = trunc i64 %314 to i32
  %317 = trunc i64 %314 to i32
  %318 = trunc i64 %314 to i32
  br label %583

319:                                              ; preds = %580
  %320 = add nuw nsw i64 %584, 1
  %321 = icmp eq i64 %320, %22
  br i1 %321, label %604, label %583

322:                                              ; preds = %583, %580
  %323 = phi i64 [ 0, %583 ], [ %581, %580 ]
  %324 = load i64, ptr %585, align 4
  %325 = trunc i64 %324 to i32
  %326 = getelementptr inbounds %"struct.std::pair", ptr %311, i64 %323
  %327 = load i64, ptr %326, align 4
  %328 = trunc i64 %327 to i32
  %329 = icmp eq i32 %325, %328
  br i1 %329, label %330, label %580

330:                                              ; preds = %322
  %331 = load i32, ptr %587, align 8, !tbaa !49
  %332 = icmp ugt i32 %331, %325
  %333 = icmp ugt i32 %325, 1
  %334 = and i1 %332, %333
  br i1 %334, label %335, label %580

335:                                              ; preds = %330
  %336 = load i8, ptr %589, align 4, !tbaa !167, !range !190, !noundef !73
  %337 = icmp eq i8 %336, 0
  br i1 %337, label %338, label %372

338:                                              ; preds = %335
  %339 = load ptr, ptr %590, align 8, !tbaa !121
  %340 = getelementptr inbounds i32, ptr %339, i64 %584
  %341 = load i32, ptr %340, align 4, !tbaa !72
  %342 = icmp eq i32 %341, 1
  br i1 %342, label %372, label %343

343:                                              ; preds = %338
  %344 = load ptr, ptr %591, align 8, !tbaa !191
  %345 = getelementptr inbounds %"class.std::vector.66", ptr %344, i64 %584
  %346 = load ptr, ptr %345, align 8, !tbaa !67
  %347 = load i64, ptr %346, align 8, !tbaa !69
  %348 = and i64 %347, 4
  %349 = icmp eq i64 %348, 0
  br i1 %349, label %394, label %350

350:                                              ; preds = %343
  %351 = load i32, ptr %593, align 4, !tbaa !72
  br label %352

352:                                              ; preds = %352, %350
  %353 = phi i64 [ %360, %352 ], [ 0, %350 ]
  %354 = phi i32 [ %365, %352 ], [ 0, %350 ]
  %355 = phi ptr [ %364, %352 ], [ %346, %350 ]
  %356 = zext i32 %354 to i64
  %357 = load i64, ptr %355, align 8, !tbaa !69
  %358 = lshr i64 %357, %356
  %359 = and i64 %358, 1
  %360 = add nuw nsw i64 %359, %353
  %361 = add i32 %354, 1
  %362 = icmp eq i32 %354, 63
  %363 = zext i1 %362 to i64
  %364 = getelementptr inbounds i64, ptr %355, i64 %363
  %365 = select i1 %362, i32 0, i32 %361
  %366 = icmp ne ptr %364, %346
  %367 = icmp ne i32 %365, 2
  %368 = or i1 %367, %366
  br i1 %368, label %352, label %369

369:                                              ; preds = %352
  %370 = trunc i64 %360 to i32
  %371 = add i32 %351, %370
  br label %380

372:                                              ; preds = %338, %335
  %373 = load ptr, ptr %594, align 8, !tbaa !165
  %374 = getelementptr inbounds %"struct.std::pair", ptr %373, i64 %584
  %375 = load i64, ptr %374, align 4
  %376 = and i64 %375, 4294967295
  %377 = icmp eq i64 %376, 2
  br i1 %377, label %378, label %387

378:                                              ; preds = %372
  %379 = load i32, ptr %593, align 4, !tbaa !72
  br label %380

380:                                              ; preds = %378, %369
  %381 = phi i32 [ %371, %369 ], [ %379, %378 ]
  %382 = mul i32 %596, %381
  %383 = add i32 %382, %315
  %384 = zext i32 %383 to i64
  %385 = getelementptr inbounds double, ptr %595, i64 %384
  %386 = load double, ptr %385, align 8, !tbaa !47
  br label %387

387:                                              ; preds = %380, %372
  %388 = phi double [ 0.000000e+00, %372 ], [ %386, %380 ]
  br i1 %337, label %389, label %425

389:                                              ; preds = %387
  %390 = load ptr, ptr %590, align 8, !tbaa !121
  %391 = getelementptr inbounds i32, ptr %390, i64 %584
  %392 = load i32, ptr %391, align 4, !tbaa !72
  %393 = icmp eq i32 %392, 1
  br i1 %393, label %425, label %394

394:                                              ; preds = %343, %389
  %395 = phi double [ %388, %389 ], [ 0.000000e+00, %343 ]
  %396 = phi ptr [ %390, %389 ], [ %339, %343 ]
  %397 = load ptr, ptr %591, align 8, !tbaa !191
  %398 = getelementptr inbounds %"class.std::vector.66", ptr %397, i64 %584
  %399 = load ptr, ptr %398, align 8, !tbaa !67
  %400 = load i64, ptr %399, align 8, !tbaa !69
  %401 = and i64 %400, 8
  %402 = icmp eq i64 %401, 0
  br i1 %402, label %446, label %403

403:                                              ; preds = %394
  %404 = load i32, ptr %593, align 4, !tbaa !72
  br label %405

405:                                              ; preds = %405, %403
  %406 = phi i64 [ %413, %405 ], [ 0, %403 ]
  %407 = phi i32 [ %418, %405 ], [ 0, %403 ]
  %408 = phi ptr [ %417, %405 ], [ %399, %403 ]
  %409 = zext i32 %407 to i64
  %410 = load i64, ptr %408, align 8, !tbaa !69
  %411 = lshr i64 %410, %409
  %412 = and i64 %411, 1
  %413 = add nuw nsw i64 %412, %406
  %414 = add i32 %407, 1
  %415 = icmp eq i32 %407, 63
  %416 = zext i1 %415 to i64
  %417 = getelementptr inbounds i64, ptr %408, i64 %416
  %418 = select i1 %415, i32 0, i32 %414
  %419 = icmp ne ptr %417, %399
  %420 = icmp ne i32 %418, 3
  %421 = or i1 %420, %419
  br i1 %421, label %405, label %422

422:                                              ; preds = %405
  %423 = trunc i64 %413 to i32
  %424 = add i32 %404, %423
  br label %433

425:                                              ; preds = %389, %387
  %426 = load ptr, ptr %594, align 8, !tbaa !165
  %427 = getelementptr inbounds %"struct.std::pair", ptr %426, i64 %584
  %428 = load i64, ptr %427, align 4
  %429 = and i64 %428, 4294967295
  %430 = icmp eq i64 %429, 3
  br i1 %430, label %431, label %441

431:                                              ; preds = %425
  %432 = load i32, ptr %593, align 4, !tbaa !72
  br label %433

433:                                              ; preds = %431, %422
  %434 = phi double [ %395, %422 ], [ %388, %431 ]
  %435 = phi i32 [ %424, %422 ], [ %432, %431 ]
  %436 = mul i32 %596, %435
  %437 = add i32 %436, %316
  %438 = zext i32 %437 to i64
  %439 = getelementptr inbounds double, ptr %595, i64 %438
  %440 = load double, ptr %439, align 8, !tbaa !47
  br label %441

441:                                              ; preds = %433, %425
  %442 = phi double [ %388, %425 ], [ %434, %433 ]
  %443 = phi double [ 0.000000e+00, %425 ], [ %440, %433 ]
  br i1 %337, label %444, label %483

444:                                              ; preds = %441
  %445 = load ptr, ptr %590, align 8, !tbaa !121
  br label %446

446:                                              ; preds = %444, %394
  %447 = phi ptr [ %445, %444 ], [ %396, %394 ]
  %448 = phi double [ %443, %444 ], [ 0.000000e+00, %394 ]
  %449 = phi double [ %442, %444 ], [ %395, %394 ]
  %450 = getelementptr inbounds i32, ptr %447, i64 %323
  %451 = load i32, ptr %450, align 4, !tbaa !72
  %452 = icmp eq i32 %451, 1
  br i1 %452, label %483, label %453

453:                                              ; preds = %446
  %454 = load ptr, ptr %591, align 8, !tbaa !191
  %455 = getelementptr inbounds %"class.std::vector.66", ptr %454, i64 %323
  %456 = load ptr, ptr %455, align 8, !tbaa !67
  %457 = load i64, ptr %456, align 8, !tbaa !69
  %458 = and i64 %457, 4
  %459 = icmp eq i64 %458, 0
  br i1 %459, label %512, label %460

460:                                              ; preds = %453
  %461 = getelementptr inbounds i32, ptr %592, i64 %323
  %462 = load i32, ptr %461, align 4, !tbaa !72
  br label %463

463:                                              ; preds = %463, %460
  %464 = phi i64 [ %471, %463 ], [ 0, %460 ]
  %465 = phi i32 [ %476, %463 ], [ 0, %460 ]
  %466 = phi ptr [ %475, %463 ], [ %456, %460 ]
  %467 = zext i32 %465 to i64
  %468 = load i64, ptr %466, align 8, !tbaa !69
  %469 = lshr i64 %468, %467
  %470 = and i64 %469, 1
  %471 = add nuw nsw i64 %470, %464
  %472 = add i32 %465, 1
  %473 = icmp eq i32 %465, 63
  %474 = zext i1 %473 to i64
  %475 = getelementptr inbounds i64, ptr %466, i64 %474
  %476 = select i1 %473, i32 0, i32 %472
  %477 = icmp ne ptr %475, %456
  %478 = icmp ne i32 %476, 2
  %479 = or i1 %478, %477
  br i1 %479, label %463, label %480

480:                                              ; preds = %463
  %481 = trunc i64 %471 to i32
  %482 = add i32 %462, %481
  br label %494

483:                                              ; preds = %446, %441
  %484 = phi double [ %448, %446 ], [ %443, %441 ]
  %485 = phi double [ %449, %446 ], [ %442, %441 ]
  %486 = load ptr, ptr %594, align 8, !tbaa !165
  %487 = getelementptr inbounds %"struct.std::pair", ptr %486, i64 %323
  %488 = load i64, ptr %487, align 4
  %489 = and i64 %488, 4294967295
  %490 = icmp eq i64 %489, 2
  br i1 %490, label %491, label %503

491:                                              ; preds = %483
  %492 = getelementptr inbounds i32, ptr %592, i64 %323
  %493 = load i32, ptr %492, align 4, !tbaa !72
  br label %494

494:                                              ; preds = %491, %480
  %495 = phi double [ %448, %480 ], [ %484, %491 ]
  %496 = phi double [ %449, %480 ], [ %485, %491 ]
  %497 = phi i32 [ %482, %480 ], [ %493, %491 ]
  %498 = mul i32 %596, %497
  %499 = add i32 %498, %317
  %500 = zext i32 %499 to i64
  %501 = getelementptr inbounds double, ptr %595, i64 %500
  %502 = load double, ptr %501, align 8, !tbaa !47
  br label %503

503:                                              ; preds = %494, %483
  %504 = phi double [ %484, %483 ], [ %495, %494 ]
  %505 = phi double [ %485, %483 ], [ %496, %494 ]
  %506 = phi double [ 0.000000e+00, %483 ], [ %502, %494 ]
  br i1 %337, label %507, label %545

507:                                              ; preds = %503
  %508 = load ptr, ptr %590, align 8, !tbaa !121
  %509 = getelementptr inbounds i32, ptr %508, i64 %323
  %510 = load i32, ptr %509, align 4, !tbaa !72
  %511 = icmp eq i32 %510, 1
  br i1 %511, label %545, label %512

512:                                              ; preds = %453, %507
  %513 = phi double [ %504, %507 ], [ %448, %453 ]
  %514 = phi double [ %505, %507 ], [ %449, %453 ]
  %515 = phi double [ %506, %507 ], [ 0.000000e+00, %453 ]
  %516 = load ptr, ptr %591, align 8, !tbaa !191
  %517 = getelementptr inbounds %"class.std::vector.66", ptr %516, i64 %323
  %518 = load ptr, ptr %517, align 8, !tbaa !67
  %519 = load i64, ptr %518, align 8, !tbaa !69
  %520 = and i64 %519, 8
  %521 = icmp eq i64 %520, 0
  br i1 %521, label %564, label %522

522:                                              ; preds = %512
  %523 = getelementptr inbounds i32, ptr %592, i64 %323
  %524 = load i32, ptr %523, align 4, !tbaa !72
  br label %525

525:                                              ; preds = %525, %522
  %526 = phi i64 [ %533, %525 ], [ 0, %522 ]
  %527 = phi i32 [ %538, %525 ], [ 0, %522 ]
  %528 = phi ptr [ %537, %525 ], [ %518, %522 ]
  %529 = zext i32 %527 to i64
  %530 = load i64, ptr %528, align 8, !tbaa !69
  %531 = lshr i64 %530, %529
  %532 = and i64 %531, 1
  %533 = add nuw nsw i64 %532, %526
  %534 = add i32 %527, 1
  %535 = icmp eq i32 %527, 63
  %536 = zext i1 %535 to i64
  %537 = getelementptr inbounds i64, ptr %528, i64 %536
  %538 = select i1 %535, i32 0, i32 %534
  %539 = icmp ne ptr %537, %518
  %540 = icmp ne i32 %538, 3
  %541 = or i1 %540, %539
  br i1 %541, label %525, label %542

542:                                              ; preds = %525
  %543 = trunc i64 %533 to i32
  %544 = add i32 %524, %543
  br label %554

545:                                              ; preds = %507, %503
  %546 = load ptr, ptr %594, align 8, !tbaa !165
  %547 = getelementptr inbounds %"struct.std::pair", ptr %546, i64 %323
  %548 = load i64, ptr %547, align 4
  %549 = and i64 %548, 4294967295
  %550 = icmp eq i64 %549, 3
  br i1 %550, label %551, label %564

551:                                              ; preds = %545
  %552 = getelementptr inbounds i32, ptr %592, i64 %323
  %553 = load i32, ptr %552, align 4, !tbaa !72
  br label %554

554:                                              ; preds = %551, %542
  %555 = phi double [ %515, %542 ], [ %506, %551 ]
  %556 = phi double [ %514, %542 ], [ %505, %551 ]
  %557 = phi double [ %513, %542 ], [ %504, %551 ]
  %558 = phi i32 [ %544, %542 ], [ %553, %551 ]
  %559 = mul i32 %596, %558
  %560 = add i32 %559, %318
  %561 = zext i32 %560 to i64
  %562 = getelementptr inbounds double, ptr %595, i64 %561
  %563 = load double, ptr %562, align 8, !tbaa !47
  br label %564

564:                                              ; preds = %554, %545, %512
  %565 = phi double [ %506, %545 ], [ %515, %512 ], [ %555, %554 ]
  %566 = phi double [ %505, %545 ], [ %514, %512 ], [ %556, %554 ]
  %567 = phi double [ %504, %545 ], [ %513, %512 ], [ %557, %554 ]
  %568 = phi double [ 0.000000e+00, %545 ], [ 0.000000e+00, %512 ], [ %563, %554 ]
  %569 = fmul double %567, %568
  %570 = call double @llvm.fmuladd.f64(double %566, double %565, double %569)
  %571 = load double, ptr %598, align 8, !tbaa !47
  %572 = load double, ptr %600, align 8, !tbaa !47
  %573 = fmul double %570, %571
  %574 = trunc i64 %323 to i32
  %575 = add i32 %603, %574
  %576 = zext i32 %575 to i64
  %577 = getelementptr inbounds double, ptr %601, i64 %576
  %578 = load double, ptr %577, align 8, !tbaa !47
  %579 = call double @llvm.fmuladd.f64(double %573, double %572, double %578)
  store double %579, ptr %577, align 8, !tbaa !47
  br label %580

580:                                              ; preds = %564, %330, %322
  %581 = add nuw nsw i64 %323, 1
  %582 = icmp eq i64 %581, %22
  br i1 %582, label %319, label %322

583:                                              ; preds = %313, %319
  %584 = phi i64 [ 0, %313 ], [ %320, %319 ]
  %585 = getelementptr inbounds %"struct.std::pair", ptr %311, i64 %584
  %586 = load ptr, ptr %76, align 8
  %587 = getelementptr inbounds %"class.libparest::Slave::Stationary::ProblemDescription", ptr %586, i64 0, i32 1
  %588 = load ptr, ptr %77, align 8
  %589 = getelementptr inbounds %"class.dealii::FiniteElement", ptr %588, i64 0, i32 2
  %590 = getelementptr inbounds %"class.dealii::FiniteElement", ptr %588, i64 0, i32 20
  %591 = getelementptr inbounds %"class.dealii::FiniteElement", ptr %588, i64 0, i32 19
  %592 = load ptr, ptr %78, align 8
  %593 = getelementptr inbounds i32, ptr %592, i64 %584
  %594 = getelementptr inbounds %"class.dealii::FiniteElement", ptr %588, i64 0, i32 12
  %595 = load ptr, ptr %79, align 8
  %596 = load i32, ptr %80, align 8
  %597 = load ptr, ptr %11, align 8
  %598 = getelementptr inbounds double, ptr %597, i64 %314
  %599 = load ptr, ptr %81, align 8
  %600 = getelementptr inbounds double, ptr %599, i64 %314
  %601 = load ptr, ptr %74, align 8
  %602 = trunc i64 %584 to i32
  %603 = mul i32 %270, %602
  br label %322

604:                                              ; preds = %319
  %605 = add nuw nsw i64 %314, 1
  %606 = icmp eq i64 %605, %312
  br i1 %606, label %607, label %313

607:                                              ; preds = %604, %306
  br i1 %23, label %681, label %610

608:                                              ; preds = %263, %261
  %609 = landingpad { ptr, i32 }
          cleanup
  br label %709

610:                                              ; preds = %607, %614
  %611 = phi i64 [ %615, %614 ], [ 0, %607 ]
  %612 = getelementptr inbounds i32, ptr %29, i64 %611
  %613 = trunc i64 %611 to i32
  br label %617

614:                                              ; preds = %676
  %615 = add nuw nsw i64 %611, 1
  %616 = icmp eq i64 %615, %22
  br i1 %616, label %681, label %610

617:                                              ; preds = %610, %676
  %618 = phi i64 [ 0, %610 ], [ %677, %676 ]
  %619 = load i32, ptr %612, align 4, !tbaa !72
  %620 = getelementptr inbounds i32, ptr %29, i64 %618
  %621 = load i32, ptr %620, align 4, !tbaa !72
  %622 = load ptr, ptr %74, align 8, !tbaa !192
  %623 = load i32, ptr %73, align 8, !tbaa !72
  %624 = mul i32 %623, %613
  %625 = trunc i64 %618 to i32
  %626 = add i32 %624, %625
  %627 = zext i32 %626 to i64
  %628 = getelementptr inbounds double, ptr %622, i64 %627
  %629 = load double, ptr %628, align 8, !tbaa !47
  %630 = fptrunc double %629 to float
  %631 = fpext float %630 to double
  %632 = fcmp oeq float %630, 0.000000e+00
  br i1 %632, label %676, label %633

633:                                              ; preds = %617
  %634 = load i32, ptr %82, align 8, !tbaa !163
  %635 = load ptr, ptr %83, align 8, !tbaa !121
  br label %636

636:                                              ; preds = %636, %633
  %637 = phi i32 [ %634, %633 ], [ %638, %636 ]
  %638 = add i32 %637, -1
  %639 = sext i32 %638 to i64
  %640 = getelementptr inbounds i32, ptr %635, i64 %639
  %641 = load i32, ptr %640, align 4, !tbaa !72
  %642 = icmp ugt i32 %641, %619
  br i1 %642, label %636, label %643

643:                                              ; preds = %636
  %644 = load i32, ptr %84, align 8, !tbaa !163
  %645 = load ptr, ptr %85, align 8, !tbaa !121
  br label %646

646:                                              ; preds = %646, %643
  %647 = phi i32 [ %644, %643 ], [ %648, %646 ]
  %648 = add i32 %647, -1
  %649 = sext i32 %648 to i64
  %650 = getelementptr inbounds i32, ptr %645, i64 %649
  %651 = load i32, ptr %650, align 4, !tbaa !72
  %652 = icmp ugt i32 %651, %621
  br i1 %652, label %646, label %653

653:                                              ; preds = %646
  %654 = sub i32 %619, %641
  %655 = sub i32 %621, %651
  %656 = load ptr, ptr %86, align 8, !tbaa !194, !noalias !196
  %657 = load i32, ptr %87, align 8, !tbaa !72, !noalias !196
  %658 = mul i32 %657, %638
  %659 = zext i32 %658 to i64
  %660 = getelementptr inbounds %"class.dealii::SmartPointer.260", ptr %656, i64 %659
  %661 = zext i32 %648 to i64
  %662 = getelementptr inbounds %"class.dealii::SmartPointer.260", ptr %660, i64 %661
  %663 = load ptr, ptr %662, align 8, !tbaa !199
  %664 = getelementptr inbounds %"class.dealii::SparseMatrix", ptr %663, i64 0, i32 1
  %665 = load ptr, ptr %664, align 8, !tbaa !201
  %666 = invoke noundef i32 @_ZNK6dealii15SparsityPatternclEjj(ptr noundef nonnull align 8 dereferenceable(122) %665, i32 noundef %654, i32 noundef %655)
          to label %667 unwind label %679

667:                                              ; preds = %653
  %668 = icmp eq i32 %666, -1
  br i1 %668, label %676, label %669

669:                                              ; preds = %667
  %670 = getelementptr inbounds %"class.dealii::SparseMatrix", ptr %663, i64 0, i32 2
  %671 = load ptr, ptr %670, align 8, !tbaa !203
  %672 = zext i32 %666 to i64
  %673 = getelementptr inbounds double, ptr %671, i64 %672
  %674 = load double, ptr %673, align 8, !tbaa !47
  %675 = fadd double %674, %631
  store double %675, ptr %673, align 8, !tbaa !47
  br label %676

676:                                              ; preds = %669, %667, %617
  %677 = add nuw nsw i64 %618, 1
  %678 = icmp eq i64 %677, %22
  br i1 %678, label %614, label %617

679:                                              ; preds = %653
  %680 = landingpad { ptr, i32 }
          cleanup
  br label %709

681:                                              ; preds = %614, %309, %607, %255, %216, %257
  %682 = add nuw nsw i64 %217, 1
  %683 = icmp eq i64 %682, 6
  br i1 %683, label %88, label %684

684:                                              ; preds = %681, %200
  %685 = phi i64 [ %682, %681 ], [ 0, %200 ]
  br label %216

686:                                              ; preds = %200, %55
  call void @llvm.lifetime.end.p0(i64 24, ptr nonnull %13) #18
  call void @llvm.lifetime.end.p0(i64 24, ptr nonnull %12) #18
  %687 = load ptr, ptr %11, align 8, !tbaa !50
  %688 = icmp eq ptr %687, null
  br i1 %688, label %690, label %689

689:                                              ; preds = %686
  call void @_ZdlPv(ptr noundef nonnull %687) #20
  br label %690

690:                                              ; preds = %689, %686
  call void @llvm.lifetime.end.p0(i64 24, ptr nonnull %11) #18
  store ptr getelementptr inbounds ({ [4 x ptr] }, ptr @_ZTVN6dealii9TableBaseILi2EdEE, i64 0, inrange i32 0, i64 2), ptr %10, align 8, !tbaa !5
  %691 = getelementptr inbounds %"class.dealii::TableBase", ptr %10, i64 0, i32 1
  %692 = load ptr, ptr %691, align 8, !tbaa !192
  %693 = icmp eq ptr %692, null
  br i1 %693, label %695, label %694

694:                                              ; preds = %690
  call void @_ZdaPv(ptr noundef nonnull %692) #20
  br label %695

695:                                              ; preds = %694, %690
  invoke void @_ZN6dealii11SubscriptorD2Ev(ptr noundef nonnull align 8 dereferenceable(72) %10)
          to label %696 unwind label %208

696:                                              ; preds = %695
  call void @llvm.lifetime.end.p0(i64 96, ptr nonnull %10) #18
  %697 = icmp eq ptr %29, null
  br i1 %697, label %699, label %698

698:                                              ; preds = %696
  call void @_ZdlPv(ptr noundef nonnull %29) #20
  br label %699

699:                                              ; preds = %698, %696
  store ptr getelementptr inbounds ({ [4 x ptr] }, ptr @_ZTVN6dealii16FEFaceValuesBaseILi3ELi3EEE, i64 0, inrange i32 0, i64 2), ptr %9, align 8, !tbaa !5
  %700 = getelementptr inbounds %"class.dealii::FEFaceValuesBase", ptr %9, i64 0, i32 2
  invoke void @_ZN6dealii10QuadratureILi2EED1Ev(ptr noundef nonnull align 8 dereferenceable(128) %700)
          to label %708 unwind label %701

701:                                              ; preds = %699
  %702 = landingpad { ptr, i32 }
          cleanup
  invoke void @_ZN6dealii12FEValuesBaseILi3ELi3EED2Ev(ptr noundef nonnull align 8 dereferenceable(648) %9)
          to label %703 unwind label %705

703:                                              ; preds = %701, %736
  %704 = phi { ptr, i32 } [ %728, %736 ], [ %702, %701 ]
  resume { ptr, i32 } %704

705:                                              ; preds = %701
  %706 = landingpad { ptr, i32 }
          catch ptr null
  %707 = extractvalue { ptr, i32 } %706, 0
  call void @__clang_call_terminate(ptr %707) #17
  unreachable

708:                                              ; preds = %699
  call void @_ZN6dealii12FEValuesBaseILi3ELi3EED2Ev(ptr noundef nonnull align 8 dereferenceable(648) %9)
  call void @llvm.lifetime.end.p0(i64 784, ptr nonnull %9) #18
  ret void

709:                                              ; preds = %608, %679, %214
  %710 = phi { ptr, i32 } [ %215, %214 ], [ %680, %679 ], [ %609, %608 ]
  call void @llvm.lifetime.end.p0(i64 24, ptr nonnull %13) #18
  br label %711

711:                                              ; preds = %709, %212
  %712 = phi { ptr, i32 } [ %710, %709 ], [ %213, %212 ]
  call void @llvm.lifetime.end.p0(i64 24, ptr nonnull %12) #18
  %713 = load ptr, ptr %11, align 8, !tbaa !50
  %714 = icmp eq ptr %713, null
  br i1 %714, label %716, label %715

715:                                              ; preds = %711
  call void @_ZdlPv(ptr noundef nonnull %713) #20
  br label %716

716:                                              ; preds = %715, %711, %210
  %717 = phi { ptr, i32 } [ %211, %210 ], [ %712, %711 ], [ %712, %715 ]
  call void @llvm.lifetime.end.p0(i64 24, ptr nonnull %11) #18
  store ptr getelementptr inbounds ({ [4 x ptr] }, ptr @_ZTVN6dealii9TableBaseILi2EdEE, i64 0, inrange i32 0, i64 2), ptr %10, align 8, !tbaa !5
  %718 = getelementptr inbounds %"class.dealii::TableBase", ptr %10, i64 0, i32 1
  %719 = load ptr, ptr %718, align 8, !tbaa !192
  %720 = icmp eq ptr %719, null
  br i1 %720, label %722, label %721

721:                                              ; preds = %716
  call void @_ZdaPv(ptr noundef nonnull %719) #20
  br label %722

722:                                              ; preds = %721, %716
  invoke void @_ZN6dealii11SubscriptorD2Ev(ptr noundef nonnull align 8 dereferenceable(72) %10)
          to label %723 unwind label %737

723:                                              ; preds = %722, %208
  %724 = phi { ptr, i32 } [ %209, %208 ], [ %717, %722 ]
  call void @llvm.lifetime.end.p0(i64 96, ptr nonnull %10) #18
  %725 = icmp eq ptr %29, null
  br i1 %725, label %727, label %726

726:                                              ; preds = %723
  call void @_ZdlPv(ptr noundef nonnull %29) #20
  br label %727

727:                                              ; preds = %726, %723, %206
  %728 = phi { ptr, i32 } [ %207, %206 ], [ %724, %723 ], [ %724, %726 ]
  store ptr getelementptr inbounds ({ [4 x ptr] }, ptr @_ZTVN6dealii16FEFaceValuesBaseILi3ELi3EEE, i64 0, inrange i32 0, i64 2), ptr %9, align 8, !tbaa !5
  %729 = getelementptr inbounds %"class.dealii::FEFaceValuesBase", ptr %9, i64 0, i32 2
  invoke void @_ZN6dealii10QuadratureILi2EED1Ev(ptr noundef nonnull align 8 dereferenceable(128) %729)
          to label %730 unwind label %731

730:                                              ; preds = %727
  invoke void @_ZN6dealii12FEValuesBaseILi3ELi3EED2Ev(ptr noundef nonnull align 8 dereferenceable(648) %9)
          to label %736 unwind label %737

731:                                              ; preds = %727
  %732 = landingpad { ptr, i32 }
          catch ptr null
  invoke void @_ZN6dealii12FEValuesBaseILi3ELi3EED2Ev(ptr noundef nonnull align 8 dereferenceable(648) %9)
          to label %739 unwind label %733

733:                                              ; preds = %731
  %734 = landingpad { ptr, i32 }
          catch ptr null
  %735 = extractvalue { ptr, i32 } %734, 0
  call void @__clang_call_terminate(ptr %735) #17
  unreachable

736:                                              ; preds = %730
  call void @llvm.lifetime.end.p0(i64 784, ptr nonnull %9) #18
  br label %703

737:                                              ; preds = %730, %722
  %738 = landingpad { ptr, i32 }
          catch ptr null
  br label %739

739:                                              ; preds = %731, %737
  %740 = phi { ptr, i32 } [ %738, %737 ], [ %732, %731 ]
  %741 = extractvalue { ptr, i32 } %740, 0
  call void @__clang_call_terminate(ptr %741) #17
  unreachable
}

declare void @_ZN6dealii10FullMatrixIdEC1Ejj(ptr noundef nonnull align 8 dereferenceable(92), i32 noundef, i32 noundef) unnamed_addr #1

; Function Attrs: nounwind sspstrong uwtable
define weak_odr dso_local void @_ZNK12METomography12Measurements35ScaledWeightedDirichletMeasurements4BaseILi3EdE9m_prime_1ERKN9libparest5Slave10Stationary14Discretization4BaseILi3EEERKN6dealii10DoFHandlerILi3ELi3EEERKNSC_6VectorIdEESK_RKNS6_17MeasurementGetter9Factories4BaseILi3EEERNSH_IfEEjj(ptr noundef nonnull align 8 dereferenceable(152) %0, ptr noundef nonnull align 8 dereferenceable(96) %1, ptr noundef nonnull align 8 dereferenceable(168) %2, ptr noundef nonnull align 8 dereferenceable(88) %3, ptr noundef nonnull align 8 dereferenceable(88) %4, ptr noundef nonnull align 8 dereferenceable(8) %5, ptr noundef nonnull align 8 dereferenceable(88) %6, i32 noundef %7, i32 noundef %8) unnamed_addr #6 comdat align 2 {
  ret void
}

; Function Attrs: sspstrong uwtable
define weak_odr dso_local void @_ZN12METomography12Measurements35ScaledWeightedDirichletMeasurements4BaseILi3EfEC2ERKN9libparest5Slave10Stationary18ProblemDescriptionERKN6dealii8FunctionILi3EEERKSt3setIhSt4lessIhESaIhEE(ptr noundef nonnull align 8 dereferenceable(152) %0, ptr noundef nonnull align 8 dereferenceable(88) %1, ptr noundef nonnull align 8 dereferenceable(92) %2, ptr noundef nonnull align 8 dereferenceable(48) %3) unnamed_addr #0 comdat($_ZN12METomography12Measurements35ScaledWeightedDirichletMeasurements4BaseILi3EfEC5ERKN9libparest5Slave10Stationary18ProblemDescriptionERKN6dealii8FunctionILi3EEERKSt3setIhSt4lessIhESaIhEE) align 2 personality ptr @__gxx_personality_v0 {
  tail call void @_ZN9libparest5Slave10Stationary12Measurements4BaseILi3EfEC2ERKNS1_18ProblemDescriptionE(ptr noundef nonnull align 8 dereferenceable(88) %0, ptr noundef nonnull align 8 dereferenceable(88) %1)
  %5 = getelementptr inbounds i8, ptr %0, i64 88
  invoke void @_ZN9libparest5Slave10Stationary12Measurements23BoundaryMeasurementBaseC2ERKSt3setIhSt4lessIhESaIhEE(ptr noundef nonnull align 8 dereferenceable(48) %5, ptr noundef nonnull align 8 dereferenceable(48) %3)
          to label %6 unwind label %9

6:                                                ; preds = %4
  store ptr getelementptr inbounds ({ [14 x ptr] }, ptr @_ZTVN12METomography12Measurements35ScaledWeightedDirichletMeasurements4BaseILi3EfEE, i64 0, inrange i32 0, i64 2), ptr %0, align 8, !tbaa !5
  %7 = getelementptr inbounds %"class.METomography::Measurements::ScaledWeightedDirichletMeasurements::Base.173", ptr %0, i64 0, i32 2
  store ptr %2, ptr %7, align 8, !tbaa !8
  %8 = getelementptr inbounds %"class.METomography::Measurements::ScaledWeightedDirichletMeasurements::Base.173", ptr %0, i64 0, i32 2, i32 1
  store ptr null, ptr %8, align 8, !tbaa !12
  ret void

9:                                                ; preds = %4
  %10 = landingpad { ptr, i32 }
          cleanup
  store ptr getelementptr inbounds ({ [13 x ptr] }, ptr @_ZTVN9libparest5Slave10Stationary12Measurements4BaseILi3EfEE, i64 0, inrange i32 0, i64 2), ptr %0, align 8, !tbaa !5
  invoke void @_ZN6dealii11SubscriptorD2Ev(ptr noundef nonnull align 8 dereferenceable(72) %0)
          to label %11 unwind label %12

11:                                               ; preds = %9
  resume { ptr, i32 } %10

12:                                               ; preds = %9
  %13 = landingpad { ptr, i32 }
          catch ptr null
  %14 = extractvalue { ptr, i32 } %13, 0
  tail call void @__clang_call_terminate(ptr %14) #17
  unreachable
}

declare void @_ZN9libparest5Slave10Stationary12Measurements4BaseILi3EfEC2ERKNS1_18ProblemDescriptionE(ptr noundef nonnull align 8 dereferenceable(88), ptr noundef nonnull align 8 dereferenceable(88)) unnamed_addr #1

; Function Attrs: sspstrong uwtable
define weak_odr dso_local void @_ZNK12METomography12Measurements35ScaledWeightedDirichletMeasurements4BaseILi3EfE21compute_data_misfit_1ERKN9libparest5Slave10Stationary14Discretization4BaseILi3EEERKN6dealii11BlockVectorIdEERKNS6_17MeasurementGetter9Factories4BaseILi3EEEjjRd(ptr noundef nonnull align 8 dereferenceable(152) %0, ptr noundef nonnull align 8 dereferenceable(96) %1, ptr noundef nonnull align 8 dereferenceable(128) %2, ptr noundef nonnull align 8 dereferenceable(8) %3, i32 noundef %4, i32 noundef %5, ptr noundef nonnull align 8 dereferenceable(8) %6) unnamed_addr #0 comdat align 2 personality ptr @__gxx_personality_v0 {
  %8 = alloca %"class.dealii::FEFaceValues", align 8
  %9 = alloca %"class.std::vector.114", align 8
  %10 = alloca %"class.dealii::Vector", align 8
  %11 = alloca %"class.std::allocator.116", align 1
  %12 = alloca %"class.std::vector.114", align 8
  %13 = alloca %"class.dealii::Vector", align 8
  %14 = alloca %"class.std::allocator.116", align 1
  %15 = alloca %"class.std::vector.27", align 8
  %16 = alloca %"class.dealii::TriaActiveIterator", align 8
  %17 = alloca %"class.dealii::TriaActiveIterator", align 8
  %18 = alloca %"class.dealii::TriaActiveIterator.159", align 8
  %19 = getelementptr inbounds %"class.libparest::Slave::Stationary::Discretization::Base", ptr %1, i64 0, i32 2
  %20 = load ptr, ptr %19, align 8, !tbaa !13
  %21 = getelementptr inbounds %"class.libparest::Slave::Stationary::Discretization::FiniteElements", ptr %20, i64 0, i32 5
  %22 = load ptr, ptr %21, align 8, !tbaa !26
  %23 = getelementptr inbounds %"class.dealii::Quadrature", ptr %22, i64 0, i32 1
  %24 = load i32, ptr %23, align 8, !tbaa !28
  %25 = load ptr, ptr %3, align 8, !tbaa !5
  %26 = getelementptr inbounds ptr, ptr %25, i64 3
  %27 = load ptr, ptr %26, align 8
  %28 = tail call noundef ptr %27(ptr noundef nonnull align 8 dereferenceable(8) %3, ptr noundef nonnull align 8 dereferenceable(128) %22, i32 noundef 0)
  %29 = load ptr, ptr %19, align 8, !tbaa !13
  %30 = getelementptr inbounds %"class.libparest::Slave::Stationary::Discretization::FiniteElements", ptr %29, i64 0, i32 1
  %31 = load ptr, ptr %30, align 8, !tbaa !38
  call void @llvm.lifetime.start.p0(i64 784, ptr nonnull %8) #18
  invoke void @_ZN6dealii12FEFaceValuesILi3ELi3EEC1ERKNS_13FiniteElementILi3ELi3EEERKNS_10QuadratureILi2EEENS_11UpdateFlagsE(ptr noundef nonnull align 8 dereferenceable(784) %8, ptr noundef nonnull align 8 dereferenceable(728) %31, ptr noundef nonnull align 8 dereferenceable(128) %22, i32 noundef 49)
          to label %32 unwind label %250

32:                                               ; preds = %7
  call void @llvm.lifetime.start.p0(i64 24, ptr nonnull %9) #18
  %33 = zext i32 %24 to i64
  call void @llvm.lifetime.start.p0(i64 88, ptr nonnull %10) #18
  %34 = getelementptr inbounds %"class.libparest::Slave::Stationary::Measurements::Base.174", ptr %0, i64 0, i32 1
  %35 = load ptr, ptr %34, align 8, !tbaa !39
  %36 = getelementptr inbounds %"class.libparest::Slave::Stationary::ProblemDescription", ptr %35, i64 0, i32 4
  %37 = load i32, ptr %36, align 4, !tbaa !41
  invoke void @_ZN6dealii11SubscriptorC2Ev(ptr noundef nonnull align 8 dereferenceable(72) %10)
          to label %38 unwind label %252

38:                                               ; preds = %32
  store ptr getelementptr inbounds ({ [6 x ptr] }, ptr @_ZTVN6dealii6VectorIdEE, i64 0, inrange i32 0, i64 2), ptr %10, align 8, !tbaa !5
  %39 = getelementptr inbounds %"class.dealii::Vector", ptr %10, i64 0, i32 1
  call void @llvm.memset.p0.i64(ptr noundef nonnull align 8 dereferenceable(16) %39, i8 0, i64 16, i1 false)
  %40 = icmp eq i32 %37, 0
  br i1 %40, label %53, label %41

41:                                               ; preds = %38
  %42 = zext i32 %37 to i64
  %43 = shl nuw nsw i64 %42, 3
  %44 = invoke noalias noundef nonnull ptr @_Znam(i64 noundef %43) #19
          to label %45 unwind label %48

45:                                               ; preds = %41
  %46 = getelementptr inbounds %"class.dealii::Vector", ptr %10, i64 0, i32 3
  %47 = getelementptr inbounds %"class.dealii::Vector", ptr %10, i64 0, i32 2
  store ptr %44, ptr %46, align 8, !tbaa !43
  store i32 %37, ptr %47, align 4, !tbaa !45
  store i32 %37, ptr %39, align 8, !tbaa !46
  call void @llvm.memset.p0.i64(ptr nonnull align 8 %44, i8 0, i64 %43, i1 false), !tbaa !47
  br label %53

48:                                               ; preds = %41
  %49 = landingpad { ptr, i32 }
          cleanup
  invoke void @_ZN6dealii11SubscriptorD2Ev(ptr noundef nonnull align 8 dereferenceable(72) %10)
          to label %256 unwind label %50

50:                                               ; preds = %48
  %51 = landingpad { ptr, i32 }
          catch ptr null
  %52 = extractvalue { ptr, i32 } %51, 0
  call void @__clang_call_terminate(ptr %52) #17
  unreachable

53:                                               ; preds = %45, %38
  call void @llvm.lifetime.start.p0(i64 1, ptr nonnull %11) #18
  invoke void @_ZNSt6vectorIN6dealii6VectorIdEESaIS2_EEC2EmRKS2_RKS3_(ptr noundef nonnull align 8 dereferenceable(24) %9, i64 noundef %33, ptr noundef nonnull align 8 dereferenceable(88) %10, ptr noundef nonnull align 1 dereferenceable(1) %11)
          to label %54 unwind label %254

54:                                               ; preds = %53
  call void @llvm.lifetime.end.p0(i64 1, ptr nonnull %11) #18
  store ptr getelementptr inbounds ({ [6 x ptr] }, ptr @_ZTVN6dealii6VectorIdEE, i64 0, inrange i32 0, i64 2), ptr %10, align 8, !tbaa !5
  %55 = getelementptr inbounds %"class.dealii::Vector", ptr %10, i64 0, i32 3
  %56 = load ptr, ptr %55, align 8, !tbaa !43
  %57 = icmp eq ptr %56, null
  br i1 %57, label %59, label %58

58:                                               ; preds = %54
  call void @_ZdaPv(ptr noundef nonnull %56) #20
  store ptr null, ptr %55, align 8, !tbaa !43
  br label %59

59:                                               ; preds = %58, %54
  invoke void @_ZN6dealii11SubscriptorD2Ev(ptr noundef nonnull align 8 dereferenceable(72) %10)
          to label %60 unwind label %252

60:                                               ; preds = %59
  call void @llvm.lifetime.end.p0(i64 88, ptr nonnull %10) #18
  call void @llvm.lifetime.start.p0(i64 24, ptr nonnull %12) #18
  call void @llvm.lifetime.start.p0(i64 88, ptr nonnull %13) #18
  %61 = load ptr, ptr %34, align 8, !tbaa !39
  %62 = getelementptr inbounds %"class.libparest::Slave::Stationary::ProblemDescription", ptr %61, i64 0, i32 1
  %63 = load i32, ptr %62, align 8, !tbaa !49
  invoke void @_ZN6dealii11SubscriptorC2Ev(ptr noundef nonnull align 8 dereferenceable(72) %13)
          to label %64 unwind label %258

64:                                               ; preds = %60
  store ptr getelementptr inbounds ({ [6 x ptr] }, ptr @_ZTVN6dealii6VectorIdEE, i64 0, inrange i32 0, i64 2), ptr %13, align 8, !tbaa !5
  %65 = getelementptr inbounds %"class.dealii::Vector", ptr %13, i64 0, i32 1
  call void @llvm.memset.p0.i64(ptr noundef nonnull align 8 dereferenceable(16) %65, i8 0, i64 16, i1 false)
  %66 = icmp eq i32 %63, 0
  br i1 %66, label %79, label %67

67:                                               ; preds = %64
  %68 = zext i32 %63 to i64
  %69 = shl nuw nsw i64 %68, 3
  %70 = invoke noalias noundef nonnull ptr @_Znam(i64 noundef %69) #19
          to label %71 unwind label %74

71:                                               ; preds = %67
  %72 = getelementptr inbounds %"class.dealii::Vector", ptr %13, i64 0, i32 3
  %73 = getelementptr inbounds %"class.dealii::Vector", ptr %13, i64 0, i32 2
  store ptr %70, ptr %72, align 8, !tbaa !43
  store i32 %63, ptr %73, align 4, !tbaa !45
  store i32 %63, ptr %65, align 8, !tbaa !46
  call void @llvm.memset.p0.i64(ptr nonnull align 8 %70, i8 0, i64 %69, i1 false), !tbaa !47
  br label %79

74:                                               ; preds = %67
  %75 = landingpad { ptr, i32 }
          cleanup
  invoke void @_ZN6dealii11SubscriptorD2Ev(ptr noundef nonnull align 8 dereferenceable(72) %13)
          to label %262 unwind label %76

76:                                               ; preds = %74
  %77 = landingpad { ptr, i32 }
          catch ptr null
  %78 = extractvalue { ptr, i32 } %77, 0
  call void @__clang_call_terminate(ptr %78) #17
  unreachable

79:                                               ; preds = %71, %64
  call void @llvm.lifetime.start.p0(i64 1, ptr nonnull %14) #18
  invoke void @_ZNSt6vectorIN6dealii6VectorIdEESaIS2_EEC2EmRKS2_RKS3_(ptr noundef nonnull align 8 dereferenceable(24) %12, i64 noundef %33, ptr noundef nonnull align 8 dereferenceable(88) %13, ptr noundef nonnull align 1 dereferenceable(1) %14)
          to label %80 unwind label %260

80:                                               ; preds = %79
  call void @llvm.lifetime.end.p0(i64 1, ptr nonnull %14) #18
  store ptr getelementptr inbounds ({ [6 x ptr] }, ptr @_ZTVN6dealii6VectorIdEE, i64 0, inrange i32 0, i64 2), ptr %13, align 8, !tbaa !5
  %81 = getelementptr inbounds %"class.dealii::Vector", ptr %13, i64 0, i32 3
  %82 = load ptr, ptr %81, align 8, !tbaa !43
  %83 = icmp eq ptr %82, null
  br i1 %83, label %85, label %84

84:                                               ; preds = %80
  call void @_ZdaPv(ptr noundef nonnull %82) #20
  store ptr null, ptr %81, align 8, !tbaa !43
  br label %85

85:                                               ; preds = %84, %80
  invoke void @_ZN6dealii11SubscriptorD2Ev(ptr noundef nonnull align 8 dereferenceable(72) %13)
          to label %86 unwind label %258

86:                                               ; preds = %85
  call void @llvm.lifetime.end.p0(i64 88, ptr nonnull %13) #18
  call void @llvm.lifetime.start.p0(i64 24, ptr nonnull %15) #18
  %87 = icmp eq i32 %24, 0
  br i1 %87, label %88, label %89

88:                                               ; preds = %86
  call void @llvm.memset.p0.i64(ptr noundef nonnull align 8 dereferenceable(24) %15, i8 0, i64 24, i1 false)
  br label %95

89:                                               ; preds = %86
  %90 = shl nuw nsw i64 %33, 3
  %91 = invoke noalias noundef nonnull ptr @_Znwm(i64 noundef %90) #19
          to label %92 unwind label %264

92:                                               ; preds = %89
  store ptr %91, ptr %15, align 8, !tbaa !50
  %93 = getelementptr inbounds double, ptr %91, i64 %33
  %94 = getelementptr inbounds %"struct.std::_Vector_base<double, std::allocator<double> >::_Vector_impl_data", ptr %15, i64 0, i32 2
  store ptr %93, ptr %94, align 8, !tbaa !51
  call void @llvm.memset.p0.i64(ptr nonnull align 8 %91, i8 0, i64 %90, i1 false), !tbaa !47
  br label %95

95:                                               ; preds = %92, %88
  %96 = phi ptr [ null, %88 ], [ %93, %92 ]
  %97 = getelementptr inbounds %"struct.std::_Vector_base<double, std::allocator<double> >::_Vector_impl_data", ptr %15, i64 0, i32 1
  store ptr %96, ptr %97, align 8, !tbaa !52
  %98 = load ptr, ptr %0, align 8, !tbaa !5
  %99 = getelementptr inbounds ptr, ptr %98, i64 11
  %100 = load ptr, ptr %99, align 8
  %101 = invoke { double, double } %100(ptr noundef nonnull align 8 dereferenceable(152) %0, ptr noundef nonnull align 8 dereferenceable(96) %1, ptr noundef nonnull align 8 dereferenceable(128) %2, ptr noundef nonnull align 8 dereferenceable(8) %3)
          to label %102 unwind label %266

102:                                              ; preds = %95
  %103 = extractvalue { double, double } %101, 0
  %104 = extractvalue { double, double } %101, 1
  call void @llvm.lifetime.start.p0(i64 24, ptr nonnull %16) #18
  %105 = getelementptr inbounds %"class.libparest::Slave::Stationary::Discretization::Base", ptr %1, i64 0, i32 3
  %106 = load ptr, ptr %105, align 8, !tbaa !53
  %107 = getelementptr inbounds %"class.libparest::Slave::Stationary::Discretization::DoFHandlers", ptr %106, i64 0, i32 1
  invoke void @_ZNK6dealii10DoFHandlerILi3ELi3EE12begin_activeEj(ptr nonnull sret(%"class.dealii::TriaActiveIterator") align 8 %16, ptr noundef nonnull align 8 dereferenceable(168) %107, i32 noundef 0)
          to label %108 unwind label %268

108:                                              ; preds = %102
  call void @llvm.lifetime.start.p0(i64 24, ptr nonnull %17) #18
  %109 = load ptr, ptr %105, align 8, !tbaa !53
  %110 = getelementptr inbounds %"class.libparest::Slave::Stationary::Discretization::DoFHandlers", ptr %109, i64 0, i32 1
  invoke void @_ZNK6dealii10DoFHandlerILi3ELi3EE12begin_activeEj(ptr nonnull sret(%"class.dealii::TriaActiveIterator") align 8 %17, ptr noundef nonnull align 8 dereferenceable(168) %110, i32 noundef 0)
          to label %111 unwind label %270

111:                                              ; preds = %108
  %112 = sext i32 %4 to i64
  invoke void @_ZSt9__advanceIN6dealii18TriaActiveIteratorINS0_15DoFCellAccessorINS0_10DoFHandlerILi3ELi3EEEEEEElEvRT_T0_St26bidirectional_iterator_tag(ptr noundef nonnull align 8 dereferenceable(24) %16, i64 noundef %112)
          to label %113 unwind label %270

113:                                              ; preds = %111
  %114 = sext i32 %5 to i64
  invoke void @_ZSt9__advanceIN6dealii18TriaActiveIteratorINS0_15DoFCellAccessorINS0_10DoFHandlerILi3ELi3EEEEEEElEvRT_T0_St26bidirectional_iterator_tag(ptr noundef nonnull align 8 dereferenceable(24) %17, i64 noundef %114)
          to label %115 unwind label %270

115:                                              ; preds = %113
  %116 = getelementptr inbounds %"class.dealii::TriaAccessorBase", ptr %16, i64 0, i32 1
  %117 = getelementptr inbounds %"class.dealii::TriaAccessorBase", ptr %17, i64 0, i32 1
  %118 = load i32, ptr %116, align 4, !tbaa !54
  %119 = load i32, ptr %117, align 4, !tbaa !54
  %120 = icmp ne i32 %118, %119
  %121 = load i32, ptr %16, align 8
  %122 = load i32, ptr %17, align 8
  %123 = icmp ne i32 %121, %122
  %124 = select i1 %120, i1 true, i1 %123
  br i1 %124, label %125, label %394

125:                                              ; preds = %115
  %126 = getelementptr inbounds %"class.dealii::TriaAccessorBase", ptr %16, i64 0, i32 2
  %127 = getelementptr inbounds i8, ptr %0, i64 104
  %128 = getelementptr inbounds i8, ptr %0, i64 96
  %129 = getelementptr inbounds %"class.METomography::Measurements::ScaledWeightedDirichletMeasurements::Base.173", ptr %0, i64 0, i32 2
  %130 = getelementptr inbounds i8, ptr %8, i64 312
  %131 = getelementptr inbounds i8, ptr %8, i64 216
  br label %272

132:                                              ; preds = %389
  %133 = load ptr, ptr %126, align 8, !tbaa !56
  %134 = getelementptr inbounds %"class.dealii::Triangulation", ptr %133, i64 0, i32 1
  %135 = load ptr, ptr %134, align 8, !tbaa !57
  %136 = ptrtoint ptr %135 to i64
  %137 = getelementptr inbounds %"class.dealii::Triangulation", ptr %133, i64 0, i32 1, i32 0, i32 0, i32 0, i32 1
  %138 = load i32, ptr %16, align 8
  %139 = load i32, ptr %116, align 4
  br label %140

140:                                              ; preds = %228, %132
  %141 = phi i32 [ %138, %132 ], [ %207, %228 ]
  %142 = phi i32 [ %138, %132 ], [ %208, %228 ]
  %143 = phi i32 [ %138, %132 ], [ %229, %228 ]
  %144 = phi i32 [ %139, %132 ], [ %209, %228 ]
  %145 = add nsw i32 %144, 1
  %146 = sext i32 %143 to i64
  %147 = getelementptr inbounds ptr, ptr %135, i64 %146
  %148 = load ptr, ptr %147, align 8, !tbaa !59
  %149 = getelementptr inbounds %"class.dealii::internal::Triangulation::TriaLevel", ptr %148, i64 0, i32 4
  %150 = getelementptr inbounds %"class.dealii::internal::Triangulation::TriaLevel", ptr %148, i64 0, i32 4, i32 0, i32 0, i32 0, i32 0, i32 0, i32 1
  %151 = load ptr, ptr %150, align 8, !tbaa !60
  %152 = load ptr, ptr %149, align 8, !tbaa !62
  %153 = ptrtoint ptr %151 to i64
  %154 = ptrtoint ptr %152 to i64
  %155 = sub i64 %153, %154
  %156 = sdiv exact i64 %155, 24
  %157 = trunc i64 %156 to i32
  %158 = icmp slt i32 %145, %157
  br i1 %158, label %206, label %159

159:                                              ; preds = %140
  %160 = add nsw i64 %146, 1
  %161 = trunc i64 %160 to i32
  store i32 %161, ptr %16, align 8, !tbaa !63
  %162 = load ptr, ptr %137, align 8, !tbaa !64
  %163 = ptrtoint ptr %162 to i64
  %164 = sub i64 %163, %136
  %165 = shl i64 %164, 29
  %166 = ashr i64 %165, 32
  %167 = icmp slt i64 %160, %166
  br i1 %167, label %168, label %200

168:                                              ; preds = %159
  %169 = getelementptr inbounds ptr, ptr %135, i64 %160
  %170 = load ptr, ptr %169, align 8, !tbaa !59
  %171 = getelementptr inbounds %"class.dealii::internal::Triangulation::TriaLevel", ptr %170, i64 0, i32 4
  %172 = getelementptr inbounds %"class.dealii::internal::Triangulation::TriaLevel", ptr %170, i64 0, i32 4, i32 0, i32 0, i32 0, i32 0, i32 0, i32 1
  %173 = load ptr, ptr %172, align 8, !tbaa !60
  %174 = load ptr, ptr %171, align 8, !tbaa !62
  %175 = ptrtoint ptr %173 to i64
  %176 = ptrtoint ptr %174 to i64
  %177 = sub i64 %175, %176
  %178 = sdiv exact i64 %177, 24
  %179 = trunc i64 %178 to i32
  %180 = icmp sgt i32 %179, 0
  br i1 %180, label %202, label %194

181:                                              ; preds = %194
  %182 = getelementptr inbounds ptr, ptr %135, i64 %196
  %183 = load ptr, ptr %182, align 8, !tbaa !59
  %184 = getelementptr inbounds %"class.dealii::internal::Triangulation::TriaLevel", ptr %183, i64 0, i32 4
  %185 = getelementptr inbounds %"class.dealii::internal::Triangulation::TriaLevel", ptr %183, i64 0, i32 4, i32 0, i32 0, i32 0, i32 0, i32 0, i32 1
  %186 = load ptr, ptr %185, align 8, !tbaa !60
  %187 = load ptr, ptr %184, align 8, !tbaa !62
  %188 = ptrtoint ptr %186 to i64
  %189 = ptrtoint ptr %187 to i64
  %190 = sub i64 %188, %189
  %191 = sdiv exact i64 %190, 24
  %192 = trunc i64 %191 to i32
  %193 = icmp sgt i32 %192, 0
  br i1 %193, label %201, label %194, !llvm.loop !65

194:                                              ; preds = %168, %181
  %195 = phi i64 [ %196, %181 ], [ %160, %168 ]
  %196 = add i64 %195, 1
  %197 = trunc i64 %196 to i32
  %198 = icmp eq i64 %196, %166
  br i1 %198, label %199, label %181, !llvm.loop !65

199:                                              ; preds = %194
  store i32 %197, ptr %16, align 8, !tbaa !63
  br label %200

200:                                              ; preds = %199, %159
  store i32 -1, ptr %16, align 8, !tbaa !63
  br label %206

201:                                              ; preds = %181
  store i32 %197, ptr %16, align 8, !tbaa !63
  br label %202

202:                                              ; preds = %201, %168
  %203 = phi i32 [ %161, %168 ], [ %197, %201 ]
  %204 = phi i64 [ %160, %168 ], [ %196, %201 ]
  %205 = trunc i64 %204 to i32
  br label %206

206:                                              ; preds = %202, %200, %140
  %207 = phi i32 [ %141, %140 ], [ -1, %200 ], [ %203, %202 ]
  %208 = phi i32 [ %142, %140 ], [ -1, %200 ], [ %205, %202 ]
  %209 = phi i32 [ %145, %140 ], [ -1, %200 ], [ 0, %202 ]
  %210 = phi i32 [ %143, %140 ], [ -1, %200 ], [ %205, %202 ]
  %211 = or i32 %210, %209
  %212 = icmp sgt i32 %211, -1
  br i1 %212, label %213, label %230

213:                                              ; preds = %206
  %214 = zext i32 %210 to i64
  %215 = getelementptr inbounds ptr, ptr %135, i64 %214
  %216 = load ptr, ptr %215, align 8, !tbaa !59
  %217 = getelementptr inbounds %"class.dealii::internal::Triangulation::TriaLevel", ptr %216, i64 0, i32 4, i32 0, i32 3
  %218 = load ptr, ptr %217, align 8, !tbaa !67
  %219 = lshr i32 %209, 6
  %220 = zext i32 %219 to i64
  %221 = getelementptr inbounds i64, ptr %218, i64 %220
  %222 = and i32 %209, 63
  %223 = zext i32 %222 to i64
  %224 = shl nuw i64 1, %223
  %225 = load i64, ptr %221, align 8, !tbaa !69
  %226 = and i64 %225, %224
  %227 = icmp eq i64 %226, 0
  br i1 %227, label %228, label %230

228:                                              ; preds = %213, %233
  %229 = phi i32 [ %210, %213 ], [ %208, %233 ]
  br label %140

230:                                              ; preds = %213, %206
  store i32 %209, ptr %116, align 4, !tbaa !54
  %231 = or i32 %209, %208
  %232 = icmp sgt i32 %231, -1
  br i1 %232, label %233, label %244

233:                                              ; preds = %230
  %234 = zext i32 %208 to i64
  %235 = getelementptr inbounds ptr, ptr %135, i64 %234
  %236 = load ptr, ptr %235, align 8, !tbaa !59
  %237 = getelementptr inbounds %"class.dealii::internal::Triangulation::TriaLevel", ptr %236, i64 0, i32 4, i32 0, i32 1
  %238 = shl i32 %209, 2
  %239 = zext i32 %238 to i64
  %240 = load ptr, ptr %237, align 8, !tbaa !70
  %241 = getelementptr inbounds i32, ptr %240, i64 %239
  %242 = load i32, ptr %241, align 4, !tbaa !72
  %243 = icmp eq i32 %242, -1
  br i1 %243, label %244, label %228

244:                                              ; preds = %230, %233
  %245 = load i32, ptr %117, align 4, !tbaa !54
  %246 = icmp ne i32 %209, %245
  %247 = load i32, ptr %17, align 8
  %248 = icmp ne i32 %207, %247
  %249 = select i1 %246, i1 true, i1 %248
  br i1 %249, label %392, label %394

250:                                              ; preds = %446, %7
  %251 = landingpad { ptr, i32 }
          cleanup
  br label %525

252:                                              ; preds = %59, %32
  %253 = landingpad { ptr, i32 }
          cleanup
  br label %256

254:                                              ; preds = %53
  %255 = landingpad { ptr, i32 }
          cleanup
  call void @llvm.lifetime.end.p0(i64 1, ptr nonnull %11) #18
  invoke void @_ZN6dealii6VectorIdED2Ev(ptr noundef nonnull align 8 dereferenceable(88) %10)
          to label %256 unwind label %533

256:                                              ; preds = %252, %48, %254
  %257 = phi { ptr, i32 } [ %255, %254 ], [ %253, %252 ], [ %49, %48 ]
  call void @llvm.lifetime.end.p0(i64 88, ptr nonnull %10) #18
  br label %516

258:                                              ; preds = %85, %60
  %259 = landingpad { ptr, i32 }
          cleanup
  br label %262

260:                                              ; preds = %79
  %261 = landingpad { ptr, i32 }
          cleanup
  call void @llvm.lifetime.end.p0(i64 1, ptr nonnull %14) #18
  invoke void @_ZN6dealii6VectorIdED2Ev(ptr noundef nonnull align 8 dereferenceable(88) %13)
          to label %262 unwind label %533

262:                                              ; preds = %258, %74, %260
  %263 = phi { ptr, i32 } [ %261, %260 ], [ %259, %258 ], [ %75, %74 ]
  call void @llvm.lifetime.end.p0(i64 88, ptr nonnull %13) #18
  br label %492

264:                                              ; preds = %89
  %265 = landingpad { ptr, i32 }
          cleanup
  br label %468

266:                                              ; preds = %95
  %267 = landingpad { ptr, i32 }
          cleanup
  br label %463

268:                                              ; preds = %102
  %269 = landingpad { ptr, i32 }
          cleanup
  br label %461

270:                                              ; preds = %113, %111, %108
  %271 = landingpad { ptr, i32 }
          cleanup
  br label %459

272:                                              ; preds = %392, %125
  %273 = phi i64 [ 0, %125 ], [ %393, %392 ]
  %274 = load ptr, ptr %126, align 8, !tbaa !56, !noalias !73
  %275 = getelementptr inbounds %"class.dealii::Triangulation", ptr %274, i64 0, i32 1
  %276 = load i32, ptr %16, align 8, !tbaa !63, !noalias !73
  %277 = sext i32 %276 to i64
  %278 = load ptr, ptr %275, align 8, !tbaa !57, !noalias !73
  %279 = getelementptr inbounds ptr, ptr %278, i64 %277
  %280 = load ptr, ptr %279, align 8, !tbaa !59, !noalias !73
  %281 = getelementptr inbounds %"class.dealii::internal::Triangulation::TriaLevel", ptr %280, i64 0, i32 4
  %282 = load i32, ptr %116, align 4, !tbaa !54, !noalias !73
  %283 = sext i32 %282 to i64
  %284 = load ptr, ptr %281, align 8, !tbaa !62, !noalias !73
  %285 = getelementptr inbounds %"class.dealii::internal::Triangulation::TriaObject", ptr %284, i64 %283
  %286 = getelementptr inbounds [6 x i32], ptr %285, i64 0, i64 %273
  %287 = load i32, ptr %286, align 4, !tbaa !72, !noalias !73
  %288 = getelementptr inbounds %"class.dealii::Triangulation", ptr %274, i64 0, i32 2
  %289 = load ptr, ptr %288, align 8, !tbaa !74
  %290 = getelementptr inbounds %"class.dealii::internal::Triangulation::TriaObjects.223", ptr %289, i64 0, i32 5
  %291 = sext i32 %287 to i64
  %292 = load ptr, ptr %290, align 8, !tbaa !102
  %293 = getelementptr inbounds i8, ptr %292, i64 %291
  %294 = load i8, ptr %293, align 1, !tbaa !104
  %295 = icmp eq i8 %294, -1
  %296 = load ptr, ptr %127, align 8
  %297 = icmp eq ptr %296, null
  %298 = select i1 %295, i1 true, i1 %297
  br i1 %298, label %389, label %299

299:                                              ; preds = %272, %299
  %300 = phi ptr [ %309, %299 ], [ %296, %272 ]
  %301 = phi ptr [ %307, %299 ], [ %128, %272 ]
  %302 = getelementptr inbounds %"struct.std::_Rb_tree_node", ptr %300, i64 0, i32 1
  %303 = load i8, ptr %302, align 1, !tbaa !104
  %304 = icmp ult i8 %303, %294
  %305 = getelementptr inbounds %"struct.std::_Rb_tree_node_base", ptr %300, i64 0, i32 3
  %306 = getelementptr inbounds %"struct.std::_Rb_tree_node_base", ptr %300, i64 0, i32 2
  %307 = select i1 %304, ptr %301, ptr %300
  %308 = select i1 %304, ptr %305, ptr %306
  %309 = load ptr, ptr %308, align 8, !tbaa !59
  %310 = icmp eq ptr %309, null
  br i1 %310, label %311, label %299

311:                                              ; preds = %299
  %312 = icmp eq ptr %307, %128
  br i1 %312, label %389, label %313

313:                                              ; preds = %311
  %314 = getelementptr inbounds %"struct.std::_Rb_tree_node", ptr %307, i64 0, i32 1
  %315 = load i8, ptr %314, align 1, !tbaa !104
  %316 = icmp ugt i8 %315, %294
  br i1 %316, label %389, label %317

317:                                              ; preds = %313
  %318 = trunc i64 %273 to i32
  invoke void @_ZN6dealii12FEFaceValuesILi3ELi3EE6reinitERKNS_12TriaIteratorINS_15DoFCellAccessorINS_10DoFHandlerILi3ELi3EEEEEEEj(ptr noundef nonnull align 8 dereferenceable(784) %8, ptr noundef nonnull align 8 dereferenceable(24) %16, i32 noundef %318)
          to label %319 unwind label %330

319:                                              ; preds = %317
  invoke void @_ZNK6dealii12FEValuesBaseILi3ELi3EE19get_function_valuesINS_11BlockVectorIdEEdEEvRKT_RSt6vectorINS_6VectorIT0_EESaISB_EE(ptr noundef nonnull align 8 dereferenceable(648) %8, ptr noundef nonnull align 8 dereferenceable(128) %2, ptr noundef nonnull align 8 dereferenceable(24) %9)
          to label %320 unwind label %330

320:                                              ; preds = %319
  %321 = load ptr, ptr %129, align 8, !tbaa !8
  %322 = load ptr, ptr %321, align 8, !tbaa !5
  %323 = getelementptr inbounds ptr, ptr %322, i64 6
  %324 = load ptr, ptr %323, align 8
  invoke void %324(ptr noundef nonnull align 8 dereferenceable(92) %321, ptr noundef nonnull align 8 dereferenceable(24) %130, ptr noundef nonnull align 8 dereferenceable(24) %15, i32 noundef 0)
          to label %325 unwind label %330

325:                                              ; preds = %320
  call void @llvm.lifetime.start.p0(i64 16, ptr nonnull %18) #18
  call void @llvm.memcpy.p0.p0.i64(ptr noundef nonnull align 8 dereferenceable(16) %18, ptr noundef nonnull align 8 dereferenceable(16) %16, i64 16, i1 false)
  %326 = load ptr, ptr %28, align 8, !tbaa !5
  %327 = getelementptr inbounds ptr, ptr %326, i64 2
  %328 = load ptr, ptr %327, align 8
  invoke void %328(ptr noundef nonnull align 8 dereferenceable(8) %28, ptr noundef nonnull align 8 dereferenceable(16) %18, i32 noundef %318, ptr noundef nonnull align 8 dereferenceable(24) %12)
          to label %329 unwind label %332

329:                                              ; preds = %325
  call void @llvm.lifetime.end.p0(i64 16, ptr nonnull %18) #18
  br i1 %87, label %389, label %334

330:                                              ; preds = %320, %319, %317
  %331 = landingpad { ptr, i32 }
          cleanup
  br label %459

332:                                              ; preds = %325
  %333 = landingpad { ptr, i32 }
          cleanup
  call void @llvm.lifetime.end.p0(i64 16, ptr nonnull %18) #18
  br label %459

334:                                              ; preds = %329, %366
  %335 = phi i64 [ %387, %366 ], [ 0, %329 ]
  %336 = load ptr, ptr %9, align 8, !tbaa !105
  %337 = getelementptr inbounds %"class.dealii::Vector", ptr %336, i64 %335, i32 3
  %338 = load ptr, ptr %337, align 8, !tbaa !43
  %339 = getelementptr inbounds double, ptr %338, i64 2
  %340 = load double, ptr %339, align 8, !tbaa !47
  %341 = getelementptr inbounds double, ptr %338, i64 3
  %342 = load double, ptr %341, align 8, !tbaa !47
  %343 = load ptr, ptr %12, align 8, !tbaa !105
  %344 = getelementptr inbounds %"class.dealii::Vector", ptr %343, i64 %335, i32 3
  %345 = load ptr, ptr %344, align 8, !tbaa !43
  %346 = getelementptr inbounds double, ptr %345, i64 2
  %347 = load double, ptr %346, align 8, !tbaa !47
  %348 = getelementptr inbounds double, ptr %345, i64 3
  %349 = load double, ptr %348, align 8, !tbaa !47
  %350 = fmul double %103, %347
  %351 = fmul double %104, %349
  %352 = fmul double %103, %349
  %353 = fmul double %104, %347
  %354 = fsub double %350, %351
  %355 = fadd double %353, %352
  %356 = fcmp uno double %354, 0.000000e+00
  br i1 %356, label %357, label %366, !prof !107

357:                                              ; preds = %334
  %358 = fcmp uno double %355, 0.000000e+00
  br i1 %358, label %359, label %366, !prof !107

359:                                              ; preds = %357
  %360 = call noundef { double, double } @__muldc3(double noundef %103, double noundef %104, double noundef %347, double noundef %349) #18
  %361 = extractvalue { double, double } %360, 0
  %362 = extractvalue { double, double } %360, 1
  %363 = call noundef { double, double } @__muldc3(double noundef %103, double noundef %104, double noundef %347, double noundef %349) #18
  %364 = extractvalue { double, double } %363, 0
  %365 = extractvalue { double, double } %363, 1
  br label %366

366:                                              ; preds = %357, %334, %359
  %367 = phi double [ %362, %359 ], [ %355, %334 ], [ %355, %357 ]
  %368 = phi double [ %361, %359 ], [ %354, %334 ], [ %354, %357 ]
  %369 = phi double [ %364, %359 ], [ %354, %334 ], [ %354, %357 ]
  %370 = phi double [ %365, %359 ], [ %355, %334 ], [ %355, %357 ]
  %371 = fsub double %340, %368
  %372 = fsub double %342, %367
  %373 = fsub double %340, %369
  %374 = fsub double %342, %370
  %375 = fmul double %372, %374
  %376 = call double @llvm.fmuladd.f64(double %371, double %373, double %375)
  %377 = load ptr, ptr %15, align 8, !tbaa !50
  %378 = getelementptr inbounds double, ptr %377, i64 %335
  %379 = load double, ptr %378, align 8, !tbaa !47
  %380 = load ptr, ptr %131, align 8, !tbaa !50
  %381 = getelementptr inbounds double, ptr %380, i64 %335
  %382 = load double, ptr %381, align 8, !tbaa !47
  %383 = fmul double %376, 5.000000e-01
  %384 = fmul double %379, %383
  %385 = load double, ptr %6, align 8, !tbaa !47
  %386 = call double @llvm.fmuladd.f64(double %384, double %382, double %385)
  store double %386, ptr %6, align 8, !tbaa !47
  %387 = add nuw nsw i64 %335, 1
  %388 = icmp eq i64 %387, %33
  br i1 %388, label %389, label %334

389:                                              ; preds = %366, %329, %311, %272, %313
  %390 = add nuw nsw i64 %273, 1
  %391 = icmp eq i64 %390, 6
  br i1 %391, label %132, label %392

392:                                              ; preds = %389, %244
  %393 = phi i64 [ %390, %389 ], [ 0, %244 ]
  br label %272

394:                                              ; preds = %244, %115
  call void @llvm.lifetime.end.p0(i64 24, ptr nonnull %17) #18
  call void @llvm.lifetime.end.p0(i64 24, ptr nonnull %16) #18
  %395 = load ptr, ptr %15, align 8, !tbaa !50
  %396 = icmp eq ptr %395, null
  br i1 %396, label %398, label %397

397:                                              ; preds = %394
  call void @_ZdlPv(ptr noundef nonnull %395) #20
  br label %398

398:                                              ; preds = %397, %394
  call void @llvm.lifetime.end.p0(i64 24, ptr nonnull %15) #18
  %399 = load ptr, ptr %12, align 8, !tbaa !105
  %400 = getelementptr inbounds %"struct.std::_Vector_base<dealii::Vector<double>, std::allocator<dealii::Vector<double> > >::_Vector_impl_data", ptr %12, i64 0, i32 1
  %401 = load ptr, ptr %400, align 8, !tbaa !108
  %402 = icmp eq ptr %399, %401
  br i1 %402, label %412, label %403

403:                                              ; preds = %398, %407
  %404 = phi ptr [ %408, %407 ], [ %399, %398 ]
  %405 = load ptr, ptr %404, align 8, !tbaa !5
  %406 = load ptr, ptr %405, align 8
  invoke void %406(ptr noundef nonnull align 8 dereferenceable(88) %404)
          to label %407 unwind label %416

407:                                              ; preds = %403
  %408 = getelementptr inbounds %"class.dealii::Vector", ptr %404, i64 1
  %409 = icmp eq ptr %408, %401
  br i1 %409, label %410, label %403

410:                                              ; preds = %407
  %411 = load ptr, ptr %12, align 8, !tbaa !105
  br label %412

412:                                              ; preds = %410, %398
  %413 = phi ptr [ %411, %410 ], [ %399, %398 ]
  %414 = icmp eq ptr %413, null
  br i1 %414, label %421, label %415

415:                                              ; preds = %412
  call void @_ZdlPv(ptr noundef nonnull %413) #20
  br label %421

416:                                              ; preds = %403
  %417 = landingpad { ptr, i32 }
          cleanup
  %418 = load ptr, ptr %12, align 8, !tbaa !105
  %419 = icmp eq ptr %418, null
  br i1 %419, label %492, label %420

420:                                              ; preds = %416
  call void @_ZdlPv(ptr noundef nonnull %418) #20
  br label %492

421:                                              ; preds = %415, %412
  call void @llvm.lifetime.end.p0(i64 24, ptr nonnull %12) #18
  %422 = load ptr, ptr %9, align 8, !tbaa !105
  %423 = getelementptr inbounds %"struct.std::_Vector_base<dealii::Vector<double>, std::allocator<dealii::Vector<double> > >::_Vector_impl_data", ptr %9, i64 0, i32 1
  %424 = load ptr, ptr %423, align 8, !tbaa !108
  %425 = icmp eq ptr %422, %424
  br i1 %425, label %435, label %426

426:                                              ; preds = %421, %430
  %427 = phi ptr [ %431, %430 ], [ %422, %421 ]
  %428 = load ptr, ptr %427, align 8, !tbaa !5
  %429 = load ptr, ptr %428, align 8
  invoke void %429(ptr noundef nonnull align 8 dereferenceable(88) %427)
          to label %430 unwind label %439

430:                                              ; preds = %426
  %431 = getelementptr inbounds %"class.dealii::Vector", ptr %427, i64 1
  %432 = icmp eq ptr %431, %424
  br i1 %432, label %433, label %426

433:                                              ; preds = %430
  %434 = load ptr, ptr %9, align 8, !tbaa !105
  br label %435

435:                                              ; preds = %433, %421
  %436 = phi ptr [ %434, %433 ], [ %422, %421 ]
  %437 = icmp eq ptr %436, null
  br i1 %437, label %444, label %438

438:                                              ; preds = %435
  call void @_ZdlPv(ptr noundef nonnull %436) #20
  br label %444

439:                                              ; preds = %426
  %440 = landingpad { ptr, i32 }
          cleanup
  %441 = load ptr, ptr %9, align 8, !tbaa !105
  %442 = icmp eq ptr %441, null
  br i1 %442, label %516, label %443

443:                                              ; preds = %439
  call void @_ZdlPv(ptr noundef nonnull %441) #20
  br label %516

444:                                              ; preds = %438, %435
  call void @llvm.lifetime.end.p0(i64 24, ptr nonnull %9) #18
  store ptr getelementptr inbounds ({ [4 x ptr] }, ptr @_ZTVN6dealii16FEFaceValuesBaseILi3ELi3EEE, i64 0, inrange i32 0, i64 2), ptr %8, align 8, !tbaa !5
  %445 = getelementptr inbounds %"class.dealii::FEFaceValuesBase", ptr %8, i64 0, i32 2
  invoke void @_ZN6dealii10QuadratureILi2EED1Ev(ptr noundef nonnull align 8 dereferenceable(128) %445)
          to label %446 unwind label %447

446:                                              ; preds = %444
  invoke void @_ZN6dealii12FEValuesBaseILi3ELi3EED2Ev(ptr noundef nonnull align 8 dereferenceable(648) %8)
          to label %452 unwind label %250

447:                                              ; preds = %444
  %448 = landingpad { ptr, i32 }
          cleanup
  invoke void @_ZN6dealii12FEValuesBaseILi3ELi3EED2Ev(ptr noundef nonnull align 8 dereferenceable(648) %8)
          to label %525 unwind label %449

449:                                              ; preds = %447
  %450 = landingpad { ptr, i32 }
          catch ptr null
  %451 = extractvalue { ptr, i32 } %450, 0
  call void @__clang_call_terminate(ptr %451) #17
  unreachable

452:                                              ; preds = %446
  call void @llvm.lifetime.end.p0(i64 784, ptr nonnull %8) #18
  %453 = icmp eq ptr %28, null
  br i1 %453, label %458, label %454

454:                                              ; preds = %452
  %455 = load ptr, ptr %28, align 8, !tbaa !5
  %456 = getelementptr inbounds ptr, ptr %455, i64 1
  %457 = load ptr, ptr %456, align 8
  call void %457(ptr noundef nonnull align 8 dereferenceable(8) %28)
  br label %458

458:                                              ; preds = %452, %454
  ret void

459:                                              ; preds = %330, %332, %270
  %460 = phi { ptr, i32 } [ %271, %270 ], [ %333, %332 ], [ %331, %330 ]
  call void @llvm.lifetime.end.p0(i64 24, ptr nonnull %17) #18
  br label %461

461:                                              ; preds = %459, %268
  %462 = phi { ptr, i32 } [ %460, %459 ], [ %269, %268 ]
  call void @llvm.lifetime.end.p0(i64 24, ptr nonnull %16) #18
  br label %463

463:                                              ; preds = %461, %266
  %464 = phi { ptr, i32 } [ %462, %461 ], [ %267, %266 ]
  %465 = load ptr, ptr %15, align 8, !tbaa !50
  %466 = icmp eq ptr %465, null
  br i1 %466, label %468, label %467

467:                                              ; preds = %463
  call void @_ZdlPv(ptr noundef nonnull %465) #20
  br label %468

468:                                              ; preds = %467, %463, %264
  %469 = phi { ptr, i32 } [ %265, %264 ], [ %464, %463 ], [ %464, %467 ]
  call void @llvm.lifetime.end.p0(i64 24, ptr nonnull %15) #18
  %470 = load ptr, ptr %12, align 8, !tbaa !105
  %471 = getelementptr inbounds %"struct.std::_Vector_base<dealii::Vector<double>, std::allocator<dealii::Vector<double> > >::_Vector_impl_data", ptr %12, i64 0, i32 1
  %472 = load ptr, ptr %471, align 8, !tbaa !108
  %473 = icmp eq ptr %470, %472
  br i1 %473, label %483, label %474

474:                                              ; preds = %468, %478
  %475 = phi ptr [ %479, %478 ], [ %470, %468 ]
  %476 = load ptr, ptr %475, align 8, !tbaa !5
  %477 = load ptr, ptr %476, align 8
  invoke void %477(ptr noundef nonnull align 8 dereferenceable(88) %475)
          to label %478 unwind label %487

478:                                              ; preds = %474
  %479 = getelementptr inbounds %"class.dealii::Vector", ptr %475, i64 1
  %480 = icmp eq ptr %479, %472
  br i1 %480, label %481, label %474

481:                                              ; preds = %478
  %482 = load ptr, ptr %12, align 8, !tbaa !105
  br label %483

483:                                              ; preds = %481, %468
  %484 = phi ptr [ %482, %481 ], [ %470, %468 ]
  %485 = icmp eq ptr %484, null
  br i1 %485, label %492, label %486

486:                                              ; preds = %483
  call void @_ZdlPv(ptr noundef nonnull %484) #20
  br label %492

487:                                              ; preds = %474
  %488 = landingpad { ptr, i32 }
          catch ptr null
  %489 = load ptr, ptr %12, align 8, !tbaa !105
  %490 = icmp eq ptr %489, null
  br i1 %490, label %535, label %491

491:                                              ; preds = %487
  call void @_ZdlPv(ptr noundef nonnull %489) #20
  br label %535

492:                                              ; preds = %420, %416, %486, %483, %262
  %493 = phi { ptr, i32 } [ %263, %262 ], [ %469, %483 ], [ %469, %486 ], [ %417, %420 ], [ %417, %416 ]
  call void @llvm.lifetime.end.p0(i64 24, ptr nonnull %12) #18
  %494 = load ptr, ptr %9, align 8, !tbaa !105
  %495 = getelementptr inbounds %"struct.std::_Vector_base<dealii::Vector<double>, std::allocator<dealii::Vector<double> > >::_Vector_impl_data", ptr %9, i64 0, i32 1
  %496 = load ptr, ptr %495, align 8, !tbaa !108
  %497 = icmp eq ptr %494, %496
  br i1 %497, label %507, label %498

498:                                              ; preds = %492, %502
  %499 = phi ptr [ %503, %502 ], [ %494, %492 ]
  %500 = load ptr, ptr %499, align 8, !tbaa !5
  %501 = load ptr, ptr %500, align 8
  invoke void %501(ptr noundef nonnull align 8 dereferenceable(88) %499)
          to label %502 unwind label %511

502:                                              ; preds = %498
  %503 = getelementptr inbounds %"class.dealii::Vector", ptr %499, i64 1
  %504 = icmp eq ptr %503, %496
  br i1 %504, label %505, label %498

505:                                              ; preds = %502
  %506 = load ptr, ptr %9, align 8, !tbaa !105
  br label %507

507:                                              ; preds = %505, %492
  %508 = phi ptr [ %506, %505 ], [ %494, %492 ]
  %509 = icmp eq ptr %508, null
  br i1 %509, label %516, label %510

510:                                              ; preds = %507
  call void @_ZdlPv(ptr noundef nonnull %508) #20
  br label %516

511:                                              ; preds = %498
  %512 = landingpad { ptr, i32 }
          catch ptr null
  %513 = load ptr, ptr %9, align 8, !tbaa !105
  %514 = icmp eq ptr %513, null
  br i1 %514, label %535, label %515

515:                                              ; preds = %511
  call void @_ZdlPv(ptr noundef nonnull %513) #20
  br label %535

516:                                              ; preds = %443, %439, %510, %507, %256
  %517 = phi { ptr, i32 } [ %257, %256 ], [ %493, %507 ], [ %493, %510 ], [ %440, %443 ], [ %440, %439 ]
  call void @llvm.lifetime.end.p0(i64 24, ptr nonnull %9) #18
  store ptr getelementptr inbounds ({ [4 x ptr] }, ptr @_ZTVN6dealii16FEFaceValuesBaseILi3ELi3EEE, i64 0, inrange i32 0, i64 2), ptr %8, align 8, !tbaa !5
  %518 = getelementptr inbounds %"class.dealii::FEFaceValuesBase", ptr %8, i64 0, i32 2
  invoke void @_ZN6dealii10QuadratureILi2EED1Ev(ptr noundef nonnull align 8 dereferenceable(128) %518)
          to label %519 unwind label %520

519:                                              ; preds = %516
  invoke void @_ZN6dealii12FEValuesBaseILi3ELi3EED2Ev(ptr noundef nonnull align 8 dereferenceable(648) %8)
          to label %525 unwind label %533

520:                                              ; preds = %516
  %521 = landingpad { ptr, i32 }
          catch ptr null
  invoke void @_ZN6dealii12FEValuesBaseILi3ELi3EED2Ev(ptr noundef nonnull align 8 dereferenceable(648) %8)
          to label %535 unwind label %522

522:                                              ; preds = %520
  %523 = landingpad { ptr, i32 }
          catch ptr null
  %524 = extractvalue { ptr, i32 } %523, 0
  call void @__clang_call_terminate(ptr %524) #17
  unreachable

525:                                              ; preds = %519, %447, %250
  %526 = phi { ptr, i32 } [ %251, %250 ], [ %448, %447 ], [ %517, %519 ]
  call void @llvm.lifetime.end.p0(i64 784, ptr nonnull %8) #18
  %527 = icmp eq ptr %28, null
  br i1 %527, label %532, label %528

528:                                              ; preds = %525
  %529 = load ptr, ptr %28, align 8, !tbaa !5
  %530 = getelementptr inbounds ptr, ptr %529, i64 1
  %531 = load ptr, ptr %530, align 8
  invoke void %531(ptr noundef nonnull align 8 dereferenceable(8) %28)
          to label %532 unwind label %533

532:                                              ; preds = %525, %528
  resume { ptr, i32 } %526

533:                                              ; preds = %528, %519, %260, %254
  %534 = landingpad { ptr, i32 }
          catch ptr null
  br label %535

535:                                              ; preds = %515, %511, %520, %533, %487, %491
  %536 = phi { ptr, i32 } [ %488, %491 ], [ %488, %487 ], [ %512, %515 ], [ %512, %511 ], [ %534, %533 ], [ %521, %520 ]
  %537 = extractvalue { ptr, i32 } %536, 0
  call void @__clang_call_terminate(ptr %537) #17
  unreachable
}

; Function Attrs: sspstrong uwtable
define weak_odr dso_local void @_ZNK12METomography12Measurements35ScaledWeightedDirichletMeasurements4BaseILi3EfE24build_rhs_contribution_1ERKN9libparest5Slave10Stationary14Discretization4BaseILi3EEERKN6dealii11BlockVectorIdEERKNS6_17MeasurementGetter9Factories4BaseILi3EEERSE_jjRNSC_7Threads16DummyThreadMutexE(ptr noundef nonnull align 8 dereferenceable(152) %0, ptr noundef nonnull align 8 dereferenceable(96) %1, ptr noundef nonnull align 8 dereferenceable(128) %2, ptr noundef nonnull align 8 dereferenceable(8) %3, ptr noundef nonnull align 8 dereferenceable(128) %4, i32 noundef %5, i32 noundef %6, ptr noundef nonnull align 1 dereferenceable(1) %7) unnamed_addr #0 comdat align 2 personality ptr @__gxx_personality_v0 {
  %9 = alloca %"class.dealii::FEFaceValues", align 8
  %10 = alloca %"class.std::vector.114", align 8
  %11 = alloca %"class.dealii::Vector", align 8
  %12 = alloca %"class.std::allocator.116", align 1
  %13 = alloca %"class.std::vector.114", align 8
  %14 = alloca %"class.dealii::Vector", align 8
  %15 = alloca %"class.std::allocator.116", align 1
  %16 = alloca %"class.dealii::Vector", align 8
  %17 = alloca %"class.std::vector.27", align 8
  %18 = alloca %"class.dealii::TriaActiveIterator", align 8
  %19 = alloca %"class.dealii::TriaActiveIterator", align 8
  %20 = alloca %"class.dealii::TriaActiveIterator.159", align 8
  %21 = getelementptr inbounds %"class.libparest::Slave::Stationary::Discretization::Base", ptr %1, i64 0, i32 2
  %22 = load ptr, ptr %21, align 8, !tbaa !13
  %23 = getelementptr inbounds %"class.libparest::Slave::Stationary::Discretization::FiniteElements", ptr %22, i64 0, i32 1
  %24 = load ptr, ptr %23, align 8, !tbaa !38
  %25 = getelementptr inbounds i8, ptr %24, i64 112
  %26 = load i32, ptr %25, align 8, !tbaa !110
  %27 = getelementptr inbounds %"class.libparest::Slave::Stationary::Discretization::FiniteElements", ptr %22, i64 0, i32 5
  %28 = load ptr, ptr %27, align 8, !tbaa !26
  %29 = getelementptr inbounds %"class.dealii::Quadrature", ptr %28, i64 0, i32 1
  %30 = load i32, ptr %29, align 8, !tbaa !28
  %31 = load ptr, ptr %3, align 8, !tbaa !5
  %32 = getelementptr inbounds ptr, ptr %31, i64 3
  %33 = load ptr, ptr %32, align 8
  %34 = tail call noundef ptr %33(ptr noundef nonnull align 8 dereferenceable(8) %3, ptr noundef nonnull align 8 dereferenceable(128) %28, i32 noundef 0)
  call void @llvm.lifetime.start.p0(i64 784, ptr nonnull %9) #18
  %35 = load ptr, ptr %21, align 8, !tbaa !13
  %36 = getelementptr inbounds %"class.libparest::Slave::Stationary::Discretization::FiniteElements", ptr %35, i64 0, i32 5
  %37 = load ptr, ptr %36, align 8, !tbaa !26
  invoke void @_ZN6dealii12FEFaceValuesILi3ELi3EEC1ERKNS_13FiniteElementILi3ELi3EEERKNS_10QuadratureILi2EEENS_11UpdateFlagsE(ptr noundef nonnull align 8 dereferenceable(784) %9, ptr noundef nonnull align 8 dereferenceable(728) %24, ptr noundef nonnull align 8 dereferenceable(128) %37, i32 noundef 49)
          to label %38 unwind label %289

38:                                               ; preds = %8
  %39 = zext i32 %26 to i64
  %40 = icmp eq i32 %26, 0
  br i1 %40, label %45, label %41

41:                                               ; preds = %38
  %42 = shl nuw nsw i64 %39, 2
  %43 = invoke noalias noundef nonnull ptr @_Znwm(i64 noundef %42) #19
          to label %44 unwind label %291

44:                                               ; preds = %41
  call void @llvm.memset.p0.i64(ptr nonnull align 4 %43, i8 0, i64 %42, i1 false), !tbaa !72
  br label %45

45:                                               ; preds = %44, %38
  %46 = phi ptr [ null, %38 ], [ %43, %44 ]
  call void @llvm.lifetime.start.p0(i64 24, ptr nonnull %10) #18
  %47 = zext i32 %30 to i64
  call void @llvm.lifetime.start.p0(i64 88, ptr nonnull %11) #18
  %48 = getelementptr inbounds %"class.libparest::Slave::Stationary::Measurements::Base.174", ptr %0, i64 0, i32 1
  %49 = load ptr, ptr %48, align 8, !tbaa !39
  %50 = getelementptr inbounds %"class.libparest::Slave::Stationary::ProblemDescription", ptr %49, i64 0, i32 4
  %51 = load i32, ptr %50, align 4, !tbaa !41
  invoke void @_ZN6dealii11SubscriptorC2Ev(ptr noundef nonnull align 8 dereferenceable(72) %11)
          to label %52 unwind label %293

52:                                               ; preds = %45
  store ptr getelementptr inbounds ({ [6 x ptr] }, ptr @_ZTVN6dealii6VectorIdEE, i64 0, inrange i32 0, i64 2), ptr %11, align 8, !tbaa !5
  %53 = getelementptr inbounds %"class.dealii::Vector", ptr %11, i64 0, i32 1
  call void @llvm.memset.p0.i64(ptr noundef nonnull align 8 dereferenceable(16) %53, i8 0, i64 16, i1 false)
  %54 = icmp eq i32 %51, 0
  br i1 %54, label %67, label %55

55:                                               ; preds = %52
  %56 = zext i32 %51 to i64
  %57 = shl nuw nsw i64 %56, 3
  %58 = invoke noalias noundef nonnull ptr @_Znam(i64 noundef %57) #19
          to label %59 unwind label %62

59:                                               ; preds = %55
  %60 = getelementptr inbounds %"class.dealii::Vector", ptr %11, i64 0, i32 3
  %61 = getelementptr inbounds %"class.dealii::Vector", ptr %11, i64 0, i32 2
  store ptr %58, ptr %60, align 8, !tbaa !43
  store i32 %51, ptr %61, align 4, !tbaa !45
  store i32 %51, ptr %53, align 8, !tbaa !46
  call void @llvm.memset.p0.i64(ptr nonnull align 8 %58, i8 0, i64 %57, i1 false), !tbaa !47
  br label %67

62:                                               ; preds = %55
  %63 = landingpad { ptr, i32 }
          cleanup
  invoke void @_ZN6dealii11SubscriptorD2Ev(ptr noundef nonnull align 8 dereferenceable(72) %11)
          to label %297 unwind label %64

64:                                               ; preds = %62
  %65 = landingpad { ptr, i32 }
          catch ptr null
  %66 = extractvalue { ptr, i32 } %65, 0
  call void @__clang_call_terminate(ptr %66) #17
  unreachable

67:                                               ; preds = %59, %52
  call void @llvm.lifetime.start.p0(i64 1, ptr nonnull %12) #18
  invoke void @_ZNSt6vectorIN6dealii6VectorIdEESaIS2_EEC2EmRKS2_RKS3_(ptr noundef nonnull align 8 dereferenceable(24) %10, i64 noundef %47, ptr noundef nonnull align 8 dereferenceable(88) %11, ptr noundef nonnull align 1 dereferenceable(1) %12)
          to label %68 unwind label %295

68:                                               ; preds = %67
  call void @llvm.lifetime.end.p0(i64 1, ptr nonnull %12) #18
  store ptr getelementptr inbounds ({ [6 x ptr] }, ptr @_ZTVN6dealii6VectorIdEE, i64 0, inrange i32 0, i64 2), ptr %11, align 8, !tbaa !5
  %69 = getelementptr inbounds %"class.dealii::Vector", ptr %11, i64 0, i32 3
  %70 = load ptr, ptr %69, align 8, !tbaa !43
  %71 = icmp eq ptr %70, null
  br i1 %71, label %73, label %72

72:                                               ; preds = %68
  call void @_ZdaPv(ptr noundef nonnull %70) #20
  store ptr null, ptr %69, align 8, !tbaa !43
  br label %73

73:                                               ; preds = %72, %68
  invoke void @_ZN6dealii11SubscriptorD2Ev(ptr noundef nonnull align 8 dereferenceable(72) %11)
          to label %74 unwind label %293

74:                                               ; preds = %73
  call void @llvm.lifetime.end.p0(i64 88, ptr nonnull %11) #18
  call void @llvm.lifetime.start.p0(i64 24, ptr nonnull %13) #18
  call void @llvm.lifetime.start.p0(i64 88, ptr nonnull %14) #18
  %75 = load ptr, ptr %48, align 8, !tbaa !39
  %76 = getelementptr inbounds %"class.libparest::Slave::Stationary::ProblemDescription", ptr %75, i64 0, i32 1
  %77 = load i32, ptr %76, align 8, !tbaa !49
  invoke void @_ZN6dealii11SubscriptorC2Ev(ptr noundef nonnull align 8 dereferenceable(72) %14)
          to label %78 unwind label %299

78:                                               ; preds = %74
  store ptr getelementptr inbounds ({ [6 x ptr] }, ptr @_ZTVN6dealii6VectorIdEE, i64 0, inrange i32 0, i64 2), ptr %14, align 8, !tbaa !5
  %79 = getelementptr inbounds %"class.dealii::Vector", ptr %14, i64 0, i32 1
  call void @llvm.memset.p0.i64(ptr noundef nonnull align 8 dereferenceable(16) %79, i8 0, i64 16, i1 false)
  %80 = icmp eq i32 %77, 0
  br i1 %80, label %93, label %81

81:                                               ; preds = %78
  %82 = zext i32 %77 to i64
  %83 = shl nuw nsw i64 %82, 3
  %84 = invoke noalias noundef nonnull ptr @_Znam(i64 noundef %83) #19
          to label %85 unwind label %88

85:                                               ; preds = %81
  %86 = getelementptr inbounds %"class.dealii::Vector", ptr %14, i64 0, i32 3
  %87 = getelementptr inbounds %"class.dealii::Vector", ptr %14, i64 0, i32 2
  store ptr %84, ptr %86, align 8, !tbaa !43
  store i32 %77, ptr %87, align 4, !tbaa !45
  store i32 %77, ptr %79, align 8, !tbaa !46
  call void @llvm.memset.p0.i64(ptr nonnull align 8 %84, i8 0, i64 %83, i1 false), !tbaa !47
  br label %93

88:                                               ; preds = %81
  %89 = landingpad { ptr, i32 }
          cleanup
  invoke void @_ZN6dealii11SubscriptorD2Ev(ptr noundef nonnull align 8 dereferenceable(72) %14)
          to label %303 unwind label %90

90:                                               ; preds = %88
  %91 = landingpad { ptr, i32 }
          catch ptr null
  %92 = extractvalue { ptr, i32 } %91, 0
  call void @__clang_call_terminate(ptr %92) #17
  unreachable

93:                                               ; preds = %85, %78
  call void @llvm.lifetime.start.p0(i64 1, ptr nonnull %15) #18
  invoke void @_ZNSt6vectorIN6dealii6VectorIdEESaIS2_EEC2EmRKS2_RKS3_(ptr noundef nonnull align 8 dereferenceable(24) %13, i64 noundef %47, ptr noundef nonnull align 8 dereferenceable(88) %14, ptr noundef nonnull align 1 dereferenceable(1) %15)
          to label %94 unwind label %301

94:                                               ; preds = %93
  call void @llvm.lifetime.end.p0(i64 1, ptr nonnull %15) #18
  store ptr getelementptr inbounds ({ [6 x ptr] }, ptr @_ZTVN6dealii6VectorIdEE, i64 0, inrange i32 0, i64 2), ptr %14, align 8, !tbaa !5
  %95 = getelementptr inbounds %"class.dealii::Vector", ptr %14, i64 0, i32 3
  %96 = load ptr, ptr %95, align 8, !tbaa !43
  %97 = icmp eq ptr %96, null
  br i1 %97, label %99, label %98

98:                                               ; preds = %94
  call void @_ZdaPv(ptr noundef nonnull %96) #20
  store ptr null, ptr %95, align 8, !tbaa !43
  br label %99

99:                                               ; preds = %98, %94
  invoke void @_ZN6dealii11SubscriptorD2Ev(ptr noundef nonnull align 8 dereferenceable(72) %14)
          to label %100 unwind label %299

100:                                              ; preds = %99
  call void @llvm.lifetime.end.p0(i64 88, ptr nonnull %14) #18
  call void @llvm.lifetime.start.p0(i64 88, ptr nonnull %16) #18
  invoke void @_ZN6dealii11SubscriptorC2Ev(ptr noundef nonnull align 8 dereferenceable(72) %16)
          to label %101 unwind label %305

101:                                              ; preds = %100
  store ptr getelementptr inbounds ({ [6 x ptr] }, ptr @_ZTVN6dealii6VectorIdEE, i64 0, inrange i32 0, i64 2), ptr %16, align 8, !tbaa !5
  %102 = getelementptr inbounds %"class.dealii::Vector", ptr %16, i64 0, i32 1
  call void @llvm.memset.p0.i64(ptr noundef nonnull align 8 dereferenceable(16) %102, i8 0, i64 16, i1 false)
  br i1 %40, label %114, label %103

103:                                              ; preds = %101
  %104 = shl nuw nsw i64 %39, 3
  %105 = invoke noalias noundef nonnull ptr @_Znam(i64 noundef %104) #19
          to label %106 unwind label %109

106:                                              ; preds = %103
  %107 = getelementptr inbounds %"class.dealii::Vector", ptr %16, i64 0, i32 3
  %108 = getelementptr inbounds %"class.dealii::Vector", ptr %16, i64 0, i32 2
  store ptr %105, ptr %107, align 8, !tbaa !43
  store i32 %26, ptr %108, align 4, !tbaa !45
  store i32 %26, ptr %102, align 8, !tbaa !46
  call void @llvm.memset.p0.i64(ptr nonnull align 8 %105, i8 0, i64 %104, i1 false), !tbaa !47
  br label %114

109:                                              ; preds = %103
  %110 = landingpad { ptr, i32 }
          cleanup
  invoke void @_ZN6dealii11SubscriptorD2Ev(ptr noundef nonnull align 8 dereferenceable(72) %16)
          to label %739 unwind label %111

111:                                              ; preds = %109
  %112 = landingpad { ptr, i32 }
          catch ptr null
  %113 = extractvalue { ptr, i32 } %112, 0
  call void @__clang_call_terminate(ptr %113) #17
  unreachable

114:                                              ; preds = %106, %101
  call void @llvm.lifetime.start.p0(i64 24, ptr nonnull %17) #18
  %115 = icmp eq i32 %30, 0
  br i1 %115, label %116, label %117

116:                                              ; preds = %114
  call void @llvm.memset.p0.i64(ptr noundef nonnull align 8 dereferenceable(24) %17, i8 0, i64 24, i1 false)
  br label %123

117:                                              ; preds = %114
  %118 = shl nuw nsw i64 %47, 3
  %119 = invoke noalias noundef nonnull ptr @_Znwm(i64 noundef %118) #19
          to label %120 unwind label %307

120:                                              ; preds = %117
  store ptr %119, ptr %17, align 8, !tbaa !50
  %121 = getelementptr inbounds double, ptr %119, i64 %47
  %122 = getelementptr inbounds %"struct.std::_Vector_base<double, std::allocator<double> >::_Vector_impl_data", ptr %17, i64 0, i32 2
  store ptr %121, ptr %122, align 8, !tbaa !51
  call void @llvm.memset.p0.i64(ptr nonnull align 8 %119, i8 0, i64 %118, i1 false), !tbaa !47
  br label %123

123:                                              ; preds = %120, %116
  %124 = phi ptr [ null, %116 ], [ %121, %120 ]
  %125 = getelementptr inbounds %"struct.std::_Vector_base<double, std::allocator<double> >::_Vector_impl_data", ptr %17, i64 0, i32 1
  store ptr %124, ptr %125, align 8, !tbaa !52
  %126 = load ptr, ptr %0, align 8, !tbaa !5
  %127 = getelementptr inbounds ptr, ptr %126, i64 11
  %128 = load ptr, ptr %127, align 8
  %129 = invoke { double, double } %128(ptr noundef nonnull align 8 dereferenceable(152) %0, ptr noundef nonnull align 8 dereferenceable(96) %1, ptr noundef nonnull align 8 dereferenceable(128) %2, ptr noundef nonnull align 8 dereferenceable(8) %3)
          to label %130 unwind label %309

130:                                              ; preds = %123
  %131 = extractvalue { double, double } %129, 0
  %132 = extractvalue { double, double } %129, 1
  call void @llvm.lifetime.start.p0(i64 24, ptr nonnull %18) #18
  %133 = getelementptr inbounds %"class.libparest::Slave::Stationary::Discretization::Base", ptr %1, i64 0, i32 3
  %134 = load ptr, ptr %133, align 8, !tbaa !53
  %135 = getelementptr inbounds %"class.libparest::Slave::Stationary::Discretization::DoFHandlers", ptr %134, i64 0, i32 1
  invoke void @_ZNK6dealii10DoFHandlerILi3ELi3EE12begin_activeEj(ptr nonnull sret(%"class.dealii::TriaActiveIterator") align 8 %18, ptr noundef nonnull align 8 dereferenceable(168) %135, i32 noundef 0)
          to label %136 unwind label %311

136:                                              ; preds = %130
  call void @llvm.lifetime.start.p0(i64 24, ptr nonnull %19) #18
  %137 = load ptr, ptr %133, align 8, !tbaa !53
  %138 = getelementptr inbounds %"class.libparest::Slave::Stationary::Discretization::DoFHandlers", ptr %137, i64 0, i32 1
  invoke void @_ZNK6dealii10DoFHandlerILi3ELi3EE12begin_activeEj(ptr nonnull sret(%"class.dealii::TriaActiveIterator") align 8 %19, ptr noundef nonnull align 8 dereferenceable(168) %138, i32 noundef 0)
          to label %139 unwind label %313

139:                                              ; preds = %136
  %140 = sext i32 %5 to i64
  invoke void @_ZSt9__advanceIN6dealii18TriaActiveIteratorINS0_15DoFCellAccessorINS0_10DoFHandlerILi3ELi3EEEEEEElEvRT_T0_St26bidirectional_iterator_tag(ptr noundef nonnull align 8 dereferenceable(24) %18, i64 noundef %140)
          to label %141 unwind label %313

141:                                              ; preds = %139
  %142 = sext i32 %6 to i64
  invoke void @_ZSt9__advanceIN6dealii18TriaActiveIteratorINS0_15DoFCellAccessorINS0_10DoFHandlerILi3ELi3EEEEEEElEvRT_T0_St26bidirectional_iterator_tag(ptr noundef nonnull align 8 dereferenceable(24) %19, i64 noundef %142)
          to label %143 unwind label %313

143:                                              ; preds = %141
  %144 = getelementptr inbounds %"class.dealii::TriaAccessorBase", ptr %18, i64 0, i32 1
  %145 = getelementptr inbounds %"class.dealii::TriaAccessorBase", ptr %19, i64 0, i32 1
  %146 = load i32, ptr %144, align 4, !tbaa !54
  %147 = load i32, ptr %145, align 4, !tbaa !54
  %148 = icmp ne i32 %146, %147
  %149 = load i32, ptr %18, align 8
  %150 = load i32, ptr %19, align 8
  %151 = icmp ne i32 %149, %150
  %152 = select i1 %148, i1 true, i1 %151
  br i1 %152, label %153, label %649

153:                                              ; preds = %143
  %154 = getelementptr inbounds %"class.dealii::TriaAccessorBase", ptr %18, i64 0, i32 2
  %155 = getelementptr inbounds %"class.dealii::DoFAccessor", ptr %18, i64 0, i32 1
  %156 = getelementptr inbounds i8, ptr %0, i64 104
  %157 = getelementptr inbounds i8, ptr %0, i64 96
  %158 = getelementptr inbounds %"class.dealii::Vector", ptr %16, i64 0, i32 3
  %159 = getelementptr inbounds %"class.METomography::Measurements::ScaledWeightedDirichletMeasurements::Base.173", ptr %0, i64 0, i32 2
  %160 = getelementptr inbounds i8, ptr %9, i64 312
  %161 = getelementptr inbounds %"class.dealii::FEValuesBase", ptr %9, i64 0, i32 2
  %162 = getelementptr inbounds %"class.dealii::FiniteElement", ptr %24, i64 0, i32 12
  %163 = getelementptr inbounds %"class.dealii::FEValuesBase", ptr %9, i64 0, i32 6
  %164 = getelementptr inbounds i8, ptr %9, i64 480
  %165 = getelementptr inbounds i8, ptr %9, i64 144
  %166 = getelementptr inbounds i8, ptr %9, i64 160
  %167 = getelementptr inbounds i8, ptr %9, i64 216
  %168 = getelementptr inbounds %"class.dealii::BlockVectorBase", ptr %4, i64 0, i32 2
  %169 = getelementptr inbounds %"class.dealii::BlockVectorBase", ptr %4, i64 0, i32 2, i32 1
  %170 = getelementptr inbounds %"class.dealii::BlockVectorBase", ptr %4, i64 0, i32 1
  br label %315

171:                                              ; preds = %644
  %172 = load ptr, ptr %154, align 8, !tbaa !56
  %173 = getelementptr inbounds %"class.dealii::Triangulation", ptr %172, i64 0, i32 1
  %174 = load ptr, ptr %173, align 8, !tbaa !57
  %175 = ptrtoint ptr %174 to i64
  %176 = getelementptr inbounds %"class.dealii::Triangulation", ptr %172, i64 0, i32 1, i32 0, i32 0, i32 0, i32 1
  %177 = load i32, ptr %18, align 8
  %178 = load i32, ptr %144, align 4
  br label %179

179:                                              ; preds = %267, %171
  %180 = phi i32 [ %177, %171 ], [ %246, %267 ]
  %181 = phi i32 [ %177, %171 ], [ %247, %267 ]
  %182 = phi i32 [ %177, %171 ], [ %268, %267 ]
  %183 = phi i32 [ %178, %171 ], [ %248, %267 ]
  %184 = add nsw i32 %183, 1
  %185 = sext i32 %182 to i64
  %186 = getelementptr inbounds ptr, ptr %174, i64 %185
  %187 = load ptr, ptr %186, align 8, !tbaa !59
  %188 = getelementptr inbounds %"class.dealii::internal::Triangulation::TriaLevel", ptr %187, i64 0, i32 4
  %189 = getelementptr inbounds %"class.dealii::internal::Triangulation::TriaLevel", ptr %187, i64 0, i32 4, i32 0, i32 0, i32 0, i32 0, i32 0, i32 1
  %190 = load ptr, ptr %189, align 8, !tbaa !60
  %191 = load ptr, ptr %188, align 8, !tbaa !62
  %192 = ptrtoint ptr %190 to i64
  %193 = ptrtoint ptr %191 to i64
  %194 = sub i64 %192, %193
  %195 = sdiv exact i64 %194, 24
  %196 = trunc i64 %195 to i32
  %197 = icmp slt i32 %184, %196
  br i1 %197, label %245, label %198

198:                                              ; preds = %179
  %199 = add nsw i64 %185, 1
  %200 = trunc i64 %199 to i32
  store i32 %200, ptr %18, align 8, !tbaa !63
  %201 = load ptr, ptr %176, align 8, !tbaa !64
  %202 = ptrtoint ptr %201 to i64
  %203 = sub i64 %202, %175
  %204 = shl i64 %203, 29
  %205 = ashr i64 %204, 32
  %206 = icmp slt i64 %199, %205
  br i1 %206, label %207, label %239

207:                                              ; preds = %198
  %208 = getelementptr inbounds ptr, ptr %174, i64 %199
  %209 = load ptr, ptr %208, align 8, !tbaa !59
  %210 = getelementptr inbounds %"class.dealii::internal::Triangulation::TriaLevel", ptr %209, i64 0, i32 4
  %211 = getelementptr inbounds %"class.dealii::internal::Triangulation::TriaLevel", ptr %209, i64 0, i32 4, i32 0, i32 0, i32 0, i32 0, i32 0, i32 1
  %212 = load ptr, ptr %211, align 8, !tbaa !60
  %213 = load ptr, ptr %210, align 8, !tbaa !62
  %214 = ptrtoint ptr %212 to i64
  %215 = ptrtoint ptr %213 to i64
  %216 = sub i64 %214, %215
  %217 = sdiv exact i64 %216, 24
  %218 = trunc i64 %217 to i32
  %219 = icmp sgt i32 %218, 0
  br i1 %219, label %241, label %233

220:                                              ; preds = %233
  %221 = getelementptr inbounds ptr, ptr %174, i64 %235
  %222 = load ptr, ptr %221, align 8, !tbaa !59
  %223 = getelementptr inbounds %"class.dealii::internal::Triangulation::TriaLevel", ptr %222, i64 0, i32 4
  %224 = getelementptr inbounds %"class.dealii::internal::Triangulation::TriaLevel", ptr %222, i64 0, i32 4, i32 0, i32 0, i32 0, i32 0, i32 0, i32 1
  %225 = load ptr, ptr %224, align 8, !tbaa !60
  %226 = load ptr, ptr %223, align 8, !tbaa !62
  %227 = ptrtoint ptr %225 to i64
  %228 = ptrtoint ptr %226 to i64
  %229 = sub i64 %227, %228
  %230 = sdiv exact i64 %229, 24
  %231 = trunc i64 %230 to i32
  %232 = icmp sgt i32 %231, 0
  br i1 %232, label %240, label %233, !llvm.loop !65

233:                                              ; preds = %207, %220
  %234 = phi i64 [ %235, %220 ], [ %199, %207 ]
  %235 = add i64 %234, 1
  %236 = trunc i64 %235 to i32
  %237 = icmp eq i64 %235, %205
  br i1 %237, label %238, label %220, !llvm.loop !65

238:                                              ; preds = %233
  store i32 %236, ptr %18, align 8, !tbaa !63
  br label %239

239:                                              ; preds = %238, %198
  store i32 -1, ptr %18, align 8, !tbaa !63
  br label %245

240:                                              ; preds = %220
  store i32 %236, ptr %18, align 8, !tbaa !63
  br label %241

241:                                              ; preds = %240, %207
  %242 = phi i32 [ %200, %207 ], [ %236, %240 ]
  %243 = phi i64 [ %199, %207 ], [ %235, %240 ]
  %244 = trunc i64 %243 to i32
  br label %245

245:                                              ; preds = %241, %239, %179
  %246 = phi i32 [ %180, %179 ], [ -1, %239 ], [ %242, %241 ]
  %247 = phi i32 [ %181, %179 ], [ -1, %239 ], [ %244, %241 ]
  %248 = phi i32 [ %184, %179 ], [ -1, %239 ], [ 0, %241 ]
  %249 = phi i32 [ %182, %179 ], [ -1, %239 ], [ %244, %241 ]
  %250 = or i32 %249, %248
  %251 = icmp sgt i32 %250, -1
  br i1 %251, label %252, label %269

252:                                              ; preds = %245
  %253 = zext i32 %249 to i64
  %254 = getelementptr inbounds ptr, ptr %174, i64 %253
  %255 = load ptr, ptr %254, align 8, !tbaa !59
  %256 = getelementptr inbounds %"class.dealii::internal::Triangulation::TriaLevel", ptr %255, i64 0, i32 4, i32 0, i32 3
  %257 = load ptr, ptr %256, align 8, !tbaa !67
  %258 = lshr i32 %248, 6
  %259 = zext i32 %258 to i64
  %260 = getelementptr inbounds i64, ptr %257, i64 %259
  %261 = and i32 %248, 63
  %262 = zext i32 %261 to i64
  %263 = shl nuw i64 1, %262
  %264 = load i64, ptr %260, align 8, !tbaa !69
  %265 = and i64 %264, %263
  %266 = icmp eq i64 %265, 0
  br i1 %266, label %267, label %269

267:                                              ; preds = %252, %272
  %268 = phi i32 [ %249, %252 ], [ %247, %272 ]
  br label %179

269:                                              ; preds = %252, %245
  store i32 %248, ptr %144, align 4, !tbaa !54
  %270 = or i32 %248, %247
  %271 = icmp sgt i32 %270, -1
  br i1 %271, label %272, label %283

272:                                              ; preds = %269
  %273 = zext i32 %247 to i64
  %274 = getelementptr inbounds ptr, ptr %174, i64 %273
  %275 = load ptr, ptr %274, align 8, !tbaa !59
  %276 = getelementptr inbounds %"class.dealii::internal::Triangulation::TriaLevel", ptr %275, i64 0, i32 4, i32 0, i32 1
  %277 = shl i32 %248, 2
  %278 = zext i32 %277 to i64
  %279 = load ptr, ptr %276, align 8, !tbaa !70
  %280 = getelementptr inbounds i32, ptr %279, i64 %278
  %281 = load i32, ptr %280, align 4, !tbaa !72
  %282 = icmp eq i32 %281, -1
  br i1 %282, label %283, label %267

283:                                              ; preds = %269, %272
  %284 = load i32, ptr %145, align 4, !tbaa !54
  %285 = icmp ne i32 %248, %284
  %286 = load i32, ptr %19, align 8
  %287 = icmp ne i32 %246, %286
  %288 = select i1 %285, i1 true, i1 %287
  br i1 %288, label %647, label %649

289:                                              ; preds = %710, %8
  %290 = landingpad { ptr, i32 }
          cleanup
  br label %800

291:                                              ; preds = %41
  %292 = landingpad { ptr, i32 }
          cleanup
  br label %791

293:                                              ; preds = %73, %45
  %294 = landingpad { ptr, i32 }
          cleanup
  br label %297

295:                                              ; preds = %67
  %296 = landingpad { ptr, i32 }
          cleanup
  call void @llvm.lifetime.end.p0(i64 1, ptr nonnull %12) #18
  invoke void @_ZN6dealii6VectorIdED2Ev(ptr noundef nonnull align 8 dereferenceable(88) %11)
          to label %297 unwind label %808

297:                                              ; preds = %293, %62, %295
  %298 = phi { ptr, i32 } [ %296, %295 ], [ %294, %293 ], [ %63, %62 ]
  call void @llvm.lifetime.end.p0(i64 88, ptr nonnull %11) #18
  br label %787

299:                                              ; preds = %99, %74
  %300 = landingpad { ptr, i32 }
          cleanup
  br label %303

301:                                              ; preds = %93
  %302 = landingpad { ptr, i32 }
          cleanup
  call void @llvm.lifetime.end.p0(i64 1, ptr nonnull %15) #18
  invoke void @_ZN6dealii6VectorIdED2Ev(ptr noundef nonnull align 8 dereferenceable(88) %14)
          to label %303 unwind label %808

303:                                              ; preds = %299, %88, %301
  %304 = phi { ptr, i32 } [ %302, %301 ], [ %300, %299 ], [ %89, %88 ]
  call void @llvm.lifetime.end.p0(i64 88, ptr nonnull %14) #18
  br label %763

305:                                              ; preds = %658, %100
  %306 = landingpad { ptr, i32 }
          cleanup
  br label %739

307:                                              ; preds = %117
  %308 = landingpad { ptr, i32 }
          cleanup
  br label %732

309:                                              ; preds = %123
  %310 = landingpad { ptr, i32 }
          cleanup
  br label %727

311:                                              ; preds = %130
  %312 = landingpad { ptr, i32 }
          cleanup
  br label %725

313:                                              ; preds = %141, %139, %136
  %314 = landingpad { ptr, i32 }
          cleanup
  br label %723

315:                                              ; preds = %647, %153
  %316 = phi i64 [ 0, %153 ], [ %648, %647 ]
  %317 = load ptr, ptr %154, align 8, !tbaa !56, !noalias !73
  %318 = getelementptr inbounds %"class.dealii::Triangulation", ptr %317, i64 0, i32 1
  %319 = load i32, ptr %18, align 8, !tbaa !63, !noalias !73
  %320 = sext i32 %319 to i64
  %321 = load ptr, ptr %318, align 8, !tbaa !57, !noalias !73
  %322 = getelementptr inbounds ptr, ptr %321, i64 %320
  %323 = load ptr, ptr %322, align 8, !tbaa !59, !noalias !73
  %324 = getelementptr inbounds %"class.dealii::internal::Triangulation::TriaLevel", ptr %323, i64 0, i32 4
  %325 = load i32, ptr %144, align 4, !tbaa !54, !noalias !73
  %326 = sext i32 %325 to i64
  %327 = load ptr, ptr %324, align 8, !tbaa !62, !noalias !73
  %328 = getelementptr inbounds %"class.dealii::internal::Triangulation::TriaObject", ptr %327, i64 %326
  %329 = getelementptr inbounds [6 x i32], ptr %328, i64 0, i64 %316
  %330 = load i32, ptr %329, align 4, !tbaa !72, !noalias !73
  %331 = getelementptr inbounds %"class.dealii::Triangulation", ptr %317, i64 0, i32 2
  %332 = load ptr, ptr %331, align 8, !tbaa !74
  %333 = getelementptr inbounds %"class.dealii::internal::Triangulation::TriaObjects.223", ptr %332, i64 0, i32 5
  %334 = sext i32 %330 to i64
  %335 = load ptr, ptr %333, align 8, !tbaa !102
  %336 = getelementptr inbounds i8, ptr %335, i64 %334
  %337 = load i8, ptr %336, align 1, !tbaa !104
  %338 = icmp eq i8 %337, -1
  %339 = load ptr, ptr %156, align 8
  %340 = icmp eq ptr %339, null
  %341 = select i1 %338, i1 true, i1 %340
  br i1 %341, label %644, label %342

342:                                              ; preds = %315, %342
  %343 = phi ptr [ %352, %342 ], [ %339, %315 ]
  %344 = phi ptr [ %350, %342 ], [ %157, %315 ]
  %345 = getelementptr inbounds %"struct.std::_Rb_tree_node", ptr %343, i64 0, i32 1
  %346 = load i8, ptr %345, align 1, !tbaa !104
  %347 = icmp ult i8 %346, %337
  %348 = getelementptr inbounds %"struct.std::_Rb_tree_node_base", ptr %343, i64 0, i32 3
  %349 = getelementptr inbounds %"struct.std::_Rb_tree_node_base", ptr %343, i64 0, i32 2
  %350 = select i1 %347, ptr %344, ptr %343
  %351 = select i1 %347, ptr %348, ptr %349
  %352 = load ptr, ptr %351, align 8, !tbaa !59
  %353 = icmp eq ptr %352, null
  br i1 %353, label %354, label %342

354:                                              ; preds = %342
  %355 = icmp eq ptr %350, %157
  br i1 %355, label %644, label %356

356:                                              ; preds = %354
  %357 = getelementptr inbounds %"struct.std::_Rb_tree_node", ptr %350, i64 0, i32 1
  %358 = load i8, ptr %357, align 1, !tbaa !104
  %359 = icmp ugt i8 %358, %337
  br i1 %359, label %644, label %360

360:                                              ; preds = %356
  %361 = trunc i64 %316 to i32
  invoke void @_ZN6dealii12FEFaceValuesILi3ELi3EE6reinitERKNS_12TriaIteratorINS_15DoFCellAccessorINS_10DoFHandlerILi3ELi3EEEEEEEj(ptr noundef nonnull align 8 dereferenceable(784) %9, ptr noundef nonnull align 8 dereferenceable(24) %18, i32 noundef %361)
          to label %362 unwind label %417

362:                                              ; preds = %360
  %363 = load i32, ptr %102, align 8, !tbaa !46
  %364 = icmp eq i32 %363, 0
  br i1 %364, label %369, label %365

365:                                              ; preds = %362
  %366 = load ptr, ptr %158, align 8, !tbaa !43
  %367 = zext i32 %363 to i64
  %368 = shl nuw nsw i64 %367, 3
  call void @llvm.memset.p0.i64(ptr align 8 %366, i8 0, i64 %368, i1 false), !tbaa !47
  br label %369

369:                                              ; preds = %365, %362
  %370 = load ptr, ptr %155, align 8, !tbaa !113
  %371 = getelementptr inbounds %"class.dealii::DoFHandler", ptr %370, i64 0, i32 2
  %372 = load ptr, ptr %371, align 8, !tbaa !117
  %373 = getelementptr inbounds i8, ptr %372, i64 112
  %374 = load i32, ptr %373, align 8, !tbaa !110
  %375 = icmp eq i32 %374, 0
  br i1 %375, label %398, label %376

376:                                              ; preds = %369
  %377 = getelementptr inbounds %"class.dealii::DoFHandler", ptr %370, i64 0, i32 3
  %378 = load ptr, ptr %377, align 8, !tbaa !119
  %379 = load i32, ptr %18, align 8, !tbaa !63
  %380 = sext i32 %379 to i64
  %381 = getelementptr inbounds ptr, ptr %378, i64 %380
  %382 = load ptr, ptr %381, align 8, !tbaa !59
  %383 = load ptr, ptr %382, align 8, !tbaa !121
  %384 = load i32, ptr %144, align 4, !tbaa !54
  %385 = mul i32 %384, %374
  %386 = zext i32 %385 to i64
  %387 = getelementptr inbounds i32, ptr %383, i64 %386
  br label %388

388:                                              ; preds = %388, %376
  %389 = phi i64 [ 0, %376 ], [ %393, %388 ]
  %390 = phi ptr [ %387, %376 ], [ %394, %388 ]
  %391 = load i32, ptr %390, align 4, !tbaa !72
  %392 = getelementptr inbounds i32, ptr %46, i64 %389
  store i32 %391, ptr %392, align 4, !tbaa !72
  %393 = add nuw nsw i64 %389, 1
  %394 = getelementptr inbounds i32, ptr %390, i64 1
  %395 = load i32, ptr %373, align 8, !tbaa !110
  %396 = zext i32 %395 to i64
  %397 = icmp ult i64 %393, %396
  br i1 %397, label %388, label %398

398:                                              ; preds = %388, %369
  invoke void @_ZNK6dealii12FEValuesBaseILi3ELi3EE19get_function_valuesINS_11BlockVectorIdEEdEEvRKT_RSt6vectorINS_6VectorIT0_EESaISB_EE(ptr noundef nonnull align 8 dereferenceable(648) %9, ptr noundef nonnull align 8 dereferenceable(128) %2, ptr noundef nonnull align 8 dereferenceable(24) %10)
          to label %399 unwind label %417

399:                                              ; preds = %398
  %400 = load ptr, ptr %159, align 8, !tbaa !8
  %401 = load ptr, ptr %400, align 8, !tbaa !5
  %402 = getelementptr inbounds ptr, ptr %401, i64 6
  %403 = load ptr, ptr %402, align 8
  invoke void %403(ptr noundef nonnull align 8 dereferenceable(92) %400, ptr noundef nonnull align 8 dereferenceable(24) %160, ptr noundef nonnull align 8 dereferenceable(24) %17, i32 noundef 0)
          to label %404 unwind label %417

404:                                              ; preds = %399
  call void @llvm.lifetime.start.p0(i64 16, ptr nonnull %20) #18
  call void @llvm.memcpy.p0.p0.i64(ptr noundef nonnull align 8 dereferenceable(16) %20, ptr noundef nonnull align 8 dereferenceable(16) %18, i64 16, i1 false)
  %405 = load ptr, ptr %34, align 8, !tbaa !5
  %406 = getelementptr inbounds ptr, ptr %405, i64 2
  %407 = load ptr, ptr %406, align 8
  invoke void %407(ptr noundef nonnull align 8 dereferenceable(8) %34, ptr noundef nonnull align 8 dereferenceable(16) %20, i32 noundef %361, ptr noundef nonnull align 8 dereferenceable(24) %13)
          to label %408 unwind label %419

408:                                              ; preds = %404
  call void @llvm.lifetime.end.p0(i64 16, ptr nonnull %20) #18
  %409 = load i32, ptr %161, align 4, !tbaa !122
  %410 = icmp eq i32 %409, 0
  br i1 %410, label %411, label %421

411:                                              ; preds = %452, %408
  br i1 %40, label %644, label %412

412:                                              ; preds = %411
  %413 = load ptr, ptr %158, align 8, !tbaa !43
  %414 = load i32, ptr %168, align 8, !tbaa !163
  %415 = load ptr, ptr %169, align 8, !tbaa !121
  %416 = load ptr, ptr %170, align 8, !tbaa !105
  br label %618

417:                                              ; preds = %399, %398, %360
  %418 = landingpad { ptr, i32 }
          cleanup
  br label %723

419:                                              ; preds = %404
  %420 = landingpad { ptr, i32 }
          cleanup
  call void @llvm.lifetime.end.p0(i64 16, ptr nonnull %20) #18
  br label %723

421:                                              ; preds = %408, %452
  %422 = phi i32 [ %453, %452 ], [ %409, %408 ]
  %423 = phi i64 [ %454, %452 ], [ 0, %408 ]
  %424 = load ptr, ptr %10, align 8, !tbaa !105
  %425 = getelementptr inbounds %"class.dealii::Vector", ptr %424, i64 %423, i32 3
  %426 = load ptr, ptr %425, align 8, !tbaa !43
  %427 = getelementptr inbounds double, ptr %426, i64 2
  %428 = load double, ptr %427, align 8, !tbaa !47
  %429 = getelementptr inbounds double, ptr %426, i64 3
  %430 = load double, ptr %429, align 8, !tbaa !47
  %431 = load ptr, ptr %13, align 8, !tbaa !105
  %432 = getelementptr inbounds %"class.dealii::Vector", ptr %431, i64 %423, i32 3
  %433 = load ptr, ptr %432, align 8, !tbaa !43
  %434 = getelementptr inbounds double, ptr %433, i64 2
  %435 = load double, ptr %434, align 8, !tbaa !47
  %436 = getelementptr inbounds double, ptr %433, i64 3
  %437 = load double, ptr %436, align 8, !tbaa !47
  br i1 %40, label %452, label %438

438:                                              ; preds = %421
  %439 = fmul double %131, %435
  %440 = fmul double %132, %437
  %441 = fmul double %131, %437
  %442 = fmul double %132, %435
  %443 = fsub double %439, %440
  %444 = fadd double %442, %441
  %445 = fcmp ord double %443, 0.000000e+00
  %446 = fcmp ord double %444, 0.000000e+00
  %447 = trunc i64 %423 to i32
  %448 = trunc i64 %423 to i32
  %449 = select i1 %445, i1 true, i1 %446
  br label %457

450:                                              ; preds = %615
  %451 = load i32, ptr %161, align 4, !tbaa !122
  br label %452

452:                                              ; preds = %450, %421
  %453 = phi i32 [ %451, %450 ], [ %422, %421 ]
  %454 = add nuw nsw i64 %423, 1
  %455 = zext i32 %453 to i64
  %456 = icmp ult i64 %454, %455
  br i1 %456, label %421, label %411

457:                                              ; preds = %438, %615
  %458 = phi i64 [ 0, %438 ], [ %616, %615 ]
  %459 = load ptr, ptr %162, align 8, !tbaa !165
  %460 = getelementptr inbounds %"struct.std::pair", ptr %459, i64 %458
  %461 = load i64, ptr %460, align 4
  %462 = and i64 %461, 4294967294
  %463 = icmp eq i64 %462, 2
  br i1 %463, label %464, label %615

464:                                              ; preds = %457
  %465 = load ptr, ptr %163, align 8, !tbaa !117
  %466 = getelementptr inbounds %"class.dealii::FiniteElement", ptr %465, i64 0, i32 2
  %467 = load i8, ptr %466, align 4, !tbaa !167, !range !190, !noundef !73
  %468 = icmp eq i8 %467, 0
  br i1 %468, label %469, label %475

469:                                              ; preds = %464
  %470 = getelementptr inbounds %"class.dealii::FiniteElement", ptr %465, i64 0, i32 20
  %471 = load ptr, ptr %470, align 8, !tbaa !121
  %472 = getelementptr inbounds i32, ptr %471, i64 %458
  %473 = load i32, ptr %472, align 4, !tbaa !72
  %474 = icmp eq i32 %473, 1
  br i1 %474, label %475, label %486

475:                                              ; preds = %464, %469
  %476 = getelementptr inbounds %"class.dealii::FiniteElement", ptr %465, i64 0, i32 12
  %477 = load ptr, ptr %476, align 8, !tbaa !165
  %478 = getelementptr inbounds %"struct.std::pair", ptr %477, i64 %458
  %479 = load i64, ptr %478, align 4
  %480 = and i64 %479, 4294967295
  %481 = icmp eq i64 %480, 2
  br i1 %481, label %482, label %527

482:                                              ; preds = %475
  %483 = load ptr, ptr %164, align 8, !tbaa !121
  %484 = getelementptr inbounds i32, ptr %483, i64 %458
  %485 = load i32, ptr %484, align 4, !tbaa !72
  br label %518

486:                                              ; preds = %469
  %487 = getelementptr inbounds %"class.dealii::FiniteElement", ptr %465, i64 0, i32 19
  %488 = load ptr, ptr %487, align 8, !tbaa !191
  %489 = getelementptr inbounds %"class.std::vector.66", ptr %488, i64 %458
  %490 = load ptr, ptr %489, align 8, !tbaa !67
  %491 = load i64, ptr %490, align 8, !tbaa !69
  %492 = and i64 %491, 4
  %493 = icmp eq i64 %492, 0
  br i1 %493, label %546, label %494

494:                                              ; preds = %486
  %495 = load ptr, ptr %164, align 8, !tbaa !121
  %496 = getelementptr inbounds i32, ptr %495, i64 %458
  %497 = load i32, ptr %496, align 4, !tbaa !72
  br label %498

498:                                              ; preds = %498, %494
  %499 = phi i64 [ %506, %498 ], [ 0, %494 ]
  %500 = phi i32 [ %511, %498 ], [ 0, %494 ]
  %501 = phi ptr [ %510, %498 ], [ %490, %494 ]
  %502 = zext i32 %500 to i64
  %503 = load i64, ptr %501, align 8, !tbaa !69
  %504 = lshr i64 %503, %502
  %505 = and i64 %504, 1
  %506 = add nuw nsw i64 %505, %499
  %507 = add i32 %500, 1
  %508 = icmp eq i32 %500, 63
  %509 = zext i1 %508 to i64
  %510 = getelementptr inbounds i64, ptr %501, i64 %509
  %511 = select i1 %508, i32 0, i32 %507
  %512 = icmp ne ptr %510, %490
  %513 = icmp ne i32 %511, 2
  %514 = or i1 %513, %512
  br i1 %514, label %498, label %515

515:                                              ; preds = %498
  %516 = trunc i64 %506 to i32
  %517 = add i32 %497, %516
  br label %518

518:                                              ; preds = %515, %482
  %519 = phi i32 [ %517, %515 ], [ %485, %482 ]
  %520 = load ptr, ptr %165, align 8, !tbaa !192
  %521 = load i32, ptr %166, align 8, !tbaa !72
  %522 = mul i32 %521, %519
  %523 = add i32 %522, %447
  %524 = zext i32 %523 to i64
  %525 = getelementptr inbounds double, ptr %520, i64 %524
  %526 = load double, ptr %525, align 8, !tbaa !47
  br label %527

527:                                              ; preds = %518, %475
  %528 = phi double [ 0.000000e+00, %475 ], [ %526, %518 ]
  br i1 %468, label %529, label %535

529:                                              ; preds = %527
  %530 = getelementptr inbounds %"class.dealii::FiniteElement", ptr %465, i64 0, i32 20
  %531 = load ptr, ptr %530, align 8, !tbaa !121
  %532 = getelementptr inbounds i32, ptr %531, i64 %458
  %533 = load i32, ptr %532, align 4, !tbaa !72
  %534 = icmp eq i32 %533, 1
  br i1 %534, label %535, label %546

535:                                              ; preds = %527, %529
  %536 = getelementptr inbounds %"class.dealii::FiniteElement", ptr %465, i64 0, i32 12
  %537 = load ptr, ptr %536, align 8, !tbaa !165
  %538 = getelementptr inbounds %"struct.std::pair", ptr %537, i64 %458
  %539 = load i64, ptr %538, align 4
  %540 = and i64 %539, 4294967295
  %541 = icmp eq i64 %540, 3
  br i1 %541, label %542, label %589

542:                                              ; preds = %535
  %543 = load ptr, ptr %164, align 8, !tbaa !121
  %544 = getelementptr inbounds i32, ptr %543, i64 %458
  %545 = load i32, ptr %544, align 4, !tbaa !72
  br label %579

546:                                              ; preds = %486, %529
  %547 = phi double [ %528, %529 ], [ 0.000000e+00, %486 ]
  %548 = getelementptr inbounds %"class.dealii::FiniteElement", ptr %465, i64 0, i32 19
  %549 = load ptr, ptr %548, align 8, !tbaa !191
  %550 = getelementptr inbounds %"class.std::vector.66", ptr %549, i64 %458
  %551 = load ptr, ptr %550, align 8, !tbaa !67
  %552 = load i64, ptr %551, align 8, !tbaa !69
  %553 = and i64 %552, 8
  %554 = icmp eq i64 %553, 0
  br i1 %554, label %589, label %555

555:                                              ; preds = %546
  %556 = load ptr, ptr %164, align 8, !tbaa !121
  %557 = getelementptr inbounds i32, ptr %556, i64 %458
  %558 = load i32, ptr %557, align 4, !tbaa !72
  br label %559

559:                                              ; preds = %559, %555
  %560 = phi i64 [ %567, %559 ], [ 0, %555 ]
  %561 = phi i32 [ %572, %559 ], [ 0, %555 ]
  %562 = phi ptr [ %571, %559 ], [ %551, %555 ]
  %563 = zext i32 %561 to i64
  %564 = load i64, ptr %562, align 8, !tbaa !69
  %565 = lshr i64 %564, %563
  %566 = and i64 %565, 1
  %567 = add nuw nsw i64 %566, %560
  %568 = add i32 %561, 1
  %569 = icmp eq i32 %561, 63
  %570 = zext i1 %569 to i64
  %571 = getelementptr inbounds i64, ptr %562, i64 %570
  %572 = select i1 %569, i32 0, i32 %568
  %573 = icmp ne ptr %571, %551
  %574 = icmp ne i32 %572, 3
  %575 = or i1 %574, %573
  br i1 %575, label %559, label %576

576:                                              ; preds = %559
  %577 = trunc i64 %567 to i32
  %578 = add i32 %558, %577
  br label %579

579:                                              ; preds = %576, %542
  %580 = phi double [ %547, %576 ], [ %528, %542 ]
  %581 = phi i32 [ %578, %576 ], [ %545, %542 ]
  %582 = load ptr, ptr %165, align 8, !tbaa !192
  %583 = load i32, ptr %166, align 8, !tbaa !72
  %584 = mul i32 %583, %581
  %585 = add i32 %584, %448
  %586 = zext i32 %585 to i64
  %587 = getelementptr inbounds double, ptr %582, i64 %586
  %588 = load double, ptr %587, align 8, !tbaa !47
  br label %589

589:                                              ; preds = %579, %546, %535
  %590 = phi double [ %528, %535 ], [ %547, %546 ], [ %580, %579 ]
  %591 = phi double [ 0.000000e+00, %535 ], [ 0.000000e+00, %546 ], [ %588, %579 ]
  br i1 %449, label %596, label %592, !prof !193

592:                                              ; preds = %589
  %593 = call noundef { double, double } @__muldc3(double noundef %131, double noundef %132, double noundef %435, double noundef %437) #18
  %594 = extractvalue { double, double } %593, 0
  %595 = extractvalue { double, double } %593, 1
  br label %596

596:                                              ; preds = %589, %592
  %597 = phi double [ %443, %589 ], [ %594, %592 ]
  %598 = phi double [ %444, %589 ], [ %595, %592 ]
  %599 = fsub double %428, %597
  %600 = fsub double %430, %598
  %601 = fmul double %591, %600
  %602 = call double @llvm.fmuladd.f64(double %599, double %590, double %601)
  %603 = load ptr, ptr %17, align 8, !tbaa !50
  %604 = getelementptr inbounds double, ptr %603, i64 %423
  %605 = load double, ptr %604, align 8, !tbaa !47
  %606 = load ptr, ptr %167, align 8, !tbaa !50
  %607 = getelementptr inbounds double, ptr %606, i64 %423
  %608 = load double, ptr %607, align 8, !tbaa !47
  %609 = load ptr, ptr %158, align 8, !tbaa !43
  %610 = getelementptr inbounds double, ptr %609, i64 %458
  %611 = load double, ptr %610, align 8, !tbaa !47
  %612 = fneg double %602
  %613 = fmul double %605, %612
  %614 = call double @llvm.fmuladd.f64(double %613, double %608, double %611)
  store double %614, ptr %610, align 8, !tbaa !47
  br label %615

615:                                              ; preds = %457, %596
  %616 = add nuw nsw i64 %458, 1
  %617 = icmp eq i64 %616, %39
  br i1 %617, label %450, label %457

618:                                              ; preds = %412, %631
  %619 = phi i64 [ 0, %412 ], [ %642, %631 ]
  %620 = getelementptr inbounds double, ptr %413, i64 %619
  %621 = load double, ptr %620, align 8, !tbaa !47
  %622 = getelementptr inbounds i32, ptr %46, i64 %619
  %623 = load i32, ptr %622, align 4, !tbaa !72
  br label %624

624:                                              ; preds = %624, %618
  %625 = phi i32 [ %414, %618 ], [ %626, %624 ]
  %626 = add i32 %625, -1
  %627 = sext i32 %626 to i64
  %628 = getelementptr inbounds i32, ptr %415, i64 %627
  %629 = load i32, ptr %628, align 4, !tbaa !72
  %630 = icmp ugt i32 %629, %623
  br i1 %630, label %624, label %631

631:                                              ; preds = %624
  %632 = sub i32 %623, %629
  %633 = zext i32 %632 to i64
  %634 = zext i32 %626 to i64
  %635 = getelementptr inbounds %"class.dealii::Vector", ptr %416, i64 %634, i32 3
  %636 = load ptr, ptr %635, align 8, !tbaa !43
  %637 = getelementptr inbounds double, ptr %636, i64 %633
  %638 = fptrunc double %621 to float
  %639 = fpext float %638 to double
  %640 = load double, ptr %637, align 8, !tbaa !47
  %641 = fadd double %640, %639
  store double %641, ptr %637, align 8, !tbaa !47
  %642 = add nuw nsw i64 %619, 1
  %643 = icmp eq i64 %642, %39
  br i1 %643, label %644, label %618

644:                                              ; preds = %631, %411, %354, %315, %356
  %645 = add nuw nsw i64 %316, 1
  %646 = icmp eq i64 %645, 6
  br i1 %646, label %171, label %647

647:                                              ; preds = %644, %283
  %648 = phi i64 [ %645, %644 ], [ 0, %283 ]
  br label %315

649:                                              ; preds = %283, %143
  call void @llvm.lifetime.end.p0(i64 24, ptr nonnull %19) #18
  call void @llvm.lifetime.end.p0(i64 24, ptr nonnull %18) #18
  %650 = load ptr, ptr %17, align 8, !tbaa !50
  %651 = icmp eq ptr %650, null
  br i1 %651, label %653, label %652

652:                                              ; preds = %649
  call void @_ZdlPv(ptr noundef nonnull %650) #20
  br label %653

653:                                              ; preds = %652, %649
  call void @llvm.lifetime.end.p0(i64 24, ptr nonnull %17) #18
  store ptr getelementptr inbounds ({ [6 x ptr] }, ptr @_ZTVN6dealii6VectorIdEE, i64 0, inrange i32 0, i64 2), ptr %16, align 8, !tbaa !5
  %654 = getelementptr inbounds %"class.dealii::Vector", ptr %16, i64 0, i32 3
  %655 = load ptr, ptr %654, align 8, !tbaa !43
  %656 = icmp eq ptr %655, null
  br i1 %656, label %658, label %657

657:                                              ; preds = %653
  call void @_ZdaPv(ptr noundef nonnull %655) #20
  store ptr null, ptr %654, align 8, !tbaa !43
  br label %658

658:                                              ; preds = %657, %653
  invoke void @_ZN6dealii11SubscriptorD2Ev(ptr noundef nonnull align 8 dereferenceable(72) %16)
          to label %659 unwind label %305

659:                                              ; preds = %658
  call void @llvm.lifetime.end.p0(i64 88, ptr nonnull %16) #18
  %660 = load ptr, ptr %13, align 8, !tbaa !105
  %661 = getelementptr inbounds %"struct.std::_Vector_base<dealii::Vector<double>, std::allocator<dealii::Vector<double> > >::_Vector_impl_data", ptr %13, i64 0, i32 1
  %662 = load ptr, ptr %661, align 8, !tbaa !108
  %663 = icmp eq ptr %660, %662
  br i1 %663, label %673, label %664

664:                                              ; preds = %659, %668
  %665 = phi ptr [ %669, %668 ], [ %660, %659 ]
  %666 = load ptr, ptr %665, align 8, !tbaa !5
  %667 = load ptr, ptr %666, align 8
  invoke void %667(ptr noundef nonnull align 8 dereferenceable(88) %665)
          to label %668 unwind label %677

668:                                              ; preds = %664
  %669 = getelementptr inbounds %"class.dealii::Vector", ptr %665, i64 1
  %670 = icmp eq ptr %669, %662
  br i1 %670, label %671, label %664

671:                                              ; preds = %668
  %672 = load ptr, ptr %13, align 8, !tbaa !105
  br label %673

673:                                              ; preds = %671, %659
  %674 = phi ptr [ %672, %671 ], [ %660, %659 ]
  %675 = icmp eq ptr %674, null
  br i1 %675, label %682, label %676

676:                                              ; preds = %673
  call void @_ZdlPv(ptr noundef nonnull %674) #20
  br label %682

677:                                              ; preds = %664
  %678 = landingpad { ptr, i32 }
          cleanup
  %679 = load ptr, ptr %13, align 8, !tbaa !105
  %680 = icmp eq ptr %679, null
  br i1 %680, label %763, label %681

681:                                              ; preds = %677
  call void @_ZdlPv(ptr noundef nonnull %679) #20
  br label %763

682:                                              ; preds = %676, %673
  call void @llvm.lifetime.end.p0(i64 24, ptr nonnull %13) #18
  %683 = load ptr, ptr %10, align 8, !tbaa !105
  %684 = getelementptr inbounds %"struct.std::_Vector_base<dealii::Vector<double>, std::allocator<dealii::Vector<double> > >::_Vector_impl_data", ptr %10, i64 0, i32 1
  %685 = load ptr, ptr %684, align 8, !tbaa !108
  %686 = icmp eq ptr %683, %685
  br i1 %686, label %696, label %687

687:                                              ; preds = %682, %691
  %688 = phi ptr [ %692, %691 ], [ %683, %682 ]
  %689 = load ptr, ptr %688, align 8, !tbaa !5
  %690 = load ptr, ptr %689, align 8
  invoke void %690(ptr noundef nonnull align 8 dereferenceable(88) %688)
          to label %691 unwind label %700

691:                                              ; preds = %687
  %692 = getelementptr inbounds %"class.dealii::Vector", ptr %688, i64 1
  %693 = icmp eq ptr %692, %685
  br i1 %693, label %694, label %687

694:                                              ; preds = %691
  %695 = load ptr, ptr %10, align 8, !tbaa !105
  br label %696

696:                                              ; preds = %694, %682
  %697 = phi ptr [ %695, %694 ], [ %683, %682 ]
  %698 = icmp eq ptr %697, null
  br i1 %698, label %705, label %699

699:                                              ; preds = %696
  call void @_ZdlPv(ptr noundef nonnull %697) #20
  br label %705

700:                                              ; preds = %687
  %701 = landingpad { ptr, i32 }
          cleanup
  %702 = load ptr, ptr %10, align 8, !tbaa !105
  %703 = icmp eq ptr %702, null
  br i1 %703, label %787, label %704

704:                                              ; preds = %700
  call void @_ZdlPv(ptr noundef nonnull %702) #20
  br label %787

705:                                              ; preds = %699, %696
  call void @llvm.lifetime.end.p0(i64 24, ptr nonnull %10) #18
  %706 = icmp eq ptr %46, null
  br i1 %706, label %708, label %707

707:                                              ; preds = %705
  call void @_ZdlPv(ptr noundef nonnull %46) #20
  br label %708

708:                                              ; preds = %707, %705
  store ptr getelementptr inbounds ({ [4 x ptr] }, ptr @_ZTVN6dealii16FEFaceValuesBaseILi3ELi3EEE, i64 0, inrange i32 0, i64 2), ptr %9, align 8, !tbaa !5
  %709 = getelementptr inbounds %"class.dealii::FEFaceValuesBase", ptr %9, i64 0, i32 2
  invoke void @_ZN6dealii10QuadratureILi2EED1Ev(ptr noundef nonnull align 8 dereferenceable(128) %709)
          to label %710 unwind label %711

710:                                              ; preds = %708
  invoke void @_ZN6dealii12FEValuesBaseILi3ELi3EED2Ev(ptr noundef nonnull align 8 dereferenceable(648) %9)
          to label %716 unwind label %289

711:                                              ; preds = %708
  %712 = landingpad { ptr, i32 }
          cleanup
  invoke void @_ZN6dealii12FEValuesBaseILi3ELi3EED2Ev(ptr noundef nonnull align 8 dereferenceable(648) %9)
          to label %800 unwind label %713

713:                                              ; preds = %711
  %714 = landingpad { ptr, i32 }
          catch ptr null
  %715 = extractvalue { ptr, i32 } %714, 0
  call void @__clang_call_terminate(ptr %715) #17
  unreachable

716:                                              ; preds = %710
  call void @llvm.lifetime.end.p0(i64 784, ptr nonnull %9) #18
  %717 = icmp eq ptr %34, null
  br i1 %717, label %722, label %718

718:                                              ; preds = %716
  %719 = load ptr, ptr %34, align 8, !tbaa !5
  %720 = getelementptr inbounds ptr, ptr %719, i64 1
  %721 = load ptr, ptr %720, align 8
  call void %721(ptr noundef nonnull align 8 dereferenceable(8) %34)
  br label %722

722:                                              ; preds = %716, %718
  ret void

723:                                              ; preds = %417, %419, %313
  %724 = phi { ptr, i32 } [ %314, %313 ], [ %420, %419 ], [ %418, %417 ]
  call void @llvm.lifetime.end.p0(i64 24, ptr nonnull %19) #18
  br label %725

725:                                              ; preds = %723, %311
  %726 = phi { ptr, i32 } [ %724, %723 ], [ %312, %311 ]
  call void @llvm.lifetime.end.p0(i64 24, ptr nonnull %18) #18
  br label %727

727:                                              ; preds = %725, %309
  %728 = phi { ptr, i32 } [ %726, %725 ], [ %310, %309 ]
  %729 = load ptr, ptr %17, align 8, !tbaa !50
  %730 = icmp eq ptr %729, null
  br i1 %730, label %732, label %731

731:                                              ; preds = %727
  call void @_ZdlPv(ptr noundef nonnull %729) #20
  br label %732

732:                                              ; preds = %731, %727, %307
  %733 = phi { ptr, i32 } [ %308, %307 ], [ %728, %727 ], [ %728, %731 ]
  call void @llvm.lifetime.end.p0(i64 24, ptr nonnull %17) #18
  store ptr getelementptr inbounds ({ [6 x ptr] }, ptr @_ZTVN6dealii6VectorIdEE, i64 0, inrange i32 0, i64 2), ptr %16, align 8, !tbaa !5
  %734 = getelementptr inbounds %"class.dealii::Vector", ptr %16, i64 0, i32 3
  %735 = load ptr, ptr %734, align 8, !tbaa !43
  %736 = icmp eq ptr %735, null
  br i1 %736, label %738, label %737

737:                                              ; preds = %732
  call void @_ZdaPv(ptr noundef nonnull %735) #20
  store ptr null, ptr %734, align 8, !tbaa !43
  br label %738

738:                                              ; preds = %737, %732
  invoke void @_ZN6dealii11SubscriptorD2Ev(ptr noundef nonnull align 8 dereferenceable(72) %16)
          to label %739 unwind label %808

739:                                              ; preds = %738, %305, %109
  %740 = phi { ptr, i32 } [ %306, %305 ], [ %110, %109 ], [ %733, %738 ]
  call void @llvm.lifetime.end.p0(i64 88, ptr nonnull %16) #18
  %741 = load ptr, ptr %13, align 8, !tbaa !105
  %742 = getelementptr inbounds %"struct.std::_Vector_base<dealii::Vector<double>, std::allocator<dealii::Vector<double> > >::_Vector_impl_data", ptr %13, i64 0, i32 1
  %743 = load ptr, ptr %742, align 8, !tbaa !108
  %744 = icmp eq ptr %741, %743
  br i1 %744, label %754, label %745

745:                                              ; preds = %739, %749
  %746 = phi ptr [ %750, %749 ], [ %741, %739 ]
  %747 = load ptr, ptr %746, align 8, !tbaa !5
  %748 = load ptr, ptr %747, align 8
  invoke void %748(ptr noundef nonnull align 8 dereferenceable(88) %746)
          to label %749 unwind label %758

749:                                              ; preds = %745
  %750 = getelementptr inbounds %"class.dealii::Vector", ptr %746, i64 1
  %751 = icmp eq ptr %750, %743
  br i1 %751, label %752, label %745

752:                                              ; preds = %749
  %753 = load ptr, ptr %13, align 8, !tbaa !105
  br label %754

754:                                              ; preds = %752, %739
  %755 = phi ptr [ %753, %752 ], [ %741, %739 ]
  %756 = icmp eq ptr %755, null
  br i1 %756, label %763, label %757

757:                                              ; preds = %754
  call void @_ZdlPv(ptr noundef nonnull %755) #20
  br label %763

758:                                              ; preds = %745
  %759 = landingpad { ptr, i32 }
          catch ptr null
  %760 = load ptr, ptr %13, align 8, !tbaa !105
  %761 = icmp eq ptr %760, null
  br i1 %761, label %810, label %762

762:                                              ; preds = %758
  call void @_ZdlPv(ptr noundef nonnull %760) #20
  br label %810

763:                                              ; preds = %681, %677, %757, %754, %303
  %764 = phi { ptr, i32 } [ %304, %303 ], [ %740, %754 ], [ %740, %757 ], [ %678, %681 ], [ %678, %677 ]
  call void @llvm.lifetime.end.p0(i64 24, ptr nonnull %13) #18
  %765 = load ptr, ptr %10, align 8, !tbaa !105
  %766 = getelementptr inbounds %"struct.std::_Vector_base<dealii::Vector<double>, std::allocator<dealii::Vector<double> > >::_Vector_impl_data", ptr %10, i64 0, i32 1
  %767 = load ptr, ptr %766, align 8, !tbaa !108
  %768 = icmp eq ptr %765, %767
  br i1 %768, label %778, label %769

769:                                              ; preds = %763, %773
  %770 = phi ptr [ %774, %773 ], [ %765, %763 ]
  %771 = load ptr, ptr %770, align 8, !tbaa !5
  %772 = load ptr, ptr %771, align 8
  invoke void %772(ptr noundef nonnull align 8 dereferenceable(88) %770)
          to label %773 unwind label %782

773:                                              ; preds = %769
  %774 = getelementptr inbounds %"class.dealii::Vector", ptr %770, i64 1
  %775 = icmp eq ptr %774, %767
  br i1 %775, label %776, label %769

776:                                              ; preds = %773
  %777 = load ptr, ptr %10, align 8, !tbaa !105
  br label %778

778:                                              ; preds = %776, %763
  %779 = phi ptr [ %777, %776 ], [ %765, %763 ]
  %780 = icmp eq ptr %779, null
  br i1 %780, label %787, label %781

781:                                              ; preds = %778
  call void @_ZdlPv(ptr noundef nonnull %779) #20
  br label %787

782:                                              ; preds = %769
  %783 = landingpad { ptr, i32 }
          catch ptr null
  %784 = load ptr, ptr %10, align 8, !tbaa !105
  %785 = icmp eq ptr %784, null
  br i1 %785, label %810, label %786

786:                                              ; preds = %782
  call void @_ZdlPv(ptr noundef nonnull %784) #20
  br label %810

787:                                              ; preds = %704, %700, %781, %778, %297
  %788 = phi { ptr, i32 } [ %298, %297 ], [ %764, %778 ], [ %764, %781 ], [ %701, %704 ], [ %701, %700 ]
  call void @llvm.lifetime.end.p0(i64 24, ptr nonnull %10) #18
  %789 = icmp eq ptr %46, null
  br i1 %789, label %791, label %790

790:                                              ; preds = %787
  call void @_ZdlPv(ptr noundef nonnull %46) #20
  br label %791

791:                                              ; preds = %790, %787, %291
  %792 = phi { ptr, i32 } [ %292, %291 ], [ %788, %787 ], [ %788, %790 ]
  store ptr getelementptr inbounds ({ [4 x ptr] }, ptr @_ZTVN6dealii16FEFaceValuesBaseILi3ELi3EEE, i64 0, inrange i32 0, i64 2), ptr %9, align 8, !tbaa !5
  %793 = getelementptr inbounds %"class.dealii::FEFaceValuesBase", ptr %9, i64 0, i32 2
  invoke void @_ZN6dealii10QuadratureILi2EED1Ev(ptr noundef nonnull align 8 dereferenceable(128) %793)
          to label %794 unwind label %795

794:                                              ; preds = %791
  invoke void @_ZN6dealii12FEValuesBaseILi3ELi3EED2Ev(ptr noundef nonnull align 8 dereferenceable(648) %9)
          to label %800 unwind label %808

795:                                              ; preds = %791
  %796 = landingpad { ptr, i32 }
          catch ptr null
  invoke void @_ZN6dealii12FEValuesBaseILi3ELi3EED2Ev(ptr noundef nonnull align 8 dereferenceable(648) %9)
          to label %810 unwind label %797

797:                                              ; preds = %795
  %798 = landingpad { ptr, i32 }
          catch ptr null
  %799 = extractvalue { ptr, i32 } %798, 0
  call void @__clang_call_terminate(ptr %799) #17
  unreachable

800:                                              ; preds = %794, %711, %289
  %801 = phi { ptr, i32 } [ %290, %289 ], [ %712, %711 ], [ %792, %794 ]
  call void @llvm.lifetime.end.p0(i64 784, ptr nonnull %9) #18
  %802 = icmp eq ptr %34, null
  br i1 %802, label %807, label %803

803:                                              ; preds = %800
  %804 = load ptr, ptr %34, align 8, !tbaa !5
  %805 = getelementptr inbounds ptr, ptr %804, i64 1
  %806 = load ptr, ptr %805, align 8
  invoke void %806(ptr noundef nonnull align 8 dereferenceable(8) %34)
          to label %807 unwind label %808

807:                                              ; preds = %800, %803
  resume { ptr, i32 } %801

808:                                              ; preds = %803, %794, %738, %301, %295
  %809 = landingpad { ptr, i32 }
          catch ptr null
  br label %810

810:                                              ; preds = %786, %782, %795, %808, %758, %762
  %811 = phi { ptr, i32 } [ %759, %762 ], [ %759, %758 ], [ %783, %786 ], [ %783, %782 ], [ %809, %808 ], [ %796, %795 ]
  %812 = extractvalue { ptr, i32 } %811, 0
  call void @__clang_call_terminate(ptr %812) #17
  unreachable
}

; Function Attrs: sspstrong uwtable
define weak_odr dso_local void @_ZNK12METomography12Measurements35ScaledWeightedDirichletMeasurements4BaseILi3EfE27build_matrix_contribution_1ERKN9libparest5Slave10Stationary14Discretization4BaseILi3EEERKN6dealii11BlockVectorIdEERKNS6_17MeasurementGetter9Factories4BaseILi3EEERNSC_17BlockSparseMatrixIfEEjjRNSC_7Threads16DummyThreadMutexE(ptr noundef nonnull align 8 dereferenceable(152) %0, ptr noundef nonnull align 8 dereferenceable(96) %1, ptr noundef nonnull align 8 dereferenceable(128) %2, ptr noundef nonnull align 8 dereferenceable(8) %3, ptr noundef nonnull align 8 dereferenceable(320) %4, i32 noundef %5, i32 noundef %6, ptr noundef nonnull align 1 dereferenceable(1) %7) unnamed_addr #0 comdat align 2 personality ptr @__gxx_personality_v0 {
  %9 = alloca %"class.dealii::FEFaceValues", align 8
  %10 = alloca %"class.dealii::FullMatrix", align 8
  %11 = alloca %"class.std::vector.27", align 8
  %12 = alloca %"class.dealii::TriaActiveIterator", align 8
  %13 = alloca %"class.dealii::TriaActiveIterator", align 8
  %14 = getelementptr inbounds %"class.libparest::Slave::Stationary::Discretization::Base", ptr %1, i64 0, i32 2
  %15 = load ptr, ptr %14, align 8, !tbaa !13
  %16 = getelementptr inbounds %"class.libparest::Slave::Stationary::Discretization::FiniteElements", ptr %15, i64 0, i32 1
  %17 = load ptr, ptr %16, align 8, !tbaa !38
  %18 = getelementptr inbounds i8, ptr %17, i64 112
  %19 = load i32, ptr %18, align 8, !tbaa !110
  call void @llvm.lifetime.start.p0(i64 784, ptr nonnull %9) #18
  %20 = getelementptr inbounds %"class.libparest::Slave::Stationary::Discretization::FiniteElements", ptr %15, i64 0, i32 5
  %21 = load ptr, ptr %20, align 8, !tbaa !26
  call void @_ZN6dealii12FEFaceValuesILi3ELi3EEC1ERKNS_13FiniteElementILi3ELi3EEERKNS_10QuadratureILi2EEENS_11UpdateFlagsE(ptr noundef nonnull align 8 dereferenceable(784) %9, ptr noundef nonnull align 8 dereferenceable(728) %17, ptr noundef nonnull align 8 dereferenceable(128) %21, i32 noundef 49)
  %22 = zext i32 %19 to i64
  %23 = icmp eq i32 %19, 0
  br i1 %23, label %28, label %24

24:                                               ; preds = %8
  %25 = shl nuw nsw i64 %22, 2
  %26 = invoke noalias noundef nonnull ptr @_Znwm(i64 noundef %25) #19
          to label %27 unwind label %206

27:                                               ; preds = %24
  call void @llvm.memset.p0.i64(ptr nonnull align 4 %26, i8 0, i64 %25, i1 false), !tbaa !72
  br label %28

28:                                               ; preds = %27, %8
  %29 = phi ptr [ null, %8 ], [ %26, %27 ]
  call void @llvm.lifetime.start.p0(i64 96, ptr nonnull %10) #18
  invoke void @_ZN6dealii10FullMatrixIdEC1Ejj(ptr noundef nonnull align 8 dereferenceable(92) %10, i32 noundef %19, i32 noundef %19)
          to label %30 unwind label %208

30:                                               ; preds = %28
  call void @llvm.lifetime.start.p0(i64 24, ptr nonnull %11) #18
  %31 = getelementptr inbounds %"class.dealii::FEValuesBase", ptr %9, i64 0, i32 2
  %32 = load i32, ptr %31, align 4, !tbaa !122
  %33 = zext i32 %32 to i64
  %34 = icmp eq i32 %32, 0
  br i1 %34, label %35, label %36

35:                                               ; preds = %30
  call void @llvm.memset.p0.i64(ptr noundef nonnull align 8 dereferenceable(24) %11, i8 0, i64 24, i1 false)
  br label %42

36:                                               ; preds = %30
  %37 = shl nuw nsw i64 %33, 3
  %38 = invoke noalias noundef nonnull ptr @_Znwm(i64 noundef %37) #19
          to label %39 unwind label %210

39:                                               ; preds = %36
  store ptr %38, ptr %11, align 8, !tbaa !50
  %40 = getelementptr inbounds double, ptr %38, i64 %33
  %41 = getelementptr inbounds %"struct.std::_Vector_base<double, std::allocator<double> >::_Vector_impl_data", ptr %11, i64 0, i32 2
  store ptr %40, ptr %41, align 8, !tbaa !51
  call void @llvm.memset.p0.i64(ptr nonnull align 8 %38, i8 0, i64 %37, i1 false), !tbaa !47
  br label %42

42:                                               ; preds = %39, %35
  %43 = phi ptr [ null, %35 ], [ %40, %39 ]
  %44 = getelementptr inbounds %"struct.std::_Vector_base<double, std::allocator<double> >::_Vector_impl_data", ptr %11, i64 0, i32 1
  store ptr %43, ptr %44, align 8, !tbaa !52
  call void @llvm.lifetime.start.p0(i64 24, ptr nonnull %12) #18
  %45 = getelementptr inbounds %"class.libparest::Slave::Stationary::Discretization::Base", ptr %1, i64 0, i32 3
  %46 = load ptr, ptr %45, align 8, !tbaa !53
  %47 = getelementptr inbounds %"class.libparest::Slave::Stationary::Discretization::DoFHandlers", ptr %46, i64 0, i32 1
  invoke void @_ZNK6dealii10DoFHandlerILi3ELi3EE12begin_activeEj(ptr nonnull sret(%"class.dealii::TriaActiveIterator") align 8 %12, ptr noundef nonnull align 8 dereferenceable(168) %47, i32 noundef 0)
          to label %48 unwind label %212

48:                                               ; preds = %42
  call void @llvm.lifetime.start.p0(i64 24, ptr nonnull %13) #18
  %49 = load ptr, ptr %45, align 8, !tbaa !53
  %50 = getelementptr inbounds %"class.libparest::Slave::Stationary::Discretization::DoFHandlers", ptr %49, i64 0, i32 1
  invoke void @_ZNK6dealii10DoFHandlerILi3ELi3EE12begin_activeEj(ptr nonnull sret(%"class.dealii::TriaActiveIterator") align 8 %13, ptr noundef nonnull align 8 dereferenceable(168) %50, i32 noundef 0)
          to label %51 unwind label %214

51:                                               ; preds = %48
  %52 = sext i32 %5 to i64
  invoke void @_ZSt9__advanceIN6dealii18TriaActiveIteratorINS0_15DoFCellAccessorINS0_10DoFHandlerILi3ELi3EEEEEEElEvRT_T0_St26bidirectional_iterator_tag(ptr noundef nonnull align 8 dereferenceable(24) %12, i64 noundef %52)
          to label %53 unwind label %214

53:                                               ; preds = %51
  %54 = sext i32 %6 to i64
  invoke void @_ZSt9__advanceIN6dealii18TriaActiveIteratorINS0_15DoFCellAccessorINS0_10DoFHandlerILi3ELi3EEEEEEElEvRT_T0_St26bidirectional_iterator_tag(ptr noundef nonnull align 8 dereferenceable(24) %13, i64 noundef %54)
          to label %55 unwind label %214

55:                                               ; preds = %53
  %56 = getelementptr inbounds %"class.dealii::TriaAccessorBase", ptr %12, i64 0, i32 1
  %57 = getelementptr inbounds %"class.dealii::TriaAccessorBase", ptr %13, i64 0, i32 1
  %58 = load i32, ptr %56, align 4, !tbaa !54
  %59 = load i32, ptr %57, align 4, !tbaa !54
  %60 = icmp ne i32 %58, %59
  %61 = load i32, ptr %12, align 8
  %62 = load i32, ptr %13, align 8
  %63 = icmp ne i32 %61, %62
  %64 = select i1 %60, i1 true, i1 %63
  br i1 %64, label %65, label %685

65:                                               ; preds = %55
  %66 = getelementptr inbounds %"class.dealii::TriaAccessorBase", ptr %12, i64 0, i32 2
  %67 = getelementptr inbounds %"class.dealii::DoFAccessor", ptr %12, i64 0, i32 1
  %68 = getelementptr inbounds i8, ptr %0, i64 104
  %69 = getelementptr inbounds i8, ptr %0, i64 96
  %70 = getelementptr inbounds %"class.METomography::Measurements::ScaledWeightedDirichletMeasurements::Base.173", ptr %0, i64 0, i32 2
  %71 = getelementptr inbounds i8, ptr %9, i64 312
  %72 = getelementptr inbounds %"class.dealii::TableBase", ptr %10, i64 0, i32 3
  %73 = getelementptr inbounds %"class.dealii::TableBase", ptr %10, i64 0, i32 3, i32 0, i32 0, i64 1
  %74 = getelementptr inbounds %"class.dealii::TableBase", ptr %10, i64 0, i32 1
  %75 = getelementptr inbounds %"class.dealii::FiniteElement", ptr %17, i64 0, i32 12
  %76 = getelementptr inbounds %"class.libparest::Slave::Stationary::Measurements::Base.174", ptr %0, i64 0, i32 1
  %77 = getelementptr inbounds %"class.dealii::FEValuesBase", ptr %9, i64 0, i32 6
  %78 = getelementptr inbounds i8, ptr %9, i64 480
  %79 = getelementptr inbounds i8, ptr %9, i64 144
  %80 = getelementptr inbounds i8, ptr %9, i64 160
  %81 = getelementptr inbounds i8, ptr %9, i64 216
  %82 = getelementptr inbounds %"class.dealii::BlockMatrixBase.176", ptr %4, i64 0, i32 1
  %83 = getelementptr inbounds %"class.dealii::BlockMatrixBase.176", ptr %4, i64 0, i32 1, i32 1
  %84 = getelementptr inbounds %"class.dealii::BlockMatrixBase.176", ptr %4, i64 0, i32 2
  %85 = getelementptr inbounds %"class.dealii::BlockMatrixBase.176", ptr %4, i64 0, i32 2, i32 1
  %86 = getelementptr inbounds %"class.dealii::BlockMatrixBase.176", ptr %4, i64 0, i32 3, i32 0, i32 1
  %87 = getelementptr inbounds %"class.dealii::BlockMatrixBase.176", ptr %4, i64 0, i32 3, i32 0, i32 3, i32 0, i32 0, i64 1
  br label %216

88:                                               ; preds = %680
  %89 = load ptr, ptr %66, align 8, !tbaa !56
  %90 = getelementptr inbounds %"class.dealii::Triangulation", ptr %89, i64 0, i32 1
  %91 = load ptr, ptr %90, align 8, !tbaa !57
  %92 = ptrtoint ptr %91 to i64
  %93 = getelementptr inbounds %"class.dealii::Triangulation", ptr %89, i64 0, i32 1, i32 0, i32 0, i32 0, i32 1
  %94 = load i32, ptr %12, align 8
  %95 = load i32, ptr %56, align 4
  br label %96

96:                                               ; preds = %184, %88
  %97 = phi i32 [ %94, %88 ], [ %163, %184 ]
  %98 = phi i32 [ %94, %88 ], [ %164, %184 ]
  %99 = phi i32 [ %94, %88 ], [ %185, %184 ]
  %100 = phi i32 [ %95, %88 ], [ %165, %184 ]
  %101 = add nsw i32 %100, 1
  %102 = sext i32 %99 to i64
  %103 = getelementptr inbounds ptr, ptr %91, i64 %102
  %104 = load ptr, ptr %103, align 8, !tbaa !59
  %105 = getelementptr inbounds %"class.dealii::internal::Triangulation::TriaLevel", ptr %104, i64 0, i32 4
  %106 = getelementptr inbounds %"class.dealii::internal::Triangulation::TriaLevel", ptr %104, i64 0, i32 4, i32 0, i32 0, i32 0, i32 0, i32 0, i32 1
  %107 = load ptr, ptr %106, align 8, !tbaa !60
  %108 = load ptr, ptr %105, align 8, !tbaa !62
  %109 = ptrtoint ptr %107 to i64
  %110 = ptrtoint ptr %108 to i64
  %111 = sub i64 %109, %110
  %112 = sdiv exact i64 %111, 24
  %113 = trunc i64 %112 to i32
  %114 = icmp slt i32 %101, %113
  br i1 %114, label %162, label %115

115:                                              ; preds = %96
  %116 = add nsw i64 %102, 1
  %117 = trunc i64 %116 to i32
  store i32 %117, ptr %12, align 8, !tbaa !63
  %118 = load ptr, ptr %93, align 8, !tbaa !64
  %119 = ptrtoint ptr %118 to i64
  %120 = sub i64 %119, %92
  %121 = shl i64 %120, 29
  %122 = ashr i64 %121, 32
  %123 = icmp slt i64 %116, %122
  br i1 %123, label %124, label %156

124:                                              ; preds = %115
  %125 = getelementptr inbounds ptr, ptr %91, i64 %116
  %126 = load ptr, ptr %125, align 8, !tbaa !59
  %127 = getelementptr inbounds %"class.dealii::internal::Triangulation::TriaLevel", ptr %126, i64 0, i32 4
  %128 = getelementptr inbounds %"class.dealii::internal::Triangulation::TriaLevel", ptr %126, i64 0, i32 4, i32 0, i32 0, i32 0, i32 0, i32 0, i32 1
  %129 = load ptr, ptr %128, align 8, !tbaa !60
  %130 = load ptr, ptr %127, align 8, !tbaa !62
  %131 = ptrtoint ptr %129 to i64
  %132 = ptrtoint ptr %130 to i64
  %133 = sub i64 %131, %132
  %134 = sdiv exact i64 %133, 24
  %135 = trunc i64 %134 to i32
  %136 = icmp sgt i32 %135, 0
  br i1 %136, label %158, label %150

137:                                              ; preds = %150
  %138 = getelementptr inbounds ptr, ptr %91, i64 %152
  %139 = load ptr, ptr %138, align 8, !tbaa !59
  %140 = getelementptr inbounds %"class.dealii::internal::Triangulation::TriaLevel", ptr %139, i64 0, i32 4
  %141 = getelementptr inbounds %"class.dealii::internal::Triangulation::TriaLevel", ptr %139, i64 0, i32 4, i32 0, i32 0, i32 0, i32 0, i32 0, i32 1
  %142 = load ptr, ptr %141, align 8, !tbaa !60
  %143 = load ptr, ptr %140, align 8, !tbaa !62
  %144 = ptrtoint ptr %142 to i64
  %145 = ptrtoint ptr %143 to i64
  %146 = sub i64 %144, %145
  %147 = sdiv exact i64 %146, 24
  %148 = trunc i64 %147 to i32
  %149 = icmp sgt i32 %148, 0
  br i1 %149, label %157, label %150, !llvm.loop !65

150:                                              ; preds = %124, %137
  %151 = phi i64 [ %152, %137 ], [ %116, %124 ]
  %152 = add i64 %151, 1
  %153 = trunc i64 %152 to i32
  %154 = icmp eq i64 %152, %122
  br i1 %154, label %155, label %137, !llvm.loop !65

155:                                              ; preds = %150
  store i32 %153, ptr %12, align 8, !tbaa !63
  br label %156

156:                                              ; preds = %155, %115
  store i32 -1, ptr %12, align 8, !tbaa !63
  br label %162

157:                                              ; preds = %137
  store i32 %153, ptr %12, align 8, !tbaa !63
  br label %158

158:                                              ; preds = %157, %124
  %159 = phi i32 [ %117, %124 ], [ %153, %157 ]
  %160 = phi i64 [ %116, %124 ], [ %152, %157 ]
  %161 = trunc i64 %160 to i32
  br label %162

162:                                              ; preds = %158, %156, %96
  %163 = phi i32 [ %97, %96 ], [ -1, %156 ], [ %159, %158 ]
  %164 = phi i32 [ %98, %96 ], [ -1, %156 ], [ %161, %158 ]
  %165 = phi i32 [ %101, %96 ], [ -1, %156 ], [ 0, %158 ]
  %166 = phi i32 [ %99, %96 ], [ -1, %156 ], [ %161, %158 ]
  %167 = or i32 %166, %165
  %168 = icmp sgt i32 %167, -1
  br i1 %168, label %169, label %186

169:                                              ; preds = %162
  %170 = zext i32 %166 to i64
  %171 = getelementptr inbounds ptr, ptr %91, i64 %170
  %172 = load ptr, ptr %171, align 8, !tbaa !59
  %173 = getelementptr inbounds %"class.dealii::internal::Triangulation::TriaLevel", ptr %172, i64 0, i32 4, i32 0, i32 3
  %174 = load ptr, ptr %173, align 8, !tbaa !67
  %175 = lshr i32 %165, 6
  %176 = zext i32 %175 to i64
  %177 = getelementptr inbounds i64, ptr %174, i64 %176
  %178 = and i32 %165, 63
  %179 = zext i32 %178 to i64
  %180 = shl nuw i64 1, %179
  %181 = load i64, ptr %177, align 8, !tbaa !69
  %182 = and i64 %181, %180
  %183 = icmp eq i64 %182, 0
  br i1 %183, label %184, label %186

184:                                              ; preds = %169, %189
  %185 = phi i32 [ %166, %169 ], [ %164, %189 ]
  br label %96

186:                                              ; preds = %169, %162
  store i32 %165, ptr %56, align 4, !tbaa !54
  %187 = or i32 %165, %164
  %188 = icmp sgt i32 %187, -1
  br i1 %188, label %189, label %200

189:                                              ; preds = %186
  %190 = zext i32 %164 to i64
  %191 = getelementptr inbounds ptr, ptr %91, i64 %190
  %192 = load ptr, ptr %191, align 8, !tbaa !59
  %193 = getelementptr inbounds %"class.dealii::internal::Triangulation::TriaLevel", ptr %192, i64 0, i32 4, i32 0, i32 1
  %194 = shl i32 %165, 2
  %195 = zext i32 %194 to i64
  %196 = load ptr, ptr %193, align 8, !tbaa !70
  %197 = getelementptr inbounds i32, ptr %196, i64 %195
  %198 = load i32, ptr %197, align 4, !tbaa !72
  %199 = icmp eq i32 %198, -1
  br i1 %199, label %200, label %184

200:                                              ; preds = %186, %189
  %201 = load i32, ptr %57, align 4, !tbaa !54
  %202 = icmp ne i32 %165, %201
  %203 = load i32, ptr %13, align 8
  %204 = icmp ne i32 %163, %203
  %205 = select i1 %202, i1 true, i1 %204
  br i1 %205, label %683, label %685

206:                                              ; preds = %24
  %207 = landingpad { ptr, i32 }
          cleanup
  br label %726

208:                                              ; preds = %694, %28
  %209 = landingpad { ptr, i32 }
          cleanup
  br label %722

210:                                              ; preds = %36
  %211 = landingpad { ptr, i32 }
          cleanup
  br label %715

212:                                              ; preds = %42
  %213 = landingpad { ptr, i32 }
          cleanup
  br label %710

214:                                              ; preds = %53, %51, %48
  %215 = landingpad { ptr, i32 }
          cleanup
  br label %708

216:                                              ; preds = %683, %65
  %217 = phi i64 [ 0, %65 ], [ %684, %683 ]
  %218 = load ptr, ptr %66, align 8, !tbaa !56, !noalias !73
  %219 = getelementptr inbounds %"class.dealii::Triangulation", ptr %218, i64 0, i32 1
  %220 = load i32, ptr %12, align 8, !tbaa !63, !noalias !73
  %221 = sext i32 %220 to i64
  %222 = load ptr, ptr %219, align 8, !tbaa !57, !noalias !73
  %223 = getelementptr inbounds ptr, ptr %222, i64 %221
  %224 = load ptr, ptr %223, align 8, !tbaa !59, !noalias !73
  %225 = getelementptr inbounds %"class.dealii::internal::Triangulation::TriaLevel", ptr %224, i64 0, i32 4
  %226 = load i32, ptr %56, align 4, !tbaa !54, !noalias !73
  %227 = sext i32 %226 to i64
  %228 = load ptr, ptr %225, align 8, !tbaa !62, !noalias !73
  %229 = getelementptr inbounds %"class.dealii::internal::Triangulation::TriaObject", ptr %228, i64 %227
  %230 = getelementptr inbounds [6 x i32], ptr %229, i64 0, i64 %217
  %231 = load i32, ptr %230, align 4, !tbaa !72, !noalias !73
  %232 = getelementptr inbounds %"class.dealii::Triangulation", ptr %218, i64 0, i32 2
  %233 = load ptr, ptr %232, align 8, !tbaa !74
  %234 = getelementptr inbounds %"class.dealii::internal::Triangulation::TriaObjects.223", ptr %233, i64 0, i32 5
  %235 = sext i32 %231 to i64
  %236 = load ptr, ptr %234, align 8, !tbaa !102
  %237 = getelementptr inbounds i8, ptr %236, i64 %235
  %238 = load i8, ptr %237, align 1, !tbaa !104
  %239 = icmp eq i8 %238, -1
  %240 = load ptr, ptr %68, align 8
  %241 = icmp eq ptr %240, null
  %242 = select i1 %239, i1 true, i1 %241
  br i1 %242, label %680, label %243

243:                                              ; preds = %216, %243
  %244 = phi ptr [ %253, %243 ], [ %240, %216 ]
  %245 = phi ptr [ %251, %243 ], [ %69, %216 ]
  %246 = getelementptr inbounds %"struct.std::_Rb_tree_node", ptr %244, i64 0, i32 1
  %247 = load i8, ptr %246, align 1, !tbaa !104
  %248 = icmp ult i8 %247, %238
  %249 = getelementptr inbounds %"struct.std::_Rb_tree_node_base", ptr %244, i64 0, i32 3
  %250 = getelementptr inbounds %"struct.std::_Rb_tree_node_base", ptr %244, i64 0, i32 2
  %251 = select i1 %248, ptr %245, ptr %244
  %252 = select i1 %248, ptr %249, ptr %250
  %253 = load ptr, ptr %252, align 8, !tbaa !59
  %254 = icmp eq ptr %253, null
  br i1 %254, label %255, label %243

255:                                              ; preds = %243
  %256 = icmp eq ptr %251, %69
  br i1 %256, label %680, label %257

257:                                              ; preds = %255
  %258 = getelementptr inbounds %"struct.std::_Rb_tree_node", ptr %251, i64 0, i32 1
  %259 = load i8, ptr %258, align 1, !tbaa !104
  %260 = icmp ugt i8 %259, %238
  br i1 %260, label %680, label %261

261:                                              ; preds = %257
  %262 = trunc i64 %217 to i32
  invoke void @_ZN6dealii12FEFaceValuesILi3ELi3EE6reinitERKNS_12TriaIteratorINS_15DoFCellAccessorINS_10DoFHandlerILi3ELi3EEEEEEEj(ptr noundef nonnull align 8 dereferenceable(784) %9, ptr noundef nonnull align 8 dereferenceable(24) %12, i32 noundef %262)
          to label %263 unwind label %608

263:                                              ; preds = %261
  %264 = load ptr, ptr %70, align 8, !tbaa !8
  %265 = load ptr, ptr %264, align 8, !tbaa !5
  %266 = getelementptr inbounds ptr, ptr %265, i64 6
  %267 = load ptr, ptr %266, align 8
  invoke void %267(ptr noundef nonnull align 8 dereferenceable(92) %264, ptr noundef nonnull align 8 dereferenceable(24) %71, ptr noundef nonnull align 8 dereferenceable(24) %11, i32 noundef 0)
          to label %268 unwind label %608

268:                                              ; preds = %263
  %269 = load i32, ptr %72, align 4, !tbaa !72
  %270 = load i32, ptr %73, align 8, !tbaa !72
  %271 = mul i32 %270, %269
  %272 = icmp eq i32 %271, 0
  br i1 %272, label %277, label %273

273:                                              ; preds = %268
  %274 = load ptr, ptr %74, align 8, !tbaa !192
  %275 = zext i32 %271 to i64
  %276 = shl nuw nsw i64 %275, 3
  call void @llvm.memset.p0.i64(ptr align 8 %274, i8 0, i64 %276, i1 false), !tbaa !47
  br label %277

277:                                              ; preds = %268, %273
  %278 = load ptr, ptr %67, align 8, !tbaa !113
  %279 = getelementptr inbounds %"class.dealii::DoFHandler", ptr %278, i64 0, i32 2
  %280 = load ptr, ptr %279, align 8, !tbaa !117
  %281 = getelementptr inbounds i8, ptr %280, i64 112
  %282 = load i32, ptr %281, align 8, !tbaa !110
  %283 = icmp eq i32 %282, 0
  br i1 %283, label %306, label %284

284:                                              ; preds = %277
  %285 = getelementptr inbounds %"class.dealii::DoFHandler", ptr %278, i64 0, i32 3
  %286 = load ptr, ptr %285, align 8, !tbaa !119
  %287 = load i32, ptr %12, align 8, !tbaa !63
  %288 = sext i32 %287 to i64
  %289 = getelementptr inbounds ptr, ptr %286, i64 %288
  %290 = load ptr, ptr %289, align 8, !tbaa !59
  %291 = load ptr, ptr %290, align 8, !tbaa !121
  %292 = load i32, ptr %56, align 4, !tbaa !54
  %293 = mul i32 %292, %282
  %294 = zext i32 %293 to i64
  %295 = getelementptr inbounds i32, ptr %291, i64 %294
  br label %296

296:                                              ; preds = %296, %284
  %297 = phi i64 [ 0, %284 ], [ %301, %296 ]
  %298 = phi ptr [ %295, %284 ], [ %302, %296 ]
  %299 = load i32, ptr %298, align 4, !tbaa !72
  %300 = getelementptr inbounds i32, ptr %29, i64 %297
  store i32 %299, ptr %300, align 4, !tbaa !72
  %301 = add nuw nsw i64 %297, 1
  %302 = getelementptr inbounds i32, ptr %298, i64 1
  %303 = load i32, ptr %281, align 8, !tbaa !110
  %304 = zext i32 %303 to i64
  %305 = icmp ult i64 %301, %304
  br i1 %305, label %296, label %306

306:                                              ; preds = %296, %277
  %307 = load i32, ptr %31, align 4, !tbaa !122
  %308 = icmp eq i32 %307, 0
  br i1 %308, label %607, label %309

309:                                              ; preds = %306
  br i1 %23, label %680, label %310

310:                                              ; preds = %309
  %311 = load ptr, ptr %75, align 8, !tbaa !165
  %312 = zext i32 %307 to i64
  br label %313

313:                                              ; preds = %604, %310
  %314 = phi i64 [ %605, %604 ], [ 0, %310 ]
  %315 = trunc i64 %314 to i32
  %316 = trunc i64 %314 to i32
  %317 = trunc i64 %314 to i32
  %318 = trunc i64 %314 to i32
  br label %583

319:                                              ; preds = %580
  %320 = add nuw nsw i64 %584, 1
  %321 = icmp eq i64 %320, %22
  br i1 %321, label %604, label %583

322:                                              ; preds = %583, %580
  %323 = phi i64 [ 0, %583 ], [ %581, %580 ]
  %324 = load i64, ptr %585, align 4
  %325 = trunc i64 %324 to i32
  %326 = getelementptr inbounds %"struct.std::pair", ptr %311, i64 %323
  %327 = load i64, ptr %326, align 4
  %328 = trunc i64 %327 to i32
  %329 = icmp eq i32 %325, %328
  br i1 %329, label %330, label %580

330:                                              ; preds = %322
  %331 = load i32, ptr %587, align 8, !tbaa !49
  %332 = icmp ugt i32 %331, %325
  %333 = icmp ugt i32 %325, 1
  %334 = and i1 %332, %333
  br i1 %334, label %335, label %580

335:                                              ; preds = %330
  %336 = load i8, ptr %589, align 4, !tbaa !167, !range !190, !noundef !73
  %337 = icmp eq i8 %336, 0
  br i1 %337, label %338, label %372

338:                                              ; preds = %335
  %339 = load ptr, ptr %590, align 8, !tbaa !121
  %340 = getelementptr inbounds i32, ptr %339, i64 %584
  %341 = load i32, ptr %340, align 4, !tbaa !72
  %342 = icmp eq i32 %341, 1
  br i1 %342, label %372, label %343

343:                                              ; preds = %338
  %344 = load ptr, ptr %591, align 8, !tbaa !191
  %345 = getelementptr inbounds %"class.std::vector.66", ptr %344, i64 %584
  %346 = load ptr, ptr %345, align 8, !tbaa !67
  %347 = load i64, ptr %346, align 8, !tbaa !69
  %348 = and i64 %347, 4
  %349 = icmp eq i64 %348, 0
  br i1 %349, label %394, label %350

350:                                              ; preds = %343
  %351 = load i32, ptr %593, align 4, !tbaa !72
  br label %352

352:                                              ; preds = %352, %350
  %353 = phi i64 [ %360, %352 ], [ 0, %350 ]
  %354 = phi i32 [ %365, %352 ], [ 0, %350 ]
  %355 = phi ptr [ %364, %352 ], [ %346, %350 ]
  %356 = zext i32 %354 to i64
  %357 = load i64, ptr %355, align 8, !tbaa !69
  %358 = lshr i64 %357, %356
  %359 = and i64 %358, 1
  %360 = add nuw nsw i64 %359, %353
  %361 = add i32 %354, 1
  %362 = icmp eq i32 %354, 63
  %363 = zext i1 %362 to i64
  %364 = getelementptr inbounds i64, ptr %355, i64 %363
  %365 = select i1 %362, i32 0, i32 %361
  %366 = icmp ne ptr %364, %346
  %367 = icmp ne i32 %365, 2
  %368 = or i1 %367, %366
  br i1 %368, label %352, label %369

369:                                              ; preds = %352
  %370 = trunc i64 %360 to i32
  %371 = add i32 %351, %370
  br label %380

372:                                              ; preds = %338, %335
  %373 = load ptr, ptr %594, align 8, !tbaa !165
  %374 = getelementptr inbounds %"struct.std::pair", ptr %373, i64 %584
  %375 = load i64, ptr %374, align 4
  %376 = and i64 %375, 4294967295
  %377 = icmp eq i64 %376, 2
  br i1 %377, label %378, label %387

378:                                              ; preds = %372
  %379 = load i32, ptr %593, align 4, !tbaa !72
  br label %380

380:                                              ; preds = %378, %369
  %381 = phi i32 [ %371, %369 ], [ %379, %378 ]
  %382 = mul i32 %596, %381
  %383 = add i32 %382, %315
  %384 = zext i32 %383 to i64
  %385 = getelementptr inbounds double, ptr %595, i64 %384
  %386 = load double, ptr %385, align 8, !tbaa !47
  br label %387

387:                                              ; preds = %380, %372
  %388 = phi double [ 0.000000e+00, %372 ], [ %386, %380 ]
  br i1 %337, label %389, label %425

389:                                              ; preds = %387
  %390 = load ptr, ptr %590, align 8, !tbaa !121
  %391 = getelementptr inbounds i32, ptr %390, i64 %584
  %392 = load i32, ptr %391, align 4, !tbaa !72
  %393 = icmp eq i32 %392, 1
  br i1 %393, label %425, label %394

394:                                              ; preds = %343, %389
  %395 = phi double [ %388, %389 ], [ 0.000000e+00, %343 ]
  %396 = phi ptr [ %390, %389 ], [ %339, %343 ]
  %397 = load ptr, ptr %591, align 8, !tbaa !191
  %398 = getelementptr inbounds %"class.std::vector.66", ptr %397, i64 %584
  %399 = load ptr, ptr %398, align 8, !tbaa !67
  %400 = load i64, ptr %399, align 8, !tbaa !69
  %401 = and i64 %400, 8
  %402 = icmp eq i64 %401, 0
  br i1 %402, label %446, label %403

403:                                              ; preds = %394
  %404 = load i32, ptr %593, align 4, !tbaa !72
  br label %405

405:                                              ; preds = %405, %403
  %406 = phi i64 [ %413, %405 ], [ 0, %403 ]
  %407 = phi i32 [ %418, %405 ], [ 0, %403 ]
  %408 = phi ptr [ %417, %405 ], [ %399, %403 ]
  %409 = zext i32 %407 to i64
  %410 = load i64, ptr %408, align 8, !tbaa !69
  %411 = lshr i64 %410, %409
  %412 = and i64 %411, 1
  %413 = add nuw nsw i64 %412, %406
  %414 = add i32 %407, 1
  %415 = icmp eq i32 %407, 63
  %416 = zext i1 %415 to i64
  %417 = getelementptr inbounds i64, ptr %408, i64 %416
  %418 = select i1 %415, i32 0, i32 %414
  %419 = icmp ne ptr %417, %399
  %420 = icmp ne i32 %418, 3
  %421 = or i1 %420, %419
  br i1 %421, label %405, label %422

422:                                              ; preds = %405
  %423 = trunc i64 %413 to i32
  %424 = add i32 %404, %423
  br label %433

425:                                              ; preds = %389, %387
  %426 = load ptr, ptr %594, align 8, !tbaa !165
  %427 = getelementptr inbounds %"struct.std::pair", ptr %426, i64 %584
  %428 = load i64, ptr %427, align 4
  %429 = and i64 %428, 4294967295
  %430 = icmp eq i64 %429, 3
  br i1 %430, label %431, label %441

431:                                              ; preds = %425
  %432 = load i32, ptr %593, align 4, !tbaa !72
  br label %433

433:                                              ; preds = %431, %422
  %434 = phi double [ %395, %422 ], [ %388, %431 ]
  %435 = phi i32 [ %424, %422 ], [ %432, %431 ]
  %436 = mul i32 %596, %435
  %437 = add i32 %436, %316
  %438 = zext i32 %437 to i64
  %439 = getelementptr inbounds double, ptr %595, i64 %438
  %440 = load double, ptr %439, align 8, !tbaa !47
  br label %441

441:                                              ; preds = %433, %425
  %442 = phi double [ %388, %425 ], [ %434, %433 ]
  %443 = phi double [ 0.000000e+00, %425 ], [ %440, %433 ]
  br i1 %337, label %444, label %483

444:                                              ; preds = %441
  %445 = load ptr, ptr %590, align 8, !tbaa !121
  br label %446

446:                                              ; preds = %444, %394
  %447 = phi ptr [ %445, %444 ], [ %396, %394 ]
  %448 = phi double [ %443, %444 ], [ 0.000000e+00, %394 ]
  %449 = phi double [ %442, %444 ], [ %395, %394 ]
  %450 = getelementptr inbounds i32, ptr %447, i64 %323
  %451 = load i32, ptr %450, align 4, !tbaa !72
  %452 = icmp eq i32 %451, 1
  br i1 %452, label %483, label %453

453:                                              ; preds = %446
  %454 = load ptr, ptr %591, align 8, !tbaa !191
  %455 = getelementptr inbounds %"class.std::vector.66", ptr %454, i64 %323
  %456 = load ptr, ptr %455, align 8, !tbaa !67
  %457 = load i64, ptr %456, align 8, !tbaa !69
  %458 = and i64 %457, 4
  %459 = icmp eq i64 %458, 0
  br i1 %459, label %512, label %460

460:                                              ; preds = %453
  %461 = getelementptr inbounds i32, ptr %592, i64 %323
  %462 = load i32, ptr %461, align 4, !tbaa !72
  br label %463

463:                                              ; preds = %463, %460
  %464 = phi i64 [ %471, %463 ], [ 0, %460 ]
  %465 = phi i32 [ %476, %463 ], [ 0, %460 ]
  %466 = phi ptr [ %475, %463 ], [ %456, %460 ]
  %467 = zext i32 %465 to i64
  %468 = load i64, ptr %466, align 8, !tbaa !69
  %469 = lshr i64 %468, %467
  %470 = and i64 %469, 1
  %471 = add nuw nsw i64 %470, %464
  %472 = add i32 %465, 1
  %473 = icmp eq i32 %465, 63
  %474 = zext i1 %473 to i64
  %475 = getelementptr inbounds i64, ptr %466, i64 %474
  %476 = select i1 %473, i32 0, i32 %472
  %477 = icmp ne ptr %475, %456
  %478 = icmp ne i32 %476, 2
  %479 = or i1 %478, %477
  br i1 %479, label %463, label %480

480:                                              ; preds = %463
  %481 = trunc i64 %471 to i32
  %482 = add i32 %462, %481
  br label %494

483:                                              ; preds = %446, %441
  %484 = phi double [ %448, %446 ], [ %443, %441 ]
  %485 = phi double [ %449, %446 ], [ %442, %441 ]
  %486 = load ptr, ptr %594, align 8, !tbaa !165
  %487 = getelementptr inbounds %"struct.std::pair", ptr %486, i64 %323
  %488 = load i64, ptr %487, align 4
  %489 = and i64 %488, 4294967295
  %490 = icmp eq i64 %489, 2
  br i1 %490, label %491, label %503

491:                                              ; preds = %483
  %492 = getelementptr inbounds i32, ptr %592, i64 %323
  %493 = load i32, ptr %492, align 4, !tbaa !72
  br label %494

494:                                              ; preds = %491, %480
  %495 = phi double [ %448, %480 ], [ %484, %491 ]
  %496 = phi double [ %449, %480 ], [ %485, %491 ]
  %497 = phi i32 [ %482, %480 ], [ %493, %491 ]
  %498 = mul i32 %596, %497
  %499 = add i32 %498, %317
  %500 = zext i32 %499 to i64
  %501 = getelementptr inbounds double, ptr %595, i64 %500
  %502 = load double, ptr %501, align 8, !tbaa !47
  br label %503

503:                                              ; preds = %494, %483
  %504 = phi double [ %484, %483 ], [ %495, %494 ]
  %505 = phi double [ %485, %483 ], [ %496, %494 ]
  %506 = phi double [ 0.000000e+00, %483 ], [ %502, %494 ]
  br i1 %337, label %507, label %545

507:                                              ; preds = %503
  %508 = load ptr, ptr %590, align 8, !tbaa !121
  %509 = getelementptr inbounds i32, ptr %508, i64 %323
  %510 = load i32, ptr %509, align 4, !tbaa !72
  %511 = icmp eq i32 %510, 1
  br i1 %511, label %545, label %512

512:                                              ; preds = %453, %507
  %513 = phi double [ %504, %507 ], [ %448, %453 ]
  %514 = phi double [ %505, %507 ], [ %449, %453 ]
  %515 = phi double [ %506, %507 ], [ 0.000000e+00, %453 ]
  %516 = load ptr, ptr %591, align 8, !tbaa !191
  %517 = getelementptr inbounds %"class.std::vector.66", ptr %516, i64 %323
  %518 = load ptr, ptr %517, align 8, !tbaa !67
  %519 = load i64, ptr %518, align 8, !tbaa !69
  %520 = and i64 %519, 8
  %521 = icmp eq i64 %520, 0
  br i1 %521, label %564, label %522

522:                                              ; preds = %512
  %523 = getelementptr inbounds i32, ptr %592, i64 %323
  %524 = load i32, ptr %523, align 4, !tbaa !72
  br label %525

525:                                              ; preds = %525, %522
  %526 = phi i64 [ %533, %525 ], [ 0, %522 ]
  %527 = phi i32 [ %538, %525 ], [ 0, %522 ]
  %528 = phi ptr [ %537, %525 ], [ %518, %522 ]
  %529 = zext i32 %527 to i64
  %530 = load i64, ptr %528, align 8, !tbaa !69
  %531 = lshr i64 %530, %529
  %532 = and i64 %531, 1
  %533 = add nuw nsw i64 %532, %526
  %534 = add i32 %527, 1
  %535 = icmp eq i32 %527, 63
  %536 = zext i1 %535 to i64
  %537 = getelementptr inbounds i64, ptr %528, i64 %536
  %538 = select i1 %535, i32 0, i32 %534
  %539 = icmp ne ptr %537, %518
  %540 = icmp ne i32 %538, 3
  %541 = or i1 %540, %539
  br i1 %541, label %525, label %542

542:                                              ; preds = %525
  %543 = trunc i64 %533 to i32
  %544 = add i32 %524, %543
  br label %554

545:                                              ; preds = %507, %503
  %546 = load ptr, ptr %594, align 8, !tbaa !165
  %547 = getelementptr inbounds %"struct.std::pair", ptr %546, i64 %323
  %548 = load i64, ptr %547, align 4
  %549 = and i64 %548, 4294967295
  %550 = icmp eq i64 %549, 3
  br i1 %550, label %551, label %564

551:                                              ; preds = %545
  %552 = getelementptr inbounds i32, ptr %592, i64 %323
  %553 = load i32, ptr %552, align 4, !tbaa !72
  br label %554

554:                                              ; preds = %551, %542
  %555 = phi double [ %515, %542 ], [ %506, %551 ]
  %556 = phi double [ %514, %542 ], [ %505, %551 ]
  %557 = phi double [ %513, %542 ], [ %504, %551 ]
  %558 = phi i32 [ %544, %542 ], [ %553, %551 ]
  %559 = mul i32 %596, %558
  %560 = add i32 %559, %318
  %561 = zext i32 %560 to i64
  %562 = getelementptr inbounds double, ptr %595, i64 %561
  %563 = load double, ptr %562, align 8, !tbaa !47
  br label %564

564:                                              ; preds = %554, %545, %512
  %565 = phi double [ %506, %545 ], [ %515, %512 ], [ %555, %554 ]
  %566 = phi double [ %505, %545 ], [ %514, %512 ], [ %556, %554 ]
  %567 = phi double [ %504, %545 ], [ %513, %512 ], [ %557, %554 ]
  %568 = phi double [ 0.000000e+00, %545 ], [ 0.000000e+00, %512 ], [ %563, %554 ]
  %569 = fmul double %567, %568
  %570 = call double @llvm.fmuladd.f64(double %566, double %565, double %569)
  %571 = load double, ptr %598, align 8, !tbaa !47
  %572 = load double, ptr %600, align 8, !tbaa !47
  %573 = fmul double %570, %571
  %574 = trunc i64 %323 to i32
  %575 = add i32 %603, %574
  %576 = zext i32 %575 to i64
  %577 = getelementptr inbounds double, ptr %601, i64 %576
  %578 = load double, ptr %577, align 8, !tbaa !47
  %579 = call double @llvm.fmuladd.f64(double %573, double %572, double %578)
  store double %579, ptr %577, align 8, !tbaa !47
  br label %580

580:                                              ; preds = %564, %330, %322
  %581 = add nuw nsw i64 %323, 1
  %582 = icmp eq i64 %581, %22
  br i1 %582, label %319, label %322

583:                                              ; preds = %313, %319
  %584 = phi i64 [ 0, %313 ], [ %320, %319 ]
  %585 = getelementptr inbounds %"struct.std::pair", ptr %311, i64 %584
  %586 = load ptr, ptr %76, align 8
  %587 = getelementptr inbounds %"class.libparest::Slave::Stationary::ProblemDescription", ptr %586, i64 0, i32 1
  %588 = load ptr, ptr %77, align 8
  %589 = getelementptr inbounds %"class.dealii::FiniteElement", ptr %588, i64 0, i32 2
  %590 = getelementptr inbounds %"class.dealii::FiniteElement", ptr %588, i64 0, i32 20
  %591 = getelementptr inbounds %"class.dealii::FiniteElement", ptr %588, i64 0, i32 19
  %592 = load ptr, ptr %78, align 8
  %593 = getelementptr inbounds i32, ptr %592, i64 %584
  %594 = getelementptr inbounds %"class.dealii::FiniteElement", ptr %588, i64 0, i32 12
  %595 = load ptr, ptr %79, align 8
  %596 = load i32, ptr %80, align 8
  %597 = load ptr, ptr %11, align 8
  %598 = getelementptr inbounds double, ptr %597, i64 %314
  %599 = load ptr, ptr %81, align 8
  %600 = getelementptr inbounds double, ptr %599, i64 %314
  %601 = load ptr, ptr %74, align 8
  %602 = trunc i64 %584 to i32
  %603 = mul i32 %270, %602
  br label %322

604:                                              ; preds = %319
  %605 = add nuw nsw i64 %314, 1
  %606 = icmp eq i64 %605, %312
  br i1 %606, label %607, label %313

607:                                              ; preds = %604, %306
  br i1 %23, label %680, label %610

608:                                              ; preds = %263, %261
  %609 = landingpad { ptr, i32 }
          cleanup
  br label %708

610:                                              ; preds = %607, %614
  %611 = phi i64 [ %615, %614 ], [ 0, %607 ]
  %612 = getelementptr inbounds i32, ptr %29, i64 %611
  %613 = trunc i64 %611 to i32
  br label %617

614:                                              ; preds = %675
  %615 = add nuw nsw i64 %611, 1
  %616 = icmp eq i64 %615, %22
  br i1 %616, label %680, label %610

617:                                              ; preds = %610, %675
  %618 = phi i64 [ 0, %610 ], [ %676, %675 ]
  %619 = load i32, ptr %612, align 4, !tbaa !72
  %620 = getelementptr inbounds i32, ptr %29, i64 %618
  %621 = load i32, ptr %620, align 4, !tbaa !72
  %622 = load ptr, ptr %74, align 8, !tbaa !192
  %623 = load i32, ptr %73, align 8, !tbaa !72
  %624 = mul i32 %623, %613
  %625 = trunc i64 %618 to i32
  %626 = add i32 %624, %625
  %627 = zext i32 %626 to i64
  %628 = getelementptr inbounds double, ptr %622, i64 %627
  %629 = load double, ptr %628, align 8, !tbaa !47
  %630 = fptrunc double %629 to float
  %631 = fcmp oeq float %630, 0.000000e+00
  br i1 %631, label %675, label %632

632:                                              ; preds = %617
  %633 = load i32, ptr %82, align 8, !tbaa !163
  %634 = load ptr, ptr %83, align 8, !tbaa !121
  br label %635

635:                                              ; preds = %635, %632
  %636 = phi i32 [ %633, %632 ], [ %637, %635 ]
  %637 = add i32 %636, -1
  %638 = sext i32 %637 to i64
  %639 = getelementptr inbounds i32, ptr %634, i64 %638
  %640 = load i32, ptr %639, align 4, !tbaa !72
  %641 = icmp ugt i32 %640, %619
  br i1 %641, label %635, label %642

642:                                              ; preds = %635
  %643 = load i32, ptr %84, align 8, !tbaa !163
  %644 = load ptr, ptr %85, align 8, !tbaa !121
  br label %645

645:                                              ; preds = %645, %642
  %646 = phi i32 [ %643, %642 ], [ %647, %645 ]
  %647 = add i32 %646, -1
  %648 = sext i32 %647 to i64
  %649 = getelementptr inbounds i32, ptr %644, i64 %648
  %650 = load i32, ptr %649, align 4, !tbaa !72
  %651 = icmp ugt i32 %650, %621
  br i1 %651, label %645, label %652

652:                                              ; preds = %645
  %653 = sub i32 %619, %640
  %654 = sub i32 %621, %650
  %655 = load ptr, ptr %86, align 8, !tbaa !205, !noalias !207
  %656 = load i32, ptr %87, align 8, !tbaa !72, !noalias !207
  %657 = mul i32 %656, %637
  %658 = zext i32 %657 to i64
  %659 = getelementptr inbounds %"class.dealii::SmartPointer.264", ptr %655, i64 %658
  %660 = zext i32 %647 to i64
  %661 = getelementptr inbounds %"class.dealii::SmartPointer.264", ptr %659, i64 %660
  %662 = load ptr, ptr %661, align 8, !tbaa !210
  %663 = getelementptr inbounds %"class.dealii::SparseMatrix.261", ptr %662, i64 0, i32 1
  %664 = load ptr, ptr %663, align 8, !tbaa !201
  %665 = invoke noundef i32 @_ZNK6dealii15SparsityPatternclEjj(ptr noundef nonnull align 8 dereferenceable(122) %664, i32 noundef %653, i32 noundef %654)
          to label %666 unwind label %678

666:                                              ; preds = %652
  %667 = icmp eq i32 %665, -1
  br i1 %667, label %675, label %668

668:                                              ; preds = %666
  %669 = getelementptr inbounds %"class.dealii::SparseMatrix.261", ptr %662, i64 0, i32 2
  %670 = load ptr, ptr %669, align 8, !tbaa !212
  %671 = zext i32 %665 to i64
  %672 = getelementptr inbounds float, ptr %670, i64 %671
  %673 = load float, ptr %672, align 4, !tbaa !214
  %674 = fadd float %673, %630
  store float %674, ptr %672, align 4, !tbaa !214
  br label %675

675:                                              ; preds = %668, %666, %617
  %676 = add nuw nsw i64 %618, 1
  %677 = icmp eq i64 %676, %22
  br i1 %677, label %614, label %617

678:                                              ; preds = %652
  %679 = landingpad { ptr, i32 }
          cleanup
  br label %708

680:                                              ; preds = %614, %309, %607, %255, %216, %257
  %681 = add nuw nsw i64 %217, 1
  %682 = icmp eq i64 %681, 6
  br i1 %682, label %88, label %683

683:                                              ; preds = %680, %200
  %684 = phi i64 [ %681, %680 ], [ 0, %200 ]
  br label %216

685:                                              ; preds = %200, %55
  call void @llvm.lifetime.end.p0(i64 24, ptr nonnull %13) #18
  call void @llvm.lifetime.end.p0(i64 24, ptr nonnull %12) #18
  %686 = load ptr, ptr %11, align 8, !tbaa !50
  %687 = icmp eq ptr %686, null
  br i1 %687, label %689, label %688

688:                                              ; preds = %685
  call void @_ZdlPv(ptr noundef nonnull %686) #20
  br label %689

689:                                              ; preds = %688, %685
  call void @llvm.lifetime.end.p0(i64 24, ptr nonnull %11) #18
  store ptr getelementptr inbounds ({ [4 x ptr] }, ptr @_ZTVN6dealii9TableBaseILi2EdEE, i64 0, inrange i32 0, i64 2), ptr %10, align 8, !tbaa !5
  %690 = getelementptr inbounds %"class.dealii::TableBase", ptr %10, i64 0, i32 1
  %691 = load ptr, ptr %690, align 8, !tbaa !192
  %692 = icmp eq ptr %691, null
  br i1 %692, label %694, label %693

693:                                              ; preds = %689
  call void @_ZdaPv(ptr noundef nonnull %691) #20
  br label %694

694:                                              ; preds = %693, %689
  invoke void @_ZN6dealii11SubscriptorD2Ev(ptr noundef nonnull align 8 dereferenceable(72) %10)
          to label %695 unwind label %208

695:                                              ; preds = %694
  call void @llvm.lifetime.end.p0(i64 96, ptr nonnull %10) #18
  %696 = icmp eq ptr %29, null
  br i1 %696, label %698, label %697

697:                                              ; preds = %695
  call void @_ZdlPv(ptr noundef nonnull %29) #20
  br label %698

698:                                              ; preds = %697, %695
  store ptr getelementptr inbounds ({ [4 x ptr] }, ptr @_ZTVN6dealii16FEFaceValuesBaseILi3ELi3EEE, i64 0, inrange i32 0, i64 2), ptr %9, align 8, !tbaa !5
  %699 = getelementptr inbounds %"class.dealii::FEFaceValuesBase", ptr %9, i64 0, i32 2
  invoke void @_ZN6dealii10QuadratureILi2EED1Ev(ptr noundef nonnull align 8 dereferenceable(128) %699)
          to label %707 unwind label %700

700:                                              ; preds = %698
  %701 = landingpad { ptr, i32 }
          cleanup
  invoke void @_ZN6dealii12FEValuesBaseILi3ELi3EED2Ev(ptr noundef nonnull align 8 dereferenceable(648) %9)
          to label %702 unwind label %704

702:                                              ; preds = %700, %735
  %703 = phi { ptr, i32 } [ %727, %735 ], [ %701, %700 ]
  resume { ptr, i32 } %703

704:                                              ; preds = %700
  %705 = landingpad { ptr, i32 }
          catch ptr null
  %706 = extractvalue { ptr, i32 } %705, 0
  call void @__clang_call_terminate(ptr %706) #17
  unreachable

707:                                              ; preds = %698
  call void @_ZN6dealii12FEValuesBaseILi3ELi3EED2Ev(ptr noundef nonnull align 8 dereferenceable(648) %9)
  call void @llvm.lifetime.end.p0(i64 784, ptr nonnull %9) #18
  ret void

708:                                              ; preds = %608, %678, %214
  %709 = phi { ptr, i32 } [ %215, %214 ], [ %679, %678 ], [ %609, %608 ]
  call void @llvm.lifetime.end.p0(i64 24, ptr nonnull %13) #18
  br label %710

710:                                              ; preds = %708, %212
  %711 = phi { ptr, i32 } [ %709, %708 ], [ %213, %212 ]
  call void @llvm.lifetime.end.p0(i64 24, ptr nonnull %12) #18
  %712 = load ptr, ptr %11, align 8, !tbaa !50
  %713 = icmp eq ptr %712, null
  br i1 %713, label %715, label %714

714:                                              ; preds = %710
  call void @_ZdlPv(ptr noundef nonnull %712) #20
  br label %715

715:                                              ; preds = %714, %710, %210
  %716 = phi { ptr, i32 } [ %211, %210 ], [ %711, %710 ], [ %711, %714 ]
  call void @llvm.lifetime.end.p0(i64 24, ptr nonnull %11) #18
  store ptr getelementptr inbounds ({ [4 x ptr] }, ptr @_ZTVN6dealii9TableBaseILi2EdEE, i64 0, inrange i32 0, i64 2), ptr %10, align 8, !tbaa !5
  %717 = getelementptr inbounds %"class.dealii::TableBase", ptr %10, i64 0, i32 1
  %718 = load ptr, ptr %717, align 8, !tbaa !192
  %719 = icmp eq ptr %718, null
  br i1 %719, label %721, label %720

720:                                              ; preds = %715
  call void @_ZdaPv(ptr noundef nonnull %718) #20
  br label %721

721:                                              ; preds = %720, %715
  invoke void @_ZN6dealii11SubscriptorD2Ev(ptr noundef nonnull align 8 dereferenceable(72) %10)
          to label %722 unwind label %736

722:                                              ; preds = %721, %208
  %723 = phi { ptr, i32 } [ %209, %208 ], [ %716, %721 ]
  call void @llvm.lifetime.end.p0(i64 96, ptr nonnull %10) #18
  %724 = icmp eq ptr %29, null
  br i1 %724, label %726, label %725

725:                                              ; preds = %722
  call void @_ZdlPv(ptr noundef nonnull %29) #20
  br label %726

726:                                              ; preds = %725, %722, %206
  %727 = phi { ptr, i32 } [ %207, %206 ], [ %723, %722 ], [ %723, %725 ]
  store ptr getelementptr inbounds ({ [4 x ptr] }, ptr @_ZTVN6dealii16FEFaceValuesBaseILi3ELi3EEE, i64 0, inrange i32 0, i64 2), ptr %9, align 8, !tbaa !5
  %728 = getelementptr inbounds %"class.dealii::FEFaceValuesBase", ptr %9, i64 0, i32 2
  invoke void @_ZN6dealii10QuadratureILi2EED1Ev(ptr noundef nonnull align 8 dereferenceable(128) %728)
          to label %729 unwind label %730

729:                                              ; preds = %726
  invoke void @_ZN6dealii12FEValuesBaseILi3ELi3EED2Ev(ptr noundef nonnull align 8 dereferenceable(648) %9)
          to label %735 unwind label %736

730:                                              ; preds = %726
  %731 = landingpad { ptr, i32 }
          catch ptr null
  invoke void @_ZN6dealii12FEValuesBaseILi3ELi3EED2Ev(ptr noundef nonnull align 8 dereferenceable(648) %9)
          to label %738 unwind label %732

732:                                              ; preds = %730
  %733 = landingpad { ptr, i32 }
          catch ptr null
  %734 = extractvalue { ptr, i32 } %733, 0
  call void @__clang_call_terminate(ptr %734) #17
  unreachable

735:                                              ; preds = %729
  call void @llvm.lifetime.end.p0(i64 784, ptr nonnull %9) #18
  br label %702

736:                                              ; preds = %729, %721
  %737 = landingpad { ptr, i32 }
          catch ptr null
  br label %738

738:                                              ; preds = %730, %736
  %739 = phi { ptr, i32 } [ %737, %736 ], [ %731, %730 ]
  %740 = extractvalue { ptr, i32 } %739, 0
  call void @__clang_call_terminate(ptr %740) #17
  unreachable
}

; Function Attrs: nounwind sspstrong uwtable
define weak_odr dso_local void @_ZNK12METomography12Measurements35ScaledWeightedDirichletMeasurements4BaseILi3EfE9m_prime_1ERKN9libparest5Slave10Stationary14Discretization4BaseILi3EEERKN6dealii10DoFHandlerILi3ELi3EEERKNSC_6VectorIdEESK_RKNS6_17MeasurementGetter9Factories4BaseILi3EEERNSH_IfEEjj(ptr noundef nonnull align 8 dereferenceable(152) %0, ptr noundef nonnull align 8 dereferenceable(96) %1, ptr noundef nonnull align 8 dereferenceable(168) %2, ptr noundef nonnull align 8 dereferenceable(88) %3, ptr noundef nonnull align 8 dereferenceable(88) %4, ptr noundef nonnull align 8 dereferenceable(8) %5, ptr noundef nonnull align 8 dereferenceable(88) %6, i32 noundef %7, i32 noundef %8) unnamed_addr #6 comdat align 2 {
  ret void
}

; Function Attrs: sspstrong uwtable
define weak_odr dso_local void @_ZN12METomography12Measurements35ScaledWeightedDirichletMeasurements7Pure_L2ILi3EdEC2ERKN9libparest5Slave10Stationary18ProblemDescriptionERKN6dealii8FunctionILi3EEERKSt3setIhSt4lessIhESaIhEE(ptr noundef nonnull align 8 dereferenceable(152) %0, ptr noundef nonnull align 8 dereferenceable(88) %1, ptr noundef nonnull align 8 dereferenceable(92) %2, ptr noundef nonnull align 8 dereferenceable(48) %3) unnamed_addr #0 comdat($_ZN12METomography12Measurements35ScaledWeightedDirichletMeasurements7Pure_L2ILi3EdEC5ERKN9libparest5Slave10Stationary18ProblemDescriptionERKN6dealii8FunctionILi3EEERKSt3setIhSt4lessIhESaIhEE) align 2 personality ptr @__gxx_personality_v0 {
  tail call void @_ZN9libparest5Slave10Stationary12Measurements4BaseILi3EdEC2ERKNS1_18ProblemDescriptionE(ptr noundef nonnull align 8 dereferenceable(88) %0, ptr noundef nonnull align 8 dereferenceable(88) %1)
  %5 = getelementptr inbounds i8, ptr %0, i64 88
  invoke void @_ZN9libparest5Slave10Stationary12Measurements23BoundaryMeasurementBaseC2ERKSt3setIhSt4lessIhESaIhEE(ptr noundef nonnull align 8 dereferenceable(48) %5, ptr noundef nonnull align 8 dereferenceable(48) %3)
          to label %12 unwind label %6

6:                                                ; preds = %4
  %7 = landingpad { ptr, i32 }
          cleanup
  store ptr getelementptr inbounds ({ [13 x ptr] }, ptr @_ZTVN9libparest5Slave10Stationary12Measurements4BaseILi3EdEE, i64 0, inrange i32 0, i64 2), ptr %0, align 8, !tbaa !5
  invoke void @_ZN6dealii11SubscriptorD2Ev(ptr noundef nonnull align 8 dereferenceable(72) %0)
          to label %8 unwind label %9

8:                                                ; preds = %6
  resume { ptr, i32 } %7

9:                                                ; preds = %6
  %10 = landingpad { ptr, i32 }
          catch ptr null
  %11 = extractvalue { ptr, i32 } %10, 0
  tail call void @__clang_call_terminate(ptr %11) #17
  unreachable

12:                                               ; preds = %4
  %13 = getelementptr inbounds %"class.METomography::Measurements::ScaledWeightedDirichletMeasurements::Base", ptr %0, i64 0, i32 2
  store ptr %2, ptr %13, align 8, !tbaa !8
  %14 = getelementptr inbounds %"class.METomography::Measurements::ScaledWeightedDirichletMeasurements::Base", ptr %0, i64 0, i32 2, i32 1
  store ptr null, ptr %14, align 8, !tbaa !12
  store ptr getelementptr inbounds ({ [14 x ptr] }, ptr @_ZTVN12METomography12Measurements35ScaledWeightedDirichletMeasurements7Pure_L2ILi3EdEE, i64 0, inrange i32 0, i64 2), ptr %0, align 8, !tbaa !5
  ret void
}

; Function Attrs: sspstrong uwtable
define weak_odr dso_local { double, double } @_ZNK12METomography12Measurements35ScaledWeightedDirichletMeasurements7Pure_L2ILi3EdE14scaling_factorERKN9libparest5Slave10Stationary14Discretization4BaseILi3EEERKN6dealii11BlockVectorIdEERKNS6_17MeasurementGetter9Factories4BaseILi3EEE(ptr noundef nonnull align 8 dereferenceable(152) %0, ptr noundef nonnull align 8 dereferenceable(96) %1, ptr noundef nonnull align 8 dereferenceable(128) %2, ptr noundef nonnull align 8 dereferenceable(8) %3) unnamed_addr #0 comdat align 2 {
  ret { double, double } { double 1.000000e+00, double 0.000000e+00 }
}

; Function Attrs: sspstrong uwtable
define weak_odr dso_local void @_ZN12METomography12Measurements35ScaledWeightedDirichletMeasurements7Pure_L2ILi3EfEC2ERKN9libparest5Slave10Stationary18ProblemDescriptionERKN6dealii8FunctionILi3EEERKSt3setIhSt4lessIhESaIhEE(ptr noundef nonnull align 8 dereferenceable(152) %0, ptr noundef nonnull align 8 dereferenceable(88) %1, ptr noundef nonnull align 8 dereferenceable(92) %2, ptr noundef nonnull align 8 dereferenceable(48) %3) unnamed_addr #0 comdat($_ZN12METomography12Measurements35ScaledWeightedDirichletMeasurements7Pure_L2ILi3EfEC5ERKN9libparest5Slave10Stationary18ProblemDescriptionERKN6dealii8FunctionILi3EEERKSt3setIhSt4lessIhESaIhEE) align 2 personality ptr @__gxx_personality_v0 {
  tail call void @_ZN9libparest5Slave10Stationary12Measurements4BaseILi3EfEC2ERKNS1_18ProblemDescriptionE(ptr noundef nonnull align 8 dereferenceable(88) %0, ptr noundef nonnull align 8 dereferenceable(88) %1)
  %5 = getelementptr inbounds i8, ptr %0, i64 88
  invoke void @_ZN9libparest5Slave10Stationary12Measurements23BoundaryMeasurementBaseC2ERKSt3setIhSt4lessIhESaIhEE(ptr noundef nonnull align 8 dereferenceable(48) %5, ptr noundef nonnull align 8 dereferenceable(48) %3)
          to label %12 unwind label %6

6:                                                ; preds = %4
  %7 = landingpad { ptr, i32 }
          cleanup
  store ptr getelementptr inbounds ({ [13 x ptr] }, ptr @_ZTVN9libparest5Slave10Stationary12Measurements4BaseILi3EfEE, i64 0, inrange i32 0, i64 2), ptr %0, align 8, !tbaa !5
  invoke void @_ZN6dealii11SubscriptorD2Ev(ptr noundef nonnull align 8 dereferenceable(72) %0)
          to label %8 unwind label %9

8:                                                ; preds = %6
  resume { ptr, i32 } %7

9:                                                ; preds = %6
  %10 = landingpad { ptr, i32 }
          catch ptr null
  %11 = extractvalue { ptr, i32 } %10, 0
  tail call void @__clang_call_terminate(ptr %11) #17
  unreachable

12:                                               ; preds = %4
  %13 = getelementptr inbounds %"class.METomography::Measurements::ScaledWeightedDirichletMeasurements::Base.173", ptr %0, i64 0, i32 2
  store ptr %2, ptr %13, align 8, !tbaa !8
  %14 = getelementptr inbounds %"class.METomography::Measurements::ScaledWeightedDirichletMeasurements::Base.173", ptr %0, i64 0, i32 2, i32 1
  store ptr null, ptr %14, align 8, !tbaa !12
  store ptr getelementptr inbounds ({ [14 x ptr] }, ptr @_ZTVN12METomography12Measurements35ScaledWeightedDirichletMeasurements7Pure_L2ILi3EfEE, i64 0, inrange i32 0, i64 2), ptr %0, align 8, !tbaa !5
  ret void
}

; Function Attrs: sspstrong uwtable
define weak_odr dso_local { double, double } @_ZNK12METomography12Measurements35ScaledWeightedDirichletMeasurements7Pure_L2ILi3EfE14scaling_factorERKN9libparest5Slave10Stationary14Discretization4BaseILi3EEERKN6dealii11BlockVectorIdEERKNS6_17MeasurementGetter9Factories4BaseILi3EEE(ptr noundef nonnull align 8 dereferenceable(152) %0, ptr noundef nonnull align 8 dereferenceable(96) %1, ptr noundef nonnull align 8 dereferenceable(128) %2, ptr noundef nonnull align 8 dereferenceable(8) %3) unnamed_addr #0 comdat align 2 {
  ret { double, double } { double 1.000000e+00, double 0.000000e+00 }
}

; Function Attrs: sspstrong uwtable
define weak_odr dso_local void @_ZN12METomography12Measurements35ScaledWeightedDirichletMeasurements7L2_RealILi3EdEC2ERKN9libparest5Slave10Stationary18ProblemDescriptionERKN6dealii8FunctionILi3EEERKSt3setIhSt4lessIhESaIhEE(ptr noundef nonnull align 8 dereferenceable(152) %0, ptr noundef nonnull align 8 dereferenceable(88) %1, ptr noundef nonnull align 8 dereferenceable(92) %2, ptr noundef nonnull align 8 dereferenceable(48) %3) unnamed_addr #0 comdat($_ZN12METomography12Measurements35ScaledWeightedDirichletMeasurements7L2_RealILi3EdEC5ERKN9libparest5Slave10Stationary18ProblemDescriptionERKN6dealii8FunctionILi3EEERKSt3setIhSt4lessIhESaIhEE) align 2 personality ptr @__gxx_personality_v0 {
  tail call void @_ZN9libparest5Slave10Stationary12Measurements4BaseILi3EdEC2ERKNS1_18ProblemDescriptionE(ptr noundef nonnull align 8 dereferenceable(88) %0, ptr noundef nonnull align 8 dereferenceable(88) %1)
  %5 = getelementptr inbounds i8, ptr %0, i64 88
  invoke void @_ZN9libparest5Slave10Stationary12Measurements23BoundaryMeasurementBaseC2ERKSt3setIhSt4lessIhESaIhEE(ptr noundef nonnull align 8 dereferenceable(48) %5, ptr noundef nonnull align 8 dereferenceable(48) %3)
          to label %12 unwind label %6

6:                                                ; preds = %4
  %7 = landingpad { ptr, i32 }
          cleanup
  store ptr getelementptr inbounds ({ [13 x ptr] }, ptr @_ZTVN9libparest5Slave10Stationary12Measurements4BaseILi3EdEE, i64 0, inrange i32 0, i64 2), ptr %0, align 8, !tbaa !5
  invoke void @_ZN6dealii11SubscriptorD2Ev(ptr noundef nonnull align 8 dereferenceable(72) %0)
          to label %8 unwind label %9

8:                                                ; preds = %6
  resume { ptr, i32 } %7

9:                                                ; preds = %6
  %10 = landingpad { ptr, i32 }
          catch ptr null
  %11 = extractvalue { ptr, i32 } %10, 0
  tail call void @__clang_call_terminate(ptr %11) #17
  unreachable

12:                                               ; preds = %4
  %13 = getelementptr inbounds %"class.METomography::Measurements::ScaledWeightedDirichletMeasurements::Base", ptr %0, i64 0, i32 2
  store ptr %2, ptr %13, align 8, !tbaa !8
  %14 = getelementptr inbounds %"class.METomography::Measurements::ScaledWeightedDirichletMeasurements::Base", ptr %0, i64 0, i32 2, i32 1
  store ptr null, ptr %14, align 8, !tbaa !12
  store ptr getelementptr inbounds ({ [14 x ptr] }, ptr @_ZTVN12METomography12Measurements35ScaledWeightedDirichletMeasurements7L2_RealILi3EdEE, i64 0, inrange i32 0, i64 2), ptr %0, align 8, !tbaa !5
  ret void
}

; Function Attrs: sspstrong uwtable
define weak_odr dso_local { double, double } @_ZNK12METomography12Measurements35ScaledWeightedDirichletMeasurements7L2_RealILi3EdE14scaling_factorERKN9libparest5Slave10Stationary14Discretization4BaseILi3EEERKN6dealii11BlockVectorIdEERKNS6_17MeasurementGetter9Factories4BaseILi3EEE(ptr noundef nonnull align 8 dereferenceable(152) %0, ptr noundef nonnull align 8 dereferenceable(96) %1, ptr noundef nonnull align 8 dereferenceable(128) %2, ptr noundef nonnull align 8 dereferenceable(8) %3) unnamed_addr #0 comdat align 2 personality ptr @__gxx_personality_v0 {
  %5 = alloca %"class.dealii::FEFaceValues", align 8
  %6 = alloca %"class.std::vector.114", align 8
  %7 = alloca %"class.dealii::Vector", align 8
  %8 = alloca %"class.std::allocator.116", align 1
  %9 = alloca %"class.std::vector.114", align 8
  %10 = alloca %"class.dealii::Vector", align 8
  %11 = alloca %"class.std::allocator.116", align 1
  %12 = alloca %"class.std::vector.27", align 8
  %13 = alloca %"class.dealii::TriaActiveIterator", align 8
  %14 = alloca %"class.dealii::TriaRawIterator", align 8
  %15 = alloca %"class.dealii::TriaActiveIterator.159", align 8
  %16 = getelementptr inbounds %"class.libparest::Slave::Stationary::Discretization::Base", ptr %1, i64 0, i32 2
  %17 = load ptr, ptr %16, align 8, !tbaa !13
  %18 = getelementptr inbounds %"class.libparest::Slave::Stationary::Discretization::FiniteElements", ptr %17, i64 0, i32 5
  %19 = load ptr, ptr %18, align 8, !tbaa !26
  %20 = getelementptr inbounds %"class.dealii::Quadrature", ptr %19, i64 0, i32 1
  %21 = load i32, ptr %20, align 8, !tbaa !28
  %22 = load ptr, ptr %3, align 8, !tbaa !5
  %23 = getelementptr inbounds ptr, ptr %22, i64 3
  %24 = load ptr, ptr %23, align 8
  %25 = tail call noundef ptr %24(ptr noundef nonnull align 8 dereferenceable(8) %3, ptr noundef nonnull align 8 dereferenceable(128) %19, i32 noundef 0)
  %26 = load ptr, ptr %16, align 8, !tbaa !13
  %27 = getelementptr inbounds %"class.libparest::Slave::Stationary::Discretization::FiniteElements", ptr %26, i64 0, i32 1
  %28 = load ptr, ptr %27, align 8, !tbaa !38
  call void @llvm.lifetime.start.p0(i64 784, ptr nonnull %5) #18
  invoke void @_ZN6dealii12FEFaceValuesILi3ELi3EEC1ERKNS_13FiniteElementILi3ELi3EEERKNS_10QuadratureILi2EEENS_11UpdateFlagsE(ptr noundef nonnull align 8 dereferenceable(784) %5, ptr noundef nonnull align 8 dereferenceable(728) %28, ptr noundef nonnull align 8 dereferenceable(128) %19, i32 noundef 49)
          to label %29 unwind label %234

29:                                               ; preds = %4
  call void @llvm.lifetime.start.p0(i64 24, ptr nonnull %6) #18
  %30 = zext i32 %21 to i64
  call void @llvm.lifetime.start.p0(i64 88, ptr nonnull %7) #18
  %31 = getelementptr inbounds %"class.libparest::Slave::Stationary::Measurements::Base", ptr %0, i64 0, i32 1
  %32 = load ptr, ptr %31, align 8, !tbaa !39
  %33 = getelementptr inbounds %"class.libparest::Slave::Stationary::ProblemDescription", ptr %32, i64 0, i32 4
  %34 = load i32, ptr %33, align 4, !tbaa !41
  invoke void @_ZN6dealii11SubscriptorC2Ev(ptr noundef nonnull align 8 dereferenceable(72) %7)
          to label %35 unwind label %236

35:                                               ; preds = %29
  store ptr getelementptr inbounds ({ [6 x ptr] }, ptr @_ZTVN6dealii6VectorIdEE, i64 0, inrange i32 0, i64 2), ptr %7, align 8, !tbaa !5
  %36 = getelementptr inbounds %"class.dealii::Vector", ptr %7, i64 0, i32 1
  call void @llvm.memset.p0.i64(ptr noundef nonnull align 8 dereferenceable(16) %36, i8 0, i64 16, i1 false)
  %37 = icmp eq i32 %34, 0
  br i1 %37, label %50, label %38

38:                                               ; preds = %35
  %39 = zext i32 %34 to i64
  %40 = shl nuw nsw i64 %39, 3
  %41 = invoke noalias noundef nonnull ptr @_Znam(i64 noundef %40) #19
          to label %42 unwind label %45

42:                                               ; preds = %38
  %43 = getelementptr inbounds %"class.dealii::Vector", ptr %7, i64 0, i32 3
  %44 = getelementptr inbounds %"class.dealii::Vector", ptr %7, i64 0, i32 2
  store ptr %41, ptr %43, align 8, !tbaa !43
  store i32 %34, ptr %44, align 4, !tbaa !45
  store i32 %34, ptr %36, align 8, !tbaa !46
  call void @llvm.memset.p0.i64(ptr nonnull align 8 %41, i8 0, i64 %40, i1 false), !tbaa !47
  br label %50

45:                                               ; preds = %38
  %46 = landingpad { ptr, i32 }
          cleanup
  invoke void @_ZN6dealii11SubscriptorD2Ev(ptr noundef nonnull align 8 dereferenceable(72) %7)
          to label %240 unwind label %47

47:                                               ; preds = %45
  %48 = landingpad { ptr, i32 }
          catch ptr null
  %49 = extractvalue { ptr, i32 } %48, 0
  call void @__clang_call_terminate(ptr %49) #17
  unreachable

50:                                               ; preds = %42, %35
  call void @llvm.lifetime.start.p0(i64 1, ptr nonnull %8) #18
  invoke void @_ZNSt6vectorIN6dealii6VectorIdEESaIS2_EEC2EmRKS2_RKS3_(ptr noundef nonnull align 8 dereferenceable(24) %6, i64 noundef %30, ptr noundef nonnull align 8 dereferenceable(88) %7, ptr noundef nonnull align 1 dereferenceable(1) %8)
          to label %51 unwind label %238

51:                                               ; preds = %50
  call void @llvm.lifetime.end.p0(i64 1, ptr nonnull %8) #18
  store ptr getelementptr inbounds ({ [6 x ptr] }, ptr @_ZTVN6dealii6VectorIdEE, i64 0, inrange i32 0, i64 2), ptr %7, align 8, !tbaa !5
  %52 = getelementptr inbounds %"class.dealii::Vector", ptr %7, i64 0, i32 3
  %53 = load ptr, ptr %52, align 8, !tbaa !43
  %54 = icmp eq ptr %53, null
  br i1 %54, label %56, label %55

55:                                               ; preds = %51
  call void @_ZdaPv(ptr noundef nonnull %53) #20
  store ptr null, ptr %52, align 8, !tbaa !43
  br label %56

56:                                               ; preds = %55, %51
  invoke void @_ZN6dealii11SubscriptorD2Ev(ptr noundef nonnull align 8 dereferenceable(72) %7)
          to label %57 unwind label %236

57:                                               ; preds = %56
  call void @llvm.lifetime.end.p0(i64 88, ptr nonnull %7) #18
  call void @llvm.lifetime.start.p0(i64 24, ptr nonnull %9) #18
  call void @llvm.lifetime.start.p0(i64 88, ptr nonnull %10) #18
  %58 = load ptr, ptr %31, align 8, !tbaa !39
  %59 = getelementptr inbounds %"class.libparest::Slave::Stationary::ProblemDescription", ptr %58, i64 0, i32 1
  %60 = load i32, ptr %59, align 8, !tbaa !49
  invoke void @_ZN6dealii11SubscriptorC2Ev(ptr noundef nonnull align 8 dereferenceable(72) %10)
          to label %61 unwind label %242

61:                                               ; preds = %57
  store ptr getelementptr inbounds ({ [6 x ptr] }, ptr @_ZTVN6dealii6VectorIdEE, i64 0, inrange i32 0, i64 2), ptr %10, align 8, !tbaa !5
  %62 = getelementptr inbounds %"class.dealii::Vector", ptr %10, i64 0, i32 1
  call void @llvm.memset.p0.i64(ptr noundef nonnull align 8 dereferenceable(16) %62, i8 0, i64 16, i1 false)
  %63 = icmp eq i32 %60, 0
  br i1 %63, label %76, label %64

64:                                               ; preds = %61
  %65 = zext i32 %60 to i64
  %66 = shl nuw nsw i64 %65, 3
  %67 = invoke noalias noundef nonnull ptr @_Znam(i64 noundef %66) #19
          to label %68 unwind label %71

68:                                               ; preds = %64
  %69 = getelementptr inbounds %"class.dealii::Vector", ptr %10, i64 0, i32 3
  %70 = getelementptr inbounds %"class.dealii::Vector", ptr %10, i64 0, i32 2
  store ptr %67, ptr %69, align 8, !tbaa !43
  store i32 %60, ptr %70, align 4, !tbaa !45
  store i32 %60, ptr %62, align 8, !tbaa !46
  call void @llvm.memset.p0.i64(ptr nonnull align 8 %67, i8 0, i64 %66, i1 false), !tbaa !47
  br label %76

71:                                               ; preds = %64
  %72 = landingpad { ptr, i32 }
          cleanup
  invoke void @_ZN6dealii11SubscriptorD2Ev(ptr noundef nonnull align 8 dereferenceable(72) %10)
          to label %246 unwind label %73

73:                                               ; preds = %71
  %74 = landingpad { ptr, i32 }
          catch ptr null
  %75 = extractvalue { ptr, i32 } %74, 0
  call void @__clang_call_terminate(ptr %75) #17
  unreachable

76:                                               ; preds = %68, %61
  call void @llvm.lifetime.start.p0(i64 1, ptr nonnull %11) #18
  invoke void @_ZNSt6vectorIN6dealii6VectorIdEESaIS2_EEC2EmRKS2_RKS3_(ptr noundef nonnull align 8 dereferenceable(24) %9, i64 noundef %30, ptr noundef nonnull align 8 dereferenceable(88) %10, ptr noundef nonnull align 1 dereferenceable(1) %11)
          to label %77 unwind label %244

77:                                               ; preds = %76
  call void @llvm.lifetime.end.p0(i64 1, ptr nonnull %11) #18
  store ptr getelementptr inbounds ({ [6 x ptr] }, ptr @_ZTVN6dealii6VectorIdEE, i64 0, inrange i32 0, i64 2), ptr %10, align 8, !tbaa !5
  %78 = getelementptr inbounds %"class.dealii::Vector", ptr %10, i64 0, i32 3
  %79 = load ptr, ptr %78, align 8, !tbaa !43
  %80 = icmp eq ptr %79, null
  br i1 %80, label %82, label %81

81:                                               ; preds = %77
  call void @_ZdaPv(ptr noundef nonnull %79) #20
  store ptr null, ptr %78, align 8, !tbaa !43
  br label %82

82:                                               ; preds = %81, %77
  invoke void @_ZN6dealii11SubscriptorD2Ev(ptr noundef nonnull align 8 dereferenceable(72) %10)
          to label %83 unwind label %242

83:                                               ; preds = %82
  call void @llvm.lifetime.end.p0(i64 88, ptr nonnull %10) #18
  call void @llvm.lifetime.start.p0(i64 24, ptr nonnull %12) #18
  %84 = icmp eq i32 %21, 0
  br i1 %84, label %85, label %86

85:                                               ; preds = %83
  call void @llvm.memset.p0.i64(ptr noundef nonnull align 8 dereferenceable(24) %12, i8 0, i64 24, i1 false)
  br label %92

86:                                               ; preds = %83
  %87 = shl nuw nsw i64 %30, 3
  %88 = invoke noalias noundef nonnull ptr @_Znwm(i64 noundef %87) #19
          to label %89 unwind label %248

89:                                               ; preds = %86
  store ptr %88, ptr %12, align 8, !tbaa !50
  %90 = getelementptr inbounds double, ptr %88, i64 %30
  %91 = getelementptr inbounds %"struct.std::_Vector_base<double, std::allocator<double> >::_Vector_impl_data", ptr %12, i64 0, i32 2
  store ptr %90, ptr %91, align 8, !tbaa !51
  call void @llvm.memset.p0.i64(ptr nonnull align 8 %88, i8 0, i64 %87, i1 false), !tbaa !47
  br label %92

92:                                               ; preds = %89, %85
  %93 = phi ptr [ null, %85 ], [ %90, %89 ]
  %94 = getelementptr inbounds %"struct.std::_Vector_base<double, std::allocator<double> >::_Vector_impl_data", ptr %12, i64 0, i32 1
  store ptr %93, ptr %94, align 8, !tbaa !52
  call void @llvm.lifetime.start.p0(i64 24, ptr nonnull %13) #18
  %95 = getelementptr inbounds %"class.libparest::Slave::Stationary::Discretization::Base", ptr %1, i64 0, i32 3
  %96 = load ptr, ptr %95, align 8, !tbaa !53
  %97 = getelementptr inbounds %"class.libparest::Slave::Stationary::Discretization::DoFHandlers", ptr %96, i64 0, i32 1
  invoke void @_ZNK6dealii10DoFHandlerILi3ELi3EE12begin_activeEj(ptr nonnull sret(%"class.dealii::TriaActiveIterator") align 8 %13, ptr noundef nonnull align 8 dereferenceable(168) %97, i32 noundef 0)
          to label %98 unwind label %250

98:                                               ; preds = %92
  call void @llvm.lifetime.start.p0(i64 24, ptr nonnull %14) #18
  %99 = load ptr, ptr %95, align 8, !tbaa !53
  %100 = getelementptr inbounds %"class.libparest::Slave::Stationary::Discretization::DoFHandlers", ptr %99, i64 0, i32 1
  invoke void @_ZNK6dealii10DoFHandlerILi3ELi3EE3endEv(ptr nonnull sret(%"class.dealii::TriaRawIterator") align 8 %14, ptr noundef nonnull align 8 dereferenceable(168) %100)
          to label %101 unwind label %252

101:                                              ; preds = %98
  %102 = load i32, ptr %14, align 8
  %103 = getelementptr inbounds i8, ptr %14, i64 4
  %104 = load i32, ptr %103, align 4
  call void @llvm.lifetime.end.p0(i64 24, ptr nonnull %14) #18
  %105 = getelementptr inbounds %"class.dealii::TriaAccessorBase", ptr %13, i64 0, i32 1
  %106 = load i32, ptr %105, align 4, !tbaa !54
  %107 = icmp ne i32 %106, %104
  %108 = load i32, ptr %13, align 8
  %109 = icmp ne i32 %108, %102
  %110 = select i1 %107, i1 true, i1 %109
  br i1 %110, label %111, label %363

111:                                              ; preds = %101
  %112 = getelementptr inbounds %"class.dealii::TriaAccessorBase", ptr %13, i64 0, i32 2
  %113 = getelementptr inbounds i8, ptr %0, i64 104
  %114 = getelementptr inbounds i8, ptr %0, i64 96
  %115 = getelementptr inbounds %"class.METomography::Measurements::ScaledWeightedDirichletMeasurements::Base", ptr %0, i64 0, i32 2
  %116 = getelementptr inbounds i8, ptr %5, i64 312
  %117 = getelementptr inbounds i8, ptr %5, i64 216
  br label %254

118:                                              ; preds = %357
  %119 = load ptr, ptr %112, align 8, !tbaa !56
  %120 = getelementptr inbounds %"class.dealii::Triangulation", ptr %119, i64 0, i32 1
  %121 = load ptr, ptr %120, align 8, !tbaa !57
  %122 = ptrtoint ptr %121 to i64
  %123 = getelementptr inbounds %"class.dealii::Triangulation", ptr %119, i64 0, i32 1, i32 0, i32 0, i32 0, i32 1
  %124 = load i32, ptr %13, align 8
  %125 = load i32, ptr %105, align 4
  br label %126

126:                                              ; preds = %214, %118
  %127 = phi i32 [ %124, %118 ], [ %193, %214 ]
  %128 = phi i32 [ %124, %118 ], [ %194, %214 ]
  %129 = phi i32 [ %124, %118 ], [ %215, %214 ]
  %130 = phi i32 [ %125, %118 ], [ %195, %214 ]
  %131 = add nsw i32 %130, 1
  %132 = sext i32 %129 to i64
  %133 = getelementptr inbounds ptr, ptr %121, i64 %132
  %134 = load ptr, ptr %133, align 8, !tbaa !59
  %135 = getelementptr inbounds %"class.dealii::internal::Triangulation::TriaLevel", ptr %134, i64 0, i32 4
  %136 = getelementptr inbounds %"class.dealii::internal::Triangulation::TriaLevel", ptr %134, i64 0, i32 4, i32 0, i32 0, i32 0, i32 0, i32 0, i32 1
  %137 = load ptr, ptr %136, align 8, !tbaa !60
  %138 = load ptr, ptr %135, align 8, !tbaa !62
  %139 = ptrtoint ptr %137 to i64
  %140 = ptrtoint ptr %138 to i64
  %141 = sub i64 %139, %140
  %142 = sdiv exact i64 %141, 24
  %143 = trunc i64 %142 to i32
  %144 = icmp slt i32 %131, %143
  br i1 %144, label %192, label %145

145:                                              ; preds = %126
  %146 = add nsw i64 %132, 1
  %147 = trunc i64 %146 to i32
  store i32 %147, ptr %13, align 8, !tbaa !63
  %148 = load ptr, ptr %123, align 8, !tbaa !64
  %149 = ptrtoint ptr %148 to i64
  %150 = sub i64 %149, %122
  %151 = shl i64 %150, 29
  %152 = ashr i64 %151, 32
  %153 = icmp slt i64 %146, %152
  br i1 %153, label %154, label %186

154:                                              ; preds = %145
  %155 = getelementptr inbounds ptr, ptr %121, i64 %146
  %156 = load ptr, ptr %155, align 8, !tbaa !59
  %157 = getelementptr inbounds %"class.dealii::internal::Triangulation::TriaLevel", ptr %156, i64 0, i32 4
  %158 = getelementptr inbounds %"class.dealii::internal::Triangulation::TriaLevel", ptr %156, i64 0, i32 4, i32 0, i32 0, i32 0, i32 0, i32 0, i32 1
  %159 = load ptr, ptr %158, align 8, !tbaa !60
  %160 = load ptr, ptr %157, align 8, !tbaa !62
  %161 = ptrtoint ptr %159 to i64
  %162 = ptrtoint ptr %160 to i64
  %163 = sub i64 %161, %162
  %164 = sdiv exact i64 %163, 24
  %165 = trunc i64 %164 to i32
  %166 = icmp sgt i32 %165, 0
  br i1 %166, label %188, label %180

167:                                              ; preds = %180
  %168 = getelementptr inbounds ptr, ptr %121, i64 %182
  %169 = load ptr, ptr %168, align 8, !tbaa !59
  %170 = getelementptr inbounds %"class.dealii::internal::Triangulation::TriaLevel", ptr %169, i64 0, i32 4
  %171 = getelementptr inbounds %"class.dealii::internal::Triangulation::TriaLevel", ptr %169, i64 0, i32 4, i32 0, i32 0, i32 0, i32 0, i32 0, i32 1
  %172 = load ptr, ptr %171, align 8, !tbaa !60
  %173 = load ptr, ptr %170, align 8, !tbaa !62
  %174 = ptrtoint ptr %172 to i64
  %175 = ptrtoint ptr %173 to i64
  %176 = sub i64 %174, %175
  %177 = sdiv exact i64 %176, 24
  %178 = trunc i64 %177 to i32
  %179 = icmp sgt i32 %178, 0
  br i1 %179, label %187, label %180, !llvm.loop !65

180:                                              ; preds = %154, %167
  %181 = phi i64 [ %182, %167 ], [ %146, %154 ]
  %182 = add i64 %181, 1
  %183 = trunc i64 %182 to i32
  %184 = icmp eq i64 %182, %152
  br i1 %184, label %185, label %167, !llvm.loop !65

185:                                              ; preds = %180
  store i32 %183, ptr %13, align 8, !tbaa !63
  br label %186

186:                                              ; preds = %185, %145
  store i32 -1, ptr %13, align 8, !tbaa !63
  br label %192

187:                                              ; preds = %167
  store i32 %183, ptr %13, align 8, !tbaa !63
  br label %188

188:                                              ; preds = %187, %154
  %189 = phi i32 [ %147, %154 ], [ %183, %187 ]
  %190 = phi i64 [ %146, %154 ], [ %182, %187 ]
  %191 = trunc i64 %190 to i32
  br label %192

192:                                              ; preds = %188, %186, %126
  %193 = phi i32 [ %127, %126 ], [ -1, %186 ], [ %189, %188 ]
  %194 = phi i32 [ %128, %126 ], [ -1, %186 ], [ %191, %188 ]
  %195 = phi i32 [ %131, %126 ], [ -1, %186 ], [ 0, %188 ]
  %196 = phi i32 [ %129, %126 ], [ -1, %186 ], [ %191, %188 ]
  %197 = or i32 %196, %195
  %198 = icmp sgt i32 %197, -1
  br i1 %198, label %199, label %216

199:                                              ; preds = %192
  %200 = zext i32 %196 to i64
  %201 = getelementptr inbounds ptr, ptr %121, i64 %200
  %202 = load ptr, ptr %201, align 8, !tbaa !59
  %203 = getelementptr inbounds %"class.dealii::internal::Triangulation::TriaLevel", ptr %202, i64 0, i32 4, i32 0, i32 3
  %204 = load ptr, ptr %203, align 8, !tbaa !67
  %205 = lshr i32 %195, 6
  %206 = zext i32 %205 to i64
  %207 = getelementptr inbounds i64, ptr %204, i64 %206
  %208 = and i32 %195, 63
  %209 = zext i32 %208 to i64
  %210 = shl nuw i64 1, %209
  %211 = load i64, ptr %207, align 8, !tbaa !69
  %212 = and i64 %211, %210
  %213 = icmp eq i64 %212, 0
  br i1 %213, label %214, label %216

214:                                              ; preds = %199, %219
  %215 = phi i32 [ %196, %199 ], [ %194, %219 ]
  br label %126

216:                                              ; preds = %199, %192
  store i32 %195, ptr %105, align 4, !tbaa !54
  %217 = or i32 %195, %194
  %218 = icmp sgt i32 %217, -1
  br i1 %218, label %219, label %230

219:                                              ; preds = %216
  %220 = zext i32 %194 to i64
  %221 = getelementptr inbounds ptr, ptr %121, i64 %220
  %222 = load ptr, ptr %221, align 8, !tbaa !59
  %223 = getelementptr inbounds %"class.dealii::internal::Triangulation::TriaLevel", ptr %222, i64 0, i32 4, i32 0, i32 1
  %224 = shl i32 %195, 2
  %225 = zext i32 %224 to i64
  %226 = load ptr, ptr %223, align 8, !tbaa !70
  %227 = getelementptr inbounds i32, ptr %226, i64 %225
  %228 = load i32, ptr %227, align 4, !tbaa !72
  %229 = icmp eq i32 %228, -1
  br i1 %229, label %230, label %214

230:                                              ; preds = %216, %219
  %231 = icmp ne i32 %195, %104
  %232 = icmp ne i32 %193, %102
  %233 = select i1 %231, i1 true, i1 %232
  br i1 %233, label %361, label %363

234:                                              ; preds = %469, %4
  %235 = landingpad { ptr, i32 }
          cleanup
  br label %498

236:                                              ; preds = %56, %29
  %237 = landingpad { ptr, i32 }
          cleanup
  br label %240

238:                                              ; preds = %50
  %239 = landingpad { ptr, i32 }
          cleanup
  call void @llvm.lifetime.end.p0(i64 1, ptr nonnull %8) #18
  invoke void @_ZN6dealii6VectorIdED2Ev(ptr noundef nonnull align 8 dereferenceable(88) %7)
          to label %240 unwind label %506

240:                                              ; preds = %236, %45, %238
  %241 = phi { ptr, i32 } [ %239, %238 ], [ %237, %236 ], [ %46, %45 ]
  call void @llvm.lifetime.end.p0(i64 88, ptr nonnull %7) #18
  br label %475

242:                                              ; preds = %82, %57
  %243 = landingpad { ptr, i32 }
          cleanup
  br label %246

244:                                              ; preds = %76
  %245 = landingpad { ptr, i32 }
          cleanup
  call void @llvm.lifetime.end.p0(i64 1, ptr nonnull %11) #18
  invoke void @_ZN6dealii6VectorIdED2Ev(ptr noundef nonnull align 8 dereferenceable(88) %10)
          to label %246 unwind label %506

246:                                              ; preds = %242, %71, %244
  %247 = phi { ptr, i32 } [ %245, %244 ], [ %243, %242 ], [ %72, %71 ]
  call void @llvm.lifetime.end.p0(i64 88, ptr nonnull %10) #18
  br label %443

248:                                              ; preds = %86
  %249 = landingpad { ptr, i32 }
          cleanup
  br label %396

250:                                              ; preds = %92
  %251 = landingpad { ptr, i32 }
          cleanup
  br label %368

252:                                              ; preds = %98
  %253 = landingpad { ptr, i32 }
          cleanup
  call void @llvm.lifetime.end.p0(i64 24, ptr nonnull %14) #18
  br label %368

254:                                              ; preds = %361, %111
  %255 = phi i64 [ 0, %111 ], [ %362, %361 ]
  %256 = phi <2 x double> [ zeroinitializer, %111 ], [ %358, %361 ]
  %257 = load ptr, ptr %112, align 8, !tbaa !56, !noalias !73
  %258 = getelementptr inbounds %"class.dealii::Triangulation", ptr %257, i64 0, i32 1
  %259 = load i32, ptr %13, align 8, !tbaa !63, !noalias !73
  %260 = sext i32 %259 to i64
  %261 = load ptr, ptr %258, align 8, !tbaa !57, !noalias !73
  %262 = getelementptr inbounds ptr, ptr %261, i64 %260
  %263 = load ptr, ptr %262, align 8, !tbaa !59, !noalias !73
  %264 = getelementptr inbounds %"class.dealii::internal::Triangulation::TriaLevel", ptr %263, i64 0, i32 4
  %265 = load i32, ptr %105, align 4, !tbaa !54, !noalias !73
  %266 = sext i32 %265 to i64
  %267 = load ptr, ptr %264, align 8, !tbaa !62, !noalias !73
  %268 = getelementptr inbounds %"class.dealii::internal::Triangulation::TriaObject", ptr %267, i64 %266
  %269 = getelementptr inbounds [6 x i32], ptr %268, i64 0, i64 %255
  %270 = load i32, ptr %269, align 4, !tbaa !72, !noalias !73
  %271 = getelementptr inbounds %"class.dealii::Triangulation", ptr %257, i64 0, i32 2
  %272 = load ptr, ptr %271, align 8, !tbaa !74
  %273 = getelementptr inbounds %"class.dealii::internal::Triangulation::TriaObjects.223", ptr %272, i64 0, i32 5
  %274 = sext i32 %270 to i64
  %275 = load ptr, ptr %273, align 8, !tbaa !102
  %276 = getelementptr inbounds i8, ptr %275, i64 %274
  %277 = load i8, ptr %276, align 1, !tbaa !104
  %278 = icmp eq i8 %277, -1
  %279 = load ptr, ptr %113, align 8
  %280 = icmp eq ptr %279, null
  %281 = select i1 %278, i1 true, i1 %280
  br i1 %281, label %357, label %282

282:                                              ; preds = %254, %282
  %283 = phi ptr [ %292, %282 ], [ %279, %254 ]
  %284 = phi ptr [ %290, %282 ], [ %114, %254 ]
  %285 = getelementptr inbounds %"struct.std::_Rb_tree_node", ptr %283, i64 0, i32 1
  %286 = load i8, ptr %285, align 1, !tbaa !104
  %287 = icmp ult i8 %286, %277
  %288 = getelementptr inbounds %"struct.std::_Rb_tree_node_base", ptr %283, i64 0, i32 3
  %289 = getelementptr inbounds %"struct.std::_Rb_tree_node_base", ptr %283, i64 0, i32 2
  %290 = select i1 %287, ptr %284, ptr %283
  %291 = select i1 %287, ptr %288, ptr %289
  %292 = load ptr, ptr %291, align 8, !tbaa !59
  %293 = icmp eq ptr %292, null
  br i1 %293, label %294, label %282

294:                                              ; preds = %282
  %295 = icmp eq ptr %290, %114
  br i1 %295, label %357, label %296

296:                                              ; preds = %294
  %297 = getelementptr inbounds %"struct.std::_Rb_tree_node", ptr %290, i64 0, i32 1
  %298 = load i8, ptr %297, align 1, !tbaa !104
  %299 = icmp ugt i8 %298, %277
  br i1 %299, label %357, label %300

300:                                              ; preds = %296
  %301 = trunc i64 %255 to i32
  invoke void @_ZN6dealii12FEFaceValuesILi3ELi3EE6reinitERKNS_12TriaIteratorINS_15DoFCellAccessorINS_10DoFHandlerILi3ELi3EEEEEEEj(ptr noundef nonnull align 8 dereferenceable(784) %5, ptr noundef nonnull align 8 dereferenceable(24) %13, i32 noundef %301)
          to label %302 unwind label %318

302:                                              ; preds = %300
  invoke void @_ZNK6dealii12FEValuesBaseILi3ELi3EE19get_function_valuesINS_11BlockVectorIdEEdEEvRKT_RSt6vectorINS_6VectorIT0_EESaISB_EE(ptr noundef nonnull align 8 dereferenceable(648) %5, ptr noundef nonnull align 8 dereferenceable(128) %2, ptr noundef nonnull align 8 dereferenceable(24) %6)
          to label %303 unwind label %318

303:                                              ; preds = %302
  %304 = load ptr, ptr %115, align 8, !tbaa !8
  %305 = load ptr, ptr %304, align 8, !tbaa !5
  %306 = getelementptr inbounds ptr, ptr %305, i64 6
  %307 = load ptr, ptr %306, align 8
  invoke void %307(ptr noundef nonnull align 8 dereferenceable(92) %304, ptr noundef nonnull align 8 dereferenceable(24) %116, ptr noundef nonnull align 8 dereferenceable(24) %12, i32 noundef 0)
          to label %308 unwind label %318

308:                                              ; preds = %303
  call void @llvm.lifetime.start.p0(i64 16, ptr nonnull %15) #18
  call void @llvm.memcpy.p0.p0.i64(ptr noundef nonnull align 8 dereferenceable(16) %15, ptr noundef nonnull align 8 dereferenceable(16) %13, i64 16, i1 false)
  %309 = load ptr, ptr %25, align 8, !tbaa !5
  %310 = getelementptr inbounds ptr, ptr %309, i64 2
  %311 = load ptr, ptr %310, align 8
  invoke void %311(ptr noundef nonnull align 8 dereferenceable(8) %25, ptr noundef nonnull align 8 dereferenceable(16) %15, i32 noundef %301, ptr noundef nonnull align 8 dereferenceable(24) %9)
          to label %312 unwind label %320

312:                                              ; preds = %308
  call void @llvm.lifetime.end.p0(i64 16, ptr nonnull %15) #18
  br i1 %84, label %357, label %313

313:                                              ; preds = %312
  %314 = load ptr, ptr %6, align 8, !tbaa !105
  %315 = load ptr, ptr %9, align 8, !tbaa !105
  %316 = load ptr, ptr %12, align 8, !tbaa !50
  %317 = load ptr, ptr %117, align 8, !tbaa !50
  br label %322

318:                                              ; preds = %303, %302, %300
  %319 = landingpad { ptr, i32 }
          cleanup
  br label %368

320:                                              ; preds = %308
  %321 = landingpad { ptr, i32 }
          cleanup
  call void @llvm.lifetime.end.p0(i64 16, ptr nonnull %15) #18
  br label %368

322:                                              ; preds = %313, %322
  %323 = phi i64 [ 0, %313 ], [ %355, %322 ]
  %324 = phi <2 x double> [ %256, %313 ], [ %354, %322 ]
  %325 = getelementptr inbounds %"class.dealii::Vector", ptr %314, i64 %323, i32 3
  %326 = load ptr, ptr %325, align 8, !tbaa !43
  %327 = getelementptr inbounds double, ptr %326, i64 2
  %328 = load double, ptr %327, align 8, !tbaa !47
  %329 = getelementptr inbounds double, ptr %326, i64 3
  %330 = load double, ptr %329, align 8, !tbaa !47
  %331 = getelementptr inbounds %"class.dealii::Vector", ptr %315, i64 %323, i32 3
  %332 = load ptr, ptr %331, align 8, !tbaa !43
  %333 = getelementptr inbounds double, ptr %332, i64 2
  %334 = load double, ptr %333, align 8, !tbaa !47
  %335 = getelementptr inbounds double, ptr %332, i64 3
  %336 = load double, ptr %335, align 8, !tbaa !47
  %337 = getelementptr inbounds double, ptr %316, i64 %323
  %338 = load double, ptr %337, align 8, !tbaa !47
  %339 = getelementptr inbounds double, ptr %317, i64 %323
  %340 = load double, ptr %339, align 8, !tbaa !47
  %341 = insertelement <2 x double> poison, double %336, i64 0
  %342 = insertelement <2 x double> %341, double %330, i64 1
  %343 = shufflevector <2 x double> %341, <2 x double> poison, <2 x i32> zeroinitializer
  %344 = fmul <2 x double> %342, %343
  %345 = insertelement <2 x double> poison, double %334, i64 0
  %346 = insertelement <2 x double> %345, double %328, i64 1
  %347 = shufflevector <2 x double> %345, <2 x double> poison, <2 x i32> zeroinitializer
  %348 = call <2 x double> @llvm.fmuladd.v2f64(<2 x double> %346, <2 x double> %347, <2 x double> %344)
  %349 = insertelement <2 x double> poison, double %338, i64 0
  %350 = shufflevector <2 x double> %349, <2 x double> poison, <2 x i32> zeroinitializer
  %351 = fmul <2 x double> %348, %350
  %352 = insertelement <2 x double> poison, double %340, i64 0
  %353 = shufflevector <2 x double> %352, <2 x double> poison, <2 x i32> zeroinitializer
  %354 = call <2 x double> @llvm.fmuladd.v2f64(<2 x double> %351, <2 x double> %353, <2 x double> %324)
  %355 = add nuw nsw i64 %323, 1
  %356 = icmp eq i64 %355, %30
  br i1 %356, label %357, label %322

357:                                              ; preds = %322, %312, %294, %254, %296
  %358 = phi <2 x double> [ %256, %296 ], [ %256, %254 ], [ %256, %294 ], [ %256, %312 ], [ %354, %322 ]
  %359 = add nuw nsw i64 %255, 1
  %360 = icmp eq i64 %359, 6
  br i1 %360, label %118, label %361

361:                                              ; preds = %357, %230
  %362 = phi i64 [ %359, %357 ], [ 0, %230 ]
  br label %254

363:                                              ; preds = %230, %101
  %364 = phi <2 x double> [ zeroinitializer, %101 ], [ %358, %230 ]
  call void @llvm.lifetime.end.p0(i64 24, ptr nonnull %13) #18
  %365 = load ptr, ptr %12, align 8, !tbaa !50
  %366 = icmp eq ptr %365, null
  br i1 %366, label %373, label %367

367:                                              ; preds = %363
  call void @_ZdlPv(ptr noundef nonnull %365) #20
  br label %373

368:                                              ; preds = %252, %320, %318, %250
  %369 = phi { ptr, i32 } [ %251, %250 ], [ %253, %252 ], [ %321, %320 ], [ %319, %318 ]
  call void @llvm.lifetime.end.p0(i64 24, ptr nonnull %13) #18
  %370 = load ptr, ptr %12, align 8, !tbaa !50
  %371 = icmp eq ptr %370, null
  br i1 %371, label %396, label %372

372:                                              ; preds = %368
  call void @_ZdlPv(ptr noundef nonnull %370) #20
  br label %396

373:                                              ; preds = %367, %363
  call void @llvm.lifetime.end.p0(i64 24, ptr nonnull %12) #18
  %374 = load ptr, ptr %9, align 8, !tbaa !105
  %375 = getelementptr inbounds %"struct.std::_Vector_base<dealii::Vector<double>, std::allocator<dealii::Vector<double> > >::_Vector_impl_data", ptr %9, i64 0, i32 1
  %376 = load ptr, ptr %375, align 8, !tbaa !108
  %377 = icmp eq ptr %374, %376
  br i1 %377, label %387, label %378

378:                                              ; preds = %373, %382
  %379 = phi ptr [ %383, %382 ], [ %374, %373 ]
  %380 = load ptr, ptr %379, align 8, !tbaa !5
  %381 = load ptr, ptr %380, align 8
  invoke void %381(ptr noundef nonnull align 8 dereferenceable(88) %379)
          to label %382 unwind label %391

382:                                              ; preds = %378
  %383 = getelementptr inbounds %"class.dealii::Vector", ptr %379, i64 1
  %384 = icmp eq ptr %383, %376
  br i1 %384, label %385, label %378

385:                                              ; preds = %382
  %386 = load ptr, ptr %9, align 8, !tbaa !105
  br label %387

387:                                              ; preds = %385, %373
  %388 = phi ptr [ %386, %385 ], [ %374, %373 ]
  %389 = icmp eq ptr %388, null
  br i1 %389, label %420, label %390

390:                                              ; preds = %387
  call void @_ZdlPv(ptr noundef nonnull %388) #20
  br label %420

391:                                              ; preds = %378
  %392 = landingpad { ptr, i32 }
          cleanup
  %393 = load ptr, ptr %9, align 8, !tbaa !105
  %394 = icmp eq ptr %393, null
  br i1 %394, label %443, label %395

395:                                              ; preds = %391
  call void @_ZdlPv(ptr noundef nonnull %393) #20
  br label %443

396:                                              ; preds = %372, %368, %248
  %397 = phi { ptr, i32 } [ %249, %248 ], [ %369, %368 ], [ %369, %372 ]
  call void @llvm.lifetime.end.p0(i64 24, ptr nonnull %12) #18
  %398 = load ptr, ptr %9, align 8, !tbaa !105
  %399 = getelementptr inbounds %"struct.std::_Vector_base<dealii::Vector<double>, std::allocator<dealii::Vector<double> > >::_Vector_impl_data", ptr %9, i64 0, i32 1
  %400 = load ptr, ptr %399, align 8, !tbaa !108
  %401 = icmp eq ptr %398, %400
  br i1 %401, label %411, label %402

402:                                              ; preds = %396, %406
  %403 = phi ptr [ %407, %406 ], [ %398, %396 ]
  %404 = load ptr, ptr %403, align 8, !tbaa !5
  %405 = load ptr, ptr %404, align 8
  invoke void %405(ptr noundef nonnull align 8 dereferenceable(88) %403)
          to label %406 unwind label %415

406:                                              ; preds = %402
  %407 = getelementptr inbounds %"class.dealii::Vector", ptr %403, i64 1
  %408 = icmp eq ptr %407, %400
  br i1 %408, label %409, label %402

409:                                              ; preds = %406
  %410 = load ptr, ptr %9, align 8, !tbaa !105
  br label %411

411:                                              ; preds = %409, %396
  %412 = phi ptr [ %410, %409 ], [ %398, %396 ]
  %413 = icmp eq ptr %412, null
  br i1 %413, label %443, label %414

414:                                              ; preds = %411
  call void @_ZdlPv(ptr noundef nonnull %412) #20
  br label %443

415:                                              ; preds = %402
  %416 = landingpad { ptr, i32 }
          catch ptr null
  %417 = load ptr, ptr %9, align 8, !tbaa !105
  %418 = icmp eq ptr %417, null
  br i1 %418, label %508, label %419

419:                                              ; preds = %415
  call void @_ZdlPv(ptr noundef nonnull %417) #20
  br label %508

420:                                              ; preds = %390, %387
  call void @llvm.lifetime.end.p0(i64 24, ptr nonnull %9) #18
  %421 = load ptr, ptr %6, align 8, !tbaa !105
  %422 = getelementptr inbounds %"struct.std::_Vector_base<dealii::Vector<double>, std::allocator<dealii::Vector<double> > >::_Vector_impl_data", ptr %6, i64 0, i32 1
  %423 = load ptr, ptr %422, align 8, !tbaa !108
  %424 = icmp eq ptr %421, %423
  br i1 %424, label %434, label %425

425:                                              ; preds = %420, %429
  %426 = phi ptr [ %430, %429 ], [ %421, %420 ]
  %427 = load ptr, ptr %426, align 8, !tbaa !5
  %428 = load ptr, ptr %427, align 8
  invoke void %428(ptr noundef nonnull align 8 dereferenceable(88) %426)
          to label %429 unwind label %438

429:                                              ; preds = %425
  %430 = getelementptr inbounds %"class.dealii::Vector", ptr %426, i64 1
  %431 = icmp eq ptr %430, %423
  br i1 %431, label %432, label %425

432:                                              ; preds = %429
  %433 = load ptr, ptr %6, align 8, !tbaa !105
  br label %434

434:                                              ; preds = %432, %420
  %435 = phi ptr [ %433, %432 ], [ %421, %420 ]
  %436 = icmp eq ptr %435, null
  br i1 %436, label %467, label %437

437:                                              ; preds = %434
  call void @_ZdlPv(ptr noundef nonnull %435) #20
  br label %467

438:                                              ; preds = %425
  %439 = landingpad { ptr, i32 }
          cleanup
  %440 = load ptr, ptr %6, align 8, !tbaa !105
  %441 = icmp eq ptr %440, null
  br i1 %441, label %475, label %442

442:                                              ; preds = %438
  call void @_ZdlPv(ptr noundef nonnull %440) #20
  br label %475

443:                                              ; preds = %395, %391, %414, %411, %246
  %444 = phi { ptr, i32 } [ %247, %246 ], [ %397, %411 ], [ %397, %414 ], [ %392, %395 ], [ %392, %391 ]
  call void @llvm.lifetime.end.p0(i64 24, ptr nonnull %9) #18
  %445 = load ptr, ptr %6, align 8, !tbaa !105
  %446 = getelementptr inbounds %"struct.std::_Vector_base<dealii::Vector<double>, std::allocator<dealii::Vector<double> > >::_Vector_impl_data", ptr %6, i64 0, i32 1
  %447 = load ptr, ptr %446, align 8, !tbaa !108
  %448 = icmp eq ptr %445, %447
  br i1 %448, label %458, label %449

449:                                              ; preds = %443, %453
  %450 = phi ptr [ %454, %453 ], [ %445, %443 ]
  %451 = load ptr, ptr %450, align 8, !tbaa !5
  %452 = load ptr, ptr %451, align 8
  invoke void %452(ptr noundef nonnull align 8 dereferenceable(88) %450)
          to label %453 unwind label %462

453:                                              ; preds = %449
  %454 = getelementptr inbounds %"class.dealii::Vector", ptr %450, i64 1
  %455 = icmp eq ptr %454, %447
  br i1 %455, label %456, label %449

456:                                              ; preds = %453
  %457 = load ptr, ptr %6, align 8, !tbaa !105
  br label %458

458:                                              ; preds = %456, %443
  %459 = phi ptr [ %457, %456 ], [ %445, %443 ]
  %460 = icmp eq ptr %459, null
  br i1 %460, label %475, label %461

461:                                              ; preds = %458
  call void @_ZdlPv(ptr noundef nonnull %459) #20
  br label %475

462:                                              ; preds = %449
  %463 = landingpad { ptr, i32 }
          catch ptr null
